target datalayout = "e-m:e-p270:32:32-p271:32:32-p272:64:64-i64:64-i128:128-f80:128-n8:16:32:64-S128"
target triple = "x86_64-unknown-linux-gnu"

%"class.std::ios_base::Init" = type { i8 }
%"class.cvc5::internal::NullC" = type { i8 }
%"class.cvc5::internal::TraceC" = type { ptr, %"class.std::vector.377" }
%"class.std::vector.377" = type { %"struct.std::_Vector_base.378" }
%"struct.std::_Vector_base.378" = type { %"struct.std::_Vector_base<std::__cxx11::basic_string<char>, std::allocator<std::__cxx11::basic_string<char>>>::_Vector_impl" }
%"struct.std::_Vector_base<std::__cxx11::basic_string<char>, std::allocator<std::__cxx11::basic_string<char>>>::_Vector_impl" = type { %"struct.std::_Vector_base<std::__cxx11::basic_string<char>, std::allocator<std::__cxx11::basic_string<char>>>::_Vector_impl_data" }
%"struct.std::_Vector_base<std::__cxx11::basic_string<char>, std::allocator<std::__cxx11::basic_string<char>>>::_Vector_impl_data" = type { ptr, ptr, ptr }
%"class.std::__cxx11::basic_string" = type { %"struct.std::__cxx11::basic_string<char>::_Alloc_hider", i64, %union.anon }
%"struct.std::__cxx11::basic_string<char>::_Alloc_hider" = type { ptr }
%union.anon = type { i64, [8 x i8] }
%"class.cvc5::context::DefaultCleanUp" = type { i8 }
%"class.std::allocator" = type { i8 }
%"class.cvc5::internal::theory::TrustSubstitutionMap" = type { %"class.cvc5::internal::EnvObj", %"class.cvc5::internal::ProofGenerator", ptr, %"class.cvc5::internal::theory::SubstitutionMap", %"class.cvc5::context::CDList", %"class.std::unique_ptr", %"class.std::unique_ptr.29", %"class.std::unique_ptr.29", %"class.std::unique_ptr.37", %"class.std::__cxx11::basic_string", i32, i32, %"class.cvc5::context::CDHashMap.45", %"class.std::unordered_set" }
%"class.cvc5::internal::EnvObj" = type { ptr, ptr }
%"class.cvc5::internal::ProofGenerator" = type { ptr }
%"class.cvc5::internal::theory::SubstitutionMap" = type { %"class.cvc5::context::Context", %"class.cvc5::context::CDHashMap", %"class.std::unordered_map.8", i8, %"class.cvc5::internal::theory::SubstitutionMap::CacheInvalidator" }
%"class.cvc5::context::Context" = type { ptr, %"class.std::vector", ptr, ptr }
%"class.std::vector" = type { %"struct.std::_Vector_base" }
%"struct.std::_Vector_base" = type { %"struct.std::_Vector_base<cvc5::context::Scope *, std::allocator<cvc5::context::Scope *>>::_Vector_impl" }
%"struct.std::_Vector_base<cvc5::context::Scope *, std::allocator<cvc5::context::Scope *>>::_Vector_impl" = type { %"struct.std::_Vector_base<cvc5::context::Scope *, std::allocator<cvc5::context::Scope *>>::_Vector_impl_data" }
%"struct.std::_Vector_base<cvc5::context::Scope *, std::allocator<cvc5::context::Scope *>>::_Vector_impl_data" = type { ptr, ptr, ptr }
%"class.cvc5::context::CDHashMap" = type { %"class.cvc5::context::ContextObj", %"class.std::unordered_map", ptr, ptr }
%"class.cvc5::context::ContextObj" = type { ptr, ptr, ptr, ptr, ptr }
%"class.std::unordered_map" = type { %"class.std::_Hashtable" }
%"class.std::_Hashtable" = type { ptr, i64, %"struct.std::__detail::_Hash_node_base", i64, %"struct.std::__detail::_Prime_rehash_policy", ptr }
%"struct.std::__detail::_Hash_node_base" = type { ptr }
%"struct.std::__detail::_Prime_rehash_policy" = type { float, i64 }
%"class.std::unordered_map.8" = type { %"class.std::_Hashtable.9" }
%"class.std::_Hashtable.9" = type { ptr, i64, %"struct.std::__detail::_Hash_node_base", i64, %"struct.std::__detail::_Prime_rehash_policy", ptr }
%"class.cvc5::internal::theory::SubstitutionMap::CacheInvalidator" = type { %"class.cvc5::context::ContextNotifyObj", ptr }
%"class.cvc5::context::ContextNotifyObj" = type { ptr, ptr, ptr }
%"class.cvc5::context::CDList" = type <{ %"class.cvc5::context::ContextObj", %"class.std::vector.22", i64, i8, %"class.cvc5::context::DefaultCleanUp", [6 x i8] }>
%"class.std::vector.22" = type { %"struct.std::_Vector_base.23" }
%"struct.std::_Vector_base.23" = type { %"struct.std::_Vector_base<cvc5::internal::TrustNode, std::allocator<cvc5::internal::TrustNode>>::_Vector_impl" }
%"struct.std::_Vector_base<cvc5::internal::TrustNode, std::allocator<cvc5::internal::TrustNode>>::_Vector_impl" = type { %"struct.std::_Vector_base<cvc5::internal::TrustNode, std::allocator<cvc5::internal::TrustNode>>::_Vector_impl_data" }
%"struct.std::_Vector_base<cvc5::internal::TrustNode, std::allocator<cvc5::internal::TrustNode>>::_Vector_impl_data" = type { ptr, ptr, ptr }
%"class.std::unique_ptr" = type { %"struct.std::__uniq_ptr_data" }
%"struct.std::__uniq_ptr_data" = type { %"class.std::__uniq_ptr_impl" }
%"class.std::__uniq_ptr_impl" = type { %"class.std::tuple" }
%"class.std::tuple" = type { %"struct.std::_Tuple_impl" }
%"struct.std::_Tuple_impl" = type { %"struct.std::_Head_base.28" }
%"struct.std::_Head_base.28" = type { ptr }
%"class.std::unique_ptr.29" = type { %"struct.std::__uniq_ptr_data.30" }
%"struct.std::__uniq_ptr_data.30" = type { %"class.std::__uniq_ptr_impl.31" }
%"class.std::__uniq_ptr_impl.31" = type { %"class.std::tuple.32" }
%"class.std::tuple.32" = type { %"struct.std::_Tuple_impl.33" }
%"struct.std::_Tuple_impl.33" = type { %"struct.std::_Head_base.36" }
%"struct.std::_Head_base.36" = type { ptr }
%"class.std::unique_ptr.37" = type { %"struct.std::__uniq_ptr_data.38" }
%"struct.std::__uniq_ptr_data.38" = type { %"class.std::__uniq_ptr_impl.39" }
%"class.std::__uniq_ptr_impl.39" = type { %"class.std::tuple.40" }
%"class.std::tuple.40" = type { %"struct.std::_Tuple_impl.41" }
%"struct.std::_Tuple_impl.41" = type { %"struct.std::_Head_base.44" }
%"struct.std::_Head_base.44" = type { ptr }
%"class.cvc5::context::CDHashMap.45" = type { %"class.cvc5::context::ContextObj", %"class.std::unordered_map.46", ptr, ptr }
%"class.std::unordered_map.46" = type { %"class.std::_Hashtable.47" }
%"class.std::_Hashtable.47" = type { ptr, i64, %"struct.std::__detail::_Hash_node_base", i64, %"struct.std::__detail::_Prime_rehash_policy", ptr }
%"class.std::unordered_set" = type { %"class.std::_Hashtable.60" }
%"class.std::_Hashtable.60" = type { ptr, i64, %"struct.std::__detail::_Hash_node_base", i64, %"struct.std::__detail::_Prime_rehash_policy", ptr }
%"class.cvc5::context::DefaultCleanUp.374" = type { i8 }
%"class.cvc5::internal::CDProofSet" = type { ptr, %"class.cvc5::context::CDList.368", %"class.std::__cxx11::basic_string" }
%"class.cvc5::context::CDList.368" = type <{ %"class.cvc5::context::ContextObj", %"class.std::vector.369", i64, i8, %"class.cvc5::context::DefaultCleanUp.374", [6 x i8] }>
%"class.std::vector.369" = type { %"struct.std::_Vector_base.370" }
%"struct.std::_Vector_base.370" = type { %"struct.std::_Vector_base<std::shared_ptr<cvc5::internal::LazyCDProof>, std::allocator<std::shared_ptr<cvc5::internal::LazyCDProof>>>::_Vector_impl" }
%"struct.std::_Vector_base<std::shared_ptr<cvc5::internal::LazyCDProof>, std::allocator<std::shared_ptr<cvc5::internal::LazyCDProof>>>::_Vector_impl" = type { %"struct.std::_Vector_base<std::shared_ptr<cvc5::internal::LazyCDProof>, std::allocator<std::shared_ptr<cvc5::internal::LazyCDProof>>>::_Vector_impl_data" }
%"struct.std::_Vector_base<std::shared_ptr<cvc5::internal::LazyCDProof>, std::allocator<std::shared_ptr<cvc5::internal::LazyCDProof>>>::_Vector_impl_data" = type { ptr, ptr, ptr }
%"class.cvc5::internal::__cvc5_true" = type { i8 }
%"class.cvc5::internal::Cvc5ostream" = type { ptr, i8, ptr }
%"class.cvc5::internal::NodeTemplate.376" = type { ptr }
%"class.cvc5::internal::TrustNode" = type { i32, %"class.cvc5::internal::NodeTemplate", ptr }
%"class.cvc5::internal::NodeTemplate" = type { ptr }
%"class.std::shared_ptr.512" = type { %"class.std::__shared_ptr.513" }
%"class.std::__shared_ptr.513" = type { ptr, %"class.std::__shared_count" }
%"class.std::__shared_count" = type { ptr }
%"class.std::vector.382" = type { %"struct.std::_Vector_base.383" }
%"struct.std::_Vector_base.383" = type { %"struct.std::_Vector_base<cvc5::internal::NodeTemplate<true>, std::allocator<cvc5::internal::NodeTemplate<true>>>::_Vector_impl" }
%"struct.std::_Vector_base<cvc5::internal::NodeTemplate<true>, std::allocator<cvc5::internal::NodeTemplate<true>>>::_Vector_impl" = type { %"struct.std::_Vector_base<cvc5::internal::NodeTemplate<true>, std::allocator<cvc5::internal::NodeTemplate<true>>>::_Vector_impl_data" }
%"struct.std::_Vector_base<cvc5::internal::NodeTemplate<true>, std::allocator<cvc5::internal::NodeTemplate<true>>>::_Vector_impl_data" = type { ptr, ptr, ptr }
%"class.std::initializer_list" = type { ptr, i64 }
%"class.std::allocator.384" = type { i8 }
%"class.__gnu_cxx::__normal_iterator" = type { ptr }
%"class.cvc5::context::CDHashMap<cvc5::internal::NodeTemplate<true>, unsigned long>::iterator" = type { ptr }
%"struct.std::__detail::_Node_const_iterator" = type { %"struct.std::__detail::_Node_iterator_base.518" }
%"struct.std::__detail::_Node_iterator_base.518" = type { ptr }
%"struct.std::pair.519" = type { %"class.cvc5::internal::NodeTemplate", ptr }
%"struct.std::pair.538" = type <{ %"struct.std::__detail::_Node_iterator.517", i8, [7 x i8] }>
%"struct.std::__detail::_Node_iterator.517" = type { %"struct.std::__detail::_Node_iterator_base.518" }
%"class.std::shared_ptr" = type { %"class.std::__shared_ptr" }
%"class.std::__shared_ptr" = type { ptr, %"class.std::__shared_count" }
%"struct.std::__detail::_Node_iterator" = type { %"struct.std::__detail::_Node_iterator_base" }
%"struct.std::__detail::_Node_iterator_base" = type { ptr }
%"class.cvc5::internal::OstreamVoider" = type { i8 }
%"class.cvc5::internal::FatalStream" = type { i8 }
%"struct.std::pair.387" = type <{ %"struct.std::__detail::_Node_iterator", i8, [7 x i8] }>
%"struct.std::pair" = type { %"class.cvc5::internal::NodeTemplate", i64 }
%"class.__gnu_cxx::__normal_iterator.389" = type { ptr }
%"class.cvc5::internal::expr::NodeValue" = type { i64, i16, i32, [0 x ptr] }
%"struct.std::__detail::_Hash_node_value_base" = type { %"struct.__gnu_cxx::__aligned_buffer" }
%"struct.__gnu_cxx::__aligned_buffer" = type { %"union.std::aligned_storage<8, 8>::type" }
%"union.std::aligned_storage<8, 8>::type" = type { [8 x i8] }
%"class.std::allocator.477" = type { i8 }
%"struct.std::__detail::_Hash_node_value_base.482" = type { %"struct.__gnu_cxx::__aligned_buffer.483" }
%"struct.__gnu_cxx::__aligned_buffer.483" = type { %"union.std::aligned_storage<16, 8>::type" }
%"union.std::aligned_storage<16, 8>::type" = type { [16 x i8] }
%"struct.std::pair.486" = type { %"class.cvc5::internal::NodeTemplate", %"class.cvc5::internal::NodeTemplate" }
%"struct.std::__detail::_Node_iterator.488" = type { %"struct.std::__detail::_Node_iterator_base.489" }
%"struct.std::__detail::_Node_iterator_base.489" = type { ptr }
%"struct.std::pair.490" = type { %"class.cvc5::internal::NodeTemplate", ptr }
%"class.cvc5::context::CDOhash_map.492" = type { %"class.cvc5::context::ContextObj", %"struct.std::pair.493", ptr, ptr, ptr }
%"struct.std::pair.493" = type { %"class.cvc5::internal::NodeTemplate", %"class.cvc5::internal::NodeTemplate" }
%"struct.std::__detail::_Hash_node_value_base.497" = type { %"struct.__gnu_cxx::__aligned_buffer.498" }
%"struct.__gnu_cxx::__aligned_buffer.498" = type { %"union.std::aligned_storage<16, 8>::type" }
%"class.std::_Sp_counted_base" = type { ptr, i32, i32 }
%struct._Guard = type { ptr }
%"class.std::ios_base" = type { ptr, i64, i64, i32, i32, i32, ptr, %"struct.std::ios_base::_Words", [8 x %"struct.std::ios_base::_Words"], i32, ptr, %"class.std::locale" }
%"struct.std::ios_base::_Words" = type { ptr, i64 }
%"class.std::locale" = type { ptr }
%"class.__gnu_cxx::__normal_iterator.509" = type { ptr }
%"class.cvc5::internal::ProofStepBuffer" = type { i8, ptr, %"class.std::vector.333", i8, %"class.std::unordered_set" }
%"class.std::vector.333" = type { %"struct.std::_Vector_base.334" }
%"struct.std::_Vector_base.334" = type { %"struct.std::_Vector_base<std::pair<cvc5::internal::NodeTemplate<true>, cvc5::internal::ProofStep>, std::allocator<std::pair<cvc5::internal::NodeTemplate<true>, cvc5::internal::ProofStep>>>::_Vector_impl" }
%"struct.std::_Vector_base<std::pair<cvc5::internal::NodeTemplate<true>, cvc5::internal::ProofStep>, std::allocator<std::pair<cvc5::internal::NodeTemplate<true>, cvc5::internal::ProofStep>>>::_Vector_impl" = type { %"struct.std::_Vector_base<std::pair<cvc5::internal::NodeTemplate<true>, cvc5::internal::ProofStep>, std::allocator<std::pair<cvc5::internal::NodeTemplate<true>, cvc5::internal::ProofStep>>>::_Vector_impl_data" }
%"struct.std::_Vector_base<std::pair<cvc5::internal::NodeTemplate<true>, cvc5::internal::ProofStep>, std::allocator<std::pair<cvc5::internal::NodeTemplate<true>, cvc5::internal::ProofStep>>>::_Vector_impl_data" = type { ptr, ptr, ptr }
%"struct.std::pair.510" = type { %"class.cvc5::internal::NodeTemplate", %"class.cvc5::internal::ProofStep" }
%"class.cvc5::internal::ProofStep" = type { i32, %"class.std::vector.382", %"class.std::vector.382" }
%"class.__gnu_cxx::__normal_iterator.516" = type { ptr }
%"class.__gnu_cxx::__normal_iterator.515" = type { ptr }
%"class.cvc5::context::CDOhash_map" = type { %"class.cvc5::context::ContextObj", %"struct.std::pair", ptr, ptr, ptr }
%"struct.std::__detail::_Hash_node_value_base.523" = type { %"struct.__gnu_cxx::__aligned_buffer.524" }
%"struct.__gnu_cxx::__aligned_buffer.524" = type { %"union.std::aligned_storage<16, 8>::type" }
%"class.cvc5::context::Scope" = type { ptr, ptr, i32, ptr, %"class.std::vector.525" }
%"class.std::vector.525" = type { %"struct.std::_Vector_base.526" }
%"struct.std::_Vector_base.526" = type { %"struct.std::_Vector_base<cvc5::context::ContextObj *, std::allocator<cvc5::context::ContextObj *>>::_Vector_impl" }
%"struct.std::_Vector_base<cvc5::context::ContextObj *, std::allocator<cvc5::context::ContextObj *>>::_Vector_impl" = type { %"struct.std::_Vector_base<cvc5::context::ContextObj *, std::allocator<cvc5::context::ContextObj *>>::_Vector_impl_data" }
%"struct.std::_Vector_base<cvc5::context::ContextObj *, std::allocator<cvc5::context::ContextObj *>>::_Vector_impl_data" = type { ptr, ptr, ptr }
%"class.__gnu_cxx::__normal_iterator.530" = type { ptr }
%"class.std::allocator.531" = type { i8 }
%"struct.std::_Sp_alloc_shared_tag" = type { ptr }
%"class.std::allocator.532" = type { i8 }
%"struct.std::__allocated_ptr" = type { ptr, ptr }
%"class.std::_Sp_counted_ptr_inplace" = type { %"class.std::_Sp_counted_base", %"class.std::_Sp_counted_ptr_inplace<cvc5::internal::LazyCDProof, std::allocator<void>, __gnu_cxx::_S_atomic>::_Impl" }
%"class.std::_Sp_counted_ptr_inplace<cvc5::internal::LazyCDProof, std::allocator<void>, __gnu_cxx::_S_atomic>::_Impl" = type { %"struct.__gnu_cxx::__aligned_buffer.535" }
%"struct.__gnu_cxx::__aligned_buffer.535" = type { %"union.std::aligned_storage<408, 8>::type" }
%"union.std::aligned_storage<408, 8>::type" = type { [408 x i8] }
%"class.std::type_info" = type { ptr, ptr }
%"class.cvc5::internal::NodeBuilder" = type <{ %"class.cvc5::internal::expr::NodeValue", [10 x ptr], ptr, ptr, i32, [4 x i8] }>
%"struct.std::__detail::_Select1st" = type { i8 }
%"struct.std::__detail::_Mod_range_hashing" = type { i8 }
%"struct.std::__detail::_Hash_node_code_cache" = type { i64 }
%"struct.std::_Hashtable<cvc5::internal::NodeTemplate<true>, std::pair<const cvc5::internal::NodeTemplate<true>, cvc5::context::CDOhash_map<cvc5::internal::NodeTemplate<true>, unsigned long> *>, std::allocator<std::pair<const cvc5::internal::NodeTemplate<true>, cvc5::context::CDOhash_map<cvc5::internal::NodeTemplate<true>, unsigned long> *>>, std::__detail::_Select1st, std::equal_to<cvc5::internal::NodeTemplate<true>>, std::hash<cvc5::internal::Node>, std::__detail::_Mod_range_hashing, std::__detail::_Default_ranged_hash, std::__detail::_Prime_rehash_policy, std::__detail::_Hashtable_traits<true, false, true>>::_Scoped_node" = type { ptr, ptr }
%"struct.std::pair.541" = type { i8, i64 }
%"struct.std::__detail::_Identity" = type { i8 }
%"struct.std::__detail::_AllocNode" = type { ptr }
%"struct.std::_Hashtable<cvc5::internal::NodeTemplate<true>, cvc5::internal::NodeTemplate<true>, std::allocator<cvc5::internal::NodeTemplate<true>>, std::__detail::_Identity, std::equal_to<cvc5::internal::NodeTemplate<true>>, std::hash<cvc5::internal::Node>, std::__detail::_Mod_range_hashing, std::__detail::_Default_ranged_hash, std::__detail::_Prime_rehash_policy, std::__detail::_Hashtable_traits<true, true, true>>::_Scoped_node" = type { ptr, ptr }
%"class.__gnu_cxx::__normal_iterator.543" = type { ptr }

$_ZN4cvc57context6CDListINS_8internal9TrustNodeENS0_14DefaultCleanUpIS3_EESaIS3_EEC2EPNS0_7ContextEbRKS5_ = comdat any

$_ZNSt10unique_ptrIN4cvc58internal21TheoryProofStepBufferESt14default_deleteIS2_EEC2IS4_vEEDn = comdat any

$_ZNSt10unique_ptrIN4cvc58internal11LazyCDProofESt14default_deleteIS2_EEC2IS4_vEEDn = comdat any

$_ZNSt10unique_ptrIN4cvc58internal10CDProofSetINS1_11LazyCDProofEEESt14default_deleteIS4_EEC2IS6_vEEDn = comdat any

$_ZN4cvc57context9CDHashMapINS_8internal12NodeTemplateILb1EEEmSt4hashIS4_EEC2EPNS0_7ContextE = comdat any

$_ZNSt13unordered_setIN4cvc58internal12NodeTemplateILb1EEESt4hashIS3_ESt8equal_toIS3_ESaIS3_EEC2Ev = comdat any

$_ZNSt10unique_ptrIN4cvc58internal21TheoryProofStepBufferESt14default_deleteIS2_EE5resetEPS2_ = comdat any

$_ZNSt10unique_ptrIN4cvc58internal11LazyCDProofESt14default_deleteIS2_EE5resetEPS2_ = comdat any

$_ZNSt7__cxx1112basic_stringIcSt11char_traitsIcESaIcEEC2IS3_EEPKcRKS3_ = comdat any

$_ZNSt10unique_ptrIN4cvc58internal10CDProofSetINS1_11LazyCDProofEEESt14default_deleteIS4_EE5resetEPS4_ = comdat any

$_ZN4cvc58internal10CDProofSetINS0_11LazyCDProofEEC2ERNS0_3EnvEPNS_7context7ContextENSt7__cxx1112basic_stringIcSt11char_traitsIcESaIcEEE = comdat any

$_ZNSt13unordered_setIN4cvc58internal12NodeTemplateILb1EEESt4hashIS3_ESt8equal_toIS3_ESaIS3_EED2Ev = comdat any

$_ZN4cvc57context9CDHashMapINS_8internal12NodeTemplateILb1EEEmSt4hashIS4_EED2Ev = comdat any

$_ZNSt10unique_ptrIN4cvc58internal10CDProofSetINS1_11LazyCDProofEEESt14default_deleteIS4_EED2Ev = comdat any

$_ZNSt10unique_ptrIN4cvc58internal11LazyCDProofESt14default_deleteIS2_EED2Ev = comdat any

$_ZNSt10unique_ptrIN4cvc58internal21TheoryProofStepBufferESt14default_deleteIS2_EED2Ev = comdat any

$_ZN4cvc57context6CDListINS_8internal9TrustNodeENS0_14DefaultCleanUpIS3_EESaIS3_EED2Ev = comdat any

$_ZN4cvc58internal6theory15SubstitutionMapD2Ev = comdat any

$_ZN4cvc58internal6EnvObjD2Ev = comdat any

$_ZN4cvc58internal11__cvc5_truecvbEv = comdat any

$_ZNK4cvc58internal5NullCcvNS0_11Cvc5ostreamEEv = comdat any

$_ZNK4cvc58internal6TraceCclEv = comdat any

$_ZN4cvc58internal11Cvc5ostreamlsIA44_cEERS1_RKT_ = comdat any

$_ZN4cvc58internal11Cvc5ostreamlsINS0_12NodeTemplateILb0EEEEERS1_RKT_ = comdat any

$_ZN4cvc58internal11Cvc5ostreamlsIA5_cEERS1_RKT_ = comdat any

$_ZN4cvc58internal11Cvc5ostreamlsEPFRSoS2_E = comdat any

$_ZN4cvc58internal12NodeTemplateILb0EEC2ERKS2_ = comdat any

$_ZN4cvc58internal12NodeTemplateILb0EED2Ev = comdat any

$_ZN4cvc58internal12NodeTemplateILb1EEC2ERKNS1_ILb0EEE = comdat any

$_ZN4cvc58internal12NodeTemplateILb1EED2Ev = comdat any

$_ZN4cvc57context6CDListINS_8internal9TrustNodeENS0_14DefaultCleanUpIS3_EESaIS3_EE9push_backERKS3_ = comdat any

$_ZNKSt10unique_ptrIN4cvc58internal11LazyCDProofESt14default_deleteIS2_EEptEv = comdat any

$_ZN4cvc58internal9TrustNodeD2Ev = comdat any

$_ZNKSt10unique_ptrIN4cvc58internal10CDProofSetINS1_11LazyCDProofEEESt14default_deleteIS4_EEptEv = comdat any

$_ZN4cvc58internal10CDProofSetINS0_11LazyCDProofEE13allocateProofIJDnRPNS_7context7ContextEEEEPS2_DpOT_ = comdat any

$_ZNK4cvc58internal12NodeTemplateILb0EE6eqNodeILb0EEENS1_ILb1EEERKNS1_IXT_EEE = comdat any

$_ZN4cvc58internal12NodeTemplateILb1EEC2ERKS2_ = comdat any

$_ZN4cvc58internal11Cvc5ostreamlsIA50_cEERS1_RKT_ = comdat any

$_ZN4cvc58internal11Cvc5ostreamlsIA7_cEERS1_RKT_ = comdat any

$_ZN4cvc58internal11Cvc5ostreamlsINS0_12NodeTemplateILb1EEEEERS1_RKT_ = comdat any

$_ZN4cvc58internal11Cvc5ostreamlsIA12_cEERS1_RKT_ = comdat any

$_ZNK4cvc58internal12NodeTemplateILb1EEeqILb1EEEbRKNS1_IXT_EEE = comdat any

$_ZN4cvc58internal11Cvc5ostreamlsIA26_cEERS1_RKT_ = comdat any

$_ZNKSt10unique_ptrIN4cvc58internal21TheoryProofStepBufferESt14default_deleteIS2_EEptEv = comdat any

$_ZNSt6vectorIN4cvc58internal12NodeTemplateILb1EEESaIS3_EEC2Ev = comdat any

$_ZNSt6vectorIN4cvc58internal12NodeTemplateILb1EEESaIS3_EED2Ev = comdat any

$_ZN4cvc58internal11Cvc5ostreamlsIA22_cEERS1_RKT_ = comdat any

$_ZNSaIN4cvc58internal12NodeTemplateILb1EEEEC2Ev = comdat any

$_ZNSt6vectorIN4cvc58internal12NodeTemplateILb1EEESaIS3_EEC2ESt16initializer_listIS3_ERKS4_ = comdat any

$_ZNSaIN4cvc58internal12NodeTemplateILb1EEEED2Ev = comdat any

$_ZNKSt10unique_ptrIN4cvc58internal21TheoryProofStepBufferESt14default_deleteIS2_EE3getEv = comdat any

$_ZNK4cvc57context6CDListINS_8internal9TrustNodeENS0_14DefaultCleanUpIS3_EESaIS3_EE5beginEv = comdat any

$_ZNK4cvc57context6CDListINS_8internal9TrustNodeENS0_14DefaultCleanUpIS3_EESaIS3_EE3endEv = comdat any

$_ZN9__gnu_cxxneIPKN4cvc58internal9TrustNodeESt6vectorIS3_SaIS3_EEEEbRKNS_17__normal_iteratorIT_T0_EESE_ = comdat any

$_ZNK9__gnu_cxx17__normal_iteratorIPKN4cvc58internal9TrustNodeESt6vectorIS3_SaIS3_EEEdeEv = comdat any

$_ZNK4cvc58internal12NodeTemplateILb1EEixEi = comdat any

$_ZN4cvc58internal12NodeTemplateILb0EEC2ERKNS1_ILb1EEE = comdat any

$_ZN9__gnu_cxx17__normal_iteratorIPKN4cvc58internal9TrustNodeESt6vectorIS3_SaIS3_EEEppEv = comdat any

$_ZN4cvc58internal11Cvc5ostreamlsIA46_cEERS1_RKT_ = comdat any

$_ZN4cvc58internal11Cvc5ostreamlsIA9_cEERS1_RKT_ = comdat any

$_ZNK4cvc58internal12NodeTemplateILb1EE6eqNodeILb1EEES2_RKNS1_IXT_EEE = comdat any

$_ZNK4cvc57context9CDHashMapINS_8internal12NodeTemplateILb1EEEmSt4hashIS4_EE4findERKS4_ = comdat any

$_ZNK4cvc57context9CDHashMapINS_8internal12NodeTemplateILb1EEEmSt4hashIS4_EE8iteratoreqERKS8_ = comdat any

$_ZNK4cvc57context9CDHashMapINS_8internal12NodeTemplateILb1EEEmSt4hashIS4_EE3endEv = comdat any

$_ZNK4cvc57context6CDListINS_8internal9TrustNodeENS0_14DefaultCleanUpIS3_EESaIS3_EE4sizeEv = comdat any

$_ZN4cvc57context9CDHashMapINS_8internal12NodeTemplateILb1EEEmSt4hashIS4_EEixERKS4_ = comdat any

$_ZN4cvc57context11CDOhash_mapINS_8internal12NodeTemplateILb1EEEmSt4hashIS4_EEaSERKm = comdat any

$_ZN4cvc58internal11Cvc5ostreamlsIA13_cEERS1_RKT_ = comdat any

$_ZNSt8__detaileqERKNS_19_Node_iterator_baseIN4cvc58internal12NodeTemplateILb1EEELb1EEES7_ = comdat any

$_ZNSt13unordered_setIN4cvc58internal12NodeTemplateILb1EEESt4hashIS3_ESt8equal_toIS3_ESaIS3_EE4findERKS3_ = comdat any

$_ZNSt13unordered_setIN4cvc58internal12NodeTemplateILb1EEESt4hashIS3_ESt8equal_toIS3_ESaIS3_EE3endEv = comdat any

$_ZN4cvc58internal13OstreamVoiderC2Ev = comdat any

$_ZN4cvc58internal13OstreamVoideranERSo = comdat any

$_ZN4cvc58internallsERSoNS0_12NodeTemplateILb0EEE = comdat any

$_ZNSt13unordered_setIN4cvc58internal12NodeTemplateILb1EEESt4hashIS3_ESt8equal_toIS3_ESaIS3_EE6insertERKS3_ = comdat any

$_ZN4cvc58internal11Cvc5ostreamlsIA51_cEERS1_RKT_ = comdat any

$_ZN4cvc58internal11Cvc5ostreamlsImEERS1_RKT_ = comdat any

$_ZNK4cvc57context9CDHashMapINS_8internal12NodeTemplateILb1EEEmSt4hashIS4_EE8iteratorptEv = comdat any

$_ZN4cvc58internal11Cvc5ostreamlsIA29_cEERS1_RKT_ = comdat any

$_ZNSt6vectorIN4cvc58internal12NodeTemplateILb1EEESaIS3_EE9push_backERKS3_ = comdat any

$_ZNKSt10unique_ptrIN4cvc58internal11LazyCDProofESt14default_deleteIS2_EE3getEv = comdat any

$_ZN4cvc58internal11Cvc5ostreamlsIA18_cEERS1_RKT_ = comdat any

$_ZN4cvc58internal11Cvc5ostreamlsIA14_cEERS1_RKT_ = comdat any

$_ZNSt13unordered_setIN4cvc58internal12NodeTemplateILb1EEESt4hashIS3_ESt8equal_toIS3_ESaIS3_EE5eraseERKS3_ = comdat any

$_ZNSt10shared_ptrIN4cvc58internal9ProofNodeEED2Ev = comdat any

$_ZStneIN4cvc58internal11LazyCDProofESt14default_deleteIS2_EEbRKSt10unique_ptrIT_T0_EDn = comdat any

$_ZNSt6vectorIN4cvc58internal12NodeTemplateILb1EEESaIS3_EE9push_backEOS3_ = comdat any

$_ZNK4cvc57context6CDListINS_8internal9TrustNodeENS0_14DefaultCleanUpIS3_EESaIS3_EEixEm = comdat any

$_ZSt7reverseIN9__gnu_cxx17__normal_iteratorIPN4cvc58internal12NodeTemplateILb1EEESt6vectorIS5_SaIS5_EEEEEvT_SB_ = comdat any

$_ZNSt6vectorIN4cvc58internal12NodeTemplateILb1EEESaIS3_EE5beginEv = comdat any

$_ZNSt6vectorIN4cvc58internal12NodeTemplateILb1EEESaIS3_EE3endEv = comdat any

$_ZN4cvc58internal11NodeManager5mkAndILb1EEENS0_12NodeTemplateILb1EEERKSt6vectorINS3_IXT_EEESaIS6_EE = comdat any

$_ZNK4cvc58internal12NodeTemplateILb1EE7getKindEv = comdat any

$_ZN4cvc58internal6theory20TrustSubstitutionMapD2Ev = comdat any

$_ZN4cvc58internal6theory20TrustSubstitutionMapD0Ev = comdat any

$_ZThn16_N4cvc58internal6theory20TrustSubstitutionMapD1Ev = comdat any

$_ZThn16_N4cvc58internal6theory20TrustSubstitutionMapD0Ev = comdat any

$_ZN4cvc58internal14ProofGenerator11hasProofForENS0_12NodeTemplateILb1EEE = comdat any

$_ZNSt15__uniq_ptr_dataIN4cvc58internal21TheoryProofStepBufferESt14default_deleteIS2_ELb1ELb1EEC2Ev = comdat any

$_ZNSt15__uniq_ptr_implIN4cvc58internal21TheoryProofStepBufferESt14default_deleteIS2_EEC2Ev = comdat any

$_ZNSt5tupleIJPN4cvc58internal21TheoryProofStepBufferESt14default_deleteIS2_EEEC2ILb1ETnNSt9enable_ifIXclsr17_TupleConstraintsIXT_ES3_S5_EE37__is_implicitly_default_constructibleEEbE4typeELb1EEEv = comdat any

$_ZNSt11_Tuple_implILm0EJPN4cvc58internal21TheoryProofStepBufferESt14default_deleteIS2_EEEC2Ev = comdat any

$__clang_call_terminate = comdat any

$_ZNSt11_Tuple_implILm1EJSt14default_deleteIN4cvc58internal21TheoryProofStepBufferEEEEC2Ev = comdat any

$_ZNSt10_Head_baseILm0EPN4cvc58internal21TheoryProofStepBufferELb0EEC2Ev = comdat any

$_ZNSt10_Head_baseILm1ESt14default_deleteIN4cvc58internal21TheoryProofStepBufferEELb1EEC2Ev = comdat any

$_ZNSt15__uniq_ptr_dataIN4cvc58internal11LazyCDProofESt14default_deleteIS2_ELb1ELb1EEC2Ev = comdat any

$_ZNSt15__uniq_ptr_implIN4cvc58internal11LazyCDProofESt14default_deleteIS2_EEC2Ev = comdat any

$_ZNSt5tupleIJPN4cvc58internal11LazyCDProofESt14default_deleteIS2_EEEC2ILb1ETnNSt9enable_ifIXclsr17_TupleConstraintsIXT_ES3_S5_EE37__is_implicitly_default_constructibleEEbE4typeELb1EEEv = comdat any

$_ZNSt11_Tuple_implILm0EJPN4cvc58internal11LazyCDProofESt14default_deleteIS2_EEEC2Ev = comdat any

$_ZNSt11_Tuple_implILm1EJSt14default_deleteIN4cvc58internal11LazyCDProofEEEEC2Ev = comdat any

$_ZNSt10_Head_baseILm0EPN4cvc58internal11LazyCDProofELb0EEC2Ev = comdat any

$_ZNSt10_Head_baseILm1ESt14default_deleteIN4cvc58internal11LazyCDProofEELb1EEC2Ev = comdat any

$_ZNSt15__uniq_ptr_dataIN4cvc58internal10CDProofSetINS1_11LazyCDProofEEESt14default_deleteIS4_ELb1ELb1EEC2Ev = comdat any

$_ZNSt15__uniq_ptr_implIN4cvc58internal10CDProofSetINS1_11LazyCDProofEEESt14default_deleteIS4_EEC2Ev = comdat any

$_ZNSt5tupleIJPN4cvc58internal10CDProofSetINS1_11LazyCDProofEEESt14default_deleteIS4_EEEC2ILb1ETnNSt9enable_ifIXclsr17_TupleConstraintsIXT_ES5_S7_EE37__is_implicitly_default_constructibleEEbE4typeELb1EEEv = comdat any

$_ZNSt11_Tuple_implILm0EJPN4cvc58internal10CDProofSetINS1_11LazyCDProofEEESt14default_deleteIS4_EEEC2Ev = comdat any

$_ZNSt11_Tuple_implILm1EJSt14default_deleteIN4cvc58internal10CDProofSetINS2_11LazyCDProofEEEEEEC2Ev = comdat any

$_ZNSt10_Head_baseILm0EPN4cvc58internal10CDProofSetINS1_11LazyCDProofEEELb0EEC2Ev = comdat any

$_ZNSt10_Head_baseILm1ESt14default_deleteIN4cvc58internal10CDProofSetINS2_11LazyCDProofEEEELb1EEC2Ev = comdat any

$_ZNSt10_HashtableIN4cvc58internal12NodeTemplateILb1EEES3_SaIS3_ENSt8__detail9_IdentityESt8equal_toIS3_ESt4hashIS3_ENS5_18_Mod_range_hashingENS5_20_Default_ranged_hashENS5_20_Prime_rehash_policyENS5_17_Hashtable_traitsILb1ELb1ELb1EEEEC2Ev = comdat any

$_ZNSt8__detail15_Hashtable_baseIN4cvc58internal12NodeTemplateILb1EEES4_NS_9_IdentityESt8equal_toIS4_ESt4hashIS4_ENS_18_Mod_range_hashingENS_20_Default_ranged_hashENS_17_Hashtable_traitsILb1ELb1ELb1EEEEC2Ev = comdat any

$_ZNSt8__detail16_Hashtable_allocISaINS_10_Hash_nodeIN4cvc58internal12NodeTemplateILb1EEELb1EEEEEC2Ev = comdat any

$_ZNSt8__detail15_Hash_node_baseC2Ev = comdat any

$_ZNSt8__detail20_Prime_rehash_policyC2Ef = comdat any

$_ZNSt8__detail15_Hash_code_baseIN4cvc58internal12NodeTemplateILb1EEES4_NS_9_IdentityESt4hashIS4_ENS_18_Mod_range_hashingENS_20_Default_ranged_hashELb1EEC2Ev = comdat any

$_ZNSt8__detail21_Hashtable_ebo_helperILi0ESt8equal_toIN4cvc58internal12NodeTemplateILb1EEEELb1EEC2Ev = comdat any

$_ZNSt8__detail21_Hashtable_ebo_helperILi1ESt4hashIN4cvc58internal12NodeTemplateILb1EEEELb1EEC2Ev = comdat any

$_ZNSt8__detail21_Hashtable_ebo_helperILi0ESaINS_10_Hash_nodeIN4cvc58internal12NodeTemplateILb1EEELb1EEEELb1EEC2Ev = comdat any

$_ZNSaINSt8__detail10_Hash_nodeIN4cvc58internal12NodeTemplateILb1EEELb1EEEEC2Ev = comdat any

$_ZNSt15__new_allocatorINSt8__detail10_Hash_nodeIN4cvc58internal12NodeTemplateILb1EEELb1EEEEC2Ev = comdat any

$_ZNSt10_HashtableIN4cvc58internal12NodeTemplateILb1EEES3_SaIS3_ENSt8__detail9_IdentityESt8equal_toIS3_ESt4hashIS3_ENS5_18_Mod_range_hashingENS5_20_Default_ranged_hashENS5_20_Prime_rehash_policyENS5_17_Hashtable_traitsILb1ELb1ELb1EEEED2Ev = comdat any

$_ZNSt10_HashtableIN4cvc58internal12NodeTemplateILb1EEES3_SaIS3_ENSt8__detail9_IdentityESt8equal_toIS3_ESt4hashIS3_ENS5_18_Mod_range_hashingENS5_20_Default_ranged_hashENS5_20_Prime_rehash_policyENS5_17_Hashtable_traitsILb1ELb1ELb1EEEE5clearEv = comdat any

$_ZNSt10_HashtableIN4cvc58internal12NodeTemplateILb1EEES3_SaIS3_ENSt8__detail9_IdentityESt8equal_toIS3_ESt4hashIS3_ENS5_18_Mod_range_hashingENS5_20_Default_ranged_hashENS5_20_Prime_rehash_policyENS5_17_Hashtable_traitsILb1ELb1ELb1EEEE21_M_deallocate_bucketsEv = comdat any

$_ZNSt8__detail16_Hashtable_allocISaINS_10_Hash_nodeIN4cvc58internal12NodeTemplateILb1EEELb1EEEEED2Ev = comdat any

$_ZNSt8__detail16_Hashtable_allocISaINS_10_Hash_nodeIN4cvc58internal12NodeTemplateILb1EEELb1EEEEE19_M_deallocate_nodesEPS6_ = comdat any

$_ZNKSt10_HashtableIN4cvc58internal12NodeTemplateILb1EEES3_SaIS3_ENSt8__detail9_IdentityESt8equal_toIS3_ESt4hashIS3_ENS5_18_Mod_range_hashingENS5_20_Default_ranged_hashENS5_20_Prime_rehash_policyENS5_17_Hashtable_traitsILb1ELb1ELb1EEEE8_M_beginEv = comdat any

$_ZNKSt8__detail10_Hash_nodeIN4cvc58internal12NodeTemplateILb1EEELb1EE7_M_nextEv = comdat any

$_ZNSt8__detail16_Hashtable_allocISaINS_10_Hash_nodeIN4cvc58internal12NodeTemplateILb1EEELb1EEEEE18_M_deallocate_nodeEPS6_ = comdat any

$_ZNSt16allocator_traitsISaINSt8__detail10_Hash_nodeIN4cvc58internal12NodeTemplateILb1EEELb1EEEEE7destroyIS5_EEvRS7_PT_ = comdat any

$_ZNSt8__detail16_Hashtable_allocISaINS_10_Hash_nodeIN4cvc58internal12NodeTemplateILb1EEELb1EEEEE17_M_node_allocatorEv = comdat any

$_ZNSt8__detail21_Hash_node_value_baseIN4cvc58internal12NodeTemplateILb1EEEE9_M_valptrEv = comdat any

$_ZNSt8__detail16_Hashtable_allocISaINS_10_Hash_nodeIN4cvc58internal12NodeTemplateILb1EEELb1EEEEE22_M_deallocate_node_ptrEPS6_ = comdat any

$_ZNSt15__new_allocatorINSt8__detail10_Hash_nodeIN4cvc58internal12NodeTemplateILb1EEELb1EEEE7destroyIS5_EEvPT_ = comdat any

$_ZNSt8__detail21_Hashtable_ebo_helperILi0ESaINS_10_Hash_nodeIN4cvc58internal12NodeTemplateILb1EEELb1EEEELb1EE6_M_getEv = comdat any

$_ZN9__gnu_cxx16__aligned_bufferIN4cvc58internal12NodeTemplateILb1EEEE6_M_ptrEv = comdat any

$_ZN9__gnu_cxx16__aligned_bufferIN4cvc58internal12NodeTemplateILb1EEEE7_M_addrEv = comdat any

$_ZNSt19__ptr_traits_ptr_toIPNSt8__detail10_Hash_nodeIN4cvc58internal12NodeTemplateILb1EEELb1EEES6_Lb0EE10pointer_toERS6_ = comdat any

$_ZNSt16allocator_traitsISaINSt8__detail10_Hash_nodeIN4cvc58internal12NodeTemplateILb1EEELb1EEEEE10deallocateERS7_PS6_m = comdat any

$_ZNSt15__new_allocatorINSt8__detail10_Hash_nodeIN4cvc58internal12NodeTemplateILb1EEELb1EEEE10deallocateEPS6_m = comdat any

$_ZNSt10_HashtableIN4cvc58internal12NodeTemplateILb1EEES3_SaIS3_ENSt8__detail9_IdentityESt8equal_toIS3_ESt4hashIS3_ENS5_18_Mod_range_hashingENS5_20_Default_ranged_hashENS5_20_Prime_rehash_policyENS5_17_Hashtable_traitsILb1ELb1ELb1EEEE21_M_deallocate_bucketsEPPNS5_15_Hash_node_baseEm = comdat any

$_ZNKSt10_HashtableIN4cvc58internal12NodeTemplateILb1EEES3_SaIS3_ENSt8__detail9_IdentityESt8equal_toIS3_ESt4hashIS3_ENS5_18_Mod_range_hashingENS5_20_Default_ranged_hashENS5_20_Prime_rehash_policyENS5_17_Hashtable_traitsILb1ELb1ELb1EEEE21_M_uses_single_bucketEPPNS5_15_Hash_node_baseE = comdat any

$_ZNSt8__detail16_Hashtable_allocISaINS_10_Hash_nodeIN4cvc58internal12NodeTemplateILb1EEELb1EEEEE21_M_deallocate_bucketsEPPNS_15_Hash_node_baseEm = comdat any

$_ZNSt19__ptr_traits_ptr_toIPPNSt8__detail15_Hash_node_baseES2_Lb0EE10pointer_toERS2_ = comdat any

$_ZNSaIPNSt8__detail15_Hash_node_baseEEC2INS_10_Hash_nodeIN4cvc58internal12NodeTemplateILb1EEELb1EEEEERKSaIT_E = comdat any

$_ZNSt16allocator_traitsISaIPNSt8__detail15_Hash_node_baseEEE10deallocateERS3_PS2_m = comdat any

$_ZNSaIPNSt8__detail15_Hash_node_baseEED2Ev = comdat any

$_ZNSt15__new_allocatorIPNSt8__detail15_Hash_node_baseEEC2Ev = comdat any

$_ZNSt15__new_allocatorIPNSt8__detail15_Hash_node_baseEE10deallocateEPS2_m = comdat any

$_ZNSt15__new_allocatorIPNSt8__detail15_Hash_node_baseEED2Ev = comdat any

$_ZNSt8__detail21_Hashtable_ebo_helperILi0ESaINS_10_Hash_nodeIN4cvc58internal12NodeTemplateILb1EEELb1EEEELb1EED2Ev = comdat any

$_ZNSaINSt8__detail10_Hash_nodeIN4cvc58internal12NodeTemplateILb1EEELb1EEEED2Ev = comdat any

$_ZNSt15__new_allocatorINSt8__detail10_Hash_nodeIN4cvc58internal12NodeTemplateILb1EEELb1EEEED2Ev = comdat any

$_ZN4cvc58internal6theory15SubstitutionMap16CacheInvalidatorD2Ev = comdat any

$_ZNSt13unordered_mapIN4cvc58internal12NodeTemplateILb1EEES3_St4hashIS3_ESt8equal_toIS3_ESaISt4pairIKS3_S3_EEED2Ev = comdat any

$_ZN4cvc57context9CDHashMapINS_8internal12NodeTemplateILb1EEES4_St4hashIS4_EED2Ev = comdat any

$_ZNSt10_HashtableIN4cvc58internal12NodeTemplateILb1EEESt4pairIKS3_S3_ESaIS6_ENSt8__detail10_Select1stESt8equal_toIS3_ESt4hashIS3_ENS8_18_Mod_range_hashingENS8_20_Default_ranged_hashENS8_20_Prime_rehash_policyENS8_17_Hashtable_traitsILb1ELb0ELb1EEEED2Ev = comdat any

$_ZNSt10_HashtableIN4cvc58internal12NodeTemplateILb1EEESt4pairIKS3_S3_ESaIS6_ENSt8__detail10_Select1stESt8equal_toIS3_ESt4hashIS3_ENS8_18_Mod_range_hashingENS8_20_Default_ranged_hashENS8_20_Prime_rehash_policyENS8_17_Hashtable_traitsILb1ELb0ELb1EEEE5clearEv = comdat any

$_ZNSt10_HashtableIN4cvc58internal12NodeTemplateILb1EEESt4pairIKS3_S3_ESaIS6_ENSt8__detail10_Select1stESt8equal_toIS3_ESt4hashIS3_ENS8_18_Mod_range_hashingENS8_20_Default_ranged_hashENS8_20_Prime_rehash_policyENS8_17_Hashtable_traitsILb1ELb0ELb1EEEE21_M_deallocate_bucketsEv = comdat any

$_ZNSt8__detail16_Hashtable_allocISaINS_10_Hash_nodeISt4pairIKN4cvc58internal12NodeTemplateILb1EEES6_ELb1EEEEED2Ev = comdat any

$_ZNSt8__detail16_Hashtable_allocISaINS_10_Hash_nodeISt4pairIKN4cvc58internal12NodeTemplateILb1EEES6_ELb1EEEEE19_M_deallocate_nodesEPS9_ = comdat any

$_ZNKSt10_HashtableIN4cvc58internal12NodeTemplateILb1EEESt4pairIKS3_S3_ESaIS6_ENSt8__detail10_Select1stESt8equal_toIS3_ESt4hashIS3_ENS8_18_Mod_range_hashingENS8_20_Default_ranged_hashENS8_20_Prime_rehash_policyENS8_17_Hashtable_traitsILb1ELb0ELb1EEEE8_M_beginEv = comdat any

$_ZNKSt8__detail10_Hash_nodeISt4pairIKN4cvc58internal12NodeTemplateILb1EEES5_ELb1EE7_M_nextEv = comdat any

$_ZNSt8__detail16_Hashtable_allocISaINS_10_Hash_nodeISt4pairIKN4cvc58internal12NodeTemplateILb1EEES6_ELb1EEEEE18_M_deallocate_nodeEPS9_ = comdat any

$_ZNSt16allocator_traitsISaINSt8__detail10_Hash_nodeISt4pairIKN4cvc58internal12NodeTemplateILb1EEES6_ELb1EEEEE7destroyIS8_EEvRSA_PT_ = comdat any

$_ZNSt8__detail16_Hashtable_allocISaINS_10_Hash_nodeISt4pairIKN4cvc58internal12NodeTemplateILb1EEES6_ELb1EEEEE17_M_node_allocatorEv = comdat any

$_ZNSt8__detail21_Hash_node_value_baseISt4pairIKN4cvc58internal12NodeTemplateILb1EEES5_EE9_M_valptrEv = comdat any

$_ZNSt8__detail16_Hashtable_allocISaINS_10_Hash_nodeISt4pairIKN4cvc58internal12NodeTemplateILb1EEES6_ELb1EEEEE22_M_deallocate_node_ptrEPS9_ = comdat any

$_ZNSt15__new_allocatorINSt8__detail10_Hash_nodeISt4pairIKN4cvc58internal12NodeTemplateILb1EEES6_ELb1EEEE7destroyIS8_EEvPT_ = comdat any

$_ZNSt4pairIKN4cvc58internal12NodeTemplateILb1EEES3_ED2Ev = comdat any

$_ZNSt8__detail21_Hashtable_ebo_helperILi0ESaINS_10_Hash_nodeISt4pairIKN4cvc58internal12NodeTemplateILb1EEES6_ELb1EEEELb1EE6_M_getEv = comdat any

$_ZN9__gnu_cxx16__aligned_bufferISt4pairIKN4cvc58internal12NodeTemplateILb1EEES5_EE6_M_ptrEv = comdat any

$_ZN9__gnu_cxx16__aligned_bufferISt4pairIKN4cvc58internal12NodeTemplateILb1EEES5_EE7_M_addrEv = comdat any

$_ZNSt19__ptr_traits_ptr_toIPNSt8__detail10_Hash_nodeISt4pairIKN4cvc58internal12NodeTemplateILb1EEES6_ELb1EEES9_Lb0EE10pointer_toERS9_ = comdat any

$_ZNSt16allocator_traitsISaINSt8__detail10_Hash_nodeISt4pairIKN4cvc58internal12NodeTemplateILb1EEES6_ELb1EEEEE10deallocateERSA_PS9_m = comdat any

$_ZNSt15__new_allocatorINSt8__detail10_Hash_nodeISt4pairIKN4cvc58internal12NodeTemplateILb1EEES6_ELb1EEEE10deallocateEPS9_m = comdat any

$_ZNSt10_HashtableIN4cvc58internal12NodeTemplateILb1EEESt4pairIKS3_S3_ESaIS6_ENSt8__detail10_Select1stESt8equal_toIS3_ESt4hashIS3_ENS8_18_Mod_range_hashingENS8_20_Default_ranged_hashENS8_20_Prime_rehash_policyENS8_17_Hashtable_traitsILb1ELb0ELb1EEEE21_M_deallocate_bucketsEPPNS8_15_Hash_node_baseEm = comdat any

$_ZNKSt10_HashtableIN4cvc58internal12NodeTemplateILb1EEESt4pairIKS3_S3_ESaIS6_ENSt8__detail10_Select1stESt8equal_toIS3_ESt4hashIS3_ENS8_18_Mod_range_hashingENS8_20_Default_ranged_hashENS8_20_Prime_rehash_policyENS8_17_Hashtable_traitsILb1ELb0ELb1EEEE21_M_uses_single_bucketEPPNS8_15_Hash_node_baseE = comdat any

$_ZNSt8__detail16_Hashtable_allocISaINS_10_Hash_nodeISt4pairIKN4cvc58internal12NodeTemplateILb1EEES6_ELb1EEEEE21_M_deallocate_bucketsEPPNS_15_Hash_node_baseEm = comdat any

$_ZNSaIPNSt8__detail15_Hash_node_baseEEC2INS_10_Hash_nodeISt4pairIKN4cvc58internal12NodeTemplateILb1EEES9_ELb1EEEEERKSaIT_E = comdat any

$_ZNSt8__detail21_Hashtable_ebo_helperILi0ESaINS_10_Hash_nodeISt4pairIKN4cvc58internal12NodeTemplateILb1EEES6_ELb1EEEELb1EED2Ev = comdat any

$_ZNSaINSt8__detail10_Hash_nodeISt4pairIKN4cvc58internal12NodeTemplateILb1EEES5_ELb1EEEED2Ev = comdat any

$_ZNSt15__new_allocatorINSt8__detail10_Hash_nodeISt4pairIKN4cvc58internal12NodeTemplateILb1EEES6_ELb1EEEED2Ev = comdat any

$_ZN4cvc57context9CDHashMapINS_8internal12NodeTemplateILb1EEES4_St4hashIS4_EE5clearEv = comdat any

$_ZNSt13unordered_mapIN4cvc58internal12NodeTemplateILb1EEEPNS0_7context11CDOhash_mapIS3_S3_St4hashIS3_EEES7_St8equal_toIS3_ESaISt4pairIKS3_S9_EEED2Ev = comdat any

$_ZN4cvc57context9CDHashMapINS_8internal12NodeTemplateILb1EEES4_St4hashIS4_EE4saveEPNS0_20ContextMemoryManagerE = comdat any

$_ZN4cvc57context9CDHashMapINS_8internal12NodeTemplateILb1EEES4_St4hashIS4_EE7restoreEPNS0_10ContextObjE = comdat any

$_ZN4cvc57context9CDHashMapINS_8internal12NodeTemplateILb1EEES4_St4hashIS4_EED0Ev = comdat any

$_ZNSt13unordered_mapIN4cvc58internal12NodeTemplateILb1EEEPNS0_7context11CDOhash_mapIS3_S3_St4hashIS3_EEES7_St8equal_toIS3_ESaISt4pairIKS3_S9_EEE5beginEv = comdat any

$_ZNSt13unordered_mapIN4cvc58internal12NodeTemplateILb1EEEPNS0_7context11CDOhash_mapIS3_S3_St4hashIS3_EEES7_St8equal_toIS3_ESaISt4pairIKS3_S9_EEE3endEv = comdat any

$_ZNSt8__detailneERKNS_19_Node_iterator_baseISt4pairIKN4cvc58internal12NodeTemplateILb1EEEPNS2_7context11CDOhash_mapIS5_S5_St4hashIS5_EEEELb1EEESG_ = comdat any

$_ZNKSt8__detail14_Node_iteratorISt4pairIKN4cvc58internal12NodeTemplateILb1EEEPNS2_7context11CDOhash_mapIS5_S5_St4hashIS5_EEEELb0ELb1EEdeEv = comdat any

$_ZN4cvc57context10ContextObj10deleteSelfEv = comdat any

$_ZNSt8__detail14_Node_iteratorISt4pairIKN4cvc58internal12NodeTemplateILb1EEEPNS2_7context11CDOhash_mapIS5_S5_St4hashIS5_EEEELb0ELb1EEppEv = comdat any

$_ZNSt13unordered_mapIN4cvc58internal12NodeTemplateILb1EEEPNS0_7context11CDOhash_mapIS3_S3_St4hashIS3_EEES7_St8equal_toIS3_ESaISt4pairIKS3_S9_EEE5clearEv = comdat any

$_ZNSt10_HashtableIN4cvc58internal12NodeTemplateILb1EEESt4pairIKS3_PNS0_7context11CDOhash_mapIS3_S3_St4hashIS3_EEEESaISC_ENSt8__detail10_Select1stESt8equal_toIS3_ES9_NSE_18_Mod_range_hashingENSE_20_Default_ranged_hashENSE_20_Prime_rehash_policyENSE_17_Hashtable_traitsILb1ELb0ELb1EEEE5beginEv = comdat any

$_ZNKSt10_HashtableIN4cvc58internal12NodeTemplateILb1EEESt4pairIKS3_PNS0_7context11CDOhash_mapIS3_S3_St4hashIS3_EEEESaISC_ENSt8__detail10_Select1stESt8equal_toIS3_ES9_NSE_18_Mod_range_hashingENSE_20_Default_ranged_hashENSE_20_Prime_rehash_policyENSE_17_Hashtable_traitsILb1ELb0ELb1EEEE8_M_beginEv = comdat any

$_ZNSt8__detail14_Node_iteratorISt4pairIKN4cvc58internal12NodeTemplateILb1EEEPNS2_7context11CDOhash_mapIS5_S5_St4hashIS5_EEEELb0ELb1EEC2EPNS_10_Hash_nodeISD_Lb1EEE = comdat any

$_ZNSt8__detail19_Node_iterator_baseISt4pairIKN4cvc58internal12NodeTemplateILb1EEEPNS2_7context11CDOhash_mapIS5_S5_St4hashIS5_EEEELb1EEC2EPNS_10_Hash_nodeISD_Lb1EEE = comdat any

$_ZNSt10_HashtableIN4cvc58internal12NodeTemplateILb1EEESt4pairIKS3_PNS0_7context11CDOhash_mapIS3_S3_St4hashIS3_EEEESaISC_ENSt8__detail10_Select1stESt8equal_toIS3_ES9_NSE_18_Mod_range_hashingENSE_20_Default_ranged_hashENSE_20_Prime_rehash_policyENSE_17_Hashtable_traitsILb1ELb0ELb1EEEE3endEv = comdat any

$_ZNSt8__detail21_Hash_node_value_baseISt4pairIKN4cvc58internal12NodeTemplateILb1EEEPNS2_7context11CDOhash_mapIS5_S5_St4hashIS5_EEEEE4_M_vEv = comdat any

$_ZNSt8__detail21_Hash_node_value_baseISt4pairIKN4cvc58internal12NodeTemplateILb1EEEPNS2_7context11CDOhash_mapIS5_S5_St4hashIS5_EEEEE9_M_valptrEv = comdat any

$_ZN9__gnu_cxx16__aligned_bufferISt4pairIKN4cvc58internal12NodeTemplateILb1EEEPNS2_7context11CDOhash_mapIS5_S5_St4hashIS5_EEEEE6_M_ptrEv = comdat any

$_ZN9__gnu_cxx16__aligned_bufferISt4pairIKN4cvc58internal12NodeTemplateILb1EEEPNS2_7context11CDOhash_mapIS5_S5_St4hashIS5_EEEEE7_M_addrEv = comdat any

$_ZNSt8__detail19_Node_iterator_baseISt4pairIKN4cvc58internal12NodeTemplateILb1EEEPNS2_7context11CDOhash_mapIS5_S5_St4hashIS5_EEEELb1EE7_M_incrEv = comdat any

$_ZNKSt8__detail10_Hash_nodeISt4pairIKN4cvc58internal12NodeTemplateILb1EEEPNS2_7context11CDOhash_mapIS5_S5_St4hashIS5_EEEELb1EE7_M_nextEv = comdat any

$_ZNSt10_HashtableIN4cvc58internal12NodeTemplateILb1EEESt4pairIKS3_PNS0_7context11CDOhash_mapIS3_S3_St4hashIS3_EEEESaISC_ENSt8__detail10_Select1stESt8equal_toIS3_ES9_NSE_18_Mod_range_hashingENSE_20_Default_ranged_hashENSE_20_Prime_rehash_policyENSE_17_Hashtable_traitsILb1ELb0ELb1EEEE5clearEv = comdat any

$_ZNSt8__detail16_Hashtable_allocISaINS_10_Hash_nodeISt4pairIKN4cvc58internal12NodeTemplateILb1EEEPNS3_7context11CDOhash_mapIS6_S6_St4hashIS6_EEEELb1EEEEE19_M_deallocate_nodesEPSF_ = comdat any

$_ZNSt8__detail16_Hashtable_allocISaINS_10_Hash_nodeISt4pairIKN4cvc58internal12NodeTemplateILb1EEEPNS3_7context11CDOhash_mapIS6_S6_St4hashIS6_EEEELb1EEEEE18_M_deallocate_nodeEPSF_ = comdat any

$_ZNSt16allocator_traitsISaINSt8__detail10_Hash_nodeISt4pairIKN4cvc58internal12NodeTemplateILb1EEEPNS3_7context11CDOhash_mapIS6_S6_St4hashIS6_EEEELb1EEEEE7destroyISE_EEvRSG_PT_ = comdat any

$_ZNSt8__detail16_Hashtable_allocISaINS_10_Hash_nodeISt4pairIKN4cvc58internal12NodeTemplateILb1EEEPNS3_7context11CDOhash_mapIS6_S6_St4hashIS6_EEEELb1EEEEE17_M_node_allocatorEv = comdat any

$_ZNSt8__detail16_Hashtable_allocISaINS_10_Hash_nodeISt4pairIKN4cvc58internal12NodeTemplateILb1EEEPNS3_7context11CDOhash_mapIS6_S6_St4hashIS6_EEEELb1EEEEE22_M_deallocate_node_ptrEPSF_ = comdat any

$_ZNSt15__new_allocatorINSt8__detail10_Hash_nodeISt4pairIKN4cvc58internal12NodeTemplateILb1EEEPNS3_7context11CDOhash_mapIS6_S6_St4hashIS6_EEEELb1EEEE7destroyISE_EEvPT_ = comdat any

$_ZNSt4pairIKN4cvc58internal12NodeTemplateILb1EEEPNS0_7context11CDOhash_mapIS3_S3_St4hashIS3_EEEED2Ev = comdat any

$_ZNSt8__detail21_Hashtable_ebo_helperILi0ESaINS_10_Hash_nodeISt4pairIKN4cvc58internal12NodeTemplateILb1EEEPNS3_7context11CDOhash_mapIS6_S6_St4hashIS6_EEEELb1EEEELb1EE6_M_getEv = comdat any

$_ZNSt19__ptr_traits_ptr_toIPNSt8__detail10_Hash_nodeISt4pairIKN4cvc58internal12NodeTemplateILb1EEEPNS3_7context11CDOhash_mapIS6_S6_St4hashIS6_EEEELb1EEESF_Lb0EE10pointer_toERSF_ = comdat any

$_ZNSt16allocator_traitsISaINSt8__detail10_Hash_nodeISt4pairIKN4cvc58internal12NodeTemplateILb1EEEPNS3_7context11CDOhash_mapIS6_S6_St4hashIS6_EEEELb1EEEEE10deallocateERSG_PSF_m = comdat any

$_ZNSt15__new_allocatorINSt8__detail10_Hash_nodeISt4pairIKN4cvc58internal12NodeTemplateILb1EEEPNS3_7context11CDOhash_mapIS6_S6_St4hashIS6_EEEELb1EEEE10deallocateEPSF_m = comdat any

$_ZNSt10_HashtableIN4cvc58internal12NodeTemplateILb1EEESt4pairIKS3_PNS0_7context11CDOhash_mapIS3_S3_St4hashIS3_EEEESaISC_ENSt8__detail10_Select1stESt8equal_toIS3_ES9_NSE_18_Mod_range_hashingENSE_20_Default_ranged_hashENSE_20_Prime_rehash_policyENSE_17_Hashtable_traitsILb1ELb0ELb1EEEED2Ev = comdat any

$_ZNSt10_HashtableIN4cvc58internal12NodeTemplateILb1EEESt4pairIKS3_PNS0_7context11CDOhash_mapIS3_S3_St4hashIS3_EEEESaISC_ENSt8__detail10_Select1stESt8equal_toIS3_ES9_NSE_18_Mod_range_hashingENSE_20_Default_ranged_hashENSE_20_Prime_rehash_policyENSE_17_Hashtable_traitsILb1ELb0ELb1EEEE21_M_deallocate_bucketsEv = comdat any

$_ZNSt8__detail16_Hashtable_allocISaINS_10_Hash_nodeISt4pairIKN4cvc58internal12NodeTemplateILb1EEEPNS3_7context11CDOhash_mapIS6_S6_St4hashIS6_EEEELb1EEEEED2Ev = comdat any

$_ZNSt10_HashtableIN4cvc58internal12NodeTemplateILb1EEESt4pairIKS3_PNS0_7context11CDOhash_mapIS3_S3_St4hashIS3_EEEESaISC_ENSt8__detail10_Select1stESt8equal_toIS3_ES9_NSE_18_Mod_range_hashingENSE_20_Default_ranged_hashENSE_20_Prime_rehash_policyENSE_17_Hashtable_traitsILb1ELb0ELb1EEEE21_M_deallocate_bucketsEPPNSE_15_Hash_node_baseEm = comdat any

$_ZNKSt10_HashtableIN4cvc58internal12NodeTemplateILb1EEESt4pairIKS3_PNS0_7context11CDOhash_mapIS3_S3_St4hashIS3_EEEESaISC_ENSt8__detail10_Select1stESt8equal_toIS3_ES9_NSE_18_Mod_range_hashingENSE_20_Default_ranged_hashENSE_20_Prime_rehash_policyENSE_17_Hashtable_traitsILb1ELb0ELb1EEEE21_M_uses_single_bucketEPPNSE_15_Hash_node_baseE = comdat any

$_ZNSt8__detail16_Hashtable_allocISaINS_10_Hash_nodeISt4pairIKN4cvc58internal12NodeTemplateILb1EEEPNS3_7context11CDOhash_mapIS6_S6_St4hashIS6_EEEELb1EEEEE21_M_deallocate_bucketsEPPNS_15_Hash_node_baseEm = comdat any

$_ZNSaIPNSt8__detail15_Hash_node_baseEEC2INS_10_Hash_nodeISt4pairIKN4cvc58internal12NodeTemplateILb1EEEPNS6_7context11CDOhash_mapIS9_S9_St4hashIS9_EEEELb1EEEEERKSaIT_E = comdat any

$_ZNSt8__detail21_Hashtable_ebo_helperILi0ESaINS_10_Hash_nodeISt4pairIKN4cvc58internal12NodeTemplateILb1EEEPNS3_7context11CDOhash_mapIS6_S6_St4hashIS6_EEEELb1EEEELb1EED2Ev = comdat any

$_ZNSaINSt8__detail10_Hash_nodeISt4pairIKN4cvc58internal12NodeTemplateILb1EEEPNS2_7context11CDOhash_mapIS5_S5_St4hashIS5_EEEELb1EEEED2Ev = comdat any

$_ZNSt15__new_allocatorINSt8__detail10_Hash_nodeISt4pairIKN4cvc58internal12NodeTemplateILb1EEEPNS3_7context11CDOhash_mapIS6_S6_St4hashIS6_EEEELb1EEEED2Ev = comdat any

$_ZN4cvc57context10ContextObjdlEPv = comdat any

$_ZN4cvc58internal11Cvc5ostreamC2Ev = comdat any

$_ZN4cvc58internal11Cvc5ostreamC2EPSo = comdat any

$_ZNSt12_Vector_baseIN4cvc58internal12NodeTemplateILb1EEESaIS3_EEC2Ev = comdat any

$_ZNSt12_Vector_baseIN4cvc58internal12NodeTemplateILb1EEESaIS3_EE12_Vector_implC2Ev = comdat any

$_ZNSt12_Vector_baseIN4cvc58internal12NodeTemplateILb1EEESaIS3_EE17_Vector_impl_dataC2Ev = comdat any

$_ZNSt15__new_allocatorIN4cvc58internal12NodeTemplateILb1EEEEC2Ev = comdat any

$_ZNK4cvc58internal12NodeTemplateILb0EE8toStreamERSo = comdat any

$_ZNK4cvc58internal12NodeTemplateILb0EE21assertTNodeNotExpiredEv = comdat any

$_ZNSt12__shared_ptrIN4cvc58internal9ProofNodeELN9__gnu_cxx12_Lock_policyE2EED2Ev = comdat any

$_ZNSt14__shared_countILN9__gnu_cxx12_Lock_policyE2EED2Ev = comdat any

$_ZNSt16_Sp_counted_baseILN9__gnu_cxx12_Lock_policyE2EE10_M_releaseEv = comdat any

$_ZNSt16_Sp_counted_baseILN9__gnu_cxx12_Lock_policyE2EE24_M_release_last_use_coldEv = comdat any

$_ZNSt16_Sp_counted_baseILN9__gnu_cxx12_Lock_policyE2EE19_M_release_last_useEv = comdat any

$_ZNSt11char_traitsIcE6lengthEPKc = comdat any

$_ZNSt7__cxx1112basic_stringIcSt11char_traitsIcESaIcEE12_M_constructIPKcEEvT_S8_St20forward_iterator_tag = comdat any

$_ZNSt7__cxx1112basic_stringIcSt11char_traitsIcESaIcEE12_Alloc_hiderD2Ev = comdat any

$_ZSt8distanceIPKcENSt15iterator_traitsIT_E15difference_typeES3_S3_ = comdat any

$_ZZNSt7__cxx1112basic_stringIcSt11char_traitsIcESaIcEE12_M_constructIPKcEEvT_S8_St20forward_iterator_tagEN6_GuardC2EPS4_ = comdat any

$_ZZNSt7__cxx1112basic_stringIcSt11char_traitsIcESaIcEE12_M_constructIPKcEEvT_S8_St20forward_iterator_tagEN6_GuardD2Ev = comdat any

$_ZSt10__distanceIPKcENSt15iterator_traitsIT_E15difference_typeES3_S3_St26random_access_iterator_tag = comdat any

$_ZSt19__iterator_categoryIPKcENSt15iterator_traitsIT_E17iterator_categoryERKS3_ = comdat any

$_ZNSt8ios_base5iwordEi = comdat any

$_ZN4cvc58internal4expr9NodeValue3decEv = comdat any

$_ZSt8_DestroyIPN4cvc58internal12NodeTemplateILb1EEES3_EvT_S5_RSaIT0_E = comdat any

$_ZNSt12_Vector_baseIN4cvc58internal12NodeTemplateILb1EEESaIS3_EE19_M_get_Tp_allocatorEv = comdat any

$_ZNSt12_Vector_baseIN4cvc58internal12NodeTemplateILb1EEESaIS3_EED2Ev = comdat any

$_ZSt8_DestroyIPN4cvc58internal12NodeTemplateILb1EEEEvT_S5_ = comdat any

$_ZNSt12_Destroy_auxILb0EE9__destroyIPN4cvc58internal12NodeTemplateILb1EEEEEvT_S7_ = comdat any

$_ZSt8_DestroyIN4cvc58internal12NodeTemplateILb1EEEEvPT_ = comdat any

$_ZNSt12_Vector_baseIN4cvc58internal12NodeTemplateILb1EEESaIS3_EE13_M_deallocateEPS3_m = comdat any

$_ZNSt12_Vector_baseIN4cvc58internal12NodeTemplateILb1EEESaIS3_EE12_Vector_implD2Ev = comdat any

$_ZNSt16allocator_traitsISaIN4cvc58internal12NodeTemplateILb1EEEEE10deallocateERS4_PS3_m = comdat any

$_ZNSt15__new_allocatorIN4cvc58internal12NodeTemplateILb1EEEE10deallocateEPS3_m = comdat any

$_ZNSt15__new_allocatorIN4cvc58internal12NodeTemplateILb1EEEED2Ev = comdat any

$_ZN4cvc58internal4expr9NodeValue3incEv = comdat any

$_ZNSt6vectorIN4cvc58internal9TrustNodeESaIS2_EEC2Ev = comdat any

$_ZN4cvc57context6CDListINS_8internal9TrustNodeENS0_14DefaultCleanUpIS3_EESaIS3_EE4saveEPNS0_20ContextMemoryManagerE = comdat any

$_ZN4cvc57context6CDListINS_8internal9TrustNodeENS0_14DefaultCleanUpIS3_EESaIS3_EE7restoreEPNS0_10ContextObjE = comdat any

$_ZN4cvc57context6CDListINS_8internal9TrustNodeENS0_14DefaultCleanUpIS3_EESaIS3_EED0Ev = comdat any

$_ZNSt12_Vector_baseIN4cvc58internal9TrustNodeESaIS2_EEC2Ev = comdat any

$_ZNSt12_Vector_baseIN4cvc58internal9TrustNodeESaIS2_EE12_Vector_implC2Ev = comdat any

$_ZNSaIN4cvc58internal9TrustNodeEEC2Ev = comdat any

$_ZNSt12_Vector_baseIN4cvc58internal9TrustNodeESaIS2_EE17_Vector_impl_dataC2Ev = comdat any

$_ZNSt15__new_allocatorIN4cvc58internal9TrustNodeEEC2Ev = comdat any

$_ZN4cvc57context10ContextObjnwEmPNS0_20ContextMemoryManagerE = comdat any

$_ZN4cvc57context6CDListINS_8internal9TrustNodeENS0_14DefaultCleanUpIS3_EESaIS3_EEC2ERKS7_ = comdat any

$_ZN4cvc57context10ContextObjdlEPvPNS0_20ContextMemoryManagerE = comdat any

$_ZN4cvc57context10ContextObjC2ERKS1_ = comdat any

$_ZN4cvc58internal11Cvc5ostreamlsIPNS_7context6CDListINS0_9TrustNodeENS3_14DefaultCleanUpIS5_EESaIS5_EEEEERS1_RKT_ = comdat any

$_ZN4cvc58internal11Cvc5ostreamlsIPKNS_7context6CDListINS0_9TrustNodeENS3_14DefaultCleanUpIS5_EESaIS5_EEEEERS1_RKT_ = comdat any

$_ZNSt6vectorIN4cvc58internal9TrustNodeESaIS2_EED2Ev = comdat any

$_ZN4cvc57context10ContextObjD2Ev = comdat any

$_ZN4cvc57context10ContextObjD0Ev = comdat any

$_ZSt8_DestroyIPN4cvc58internal9TrustNodeES2_EvT_S4_RSaIT0_E = comdat any

$_ZNSt12_Vector_baseIN4cvc58internal9TrustNodeESaIS2_EE19_M_get_Tp_allocatorEv = comdat any

$_ZNSt12_Vector_baseIN4cvc58internal9TrustNodeESaIS2_EED2Ev = comdat any

$_ZSt8_DestroyIPN4cvc58internal9TrustNodeEEvT_S4_ = comdat any

$_ZNSt12_Destroy_auxILb0EE9__destroyIPN4cvc58internal9TrustNodeEEEvT_S6_ = comdat any

$_ZSt8_DestroyIN4cvc58internal9TrustNodeEEvPT_ = comdat any

$_ZNSt12_Vector_baseIN4cvc58internal9TrustNodeESaIS2_EE13_M_deallocateEPS2_m = comdat any

$_ZNSt12_Vector_baseIN4cvc58internal9TrustNodeESaIS2_EE12_Vector_implD2Ev = comdat any

$_ZNSt16allocator_traitsISaIN4cvc58internal9TrustNodeEEE10deallocateERS3_PS2_m = comdat any

$_ZNSt15__new_allocatorIN4cvc58internal9TrustNodeEE10deallocateEPS2_m = comdat any

$_ZNSaIN4cvc58internal9TrustNodeEED2Ev = comdat any

$_ZNSt15__new_allocatorIN4cvc58internal9TrustNodeEED2Ev = comdat any

$_ZN4cvc57context6CDListINS_8internal9TrustNodeENS0_14DefaultCleanUpIS3_EESaIS3_EE12truncateListEm = comdat any

$_ZNSt6vectorIN4cvc58internal9TrustNodeESaIS2_EEixEm = comdat any

$_ZNK4cvc57context14DefaultCleanUpINS_8internal9TrustNodeEEclERS3_ = comdat any

$_ZNSt6vectorIN4cvc58internal9TrustNodeESaIS2_EE5eraseEN9__gnu_cxx17__normal_iteratorIPKS2_S4_EES9_ = comdat any

$_ZNSt6vectorIN4cvc58internal9TrustNodeESaIS2_EE5beginEv = comdat any

$_ZNK9__gnu_cxx17__normal_iteratorIPN4cvc58internal9TrustNodeESt6vectorIS3_SaIS3_EEEplEl = comdat any

$_ZN9__gnu_cxx17__normal_iteratorIPKN4cvc58internal9TrustNodeESt6vectorIS3_SaIS3_EEEC2IPS3_vEERKNS0_IT_S8_EE = comdat any

$_ZNSt6vectorIN4cvc58internal9TrustNodeESaIS2_EE3endEv = comdat any

$_ZNKSt6vectorIN4cvc58internal9TrustNodeESaIS2_EE6cbeginEv = comdat any

$_ZNSt6vectorIN4cvc58internal9TrustNodeESaIS2_EE8_M_eraseEN9__gnu_cxx17__normal_iteratorIPS2_S4_EES8_ = comdat any

$_ZN9__gnu_cxxmiIPKN4cvc58internal9TrustNodeESt6vectorIS3_SaIS3_EEEENS_17__normal_iteratorIT_T0_E15difference_typeERKSC_SF_ = comdat any

$_ZN9__gnu_cxx17__normal_iteratorIPKN4cvc58internal9TrustNodeESt6vectorIS3_SaIS3_EEEC2ERKS5_ = comdat any

$_ZN9__gnu_cxxneIPN4cvc58internal9TrustNodeESt6vectorIS3_SaIS3_EEEEbRKNS_17__normal_iteratorIT_T0_EESD_ = comdat any

$_ZSt4moveIN9__gnu_cxx17__normal_iteratorIPN4cvc58internal9TrustNodeESt6vectorIS4_SaIS4_EEEES9_ET0_T_SB_SA_ = comdat any

$_ZNSt6vectorIN4cvc58internal9TrustNodeESaIS2_EE15_M_erase_at_endEPS2_ = comdat any

$_ZNK9__gnu_cxx17__normal_iteratorIPN4cvc58internal9TrustNodeESt6vectorIS3_SaIS3_EEE4baseEv = comdat any

$_ZN9__gnu_cxxmiIPN4cvc58internal9TrustNodeESt6vectorIS3_SaIS3_EEEENS_17__normal_iteratorIT_T0_E15difference_typeERKSB_SE_ = comdat any

$_ZSt13__copy_move_aILb1EN9__gnu_cxx17__normal_iteratorIPN4cvc58internal9TrustNodeESt6vectorIS4_SaIS4_EEEES9_ET1_T0_SB_SA_ = comdat any

$_ZSt12__miter_baseIN9__gnu_cxx17__normal_iteratorIPN4cvc58internal9TrustNodeESt6vectorIS4_SaIS4_EEEEET_SA_ = comdat any

$_ZSt12__niter_wrapIN9__gnu_cxx17__normal_iteratorIPN4cvc58internal9TrustNodeESt6vectorIS4_SaIS4_EEEES5_ET_SA_T0_ = comdat any

$_ZSt14__copy_move_a1ILb1EPN4cvc58internal9TrustNodeES3_ET1_T0_S5_S4_ = comdat any

$_ZSt12__niter_baseIPN4cvc58internal9TrustNodeESt6vectorIS2_SaIS2_EEET_N9__gnu_cxx17__normal_iteratorIS7_T0_EE = comdat any

$_ZSt14__copy_move_a2ILb1EPN4cvc58internal9TrustNodeES3_ET1_T0_S5_S4_ = comdat any

$_ZNSt11__copy_moveILb1ELb0ESt26random_access_iterator_tagE8__copy_mIPN4cvc58internal9TrustNodeES6_EET0_T_S8_S7_ = comdat any

$_ZN4cvc58internal9TrustNodeaSERKS1_ = comdat any

$_ZN4cvc58internal12NodeTemplateILb1EEaSERKS2_ = comdat any

$_ZNK9__gnu_cxx17__normal_iteratorIPKN4cvc58internal9TrustNodeESt6vectorIS3_SaIS3_EEE4baseEv = comdat any

$_ZN9__gnu_cxx17__normal_iteratorIPN4cvc58internal9TrustNodeESt6vectorIS3_SaIS3_EEEC2ERKS4_ = comdat any

$_ZNSt13unordered_mapIN4cvc58internal12NodeTemplateILb1EEEPNS0_7context11CDOhash_mapIS3_mSt4hashIS3_EEES7_St8equal_toIS3_ESaISt4pairIKS3_S9_EEEC2Ev = comdat any

$_ZN4cvc57context9CDHashMapINS_8internal12NodeTemplateILb1EEEmSt4hashIS4_EE4saveEPNS0_20ContextMemoryManagerE = comdat any

$_ZN4cvc57context9CDHashMapINS_8internal12NodeTemplateILb1EEEmSt4hashIS4_EE7restoreEPNS0_10ContextObjE = comdat any

$_ZN4cvc57context9CDHashMapINS_8internal12NodeTemplateILb1EEEmSt4hashIS4_EED0Ev = comdat any

$_ZNSt10_HashtableIN4cvc58internal12NodeTemplateILb1EEESt4pairIKS3_PNS0_7context11CDOhash_mapIS3_mSt4hashIS3_EEEESaISC_ENSt8__detail10_Select1stESt8equal_toIS3_ES9_NSE_18_Mod_range_hashingENSE_20_Default_ranged_hashENSE_20_Prime_rehash_policyENSE_17_Hashtable_traitsILb1ELb0ELb1EEEEC2Ev = comdat any

$_ZNSt8__detail15_Hashtable_baseIN4cvc58internal12NodeTemplateILb1EEESt4pairIKS4_PNS1_7context11CDOhash_mapIS4_mSt4hashIS4_EEEENS_10_Select1stESt8equal_toIS4_ESA_NS_18_Mod_range_hashingENS_20_Default_ranged_hashENS_17_Hashtable_traitsILb1ELb0ELb1EEEEC2Ev = comdat any

$_ZNSt8__detail16_Hashtable_allocISaINS_10_Hash_nodeISt4pairIKN4cvc58internal12NodeTemplateILb1EEEPNS3_7context11CDOhash_mapIS6_mSt4hashIS6_EEEELb1EEEEEC2Ev = comdat any

$_ZNSt8__detail15_Hash_code_baseIN4cvc58internal12NodeTemplateILb1EEESt4pairIKS4_PNS1_7context11CDOhash_mapIS4_mSt4hashIS4_EEEENS_10_Select1stESA_NS_18_Mod_range_hashingENS_20_Default_ranged_hashELb1EEC2Ev = comdat any

$_ZNSt8__detail21_Hashtable_ebo_helperILi0ESaINS_10_Hash_nodeISt4pairIKN4cvc58internal12NodeTemplateILb1EEEPNS3_7context11CDOhash_mapIS6_mSt4hashIS6_EEEELb1EEEELb1EEC2Ev = comdat any

$_ZNSaINSt8__detail10_Hash_nodeISt4pairIKN4cvc58internal12NodeTemplateILb1EEEPNS2_7context11CDOhash_mapIS5_mSt4hashIS5_EEEELb1EEEEC2Ev = comdat any

$_ZNSt15__new_allocatorINSt8__detail10_Hash_nodeISt4pairIKN4cvc58internal12NodeTemplateILb1EEEPNS3_7context11CDOhash_mapIS6_mSt4hashIS6_EEEELb1EEEEC2Ev = comdat any

$_ZNSt15__uniq_ptr_implIN4cvc58internal21TheoryProofStepBufferESt14default_deleteIS2_EE6_M_ptrEv = comdat any

$_ZNSt10unique_ptrIN4cvc58internal21TheoryProofStepBufferESt14default_deleteIS2_EE11get_deleterEv = comdat any

$_ZNKSt14default_deleteIN4cvc58internal21TheoryProofStepBufferEEclEPS2_ = comdat any

$_ZSt3getILm0EJPN4cvc58internal21TheoryProofStepBufferESt14default_deleteIS2_EEERNSt13tuple_elementIXT_ESt5tupleIJDpT0_EEE4typeERSA_ = comdat any

$_ZSt12__get_helperILm0EPN4cvc58internal21TheoryProofStepBufferEJSt14default_deleteIS2_EEERT0_RSt11_Tuple_implIXT_EJS6_DpT1_EE = comdat any

$_ZNSt11_Tuple_implILm0EJPN4cvc58internal21TheoryProofStepBufferESt14default_deleteIS2_EEE7_M_headERS6_ = comdat any

$_ZNSt10_Head_baseILm0EPN4cvc58internal21TheoryProofStepBufferELb0EE7_M_headERS4_ = comdat any

$_ZNSt15__uniq_ptr_implIN4cvc58internal21TheoryProofStepBufferESt14default_deleteIS2_EE10_M_deleterEv = comdat any

$_ZSt3getILm1EJPN4cvc58internal21TheoryProofStepBufferESt14default_deleteIS2_EEERNSt13tuple_elementIXT_ESt5tupleIJDpT0_EEE4typeERSA_ = comdat any

$_ZSt12__get_helperILm1ESt14default_deleteIN4cvc58internal21TheoryProofStepBufferEEJEERT0_RSt11_Tuple_implIXT_EJS5_DpT1_EE = comdat any

$_ZNSt11_Tuple_implILm1EJSt14default_deleteIN4cvc58internal21TheoryProofStepBufferEEEE7_M_headERS5_ = comdat any

$_ZNSt10_Head_baseILm1ESt14default_deleteIN4cvc58internal21TheoryProofStepBufferEELb1EE7_M_headERS5_ = comdat any

$_ZN4cvc58internal21TheoryProofStepBufferD2Ev = comdat any

$_ZN4cvc58internal15ProofStepBufferD2Ev = comdat any

$_ZNSt6vectorISt4pairIN4cvc58internal12NodeTemplateILb1EEENS2_9ProofStepEESaIS6_EED2Ev = comdat any

$_ZSt8_DestroyIPSt4pairIN4cvc58internal12NodeTemplateILb1EEENS2_9ProofStepEES6_EvT_S8_RSaIT0_E = comdat any

$_ZNSt12_Vector_baseISt4pairIN4cvc58internal12NodeTemplateILb1EEENS2_9ProofStepEESaIS6_EE19_M_get_Tp_allocatorEv = comdat any

$_ZNSt12_Vector_baseISt4pairIN4cvc58internal12NodeTemplateILb1EEENS2_9ProofStepEESaIS6_EED2Ev = comdat any

$_ZSt8_DestroyIPSt4pairIN4cvc58internal12NodeTemplateILb1EEENS2_9ProofStepEEEvT_S8_ = comdat any

$_ZNSt12_Destroy_auxILb0EE9__destroyIPSt4pairIN4cvc58internal12NodeTemplateILb1EEENS4_9ProofStepEEEEvT_SA_ = comdat any

$_ZSt8_DestroyISt4pairIN4cvc58internal12NodeTemplateILb1EEENS2_9ProofStepEEEvPT_ = comdat any

$_ZNSt4pairIN4cvc58internal12NodeTemplateILb1EEENS1_9ProofStepEED2Ev = comdat any

$_ZN4cvc58internal9ProofStepD2Ev = comdat any

$_ZNSt12_Vector_baseISt4pairIN4cvc58internal12NodeTemplateILb1EEENS2_9ProofStepEESaIS6_EE13_M_deallocateEPS6_m = comdat any

$_ZNSt12_Vector_baseISt4pairIN4cvc58internal12NodeTemplateILb1EEENS2_9ProofStepEESaIS6_EE12_Vector_implD2Ev = comdat any

$_ZNSt16allocator_traitsISaISt4pairIN4cvc58internal12NodeTemplateILb1EEENS2_9ProofStepEEEE10deallocateERS7_PS6_m = comdat any

$_ZNSt15__new_allocatorISt4pairIN4cvc58internal12NodeTemplateILb1EEENS2_9ProofStepEEE10deallocateEPS6_m = comdat any

$_ZNSaISt4pairIN4cvc58internal12NodeTemplateILb1EEENS1_9ProofStepEEED2Ev = comdat any

$_ZNSt15__new_allocatorISt4pairIN4cvc58internal12NodeTemplateILb1EEENS2_9ProofStepEEED2Ev = comdat any

$_ZNSt15__uniq_ptr_implIN4cvc58internal11LazyCDProofESt14default_deleteIS2_EE6_M_ptrEv = comdat any

$_ZNSt10unique_ptrIN4cvc58internal11LazyCDProofESt14default_deleteIS2_EE11get_deleterEv = comdat any

$_ZNKSt14default_deleteIN4cvc58internal11LazyCDProofEEclEPS2_ = comdat any

$_ZSt3getILm0EJPN4cvc58internal11LazyCDProofESt14default_deleteIS2_EEERNSt13tuple_elementIXT_ESt5tupleIJDpT0_EEE4typeERSA_ = comdat any

$_ZSt12__get_helperILm0EPN4cvc58internal11LazyCDProofEJSt14default_deleteIS2_EEERT0_RSt11_Tuple_implIXT_EJS6_DpT1_EE = comdat any

$_ZNSt11_Tuple_implILm0EJPN4cvc58internal11LazyCDProofESt14default_deleteIS2_EEE7_M_headERS6_ = comdat any

$_ZNSt10_Head_baseILm0EPN4cvc58internal11LazyCDProofELb0EE7_M_headERS4_ = comdat any

$_ZNSt15__uniq_ptr_implIN4cvc58internal11LazyCDProofESt14default_deleteIS2_EE10_M_deleterEv = comdat any

$_ZSt3getILm1EJPN4cvc58internal11LazyCDProofESt14default_deleteIS2_EEERNSt13tuple_elementIXT_ESt5tupleIJDpT0_EEE4typeERSA_ = comdat any

$_ZSt12__get_helperILm1ESt14default_deleteIN4cvc58internal11LazyCDProofEEJEERT0_RSt11_Tuple_implIXT_EJS5_DpT1_EE = comdat any

$_ZNSt11_Tuple_implILm1EJSt14default_deleteIN4cvc58internal11LazyCDProofEEEE7_M_headERS5_ = comdat any

$_ZNSt10_Head_baseILm1ESt14default_deleteIN4cvc58internal11LazyCDProofEELb1EE7_M_headERS5_ = comdat any

$_ZNSt15__uniq_ptr_implIN4cvc58internal10CDProofSetINS1_11LazyCDProofEEESt14default_deleteIS4_EE6_M_ptrEv = comdat any

$_ZNSt10unique_ptrIN4cvc58internal10CDProofSetINS1_11LazyCDProofEEESt14default_deleteIS4_EE11get_deleterEv = comdat any

$_ZNKSt14default_deleteIN4cvc58internal10CDProofSetINS1_11LazyCDProofEEEEclEPS4_ = comdat any

$_ZSt3getILm0EJPN4cvc58internal10CDProofSetINS1_11LazyCDProofEEESt14default_deleteIS4_EEERNSt13tuple_elementIXT_ESt5tupleIJDpT0_EEE4typeERSC_ = comdat any

$_ZSt12__get_helperILm0EPN4cvc58internal10CDProofSetINS1_11LazyCDProofEEEJSt14default_deleteIS4_EEERT0_RSt11_Tuple_implIXT_EJS8_DpT1_EE = comdat any

$_ZNSt11_Tuple_implILm0EJPN4cvc58internal10CDProofSetINS1_11LazyCDProofEEESt14default_deleteIS4_EEE7_M_headERS8_ = comdat any

$_ZNSt10_Head_baseILm0EPN4cvc58internal10CDProofSetINS1_11LazyCDProofEEELb0EE7_M_headERS6_ = comdat any

$_ZNSt15__uniq_ptr_implIN4cvc58internal10CDProofSetINS1_11LazyCDProofEEESt14default_deleteIS4_EE10_M_deleterEv = comdat any

$_ZSt3getILm1EJPN4cvc58internal10CDProofSetINS1_11LazyCDProofEEESt14default_deleteIS4_EEERNSt13tuple_elementIXT_ESt5tupleIJDpT0_EEE4typeERSC_ = comdat any

$_ZSt12__get_helperILm1ESt14default_deleteIN4cvc58internal10CDProofSetINS2_11LazyCDProofEEEEJEERT0_RSt11_Tuple_implIXT_EJS7_DpT1_EE = comdat any

$_ZNSt11_Tuple_implILm1EJSt14default_deleteIN4cvc58internal10CDProofSetINS2_11LazyCDProofEEEEEE7_M_headERS7_ = comdat any

$_ZNSt10_Head_baseILm1ESt14default_deleteIN4cvc58internal10CDProofSetINS2_11LazyCDProofEEEELb1EE7_M_headERS7_ = comdat any

$_ZN4cvc58internal10CDProofSetINS0_11LazyCDProofEED2Ev = comdat any

$_ZN4cvc57context6CDListISt10shared_ptrINS_8internal11LazyCDProofEENS0_14DefaultCleanUpIS5_EESaIS5_EED2Ev = comdat any

$_ZN4cvc57context6CDListISt10shared_ptrINS_8internal11LazyCDProofEENS0_14DefaultCleanUpIS5_EESaIS5_EE12truncateListEm = comdat any

$_ZNSt6vectorISt10shared_ptrIN4cvc58internal11LazyCDProofEESaIS4_EED2Ev = comdat any

$_ZN4cvc57context6CDListISt10shared_ptrINS_8internal11LazyCDProofEENS0_14DefaultCleanUpIS5_EESaIS5_EE4saveEPNS0_20ContextMemoryManagerE = comdat any

$_ZN4cvc57context6CDListISt10shared_ptrINS_8internal11LazyCDProofEENS0_14DefaultCleanUpIS5_EESaIS5_EE7restoreEPNS0_10ContextObjE = comdat any

$_ZN4cvc57context6CDListISt10shared_ptrINS_8internal11LazyCDProofEENS0_14DefaultCleanUpIS5_EESaIS5_EED0Ev = comdat any

$_ZNSt6vectorISt10shared_ptrIN4cvc58internal11LazyCDProofEESaIS4_EEixEm = comdat any

$_ZNK4cvc57context14DefaultCleanUpISt10shared_ptrINS_8internal11LazyCDProofEEEclERS5_ = comdat any

$_ZNSt6vectorISt10shared_ptrIN4cvc58internal11LazyCDProofEESaIS4_EE5eraseEN9__gnu_cxx17__normal_iteratorIPKS4_S6_EESB_ = comdat any

$_ZNSt6vectorISt10shared_ptrIN4cvc58internal11LazyCDProofEESaIS4_EE5beginEv = comdat any

$_ZNK9__gnu_cxx17__normal_iteratorIPSt10shared_ptrIN4cvc58internal11LazyCDProofEESt6vectorIS5_SaIS5_EEEplEl = comdat any

$_ZN9__gnu_cxx17__normal_iteratorIPKSt10shared_ptrIN4cvc58internal11LazyCDProofEESt6vectorIS5_SaIS5_EEEC2IPS5_vEERKNS0_IT_SA_EE = comdat any

$_ZNSt6vectorISt10shared_ptrIN4cvc58internal11LazyCDProofEESaIS4_EE3endEv = comdat any

$_ZNKSt6vectorISt10shared_ptrIN4cvc58internal11LazyCDProofEESaIS4_EE6cbeginEv = comdat any

$_ZNSt6vectorISt10shared_ptrIN4cvc58internal11LazyCDProofEESaIS4_EE8_M_eraseEN9__gnu_cxx17__normal_iteratorIPS4_S6_EESA_ = comdat any

$_ZN9__gnu_cxxmiIPKSt10shared_ptrIN4cvc58internal11LazyCDProofEESt6vectorIS5_SaIS5_EEEENS_17__normal_iteratorIT_T0_E15difference_typeERKSE_SH_ = comdat any

$_ZN9__gnu_cxx17__normal_iteratorIPKSt10shared_ptrIN4cvc58internal11LazyCDProofEESt6vectorIS5_SaIS5_EEEC2ERKS7_ = comdat any

$_ZN9__gnu_cxxneIPSt10shared_ptrIN4cvc58internal11LazyCDProofEESt6vectorIS5_SaIS5_EEEEbRKNS_17__normal_iteratorIT_T0_EESF_ = comdat any

$_ZSt4moveIN9__gnu_cxx17__normal_iteratorIPSt10shared_ptrIN4cvc58internal11LazyCDProofEESt6vectorIS6_SaIS6_EEEESB_ET0_T_SD_SC_ = comdat any

$_ZNSt6vectorISt10shared_ptrIN4cvc58internal11LazyCDProofEESaIS4_EE15_M_erase_at_endEPS4_ = comdat any

$_ZNK9__gnu_cxx17__normal_iteratorIPSt10shared_ptrIN4cvc58internal11LazyCDProofEESt6vectorIS5_SaIS5_EEE4baseEv = comdat any

$_ZN9__gnu_cxxmiIPSt10shared_ptrIN4cvc58internal11LazyCDProofEESt6vectorIS5_SaIS5_EEEENS_17__normal_iteratorIT_T0_E15difference_typeERKSD_SG_ = comdat any

$_ZSt13__copy_move_aILb1EN9__gnu_cxx17__normal_iteratorIPSt10shared_ptrIN4cvc58internal11LazyCDProofEESt6vectorIS6_SaIS6_EEEESB_ET1_T0_SD_SC_ = comdat any

$_ZSt12__miter_baseIN9__gnu_cxx17__normal_iteratorIPSt10shared_ptrIN4cvc58internal11LazyCDProofEESt6vectorIS6_SaIS6_EEEEET_SC_ = comdat any

$_ZSt12__niter_wrapIN9__gnu_cxx17__normal_iteratorIPSt10shared_ptrIN4cvc58internal11LazyCDProofEESt6vectorIS6_SaIS6_EEEES7_ET_SC_T0_ = comdat any

$_ZSt14__copy_move_a1ILb1EPSt10shared_ptrIN4cvc58internal11LazyCDProofEES5_ET1_T0_S7_S6_ = comdat any

$_ZSt12__niter_baseIPSt10shared_ptrIN4cvc58internal11LazyCDProofEESt6vectorIS4_SaIS4_EEET_N9__gnu_cxx17__normal_iteratorIS9_T0_EE = comdat any

$_ZSt14__copy_move_a2ILb1EPSt10shared_ptrIN4cvc58internal11LazyCDProofEES5_ET1_T0_S7_S6_ = comdat any

$_ZNSt11__copy_moveILb1ELb0ESt26random_access_iterator_tagE8__copy_mIPSt10shared_ptrIN4cvc58internal11LazyCDProofEES8_EET0_T_SA_S9_ = comdat any

$_ZNSt10shared_ptrIN4cvc58internal11LazyCDProofEEaSEOS3_ = comdat any

$_ZNSt12__shared_ptrIN4cvc58internal11LazyCDProofELN9__gnu_cxx12_Lock_policyE2EEaSEOS5_ = comdat any

$_ZNSt12__shared_ptrIN4cvc58internal11LazyCDProofELN9__gnu_cxx12_Lock_policyE2EEC2EOS5_ = comdat any

$_ZNSt12__shared_ptrIN4cvc58internal11LazyCDProofELN9__gnu_cxx12_Lock_policyE2EE4swapERS5_ = comdat any

$_ZNSt12__shared_ptrIN4cvc58internal11LazyCDProofELN9__gnu_cxx12_Lock_policyE2EED2Ev = comdat any

$_ZNSt14__shared_countILN9__gnu_cxx12_Lock_policyE2EEC2Ev = comdat any

$_ZNSt14__shared_countILN9__gnu_cxx12_Lock_policyE2EE7_M_swapERS2_ = comdat any

$_ZSt4swapIPN4cvc58internal11LazyCDProofEENSt9enable_ifIXsr6__and_ISt6__not_ISt15__is_tuple_likeIT_EESt21is_move_constructibleIS7_ESt18is_move_assignableIS7_EEE5valueEvE4typeERS7_SG_ = comdat any

$_ZSt8_DestroyIPSt10shared_ptrIN4cvc58internal11LazyCDProofEES4_EvT_S6_RSaIT0_E = comdat any

$_ZNSt12_Vector_baseISt10shared_ptrIN4cvc58internal11LazyCDProofEESaIS4_EE19_M_get_Tp_allocatorEv = comdat any

$_ZSt8_DestroyIPSt10shared_ptrIN4cvc58internal11LazyCDProofEEEvT_S6_ = comdat any

$_ZNSt12_Destroy_auxILb0EE9__destroyIPSt10shared_ptrIN4cvc58internal11LazyCDProofEEEEvT_S8_ = comdat any

$_ZSt8_DestroyISt10shared_ptrIN4cvc58internal11LazyCDProofEEEvPT_ = comdat any

$_ZNSt10shared_ptrIN4cvc58internal11LazyCDProofEED2Ev = comdat any

$_ZNK9__gnu_cxx17__normal_iteratorIPKSt10shared_ptrIN4cvc58internal11LazyCDProofEESt6vectorIS5_SaIS5_EEE4baseEv = comdat any

$_ZN9__gnu_cxx17__normal_iteratorIPSt10shared_ptrIN4cvc58internal11LazyCDProofEESt6vectorIS5_SaIS5_EEEC2ERKS6_ = comdat any

$_ZNSt12_Vector_baseISt10shared_ptrIN4cvc58internal11LazyCDProofEESaIS4_EED2Ev = comdat any

$_ZNSt12_Vector_baseISt10shared_ptrIN4cvc58internal11LazyCDProofEESaIS4_EE13_M_deallocateEPS4_m = comdat any

$_ZNSt12_Vector_baseISt10shared_ptrIN4cvc58internal11LazyCDProofEESaIS4_EE12_Vector_implD2Ev = comdat any

$_ZNSt16allocator_traitsISaISt10shared_ptrIN4cvc58internal11LazyCDProofEEEE10deallocateERS5_PS4_m = comdat any

$_ZNSt15__new_allocatorISt10shared_ptrIN4cvc58internal11LazyCDProofEEE10deallocateEPS4_m = comdat any

$_ZNSaISt10shared_ptrIN4cvc58internal11LazyCDProofEEED2Ev = comdat any

$_ZNSt15__new_allocatorISt10shared_ptrIN4cvc58internal11LazyCDProofEEED2Ev = comdat any

$_ZN4cvc57context6CDListISt10shared_ptrINS_8internal11LazyCDProofEENS0_14DefaultCleanUpIS5_EESaIS5_EEC2ERKS9_ = comdat any

$_ZNSt6vectorISt10shared_ptrIN4cvc58internal11LazyCDProofEESaIS4_EEC2Ev = comdat any

$_ZN4cvc58internal11Cvc5ostreamlsIPNS_7context6CDListISt10shared_ptrINS0_11LazyCDProofEENS3_14DefaultCleanUpIS7_EESaIS7_EEEEERS1_RKT_ = comdat any

$_ZN4cvc58internal11Cvc5ostreamlsIPKNS_7context6CDListISt10shared_ptrINS0_11LazyCDProofEENS3_14DefaultCleanUpIS7_EESaIS7_EEEEERS1_RKT_ = comdat any

$_ZNSt12_Vector_baseISt10shared_ptrIN4cvc58internal11LazyCDProofEESaIS4_EEC2Ev = comdat any

$_ZNSt12_Vector_baseISt10shared_ptrIN4cvc58internal11LazyCDProofEESaIS4_EE12_Vector_implC2Ev = comdat any

$_ZNSaISt10shared_ptrIN4cvc58internal11LazyCDProofEEEC2Ev = comdat any

$_ZNSt12_Vector_baseISt10shared_ptrIN4cvc58internal11LazyCDProofEESaIS4_EE17_Vector_impl_dataC2Ev = comdat any

$_ZNSt15__new_allocatorISt10shared_ptrIN4cvc58internal11LazyCDProofEEEC2Ev = comdat any

$_ZN4cvc57context9CDHashMapINS_8internal12NodeTemplateILb1EEEmSt4hashIS4_EE5clearEv = comdat any

$_ZNSt13unordered_mapIN4cvc58internal12NodeTemplateILb1EEEPNS0_7context11CDOhash_mapIS3_mSt4hashIS3_EEES7_St8equal_toIS3_ESaISt4pairIKS3_S9_EEED2Ev = comdat any

$_ZNSt13unordered_mapIN4cvc58internal12NodeTemplateILb1EEEPNS0_7context11CDOhash_mapIS3_mSt4hashIS3_EEES7_St8equal_toIS3_ESaISt4pairIKS3_S9_EEE5beginEv = comdat any

$_ZNSt13unordered_mapIN4cvc58internal12NodeTemplateILb1EEEPNS0_7context11CDOhash_mapIS3_mSt4hashIS3_EEES7_St8equal_toIS3_ESaISt4pairIKS3_S9_EEE3endEv = comdat any

$_ZNSt8__detailneERKNS_19_Node_iterator_baseISt4pairIKN4cvc58internal12NodeTemplateILb1EEEPNS2_7context11CDOhash_mapIS5_mSt4hashIS5_EEEELb1EEESG_ = comdat any

$_ZNKSt8__detail14_Node_iteratorISt4pairIKN4cvc58internal12NodeTemplateILb1EEEPNS2_7context11CDOhash_mapIS5_mSt4hashIS5_EEEELb0ELb1EEdeEv = comdat any

$_ZNSt8__detail14_Node_iteratorISt4pairIKN4cvc58internal12NodeTemplateILb1EEEPNS2_7context11CDOhash_mapIS5_mSt4hashIS5_EEEELb0ELb1EEppEv = comdat any

$_ZNSt13unordered_mapIN4cvc58internal12NodeTemplateILb1EEEPNS0_7context11CDOhash_mapIS3_mSt4hashIS3_EEES7_St8equal_toIS3_ESaISt4pairIKS3_S9_EEE5clearEv = comdat any

$_ZNSt10_HashtableIN4cvc58internal12NodeTemplateILb1EEESt4pairIKS3_PNS0_7context11CDOhash_mapIS3_mSt4hashIS3_EEEESaISC_ENSt8__detail10_Select1stESt8equal_toIS3_ES9_NSE_18_Mod_range_hashingENSE_20_Default_ranged_hashENSE_20_Prime_rehash_policyENSE_17_Hashtable_traitsILb1ELb0ELb1EEEE5beginEv = comdat any

$_ZNKSt10_HashtableIN4cvc58internal12NodeTemplateILb1EEESt4pairIKS3_PNS0_7context11CDOhash_mapIS3_mSt4hashIS3_EEEESaISC_ENSt8__detail10_Select1stESt8equal_toIS3_ES9_NSE_18_Mod_range_hashingENSE_20_Default_ranged_hashENSE_20_Prime_rehash_policyENSE_17_Hashtable_traitsILb1ELb0ELb1EEEE8_M_beginEv = comdat any

$_ZNSt8__detail14_Node_iteratorISt4pairIKN4cvc58internal12NodeTemplateILb1EEEPNS2_7context11CDOhash_mapIS5_mSt4hashIS5_EEEELb0ELb1EEC2EPNS_10_Hash_nodeISD_Lb1EEE = comdat any

$_ZNSt8__detail19_Node_iterator_baseISt4pairIKN4cvc58internal12NodeTemplateILb1EEEPNS2_7context11CDOhash_mapIS5_mSt4hashIS5_EEEELb1EEC2EPNS_10_Hash_nodeISD_Lb1EEE = comdat any

$_ZNSt10_HashtableIN4cvc58internal12NodeTemplateILb1EEESt4pairIKS3_PNS0_7context11CDOhash_mapIS3_mSt4hashIS3_EEEESaISC_ENSt8__detail10_Select1stESt8equal_toIS3_ES9_NSE_18_Mod_range_hashingENSE_20_Default_ranged_hashENSE_20_Prime_rehash_policyENSE_17_Hashtable_traitsILb1ELb0ELb1EEEE3endEv = comdat any

$_ZNSt8__detail21_Hash_node_value_baseISt4pairIKN4cvc58internal12NodeTemplateILb1EEEPNS2_7context11CDOhash_mapIS5_mSt4hashIS5_EEEEE4_M_vEv = comdat any

$_ZNSt8__detail21_Hash_node_value_baseISt4pairIKN4cvc58internal12NodeTemplateILb1EEEPNS2_7context11CDOhash_mapIS5_mSt4hashIS5_EEEEE9_M_valptrEv = comdat any

$_ZN9__gnu_cxx16__aligned_bufferISt4pairIKN4cvc58internal12NodeTemplateILb1EEEPNS2_7context11CDOhash_mapIS5_mSt4hashIS5_EEEEE6_M_ptrEv = comdat any

$_ZN9__gnu_cxx16__aligned_bufferISt4pairIKN4cvc58internal12NodeTemplateILb1EEEPNS2_7context11CDOhash_mapIS5_mSt4hashIS5_EEEEE7_M_addrEv = comdat any

$_ZNSt8__detail19_Node_iterator_baseISt4pairIKN4cvc58internal12NodeTemplateILb1EEEPNS2_7context11CDOhash_mapIS5_mSt4hashIS5_EEEELb1EE7_M_incrEv = comdat any

$_ZNKSt8__detail10_Hash_nodeISt4pairIKN4cvc58internal12NodeTemplateILb1EEEPNS2_7context11CDOhash_mapIS5_mSt4hashIS5_EEEELb1EE7_M_nextEv = comdat any

$_ZNSt10_HashtableIN4cvc58internal12NodeTemplateILb1EEESt4pairIKS3_PNS0_7context11CDOhash_mapIS3_mSt4hashIS3_EEEESaISC_ENSt8__detail10_Select1stESt8equal_toIS3_ES9_NSE_18_Mod_range_hashingENSE_20_Default_ranged_hashENSE_20_Prime_rehash_policyENSE_17_Hashtable_traitsILb1ELb0ELb1EEEE5clearEv = comdat any

$_ZNSt8__detail16_Hashtable_allocISaINS_10_Hash_nodeISt4pairIKN4cvc58internal12NodeTemplateILb1EEEPNS3_7context11CDOhash_mapIS6_mSt4hashIS6_EEEELb1EEEEE19_M_deallocate_nodesEPSF_ = comdat any

$_ZNSt8__detail16_Hashtable_allocISaINS_10_Hash_nodeISt4pairIKN4cvc58internal12NodeTemplateILb1EEEPNS3_7context11CDOhash_mapIS6_mSt4hashIS6_EEEELb1EEEEE18_M_deallocate_nodeEPSF_ = comdat any

$_ZNSt16allocator_traitsISaINSt8__detail10_Hash_nodeISt4pairIKN4cvc58internal12NodeTemplateILb1EEEPNS3_7context11CDOhash_mapIS6_mSt4hashIS6_EEEELb1EEEEE7destroyISE_EEvRSG_PT_ = comdat any

$_ZNSt8__detail16_Hashtable_allocISaINS_10_Hash_nodeISt4pairIKN4cvc58internal12NodeTemplateILb1EEEPNS3_7context11CDOhash_mapIS6_mSt4hashIS6_EEEELb1EEEEE17_M_node_allocatorEv = comdat any

$_ZNSt8__detail16_Hashtable_allocISaINS_10_Hash_nodeISt4pairIKN4cvc58internal12NodeTemplateILb1EEEPNS3_7context11CDOhash_mapIS6_mSt4hashIS6_EEEELb1EEEEE22_M_deallocate_node_ptrEPSF_ = comdat any

$_ZNSt15__new_allocatorINSt8__detail10_Hash_nodeISt4pairIKN4cvc58internal12NodeTemplateILb1EEEPNS3_7context11CDOhash_mapIS6_mSt4hashIS6_EEEELb1EEEE7destroyISE_EEvPT_ = comdat any

$_ZNSt4pairIKN4cvc58internal12NodeTemplateILb1EEEPNS0_7context11CDOhash_mapIS3_mSt4hashIS3_EEEED2Ev = comdat any

$_ZNSt8__detail21_Hashtable_ebo_helperILi0ESaINS_10_Hash_nodeISt4pairIKN4cvc58internal12NodeTemplateILb1EEEPNS3_7context11CDOhash_mapIS6_mSt4hashIS6_EEEELb1EEEELb1EE6_M_getEv = comdat any

$_ZNSt19__ptr_traits_ptr_toIPNSt8__detail10_Hash_nodeISt4pairIKN4cvc58internal12NodeTemplateILb1EEEPNS3_7context11CDOhash_mapIS6_mSt4hashIS6_EEEELb1EEESF_Lb0EE10pointer_toERSF_ = comdat any

$_ZNSt16allocator_traitsISaINSt8__detail10_Hash_nodeISt4pairIKN4cvc58internal12NodeTemplateILb1EEEPNS3_7context11CDOhash_mapIS6_mSt4hashIS6_EEEELb1EEEEE10deallocateERSG_PSF_m = comdat any

$_ZNSt15__new_allocatorINSt8__detail10_Hash_nodeISt4pairIKN4cvc58internal12NodeTemplateILb1EEEPNS3_7context11CDOhash_mapIS6_mSt4hashIS6_EEEELb1EEEE10deallocateEPSF_m = comdat any

$_ZNSt10_HashtableIN4cvc58internal12NodeTemplateILb1EEESt4pairIKS3_PNS0_7context11CDOhash_mapIS3_mSt4hashIS3_EEEESaISC_ENSt8__detail10_Select1stESt8equal_toIS3_ES9_NSE_18_Mod_range_hashingENSE_20_Default_ranged_hashENSE_20_Prime_rehash_policyENSE_17_Hashtable_traitsILb1ELb0ELb1EEEED2Ev = comdat any

$_ZNSt10_HashtableIN4cvc58internal12NodeTemplateILb1EEESt4pairIKS3_PNS0_7context11CDOhash_mapIS3_mSt4hashIS3_EEEESaISC_ENSt8__detail10_Select1stESt8equal_toIS3_ES9_NSE_18_Mod_range_hashingENSE_20_Default_ranged_hashENSE_20_Prime_rehash_policyENSE_17_Hashtable_traitsILb1ELb0ELb1EEEE21_M_deallocate_bucketsEv = comdat any

$_ZNSt8__detail16_Hashtable_allocISaINS_10_Hash_nodeISt4pairIKN4cvc58internal12NodeTemplateILb1EEEPNS3_7context11CDOhash_mapIS6_mSt4hashIS6_EEEELb1EEEEED2Ev = comdat any

$_ZNSt10_HashtableIN4cvc58internal12NodeTemplateILb1EEESt4pairIKS3_PNS0_7context11CDOhash_mapIS3_mSt4hashIS3_EEEESaISC_ENSt8__detail10_Select1stESt8equal_toIS3_ES9_NSE_18_Mod_range_hashingENSE_20_Default_ranged_hashENSE_20_Prime_rehash_policyENSE_17_Hashtable_traitsILb1ELb0ELb1EEEE21_M_deallocate_bucketsEPPNSE_15_Hash_node_baseEm = comdat any

$_ZNKSt10_HashtableIN4cvc58internal12NodeTemplateILb1EEESt4pairIKS3_PNS0_7context11CDOhash_mapIS3_mSt4hashIS3_EEEESaISC_ENSt8__detail10_Select1stESt8equal_toIS3_ES9_NSE_18_Mod_range_hashingENSE_20_Default_ranged_hashENSE_20_Prime_rehash_policyENSE_17_Hashtable_traitsILb1ELb0ELb1EEEE21_M_uses_single_bucketEPPNSE_15_Hash_node_baseE = comdat any

$_ZNSt8__detail16_Hashtable_allocISaINS_10_Hash_nodeISt4pairIKN4cvc58internal12NodeTemplateILb1EEEPNS3_7context11CDOhash_mapIS6_mSt4hashIS6_EEEELb1EEEEE21_M_deallocate_bucketsEPPNS_15_Hash_node_baseEm = comdat any

$_ZNSaIPNSt8__detail15_Hash_node_baseEEC2INS_10_Hash_nodeISt4pairIKN4cvc58internal12NodeTemplateILb1EEEPNS6_7context11CDOhash_mapIS9_mSt4hashIS9_EEEELb1EEEEERKSaIT_E = comdat any

$_ZNSt8__detail21_Hashtable_ebo_helperILi0ESaINS_10_Hash_nodeISt4pairIKN4cvc58internal12NodeTemplateILb1EEEPNS3_7context11CDOhash_mapIS6_mSt4hashIS6_EEEELb1EEEELb1EED2Ev = comdat any

$_ZNSaINSt8__detail10_Hash_nodeISt4pairIKN4cvc58internal12NodeTemplateILb1EEEPNS2_7context11CDOhash_mapIS5_mSt4hashIS5_EEEELb1EEEED2Ev = comdat any

$_ZNSt15__new_allocatorINSt8__detail10_Hash_nodeISt4pairIKN4cvc58internal12NodeTemplateILb1EEEPNS3_7context11CDOhash_mapIS6_mSt4hashIS6_EEEELb1EEEED2Ev = comdat any

$_ZNSt15__uniq_ptr_implIN4cvc58internal21TheoryProofStepBufferESt14default_deleteIS2_EE5resetEPS2_ = comdat any

$_ZNSt15__uniq_ptr_implIN4cvc58internal11LazyCDProofESt14default_deleteIS2_EE5resetEPS2_ = comdat any

$_ZNSt15__uniq_ptr_implIN4cvc58internal10CDProofSetINS1_11LazyCDProofEEESt14default_deleteIS4_EE5resetEPS4_ = comdat any

$_ZN4cvc57context6CDListISt10shared_ptrINS_8internal11LazyCDProofEENS0_14DefaultCleanUpIS5_EESaIS5_EEC2EPNS0_7ContextEbRKS7_ = comdat any

$_ZN4cvc58internal11Cvc5ostreamlsIA11_cEERS1_RKT_ = comdat any

$_ZN4cvc58internal11Cvc5ostreamlsIA2_cEERS1_RKT_ = comdat any

$_ZN4cvc58internal11Cvc5ostreamlsIjEERS1_RKT_ = comdat any

$_ZNK4cvc57context10ContextObj10getContextEv = comdat any

$_ZN4cvc58internal11Cvc5ostreamlsIA15_cEERS1_RKT_ = comdat any

$_ZN4cvc57context10ContextObj11makeCurrentEv = comdat any

$_ZNSt6vectorIN4cvc58internal9TrustNodeESaIS2_EE9push_backERKS2_ = comdat any

$_ZNK4cvc57context5Scope10getContextEv = comdat any

$_ZNK4cvc57context5Scope9isCurrentEv = comdat any

$_ZNK4cvc57context7Context11getTopScopeEv = comdat any

$_ZNKSt6vectorIPN4cvc57context5ScopeESaIS3_EE4backEv = comdat any

$_ZNKSt6vectorIPN4cvc57context5ScopeESaIS3_EE3endEv = comdat any

$_ZNK9__gnu_cxx17__normal_iteratorIPKPN4cvc57context5ScopeESt6vectorIS4_SaIS4_EEEmiEl = comdat any

$_ZNK9__gnu_cxx17__normal_iteratorIPKPN4cvc57context5ScopeESt6vectorIS4_SaIS4_EEEdeEv = comdat any

$_ZN9__gnu_cxx17__normal_iteratorIPKPN4cvc57context5ScopeESt6vectorIS4_SaIS4_EEEC2ERKS6_ = comdat any

$_ZNSt16allocator_traitsISaIN4cvc58internal9TrustNodeEEE9constructIS2_JRKS2_EEEvRS3_PT_DpOT0_ = comdat any

$_ZNSt6vectorIN4cvc58internal9TrustNodeESaIS2_EE17_M_realloc_insertIJRKS2_EEEvN9__gnu_cxx17__normal_iteratorIPS2_S4_EEDpOT_ = comdat any

$_ZNSt15__new_allocatorIN4cvc58internal9TrustNodeEE9constructIS2_JRKS2_EEEvPT_DpOT0_ = comdat any

$_ZN4cvc58internal9TrustNodeC2ERKS1_ = comdat any

$_ZNKSt6vectorIN4cvc58internal9TrustNodeESaIS2_EE12_M_check_lenEmPKc = comdat any

$_ZNSt12_Vector_baseIN4cvc58internal9TrustNodeESaIS2_EE11_M_allocateEm = comdat any

$_ZSt34__uninitialized_move_if_noexcept_aIPN4cvc58internal9TrustNodeES3_SaIS2_EET0_T_S6_S5_RT1_ = comdat any

$_ZNSt16allocator_traitsISaIN4cvc58internal9TrustNodeEEE7destroyIS2_EEvRS3_PT_ = comdat any

$_ZNKSt6vectorIN4cvc58internal9TrustNodeESaIS2_EE8max_sizeEv = comdat any

$_ZNKSt6vectorIN4cvc58internal9TrustNodeESaIS2_EE4sizeEv = comdat any

$_ZSt3maxImERKT_S2_S2_ = comdat any

$_ZNSt6vectorIN4cvc58internal9TrustNodeESaIS2_EE11_S_max_sizeERKS3_ = comdat any

$_ZNKSt12_Vector_baseIN4cvc58internal9TrustNodeESaIS2_EE19_M_get_Tp_allocatorEv = comdat any

$_ZNSt16allocator_traitsISaIN4cvc58internal9TrustNodeEEE8max_sizeERKS3_ = comdat any

$_ZSt3minImERKT_S2_S2_ = comdat any

$_ZNKSt15__new_allocatorIN4cvc58internal9TrustNodeEE8max_sizeEv = comdat any

$_ZNKSt15__new_allocatorIN4cvc58internal9TrustNodeEE11_M_max_sizeEv = comdat any

$_ZNSt16allocator_traitsISaIN4cvc58internal9TrustNodeEEE8allocateERS3_m = comdat any

$_ZNSt15__new_allocatorIN4cvc58internal9TrustNodeEE8allocateEmPKv = comdat any

$_ZSt22__uninitialized_copy_aIPKN4cvc58internal9TrustNodeEPS2_S2_ET0_T_S7_S6_RSaIT1_E = comdat any

$_ZSt32__make_move_if_noexcept_iteratorIN4cvc58internal9TrustNodeEPKS2_ET0_PT_ = comdat any

$_ZSt18uninitialized_copyIPKN4cvc58internal9TrustNodeEPS2_ET0_T_S7_S6_ = comdat any

$_ZNSt20__uninitialized_copyILb0EE13__uninit_copyIPKN4cvc58internal9TrustNodeEPS4_EET0_T_S9_S8_ = comdat any

$_ZSt16__do_uninit_copyIPKN4cvc58internal9TrustNodeEPS2_ET0_T_S7_S6_ = comdat any

$_ZSt10_ConstructIN4cvc58internal9TrustNodeEJRKS2_EEvPT_DpOT0_ = comdat any

$_ZNSt15__new_allocatorIN4cvc58internal9TrustNodeEE7destroyIS2_EEvPT_ = comdat any

$_ZNKSt10unique_ptrIN4cvc58internal10CDProofSetINS1_11LazyCDProofEEESt14default_deleteIS4_EE3getEv = comdat any

$_ZNKSt15__uniq_ptr_implIN4cvc58internal10CDProofSetINS1_11LazyCDProofEEESt14default_deleteIS4_EE6_M_ptrEv = comdat any

$_ZSt3getILm0EJPN4cvc58internal10CDProofSetINS1_11LazyCDProofEEESt14default_deleteIS4_EEERKNSt13tuple_elementIXT_ESt5tupleIJDpT0_EEE4typeERKSC_ = comdat any

$_ZSt12__get_helperILm0EPN4cvc58internal10CDProofSetINS1_11LazyCDProofEEEJSt14default_deleteIS4_EEERKT0_RKSt11_Tuple_implIXT_EJS8_DpT1_EE = comdat any

$_ZNSt11_Tuple_implILm0EJPN4cvc58internal10CDProofSetINS1_11LazyCDProofEEESt14default_deleteIS4_EEE7_M_headERKS8_ = comdat any

$_ZNSt10_Head_baseILm0EPN4cvc58internal10CDProofSetINS1_11LazyCDProofEEELb0EE7_M_headERKS6_ = comdat any

$_ZN4cvc57context6CDListISt10shared_ptrINS_8internal11LazyCDProofEENS0_14DefaultCleanUpIS5_EESaIS5_EE9push_backERKS5_ = comdat any

$_ZSt11make_sharedIN4cvc58internal11LazyCDProofEJRNS1_3EnvEDnRPNS0_7context7ContextENSt7__cxx1112basic_stringIcSt11char_traitsIcESaIcEEEEESt10shared_ptrINSt9enable_ifIXntsr8is_arrayIT_EE5valueESH_E4typeEEDpOT0_ = comdat any

$_ZStplIcSt11char_traitsIcESaIcEENSt7__cxx1112basic_stringIT_T0_T1_EEOS8_S9_ = comdat any

$_ZStplIcSt11char_traitsIcESaIcEENSt7__cxx1112basic_stringIT_T0_T1_EERKS8_PKS5_ = comdat any

$_ZNSt7__cxx119to_stringEm = comdat any

$_ZNK4cvc57context6CDListISt10shared_ptrINS_8internal11LazyCDProofEENS0_14DefaultCleanUpIS5_EESaIS5_EE4sizeEv = comdat any

$_ZNK4cvc57context6CDListISt10shared_ptrINS_8internal11LazyCDProofEENS0_14DefaultCleanUpIS5_EESaIS5_EE4backEv = comdat any

$_ZNKSt12__shared_ptrIN4cvc58internal11LazyCDProofELN9__gnu_cxx12_Lock_policyE2EE3getEv = comdat any

$_ZNSt6vectorISt10shared_ptrIN4cvc58internal11LazyCDProofEESaIS4_EE9push_backERKS4_ = comdat any

$_ZNSt16allocator_traitsISaISt10shared_ptrIN4cvc58internal11LazyCDProofEEEE9constructIS4_JRKS4_EEEvRS5_PT_DpOT0_ = comdat any

$_ZNSt6vectorISt10shared_ptrIN4cvc58internal11LazyCDProofEESaIS4_EE17_M_realloc_insertIJRKS4_EEEvN9__gnu_cxx17__normal_iteratorIPS4_S6_EEDpOT_ = comdat any

$_ZNSt15__new_allocatorISt10shared_ptrIN4cvc58internal11LazyCDProofEEE9constructIS4_JRKS4_EEEvPT_DpOT0_ = comdat any

$_ZNSt10shared_ptrIN4cvc58internal11LazyCDProofEEC2ERKS3_ = comdat any

$_ZNSt12__shared_ptrIN4cvc58internal11LazyCDProofELN9__gnu_cxx12_Lock_policyE2EEC2ERKS5_ = comdat any

$_ZNSt14__shared_countILN9__gnu_cxx12_Lock_policyE2EEC2ERKS2_ = comdat any

$_ZNSt16_Sp_counted_baseILN9__gnu_cxx12_Lock_policyE2EE15_M_add_ref_copyEv = comdat any

$_ZNKSt6vectorISt10shared_ptrIN4cvc58internal11LazyCDProofEESaIS4_EE12_M_check_lenEmPKc = comdat any

$_ZNSt12_Vector_baseISt10shared_ptrIN4cvc58internal11LazyCDProofEESaIS4_EE11_M_allocateEm = comdat any

$_ZNSt6vectorISt10shared_ptrIN4cvc58internal11LazyCDProofEESaIS4_EE11_S_relocateEPS4_S7_S7_RS5_ = comdat any

$_ZNKSt6vectorISt10shared_ptrIN4cvc58internal11LazyCDProofEESaIS4_EE8max_sizeEv = comdat any

$_ZNKSt6vectorISt10shared_ptrIN4cvc58internal11LazyCDProofEESaIS4_EE4sizeEv = comdat any

$_ZNSt6vectorISt10shared_ptrIN4cvc58internal11LazyCDProofEESaIS4_EE11_S_max_sizeERKS5_ = comdat any

$_ZNKSt12_Vector_baseISt10shared_ptrIN4cvc58internal11LazyCDProofEESaIS4_EE19_M_get_Tp_allocatorEv = comdat any

$_ZNSt16allocator_traitsISaISt10shared_ptrIN4cvc58internal11LazyCDProofEEEE8max_sizeERKS5_ = comdat any

$_ZNKSt15__new_allocatorISt10shared_ptrIN4cvc58internal11LazyCDProofEEE8max_sizeEv = comdat any

$_ZNKSt15__new_allocatorISt10shared_ptrIN4cvc58internal11LazyCDProofEEE11_M_max_sizeEv = comdat any

$_ZNSt16allocator_traitsISaISt10shared_ptrIN4cvc58internal11LazyCDProofEEEE8allocateERS5_m = comdat any

$_ZNSt15__new_allocatorISt10shared_ptrIN4cvc58internal11LazyCDProofEEE8allocateEmPKv = comdat any

$_ZSt12__relocate_aIPSt10shared_ptrIN4cvc58internal11LazyCDProofEES5_SaIS4_EET0_T_S8_S7_RT1_ = comdat any

$_ZSt14__relocate_a_1IPSt10shared_ptrIN4cvc58internal11LazyCDProofEES5_SaIS4_EET0_T_S8_S7_RT1_ = comdat any

$_ZSt12__niter_baseIPSt10shared_ptrIN4cvc58internal11LazyCDProofEEET_S6_ = comdat any

$_ZSt19__relocate_object_aISt10shared_ptrIN4cvc58internal11LazyCDProofEES4_SaIS4_EEvPT_PT0_RT1_ = comdat any

$_ZNSt16allocator_traitsISaISt10shared_ptrIN4cvc58internal11LazyCDProofEEEE9constructIS4_JS4_EEEvRS5_PT_DpOT0_ = comdat any

$_ZNSt16allocator_traitsISaISt10shared_ptrIN4cvc58internal11LazyCDProofEEEE7destroyIS4_EEvRS5_PT_ = comdat any

$_ZNSt15__new_allocatorISt10shared_ptrIN4cvc58internal11LazyCDProofEEE9constructIS4_JS4_EEEvPT_DpOT0_ = comdat any

$_ZNSt10shared_ptrIN4cvc58internal11LazyCDProofEEC2EOS3_ = comdat any

$_ZNSt15__new_allocatorISt10shared_ptrIN4cvc58internal11LazyCDProofEEE7destroyIS4_EEvPT_ = comdat any

$_ZNSt10shared_ptrIN4cvc58internal11LazyCDProofEEC2ISaIvEJRNS1_3EnvEDnRPNS0_7context7ContextENSt7__cxx1112basic_stringIcSt11char_traitsIcESaIcEEEEEESt20_Sp_alloc_shared_tagIT_EDpOT0_ = comdat any

$_ZNSt12__shared_ptrIN4cvc58internal11LazyCDProofELN9__gnu_cxx12_Lock_policyE2EEC2ISaIvEJRNS1_3EnvEDnRPNS0_7context7ContextENSt7__cxx1112basic_stringIcSt11char_traitsIcESaIcEEEEEESt20_Sp_alloc_shared_tagIT_EDpOT0_ = comdat any

$_ZNSt14__shared_countILN9__gnu_cxx12_Lock_policyE2EEC2IN4cvc58internal11LazyCDProofESaIvEJRNS5_3EnvEDnRPNS4_7context7ContextENSt7__cxx1112basic_stringIcSt11char_traitsIcESaIcEEEEEERPT_St20_Sp_alloc_shared_tagIT0_EDpOT1_ = comdat any

$_ZNSt12__shared_ptrIN4cvc58internal11LazyCDProofELN9__gnu_cxx12_Lock_policyE2EE31_M_enable_shared_from_this_withIS2_S2_EENSt9enable_ifIXntsr15__has_esft_baseIT0_EE5valueEvE4typeEPT_ = comdat any

$_ZNSaISt23_Sp_counted_ptr_inplaceIN4cvc58internal11LazyCDProofESaIvELN9__gnu_cxx12_Lock_policyE2EEEC2IvEERKSaIT_E = comdat any

$_ZSt18__allocate_guardedISaISt23_Sp_counted_ptr_inplaceIN4cvc58internal11LazyCDProofESaIvELN9__gnu_cxx12_Lock_policyE2EEEESt15__allocated_ptrIT_ERSA_ = comdat any

$_ZNSt15__allocated_ptrISaISt23_Sp_counted_ptr_inplaceIN4cvc58internal11LazyCDProofESaIvELN9__gnu_cxx12_Lock_policyE2EEEE3getEv = comdat any

$_ZNSt23_Sp_counted_ptr_inplaceIN4cvc58internal11LazyCDProofESaIvELN9__gnu_cxx12_Lock_policyE2EEC2IJRNS1_3EnvEDnRPNS0_7context7ContextENSt7__cxx1112basic_stringIcSt11char_traitsIcESaIcEEEEEES3_DpOT_ = comdat any

$_ZNSt15__allocated_ptrISaISt23_Sp_counted_ptr_inplaceIN4cvc58internal11LazyCDProofESaIvELN9__gnu_cxx12_Lock_policyE2EEEEaSEDn = comdat any

$_ZNSt23_Sp_counted_ptr_inplaceIN4cvc58internal11LazyCDProofESaIvELN9__gnu_cxx12_Lock_policyE2EE6_M_ptrEv = comdat any

$_ZNSt15__allocated_ptrISaISt23_Sp_counted_ptr_inplaceIN4cvc58internal11LazyCDProofESaIvELN9__gnu_cxx12_Lock_policyE2EEEED2Ev = comdat any

$_ZNSaISt23_Sp_counted_ptr_inplaceIN4cvc58internal11LazyCDProofESaIvELN9__gnu_cxx12_Lock_policyE2EEED2Ev = comdat any

$_ZNSt15__new_allocatorISt23_Sp_counted_ptr_inplaceIN4cvc58internal11LazyCDProofESaIvELN9__gnu_cxx12_Lock_policyE2EEEC2Ev = comdat any

$_ZNSt16allocator_traitsISaISt23_Sp_counted_ptr_inplaceIN4cvc58internal11LazyCDProofESaIvELN9__gnu_cxx12_Lock_policyE2EEEE8allocateERS8_m = comdat any

$_ZNSt15__allocated_ptrISaISt23_Sp_counted_ptr_inplaceIN4cvc58internal11LazyCDProofESaIvELN9__gnu_cxx12_Lock_policyE2EEEEC2ERS8_PS7_ = comdat any

$_ZNSt15__new_allocatorISt23_Sp_counted_ptr_inplaceIN4cvc58internal11LazyCDProofESaIvELN9__gnu_cxx12_Lock_policyE2EEE8allocateEmPKv = comdat any

$_ZNKSt15__new_allocatorISt23_Sp_counted_ptr_inplaceIN4cvc58internal11LazyCDProofESaIvELN9__gnu_cxx12_Lock_policyE2EEE11_M_max_sizeEv = comdat any

$_ZSt12__to_addressISt23_Sp_counted_ptr_inplaceIN4cvc58internal11LazyCDProofESaIvELN9__gnu_cxx12_Lock_policyE2EEEPT_S9_ = comdat any

$_ZNSt16_Sp_counted_baseILN9__gnu_cxx12_Lock_policyE2EEC2Ev = comdat any

$_ZNSt23_Sp_counted_ptr_inplaceIN4cvc58internal11LazyCDProofESaIvELN9__gnu_cxx12_Lock_policyE2EE5_ImplC2ES3_ = comdat any

$_ZNSt16allocator_traitsISaIvEE9constructIN4cvc58internal11LazyCDProofEJRNS4_3EnvEDnRPNS3_7context7ContextENSt7__cxx1112basic_stringIcSt11char_traitsIcESaIcEEEEEEvRS0_PT_DpOT0_ = comdat any

$_ZNSt23_Sp_counted_ptr_inplaceIN4cvc58internal11LazyCDProofESaIvELN9__gnu_cxx12_Lock_policyE2EED2Ev = comdat any

$_ZNSt23_Sp_counted_ptr_inplaceIN4cvc58internal11LazyCDProofESaIvELN9__gnu_cxx12_Lock_policyE2EED0Ev = comdat any

$_ZNSt23_Sp_counted_ptr_inplaceIN4cvc58internal11LazyCDProofESaIvELN9__gnu_cxx12_Lock_policyE2EE10_M_disposeEv = comdat any

$_ZNSt23_Sp_counted_ptr_inplaceIN4cvc58internal11LazyCDProofESaIvELN9__gnu_cxx12_Lock_policyE2EE10_M_destroyEv = comdat any

$_ZNSt23_Sp_counted_ptr_inplaceIN4cvc58internal11LazyCDProofESaIvELN9__gnu_cxx12_Lock_policyE2EE14_M_get_deleterERKSt9type_info = comdat any

$_ZNSt16_Sp_counted_baseILN9__gnu_cxx12_Lock_policyE2EED2Ev = comdat any

$_ZNSt16_Sp_counted_baseILN9__gnu_cxx12_Lock_policyE2EED0Ev = comdat any

$_ZNSt16_Sp_counted_baseILN9__gnu_cxx12_Lock_policyE2EE10_M_destroyEv = comdat any

$_ZNSt14_Sp_ebo_helperILi0ESaIvELb1EEC2ERKS0_ = comdat any

$_ZSt10_ConstructIN4cvc58internal11LazyCDProofEJRNS1_3EnvEDnRPNS0_7context7ContextENSt7__cxx1112basic_stringIcSt11char_traitsIcESaIcEEEEEvPT_DpOT0_ = comdat any

$_ZNSt16allocator_traitsISaIvEE7destroyIN4cvc58internal11LazyCDProofEEEvRS0_PT_ = comdat any

$_ZNSt23_Sp_counted_ptr_inplaceIN4cvc58internal11LazyCDProofESaIvELN9__gnu_cxx12_Lock_policyE2EE5_Impl8_M_allocEv = comdat any

$_ZSt8_DestroyIN4cvc58internal11LazyCDProofEEvPT_ = comdat any

$_ZNSt14_Sp_ebo_helperILi0ESaIvELb1EE6_S_getERS1_ = comdat any

$_ZNSt19_Sp_make_shared_tag5_S_tiEv = comdat any

$_ZNKSt9type_infoeqERKS_ = comdat any

$_ZNKSt9type_info4nameEv = comdat any

$_ZN9__gnu_cxx16__aligned_bufferIN4cvc58internal11LazyCDProofEE6_M_ptrEv = comdat any

$_ZN9__gnu_cxx16__aligned_bufferIN4cvc58internal11LazyCDProofEE7_M_addrEv = comdat any

$_ZNSt16allocator_traitsISaISt23_Sp_counted_ptr_inplaceIN4cvc58internal11LazyCDProofESaIvELN9__gnu_cxx12_Lock_policyE2EEEE10deallocateERS8_PS7_m = comdat any

$_ZNSt15__new_allocatorISt23_Sp_counted_ptr_inplaceIN4cvc58internal11LazyCDProofESaIvELN9__gnu_cxx12_Lock_policyE2EEE10deallocateEPS7_m = comdat any

$_ZNSt15__new_allocatorISt23_Sp_counted_ptr_inplaceIN4cvc58internal11LazyCDProofESaIvELN9__gnu_cxx12_Lock_policyE2EEED2Ev = comdat any

$_ZNSt8__detail14__to_chars_lenImEEjT_i = comdat any

$_ZNSt7__cxx1112basic_stringIcSt11char_traitsIcESaIcEEC2IS3_EEmcRKS3_ = comdat any

$_ZNSt8__detail18__to_chars_10_implImEEvPcjT_ = comdat any

$_ZNKSt6vectorISt10shared_ptrIN4cvc58internal11LazyCDProofEESaIS4_EEixEm = comdat any

$_ZN4cvc58internal11NodeManager6mkNodeENS0_4kind6Kind_tENS0_12NodeTemplateILb0EEES5_ = comdat any

$_ZNK4cvc58internal12NodeTemplateILb1EE21assertTNodeNotExpiredEv = comdat any

$_ZNSt12_Vector_baseIN4cvc58internal12NodeTemplateILb1EEESaIS3_EEC2ERKS4_ = comdat any

$_ZNSt6vectorIN4cvc58internal12NodeTemplateILb1EEESaIS3_EE19_M_range_initializeIPKS3_EEvT_S9_St20forward_iterator_tag = comdat any

$_ZNKSt16initializer_listIN4cvc58internal12NodeTemplateILb1EEEE5beginEv = comdat any

$_ZNKSt16initializer_listIN4cvc58internal12NodeTemplateILb1EEEE3endEv = comdat any

$_ZNSt12_Vector_baseIN4cvc58internal12NodeTemplateILb1EEESaIS3_EE12_Vector_implC2ERKS4_ = comdat any

$_ZNSt15__new_allocatorIN4cvc58internal12NodeTemplateILb1EEEEC2ERKS4_ = comdat any

$_ZSt8distanceIPKN4cvc58internal12NodeTemplateILb1EEEENSt15iterator_traitsIT_E15difference_typeES7_S7_ = comdat any

$_ZNSt12_Vector_baseIN4cvc58internal12NodeTemplateILb1EEESaIS3_EE11_M_allocateEm = comdat any

$_ZNSt6vectorIN4cvc58internal12NodeTemplateILb1EEESaIS3_EE17_S_check_init_lenEmRKS4_ = comdat any

$_ZSt22__uninitialized_copy_aIPKN4cvc58internal12NodeTemplateILb1EEEPS3_S3_ET0_T_S8_S7_RSaIT1_E = comdat any

$_ZSt10__distanceIPKN4cvc58internal12NodeTemplateILb1EEEENSt15iterator_traitsIT_E15difference_typeES7_S7_St26random_access_iterator_tag = comdat any

$_ZSt19__iterator_categoryIPKN4cvc58internal12NodeTemplateILb1EEEENSt15iterator_traitsIT_E17iterator_categoryERKS7_ = comdat any

$_ZNSt16allocator_traitsISaIN4cvc58internal12NodeTemplateILb1EEEEE8allocateERS4_m = comdat any

$_ZNSt15__new_allocatorIN4cvc58internal12NodeTemplateILb1EEEE8allocateEmPKv = comdat any

$_ZNKSt15__new_allocatorIN4cvc58internal12NodeTemplateILb1EEEE11_M_max_sizeEv = comdat any

$_ZNSt6vectorIN4cvc58internal12NodeTemplateILb1EEESaIS3_EE11_S_max_sizeERKS4_ = comdat any

$_ZNSaIN4cvc58internal12NodeTemplateILb1EEEEC2ERKS3_ = comdat any

$_ZNSt16allocator_traitsISaIN4cvc58internal12NodeTemplateILb1EEEEE8max_sizeERKS4_ = comdat any

$_ZNKSt15__new_allocatorIN4cvc58internal12NodeTemplateILb1EEEE8max_sizeEv = comdat any

$_ZSt18uninitialized_copyIPKN4cvc58internal12NodeTemplateILb1EEEPS3_ET0_T_S8_S7_ = comdat any

$_ZNSt20__uninitialized_copyILb0EE13__uninit_copyIPKN4cvc58internal12NodeTemplateILb1EEEPS5_EET0_T_SA_S9_ = comdat any

$_ZSt16__do_uninit_copyIPKN4cvc58internal12NodeTemplateILb1EEEPS3_ET0_T_S8_S7_ = comdat any

$_ZSt10_ConstructIN4cvc58internal12NodeTemplateILb1EEEJRKS3_EEvPT_DpOT0_ = comdat any

$_ZNKSt16initializer_listIN4cvc58internal12NodeTemplateILb1EEEE4sizeEv = comdat any

$_ZNKSt15__uniq_ptr_implIN4cvc58internal21TheoryProofStepBufferESt14default_deleteIS2_EE6_M_ptrEv = comdat any

$_ZSt3getILm0EJPN4cvc58internal21TheoryProofStepBufferESt14default_deleteIS2_EEERKNSt13tuple_elementIXT_ESt5tupleIJDpT0_EEE4typeERKSA_ = comdat any

$_ZSt12__get_helperILm0EPN4cvc58internal21TheoryProofStepBufferEJSt14default_deleteIS2_EEERKT0_RKSt11_Tuple_implIXT_EJS6_DpT1_EE = comdat any

$_ZNSt11_Tuple_implILm0EJPN4cvc58internal21TheoryProofStepBufferESt14default_deleteIS2_EEE7_M_headERKS6_ = comdat any

$_ZNSt10_Head_baseILm0EPN4cvc58internal21TheoryProofStepBufferELb0EE7_M_headERKS4_ = comdat any

$_ZNKSt6vectorIN4cvc58internal9TrustNodeESaIS2_EE5beginEv = comdat any

$_ZNKSt6vectorIN4cvc58internal9TrustNodeESaIS2_EE3endEv = comdat any

$_ZNK4cvc58internal4expr9NodeValue8getChildEi = comdat any

$_ZN4cvc58internal12NodeTemplateILb1EEC2EPKNS0_4expr9NodeValueE = comdat any

$_ZNK4cvc58internal4expr9NodeValue11getMetaKindEv = comdat any

$_ZNK4cvc58internal4expr9NodeValue7getKindEv = comdat any

$_ZN4cvc58internal4expr9NodeValue11dKindToKindEj = comdat any

$_ZNKSt13unordered_mapIN4cvc58internal12NodeTemplateILb1EEEPNS0_7context11CDOhash_mapIS3_mSt4hashIS3_EEES7_St8equal_toIS3_ESaISt4pairIKS3_S9_EEE4findERSD_ = comdat any

$_ZNSt8__detaileqERKNS_19_Node_iterator_baseISt4pairIKN4cvc58internal12NodeTemplateILb1EEEPNS2_7context11CDOhash_mapIS5_mSt4hashIS5_EEEELb1EEESG_ = comdat any

$_ZNKSt13unordered_mapIN4cvc58internal12NodeTemplateILb1EEEPNS0_7context11CDOhash_mapIS3_mSt4hashIS3_EEES7_St8equal_toIS3_ESaISt4pairIKS3_S9_EEE3endEv = comdat any

$_ZNKSt8__detail20_Node_const_iteratorISt4pairIKN4cvc58internal12NodeTemplateILb1EEEPNS2_7context11CDOhash_mapIS5_mSt4hashIS5_EEEELb0ELb1EEdeEv = comdat any

$_ZN4cvc57context9CDHashMapINS_8internal12NodeTemplateILb1EEEmSt4hashIS4_EE8iteratorC2EPKNS0_11CDOhash_mapIS4_mS6_EE = comdat any

$_ZNKSt10_HashtableIN4cvc58internal12NodeTemplateILb1EEESt4pairIKS3_PNS0_7context11CDOhash_mapIS3_mSt4hashIS3_EEEESaISC_ENSt8__detail10_Select1stESt8equal_toIS3_ES9_NSE_18_Mod_range_hashingENSE_20_Default_ranged_hashENSE_20_Prime_rehash_policyENSE_17_Hashtable_traitsILb1ELb0ELb1EEEE4findERS5_ = comdat any

$_ZNKSt10_HashtableIN4cvc58internal12NodeTemplateILb1EEESt4pairIKS3_PNS0_7context11CDOhash_mapIS3_mSt4hashIS3_EEEESaISC_ENSt8__detail10_Select1stESt8equal_toIS3_ES9_NSE_18_Mod_range_hashingENSE_20_Default_ranged_hashENSE_20_Prime_rehash_policyENSE_17_Hashtable_traitsILb1ELb0ELb1EEEE4sizeEv = comdat any

$_ZNSt10_HashtableIN4cvc58internal12NodeTemplateILb1EEESt4pairIKS3_PNS0_7context11CDOhash_mapIS3_mSt4hashIS3_EEEESaISC_ENSt8__detail10_Select1stESt8equal_toIS3_ES9_NSE_18_Mod_range_hashingENSE_20_Default_ranged_hashENSE_20_Prime_rehash_policyENSE_17_Hashtable_traitsILb1ELb0ELb1EEEE22__small_size_thresholdEv = comdat any

$_ZNKSt10_HashtableIN4cvc58internal12NodeTemplateILb1EEESt4pairIKS3_PNS0_7context11CDOhash_mapIS3_mSt4hashIS3_EEEESaISC_ENSt8__detail10_Select1stESt8equal_toIS3_ES9_NSE_18_Mod_range_hashingENSE_20_Default_ranged_hashENSE_20_Prime_rehash_policyENSE_17_Hashtable_traitsILb1ELb0ELb1EEEE5beginEv = comdat any

$_ZNKSt10_HashtableIN4cvc58internal12NodeTemplateILb1EEESt4pairIKS3_PNS0_7context11CDOhash_mapIS3_mSt4hashIS3_EEEESaISC_ENSt8__detail10_Select1stESt8equal_toIS3_ES9_NSE_18_Mod_range_hashingENSE_20_Default_ranged_hashENSE_20_Prime_rehash_policyENSE_17_Hashtable_traitsILb1ELb0ELb1EEEE3endEv = comdat any

$_ZNKSt8__detail15_Hashtable_baseIN4cvc58internal12NodeTemplateILb1EEESt4pairIKS4_PNS1_7context11CDOhash_mapIS4_mSt4hashIS4_EEEENS_10_Select1stESt8equal_toIS4_ESA_NS_18_Mod_range_hashingENS_20_Default_ranged_hashENS_17_Hashtable_traitsILb1ELb0ELb1EEEE13_M_key_equalsERS6_RKNS_16_Hash_node_valueISD_Lb1EEE = comdat any

$_ZNSt8__detail20_Node_const_iteratorISt4pairIKN4cvc58internal12NodeTemplateILb1EEEPNS2_7context11CDOhash_mapIS5_mSt4hashIS5_EEEELb0ELb1EEppEv = comdat any

$_ZNKSt8__detail15_Hash_code_baseIN4cvc58internal12NodeTemplateILb1EEESt4pairIKS4_PNS1_7context11CDOhash_mapIS4_mSt4hashIS4_EEEENS_10_Select1stESA_NS_18_Mod_range_hashingENS_20_Default_ranged_hashELb1EE12_M_hash_codeERS6_ = comdat any

$_ZNKSt10_HashtableIN4cvc58internal12NodeTemplateILb1EEESt4pairIKS3_PNS0_7context11CDOhash_mapIS3_mSt4hashIS3_EEEESaISC_ENSt8__detail10_Select1stESt8equal_toIS3_ES9_NSE_18_Mod_range_hashingENSE_20_Default_ranged_hashENSE_20_Prime_rehash_policyENSE_17_Hashtable_traitsILb1ELb0ELb1EEEE15_M_bucket_indexEm = comdat any

$_ZNKSt10_HashtableIN4cvc58internal12NodeTemplateILb1EEESt4pairIKS3_PNS0_7context11CDOhash_mapIS3_mSt4hashIS3_EEEESaISC_ENSt8__detail10_Select1stESt8equal_toIS3_ES9_NSE_18_Mod_range_hashingENSE_20_Default_ranged_hashENSE_20_Prime_rehash_policyENSE_17_Hashtable_traitsILb1ELb0ELb1EEEE12_M_find_nodeEmRS5_m = comdat any

$_ZNSt8__detail20_Node_const_iteratorISt4pairIKN4cvc58internal12NodeTemplateILb1EEEPNS2_7context11CDOhash_mapIS5_mSt4hashIS5_EEEELb0ELb1EEC2EPNS_10_Hash_nodeISD_Lb1EEE = comdat any

$_ZNSt8__detail22_Hashtable_hash_traitsISt4hashIN4cvc58internal12NodeTemplateILb1EEEEE22__small_size_thresholdEv = comdat any

$_ZNKSt8__detail15_Hashtable_baseIN4cvc58internal12NodeTemplateILb1EEESt4pairIKS4_PNS1_7context11CDOhash_mapIS4_mSt4hashIS4_EEEENS_10_Select1stESt8equal_toIS4_ESA_NS_18_Mod_range_hashingENS_20_Default_ranged_hashENS_17_Hashtable_traitsILb1ELb0ELb1EEEE5_M_eqEv = comdat any

$_ZNKSt8equal_toIN4cvc58internal12NodeTemplateILb1EEEEclERKS3_S6_ = comdat any

$_ZNKSt8__detail10_Select1stclIRKSt4pairIKN4cvc58internal12NodeTemplateILb1EEEPNS3_7context11CDOhash_mapIS6_mSt4hashIS6_EEEEEEONS0_10__1st_typeIT_E4typeEOSI_ = comdat any

$_ZNKSt8__detail21_Hash_node_value_baseISt4pairIKN4cvc58internal12NodeTemplateILb1EEEPNS2_7context11CDOhash_mapIS5_mSt4hashIS5_EEEEE4_M_vEv = comdat any

$_ZNKSt8__detail21_Hashtable_ebo_helperILi0ESt8equal_toIN4cvc58internal12NodeTemplateILb1EEEELb1EE7_M_cgetEv = comdat any

$_ZNKSt8__detail21_Hash_node_value_baseISt4pairIKN4cvc58internal12NodeTemplateILb1EEEPNS2_7context11CDOhash_mapIS5_mSt4hashIS5_EEEEE9_M_valptrEv = comdat any

$_ZNK9__gnu_cxx16__aligned_bufferISt4pairIKN4cvc58internal12NodeTemplateILb1EEEPNS2_7context11CDOhash_mapIS5_mSt4hashIS5_EEEEE6_M_ptrEv = comdat any

$_ZNK9__gnu_cxx16__aligned_bufferISt4pairIKN4cvc58internal12NodeTemplateILb1EEEPNS2_7context11CDOhash_mapIS5_mSt4hashIS5_EEEEE7_M_addrEv = comdat any

$_ZNKSt8__detail15_Hash_code_baseIN4cvc58internal12NodeTemplateILb1EEESt4pairIKS4_PNS1_7context11CDOhash_mapIS4_mSt4hashIS4_EEEENS_10_Select1stESA_NS_18_Mod_range_hashingENS_20_Default_ranged_hashELb1EE7_M_hashEv = comdat any

$_ZNKSt8__detail21_Hashtable_ebo_helperILi1ESt4hashIN4cvc58internal12NodeTemplateILb1EEEELb1EE7_M_cgetEv = comdat any

$_ZNKSt8__detail15_Hash_code_baseIN4cvc58internal12NodeTemplateILb1EEESt4pairIKS4_PNS1_7context11CDOhash_mapIS4_mSt4hashIS4_EEEENS_10_Select1stESA_NS_18_Mod_range_hashingENS_20_Default_ranged_hashELb1EE15_M_bucket_indexEmm = comdat any

$_ZNKSt8__detail18_Mod_range_hashingclEmm = comdat any

$_ZNKSt10_HashtableIN4cvc58internal12NodeTemplateILb1EEESt4pairIKS3_PNS0_7context11CDOhash_mapIS3_mSt4hashIS3_EEEESaISC_ENSt8__detail10_Select1stESt8equal_toIS3_ES9_NSE_18_Mod_range_hashingENSE_20_Default_ranged_hashENSE_20_Prime_rehash_policyENSE_17_Hashtable_traitsILb1ELb0ELb1EEEE19_M_find_before_nodeEmRS5_m = comdat any

$_ZNKSt8__detail15_Hashtable_baseIN4cvc58internal12NodeTemplateILb1EEESt4pairIKS4_PNS1_7context11CDOhash_mapIS4_mSt4hashIS4_EEEENS_10_Select1stESt8equal_toIS4_ESA_NS_18_Mod_range_hashingENS_20_Default_ranged_hashENS_17_Hashtable_traitsILb1ELb0ELb1EEEE9_M_equalsERS6_mRKNS_16_Hash_node_valueISD_Lb1EEE = comdat any

$_ZNKSt10_HashtableIN4cvc58internal12NodeTemplateILb1EEESt4pairIKS3_PNS0_7context11CDOhash_mapIS3_mSt4hashIS3_EEEESaISC_ENSt8__detail10_Select1stESt8equal_toIS3_ES9_NSE_18_Mod_range_hashingENSE_20_Default_ranged_hashENSE_20_Prime_rehash_policyENSE_17_Hashtable_traitsILb1ELb0ELb1EEEE15_M_bucket_indexERKNSE_16_Hash_node_valueISC_Lb1EEE = comdat any

$_ZNSt8__detail15_Hashtable_baseIN4cvc58internal12NodeTemplateILb1EEESt4pairIKS4_PNS1_7context11CDOhash_mapIS4_mSt4hashIS4_EEEENS_10_Select1stESt8equal_toIS4_ESA_NS_18_Mod_range_hashingENS_20_Default_ranged_hashENS_17_Hashtable_traitsILb1ELb0ELb1EEEE9_S_equalsEmRKNS_21_Hash_node_code_cacheILb1EEE = comdat any

$_ZNKSt8__detail15_Hash_code_baseIN4cvc58internal12NodeTemplateILb1EEESt4pairIKS4_PNS1_7context11CDOhash_mapIS4_mSt4hashIS4_EEEENS_10_Select1stESA_NS_18_Mod_range_hashingENS_20_Default_ranged_hashELb1EE15_M_bucket_indexERKNS_16_Hash_node_valueISD_Lb1EEEm = comdat any

$_ZNSt13unordered_mapIN4cvc58internal12NodeTemplateILb1EEEPNS0_7context11CDOhash_mapIS3_mSt4hashIS3_EEES7_St8equal_toIS3_ESaISt4pairIKS3_S9_EEE6insertEOSE_ = comdat any

$_ZNSt4pairIKN4cvc58internal12NodeTemplateILb1EEEPNS0_7context11CDOhash_mapIS3_mSt4hashIS3_EEEEC2IRS4_DnTnNSt9enable_ifIXaaclsr5_PCCPE22_MoveConstructiblePairIT_T0_EEclsr5_PCCPE30_ImplicitlyMoveConvertiblePairISF_SG_EEEbE4typeELb1EEEOSF_OSG_ = comdat any

$_ZN4cvc57context10ContextObjnwEmb = comdat any

$_ZN4cvc57context11CDOhash_mapINS_8internal12NodeTemplateILb1EEEmSt4hashIS4_EEC2EPNS0_7ContextEPNS0_9CDHashMapIS4_mS6_EERKS4_RKm = comdat any

$_ZN4cvc57context10ContextObjdlEPvb = comdat any

$_ZNKSt8__detail14_Node_iteratorISt4pairIKN4cvc58internal12NodeTemplateILb1EEEPNS2_7context11CDOhash_mapIS5_mSt4hashIS5_EEEELb0ELb1EEptEv = comdat any

$_ZNSt8__detail7_InsertIN4cvc58internal12NodeTemplateILb1EEESt4pairIKS4_PNS1_7context11CDOhash_mapIS4_mSt4hashIS4_EEEESaISD_ENS_10_Select1stESt8equal_toIS4_ESA_NS_18_Mod_range_hashingENS_20_Default_ranged_hashENS_20_Prime_rehash_policyENS_17_Hashtable_traitsILb1ELb0ELb1EEELb0EE6insertISD_vEES5_INS_14_Node_iteratorISD_Lb0ELb1EEEbEOT_ = comdat any

$_ZNSt8__detail12_Insert_baseIN4cvc58internal12NodeTemplateILb1EEESt4pairIKS4_PNS1_7context11CDOhash_mapIS4_mSt4hashIS4_EEEESaISD_ENS_10_Select1stESt8equal_toIS4_ESA_NS_18_Mod_range_hashingENS_20_Default_ranged_hashENS_20_Prime_rehash_policyENS_17_Hashtable_traitsILb1ELb0ELb1EEEE20_M_conjure_hashtableEv = comdat any

$_ZNSt10_HashtableIN4cvc58internal12NodeTemplateILb1EEESt4pairIKS3_PNS0_7context11CDOhash_mapIS3_mSt4hashIS3_EEEESaISC_ENSt8__detail10_Select1stESt8equal_toIS3_ES9_NSE_18_Mod_range_hashingENSE_20_Default_ranged_hashENSE_20_Prime_rehash_policyENSE_17_Hashtable_traitsILb1ELb0ELb1EEEE10_M_emplaceIJSC_EEES4_INSE_14_Node_iteratorISC_Lb0ELb1EEEbESt17integral_constantIbLb1EEDpOT_ = comdat any

$_ZNSt10_HashtableIN4cvc58internal12NodeTemplateILb1EEESt4pairIKS3_PNS0_7context11CDOhash_mapIS3_mSt4hashIS3_EEEESaISC_ENSt8__detail10_Select1stESt8equal_toIS3_ES9_NSE_18_Mod_range_hashingENSE_20_Default_ranged_hashENSE_20_Prime_rehash_policyENSE_17_Hashtable_traitsILb1ELb0ELb1EEEE12_Scoped_nodeC2IJSC_EEEPNSE_16_Hashtable_allocISaINSE_10_Hash_nodeISC_Lb1EEEEEEDpOT_ = comdat any

$_ZNKSt8__detail10_Select1stclIRSt4pairIKN4cvc58internal12NodeTemplateILb1EEEPNS3_7context11CDOhash_mapIS6_mSt4hashIS6_EEEEEEONS0_10__1st_typeIT_E4typeEOSH_ = comdat any

$_ZNSt4pairINSt8__detail14_Node_iteratorIS_IKN4cvc58internal12NodeTemplateILb1EEEPNS2_7context11CDOhash_mapIS5_mSt4hashIS5_EEEELb0ELb1EEEbEC2IRSE_bTnNSt9enable_ifIXaaclsr5_PCCPE22_MoveConstructiblePairIT_T0_EEclsr5_PCCPE30_ImplicitlyMoveConvertiblePairISJ_SK_EEEbE4typeELb1EEEOSJ_OSK_ = comdat any

$_ZNSt4pairINSt8__detail14_Node_iteratorIS_IKN4cvc58internal12NodeTemplateILb1EEEPNS2_7context11CDOhash_mapIS5_mSt4hashIS5_EEEELb0ELb1EEEbEC2ISE_bTnNSt9enable_ifIXaaclsr5_PCCPE22_MoveConstructiblePairIT_T0_EEclsr5_PCCPE30_ImplicitlyMoveConvertiblePairISI_SJ_EEEbE4typeELb1EEEOSI_OSJ_ = comdat any

$_ZNSt10_HashtableIN4cvc58internal12NodeTemplateILb1EEESt4pairIKS3_PNS0_7context11CDOhash_mapIS3_mSt4hashIS3_EEEESaISC_ENSt8__detail10_Select1stESt8equal_toIS3_ES9_NSE_18_Mod_range_hashingENSE_20_Default_ranged_hashENSE_20_Prime_rehash_policyENSE_17_Hashtable_traitsILb1ELb0ELb1EEEE21_M_insert_unique_nodeEmmPNSE_10_Hash_nodeISC_Lb1EEEm = comdat any

$_ZNSt10_HashtableIN4cvc58internal12NodeTemplateILb1EEESt4pairIKS3_PNS0_7context11CDOhash_mapIS3_mSt4hashIS3_EEEESaISC_ENSt8__detail10_Select1stESt8equal_toIS3_ES9_NSE_18_Mod_range_hashingENSE_20_Default_ranged_hashENSE_20_Prime_rehash_policyENSE_17_Hashtable_traitsILb1ELb0ELb1EEEE12_Scoped_nodeD2Ev = comdat any

$_ZNSt8__detail16_Hashtable_allocISaINS_10_Hash_nodeISt4pairIKN4cvc58internal12NodeTemplateILb1EEEPNS3_7context11CDOhash_mapIS6_mSt4hashIS6_EEEELb1EEEEE16_M_allocate_nodeIJSE_EEEPSF_DpOT_ = comdat any

$_ZNSt16allocator_traitsISaINSt8__detail10_Hash_nodeISt4pairIKN4cvc58internal12NodeTemplateILb1EEEPNS3_7context11CDOhash_mapIS6_mSt4hashIS6_EEEELb1EEEEE8allocateERSG_m = comdat any

$_ZSt12__to_addressINSt8__detail10_Hash_nodeISt4pairIKN4cvc58internal12NodeTemplateILb1EEEPNS3_7context11CDOhash_mapIS6_mSt4hashIS6_EEEELb1EEEEPT_SH_ = comdat any

$_ZNSt8__detail10_Hash_nodeISt4pairIKN4cvc58internal12NodeTemplateILb1EEEPNS2_7context11CDOhash_mapIS5_mSt4hashIS5_EEEELb1EEC2Ev = comdat any

$_ZNSt16allocator_traitsISaINSt8__detail10_Hash_nodeISt4pairIKN4cvc58internal12NodeTemplateILb1EEEPNS3_7context11CDOhash_mapIS6_mSt4hashIS6_EEEELb1EEEEE9constructISE_JSE_EEEvRSG_PT_DpOT0_ = comdat any

$_ZNSt15__new_allocatorINSt8__detail10_Hash_nodeISt4pairIKN4cvc58internal12NodeTemplateILb1EEEPNS3_7context11CDOhash_mapIS6_mSt4hashIS6_EEEELb1EEEE8allocateEmPKv = comdat any

$_ZNKSt15__new_allocatorINSt8__detail10_Hash_nodeISt4pairIKN4cvc58internal12NodeTemplateILb1EEEPNS3_7context11CDOhash_mapIS6_mSt4hashIS6_EEEELb1EEEE11_M_max_sizeEv = comdat any

$_ZNSt15__new_allocatorINSt8__detail10_Hash_nodeISt4pairIKN4cvc58internal12NodeTemplateILb1EEEPNS3_7context11CDOhash_mapIS6_mSt4hashIS6_EEEELb1EEEE9constructISE_JSE_EEEvPT_DpOT0_ = comdat any

$_ZNSt4pairIKN4cvc58internal12NodeTemplateILb1EEEPNS0_7context11CDOhash_mapIS3_mSt4hashIS3_EEEEC2EOSB_ = comdat any

$_ZNKSt8__detail20_Prime_rehash_policy8_M_stateEv = comdat any

$_ZNSt10_HashtableIN4cvc58internal12NodeTemplateILb1EEESt4pairIKS3_PNS0_7context11CDOhash_mapIS3_mSt4hashIS3_EEEESaISC_ENSt8__detail10_Select1stESt8equal_toIS3_ES9_NSE_18_Mod_range_hashingENSE_20_Default_ranged_hashENSE_20_Prime_rehash_policyENSE_17_Hashtable_traitsILb1ELb0ELb1EEEE9_M_rehashEmRKm = comdat any

$_ZNKSt8__detail15_Hash_code_baseIN4cvc58internal12NodeTemplateILb1EEESt4pairIKS4_PNS1_7context11CDOhash_mapIS4_mSt4hashIS4_EEEENS_10_Select1stESA_NS_18_Mod_range_hashingENS_20_Default_ranged_hashELb1EE13_M_store_codeERNS_21_Hash_node_code_cacheILb1EEEm = comdat any

$_ZNSt10_HashtableIN4cvc58internal12NodeTemplateILb1EEESt4pairIKS3_PNS0_7context11CDOhash_mapIS3_mSt4hashIS3_EEEESaISC_ENSt8__detail10_Select1stESt8equal_toIS3_ES9_NSE_18_Mod_range_hashingENSE_20_Default_ranged_hashENSE_20_Prime_rehash_policyENSE_17_Hashtable_traitsILb1ELb0ELb1EEEE22_M_insert_bucket_beginEmPNSE_10_Hash_nodeISC_Lb1EEE = comdat any

$_ZNSt10_HashtableIN4cvc58internal12NodeTemplateILb1EEESt4pairIKS3_PNS0_7context11CDOhash_mapIS3_mSt4hashIS3_EEEESaISC_ENSt8__detail10_Select1stESt8equal_toIS3_ES9_NSE_18_Mod_range_hashingENSE_20_Default_ranged_hashENSE_20_Prime_rehash_policyENSE_17_Hashtable_traitsILb1ELb0ELb1EEEE13_M_rehash_auxEmSt17integral_constantIbLb1EE = comdat any

$_ZNSt8__detail20_Prime_rehash_policy8_M_resetEm = comdat any

$_ZNSt10_HashtableIN4cvc58internal12NodeTemplateILb1EEESt4pairIKS3_PNS0_7context11CDOhash_mapIS3_mSt4hashIS3_EEEESaISC_ENSt8__detail10_Select1stESt8equal_toIS3_ES9_NSE_18_Mod_range_hashingENSE_20_Default_ranged_hashENSE_20_Prime_rehash_policyENSE_17_Hashtable_traitsILb1ELb0ELb1EEEE19_M_allocate_bucketsEm = comdat any

$_ZNSt8__detail16_Hashtable_allocISaINS_10_Hash_nodeISt4pairIKN4cvc58internal12NodeTemplateILb1EEEPNS3_7context11CDOhash_mapIS6_mSt4hashIS6_EEEELb1EEEEE19_M_allocate_bucketsEm = comdat any

$_ZNSt16allocator_traitsISaIPNSt8__detail15_Hash_node_baseEEE8allocateERS3_m = comdat any

$_ZSt12__to_addressIPNSt8__detail15_Hash_node_baseEEPT_S4_ = comdat any

$_ZNSt15__new_allocatorIPNSt8__detail15_Hash_node_baseEE8allocateEmPKv = comdat any

$_ZNKSt15__new_allocatorIPNSt8__detail15_Hash_node_baseEE11_M_max_sizeEv = comdat any

$_ZNSt4pairIKN4cvc58internal12NodeTemplateILb1EEEKmEC2IS4_S5_TnNSt9enable_ifIXaaclsr5_PCCPE18_ConstructiblePairIT_T0_EEclsr5_PCCPE26_ImplicitlyConvertiblePairIS9_SA_EEEbE4typeELb1EEERS4_RS5_ = comdat any

$_ZN4cvc57context11CDOhash_mapINS_8internal12NodeTemplateILb1EEEmSt4hashIS4_EE3setERKm = comdat any

$_ZNSt4pairIKN4cvc58internal12NodeTemplateILb1EEEKmED2Ev = comdat any

$_ZN4cvc57context11CDOhash_mapINS_8internal12NodeTemplateILb1EEEmSt4hashIS4_EE4saveEPNS0_20ContextMemoryManagerE = comdat any

$_ZN4cvc57context11CDOhash_mapINS_8internal12NodeTemplateILb1EEEmSt4hashIS4_EE7restoreEPNS0_10ContextObjE = comdat any

$_ZN4cvc57context11CDOhash_mapINS_8internal12NodeTemplateILb1EEEmSt4hashIS4_EED2Ev = comdat any

$_ZN4cvc57context11CDOhash_mapINS_8internal12NodeTemplateILb1EEEmSt4hashIS4_EED0Ev = comdat any

$_ZN4cvc57context11CDOhash_mapINS_8internal12NodeTemplateILb1EEEmSt4hashIS4_EE12mutable_dataEv = comdat any

$_ZN4cvc57context11CDOhash_mapINS_8internal12NodeTemplateILb1EEEmSt4hashIS4_EEC2ERKS7_ = comdat any

$_ZN4cvc58internal12NodeTemplateILb1EEC2Ev = comdat any

$_ZNSt4pairIKN4cvc58internal12NodeTemplateILb1EEEKmEC2IS3_RS5_TnNSt9enable_ifIXaaclsr5_PCCPE22_MoveConstructiblePairIT_T0_EEclsr5_PCCPE30_ImplicitlyMoveConvertiblePairISA_SB_EEEbE4typeELb1EEEOSA_OSB_ = comdat any

$_ZN4cvc58internal4expr9NodeValue4nullEv = comdat any

$_ZN4cvc58internal4expr9NodeValueC2Ei = comdat any

$_ZNSt13unordered_mapIN4cvc58internal12NodeTemplateILb1EEEPNS0_7context11CDOhash_mapIS3_mSt4hashIS3_EEES7_St8equal_toIS3_ESaISt4pairIKS3_S9_EEE5eraseERSD_ = comdat any

$_ZNK4cvc57context11CDOhash_mapINS_8internal12NodeTemplateILb1EEEmSt4hashIS4_EE6getKeyEv = comdat any

$_ZNK4cvc57context11CDOhash_mapINS_8internal12NodeTemplateILb1EEEmSt4hashIS4_EE3getEv = comdat any

$_ZN4cvc57context11CDOhash_mapINS_8internal12NodeTemplateILb1EEEmSt4hashIS4_EE11mutable_keyEv = comdat any

$_ZNSt10_HashtableIN4cvc58internal12NodeTemplateILb1EEESt4pairIKS3_PNS0_7context11CDOhash_mapIS3_mSt4hashIS3_EEEESaISC_ENSt8__detail10_Select1stESt8equal_toIS3_ES9_NSE_18_Mod_range_hashingENSE_20_Default_ranged_hashENSE_20_Prime_rehash_policyENSE_17_Hashtable_traitsILb1ELb0ELb1EEEE5eraseERS5_ = comdat any

$_ZNSt10_HashtableIN4cvc58internal12NodeTemplateILb1EEESt4pairIKS3_PNS0_7context11CDOhash_mapIS3_mSt4hashIS3_EEEESaISC_ENSt8__detail10_Select1stESt8equal_toIS3_ES9_NSE_18_Mod_range_hashingENSE_20_Default_ranged_hashENSE_20_Prime_rehash_policyENSE_17_Hashtable_traitsILb1ELb0ELb1EEEE8_M_eraseESt17integral_constantIbLb1EERS5_ = comdat any

$_ZNSt10_HashtableIN4cvc58internal12NodeTemplateILb1EEESt4pairIKS3_PNS0_7context11CDOhash_mapIS3_mSt4hashIS3_EEEESaISC_ENSt8__detail10_Select1stESt8equal_toIS3_ES9_NSE_18_Mod_range_hashingENSE_20_Default_ranged_hashENSE_20_Prime_rehash_policyENSE_17_Hashtable_traitsILb1ELb0ELb1EEEE19_M_find_before_nodeERS5_ = comdat any

$_ZNSt10_HashtableIN4cvc58internal12NodeTemplateILb1EEESt4pairIKS3_PNS0_7context11CDOhash_mapIS3_mSt4hashIS3_EEEESaISC_ENSt8__detail10_Select1stESt8equal_toIS3_ES9_NSE_18_Mod_range_hashingENSE_20_Default_ranged_hashENSE_20_Prime_rehash_policyENSE_17_Hashtable_traitsILb1ELb0ELb1EEEE8_M_eraseEmPNSE_15_Hash_node_baseEPNSE_10_Hash_nodeISC_Lb1EEE = comdat any

$_ZNSt10_HashtableIN4cvc58internal12NodeTemplateILb1EEESt4pairIKS3_PNS0_7context11CDOhash_mapIS3_mSt4hashIS3_EEEESaISC_ENSt8__detail10_Select1stESt8equal_toIS3_ES9_NSE_18_Mod_range_hashingENSE_20_Default_ranged_hashENSE_20_Prime_rehash_policyENSE_17_Hashtable_traitsILb1ELb0ELb1EEEE22_M_remove_bucket_beginEmPNSE_10_Hash_nodeISC_Lb1EEEm = comdat any

$_ZNSt10_HashtableIN4cvc58internal12NodeTemplateILb1EEES3_SaIS3_ENSt8__detail9_IdentityESt8equal_toIS3_ESt4hashIS3_ENS5_18_Mod_range_hashingENS5_20_Default_ranged_hashENS5_20_Prime_rehash_policyENS5_17_Hashtable_traitsILb1ELb1ELb1EEEE4findERKS3_ = comdat any

$_ZNKSt10_HashtableIN4cvc58internal12NodeTemplateILb1EEES3_SaIS3_ENSt8__detail9_IdentityESt8equal_toIS3_ESt4hashIS3_ENS5_18_Mod_range_hashingENS5_20_Default_ranged_hashENS5_20_Prime_rehash_policyENS5_17_Hashtable_traitsILb1ELb1ELb1EEEE4sizeEv = comdat any

$_ZNSt10_HashtableIN4cvc58internal12NodeTemplateILb1EEES3_SaIS3_ENSt8__detail9_IdentityESt8equal_toIS3_ESt4hashIS3_ENS5_18_Mod_range_hashingENS5_20_Default_ranged_hashENS5_20_Prime_rehash_policyENS5_17_Hashtable_traitsILb1ELb1ELb1EEEE22__small_size_thresholdEv = comdat any

$_ZNSt10_HashtableIN4cvc58internal12NodeTemplateILb1EEES3_SaIS3_ENSt8__detail9_IdentityESt8equal_toIS3_ESt4hashIS3_ENS5_18_Mod_range_hashingENS5_20_Default_ranged_hashENS5_20_Prime_rehash_policyENS5_17_Hashtable_traitsILb1ELb1ELb1EEEE5beginEv = comdat any

$_ZNSt8__detailneERKNS_19_Node_iterator_baseIN4cvc58internal12NodeTemplateILb1EEELb1EEES7_ = comdat any

$_ZNSt10_HashtableIN4cvc58internal12NodeTemplateILb1EEES3_SaIS3_ENSt8__detail9_IdentityESt8equal_toIS3_ESt4hashIS3_ENS5_18_Mod_range_hashingENS5_20_Default_ranged_hashENS5_20_Prime_rehash_policyENS5_17_Hashtable_traitsILb1ELb1ELb1EEEE3endEv = comdat any

$_ZNKSt8__detail15_Hashtable_baseIN4cvc58internal12NodeTemplateILb1EEES4_NS_9_IdentityESt8equal_toIS4_ESt4hashIS4_ENS_18_Mod_range_hashingENS_20_Default_ranged_hashENS_17_Hashtable_traitsILb1ELb1ELb1EEEE13_M_key_equalsERKS4_RKNS_16_Hash_node_valueIS4_Lb1EEE = comdat any

$_ZNSt8__detail14_Node_iteratorIN4cvc58internal12NodeTemplateILb1EEELb1ELb1EEppEv = comdat any

$_ZNKSt8__detail15_Hash_code_baseIN4cvc58internal12NodeTemplateILb1EEES4_NS_9_IdentityESt4hashIS4_ENS_18_Mod_range_hashingENS_20_Default_ranged_hashELb1EE12_M_hash_codeERKS4_ = comdat any

$_ZNKSt10_HashtableIN4cvc58internal12NodeTemplateILb1EEES3_SaIS3_ENSt8__detail9_IdentityESt8equal_toIS3_ESt4hashIS3_ENS5_18_Mod_range_hashingENS5_20_Default_ranged_hashENS5_20_Prime_rehash_policyENS5_17_Hashtable_traitsILb1ELb1ELb1EEEE15_M_bucket_indexEm = comdat any

$_ZNKSt10_HashtableIN4cvc58internal12NodeTemplateILb1EEES3_SaIS3_ENSt8__detail9_IdentityESt8equal_toIS3_ESt4hashIS3_ENS5_18_Mod_range_hashingENS5_20_Default_ranged_hashENS5_20_Prime_rehash_policyENS5_17_Hashtable_traitsILb1ELb1ELb1EEEE12_M_find_nodeEmRKS3_m = comdat any

$_ZNSt8__detail14_Node_iteratorIN4cvc58internal12NodeTemplateILb1EEELb1ELb1EEC2EPNS_10_Hash_nodeIS4_Lb1EEE = comdat any

$_ZNKSt8__detail15_Hashtable_baseIN4cvc58internal12NodeTemplateILb1EEES4_NS_9_IdentityESt8equal_toIS4_ESt4hashIS4_ENS_18_Mod_range_hashingENS_20_Default_ranged_hashENS_17_Hashtable_traitsILb1ELb1ELb1EEEE5_M_eqEv = comdat any

$_ZNKSt8__detail9_IdentityclIRKN4cvc58internal12NodeTemplateILb1EEEEEOT_S9_ = comdat any

$_ZNKSt8__detail21_Hash_node_value_baseIN4cvc58internal12NodeTemplateILb1EEEE4_M_vEv = comdat any

$_ZNKSt8__detail21_Hash_node_value_baseIN4cvc58internal12NodeTemplateILb1EEEE9_M_valptrEv = comdat any

$_ZNK9__gnu_cxx16__aligned_bufferIN4cvc58internal12NodeTemplateILb1EEEE6_M_ptrEv = comdat any

$_ZNK9__gnu_cxx16__aligned_bufferIN4cvc58internal12NodeTemplateILb1EEEE7_M_addrEv = comdat any

$_ZNSt8__detail19_Node_iterator_baseIN4cvc58internal12NodeTemplateILb1EEELb1EE7_M_incrEv = comdat any

$_ZNKSt8__detail15_Hash_code_baseIN4cvc58internal12NodeTemplateILb1EEES4_NS_9_IdentityESt4hashIS4_ENS_18_Mod_range_hashingENS_20_Default_ranged_hashELb1EE7_M_hashEv = comdat any

$_ZNKSt8__detail15_Hash_code_baseIN4cvc58internal12NodeTemplateILb1EEES4_NS_9_IdentityESt4hashIS4_ENS_18_Mod_range_hashingENS_20_Default_ranged_hashELb1EE15_M_bucket_indexEmm = comdat any

$_ZNKSt10_HashtableIN4cvc58internal12NodeTemplateILb1EEES3_SaIS3_ENSt8__detail9_IdentityESt8equal_toIS3_ESt4hashIS3_ENS5_18_Mod_range_hashingENS5_20_Default_ranged_hashENS5_20_Prime_rehash_policyENS5_17_Hashtable_traitsILb1ELb1ELb1EEEE19_M_find_before_nodeEmRKS3_m = comdat any

$_ZNKSt8__detail15_Hashtable_baseIN4cvc58internal12NodeTemplateILb1EEES4_NS_9_IdentityESt8equal_toIS4_ESt4hashIS4_ENS_18_Mod_range_hashingENS_20_Default_ranged_hashENS_17_Hashtable_traitsILb1ELb1ELb1EEEE9_M_equalsERKS4_mRKNS_16_Hash_node_valueIS4_Lb1EEE = comdat any

$_ZNKSt10_HashtableIN4cvc58internal12NodeTemplateILb1EEES3_SaIS3_ENSt8__detail9_IdentityESt8equal_toIS3_ESt4hashIS3_ENS5_18_Mod_range_hashingENS5_20_Default_ranged_hashENS5_20_Prime_rehash_policyENS5_17_Hashtable_traitsILb1ELb1ELb1EEEE15_M_bucket_indexERKNS5_16_Hash_node_valueIS3_Lb1EEE = comdat any

$_ZNSt8__detail15_Hashtable_baseIN4cvc58internal12NodeTemplateILb1EEES4_NS_9_IdentityESt8equal_toIS4_ESt4hashIS4_ENS_18_Mod_range_hashingENS_20_Default_ranged_hashENS_17_Hashtable_traitsILb1ELb1ELb1EEEE9_S_equalsEmRKNS_21_Hash_node_code_cacheILb1EEE = comdat any

$_ZNKSt8__detail15_Hash_code_baseIN4cvc58internal12NodeTemplateILb1EEES4_NS_9_IdentityESt4hashIS4_ENS_18_Mod_range_hashingENS_20_Default_ranged_hashELb1EE15_M_bucket_indexERKNS_16_Hash_node_valueIS4_Lb1EEEm = comdat any

$_ZNSt8__detail19_Node_iterator_baseIN4cvc58internal12NodeTemplateILb1EEELb1EEC2EPNS_10_Hash_nodeIS4_Lb1EEE = comdat any

$_ZNSt8__detail12_Insert_baseIN4cvc58internal12NodeTemplateILb1EEES4_SaIS4_ENS_9_IdentityESt8equal_toIS4_ESt4hashIS4_ENS_18_Mod_range_hashingENS_20_Default_ranged_hashENS_20_Prime_rehash_policyENS_17_Hashtable_traitsILb1ELb1ELb1EEEE6insertERKS4_ = comdat any

$_ZNSt8__detail12_Insert_baseIN4cvc58internal12NodeTemplateILb1EEES4_SaIS4_ENS_9_IdentityESt8equal_toIS4_ESt4hashIS4_ENS_18_Mod_range_hashingENS_20_Default_ranged_hashENS_20_Prime_rehash_policyENS_17_Hashtable_traitsILb1ELb1ELb1EEEE20_M_conjure_hashtableEv = comdat any

$_ZNSt8__detail10_AllocNodeISaINS_10_Hash_nodeIN4cvc58internal12NodeTemplateILb1EEELb1EEEEEC2ERNS_16_Hashtable_allocIS7_EE = comdat any

$_ZNSt10_HashtableIN4cvc58internal12NodeTemplateILb1EEES3_SaIS3_ENSt8__detail9_IdentityESt8equal_toIS3_ESt4hashIS3_ENS5_18_Mod_range_hashingENS5_20_Default_ranged_hashENS5_20_Prime_rehash_policyENS5_17_Hashtable_traitsILb1ELb1ELb1EEEE9_M_insertIRKS3_NS5_10_AllocNodeISaINS5_10_Hash_nodeIS3_Lb1EEEEEEEESt4pairINS5_14_Node_iteratorIS3_Lb1ELb1EEEbEOT_RKT0_St17integral_constantIbLb1EE = comdat any

$_ZNSt10_HashtableIN4cvc58internal12NodeTemplateILb1EEES3_SaIS3_ENSt8__detail9_IdentityESt8equal_toIS3_ESt4hashIS3_ENS5_18_Mod_range_hashingENS5_20_Default_ranged_hashENS5_20_Prime_rehash_policyENS5_17_Hashtable_traitsILb1ELb1ELb1EEEE16_M_insert_uniqueIRKS3_SJ_NS5_10_AllocNodeISaINS5_10_Hash_nodeIS3_Lb1EEEEEEEESt4pairINS5_14_Node_iteratorIS3_Lb1ELb1EEEbEOT_OT0_RKT1_ = comdat any

$_ZNSt10_HashtableIN4cvc58internal12NodeTemplateILb1EEES3_SaIS3_ENSt8__detail9_IdentityESt8equal_toIS3_ESt4hashIS3_ENS5_18_Mod_range_hashingENS5_20_Default_ranged_hashENS5_20_Prime_rehash_policyENS5_17_Hashtable_traitsILb1ELb1ELb1EEEE14_S_forward_keyERKS3_ = comdat any

$_ZNKSt8__detail15_Hashtable_baseIN4cvc58internal12NodeTemplateILb1EEES4_NS_9_IdentityESt8equal_toIS4_ESt4hashIS4_ENS_18_Mod_range_hashingENS_20_Default_ranged_hashENS_17_Hashtable_traitsILb1ELb1ELb1EEEE16_M_key_equals_trIS4_EEbRKT_RKNS_16_Hash_node_valueIS4_Lb1EEE = comdat any

$_ZNSt4pairINSt8__detail14_Node_iteratorIN4cvc58internal12NodeTemplateILb1EEELb1ELb1EEEbEC2IRS6_bTnNSt9enable_ifIXaaclsr5_PCCPE22_MoveConstructiblePairIT_T0_EEclsr5_PCCPE30_ImplicitlyMoveConvertiblePairISB_SC_EEEbE4typeELb1EEEOSB_OSC_ = comdat any

$_ZNKSt8__detail15_Hash_code_baseIN4cvc58internal12NodeTemplateILb1EEES4_NS_9_IdentityESt4hashIS4_ENS_18_Mod_range_hashingENS_20_Default_ranged_hashELb1EE15_M_hash_code_trIS4_EEmRKT_ = comdat any

$_ZNKSt10_HashtableIN4cvc58internal12NodeTemplateILb1EEES3_SaIS3_ENSt8__detail9_IdentityESt8equal_toIS3_ESt4hashIS3_ENS5_18_Mod_range_hashingENS5_20_Default_ranged_hashENS5_20_Prime_rehash_policyENS5_17_Hashtable_traitsILb1ELb1ELb1EEEE15_M_find_node_trIS3_EEPNS5_10_Hash_nodeIS3_Lb1EEEmRKT_m = comdat any

$_ZNSt4pairINSt8__detail14_Node_iteratorIN4cvc58internal12NodeTemplateILb1EEELb1ELb1EEEbEC2IS6_bTnNSt9enable_ifIXaaclsr5_PCCPE22_MoveConstructiblePairIT_T0_EEclsr5_PCCPE30_ImplicitlyMoveConvertiblePairISA_SB_EEEbE4typeELb1EEEOSA_OSB_ = comdat any

$_ZNSt8__detail12_NodeBuilderINS_9_IdentityEE8_S_buildIRKN4cvc58internal12NodeTemplateILb1EEES9_NS_10_AllocNodeISaINS_10_Hash_nodeIS7_Lb1EEEEEEEEPNT1_11__node_typeEOT_OT0_RKSF_ = comdat any

$_ZNSt10_HashtableIN4cvc58internal12NodeTemplateILb1EEES3_SaIS3_ENSt8__detail9_IdentityESt8equal_toIS3_ESt4hashIS3_ENS5_18_Mod_range_hashingENS5_20_Default_ranged_hashENS5_20_Prime_rehash_policyENS5_17_Hashtable_traitsILb1ELb1ELb1EEEE12_Scoped_nodeC2EPNS5_10_Hash_nodeIS3_Lb1EEEPNS5_16_Hashtable_allocISaISJ_EEE = comdat any

$_ZNSt10_HashtableIN4cvc58internal12NodeTemplateILb1EEES3_SaIS3_ENSt8__detail9_IdentityESt8equal_toIS3_ESt4hashIS3_ENS5_18_Mod_range_hashingENS5_20_Default_ranged_hashENS5_20_Prime_rehash_policyENS5_17_Hashtable_traitsILb1ELb1ELb1EEEE21_M_insert_unique_nodeEmmPNS5_10_Hash_nodeIS3_Lb1EEEm = comdat any

$_ZNSt10_HashtableIN4cvc58internal12NodeTemplateILb1EEES3_SaIS3_ENSt8__detail9_IdentityESt8equal_toIS3_ESt4hashIS3_ENS5_18_Mod_range_hashingENS5_20_Default_ranged_hashENS5_20_Prime_rehash_policyENS5_17_Hashtable_traitsILb1ELb1ELb1EEEE12_Scoped_nodeD2Ev = comdat any

$_ZNKSt10_HashtableIN4cvc58internal12NodeTemplateILb1EEES3_SaIS3_ENSt8__detail9_IdentityESt8equal_toIS3_ESt4hashIS3_ENS5_18_Mod_range_hashingENS5_20_Default_ranged_hashENS5_20_Prime_rehash_policyENS5_17_Hashtable_traitsILb1ELb1ELb1EEEE22_M_find_before_node_trIS3_EEPNS5_15_Hash_node_baseEmRKT_m = comdat any

$_ZNKSt8__detail15_Hashtable_baseIN4cvc58internal12NodeTemplateILb1EEES4_NS_9_IdentityESt8equal_toIS4_ESt4hashIS4_ENS_18_Mod_range_hashingENS_20_Default_ranged_hashENS_17_Hashtable_traitsILb1ELb1ELb1EEEE12_M_equals_trIS4_EEbRKT_mRKNS_16_Hash_node_valueIS4_Lb1EEE = comdat any

$_ZNKSt8__detail10_AllocNodeISaINS_10_Hash_nodeIN4cvc58internal12NodeTemplateILb1EEELb1EEEEEclIJRKS5_EEEPS6_DpOT_ = comdat any

$_ZNSt8__detail16_Hashtable_allocISaINS_10_Hash_nodeIN4cvc58internal12NodeTemplateILb1EEELb1EEEEE16_M_allocate_nodeIJRKS5_EEEPS6_DpOT_ = comdat any

$_ZNSt16allocator_traitsISaINSt8__detail10_Hash_nodeIN4cvc58internal12NodeTemplateILb1EEELb1EEEEE8allocateERS7_m = comdat any

$_ZSt12__to_addressINSt8__detail10_Hash_nodeIN4cvc58internal12NodeTemplateILb1EEELb1EEEEPT_S8_ = comdat any

$_ZNSt8__detail10_Hash_nodeIN4cvc58internal12NodeTemplateILb1EEELb1EEC2Ev = comdat any

$_ZNSt16allocator_traitsISaINSt8__detail10_Hash_nodeIN4cvc58internal12NodeTemplateILb1EEELb1EEEEE9constructIS5_JRKS5_EEEvRS7_PT_DpOT0_ = comdat any

$_ZNSt15__new_allocatorINSt8__detail10_Hash_nodeIN4cvc58internal12NodeTemplateILb1EEELb1EEEE8allocateEmPKv = comdat any

$_ZNKSt15__new_allocatorINSt8__detail10_Hash_nodeIN4cvc58internal12NodeTemplateILb1EEELb1EEEE11_M_max_sizeEv = comdat any

$_ZNSt15__new_allocatorINSt8__detail10_Hash_nodeIN4cvc58internal12NodeTemplateILb1EEELb1EEEE9constructIS5_JRKS5_EEEvPT_DpOT0_ = comdat any

$_ZNSt10_HashtableIN4cvc58internal12NodeTemplateILb1EEES3_SaIS3_ENSt8__detail9_IdentityESt8equal_toIS3_ESt4hashIS3_ENS5_18_Mod_range_hashingENS5_20_Default_ranged_hashENS5_20_Prime_rehash_policyENS5_17_Hashtable_traitsILb1ELb1ELb1EEEE9_M_rehashEmRKm = comdat any

$_ZNKSt8__detail15_Hash_code_baseIN4cvc58internal12NodeTemplateILb1EEES4_NS_9_IdentityESt4hashIS4_ENS_18_Mod_range_hashingENS_20_Default_ranged_hashELb1EE13_M_store_codeERNS_21_Hash_node_code_cacheILb1EEEm = comdat any

$_ZNSt10_HashtableIN4cvc58internal12NodeTemplateILb1EEES3_SaIS3_ENSt8__detail9_IdentityESt8equal_toIS3_ESt4hashIS3_ENS5_18_Mod_range_hashingENS5_20_Default_ranged_hashENS5_20_Prime_rehash_policyENS5_17_Hashtable_traitsILb1ELb1ELb1EEEE22_M_insert_bucket_beginEmPNS5_10_Hash_nodeIS3_Lb1EEE = comdat any

$_ZNSt10_HashtableIN4cvc58internal12NodeTemplateILb1EEES3_SaIS3_ENSt8__detail9_IdentityESt8equal_toIS3_ESt4hashIS3_ENS5_18_Mod_range_hashingENS5_20_Default_ranged_hashENS5_20_Prime_rehash_policyENS5_17_Hashtable_traitsILb1ELb1ELb1EEEE13_M_rehash_auxEmSt17integral_constantIbLb1EE = comdat any

$_ZNSt10_HashtableIN4cvc58internal12NodeTemplateILb1EEES3_SaIS3_ENSt8__detail9_IdentityESt8equal_toIS3_ESt4hashIS3_ENS5_18_Mod_range_hashingENS5_20_Default_ranged_hashENS5_20_Prime_rehash_policyENS5_17_Hashtable_traitsILb1ELb1ELb1EEEE19_M_allocate_bucketsEm = comdat any

$_ZNSt8__detail16_Hashtable_allocISaINS_10_Hash_nodeIN4cvc58internal12NodeTemplateILb1EEELb1EEEEE19_M_allocate_bucketsEm = comdat any

$_ZNK4cvc57context11CDOhash_mapINS_8internal12NodeTemplateILb1EEEmSt4hashIS4_EE8getValueEv = comdat any

$_ZNSt16allocator_traitsISaIN4cvc58internal12NodeTemplateILb1EEEEE9constructIS3_JRKS3_EEEvRS4_PT_DpOT0_ = comdat any

$_ZNSt6vectorIN4cvc58internal12NodeTemplateILb1EEESaIS3_EE17_M_realloc_insertIJRKS3_EEEvN9__gnu_cxx17__normal_iteratorIPS3_S5_EEDpOT_ = comdat any

$_ZNSt15__new_allocatorIN4cvc58internal12NodeTemplateILb1EEEE9constructIS3_JRKS3_EEEvPT_DpOT0_ = comdat any

$_ZNKSt6vectorIN4cvc58internal12NodeTemplateILb1EEESaIS3_EE12_M_check_lenEmPKc = comdat any

$_ZN9__gnu_cxxmiIPN4cvc58internal12NodeTemplateILb1EEESt6vectorIS4_SaIS4_EEEENS_17__normal_iteratorIT_T0_E15difference_typeERKSC_SF_ = comdat any

$_ZSt34__uninitialized_move_if_noexcept_aIPN4cvc58internal12NodeTemplateILb1EEES4_SaIS3_EET0_T_S7_S6_RT1_ = comdat any

$_ZNK9__gnu_cxx17__normal_iteratorIPN4cvc58internal12NodeTemplateILb1EEESt6vectorIS4_SaIS4_EEE4baseEv = comdat any

$_ZNSt16allocator_traitsISaIN4cvc58internal12NodeTemplateILb1EEEEE7destroyIS3_EEvRS4_PT_ = comdat any

$_ZNKSt6vectorIN4cvc58internal12NodeTemplateILb1EEESaIS3_EE8max_sizeEv = comdat any

$_ZNKSt6vectorIN4cvc58internal12NodeTemplateILb1EEESaIS3_EE4sizeEv = comdat any

$_ZNKSt12_Vector_baseIN4cvc58internal12NodeTemplateILb1EEESaIS3_EE19_M_get_Tp_allocatorEv = comdat any

$_ZSt32__make_move_if_noexcept_iteratorIN4cvc58internal12NodeTemplateILb1EEEPKS3_ET0_PT_ = comdat any

$_ZNSt15__new_allocatorIN4cvc58internal12NodeTemplateILb1EEEE7destroyIS3_EEvPT_ = comdat any

$_ZNKSt15__uniq_ptr_implIN4cvc58internal11LazyCDProofESt14default_deleteIS2_EE6_M_ptrEv = comdat any

$_ZSt3getILm0EJPN4cvc58internal11LazyCDProofESt14default_deleteIS2_EEERKNSt13tuple_elementIXT_ESt5tupleIJDpT0_EEE4typeERKSA_ = comdat any

$_ZSt12__get_helperILm0EPN4cvc58internal11LazyCDProofEJSt14default_deleteIS2_EEERKT0_RKSt11_Tuple_implIXT_EJS6_DpT1_EE = comdat any

$_ZNSt11_Tuple_implILm0EJPN4cvc58internal11LazyCDProofESt14default_deleteIS2_EEE7_M_headERKS6_ = comdat any

$_ZNSt10_Head_baseILm0EPN4cvc58internal11LazyCDProofELb0EE7_M_headERKS4_ = comdat any

$_ZNSt10_HashtableIN4cvc58internal12NodeTemplateILb1EEES3_SaIS3_ENSt8__detail9_IdentityESt8equal_toIS3_ESt4hashIS3_ENS5_18_Mod_range_hashingENS5_20_Default_ranged_hashENS5_20_Prime_rehash_policyENS5_17_Hashtable_traitsILb1ELb1ELb1EEEE5eraseERKS3_ = comdat any

$_ZNSt10_HashtableIN4cvc58internal12NodeTemplateILb1EEES3_SaIS3_ENSt8__detail9_IdentityESt8equal_toIS3_ESt4hashIS3_ENS5_18_Mod_range_hashingENS5_20_Default_ranged_hashENS5_20_Prime_rehash_policyENS5_17_Hashtable_traitsILb1ELb1ELb1EEEE8_M_eraseESt17integral_constantIbLb1EERKS3_ = comdat any

$_ZNSt10_HashtableIN4cvc58internal12NodeTemplateILb1EEES3_SaIS3_ENSt8__detail9_IdentityESt8equal_toIS3_ESt4hashIS3_ENS5_18_Mod_range_hashingENS5_20_Default_ranged_hashENS5_20_Prime_rehash_policyENS5_17_Hashtable_traitsILb1ELb1ELb1EEEE19_M_find_before_nodeERKS3_ = comdat any

$_ZNSt10_HashtableIN4cvc58internal12NodeTemplateILb1EEES3_SaIS3_ENSt8__detail9_IdentityESt8equal_toIS3_ESt4hashIS3_ENS5_18_Mod_range_hashingENS5_20_Default_ranged_hashENS5_20_Prime_rehash_policyENS5_17_Hashtable_traitsILb1ELb1ELb1EEEE8_M_eraseEmPNS5_15_Hash_node_baseEPNS5_10_Hash_nodeIS3_Lb1EEE = comdat any

$_ZNSt10_HashtableIN4cvc58internal12NodeTemplateILb1EEES3_SaIS3_ENSt8__detail9_IdentityESt8equal_toIS3_ESt4hashIS3_ENS5_18_Mod_range_hashingENS5_20_Default_ranged_hashENS5_20_Prime_rehash_policyENS5_17_Hashtable_traitsILb1ELb1ELb1EEEE22_M_remove_bucket_beginEmPNS5_10_Hash_nodeIS3_Lb1EEEm = comdat any

$_ZNKSt10unique_ptrIN4cvc58internal11LazyCDProofESt14default_deleteIS2_EEcvbEv = comdat any

$_ZNKSt6vectorIN4cvc58internal9TrustNodeESaIS2_EEixEm = comdat any

$_ZNSt6vectorIN4cvc58internal12NodeTemplateILb1EEESaIS3_EE12emplace_backIJS3_EEERS3_DpOT_ = comdat any

$_ZNSt16allocator_traitsISaIN4cvc58internal12NodeTemplateILb1EEEEE9constructIS3_JS3_EEEvRS4_PT_DpOT0_ = comdat any

$_ZNSt6vectorIN4cvc58internal12NodeTemplateILb1EEESaIS3_EE17_M_realloc_insertIJS3_EEEvN9__gnu_cxx17__normal_iteratorIPS3_S5_EEDpOT_ = comdat any

$_ZNSt6vectorIN4cvc58internal12NodeTemplateILb1EEESaIS3_EE4backEv = comdat any

$_ZNSt15__new_allocatorIN4cvc58internal12NodeTemplateILb1EEEE9constructIS3_JS3_EEEvPT_DpOT0_ = comdat any

$_ZNK9__gnu_cxx17__normal_iteratorIPN4cvc58internal12NodeTemplateILb1EEESt6vectorIS4_SaIS4_EEEmiEl = comdat any

$_ZNK9__gnu_cxx17__normal_iteratorIPN4cvc58internal12NodeTemplateILb1EEESt6vectorIS4_SaIS4_EEEdeEv = comdat any

$_ZN9__gnu_cxx17__normal_iteratorIPN4cvc58internal12NodeTemplateILb1EEESt6vectorIS4_SaIS4_EEEC2ERKS5_ = comdat any

$_ZSt9__reverseIN9__gnu_cxx17__normal_iteratorIPN4cvc58internal12NodeTemplateILb1EEESt6vectorIS5_SaIS5_EEEEEvT_SB_St26random_access_iterator_tag = comdat any

$_ZSt19__iterator_categoryIN9__gnu_cxx17__normal_iteratorIPN4cvc58internal12NodeTemplateILb1EEESt6vectorIS5_SaIS5_EEEEENSt15iterator_traitsIT_E17iterator_categoryERKSC_ = comdat any

$_ZN9__gnu_cxxeqIPN4cvc58internal12NodeTemplateILb1EEESt6vectorIS4_SaIS4_EEEEbRKNS_17__normal_iteratorIT_T0_EESE_ = comdat any

$_ZN9__gnu_cxx17__normal_iteratorIPN4cvc58internal12NodeTemplateILb1EEESt6vectorIS4_SaIS4_EEEmmEv = comdat any

$_ZN9__gnu_cxxltIPN4cvc58internal12NodeTemplateILb1EEESt6vectorIS4_SaIS4_EEEEbRKNS_17__normal_iteratorIT_T0_EESE_ = comdat any

$_ZSt9iter_swapIN9__gnu_cxx17__normal_iteratorIPN4cvc58internal12NodeTemplateILb1EEESt6vectorIS5_SaIS5_EEEESA_EvT_T0_ = comdat any

$_ZN9__gnu_cxx17__normal_iteratorIPN4cvc58internal12NodeTemplateILb1EEESt6vectorIS4_SaIS4_EEEppEv = comdat any

$_ZSt4swapIN4cvc58internal12NodeTemplateILb1EEEENSt9enable_ifIXsr6__and_ISt6__not_ISt15__is_tuple_likeIT_EESt21is_move_constructibleIS7_ESt18is_move_assignableIS7_EEE5valueEvE4typeERS7_SG_ = comdat any

$_ZNKSt6vectorIN4cvc58internal12NodeTemplateILb1EEESaIS3_EE5emptyEv = comdat any

$_ZNKSt6vectorIN4cvc58internal12NodeTemplateILb1EEESaIS3_EEixEm = comdat any

$_ZN4cvc58internal11NodeManager6mkNodeILb1EEENS0_12NodeTemplateILb1EEENS0_4kind6Kind_tERKSt6vectorINS3_IXT_EEESaIS8_EE = comdat any

$_ZN9__gnu_cxxeqIPKN4cvc58internal12NodeTemplateILb1EEESt6vectorIS4_SaIS4_EEEEbRKNS_17__normal_iteratorIT_T0_EESF_ = comdat any

$_ZNKSt6vectorIN4cvc58internal12NodeTemplateILb1EEESaIS3_EE5beginEv = comdat any

$_ZNKSt6vectorIN4cvc58internal12NodeTemplateILb1EEESaIS3_EE3endEv = comdat any

$_ZNK9__gnu_cxx17__normal_iteratorIPKN4cvc58internal12NodeTemplateILb1EEESt6vectorIS4_SaIS4_EEE4baseEv = comdat any

$_ZN9__gnu_cxx17__normal_iteratorIPKN4cvc58internal12NodeTemplateILb1EEESt6vectorIS4_SaIS4_EEEC2ERKS6_ = comdat any

$_ZN4cvc58internal11NodeBuilder6appendILb1EEERS1_RKSt6vectorINS0_12NodeTemplateIXT_EEESaIS6_EE = comdat any

$_ZN4cvc58internal11NodeBuilder6appendIN9__gnu_cxx17__normal_iteratorIPKNS0_12NodeTemplateILb1EEESt6vectorIS6_SaIS6_EEEEEERS1_RKT_SG_ = comdat any

$_ZN9__gnu_cxxneIPKN4cvc58internal12NodeTemplateILb1EEESt6vectorIS4_SaIS4_EEEEbRKNS_17__normal_iteratorIT_T0_EESF_ = comdat any

$_ZNK9__gnu_cxx17__normal_iteratorIPKN4cvc58internal12NodeTemplateILb1EEESt6vectorIS4_SaIS4_EEEdeEv = comdat any

$_ZN9__gnu_cxx17__normal_iteratorIPKN4cvc58internal12NodeTemplateILb1EEESt6vectorIS4_SaIS4_EEEppEv = comdat any

$_ZTSN4cvc58internal6EnvObjE = comdat any

$_ZTIN4cvc58internal6EnvObjE = comdat any

$_ZTVN4cvc57context9CDHashMapINS_8internal12NodeTemplateILb1EEES4_St4hashIS4_EEE = comdat any

$_ZTSN4cvc57context9CDHashMapINS_8internal12NodeTemplateILb1EEES4_St4hashIS4_EEE = comdat any

$_ZTSN4cvc57context10ContextObjE = comdat any

$_ZTIN4cvc57context10ContextObjE = comdat any

$_ZTIN4cvc57context9CDHashMapINS_8internal12NodeTemplateILb1EEES4_St4hashIS4_EEE = comdat any

$_ZTVN4cvc57context6CDListINS_8internal9TrustNodeENS0_14DefaultCleanUpIS3_EESaIS3_EEE = comdat any

$_ZTSN4cvc57context6CDListINS_8internal9TrustNodeENS0_14DefaultCleanUpIS3_EESaIS3_EEE = comdat any

$_ZTIN4cvc57context6CDListINS_8internal9TrustNodeENS0_14DefaultCleanUpIS3_EESaIS3_EEE = comdat any

$_ZTVN4cvc57context10ContextObjE = comdat any

$_ZTVN4cvc57context9CDHashMapINS_8internal12NodeTemplateILb1EEEmSt4hashIS4_EEE = comdat any

$_ZTSN4cvc57context9CDHashMapINS_8internal12NodeTemplateILb1EEEmSt4hashIS4_EEE = comdat any

$_ZTIN4cvc57context9CDHashMapINS_8internal12NodeTemplateILb1EEEmSt4hashIS4_EEE = comdat any

$_ZTVN4cvc57context6CDListISt10shared_ptrINS_8internal11LazyCDProofEENS0_14DefaultCleanUpIS5_EESaIS5_EEE = comdat any

$_ZTSN4cvc57context6CDListISt10shared_ptrINS_8internal11LazyCDProofEENS0_14DefaultCleanUpIS5_EESaIS5_EEE = comdat any

$_ZTIN4cvc57context6CDListISt10shared_ptrINS_8internal11LazyCDProofEENS0_14DefaultCleanUpIS5_EESaIS5_EEE = comdat any

$_ZTVSt23_Sp_counted_ptr_inplaceIN4cvc58internal11LazyCDProofESaIvELN9__gnu_cxx12_Lock_policyE2EE = comdat any

$_ZTSSt23_Sp_counted_ptr_inplaceIN4cvc58internal11LazyCDProofESaIvELN9__gnu_cxx12_Lock_policyE2EE = comdat any

$_ZTSSt16_Sp_counted_baseILN9__gnu_cxx12_Lock_policyE2EE = comdat any

$_ZTSSt11_Mutex_baseILN9__gnu_cxx12_Lock_policyE2EE = comdat any

$_ZTISt11_Mutex_baseILN9__gnu_cxx12_Lock_policyE2EE = comdat any

$_ZTISt16_Sp_counted_baseILN9__gnu_cxx12_Lock_policyE2EE = comdat any

$_ZTISt23_Sp_counted_ptr_inplaceIN4cvc58internal11LazyCDProofESaIvELN9__gnu_cxx12_Lock_policyE2EE = comdat any

$_ZTVSt16_Sp_counted_baseILN9__gnu_cxx12_Lock_policyE2EE = comdat any

$_ZTSSt19_Sp_make_shared_tag = comdat any

$_ZTISt19_Sp_make_shared_tag = comdat any

$_ZZNSt19_Sp_make_shared_tag5_S_tiEvE5__tag = comdat any

$_ZZNSt8__detail18__to_chars_10_implImEEvPcjT_E8__digits = comdat any

$_ZTVN4cvc57context11CDOhash_mapINS_8internal12NodeTemplateILb1EEEmSt4hashIS4_EEE = comdat any

$_ZTSN4cvc57context11CDOhash_mapINS_8internal12NodeTemplateILb1EEEmSt4hashIS4_EEE = comdat any

$_ZTIN4cvc57context11CDOhash_mapINS_8internal12NodeTemplateILb1EEEmSt4hashIS4_EEE = comdat any

$_ZZN4cvc58internal4expr9NodeValue4nullEvE6s_null = comdat any

$_ZGVZN4cvc58internal4expr9NodeValue4nullEvE6s_null = comdat any

@_ZStL8__ioinit = internal global %"class.std::ios_base::Init" zeroinitializer, align 1
@__dso_handle = external hidden global i8
@_ZTVN4cvc58internal6theory20TrustSubstitutionMapE = hidden unnamed_addr constant { [6 x ptr], [8 x ptr] } { [6 x ptr] [ptr null, ptr @_ZTIN4cvc58internal6theory20TrustSubstitutionMapE, ptr @_ZN4cvc58internal6theory20TrustSubstitutionMapD2Ev, ptr @_ZN4cvc58internal6theory20TrustSubstitutionMapD0Ev, ptr @_ZN4cvc58internal6theory20TrustSubstitutionMap11getProofForENS0_12NodeTemplateILb1EEE, ptr @_ZNK4cvc58internal6theory20TrustSubstitutionMap8identifyB5cxx11Ev], [8 x ptr] [ptr inttoptr (i64 -16 to ptr), ptr @_ZTIN4cvc58internal6theory20TrustSubstitutionMapE, ptr @_ZThn16_N4cvc58internal6theory20TrustSubstitutionMapD1Ev, ptr @_ZThn16_N4cvc58internal6theory20TrustSubstitutionMapD0Ev, ptr @_ZThn16_N4cvc58internal6theory20TrustSubstitutionMap11getProofForENS0_12NodeTemplateILb1EEE, ptr @_ZN4cvc58internal14ProofGenerator10addProofToENS0_12NodeTemplateILb1EEEPNS0_7CDProofENS0_12CDPOverwriteEb, ptr @_ZN4cvc58internal14ProofGenerator11hasProofForENS0_12NodeTemplateILb1EEE, ptr @_ZThn16_NK4cvc58internal6theory20TrustSubstitutionMap8identifyB5cxx11Ev] }, align 8
@.str = private unnamed_addr constant [29 x i8] c"TrustSubstitutionMap::subsPg\00", align 1
@.str.1 = private unnamed_addr constant [30 x i8] c"TrustSubstitutionMap::applyPg\00", align 1
@.str.2 = private unnamed_addr constant [6 x i8] c"Proof\00", align 1
@_ZN4cvc58internal10nullStreamE = external global %"class.cvc5::internal::NullC", align 1
@_ZN4cvc58internal12TraceChannelE = external global %"class.cvc5::internal::TraceC", align 8
@.str.3 = private unnamed_addr constant [44 x i8] c"TrustSubstitutionMap::addSubstitution: add \00", align 1
@.str.4 = private unnamed_addr constant [5 x i8] c" -> \00", align 1
@.str.5 = private unnamed_addr constant [25 x i8] c"LazyCDProof::addLazyStep\00", align 1
@.str.6 = private unnamed_addr constant [50 x i8] c"TrustSubstitutionMap::addSubstitutionSolved: add \00", align 1
@.str.7 = private unnamed_addr constant [7 x i8] c" from \00", align 1
@.str.8 = private unnamed_addr constant [12 x i8] c"...no proof\00", align 1
@.str.9 = private unnamed_addr constant [26 x i8] c"...use generator directly\00", align 1
@.str.10 = private unnamed_addr constant [22 x i8] c"...failed to rewrite \00", align 1
@.str.11 = private unnamed_addr constant [22 x i8] c"...successful rewrite\00", align 1
@.str.12 = private unnamed_addr constant [46 x i8] c"TrustSubstitutionMap::addSubstitution: apply \00", align 1
@.str.13 = private unnamed_addr constant [9 x i8] c"...subs \00", align 1
@.str.14 = private unnamed_addr constant [13 x i8] c"getProofFor \00", align 1
@__PRETTY_FUNCTION__._ZN4cvc58internal6theory20TrustSubstitutionMap11getProofForENS0_12NodeTemplateILb1EEE = private unnamed_addr constant [99 x i8] c"virtual std::shared_ptr<ProofNode> cvc5::internal::theory::TrustSubstitutionMap::getProofFor(Node)\00", align 1
@.str.15 = private unnamed_addr constant [122 x i8] c"generated/home/dtcxzyw/WorkSpace/Projects/compilers/llvm-opt-benchmark/bench/cvc5/cvc5/src/theory/trust_substitutions.cpp\00", align 1
@.str.16 = private unnamed_addr constant [17 x i8] c"Check failure\0A\0A \00", align 1
@.str.17 = private unnamed_addr constant [38 x i8] c"d_proving.find(eq) == d_proving.end()\00", align 1
@.str.18 = private unnamed_addr constant [2 x i8] c"\0A\00", align 1
@.str.19 = private unnamed_addr constant [44 x i8] c"Repeat getProofFor in TrustSubstitutionMap \00", align 1
@.str.20 = private unnamed_addr constant [51 x i8] c"TrustSubstitutionMap::getProofFor, # assumptions= \00", align 1
@.str.21 = private unnamed_addr constant [29 x i8] c"getProofFor substitution is \00", align 1
@.str.22 = private unnamed_addr constant [18 x i8] c"...apply eq intro\00", align 1
@.str.23 = private unnamed_addr constant [14 x i8] c"...made steps\00", align 1
@.str.24 = private unnamed_addr constant [22 x i8] c"...finish, make proof\00", align 1
@_ZTVN10__cxxabiv121__vmi_class_type_infoE = external global [0 x ptr]
@_ZTSN4cvc58internal6theory20TrustSubstitutionMapE = hidden constant [46 x i8] c"N4cvc58internal6theory20TrustSubstitutionMapE\00", align 1
@_ZTVN10__cxxabiv117__class_type_infoE = external global [0 x ptr]
@_ZTSN4cvc58internal6EnvObjE = linkonce_odr hidden constant [24 x i8] c"N4cvc58internal6EnvObjE\00", comdat, align 1
@_ZTIN4cvc58internal6EnvObjE = linkonce_odr hidden constant { ptr, ptr } { ptr getelementptr inbounds (ptr, ptr @_ZTVN10__cxxabiv117__class_type_infoE, i64 2), ptr @_ZTSN4cvc58internal6EnvObjE }, comdat, align 8
@_ZTIN4cvc58internal14ProofGeneratorE = external constant ptr
@_ZTIN4cvc58internal6theory20TrustSubstitutionMapE = hidden constant { ptr, ptr, i32, i32, ptr, i64, ptr, i64 } { ptr getelementptr inbounds (ptr, ptr @_ZTVN10__cxxabiv121__vmi_class_type_infoE, i64 2), ptr @_ZTSN4cvc58internal6theory20TrustSubstitutionMapE, i32 0, i32 2, ptr @_ZTIN4cvc58internal6EnvObjE, i64 0, ptr @_ZTIN4cvc58internal14ProofGeneratorE, i64 4098 }, align 8
@_ZTVN4cvc57context9CDHashMapINS_8internal12NodeTemplateILb1EEES4_St4hashIS4_EEE = linkonce_odr hidden unnamed_addr constant { [6 x ptr] } { [6 x ptr] [ptr null, ptr @_ZTIN4cvc57context9CDHashMapINS_8internal12NodeTemplateILb1EEES4_St4hashIS4_EEE, ptr @_ZN4cvc57context9CDHashMapINS_8internal12NodeTemplateILb1EEES4_St4hashIS4_EE4saveEPNS0_20ContextMemoryManagerE, ptr @_ZN4cvc57context9CDHashMapINS_8internal12NodeTemplateILb1EEES4_St4hashIS4_EE7restoreEPNS0_10ContextObjE, ptr @_ZN4cvc57context9CDHashMapINS_8internal12NodeTemplateILb1EEES4_St4hashIS4_EED2Ev, ptr @_ZN4cvc57context9CDHashMapINS_8internal12NodeTemplateILb1EEES4_St4hashIS4_EED0Ev] }, comdat, align 8
@_ZTVN10__cxxabiv120__si_class_type_infoE = external global [0 x ptr]
@_ZTSN4cvc57context9CDHashMapINS_8internal12NodeTemplateILb1EEES4_St4hashIS4_EEE = linkonce_odr hidden constant [76 x i8] c"N4cvc57context9CDHashMapINS_8internal12NodeTemplateILb1EEES4_St4hashIS4_EEE\00", comdat, align 1
@_ZTSN4cvc57context10ContextObjE = linkonce_odr constant [28 x i8] c"N4cvc57context10ContextObjE\00", comdat, align 1
@_ZTIN4cvc57context10ContextObjE = linkonce_odr constant { ptr, ptr } { ptr getelementptr inbounds (ptr, ptr @_ZTVN10__cxxabiv117__class_type_infoE, i64 2), ptr @_ZTSN4cvc57context10ContextObjE }, comdat, align 8
@_ZTIN4cvc57context9CDHashMapINS_8internal12NodeTemplateILb1EEES4_St4hashIS4_EEE = linkonce_odr hidden constant { ptr, ptr, ptr } { ptr getelementptr inbounds (ptr, ptr @_ZTVN10__cxxabiv120__si_class_type_infoE, i64 2), ptr @_ZTSN4cvc57context9CDHashMapINS_8internal12NodeTemplateILb1EEES4_St4hashIS4_EEE, ptr @_ZTIN4cvc57context10ContextObjE }, comdat, align 8
@__PRETTY_FUNCTION__._ZN4cvc57context9CDHashMapINS_8internal12NodeTemplateILb1EEES4_St4hashIS4_EE4saveEPNS0_20ContextMemoryManagerE = private unnamed_addr constant [276 x i8] c"virtual ContextObj *cvc5::context::CDHashMap<cvc5::internal::NodeTemplate<true>, cvc5::internal::NodeTemplate<true>>::save(ContextMemoryManager *) [Key = cvc5::internal::NodeTemplate<true>, Data = cvc5::internal::NodeTemplate<true>, HashFcn = std::hash<cvc5::internal::Node>]\00", align 1
@.str.25 = private unnamed_addr constant [111 x i8] c"generated/home/dtcxzyw/WorkSpace/Projects/compilers/llvm-opt-benchmark/bench/cvc5/cvc5/src/context/cdhashmap.h\00", align 1
@.str.26 = private unnamed_addr constant [26 x i8] c"Unreachable code reached \00", align 1
@__PRETTY_FUNCTION__._ZN4cvc57context9CDHashMapINS_8internal12NodeTemplateILb1EEES4_St4hashIS4_EE7restoreEPNS0_10ContextObjE = private unnamed_addr constant [262 x i8] c"virtual void cvc5::context::CDHashMap<cvc5::internal::NodeTemplate<true>, cvc5::internal::NodeTemplate<true>>::restore(ContextObj *) [Key = cvc5::internal::NodeTemplate<true>, Data = cvc5::internal::NodeTemplate<true>, HashFcn = std::hash<cvc5::internal::Node>]\00", align 1
@__PRETTY_FUNCTION__._ZN4cvc57context10ContextObjdlEPv = private unnamed_addr constant [63 x i8] c"static void cvc5::context::ContextObj::operator delete(void *)\00", align 1
@.str.27 = private unnamed_addr constant [109 x i8] c"generated/home/dtcxzyw/WorkSpace/Projects/compilers/llvm-opt-benchmark/bench/cvc5/cvc5/src/context/context.h\00", align 1
@.str.28 = private unnamed_addr constant [6 x i8] c"false\00", align 1
@.str.29 = private unnamed_addr constant [51 x i8] c"It is not allowed to delete a ContextObj this way!\00", align 1
@__libc_single_threaded = external global i8, align 1
@.str.30 = private unnamed_addr constant [50 x i8] c"basic_string: construction from null is not valid\00", align 1
@_ZN4cvc58internal11Cvc5ostream16s_indentIosIndexE = external constant i32, align 4
@_ZN4cvc58internal11Cvc5ostream5s_tabB5cxx11E = external global %"class.std::__cxx11::basic_string", align 8
@_ZTVN4cvc57context6CDListINS_8internal9TrustNodeENS0_14DefaultCleanUpIS3_EESaIS3_EEE = linkonce_odr hidden unnamed_addr constant { [6 x ptr] } { [6 x ptr] [ptr null, ptr @_ZTIN4cvc57context6CDListINS_8internal9TrustNodeENS0_14DefaultCleanUpIS3_EESaIS3_EEE, ptr @_ZN4cvc57context6CDListINS_8internal9TrustNodeENS0_14DefaultCleanUpIS3_EESaIS3_EE4saveEPNS0_20ContextMemoryManagerE, ptr @_ZN4cvc57context6CDListINS_8internal9TrustNodeENS0_14DefaultCleanUpIS3_EESaIS3_EE7restoreEPNS0_10ContextObjE, ptr @_ZN4cvc57context6CDListINS_8internal9TrustNodeENS0_14DefaultCleanUpIS3_EESaIS3_EED2Ev, ptr @_ZN4cvc57context6CDListINS_8internal9TrustNodeENS0_14DefaultCleanUpIS3_EESaIS3_EED0Ev] }, comdat, align 8
@_ZTSN4cvc57context6CDListINS_8internal9TrustNodeENS0_14DefaultCleanUpIS3_EESaIS3_EEE = linkonce_odr hidden constant [81 x i8] c"N4cvc57context6CDListINS_8internal9TrustNodeENS0_14DefaultCleanUpIS3_EESaIS3_EEE\00", comdat, align 1
@_ZTIN4cvc57context6CDListINS_8internal9TrustNodeENS0_14DefaultCleanUpIS3_EESaIS3_EEE = linkonce_odr hidden constant { ptr, ptr, ptr } { ptr getelementptr inbounds (ptr, ptr @_ZTVN10__cxxabiv120__si_class_type_infoE, i64 2), ptr @_ZTSN4cvc57context6CDListINS_8internal9TrustNodeENS0_14DefaultCleanUpIS3_EESaIS3_EEE, ptr @_ZTIN4cvc57context10ContextObjE }, comdat, align 8
@.str.31 = private unnamed_addr constant [12 x i8] c"copy ctor: \00", align 1
@.str.32 = private unnamed_addr constant [7 x i8] c" size \00", align 1
@_ZTVN4cvc57context10ContextObjE = linkonce_odr unnamed_addr constant { [6 x ptr] } { [6 x ptr] [ptr null, ptr @_ZTIN4cvc57context10ContextObjE, ptr @__cxa_pure_virtual, ptr @__cxa_pure_virtual, ptr @_ZN4cvc57context10ContextObjD2Ev, ptr @_ZN4cvc57context10ContextObjD0Ev] }, comdat, align 8
@_ZTVN4cvc57context9CDHashMapINS_8internal12NodeTemplateILb1EEEmSt4hashIS4_EEE = linkonce_odr hidden unnamed_addr constant { [6 x ptr] } { [6 x ptr] [ptr null, ptr @_ZTIN4cvc57context9CDHashMapINS_8internal12NodeTemplateILb1EEEmSt4hashIS4_EEE, ptr @_ZN4cvc57context9CDHashMapINS_8internal12NodeTemplateILb1EEEmSt4hashIS4_EE4saveEPNS0_20ContextMemoryManagerE, ptr @_ZN4cvc57context9CDHashMapINS_8internal12NodeTemplateILb1EEEmSt4hashIS4_EE7restoreEPNS0_10ContextObjE, ptr @_ZN4cvc57context9CDHashMapINS_8internal12NodeTemplateILb1EEEmSt4hashIS4_EED2Ev, ptr @_ZN4cvc57context9CDHashMapINS_8internal12NodeTemplateILb1EEEmSt4hashIS4_EED0Ev] }, comdat, align 8
@_ZTSN4cvc57context9CDHashMapINS_8internal12NodeTemplateILb1EEEmSt4hashIS4_EEE = linkonce_odr hidden constant [74 x i8] c"N4cvc57context9CDHashMapINS_8internal12NodeTemplateILb1EEEmSt4hashIS4_EEE\00", comdat, align 1
@_ZTIN4cvc57context9CDHashMapINS_8internal12NodeTemplateILb1EEEmSt4hashIS4_EEE = linkonce_odr hidden constant { ptr, ptr, ptr } { ptr getelementptr inbounds (ptr, ptr @_ZTVN10__cxxabiv120__si_class_type_infoE, i64 2), ptr @_ZTSN4cvc57context9CDHashMapINS_8internal12NodeTemplateILb1EEEmSt4hashIS4_EEE, ptr @_ZTIN4cvc57context10ContextObjE }, comdat, align 8
@__PRETTY_FUNCTION__._ZN4cvc57context9CDHashMapINS_8internal12NodeTemplateILb1EEEmSt4hashIS4_EE4saveEPNS0_20ContextMemoryManagerE = private unnamed_addr constant [234 x i8] c"virtual ContextObj *cvc5::context::CDHashMap<cvc5::internal::NodeTemplate<true>, unsigned long>::save(ContextMemoryManager *) [Key = cvc5::internal::NodeTemplate<true>, Data = unsigned long, HashFcn = std::hash<cvc5::internal::Node>]\00", align 1
@__PRETTY_FUNCTION__._ZN4cvc57context9CDHashMapINS_8internal12NodeTemplateILb1EEEmSt4hashIS4_EE7restoreEPNS0_10ContextObjE = private unnamed_addr constant [220 x i8] c"virtual void cvc5::context::CDHashMap<cvc5::internal::NodeTemplate<true>, unsigned long>::restore(ContextObj *) [Key = cvc5::internal::NodeTemplate<true>, Data = unsigned long, HashFcn = std::hash<cvc5::internal::Node>]\00", align 1
@_ZTVN4cvc57context6CDListISt10shared_ptrINS_8internal11LazyCDProofEENS0_14DefaultCleanUpIS5_EESaIS5_EEE = linkonce_odr hidden unnamed_addr constant { [6 x ptr] } { [6 x ptr] [ptr null, ptr @_ZTIN4cvc57context6CDListISt10shared_ptrINS_8internal11LazyCDProofEENS0_14DefaultCleanUpIS5_EESaIS5_EEE, ptr @_ZN4cvc57context6CDListISt10shared_ptrINS_8internal11LazyCDProofEENS0_14DefaultCleanUpIS5_EESaIS5_EE4saveEPNS0_20ContextMemoryManagerE, ptr @_ZN4cvc57context6CDListISt10shared_ptrINS_8internal11LazyCDProofEENS0_14DefaultCleanUpIS5_EESaIS5_EE7restoreEPNS0_10ContextObjE, ptr @_ZN4cvc57context6CDListISt10shared_ptrINS_8internal11LazyCDProofEENS0_14DefaultCleanUpIS5_EESaIS5_EED2Ev, ptr @_ZN4cvc57context6CDListISt10shared_ptrINS_8internal11LazyCDProofEENS0_14DefaultCleanUpIS5_EESaIS5_EED0Ev] }, comdat, align 8
@_ZTSN4cvc57context6CDListISt10shared_ptrINS_8internal11LazyCDProofEENS0_14DefaultCleanUpIS5_EESaIS5_EEE = linkonce_odr hidden constant [100 x i8] c"N4cvc57context6CDListISt10shared_ptrINS_8internal11LazyCDProofEENS0_14DefaultCleanUpIS5_EESaIS5_EEE\00", comdat, align 1
@_ZTIN4cvc57context6CDListISt10shared_ptrINS_8internal11LazyCDProofEENS0_14DefaultCleanUpIS5_EESaIS5_EEE = linkonce_odr hidden constant { ptr, ptr, ptr } { ptr getelementptr inbounds (ptr, ptr @_ZTVN10__cxxabiv120__si_class_type_infoE, i64 2), ptr @_ZTSN4cvc57context6CDListISt10shared_ptrINS_8internal11LazyCDProofEENS0_14DefaultCleanUpIS5_EESaIS5_EEE, ptr @_ZTIN4cvc57context10ContextObjE }, comdat, align 8
@.str.33 = private unnamed_addr constant [11 x i8] c"push_back \00", align 1
@.str.34 = private unnamed_addr constant [2 x i8] c" \00", align 1
@.str.35 = private unnamed_addr constant [15 x i8] c": make-current\00", align 1
@.str.36 = private unnamed_addr constant [26 x i8] c"vector::_M_realloc_insert\00", align 1
@.str.37 = private unnamed_addr constant [2 x i8] c"_\00", align 1
@_ZTVSt23_Sp_counted_ptr_inplaceIN4cvc58internal11LazyCDProofESaIvELN9__gnu_cxx12_Lock_policyE2EE = linkonce_odr hidden unnamed_addr constant { [7 x ptr] } { [7 x ptr] [ptr null, ptr @_ZTISt23_Sp_counted_ptr_inplaceIN4cvc58internal11LazyCDProofESaIvELN9__gnu_cxx12_Lock_policyE2EE, ptr @_ZNSt23_Sp_counted_ptr_inplaceIN4cvc58internal11LazyCDProofESaIvELN9__gnu_cxx12_Lock_policyE2EED2Ev, ptr @_ZNSt23_Sp_counted_ptr_inplaceIN4cvc58internal11LazyCDProofESaIvELN9__gnu_cxx12_Lock_policyE2EED0Ev, ptr @_ZNSt23_Sp_counted_ptr_inplaceIN4cvc58internal11LazyCDProofESaIvELN9__gnu_cxx12_Lock_policyE2EE10_M_disposeEv, ptr @_ZNSt23_Sp_counted_ptr_inplaceIN4cvc58internal11LazyCDProofESaIvELN9__gnu_cxx12_Lock_policyE2EE10_M_destroyEv, ptr @_ZNSt23_Sp_counted_ptr_inplaceIN4cvc58internal11LazyCDProofESaIvELN9__gnu_cxx12_Lock_policyE2EE14_M_get_deleterERKSt9type_info] }, comdat, align 8
@_ZTSSt23_Sp_counted_ptr_inplaceIN4cvc58internal11LazyCDProofESaIvELN9__gnu_cxx12_Lock_policyE2EE = linkonce_odr hidden constant [93 x i8] c"St23_Sp_counted_ptr_inplaceIN4cvc58internal11LazyCDProofESaIvELN9__gnu_cxx12_Lock_policyE2EE\00", comdat, align 1
@_ZTSSt16_Sp_counted_baseILN9__gnu_cxx12_Lock_policyE2EE = linkonce_odr constant [52 x i8] c"St16_Sp_counted_baseILN9__gnu_cxx12_Lock_policyE2EE\00", comdat, align 1
@_ZTSSt11_Mutex_baseILN9__gnu_cxx12_Lock_policyE2EE = linkonce_odr constant [47 x i8] c"St11_Mutex_baseILN9__gnu_cxx12_Lock_policyE2EE\00", comdat, align 1
@_ZTISt11_Mutex_baseILN9__gnu_cxx12_Lock_policyE2EE = linkonce_odr constant { ptr, ptr } { ptr getelementptr inbounds (ptr, ptr @_ZTVN10__cxxabiv117__class_type_infoE, i64 2), ptr @_ZTSSt11_Mutex_baseILN9__gnu_cxx12_Lock_policyE2EE }, comdat, align 8
@_ZTISt16_Sp_counted_baseILN9__gnu_cxx12_Lock_policyE2EE = linkonce_odr constant { ptr, ptr, ptr } { ptr getelementptr inbounds (ptr, ptr @_ZTVN10__cxxabiv120__si_class_type_infoE, i64 2), ptr @_ZTSSt16_Sp_counted_baseILN9__gnu_cxx12_Lock_policyE2EE, ptr @_ZTISt11_Mutex_baseILN9__gnu_cxx12_Lock_policyE2EE }, comdat, align 8
@_ZTISt23_Sp_counted_ptr_inplaceIN4cvc58internal11LazyCDProofESaIvELN9__gnu_cxx12_Lock_policyE2EE = linkonce_odr hidden constant { ptr, ptr, ptr } { ptr getelementptr inbounds (ptr, ptr @_ZTVN10__cxxabiv120__si_class_type_infoE, i64 2), ptr @_ZTSSt23_Sp_counted_ptr_inplaceIN4cvc58internal11LazyCDProofESaIvELN9__gnu_cxx12_Lock_policyE2EE, ptr @_ZTISt16_Sp_counted_baseILN9__gnu_cxx12_Lock_policyE2EE }, comdat, align 8
@_ZTVSt16_Sp_counted_baseILN9__gnu_cxx12_Lock_policyE2EE = linkonce_odr unnamed_addr constant { [7 x ptr] } { [7 x ptr] [ptr null, ptr @_ZTISt16_Sp_counted_baseILN9__gnu_cxx12_Lock_policyE2EE, ptr @_ZNSt16_Sp_counted_baseILN9__gnu_cxx12_Lock_policyE2EED2Ev, ptr @_ZNSt16_Sp_counted_baseILN9__gnu_cxx12_Lock_policyE2EED0Ev, ptr @__cxa_pure_virtual, ptr @_ZNSt16_Sp_counted_baseILN9__gnu_cxx12_Lock_policyE2EE10_M_destroyEv, ptr @__cxa_pure_virtual] }, comdat, align 8
@_ZTSSt19_Sp_make_shared_tag = linkonce_odr constant [24 x i8] c"St19_Sp_make_shared_tag\00", comdat, align 1
@_ZTISt19_Sp_make_shared_tag = linkonce_odr constant { ptr, ptr } { ptr getelementptr inbounds (ptr, ptr @_ZTVN10__cxxabiv117__class_type_infoE, i64 2), ptr @_ZTSSt19_Sp_make_shared_tag }, comdat, align 8
@_ZZNSt19_Sp_make_shared_tag5_S_tiEvE5__tag = linkonce_odr constant [16 x i8] zeroinitializer, comdat, align 8
@_ZZNSt8__detail18__to_chars_10_implImEEvPcjT_E8__digits = linkonce_odr constant [201 x i8] c"00010203040506070809101112131415161718192021222324252627282930313233343536373839404142434445464748495051525354555657585960616263646566676869707172737475767778798081828384858687888990919293949596979899\00", comdat, align 16
@.str.38 = private unnamed_addr constant [49 x i8] c"cannot create std::vector larger than max_size()\00", align 1
@_ZTVN4cvc57context11CDOhash_mapINS_8internal12NodeTemplateILb1EEEmSt4hashIS4_EEE = linkonce_odr hidden unnamed_addr constant { [6 x ptr] } { [6 x ptr] [ptr null, ptr @_ZTIN4cvc57context11CDOhash_mapINS_8internal12NodeTemplateILb1EEEmSt4hashIS4_EEE, ptr @_ZN4cvc57context11CDOhash_mapINS_8internal12NodeTemplateILb1EEEmSt4hashIS4_EE4saveEPNS0_20ContextMemoryManagerE, ptr @_ZN4cvc57context11CDOhash_mapINS_8internal12NodeTemplateILb1EEEmSt4hashIS4_EE7restoreEPNS0_10ContextObjE, ptr @_ZN4cvc57context11CDOhash_mapINS_8internal12NodeTemplateILb1EEEmSt4hashIS4_EED2Ev, ptr @_ZN4cvc57context11CDOhash_mapINS_8internal12NodeTemplateILb1EEEmSt4hashIS4_EED0Ev] }, comdat, align 8
@_ZTSN4cvc57context11CDOhash_mapINS_8internal12NodeTemplateILb1EEEmSt4hashIS4_EEE = linkonce_odr hidden constant [77 x i8] c"N4cvc57context11CDOhash_mapINS_8internal12NodeTemplateILb1EEEmSt4hashIS4_EEE\00", comdat, align 1
@_ZTIN4cvc57context11CDOhash_mapINS_8internal12NodeTemplateILb1EEEmSt4hashIS4_EEE = linkonce_odr hidden constant { ptr, ptr, ptr } { ptr getelementptr inbounds (ptr, ptr @_ZTVN10__cxxabiv120__si_class_type_infoE, i64 2), ptr @_ZTSN4cvc57context11CDOhash_mapINS_8internal12NodeTemplateILb1EEEmSt4hashIS4_EEE, ptr @_ZTIN4cvc57context10ContextObjE }, comdat, align 8
@_ZZN4cvc58internal4expr9NodeValue4nullEvE6s_null = linkonce_odr global ptr null, comdat, align 8
@_ZGVZN4cvc58internal4expr9NodeValue4nullEvE6s_null = linkonce_odr global i64 0, comdat, align 8
@llvm.global_ctors = appending global [1 x { i32, ptr, ptr }] [{ i32, ptr, ptr } { i32 65535, ptr @_GLOBAL__sub_I_trust_substitutions.cpp, ptr null }]

@_ZN4cvc58internal6theory20TrustSubstitutionMapC1ERNS0_3EnvEPNS_7context7ContextENSt7__cxx1112basic_stringIcSt11char_traitsIcESaIcEEENS0_7TrustIdENS0_8MethodIdE = hidden unnamed_addr alias void (ptr, ptr, ptr, ptr, i32, i32), ptr @_ZN4cvc58internal6theory20TrustSubstitutionMapC2ERNS0_3EnvEPNS_7context7ContextENSt7__cxx1112basic_stringIcSt11char_traitsIcESaIcEEENS0_7TrustIdENS0_8MethodIdE

; Function Attrs: uwtable
define internal void @__cxx_global_var_init() #0 section ".text.startup" {
entry:
  call void @_ZNSt8ios_base4InitC1Ev(ptr noundef nonnull align 1 dereferenceable(1) @_ZStL8__ioinit)
  %0 = call i32 @__cxa_atexit(ptr @_ZNSt8ios_base4InitD1Ev, ptr @_ZStL8__ioinit, ptr @__dso_handle) #3
  ret void
}

declare void @_ZNSt8ios_base4InitC1Ev(ptr noundef nonnull align 1 dereferenceable(1)) unnamed_addr #1

; Function Attrs: nounwind
declare void @_ZNSt8ios_base4InitD1Ev(ptr noundef nonnull align 1 dereferenceable(1)) unnamed_addr #2

; Function Attrs: nounwind
declare i32 @__cxa_atexit(ptr, ptr, ptr) #3

; Function Attrs: mustprogress uwtable
define hidden void @_ZN4cvc58internal6theory20TrustSubstitutionMapC2ERNS0_3EnvEPNS_7context7ContextENSt7__cxx1112basic_stringIcSt11char_traitsIcESaIcEEENS0_7TrustIdENS0_8MethodIdE(ptr noundef nonnull align 8 dereferenceable(608) %this, ptr noundef nonnull align 8 dereferenceable(576) %env, ptr noundef %c, ptr noundef %name, i32 noundef %trustId, i32 noundef %ids) unnamed_addr #4 align 2 personality ptr @__gxx_personality_v0 {
entry:
  %this.addr = alloca ptr, align 8
  %env.addr = alloca ptr, align 8
  %c.addr = alloca ptr, align 8
  %name.indirect_addr = alloca ptr, align 8
  %trustId.addr = alloca i32, align 4
  %ids.addr = alloca i32, align 4
  %exn.slot = alloca ptr, align 8
  %ehselector.slot = alloca i32, align 4
  %ref.tmp = alloca %"class.cvc5::context::DefaultCleanUp", align 1
  %pnm = alloca ptr, align 8
  %ref.tmp23 = alloca %"class.std::__cxx11::basic_string", align 8
  %ref.tmp24 = alloca %"class.std::allocator", align 1
  %cleanup.isactive = alloca i1, align 1
  %ref.tmp34 = alloca %"class.std::__cxx11::basic_string", align 8
  %ref.tmp35 = alloca %"class.std::allocator", align 1
  %cleanup.isactive40 = alloca i1, align 1
  %agg.tmp = alloca %"class.std::__cxx11::basic_string", align 8
  %ref.tmp51 = alloca %"class.std::allocator", align 1
  %cleanup.isactive56 = alloca i1, align 1
  store ptr %this, ptr %this.addr, align 8
  store ptr %env, ptr %env.addr, align 8
  store ptr %c, ptr %c.addr, align 8
  store ptr %name, ptr %name.indirect_addr, align 8
  store i32 %trustId, ptr %trustId.addr, align 4
  store i32 %ids, ptr %ids.addr, align 4
  %this1 = load ptr, ptr %this.addr, align 8
  %0 = load ptr, ptr %env.addr, align 8
  call void @_ZN4cvc58internal6EnvObjC2ERNS0_3EnvE(ptr noundef nonnull align 8 dereferenceable(16) %this1, ptr noundef nonnull align 8 dereferenceable(576) %0)
  %1 = getelementptr inbounds i8, ptr %this1, i64 16
  invoke void @_ZN4cvc58internal14ProofGeneratorC2Ev(ptr noundef nonnull align 8 dereferenceable(8) %1)
          to label %invoke.cont unwind label %lpad

invoke.cont:                                      ; preds = %entry
  store ptr getelementptr inbounds ({ [6 x ptr], [8 x ptr] }, ptr @_ZTVN4cvc58internal6theory20TrustSubstitutionMapE, i32 0, inrange i32 0, i32 2), ptr %this1, align 8
  %add.ptr = getelementptr inbounds i8, ptr %this1, i64 16
  store ptr getelementptr inbounds ({ [6 x ptr], [8 x ptr] }, ptr @_ZTVN4cvc58internal6theory20TrustSubstitutionMapE, i32 0, inrange i32 1, i32 2), ptr %add.ptr, align 8
  %d_ctx = getelementptr inbounds %"class.cvc5::internal::theory::TrustSubstitutionMap", ptr %this1, i32 0, i32 2
  %2 = load ptr, ptr %c.addr, align 8
  store ptr %2, ptr %d_ctx, align 8
  %d_subs = getelementptr inbounds %"class.cvc5::internal::theory::TrustSubstitutionMap", ptr %this1, i32 0, i32 3
  %3 = load ptr, ptr %c.addr, align 8
  invoke void @_ZN4cvc58internal6theory15SubstitutionMapC1EPNS_7context7ContextE(ptr noundef nonnull align 8 dereferenceable(256) %d_subs, ptr noundef %3)
          to label %invoke.cont3 unwind label %lpad2

invoke.cont3:                                     ; preds = %invoke.cont
  %d_tsubs = getelementptr inbounds %"class.cvc5::internal::theory::TrustSubstitutionMap", ptr %this1, i32 0, i32 4
  %4 = load ptr, ptr %c.addr, align 8
  invoke void @_ZN4cvc57context6CDListINS_8internal9TrustNodeENS0_14DefaultCleanUpIS3_EESaIS3_EEC2EPNS0_7ContextEbRKS5_(ptr noundef nonnull align 8 dereferenceable(74) %d_tsubs, ptr noundef %4, i1 noundef zeroext true, ptr noundef nonnull align 1 dereferenceable(1) %ref.tmp)
          to label %invoke.cont5 unwind label %lpad4

invoke.cont5:                                     ; preds = %invoke.cont3
  %d_tspb = getelementptr inbounds %"class.cvc5::internal::theory::TrustSubstitutionMap", ptr %this1, i32 0, i32 5
  call void @_ZNSt10unique_ptrIN4cvc58internal21TheoryProofStepBufferESt14default_deleteIS2_EEC2IS4_vEEDn(ptr noundef nonnull align 8 dereferenceable(8) %d_tspb, ptr null) #3
  %d_subsPg = getelementptr inbounds %"class.cvc5::internal::theory::TrustSubstitutionMap", ptr %this1, i32 0, i32 6
  call void @_ZNSt10unique_ptrIN4cvc58internal11LazyCDProofESt14default_deleteIS2_EEC2IS4_vEEDn(ptr noundef nonnull align 8 dereferenceable(8) %d_subsPg, ptr null) #3
  %d_applyPg = getelementptr inbounds %"class.cvc5::internal::theory::TrustSubstitutionMap", ptr %this1, i32 0, i32 7
  call void @_ZNSt10unique_ptrIN4cvc58internal11LazyCDProofESt14default_deleteIS2_EEC2IS4_vEEDn(ptr noundef nonnull align 8 dereferenceable(8) %d_applyPg, ptr null) #3
  %d_helperPf = getelementptr inbounds %"class.cvc5::internal::theory::TrustSubstitutionMap", ptr %this1, i32 0, i32 8
  call void @_ZNSt10unique_ptrIN4cvc58internal10CDProofSetINS1_11LazyCDProofEEESt14default_deleteIS4_EEC2IS6_vEEDn(ptr noundef nonnull align 8 dereferenceable(8) %d_helperPf, ptr null) #3
  %d_name = getelementptr inbounds %"class.cvc5::internal::theory::TrustSubstitutionMap", ptr %this1, i32 0, i32 9
  invoke void @_ZNSt7__cxx1112basic_stringIcSt11char_traitsIcESaIcEEC1ERKS4_(ptr noundef nonnull align 8 dereferenceable(32) %d_name, ptr noundef nonnull align 8 dereferenceable(32) %name)
          to label %invoke.cont7 unwind label %lpad6

invoke.cont7:                                     ; preds = %invoke.cont5
  %d_trustId = getelementptr inbounds %"class.cvc5::internal::theory::TrustSubstitutionMap", ptr %this1, i32 0, i32 10
  %5 = load i32, ptr %trustId.addr, align 4
  store i32 %5, ptr %d_trustId, align 8
  %d_ids = getelementptr inbounds %"class.cvc5::internal::theory::TrustSubstitutionMap", ptr %this1, i32 0, i32 11
  %6 = load i32, ptr %ids.addr, align 4
  store i32 %6, ptr %d_ids, align 4
  %d_eqtIndex = getelementptr inbounds %"class.cvc5::internal::theory::TrustSubstitutionMap", ptr %this1, i32 0, i32 12
  %7 = load ptr, ptr %c.addr, align 8
  invoke void @_ZN4cvc57context9CDHashMapINS_8internal12NodeTemplateILb1EEEmSt4hashIS4_EEC2EPNS0_7ContextE(ptr noundef nonnull align 8 dereferenceable(112) %d_eqtIndex, ptr noundef %7)
          to label %invoke.cont9 unwind label %lpad8

invoke.cont9:                                     ; preds = %invoke.cont7
  %d_proving = getelementptr inbounds %"class.cvc5::internal::theory::TrustSubstitutionMap", ptr %this1, i32 0, i32 13
  call void @_ZNSt13unordered_setIN4cvc58internal12NodeTemplateILb1EEESt4hashIS3_ESt8equal_toIS3_ESaIS3_EEC2Ev(ptr noundef nonnull align 8 dereferenceable(56) %d_proving) #3
  %d_env = getelementptr inbounds %"class.cvc5::internal::EnvObj", ptr %this1, i32 0, i32 1
  %8 = load ptr, ptr %d_env, align 8
  %call = invoke noundef ptr @_ZN4cvc58internal3Env19getProofNodeManagerEv(ptr noundef nonnull align 8 dereferenceable(576) %8)
          to label %invoke.cont11 unwind label %lpad10

invoke.cont11:                                    ; preds = %invoke.cont9
  store ptr %call, ptr %pnm, align 8
  %9 = load ptr, ptr %pnm, align 8
  %cmp = icmp ne ptr %9, null
  br i1 %cmp, label %if.then, label %if.end

if.then:                                          ; preds = %invoke.cont11
  %d_tspb12 = getelementptr inbounds %"class.cvc5::internal::theory::TrustSubstitutionMap", ptr %this1, i32 0, i32 5
  %call14 = invoke noalias noundef nonnull ptr @_Znwm(i64 noundef 104) #15
          to label %invoke.cont13 unwind label %lpad10

invoke.cont13:                                    ; preds = %if.then
  %10 = load ptr, ptr %pnm, align 8
  %call17 = invoke noundef ptr @_ZNK4cvc58internal16ProofNodeManager10getCheckerEv(ptr noundef nonnull align 8 dereferenceable(32) %10)
          to label %invoke.cont16 unwind label %lpad15

invoke.cont16:                                    ; preds = %invoke.cont13
  invoke void @_ZN4cvc58internal21TheoryProofStepBufferC1EPNS0_12ProofCheckerEbb(ptr noundef nonnull align 8 dereferenceable(104) %call14, ptr noundef %call17, i1 noundef zeroext false, i1 noundef zeroext true)
          to label %invoke.cont18 unwind label %lpad15

invoke.cont18:                                    ; preds = %invoke.cont16
  call void @_ZNSt10unique_ptrIN4cvc58internal21TheoryProofStepBufferESt14default_deleteIS2_EE5resetEPS2_(ptr noundef nonnull align 8 dereferenceable(8) %d_tspb12, ptr noundef %call14) #3
  %d_subsPg19 = getelementptr inbounds %"class.cvc5::internal::theory::TrustSubstitutionMap", ptr %this1, i32 0, i32 6
  %call21 = invoke noalias noundef nonnull ptr @_Znwm(i64 noundef 408) #15
          to label %invoke.cont20 unwind label %lpad10

invoke.cont20:                                    ; preds = %invoke.cont18
  store i1 true, ptr %cleanup.isactive, align 1
  %11 = load ptr, ptr %env.addr, align 8
  %d_ctx22 = getelementptr inbounds %"class.cvc5::internal::theory::TrustSubstitutionMap", ptr %this1, i32 0, i32 2
  %12 = load ptr, ptr %d_ctx22, align 8
  call void @_ZNSaIcEC1Ev(ptr noundef nonnull align 1 dereferenceable(1) %ref.tmp24) #3
  invoke void @_ZNSt7__cxx1112basic_stringIcSt11char_traitsIcESaIcEEC2IS3_EEPKcRKS3_(ptr noundef nonnull align 8 dereferenceable(32) %ref.tmp23, ptr noundef @.str, ptr noundef nonnull align 1 dereferenceable(1) %ref.tmp24)
          to label %invoke.cont26 unwind label %lpad25

invoke.cont26:                                    ; preds = %invoke.cont20
  invoke void @_ZN4cvc58internal11LazyCDProofC1ERNS0_3EnvEPNS0_14ProofGeneratorEPNS_7context7ContextERKNSt7__cxx1112basic_stringIcSt11char_traitsIcESaIcEEEbb(ptr noundef nonnull align 8 dereferenceable(408) %call21, ptr noundef nonnull align 8 dereferenceable(576) %11, ptr noundef null, ptr noundef %12, ptr noundef nonnull align 8 dereferenceable(32) %ref.tmp23, i1 noundef zeroext true, i1 noundef zeroext true)
          to label %invoke.cont28 unwind label %lpad27

invoke.cont28:                                    ; preds = %invoke.cont26
  store i1 false, ptr %cleanup.isactive, align 1
  call void @_ZNSt10unique_ptrIN4cvc58internal11LazyCDProofESt14default_deleteIS2_EE5resetEPS2_(ptr noundef nonnull align 8 dereferenceable(8) %d_subsPg19, ptr noundef %call21) #3
  call void @_ZNSt7__cxx1112basic_stringIcSt11char_traitsIcESaIcEED1Ev(ptr noundef nonnull align 8 dereferenceable(32) %ref.tmp23) #3
  call void @_ZNSaIcED1Ev(ptr noundef nonnull align 1 dereferenceable(1) %ref.tmp24) #3
  %d_applyPg30 = getelementptr inbounds %"class.cvc5::internal::theory::TrustSubstitutionMap", ptr %this1, i32 0, i32 7
  %call32 = invoke noalias noundef nonnull ptr @_Znwm(i64 noundef 408) #15
          to label %invoke.cont31 unwind label %lpad10

invoke.cont31:                                    ; preds = %invoke.cont28
  store i1 true, ptr %cleanup.isactive40, align 1
  %13 = load ptr, ptr %env.addr, align 8
  %d_ctx33 = getelementptr inbounds %"class.cvc5::internal::theory::TrustSubstitutionMap", ptr %this1, i32 0, i32 2
  %14 = load ptr, ptr %d_ctx33, align 8
  call void @_ZNSaIcEC1Ev(ptr noundef nonnull align 1 dereferenceable(1) %ref.tmp35) #3
  invoke void @_ZNSt7__cxx1112basic_stringIcSt11char_traitsIcESaIcEEC2IS3_EEPKcRKS3_(ptr noundef nonnull align 8 dereferenceable(32) %ref.tmp34, ptr noundef @.str.1, ptr noundef nonnull align 1 dereferenceable(1) %ref.tmp35)
          to label %invoke.cont37 unwind label %lpad36

invoke.cont37:                                    ; preds = %invoke.cont31
  invoke void @_ZN4cvc58internal11LazyCDProofC1ERNS0_3EnvEPNS0_14ProofGeneratorEPNS_7context7ContextERKNSt7__cxx1112basic_stringIcSt11char_traitsIcESaIcEEEbb(ptr noundef nonnull align 8 dereferenceable(408) %call32, ptr noundef nonnull align 8 dereferenceable(576) %13, ptr noundef null, ptr noundef %14, ptr noundef nonnull align 8 dereferenceable(32) %ref.tmp34, i1 noundef zeroext true, i1 noundef zeroext true)
          to label %invoke.cont39 unwind label %lpad38

invoke.cont39:                                    ; preds = %invoke.cont37
  store i1 false, ptr %cleanup.isactive40, align 1
  call void @_ZNSt10unique_ptrIN4cvc58internal11LazyCDProofESt14default_deleteIS2_EE5resetEPS2_(ptr noundef nonnull align 8 dereferenceable(8) %d_applyPg30, ptr noundef %call32) #3
  call void @_ZNSt7__cxx1112basic_stringIcSt11char_traitsIcESaIcEED1Ev(ptr noundef nonnull align 8 dereferenceable(32) %ref.tmp34) #3
  call void @_ZNSaIcED1Ev(ptr noundef nonnull align 1 dereferenceable(1) %ref.tmp35) #3
  %d_helperPf47 = getelementptr inbounds %"class.cvc5::internal::theory::TrustSubstitutionMap", ptr %this1, i32 0, i32 8
  %call49 = invoke noalias noundef nonnull ptr @_Znwm(i64 noundef 120) #15
          to label %invoke.cont48 unwind label %lpad10

invoke.cont48:                                    ; preds = %invoke.cont39
  store i1 true, ptr %cleanup.isactive56, align 1
  %15 = load ptr, ptr %env.addr, align 8
  %d_ctx50 = getelementptr inbounds %"class.cvc5::internal::theory::TrustSubstitutionMap", ptr %this1, i32 0, i32 2
  %16 = load ptr, ptr %d_ctx50, align 8
  call void @_ZNSaIcEC1Ev(ptr noundef nonnull align 1 dereferenceable(1) %ref.tmp51) #3
  invoke void @_ZNSt7__cxx1112basic_stringIcSt11char_traitsIcESaIcEEC2IS3_EEPKcRKS3_(ptr noundef nonnull align 8 dereferenceable(32) %agg.tmp, ptr noundef @.str.2, ptr noundef nonnull align 1 dereferenceable(1) %ref.tmp51)
          to label %invoke.cont53 unwind label %lpad52

invoke.cont53:                                    ; preds = %invoke.cont48
  invoke void @_ZN4cvc58internal10CDProofSetINS0_11LazyCDProofEEC2ERNS0_3EnvEPNS_7context7ContextENSt7__cxx1112basic_stringIcSt11char_traitsIcESaIcEEE(ptr noundef nonnull align 8 dereferenceable(120) %call49, ptr noundef nonnull align 8 dereferenceable(576) %15, ptr noundef %16, ptr noundef %agg.tmp)
          to label %invoke.cont55 unwind label %lpad54

invoke.cont55:                                    ; preds = %invoke.cont53
  store i1 false, ptr %cleanup.isactive56, align 1
  call void @_ZNSt10unique_ptrIN4cvc58internal10CDProofSetINS1_11LazyCDProofEEESt14default_deleteIS4_EE5resetEPS4_(ptr noundef nonnull align 8 dereferenceable(8) %d_helperPf47, ptr noundef %call49) #3
  call void @_ZNSt7__cxx1112basic_stringIcSt11char_traitsIcESaIcEED1Ev(ptr noundef nonnull align 8 dereferenceable(32) %agg.tmp) #3
  call void @_ZNSaIcED1Ev(ptr noundef nonnull align 1 dereferenceable(1) %ref.tmp51) #3
  br label %if.end

lpad:                                             ; preds = %entry
  %17 = landingpad { ptr, i32 }
          cleanup
  %18 = extractvalue { ptr, i32 } %17, 0
  store ptr %18, ptr %exn.slot, align 8
  %19 = extractvalue { ptr, i32 } %17, 1
  store i32 %19, ptr %ehselector.slot, align 4
  br label %ehcleanup73

lpad2:                                            ; preds = %invoke.cont
  %20 = landingpad { ptr, i32 }
          cleanup
  %21 = extractvalue { ptr, i32 } %20, 0
  store ptr %21, ptr %exn.slot, align 8
  %22 = extractvalue { ptr, i32 } %20, 1
  store i32 %22, ptr %ehselector.slot, align 4
  br label %ehcleanup72

lpad4:                                            ; preds = %invoke.cont3
  %23 = landingpad { ptr, i32 }
          cleanup
  %24 = extractvalue { ptr, i32 } %23, 0
  store ptr %24, ptr %exn.slot, align 8
  %25 = extractvalue { ptr, i32 } %23, 1
  store i32 %25, ptr %ehselector.slot, align 4
  br label %ehcleanup71

lpad6:                                            ; preds = %invoke.cont5
  %26 = landingpad { ptr, i32 }
          cleanup
  %27 = extractvalue { ptr, i32 } %26, 0
  store ptr %27, ptr %exn.slot, align 8
  %28 = extractvalue { ptr, i32 } %26, 1
  store i32 %28, ptr %ehselector.slot, align 4
  br label %ehcleanup66

lpad8:                                            ; preds = %invoke.cont7
  %29 = landingpad { ptr, i32 }
          cleanup
  %30 = extractvalue { ptr, i32 } %29, 0
  store ptr %30, ptr %exn.slot, align 8
  %31 = extractvalue { ptr, i32 } %29, 1
  store i32 %31, ptr %ehselector.slot, align 4
  br label %ehcleanup65

lpad10:                                           ; preds = %invoke.cont39, %invoke.cont28, %invoke.cont18, %if.then, %invoke.cont9
  %32 = landingpad { ptr, i32 }
          cleanup
  %33 = extractvalue { ptr, i32 } %32, 0
  store ptr %33, ptr %exn.slot, align 8
  %34 = extractvalue { ptr, i32 } %32, 1
  store i32 %34, ptr %ehselector.slot, align 4
  br label %ehcleanup63

lpad15:                                           ; preds = %invoke.cont16, %invoke.cont13
  %35 = landingpad { ptr, i32 }
          cleanup
  %36 = extractvalue { ptr, i32 } %35, 0
  store ptr %36, ptr %exn.slot, align 8
  %37 = extractvalue { ptr, i32 } %35, 1
  store i32 %37, ptr %ehselector.slot, align 4
  call void @_ZdlPv(ptr noundef %call14) #16
  br label %ehcleanup63

lpad25:                                           ; preds = %invoke.cont20
  %38 = landingpad { ptr, i32 }
          cleanup
  %39 = extractvalue { ptr, i32 } %38, 0
  store ptr %39, ptr %exn.slot, align 8
  %40 = extractvalue { ptr, i32 } %38, 1
  store i32 %40, ptr %ehselector.slot, align 4
  br label %ehcleanup

lpad27:                                           ; preds = %invoke.cont26
  %41 = landingpad { ptr, i32 }
          cleanup
  %42 = extractvalue { ptr, i32 } %41, 0
  store ptr %42, ptr %exn.slot, align 8
  %43 = extractvalue { ptr, i32 } %41, 1
  store i32 %43, ptr %ehselector.slot, align 4
  call void @_ZNSt7__cxx1112basic_stringIcSt11char_traitsIcESaIcEED1Ev(ptr noundef nonnull align 8 dereferenceable(32) %ref.tmp23) #3
  br label %ehcleanup

ehcleanup:                                        ; preds = %lpad27, %lpad25
  call void @_ZNSaIcED1Ev(ptr noundef nonnull align 1 dereferenceable(1) %ref.tmp24) #3
  %cleanup.is_active = load i1, ptr %cleanup.isactive, align 1
  br i1 %cleanup.is_active, label %cleanup.action, label %cleanup.done

cleanup.action:                                   ; preds = %ehcleanup
  call void @_ZdlPv(ptr noundef %call21) #16
  br label %cleanup.done

cleanup.done:                                     ; preds = %cleanup.action, %ehcleanup
  br label %ehcleanup63

lpad36:                                           ; preds = %invoke.cont31
  %44 = landingpad { ptr, i32 }
          cleanup
  %45 = extractvalue { ptr, i32 } %44, 0
  store ptr %45, ptr %exn.slot, align 8
  %46 = extractvalue { ptr, i32 } %44, 1
  store i32 %46, ptr %ehselector.slot, align 4
  br label %ehcleanup42

lpad38:                                           ; preds = %invoke.cont37
  %47 = landingpad { ptr, i32 }
          cleanup
  %48 = extractvalue { ptr, i32 } %47, 0
  store ptr %48, ptr %exn.slot, align 8
  %49 = extractvalue { ptr, i32 } %47, 1
  store i32 %49, ptr %ehselector.slot, align 4
  call void @_ZNSt7__cxx1112basic_stringIcSt11char_traitsIcESaIcEED1Ev(ptr noundef nonnull align 8 dereferenceable(32) %ref.tmp34) #3
  br label %ehcleanup42

ehcleanup42:                                      ; preds = %lpad38, %lpad36
  call void @_ZNSaIcED1Ev(ptr noundef nonnull align 1 dereferenceable(1) %ref.tmp35) #3
  %cleanup.is_active44 = load i1, ptr %cleanup.isactive40, align 1
  br i1 %cleanup.is_active44, label %cleanup.action45, label %cleanup.done46

cleanup.action45:                                 ; preds = %ehcleanup42
  call void @_ZdlPv(ptr noundef %call32) #16
  br label %cleanup.done46

cleanup.done46:                                   ; preds = %cleanup.action45, %ehcleanup42
  br label %ehcleanup63

lpad52:                                           ; preds = %invoke.cont48
  %50 = landingpad { ptr, i32 }
          cleanup
  %51 = extractvalue { ptr, i32 } %50, 0
  store ptr %51, ptr %exn.slot, align 8
  %52 = extractvalue { ptr, i32 } %50, 1
  store i32 %52, ptr %ehselector.slot, align 4
  br label %ehcleanup58

lpad54:                                           ; preds = %invoke.cont53
  %53 = landingpad { ptr, i32 }
          cleanup
  %54 = extractvalue { ptr, i32 } %53, 0
  store ptr %54, ptr %exn.slot, align 8
  %55 = extractvalue { ptr, i32 } %53, 1
  store i32 %55, ptr %ehselector.slot, align 4
  call void @_ZNSt7__cxx1112basic_stringIcSt11char_traitsIcESaIcEED1Ev(ptr noundef nonnull align 8 dereferenceable(32) %agg.tmp) #3
  br label %ehcleanup58

ehcleanup58:                                      ; preds = %lpad54, %lpad52
  call void @_ZNSaIcED1Ev(ptr noundef nonnull align 1 dereferenceable(1) %ref.tmp51) #3
  %cleanup.is_active60 = load i1, ptr %cleanup.isactive56, align 1
  br i1 %cleanup.is_active60, label %cleanup.action61, label %cleanup.done62

cleanup.action61:                                 ; preds = %ehcleanup58
  call void @_ZdlPv(ptr noundef %call49) #16
  br label %cleanup.done62

cleanup.done62:                                   ; preds = %cleanup.action61, %ehcleanup58
  br label %ehcleanup63

if.end:                                           ; preds = %invoke.cont55, %invoke.cont11
  ret void

ehcleanup63:                                      ; preds = %cleanup.done62, %cleanup.done46, %cleanup.done, %lpad15, %lpad10
  call void @_ZNSt13unordered_setIN4cvc58internal12NodeTemplateILb1EEESt4hashIS3_ESt8equal_toIS3_ESaIS3_EED2Ev(ptr noundef nonnull align 8 dereferenceable(56) %d_proving) #3
  call void @_ZN4cvc57context9CDHashMapINS_8internal12NodeTemplateILb1EEEmSt4hashIS4_EED2Ev(ptr noundef nonnull align 8 dereferenceable(112) %d_eqtIndex) #3
  br label %ehcleanup65

ehcleanup65:                                      ; preds = %ehcleanup63, %lpad8
  call void @_ZNSt7__cxx1112basic_stringIcSt11char_traitsIcESaIcEED1Ev(ptr noundef nonnull align 8 dereferenceable(32) %d_name) #3
  br label %ehcleanup66

ehcleanup66:                                      ; preds = %ehcleanup65, %lpad6
  call void @_ZNSt10unique_ptrIN4cvc58internal10CDProofSetINS1_11LazyCDProofEEESt14default_deleteIS4_EED2Ev(ptr noundef nonnull align 8 dereferenceable(8) %d_helperPf) #3
  call void @_ZNSt10unique_ptrIN4cvc58internal11LazyCDProofESt14default_deleteIS2_EED2Ev(ptr noundef nonnull align 8 dereferenceable(8) %d_applyPg) #3
  call void @_ZNSt10unique_ptrIN4cvc58internal11LazyCDProofESt14default_deleteIS2_EED2Ev(ptr noundef nonnull align 8 dereferenceable(8) %d_subsPg) #3
  call void @_ZNSt10unique_ptrIN4cvc58internal21TheoryProofStepBufferESt14default_deleteIS2_EED2Ev(ptr noundef nonnull align 8 dereferenceable(8) %d_tspb) #3
  call void @_ZN4cvc57context6CDListINS_8internal9TrustNodeENS0_14DefaultCleanUpIS3_EESaIS3_EED2Ev(ptr noundef nonnull align 8 dereferenceable(74) %d_tsubs) #3
  br label %ehcleanup71

ehcleanup71:                                      ; preds = %ehcleanup66, %lpad4
  call void @_ZN4cvc58internal6theory15SubstitutionMapD2Ev(ptr noundef nonnull align 8 dereferenceable(256) %d_subs) #3
  br label %ehcleanup72

ehcleanup72:                                      ; preds = %ehcleanup71, %lpad2
  %56 = getelementptr inbounds i8, ptr %this1, i64 16
  call void @_ZN4cvc58internal14ProofGeneratorD2Ev(ptr noundef nonnull align 8 dereferenceable(8) %56) #3
  br label %ehcleanup73

ehcleanup73:                                      ; preds = %ehcleanup72, %lpad
  call void @_ZN4cvc58internal6EnvObjD2Ev(ptr noundef nonnull align 8 dereferenceable(16) %this1) #3
  br label %eh.resume

eh.resume:                                        ; preds = %ehcleanup73
  %exn = load ptr, ptr %exn.slot, align 8
  %sel = load i32, ptr %ehselector.slot, align 4
  %lpad.val = insertvalue { ptr, i32 } poison, ptr %exn, 0
  %lpad.val74 = insertvalue { ptr, i32 } %lpad.val, i32 %sel, 1
  resume { ptr, i32 } %lpad.val74
}

declare void @_ZN4cvc58internal6EnvObjC2ERNS0_3EnvE(ptr noundef nonnull align 8 dereferenceable(16), ptr noundef nonnull align 8 dereferenceable(576)) unnamed_addr #1

declare void @_ZN4cvc58internal14ProofGeneratorC2Ev(ptr noundef nonnull align 8 dereferenceable(8)) unnamed_addr #1

declare i32 @__gxx_personality_v0(...)

declare void @_ZN4cvc58internal6theory15SubstitutionMapC1EPNS_7context7ContextE(ptr noundef nonnull align 8 dereferenceable(256), ptr noundef) unnamed_addr #1

; Function Attrs: mustprogress uwtable
define linkonce_odr hidden void @_ZN4cvc57context6CDListINS_8internal9TrustNodeENS0_14DefaultCleanUpIS3_EESaIS3_EEC2EPNS0_7ContextEbRKS5_(ptr noundef nonnull align 8 dereferenceable(74) %this, ptr noundef %context, i1 noundef zeroext %callCleanup, ptr noundef nonnull align 1 dereferenceable(1) %cleanup) unnamed_addr #4 comdat align 2 {
entry:
  %this.addr = alloca ptr, align 8
  %context.addr = alloca ptr, align 8
  %callCleanup.addr = alloca i8, align 1
  %cleanup.addr = alloca ptr, align 8
  store ptr %this, ptr %this.addr, align 8
  store ptr %context, ptr %context.addr, align 8
  %frombool = zext i1 %callCleanup to i8
  store i8 %frombool, ptr %callCleanup.addr, align 1
  store ptr %cleanup, ptr %cleanup.addr, align 8
  %this1 = load ptr, ptr %this.addr, align 8
  %0 = load ptr, ptr %context.addr, align 8
  call void @_ZN4cvc57context10ContextObjC2EPNS0_7ContextE(ptr noundef nonnull align 8 dereferenceable(40) %this1, ptr noundef %0)
  store ptr getelementptr inbounds ({ [6 x ptr] }, ptr @_ZTVN4cvc57context6CDListINS_8internal9TrustNodeENS0_14DefaultCleanUpIS3_EESaIS3_EEE, i32 0, inrange i32 0, i32 2), ptr %this1, align 8
  %d_list = getelementptr inbounds %"class.cvc5::context::CDList", ptr %this1, i32 0, i32 1
  call void @llvm.memset.p0.i64(ptr align 8 %d_list, i8 0, i64 24, i1 false)
  call void @_ZNSt6vectorIN4cvc58internal9TrustNodeESaIS2_EEC2Ev(ptr noundef nonnull align 8 dereferenceable(24) %d_list) #3
  %d_size = getelementptr inbounds %"class.cvc5::context::CDList", ptr %this1, i32 0, i32 2
  store i64 0, ptr %d_size, align 8
  %d_callCleanup = getelementptr inbounds %"class.cvc5::context::CDList", ptr %this1, i32 0, i32 3
  %1 = load i8, ptr %callCleanup.addr, align 1
  %tobool = trunc i8 %1 to i1
  %frombool2 = zext i1 %tobool to i8
  store i8 %frombool2, ptr %d_callCleanup, align 8
  ret void
}

; Function Attrs: mustprogress nounwind uwtable
define linkonce_odr hidden void @_ZNSt10unique_ptrIN4cvc58internal21TheoryProofStepBufferESt14default_deleteIS2_EEC2IS4_vEEDn(ptr noundef nonnull align 8 dereferenceable(8) %this, ptr %0) unnamed_addr #5 comdat align 2 {
entry:
  %this.addr = alloca ptr, align 8
  %.addr = alloca ptr, align 8
  store ptr %this, ptr %this.addr, align 8
  store ptr %0, ptr %.addr, align 8
  %this1 = load ptr, ptr %this.addr, align 8
  %_M_t = getelementptr inbounds %"class.std::unique_ptr", ptr %this1, i32 0, i32 0
  call void @llvm.memset.p0.i64(ptr align 8 %_M_t, i8 0, i64 8, i1 false)
  call void @_ZNSt15__uniq_ptr_dataIN4cvc58internal21TheoryProofStepBufferESt14default_deleteIS2_ELb1ELb1EEC2Ev(ptr noundef nonnull align 8 dereferenceable(8) %_M_t) #3
  ret void
}

; Function Attrs: mustprogress nounwind uwtable
define linkonce_odr hidden void @_ZNSt10unique_ptrIN4cvc58internal11LazyCDProofESt14default_deleteIS2_EEC2IS4_vEEDn(ptr noundef nonnull align 8 dereferenceable(8) %this, ptr %0) unnamed_addr #5 comdat align 2 {
entry:
  %this.addr = alloca ptr, align 8
  %.addr = alloca ptr, align 8
  store ptr %this, ptr %this.addr, align 8
  store ptr %0, ptr %.addr, align 8
  %this1 = load ptr, ptr %this.addr, align 8
  %_M_t = getelementptr inbounds %"class.std::unique_ptr.29", ptr %this1, i32 0, i32 0
  call void @llvm.memset.p0.i64(ptr align 8 %_M_t, i8 0, i64 8, i1 false)
  call void @_ZNSt15__uniq_ptr_dataIN4cvc58internal11LazyCDProofESt14default_deleteIS2_ELb1ELb1EEC2Ev(ptr noundef nonnull align 8 dereferenceable(8) %_M_t) #3
  ret void
}

; Function Attrs: mustprogress nounwind uwtable
define linkonce_odr hidden void @_ZNSt10unique_ptrIN4cvc58internal10CDProofSetINS1_11LazyCDProofEEESt14default_deleteIS4_EEC2IS6_vEEDn(ptr noundef nonnull align 8 dereferenceable(8) %this, ptr %0) unnamed_addr #5 comdat align 2 {
entry:
  %this.addr = alloca ptr, align 8
  %.addr = alloca ptr, align 8
  store ptr %this, ptr %this.addr, align 8
  store ptr %0, ptr %.addr, align 8
  %this1 = load ptr, ptr %this.addr, align 8
  %_M_t = getelementptr inbounds %"class.std::unique_ptr.37", ptr %this1, i32 0, i32 0
  call void @llvm.memset.p0.i64(ptr align 8 %_M_t, i8 0, i64 8, i1 false)
  call void @_ZNSt15__uniq_ptr_dataIN4cvc58internal10CDProofSetINS1_11LazyCDProofEEESt14default_deleteIS4_ELb1ELb1EEC2Ev(ptr noundef nonnull align 8 dereferenceable(8) %_M_t) #3
  ret void
}

declare void @_ZNSt7__cxx1112basic_stringIcSt11char_traitsIcESaIcEEC1ERKS4_(ptr noundef nonnull align 8 dereferenceable(32), ptr noundef nonnull align 8 dereferenceable(32)) unnamed_addr #1

; Function Attrs: mustprogress uwtable
define linkonce_odr hidden void @_ZN4cvc57context9CDHashMapINS_8internal12NodeTemplateILb1EEEmSt4hashIS4_EEC2EPNS0_7ContextE(ptr noundef nonnull align 8 dereferenceable(112) %this, ptr noundef %context) unnamed_addr #4 comdat align 2 {
entry:
  %this.addr = alloca ptr, align 8
  %context.addr = alloca ptr, align 8
  store ptr %this, ptr %this.addr, align 8
  store ptr %context, ptr %context.addr, align 8
  %this1 = load ptr, ptr %this.addr, align 8
  %0 = load ptr, ptr %context.addr, align 8
  call void @_ZN4cvc57context10ContextObjC2EPNS0_7ContextE(ptr noundef nonnull align 8 dereferenceable(40) %this1, ptr noundef %0)
  store ptr getelementptr inbounds ({ [6 x ptr] }, ptr @_ZTVN4cvc57context9CDHashMapINS_8internal12NodeTemplateILb1EEEmSt4hashIS4_EEE, i32 0, inrange i32 0, i32 2), ptr %this1, align 8
  %d_map = getelementptr inbounds %"class.cvc5::context::CDHashMap.45", ptr %this1, i32 0, i32 1
  call void @llvm.memset.p0.i64(ptr align 8 %d_map, i8 0, i64 56, i1 false)
  call void @_ZNSt13unordered_mapIN4cvc58internal12NodeTemplateILb1EEEPNS0_7context11CDOhash_mapIS3_mSt4hashIS3_EEES7_St8equal_toIS3_ESaISt4pairIKS3_S9_EEEC2Ev(ptr noundef nonnull align 8 dereferenceable(56) %d_map) #3
  %d_first = getelementptr inbounds %"class.cvc5::context::CDHashMap.45", ptr %this1, i32 0, i32 2
  store ptr null, ptr %d_first, align 8
  %d_context = getelementptr inbounds %"class.cvc5::context::CDHashMap.45", ptr %this1, i32 0, i32 3
  %1 = load ptr, ptr %context.addr, align 8
  store ptr %1, ptr %d_context, align 8
  ret void
}

; Function Attrs: mustprogress nounwind uwtable
define linkonce_odr hidden void @_ZNSt13unordered_setIN4cvc58internal12NodeTemplateILb1EEESt4hashIS3_ESt8equal_toIS3_ESaIS3_EEC2Ev(ptr noundef nonnull align 8 dereferenceable(56) %this) unnamed_addr #5 comdat align 2 {
entry:
  %this.addr = alloca ptr, align 8
  store ptr %this, ptr %this.addr, align 8
  %this1 = load ptr, ptr %this.addr, align 8
  %_M_h = getelementptr inbounds %"class.std::unordered_set", ptr %this1, i32 0, i32 0
  call void @_ZNSt10_HashtableIN4cvc58internal12NodeTemplateILb1EEES3_SaIS3_ENSt8__detail9_IdentityESt8equal_toIS3_ESt4hashIS3_ENS5_18_Mod_range_hashingENS5_20_Default_ranged_hashENS5_20_Prime_rehash_policyENS5_17_Hashtable_traitsILb1ELb1ELb1EEEEC2Ev(ptr noundef nonnull align 8 dereferenceable(56) %_M_h) #3
  ret void
}

declare noundef ptr @_ZN4cvc58internal3Env19getProofNodeManagerEv(ptr noundef nonnull align 8 dereferenceable(576)) #1

; Function Attrs: mustprogress nounwind uwtable
define linkonce_odr hidden void @_ZNSt10unique_ptrIN4cvc58internal21TheoryProofStepBufferESt14default_deleteIS2_EE5resetEPS2_(ptr noundef nonnull align 8 dereferenceable(8) %this, ptr noundef %__p) #5 comdat align 2 {
entry:
  %this.addr = alloca ptr, align 8
  %__p.addr = alloca ptr, align 8
  store ptr %this, ptr %this.addr, align 8
  store ptr %__p, ptr %__p.addr, align 8
  %this1 = load ptr, ptr %this.addr, align 8
  %_M_t = getelementptr inbounds %"class.std::unique_ptr", ptr %this1, i32 0, i32 0
  %0 = load ptr, ptr %__p.addr, align 8
  call void @_ZNSt15__uniq_ptr_implIN4cvc58internal21TheoryProofStepBufferESt14default_deleteIS2_EE5resetEPS2_(ptr noundef nonnull align 8 dereferenceable(8) %_M_t, ptr noundef %0) #3
  ret void
}

; Function Attrs: nobuiltin allocsize(0)
declare noundef nonnull ptr @_Znwm(i64 noundef) #6

declare noundef ptr @_ZNK4cvc58internal16ProofNodeManager10getCheckerEv(ptr noundef nonnull align 8 dereferenceable(32)) #1

declare void @_ZN4cvc58internal21TheoryProofStepBufferC1EPNS0_12ProofCheckerEbb(ptr noundef nonnull align 8 dereferenceable(104), ptr noundef, i1 noundef zeroext, i1 noundef zeroext) unnamed_addr #1

; Function Attrs: nobuiltin nounwind
declare void @_ZdlPv(ptr noundef) #7

; Function Attrs: mustprogress nounwind uwtable
define linkonce_odr hidden void @_ZNSt10unique_ptrIN4cvc58internal11LazyCDProofESt14default_deleteIS2_EE5resetEPS2_(ptr noundef nonnull align 8 dereferenceable(8) %this, ptr noundef %__p) #5 comdat align 2 {
entry:
  %this.addr = alloca ptr, align 8
  %__p.addr = alloca ptr, align 8
  store ptr %this, ptr %this.addr, align 8
  store ptr %__p, ptr %__p.addr, align 8
  %this1 = load ptr, ptr %this.addr, align 8
  %_M_t = getelementptr inbounds %"class.std::unique_ptr.29", ptr %this1, i32 0, i32 0
  %0 = load ptr, ptr %__p.addr, align 8
  call void @_ZNSt15__uniq_ptr_implIN4cvc58internal11LazyCDProofESt14default_deleteIS2_EE5resetEPS2_(ptr noundef nonnull align 8 dereferenceable(8) %_M_t, ptr noundef %0) #3
  ret void
}

; Function Attrs: nounwind
declare void @_ZNSaIcEC1Ev(ptr noundef nonnull align 1 dereferenceable(1)) unnamed_addr #2

; Function Attrs: mustprogress uwtable
define linkonce_odr hidden void @_ZNSt7__cxx1112basic_stringIcSt11char_traitsIcESaIcEEC2IS3_EEPKcRKS3_(ptr noundef nonnull align 8 dereferenceable(32) %this, ptr noundef %__s, ptr noundef nonnull align 1 dereferenceable(1) %__a) unnamed_addr #4 comdat align 2 personality ptr @__gxx_personality_v0 {
entry:
  %this.addr = alloca ptr, align 8
  %__s.addr = alloca ptr, align 8
  %__a.addr = alloca ptr, align 8
  %exn.slot = alloca ptr, align 8
  %ehselector.slot = alloca i32, align 4
  %__end = alloca ptr, align 8
  store ptr %this, ptr %this.addr, align 8
  store ptr %__s, ptr %__s.addr, align 8
  store ptr %__a, ptr %__a.addr, align 8
  %this1 = load ptr, ptr %this.addr, align 8
  %_M_dataplus = getelementptr inbounds %"class.std::__cxx11::basic_string", ptr %this1, i32 0, i32 0
  %call = call noundef ptr @_ZNSt7__cxx1112basic_stringIcSt11char_traitsIcESaIcEE13_M_local_dataEv(ptr noundef nonnull align 8 dereferenceable(32) %this1)
  %0 = load ptr, ptr %__a.addr, align 8
  call void @_ZNSt7__cxx1112basic_stringIcSt11char_traitsIcESaIcEE12_Alloc_hiderC1EPcRKS3_(ptr noundef nonnull align 8 dereferenceable(8) %_M_dataplus, ptr noundef %call, ptr noundef nonnull align 1 dereferenceable(1) %0)
  %1 = load ptr, ptr %__s.addr, align 8
  %cmp = icmp eq ptr %1, null
  br i1 %cmp, label %if.then, label %if.end

if.then:                                          ; preds = %entry
  invoke void @_ZSt19__throw_logic_errorPKc(ptr noundef @.str.30) #17
          to label %invoke.cont unwind label %lpad

invoke.cont:                                      ; preds = %if.then
  unreachable

lpad:                                             ; preds = %invoke.cont2, %if.end, %if.then
  %2 = landingpad { ptr, i32 }
          cleanup
  %3 = extractvalue { ptr, i32 } %2, 0
  store ptr %3, ptr %exn.slot, align 8
  %4 = extractvalue { ptr, i32 } %2, 1
  store i32 %4, ptr %ehselector.slot, align 4
  call void @_ZNSt7__cxx1112basic_stringIcSt11char_traitsIcESaIcEE12_Alloc_hiderD2Ev(ptr noundef nonnull align 8 dereferenceable(8) %_M_dataplus) #3
  br label %eh.resume

if.end:                                           ; preds = %entry
  %5 = load ptr, ptr %__s.addr, align 8
  %6 = load ptr, ptr %__s.addr, align 8
  %call3 = invoke noundef i64 @_ZNSt11char_traitsIcE6lengthEPKc(ptr noundef %6)
          to label %invoke.cont2 unwind label %lpad

invoke.cont2:                                     ; preds = %if.end
  %add.ptr = getelementptr inbounds i8, ptr %5, i64 %call3
  store ptr %add.ptr, ptr %__end, align 8
  %7 = load ptr, ptr %__s.addr, align 8
  %8 = load ptr, ptr %__end, align 8
  invoke void @_ZNSt7__cxx1112basic_stringIcSt11char_traitsIcESaIcEE12_M_constructIPKcEEvT_S8_St20forward_iterator_tag(ptr noundef nonnull align 8 dereferenceable(32) %this1, ptr noundef %7, ptr noundef %8)
          to label %invoke.cont4 unwind label %lpad

invoke.cont4:                                     ; preds = %invoke.cont2
  ret void

eh.resume:                                        ; preds = %lpad
  %exn = load ptr, ptr %exn.slot, align 8
  %sel = load i32, ptr %ehselector.slot, align 4
  %lpad.val = insertvalue { ptr, i32 } poison, ptr %exn, 0
  %lpad.val5 = insertvalue { ptr, i32 } %lpad.val, i32 %sel, 1
  resume { ptr, i32 } %lpad.val5
}

declare void @_ZN4cvc58internal11LazyCDProofC1ERNS0_3EnvEPNS0_14ProofGeneratorEPNS_7context7ContextERKNSt7__cxx1112basic_stringIcSt11char_traitsIcESaIcEEEbb(ptr noundef nonnull align 8 dereferenceable(408), ptr noundef nonnull align 8 dereferenceable(576), ptr noundef, ptr noundef, ptr noundef nonnull align 8 dereferenceable(32), i1 noundef zeroext, i1 noundef zeroext) unnamed_addr #1

; Function Attrs: nounwind
declare void @_ZNSt7__cxx1112basic_stringIcSt11char_traitsIcESaIcEED1Ev(ptr noundef nonnull align 8 dereferenceable(32)) unnamed_addr #2

; Function Attrs: nounwind
declare void @_ZNSaIcED1Ev(ptr noundef nonnull align 1 dereferenceable(1)) unnamed_addr #2

; Function Attrs: mustprogress nounwind uwtable
define linkonce_odr hidden void @_ZNSt10unique_ptrIN4cvc58internal10CDProofSetINS1_11LazyCDProofEEESt14default_deleteIS4_EE5resetEPS4_(ptr noundef nonnull align 8 dereferenceable(8) %this, ptr noundef %__p) #5 comdat align 2 {
entry:
  %this.addr = alloca ptr, align 8
  %__p.addr = alloca ptr, align 8
  store ptr %this, ptr %this.addr, align 8
  store ptr %__p, ptr %__p.addr, align 8
  %this1 = load ptr, ptr %this.addr, align 8
  %_M_t = getelementptr inbounds %"class.std::unique_ptr.37", ptr %this1, i32 0, i32 0
  %0 = load ptr, ptr %__p.addr, align 8
  call void @_ZNSt15__uniq_ptr_implIN4cvc58internal10CDProofSetINS1_11LazyCDProofEEESt14default_deleteIS4_EE5resetEPS4_(ptr noundef nonnull align 8 dereferenceable(8) %_M_t, ptr noundef %0) #3
  ret void
}

; Function Attrs: mustprogress uwtable
define linkonce_odr hidden void @_ZN4cvc58internal10CDProofSetINS0_11LazyCDProofEEC2ERNS0_3EnvEPNS_7context7ContextENSt7__cxx1112basic_stringIcSt11char_traitsIcESaIcEEE(ptr noundef nonnull align 8 dereferenceable(120) %this, ptr noundef nonnull align 8 dereferenceable(576) %env, ptr noundef %c, ptr noundef %namePrefix) unnamed_addr #4 comdat align 2 personality ptr @__gxx_personality_v0 {
entry:
  %this.addr = alloca ptr, align 8
  %env.addr = alloca ptr, align 8
  %c.addr = alloca ptr, align 8
  %namePrefix.indirect_addr = alloca ptr, align 8
  %ref.tmp = alloca %"class.cvc5::context::DefaultCleanUp.374", align 1
  %exn.slot = alloca ptr, align 8
  %ehselector.slot = alloca i32, align 4
  store ptr %this, ptr %this.addr, align 8
  store ptr %env, ptr %env.addr, align 8
  store ptr %c, ptr %c.addr, align 8
  store ptr %namePrefix, ptr %namePrefix.indirect_addr, align 8
  %this1 = load ptr, ptr %this.addr, align 8
  %d_env = getelementptr inbounds %"class.cvc5::internal::CDProofSet", ptr %this1, i32 0, i32 0
  %0 = load ptr, ptr %env.addr, align 8
  store ptr %0, ptr %d_env, align 8
  %d_proofs = getelementptr inbounds %"class.cvc5::internal::CDProofSet", ptr %this1, i32 0, i32 1
  %1 = load ptr, ptr %c.addr, align 8
  call void @_ZN4cvc57context6CDListISt10shared_ptrINS_8internal11LazyCDProofEENS0_14DefaultCleanUpIS5_EESaIS5_EEC2EPNS0_7ContextEbRKS7_(ptr noundef nonnull align 8 dereferenceable(74) %d_proofs, ptr noundef %1, i1 noundef zeroext true, ptr noundef nonnull align 1 dereferenceable(1) %ref.tmp)
  %d_namePrefix = getelementptr inbounds %"class.cvc5::internal::CDProofSet", ptr %this1, i32 0, i32 2
  invoke void @_ZNSt7__cxx1112basic_stringIcSt11char_traitsIcESaIcEEC1ERKS4_(ptr noundef nonnull align 8 dereferenceable(32) %d_namePrefix, ptr noundef nonnull align 8 dereferenceable(32) %namePrefix)
          to label %invoke.cont unwind label %lpad

invoke.cont:                                      ; preds = %entry
  ret void

lpad:                                             ; preds = %entry
  %2 = landingpad { ptr, i32 }
          cleanup
  %3 = extractvalue { ptr, i32 } %2, 0
  store ptr %3, ptr %exn.slot, align 8
  %4 = extractvalue { ptr, i32 } %2, 1
  store i32 %4, ptr %ehselector.slot, align 4
  call void @_ZN4cvc57context6CDListISt10shared_ptrINS_8internal11LazyCDProofEENS0_14DefaultCleanUpIS5_EESaIS5_EED2Ev(ptr noundef nonnull align 8 dereferenceable(74) %d_proofs) #3
  br label %eh.resume

eh.resume:                                        ; preds = %lpad
  %exn = load ptr, ptr %exn.slot, align 8
  %sel = load i32, ptr %ehselector.slot, align 4
  %lpad.val = insertvalue { ptr, i32 } poison, ptr %exn, 0
  %lpad.val2 = insertvalue { ptr, i32 } %lpad.val, i32 %sel, 1
  resume { ptr, i32 } %lpad.val2
}

; Function Attrs: mustprogress nounwind uwtable
define linkonce_odr hidden void @_ZNSt13unordered_setIN4cvc58internal12NodeTemplateILb1EEESt4hashIS3_ESt8equal_toIS3_ESaIS3_EED2Ev(ptr noundef nonnull align 8 dereferenceable(56) %this) unnamed_addr #5 comdat align 2 {
entry:
  %this.addr = alloca ptr, align 8
  store ptr %this, ptr %this.addr, align 8
  %this1 = load ptr, ptr %this.addr, align 8
  %_M_h = getelementptr inbounds %"class.std::unordered_set", ptr %this1, i32 0, i32 0
  call void @_ZNSt10_HashtableIN4cvc58internal12NodeTemplateILb1EEES3_SaIS3_ENSt8__detail9_IdentityESt8equal_toIS3_ESt4hashIS3_ENS5_18_Mod_range_hashingENS5_20_Default_ranged_hashENS5_20_Prime_rehash_policyENS5_17_Hashtable_traitsILb1ELb1ELb1EEEED2Ev(ptr noundef nonnull align 8 dereferenceable(56) %_M_h) #3
  ret void
}

; Function Attrs: mustprogress nounwind uwtable
define linkonce_odr hidden void @_ZN4cvc57context9CDHashMapINS_8internal12NodeTemplateILb1EEEmSt4hashIS4_EED2Ev(ptr noundef nonnull align 8 dereferenceable(112) %this) unnamed_addr #5 comdat align 2 personality ptr @__gxx_personality_v0 {
entry:
  %this.addr = alloca ptr, align 8
  store ptr %this, ptr %this.addr, align 8
  %this1 = load ptr, ptr %this.addr, align 8
  store ptr getelementptr inbounds ({ [6 x ptr] }, ptr @_ZTVN4cvc57context9CDHashMapINS_8internal12NodeTemplateILb1EEEmSt4hashIS4_EEE, i32 0, inrange i32 0, i32 2), ptr %this1, align 8
  invoke void @_ZN4cvc57context10ContextObj7destroyEv(ptr noundef nonnull align 8 dereferenceable(40) %this1)
          to label %invoke.cont unwind label %terminate.lpad

invoke.cont:                                      ; preds = %entry
  invoke void @_ZN4cvc57context9CDHashMapINS_8internal12NodeTemplateILb1EEEmSt4hashIS4_EE5clearEv(ptr noundef nonnull align 8 dereferenceable(112) %this1)
          to label %invoke.cont2 unwind label %terminate.lpad

invoke.cont2:                                     ; preds = %invoke.cont
  %d_map = getelementptr inbounds %"class.cvc5::context::CDHashMap.45", ptr %this1, i32 0, i32 1
  call void @_ZNSt13unordered_mapIN4cvc58internal12NodeTemplateILb1EEEPNS0_7context11CDOhash_mapIS3_mSt4hashIS3_EEES7_St8equal_toIS3_ESaISt4pairIKS3_S9_EEED2Ev(ptr noundef nonnull align 8 dereferenceable(56) %d_map) #3
  call void @_ZN4cvc57context10ContextObjD2Ev(ptr noundef nonnull align 8 dereferenceable(40) %this1) #3
  ret void

terminate.lpad:                                   ; preds = %invoke.cont, %entry
  %0 = landingpad { ptr, i32 }
          catch ptr null
  %1 = extractvalue { ptr, i32 } %0, 0
  call void @__clang_call_terminate(ptr %1) #18
  unreachable
}

; Function Attrs: mustprogress nounwind uwtable
define linkonce_odr hidden void @_ZNSt10unique_ptrIN4cvc58internal10CDProofSetINS1_11LazyCDProofEEESt14default_deleteIS4_EED2Ev(ptr noundef nonnull align 8 dereferenceable(8) %this) unnamed_addr #5 comdat align 2 personality ptr @__gxx_personality_v0 {
entry:
  %this.addr = alloca ptr, align 8
  %__ptr = alloca ptr, align 8
  store ptr %this, ptr %this.addr, align 8
  %this1 = load ptr, ptr %this.addr, align 8
  %_M_t = getelementptr inbounds %"class.std::unique_ptr.37", ptr %this1, i32 0, i32 0
  %call = call noundef nonnull align 8 dereferenceable(8) ptr @_ZNSt15__uniq_ptr_implIN4cvc58internal10CDProofSetINS1_11LazyCDProofEEESt14default_deleteIS4_EE6_M_ptrEv(ptr noundef nonnull align 8 dereferenceable(8) %_M_t) #3
  store ptr %call, ptr %__ptr, align 8
  %0 = load ptr, ptr %__ptr, align 8
  %1 = load ptr, ptr %0, align 8
  %cmp = icmp ne ptr %1, null
  br i1 %cmp, label %if.then, label %if.end

if.then:                                          ; preds = %entry
  %call2 = call noundef nonnull align 1 dereferenceable(1) ptr @_ZNSt10unique_ptrIN4cvc58internal10CDProofSetINS1_11LazyCDProofEEESt14default_deleteIS4_EE11get_deleterEv(ptr noundef nonnull align 8 dereferenceable(8) %this1) #3
  %2 = load ptr, ptr %__ptr, align 8
  %3 = load ptr, ptr %2, align 8
  invoke void @_ZNKSt14default_deleteIN4cvc58internal10CDProofSetINS1_11LazyCDProofEEEEclEPS4_(ptr noundef nonnull align 1 dereferenceable(1) %call2, ptr noundef %3)
          to label %invoke.cont unwind label %terminate.lpad

invoke.cont:                                      ; preds = %if.then
  br label %if.end

if.end:                                           ; preds = %invoke.cont, %entry
  %4 = load ptr, ptr %__ptr, align 8
  store ptr null, ptr %4, align 8
  ret void

terminate.lpad:                                   ; preds = %if.then
  %5 = landingpad { ptr, i32 }
          catch ptr null
  %6 = extractvalue { ptr, i32 } %5, 0
  call void @__clang_call_terminate(ptr %6) #18
  unreachable
}

; Function Attrs: mustprogress nounwind uwtable
define linkonce_odr hidden void @_ZNSt10unique_ptrIN4cvc58internal11LazyCDProofESt14default_deleteIS2_EED2Ev(ptr noundef nonnull align 8 dereferenceable(8) %this) unnamed_addr #5 comdat align 2 personality ptr @__gxx_personality_v0 {
entry:
  %this.addr = alloca ptr, align 8
  %__ptr = alloca ptr, align 8
  store ptr %this, ptr %this.addr, align 8
  %this1 = load ptr, ptr %this.addr, align 8
  %_M_t = getelementptr inbounds %"class.std::unique_ptr.29", ptr %this1, i32 0, i32 0
  %call = call noundef nonnull align 8 dereferenceable(8) ptr @_ZNSt15__uniq_ptr_implIN4cvc58internal11LazyCDProofESt14default_deleteIS2_EE6_M_ptrEv(ptr noundef nonnull align 8 dereferenceable(8) %_M_t) #3
  store ptr %call, ptr %__ptr, align 8
  %0 = load ptr, ptr %__ptr, align 8
  %1 = load ptr, ptr %0, align 8
  %cmp = icmp ne ptr %1, null
  br i1 %cmp, label %if.then, label %if.end

if.then:                                          ; preds = %entry
  %call2 = call noundef nonnull align 1 dereferenceable(1) ptr @_ZNSt10unique_ptrIN4cvc58internal11LazyCDProofESt14default_deleteIS2_EE11get_deleterEv(ptr noundef nonnull align 8 dereferenceable(8) %this1) #3
  %2 = load ptr, ptr %__ptr, align 8
  %3 = load ptr, ptr %2, align 8
  invoke void @_ZNKSt14default_deleteIN4cvc58internal11LazyCDProofEEclEPS2_(ptr noundef nonnull align 1 dereferenceable(1) %call2, ptr noundef %3)
          to label %invoke.cont unwind label %terminate.lpad

invoke.cont:                                      ; preds = %if.then
  br label %if.end

if.end:                                           ; preds = %invoke.cont, %entry
  %4 = load ptr, ptr %__ptr, align 8
  store ptr null, ptr %4, align 8
  ret void

terminate.lpad:                                   ; preds = %if.then
  %5 = landingpad { ptr, i32 }
          catch ptr null
  %6 = extractvalue { ptr, i32 } %5, 0
  call void @__clang_call_terminate(ptr %6) #18
  unreachable
}

; Function Attrs: mustprogress nounwind uwtable
define linkonce_odr hidden void @_ZNSt10unique_ptrIN4cvc58internal21TheoryProofStepBufferESt14default_deleteIS2_EED2Ev(ptr noundef nonnull align 8 dereferenceable(8) %this) unnamed_addr #5 comdat align 2 personality ptr @__gxx_personality_v0 {
entry:
  %this.addr = alloca ptr, align 8
  %__ptr = alloca ptr, align 8
  store ptr %this, ptr %this.addr, align 8
  %this1 = load ptr, ptr %this.addr, align 8
  %_M_t = getelementptr inbounds %"class.std::unique_ptr", ptr %this1, i32 0, i32 0
  %call = call noundef nonnull align 8 dereferenceable(8) ptr @_ZNSt15__uniq_ptr_implIN4cvc58internal21TheoryProofStepBufferESt14default_deleteIS2_EE6_M_ptrEv(ptr noundef nonnull align 8 dereferenceable(8) %_M_t) #3
  store ptr %call, ptr %__ptr, align 8
  %0 = load ptr, ptr %__ptr, align 8
  %1 = load ptr, ptr %0, align 8
  %cmp = icmp ne ptr %1, null
  br i1 %cmp, label %if.then, label %if.end

if.then:                                          ; preds = %entry
  %call2 = call noundef nonnull align 1 dereferenceable(1) ptr @_ZNSt10unique_ptrIN4cvc58internal21TheoryProofStepBufferESt14default_deleteIS2_EE11get_deleterEv(ptr noundef nonnull align 8 dereferenceable(8) %this1) #3
  %2 = load ptr, ptr %__ptr, align 8
  %3 = load ptr, ptr %2, align 8
  invoke void @_ZNKSt14default_deleteIN4cvc58internal21TheoryProofStepBufferEEclEPS2_(ptr noundef nonnull align 1 dereferenceable(1) %call2, ptr noundef %3)
          to label %invoke.cont unwind label %terminate.lpad

invoke.cont:                                      ; preds = %if.then
  br label %if.end

if.end:                                           ; preds = %invoke.cont, %entry
  %4 = load ptr, ptr %__ptr, align 8
  store ptr null, ptr %4, align 8
  ret void

terminate.lpad:                                   ; preds = %if.then
  %5 = landingpad { ptr, i32 }
          catch ptr null
  %6 = extractvalue { ptr, i32 } %5, 0
  call void @__clang_call_terminate(ptr %6) #18
  unreachable
}

; Function Attrs: mustprogress nounwind uwtable
define linkonce_odr hidden void @_ZN4cvc57context6CDListINS_8internal9TrustNodeENS0_14DefaultCleanUpIS3_EESaIS3_EED2Ev(ptr noundef nonnull align 8 dereferenceable(74) %this) unnamed_addr #5 comdat align 2 personality ptr @__gxx_personality_v0 {
entry:
  %this.addr = alloca ptr, align 8
  store ptr %this, ptr %this.addr, align 8
  %this1 = load ptr, ptr %this.addr, align 8
  store ptr getelementptr inbounds ({ [6 x ptr] }, ptr @_ZTVN4cvc57context6CDListINS_8internal9TrustNodeENS0_14DefaultCleanUpIS3_EESaIS3_EEE, i32 0, inrange i32 0, i32 2), ptr %this1, align 8
  invoke void @_ZN4cvc57context10ContextObj7destroyEv(ptr noundef nonnull align 8 dereferenceable(40) %this1)
          to label %invoke.cont unwind label %terminate.lpad

invoke.cont:                                      ; preds = %entry
  %d_callCleanup = getelementptr inbounds %"class.cvc5::context::CDList", ptr %this1, i32 0, i32 3
  %0 = load i8, ptr %d_callCleanup, align 8
  %tobool = trunc i8 %0 to i1
  br i1 %tobool, label %if.then, label %if.end

if.then:                                          ; preds = %invoke.cont
  invoke void @_ZN4cvc57context6CDListINS_8internal9TrustNodeENS0_14DefaultCleanUpIS3_EESaIS3_EE12truncateListEm(ptr noundef nonnull align 8 dereferenceable(74) %this1, i64 noundef 0)
          to label %invoke.cont2 unwind label %terminate.lpad

invoke.cont2:                                     ; preds = %if.then
  br label %if.end

if.end:                                           ; preds = %invoke.cont2, %invoke.cont
  %d_list = getelementptr inbounds %"class.cvc5::context::CDList", ptr %this1, i32 0, i32 1
  call void @_ZNSt6vectorIN4cvc58internal9TrustNodeESaIS2_EED2Ev(ptr noundef nonnull align 8 dereferenceable(24) %d_list) #3
  call void @_ZN4cvc57context10ContextObjD2Ev(ptr noundef nonnull align 8 dereferenceable(40) %this1) #3
  ret void

terminate.lpad:                                   ; preds = %if.then, %entry
  %1 = landingpad { ptr, i32 }
          catch ptr null
  %2 = extractvalue { ptr, i32 } %1, 0
  call void @__clang_call_terminate(ptr %2) #18
  unreachable
}

; Function Attrs: mustprogress nounwind uwtable
define linkonce_odr hidden void @_ZN4cvc58internal6theory15SubstitutionMapD2Ev(ptr noundef nonnull align 8 dereferenceable(256) %this) unnamed_addr #5 comdat align 2 {
entry:
  %this.addr = alloca ptr, align 8
  store ptr %this, ptr %this.addr, align 8
  %this1 = load ptr, ptr %this.addr, align 8
  %d_cacheInvalidator = getelementptr inbounds %"class.cvc5::internal::theory::SubstitutionMap", ptr %this1, i32 0, i32 4
  call void @_ZN4cvc58internal6theory15SubstitutionMap16CacheInvalidatorD2Ev(ptr noundef nonnull align 8 dereferenceable(32) %d_cacheInvalidator) #3
  %d_substitutionCache = getelementptr inbounds %"class.cvc5::internal::theory::SubstitutionMap", ptr %this1, i32 0, i32 2
  call void @_ZNSt13unordered_mapIN4cvc58internal12NodeTemplateILb1EEES3_St4hashIS3_ESt8equal_toIS3_ESaISt4pairIKS3_S3_EEED2Ev(ptr noundef nonnull align 8 dereferenceable(56) %d_substitutionCache) #3
  %d_substitutions = getelementptr inbounds %"class.cvc5::internal::theory::SubstitutionMap", ptr %this1, i32 0, i32 1
  call void @_ZN4cvc57context9CDHashMapINS_8internal12NodeTemplateILb1EEES4_St4hashIS4_EED2Ev(ptr noundef nonnull align 8 dereferenceable(112) %d_substitutions) #3
  %d_context = getelementptr inbounds %"class.cvc5::internal::theory::SubstitutionMap", ptr %this1, i32 0, i32 0
  call void @_ZN4cvc57context7ContextD1Ev(ptr noundef nonnull align 8 dereferenceable(48) %d_context) #3
  ret void
}

; Function Attrs: nounwind
declare void @_ZN4cvc58internal14ProofGeneratorD2Ev(ptr noundef nonnull align 8 dereferenceable(8)) unnamed_addr #2

; Function Attrs: mustprogress nounwind uwtable
define linkonce_odr hidden void @_ZN4cvc58internal6EnvObjD2Ev(ptr noundef nonnull align 8 dereferenceable(16) %this) unnamed_addr #5 comdat align 2 {
entry:
  %this.addr = alloca ptr, align 8
  store ptr %this, ptr %this.addr, align 8
  ret void
}

; Function Attrs: mustprogress uwtable
define hidden void @_ZN4cvc58internal6theory20TrustSubstitutionMap15addSubstitutionENS0_12NodeTemplateILb0EEES4_PNS0_14ProofGeneratorE(ptr noundef nonnull align 8 dereferenceable(608) %this, ptr noundef %x, ptr noundef %t, ptr noundef %pg) #4 align 2 personality ptr @__gxx_personality_v0 {
entry:
  %this.addr = alloca ptr, align 8
  %x.indirect_addr = alloca ptr, align 8
  %t.indirect_addr = alloca ptr, align 8
  %pg.addr = alloca ptr, align 8
  %ref.tmp = alloca %"class.cvc5::internal::__cvc5_true", align 1
  %tmp = alloca %"class.cvc5::internal::Cvc5ostream", align 8
  %agg.tmp.ensured = alloca %"class.cvc5::internal::Cvc5ostream", align 8
  %ref.tmp2 = alloca %"class.cvc5::internal::Cvc5ostream", align 8
  %agg.tmp = alloca %"class.cvc5::internal::NodeTemplate.376", align 8
  %agg.tmp8 = alloca %"class.cvc5::internal::NodeTemplate.376", align 8
  %exn.slot = alloca ptr, align 8
  %ehselector.slot = alloca i32, align 4
  %tnl = alloca %"class.cvc5::internal::TrustNode", align 8
  %agg.tmp12 = alloca %"class.cvc5::internal::NodeTemplate.376", align 8
  %agg.tmp13 = alloca %"class.cvc5::internal::NodeTemplate", align 8
  %agg.tmp23 = alloca %"class.cvc5::internal::NodeTemplate", align 8
  store ptr %this, ptr %this.addr, align 8
  store ptr %x, ptr %x.indirect_addr, align 8
  store ptr %t, ptr %t.indirect_addr, align 8
  store ptr %pg, ptr %pg.addr, align 8
  %this1 = load ptr, ptr %this.addr, align 8
  %call = call noundef zeroext i1 @_ZN4cvc58internal11__cvc5_truecvbEv(ptr noundef nonnull align 1 dereferenceable(1) %ref.tmp)
  br i1 %call, label %cond.true, label %cond.false

cond.true:                                        ; preds = %entry
  call void @_ZNK4cvc58internal5NullCcvNS0_11Cvc5ostreamEEv(ptr sret(%"class.cvc5::internal::Cvc5ostream") align 8 %tmp, ptr noundef nonnull align 1 dereferenceable(1) @_ZN4cvc58internal10nullStreamE)
  br label %cond.end

cond.false:                                       ; preds = %entry
  call void @_ZNK4cvc58internal6TraceCclEv(ptr sret(%"class.cvc5::internal::Cvc5ostream") align 8 %ref.tmp2, ptr noundef nonnull align 8 dereferenceable(32) @_ZN4cvc58internal12TraceChannelE)
  %call3 = call noundef nonnull align 8 dereferenceable(24) ptr @_ZN4cvc58internal11Cvc5ostreamlsIA44_cEERS1_RKT_(ptr noundef nonnull align 8 dereferenceable(24) %ref.tmp2, ptr noundef nonnull align 1 dereferenceable(44) @.str.3)
  %call4 = call noundef nonnull align 8 dereferenceable(24) ptr @_ZN4cvc58internal11Cvc5ostreamlsINS0_12NodeTemplateILb0EEEEERS1_RKT_(ptr noundef nonnull align 8 dereferenceable(24) %call3, ptr noundef nonnull align 8 dereferenceable(8) %x)
  %call5 = call noundef nonnull align 8 dereferenceable(24) ptr @_ZN4cvc58internal11Cvc5ostreamlsIA5_cEERS1_RKT_(ptr noundef nonnull align 8 dereferenceable(24) %call4, ptr noundef nonnull align 1 dereferenceable(5) @.str.4)
  %call6 = call noundef nonnull align 8 dereferenceable(24) ptr @_ZN4cvc58internal11Cvc5ostreamlsINS0_12NodeTemplateILb0EEEEERS1_RKT_(ptr noundef nonnull align 8 dereferenceable(24) %call5, ptr noundef nonnull align 8 dereferenceable(8) %t)
  %call7 = call noundef nonnull align 8 dereferenceable(24) ptr @_ZN4cvc58internal11Cvc5ostreamlsEPFRSoS2_E(ptr noundef nonnull align 8 dereferenceable(24) %call6, ptr noundef @_ZSt4endlIcSt11char_traitsIcEERSt13basic_ostreamIT_T0_ES6_)
  call void @llvm.memcpy.p0.p0.i64(ptr align 8 %agg.tmp.ensured, ptr align 8 %call7, i64 24, i1 false)
  br label %cond.end

cond.end:                                         ; preds = %cond.false, %cond.true
  %d_subs = getelementptr inbounds %"class.cvc5::internal::theory::TrustSubstitutionMap", ptr %this1, i32 0, i32 3
  call void @_ZN4cvc58internal12NodeTemplateILb0EEC2ERKS2_(ptr noundef nonnull align 8 dereferenceable(8) %agg.tmp, ptr noundef nonnull align 8 dereferenceable(8) %x)
  invoke void @_ZN4cvc58internal12NodeTemplateILb0EEC2ERKS2_(ptr noundef nonnull align 8 dereferenceable(8) %agg.tmp8, ptr noundef nonnull align 8 dereferenceable(8) %t)
          to label %invoke.cont unwind label %lpad

invoke.cont:                                      ; preds = %cond.end
  invoke void @_ZN4cvc58internal6theory15SubstitutionMap15addSubstitutionENS0_12NodeTemplateILb0EEES4_b(ptr noundef nonnull align 8 dereferenceable(256) %d_subs, ptr noundef %agg.tmp, ptr noundef %agg.tmp8, i1 noundef zeroext true)
          to label %invoke.cont10 unwind label %lpad9

invoke.cont10:                                    ; preds = %invoke.cont
  call void @_ZN4cvc58internal12NodeTemplateILb0EED2Ev(ptr noundef nonnull align 8 dereferenceable(8) %agg.tmp8) #3
  call void @_ZN4cvc58internal12NodeTemplateILb0EED2Ev(ptr noundef nonnull align 8 dereferenceable(8) %agg.tmp) #3
  %call11 = call noundef zeroext i1 @_ZNK4cvc58internal6theory20TrustSubstitutionMap14isProofEnabledEv(ptr noundef nonnull align 8 dereferenceable(608) %this1)
  br i1 %call11, label %if.then, label %if.end

if.then:                                          ; preds = %invoke.cont10
  call void @_ZN4cvc58internal12NodeTemplateILb0EEC2ERKS2_(ptr noundef nonnull align 8 dereferenceable(8) %agg.tmp12, ptr noundef nonnull align 8 dereferenceable(8) %x)
  invoke void @_ZN4cvc58internal12NodeTemplateILb1EEC2ERKNS1_ILb0EEE(ptr noundef nonnull align 8 dereferenceable(8) %agg.tmp13, ptr noundef nonnull align 8 dereferenceable(8) %t)
          to label %invoke.cont15 unwind label %lpad14

invoke.cont15:                                    ; preds = %if.then
  %0 = load ptr, ptr %pg.addr, align 8
  invoke void @_ZN4cvc58internal9TrustNode14mkTrustRewriteENS0_12NodeTemplateILb0EEENS2_ILb1EEEPNS0_14ProofGeneratorE(ptr sret(%"class.cvc5::internal::TrustNode") align 8 %tnl, ptr noundef %agg.tmp12, ptr noundef %agg.tmp13, ptr noundef %0)
          to label %invoke.cont17 unwind label %lpad16

invoke.cont17:                                    ; preds = %invoke.cont15
  call void @_ZN4cvc58internal12NodeTemplateILb1EED2Ev(ptr noundef nonnull align 8 dereferenceable(8) %agg.tmp13) #3
  call void @_ZN4cvc58internal12NodeTemplateILb0EED2Ev(ptr noundef nonnull align 8 dereferenceable(8) %agg.tmp12) #3
  %d_tsubs = getelementptr inbounds %"class.cvc5::internal::theory::TrustSubstitutionMap", ptr %this1, i32 0, i32 4
  invoke void @_ZN4cvc57context6CDListINS_8internal9TrustNodeENS0_14DefaultCleanUpIS3_EESaIS3_EE9push_backERKS3_(ptr noundef nonnull align 8 dereferenceable(74) %d_tsubs, ptr noundef nonnull align 8 dereferenceable(24) %tnl)
          to label %invoke.cont21 unwind label %lpad20

invoke.cont21:                                    ; preds = %invoke.cont17
  %d_subsPg = getelementptr inbounds %"class.cvc5::internal::theory::TrustSubstitutionMap", ptr %this1, i32 0, i32 6
  %call22 = call noundef ptr @_ZNKSt10unique_ptrIN4cvc58internal11LazyCDProofESt14default_deleteIS2_EEptEv(ptr noundef nonnull align 8 dereferenceable(8) %d_subsPg) #3
  invoke void @_ZNK4cvc58internal9TrustNode9getProvenEv(ptr sret(%"class.cvc5::internal::NodeTemplate") align 8 %agg.tmp23, ptr noundef nonnull align 8 dereferenceable(24) %tnl)
          to label %invoke.cont24 unwind label %lpad20

invoke.cont24:                                    ; preds = %invoke.cont21
  %1 = load ptr, ptr %pg.addr, align 8
  %d_trustId = getelementptr inbounds %"class.cvc5::internal::theory::TrustSubstitutionMap", ptr %this1, i32 0, i32 10
  %2 = load i32, ptr %d_trustId, align 8
  invoke void @_ZN4cvc58internal11LazyCDProof11addLazyStepENS0_12NodeTemplateILb1EEEPNS0_14ProofGeneratorENS0_7TrustIdEbPKcb(ptr noundef nonnull align 8 dereferenceable(408) %call22, ptr noundef %agg.tmp23, ptr noundef %1, i32 noundef %2, i1 noundef zeroext false, ptr noundef @.str.5, i1 noundef zeroext false)
          to label %invoke.cont26 unwind label %lpad25

invoke.cont26:                                    ; preds = %invoke.cont24
  call void @_ZN4cvc58internal12NodeTemplateILb1EED2Ev(ptr noundef nonnull align 8 dereferenceable(8) %agg.tmp23) #3
  call void @_ZN4cvc58internal9TrustNodeD2Ev(ptr noundef nonnull align 8 dereferenceable(24) %tnl) #3
  br label %if.end

lpad:                                             ; preds = %cond.end
  %3 = landingpad { ptr, i32 }
          cleanup
  %4 = extractvalue { ptr, i32 } %3, 0
  store ptr %4, ptr %exn.slot, align 8
  %5 = extractvalue { ptr, i32 } %3, 1
  store i32 %5, ptr %ehselector.slot, align 4
  br label %ehcleanup

lpad9:                                            ; preds = %invoke.cont
  %6 = landingpad { ptr, i32 }
          cleanup
  %7 = extractvalue { ptr, i32 } %6, 0
  store ptr %7, ptr %exn.slot, align 8
  %8 = extractvalue { ptr, i32 } %6, 1
  store i32 %8, ptr %ehselector.slot, align 4
  call void @_ZN4cvc58internal12NodeTemplateILb0EED2Ev(ptr noundef nonnull align 8 dereferenceable(8) %agg.tmp8) #3
  br label %ehcleanup

ehcleanup:                                        ; preds = %lpad9, %lpad
  call void @_ZN4cvc58internal12NodeTemplateILb0EED2Ev(ptr noundef nonnull align 8 dereferenceable(8) %agg.tmp) #3
  br label %eh.resume

lpad14:                                           ; preds = %if.then
  %9 = landingpad { ptr, i32 }
          cleanup
  %10 = extractvalue { ptr, i32 } %9, 0
  store ptr %10, ptr %exn.slot, align 8
  %11 = extractvalue { ptr, i32 } %9, 1
  store i32 %11, ptr %ehselector.slot, align 4
  br label %ehcleanup19

lpad16:                                           ; preds = %invoke.cont15
  %12 = landingpad { ptr, i32 }
          cleanup
  %13 = extractvalue { ptr, i32 } %12, 0
  store ptr %13, ptr %exn.slot, align 8
  %14 = extractvalue { ptr, i32 } %12, 1
  store i32 %14, ptr %ehselector.slot, align 4
  call void @_ZN4cvc58internal12NodeTemplateILb1EED2Ev(ptr noundef nonnull align 8 dereferenceable(8) %agg.tmp13) #3
  br label %ehcleanup19

ehcleanup19:                                      ; preds = %lpad16, %lpad14
  call void @_ZN4cvc58internal12NodeTemplateILb0EED2Ev(ptr noundef nonnull align 8 dereferenceable(8) %agg.tmp12) #3
  br label %eh.resume

lpad20:                                           ; preds = %invoke.cont21, %invoke.cont17
  %15 = landingpad { ptr, i32 }
          cleanup
  %16 = extractvalue { ptr, i32 } %15, 0
  store ptr %16, ptr %exn.slot, align 8
  %17 = extractvalue { ptr, i32 } %15, 1
  store i32 %17, ptr %ehselector.slot, align 4
  br label %ehcleanup28

lpad25:                                           ; preds = %invoke.cont24
  %18 = landingpad { ptr, i32 }
          cleanup
  %19 = extractvalue { ptr, i32 } %18, 0
  store ptr %19, ptr %exn.slot, align 8
  %20 = extractvalue { ptr, i32 } %18, 1
  store i32 %20, ptr %ehselector.slot, align 4
  call void @_ZN4cvc58internal12NodeTemplateILb1EED2Ev(ptr noundef nonnull align 8 dereferenceable(8) %agg.tmp23) #3
  br label %ehcleanup28

ehcleanup28:                                      ; preds = %lpad25, %lpad20
  call void @_ZN4cvc58internal9TrustNodeD2Ev(ptr noundef nonnull align 8 dereferenceable(24) %tnl) #3
  br label %eh.resume

if.end:                                           ; preds = %invoke.cont26, %invoke.cont10
  ret void

eh.resume:                                        ; preds = %ehcleanup28, %ehcleanup19, %ehcleanup
  %exn = load ptr, ptr %exn.slot, align 8
  %sel = load i32, ptr %ehselector.slot, align 4
  %lpad.val = insertvalue { ptr, i32 } poison, ptr %exn, 0
  %lpad.val29 = insertvalue { ptr, i32 } %lpad.val, i32 %sel, 1
  resume { ptr, i32 } %lpad.val29
}

; Function Attrs: mustprogress nounwind uwtable
define linkonce_odr hidden noundef zeroext i1 @_ZN4cvc58internal11__cvc5_truecvbEv(ptr noundef nonnull align 1 dereferenceable(1) %this) #5 comdat align 2 {
entry:
  %this.addr = alloca ptr, align 8
  store ptr %this, ptr %this.addr, align 8
  ret i1 true
}

; Function Attrs: mustprogress uwtable
define linkonce_odr hidden void @_ZNK4cvc58internal5NullCcvNS0_11Cvc5ostreamEEv(ptr noalias sret(%"class.cvc5::internal::Cvc5ostream") align 8 %agg.result, ptr noundef nonnull align 1 dereferenceable(1) %this) #4 comdat align 2 {
entry:
  %this.addr = alloca ptr, align 8
  store ptr %this, ptr %this.addr, align 8
  call void @_ZN4cvc58internal11Cvc5ostreamC2Ev(ptr noundef nonnull align 8 dereferenceable(24) %agg.result)
  ret void
}

; Function Attrs: mustprogress uwtable
define linkonce_odr hidden void @_ZNK4cvc58internal6TraceCclEv(ptr noalias sret(%"class.cvc5::internal::Cvc5ostream") align 8 %agg.result, ptr noundef nonnull align 8 dereferenceable(32) %this) #4 comdat align 2 {
entry:
  %this.addr = alloca ptr, align 8
  store ptr %this, ptr %this.addr, align 8
  %this1 = load ptr, ptr %this.addr, align 8
  %d_os = getelementptr inbounds %"class.cvc5::internal::TraceC", ptr %this1, i32 0, i32 0
  %0 = load ptr, ptr %d_os, align 8
  call void @_ZN4cvc58internal11Cvc5ostreamC2EPSo(ptr noundef nonnull align 8 dereferenceable(24) %agg.result, ptr noundef %0)
  ret void
}

; Function Attrs: mustprogress uwtable
define linkonce_odr hidden noundef nonnull align 8 dereferenceable(24) ptr @_ZN4cvc58internal11Cvc5ostreamlsIA44_cEERS1_RKT_(ptr noundef nonnull align 8 dereferenceable(24) %this, ptr noundef nonnull align 1 dereferenceable(44) %t) #4 comdat align 2 {
entry:
  %this.addr = alloca ptr, align 8
  %t.addr = alloca ptr, align 8
  %indent = alloca i64, align 8
  %i = alloca i64, align 8
  store ptr %this, ptr %this.addr, align 8
  store ptr %t, ptr %t.addr, align 8
  %this1 = load ptr, ptr %this.addr, align 8
  %d_os = getelementptr inbounds %"class.cvc5::internal::Cvc5ostream", ptr %this1, i32 0, i32 0
  %0 = load ptr, ptr %d_os, align 8
  %cmp = icmp ne ptr %0, null
  br i1 %cmp, label %if.then, label %if.end11

if.then:                                          ; preds = %entry
  %d_firstColumn = getelementptr inbounds %"class.cvc5::internal::Cvc5ostream", ptr %this1, i32 0, i32 1
  %1 = load i8, ptr %d_firstColumn, align 8
  %tobool = trunc i8 %1 to i1
  br i1 %tobool, label %if.then2, label %if.end

if.then2:                                         ; preds = %if.then
  %d_firstColumn3 = getelementptr inbounds %"class.cvc5::internal::Cvc5ostream", ptr %this1, i32 0, i32 1
  store i8 0, ptr %d_firstColumn3, align 8
  %d_os4 = getelementptr inbounds %"class.cvc5::internal::Cvc5ostream", ptr %this1, i32 0, i32 0
  %2 = load ptr, ptr %d_os4, align 8
  %vtable = load ptr, ptr %2, align 8
  %vbase.offset.ptr = getelementptr i8, ptr %vtable, i64 -24
  %vbase.offset = load i64, ptr %vbase.offset.ptr, align 8
  %add.ptr = getelementptr inbounds i8, ptr %2, i64 %vbase.offset
  %3 = load i32, ptr @_ZN4cvc58internal11Cvc5ostream16s_indentIosIndexE, align 4
  %call = call noundef nonnull align 8 dereferenceable(8) ptr @_ZNSt8ios_base5iwordEi(ptr noundef nonnull align 8 dereferenceable(216) %add.ptr, i32 noundef %3)
  %4 = load i64, ptr %call, align 8
  store i64 %4, ptr %indent, align 8
  store i64 0, ptr %i, align 8
  br label %for.cond

for.cond:                                         ; preds = %for.inc, %if.then2
  %5 = load i64, ptr %i, align 8
  %6 = load i64, ptr %indent, align 8
  %cmp5 = icmp slt i64 %5, %6
  br i1 %cmp5, label %for.body, label %for.end

for.body:                                         ; preds = %for.cond
  %d_os6 = getelementptr inbounds %"class.cvc5::internal::Cvc5ostream", ptr %this1, i32 0, i32 0
  %7 = load ptr, ptr %d_os6, align 8
  %call7 = call noundef nonnull align 8 dereferenceable(8) ptr @_ZStlsIcSt11char_traitsIcESaIcEERSt13basic_ostreamIT_T0_ES7_RKNSt7__cxx1112basic_stringIS4_S5_T1_EE(ptr noundef nonnull align 8 dereferenceable(8) %7, ptr noundef nonnull align 8 dereferenceable(32) @_ZN4cvc58internal11Cvc5ostream5s_tabB5cxx11E)
  %d_os8 = getelementptr inbounds %"class.cvc5::internal::Cvc5ostream", ptr %this1, i32 0, i32 0
  store ptr %call7, ptr %d_os8, align 8
  br label %for.inc

for.inc:                                          ; preds = %for.body
  %8 = load i64, ptr %i, align 8
  %inc = add nsw i64 %8, 1
  store i64 %inc, ptr %i, align 8
  br label %for.cond, !llvm.loop !4

for.end:                                          ; preds = %for.cond
  br label %if.end

if.end:                                           ; preds = %for.end, %if.then
  %d_os9 = getelementptr inbounds %"class.cvc5::internal::Cvc5ostream", ptr %this1, i32 0, i32 0
  %9 = load ptr, ptr %d_os9, align 8
  %10 = load ptr, ptr %t.addr, align 8
  %arraydecay = getelementptr inbounds [44 x i8], ptr %10, i64 0, i64 0
  %call10 = call noundef nonnull align 8 dereferenceable(8) ptr @_ZStlsISt11char_traitsIcEERSt13basic_ostreamIcT_ES5_PKc(ptr noundef nonnull align 8 dereferenceable(8) %9, ptr noundef %arraydecay)
  br label %if.end11

if.end11:                                         ; preds = %if.end, %entry
  ret ptr %this1
}

; Function Attrs: mustprogress uwtable
define linkonce_odr hidden noundef nonnull align 8 dereferenceable(24) ptr @_ZN4cvc58internal11Cvc5ostreamlsINS0_12NodeTemplateILb0EEEEERS1_RKT_(ptr noundef nonnull align 8 dereferenceable(24) %this, ptr noundef nonnull align 8 dereferenceable(8) %t) #4 comdat align 2 personality ptr @__gxx_personality_v0 {
entry:
  %this.addr = alloca ptr, align 8
  %t.addr = alloca ptr, align 8
  %indent = alloca i64, align 8
  %i = alloca i64, align 8
  %agg.tmp = alloca %"class.cvc5::internal::NodeTemplate.376", align 8
  %exn.slot = alloca ptr, align 8
  %ehselector.slot = alloca i32, align 4
  store ptr %this, ptr %this.addr, align 8
  store ptr %t, ptr %t.addr, align 8
  %this1 = load ptr, ptr %this.addr, align 8
  %d_os = getelementptr inbounds %"class.cvc5::internal::Cvc5ostream", ptr %this1, i32 0, i32 0
  %0 = load ptr, ptr %d_os, align 8
  %cmp = icmp ne ptr %0, null
  br i1 %cmp, label %if.then, label %if.end11

if.then:                                          ; preds = %entry
  %d_firstColumn = getelementptr inbounds %"class.cvc5::internal::Cvc5ostream", ptr %this1, i32 0, i32 1
  %1 = load i8, ptr %d_firstColumn, align 8
  %tobool = trunc i8 %1 to i1
  br i1 %tobool, label %if.then2, label %if.end

if.then2:                                         ; preds = %if.then
  %d_firstColumn3 = getelementptr inbounds %"class.cvc5::internal::Cvc5ostream", ptr %this1, i32 0, i32 1
  store i8 0, ptr %d_firstColumn3, align 8
  %d_os4 = getelementptr inbounds %"class.cvc5::internal::Cvc5ostream", ptr %this1, i32 0, i32 0
  %2 = load ptr, ptr %d_os4, align 8
  %vtable = load ptr, ptr %2, align 8
  %vbase.offset.ptr = getelementptr i8, ptr %vtable, i64 -24
  %vbase.offset = load i64, ptr %vbase.offset.ptr, align 8
  %add.ptr = getelementptr inbounds i8, ptr %2, i64 %vbase.offset
  %3 = load i32, ptr @_ZN4cvc58internal11Cvc5ostream16s_indentIosIndexE, align 4
  %call = call noundef nonnull align 8 dereferenceable(8) ptr @_ZNSt8ios_base5iwordEi(ptr noundef nonnull align 8 dereferenceable(216) %add.ptr, i32 noundef %3)
  %4 = load i64, ptr %call, align 8
  store i64 %4, ptr %indent, align 8
  store i64 0, ptr %i, align 8
  br label %for.cond

for.cond:                                         ; preds = %for.inc, %if.then2
  %5 = load i64, ptr %i, align 8
  %6 = load i64, ptr %indent, align 8
  %cmp5 = icmp slt i64 %5, %6
  br i1 %cmp5, label %for.body, label %for.end

for.body:                                         ; preds = %for.cond
  %d_os6 = getelementptr inbounds %"class.cvc5::internal::Cvc5ostream", ptr %this1, i32 0, i32 0
  %7 = load ptr, ptr %d_os6, align 8
  %call7 = call noundef nonnull align 8 dereferenceable(8) ptr @_ZStlsIcSt11char_traitsIcESaIcEERSt13basic_ostreamIT_T0_ES7_RKNSt7__cxx1112basic_stringIS4_S5_T1_EE(ptr noundef nonnull align 8 dereferenceable(8) %7, ptr noundef nonnull align 8 dereferenceable(32) @_ZN4cvc58internal11Cvc5ostream5s_tabB5cxx11E)
  %d_os8 = getelementptr inbounds %"class.cvc5::internal::Cvc5ostream", ptr %this1, i32 0, i32 0
  store ptr %call7, ptr %d_os8, align 8
  br label %for.inc

for.inc:                                          ; preds = %for.body
  %8 = load i64, ptr %i, align 8
  %inc = add nsw i64 %8, 1
  store i64 %inc, ptr %i, align 8
  br label %for.cond, !llvm.loop !6

for.end:                                          ; preds = %for.cond
  br label %if.end

if.end:                                           ; preds = %for.end, %if.then
  %d_os9 = getelementptr inbounds %"class.cvc5::internal::Cvc5ostream", ptr %this1, i32 0, i32 0
  %9 = load ptr, ptr %d_os9, align 8
  %10 = load ptr, ptr %t.addr, align 8
  call void @_ZN4cvc58internal12NodeTemplateILb0EEC2ERKS2_(ptr noundef nonnull align 8 dereferenceable(8) %agg.tmp, ptr noundef nonnull align 8 dereferenceable(8) %10)
  %call10 = invoke noundef nonnull align 8 dereferenceable(8) ptr @_ZN4cvc58internallsERSoNS0_12NodeTemplateILb0EEE(ptr noundef nonnull align 8 dereferenceable(8) %9, ptr noundef %agg.tmp)
          to label %invoke.cont unwind label %lpad

invoke.cont:                                      ; preds = %if.end
  call void @_ZN4cvc58internal12NodeTemplateILb0EED2Ev(ptr noundef nonnull align 8 dereferenceable(8) %agg.tmp) #3
  br label %if.end11

lpad:                                             ; preds = %if.end
  %11 = landingpad { ptr, i32 }
          cleanup
  %12 = extractvalue { ptr, i32 } %11, 0
  store ptr %12, ptr %exn.slot, align 8
  %13 = extractvalue { ptr, i32 } %11, 1
  store i32 %13, ptr %ehselector.slot, align 4
  call void @_ZN4cvc58internal12NodeTemplateILb0EED2Ev(ptr noundef nonnull align 8 dereferenceable(8) %agg.tmp) #3
  br label %eh.resume

if.end11:                                         ; preds = %invoke.cont, %entry
  ret ptr %this1

eh.resume:                                        ; preds = %lpad
  %exn = load ptr, ptr %exn.slot, align 8
  %sel = load i32, ptr %ehselector.slot, align 4
  %lpad.val = insertvalue { ptr, i32 } poison, ptr %exn, 0
  %lpad.val12 = insertvalue { ptr, i32 } %lpad.val, i32 %sel, 1
  resume { ptr, i32 } %lpad.val12
}

; Function Attrs: mustprogress uwtable
define linkonce_odr hidden noundef nonnull align 8 dereferenceable(24) ptr @_ZN4cvc58internal11Cvc5ostreamlsIA5_cEERS1_RKT_(ptr noundef nonnull align 8 dereferenceable(24) %this, ptr noundef nonnull align 1 dereferenceable(5) %t) #4 comdat align 2 {
entry:
  %this.addr = alloca ptr, align 8
  %t.addr = alloca ptr, align 8
  %indent = alloca i64, align 8
  %i = alloca i64, align 8
  store ptr %this, ptr %this.addr, align 8
  store ptr %t, ptr %t.addr, align 8
  %this1 = load ptr, ptr %this.addr, align 8
  %d_os = getelementptr inbounds %"class.cvc5::internal::Cvc5ostream", ptr %this1, i32 0, i32 0
  %0 = load ptr, ptr %d_os, align 8
  %cmp = icmp ne ptr %0, null
  br i1 %cmp, label %if.then, label %if.end11

if.then:                                          ; preds = %entry
  %d_firstColumn = getelementptr inbounds %"class.cvc5::internal::Cvc5ostream", ptr %this1, i32 0, i32 1
  %1 = load i8, ptr %d_firstColumn, align 8
  %tobool = trunc i8 %1 to i1
  br i1 %tobool, label %if.then2, label %if.end

if.then2:                                         ; preds = %if.then
  %d_firstColumn3 = getelementptr inbounds %"class.cvc5::internal::Cvc5ostream", ptr %this1, i32 0, i32 1
  store i8 0, ptr %d_firstColumn3, align 8
  %d_os4 = getelementptr inbounds %"class.cvc5::internal::Cvc5ostream", ptr %this1, i32 0, i32 0
  %2 = load ptr, ptr %d_os4, align 8
  %vtable = load ptr, ptr %2, align 8
  %vbase.offset.ptr = getelementptr i8, ptr %vtable, i64 -24
  %vbase.offset = load i64, ptr %vbase.offset.ptr, align 8
  %add.ptr = getelementptr inbounds i8, ptr %2, i64 %vbase.offset
  %3 = load i32, ptr @_ZN4cvc58internal11Cvc5ostream16s_indentIosIndexE, align 4
  %call = call noundef nonnull align 8 dereferenceable(8) ptr @_ZNSt8ios_base5iwordEi(ptr noundef nonnull align 8 dereferenceable(216) %add.ptr, i32 noundef %3)
  %4 = load i64, ptr %call, align 8
  store i64 %4, ptr %indent, align 8
  store i64 0, ptr %i, align 8
  br label %for.cond

for.cond:                                         ; preds = %for.inc, %if.then2
  %5 = load i64, ptr %i, align 8
  %6 = load i64, ptr %indent, align 8
  %cmp5 = icmp slt i64 %5, %6
  br i1 %cmp5, label %for.body, label %for.end

for.body:                                         ; preds = %for.cond
  %d_os6 = getelementptr inbounds %"class.cvc5::internal::Cvc5ostream", ptr %this1, i32 0, i32 0
  %7 = load ptr, ptr %d_os6, align 8
  %call7 = call noundef nonnull align 8 dereferenceable(8) ptr @_ZStlsIcSt11char_traitsIcESaIcEERSt13basic_ostreamIT_T0_ES7_RKNSt7__cxx1112basic_stringIS4_S5_T1_EE(ptr noundef nonnull align 8 dereferenceable(8) %7, ptr noundef nonnull align 8 dereferenceable(32) @_ZN4cvc58internal11Cvc5ostream5s_tabB5cxx11E)
  %d_os8 = getelementptr inbounds %"class.cvc5::internal::Cvc5ostream", ptr %this1, i32 0, i32 0
  store ptr %call7, ptr %d_os8, align 8
  br label %for.inc

for.inc:                                          ; preds = %for.body
  %8 = load i64, ptr %i, align 8
  %inc = add nsw i64 %8, 1
  store i64 %inc, ptr %i, align 8
  br label %for.cond, !llvm.loop !7

for.end:                                          ; preds = %for.cond
  br label %if.end

if.end:                                           ; preds = %for.end, %if.then
  %d_os9 = getelementptr inbounds %"class.cvc5::internal::Cvc5ostream", ptr %this1, i32 0, i32 0
  %9 = load ptr, ptr %d_os9, align 8
  %10 = load ptr, ptr %t.addr, align 8
  %arraydecay = getelementptr inbounds [5 x i8], ptr %10, i64 0, i64 0
  %call10 = call noundef nonnull align 8 dereferenceable(8) ptr @_ZStlsISt11char_traitsIcEERSt13basic_ostreamIcT_ES5_PKc(ptr noundef nonnull align 8 dereferenceable(8) %9, ptr noundef %arraydecay)
  br label %if.end11

if.end11:                                         ; preds = %if.end, %entry
  ret ptr %this1
}

; Function Attrs: mustprogress uwtable
define linkonce_odr hidden noundef nonnull align 8 dereferenceable(24) ptr @_ZN4cvc58internal11Cvc5ostreamlsEPFRSoS2_E(ptr noundef nonnull align 8 dereferenceable(24) %this, ptr noundef %pf) #4 comdat align 2 {
entry:
  %this.addr = alloca ptr, align 8
  %pf.addr = alloca ptr, align 8
  store ptr %this, ptr %this.addr, align 8
  store ptr %pf, ptr %pf.addr, align 8
  %this1 = load ptr, ptr %this.addr, align 8
  %d_os = getelementptr inbounds %"class.cvc5::internal::Cvc5ostream", ptr %this1, i32 0, i32 0
  %0 = load ptr, ptr %d_os, align 8
  %cmp = icmp ne ptr %0, null
  br i1 %cmp, label %if.then, label %if.end6

if.then:                                          ; preds = %entry
  %d_os2 = getelementptr inbounds %"class.cvc5::internal::Cvc5ostream", ptr %this1, i32 0, i32 0
  %1 = load ptr, ptr %d_os2, align 8
  %2 = load ptr, ptr %pf.addr, align 8
  %call = call noundef nonnull align 8 dereferenceable(8) ptr @_ZNSolsEPFRSoS_E(ptr noundef nonnull align 8 dereferenceable(8) %1, ptr noundef %2)
  %d_os3 = getelementptr inbounds %"class.cvc5::internal::Cvc5ostream", ptr %this1, i32 0, i32 0
  store ptr %call, ptr %d_os3, align 8
  %3 = load ptr, ptr %pf.addr, align 8
  %d_endl = getelementptr inbounds %"class.cvc5::internal::Cvc5ostream", ptr %this1, i32 0, i32 2
  %4 = load ptr, ptr %d_endl, align 8
  %cmp4 = icmp eq ptr %3, %4
  br i1 %cmp4, label %if.then5, label %if.end

if.then5:                                         ; preds = %if.then
  %d_firstColumn = getelementptr inbounds %"class.cvc5::internal::Cvc5ostream", ptr %this1, i32 0, i32 1
  store i8 1, ptr %d_firstColumn, align 8
  br label %if.end

if.end:                                           ; preds = %if.then5, %if.then
  br label %if.end6

if.end6:                                          ; preds = %if.end, %entry
  ret ptr %this1
}

declare noundef nonnull align 8 dereferenceable(8) ptr @_ZSt4endlIcSt11char_traitsIcEERSt13basic_ostreamIT_T0_ES6_(ptr noundef nonnull align 8 dereferenceable(8)) #1

; Function Attrs: nocallback nofree nounwind willreturn memory(argmem: readwrite)
declare void @llvm.memcpy.p0.p0.i64(ptr noalias nocapture writeonly, ptr noalias nocapture readonly, i64, i1 immarg) #8

declare void @_ZN4cvc58internal6theory15SubstitutionMap15addSubstitutionENS0_12NodeTemplateILb0EEES4_b(ptr noundef nonnull align 8 dereferenceable(256), ptr noundef, ptr noundef, i1 noundef zeroext) #1

; Function Attrs: mustprogress nounwind uwtable
define linkonce_odr hidden void @_ZN4cvc58internal12NodeTemplateILb0EEC2ERKS2_(ptr noundef nonnull align 8 dereferenceable(8) %this, ptr noundef nonnull align 8 dereferenceable(8) %e) unnamed_addr #5 comdat align 2 {
entry:
  %this.addr = alloca ptr, align 8
  %e.addr = alloca ptr, align 8
  store ptr %this, ptr %this.addr, align 8
  store ptr %e, ptr %e.addr, align 8
  %this1 = load ptr, ptr %this.addr, align 8
  %0 = load ptr, ptr %e.addr, align 8
  %d_nv = getelementptr inbounds %"class.cvc5::internal::NodeTemplate.376", ptr %0, i32 0, i32 0
  %1 = load ptr, ptr %d_nv, align 8
  %d_nv2 = getelementptr inbounds %"class.cvc5::internal::NodeTemplate.376", ptr %this1, i32 0, i32 0
  store ptr %1, ptr %d_nv2, align 8
  ret void
}

; Function Attrs: mustprogress nounwind uwtable
define linkonce_odr hidden void @_ZN4cvc58internal12NodeTemplateILb0EED2Ev(ptr noundef nonnull align 8 dereferenceable(8) %this) unnamed_addr #5 comdat align 2 {
entry:
  %this.addr = alloca ptr, align 8
  store ptr %this, ptr %this.addr, align 8
  ret void
}

; Function Attrs: mustprogress nounwind uwtable
define hidden noundef zeroext i1 @_ZNK4cvc58internal6theory20TrustSubstitutionMap14isProofEnabledEv(ptr noundef nonnull align 8 dereferenceable(608) %this) #5 align 2 {
entry:
  %this.addr = alloca ptr, align 8
  store ptr %this, ptr %this.addr, align 8
  %this1 = load ptr, ptr %this.addr, align 8
  %d_subsPg = getelementptr inbounds %"class.cvc5::internal::theory::TrustSubstitutionMap", ptr %this1, i32 0, i32 6
  %call = call noundef zeroext i1 @_ZStneIN4cvc58internal11LazyCDProofESt14default_deleteIS2_EEbRKSt10unique_ptrIT_T0_EDn(ptr noundef nonnull align 8 dereferenceable(8) %d_subsPg, ptr null) #3
  ret i1 %call
}

declare void @_ZN4cvc58internal9TrustNode14mkTrustRewriteENS0_12NodeTemplateILb0EEENS2_ILb1EEEPNS0_14ProofGeneratorE(ptr sret(%"class.cvc5::internal::TrustNode") align 8, ptr noundef, ptr noundef, ptr noundef) #1

; Function Attrs: mustprogress uwtable
define linkonce_odr hidden void @_ZN4cvc58internal12NodeTemplateILb1EEC2ERKNS1_ILb0EEE(ptr noundef nonnull align 8 dereferenceable(8) %this, ptr noundef nonnull align 8 dereferenceable(8) %e) unnamed_addr #4 comdat align 2 {
entry:
  %this.addr = alloca ptr, align 8
  %e.addr = alloca ptr, align 8
  store ptr %this, ptr %this.addr, align 8
  store ptr %e, ptr %e.addr, align 8
  %this1 = load ptr, ptr %this.addr, align 8
  %0 = load ptr, ptr %e.addr, align 8
  %d_nv = getelementptr inbounds %"class.cvc5::internal::NodeTemplate.376", ptr %0, i32 0, i32 0
  %1 = load ptr, ptr %d_nv, align 8
  %d_nv2 = getelementptr inbounds %"class.cvc5::internal::NodeTemplate", ptr %this1, i32 0, i32 0
  store ptr %1, ptr %d_nv2, align 8
  %d_nv3 = getelementptr inbounds %"class.cvc5::internal::NodeTemplate", ptr %this1, i32 0, i32 0
  %2 = load ptr, ptr %d_nv3, align 8
  call void @_ZN4cvc58internal4expr9NodeValue3incEv(ptr noundef nonnull align 8 dereferenceable(16) %2)
  ret void
}

; Function Attrs: mustprogress nounwind uwtable
define linkonce_odr hidden void @_ZN4cvc58internal12NodeTemplateILb1EED2Ev(ptr noundef nonnull align 8 dereferenceable(8) %this) unnamed_addr #5 comdat align 2 personality ptr @__gxx_personality_v0 {
entry:
  %this.addr = alloca ptr, align 8
  store ptr %this, ptr %this.addr, align 8
  %this1 = load ptr, ptr %this.addr, align 8
  %d_nv = getelementptr inbounds %"class.cvc5::internal::NodeTemplate", ptr %this1, i32 0, i32 0
  %0 = load ptr, ptr %d_nv, align 8
  invoke void @_ZN4cvc58internal4expr9NodeValue3decEv(ptr noundef nonnull align 8 dereferenceable(16) %0)
          to label %invoke.cont unwind label %terminate.lpad

invoke.cont:                                      ; preds = %entry
  ret void

terminate.lpad:                                   ; preds = %entry
  %1 = landingpad { ptr, i32 }
          catch ptr null
  %2 = extractvalue { ptr, i32 } %1, 0
  call void @__clang_call_terminate(ptr %2) #18
  unreachable
}

; Function Attrs: mustprogress uwtable
define linkonce_odr hidden void @_ZN4cvc57context6CDListINS_8internal9TrustNodeENS0_14DefaultCleanUpIS3_EESaIS3_EE9push_backERKS3_(ptr noundef nonnull align 8 dereferenceable(74) %this, ptr noundef nonnull align 8 dereferenceable(24) %data) #4 comdat align 2 {
entry:
  %this.addr = alloca ptr, align 8
  %data.addr = alloca ptr, align 8
  %ref.tmp = alloca %"class.cvc5::internal::__cvc5_true", align 1
  %tmp = alloca %"class.cvc5::internal::Cvc5ostream", align 8
  %agg.tmp.ensured = alloca %"class.cvc5::internal::Cvc5ostream", align 8
  %ref.tmp2 = alloca %"class.cvc5::internal::Cvc5ostream", align 8
  %ref.tmp4 = alloca ptr, align 8
  %ref.tmp7 = alloca i32, align 4
  store ptr %this, ptr %this.addr, align 8
  store ptr %data, ptr %data.addr, align 8
  %this1 = load ptr, ptr %this.addr, align 8
  %call = call noundef zeroext i1 @_ZN4cvc58internal11__cvc5_truecvbEv(ptr noundef nonnull align 1 dereferenceable(1) %ref.tmp)
  br i1 %call, label %cond.true, label %cond.false

cond.true:                                        ; preds = %entry
  call void @_ZNK4cvc58internal5NullCcvNS0_11Cvc5ostreamEEv(ptr sret(%"class.cvc5::internal::Cvc5ostream") align 8 %tmp, ptr noundef nonnull align 1 dereferenceable(1) @_ZN4cvc58internal10nullStreamE)
  br label %cond.end

cond.false:                                       ; preds = %entry
  call void @_ZNK4cvc58internal6TraceCclEv(ptr sret(%"class.cvc5::internal::Cvc5ostream") align 8 %ref.tmp2, ptr noundef nonnull align 8 dereferenceable(32) @_ZN4cvc58internal12TraceChannelE)
  %call3 = call noundef nonnull align 8 dereferenceable(24) ptr @_ZN4cvc58internal11Cvc5ostreamlsIA11_cEERS1_RKT_(ptr noundef nonnull align 8 dereferenceable(24) %ref.tmp2, ptr noundef nonnull align 1 dereferenceable(11) @.str.33)
  store ptr %this1, ptr %ref.tmp4, align 8
  %call5 = call noundef nonnull align 8 dereferenceable(24) ptr @_ZN4cvc58internal11Cvc5ostreamlsIPNS_7context6CDListINS0_9TrustNodeENS3_14DefaultCleanUpIS5_EESaIS5_EEEEERS1_RKT_(ptr noundef nonnull align 8 dereferenceable(24) %call3, ptr noundef nonnull align 8 dereferenceable(8) %ref.tmp4)
  %call6 = call noundef nonnull align 8 dereferenceable(24) ptr @_ZN4cvc58internal11Cvc5ostreamlsIA2_cEERS1_RKT_(ptr noundef nonnull align 8 dereferenceable(24) %call5, ptr noundef nonnull align 1 dereferenceable(2) @.str.34)
  %call8 = call noundef ptr @_ZNK4cvc57context10ContextObj10getContextEv(ptr noundef nonnull align 8 dereferenceable(40) %this1)
  %call9 = call noundef i32 @_ZNK4cvc57context7Context8getLevelEv(ptr noundef nonnull align 8 dereferenceable(48) %call8)
  store i32 %call9, ptr %ref.tmp7, align 4
  %call10 = call noundef nonnull align 8 dereferenceable(24) ptr @_ZN4cvc58internal11Cvc5ostreamlsIjEERS1_RKT_(ptr noundef nonnull align 8 dereferenceable(24) %call6, ptr noundef nonnull align 4 dereferenceable(4) %ref.tmp7)
  %call11 = call noundef nonnull align 8 dereferenceable(24) ptr @_ZN4cvc58internal11Cvc5ostreamlsIA15_cEERS1_RKT_(ptr noundef nonnull align 8 dereferenceable(24) %call10, ptr noundef nonnull align 1 dereferenceable(15) @.str.35)
  %call12 = call noundef nonnull align 8 dereferenceable(24) ptr @_ZN4cvc58internal11Cvc5ostreamlsEPFRSoS2_E(ptr noundef nonnull align 8 dereferenceable(24) %call11, ptr noundef @_ZSt4endlIcSt11char_traitsIcEERSt13basic_ostreamIT_T0_ES6_)
  call void @llvm.memcpy.p0.p0.i64(ptr align 8 %agg.tmp.ensured, ptr align 8 %call12, i64 24, i1 false)
  br label %cond.end

cond.end:                                         ; preds = %cond.false, %cond.true
  call void @_ZN4cvc57context10ContextObj11makeCurrentEv(ptr noundef nonnull align 8 dereferenceable(40) %this1)
  %d_list = getelementptr inbounds %"class.cvc5::context::CDList", ptr %this1, i32 0, i32 1
  %0 = load ptr, ptr %data.addr, align 8
  call void @_ZNSt6vectorIN4cvc58internal9TrustNodeESaIS2_EE9push_backERKS2_(ptr noundef nonnull align 8 dereferenceable(24) %d_list, ptr noundef nonnull align 8 dereferenceable(24) %0)
  %d_size = getelementptr inbounds %"class.cvc5::context::CDList", ptr %this1, i32 0, i32 2
  %1 = load i64, ptr %d_size, align 8
  %inc = add i64 %1, 1
  store i64 %inc, ptr %d_size, align 8
  ret void
}

; Function Attrs: mustprogress nounwind uwtable
define linkonce_odr hidden noundef ptr @_ZNKSt10unique_ptrIN4cvc58internal11LazyCDProofESt14default_deleteIS2_EEptEv(ptr noundef nonnull align 8 dereferenceable(8) %this) #5 comdat align 2 {
entry:
  %this.addr = alloca ptr, align 8
  store ptr %this, ptr %this.addr, align 8
  %this1 = load ptr, ptr %this.addr, align 8
  %call = call noundef ptr @_ZNKSt10unique_ptrIN4cvc58internal11LazyCDProofESt14default_deleteIS2_EE3getEv(ptr noundef nonnull align 8 dereferenceable(8) %this1) #3
  ret ptr %call
}

declare void @_ZN4cvc58internal11LazyCDProof11addLazyStepENS0_12NodeTemplateILb1EEEPNS0_14ProofGeneratorENS0_7TrustIdEbPKcb(ptr noundef nonnull align 8 dereferenceable(408), ptr noundef, ptr noundef, i32 noundef, i1 noundef zeroext, ptr noundef, i1 noundef zeroext) #1

declare void @_ZNK4cvc58internal9TrustNode9getProvenEv(ptr sret(%"class.cvc5::internal::NodeTemplate") align 8, ptr noundef nonnull align 8 dereferenceable(24)) #1

; Function Attrs: mustprogress nounwind uwtable
define linkonce_odr hidden void @_ZN4cvc58internal9TrustNodeD2Ev(ptr noundef nonnull align 8 dereferenceable(24) %this) unnamed_addr #5 comdat align 2 {
entry:
  %this.addr = alloca ptr, align 8
  store ptr %this, ptr %this.addr, align 8
  %this1 = load ptr, ptr %this.addr, align 8
  %d_proven = getelementptr inbounds %"class.cvc5::internal::TrustNode", ptr %this1, i32 0, i32 1
  call void @_ZN4cvc58internal12NodeTemplateILb1EED2Ev(ptr noundef nonnull align 8 dereferenceable(8) %d_proven) #3
  ret void
}

; Function Attrs: mustprogress uwtable
define hidden void @_ZN4cvc58internal6theory20TrustSubstitutionMap15addSubstitutionENS0_12NodeTemplateILb0EEES4_NS_9ProofRuleERKSt6vectorINS3_ILb1EEESaIS7_EESB_(ptr noundef nonnull align 8 dereferenceable(608) %this, ptr noundef %x, ptr noundef %t, i32 noundef %id, ptr noundef nonnull align 8 dereferenceable(24) %children, ptr noundef nonnull align 8 dereferenceable(24) %args) #4 align 2 personality ptr @__gxx_personality_v0 {
entry:
  %this.addr = alloca ptr, align 8
  %x.indirect_addr = alloca ptr, align 8
  %t.indirect_addr = alloca ptr, align 8
  %id.addr = alloca i32, align 4
  %children.addr = alloca ptr, align 8
  %args.addr = alloca ptr, align 8
  %agg.tmp = alloca %"class.cvc5::internal::NodeTemplate.376", align 8
  %agg.tmp2 = alloca %"class.cvc5::internal::NodeTemplate.376", align 8
  %exn.slot = alloca ptr, align 8
  %ehselector.slot = alloca i32, align 4
  %stepPg = alloca ptr, align 8
  %ref.tmp = alloca ptr, align 8
  %eq = alloca %"class.cvc5::internal::NodeTemplate", align 8
  %agg.tmp7 = alloca %"class.cvc5::internal::NodeTemplate", align 8
  %agg.tmp14 = alloca %"class.cvc5::internal::NodeTemplate.376", align 8
  %agg.tmp16 = alloca %"class.cvc5::internal::NodeTemplate.376", align 8
  store ptr %this, ptr %this.addr, align 8
  store ptr %x, ptr %x.indirect_addr, align 8
  store ptr %t, ptr %t.indirect_addr, align 8
  store i32 %id, ptr %id.addr, align 4
  store ptr %children, ptr %children.addr, align 8
  store ptr %args, ptr %args.addr, align 8
  %this1 = load ptr, ptr %this.addr, align 8
  %call = call noundef zeroext i1 @_ZNK4cvc58internal6theory20TrustSubstitutionMap14isProofEnabledEv(ptr noundef nonnull align 8 dereferenceable(608) %this1)
  br i1 %call, label %if.end, label %if.then

if.then:                                          ; preds = %entry
  call void @_ZN4cvc58internal12NodeTemplateILb0EEC2ERKS2_(ptr noundef nonnull align 8 dereferenceable(8) %agg.tmp, ptr noundef nonnull align 8 dereferenceable(8) %x)
  invoke void @_ZN4cvc58internal12NodeTemplateILb0EEC2ERKS2_(ptr noundef nonnull align 8 dereferenceable(8) %agg.tmp2, ptr noundef nonnull align 8 dereferenceable(8) %t)
          to label %invoke.cont unwind label %lpad

invoke.cont:                                      ; preds = %if.then
  invoke void @_ZN4cvc58internal6theory20TrustSubstitutionMap15addSubstitutionENS0_12NodeTemplateILb0EEES4_PNS0_14ProofGeneratorE(ptr noundef nonnull align 8 dereferenceable(608) %this1, ptr noundef %agg.tmp, ptr noundef %agg.tmp2, ptr noundef null)
          to label %invoke.cont4 unwind label %lpad3

invoke.cont4:                                     ; preds = %invoke.cont
  call void @_ZN4cvc58internal12NodeTemplateILb0EED2Ev(ptr noundef nonnull align 8 dereferenceable(8) %agg.tmp2) #3
  call void @_ZN4cvc58internal12NodeTemplateILb0EED2Ev(ptr noundef nonnull align 8 dereferenceable(8) %agg.tmp) #3
  br label %return

lpad:                                             ; preds = %if.then
  %0 = landingpad { ptr, i32 }
          cleanup
  %1 = extractvalue { ptr, i32 } %0, 0
  store ptr %1, ptr %exn.slot, align 8
  %2 = extractvalue { ptr, i32 } %0, 1
  store i32 %2, ptr %ehselector.slot, align 4
  br label %ehcleanup

lpad3:                                            ; preds = %invoke.cont
  %3 = landingpad { ptr, i32 }
          cleanup
  %4 = extractvalue { ptr, i32 } %3, 0
  store ptr %4, ptr %exn.slot, align 8
  %5 = extractvalue { ptr, i32 } %3, 1
  store i32 %5, ptr %ehselector.slot, align 4
  call void @_ZN4cvc58internal12NodeTemplateILb0EED2Ev(ptr noundef nonnull align 8 dereferenceable(8) %agg.tmp2) #3
  br label %ehcleanup

ehcleanup:                                        ; preds = %lpad3, %lpad
  call void @_ZN4cvc58internal12NodeTemplateILb0EED2Ev(ptr noundef nonnull align 8 dereferenceable(8) %agg.tmp) #3
  br label %eh.resume

if.end:                                           ; preds = %entry
  %d_helperPf = getelementptr inbounds %"class.cvc5::internal::theory::TrustSubstitutionMap", ptr %this1, i32 0, i32 8
  %call5 = call noundef ptr @_ZNKSt10unique_ptrIN4cvc58internal10CDProofSetINS1_11LazyCDProofEEESt14default_deleteIS4_EEptEv(ptr noundef nonnull align 8 dereferenceable(8) %d_helperPf) #3
  store ptr null, ptr %ref.tmp, align 8
  %d_ctx = getelementptr inbounds %"class.cvc5::internal::theory::TrustSubstitutionMap", ptr %this1, i32 0, i32 2
  %call6 = call noundef ptr @_ZN4cvc58internal10CDProofSetINS0_11LazyCDProofEE13allocateProofIJDnRPNS_7context7ContextEEEEPS2_DpOT_(ptr noundef nonnull align 8 dereferenceable(120) %call5, ptr noundef nonnull align 8 dereferenceable(8) %ref.tmp, ptr noundef nonnull align 8 dereferenceable(8) %d_ctx)
  store ptr %call6, ptr %stepPg, align 8
  call void @_ZNK4cvc58internal12NodeTemplateILb0EE6eqNodeILb0EEENS1_ILb1EEERKNS1_IXT_EEE(ptr sret(%"class.cvc5::internal::NodeTemplate") align 8 %eq, ptr noundef nonnull align 8 dereferenceable(8) %x, ptr noundef nonnull align 8 dereferenceable(8) %t)
  %6 = load ptr, ptr %stepPg, align 8
  invoke void @_ZN4cvc58internal12NodeTemplateILb1EEC2ERKS2_(ptr noundef nonnull align 8 dereferenceable(8) %agg.tmp7, ptr noundef nonnull align 8 dereferenceable(8) %eq)
          to label %invoke.cont9 unwind label %lpad8

invoke.cont9:                                     ; preds = %if.end
  %7 = load i32, ptr %id.addr, align 4
  %8 = load ptr, ptr %children.addr, align 8
  %9 = load ptr, ptr %args.addr, align 8
  %call12 = invoke noundef zeroext i1 @_ZN4cvc58internal7CDProof7addStepENS0_12NodeTemplateILb1EEENS_9ProofRuleERKSt6vectorIS3_SaIS3_EES9_bNS0_12CDPOverwriteE(ptr noundef nonnull align 8 dereferenceable(217) %6, ptr noundef %agg.tmp7, i32 noundef %7, ptr noundef nonnull align 8 dereferenceable(24) %8, ptr noundef nonnull align 8 dereferenceable(24) %9, i1 noundef zeroext false, i32 noundef 1)
          to label %invoke.cont11 unwind label %lpad10

invoke.cont11:                                    ; preds = %invoke.cont9
  call void @_ZN4cvc58internal12NodeTemplateILb1EED2Ev(ptr noundef nonnull align 8 dereferenceable(8) %agg.tmp7) #3
  invoke void @_ZN4cvc58internal12NodeTemplateILb0EEC2ERKS2_(ptr noundef nonnull align 8 dereferenceable(8) %agg.tmp14, ptr noundef nonnull align 8 dereferenceable(8) %x)
          to label %invoke.cont15 unwind label %lpad8

invoke.cont15:                                    ; preds = %invoke.cont11
  invoke void @_ZN4cvc58internal12NodeTemplateILb0EEC2ERKS2_(ptr noundef nonnull align 8 dereferenceable(8) %agg.tmp16, ptr noundef nonnull align 8 dereferenceable(8) %t)
          to label %invoke.cont18 unwind label %lpad17

invoke.cont18:                                    ; preds = %invoke.cont15
  %10 = load ptr, ptr %stepPg, align 8
  %11 = icmp eq ptr %10, null
  br i1 %11, label %cast.end, label %cast.notnull

cast.notnull:                                     ; preds = %invoke.cont18
  %add.ptr = getelementptr inbounds i8, ptr %10, i64 16
  br label %cast.end

cast.end:                                         ; preds = %cast.notnull, %invoke.cont18
  %cast.result = phi ptr [ %add.ptr, %cast.notnull ], [ null, %invoke.cont18 ]
  invoke void @_ZN4cvc58internal6theory20TrustSubstitutionMap15addSubstitutionENS0_12NodeTemplateILb0EEES4_PNS0_14ProofGeneratorE(ptr noundef nonnull align 8 dereferenceable(608) %this1, ptr noundef %agg.tmp14, ptr noundef %agg.tmp16, ptr noundef %cast.result)
          to label %invoke.cont20 unwind label %lpad19

invoke.cont20:                                    ; preds = %cast.end
  call void @_ZN4cvc58internal12NodeTemplateILb0EED2Ev(ptr noundef nonnull align 8 dereferenceable(8) %agg.tmp16) #3
  call void @_ZN4cvc58internal12NodeTemplateILb0EED2Ev(ptr noundef nonnull align 8 dereferenceable(8) %agg.tmp14) #3
  call void @_ZN4cvc58internal12NodeTemplateILb1EED2Ev(ptr noundef nonnull align 8 dereferenceable(8) %eq) #3
  br label %return

return:                                           ; preds = %invoke.cont20, %invoke.cont4
  ret void

lpad8:                                            ; preds = %invoke.cont11, %if.end
  %12 = landingpad { ptr, i32 }
          cleanup
  %13 = extractvalue { ptr, i32 } %12, 0
  store ptr %13, ptr %exn.slot, align 8
  %14 = extractvalue { ptr, i32 } %12, 1
  store i32 %14, ptr %ehselector.slot, align 4
  br label %ehcleanup23

lpad10:                                           ; preds = %invoke.cont9
  %15 = landingpad { ptr, i32 }
          cleanup
  %16 = extractvalue { ptr, i32 } %15, 0
  store ptr %16, ptr %exn.slot, align 8
  %17 = extractvalue { ptr, i32 } %15, 1
  store i32 %17, ptr %ehselector.slot, align 4
  call void @_ZN4cvc58internal12NodeTemplateILb1EED2Ev(ptr noundef nonnull align 8 dereferenceable(8) %agg.tmp7) #3
  br label %ehcleanup23

lpad17:                                           ; preds = %invoke.cont15
  %18 = landingpad { ptr, i32 }
          cleanup
  %19 = extractvalue { ptr, i32 } %18, 0
  store ptr %19, ptr %exn.slot, align 8
  %20 = extractvalue { ptr, i32 } %18, 1
  store i32 %20, ptr %ehselector.slot, align 4
  br label %ehcleanup22

lpad19:                                           ; preds = %cast.end
  %21 = landingpad { ptr, i32 }
          cleanup
  %22 = extractvalue { ptr, i32 } %21, 0
  store ptr %22, ptr %exn.slot, align 8
  %23 = extractvalue { ptr, i32 } %21, 1
  store i32 %23, ptr %ehselector.slot, align 4
  call void @_ZN4cvc58internal12NodeTemplateILb0EED2Ev(ptr noundef nonnull align 8 dereferenceable(8) %agg.tmp16) #3
  br label %ehcleanup22

ehcleanup22:                                      ; preds = %lpad19, %lpad17
  call void @_ZN4cvc58internal12NodeTemplateILb0EED2Ev(ptr noundef nonnull align 8 dereferenceable(8) %agg.tmp14) #3
  br label %ehcleanup23

ehcleanup23:                                      ; preds = %ehcleanup22, %lpad10, %lpad8
  call void @_ZN4cvc58internal12NodeTemplateILb1EED2Ev(ptr noundef nonnull align 8 dereferenceable(8) %eq) #3
  br label %eh.resume

eh.resume:                                        ; preds = %ehcleanup23, %ehcleanup
  %exn = load ptr, ptr %exn.slot, align 8
  %sel = load i32, ptr %ehselector.slot, align 4
  %lpad.val = insertvalue { ptr, i32 } poison, ptr %exn, 0
  %lpad.val24 = insertvalue { ptr, i32 } %lpad.val, i32 %sel, 1
  resume { ptr, i32 } %lpad.val24
}

; Function Attrs: mustprogress nounwind uwtable
define linkonce_odr hidden noundef ptr @_ZNKSt10unique_ptrIN4cvc58internal10CDProofSetINS1_11LazyCDProofEEESt14default_deleteIS4_EEptEv(ptr noundef nonnull align 8 dereferenceable(8) %this) #5 comdat align 2 {
entry:
  %this.addr = alloca ptr, align 8
  store ptr %this, ptr %this.addr, align 8
  %this1 = load ptr, ptr %this.addr, align 8
  %call = call noundef ptr @_ZNKSt10unique_ptrIN4cvc58internal10CDProofSetINS1_11LazyCDProofEEESt14default_deleteIS4_EE3getEv(ptr noundef nonnull align 8 dereferenceable(8) %this1) #3
  ret ptr %call
}

; Function Attrs: mustprogress uwtable
define linkonce_odr hidden noundef ptr @_ZN4cvc58internal10CDProofSetINS0_11LazyCDProofEE13allocateProofIJDnRPNS_7context7ContextEEEEPS2_DpOT_(ptr noundef nonnull align 8 dereferenceable(120) %this, ptr noundef nonnull align 8 dereferenceable(8) %args, ptr noundef nonnull align 8 dereferenceable(8) %args1) #4 comdat align 2 personality ptr @__gxx_personality_v0 {
entry:
  %this.addr = alloca ptr, align 8
  %args.addr = alloca ptr, align 8
  %args.addr2 = alloca ptr, align 8
  %ref.tmp = alloca %"class.std::shared_ptr.512", align 8
  %ref.tmp4 = alloca %"class.std::__cxx11::basic_string", align 8
  %ref.tmp5 = alloca %"class.std::__cxx11::basic_string", align 8
  %ref.tmp6 = alloca %"class.std::__cxx11::basic_string", align 8
  %exn.slot = alloca ptr, align 8
  %ehselector.slot = alloca i32, align 4
  store ptr %this, ptr %this.addr, align 8
  store ptr %args, ptr %args.addr, align 8
  store ptr %args1, ptr %args.addr2, align 8
  %this3 = load ptr, ptr %this.addr, align 8
  %d_proofs = getelementptr inbounds %"class.cvc5::internal::CDProofSet", ptr %this3, i32 0, i32 1
  %d_env = getelementptr inbounds %"class.cvc5::internal::CDProofSet", ptr %this3, i32 0, i32 0
  %0 = load ptr, ptr %d_env, align 8
  %1 = load ptr, ptr %args.addr, align 8
  %2 = load ptr, ptr %args.addr2, align 8
  %d_namePrefix = getelementptr inbounds %"class.cvc5::internal::CDProofSet", ptr %this3, i32 0, i32 2
  call void @_ZStplIcSt11char_traitsIcESaIcEENSt7__cxx1112basic_stringIT_T0_T1_EERKS8_PKS5_(ptr sret(%"class.std::__cxx11::basic_string") align 8 %ref.tmp5, ptr noundef nonnull align 8 dereferenceable(32) %d_namePrefix, ptr noundef @.str.37)
  %d_proofs7 = getelementptr inbounds %"class.cvc5::internal::CDProofSet", ptr %this3, i32 0, i32 1
  %call = invoke noundef i64 @_ZNK4cvc57context6CDListISt10shared_ptrINS_8internal11LazyCDProofEENS0_14DefaultCleanUpIS5_EESaIS5_EE4sizeEv(ptr noundef nonnull align 8 dereferenceable(74) %d_proofs7)
          to label %invoke.cont unwind label %lpad

invoke.cont:                                      ; preds = %entry
  invoke void @_ZNSt7__cxx119to_stringEm(ptr sret(%"class.std::__cxx11::basic_string") align 8 %ref.tmp6, i64 noundef %call)
          to label %invoke.cont8 unwind label %lpad

invoke.cont8:                                     ; preds = %invoke.cont
  invoke void @_ZStplIcSt11char_traitsIcESaIcEENSt7__cxx1112basic_stringIT_T0_T1_EEOS8_S9_(ptr sret(%"class.std::__cxx11::basic_string") align 8 %ref.tmp4, ptr noundef nonnull align 8 dereferenceable(32) %ref.tmp5, ptr noundef nonnull align 8 dereferenceable(32) %ref.tmp6)
          to label %invoke.cont10 unwind label %lpad9

invoke.cont10:                                    ; preds = %invoke.cont8
  invoke void @_ZSt11make_sharedIN4cvc58internal11LazyCDProofEJRNS1_3EnvEDnRPNS0_7context7ContextENSt7__cxx1112basic_stringIcSt11char_traitsIcESaIcEEEEESt10shared_ptrINSt9enable_ifIXntsr8is_arrayIT_EE5valueESH_E4typeEEDpOT0_(ptr sret(%"class.std::shared_ptr.512") align 8 %ref.tmp, ptr noundef nonnull align 8 dereferenceable(576) %0, ptr noundef nonnull align 8 dereferenceable(8) %1, ptr noundef nonnull align 8 dereferenceable(8) %2, ptr noundef nonnull align 8 dereferenceable(32) %ref.tmp4)
          to label %invoke.cont12 unwind label %lpad11

invoke.cont12:                                    ; preds = %invoke.cont10
  invoke void @_ZN4cvc57context6CDListISt10shared_ptrINS_8internal11LazyCDProofEENS0_14DefaultCleanUpIS5_EESaIS5_EE9push_backERKS5_(ptr noundef nonnull align 8 dereferenceable(74) %d_proofs, ptr noundef nonnull align 8 dereferenceable(16) %ref.tmp)
          to label %invoke.cont14 unwind label %lpad13

invoke.cont14:                                    ; preds = %invoke.cont12
  call void @_ZNSt10shared_ptrIN4cvc58internal11LazyCDProofEED2Ev(ptr noundef nonnull align 8 dereferenceable(16) %ref.tmp) #3
  call void @_ZNSt7__cxx1112basic_stringIcSt11char_traitsIcESaIcEED1Ev(ptr noundef nonnull align 8 dereferenceable(32) %ref.tmp4) #3
  call void @_ZNSt7__cxx1112basic_stringIcSt11char_traitsIcESaIcEED1Ev(ptr noundef nonnull align 8 dereferenceable(32) %ref.tmp6) #3
  call void @_ZNSt7__cxx1112basic_stringIcSt11char_traitsIcESaIcEED1Ev(ptr noundef nonnull align 8 dereferenceable(32) %ref.tmp5) #3
  %d_proofs17 = getelementptr inbounds %"class.cvc5::internal::CDProofSet", ptr %this3, i32 0, i32 1
  %call18 = call noundef nonnull align 8 dereferenceable(16) ptr @_ZNK4cvc57context6CDListISt10shared_ptrINS_8internal11LazyCDProofEENS0_14DefaultCleanUpIS5_EESaIS5_EE4backEv(ptr noundef nonnull align 8 dereferenceable(74) %d_proofs17)
  %call19 = call noundef ptr @_ZNKSt12__shared_ptrIN4cvc58internal11LazyCDProofELN9__gnu_cxx12_Lock_policyE2EE3getEv(ptr noundef nonnull align 8 dereferenceable(16) %call18) #3
  ret ptr %call19

lpad:                                             ; preds = %invoke.cont, %entry
  %3 = landingpad { ptr, i32 }
          cleanup
  %4 = extractvalue { ptr, i32 } %3, 0
  store ptr %4, ptr %exn.slot, align 8
  %5 = extractvalue { ptr, i32 } %3, 1
  store i32 %5, ptr %ehselector.slot, align 4
  br label %ehcleanup16

lpad9:                                            ; preds = %invoke.cont8
  %6 = landingpad { ptr, i32 }
          cleanup
  %7 = extractvalue { ptr, i32 } %6, 0
  store ptr %7, ptr %exn.slot, align 8
  %8 = extractvalue { ptr, i32 } %6, 1
  store i32 %8, ptr %ehselector.slot, align 4
  br label %ehcleanup15

lpad11:                                           ; preds = %invoke.cont10
  %9 = landingpad { ptr, i32 }
          cleanup
  %10 = extractvalue { ptr, i32 } %9, 0
  store ptr %10, ptr %exn.slot, align 8
  %11 = extractvalue { ptr, i32 } %9, 1
  store i32 %11, ptr %ehselector.slot, align 4
  br label %ehcleanup

lpad13:                                           ; preds = %invoke.cont12
  %12 = landingpad { ptr, i32 }
          cleanup
  %13 = extractvalue { ptr, i32 } %12, 0
  store ptr %13, ptr %exn.slot, align 8
  %14 = extractvalue { ptr, i32 } %12, 1
  store i32 %14, ptr %ehselector.slot, align 4
  call void @_ZNSt10shared_ptrIN4cvc58internal11LazyCDProofEED2Ev(ptr noundef nonnull align 8 dereferenceable(16) %ref.tmp) #3
  br label %ehcleanup

ehcleanup:                                        ; preds = %lpad13, %lpad11
  call void @_ZNSt7__cxx1112basic_stringIcSt11char_traitsIcESaIcEED1Ev(ptr noundef nonnull align 8 dereferenceable(32) %ref.tmp4) #3
  br label %ehcleanup15

ehcleanup15:                                      ; preds = %ehcleanup, %lpad9
  call void @_ZNSt7__cxx1112basic_stringIcSt11char_traitsIcESaIcEED1Ev(ptr noundef nonnull align 8 dereferenceable(32) %ref.tmp6) #3
  br label %ehcleanup16

ehcleanup16:                                      ; preds = %ehcleanup15, %lpad
  call void @_ZNSt7__cxx1112basic_stringIcSt11char_traitsIcESaIcEED1Ev(ptr noundef nonnull align 8 dereferenceable(32) %ref.tmp5) #3
  br label %eh.resume

eh.resume:                                        ; preds = %ehcleanup16
  %exn = load ptr, ptr %exn.slot, align 8
  %sel = load i32, ptr %ehselector.slot, align 4
  %lpad.val = insertvalue { ptr, i32 } poison, ptr %exn, 0
  %lpad.val20 = insertvalue { ptr, i32 } %lpad.val, i32 %sel, 1
  resume { ptr, i32 } %lpad.val20
}

; Function Attrs: mustprogress uwtable
define linkonce_odr hidden void @_ZNK4cvc58internal12NodeTemplateILb0EE6eqNodeILb0EEENS1_ILb1EEERKNS1_IXT_EEE(ptr noalias sret(%"class.cvc5::internal::NodeTemplate") align 8 %agg.result, ptr noundef nonnull align 8 dereferenceable(8) %this, ptr noundef nonnull align 8 dereferenceable(8) %right) #4 comdat align 2 personality ptr @__gxx_personality_v0 {
entry:
  %result.ptr = alloca ptr, align 8
  %this.addr = alloca ptr, align 8
  %right.addr = alloca ptr, align 8
  %agg.tmp = alloca %"class.cvc5::internal::NodeTemplate.376", align 8
  %agg.tmp2 = alloca %"class.cvc5::internal::NodeTemplate.376", align 8
  %exn.slot = alloca ptr, align 8
  %ehselector.slot = alloca i32, align 4
  store ptr %agg.result, ptr %result.ptr, align 8
  store ptr %this, ptr %this.addr, align 8
  store ptr %right, ptr %right.addr, align 8
  %this1 = load ptr, ptr %this.addr, align 8
  call void @_ZNK4cvc58internal12NodeTemplateILb0EE21assertTNodeNotExpiredEv(ptr noundef nonnull align 8 dereferenceable(8) %this1)
  %call = call noundef ptr @_ZN4cvc58internal11NodeManager9currentNMEv()
  call void @_ZN4cvc58internal12NodeTemplateILb0EEC2ERKS2_(ptr noundef nonnull align 8 dereferenceable(8) %agg.tmp, ptr noundef nonnull align 8 dereferenceable(8) %this1)
  %0 = load ptr, ptr %right.addr, align 8
  invoke void @_ZN4cvc58internal12NodeTemplateILb0EEC2ERKS2_(ptr noundef nonnull align 8 dereferenceable(8) %agg.tmp2, ptr noundef nonnull align 8 dereferenceable(8) %0)
          to label %invoke.cont unwind label %lpad

invoke.cont:                                      ; preds = %entry
  invoke void @_ZN4cvc58internal11NodeManager6mkNodeENS0_4kind6Kind_tENS0_12NodeTemplateILb0EEES5_(ptr sret(%"class.cvc5::internal::NodeTemplate") align 8 %agg.result, ptr noundef nonnull align 8 dereferenceable(3360) %call, i32 noundef 5, ptr noundef %agg.tmp, ptr noundef %agg.tmp2)
          to label %invoke.cont4 unwind label %lpad3

invoke.cont4:                                     ; preds = %invoke.cont
  call void @_ZN4cvc58internal12NodeTemplateILb0EED2Ev(ptr noundef nonnull align 8 dereferenceable(8) %agg.tmp2) #3
  call void @_ZN4cvc58internal12NodeTemplateILb0EED2Ev(ptr noundef nonnull align 8 dereferenceable(8) %agg.tmp) #3
  ret void

lpad:                                             ; preds = %entry
  %1 = landingpad { ptr, i32 }
          cleanup
  %2 = extractvalue { ptr, i32 } %1, 0
  store ptr %2, ptr %exn.slot, align 8
  %3 = extractvalue { ptr, i32 } %1, 1
  store i32 %3, ptr %ehselector.slot, align 4
  br label %ehcleanup

lpad3:                                            ; preds = %invoke.cont
  %4 = landingpad { ptr, i32 }
          cleanup
  %5 = extractvalue { ptr, i32 } %4, 0
  store ptr %5, ptr %exn.slot, align 8
  %6 = extractvalue { ptr, i32 } %4, 1
  store i32 %6, ptr %ehselector.slot, align 4
  call void @_ZN4cvc58internal12NodeTemplateILb0EED2Ev(ptr noundef nonnull align 8 dereferenceable(8) %agg.tmp2) #3
  br label %ehcleanup

ehcleanup:                                        ; preds = %lpad3, %lpad
  call void @_ZN4cvc58internal12NodeTemplateILb0EED2Ev(ptr noundef nonnull align 8 dereferenceable(8) %agg.tmp) #3
  br label %eh.resume

eh.resume:                                        ; preds = %ehcleanup
  %exn = load ptr, ptr %exn.slot, align 8
  %sel = load i32, ptr %ehselector.slot, align 4
  %lpad.val = insertvalue { ptr, i32 } poison, ptr %exn, 0
  %lpad.val5 = insertvalue { ptr, i32 } %lpad.val, i32 %sel, 1
  resume { ptr, i32 } %lpad.val5
}

declare noundef zeroext i1 @_ZN4cvc58internal7CDProof7addStepENS0_12NodeTemplateILb1EEENS_9ProofRuleERKSt6vectorIS3_SaIS3_EES9_bNS0_12CDPOverwriteE(ptr noundef nonnull align 8 dereferenceable(217), ptr noundef, i32 noundef, ptr noundef nonnull align 8 dereferenceable(24), ptr noundef nonnull align 8 dereferenceable(24), i1 noundef zeroext, i32 noundef) #1

; Function Attrs: mustprogress uwtable
define linkonce_odr hidden void @_ZN4cvc58internal12NodeTemplateILb1EEC2ERKS2_(ptr noundef nonnull align 8 dereferenceable(8) %this, ptr noundef nonnull align 8 dereferenceable(8) %e) unnamed_addr #4 comdat align 2 {
entry:
  %this.addr = alloca ptr, align 8
  %e.addr = alloca ptr, align 8
  store ptr %this, ptr %this.addr, align 8
  store ptr %e, ptr %e.addr, align 8
  %this1 = load ptr, ptr %this.addr, align 8
  %0 = load ptr, ptr %e.addr, align 8
  %d_nv = getelementptr inbounds %"class.cvc5::internal::NodeTemplate", ptr %0, i32 0, i32 0
  %1 = load ptr, ptr %d_nv, align 8
  %d_nv2 = getelementptr inbounds %"class.cvc5::internal::NodeTemplate", ptr %this1, i32 0, i32 0
  store ptr %1, ptr %d_nv2, align 8
  %d_nv3 = getelementptr inbounds %"class.cvc5::internal::NodeTemplate", ptr %this1, i32 0, i32 0
  %2 = load ptr, ptr %d_nv3, align 8
  call void @_ZN4cvc58internal4expr9NodeValue3incEv(ptr noundef nonnull align 8 dereferenceable(16) %2)
  ret void
}

; Function Attrs: mustprogress uwtable
define hidden noundef ptr @_ZN4cvc58internal6theory20TrustSubstitutionMap21addSubstitutionSolvedENS0_12NodeTemplateILb0EEES4_NS0_9TrustNodeE(ptr noundef nonnull align 8 dereferenceable(608) %this, ptr noundef %x, ptr noundef %t, ptr noundef %tn) #4 align 2 personality ptr @__gxx_personality_v0 {
entry:
  %retval = alloca ptr, align 8
  %this.addr = alloca ptr, align 8
  %x.indirect_addr = alloca ptr, align 8
  %t.indirect_addr = alloca ptr, align 8
  %tn.indirect_addr = alloca ptr, align 8
  %ref.tmp = alloca %"class.cvc5::internal::__cvc5_true", align 1
  %tmp = alloca %"class.cvc5::internal::Cvc5ostream", align 8
  %agg.tmp.ensured = alloca %"class.cvc5::internal::Cvc5ostream", align 8
  %ref.tmp2 = alloca %"class.cvc5::internal::Cvc5ostream", align 8
  %ref.tmp8 = alloca %"class.cvc5::internal::NodeTemplate", align 8
  %cleanup.cond = alloca i1, align 1
  %exn.slot = alloca ptr, align 8
  %ehselector.slot = alloca i32, align 4
  %agg.tmp = alloca %"class.cvc5::internal::NodeTemplate.376", align 8
  %agg.tmp17 = alloca %"class.cvc5::internal::NodeTemplate.376", align 8
  %ref.tmp22 = alloca %"class.cvc5::internal::__cvc5_true", align 1
  %tmp25 = alloca %"class.cvc5::internal::Cvc5ostream", align 8
  %agg.tmp.ensured27 = alloca %"class.cvc5::internal::Cvc5ostream", align 8
  %ref.tmp28 = alloca %"class.cvc5::internal::Cvc5ostream", align 8
  %eq = alloca %"class.cvc5::internal::NodeTemplate", align 8
  %proven = alloca %"class.cvc5::internal::NodeTemplate", align 8
  %agg.tmp38 = alloca %"class.cvc5::internal::NodeTemplate.376", align 8
  %agg.tmp40 = alloca %"class.cvc5::internal::NodeTemplate.376", align 8
  %ref.tmp49 = alloca %"class.cvc5::internal::__cvc5_true", align 1
  %tmp53 = alloca %"class.cvc5::internal::Cvc5ostream", align 8
  %agg.tmp.ensured56 = alloca %"class.cvc5::internal::Cvc5ostream", align 8
  %ref.tmp57 = alloca %"class.cvc5::internal::Cvc5ostream", align 8
  %cleanup.dest.slot = alloca i32, align 4
  %solvePg = alloca ptr, align 8
  %ref.tmp68 = alloca ptr, align 8
  %agg.tmp72 = alloca %"class.cvc5::internal::NodeTemplate", align 8
  %agg.tmp74 = alloca %"class.cvc5::internal::NodeTemplate", align 8
  %ref.tmp77 = alloca %"class.std::vector.382", align 8
  %ref.tmp85 = alloca %"class.cvc5::internal::__cvc5_true", align 1
  %tmp89 = alloca %"class.cvc5::internal::Cvc5ostream", align 8
  %agg.tmp.ensured92 = alloca %"class.cvc5::internal::Cvc5ostream", align 8
  %ref.tmp93 = alloca %"class.cvc5::internal::Cvc5ostream", align 8
  %ref.tmp104 = alloca %"class.std::vector.382", align 8
  %agg.tmp105 = alloca %"class.std::initializer_list", align 8
  %ref.tmp106 = alloca [1 x %"class.cvc5::internal::NodeTemplate"], align 8
  %arrayinit.endOfInit = alloca ptr, align 8
  %ref.tmp111 = alloca %"class.std::allocator.384", align 1
  %ref.tmp114 = alloca %"class.std::vector.382", align 8
  %agg.tmp115 = alloca %"class.cvc5::internal::NodeTemplate", align 8
  %ref.tmp138 = alloca %"class.cvc5::internal::__cvc5_true", align 1
  %tmp142 = alloca %"class.cvc5::internal::Cvc5ostream", align 8
  %agg.tmp.ensured145 = alloca %"class.cvc5::internal::Cvc5ostream", align 8
  %ref.tmp146 = alloca %"class.cvc5::internal::Cvc5ostream", align 8
  %agg.tmp160 = alloca %"class.cvc5::internal::NodeTemplate", align 8
  %agg.tmp167 = alloca %"class.cvc5::internal::NodeTemplate.376", align 8
  %agg.tmp169 = alloca %"class.cvc5::internal::NodeTemplate.376", align 8
  store ptr %this, ptr %this.addr, align 8
  store ptr %x, ptr %x.indirect_addr, align 8
  store ptr %t, ptr %t.indirect_addr, align 8
  store ptr %tn, ptr %tn.indirect_addr, align 8
  %this1 = load ptr, ptr %this.addr, align 8
  %call = call noundef zeroext i1 @_ZN4cvc58internal11__cvc5_truecvbEv(ptr noundef nonnull align 1 dereferenceable(1) %ref.tmp)
  store i1 false, ptr %cleanup.cond, align 1
  br i1 %call, label %cond.true, label %cond.false

cond.true:                                        ; preds = %entry
  call void @_ZNK4cvc58internal5NullCcvNS0_11Cvc5ostreamEEv(ptr sret(%"class.cvc5::internal::Cvc5ostream") align 8 %tmp, ptr noundef nonnull align 1 dereferenceable(1) @_ZN4cvc58internal10nullStreamE)
  br label %cond.end

cond.false:                                       ; preds = %entry
  call void @_ZNK4cvc58internal6TraceCclEv(ptr sret(%"class.cvc5::internal::Cvc5ostream") align 8 %ref.tmp2, ptr noundef nonnull align 8 dereferenceable(32) @_ZN4cvc58internal12TraceChannelE)
  %call3 = call noundef nonnull align 8 dereferenceable(24) ptr @_ZN4cvc58internal11Cvc5ostreamlsIA50_cEERS1_RKT_(ptr noundef nonnull align 8 dereferenceable(24) %ref.tmp2, ptr noundef nonnull align 1 dereferenceable(50) @.str.6)
  %call4 = call noundef nonnull align 8 dereferenceable(24) ptr @_ZN4cvc58internal11Cvc5ostreamlsINS0_12NodeTemplateILb0EEEEERS1_RKT_(ptr noundef nonnull align 8 dereferenceable(24) %call3, ptr noundef nonnull align 8 dereferenceable(8) %x)
  %call5 = call noundef nonnull align 8 dereferenceable(24) ptr @_ZN4cvc58internal11Cvc5ostreamlsIA5_cEERS1_RKT_(ptr noundef nonnull align 8 dereferenceable(24) %call4, ptr noundef nonnull align 1 dereferenceable(5) @.str.4)
  %call6 = call noundef nonnull align 8 dereferenceable(24) ptr @_ZN4cvc58internal11Cvc5ostreamlsINS0_12NodeTemplateILb0EEEEERS1_RKT_(ptr noundef nonnull align 8 dereferenceable(24) %call5, ptr noundef nonnull align 8 dereferenceable(8) %t)
  %call7 = call noundef nonnull align 8 dereferenceable(24) ptr @_ZN4cvc58internal11Cvc5ostreamlsIA7_cEERS1_RKT_(ptr noundef nonnull align 8 dereferenceable(24) %call6, ptr noundef nonnull align 1 dereferenceable(7) @.str.7)
  call void @_ZNK4cvc58internal9TrustNode9getProvenEv(ptr sret(%"class.cvc5::internal::NodeTemplate") align 8 %ref.tmp8, ptr noundef nonnull align 8 dereferenceable(24) %tn)
  store i1 true, ptr %cleanup.cond, align 1
  %call9 = invoke noundef nonnull align 8 dereferenceable(24) ptr @_ZN4cvc58internal11Cvc5ostreamlsINS0_12NodeTemplateILb1EEEEERS1_RKT_(ptr noundef nonnull align 8 dereferenceable(24) %call7, ptr noundef nonnull align 8 dereferenceable(8) %ref.tmp8)
          to label %invoke.cont unwind label %lpad

invoke.cont:                                      ; preds = %cond.false
  %call11 = invoke noundef nonnull align 8 dereferenceable(24) ptr @_ZN4cvc58internal11Cvc5ostreamlsEPFRSoS2_E(ptr noundef nonnull align 8 dereferenceable(24) %call9, ptr noundef @_ZSt4endlIcSt11char_traitsIcEERSt13basic_ostreamIT_T0_ES6_)
          to label %invoke.cont10 unwind label %lpad

invoke.cont10:                                    ; preds = %invoke.cont
  call void @llvm.memcpy.p0.p0.i64(ptr align 8 %agg.tmp.ensured, ptr align 8 %call11, i64 24, i1 false)
  br label %cond.end

cond.end:                                         ; preds = %invoke.cont10, %cond.true
  %cleanup.is_active = load i1, ptr %cleanup.cond, align 1
  br i1 %cleanup.is_active, label %cleanup.action, label %cleanup.done

cleanup.action:                                   ; preds = %cond.end
  call void @_ZN4cvc58internal12NodeTemplateILb1EED2Ev(ptr noundef nonnull align 8 dereferenceable(8) %ref.tmp8) #3
  br label %cleanup.done

cleanup.done:                                     ; preds = %cleanup.action, %cond.end
  %call15 = call noundef zeroext i1 @_ZNK4cvc58internal6theory20TrustSubstitutionMap14isProofEnabledEv(ptr noundef nonnull align 8 dereferenceable(608) %this1)
  br i1 %call15, label %lor.lhs.false, label %if.then

lor.lhs.false:                                    ; preds = %cleanup.done
  %call16 = call noundef ptr @_ZNK4cvc58internal9TrustNode12getGeneratorEv(ptr noundef nonnull align 8 dereferenceable(24) %tn)
  %cmp = icmp eq ptr %call16, null
  br i1 %cmp, label %if.then, label %if.end

if.then:                                          ; preds = %lor.lhs.false, %cleanup.done
  call void @_ZN4cvc58internal12NodeTemplateILb0EEC2ERKS2_(ptr noundef nonnull align 8 dereferenceable(8) %agg.tmp, ptr noundef nonnull align 8 dereferenceable(8) %x)
  invoke void @_ZN4cvc58internal12NodeTemplateILb0EEC2ERKS2_(ptr noundef nonnull align 8 dereferenceable(8) %agg.tmp17, ptr noundef nonnull align 8 dereferenceable(8) %t)
          to label %invoke.cont19 unwind label %lpad18

invoke.cont19:                                    ; preds = %if.then
  invoke void @_ZN4cvc58internal6theory20TrustSubstitutionMap15addSubstitutionENS0_12NodeTemplateILb0EEES4_PNS0_14ProofGeneratorE(ptr noundef nonnull align 8 dereferenceable(608) %this1, ptr noundef %agg.tmp, ptr noundef %agg.tmp17, ptr noundef null)
          to label %invoke.cont21 unwind label %lpad20

invoke.cont21:                                    ; preds = %invoke.cont19
  call void @_ZN4cvc58internal12NodeTemplateILb0EED2Ev(ptr noundef nonnull align 8 dereferenceable(8) %agg.tmp17) #3
  call void @_ZN4cvc58internal12NodeTemplateILb0EED2Ev(ptr noundef nonnull align 8 dereferenceable(8) %agg.tmp) #3
  %call23 = call noundef zeroext i1 @_ZN4cvc58internal11__cvc5_truecvbEv(ptr noundef nonnull align 1 dereferenceable(1) %ref.tmp22)
  br i1 %call23, label %cond.true24, label %cond.false26

cond.true24:                                      ; preds = %invoke.cont21
  call void @_ZNK4cvc58internal5NullCcvNS0_11Cvc5ostreamEEv(ptr sret(%"class.cvc5::internal::Cvc5ostream") align 8 %tmp25, ptr noundef nonnull align 1 dereferenceable(1) @_ZN4cvc58internal10nullStreamE)
  br label %cond.end31

cond.false26:                                     ; preds = %invoke.cont21
  call void @_ZNK4cvc58internal6TraceCclEv(ptr sret(%"class.cvc5::internal::Cvc5ostream") align 8 %ref.tmp28, ptr noundef nonnull align 8 dereferenceable(32) @_ZN4cvc58internal12TraceChannelE)
  %call29 = call noundef nonnull align 8 dereferenceable(24) ptr @_ZN4cvc58internal11Cvc5ostreamlsIA12_cEERS1_RKT_(ptr noundef nonnull align 8 dereferenceable(24) %ref.tmp28, ptr noundef nonnull align 1 dereferenceable(12) @.str.8)
  %call30 = call noundef nonnull align 8 dereferenceable(24) ptr @_ZN4cvc58internal11Cvc5ostreamlsEPFRSoS2_E(ptr noundef nonnull align 8 dereferenceable(24) %call29, ptr noundef @_ZSt4endlIcSt11char_traitsIcEERSt13basic_ostreamIT_T0_ES6_)
  call void @llvm.memcpy.p0.p0.i64(ptr align 8 %agg.tmp.ensured27, ptr align 8 %call30, i64 24, i1 false)
  br label %cond.end31

cond.end31:                                       ; preds = %cond.false26, %cond.true24
  store ptr null, ptr %retval, align 8
  br label %return

lpad:                                             ; preds = %invoke.cont, %cond.false
  %0 = landingpad { ptr, i32 }
          cleanup
  %1 = extractvalue { ptr, i32 } %0, 0
  store ptr %1, ptr %exn.slot, align 8
  %2 = extractvalue { ptr, i32 } %0, 1
  store i32 %2, ptr %ehselector.slot, align 4
  %cleanup.is_active12 = load i1, ptr %cleanup.cond, align 1
  br i1 %cleanup.is_active12, label %cleanup.action13, label %cleanup.done14

cleanup.action13:                                 ; preds = %lpad
  call void @_ZN4cvc58internal12NodeTemplateILb1EED2Ev(ptr noundef nonnull align 8 dereferenceable(8) %ref.tmp8) #3
  br label %cleanup.done14

cleanup.done14:                                   ; preds = %cleanup.action13, %lpad
  br label %eh.resume

lpad18:                                           ; preds = %if.then
  %3 = landingpad { ptr, i32 }
          cleanup
  %4 = extractvalue { ptr, i32 } %3, 0
  store ptr %4, ptr %exn.slot, align 8
  %5 = extractvalue { ptr, i32 } %3, 1
  store i32 %5, ptr %ehselector.slot, align 4
  br label %ehcleanup

lpad20:                                           ; preds = %invoke.cont19
  %6 = landingpad { ptr, i32 }
          cleanup
  %7 = extractvalue { ptr, i32 } %6, 0
  store ptr %7, ptr %exn.slot, align 8
  %8 = extractvalue { ptr, i32 } %6, 1
  store i32 %8, ptr %ehselector.slot, align 4
  call void @_ZN4cvc58internal12NodeTemplateILb0EED2Ev(ptr noundef nonnull align 8 dereferenceable(8) %agg.tmp17) #3
  br label %ehcleanup

ehcleanup:                                        ; preds = %lpad20, %lpad18
  call void @_ZN4cvc58internal12NodeTemplateILb0EED2Ev(ptr noundef nonnull align 8 dereferenceable(8) %agg.tmp) #3
  br label %eh.resume

if.end:                                           ; preds = %lor.lhs.false
  call void @_ZNK4cvc58internal12NodeTemplateILb0EE6eqNodeILb0EEENS1_ILb1EEERKNS1_IXT_EEE(ptr sret(%"class.cvc5::internal::NodeTemplate") align 8 %eq, ptr noundef nonnull align 8 dereferenceable(8) %x, ptr noundef nonnull align 8 dereferenceable(8) %t)
  invoke void @_ZNK4cvc58internal9TrustNode9getProvenEv(ptr sret(%"class.cvc5::internal::NodeTemplate") align 8 %proven, ptr noundef nonnull align 8 dereferenceable(24) %tn)
          to label %invoke.cont33 unwind label %lpad32

invoke.cont33:                                    ; preds = %if.end
  %call36 = invoke noundef zeroext i1 @_ZNK4cvc58internal12NodeTemplateILb1EEeqILb1EEEbRKNS1_IXT_EEE(ptr noundef nonnull align 8 dereferenceable(8) %eq, ptr noundef nonnull align 8 dereferenceable(8) %proven)
          to label %invoke.cont35 unwind label %lpad34

invoke.cont35:                                    ; preds = %invoke.cont33
  br i1 %call36, label %if.then37, label %if.end66

if.then37:                                        ; preds = %invoke.cont35
  invoke void @_ZN4cvc58internal12NodeTemplateILb0EEC2ERKS2_(ptr noundef nonnull align 8 dereferenceable(8) %agg.tmp38, ptr noundef nonnull align 8 dereferenceable(8) %x)
          to label %invoke.cont39 unwind label %lpad34

invoke.cont39:                                    ; preds = %if.then37
  invoke void @_ZN4cvc58internal12NodeTemplateILb0EEC2ERKS2_(ptr noundef nonnull align 8 dereferenceable(8) %agg.tmp40, ptr noundef nonnull align 8 dereferenceable(8) %t)
          to label %invoke.cont42 unwind label %lpad41

invoke.cont42:                                    ; preds = %invoke.cont39
  %call45 = invoke noundef ptr @_ZNK4cvc58internal9TrustNode12getGeneratorEv(ptr noundef nonnull align 8 dereferenceable(24) %tn)
          to label %invoke.cont44 unwind label %lpad43

invoke.cont44:                                    ; preds = %invoke.cont42
  invoke void @_ZN4cvc58internal6theory20TrustSubstitutionMap15addSubstitutionENS0_12NodeTemplateILb0EEES4_PNS0_14ProofGeneratorE(ptr noundef nonnull align 8 dereferenceable(608) %this1, ptr noundef %agg.tmp38, ptr noundef %agg.tmp40, ptr noundef %call45)
          to label %invoke.cont46 unwind label %lpad43

invoke.cont46:                                    ; preds = %invoke.cont44
  call void @_ZN4cvc58internal12NodeTemplateILb0EED2Ev(ptr noundef nonnull align 8 dereferenceable(8) %agg.tmp40) #3
  call void @_ZN4cvc58internal12NodeTemplateILb0EED2Ev(ptr noundef nonnull align 8 dereferenceable(8) %agg.tmp38) #3
  %call51 = invoke noundef zeroext i1 @_ZN4cvc58internal11__cvc5_truecvbEv(ptr noundef nonnull align 1 dereferenceable(1) %ref.tmp49)
          to label %invoke.cont50 unwind label %lpad34

invoke.cont50:                                    ; preds = %invoke.cont46
  br i1 %call51, label %cond.true52, label %cond.false55

cond.true52:                                      ; preds = %invoke.cont50
  invoke void @_ZNK4cvc58internal5NullCcvNS0_11Cvc5ostreamEEv(ptr sret(%"class.cvc5::internal::Cvc5ostream") align 8 %tmp53, ptr noundef nonnull align 1 dereferenceable(1) @_ZN4cvc58internal10nullStreamE)
          to label %invoke.cont54 unwind label %lpad34

invoke.cont54:                                    ; preds = %cond.true52
  br label %cond.end63

cond.false55:                                     ; preds = %invoke.cont50
  invoke void @_ZNK4cvc58internal6TraceCclEv(ptr sret(%"class.cvc5::internal::Cvc5ostream") align 8 %ref.tmp57, ptr noundef nonnull align 8 dereferenceable(32) @_ZN4cvc58internal12TraceChannelE)
          to label %invoke.cont58 unwind label %lpad34

invoke.cont58:                                    ; preds = %cond.false55
  %call60 = invoke noundef nonnull align 8 dereferenceable(24) ptr @_ZN4cvc58internal11Cvc5ostreamlsIA26_cEERS1_RKT_(ptr noundef nonnull align 8 dereferenceable(24) %ref.tmp57, ptr noundef nonnull align 1 dereferenceable(26) @.str.9)
          to label %invoke.cont59 unwind label %lpad34

invoke.cont59:                                    ; preds = %invoke.cont58
  %call62 = invoke noundef nonnull align 8 dereferenceable(24) ptr @_ZN4cvc58internal11Cvc5ostreamlsEPFRSoS2_E(ptr noundef nonnull align 8 dereferenceable(24) %call60, ptr noundef @_ZSt4endlIcSt11char_traitsIcEERSt13basic_ostreamIT_T0_ES6_)
          to label %invoke.cont61 unwind label %lpad34

invoke.cont61:                                    ; preds = %invoke.cont59
  call void @llvm.memcpy.p0.p0.i64(ptr align 8 %agg.tmp.ensured56, ptr align 8 %call62, i64 24, i1 false)
  br label %cond.end63

cond.end63:                                       ; preds = %invoke.cont61, %invoke.cont54
  %call65 = invoke noundef ptr @_ZNK4cvc58internal9TrustNode12getGeneratorEv(ptr noundef nonnull align 8 dereferenceable(24) %tn)
          to label %invoke.cont64 unwind label %lpad34

invoke.cont64:                                    ; preds = %cond.end63
  store ptr %call65, ptr %retval, align 8
  store i32 1, ptr %cleanup.dest.slot, align 4
  br label %cleanup

lpad32:                                           ; preds = %if.end
  %9 = landingpad { ptr, i32 }
          cleanup
  %10 = extractvalue { ptr, i32 } %9, 0
  store ptr %10, ptr %exn.slot, align 8
  %11 = extractvalue { ptr, i32 } %9, 1
  store i32 %11, ptr %ehselector.slot, align 4
  br label %ehcleanup182

lpad34:                                           ; preds = %invoke.cont165, %invoke.cont159, %invoke.cont155, %cond.end152, %invoke.cont148, %invoke.cont147, %cond.false144, %cond.true141, %if.end137, %invoke.cont97, %invoke.cont95, %invoke.cont94, %cond.false91, %cond.true88, %if.then84, %invoke.cont69, %if.end66, %cond.end63, %invoke.cont59, %invoke.cont58, %cond.false55, %cond.true52, %invoke.cont46, %if.then37, %invoke.cont33
  %12 = landingpad { ptr, i32 }
          cleanup
  %13 = extractvalue { ptr, i32 } %12, 0
  store ptr %13, ptr %exn.slot, align 8
  %14 = extractvalue { ptr, i32 } %12, 1
  store i32 %14, ptr %ehselector.slot, align 4
  br label %ehcleanup180

lpad41:                                           ; preds = %invoke.cont39
  %15 = landingpad { ptr, i32 }
          cleanup
  %16 = extractvalue { ptr, i32 } %15, 0
  store ptr %16, ptr %exn.slot, align 8
  %17 = extractvalue { ptr, i32 } %15, 1
  store i32 %17, ptr %ehselector.slot, align 4
  br label %ehcleanup48

lpad43:                                           ; preds = %invoke.cont44, %invoke.cont42
  %18 = landingpad { ptr, i32 }
          cleanup
  %19 = extractvalue { ptr, i32 } %18, 0
  store ptr %19, ptr %exn.slot, align 8
  %20 = extractvalue { ptr, i32 } %18, 1
  store i32 %20, ptr %ehselector.slot, align 4
  call void @_ZN4cvc58internal12NodeTemplateILb0EED2Ev(ptr noundef nonnull align 8 dereferenceable(8) %agg.tmp40) #3
  br label %ehcleanup48

ehcleanup48:                                      ; preds = %lpad43, %lpad41
  call void @_ZN4cvc58internal12NodeTemplateILb0EED2Ev(ptr noundef nonnull align 8 dereferenceable(8) %agg.tmp38) #3
  br label %ehcleanup180

if.end66:                                         ; preds = %invoke.cont35
  %d_helperPf = getelementptr inbounds %"class.cvc5::internal::theory::TrustSubstitutionMap", ptr %this1, i32 0, i32 8
  %call67 = call noundef ptr @_ZNKSt10unique_ptrIN4cvc58internal10CDProofSetINS1_11LazyCDProofEEESt14default_deleteIS4_EEptEv(ptr noundef nonnull align 8 dereferenceable(8) %d_helperPf) #3
  store ptr null, ptr %ref.tmp68, align 8
  %d_ctx = getelementptr inbounds %"class.cvc5::internal::theory::TrustSubstitutionMap", ptr %this1, i32 0, i32 2
  %call70 = invoke noundef ptr @_ZN4cvc58internal10CDProofSetINS0_11LazyCDProofEE13allocateProofIJDnRPNS_7context7ContextEEEEPS2_DpOT_(ptr noundef nonnull align 8 dereferenceable(120) %call67, ptr noundef nonnull align 8 dereferenceable(8) %ref.tmp68, ptr noundef nonnull align 8 dereferenceable(8) %d_ctx)
          to label %invoke.cont69 unwind label %lpad34

invoke.cont69:                                    ; preds = %if.end66
  store ptr %call70, ptr %solvePg, align 8
  %d_tspb = getelementptr inbounds %"class.cvc5::internal::theory::TrustSubstitutionMap", ptr %this1, i32 0, i32 5
  %call71 = call noundef ptr @_ZNKSt10unique_ptrIN4cvc58internal21TheoryProofStepBufferESt14default_deleteIS2_EEptEv(ptr noundef nonnull align 8 dereferenceable(8) %d_tspb) #3
  invoke void @_ZN4cvc58internal12NodeTemplateILb1EEC2ERKS2_(ptr noundef nonnull align 8 dereferenceable(8) %agg.tmp72, ptr noundef nonnull align 8 dereferenceable(8) %proven)
          to label %invoke.cont73 unwind label %lpad34

invoke.cont73:                                    ; preds = %invoke.cont69
  invoke void @_ZN4cvc58internal12NodeTemplateILb1EEC2ERKS2_(ptr noundef nonnull align 8 dereferenceable(8) %agg.tmp74, ptr noundef nonnull align 8 dereferenceable(8) %eq)
          to label %invoke.cont76 unwind label %lpad75

invoke.cont76:                                    ; preds = %invoke.cont73
  call void @llvm.memset.p0.i64(ptr align 8 %ref.tmp77, i8 0, i64 24, i1 false)
  call void @_ZNSt6vectorIN4cvc58internal12NodeTemplateILb1EEESaIS3_EEC2Ev(ptr noundef nonnull align 8 dereferenceable(24) %ref.tmp77) #3
  %call80 = invoke noundef zeroext i1 @_ZN4cvc58internal21TheoryProofStepBuffer18applyPredTransformENS0_12NodeTemplateILb1EEES3_RKSt6vectorIS3_SaIS3_EENS0_8MethodIdES9_S9_b(ptr noundef nonnull align 8 dereferenceable(104) %call71, ptr noundef %agg.tmp72, ptr noundef %agg.tmp74, ptr noundef nonnull align 8 dereferenceable(24) %ref.tmp77, i32 noundef 7, i32 noundef 10, i32 noundef 0, i1 noundef zeroext false)
          to label %invoke.cont79 unwind label %lpad78

invoke.cont79:                                    ; preds = %invoke.cont76
  %lnot = xor i1 %call80, true
  call void @_ZNSt6vectorIN4cvc58internal12NodeTemplateILb1EEESaIS3_EED2Ev(ptr noundef nonnull align 8 dereferenceable(24) %ref.tmp77) #3
  call void @_ZN4cvc58internal12NodeTemplateILb1EED2Ev(ptr noundef nonnull align 8 dereferenceable(8) %agg.tmp74) #3
  call void @_ZN4cvc58internal12NodeTemplateILb1EED2Ev(ptr noundef nonnull align 8 dereferenceable(8) %agg.tmp72) #3
  br i1 %lnot, label %if.then84, label %if.end137

if.then84:                                        ; preds = %invoke.cont79
  %call87 = invoke noundef zeroext i1 @_ZN4cvc58internal11__cvc5_truecvbEv(ptr noundef nonnull align 1 dereferenceable(1) %ref.tmp85)
          to label %invoke.cont86 unwind label %lpad34

invoke.cont86:                                    ; preds = %if.then84
  br i1 %call87, label %cond.true88, label %cond.false91

cond.true88:                                      ; preds = %invoke.cont86
  invoke void @_ZNK4cvc58internal5NullCcvNS0_11Cvc5ostreamEEv(ptr sret(%"class.cvc5::internal::Cvc5ostream") align 8 %tmp89, ptr noundef nonnull align 1 dereferenceable(1) @_ZN4cvc58internal10nullStreamE)
          to label %invoke.cont90 unwind label %lpad34

invoke.cont90:                                    ; preds = %cond.true88
  br label %cond.end101

cond.false91:                                     ; preds = %invoke.cont86
  invoke void @_ZNK4cvc58internal6TraceCclEv(ptr sret(%"class.cvc5::internal::Cvc5ostream") align 8 %ref.tmp93, ptr noundef nonnull align 8 dereferenceable(32) @_ZN4cvc58internal12TraceChannelE)
          to label %invoke.cont94 unwind label %lpad34

invoke.cont94:                                    ; preds = %cond.false91
  %call96 = invoke noundef nonnull align 8 dereferenceable(24) ptr @_ZN4cvc58internal11Cvc5ostreamlsIA22_cEERS1_RKT_(ptr noundef nonnull align 8 dereferenceable(24) %ref.tmp93, ptr noundef nonnull align 1 dereferenceable(22) @.str.10)
          to label %invoke.cont95 unwind label %lpad34

invoke.cont95:                                    ; preds = %invoke.cont94
  %call98 = invoke noundef nonnull align 8 dereferenceable(24) ptr @_ZN4cvc58internal11Cvc5ostreamlsINS0_12NodeTemplateILb1EEEEERS1_RKT_(ptr noundef nonnull align 8 dereferenceable(24) %call96, ptr noundef nonnull align 8 dereferenceable(8) %proven)
          to label %invoke.cont97 unwind label %lpad34

invoke.cont97:                                    ; preds = %invoke.cont95
  %call100 = invoke noundef nonnull align 8 dereferenceable(24) ptr @_ZN4cvc58internal11Cvc5ostreamlsEPFRSoS2_E(ptr noundef nonnull align 8 dereferenceable(24) %call98, ptr noundef @_ZSt4endlIcSt11char_traitsIcEERSt13basic_ostreamIT_T0_ES6_)
          to label %invoke.cont99 unwind label %lpad34

invoke.cont99:                                    ; preds = %invoke.cont97
  call void @llvm.memcpy.p0.p0.i64(ptr align 8 %agg.tmp.ensured92, ptr align 8 %call100, i64 24, i1 false)
  br label %cond.end101

cond.end101:                                      ; preds = %invoke.cont99, %invoke.cont90
  %d_tspb102 = getelementptr inbounds %"class.cvc5::internal::theory::TrustSubstitutionMap", ptr %this1, i32 0, i32 5
  %call103 = call noundef ptr @_ZNKSt10unique_ptrIN4cvc58internal21TheoryProofStepBufferESt14default_deleteIS2_EEptEv(ptr noundef nonnull align 8 dereferenceable(8) %d_tspb102) #3
  %arrayinit.begin = getelementptr inbounds [1 x %"class.cvc5::internal::NodeTemplate"], ptr %ref.tmp106, i64 0, i64 0
  store ptr %arrayinit.begin, ptr %arrayinit.endOfInit, align 8
  invoke void @_ZN4cvc58internal12NodeTemplateILb1EEC2ERKS2_(ptr noundef nonnull align 8 dereferenceable(8) %arrayinit.begin, ptr noundef nonnull align 8 dereferenceable(8) %proven)
          to label %invoke.cont108 unwind label %lpad107

invoke.cont108:                                   ; preds = %cond.end101
  %_M_array = getelementptr inbounds %"class.std::initializer_list", ptr %agg.tmp105, i32 0, i32 0
  %arraystart = getelementptr inbounds [1 x %"class.cvc5::internal::NodeTemplate"], ptr %ref.tmp106, i64 0, i64 0
  store ptr %arraystart, ptr %_M_array, align 8
  %_M_len = getelementptr inbounds %"class.std::initializer_list", ptr %agg.tmp105, i32 0, i32 1
  store i64 1, ptr %_M_len, align 8
  call void @_ZNSaIN4cvc58internal12NodeTemplateILb1EEEEC2Ev(ptr noundef nonnull align 1 dereferenceable(1) %ref.tmp111) #3
  %21 = getelementptr inbounds { ptr, i64 }, ptr %agg.tmp105, i32 0, i32 0
  %22 = load ptr, ptr %21, align 8
  %23 = getelementptr inbounds { ptr, i64 }, ptr %agg.tmp105, i32 0, i32 1
  %24 = load i64, ptr %23, align 8
  invoke void @_ZNSt6vectorIN4cvc58internal12NodeTemplateILb1EEESaIS3_EEC2ESt16initializer_listIS3_ERKS4_(ptr noundef nonnull align 8 dereferenceable(24) %ref.tmp104, ptr %22, i64 %24, ptr noundef nonnull align 1 dereferenceable(1) %ref.tmp111)
          to label %invoke.cont113 unwind label %lpad112

invoke.cont113:                                   ; preds = %invoke.cont108
  call void @llvm.memset.p0.i64(ptr align 8 %ref.tmp114, i8 0, i64 24, i1 false)
  call void @_ZNSt6vectorIN4cvc58internal12NodeTemplateILb1EEESaIS3_EEC2Ev(ptr noundef nonnull align 8 dereferenceable(24) %ref.tmp114) #3
  invoke void @_ZN4cvc58internal12NodeTemplateILb1EEC2ERKS2_(ptr noundef nonnull align 8 dereferenceable(8) %agg.tmp115, ptr noundef nonnull align 8 dereferenceable(8) %eq)
          to label %invoke.cont117 unwind label %lpad116

invoke.cont117:                                   ; preds = %invoke.cont113
  %call120 = invoke noundef zeroext i1 @_ZN4cvc58internal15ProofStepBuffer14addTrustedStepENS0_7TrustIdERKSt6vectorINS0_12NodeTemplateILb1EEESaIS5_EES9_S5_(ptr noundef nonnull align 8 dereferenceable(104) %call103, i32 noundef 13, ptr noundef nonnull align 8 dereferenceable(24) %ref.tmp104, ptr noundef nonnull align 8 dereferenceable(24) %ref.tmp114, ptr noundef %agg.tmp115)
          to label %invoke.cont119 unwind label %lpad118

invoke.cont119:                                   ; preds = %invoke.cont117
  call void @_ZN4cvc58internal12NodeTemplateILb1EED2Ev(ptr noundef nonnull align 8 dereferenceable(8) %agg.tmp115) #3
  call void @_ZNSt6vectorIN4cvc58internal12NodeTemplateILb1EEESaIS3_EED2Ev(ptr noundef nonnull align 8 dereferenceable(24) %ref.tmp114) #3
  call void @_ZNSt6vectorIN4cvc58internal12NodeTemplateILb1EEESaIS3_EED2Ev(ptr noundef nonnull align 8 dereferenceable(24) %ref.tmp104) #3
  call void @_ZNSaIN4cvc58internal12NodeTemplateILb1EEEED2Ev(ptr noundef nonnull align 1 dereferenceable(1) %ref.tmp111) #3
  %array.begin = getelementptr inbounds [1 x %"class.cvc5::internal::NodeTemplate"], ptr %ref.tmp106, i32 0, i32 0
  %25 = getelementptr inbounds %"class.cvc5::internal::NodeTemplate", ptr %array.begin, i64 1
  br label %arraydestroy.body125

arraydestroy.body125:                             ; preds = %arraydestroy.body125, %invoke.cont119
  %arraydestroy.elementPast126 = phi ptr [ %25, %invoke.cont119 ], [ %arraydestroy.element127, %arraydestroy.body125 ]
  %arraydestroy.element127 = getelementptr inbounds %"class.cvc5::internal::NodeTemplate", ptr %arraydestroy.elementPast126, i64 -1
  call void @_ZN4cvc58internal12NodeTemplateILb1EED2Ev(ptr noundef nonnull align 8 dereferenceable(8) %arraydestroy.element127) #3
  %arraydestroy.done128 = icmp eq ptr %arraydestroy.element127, %array.begin
  br i1 %arraydestroy.done128, label %arraydestroy.done129, label %arraydestroy.body125

arraydestroy.done129:                             ; preds = %arraydestroy.body125
  br label %if.end137

lpad75:                                           ; preds = %invoke.cont73
  %26 = landingpad { ptr, i32 }
          cleanup
  %27 = extractvalue { ptr, i32 } %26, 0
  store ptr %27, ptr %exn.slot, align 8
  %28 = extractvalue { ptr, i32 } %26, 1
  store i32 %28, ptr %ehselector.slot, align 4
  br label %ehcleanup83

lpad78:                                           ; preds = %invoke.cont76
  %29 = landingpad { ptr, i32 }
          cleanup
  %30 = extractvalue { ptr, i32 } %29, 0
  store ptr %30, ptr %exn.slot, align 8
  %31 = extractvalue { ptr, i32 } %29, 1
  store i32 %31, ptr %ehselector.slot, align 4
  call void @_ZNSt6vectorIN4cvc58internal12NodeTemplateILb1EEESaIS3_EED2Ev(ptr noundef nonnull align 8 dereferenceable(24) %ref.tmp77) #3
  call void @_ZN4cvc58internal12NodeTemplateILb1EED2Ev(ptr noundef nonnull align 8 dereferenceable(8) %agg.tmp74) #3
  br label %ehcleanup83

ehcleanup83:                                      ; preds = %lpad78, %lpad75
  call void @_ZN4cvc58internal12NodeTemplateILb1EED2Ev(ptr noundef nonnull align 8 dereferenceable(8) %agg.tmp72) #3
  br label %ehcleanup180

lpad107:                                          ; preds = %cond.end101
  %32 = landingpad { ptr, i32 }
          cleanup
  %33 = extractvalue { ptr, i32 } %32, 0
  store ptr %33, ptr %exn.slot, align 8
  %34 = extractvalue { ptr, i32 } %32, 1
  store i32 %34, ptr %ehselector.slot, align 4
  %35 = load ptr, ptr %arrayinit.endOfInit, align 8
  %arraydestroy.isempty = icmp eq ptr %arrayinit.begin, %35
  br i1 %arraydestroy.isempty, label %arraydestroy.done110, label %arraydestroy.body

arraydestroy.body:                                ; preds = %arraydestroy.body, %lpad107
  %arraydestroy.elementPast = phi ptr [ %35, %lpad107 ], [ %arraydestroy.element, %arraydestroy.body ]
  %arraydestroy.element = getelementptr inbounds %"class.cvc5::internal::NodeTemplate", ptr %arraydestroy.elementPast, i64 -1
  call void @_ZN4cvc58internal12NodeTemplateILb1EED2Ev(ptr noundef nonnull align 8 dereferenceable(8) %arraydestroy.element) #3
  %arraydestroy.done = icmp eq ptr %arraydestroy.element, %arrayinit.begin
  br i1 %arraydestroy.done, label %arraydestroy.done110, label %arraydestroy.body

arraydestroy.done110:                             ; preds = %arraydestroy.body, %lpad107
  br label %ehcleanup180

lpad112:                                          ; preds = %invoke.cont108
  %36 = landingpad { ptr, i32 }
          cleanup
  %37 = extractvalue { ptr, i32 } %36, 0
  store ptr %37, ptr %exn.slot, align 8
  %38 = extractvalue { ptr, i32 } %36, 1
  store i32 %38, ptr %ehselector.slot, align 4
  br label %ehcleanup124

lpad116:                                          ; preds = %invoke.cont113
  %39 = landingpad { ptr, i32 }
          cleanup
  %40 = extractvalue { ptr, i32 } %39, 0
  store ptr %40, ptr %exn.slot, align 8
  %41 = extractvalue { ptr, i32 } %39, 1
  store i32 %41, ptr %ehselector.slot, align 4
  br label %ehcleanup122

lpad118:                                          ; preds = %invoke.cont117
  %42 = landingpad { ptr, i32 }
          cleanup
  %43 = extractvalue { ptr, i32 } %42, 0
  store ptr %43, ptr %exn.slot, align 8
  %44 = extractvalue { ptr, i32 } %42, 1
  store i32 %44, ptr %ehselector.slot, align 4
  call void @_ZN4cvc58internal12NodeTemplateILb1EED2Ev(ptr noundef nonnull align 8 dereferenceable(8) %agg.tmp115) #3
  br label %ehcleanup122

ehcleanup122:                                     ; preds = %lpad118, %lpad116
  call void @_ZNSt6vectorIN4cvc58internal12NodeTemplateILb1EEESaIS3_EED2Ev(ptr noundef nonnull align 8 dereferenceable(24) %ref.tmp114) #3
  call void @_ZNSt6vectorIN4cvc58internal12NodeTemplateILb1EEESaIS3_EED2Ev(ptr noundef nonnull align 8 dereferenceable(24) %ref.tmp104) #3
  br label %ehcleanup124

ehcleanup124:                                     ; preds = %ehcleanup122, %lpad112
  call void @_ZNSaIN4cvc58internal12NodeTemplateILb1EEEED2Ev(ptr noundef nonnull align 1 dereferenceable(1) %ref.tmp111) #3
  %array.begin131 = getelementptr inbounds [1 x %"class.cvc5::internal::NodeTemplate"], ptr %ref.tmp106, i32 0, i32 0
  %45 = getelementptr inbounds %"class.cvc5::internal::NodeTemplate", ptr %array.begin131, i64 1
  br label %arraydestroy.body132

arraydestroy.body132:                             ; preds = %arraydestroy.body132, %ehcleanup124
  %arraydestroy.elementPast133 = phi ptr [ %45, %ehcleanup124 ], [ %arraydestroy.element134, %arraydestroy.body132 ]
  %arraydestroy.element134 = getelementptr inbounds %"class.cvc5::internal::NodeTemplate", ptr %arraydestroy.elementPast133, i64 -1
  call void @_ZN4cvc58internal12NodeTemplateILb1EED2Ev(ptr noundef nonnull align 8 dereferenceable(8) %arraydestroy.element134) #3
  %arraydestroy.done135 = icmp eq ptr %arraydestroy.element134, %array.begin131
  br i1 %arraydestroy.done135, label %arraydestroy.done136, label %arraydestroy.body132

arraydestroy.done136:                             ; preds = %arraydestroy.body132
  br label %ehcleanup180

if.end137:                                        ; preds = %arraydestroy.done129, %invoke.cont79
  %call140 = invoke noundef zeroext i1 @_ZN4cvc58internal11__cvc5_truecvbEv(ptr noundef nonnull align 1 dereferenceable(1) %ref.tmp138)
          to label %invoke.cont139 unwind label %lpad34

invoke.cont139:                                   ; preds = %if.end137
  br i1 %call140, label %cond.true141, label %cond.false144

cond.true141:                                     ; preds = %invoke.cont139
  invoke void @_ZNK4cvc58internal5NullCcvNS0_11Cvc5ostreamEEv(ptr sret(%"class.cvc5::internal::Cvc5ostream") align 8 %tmp142, ptr noundef nonnull align 1 dereferenceable(1) @_ZN4cvc58internal10nullStreamE)
          to label %invoke.cont143 unwind label %lpad34

invoke.cont143:                                   ; preds = %cond.true141
  br label %cond.end152

cond.false144:                                    ; preds = %invoke.cont139
  invoke void @_ZNK4cvc58internal6TraceCclEv(ptr sret(%"class.cvc5::internal::Cvc5ostream") align 8 %ref.tmp146, ptr noundef nonnull align 8 dereferenceable(32) @_ZN4cvc58internal12TraceChannelE)
          to label %invoke.cont147 unwind label %lpad34

invoke.cont147:                                   ; preds = %cond.false144
  %call149 = invoke noundef nonnull align 8 dereferenceable(24) ptr @_ZN4cvc58internal11Cvc5ostreamlsIA22_cEERS1_RKT_(ptr noundef nonnull align 8 dereferenceable(24) %ref.tmp146, ptr noundef nonnull align 1 dereferenceable(22) @.str.11)
          to label %invoke.cont148 unwind label %lpad34

invoke.cont148:                                   ; preds = %invoke.cont147
  %call151 = invoke noundef nonnull align 8 dereferenceable(24) ptr @_ZN4cvc58internal11Cvc5ostreamlsEPFRSoS2_E(ptr noundef nonnull align 8 dereferenceable(24) %call149, ptr noundef @_ZSt4endlIcSt11char_traitsIcEERSt13basic_ostreamIT_T0_ES6_)
          to label %invoke.cont150 unwind label %lpad34

invoke.cont150:                                   ; preds = %invoke.cont148
  call void @llvm.memcpy.p0.p0.i64(ptr align 8 %agg.tmp.ensured145, ptr align 8 %call151, i64 24, i1 false)
  br label %cond.end152

cond.end152:                                      ; preds = %invoke.cont150, %invoke.cont143
  %46 = load ptr, ptr %solvePg, align 8
  %d_tspb153 = getelementptr inbounds %"class.cvc5::internal::theory::TrustSubstitutionMap", ptr %this1, i32 0, i32 5
  %call154 = call noundef ptr @_ZNKSt10unique_ptrIN4cvc58internal21TheoryProofStepBufferESt14default_deleteIS2_EE3getEv(ptr noundef nonnull align 8 dereferenceable(8) %d_tspb153) #3
  %call156 = invoke noundef zeroext i1 @_ZN4cvc58internal7CDProof8addStepsERKNS0_15ProofStepBufferEbNS0_12CDPOverwriteE(ptr noundef nonnull align 8 dereferenceable(217) %46, ptr noundef nonnull align 8 dereferenceable(104) %call154, i1 noundef zeroext false, i32 noundef 1)
          to label %invoke.cont155 unwind label %lpad34

invoke.cont155:                                   ; preds = %cond.end152
  %d_tspb157 = getelementptr inbounds %"class.cvc5::internal::theory::TrustSubstitutionMap", ptr %this1, i32 0, i32 5
  %call158 = call noundef ptr @_ZNKSt10unique_ptrIN4cvc58internal21TheoryProofStepBufferESt14default_deleteIS2_EEptEv(ptr noundef nonnull align 8 dereferenceable(8) %d_tspb157) #3
  invoke void @_ZN4cvc58internal15ProofStepBuffer5clearEv(ptr noundef nonnull align 8 dereferenceable(104) %call158)
          to label %invoke.cont159 unwind label %lpad34

invoke.cont159:                                   ; preds = %invoke.cont155
  %47 = load ptr, ptr %solvePg, align 8
  invoke void @_ZN4cvc58internal12NodeTemplateILb1EEC2ERKS2_(ptr noundef nonnull align 8 dereferenceable(8) %agg.tmp160, ptr noundef nonnull align 8 dereferenceable(8) %proven)
          to label %invoke.cont161 unwind label %lpad34

invoke.cont161:                                   ; preds = %invoke.cont159
  %call164 = invoke noundef ptr @_ZNK4cvc58internal9TrustNode12getGeneratorEv(ptr noundef nonnull align 8 dereferenceable(24) %tn)
          to label %invoke.cont163 unwind label %lpad162

invoke.cont163:                                   ; preds = %invoke.cont161
  invoke void @_ZN4cvc58internal11LazyCDProof11addLazyStepENS0_12NodeTemplateILb1EEEPNS0_14ProofGeneratorENS0_7TrustIdEbPKcb(ptr noundef nonnull align 8 dereferenceable(408) %47, ptr noundef %agg.tmp160, ptr noundef %call164, i32 noundef 0, i1 noundef zeroext false, ptr noundef @.str.5, i1 noundef zeroext false)
          to label %invoke.cont165 unwind label %lpad162

invoke.cont165:                                   ; preds = %invoke.cont163
  call void @_ZN4cvc58internal12NodeTemplateILb1EED2Ev(ptr noundef nonnull align 8 dereferenceable(8) %agg.tmp160) #3
  invoke void @_ZN4cvc58internal12NodeTemplateILb0EEC2ERKS2_(ptr noundef nonnull align 8 dereferenceable(8) %agg.tmp167, ptr noundef nonnull align 8 dereferenceable(8) %x)
          to label %invoke.cont168 unwind label %lpad34

invoke.cont168:                                   ; preds = %invoke.cont165
  invoke void @_ZN4cvc58internal12NodeTemplateILb0EEC2ERKS2_(ptr noundef nonnull align 8 dereferenceable(8) %agg.tmp169, ptr noundef nonnull align 8 dereferenceable(8) %t)
          to label %invoke.cont171 unwind label %lpad170

invoke.cont171:                                   ; preds = %invoke.cont168
  %48 = load ptr, ptr %solvePg, align 8
  %49 = icmp eq ptr %48, null
  br i1 %49, label %cast.end, label %cast.notnull

cast.notnull:                                     ; preds = %invoke.cont171
  %add.ptr = getelementptr inbounds i8, ptr %48, i64 16
  br label %cast.end

cast.end:                                         ; preds = %cast.notnull, %invoke.cont171
  %cast.result = phi ptr [ %add.ptr, %cast.notnull ], [ null, %invoke.cont171 ]
  invoke void @_ZN4cvc58internal6theory20TrustSubstitutionMap15addSubstitutionENS0_12NodeTemplateILb0EEES4_PNS0_14ProofGeneratorE(ptr noundef nonnull align 8 dereferenceable(608) %this1, ptr noundef %agg.tmp167, ptr noundef %agg.tmp169, ptr noundef %cast.result)
          to label %invoke.cont173 unwind label %lpad172

invoke.cont173:                                   ; preds = %cast.end
  call void @_ZN4cvc58internal12NodeTemplateILb0EED2Ev(ptr noundef nonnull align 8 dereferenceable(8) %agg.tmp169) #3
  call void @_ZN4cvc58internal12NodeTemplateILb0EED2Ev(ptr noundef nonnull align 8 dereferenceable(8) %agg.tmp167) #3
  %50 = load ptr, ptr %solvePg, align 8
  %51 = icmp eq ptr %50, null
  br i1 %51, label %cast.end178, label %cast.notnull176

cast.notnull176:                                  ; preds = %invoke.cont173
  %add.ptr177 = getelementptr inbounds i8, ptr %50, i64 16
  br label %cast.end178

cast.end178:                                      ; preds = %cast.notnull176, %invoke.cont173
  %cast.result179 = phi ptr [ %add.ptr177, %cast.notnull176 ], [ null, %invoke.cont173 ]
  store ptr %cast.result179, ptr %retval, align 8
  store i32 1, ptr %cleanup.dest.slot, align 4
  br label %cleanup

lpad162:                                          ; preds = %invoke.cont163, %invoke.cont161
  %52 = landingpad { ptr, i32 }
          cleanup
  %53 = extractvalue { ptr, i32 } %52, 0
  store ptr %53, ptr %exn.slot, align 8
  %54 = extractvalue { ptr, i32 } %52, 1
  store i32 %54, ptr %ehselector.slot, align 4
  call void @_ZN4cvc58internal12NodeTemplateILb1EED2Ev(ptr noundef nonnull align 8 dereferenceable(8) %agg.tmp160) #3
  br label %ehcleanup180

lpad170:                                          ; preds = %invoke.cont168
  %55 = landingpad { ptr, i32 }
          cleanup
  %56 = extractvalue { ptr, i32 } %55, 0
  store ptr %56, ptr %exn.slot, align 8
  %57 = extractvalue { ptr, i32 } %55, 1
  store i32 %57, ptr %ehselector.slot, align 4
  br label %ehcleanup175

lpad172:                                          ; preds = %cast.end
  %58 = landingpad { ptr, i32 }
          cleanup
  %59 = extractvalue { ptr, i32 } %58, 0
  store ptr %59, ptr %exn.slot, align 8
  %60 = extractvalue { ptr, i32 } %58, 1
  store i32 %60, ptr %ehselector.slot, align 4
  call void @_ZN4cvc58internal12NodeTemplateILb0EED2Ev(ptr noundef nonnull align 8 dereferenceable(8) %agg.tmp169) #3
  br label %ehcleanup175

ehcleanup175:                                     ; preds = %lpad172, %lpad170
  call void @_ZN4cvc58internal12NodeTemplateILb0EED2Ev(ptr noundef nonnull align 8 dereferenceable(8) %agg.tmp167) #3
  br label %ehcleanup180

cleanup:                                          ; preds = %cast.end178, %invoke.cont64
  call void @_ZN4cvc58internal12NodeTemplateILb1EED2Ev(ptr noundef nonnull align 8 dereferenceable(8) %proven) #3
  call void @_ZN4cvc58internal12NodeTemplateILb1EED2Ev(ptr noundef nonnull align 8 dereferenceable(8) %eq) #3
  br label %return

ehcleanup180:                                     ; preds = %ehcleanup175, %lpad162, %arraydestroy.done136, %arraydestroy.done110, %ehcleanup83, %ehcleanup48, %lpad34
  call void @_ZN4cvc58internal12NodeTemplateILb1EED2Ev(ptr noundef nonnull align 8 dereferenceable(8) %proven) #3
  br label %ehcleanup182

ehcleanup182:                                     ; preds = %ehcleanup180, %lpad32
  call void @_ZN4cvc58internal12NodeTemplateILb1EED2Ev(ptr noundef nonnull align 8 dereferenceable(8) %eq) #3
  br label %eh.resume

return:                                           ; preds = %cleanup, %cond.end31
  %61 = load ptr, ptr %retval, align 8
  ret ptr %61

eh.resume:                                        ; preds = %ehcleanup182, %ehcleanup, %cleanup.done14
  %exn = load ptr, ptr %exn.slot, align 8
  %sel = load i32, ptr %ehselector.slot, align 4
  %lpad.val = insertvalue { ptr, i32 } poison, ptr %exn, 0
  %lpad.val183 = insertvalue { ptr, i32 } %lpad.val, i32 %sel, 1
  resume { ptr, i32 } %lpad.val183
}

; Function Attrs: mustprogress uwtable
define linkonce_odr hidden noundef nonnull align 8 dereferenceable(24) ptr @_ZN4cvc58internal11Cvc5ostreamlsIA50_cEERS1_RKT_(ptr noundef nonnull align 8 dereferenceable(24) %this, ptr noundef nonnull align 1 dereferenceable(50) %t) #4 comdat align 2 {
entry:
  %this.addr = alloca ptr, align 8
  %t.addr = alloca ptr, align 8
  %indent = alloca i64, align 8
  %i = alloca i64, align 8
  store ptr %this, ptr %this.addr, align 8
  store ptr %t, ptr %t.addr, align 8
  %this1 = load ptr, ptr %this.addr, align 8
  %d_os = getelementptr inbounds %"class.cvc5::internal::Cvc5ostream", ptr %this1, i32 0, i32 0
  %0 = load ptr, ptr %d_os, align 8
  %cmp = icmp ne ptr %0, null
  br i1 %cmp, label %if.then, label %if.end11

if.then:                                          ; preds = %entry
  %d_firstColumn = getelementptr inbounds %"class.cvc5::internal::Cvc5ostream", ptr %this1, i32 0, i32 1
  %1 = load i8, ptr %d_firstColumn, align 8
  %tobool = trunc i8 %1 to i1
  br i1 %tobool, label %if.then2, label %if.end

if.then2:                                         ; preds = %if.then
  %d_firstColumn3 = getelementptr inbounds %"class.cvc5::internal::Cvc5ostream", ptr %this1, i32 0, i32 1
  store i8 0, ptr %d_firstColumn3, align 8
  %d_os4 = getelementptr inbounds %"class.cvc5::internal::Cvc5ostream", ptr %this1, i32 0, i32 0
  %2 = load ptr, ptr %d_os4, align 8
  %vtable = load ptr, ptr %2, align 8
  %vbase.offset.ptr = getelementptr i8, ptr %vtable, i64 -24
  %vbase.offset = load i64, ptr %vbase.offset.ptr, align 8
  %add.ptr = getelementptr inbounds i8, ptr %2, i64 %vbase.offset
  %3 = load i32, ptr @_ZN4cvc58internal11Cvc5ostream16s_indentIosIndexE, align 4
  %call = call noundef nonnull align 8 dereferenceable(8) ptr @_ZNSt8ios_base5iwordEi(ptr noundef nonnull align 8 dereferenceable(216) %add.ptr, i32 noundef %3)
  %4 = load i64, ptr %call, align 8
  store i64 %4, ptr %indent, align 8
  store i64 0, ptr %i, align 8
  br label %for.cond

for.cond:                                         ; preds = %for.inc, %if.then2
  %5 = load i64, ptr %i, align 8
  %6 = load i64, ptr %indent, align 8
  %cmp5 = icmp slt i64 %5, %6
  br i1 %cmp5, label %for.body, label %for.end

for.body:                                         ; preds = %for.cond
  %d_os6 = getelementptr inbounds %"class.cvc5::internal::Cvc5ostream", ptr %this1, i32 0, i32 0
  %7 = load ptr, ptr %d_os6, align 8
  %call7 = call noundef nonnull align 8 dereferenceable(8) ptr @_ZStlsIcSt11char_traitsIcESaIcEERSt13basic_ostreamIT_T0_ES7_RKNSt7__cxx1112basic_stringIS4_S5_T1_EE(ptr noundef nonnull align 8 dereferenceable(8) %7, ptr noundef nonnull align 8 dereferenceable(32) @_ZN4cvc58internal11Cvc5ostream5s_tabB5cxx11E)
  %d_os8 = getelementptr inbounds %"class.cvc5::internal::Cvc5ostream", ptr %this1, i32 0, i32 0
  store ptr %call7, ptr %d_os8, align 8
  br label %for.inc

for.inc:                                          ; preds = %for.body
  %8 = load i64, ptr %i, align 8
  %inc = add nsw i64 %8, 1
  store i64 %inc, ptr %i, align 8
  br label %for.cond, !llvm.loop !8

for.end:                                          ; preds = %for.cond
  br label %if.end

if.end:                                           ; preds = %for.end, %if.then
  %d_os9 = getelementptr inbounds %"class.cvc5::internal::Cvc5ostream", ptr %this1, i32 0, i32 0
  %9 = load ptr, ptr %d_os9, align 8
  %10 = load ptr, ptr %t.addr, align 8
  %arraydecay = getelementptr inbounds [50 x i8], ptr %10, i64 0, i64 0
  %call10 = call noundef nonnull align 8 dereferenceable(8) ptr @_ZStlsISt11char_traitsIcEERSt13basic_ostreamIcT_ES5_PKc(ptr noundef nonnull align 8 dereferenceable(8) %9, ptr noundef %arraydecay)
  br label %if.end11

if.end11:                                         ; preds = %if.end, %entry
  ret ptr %this1
}

; Function Attrs: mustprogress uwtable
define linkonce_odr hidden noundef nonnull align 8 dereferenceable(24) ptr @_ZN4cvc58internal11Cvc5ostreamlsIA7_cEERS1_RKT_(ptr noundef nonnull align 8 dereferenceable(24) %this, ptr noundef nonnull align 1 dereferenceable(7) %t) #4 comdat align 2 {
entry:
  %this.addr = alloca ptr, align 8
  %t.addr = alloca ptr, align 8
  %indent = alloca i64, align 8
  %i = alloca i64, align 8
  store ptr %this, ptr %this.addr, align 8
  store ptr %t, ptr %t.addr, align 8
  %this1 = load ptr, ptr %this.addr, align 8
  %d_os = getelementptr inbounds %"class.cvc5::internal::Cvc5ostream", ptr %this1, i32 0, i32 0
  %0 = load ptr, ptr %d_os, align 8
  %cmp = icmp ne ptr %0, null
  br i1 %cmp, label %if.then, label %if.end11

if.then:                                          ; preds = %entry
  %d_firstColumn = getelementptr inbounds %"class.cvc5::internal::Cvc5ostream", ptr %this1, i32 0, i32 1
  %1 = load i8, ptr %d_firstColumn, align 8
  %tobool = trunc i8 %1 to i1
  br i1 %tobool, label %if.then2, label %if.end

if.then2:                                         ; preds = %if.then
  %d_firstColumn3 = getelementptr inbounds %"class.cvc5::internal::Cvc5ostream", ptr %this1, i32 0, i32 1
  store i8 0, ptr %d_firstColumn3, align 8
  %d_os4 = getelementptr inbounds %"class.cvc5::internal::Cvc5ostream", ptr %this1, i32 0, i32 0
  %2 = load ptr, ptr %d_os4, align 8
  %vtable = load ptr, ptr %2, align 8
  %vbase.offset.ptr = getelementptr i8, ptr %vtable, i64 -24
  %vbase.offset = load i64, ptr %vbase.offset.ptr, align 8
  %add.ptr = getelementptr inbounds i8, ptr %2, i64 %vbase.offset
  %3 = load i32, ptr @_ZN4cvc58internal11Cvc5ostream16s_indentIosIndexE, align 4
  %call = call noundef nonnull align 8 dereferenceable(8) ptr @_ZNSt8ios_base5iwordEi(ptr noundef nonnull align 8 dereferenceable(216) %add.ptr, i32 noundef %3)
  %4 = load i64, ptr %call, align 8
  store i64 %4, ptr %indent, align 8
  store i64 0, ptr %i, align 8
  br label %for.cond

for.cond:                                         ; preds = %for.inc, %if.then2
  %5 = load i64, ptr %i, align 8
  %6 = load i64, ptr %indent, align 8
  %cmp5 = icmp slt i64 %5, %6
  br i1 %cmp5, label %for.body, label %for.end

for.body:                                         ; preds = %for.cond
  %d_os6 = getelementptr inbounds %"class.cvc5::internal::Cvc5ostream", ptr %this1, i32 0, i32 0
  %7 = load ptr, ptr %d_os6, align 8
  %call7 = call noundef nonnull align 8 dereferenceable(8) ptr @_ZStlsIcSt11char_traitsIcESaIcEERSt13basic_ostreamIT_T0_ES7_RKNSt7__cxx1112basic_stringIS4_S5_T1_EE(ptr noundef nonnull align 8 dereferenceable(8) %7, ptr noundef nonnull align 8 dereferenceable(32) @_ZN4cvc58internal11Cvc5ostream5s_tabB5cxx11E)
  %d_os8 = getelementptr inbounds %"class.cvc5::internal::Cvc5ostream", ptr %this1, i32 0, i32 0
  store ptr %call7, ptr %d_os8, align 8
  br label %for.inc

for.inc:                                          ; preds = %for.body
  %8 = load i64, ptr %i, align 8
  %inc = add nsw i64 %8, 1
  store i64 %inc, ptr %i, align 8
  br label %for.cond, !llvm.loop !9

for.end:                                          ; preds = %for.cond
  br label %if.end

if.end:                                           ; preds = %for.end, %if.then
  %d_os9 = getelementptr inbounds %"class.cvc5::internal::Cvc5ostream", ptr %this1, i32 0, i32 0
  %9 = load ptr, ptr %d_os9, align 8
  %10 = load ptr, ptr %t.addr, align 8
  %arraydecay = getelementptr inbounds [7 x i8], ptr %10, i64 0, i64 0
  %call10 = call noundef nonnull align 8 dereferenceable(8) ptr @_ZStlsISt11char_traitsIcEERSt13basic_ostreamIcT_ES5_PKc(ptr noundef nonnull align 8 dereferenceable(8) %9, ptr noundef %arraydecay)
  br label %if.end11

if.end11:                                         ; preds = %if.end, %entry
  ret ptr %this1
}

; Function Attrs: mustprogress uwtable
define linkonce_odr hidden noundef nonnull align 8 dereferenceable(24) ptr @_ZN4cvc58internal11Cvc5ostreamlsINS0_12NodeTemplateILb1EEEEERS1_RKT_(ptr noundef nonnull align 8 dereferenceable(24) %this, ptr noundef nonnull align 8 dereferenceable(8) %t) #4 comdat align 2 personality ptr @__gxx_personality_v0 {
entry:
  %this.addr = alloca ptr, align 8
  %t.addr = alloca ptr, align 8
  %indent = alloca i64, align 8
  %i = alloca i64, align 8
  %agg.tmp = alloca %"class.cvc5::internal::NodeTemplate.376", align 8
  %exn.slot = alloca ptr, align 8
  %ehselector.slot = alloca i32, align 4
  store ptr %this, ptr %this.addr, align 8
  store ptr %t, ptr %t.addr, align 8
  %this1 = load ptr, ptr %this.addr, align 8
  %d_os = getelementptr inbounds %"class.cvc5::internal::Cvc5ostream", ptr %this1, i32 0, i32 0
  %0 = load ptr, ptr %d_os, align 8
  %cmp = icmp ne ptr %0, null
  br i1 %cmp, label %if.then, label %if.end11

if.then:                                          ; preds = %entry
  %d_firstColumn = getelementptr inbounds %"class.cvc5::internal::Cvc5ostream", ptr %this1, i32 0, i32 1
  %1 = load i8, ptr %d_firstColumn, align 8
  %tobool = trunc i8 %1 to i1
  br i1 %tobool, label %if.then2, label %if.end

if.then2:                                         ; preds = %if.then
  %d_firstColumn3 = getelementptr inbounds %"class.cvc5::internal::Cvc5ostream", ptr %this1, i32 0, i32 1
  store i8 0, ptr %d_firstColumn3, align 8
  %d_os4 = getelementptr inbounds %"class.cvc5::internal::Cvc5ostream", ptr %this1, i32 0, i32 0
  %2 = load ptr, ptr %d_os4, align 8
  %vtable = load ptr, ptr %2, align 8
  %vbase.offset.ptr = getelementptr i8, ptr %vtable, i64 -24
  %vbase.offset = load i64, ptr %vbase.offset.ptr, align 8
  %add.ptr = getelementptr inbounds i8, ptr %2, i64 %vbase.offset
  %3 = load i32, ptr @_ZN4cvc58internal11Cvc5ostream16s_indentIosIndexE, align 4
  %call = call noundef nonnull align 8 dereferenceable(8) ptr @_ZNSt8ios_base5iwordEi(ptr noundef nonnull align 8 dereferenceable(216) %add.ptr, i32 noundef %3)
  %4 = load i64, ptr %call, align 8
  store i64 %4, ptr %indent, align 8
  store i64 0, ptr %i, align 8
  br label %for.cond

for.cond:                                         ; preds = %for.inc, %if.then2
  %5 = load i64, ptr %i, align 8
  %6 = load i64, ptr %indent, align 8
  %cmp5 = icmp slt i64 %5, %6
  br i1 %cmp5, label %for.body, label %for.end

for.body:                                         ; preds = %for.cond
  %d_os6 = getelementptr inbounds %"class.cvc5::internal::Cvc5ostream", ptr %this1, i32 0, i32 0
  %7 = load ptr, ptr %d_os6, align 8
  %call7 = call noundef nonnull align 8 dereferenceable(8) ptr @_ZStlsIcSt11char_traitsIcESaIcEERSt13basic_ostreamIT_T0_ES7_RKNSt7__cxx1112basic_stringIS4_S5_T1_EE(ptr noundef nonnull align 8 dereferenceable(8) %7, ptr noundef nonnull align 8 dereferenceable(32) @_ZN4cvc58internal11Cvc5ostream5s_tabB5cxx11E)
  %d_os8 = getelementptr inbounds %"class.cvc5::internal::Cvc5ostream", ptr %this1, i32 0, i32 0
  store ptr %call7, ptr %d_os8, align 8
  br label %for.inc

for.inc:                                          ; preds = %for.body
  %8 = load i64, ptr %i, align 8
  %inc = add nsw i64 %8, 1
  store i64 %inc, ptr %i, align 8
  br label %for.cond, !llvm.loop !10

for.end:                                          ; preds = %for.cond
  br label %if.end

if.end:                                           ; preds = %for.end, %if.then
  %d_os9 = getelementptr inbounds %"class.cvc5::internal::Cvc5ostream", ptr %this1, i32 0, i32 0
  %9 = load ptr, ptr %d_os9, align 8
  %10 = load ptr, ptr %t.addr, align 8
  call void @_ZN4cvc58internal12NodeTemplateILb0EEC2ERKNS1_ILb1EEE(ptr noundef nonnull align 8 dereferenceable(8) %agg.tmp, ptr noundef nonnull align 8 dereferenceable(8) %10)
  %call10 = invoke noundef nonnull align 8 dereferenceable(8) ptr @_ZN4cvc58internallsERSoNS0_12NodeTemplateILb0EEE(ptr noundef nonnull align 8 dereferenceable(8) %9, ptr noundef %agg.tmp)
          to label %invoke.cont unwind label %lpad

invoke.cont:                                      ; preds = %if.end
  call void @_ZN4cvc58internal12NodeTemplateILb0EED2Ev(ptr noundef nonnull align 8 dereferenceable(8) %agg.tmp) #3
  br label %if.end11

lpad:                                             ; preds = %if.end
  %11 = landingpad { ptr, i32 }
          cleanup
  %12 = extractvalue { ptr, i32 } %11, 0
  store ptr %12, ptr %exn.slot, align 8
  %13 = extractvalue { ptr, i32 } %11, 1
  store i32 %13, ptr %ehselector.slot, align 4
  call void @_ZN4cvc58internal12NodeTemplateILb0EED2Ev(ptr noundef nonnull align 8 dereferenceable(8) %agg.tmp) #3
  br label %eh.resume

if.end11:                                         ; preds = %invoke.cont, %entry
  ret ptr %this1

eh.resume:                                        ; preds = %lpad
  %exn = load ptr, ptr %exn.slot, align 8
  %sel = load i32, ptr %ehselector.slot, align 4
  %lpad.val = insertvalue { ptr, i32 } poison, ptr %exn, 0
  %lpad.val12 = insertvalue { ptr, i32 } %lpad.val, i32 %sel, 1
  resume { ptr, i32 } %lpad.val12
}

declare noundef ptr @_ZNK4cvc58internal9TrustNode12getGeneratorEv(ptr noundef nonnull align 8 dereferenceable(24)) #1

; Function Attrs: mustprogress uwtable
define linkonce_odr hidden noundef nonnull align 8 dereferenceable(24) ptr @_ZN4cvc58internal11Cvc5ostreamlsIA12_cEERS1_RKT_(ptr noundef nonnull align 8 dereferenceable(24) %this, ptr noundef nonnull align 1 dereferenceable(12) %t) #4 comdat align 2 {
entry:
  %this.addr = alloca ptr, align 8
  %t.addr = alloca ptr, align 8
  %indent = alloca i64, align 8
  %i = alloca i64, align 8
  store ptr %this, ptr %this.addr, align 8
  store ptr %t, ptr %t.addr, align 8
  %this1 = load ptr, ptr %this.addr, align 8
  %d_os = getelementptr inbounds %"class.cvc5::internal::Cvc5ostream", ptr %this1, i32 0, i32 0
  %0 = load ptr, ptr %d_os, align 8
  %cmp = icmp ne ptr %0, null
  br i1 %cmp, label %if.then, label %if.end11

if.then:                                          ; preds = %entry
  %d_firstColumn = getelementptr inbounds %"class.cvc5::internal::Cvc5ostream", ptr %this1, i32 0, i32 1
  %1 = load i8, ptr %d_firstColumn, align 8
  %tobool = trunc i8 %1 to i1
  br i1 %tobool, label %if.then2, label %if.end

if.then2:                                         ; preds = %if.then
  %d_firstColumn3 = getelementptr inbounds %"class.cvc5::internal::Cvc5ostream", ptr %this1, i32 0, i32 1
  store i8 0, ptr %d_firstColumn3, align 8
  %d_os4 = getelementptr inbounds %"class.cvc5::internal::Cvc5ostream", ptr %this1, i32 0, i32 0
  %2 = load ptr, ptr %d_os4, align 8
  %vtable = load ptr, ptr %2, align 8
  %vbase.offset.ptr = getelementptr i8, ptr %vtable, i64 -24
  %vbase.offset = load i64, ptr %vbase.offset.ptr, align 8
  %add.ptr = getelementptr inbounds i8, ptr %2, i64 %vbase.offset
  %3 = load i32, ptr @_ZN4cvc58internal11Cvc5ostream16s_indentIosIndexE, align 4
  %call = call noundef nonnull align 8 dereferenceable(8) ptr @_ZNSt8ios_base5iwordEi(ptr noundef nonnull align 8 dereferenceable(216) %add.ptr, i32 noundef %3)
  %4 = load i64, ptr %call, align 8
  store i64 %4, ptr %indent, align 8
  store i64 0, ptr %i, align 8
  br label %for.cond

for.cond:                                         ; preds = %for.inc, %if.then2
  %5 = load i64, ptr %i, align 8
  %6 = load i64, ptr %indent, align 8
  %cmp5 = icmp slt i64 %5, %6
  br i1 %cmp5, label %for.body, label %for.end

for.body:                                         ; preds = %for.cond
  %d_os6 = getelementptr inbounds %"class.cvc5::internal::Cvc5ostream", ptr %this1, i32 0, i32 0
  %7 = load ptr, ptr %d_os6, align 8
  %call7 = call noundef nonnull align 8 dereferenceable(8) ptr @_ZStlsIcSt11char_traitsIcESaIcEERSt13basic_ostreamIT_T0_ES7_RKNSt7__cxx1112basic_stringIS4_S5_T1_EE(ptr noundef nonnull align 8 dereferenceable(8) %7, ptr noundef nonnull align 8 dereferenceable(32) @_ZN4cvc58internal11Cvc5ostream5s_tabB5cxx11E)
  %d_os8 = getelementptr inbounds %"class.cvc5::internal::Cvc5ostream", ptr %this1, i32 0, i32 0
  store ptr %call7, ptr %d_os8, align 8
  br label %for.inc

for.inc:                                          ; preds = %for.body
  %8 = load i64, ptr %i, align 8
  %inc = add nsw i64 %8, 1
  store i64 %inc, ptr %i, align 8
  br label %for.cond, !llvm.loop !11

for.end:                                          ; preds = %for.cond
  br label %if.end

if.end:                                           ; preds = %for.end, %if.then
  %d_os9 = getelementptr inbounds %"class.cvc5::internal::Cvc5ostream", ptr %this1, i32 0, i32 0
  %9 = load ptr, ptr %d_os9, align 8
  %10 = load ptr, ptr %t.addr, align 8
  %arraydecay = getelementptr inbounds [12 x i8], ptr %10, i64 0, i64 0
  %call10 = call noundef nonnull align 8 dereferenceable(8) ptr @_ZStlsISt11char_traitsIcEERSt13basic_ostreamIcT_ES5_PKc(ptr noundef nonnull align 8 dereferenceable(8) %9, ptr noundef %arraydecay)
  br label %if.end11

if.end11:                                         ; preds = %if.end, %entry
  ret ptr %this1
}

; Function Attrs: mustprogress uwtable
define linkonce_odr hidden noundef zeroext i1 @_ZNK4cvc58internal12NodeTemplateILb1EEeqILb1EEEbRKNS1_IXT_EEE(ptr noundef nonnull align 8 dereferenceable(8) %this, ptr noundef nonnull align 8 dereferenceable(8) %node) #4 comdat align 2 {
entry:
  %this.addr = alloca ptr, align 8
  %node.addr = alloca ptr, align 8
  store ptr %this, ptr %this.addr, align 8
  store ptr %node, ptr %node.addr, align 8
  %this1 = load ptr, ptr %this.addr, align 8
  call void @_ZNK4cvc58internal12NodeTemplateILb1EE21assertTNodeNotExpiredEv(ptr noundef nonnull align 8 dereferenceable(8) %this1)
  %0 = load ptr, ptr %node.addr, align 8
  call void @_ZNK4cvc58internal12NodeTemplateILb1EE21assertTNodeNotExpiredEv(ptr noundef nonnull align 8 dereferenceable(8) %0)
  %d_nv = getelementptr inbounds %"class.cvc5::internal::NodeTemplate", ptr %this1, i32 0, i32 0
  %1 = load ptr, ptr %d_nv, align 8
  %2 = load ptr, ptr %node.addr, align 8
  %d_nv2 = getelementptr inbounds %"class.cvc5::internal::NodeTemplate", ptr %2, i32 0, i32 0
  %3 = load ptr, ptr %d_nv2, align 8
  %cmp = icmp eq ptr %1, %3
  ret i1 %cmp
}

; Function Attrs: mustprogress uwtable
define linkonce_odr hidden noundef nonnull align 8 dereferenceable(24) ptr @_ZN4cvc58internal11Cvc5ostreamlsIA26_cEERS1_RKT_(ptr noundef nonnull align 8 dereferenceable(24) %this, ptr noundef nonnull align 1 dereferenceable(26) %t) #4 comdat align 2 {
entry:
  %this.addr = alloca ptr, align 8
  %t.addr = alloca ptr, align 8
  %indent = alloca i64, align 8
  %i = alloca i64, align 8
  store ptr %this, ptr %this.addr, align 8
  store ptr %t, ptr %t.addr, align 8
  %this1 = load ptr, ptr %this.addr, align 8
  %d_os = getelementptr inbounds %"class.cvc5::internal::Cvc5ostream", ptr %this1, i32 0, i32 0
  %0 = load ptr, ptr %d_os, align 8
  %cmp = icmp ne ptr %0, null
  br i1 %cmp, label %if.then, label %if.end11

if.then:                                          ; preds = %entry
  %d_firstColumn = getelementptr inbounds %"class.cvc5::internal::Cvc5ostream", ptr %this1, i32 0, i32 1
  %1 = load i8, ptr %d_firstColumn, align 8
  %tobool = trunc i8 %1 to i1
  br i1 %tobool, label %if.then2, label %if.end

if.then2:                                         ; preds = %if.then
  %d_firstColumn3 = getelementptr inbounds %"class.cvc5::internal::Cvc5ostream", ptr %this1, i32 0, i32 1
  store i8 0, ptr %d_firstColumn3, align 8
  %d_os4 = getelementptr inbounds %"class.cvc5::internal::Cvc5ostream", ptr %this1, i32 0, i32 0
  %2 = load ptr, ptr %d_os4, align 8
  %vtable = load ptr, ptr %2, align 8
  %vbase.offset.ptr = getelementptr i8, ptr %vtable, i64 -24
  %vbase.offset = load i64, ptr %vbase.offset.ptr, align 8
  %add.ptr = getelementptr inbounds i8, ptr %2, i64 %vbase.offset
  %3 = load i32, ptr @_ZN4cvc58internal11Cvc5ostream16s_indentIosIndexE, align 4
  %call = call noundef nonnull align 8 dereferenceable(8) ptr @_ZNSt8ios_base5iwordEi(ptr noundef nonnull align 8 dereferenceable(216) %add.ptr, i32 noundef %3)
  %4 = load i64, ptr %call, align 8
  store i64 %4, ptr %indent, align 8
  store i64 0, ptr %i, align 8
  br label %for.cond

for.cond:                                         ; preds = %for.inc, %if.then2
  %5 = load i64, ptr %i, align 8
  %6 = load i64, ptr %indent, align 8
  %cmp5 = icmp slt i64 %5, %6
  br i1 %cmp5, label %for.body, label %for.end

for.body:                                         ; preds = %for.cond
  %d_os6 = getelementptr inbounds %"class.cvc5::internal::Cvc5ostream", ptr %this1, i32 0, i32 0
  %7 = load ptr, ptr %d_os6, align 8
  %call7 = call noundef nonnull align 8 dereferenceable(8) ptr @_ZStlsIcSt11char_traitsIcESaIcEERSt13basic_ostreamIT_T0_ES7_RKNSt7__cxx1112basic_stringIS4_S5_T1_EE(ptr noundef nonnull align 8 dereferenceable(8) %7, ptr noundef nonnull align 8 dereferenceable(32) @_ZN4cvc58internal11Cvc5ostream5s_tabB5cxx11E)
  %d_os8 = getelementptr inbounds %"class.cvc5::internal::Cvc5ostream", ptr %this1, i32 0, i32 0
  store ptr %call7, ptr %d_os8, align 8
  br label %for.inc

for.inc:                                          ; preds = %for.body
  %8 = load i64, ptr %i, align 8
  %inc = add nsw i64 %8, 1
  store i64 %inc, ptr %i, align 8
  br label %for.cond, !llvm.loop !12

for.end:                                          ; preds = %for.cond
  br label %if.end

if.end:                                           ; preds = %for.end, %if.then
  %d_os9 = getelementptr inbounds %"class.cvc5::internal::Cvc5ostream", ptr %this1, i32 0, i32 0
  %9 = load ptr, ptr %d_os9, align 8
  %10 = load ptr, ptr %t.addr, align 8
  %arraydecay = getelementptr inbounds [26 x i8], ptr %10, i64 0, i64 0
  %call10 = call noundef nonnull align 8 dereferenceable(8) ptr @_ZStlsISt11char_traitsIcEERSt13basic_ostreamIcT_ES5_PKc(ptr noundef nonnull align 8 dereferenceable(8) %9, ptr noundef %arraydecay)
  br label %if.end11

if.end11:                                         ; preds = %if.end, %entry
  ret ptr %this1
}

; Function Attrs: mustprogress nounwind uwtable
define linkonce_odr hidden noundef ptr @_ZNKSt10unique_ptrIN4cvc58internal21TheoryProofStepBufferESt14default_deleteIS2_EEptEv(ptr noundef nonnull align 8 dereferenceable(8) %this) #5 comdat align 2 {
entry:
  %this.addr = alloca ptr, align 8
  store ptr %this, ptr %this.addr, align 8
  %this1 = load ptr, ptr %this.addr, align 8
  %call = call noundef ptr @_ZNKSt10unique_ptrIN4cvc58internal21TheoryProofStepBufferESt14default_deleteIS2_EE3getEv(ptr noundef nonnull align 8 dereferenceable(8) %this1) #3
  ret ptr %call
}

declare noundef zeroext i1 @_ZN4cvc58internal21TheoryProofStepBuffer18applyPredTransformENS0_12NodeTemplateILb1EEES3_RKSt6vectorIS3_SaIS3_EENS0_8MethodIdES9_S9_b(ptr noundef nonnull align 8 dereferenceable(104), ptr noundef, ptr noundef, ptr noundef nonnull align 8 dereferenceable(24), i32 noundef, i32 noundef, i32 noundef, i1 noundef zeroext) #1

; Function Attrs: nocallback nofree nounwind willreturn memory(argmem: write)
declare void @llvm.memset.p0.i64(ptr nocapture writeonly, i8, i64, i1 immarg) #9

; Function Attrs: mustprogress nounwind uwtable
define linkonce_odr hidden void @_ZNSt6vectorIN4cvc58internal12NodeTemplateILb1EEESaIS3_EEC2Ev(ptr noundef nonnull align 8 dereferenceable(24) %this) unnamed_addr #5 comdat align 2 {
entry:
  %this.addr = alloca ptr, align 8
  store ptr %this, ptr %this.addr, align 8
  %this1 = load ptr, ptr %this.addr, align 8
  call void @_ZNSt12_Vector_baseIN4cvc58internal12NodeTemplateILb1EEESaIS3_EEC2Ev(ptr noundef nonnull align 8 dereferenceable(24) %this1) #3
  ret void
}

; Function Attrs: mustprogress nounwind uwtable
define linkonce_odr hidden void @_ZNSt6vectorIN4cvc58internal12NodeTemplateILb1EEESaIS3_EED2Ev(ptr noundef nonnull align 8 dereferenceable(24) %this) unnamed_addr #5 comdat align 2 personality ptr @__gxx_personality_v0 {
entry:
  %this.addr = alloca ptr, align 8
  store ptr %this, ptr %this.addr, align 8
  %this1 = load ptr, ptr %this.addr, align 8
  %_M_impl = getelementptr inbounds %"struct.std::_Vector_base.383", ptr %this1, i32 0, i32 0
  %_M_start = getelementptr inbounds %"struct.std::_Vector_base<cvc5::internal::NodeTemplate<true>, std::allocator<cvc5::internal::NodeTemplate<true>>>::_Vector_impl_data", ptr %_M_impl, i32 0, i32 0
  %0 = load ptr, ptr %_M_start, align 8
  %_M_impl2 = getelementptr inbounds %"struct.std::_Vector_base.383", ptr %this1, i32 0, i32 0
  %_M_finish = getelementptr inbounds %"struct.std::_Vector_base<cvc5::internal::NodeTemplate<true>, std::allocator<cvc5::internal::NodeTemplate<true>>>::_Vector_impl_data", ptr %_M_impl2, i32 0, i32 1
  %1 = load ptr, ptr %_M_finish, align 8
  %call = call noundef nonnull align 1 dereferenceable(1) ptr @_ZNSt12_Vector_baseIN4cvc58internal12NodeTemplateILb1EEESaIS3_EE19_M_get_Tp_allocatorEv(ptr noundef nonnull align 8 dereferenceable(24) %this1) #3
  invoke void @_ZSt8_DestroyIPN4cvc58internal12NodeTemplateILb1EEES3_EvT_S5_RSaIT0_E(ptr noundef %0, ptr noundef %1, ptr noundef nonnull align 1 dereferenceable(1) %call)
          to label %invoke.cont unwind label %terminate.lpad

invoke.cont:                                      ; preds = %entry
  call void @_ZNSt12_Vector_baseIN4cvc58internal12NodeTemplateILb1EEESaIS3_EED2Ev(ptr noundef nonnull align 8 dereferenceable(24) %this1) #3
  ret void

terminate.lpad:                                   ; preds = %entry
  %2 = landingpad { ptr, i32 }
          catch ptr null
  %3 = extractvalue { ptr, i32 } %2, 0
  call void @__clang_call_terminate(ptr %3) #18
  unreachable
}

; Function Attrs: mustprogress uwtable
define linkonce_odr hidden noundef nonnull align 8 dereferenceable(24) ptr @_ZN4cvc58internal11Cvc5ostreamlsIA22_cEERS1_RKT_(ptr noundef nonnull align 8 dereferenceable(24) %this, ptr noundef nonnull align 1 dereferenceable(22) %t) #4 comdat align 2 {
entry:
  %this.addr = alloca ptr, align 8
  %t.addr = alloca ptr, align 8
  %indent = alloca i64, align 8
  %i = alloca i64, align 8
  store ptr %this, ptr %this.addr, align 8
  store ptr %t, ptr %t.addr, align 8
  %this1 = load ptr, ptr %this.addr, align 8
  %d_os = getelementptr inbounds %"class.cvc5::internal::Cvc5ostream", ptr %this1, i32 0, i32 0
  %0 = load ptr, ptr %d_os, align 8
  %cmp = icmp ne ptr %0, null
  br i1 %cmp, label %if.then, label %if.end11

if.then:                                          ; preds = %entry
  %d_firstColumn = getelementptr inbounds %"class.cvc5::internal::Cvc5ostream", ptr %this1, i32 0, i32 1
  %1 = load i8, ptr %d_firstColumn, align 8
  %tobool = trunc i8 %1 to i1
  br i1 %tobool, label %if.then2, label %if.end

if.then2:                                         ; preds = %if.then
  %d_firstColumn3 = getelementptr inbounds %"class.cvc5::internal::Cvc5ostream", ptr %this1, i32 0, i32 1
  store i8 0, ptr %d_firstColumn3, align 8
  %d_os4 = getelementptr inbounds %"class.cvc5::internal::Cvc5ostream", ptr %this1, i32 0, i32 0
  %2 = load ptr, ptr %d_os4, align 8
  %vtable = load ptr, ptr %2, align 8
  %vbase.offset.ptr = getelementptr i8, ptr %vtable, i64 -24
  %vbase.offset = load i64, ptr %vbase.offset.ptr, align 8
  %add.ptr = getelementptr inbounds i8, ptr %2, i64 %vbase.offset
  %3 = load i32, ptr @_ZN4cvc58internal11Cvc5ostream16s_indentIosIndexE, align 4
  %call = call noundef nonnull align 8 dereferenceable(8) ptr @_ZNSt8ios_base5iwordEi(ptr noundef nonnull align 8 dereferenceable(216) %add.ptr, i32 noundef %3)
  %4 = load i64, ptr %call, align 8
  store i64 %4, ptr %indent, align 8
  store i64 0, ptr %i, align 8
  br label %for.cond

for.cond:                                         ; preds = %for.inc, %if.then2
  %5 = load i64, ptr %i, align 8
  %6 = load i64, ptr %indent, align 8
  %cmp5 = icmp slt i64 %5, %6
  br i1 %cmp5, label %for.body, label %for.end

for.body:                                         ; preds = %for.cond
  %d_os6 = getelementptr inbounds %"class.cvc5::internal::Cvc5ostream", ptr %this1, i32 0, i32 0
  %7 = load ptr, ptr %d_os6, align 8
  %call7 = call noundef nonnull align 8 dereferenceable(8) ptr @_ZStlsIcSt11char_traitsIcESaIcEERSt13basic_ostreamIT_T0_ES7_RKNSt7__cxx1112basic_stringIS4_S5_T1_EE(ptr noundef nonnull align 8 dereferenceable(8) %7, ptr noundef nonnull align 8 dereferenceable(32) @_ZN4cvc58internal11Cvc5ostream5s_tabB5cxx11E)
  %d_os8 = getelementptr inbounds %"class.cvc5::internal::Cvc5ostream", ptr %this1, i32 0, i32 0
  store ptr %call7, ptr %d_os8, align 8
  br label %for.inc

for.inc:                                          ; preds = %for.body
  %8 = load i64, ptr %i, align 8
  %inc = add nsw i64 %8, 1
  store i64 %inc, ptr %i, align 8
  br label %for.cond, !llvm.loop !13

for.end:                                          ; preds = %for.cond
  br label %if.end

if.end:                                           ; preds = %for.end, %if.then
  %d_os9 = getelementptr inbounds %"class.cvc5::internal::Cvc5ostream", ptr %this1, i32 0, i32 0
  %9 = load ptr, ptr %d_os9, align 8
  %10 = load ptr, ptr %t.addr, align 8
  %arraydecay = getelementptr inbounds [22 x i8], ptr %10, i64 0, i64 0
  %call10 = call noundef nonnull align 8 dereferenceable(8) ptr @_ZStlsISt11char_traitsIcEERSt13basic_ostreamIcT_ES5_PKc(ptr noundef nonnull align 8 dereferenceable(8) %9, ptr noundef %arraydecay)
  br label %if.end11

if.end11:                                         ; preds = %if.end, %entry
  ret ptr %this1
}

declare noundef zeroext i1 @_ZN4cvc58internal15ProofStepBuffer14addTrustedStepENS0_7TrustIdERKSt6vectorINS0_12NodeTemplateILb1EEESaIS5_EES9_S5_(ptr noundef nonnull align 8 dereferenceable(104), i32 noundef, ptr noundef nonnull align 8 dereferenceable(24), ptr noundef nonnull align 8 dereferenceable(24), ptr noundef) #1

; Function Attrs: mustprogress nounwind uwtable
define linkonce_odr hidden void @_ZNSaIN4cvc58internal12NodeTemplateILb1EEEEC2Ev(ptr noundef nonnull align 1 dereferenceable(1) %this) unnamed_addr #5 comdat align 2 {
entry:
  %this.addr = alloca ptr, align 8
  store ptr %this, ptr %this.addr, align 8
  %this1 = load ptr, ptr %this.addr, align 8
  call void @_ZNSt15__new_allocatorIN4cvc58internal12NodeTemplateILb1EEEEC2Ev(ptr noundef nonnull align 1 dereferenceable(1) %this1) #3
  ret void
}

; Function Attrs: mustprogress uwtable
define linkonce_odr hidden void @_ZNSt6vectorIN4cvc58internal12NodeTemplateILb1EEESaIS3_EEC2ESt16initializer_listIS3_ERKS4_(ptr noundef nonnull align 8 dereferenceable(24) %this, ptr %__l.coerce0, i64 %__l.coerce1, ptr noundef nonnull align 1 dereferenceable(1) %__a) unnamed_addr #4 comdat align 2 personality ptr @__gxx_personality_v0 {
entry:
  %__l = alloca %"class.std::initializer_list", align 8
  %this.addr = alloca ptr, align 8
  %__a.addr = alloca ptr, align 8
  %exn.slot = alloca ptr, align 8
  %ehselector.slot = alloca i32, align 4
  %0 = getelementptr inbounds { ptr, i64 }, ptr %__l, i32 0, i32 0
  store ptr %__l.coerce0, ptr %0, align 8
  %1 = getelementptr inbounds { ptr, i64 }, ptr %__l, i32 0, i32 1
  store i64 %__l.coerce1, ptr %1, align 8
  store ptr %this, ptr %this.addr, align 8
  store ptr %__a, ptr %__a.addr, align 8
  %this1 = load ptr, ptr %this.addr, align 8
  %2 = load ptr, ptr %__a.addr, align 8
  call void @_ZNSt12_Vector_baseIN4cvc58internal12NodeTemplateILb1EEESaIS3_EEC2ERKS4_(ptr noundef nonnull align 8 dereferenceable(24) %this1, ptr noundef nonnull align 1 dereferenceable(1) %2) #3
  %call = call noundef ptr @_ZNKSt16initializer_listIN4cvc58internal12NodeTemplateILb1EEEE5beginEv(ptr noundef nonnull align 8 dereferenceable(16) %__l) #3
  %call2 = call noundef ptr @_ZNKSt16initializer_listIN4cvc58internal12NodeTemplateILb1EEEE3endEv(ptr noundef nonnull align 8 dereferenceable(16) %__l) #3
  invoke void @_ZNSt6vectorIN4cvc58internal12NodeTemplateILb1EEESaIS3_EE19_M_range_initializeIPKS3_EEvT_S9_St20forward_iterator_tag(ptr noundef nonnull align 8 dereferenceable(24) %this1, ptr noundef %call, ptr noundef %call2)
          to label %invoke.cont unwind label %lpad

invoke.cont:                                      ; preds = %entry
  ret void

lpad:                                             ; preds = %entry
  %3 = landingpad { ptr, i32 }
          cleanup
  %4 = extractvalue { ptr, i32 } %3, 0
  store ptr %4, ptr %exn.slot, align 8
  %5 = extractvalue { ptr, i32 } %3, 1
  store i32 %5, ptr %ehselector.slot, align 4
  call void @_ZNSt12_Vector_baseIN4cvc58internal12NodeTemplateILb1EEESaIS3_EED2Ev(ptr noundef nonnull align 8 dereferenceable(24) %this1) #3
  br label %eh.resume

eh.resume:                                        ; preds = %lpad
  %exn = load ptr, ptr %exn.slot, align 8
  %sel = load i32, ptr %ehselector.slot, align 4
  %lpad.val = insertvalue { ptr, i32 } poison, ptr %exn, 0
  %lpad.val3 = insertvalue { ptr, i32 } %lpad.val, i32 %sel, 1
  resume { ptr, i32 } %lpad.val3
}

; Function Attrs: mustprogress nounwind uwtable
define linkonce_odr hidden void @_ZNSaIN4cvc58internal12NodeTemplateILb1EEEED2Ev(ptr noundef nonnull align 1 dereferenceable(1) %this) unnamed_addr #5 comdat align 2 {
entry:
  %this.addr = alloca ptr, align 8
  store ptr %this, ptr %this.addr, align 8
  %this1 = load ptr, ptr %this.addr, align 8
  call void @_ZNSt15__new_allocatorIN4cvc58internal12NodeTemplateILb1EEEED2Ev(ptr noundef nonnull align 1 dereferenceable(1) %this1) #3
  ret void
}

declare noundef zeroext i1 @_ZN4cvc58internal7CDProof8addStepsERKNS0_15ProofStepBufferEbNS0_12CDPOverwriteE(ptr noundef nonnull align 8 dereferenceable(217), ptr noundef nonnull align 8 dereferenceable(104), i1 noundef zeroext, i32 noundef) #1

; Function Attrs: mustprogress nounwind uwtable
define linkonce_odr hidden noundef ptr @_ZNKSt10unique_ptrIN4cvc58internal21TheoryProofStepBufferESt14default_deleteIS2_EE3getEv(ptr noundef nonnull align 8 dereferenceable(8) %this) #5 comdat align 2 {
entry:
  %this.addr = alloca ptr, align 8
  store ptr %this, ptr %this.addr, align 8
  %this1 = load ptr, ptr %this.addr, align 8
  %_M_t = getelementptr inbounds %"class.std::unique_ptr", ptr %this1, i32 0, i32 0
  %call = call noundef ptr @_ZNKSt15__uniq_ptr_implIN4cvc58internal21TheoryProofStepBufferESt14default_deleteIS2_EE6_M_ptrEv(ptr noundef nonnull align 8 dereferenceable(8) %_M_t) #3
  ret ptr %call
}

declare void @_ZN4cvc58internal15ProofStepBuffer5clearEv(ptr noundef nonnull align 8 dereferenceable(104)) #1

; Function Attrs: mustprogress uwtable
define hidden void @_ZN4cvc58internal6theory20TrustSubstitutionMap16addSubstitutionsERS2_(ptr noundef nonnull align 8 dereferenceable(608) %this, ptr noundef nonnull align 8 dereferenceable(608) %t) #4 align 2 personality ptr @__gxx_personality_v0 {
entry:
  %this.addr = alloca ptr, align 8
  %t.addr = alloca ptr, align 8
  %__range2 = alloca ptr, align 8
  %__begin2 = alloca %"class.__gnu_cxx::__normal_iterator", align 8
  %__end2 = alloca %"class.__gnu_cxx::__normal_iterator", align 8
  %tns = alloca ptr, align 8
  %proven = alloca %"class.cvc5::internal::NodeTemplate", align 8
  %agg.tmp = alloca %"class.cvc5::internal::NodeTemplate.376", align 8
  %ref.tmp = alloca %"class.cvc5::internal::NodeTemplate", align 8
  %exn.slot = alloca ptr, align 8
  %ehselector.slot = alloca i32, align 4
  %agg.tmp10 = alloca %"class.cvc5::internal::NodeTemplate.376", align 8
  %ref.tmp11 = alloca %"class.cvc5::internal::NodeTemplate", align 8
  store ptr %this, ptr %this.addr, align 8
  store ptr %t, ptr %t.addr, align 8
  %this1 = load ptr, ptr %this.addr, align 8
  %call = call noundef zeroext i1 @_ZNK4cvc58internal6theory20TrustSubstitutionMap14isProofEnabledEv(ptr noundef nonnull align 8 dereferenceable(608) %this1)
  br i1 %call, label %if.end, label %if.then

if.then:                                          ; preds = %entry
  %d_subs = getelementptr inbounds %"class.cvc5::internal::theory::TrustSubstitutionMap", ptr %this1, i32 0, i32 3
  %0 = load ptr, ptr %t.addr, align 8
  %call2 = call noundef nonnull align 8 dereferenceable(256) ptr @_ZN4cvc58internal6theory20TrustSubstitutionMap3getEv(ptr noundef nonnull align 8 dereferenceable(608) %0)
  call void @_ZN4cvc58internal6theory15SubstitutionMap16addSubstitutionsERS2_b(ptr noundef nonnull align 8 dereferenceable(256) %d_subs, ptr noundef nonnull align 8 dereferenceable(256) %call2, i1 noundef zeroext true)
  br label %for.end

if.end:                                           ; preds = %entry
  %1 = load ptr, ptr %t.addr, align 8
  %d_tsubs = getelementptr inbounds %"class.cvc5::internal::theory::TrustSubstitutionMap", ptr %1, i32 0, i32 4
  store ptr %d_tsubs, ptr %__range2, align 8
  %2 = load ptr, ptr %__range2, align 8
  %call3 = call ptr @_ZNK4cvc57context6CDListINS_8internal9TrustNodeENS0_14DefaultCleanUpIS3_EESaIS3_EE5beginEv(ptr noundef nonnull align 8 dereferenceable(74) %2)
  %coerce.dive = getelementptr inbounds %"class.__gnu_cxx::__normal_iterator", ptr %__begin2, i32 0, i32 0
  store ptr %call3, ptr %coerce.dive, align 8
  %3 = load ptr, ptr %__range2, align 8
  %call4 = call ptr @_ZNK4cvc57context6CDListINS_8internal9TrustNodeENS0_14DefaultCleanUpIS3_EESaIS3_EE3endEv(ptr noundef nonnull align 8 dereferenceable(74) %3)
  %coerce.dive5 = getelementptr inbounds %"class.__gnu_cxx::__normal_iterator", ptr %__end2, i32 0, i32 0
  store ptr %call4, ptr %coerce.dive5, align 8
  br label %for.cond

for.cond:                                         ; preds = %for.inc, %if.end
  %call6 = call noundef zeroext i1 @_ZN9__gnu_cxxneIPKN4cvc58internal9TrustNodeESt6vectorIS3_SaIS3_EEEEbRKNS_17__normal_iteratorIT_T0_EESE_(ptr noundef nonnull align 8 dereferenceable(8) %__begin2, ptr noundef nonnull align 8 dereferenceable(8) %__end2) #3
  br i1 %call6, label %for.body, label %for.end

for.body:                                         ; preds = %for.cond
  %call7 = call noundef nonnull align 8 dereferenceable(24) ptr @_ZNK9__gnu_cxx17__normal_iteratorIPKN4cvc58internal9TrustNodeESt6vectorIS3_SaIS3_EEEdeEv(ptr noundef nonnull align 8 dereferenceable(8) %__begin2) #3
  store ptr %call7, ptr %tns, align 8
  %4 = load ptr, ptr %tns, align 8
  call void @_ZNK4cvc58internal9TrustNode9getProvenEv(ptr sret(%"class.cvc5::internal::NodeTemplate") align 8 %proven, ptr noundef nonnull align 8 dereferenceable(24) %4)
  invoke void @_ZNK4cvc58internal12NodeTemplateILb1EEixEi(ptr sret(%"class.cvc5::internal::NodeTemplate") align 8 %ref.tmp, ptr noundef nonnull align 8 dereferenceable(8) %proven, i32 noundef 0)
          to label %invoke.cont unwind label %lpad

invoke.cont:                                      ; preds = %for.body
  invoke void @_ZN4cvc58internal12NodeTemplateILb0EEC2ERKNS1_ILb1EEE(ptr noundef nonnull align 8 dereferenceable(8) %agg.tmp, ptr noundef nonnull align 8 dereferenceable(8) %ref.tmp)
          to label %invoke.cont9 unwind label %lpad8

invoke.cont9:                                     ; preds = %invoke.cont
  invoke void @_ZNK4cvc58internal12NodeTemplateILb1EEixEi(ptr sret(%"class.cvc5::internal::NodeTemplate") align 8 %ref.tmp11, ptr noundef nonnull align 8 dereferenceable(8) %proven, i32 noundef 1)
          to label %invoke.cont13 unwind label %lpad12

invoke.cont13:                                    ; preds = %invoke.cont9
  invoke void @_ZN4cvc58internal12NodeTemplateILb0EEC2ERKNS1_ILb1EEE(ptr noundef nonnull align 8 dereferenceable(8) %agg.tmp10, ptr noundef nonnull align 8 dereferenceable(8) %ref.tmp11)
          to label %invoke.cont15 unwind label %lpad14

invoke.cont15:                                    ; preds = %invoke.cont13
  %5 = load ptr, ptr %tns, align 8
  %call18 = invoke noundef ptr @_ZNK4cvc58internal9TrustNode12getGeneratorEv(ptr noundef nonnull align 8 dereferenceable(24) %5)
          to label %invoke.cont17 unwind label %lpad16

invoke.cont17:                                    ; preds = %invoke.cont15
  invoke void @_ZN4cvc58internal6theory20TrustSubstitutionMap15addSubstitutionENS0_12NodeTemplateILb0EEES4_PNS0_14ProofGeneratorE(ptr noundef nonnull align 8 dereferenceable(608) %this1, ptr noundef %agg.tmp, ptr noundef %agg.tmp10, ptr noundef %call18)
          to label %invoke.cont19 unwind label %lpad16

invoke.cont19:                                    ; preds = %invoke.cont17
  call void @_ZN4cvc58internal12NodeTemplateILb0EED2Ev(ptr noundef nonnull align 8 dereferenceable(8) %agg.tmp10) #3
  call void @_ZN4cvc58internal12NodeTemplateILb1EED2Ev(ptr noundef nonnull align 8 dereferenceable(8) %ref.tmp11) #3
  call void @_ZN4cvc58internal12NodeTemplateILb0EED2Ev(ptr noundef nonnull align 8 dereferenceable(8) %agg.tmp) #3
  call void @_ZN4cvc58internal12NodeTemplateILb1EED2Ev(ptr noundef nonnull align 8 dereferenceable(8) %ref.tmp) #3
  call void @_ZN4cvc58internal12NodeTemplateILb1EED2Ev(ptr noundef nonnull align 8 dereferenceable(8) %proven) #3
  br label %for.inc

for.inc:                                          ; preds = %invoke.cont19
  %call23 = call noundef nonnull align 8 dereferenceable(8) ptr @_ZN9__gnu_cxx17__normal_iteratorIPKN4cvc58internal9TrustNodeESt6vectorIS3_SaIS3_EEEppEv(ptr noundef nonnull align 8 dereferenceable(8) %__begin2) #3
  br label %for.cond

lpad:                                             ; preds = %for.body
  %6 = landingpad { ptr, i32 }
          cleanup
  %7 = extractvalue { ptr, i32 } %6, 0
  store ptr %7, ptr %exn.slot, align 8
  %8 = extractvalue { ptr, i32 } %6, 1
  store i32 %8, ptr %ehselector.slot, align 4
  br label %ehcleanup22

lpad8:                                            ; preds = %invoke.cont
  %9 = landingpad { ptr, i32 }
          cleanup
  %10 = extractvalue { ptr, i32 } %9, 0
  store ptr %10, ptr %exn.slot, align 8
  %11 = extractvalue { ptr, i32 } %9, 1
  store i32 %11, ptr %ehselector.slot, align 4
  br label %ehcleanup21

lpad12:                                           ; preds = %invoke.cont9
  %12 = landingpad { ptr, i32 }
          cleanup
  %13 = extractvalue { ptr, i32 } %12, 0
  store ptr %13, ptr %exn.slot, align 8
  %14 = extractvalue { ptr, i32 } %12, 1
  store i32 %14, ptr %ehselector.slot, align 4
  br label %ehcleanup20

lpad14:                                           ; preds = %invoke.cont13
  %15 = landingpad { ptr, i32 }
          cleanup
  %16 = extractvalue { ptr, i32 } %15, 0
  store ptr %16, ptr %exn.slot, align 8
  %17 = extractvalue { ptr, i32 } %15, 1
  store i32 %17, ptr %ehselector.slot, align 4
  br label %ehcleanup

lpad16:                                           ; preds = %invoke.cont17, %invoke.cont15
  %18 = landingpad { ptr, i32 }
          cleanup
  %19 = extractvalue { ptr, i32 } %18, 0
  store ptr %19, ptr %exn.slot, align 8
  %20 = extractvalue { ptr, i32 } %18, 1
  store i32 %20, ptr %ehselector.slot, align 4
  call void @_ZN4cvc58internal12NodeTemplateILb0EED2Ev(ptr noundef nonnull align 8 dereferenceable(8) %agg.tmp10) #3
  br label %ehcleanup

ehcleanup:                                        ; preds = %lpad16, %lpad14
  call void @_ZN4cvc58internal12NodeTemplateILb1EED2Ev(ptr noundef nonnull align 8 dereferenceable(8) %ref.tmp11) #3
  br label %ehcleanup20

ehcleanup20:                                      ; preds = %ehcleanup, %lpad12
  call void @_ZN4cvc58internal12NodeTemplateILb0EED2Ev(ptr noundef nonnull align 8 dereferenceable(8) %agg.tmp) #3
  br label %ehcleanup21

ehcleanup21:                                      ; preds = %ehcleanup20, %lpad8
  call void @_ZN4cvc58internal12NodeTemplateILb1EED2Ev(ptr noundef nonnull align 8 dereferenceable(8) %ref.tmp) #3
  br label %ehcleanup22

ehcleanup22:                                      ; preds = %ehcleanup21, %lpad
  call void @_ZN4cvc58internal12NodeTemplateILb1EED2Ev(ptr noundef nonnull align 8 dereferenceable(8) %proven) #3
  br label %eh.resume

for.end:                                          ; preds = %for.cond, %if.then
  ret void

eh.resume:                                        ; preds = %ehcleanup22
  %exn = load ptr, ptr %exn.slot, align 8
  %sel = load i32, ptr %ehselector.slot, align 4
  %lpad.val = insertvalue { ptr, i32 } poison, ptr %exn, 0
  %lpad.val24 = insertvalue { ptr, i32 } %lpad.val, i32 %sel, 1
  resume { ptr, i32 } %lpad.val24
}

declare void @_ZN4cvc58internal6theory15SubstitutionMap16addSubstitutionsERS2_b(ptr noundef nonnull align 8 dereferenceable(256), ptr noundef nonnull align 8 dereferenceable(256), i1 noundef zeroext) #1

; Function Attrs: mustprogress nounwind uwtable
define hidden noundef nonnull align 8 dereferenceable(256) ptr @_ZN4cvc58internal6theory20TrustSubstitutionMap3getEv(ptr noundef nonnull align 8 dereferenceable(608) %this) #5 align 2 {
entry:
  %this.addr = alloca ptr, align 8
  store ptr %this, ptr %this.addr, align 8
  %this1 = load ptr, ptr %this.addr, align 8
  %d_subs = getelementptr inbounds %"class.cvc5::internal::theory::TrustSubstitutionMap", ptr %this1, i32 0, i32 3
  ret ptr %d_subs
}

; Function Attrs: mustprogress nounwind uwtable
define linkonce_odr hidden ptr @_ZNK4cvc57context6CDListINS_8internal9TrustNodeENS0_14DefaultCleanUpIS3_EESaIS3_EE5beginEv(ptr noundef nonnull align 8 dereferenceable(74) %this) #5 comdat align 2 {
entry:
  %retval = alloca %"class.__gnu_cxx::__normal_iterator", align 8
  %this.addr = alloca ptr, align 8
  store ptr %this, ptr %this.addr, align 8
  %this1 = load ptr, ptr %this.addr, align 8
  %d_list = getelementptr inbounds %"class.cvc5::context::CDList", ptr %this1, i32 0, i32 1
  %call = call ptr @_ZNKSt6vectorIN4cvc58internal9TrustNodeESaIS2_EE5beginEv(ptr noundef nonnull align 8 dereferenceable(24) %d_list) #3
  %coerce.dive = getelementptr inbounds %"class.__gnu_cxx::__normal_iterator", ptr %retval, i32 0, i32 0
  store ptr %call, ptr %coerce.dive, align 8
  %coerce.dive2 = getelementptr inbounds %"class.__gnu_cxx::__normal_iterator", ptr %retval, i32 0, i32 0
  %0 = load ptr, ptr %coerce.dive2, align 8
  ret ptr %0
}

; Function Attrs: mustprogress nounwind uwtable
define linkonce_odr hidden ptr @_ZNK4cvc57context6CDListINS_8internal9TrustNodeENS0_14DefaultCleanUpIS3_EESaIS3_EE3endEv(ptr noundef nonnull align 8 dereferenceable(74) %this) #5 comdat align 2 {
entry:
  %retval = alloca %"class.__gnu_cxx::__normal_iterator", align 8
  %this.addr = alloca ptr, align 8
  store ptr %this, ptr %this.addr, align 8
  %this1 = load ptr, ptr %this.addr, align 8
  %d_list = getelementptr inbounds %"class.cvc5::context::CDList", ptr %this1, i32 0, i32 1
  %call = call ptr @_ZNKSt6vectorIN4cvc58internal9TrustNodeESaIS2_EE3endEv(ptr noundef nonnull align 8 dereferenceable(24) %d_list) #3
  %coerce.dive = getelementptr inbounds %"class.__gnu_cxx::__normal_iterator", ptr %retval, i32 0, i32 0
  store ptr %call, ptr %coerce.dive, align 8
  %coerce.dive2 = getelementptr inbounds %"class.__gnu_cxx::__normal_iterator", ptr %retval, i32 0, i32 0
  %0 = load ptr, ptr %coerce.dive2, align 8
  ret ptr %0
}

; Function Attrs: mustprogress nounwind uwtable
define linkonce_odr hidden noundef zeroext i1 @_ZN9__gnu_cxxneIPKN4cvc58internal9TrustNodeESt6vectorIS3_SaIS3_EEEEbRKNS_17__normal_iteratorIT_T0_EESE_(ptr noundef nonnull align 8 dereferenceable(8) %__lhs, ptr noundef nonnull align 8 dereferenceable(8) %__rhs) #5 comdat {
entry:
  %__lhs.addr = alloca ptr, align 8
  %__rhs.addr = alloca ptr, align 8
  store ptr %__lhs, ptr %__lhs.addr, align 8
  store ptr %__rhs, ptr %__rhs.addr, align 8
  %0 = load ptr, ptr %__lhs.addr, align 8
  %call = call noundef nonnull align 8 dereferenceable(8) ptr @_ZNK9__gnu_cxx17__normal_iteratorIPKN4cvc58internal9TrustNodeESt6vectorIS3_SaIS3_EEE4baseEv(ptr noundef nonnull align 8 dereferenceable(8) %0) #3
  %1 = load ptr, ptr %call, align 8
  %2 = load ptr, ptr %__rhs.addr, align 8
  %call1 = call noundef nonnull align 8 dereferenceable(8) ptr @_ZNK9__gnu_cxx17__normal_iteratorIPKN4cvc58internal9TrustNodeESt6vectorIS3_SaIS3_EEE4baseEv(ptr noundef nonnull align 8 dereferenceable(8) %2) #3
  %3 = load ptr, ptr %call1, align 8
  %cmp = icmp ne ptr %1, %3
  ret i1 %cmp
}

; Function Attrs: mustprogress nounwind uwtable
define linkonce_odr hidden noundef nonnull align 8 dereferenceable(24) ptr @_ZNK9__gnu_cxx17__normal_iteratorIPKN4cvc58internal9TrustNodeESt6vectorIS3_SaIS3_EEEdeEv(ptr noundef nonnull align 8 dereferenceable(8) %this) #5 comdat align 2 {
entry:
  %this.addr = alloca ptr, align 8
  store ptr %this, ptr %this.addr, align 8
  %this1 = load ptr, ptr %this.addr, align 8
  %_M_current = getelementptr inbounds %"class.__gnu_cxx::__normal_iterator", ptr %this1, i32 0, i32 0
  %0 = load ptr, ptr %_M_current, align 8
  ret ptr %0
}

; Function Attrs: mustprogress uwtable
define linkonce_odr hidden void @_ZNK4cvc58internal12NodeTemplateILb1EEixEi(ptr noalias sret(%"class.cvc5::internal::NodeTemplate") align 8 %agg.result, ptr noundef nonnull align 8 dereferenceable(8) %this, i32 noundef %i) #4 comdat align 2 {
entry:
  %result.ptr = alloca ptr, align 8
  %this.addr = alloca ptr, align 8
  %i.addr = alloca i32, align 4
  store ptr %agg.result, ptr %result.ptr, align 8
  store ptr %this, ptr %this.addr, align 8
  store i32 %i, ptr %i.addr, align 4
  %this1 = load ptr, ptr %this.addr, align 8
  call void @_ZNK4cvc58internal12NodeTemplateILb1EE21assertTNodeNotExpiredEv(ptr noundef nonnull align 8 dereferenceable(8) %this1)
  %d_nv = getelementptr inbounds %"class.cvc5::internal::NodeTemplate", ptr %this1, i32 0, i32 0
  %0 = load ptr, ptr %d_nv, align 8
  %1 = load i32, ptr %i.addr, align 4
  %call = call noundef ptr @_ZNK4cvc58internal4expr9NodeValue8getChildEi(ptr noundef nonnull align 8 dereferenceable(16) %0, i32 noundef %1)
  call void @_ZN4cvc58internal12NodeTemplateILb1EEC2EPKNS0_4expr9NodeValueE(ptr noundef nonnull align 8 dereferenceable(8) %agg.result, ptr noundef %call)
  ret void
}

; Function Attrs: mustprogress nounwind uwtable
define linkonce_odr hidden void @_ZN4cvc58internal12NodeTemplateILb0EEC2ERKNS1_ILb1EEE(ptr noundef nonnull align 8 dereferenceable(8) %this, ptr noundef nonnull align 8 dereferenceable(8) %e) unnamed_addr #5 comdat align 2 {
entry:
  %this.addr = alloca ptr, align 8
  %e.addr = alloca ptr, align 8
  store ptr %this, ptr %this.addr, align 8
  store ptr %e, ptr %e.addr, align 8
  %this1 = load ptr, ptr %this.addr, align 8
  %0 = load ptr, ptr %e.addr, align 8
  %d_nv = getelementptr inbounds %"class.cvc5::internal::NodeTemplate", ptr %0, i32 0, i32 0
  %1 = load ptr, ptr %d_nv, align 8
  %d_nv2 = getelementptr inbounds %"class.cvc5::internal::NodeTemplate.376", ptr %this1, i32 0, i32 0
  store ptr %1, ptr %d_nv2, align 8
  ret void
}

; Function Attrs: mustprogress nounwind uwtable
define linkonce_odr hidden noundef nonnull align 8 dereferenceable(8) ptr @_ZN9__gnu_cxx17__normal_iteratorIPKN4cvc58internal9TrustNodeESt6vectorIS3_SaIS3_EEEppEv(ptr noundef nonnull align 8 dereferenceable(8) %this) #5 comdat align 2 {
entry:
  %this.addr = alloca ptr, align 8
  store ptr %this, ptr %this.addr, align 8
  %this1 = load ptr, ptr %this.addr, align 8
  %_M_current = getelementptr inbounds %"class.__gnu_cxx::__normal_iterator", ptr %this1, i32 0, i32 0
  %0 = load ptr, ptr %_M_current, align 8
  %incdec.ptr = getelementptr inbounds %"class.cvc5::internal::TrustNode", ptr %0, i32 1
  store ptr %incdec.ptr, ptr %_M_current, align 8
  ret ptr %this1
}

; Function Attrs: mustprogress uwtable
define hidden void @_ZN4cvc58internal6theory20TrustSubstitutionMap12applyTrustedENS0_12NodeTemplateILb1EEEPNS1_8RewriterE(ptr noalias sret(%"class.cvc5::internal::TrustNode") align 8 %agg.result, ptr noundef nonnull align 8 dereferenceable(608) %this, ptr noundef %n, ptr noundef %r) #4 align 2 personality ptr @__gxx_personality_v0 {
entry:
  %result.ptr = alloca ptr, align 8
  %this.addr = alloca ptr, align 8
  %n.indirect_addr = alloca ptr, align 8
  %r.addr = alloca ptr, align 8
  %ref.tmp = alloca %"class.cvc5::internal::__cvc5_true", align 1
  %tmp = alloca %"class.cvc5::internal::Cvc5ostream", align 8
  %agg.tmp.ensured = alloca %"class.cvc5::internal::Cvc5ostream", align 8
  %ref.tmp2 = alloca %"class.cvc5::internal::Cvc5ostream", align 8
  %ns = alloca %"class.cvc5::internal::NodeTemplate", align 8
  %agg.tmp = alloca %"class.cvc5::internal::NodeTemplate.376", align 8
  %exn.slot = alloca ptr, align 8
  %ehselector.slot = alloca i32, align 4
  %ref.tmp6 = alloca %"class.cvc5::internal::__cvc5_true", align 1
  %tmp11 = alloca %"class.cvc5::internal::Cvc5ostream", align 8
  %agg.tmp.ensured14 = alloca %"class.cvc5::internal::Cvc5ostream", align 8
  %ref.tmp15 = alloca %"class.cvc5::internal::Cvc5ostream", align 8
  %cleanup.dest.slot = alloca i32, align 4
  %agg.tmp30 = alloca %"class.cvc5::internal::NodeTemplate.376", align 8
  %agg.tmp32 = alloca %"class.cvc5::internal::NodeTemplate", align 8
  %eq = alloca %"class.cvc5::internal::NodeTemplate", align 8
  %ref.tmp39 = alloca %"class.cvc5::context::CDHashMap<cvc5::internal::NodeTemplate<true>, unsigned long>::iterator", align 8
  %ref.tmp42 = alloca %"class.cvc5::context::CDHashMap<cvc5::internal::NodeTemplate<true>, unsigned long>::iterator", align 8
  %ref.tmp48 = alloca i64, align 8
  %agg.tmp57 = alloca %"class.cvc5::internal::NodeTemplate.376", align 8
  %agg.tmp59 = alloca %"class.cvc5::internal::NodeTemplate", align 8
  store ptr %agg.result, ptr %result.ptr, align 8
  store ptr %this, ptr %this.addr, align 8
  store ptr %n, ptr %n.indirect_addr, align 8
  store ptr %r, ptr %r.addr, align 8
  %this1 = load ptr, ptr %this.addr, align 8
  %call = call noundef zeroext i1 @_ZN4cvc58internal11__cvc5_truecvbEv(ptr noundef nonnull align 1 dereferenceable(1) %ref.tmp)
  br i1 %call, label %cond.true, label %cond.false

cond.true:                                        ; preds = %entry
  call void @_ZNK4cvc58internal5NullCcvNS0_11Cvc5ostreamEEv(ptr sret(%"class.cvc5::internal::Cvc5ostream") align 8 %tmp, ptr noundef nonnull align 1 dereferenceable(1) @_ZN4cvc58internal10nullStreamE)
  br label %cond.end

cond.false:                                       ; preds = %entry
  call void @_ZNK4cvc58internal6TraceCclEv(ptr sret(%"class.cvc5::internal::Cvc5ostream") align 8 %ref.tmp2, ptr noundef nonnull align 8 dereferenceable(32) @_ZN4cvc58internal12TraceChannelE)
  %call3 = call noundef nonnull align 8 dereferenceable(24) ptr @_ZN4cvc58internal11Cvc5ostreamlsIA46_cEERS1_RKT_(ptr noundef nonnull align 8 dereferenceable(24) %ref.tmp2, ptr noundef nonnull align 1 dereferenceable(46) @.str.12)
  %call4 = call noundef nonnull align 8 dereferenceable(24) ptr @_ZN4cvc58internal11Cvc5ostreamlsINS0_12NodeTemplateILb1EEEEERS1_RKT_(ptr noundef nonnull align 8 dereferenceable(24) %call3, ptr noundef nonnull align 8 dereferenceable(8) %n)
  %call5 = call noundef nonnull align 8 dereferenceable(24) ptr @_ZN4cvc58internal11Cvc5ostreamlsEPFRSoS2_E(ptr noundef nonnull align 8 dereferenceable(24) %call4, ptr noundef @_ZSt4endlIcSt11char_traitsIcEERSt13basic_ostreamIT_T0_ES6_)
  call void @llvm.memcpy.p0.p0.i64(ptr align 8 %agg.tmp.ensured, ptr align 8 %call5, i64 24, i1 false)
  br label %cond.end

cond.end:                                         ; preds = %cond.false, %cond.true
  %d_subs = getelementptr inbounds %"class.cvc5::internal::theory::TrustSubstitutionMap", ptr %this1, i32 0, i32 3
  call void @_ZN4cvc58internal12NodeTemplateILb0EEC2ERKNS1_ILb1EEE(ptr noundef nonnull align 8 dereferenceable(8) %agg.tmp, ptr noundef nonnull align 8 dereferenceable(8) %n)
  %0 = load ptr, ptr %r.addr, align 8
  invoke void @_ZN4cvc58internal6theory15SubstitutionMap5applyENS0_12NodeTemplateILb0EEEPNS1_8RewriterEPSt3setIS4_St4lessIS4_ESaIS4_EEPKNS2_22ShouldTraverseCallbackE(ptr sret(%"class.cvc5::internal::NodeTemplate") align 8 %ns, ptr noundef nonnull align 8 dereferenceable(256) %d_subs, ptr noundef %agg.tmp, ptr noundef %0, ptr noundef null, ptr noundef null)
          to label %invoke.cont unwind label %lpad

invoke.cont:                                      ; preds = %cond.end
  call void @_ZN4cvc58internal12NodeTemplateILb0EED2Ev(ptr noundef nonnull align 8 dereferenceable(8) %agg.tmp) #3
  %call9 = invoke noundef zeroext i1 @_ZN4cvc58internal11__cvc5_truecvbEv(ptr noundef nonnull align 1 dereferenceable(1) %ref.tmp6)
          to label %invoke.cont8 unwind label %lpad7

invoke.cont8:                                     ; preds = %invoke.cont
  br i1 %call9, label %cond.true10, label %cond.false13

cond.true10:                                      ; preds = %invoke.cont8
  invoke void @_ZNK4cvc58internal5NullCcvNS0_11Cvc5ostreamEEv(ptr sret(%"class.cvc5::internal::Cvc5ostream") align 8 %tmp11, ptr noundef nonnull align 1 dereferenceable(1) @_ZN4cvc58internal10nullStreamE)
          to label %invoke.cont12 unwind label %lpad7

invoke.cont12:                                    ; preds = %cond.true10
  br label %cond.end23

cond.false13:                                     ; preds = %invoke.cont8
  invoke void @_ZNK4cvc58internal6TraceCclEv(ptr sret(%"class.cvc5::internal::Cvc5ostream") align 8 %ref.tmp15, ptr noundef nonnull align 8 dereferenceable(32) @_ZN4cvc58internal12TraceChannelE)
          to label %invoke.cont16 unwind label %lpad7

invoke.cont16:                                    ; preds = %cond.false13
  %call18 = invoke noundef nonnull align 8 dereferenceable(24) ptr @_ZN4cvc58internal11Cvc5ostreamlsIA9_cEERS1_RKT_(ptr noundef nonnull align 8 dereferenceable(24) %ref.tmp15, ptr noundef nonnull align 1 dereferenceable(9) @.str.13)
          to label %invoke.cont17 unwind label %lpad7

invoke.cont17:                                    ; preds = %invoke.cont16
  %call20 = invoke noundef nonnull align 8 dereferenceable(24) ptr @_ZN4cvc58internal11Cvc5ostreamlsINS0_12NodeTemplateILb1EEEEERS1_RKT_(ptr noundef nonnull align 8 dereferenceable(24) %call18, ptr noundef nonnull align 8 dereferenceable(8) %ns)
          to label %invoke.cont19 unwind label %lpad7

invoke.cont19:                                    ; preds = %invoke.cont17
  %call22 = invoke noundef nonnull align 8 dereferenceable(24) ptr @_ZN4cvc58internal11Cvc5ostreamlsEPFRSoS2_E(ptr noundef nonnull align 8 dereferenceable(24) %call20, ptr noundef @_ZSt4endlIcSt11char_traitsIcEERSt13basic_ostreamIT_T0_ES6_)
          to label %invoke.cont21 unwind label %lpad7

invoke.cont21:                                    ; preds = %invoke.cont19
  call void @llvm.memcpy.p0.p0.i64(ptr align 8 %agg.tmp.ensured14, ptr align 8 %call22, i64 24, i1 false)
  br label %cond.end23

cond.end23:                                       ; preds = %invoke.cont21, %invoke.cont12
  %call25 = invoke noundef zeroext i1 @_ZNK4cvc58internal12NodeTemplateILb1EEeqILb1EEEbRKNS1_IXT_EEE(ptr noundef nonnull align 8 dereferenceable(8) %n, ptr noundef nonnull align 8 dereferenceable(8) %ns)
          to label %invoke.cont24 unwind label %lpad7

invoke.cont24:                                    ; preds = %cond.end23
  br i1 %call25, label %if.then, label %if.end

if.then:                                          ; preds = %invoke.cont24
  invoke void @_ZN4cvc58internal9TrustNode4nullEv(ptr sret(%"class.cvc5::internal::TrustNode") align 8 %agg.result)
          to label %invoke.cont26 unwind label %lpad7

invoke.cont26:                                    ; preds = %if.then
  store i32 1, ptr %cleanup.dest.slot, align 4
  br label %cleanup

lpad:                                             ; preds = %cond.end
  %1 = landingpad { ptr, i32 }
          cleanup
  %2 = extractvalue { ptr, i32 } %1, 0
  store ptr %2, ptr %exn.slot, align 8
  %3 = extractvalue { ptr, i32 } %1, 1
  store i32 %3, ptr %ehselector.slot, align 4
  call void @_ZN4cvc58internal12NodeTemplateILb0EED2Ev(ptr noundef nonnull align 8 dereferenceable(8) %agg.tmp) #3
  br label %eh.resume

lpad7:                                            ; preds = %if.end37, %if.then29, %if.end, %if.then, %cond.end23, %invoke.cont19, %invoke.cont17, %invoke.cont16, %cond.false13, %cond.true10, %invoke.cont
  %4 = landingpad { ptr, i32 }
          cleanup
  %5 = extractvalue { ptr, i32 } %4, 0
  store ptr %5, ptr %exn.slot, align 8
  %6 = extractvalue { ptr, i32 } %4, 1
  store i32 %6, ptr %ehselector.slot, align 4
  br label %ehcleanup67

if.end:                                           ; preds = %invoke.cont24
  %call28 = invoke noundef zeroext i1 @_ZNK4cvc58internal6theory20TrustSubstitutionMap14isProofEnabledEv(ptr noundef nonnull align 8 dereferenceable(608) %this1)
          to label %invoke.cont27 unwind label %lpad7

invoke.cont27:                                    ; preds = %if.end
  br i1 %call28, label %if.end37, label %if.then29

if.then29:                                        ; preds = %invoke.cont27
  invoke void @_ZN4cvc58internal12NodeTemplateILb0EEC2ERKNS1_ILb1EEE(ptr noundef nonnull align 8 dereferenceable(8) %agg.tmp30, ptr noundef nonnull align 8 dereferenceable(8) %n)
          to label %invoke.cont31 unwind label %lpad7

invoke.cont31:                                    ; preds = %if.then29
  invoke void @_ZN4cvc58internal12NodeTemplateILb1EEC2ERKS2_(ptr noundef nonnull align 8 dereferenceable(8) %agg.tmp32, ptr noundef nonnull align 8 dereferenceable(8) %ns)
          to label %invoke.cont34 unwind label %lpad33

invoke.cont34:                                    ; preds = %invoke.cont31
  invoke void @_ZN4cvc58internal9TrustNode14mkTrustRewriteENS0_12NodeTemplateILb0EEENS2_ILb1EEEPNS0_14ProofGeneratorE(ptr sret(%"class.cvc5::internal::TrustNode") align 8 %agg.result, ptr noundef %agg.tmp30, ptr noundef %agg.tmp32, ptr noundef null)
          to label %invoke.cont36 unwind label %lpad35

invoke.cont36:                                    ; preds = %invoke.cont34
  call void @_ZN4cvc58internal12NodeTemplateILb1EED2Ev(ptr noundef nonnull align 8 dereferenceable(8) %agg.tmp32) #3
  call void @_ZN4cvc58internal12NodeTemplateILb0EED2Ev(ptr noundef nonnull align 8 dereferenceable(8) %agg.tmp30) #3
  store i32 1, ptr %cleanup.dest.slot, align 4
  br label %cleanup

lpad33:                                           ; preds = %invoke.cont31
  %7 = landingpad { ptr, i32 }
          cleanup
  %8 = extractvalue { ptr, i32 } %7, 0
  store ptr %8, ptr %exn.slot, align 8
  %9 = extractvalue { ptr, i32 } %7, 1
  store i32 %9, ptr %ehselector.slot, align 4
  br label %ehcleanup

lpad35:                                           ; preds = %invoke.cont34
  %10 = landingpad { ptr, i32 }
          cleanup
  %11 = extractvalue { ptr, i32 } %10, 0
  store ptr %11, ptr %exn.slot, align 8
  %12 = extractvalue { ptr, i32 } %10, 1
  store i32 %12, ptr %ehselector.slot, align 4
  call void @_ZN4cvc58internal12NodeTemplateILb1EED2Ev(ptr noundef nonnull align 8 dereferenceable(8) %agg.tmp32) #3
  br label %ehcleanup

ehcleanup:                                        ; preds = %lpad35, %lpad33
  call void @_ZN4cvc58internal12NodeTemplateILb0EED2Ev(ptr noundef nonnull align 8 dereferenceable(8) %agg.tmp30) #3
  br label %ehcleanup67

if.end37:                                         ; preds = %invoke.cont27
  invoke void @_ZNK4cvc58internal12NodeTemplateILb1EE6eqNodeILb1EEES2_RKNS1_IXT_EEE(ptr sret(%"class.cvc5::internal::NodeTemplate") align 8 %eq, ptr noundef nonnull align 8 dereferenceable(8) %n, ptr noundef nonnull align 8 dereferenceable(8) %ns)
          to label %invoke.cont38 unwind label %lpad7

invoke.cont38:                                    ; preds = %if.end37
  %d_eqtIndex = getelementptr inbounds %"class.cvc5::internal::theory::TrustSubstitutionMap", ptr %this1, i32 0, i32 12
  invoke void @_ZNK4cvc57context9CDHashMapINS_8internal12NodeTemplateILb1EEEmSt4hashIS4_EE4findERKS4_(ptr sret(%"class.cvc5::context::CDHashMap<cvc5::internal::NodeTemplate<true>, unsigned long>::iterator") align 8 %ref.tmp39, ptr noundef nonnull align 8 dereferenceable(112) %d_eqtIndex, ptr noundef nonnull align 8 dereferenceable(8) %eq)
          to label %invoke.cont41 unwind label %lpad40

invoke.cont41:                                    ; preds = %invoke.cont38
  %d_eqtIndex43 = getelementptr inbounds %"class.cvc5::internal::theory::TrustSubstitutionMap", ptr %this1, i32 0, i32 12
  invoke void @_ZNK4cvc57context9CDHashMapINS_8internal12NodeTemplateILb1EEEmSt4hashIS4_EE3endEv(ptr sret(%"class.cvc5::context::CDHashMap<cvc5::internal::NodeTemplate<true>, unsigned long>::iterator") align 8 %ref.tmp42, ptr noundef nonnull align 8 dereferenceable(112) %d_eqtIndex43)
          to label %invoke.cont44 unwind label %lpad40

invoke.cont44:                                    ; preds = %invoke.cont41
  %call46 = invoke noundef zeroext i1 @_ZNK4cvc57context9CDHashMapINS_8internal12NodeTemplateILb1EEEmSt4hashIS4_EE8iteratoreqERKS8_(ptr noundef nonnull align 8 dereferenceable(8) %ref.tmp39, ptr noundef nonnull align 8 dereferenceable(8) %ref.tmp42)
          to label %invoke.cont45 unwind label %lpad40

invoke.cont45:                                    ; preds = %invoke.cont44
  br i1 %call46, label %if.then47, label %if.end56

if.then47:                                        ; preds = %invoke.cont45
  %d_tsubs = getelementptr inbounds %"class.cvc5::internal::theory::TrustSubstitutionMap", ptr %this1, i32 0, i32 4
  %call50 = invoke noundef i64 @_ZNK4cvc57context6CDListINS_8internal9TrustNodeENS0_14DefaultCleanUpIS3_EESaIS3_EE4sizeEv(ptr noundef nonnull align 8 dereferenceable(74) %d_tsubs)
          to label %invoke.cont49 unwind label %lpad40

invoke.cont49:                                    ; preds = %if.then47
  store i64 %call50, ptr %ref.tmp48, align 8
  %d_eqtIndex51 = getelementptr inbounds %"class.cvc5::internal::theory::TrustSubstitutionMap", ptr %this1, i32 0, i32 12
  %call53 = invoke noundef nonnull align 8 dereferenceable(80) ptr @_ZN4cvc57context9CDHashMapINS_8internal12NodeTemplateILb1EEEmSt4hashIS4_EEixERKS4_(ptr noundef nonnull align 8 dereferenceable(112) %d_eqtIndex51, ptr noundef nonnull align 8 dereferenceable(8) %eq)
          to label %invoke.cont52 unwind label %lpad40

invoke.cont52:                                    ; preds = %invoke.cont49
  %call55 = invoke noundef nonnull align 8 dereferenceable(8) ptr @_ZN4cvc57context11CDOhash_mapINS_8internal12NodeTemplateILb1EEEmSt4hashIS4_EEaSERKm(ptr noundef nonnull align 8 dereferenceable(80) %call53, ptr noundef nonnull align 8 dereferenceable(8) %ref.tmp48)
          to label %invoke.cont54 unwind label %lpad40

invoke.cont54:                                    ; preds = %invoke.cont52
  br label %if.end56

lpad40:                                           ; preds = %if.end56, %invoke.cont52, %invoke.cont49, %if.then47, %invoke.cont44, %invoke.cont41, %invoke.cont38
  %13 = landingpad { ptr, i32 }
          cleanup
  %14 = extractvalue { ptr, i32 } %13, 0
  store ptr %14, ptr %exn.slot, align 8
  %15 = extractvalue { ptr, i32 } %13, 1
  store i32 %15, ptr %ehselector.slot, align 4
  br label %ehcleanup66

if.end56:                                         ; preds = %invoke.cont54, %invoke.cont45
  invoke void @_ZN4cvc58internal12NodeTemplateILb0EEC2ERKNS1_ILb1EEE(ptr noundef nonnull align 8 dereferenceable(8) %agg.tmp57, ptr noundef nonnull align 8 dereferenceable(8) %n)
          to label %invoke.cont58 unwind label %lpad40

invoke.cont58:                                    ; preds = %if.end56
  invoke void @_ZN4cvc58internal12NodeTemplateILb1EEC2ERKS2_(ptr noundef nonnull align 8 dereferenceable(8) %agg.tmp59, ptr noundef nonnull align 8 dereferenceable(8) %ns)
          to label %invoke.cont61 unwind label %lpad60

invoke.cont61:                                    ; preds = %invoke.cont58
  %add.ptr = getelementptr inbounds i8, ptr %this1, i64 16
  invoke void @_ZN4cvc58internal9TrustNode14mkTrustRewriteENS0_12NodeTemplateILb0EEENS2_ILb1EEEPNS0_14ProofGeneratorE(ptr sret(%"class.cvc5::internal::TrustNode") align 8 %agg.result, ptr noundef %agg.tmp57, ptr noundef %agg.tmp59, ptr noundef %add.ptr)
          to label %invoke.cont63 unwind label %lpad62

invoke.cont63:                                    ; preds = %invoke.cont61
  call void @_ZN4cvc58internal12NodeTemplateILb1EED2Ev(ptr noundef nonnull align 8 dereferenceable(8) %agg.tmp59) #3
  call void @_ZN4cvc58internal12NodeTemplateILb0EED2Ev(ptr noundef nonnull align 8 dereferenceable(8) %agg.tmp57) #3
  store i32 1, ptr %cleanup.dest.slot, align 4
  call void @_ZN4cvc58internal12NodeTemplateILb1EED2Ev(ptr noundef nonnull align 8 dereferenceable(8) %eq) #3
  br label %cleanup

lpad60:                                           ; preds = %invoke.cont58
  %16 = landingpad { ptr, i32 }
          cleanup
  %17 = extractvalue { ptr, i32 } %16, 0
  store ptr %17, ptr %exn.slot, align 8
  %18 = extractvalue { ptr, i32 } %16, 1
  store i32 %18, ptr %ehselector.slot, align 4
  br label %ehcleanup65

lpad62:                                           ; preds = %invoke.cont61
  %19 = landingpad { ptr, i32 }
          cleanup
  %20 = extractvalue { ptr, i32 } %19, 0
  store ptr %20, ptr %exn.slot, align 8
  %21 = extractvalue { ptr, i32 } %19, 1
  store i32 %21, ptr %ehselector.slot, align 4
  call void @_ZN4cvc58internal12NodeTemplateILb1EED2Ev(ptr noundef nonnull align 8 dereferenceable(8) %agg.tmp59) #3
  br label %ehcleanup65

ehcleanup65:                                      ; preds = %lpad62, %lpad60
  call void @_ZN4cvc58internal12NodeTemplateILb0EED2Ev(ptr noundef nonnull align 8 dereferenceable(8) %agg.tmp57) #3
  br label %ehcleanup66

ehcleanup66:                                      ; preds = %ehcleanup65, %lpad40
  call void @_ZN4cvc58internal12NodeTemplateILb1EED2Ev(ptr noundef nonnull align 8 dereferenceable(8) %eq) #3
  br label %ehcleanup67

cleanup:                                          ; preds = %invoke.cont63, %invoke.cont36, %invoke.cont26
  call void @_ZN4cvc58internal12NodeTemplateILb1EED2Ev(ptr noundef nonnull align 8 dereferenceable(8) %ns) #3
  ret void

ehcleanup67:                                      ; preds = %ehcleanup66, %ehcleanup, %lpad7
  call void @_ZN4cvc58internal12NodeTemplateILb1EED2Ev(ptr noundef nonnull align 8 dereferenceable(8) %ns) #3
  br label %eh.resume

eh.resume:                                        ; preds = %ehcleanup67, %lpad
  %exn = load ptr, ptr %exn.slot, align 8
  %sel = load i32, ptr %ehselector.slot, align 4
  %lpad.val = insertvalue { ptr, i32 } poison, ptr %exn, 0
  %lpad.val68 = insertvalue { ptr, i32 } %lpad.val, i32 %sel, 1
  resume { ptr, i32 } %lpad.val68
}

; Function Attrs: mustprogress uwtable
define linkonce_odr hidden noundef nonnull align 8 dereferenceable(24) ptr @_ZN4cvc58internal11Cvc5ostreamlsIA46_cEERS1_RKT_(ptr noundef nonnull align 8 dereferenceable(24) %this, ptr noundef nonnull align 1 dereferenceable(46) %t) #4 comdat align 2 {
entry:
  %this.addr = alloca ptr, align 8
  %t.addr = alloca ptr, align 8
  %indent = alloca i64, align 8
  %i = alloca i64, align 8
  store ptr %this, ptr %this.addr, align 8
  store ptr %t, ptr %t.addr, align 8
  %this1 = load ptr, ptr %this.addr, align 8
  %d_os = getelementptr inbounds %"class.cvc5::internal::Cvc5ostream", ptr %this1, i32 0, i32 0
  %0 = load ptr, ptr %d_os, align 8
  %cmp = icmp ne ptr %0, null
  br i1 %cmp, label %if.then, label %if.end11

if.then:                                          ; preds = %entry
  %d_firstColumn = getelementptr inbounds %"class.cvc5::internal::Cvc5ostream", ptr %this1, i32 0, i32 1
  %1 = load i8, ptr %d_firstColumn, align 8
  %tobool = trunc i8 %1 to i1
  br i1 %tobool, label %if.then2, label %if.end

if.then2:                                         ; preds = %if.then
  %d_firstColumn3 = getelementptr inbounds %"class.cvc5::internal::Cvc5ostream", ptr %this1, i32 0, i32 1
  store i8 0, ptr %d_firstColumn3, align 8
  %d_os4 = getelementptr inbounds %"class.cvc5::internal::Cvc5ostream", ptr %this1, i32 0, i32 0
  %2 = load ptr, ptr %d_os4, align 8
  %vtable = load ptr, ptr %2, align 8
  %vbase.offset.ptr = getelementptr i8, ptr %vtable, i64 -24
  %vbase.offset = load i64, ptr %vbase.offset.ptr, align 8
  %add.ptr = getelementptr inbounds i8, ptr %2, i64 %vbase.offset
  %3 = load i32, ptr @_ZN4cvc58internal11Cvc5ostream16s_indentIosIndexE, align 4
  %call = call noundef nonnull align 8 dereferenceable(8) ptr @_ZNSt8ios_base5iwordEi(ptr noundef nonnull align 8 dereferenceable(216) %add.ptr, i32 noundef %3)
  %4 = load i64, ptr %call, align 8
  store i64 %4, ptr %indent, align 8
  store i64 0, ptr %i, align 8
  br label %for.cond

for.cond:                                         ; preds = %for.inc, %if.then2
  %5 = load i64, ptr %i, align 8
  %6 = load i64, ptr %indent, align 8
  %cmp5 = icmp slt i64 %5, %6
  br i1 %cmp5, label %for.body, label %for.end

for.body:                                         ; preds = %for.cond
  %d_os6 = getelementptr inbounds %"class.cvc5::internal::Cvc5ostream", ptr %this1, i32 0, i32 0
  %7 = load ptr, ptr %d_os6, align 8
  %call7 = call noundef nonnull align 8 dereferenceable(8) ptr @_ZStlsIcSt11char_traitsIcESaIcEERSt13basic_ostreamIT_T0_ES7_RKNSt7__cxx1112basic_stringIS4_S5_T1_EE(ptr noundef nonnull align 8 dereferenceable(8) %7, ptr noundef nonnull align 8 dereferenceable(32) @_ZN4cvc58internal11Cvc5ostream5s_tabB5cxx11E)
  %d_os8 = getelementptr inbounds %"class.cvc5::internal::Cvc5ostream", ptr %this1, i32 0, i32 0
  store ptr %call7, ptr %d_os8, align 8
  br label %for.inc

for.inc:                                          ; preds = %for.body
  %8 = load i64, ptr %i, align 8
  %inc = add nsw i64 %8, 1
  store i64 %inc, ptr %i, align 8
  br label %for.cond, !llvm.loop !14

for.end:                                          ; preds = %for.cond
  br label %if.end

if.end:                                           ; preds = %for.end, %if.then
  %d_os9 = getelementptr inbounds %"class.cvc5::internal::Cvc5ostream", ptr %this1, i32 0, i32 0
  %9 = load ptr, ptr %d_os9, align 8
  %10 = load ptr, ptr %t.addr, align 8
  %arraydecay = getelementptr inbounds [46 x i8], ptr %10, i64 0, i64 0
  %call10 = call noundef nonnull align 8 dereferenceable(8) ptr @_ZStlsISt11char_traitsIcEERSt13basic_ostreamIcT_ES5_PKc(ptr noundef nonnull align 8 dereferenceable(8) %9, ptr noundef %arraydecay)
  br label %if.end11

if.end11:                                         ; preds = %if.end, %entry
  ret ptr %this1
}

declare void @_ZN4cvc58internal6theory15SubstitutionMap5applyENS0_12NodeTemplateILb0EEEPNS1_8RewriterEPSt3setIS4_St4lessIS4_ESaIS4_EEPKNS2_22ShouldTraverseCallbackE(ptr sret(%"class.cvc5::internal::NodeTemplate") align 8, ptr noundef nonnull align 8 dereferenceable(256), ptr noundef, ptr noundef, ptr noundef, ptr noundef) #1

; Function Attrs: mustprogress uwtable
define linkonce_odr hidden noundef nonnull align 8 dereferenceable(24) ptr @_ZN4cvc58internal11Cvc5ostreamlsIA9_cEERS1_RKT_(ptr noundef nonnull align 8 dereferenceable(24) %this, ptr noundef nonnull align 1 dereferenceable(9) %t) #4 comdat align 2 {
entry:
  %this.addr = alloca ptr, align 8
  %t.addr = alloca ptr, align 8
  %indent = alloca i64, align 8
  %i = alloca i64, align 8
  store ptr %this, ptr %this.addr, align 8
  store ptr %t, ptr %t.addr, align 8
  %this1 = load ptr, ptr %this.addr, align 8
  %d_os = getelementptr inbounds %"class.cvc5::internal::Cvc5ostream", ptr %this1, i32 0, i32 0
  %0 = load ptr, ptr %d_os, align 8
  %cmp = icmp ne ptr %0, null
  br i1 %cmp, label %if.then, label %if.end11

if.then:                                          ; preds = %entry
  %d_firstColumn = getelementptr inbounds %"class.cvc5::internal::Cvc5ostream", ptr %this1, i32 0, i32 1
  %1 = load i8, ptr %d_firstColumn, align 8
  %tobool = trunc i8 %1 to i1
  br i1 %tobool, label %if.then2, label %if.end

if.then2:                                         ; preds = %if.then
  %d_firstColumn3 = getelementptr inbounds %"class.cvc5::internal::Cvc5ostream", ptr %this1, i32 0, i32 1
  store i8 0, ptr %d_firstColumn3, align 8
  %d_os4 = getelementptr inbounds %"class.cvc5::internal::Cvc5ostream", ptr %this1, i32 0, i32 0
  %2 = load ptr, ptr %d_os4, align 8
  %vtable = load ptr, ptr %2, align 8
  %vbase.offset.ptr = getelementptr i8, ptr %vtable, i64 -24
  %vbase.offset = load i64, ptr %vbase.offset.ptr, align 8
  %add.ptr = getelementptr inbounds i8, ptr %2, i64 %vbase.offset
  %3 = load i32, ptr @_ZN4cvc58internal11Cvc5ostream16s_indentIosIndexE, align 4
  %call = call noundef nonnull align 8 dereferenceable(8) ptr @_ZNSt8ios_base5iwordEi(ptr noundef nonnull align 8 dereferenceable(216) %add.ptr, i32 noundef %3)
  %4 = load i64, ptr %call, align 8
  store i64 %4, ptr %indent, align 8
  store i64 0, ptr %i, align 8
  br label %for.cond

for.cond:                                         ; preds = %for.inc, %if.then2
  %5 = load i64, ptr %i, align 8
  %6 = load i64, ptr %indent, align 8
  %cmp5 = icmp slt i64 %5, %6
  br i1 %cmp5, label %for.body, label %for.end

for.body:                                         ; preds = %for.cond
  %d_os6 = getelementptr inbounds %"class.cvc5::internal::Cvc5ostream", ptr %this1, i32 0, i32 0
  %7 = load ptr, ptr %d_os6, align 8
  %call7 = call noundef nonnull align 8 dereferenceable(8) ptr @_ZStlsIcSt11char_traitsIcESaIcEERSt13basic_ostreamIT_T0_ES7_RKNSt7__cxx1112basic_stringIS4_S5_T1_EE(ptr noundef nonnull align 8 dereferenceable(8) %7, ptr noundef nonnull align 8 dereferenceable(32) @_ZN4cvc58internal11Cvc5ostream5s_tabB5cxx11E)
  %d_os8 = getelementptr inbounds %"class.cvc5::internal::Cvc5ostream", ptr %this1, i32 0, i32 0
  store ptr %call7, ptr %d_os8, align 8
  br label %for.inc

for.inc:                                          ; preds = %for.body
  %8 = load i64, ptr %i, align 8
  %inc = add nsw i64 %8, 1
  store i64 %inc, ptr %i, align 8
  br label %for.cond, !llvm.loop !15

for.end:                                          ; preds = %for.cond
  br label %if.end

if.end:                                           ; preds = %for.end, %if.then
  %d_os9 = getelementptr inbounds %"class.cvc5::internal::Cvc5ostream", ptr %this1, i32 0, i32 0
  %9 = load ptr, ptr %d_os9, align 8
  %10 = load ptr, ptr %t.addr, align 8
  %arraydecay = getelementptr inbounds [9 x i8], ptr %10, i64 0, i64 0
  %call10 = call noundef nonnull align 8 dereferenceable(8) ptr @_ZStlsISt11char_traitsIcEERSt13basic_ostreamIcT_ES5_PKc(ptr noundef nonnull align 8 dereferenceable(8) %9, ptr noundef %arraydecay)
  br label %if.end11

if.end11:                                         ; preds = %if.end, %entry
  ret ptr %this1
}

declare void @_ZN4cvc58internal9TrustNode4nullEv(ptr sret(%"class.cvc5::internal::TrustNode") align 8) #1

; Function Attrs: mustprogress uwtable
define linkonce_odr hidden void @_ZNK4cvc58internal12NodeTemplateILb1EE6eqNodeILb1EEES2_RKNS1_IXT_EEE(ptr noalias sret(%"class.cvc5::internal::NodeTemplate") align 8 %agg.result, ptr noundef nonnull align 8 dereferenceable(8) %this, ptr noundef nonnull align 8 dereferenceable(8) %right) #4 comdat align 2 personality ptr @__gxx_personality_v0 {
entry:
  %result.ptr = alloca ptr, align 8
  %this.addr = alloca ptr, align 8
  %right.addr = alloca ptr, align 8
  %agg.tmp = alloca %"class.cvc5::internal::NodeTemplate.376", align 8
  %agg.tmp2 = alloca %"class.cvc5::internal::NodeTemplate.376", align 8
  %exn.slot = alloca ptr, align 8
  %ehselector.slot = alloca i32, align 4
  store ptr %agg.result, ptr %result.ptr, align 8
  store ptr %this, ptr %this.addr, align 8
  store ptr %right, ptr %right.addr, align 8
  %this1 = load ptr, ptr %this.addr, align 8
  call void @_ZNK4cvc58internal12NodeTemplateILb1EE21assertTNodeNotExpiredEv(ptr noundef nonnull align 8 dereferenceable(8) %this1)
  %call = call noundef ptr @_ZN4cvc58internal11NodeManager9currentNMEv()
  call void @_ZN4cvc58internal12NodeTemplateILb0EEC2ERKNS1_ILb1EEE(ptr noundef nonnull align 8 dereferenceable(8) %agg.tmp, ptr noundef nonnull align 8 dereferenceable(8) %this1)
  %0 = load ptr, ptr %right.addr, align 8
  invoke void @_ZN4cvc58internal12NodeTemplateILb0EEC2ERKNS1_ILb1EEE(ptr noundef nonnull align 8 dereferenceable(8) %agg.tmp2, ptr noundef nonnull align 8 dereferenceable(8) %0)
          to label %invoke.cont unwind label %lpad

invoke.cont:                                      ; preds = %entry
  invoke void @_ZN4cvc58internal11NodeManager6mkNodeENS0_4kind6Kind_tENS0_12NodeTemplateILb0EEES5_(ptr sret(%"class.cvc5::internal::NodeTemplate") align 8 %agg.result, ptr noundef nonnull align 8 dereferenceable(3360) %call, i32 noundef 5, ptr noundef %agg.tmp, ptr noundef %agg.tmp2)
          to label %invoke.cont4 unwind label %lpad3

invoke.cont4:                                     ; preds = %invoke.cont
  call void @_ZN4cvc58internal12NodeTemplateILb0EED2Ev(ptr noundef nonnull align 8 dereferenceable(8) %agg.tmp2) #3
  call void @_ZN4cvc58internal12NodeTemplateILb0EED2Ev(ptr noundef nonnull align 8 dereferenceable(8) %agg.tmp) #3
  ret void

lpad:                                             ; preds = %entry
  %1 = landingpad { ptr, i32 }
          cleanup
  %2 = extractvalue { ptr, i32 } %1, 0
  store ptr %2, ptr %exn.slot, align 8
  %3 = extractvalue { ptr, i32 } %1, 1
  store i32 %3, ptr %ehselector.slot, align 4
  br label %ehcleanup

lpad3:                                            ; preds = %invoke.cont
  %4 = landingpad { ptr, i32 }
          cleanup
  %5 = extractvalue { ptr, i32 } %4, 0
  store ptr %5, ptr %exn.slot, align 8
  %6 = extractvalue { ptr, i32 } %4, 1
  store i32 %6, ptr %ehselector.slot, align 4
  call void @_ZN4cvc58internal12NodeTemplateILb0EED2Ev(ptr noundef nonnull align 8 dereferenceable(8) %agg.tmp2) #3
  br label %ehcleanup

ehcleanup:                                        ; preds = %lpad3, %lpad
  call void @_ZN4cvc58internal12NodeTemplateILb0EED2Ev(ptr noundef nonnull align 8 dereferenceable(8) %agg.tmp) #3
  br label %eh.resume

eh.resume:                                        ; preds = %ehcleanup
  %exn = load ptr, ptr %exn.slot, align 8
  %sel = load i32, ptr %ehselector.slot, align 4
  %lpad.val = insertvalue { ptr, i32 } poison, ptr %exn, 0
  %lpad.val5 = insertvalue { ptr, i32 } %lpad.val, i32 %sel, 1
  resume { ptr, i32 } %lpad.val5
}

; Function Attrs: mustprogress uwtable
define linkonce_odr hidden void @_ZNK4cvc57context9CDHashMapINS_8internal12NodeTemplateILb1EEEmSt4hashIS4_EE4findERKS4_(ptr noalias sret(%"class.cvc5::context::CDHashMap<cvc5::internal::NodeTemplate<true>, unsigned long>::iterator") align 8 %agg.result, ptr noundef nonnull align 8 dereferenceable(112) %this, ptr noundef nonnull align 8 dereferenceable(8) %k) #4 comdat align 2 {
entry:
  %result.ptr = alloca ptr, align 8
  %this.addr = alloca ptr, align 8
  %k.addr = alloca ptr, align 8
  %i = alloca %"struct.std::__detail::_Node_const_iterator", align 8
  %ref.tmp = alloca %"struct.std::__detail::_Node_const_iterator", align 8
  store ptr %agg.result, ptr %result.ptr, align 8
  store ptr %this, ptr %this.addr, align 8
  store ptr %k, ptr %k.addr, align 8
  %this1 = load ptr, ptr %this.addr, align 8
  %d_map = getelementptr inbounds %"class.cvc5::context::CDHashMap.45", ptr %this1, i32 0, i32 1
  %0 = load ptr, ptr %k.addr, align 8
  %call = call ptr @_ZNKSt13unordered_mapIN4cvc58internal12NodeTemplateILb1EEEPNS0_7context11CDOhash_mapIS3_mSt4hashIS3_EEES7_St8equal_toIS3_ESaISt4pairIKS3_S9_EEE4findERSD_(ptr noundef nonnull align 8 dereferenceable(56) %d_map, ptr noundef nonnull align 8 dereferenceable(8) %0)
  %coerce.dive = getelementptr inbounds %"struct.std::__detail::_Node_const_iterator", ptr %i, i32 0, i32 0
  %coerce.dive2 = getelementptr inbounds %"struct.std::__detail::_Node_iterator_base.518", ptr %coerce.dive, i32 0, i32 0
  store ptr %call, ptr %coerce.dive2, align 8
  %d_map3 = getelementptr inbounds %"class.cvc5::context::CDHashMap.45", ptr %this1, i32 0, i32 1
  %call4 = call ptr @_ZNKSt13unordered_mapIN4cvc58internal12NodeTemplateILb1EEEPNS0_7context11CDOhash_mapIS3_mSt4hashIS3_EEES7_St8equal_toIS3_ESaISt4pairIKS3_S9_EEE3endEv(ptr noundef nonnull align 8 dereferenceable(56) %d_map3) #3
  %coerce.dive5 = getelementptr inbounds %"struct.std::__detail::_Node_const_iterator", ptr %ref.tmp, i32 0, i32 0
  %coerce.dive6 = getelementptr inbounds %"struct.std::__detail::_Node_iterator_base.518", ptr %coerce.dive5, i32 0, i32 0
  store ptr %call4, ptr %coerce.dive6, align 8
  %call7 = call noundef zeroext i1 @_ZNSt8__detaileqERKNS_19_Node_iterator_baseISt4pairIKN4cvc58internal12NodeTemplateILb1EEEPNS2_7context11CDOhash_mapIS5_mSt4hashIS5_EEEELb1EEESG_(ptr noundef nonnull align 8 dereferenceable(8) %i, ptr noundef nonnull align 8 dereferenceable(8) %ref.tmp) #3
  br i1 %call7, label %if.then, label %if.else

if.then:                                          ; preds = %entry
  call void @_ZNK4cvc57context9CDHashMapINS_8internal12NodeTemplateILb1EEEmSt4hashIS4_EE3endEv(ptr sret(%"class.cvc5::context::CDHashMap<cvc5::internal::NodeTemplate<true>, unsigned long>::iterator") align 8 %agg.result, ptr noundef nonnull align 8 dereferenceable(112) %this1)
  br label %return

if.else:                                          ; preds = %entry
  %call8 = call noundef nonnull align 8 dereferenceable(16) ptr @_ZNKSt8__detail20_Node_const_iteratorISt4pairIKN4cvc58internal12NodeTemplateILb1EEEPNS2_7context11CDOhash_mapIS5_mSt4hashIS5_EEEELb0ELb1EEdeEv(ptr noundef nonnull align 8 dereferenceable(8) %i) #3
  %second = getelementptr inbounds %"struct.std::pair.519", ptr %call8, i32 0, i32 1
  %1 = load ptr, ptr %second, align 8
  call void @_ZN4cvc57context9CDHashMapINS_8internal12NodeTemplateILb1EEEmSt4hashIS4_EE8iteratorC2EPKNS0_11CDOhash_mapIS4_mS6_EE(ptr noundef nonnull align 8 dereferenceable(8) %agg.result, ptr noundef %1)
  br label %return

return:                                           ; preds = %if.else, %if.then
  ret void
}

; Function Attrs: mustprogress nounwind uwtable
define linkonce_odr hidden noundef zeroext i1 @_ZNK4cvc57context9CDHashMapINS_8internal12NodeTemplateILb1EEEmSt4hashIS4_EE8iteratoreqERKS8_(ptr noundef nonnull align 8 dereferenceable(8) %this, ptr noundef nonnull align 8 dereferenceable(8) %i) #5 comdat align 2 {
entry:
  %this.addr = alloca ptr, align 8
  %i.addr = alloca ptr, align 8
  store ptr %this, ptr %this.addr, align 8
  store ptr %i, ptr %i.addr, align 8
  %this1 = load ptr, ptr %this.addr, align 8
  %d_it = getelementptr inbounds %"class.cvc5::context::CDHashMap<cvc5::internal::NodeTemplate<true>, unsigned long>::iterator", ptr %this1, i32 0, i32 0
  %0 = load ptr, ptr %d_it, align 8
  %1 = load ptr, ptr %i.addr, align 8
  %d_it2 = getelementptr inbounds %"class.cvc5::context::CDHashMap<cvc5::internal::NodeTemplate<true>, unsigned long>::iterator", ptr %1, i32 0, i32 0
  %2 = load ptr, ptr %d_it2, align 8
  %cmp = icmp eq ptr %0, %2
  ret i1 %cmp
}

; Function Attrs: mustprogress uwtable
define linkonce_odr hidden void @_ZNK4cvc57context9CDHashMapINS_8internal12NodeTemplateILb1EEEmSt4hashIS4_EE3endEv(ptr noalias sret(%"class.cvc5::context::CDHashMap<cvc5::internal::NodeTemplate<true>, unsigned long>::iterator") align 8 %agg.result, ptr noundef nonnull align 8 dereferenceable(112) %this) #4 comdat align 2 {
entry:
  %result.ptr = alloca ptr, align 8
  %this.addr = alloca ptr, align 8
  store ptr %agg.result, ptr %result.ptr, align 8
  store ptr %this, ptr %this.addr, align 8
  call void @_ZN4cvc57context9CDHashMapINS_8internal12NodeTemplateILb1EEEmSt4hashIS4_EE8iteratorC2EPKNS0_11CDOhash_mapIS4_mS6_EE(ptr noundef nonnull align 8 dereferenceable(8) %agg.result, ptr noundef null)
  ret void
}

; Function Attrs: mustprogress nounwind uwtable
define linkonce_odr hidden noundef i64 @_ZNK4cvc57context6CDListINS_8internal9TrustNodeENS0_14DefaultCleanUpIS3_EESaIS3_EE4sizeEv(ptr noundef nonnull align 8 dereferenceable(74) %this) #5 comdat align 2 {
entry:
  %this.addr = alloca ptr, align 8
  store ptr %this, ptr %this.addr, align 8
  %this1 = load ptr, ptr %this.addr, align 8
  %d_list = getelementptr inbounds %"class.cvc5::context::CDList", ptr %this1, i32 0, i32 1
  %call = call noundef i64 @_ZNKSt6vectorIN4cvc58internal9TrustNodeESaIS2_EE4sizeEv(ptr noundef nonnull align 8 dereferenceable(24) %d_list) #3
  ret i64 %call
}

; Function Attrs: mustprogress uwtable
define linkonce_odr hidden noundef nonnull align 8 dereferenceable(80) ptr @_ZN4cvc57context9CDHashMapINS_8internal12NodeTemplateILb1EEEmSt4hashIS4_EEixERKS4_(ptr noundef nonnull align 8 dereferenceable(112) %this, ptr noundef nonnull align 8 dereferenceable(8) %k) #4 comdat align 2 personality ptr @__gxx_personality_v0 {
entry:
  %this.addr = alloca ptr, align 8
  %k.addr = alloca ptr, align 8
  %res = alloca %"struct.std::pair.538", align 8
  %ref.tmp = alloca %"struct.std::pair.519", align 8
  %ref.tmp2 = alloca ptr, align 8
  %exn.slot = alloca ptr, align 8
  %ehselector.slot = alloca i32, align 4
  %ref.tmp4 = alloca i64, align 8
  store ptr %this, ptr %this.addr, align 8
  store ptr %k, ptr %k.addr, align 8
  %this1 = load ptr, ptr %this.addr, align 8
  %d_map = getelementptr inbounds %"class.cvc5::context::CDHashMap.45", ptr %this1, i32 0, i32 1
  %0 = load ptr, ptr %k.addr, align 8
  store ptr null, ptr %ref.tmp2, align 8
  call void @_ZNSt4pairIKN4cvc58internal12NodeTemplateILb1EEEPNS0_7context11CDOhash_mapIS3_mSt4hashIS3_EEEEC2IRS4_DnTnNSt9enable_ifIXaaclsr5_PCCPE22_MoveConstructiblePairIT_T0_EEclsr5_PCCPE30_ImplicitlyMoveConvertiblePairISF_SG_EEEbE4typeELb1EEEOSF_OSG_(ptr noundef nonnull align 8 dereferenceable(16) %ref.tmp, ptr noundef nonnull align 8 dereferenceable(8) %0, ptr noundef nonnull align 8 dereferenceable(8) %ref.tmp2)
  %call = invoke { ptr, i8 } @_ZNSt13unordered_mapIN4cvc58internal12NodeTemplateILb1EEEPNS0_7context11CDOhash_mapIS3_mSt4hashIS3_EEES7_St8equal_toIS3_ESaISt4pairIKS3_S9_EEE6insertEOSE_(ptr noundef nonnull align 8 dereferenceable(56) %d_map, ptr noundef nonnull align 8 dereferenceable(16) %ref.tmp)
          to label %invoke.cont unwind label %lpad

invoke.cont:                                      ; preds = %entry
  %1 = getelementptr inbounds { ptr, i8 }, ptr %res, i32 0, i32 0
  %2 = extractvalue { ptr, i8 } %call, 0
  store ptr %2, ptr %1, align 8
  %3 = getelementptr inbounds { ptr, i8 }, ptr %res, i32 0, i32 1
  %4 = extractvalue { ptr, i8 } %call, 1
  store i8 %4, ptr %3, align 8
  call void @_ZNSt4pairIKN4cvc58internal12NodeTemplateILb1EEEPNS0_7context11CDOhash_mapIS3_mSt4hashIS3_EEEED2Ev(ptr noundef nonnull align 8 dereferenceable(16) %ref.tmp) #3
  %second = getelementptr inbounds %"struct.std::pair.538", ptr %res, i32 0, i32 1
  %5 = load i8, ptr %second, align 8
  %tobool = trunc i8 %5 to i1
  br i1 %tobool, label %if.then, label %if.end

if.then:                                          ; preds = %invoke.cont
  %call3 = call noundef ptr @_ZN4cvc57context10ContextObjnwEmb(i64 noundef 80, i1 noundef zeroext true)
  %d_context = getelementptr inbounds %"class.cvc5::context::CDHashMap.45", ptr %this1, i32 0, i32 3
  %6 = load ptr, ptr %d_context, align 8
  %7 = load ptr, ptr %k.addr, align 8
  store i64 0, ptr %ref.tmp4, align 8
  invoke void @_ZN4cvc57context11CDOhash_mapINS_8internal12NodeTemplateILb1EEEmSt4hashIS4_EEC2EPNS0_7ContextEPNS0_9CDHashMapIS4_mS6_EERKS4_RKm(ptr noundef nonnull align 8 dereferenceable(80) %call3, ptr noundef %6, ptr noundef %this1, ptr noundef nonnull align 8 dereferenceable(8) %7, ptr noundef nonnull align 8 dereferenceable(8) %ref.tmp4)
          to label %invoke.cont6 unwind label %lpad5

invoke.cont6:                                     ; preds = %if.then
  %first = getelementptr inbounds %"struct.std::pair.538", ptr %res, i32 0, i32 0
  %call7 = call noundef ptr @_ZNKSt8__detail14_Node_iteratorISt4pairIKN4cvc58internal12NodeTemplateILb1EEEPNS2_7context11CDOhash_mapIS5_mSt4hashIS5_EEEELb0ELb1EEptEv(ptr noundef nonnull align 8 dereferenceable(8) %first) #3
  %second8 = getelementptr inbounds %"struct.std::pair.519", ptr %call7, i32 0, i32 1
  store ptr %call3, ptr %second8, align 8
  br label %if.end

lpad:                                             ; preds = %entry
  %8 = landingpad { ptr, i32 }
          cleanup
  %9 = extractvalue { ptr, i32 } %8, 0
  store ptr %9, ptr %exn.slot, align 8
  %10 = extractvalue { ptr, i32 } %8, 1
  store i32 %10, ptr %ehselector.slot, align 4
  call void @_ZNSt4pairIKN4cvc58internal12NodeTemplateILb1EEEPNS0_7context11CDOhash_mapIS3_mSt4hashIS3_EEEED2Ev(ptr noundef nonnull align 8 dereferenceable(16) %ref.tmp) #3
  br label %eh.resume

lpad5:                                            ; preds = %if.then
  %11 = landingpad { ptr, i32 }
          cleanup
  %12 = extractvalue { ptr, i32 } %11, 0
  store ptr %12, ptr %exn.slot, align 8
  %13 = extractvalue { ptr, i32 } %11, 1
  store i32 %13, ptr %ehselector.slot, align 4
  call void @_ZN4cvc57context10ContextObjdlEPvb(ptr noundef %call3, i1 noundef zeroext true) #3
  br label %eh.resume

if.end:                                           ; preds = %invoke.cont6, %invoke.cont
  %first9 = getelementptr inbounds %"struct.std::pair.538", ptr %res, i32 0, i32 0
  %call10 = call noundef ptr @_ZNKSt8__detail14_Node_iteratorISt4pairIKN4cvc58internal12NodeTemplateILb1EEEPNS2_7context11CDOhash_mapIS5_mSt4hashIS5_EEEELb0ELb1EEptEv(ptr noundef nonnull align 8 dereferenceable(8) %first9) #3
  %second11 = getelementptr inbounds %"struct.std::pair.519", ptr %call10, i32 0, i32 1
  %14 = load ptr, ptr %second11, align 8
  ret ptr %14

eh.resume:                                        ; preds = %lpad5, %lpad
  %exn = load ptr, ptr %exn.slot, align 8
  %sel = load i32, ptr %ehselector.slot, align 4
  %lpad.val = insertvalue { ptr, i32 } poison, ptr %exn, 0
  %lpad.val12 = insertvalue { ptr, i32 } %lpad.val, i32 %sel, 1
  resume { ptr, i32 } %lpad.val12
}

; Function Attrs: mustprogress uwtable
define linkonce_odr hidden noundef nonnull align 8 dereferenceable(8) ptr @_ZN4cvc57context11CDOhash_mapINS_8internal12NodeTemplateILb1EEEmSt4hashIS4_EEaSERKm(ptr noundef nonnull align 8 dereferenceable(80) %this, ptr noundef nonnull align 8 dereferenceable(8) %data) #4 comdat align 2 {
entry:
  %this.addr = alloca ptr, align 8
  %data.addr = alloca ptr, align 8
  store ptr %this, ptr %this.addr, align 8
  store ptr %data, ptr %data.addr, align 8
  %this1 = load ptr, ptr %this.addr, align 8
  %0 = load ptr, ptr %data.addr, align 8
  call void @_ZN4cvc57context11CDOhash_mapINS_8internal12NodeTemplateILb1EEEmSt4hashIS4_EE3setERKm(ptr noundef nonnull align 8 dereferenceable(80) %this1, ptr noundef nonnull align 8 dereferenceable(8) %0)
  %1 = load ptr, ptr %data.addr, align 8
  ret ptr %1
}

; Function Attrs: mustprogress uwtable
define hidden void @_ZN4cvc58internal6theory20TrustSubstitutionMap5applyENS0_12NodeTemplateILb1EEEPNS1_8RewriterE(ptr noalias sret(%"class.cvc5::internal::NodeTemplate") align 8 %agg.result, ptr noundef nonnull align 8 dereferenceable(608) %this, ptr noundef %n, ptr noundef %r) #4 align 2 personality ptr @__gxx_personality_v0 {
entry:
  %result.ptr = alloca ptr, align 8
  %this.addr = alloca ptr, align 8
  %n.indirect_addr = alloca ptr, align 8
  %r.addr = alloca ptr, align 8
  %agg.tmp = alloca %"class.cvc5::internal::NodeTemplate.376", align 8
  %exn.slot = alloca ptr, align 8
  %ehselector.slot = alloca i32, align 4
  store ptr %agg.result, ptr %result.ptr, align 8
  store ptr %this, ptr %this.addr, align 8
  store ptr %n, ptr %n.indirect_addr, align 8
  store ptr %r, ptr %r.addr, align 8
  %this1 = load ptr, ptr %this.addr, align 8
  %d_subs = getelementptr inbounds %"class.cvc5::internal::theory::TrustSubstitutionMap", ptr %this1, i32 0, i32 3
  call void @_ZN4cvc58internal12NodeTemplateILb0EEC2ERKNS1_ILb1EEE(ptr noundef nonnull align 8 dereferenceable(8) %agg.tmp, ptr noundef nonnull align 8 dereferenceable(8) %n)
  %0 = load ptr, ptr %r.addr, align 8
  invoke void @_ZN4cvc58internal6theory15SubstitutionMap5applyENS0_12NodeTemplateILb0EEEPNS1_8RewriterEPSt3setIS4_St4lessIS4_ESaIS4_EEPKNS2_22ShouldTraverseCallbackE(ptr sret(%"class.cvc5::internal::NodeTemplate") align 8 %agg.result, ptr noundef nonnull align 8 dereferenceable(256) %d_subs, ptr noundef %agg.tmp, ptr noundef %0, ptr noundef null, ptr noundef null)
          to label %invoke.cont unwind label %lpad

invoke.cont:                                      ; preds = %entry
  call void @_ZN4cvc58internal12NodeTemplateILb0EED2Ev(ptr noundef nonnull align 8 dereferenceable(8) %agg.tmp) #3
  ret void

lpad:                                             ; preds = %entry
  %1 = landingpad { ptr, i32 }
          cleanup
  %2 = extractvalue { ptr, i32 } %1, 0
  store ptr %2, ptr %exn.slot, align 8
  %3 = extractvalue { ptr, i32 } %1, 1
  store i32 %3, ptr %ehselector.slot, align 4
  call void @_ZN4cvc58internal12NodeTemplateILb0EED2Ev(ptr noundef nonnull align 8 dereferenceable(8) %agg.tmp) #3
  br label %eh.resume

eh.resume:                                        ; preds = %lpad
  %exn = load ptr, ptr %exn.slot, align 8
  %sel = load i32, ptr %ehselector.slot, align 4
  %lpad.val = insertvalue { ptr, i32 } poison, ptr %exn, 0
  %lpad.val2 = insertvalue { ptr, i32 } %lpad.val, i32 %sel, 1
  resume { ptr, i32 } %lpad.val2
}

; Function Attrs: mustprogress uwtable
define hidden void @_ZN4cvc58internal6theory20TrustSubstitutionMap11getProofForENS0_12NodeTemplateILb1EEE(ptr noalias sret(%"class.std::shared_ptr") align 8 %agg.result, ptr noundef nonnull align 8 dereferenceable(608) %this, ptr noundef %eq) unnamed_addr #4 align 2 personality ptr @__gxx_personality_v0 {
entry:
  %result.ptr = alloca ptr, align 8
  %this.addr = alloca ptr, align 8
  %eq.indirect_addr = alloca ptr, align 8
  %n = alloca %"class.cvc5::internal::NodeTemplate", align 8
  %ns = alloca %"class.cvc5::internal::NodeTemplate", align 8
  %exn.slot = alloca ptr, align 8
  %ehselector.slot = alloca i32, align 4
  %agg.tmp = alloca %"class.cvc5::internal::NodeTemplate", align 8
  %agg.tmp9 = alloca %"class.cvc5::internal::NodeTemplate", align 8
  %cleanup.cond = alloca i1, align 1
  %agg.tmp19 = alloca %"class.cvc5::internal::NodeTemplate", align 8
  %cleanup.dest.slot = alloca i32, align 4
  %ref.tmp = alloca %"class.cvc5::internal::__cvc5_true", align 1
  %tmp = alloca %"class.cvc5::internal::Cvc5ostream", align 8
  %agg.tmp.ensured = alloca %"class.cvc5::internal::Cvc5ostream", align 8
  %ref.tmp27 = alloca %"class.cvc5::internal::Cvc5ostream", align 8
  %ref.tmp35 = alloca %"struct.std::__detail::_Node_iterator", align 8
  %ref.tmp39 = alloca %"struct.std::__detail::_Node_iterator", align 8
  %ref.tmp48 = alloca %"class.cvc5::internal::OstreamVoider", align 1
  %ref.tmp50 = alloca %"class.cvc5::internal::FatalStream", align 1
  %cleanup.cond52 = alloca i1, align 1
  %agg.tmp64 = alloca %"class.cvc5::internal::NodeTemplate.376", align 8
  %cleanup.cond66 = alloca i1, align 1
  %coerce = alloca %"struct.std::pair.387", align 8
  %it = alloca %"class.cvc5::context::CDHashMap<cvc5::internal::NodeTemplate<true>, unsigned long>::iterator", align 8
  %ref.tmp90 = alloca %"class.cvc5::internal::__cvc5_true", align 1
  %tmp94 = alloca %"class.cvc5::internal::Cvc5ostream", align 8
  %agg.tmp.ensured97 = alloca %"class.cvc5::internal::Cvc5ostream", align 8
  %ref.tmp98 = alloca %"class.cvc5::internal::Cvc5ostream", align 8
  %cs = alloca %"class.cvc5::internal::NodeTemplate", align 8
  %ref.tmp113 = alloca %"class.cvc5::internal::__cvc5_true", align 1
  %tmp118 = alloca %"class.cvc5::internal::Cvc5ostream", align 8
  %agg.tmp.ensured121 = alloca %"class.cvc5::internal::Cvc5ostream", align 8
  %ref.tmp122 = alloca %"class.cvc5::internal::Cvc5ostream", align 8
  %pfChildren = alloca %"class.std::vector.382", align 8
  %agg.tmp137 = alloca %"class.cvc5::internal::NodeTemplate", align 8
  %ref.tmp145 = alloca %"class.cvc5::internal::__cvc5_true", align 1
  %tmp149 = alloca %"class.cvc5::internal::Cvc5ostream", align 8
  %agg.tmp.ensured152 = alloca %"class.cvc5::internal::Cvc5ostream", align 8
  %ref.tmp153 = alloca %"class.cvc5::internal::Cvc5ostream", align 8
  %agg.tmp161 = alloca %"class.cvc5::internal::NodeTemplate", align 8
  %agg.tmp163 = alloca %"class.cvc5::internal::NodeTemplate", align 8
  %ref.tmp175 = alloca %"class.std::vector.382", align 8
  %agg.tmp176 = alloca %"class.cvc5::internal::NodeTemplate", align 8
  %ref.tmp185 = alloca %"class.cvc5::internal::__cvc5_true", align 1
  %tmp189 = alloca %"class.cvc5::internal::Cvc5ostream", align 8
  %agg.tmp.ensured192 = alloca %"class.cvc5::internal::Cvc5ostream", align 8
  %ref.tmp193 = alloca %"class.cvc5::internal::Cvc5ostream", align 8
  %ref.tmp209 = alloca %"class.cvc5::internal::__cvc5_true", align 1
  %tmp213 = alloca %"class.cvc5::internal::Cvc5ostream", align 8
  %agg.tmp.ensured216 = alloca %"class.cvc5::internal::Cvc5ostream", align 8
  %ref.tmp217 = alloca %"class.cvc5::internal::Cvc5ostream", align 8
  %nrvo = alloca i1, align 1
  %agg.tmp226 = alloca %"class.cvc5::internal::NodeTemplate", align 8
  store ptr %agg.result, ptr %result.ptr, align 8
  store ptr %this, ptr %this.addr, align 8
  store ptr %eq, ptr %eq.indirect_addr, align 8
  %this1 = load ptr, ptr %this.addr, align 8
  call void @_ZNK4cvc58internal12NodeTemplateILb1EEixEi(ptr sret(%"class.cvc5::internal::NodeTemplate") align 8 %n, ptr noundef nonnull align 8 dereferenceable(8) %eq, i32 noundef 0)
  invoke void @_ZNK4cvc58internal12NodeTemplateILb1EEixEi(ptr sret(%"class.cvc5::internal::NodeTemplate") align 8 %ns, ptr noundef nonnull align 8 dereferenceable(8) %eq, i32 noundef 1)
          to label %invoke.cont unwind label %lpad

invoke.cont:                                      ; preds = %entry
  %d_subsPg = getelementptr inbounds %"class.cvc5::internal::theory::TrustSubstitutionMap", ptr %this1, i32 0, i32 6
  %call = call noundef ptr @_ZNKSt10unique_ptrIN4cvc58internal11LazyCDProofESt14default_deleteIS2_EEptEv(ptr noundef nonnull align 8 dereferenceable(8) %d_subsPg) #3
  store i1 false, ptr %cleanup.cond, align 1
  invoke void @_ZN4cvc58internal12NodeTemplateILb1EEC2ERKS2_(ptr noundef nonnull align 8 dereferenceable(8) %agg.tmp, ptr noundef nonnull align 8 dereferenceable(8) %eq)
          to label %invoke.cont3 unwind label %lpad2

invoke.cont3:                                     ; preds = %invoke.cont
  %call6 = invoke noundef zeroext i1 @_ZN4cvc58internal7CDProof7hasStepENS0_12NodeTemplateILb1EEE(ptr noundef nonnull align 8 dereferenceable(217) %call, ptr noundef %agg.tmp)
          to label %invoke.cont5 unwind label %lpad4

invoke.cont5:                                     ; preds = %invoke.cont3
  br i1 %call6, label %lor.end, label %lor.rhs

lor.rhs:                                          ; preds = %invoke.cont5
  %d_subsPg7 = getelementptr inbounds %"class.cvc5::internal::theory::TrustSubstitutionMap", ptr %this1, i32 0, i32 6
  %call8 = call noundef ptr @_ZNKSt10unique_ptrIN4cvc58internal11LazyCDProofESt14default_deleteIS2_EEptEv(ptr noundef nonnull align 8 dereferenceable(8) %d_subsPg7) #3
  invoke void @_ZN4cvc58internal12NodeTemplateILb1EEC2ERKS2_(ptr noundef nonnull align 8 dereferenceable(8) %agg.tmp9, ptr noundef nonnull align 8 dereferenceable(8) %eq)
          to label %invoke.cont10 unwind label %lpad4

invoke.cont10:                                    ; preds = %lor.rhs
  store i1 true, ptr %cleanup.cond, align 1
  %call13 = invoke noundef zeroext i1 @_ZNK4cvc58internal11LazyCDProof12hasGeneratorENS0_12NodeTemplateILb1EEE(ptr noundef nonnull align 8 dereferenceable(408) %call8, ptr noundef %agg.tmp9)
          to label %invoke.cont12 unwind label %lpad11

invoke.cont12:                                    ; preds = %invoke.cont10
  br label %lor.end

lor.end:                                          ; preds = %invoke.cont12, %invoke.cont5
  %0 = phi i1 [ true, %invoke.cont5 ], [ %call13, %invoke.cont12 ]
  %cleanup.is_active = load i1, ptr %cleanup.cond, align 1
  br i1 %cleanup.is_active, label %cleanup.action, label %cleanup.done

cleanup.action:                                   ; preds = %lor.end
  call void @_ZN4cvc58internal12NodeTemplateILb1EED2Ev(ptr noundef nonnull align 8 dereferenceable(8) %agg.tmp9) #3
  br label %cleanup.done

cleanup.done:                                     ; preds = %cleanup.action, %lor.end
  call void @_ZN4cvc58internal12NodeTemplateILb1EED2Ev(ptr noundef nonnull align 8 dereferenceable(8) %agg.tmp) #3
  br i1 %0, label %if.then, label %if.end

if.then:                                          ; preds = %cleanup.done
  %d_subsPg17 = getelementptr inbounds %"class.cvc5::internal::theory::TrustSubstitutionMap", ptr %this1, i32 0, i32 6
  %call18 = call noundef ptr @_ZNKSt10unique_ptrIN4cvc58internal11LazyCDProofESt14default_deleteIS2_EEptEv(ptr noundef nonnull align 8 dereferenceable(8) %d_subsPg17) #3
  invoke void @_ZN4cvc58internal12NodeTemplateILb1EEC2ERKS2_(ptr noundef nonnull align 8 dereferenceable(8) %agg.tmp19, ptr noundef nonnull align 8 dereferenceable(8) %eq)
          to label %invoke.cont20 unwind label %lpad2

invoke.cont20:                                    ; preds = %if.then
  %vtable = load ptr, ptr %call18, align 8
  %vfn = getelementptr inbounds ptr, ptr %vtable, i64 2
  %1 = load ptr, ptr %vfn, align 8
  invoke void %1(ptr sret(%"class.std::shared_ptr") align 8 %agg.result, ptr noundef nonnull align 8 dereferenceable(408) %call18, ptr noundef %agg.tmp19)
          to label %invoke.cont22 unwind label %lpad21

invoke.cont22:                                    ; preds = %invoke.cont20
  call void @_ZN4cvc58internal12NodeTemplateILb1EED2Ev(ptr noundef nonnull align 8 dereferenceable(8) %agg.tmp19) #3
  store i32 1, ptr %cleanup.dest.slot, align 4
  br label %cleanup

lpad:                                             ; preds = %entry
  %2 = landingpad { ptr, i32 }
          cleanup
  %3 = extractvalue { ptr, i32 } %2, 0
  store ptr %3, ptr %exn.slot, align 8
  %4 = extractvalue { ptr, i32 } %2, 1
  store i32 %4, ptr %ehselector.slot, align 4
  br label %ehcleanup242

lpad2:                                            ; preds = %invoke.cont109, %cond.end108, %invoke.cont104, %invoke.cont102, %invoke.cont100, %invoke.cont99, %cond.false96, %cond.true93, %invoke.cont89, %invoke.cont87, %cleanup.done81, %invoke.cont49, %cond.false47, %cond.end, %invoke.cont31, %invoke.cont29, %invoke.cont28, %cond.false, %cond.true, %if.end, %if.then, %invoke.cont
  %5 = landingpad { ptr, i32 }
          cleanup
  %6 = extractvalue { ptr, i32 } %5, 0
  store ptr %6, ptr %exn.slot, align 8
  %7 = extractvalue { ptr, i32 } %5, 1
  store i32 %7, ptr %ehselector.slot, align 4
  br label %ehcleanup240

lpad4:                                            ; preds = %lor.rhs, %invoke.cont3
  %8 = landingpad { ptr, i32 }
          cleanup
  %9 = extractvalue { ptr, i32 } %8, 0
  store ptr %9, ptr %exn.slot, align 8
  %10 = extractvalue { ptr, i32 } %8, 1
  store i32 %10, ptr %ehselector.slot, align 4
  br label %ehcleanup

lpad11:                                           ; preds = %invoke.cont10
  %11 = landingpad { ptr, i32 }
          cleanup
  %12 = extractvalue { ptr, i32 } %11, 0
  store ptr %12, ptr %exn.slot, align 8
  %13 = extractvalue { ptr, i32 } %11, 1
  store i32 %13, ptr %ehselector.slot, align 4
  %cleanup.is_active14 = load i1, ptr %cleanup.cond, align 1
  br i1 %cleanup.is_active14, label %cleanup.action15, label %cleanup.done16

cleanup.action15:                                 ; preds = %lpad11
  call void @_ZN4cvc58internal12NodeTemplateILb1EED2Ev(ptr noundef nonnull align 8 dereferenceable(8) %agg.tmp9) #3
  br label %cleanup.done16

cleanup.done16:                                   ; preds = %cleanup.action15, %lpad11
  br label %ehcleanup

ehcleanup:                                        ; preds = %cleanup.done16, %lpad4
  call void @_ZN4cvc58internal12NodeTemplateILb1EED2Ev(ptr noundef nonnull align 8 dereferenceable(8) %agg.tmp) #3
  br label %ehcleanup240

lpad21:                                           ; preds = %invoke.cont20
  %14 = landingpad { ptr, i32 }
          cleanup
  %15 = extractvalue { ptr, i32 } %14, 0
  store ptr %15, ptr %exn.slot, align 8
  %16 = extractvalue { ptr, i32 } %14, 1
  store i32 %16, ptr %ehselector.slot, align 4
  call void @_ZN4cvc58internal12NodeTemplateILb1EED2Ev(ptr noundef nonnull align 8 dereferenceable(8) %agg.tmp19) #3
  br label %ehcleanup240

if.end:                                           ; preds = %cleanup.done
  %call25 = invoke noundef zeroext i1 @_ZN4cvc58internal11__cvc5_truecvbEv(ptr noundef nonnull align 1 dereferenceable(1) %ref.tmp)
          to label %invoke.cont24 unwind label %lpad2

invoke.cont24:                                    ; preds = %if.end
  br i1 %call25, label %cond.true, label %cond.false

cond.true:                                        ; preds = %invoke.cont24
  invoke void @_ZNK4cvc58internal5NullCcvNS0_11Cvc5ostreamEEv(ptr sret(%"class.cvc5::internal::Cvc5ostream") align 8 %tmp, ptr noundef nonnull align 1 dereferenceable(1) @_ZN4cvc58internal10nullStreamE)
          to label %invoke.cont26 unwind label %lpad2

invoke.cont26:                                    ; preds = %cond.true
  br label %cond.end

cond.false:                                       ; preds = %invoke.cont24
  invoke void @_ZNK4cvc58internal6TraceCclEv(ptr sret(%"class.cvc5::internal::Cvc5ostream") align 8 %ref.tmp27, ptr noundef nonnull align 8 dereferenceable(32) @_ZN4cvc58internal12TraceChannelE)
          to label %invoke.cont28 unwind label %lpad2

invoke.cont28:                                    ; preds = %cond.false
  %call30 = invoke noundef nonnull align 8 dereferenceable(24) ptr @_ZN4cvc58internal11Cvc5ostreamlsIA13_cEERS1_RKT_(ptr noundef nonnull align 8 dereferenceable(24) %ref.tmp27, ptr noundef nonnull align 1 dereferenceable(13) @.str.14)
          to label %invoke.cont29 unwind label %lpad2

invoke.cont29:                                    ; preds = %invoke.cont28
  %call32 = invoke noundef nonnull align 8 dereferenceable(24) ptr @_ZN4cvc58internal11Cvc5ostreamlsINS0_12NodeTemplateILb1EEEEERS1_RKT_(ptr noundef nonnull align 8 dereferenceable(24) %call30, ptr noundef nonnull align 8 dereferenceable(8) %eq)
          to label %invoke.cont31 unwind label %lpad2

invoke.cont31:                                    ; preds = %invoke.cont29
  %call34 = invoke noundef nonnull align 8 dereferenceable(24) ptr @_ZN4cvc58internal11Cvc5ostreamlsEPFRSoS2_E(ptr noundef nonnull align 8 dereferenceable(24) %call32, ptr noundef @_ZSt4endlIcSt11char_traitsIcEERSt13basic_ostreamIT_T0_ES6_)
          to label %invoke.cont33 unwind label %lpad2

invoke.cont33:                                    ; preds = %invoke.cont31
  call void @llvm.memcpy.p0.p0.i64(ptr align 8 %agg.tmp.ensured, ptr align 8 %call34, i64 24, i1 false)
  br label %cond.end

cond.end:                                         ; preds = %invoke.cont33, %invoke.cont26
  %d_proving = getelementptr inbounds %"class.cvc5::internal::theory::TrustSubstitutionMap", ptr %this1, i32 0, i32 13
  store i1 false, ptr %cleanup.cond52, align 1
  store i1 false, ptr %cleanup.cond66, align 1
  %call37 = invoke ptr @_ZNSt13unordered_setIN4cvc58internal12NodeTemplateILb1EEESt4hashIS3_ESt8equal_toIS3_ESaIS3_EE4findERKS3_(ptr noundef nonnull align 8 dereferenceable(56) %d_proving, ptr noundef nonnull align 8 dereferenceable(8) %eq)
          to label %invoke.cont36 unwind label %lpad2

invoke.cont36:                                    ; preds = %cond.end
  %coerce.dive = getelementptr inbounds %"struct.std::__detail::_Node_iterator", ptr %ref.tmp35, i32 0, i32 0
  %coerce.dive38 = getelementptr inbounds %"struct.std::__detail::_Node_iterator_base", ptr %coerce.dive, i32 0, i32 0
  store ptr %call37, ptr %coerce.dive38, align 8
  %d_proving40 = getelementptr inbounds %"class.cvc5::internal::theory::TrustSubstitutionMap", ptr %this1, i32 0, i32 13
  %call41 = call ptr @_ZNSt13unordered_setIN4cvc58internal12NodeTemplateILb1EEESt4hashIS3_ESt8equal_toIS3_ESaIS3_EE3endEv(ptr noundef nonnull align 8 dereferenceable(56) %d_proving40) #3
  %coerce.dive42 = getelementptr inbounds %"struct.std::__detail::_Node_iterator", ptr %ref.tmp39, i32 0, i32 0
  %coerce.dive43 = getelementptr inbounds %"struct.std::__detail::_Node_iterator_base", ptr %coerce.dive42, i32 0, i32 0
  store ptr %call41, ptr %coerce.dive43, align 8
  %call44 = call noundef zeroext i1 @_ZNSt8__detaileqERKNS_19_Node_iterator_baseIN4cvc58internal12NodeTemplateILb1EEELb1EEES7_(ptr noundef nonnull align 8 dereferenceable(8) %ref.tmp35, ptr noundef nonnull align 8 dereferenceable(8) %ref.tmp39) #3
  %lnot = xor i1 %call44, true
  %lnot45 = xor i1 %lnot, true
  br i1 %lnot45, label %cond.true46, label %cond.false47

cond.true46:                                      ; preds = %invoke.cont36
  br label %cond.end71

cond.false47:                                     ; preds = %invoke.cont36
  invoke void @_ZN4cvc58internal13OstreamVoiderC2Ev(ptr noundef nonnull align 1 dereferenceable(1) %ref.tmp48)
          to label %invoke.cont49 unwind label %lpad2

invoke.cont49:                                    ; preds = %cond.false47
  invoke void @_ZN4cvc58internal11FatalStreamC1EPKcS3_i(ptr noundef nonnull align 1 dereferenceable(1) %ref.tmp50, ptr noundef @__PRETTY_FUNCTION__._ZN4cvc58internal6theory20TrustSubstitutionMap11getProofForENS0_12NodeTemplateILb1EEE, ptr noundef @.str.15, i32 noundef 198)
          to label %invoke.cont51 unwind label %lpad2

invoke.cont51:                                    ; preds = %invoke.cont49
  store i1 true, ptr %cleanup.cond52, align 1
  %call55 = invoke noundef nonnull align 8 dereferenceable(8) ptr @_ZN4cvc58internal11FatalStream6streamEv(ptr noundef nonnull align 1 dereferenceable(1) %ref.tmp50)
          to label %invoke.cont54 unwind label %lpad53

invoke.cont54:                                    ; preds = %invoke.cont51
  %call57 = invoke noundef nonnull align 8 dereferenceable(8) ptr @_ZStlsISt11char_traitsIcEERSt13basic_ostreamIcT_ES5_PKc(ptr noundef nonnull align 8 dereferenceable(8) %call55, ptr noundef @.str.16)
          to label %invoke.cont56 unwind label %lpad53

invoke.cont56:                                    ; preds = %invoke.cont54
  %call59 = invoke noundef nonnull align 8 dereferenceable(8) ptr @_ZStlsISt11char_traitsIcEERSt13basic_ostreamIcT_ES5_PKc(ptr noundef nonnull align 8 dereferenceable(8) %call57, ptr noundef @.str.17)
          to label %invoke.cont58 unwind label %lpad53

invoke.cont58:                                    ; preds = %invoke.cont56
  %call61 = invoke noundef nonnull align 8 dereferenceable(8) ptr @_ZStlsISt11char_traitsIcEERSt13basic_ostreamIcT_ES5_PKc(ptr noundef nonnull align 8 dereferenceable(8) %call59, ptr noundef @.str.18)
          to label %invoke.cont60 unwind label %lpad53

invoke.cont60:                                    ; preds = %invoke.cont58
  %call63 = invoke noundef nonnull align 8 dereferenceable(8) ptr @_ZStlsISt11char_traitsIcEERSt13basic_ostreamIcT_ES5_PKc(ptr noundef nonnull align 8 dereferenceable(8) %call61, ptr noundef @.str.19)
          to label %invoke.cont62 unwind label %lpad53

invoke.cont62:                                    ; preds = %invoke.cont60
  invoke void @_ZN4cvc58internal12NodeTemplateILb0EEC2ERKNS1_ILb1EEE(ptr noundef nonnull align 8 dereferenceable(8) %agg.tmp64, ptr noundef nonnull align 8 dereferenceable(8) %eq)
          to label %invoke.cont65 unwind label %lpad53

invoke.cont65:                                    ; preds = %invoke.cont62
  store i1 true, ptr %cleanup.cond66, align 1
  %call69 = invoke noundef nonnull align 8 dereferenceable(8) ptr @_ZN4cvc58internallsERSoNS0_12NodeTemplateILb0EEE(ptr noundef nonnull align 8 dereferenceable(8) %call63, ptr noundef %agg.tmp64)
          to label %invoke.cont68 unwind label %lpad67

invoke.cont68:                                    ; preds = %invoke.cont65
  invoke void @_ZN4cvc58internal13OstreamVoideranERSo(ptr noundef nonnull align 1 dereferenceable(1) %ref.tmp48, ptr noundef nonnull align 8 dereferenceable(8) %call69)
          to label %invoke.cont70 unwind label %lpad67

invoke.cont70:                                    ; preds = %invoke.cont68
  br label %cond.end71

cond.end71:                                       ; preds = %invoke.cont70, %cond.true46
  %cleanup.is_active72 = load i1, ptr %cleanup.cond66, align 1
  br i1 %cleanup.is_active72, label %cleanup.action73, label %cleanup.done74

cleanup.action73:                                 ; preds = %cond.end71
  call void @_ZN4cvc58internal12NodeTemplateILb0EED2Ev(ptr noundef nonnull align 8 dereferenceable(8) %agg.tmp64) #3
  br label %cleanup.done74

cleanup.done74:                                   ; preds = %cleanup.action73, %cond.end71
  %cleanup.is_active79 = load i1, ptr %cleanup.cond52, align 1
  br i1 %cleanup.is_active79, label %cleanup.action80, label %cleanup.done81

cleanup.action80:                                 ; preds = %cleanup.done74
  call void @_ZN4cvc58internal11FatalStreamD1Ev(ptr noundef nonnull align 1 dereferenceable(1) %ref.tmp50) #18
  unreachable

lpad53:                                           ; preds = %invoke.cont62, %invoke.cont60, %invoke.cont58, %invoke.cont56, %invoke.cont54, %invoke.cont51
  %17 = landingpad { ptr, i32 }
          cleanup
  %18 = extractvalue { ptr, i32 } %17, 0
  store ptr %18, ptr %exn.slot, align 8
  %19 = extractvalue { ptr, i32 } %17, 1
  store i32 %19, ptr %ehselector.slot, align 4
  br label %ehcleanup82

lpad67:                                           ; preds = %invoke.cont68, %invoke.cont65
  %20 = landingpad { ptr, i32 }
          cleanup
  %21 = extractvalue { ptr, i32 } %20, 0
  store ptr %21, ptr %exn.slot, align 8
  %22 = extractvalue { ptr, i32 } %20, 1
  store i32 %22, ptr %ehselector.slot, align 4
  %cleanup.is_active76 = load i1, ptr %cleanup.cond66, align 1
  br i1 %cleanup.is_active76, label %cleanup.action77, label %cleanup.done78

cleanup.action77:                                 ; preds = %lpad67
  call void @_ZN4cvc58internal12NodeTemplateILb0EED2Ev(ptr noundef nonnull align 8 dereferenceable(8) %agg.tmp64) #3
  br label %cleanup.done78

cleanup.done78:                                   ; preds = %cleanup.action77, %lpad67
  br label %ehcleanup82

23:                                               ; No predecessors!
  br label %cleanup.done81

cleanup.done81:                                   ; preds = %23, %cleanup.done74
  %d_proving86 = getelementptr inbounds %"class.cvc5::internal::theory::TrustSubstitutionMap", ptr %this1, i32 0, i32 13
  %call88 = invoke { ptr, i8 } @_ZNSt13unordered_setIN4cvc58internal12NodeTemplateILb1EEESt4hashIS3_ESt8equal_toIS3_ESaIS3_EE6insertERKS3_(ptr noundef nonnull align 8 dereferenceable(56) %d_proving86, ptr noundef nonnull align 8 dereferenceable(8) %eq)
          to label %invoke.cont87 unwind label %lpad2

invoke.cont87:                                    ; preds = %cleanup.done81
  %24 = getelementptr inbounds { ptr, i8 }, ptr %coerce, i32 0, i32 0
  %25 = extractvalue { ptr, i8 } %call88, 0
  store ptr %25, ptr %24, align 8
  %26 = getelementptr inbounds { ptr, i8 }, ptr %coerce, i32 0, i32 1
  %27 = extractvalue { ptr, i8 } %call88, 1
  store i8 %27, ptr %26, align 8
  %d_eqtIndex = getelementptr inbounds %"class.cvc5::internal::theory::TrustSubstitutionMap", ptr %this1, i32 0, i32 12
  invoke void @_ZNK4cvc57context9CDHashMapINS_8internal12NodeTemplateILb1EEEmSt4hashIS4_EE4findERKS4_(ptr sret(%"class.cvc5::context::CDHashMap<cvc5::internal::NodeTemplate<true>, unsigned long>::iterator") align 8 %it, ptr noundef nonnull align 8 dereferenceable(112) %d_eqtIndex, ptr noundef nonnull align 8 dereferenceable(8) %eq)
          to label %invoke.cont89 unwind label %lpad2

invoke.cont89:                                    ; preds = %invoke.cont87
  %call92 = invoke noundef zeroext i1 @_ZN4cvc58internal11__cvc5_truecvbEv(ptr noundef nonnull align 1 dereferenceable(1) %ref.tmp90)
          to label %invoke.cont91 unwind label %lpad2

invoke.cont91:                                    ; preds = %invoke.cont89
  br i1 %call92, label %cond.true93, label %cond.false96

cond.true93:                                      ; preds = %invoke.cont91
  invoke void @_ZNK4cvc58internal5NullCcvNS0_11Cvc5ostreamEEv(ptr sret(%"class.cvc5::internal::Cvc5ostream") align 8 %tmp94, ptr noundef nonnull align 1 dereferenceable(1) @_ZN4cvc58internal10nullStreamE)
          to label %invoke.cont95 unwind label %lpad2

invoke.cont95:                                    ; preds = %cond.true93
  br label %cond.end108

cond.false96:                                     ; preds = %invoke.cont91
  invoke void @_ZNK4cvc58internal6TraceCclEv(ptr sret(%"class.cvc5::internal::Cvc5ostream") align 8 %ref.tmp98, ptr noundef nonnull align 8 dereferenceable(32) @_ZN4cvc58internal12TraceChannelE)
          to label %invoke.cont99 unwind label %lpad2

invoke.cont99:                                    ; preds = %cond.false96
  %call101 = invoke noundef nonnull align 8 dereferenceable(24) ptr @_ZN4cvc58internal11Cvc5ostreamlsIA51_cEERS1_RKT_(ptr noundef nonnull align 8 dereferenceable(24) %ref.tmp98, ptr noundef nonnull align 1 dereferenceable(51) @.str.20)
          to label %invoke.cont100 unwind label %lpad2

invoke.cont100:                                   ; preds = %invoke.cont99
  %call103 = invoke noundef ptr @_ZNK4cvc57context9CDHashMapINS_8internal12NodeTemplateILb1EEEmSt4hashIS4_EE8iteratorptEv(ptr noundef nonnull align 8 dereferenceable(8) %it)
          to label %invoke.cont102 unwind label %lpad2

invoke.cont102:                                   ; preds = %invoke.cont100
  %second = getelementptr inbounds %"struct.std::pair", ptr %call103, i32 0, i32 1
  %call105 = invoke noundef nonnull align 8 dereferenceable(24) ptr @_ZN4cvc58internal11Cvc5ostreamlsImEERS1_RKT_(ptr noundef nonnull align 8 dereferenceable(24) %call101, ptr noundef nonnull align 8 dereferenceable(8) %second)
          to label %invoke.cont104 unwind label %lpad2

invoke.cont104:                                   ; preds = %invoke.cont102
  %call107 = invoke noundef nonnull align 8 dereferenceable(24) ptr @_ZN4cvc58internal11Cvc5ostreamlsEPFRSoS2_E(ptr noundef nonnull align 8 dereferenceable(24) %call105, ptr noundef @_ZSt4endlIcSt11char_traitsIcEERSt13basic_ostreamIT_T0_ES6_)
          to label %invoke.cont106 unwind label %lpad2

invoke.cont106:                                   ; preds = %invoke.cont104
  call void @llvm.memcpy.p0.p0.i64(ptr align 8 %agg.tmp.ensured97, ptr align 8 %call107, i64 24, i1 false)
  br label %cond.end108

cond.end108:                                      ; preds = %invoke.cont106, %invoke.cont95
  %call110 = invoke noundef ptr @_ZNK4cvc57context9CDHashMapINS_8internal12NodeTemplateILb1EEEmSt4hashIS4_EE8iteratorptEv(ptr noundef nonnull align 8 dereferenceable(8) %it)
          to label %invoke.cont109 unwind label %lpad2

invoke.cont109:                                   ; preds = %cond.end108
  %second111 = getelementptr inbounds %"struct.std::pair", ptr %call110, i32 0, i32 1
  %28 = load i64, ptr %second111, align 8
  invoke void @_ZN4cvc58internal6theory20TrustSubstitutionMap15getSubstitutionEm(ptr sret(%"class.cvc5::internal::NodeTemplate") align 8 %cs, ptr noundef nonnull align 8 dereferenceable(608) %this1, i64 noundef %28)
          to label %invoke.cont112 unwind label %lpad2

invoke.cont112:                                   ; preds = %invoke.cont109
  %call116 = invoke noundef zeroext i1 @_ZN4cvc58internal11__cvc5_truecvbEv(ptr noundef nonnull align 1 dereferenceable(1) %ref.tmp113)
          to label %invoke.cont115 unwind label %lpad114

invoke.cont115:                                   ; preds = %invoke.cont112
  br i1 %call116, label %cond.true117, label %cond.false120

cond.true117:                                     ; preds = %invoke.cont115
  invoke void @_ZNK4cvc58internal5NullCcvNS0_11Cvc5ostreamEEv(ptr sret(%"class.cvc5::internal::Cvc5ostream") align 8 %tmp118, ptr noundef nonnull align 1 dereferenceable(1) @_ZN4cvc58internal10nullStreamE)
          to label %invoke.cont119 unwind label %lpad114

invoke.cont119:                                   ; preds = %cond.true117
  br label %cond.end130

cond.false120:                                    ; preds = %invoke.cont115
  invoke void @_ZNK4cvc58internal6TraceCclEv(ptr sret(%"class.cvc5::internal::Cvc5ostream") align 8 %ref.tmp122, ptr noundef nonnull align 8 dereferenceable(32) @_ZN4cvc58internal12TraceChannelE)
          to label %invoke.cont123 unwind label %lpad114

invoke.cont123:                                   ; preds = %cond.false120
  %call125 = invoke noundef nonnull align 8 dereferenceable(24) ptr @_ZN4cvc58internal11Cvc5ostreamlsIA29_cEERS1_RKT_(ptr noundef nonnull align 8 dereferenceable(24) %ref.tmp122, ptr noundef nonnull align 1 dereferenceable(29) @.str.21)
          to label %invoke.cont124 unwind label %lpad114

invoke.cont124:                                   ; preds = %invoke.cont123
  %call127 = invoke noundef nonnull align 8 dereferenceable(24) ptr @_ZN4cvc58internal11Cvc5ostreamlsINS0_12NodeTemplateILb1EEEEERS1_RKT_(ptr noundef nonnull align 8 dereferenceable(24) %call125, ptr noundef nonnull align 8 dereferenceable(8) %cs)
          to label %invoke.cont126 unwind label %lpad114

invoke.cont126:                                   ; preds = %invoke.cont124
  %call129 = invoke noundef nonnull align 8 dereferenceable(24) ptr @_ZN4cvc58internal11Cvc5ostreamlsEPFRSoS2_E(ptr noundef nonnull align 8 dereferenceable(24) %call127, ptr noundef @_ZSt4endlIcSt11char_traitsIcEERSt13basic_ostreamIT_T0_ES6_)
          to label %invoke.cont128 unwind label %lpad114

invoke.cont128:                                   ; preds = %invoke.cont126
  call void @llvm.memcpy.p0.p0.i64(ptr align 8 %agg.tmp.ensured121, ptr align 8 %call129, i64 24, i1 false)
  br label %cond.end130

cond.end130:                                      ; preds = %invoke.cont128, %invoke.cont119
  call void @_ZNSt6vectorIN4cvc58internal12NodeTemplateILb1EEESaIS3_EEC2Ev(ptr noundef nonnull align 8 dereferenceable(24) %pfChildren) #3
  %call133 = invoke noundef zeroext i1 @_ZNK4cvc58internal12NodeTemplateILb1EE7isConstEv(ptr noundef nonnull align 8 dereferenceable(8) %cs)
          to label %invoke.cont132 unwind label %lpad131

invoke.cont132:                                   ; preds = %cond.end130
  br i1 %call133, label %if.end144, label %if.then134

if.then134:                                       ; preds = %invoke.cont132
  invoke void @_ZNSt6vectorIN4cvc58internal12NodeTemplateILb1EEESaIS3_EE9push_backERKS3_(ptr noundef nonnull align 8 dereferenceable(24) %pfChildren, ptr noundef nonnull align 8 dereferenceable(8) %cs)
          to label %invoke.cont135 unwind label %lpad131

invoke.cont135:                                   ; preds = %if.then134
  %d_applyPg = getelementptr inbounds %"class.cvc5::internal::theory::TrustSubstitutionMap", ptr %this1, i32 0, i32 7
  %call136 = call noundef ptr @_ZNKSt10unique_ptrIN4cvc58internal11LazyCDProofESt14default_deleteIS2_EEptEv(ptr noundef nonnull align 8 dereferenceable(8) %d_applyPg) #3
  invoke void @_ZN4cvc58internal12NodeTemplateILb1EEC2ERKS2_(ptr noundef nonnull align 8 dereferenceable(8) %agg.tmp137, ptr noundef nonnull align 8 dereferenceable(8) %cs)
          to label %invoke.cont138 unwind label %lpad131

invoke.cont138:                                   ; preds = %invoke.cont135
  %d_subsPg139 = getelementptr inbounds %"class.cvc5::internal::theory::TrustSubstitutionMap", ptr %this1, i32 0, i32 6
  %call140 = call noundef ptr @_ZNKSt10unique_ptrIN4cvc58internal11LazyCDProofESt14default_deleteIS2_EE3getEv(ptr noundef nonnull align 8 dereferenceable(8) %d_subsPg139) #3
  %29 = icmp eq ptr %call140, null
  br i1 %29, label %cast.end, label %cast.notnull

cast.notnull:                                     ; preds = %invoke.cont138
  %add.ptr = getelementptr inbounds i8, ptr %call140, i64 16
  br label %cast.end

cast.end:                                         ; preds = %cast.notnull, %invoke.cont138
  %cast.result = phi ptr [ %add.ptr, %cast.notnull ], [ null, %invoke.cont138 ]
  invoke void @_ZN4cvc58internal11LazyCDProof11addLazyStepENS0_12NodeTemplateILb1EEEPNS0_14ProofGeneratorENS0_7TrustIdEbPKcb(ptr noundef nonnull align 8 dereferenceable(408) %call136, ptr noundef %agg.tmp137, ptr noundef %cast.result, i32 noundef 0, i1 noundef zeroext false, ptr noundef @.str.5, i1 noundef zeroext false)
          to label %invoke.cont142 unwind label %lpad141

invoke.cont142:                                   ; preds = %cast.end
  call void @_ZN4cvc58internal12NodeTemplateILb1EED2Ev(ptr noundef nonnull align 8 dereferenceable(8) %agg.tmp137) #3
  br label %if.end144

ehcleanup82:                                      ; preds = %cleanup.done78, %lpad53
  %cleanup.is_active83 = load i1, ptr %cleanup.cond52, align 1
  br i1 %cleanup.is_active83, label %cleanup.action84, label %cleanup.done85

cleanup.action84:                                 ; preds = %ehcleanup82
  call void @_ZN4cvc58internal11FatalStreamD1Ev(ptr noundef nonnull align 1 dereferenceable(1) %ref.tmp50) #18
  unreachable

30:                                               ; No predecessors!
  br label %cleanup.done85

cleanup.done85:                                   ; preds = %30, %ehcleanup82
  br label %ehcleanup240

lpad114:                                          ; preds = %invoke.cont126, %invoke.cont124, %invoke.cont123, %cond.false120, %cond.true117, %invoke.cont112
  %31 = landingpad { ptr, i32 }
          cleanup
  %32 = extractvalue { ptr, i32 } %31, 0
  store ptr %32, ptr %exn.slot, align 8
  %33 = extractvalue { ptr, i32 } %31, 1
  store i32 %33, ptr %ehselector.slot, align 4
  br label %ehcleanup239

lpad131:                                          ; preds = %cond.end223, %invoke.cont219, %invoke.cont218, %cond.false215, %cond.true212, %invoke.cont208, %invoke.cont204, %cond.end199, %invoke.cont195, %invoke.cont194, %cond.false191, %cond.true188, %if.end184, %cond.end159, %invoke.cont155, %invoke.cont154, %cond.false151, %cond.true148, %if.end144, %invoke.cont135, %if.then134, %cond.end130
  %34 = landingpad { ptr, i32 }
          cleanup
  %35 = extractvalue { ptr, i32 } %34, 0
  store ptr %35, ptr %exn.slot, align 8
  %36 = extractvalue { ptr, i32 } %34, 1
  store i32 %36, ptr %ehselector.slot, align 4
  br label %ehcleanup238

lpad141:                                          ; preds = %cast.end
  %37 = landingpad { ptr, i32 }
          cleanup
  %38 = extractvalue { ptr, i32 } %37, 0
  store ptr %38, ptr %exn.slot, align 8
  %39 = extractvalue { ptr, i32 } %37, 1
  store i32 %39, ptr %ehselector.slot, align 4
  call void @_ZN4cvc58internal12NodeTemplateILb1EED2Ev(ptr noundef nonnull align 8 dereferenceable(8) %agg.tmp137) #3
  br label %ehcleanup238

if.end144:                                        ; preds = %invoke.cont142, %invoke.cont132
  %call147 = invoke noundef zeroext i1 @_ZN4cvc58internal11__cvc5_truecvbEv(ptr noundef nonnull align 1 dereferenceable(1) %ref.tmp145)
          to label %invoke.cont146 unwind label %lpad131

invoke.cont146:                                   ; preds = %if.end144
  br i1 %call147, label %cond.true148, label %cond.false151

cond.true148:                                     ; preds = %invoke.cont146
  invoke void @_ZNK4cvc58internal5NullCcvNS0_11Cvc5ostreamEEv(ptr sret(%"class.cvc5::internal::Cvc5ostream") align 8 %tmp149, ptr noundef nonnull align 1 dereferenceable(1) @_ZN4cvc58internal10nullStreamE)
          to label %invoke.cont150 unwind label %lpad131

invoke.cont150:                                   ; preds = %cond.true148
  br label %cond.end159

cond.false151:                                    ; preds = %invoke.cont146
  invoke void @_ZNK4cvc58internal6TraceCclEv(ptr sret(%"class.cvc5::internal::Cvc5ostream") align 8 %ref.tmp153, ptr noundef nonnull align 8 dereferenceable(32) @_ZN4cvc58internal12TraceChannelE)
          to label %invoke.cont154 unwind label %lpad131

invoke.cont154:                                   ; preds = %cond.false151
  %call156 = invoke noundef nonnull align 8 dereferenceable(24) ptr @_ZN4cvc58internal11Cvc5ostreamlsIA18_cEERS1_RKT_(ptr noundef nonnull align 8 dereferenceable(24) %ref.tmp153, ptr noundef nonnull align 1 dereferenceable(18) @.str.22)
          to label %invoke.cont155 unwind label %lpad131

invoke.cont155:                                   ; preds = %invoke.cont154
  %call158 = invoke noundef nonnull align 8 dereferenceable(24) ptr @_ZN4cvc58internal11Cvc5ostreamlsEPFRSoS2_E(ptr noundef nonnull align 8 dereferenceable(24) %call156, ptr noundef @_ZSt4endlIcSt11char_traitsIcEERSt13basic_ostreamIT_T0_ES6_)
          to label %invoke.cont157 unwind label %lpad131

invoke.cont157:                                   ; preds = %invoke.cont155
  call void @llvm.memcpy.p0.p0.i64(ptr align 8 %agg.tmp.ensured152, ptr align 8 %call158, i64 24, i1 false)
  br label %cond.end159

cond.end159:                                      ; preds = %invoke.cont157, %invoke.cont150
  %d_tspb = getelementptr inbounds %"class.cvc5::internal::theory::TrustSubstitutionMap", ptr %this1, i32 0, i32 5
  %call160 = call noundef ptr @_ZNKSt10unique_ptrIN4cvc58internal21TheoryProofStepBufferESt14default_deleteIS2_EEptEv(ptr noundef nonnull align 8 dereferenceable(8) %d_tspb) #3
  invoke void @_ZN4cvc58internal12NodeTemplateILb1EEC2ERKS2_(ptr noundef nonnull align 8 dereferenceable(8) %agg.tmp161, ptr noundef nonnull align 8 dereferenceable(8) %n)
          to label %invoke.cont162 unwind label %lpad131

invoke.cont162:                                   ; preds = %cond.end159
  invoke void @_ZN4cvc58internal12NodeTemplateILb1EEC2ERKS2_(ptr noundef nonnull align 8 dereferenceable(8) %agg.tmp163, ptr noundef nonnull align 8 dereferenceable(8) %ns)
          to label %invoke.cont165 unwind label %lpad164

invoke.cont165:                                   ; preds = %invoke.cont162
  %d_ids = getelementptr inbounds %"class.cvc5::internal::theory::TrustSubstitutionMap", ptr %this1, i32 0, i32 11
  %40 = load i32, ptr %d_ids, align 4
  %call168 = invoke noundef zeroext i1 @_ZN4cvc58internal21TheoryProofStepBuffer12applyEqIntroENS0_12NodeTemplateILb1EEES3_RKSt6vectorIS3_SaIS3_EENS0_8MethodIdES9_S9_b(ptr noundef nonnull align 8 dereferenceable(104) %call160, ptr noundef %agg.tmp161, ptr noundef %agg.tmp163, ptr noundef nonnull align 8 dereferenceable(24) %pfChildren, i32 noundef %40, i32 noundef 12, i32 noundef 0, i1 noundef zeroext true)
          to label %invoke.cont167 unwind label %lpad166

invoke.cont167:                                   ; preds = %invoke.cont165
  %lnot169 = xor i1 %call168, true
  call void @_ZN4cvc58internal12NodeTemplateILb1EED2Ev(ptr noundef nonnull align 8 dereferenceable(8) %agg.tmp163) #3
  call void @_ZN4cvc58internal12NodeTemplateILb1EED2Ev(ptr noundef nonnull align 8 dereferenceable(8) %agg.tmp161) #3
  br i1 %lnot169, label %if.then172, label %if.end184

if.then172:                                       ; preds = %invoke.cont167
  %d_tspb173 = getelementptr inbounds %"class.cvc5::internal::theory::TrustSubstitutionMap", ptr %this1, i32 0, i32 5
  %call174 = call noundef ptr @_ZNKSt10unique_ptrIN4cvc58internal21TheoryProofStepBufferESt14default_deleteIS2_EEptEv(ptr noundef nonnull align 8 dereferenceable(8) %d_tspb173) #3
  call void @llvm.memset.p0.i64(ptr align 8 %ref.tmp175, i8 0, i64 24, i1 false)
  call void @_ZNSt6vectorIN4cvc58internal12NodeTemplateILb1EEESaIS3_EEC2Ev(ptr noundef nonnull align 8 dereferenceable(24) %ref.tmp175) #3
  invoke void @_ZN4cvc58internal12NodeTemplateILb1EEC2ERKS2_(ptr noundef nonnull align 8 dereferenceable(8) %agg.tmp176, ptr noundef nonnull align 8 dereferenceable(8) %eq)
          to label %invoke.cont178 unwind label %lpad177

invoke.cont178:                                   ; preds = %if.then172
  %call181 = invoke noundef zeroext i1 @_ZN4cvc58internal15ProofStepBuffer14addTrustedStepENS0_7TrustIdERKSt6vectorINS0_12NodeTemplateILb1EEESaIS5_EES9_S5_(ptr noundef nonnull align 8 dereferenceable(104) %call174, i32 noundef 12, ptr noundef nonnull align 8 dereferenceable(24) %pfChildren, ptr noundef nonnull align 8 dereferenceable(24) %ref.tmp175, ptr noundef %agg.tmp176)
          to label %invoke.cont180 unwind label %lpad179

invoke.cont180:                                   ; preds = %invoke.cont178
  call void @_ZN4cvc58internal12NodeTemplateILb1EED2Ev(ptr noundef nonnull align 8 dereferenceable(8) %agg.tmp176) #3
  call void @_ZNSt6vectorIN4cvc58internal12NodeTemplateILb1EEESaIS3_EED2Ev(ptr noundef nonnull align 8 dereferenceable(24) %ref.tmp175) #3
  br label %if.end184

lpad164:                                          ; preds = %invoke.cont162
  %41 = landingpad { ptr, i32 }
          cleanup
  %42 = extractvalue { ptr, i32 } %41, 0
  store ptr %42, ptr %exn.slot, align 8
  %43 = extractvalue { ptr, i32 } %41, 1
  store i32 %43, ptr %ehselector.slot, align 4
  br label %ehcleanup171

lpad166:                                          ; preds = %invoke.cont165
  %44 = landingpad { ptr, i32 }
          cleanup
  %45 = extractvalue { ptr, i32 } %44, 0
  store ptr %45, ptr %exn.slot, align 8
  %46 = extractvalue { ptr, i32 } %44, 1
  store i32 %46, ptr %ehselector.slot, align 4
  call void @_ZN4cvc58internal12NodeTemplateILb1EED2Ev(ptr noundef nonnull align 8 dereferenceable(8) %agg.tmp163) #3
  br label %ehcleanup171

ehcleanup171:                                     ; preds = %lpad166, %lpad164
  call void @_ZN4cvc58internal12NodeTemplateILb1EED2Ev(ptr noundef nonnull align 8 dereferenceable(8) %agg.tmp161) #3
  br label %ehcleanup238

lpad177:                                          ; preds = %if.then172
  %47 = landingpad { ptr, i32 }
          cleanup
  %48 = extractvalue { ptr, i32 } %47, 0
  store ptr %48, ptr %exn.slot, align 8
  %49 = extractvalue { ptr, i32 } %47, 1
  store i32 %49, ptr %ehselector.slot, align 4
  br label %ehcleanup183

lpad179:                                          ; preds = %invoke.cont178
  %50 = landingpad { ptr, i32 }
          cleanup
  %51 = extractvalue { ptr, i32 } %50, 0
  store ptr %51, ptr %exn.slot, align 8
  %52 = extractvalue { ptr, i32 } %50, 1
  store i32 %52, ptr %ehselector.slot, align 4
  call void @_ZN4cvc58internal12NodeTemplateILb1EED2Ev(ptr noundef nonnull align 8 dereferenceable(8) %agg.tmp176) #3
  br label %ehcleanup183

ehcleanup183:                                     ; preds = %lpad179, %lpad177
  call void @_ZNSt6vectorIN4cvc58internal12NodeTemplateILb1EEESaIS3_EED2Ev(ptr noundef nonnull align 8 dereferenceable(24) %ref.tmp175) #3
  br label %ehcleanup238

if.end184:                                        ; preds = %invoke.cont180, %invoke.cont167
  %call187 = invoke noundef zeroext i1 @_ZN4cvc58internal11__cvc5_truecvbEv(ptr noundef nonnull align 1 dereferenceable(1) %ref.tmp185)
          to label %invoke.cont186 unwind label %lpad131

invoke.cont186:                                   ; preds = %if.end184
  br i1 %call187, label %cond.true188, label %cond.false191

cond.true188:                                     ; preds = %invoke.cont186
  invoke void @_ZNK4cvc58internal5NullCcvNS0_11Cvc5ostreamEEv(ptr sret(%"class.cvc5::internal::Cvc5ostream") align 8 %tmp189, ptr noundef nonnull align 1 dereferenceable(1) @_ZN4cvc58internal10nullStreamE)
          to label %invoke.cont190 unwind label %lpad131

invoke.cont190:                                   ; preds = %cond.true188
  br label %cond.end199

cond.false191:                                    ; preds = %invoke.cont186
  invoke void @_ZNK4cvc58internal6TraceCclEv(ptr sret(%"class.cvc5::internal::Cvc5ostream") align 8 %ref.tmp193, ptr noundef nonnull align 8 dereferenceable(32) @_ZN4cvc58internal12TraceChannelE)
          to label %invoke.cont194 unwind label %lpad131

invoke.cont194:                                   ; preds = %cond.false191
  %call196 = invoke noundef nonnull align 8 dereferenceable(24) ptr @_ZN4cvc58internal11Cvc5ostreamlsIA14_cEERS1_RKT_(ptr noundef nonnull align 8 dereferenceable(24) %ref.tmp193, ptr noundef nonnull align 1 dereferenceable(14) @.str.23)
          to label %invoke.cont195 unwind label %lpad131

invoke.cont195:                                   ; preds = %invoke.cont194
  %call198 = invoke noundef nonnull align 8 dereferenceable(24) ptr @_ZN4cvc58internal11Cvc5ostreamlsEPFRSoS2_E(ptr noundef nonnull align 8 dereferenceable(24) %call196, ptr noundef @_ZSt4endlIcSt11char_traitsIcEERSt13basic_ostreamIT_T0_ES6_)
          to label %invoke.cont197 unwind label %lpad131

invoke.cont197:                                   ; preds = %invoke.cont195
  call void @llvm.memcpy.p0.p0.i64(ptr align 8 %agg.tmp.ensured192, ptr align 8 %call198, i64 24, i1 false)
  br label %cond.end199

cond.end199:                                      ; preds = %invoke.cont197, %invoke.cont190
  %d_applyPg200 = getelementptr inbounds %"class.cvc5::internal::theory::TrustSubstitutionMap", ptr %this1, i32 0, i32 7
  %call201 = call noundef ptr @_ZNKSt10unique_ptrIN4cvc58internal11LazyCDProofESt14default_deleteIS2_EEptEv(ptr noundef nonnull align 8 dereferenceable(8) %d_applyPg200) #3
  %d_tspb202 = getelementptr inbounds %"class.cvc5::internal::theory::TrustSubstitutionMap", ptr %this1, i32 0, i32 5
  %call203 = call noundef ptr @_ZNKSt10unique_ptrIN4cvc58internal21TheoryProofStepBufferESt14default_deleteIS2_EE3getEv(ptr noundef nonnull align 8 dereferenceable(8) %d_tspb202) #3
  %call205 = invoke noundef zeroext i1 @_ZN4cvc58internal7CDProof8addStepsERKNS0_15ProofStepBufferEbNS0_12CDPOverwriteE(ptr noundef nonnull align 8 dereferenceable(217) %call201, ptr noundef nonnull align 8 dereferenceable(104) %call203, i1 noundef zeroext false, i32 noundef 1)
          to label %invoke.cont204 unwind label %lpad131

invoke.cont204:                                   ; preds = %cond.end199
  %d_tspb206 = getelementptr inbounds %"class.cvc5::internal::theory::TrustSubstitutionMap", ptr %this1, i32 0, i32 5
  %call207 = call noundef ptr @_ZNKSt10unique_ptrIN4cvc58internal21TheoryProofStepBufferESt14default_deleteIS2_EEptEv(ptr noundef nonnull align 8 dereferenceable(8) %d_tspb206) #3
  invoke void @_ZN4cvc58internal15ProofStepBuffer5clearEv(ptr noundef nonnull align 8 dereferenceable(104) %call207)
          to label %invoke.cont208 unwind label %lpad131

invoke.cont208:                                   ; preds = %invoke.cont204
  %call211 = invoke noundef zeroext i1 @_ZN4cvc58internal11__cvc5_truecvbEv(ptr noundef nonnull align 1 dereferenceable(1) %ref.tmp209)
          to label %invoke.cont210 unwind label %lpad131

invoke.cont210:                                   ; preds = %invoke.cont208
  br i1 %call211, label %cond.true212, label %cond.false215

cond.true212:                                     ; preds = %invoke.cont210
  invoke void @_ZNK4cvc58internal5NullCcvNS0_11Cvc5ostreamEEv(ptr sret(%"class.cvc5::internal::Cvc5ostream") align 8 %tmp213, ptr noundef nonnull align 1 dereferenceable(1) @_ZN4cvc58internal10nullStreamE)
          to label %invoke.cont214 unwind label %lpad131

invoke.cont214:                                   ; preds = %cond.true212
  br label %cond.end223

cond.false215:                                    ; preds = %invoke.cont210
  invoke void @_ZNK4cvc58internal6TraceCclEv(ptr sret(%"class.cvc5::internal::Cvc5ostream") align 8 %ref.tmp217, ptr noundef nonnull align 8 dereferenceable(32) @_ZN4cvc58internal12TraceChannelE)
          to label %invoke.cont218 unwind label %lpad131

invoke.cont218:                                   ; preds = %cond.false215
  %call220 = invoke noundef nonnull align 8 dereferenceable(24) ptr @_ZN4cvc58internal11Cvc5ostreamlsIA22_cEERS1_RKT_(ptr noundef nonnull align 8 dereferenceable(24) %ref.tmp217, ptr noundef nonnull align 1 dereferenceable(22) @.str.24)
          to label %invoke.cont219 unwind label %lpad131

invoke.cont219:                                   ; preds = %invoke.cont218
  %call222 = invoke noundef nonnull align 8 dereferenceable(24) ptr @_ZN4cvc58internal11Cvc5ostreamlsEPFRSoS2_E(ptr noundef nonnull align 8 dereferenceable(24) %call220, ptr noundef @_ZSt4endlIcSt11char_traitsIcEERSt13basic_ostreamIT_T0_ES6_)
          to label %invoke.cont221 unwind label %lpad131

invoke.cont221:                                   ; preds = %invoke.cont219
  call void @llvm.memcpy.p0.p0.i64(ptr align 8 %agg.tmp.ensured216, ptr align 8 %call222, i64 24, i1 false)
  br label %cond.end223

cond.end223:                                      ; preds = %invoke.cont221, %invoke.cont214
  store i1 false, ptr %nrvo, align 1
  %d_applyPg224 = getelementptr inbounds %"class.cvc5::internal::theory::TrustSubstitutionMap", ptr %this1, i32 0, i32 7
  %call225 = call noundef ptr @_ZNKSt10unique_ptrIN4cvc58internal11LazyCDProofESt14default_deleteIS2_EEptEv(ptr noundef nonnull align 8 dereferenceable(8) %d_applyPg224) #3
  invoke void @_ZN4cvc58internal12NodeTemplateILb1EEC2ERKS2_(ptr noundef nonnull align 8 dereferenceable(8) %agg.tmp226, ptr noundef nonnull align 8 dereferenceable(8) %eq)
          to label %invoke.cont227 unwind label %lpad131

invoke.cont227:                                   ; preds = %cond.end223
  %vtable228 = load ptr, ptr %call225, align 8
  %vfn229 = getelementptr inbounds ptr, ptr %vtable228, i64 2
  %53 = load ptr, ptr %vfn229, align 8
  invoke void %53(ptr sret(%"class.std::shared_ptr") align 8 %agg.result, ptr noundef nonnull align 8 dereferenceable(408) %call225, ptr noundef %agg.tmp226)
          to label %invoke.cont231 unwind label %lpad230

invoke.cont231:                                   ; preds = %invoke.cont227
  call void @_ZN4cvc58internal12NodeTemplateILb1EED2Ev(ptr noundef nonnull align 8 dereferenceable(8) %agg.tmp226) #3
  %d_proving233 = getelementptr inbounds %"class.cvc5::internal::theory::TrustSubstitutionMap", ptr %this1, i32 0, i32 13
  %call236 = invoke noundef i64 @_ZNSt13unordered_setIN4cvc58internal12NodeTemplateILb1EEESt4hashIS3_ESt8equal_toIS3_ESaIS3_EE5eraseERKS3_(ptr noundef nonnull align 8 dereferenceable(56) %d_proving233, ptr noundef nonnull align 8 dereferenceable(8) %eq)
          to label %invoke.cont235 unwind label %lpad234

invoke.cont235:                                   ; preds = %invoke.cont231
  store i1 true, ptr %nrvo, align 1
  store i32 1, ptr %cleanup.dest.slot, align 4
  %nrvo.val = load i1, ptr %nrvo, align 1
  br i1 %nrvo.val, label %nrvo.skipdtor, label %nrvo.unused

lpad230:                                          ; preds = %invoke.cont227
  %54 = landingpad { ptr, i32 }
          cleanup
  %55 = extractvalue { ptr, i32 } %54, 0
  store ptr %55, ptr %exn.slot, align 8
  %56 = extractvalue { ptr, i32 } %54, 1
  store i32 %56, ptr %ehselector.slot, align 4
  call void @_ZN4cvc58internal12NodeTemplateILb1EED2Ev(ptr noundef nonnull align 8 dereferenceable(8) %agg.tmp226) #3
  br label %ehcleanup238

lpad234:                                          ; preds = %invoke.cont231
  %57 = landingpad { ptr, i32 }
          cleanup
  %58 = extractvalue { ptr, i32 } %57, 0
  store ptr %58, ptr %exn.slot, align 8
  %59 = extractvalue { ptr, i32 } %57, 1
  store i32 %59, ptr %ehselector.slot, align 4
  call void @_ZNSt10shared_ptrIN4cvc58internal9ProofNodeEED2Ev(ptr noundef nonnull align 8 dereferenceable(16) %agg.result) #3
  br label %ehcleanup238

nrvo.unused:                                      ; preds = %invoke.cont235
  call void @_ZNSt10shared_ptrIN4cvc58internal9ProofNodeEED2Ev(ptr noundef nonnull align 8 dereferenceable(16) %agg.result) #3
  br label %nrvo.skipdtor

nrvo.skipdtor:                                    ; preds = %nrvo.unused, %invoke.cont235
  call void @_ZNSt6vectorIN4cvc58internal12NodeTemplateILb1EEESaIS3_EED2Ev(ptr noundef nonnull align 8 dereferenceable(24) %pfChildren) #3
  call void @_ZN4cvc58internal12NodeTemplateILb1EED2Ev(ptr noundef nonnull align 8 dereferenceable(8) %cs) #3
  br label %cleanup

ehcleanup238:                                     ; preds = %lpad234, %lpad230, %ehcleanup183, %ehcleanup171, %lpad141, %lpad131
  call void @_ZNSt6vectorIN4cvc58internal12NodeTemplateILb1EEESaIS3_EED2Ev(ptr noundef nonnull align 8 dereferenceable(24) %pfChildren) #3
  br label %ehcleanup239

ehcleanup239:                                     ; preds = %ehcleanup238, %lpad114
  call void @_ZN4cvc58internal12NodeTemplateILb1EED2Ev(ptr noundef nonnull align 8 dereferenceable(8) %cs) #3
  br label %ehcleanup240

cleanup:                                          ; preds = %nrvo.skipdtor, %invoke.cont22
  call void @_ZN4cvc58internal12NodeTemplateILb1EED2Ev(ptr noundef nonnull align 8 dereferenceable(8) %ns) #3
  call void @_ZN4cvc58internal12NodeTemplateILb1EED2Ev(ptr noundef nonnull align 8 dereferenceable(8) %n) #3
  ret void

ehcleanup240:                                     ; preds = %ehcleanup239, %cleanup.done85, %lpad21, %ehcleanup, %lpad2
  call void @_ZN4cvc58internal12NodeTemplateILb1EED2Ev(ptr noundef nonnull align 8 dereferenceable(8) %ns) #3
  br label %ehcleanup242

ehcleanup242:                                     ; preds = %ehcleanup240, %lpad
  call void @_ZN4cvc58internal12NodeTemplateILb1EED2Ev(ptr noundef nonnull align 8 dereferenceable(8) %n) #3
  br label %eh.resume

eh.resume:                                        ; preds = %ehcleanup242
  %exn = load ptr, ptr %exn.slot, align 8
  %sel = load i32, ptr %ehselector.slot, align 4
  %lpad.val = insertvalue { ptr, i32 } poison, ptr %exn, 0
  %lpad.val243 = insertvalue { ptr, i32 } %lpad.val, i32 %sel, 1
  resume { ptr, i32 } %lpad.val243
}

declare noundef zeroext i1 @_ZN4cvc58internal7CDProof7hasStepENS0_12NodeTemplateILb1EEE(ptr noundef nonnull align 8 dereferenceable(217), ptr noundef) #1

declare noundef zeroext i1 @_ZNK4cvc58internal11LazyCDProof12hasGeneratorENS0_12NodeTemplateILb1EEE(ptr noundef nonnull align 8 dereferenceable(408), ptr noundef) #1

; Function Attrs: mustprogress uwtable
define linkonce_odr hidden noundef nonnull align 8 dereferenceable(24) ptr @_ZN4cvc58internal11Cvc5ostreamlsIA13_cEERS1_RKT_(ptr noundef nonnull align 8 dereferenceable(24) %this, ptr noundef nonnull align 1 dereferenceable(13) %t) #4 comdat align 2 {
entry:
  %this.addr = alloca ptr, align 8
  %t.addr = alloca ptr, align 8
  %indent = alloca i64, align 8
  %i = alloca i64, align 8
  store ptr %this, ptr %this.addr, align 8
  store ptr %t, ptr %t.addr, align 8
  %this1 = load ptr, ptr %this.addr, align 8
  %d_os = getelementptr inbounds %"class.cvc5::internal::Cvc5ostream", ptr %this1, i32 0, i32 0
  %0 = load ptr, ptr %d_os, align 8
  %cmp = icmp ne ptr %0, null
  br i1 %cmp, label %if.then, label %if.end11

if.then:                                          ; preds = %entry
  %d_firstColumn = getelementptr inbounds %"class.cvc5::internal::Cvc5ostream", ptr %this1, i32 0, i32 1
  %1 = load i8, ptr %d_firstColumn, align 8
  %tobool = trunc i8 %1 to i1
  br i1 %tobool, label %if.then2, label %if.end

if.then2:                                         ; preds = %if.then
  %d_firstColumn3 = getelementptr inbounds %"class.cvc5::internal::Cvc5ostream", ptr %this1, i32 0, i32 1
  store i8 0, ptr %d_firstColumn3, align 8
  %d_os4 = getelementptr inbounds %"class.cvc5::internal::Cvc5ostream", ptr %this1, i32 0, i32 0
  %2 = load ptr, ptr %d_os4, align 8
  %vtable = load ptr, ptr %2, align 8
  %vbase.offset.ptr = getelementptr i8, ptr %vtable, i64 -24
  %vbase.offset = load i64, ptr %vbase.offset.ptr, align 8
  %add.ptr = getelementptr inbounds i8, ptr %2, i64 %vbase.offset
  %3 = load i32, ptr @_ZN4cvc58internal11Cvc5ostream16s_indentIosIndexE, align 4
  %call = call noundef nonnull align 8 dereferenceable(8) ptr @_ZNSt8ios_base5iwordEi(ptr noundef nonnull align 8 dereferenceable(216) %add.ptr, i32 noundef %3)
  %4 = load i64, ptr %call, align 8
  store i64 %4, ptr %indent, align 8
  store i64 0, ptr %i, align 8
  br label %for.cond

for.cond:                                         ; preds = %for.inc, %if.then2
  %5 = load i64, ptr %i, align 8
  %6 = load i64, ptr %indent, align 8
  %cmp5 = icmp slt i64 %5, %6
  br i1 %cmp5, label %for.body, label %for.end

for.body:                                         ; preds = %for.cond
  %d_os6 = getelementptr inbounds %"class.cvc5::internal::Cvc5ostream", ptr %this1, i32 0, i32 0
  %7 = load ptr, ptr %d_os6, align 8
  %call7 = call noundef nonnull align 8 dereferenceable(8) ptr @_ZStlsIcSt11char_traitsIcESaIcEERSt13basic_ostreamIT_T0_ES7_RKNSt7__cxx1112basic_stringIS4_S5_T1_EE(ptr noundef nonnull align 8 dereferenceable(8) %7, ptr noundef nonnull align 8 dereferenceable(32) @_ZN4cvc58internal11Cvc5ostream5s_tabB5cxx11E)
  %d_os8 = getelementptr inbounds %"class.cvc5::internal::Cvc5ostream", ptr %this1, i32 0, i32 0
  store ptr %call7, ptr %d_os8, align 8
  br label %for.inc

for.inc:                                          ; preds = %for.body
  %8 = load i64, ptr %i, align 8
  %inc = add nsw i64 %8, 1
  store i64 %inc, ptr %i, align 8
  br label %for.cond, !llvm.loop !16

for.end:                                          ; preds = %for.cond
  br label %if.end

if.end:                                           ; preds = %for.end, %if.then
  %d_os9 = getelementptr inbounds %"class.cvc5::internal::Cvc5ostream", ptr %this1, i32 0, i32 0
  %9 = load ptr, ptr %d_os9, align 8
  %10 = load ptr, ptr %t.addr, align 8
  %arraydecay = getelementptr inbounds [13 x i8], ptr %10, i64 0, i64 0
  %call10 = call noundef nonnull align 8 dereferenceable(8) ptr @_ZStlsISt11char_traitsIcEERSt13basic_ostreamIcT_ES5_PKc(ptr noundef nonnull align 8 dereferenceable(8) %9, ptr noundef %arraydecay)
  br label %if.end11

if.end11:                                         ; preds = %if.end, %entry
  ret ptr %this1
}

; Function Attrs: mustprogress nounwind uwtable
define linkonce_odr noundef zeroext i1 @_ZNSt8__detaileqERKNS_19_Node_iterator_baseIN4cvc58internal12NodeTemplateILb1EEELb1EEES7_(ptr noundef nonnull align 8 dereferenceable(8) %__x, ptr noundef nonnull align 8 dereferenceable(8) %__y) #5 comdat {
entry:
  %__x.addr = alloca ptr, align 8
  %__y.addr = alloca ptr, align 8
  store ptr %__x, ptr %__x.addr, align 8
  store ptr %__y, ptr %__y.addr, align 8
  %0 = load ptr, ptr %__x.addr, align 8
  %_M_cur = getelementptr inbounds %"struct.std::__detail::_Node_iterator_base", ptr %0, i32 0, i32 0
  %1 = load ptr, ptr %_M_cur, align 8
  %2 = load ptr, ptr %__y.addr, align 8
  %_M_cur1 = getelementptr inbounds %"struct.std::__detail::_Node_iterator_base", ptr %2, i32 0, i32 0
  %3 = load ptr, ptr %_M_cur1, align 8
  %cmp = icmp eq ptr %1, %3
  ret i1 %cmp
}

; Function Attrs: mustprogress uwtable
define linkonce_odr hidden ptr @_ZNSt13unordered_setIN4cvc58internal12NodeTemplateILb1EEESt4hashIS3_ESt8equal_toIS3_ESaIS3_EE4findERKS3_(ptr noundef nonnull align 8 dereferenceable(56) %this, ptr noundef nonnull align 8 dereferenceable(8) %__x) #4 comdat align 2 {
entry:
  %retval = alloca %"struct.std::__detail::_Node_iterator", align 8
  %this.addr = alloca ptr, align 8
  %__x.addr = alloca ptr, align 8
  store ptr %this, ptr %this.addr, align 8
  store ptr %__x, ptr %__x.addr, align 8
  %this1 = load ptr, ptr %this.addr, align 8
  %_M_h = getelementptr inbounds %"class.std::unordered_set", ptr %this1, i32 0, i32 0
  %0 = load ptr, ptr %__x.addr, align 8
  %call = call ptr @_ZNSt10_HashtableIN4cvc58internal12NodeTemplateILb1EEES3_SaIS3_ENSt8__detail9_IdentityESt8equal_toIS3_ESt4hashIS3_ENS5_18_Mod_range_hashingENS5_20_Default_ranged_hashENS5_20_Prime_rehash_policyENS5_17_Hashtable_traitsILb1ELb1ELb1EEEE4findERKS3_(ptr noundef nonnull align 8 dereferenceable(56) %_M_h, ptr noundef nonnull align 8 dereferenceable(8) %0)
  %coerce.dive = getelementptr inbounds %"struct.std::__detail::_Node_iterator", ptr %retval, i32 0, i32 0
  %coerce.dive2 = getelementptr inbounds %"struct.std::__detail::_Node_iterator_base", ptr %coerce.dive, i32 0, i32 0
  store ptr %call, ptr %coerce.dive2, align 8
  %coerce.dive3 = getelementptr inbounds %"struct.std::__detail::_Node_iterator", ptr %retval, i32 0, i32 0
  %coerce.dive4 = getelementptr inbounds %"struct.std::__detail::_Node_iterator_base", ptr %coerce.dive3, i32 0, i32 0
  %1 = load ptr, ptr %coerce.dive4, align 8
  ret ptr %1
}

; Function Attrs: mustprogress nounwind uwtable
define linkonce_odr hidden ptr @_ZNSt13unordered_setIN4cvc58internal12NodeTemplateILb1EEESt4hashIS3_ESt8equal_toIS3_ESaIS3_EE3endEv(ptr noundef nonnull align 8 dereferenceable(56) %this) #5 comdat align 2 {
entry:
  %retval = alloca %"struct.std::__detail::_Node_iterator", align 8
  %this.addr = alloca ptr, align 8
  store ptr %this, ptr %this.addr, align 8
  %this1 = load ptr, ptr %this.addr, align 8
  %_M_h = getelementptr inbounds %"class.std::unordered_set", ptr %this1, i32 0, i32 0
  %call = call ptr @_ZNSt10_HashtableIN4cvc58internal12NodeTemplateILb1EEES3_SaIS3_ENSt8__detail9_IdentityESt8equal_toIS3_ESt4hashIS3_ENS5_18_Mod_range_hashingENS5_20_Default_ranged_hashENS5_20_Prime_rehash_policyENS5_17_Hashtable_traitsILb1ELb1ELb1EEEE3endEv(ptr noundef nonnull align 8 dereferenceable(56) %_M_h) #3
  %coerce.dive = getelementptr inbounds %"struct.std::__detail::_Node_iterator", ptr %retval, i32 0, i32 0
  %coerce.dive2 = getelementptr inbounds %"struct.std::__detail::_Node_iterator_base", ptr %coerce.dive, i32 0, i32 0
  store ptr %call, ptr %coerce.dive2, align 8
  %coerce.dive3 = getelementptr inbounds %"struct.std::__detail::_Node_iterator", ptr %retval, i32 0, i32 0
  %coerce.dive4 = getelementptr inbounds %"struct.std::__detail::_Node_iterator_base", ptr %coerce.dive3, i32 0, i32 0
  %0 = load ptr, ptr %coerce.dive4, align 8
  ret ptr %0
}

; Function Attrs: mustprogress nounwind uwtable
define linkonce_odr hidden void @_ZN4cvc58internal13OstreamVoiderC2Ev(ptr noundef nonnull align 1 dereferenceable(1) %this) unnamed_addr #5 comdat align 2 {
entry:
  %this.addr = alloca ptr, align 8
  store ptr %this, ptr %this.addr, align 8
  ret void
}

; Function Attrs: mustprogress nounwind uwtable
define linkonce_odr hidden void @_ZN4cvc58internal13OstreamVoideranERSo(ptr noundef nonnull align 1 dereferenceable(1) %this, ptr noundef nonnull align 8 dereferenceable(8) %0) #5 comdat align 2 {
entry:
  %this.addr = alloca ptr, align 8
  %.addr = alloca ptr, align 8
  store ptr %this, ptr %this.addr, align 8
  store ptr %0, ptr %.addr, align 8
  ret void
}

; Function Attrs: mustprogress uwtable
define linkonce_odr hidden noundef nonnull align 8 dereferenceable(8) ptr @_ZN4cvc58internallsERSoNS0_12NodeTemplateILb0EEE(ptr noundef nonnull align 8 dereferenceable(8) %out, ptr noundef %n) #4 comdat {
entry:
  %out.addr = alloca ptr, align 8
  %n.indirect_addr = alloca ptr, align 8
  store ptr %out, ptr %out.addr, align 8
  store ptr %n, ptr %n.indirect_addr, align 8
  %0 = load ptr, ptr %out.addr, align 8
  call void @_ZNK4cvc58internal12NodeTemplateILb0EE8toStreamERSo(ptr noundef nonnull align 8 dereferenceable(8) %n, ptr noundef nonnull align 8 dereferenceable(8) %0)
  %1 = load ptr, ptr %out.addr, align 8
  ret ptr %1
}

declare noundef nonnull align 8 dereferenceable(8) ptr @_ZStlsISt11char_traitsIcEERSt13basic_ostreamIcT_ES5_PKc(ptr noundef nonnull align 8 dereferenceable(8), ptr noundef) #1

declare void @_ZN4cvc58internal11FatalStreamC1EPKcS3_i(ptr noundef nonnull align 1 dereferenceable(1), ptr noundef, ptr noundef, i32 noundef) unnamed_addr #1

declare noundef nonnull align 8 dereferenceable(8) ptr @_ZN4cvc58internal11FatalStream6streamEv(ptr noundef nonnull align 1 dereferenceable(1)) #1

; Function Attrs: noreturn nounwind
declare void @_ZN4cvc58internal11FatalStreamD1Ev(ptr noundef nonnull align 1 dereferenceable(1)) unnamed_addr #10

; Function Attrs: mustprogress uwtable
define linkonce_odr hidden { ptr, i8 } @_ZNSt13unordered_setIN4cvc58internal12NodeTemplateILb1EEESt4hashIS3_ESt8equal_toIS3_ESaIS3_EE6insertERKS3_(ptr noundef nonnull align 8 dereferenceable(56) %this, ptr noundef nonnull align 8 dereferenceable(8) %__x) #4 comdat align 2 {
entry:
  %retval = alloca %"struct.std::pair.387", align 8
  %this.addr = alloca ptr, align 8
  %__x.addr = alloca ptr, align 8
  store ptr %this, ptr %this.addr, align 8
  store ptr %__x, ptr %__x.addr, align 8
  %this1 = load ptr, ptr %this.addr, align 8
  %_M_h = getelementptr inbounds %"class.std::unordered_set", ptr %this1, i32 0, i32 0
  %0 = load ptr, ptr %__x.addr, align 8
  %call = call { ptr, i8 } @_ZNSt8__detail12_Insert_baseIN4cvc58internal12NodeTemplateILb1EEES4_SaIS4_ENS_9_IdentityESt8equal_toIS4_ESt4hashIS4_ENS_18_Mod_range_hashingENS_20_Default_ranged_hashENS_20_Prime_rehash_policyENS_17_Hashtable_traitsILb1ELb1ELb1EEEE6insertERKS4_(ptr noundef nonnull align 1 dereferenceable(1) %_M_h, ptr noundef nonnull align 8 dereferenceable(8) %0)
  %1 = getelementptr inbounds { ptr, i8 }, ptr %retval, i32 0, i32 0
  %2 = extractvalue { ptr, i8 } %call, 0
  store ptr %2, ptr %1, align 8
  %3 = getelementptr inbounds { ptr, i8 }, ptr %retval, i32 0, i32 1
  %4 = extractvalue { ptr, i8 } %call, 1
  store i8 %4, ptr %3, align 8
  %5 = load { ptr, i8 }, ptr %retval, align 8
  ret { ptr, i8 } %5
}

; Function Attrs: mustprogress uwtable
define linkonce_odr hidden noundef nonnull align 8 dereferenceable(24) ptr @_ZN4cvc58internal11Cvc5ostreamlsIA51_cEERS1_RKT_(ptr noundef nonnull align 8 dereferenceable(24) %this, ptr noundef nonnull align 1 dereferenceable(51) %t) #4 comdat align 2 {
entry:
  %this.addr = alloca ptr, align 8
  %t.addr = alloca ptr, align 8
  %indent = alloca i64, align 8
  %i = alloca i64, align 8
  store ptr %this, ptr %this.addr, align 8
  store ptr %t, ptr %t.addr, align 8
  %this1 = load ptr, ptr %this.addr, align 8
  %d_os = getelementptr inbounds %"class.cvc5::internal::Cvc5ostream", ptr %this1, i32 0, i32 0
  %0 = load ptr, ptr %d_os, align 8
  %cmp = icmp ne ptr %0, null
  br i1 %cmp, label %if.then, label %if.end11

if.then:                                          ; preds = %entry
  %d_firstColumn = getelementptr inbounds %"class.cvc5::internal::Cvc5ostream", ptr %this1, i32 0, i32 1
  %1 = load i8, ptr %d_firstColumn, align 8
  %tobool = trunc i8 %1 to i1
  br i1 %tobool, label %if.then2, label %if.end

if.then2:                                         ; preds = %if.then
  %d_firstColumn3 = getelementptr inbounds %"class.cvc5::internal::Cvc5ostream", ptr %this1, i32 0, i32 1
  store i8 0, ptr %d_firstColumn3, align 8
  %d_os4 = getelementptr inbounds %"class.cvc5::internal::Cvc5ostream", ptr %this1, i32 0, i32 0
  %2 = load ptr, ptr %d_os4, align 8
  %vtable = load ptr, ptr %2, align 8
  %vbase.offset.ptr = getelementptr i8, ptr %vtable, i64 -24
  %vbase.offset = load i64, ptr %vbase.offset.ptr, align 8
  %add.ptr = getelementptr inbounds i8, ptr %2, i64 %vbase.offset
  %3 = load i32, ptr @_ZN4cvc58internal11Cvc5ostream16s_indentIosIndexE, align 4
  %call = call noundef nonnull align 8 dereferenceable(8) ptr @_ZNSt8ios_base5iwordEi(ptr noundef nonnull align 8 dereferenceable(216) %add.ptr, i32 noundef %3)
  %4 = load i64, ptr %call, align 8
  store i64 %4, ptr %indent, align 8
  store i64 0, ptr %i, align 8
  br label %for.cond

for.cond:                                         ; preds = %for.inc, %if.then2
  %5 = load i64, ptr %i, align 8
  %6 = load i64, ptr %indent, align 8
  %cmp5 = icmp slt i64 %5, %6
  br i1 %cmp5, label %for.body, label %for.end

for.body:                                         ; preds = %for.cond
  %d_os6 = getelementptr inbounds %"class.cvc5::internal::Cvc5ostream", ptr %this1, i32 0, i32 0
  %7 = load ptr, ptr %d_os6, align 8
  %call7 = call noundef nonnull align 8 dereferenceable(8) ptr @_ZStlsIcSt11char_traitsIcESaIcEERSt13basic_ostreamIT_T0_ES7_RKNSt7__cxx1112basic_stringIS4_S5_T1_EE(ptr noundef nonnull align 8 dereferenceable(8) %7, ptr noundef nonnull align 8 dereferenceable(32) @_ZN4cvc58internal11Cvc5ostream5s_tabB5cxx11E)
  %d_os8 = getelementptr inbounds %"class.cvc5::internal::Cvc5ostream", ptr %this1, i32 0, i32 0
  store ptr %call7, ptr %d_os8, align 8
  br label %for.inc

for.inc:                                          ; preds = %for.body
  %8 = load i64, ptr %i, align 8
  %inc = add nsw i64 %8, 1
  store i64 %inc, ptr %i, align 8
  br label %for.cond, !llvm.loop !17

for.end:                                          ; preds = %for.cond
  br label %if.end

if.end:                                           ; preds = %for.end, %if.then
  %d_os9 = getelementptr inbounds %"class.cvc5::internal::Cvc5ostream", ptr %this1, i32 0, i32 0
  %9 = load ptr, ptr %d_os9, align 8
  %10 = load ptr, ptr %t.addr, align 8
  %arraydecay = getelementptr inbounds [51 x i8], ptr %10, i64 0, i64 0
  %call10 = call noundef nonnull align 8 dereferenceable(8) ptr @_ZStlsISt11char_traitsIcEERSt13basic_ostreamIcT_ES5_PKc(ptr noundef nonnull align 8 dereferenceable(8) %9, ptr noundef %arraydecay)
  br label %if.end11

if.end11:                                         ; preds = %if.end, %entry
  ret ptr %this1
}

; Function Attrs: mustprogress uwtable
define linkonce_odr hidden noundef nonnull align 8 dereferenceable(24) ptr @_ZN4cvc58internal11Cvc5ostreamlsImEERS1_RKT_(ptr noundef nonnull align 8 dereferenceable(24) %this, ptr noundef nonnull align 8 dereferenceable(8) %t) #4 comdat align 2 {
entry:
  %this.addr = alloca ptr, align 8
  %t.addr = alloca ptr, align 8
  %indent = alloca i64, align 8
  %i = alloca i64, align 8
  store ptr %this, ptr %this.addr, align 8
  store ptr %t, ptr %t.addr, align 8
  %this1 = load ptr, ptr %this.addr, align 8
  %d_os = getelementptr inbounds %"class.cvc5::internal::Cvc5ostream", ptr %this1, i32 0, i32 0
  %0 = load ptr, ptr %d_os, align 8
  %cmp = icmp ne ptr %0, null
  br i1 %cmp, label %if.then, label %if.end11

if.then:                                          ; preds = %entry
  %d_firstColumn = getelementptr inbounds %"class.cvc5::internal::Cvc5ostream", ptr %this1, i32 0, i32 1
  %1 = load i8, ptr %d_firstColumn, align 8
  %tobool = trunc i8 %1 to i1
  br i1 %tobool, label %if.then2, label %if.end

if.then2:                                         ; preds = %if.then
  %d_firstColumn3 = getelementptr inbounds %"class.cvc5::internal::Cvc5ostream", ptr %this1, i32 0, i32 1
  store i8 0, ptr %d_firstColumn3, align 8
  %d_os4 = getelementptr inbounds %"class.cvc5::internal::Cvc5ostream", ptr %this1, i32 0, i32 0
  %2 = load ptr, ptr %d_os4, align 8
  %vtable = load ptr, ptr %2, align 8
  %vbase.offset.ptr = getelementptr i8, ptr %vtable, i64 -24
  %vbase.offset = load i64, ptr %vbase.offset.ptr, align 8
  %add.ptr = getelementptr inbounds i8, ptr %2, i64 %vbase.offset
  %3 = load i32, ptr @_ZN4cvc58internal11Cvc5ostream16s_indentIosIndexE, align 4
  %call = call noundef nonnull align 8 dereferenceable(8) ptr @_ZNSt8ios_base5iwordEi(ptr noundef nonnull align 8 dereferenceable(216) %add.ptr, i32 noundef %3)
  %4 = load i64, ptr %call, align 8
  store i64 %4, ptr %indent, align 8
  store i64 0, ptr %i, align 8
  br label %for.cond

for.cond:                                         ; preds = %for.inc, %if.then2
  %5 = load i64, ptr %i, align 8
  %6 = load i64, ptr %indent, align 8
  %cmp5 = icmp slt i64 %5, %6
  br i1 %cmp5, label %for.body, label %for.end

for.body:                                         ; preds = %for.cond
  %d_os6 = getelementptr inbounds %"class.cvc5::internal::Cvc5ostream", ptr %this1, i32 0, i32 0
  %7 = load ptr, ptr %d_os6, align 8
  %call7 = call noundef nonnull align 8 dereferenceable(8) ptr @_ZStlsIcSt11char_traitsIcESaIcEERSt13basic_ostreamIT_T0_ES7_RKNSt7__cxx1112basic_stringIS4_S5_T1_EE(ptr noundef nonnull align 8 dereferenceable(8) %7, ptr noundef nonnull align 8 dereferenceable(32) @_ZN4cvc58internal11Cvc5ostream5s_tabB5cxx11E)
  %d_os8 = getelementptr inbounds %"class.cvc5::internal::Cvc5ostream", ptr %this1, i32 0, i32 0
  store ptr %call7, ptr %d_os8, align 8
  br label %for.inc

for.inc:                                          ; preds = %for.body
  %8 = load i64, ptr %i, align 8
  %inc = add nsw i64 %8, 1
  store i64 %inc, ptr %i, align 8
  br label %for.cond, !llvm.loop !18

for.end:                                          ; preds = %for.cond
  br label %if.end

if.end:                                           ; preds = %for.end, %if.then
  %d_os9 = getelementptr inbounds %"class.cvc5::internal::Cvc5ostream", ptr %this1, i32 0, i32 0
  %9 = load ptr, ptr %d_os9, align 8
  %10 = load ptr, ptr %t.addr, align 8
  %11 = load i64, ptr %10, align 8
  %call10 = call noundef nonnull align 8 dereferenceable(8) ptr @_ZNSolsEm(ptr noundef nonnull align 8 dereferenceable(8) %9, i64 noundef %11)
  br label %if.end11

if.end11:                                         ; preds = %if.end, %entry
  ret ptr %this1
}

; Function Attrs: mustprogress uwtable
define linkonce_odr hidden noundef ptr @_ZNK4cvc57context9CDHashMapINS_8internal12NodeTemplateILb1EEEmSt4hashIS4_EE8iteratorptEv(ptr noundef nonnull align 8 dereferenceable(8) %this) #4 comdat align 2 {
entry:
  %this.addr = alloca ptr, align 8
  store ptr %this, ptr %this.addr, align 8
  %this1 = load ptr, ptr %this.addr, align 8
  %d_it = getelementptr inbounds %"class.cvc5::context::CDHashMap<cvc5::internal::NodeTemplate<true>, unsigned long>::iterator", ptr %this1, i32 0, i32 0
  %0 = load ptr, ptr %d_it, align 8
  %call = call noundef nonnull align 8 dereferenceable(16) ptr @_ZNK4cvc57context11CDOhash_mapINS_8internal12NodeTemplateILb1EEEmSt4hashIS4_EE8getValueEv(ptr noundef nonnull align 8 dereferenceable(80) %0)
  ret ptr %call
}

; Function Attrs: mustprogress uwtable
define hidden void @_ZN4cvc58internal6theory20TrustSubstitutionMap15getSubstitutionEm(ptr noalias sret(%"class.cvc5::internal::NodeTemplate") align 8 %agg.result, ptr noundef nonnull align 8 dereferenceable(608) %this, i64 noundef %index) #4 align 2 personality ptr @__gxx_personality_v0 {
entry:
  %result.ptr = alloca ptr, align 8
  %this.addr = alloca ptr, align 8
  %index.addr = alloca i64, align 8
  %csubsChildren = alloca %"class.std::vector.382", align 8
  %i = alloca i64, align 8
  %ref.tmp = alloca %"class.cvc5::internal::NodeTemplate", align 8
  %exn.slot = alloca ptr, align 8
  %ehselector.slot = alloca i32, align 4
  %agg.tmp = alloca %"class.__gnu_cxx::__normal_iterator.389", align 8
  %agg.tmp6 = alloca %"class.__gnu_cxx::__normal_iterator.389", align 8
  %nrvo = alloca i1, align 1
  %agg.tmp20 = alloca %"class.cvc5::internal::NodeTemplate", align 8
  %ref.tmp22 = alloca %"class.std::vector.382", align 8
  store ptr %agg.result, ptr %result.ptr, align 8
  store ptr %this, ptr %this.addr, align 8
  store i64 %index, ptr %index.addr, align 8
  %this1 = load ptr, ptr %this.addr, align 8
  call void @_ZNSt6vectorIN4cvc58internal12NodeTemplateILb1EEESaIS3_EEC2Ev(ptr noundef nonnull align 8 dereferenceable(24) %csubsChildren) #3
  store i64 0, ptr %i, align 8
  br label %for.cond

for.cond:                                         ; preds = %for.inc, %entry
  %0 = load i64, ptr %i, align 8
  %1 = load i64, ptr %index.addr, align 8
  %cmp = icmp ult i64 %0, %1
  br i1 %cmp, label %for.body, label %for.end

for.body:                                         ; preds = %for.cond
  %d_tsubs = getelementptr inbounds %"class.cvc5::internal::theory::TrustSubstitutionMap", ptr %this1, i32 0, i32 4
  %2 = load i64, ptr %i, align 8
  %call = invoke noundef nonnull align 8 dereferenceable(24) ptr @_ZNK4cvc57context6CDListINS_8internal9TrustNodeENS0_14DefaultCleanUpIS3_EESaIS3_EEixEm(ptr noundef nonnull align 8 dereferenceable(74) %d_tsubs, i64 noundef %2)
          to label %invoke.cont unwind label %lpad

invoke.cont:                                      ; preds = %for.body
  invoke void @_ZNK4cvc58internal9TrustNode9getProvenEv(ptr sret(%"class.cvc5::internal::NodeTemplate") align 8 %ref.tmp, ptr noundef nonnull align 8 dereferenceable(24) %call)
          to label %invoke.cont2 unwind label %lpad

invoke.cont2:                                     ; preds = %invoke.cont
  invoke void @_ZNSt6vectorIN4cvc58internal12NodeTemplateILb1EEESaIS3_EE9push_backEOS3_(ptr noundef nonnull align 8 dereferenceable(24) %csubsChildren, ptr noundef nonnull align 8 dereferenceable(8) %ref.tmp)
          to label %invoke.cont4 unwind label %lpad3

invoke.cont4:                                     ; preds = %invoke.cont2
  call void @_ZN4cvc58internal12NodeTemplateILb1EED2Ev(ptr noundef nonnull align 8 dereferenceable(8) %ref.tmp) #3
  br label %for.inc

for.inc:                                          ; preds = %invoke.cont4
  %3 = load i64, ptr %i, align 8
  %inc = add i64 %3, 1
  store i64 %inc, ptr %i, align 8
  br label %for.cond, !llvm.loop !19

lpad:                                             ; preds = %invoke.cont12, %invoke.cont11, %for.end, %invoke.cont, %for.body
  %4 = landingpad { ptr, i32 }
          cleanup
  %5 = extractvalue { ptr, i32 } %4, 0
  store ptr %5, ptr %exn.slot, align 8
  %6 = extractvalue { ptr, i32 } %4, 1
  store i32 %6, ptr %ehselector.slot, align 4
  br label %ehcleanup26

lpad3:                                            ; preds = %invoke.cont2
  %7 = landingpad { ptr, i32 }
          cleanup
  %8 = extractvalue { ptr, i32 } %7, 0
  store ptr %8, ptr %exn.slot, align 8
  %9 = extractvalue { ptr, i32 } %7, 1
  store i32 %9, ptr %ehselector.slot, align 4
  call void @_ZN4cvc58internal12NodeTemplateILb1EED2Ev(ptr noundef nonnull align 8 dereferenceable(8) %ref.tmp) #3
  br label %ehcleanup26

for.end:                                          ; preds = %for.cond
  %call5 = call ptr @_ZNSt6vectorIN4cvc58internal12NodeTemplateILb1EEESaIS3_EE5beginEv(ptr noundef nonnull align 8 dereferenceable(24) %csubsChildren) #3
  %coerce.dive = getelementptr inbounds %"class.__gnu_cxx::__normal_iterator.389", ptr %agg.tmp, i32 0, i32 0
  store ptr %call5, ptr %coerce.dive, align 8
  %call7 = call ptr @_ZNSt6vectorIN4cvc58internal12NodeTemplateILb1EEESaIS3_EE3endEv(ptr noundef nonnull align 8 dereferenceable(24) %csubsChildren) #3
  %coerce.dive8 = getelementptr inbounds %"class.__gnu_cxx::__normal_iterator.389", ptr %agg.tmp6, i32 0, i32 0
  store ptr %call7, ptr %coerce.dive8, align 8
  %coerce.dive9 = getelementptr inbounds %"class.__gnu_cxx::__normal_iterator.389", ptr %agg.tmp, i32 0, i32 0
  %10 = load ptr, ptr %coerce.dive9, align 8
  %coerce.dive10 = getelementptr inbounds %"class.__gnu_cxx::__normal_iterator.389", ptr %agg.tmp6, i32 0, i32 0
  %11 = load ptr, ptr %coerce.dive10, align 8
  invoke void @_ZSt7reverseIN9__gnu_cxx17__normal_iteratorIPN4cvc58internal12NodeTemplateILb1EEESt6vectorIS5_SaIS5_EEEEEvT_SB_(ptr %10, ptr %11)
          to label %invoke.cont11 unwind label %lpad

invoke.cont11:                                    ; preds = %for.end
  store i1 false, ptr %nrvo, align 1
  %call13 = invoke noundef ptr @_ZN4cvc58internal11NodeManager9currentNMEv()
          to label %invoke.cont12 unwind label %lpad

invoke.cont12:                                    ; preds = %invoke.cont11
  invoke void @_ZN4cvc58internal11NodeManager5mkAndILb1EEENS0_12NodeTemplateILb1EEERKSt6vectorINS3_IXT_EEESaIS6_EE(ptr sret(%"class.cvc5::internal::NodeTemplate") align 8 %agg.result, ptr noundef nonnull align 8 dereferenceable(3360) %call13, ptr noundef nonnull align 8 dereferenceable(24) %csubsChildren)
          to label %invoke.cont14 unwind label %lpad

invoke.cont14:                                    ; preds = %invoke.cont12
  %call17 = invoke noundef i32 @_ZNK4cvc58internal12NodeTemplateILb1EE7getKindEv(ptr noundef nonnull align 8 dereferenceable(8) %agg.result)
          to label %invoke.cont16 unwind label %lpad15

invoke.cont16:                                    ; preds = %invoke.cont14
  %cmp18 = icmp eq i32 %call17, 19
  br i1 %cmp18, label %if.then, label %if.end

if.then:                                          ; preds = %invoke.cont16
  %d_subsPg = getelementptr inbounds %"class.cvc5::internal::theory::TrustSubstitutionMap", ptr %this1, i32 0, i32 6
  %call19 = call noundef ptr @_ZNKSt10unique_ptrIN4cvc58internal11LazyCDProofESt14default_deleteIS2_EEptEv(ptr noundef nonnull align 8 dereferenceable(8) %d_subsPg) #3
  invoke void @_ZN4cvc58internal12NodeTemplateILb1EEC2ERKS2_(ptr noundef nonnull align 8 dereferenceable(8) %agg.tmp20, ptr noundef nonnull align 8 dereferenceable(8) %agg.result)
          to label %invoke.cont21 unwind label %lpad15

invoke.cont21:                                    ; preds = %if.then
  call void @llvm.memset.p0.i64(ptr align 8 %ref.tmp22, i8 0, i64 24, i1 false)
  call void @_ZNSt6vectorIN4cvc58internal12NodeTemplateILb1EEESaIS3_EEC2Ev(ptr noundef nonnull align 8 dereferenceable(24) %ref.tmp22) #3
  %call25 = invoke noundef zeroext i1 @_ZN4cvc58internal7CDProof7addStepENS0_12NodeTemplateILb1EEENS_9ProofRuleERKSt6vectorIS3_SaIS3_EES9_bNS0_12CDPOverwriteE(ptr noundef nonnull align 8 dereferenceable(217) %call19, ptr noundef %agg.tmp20, i32 noundef 28, ptr noundef nonnull align 8 dereferenceable(24) %csubsChildren, ptr noundef nonnull align 8 dereferenceable(24) %ref.tmp22, i1 noundef zeroext false, i32 noundef 1)
          to label %invoke.cont24 unwind label %lpad23

invoke.cont24:                                    ; preds = %invoke.cont21
  call void @_ZNSt6vectorIN4cvc58internal12NodeTemplateILb1EEESaIS3_EED2Ev(ptr noundef nonnull align 8 dereferenceable(24) %ref.tmp22) #3
  call void @_ZN4cvc58internal12NodeTemplateILb1EED2Ev(ptr noundef nonnull align 8 dereferenceable(8) %agg.tmp20) #3
  br label %if.end

lpad15:                                           ; preds = %if.then, %invoke.cont14
  %12 = landingpad { ptr, i32 }
          cleanup
  %13 = extractvalue { ptr, i32 } %12, 0
  store ptr %13, ptr %exn.slot, align 8
  %14 = extractvalue { ptr, i32 } %12, 1
  store i32 %14, ptr %ehselector.slot, align 4
  br label %ehcleanup

lpad23:                                           ; preds = %invoke.cont21
  %15 = landingpad { ptr, i32 }
          cleanup
  %16 = extractvalue { ptr, i32 } %15, 0
  store ptr %16, ptr %exn.slot, align 8
  %17 = extractvalue { ptr, i32 } %15, 1
  store i32 %17, ptr %ehselector.slot, align 4
  call void @_ZNSt6vectorIN4cvc58internal12NodeTemplateILb1EEESaIS3_EED2Ev(ptr noundef nonnull align 8 dereferenceable(24) %ref.tmp22) #3
  call void @_ZN4cvc58internal12NodeTemplateILb1EED2Ev(ptr noundef nonnull align 8 dereferenceable(8) %agg.tmp20) #3
  br label %ehcleanup

if.end:                                           ; preds = %invoke.cont24, %invoke.cont16
  store i1 true, ptr %nrvo, align 1
  %nrvo.val = load i1, ptr %nrvo, align 1
  br i1 %nrvo.val, label %nrvo.skipdtor, label %nrvo.unused

nrvo.unused:                                      ; preds = %if.end
  call void @_ZN4cvc58internal12NodeTemplateILb1EED2Ev(ptr noundef nonnull align 8 dereferenceable(8) %agg.result) #3
  br label %nrvo.skipdtor

nrvo.skipdtor:                                    ; preds = %nrvo.unused, %if.end
  call void @_ZNSt6vectorIN4cvc58internal12NodeTemplateILb1EEESaIS3_EED2Ev(ptr noundef nonnull align 8 dereferenceable(24) %csubsChildren) #3
  ret void

ehcleanup:                                        ; preds = %lpad23, %lpad15
  call void @_ZN4cvc58internal12NodeTemplateILb1EED2Ev(ptr noundef nonnull align 8 dereferenceable(8) %agg.result) #3
  br label %ehcleanup26

ehcleanup26:                                      ; preds = %ehcleanup, %lpad3, %lpad
  call void @_ZNSt6vectorIN4cvc58internal12NodeTemplateILb1EEESaIS3_EED2Ev(ptr noundef nonnull align 8 dereferenceable(24) %csubsChildren) #3
  br label %eh.resume

eh.resume:                                        ; preds = %ehcleanup26
  %exn = load ptr, ptr %exn.slot, align 8
  %sel = load i32, ptr %ehselector.slot, align 4
  %lpad.val = insertvalue { ptr, i32 } poison, ptr %exn, 0
  %lpad.val27 = insertvalue { ptr, i32 } %lpad.val, i32 %sel, 1
  resume { ptr, i32 } %lpad.val27
}

; Function Attrs: mustprogress uwtable
define linkonce_odr hidden noundef nonnull align 8 dereferenceable(24) ptr @_ZN4cvc58internal11Cvc5ostreamlsIA29_cEERS1_RKT_(ptr noundef nonnull align 8 dereferenceable(24) %this, ptr noundef nonnull align 1 dereferenceable(29) %t) #4 comdat align 2 {
entry:
  %this.addr = alloca ptr, align 8
  %t.addr = alloca ptr, align 8
  %indent = alloca i64, align 8
  %i = alloca i64, align 8
  store ptr %this, ptr %this.addr, align 8
  store ptr %t, ptr %t.addr, align 8
  %this1 = load ptr, ptr %this.addr, align 8
  %d_os = getelementptr inbounds %"class.cvc5::internal::Cvc5ostream", ptr %this1, i32 0, i32 0
  %0 = load ptr, ptr %d_os, align 8
  %cmp = icmp ne ptr %0, null
  br i1 %cmp, label %if.then, label %if.end11

if.then:                                          ; preds = %entry
  %d_firstColumn = getelementptr inbounds %"class.cvc5::internal::Cvc5ostream", ptr %this1, i32 0, i32 1
  %1 = load i8, ptr %d_firstColumn, align 8
  %tobool = trunc i8 %1 to i1
  br i1 %tobool, label %if.then2, label %if.end

if.then2:                                         ; preds = %if.then
  %d_firstColumn3 = getelementptr inbounds %"class.cvc5::internal::Cvc5ostream", ptr %this1, i32 0, i32 1
  store i8 0, ptr %d_firstColumn3, align 8
  %d_os4 = getelementptr inbounds %"class.cvc5::internal::Cvc5ostream", ptr %this1, i32 0, i32 0
  %2 = load ptr, ptr %d_os4, align 8
  %vtable = load ptr, ptr %2, align 8
  %vbase.offset.ptr = getelementptr i8, ptr %vtable, i64 -24
  %vbase.offset = load i64, ptr %vbase.offset.ptr, align 8
  %add.ptr = getelementptr inbounds i8, ptr %2, i64 %vbase.offset
  %3 = load i32, ptr @_ZN4cvc58internal11Cvc5ostream16s_indentIosIndexE, align 4
  %call = call noundef nonnull align 8 dereferenceable(8) ptr @_ZNSt8ios_base5iwordEi(ptr noundef nonnull align 8 dereferenceable(216) %add.ptr, i32 noundef %3)
  %4 = load i64, ptr %call, align 8
  store i64 %4, ptr %indent, align 8
  store i64 0, ptr %i, align 8
  br label %for.cond

for.cond:                                         ; preds = %for.inc, %if.then2
  %5 = load i64, ptr %i, align 8
  %6 = load i64, ptr %indent, align 8
  %cmp5 = icmp slt i64 %5, %6
  br i1 %cmp5, label %for.body, label %for.end

for.body:                                         ; preds = %for.cond
  %d_os6 = getelementptr inbounds %"class.cvc5::internal::Cvc5ostream", ptr %this1, i32 0, i32 0
  %7 = load ptr, ptr %d_os6, align 8
  %call7 = call noundef nonnull align 8 dereferenceable(8) ptr @_ZStlsIcSt11char_traitsIcESaIcEERSt13basic_ostreamIT_T0_ES7_RKNSt7__cxx1112basic_stringIS4_S5_T1_EE(ptr noundef nonnull align 8 dereferenceable(8) %7, ptr noundef nonnull align 8 dereferenceable(32) @_ZN4cvc58internal11Cvc5ostream5s_tabB5cxx11E)
  %d_os8 = getelementptr inbounds %"class.cvc5::internal::Cvc5ostream", ptr %this1, i32 0, i32 0
  store ptr %call7, ptr %d_os8, align 8
  br label %for.inc

for.inc:                                          ; preds = %for.body
  %8 = load i64, ptr %i, align 8
  %inc = add nsw i64 %8, 1
  store i64 %inc, ptr %i, align 8
  br label %for.cond, !llvm.loop !20

for.end:                                          ; preds = %for.cond
  br label %if.end

if.end:                                           ; preds = %for.end, %if.then
  %d_os9 = getelementptr inbounds %"class.cvc5::internal::Cvc5ostream", ptr %this1, i32 0, i32 0
  %9 = load ptr, ptr %d_os9, align 8
  %10 = load ptr, ptr %t.addr, align 8
  %arraydecay = getelementptr inbounds [29 x i8], ptr %10, i64 0, i64 0
  %call10 = call noundef nonnull align 8 dereferenceable(8) ptr @_ZStlsISt11char_traitsIcEERSt13basic_ostreamIcT_ES5_PKc(ptr noundef nonnull align 8 dereferenceable(8) %9, ptr noundef %arraydecay)
  br label %if.end11

if.end11:                                         ; preds = %if.end, %entry
  ret ptr %this1
}

declare noundef zeroext i1 @_ZNK4cvc58internal12NodeTemplateILb1EE7isConstEv(ptr noundef nonnull align 8 dereferenceable(8)) #1

; Function Attrs: mustprogress uwtable
define linkonce_odr hidden void @_ZNSt6vectorIN4cvc58internal12NodeTemplateILb1EEESaIS3_EE9push_backERKS3_(ptr noundef nonnull align 8 dereferenceable(24) %this, ptr noundef nonnull align 8 dereferenceable(8) %__x) #4 comdat align 2 {
entry:
  %this.addr = alloca ptr, align 8
  %__x.addr = alloca ptr, align 8
  %agg.tmp = alloca %"class.__gnu_cxx::__normal_iterator.389", align 8
  store ptr %this, ptr %this.addr, align 8
  store ptr %__x, ptr %__x.addr, align 8
  %this1 = load ptr, ptr %this.addr, align 8
  %_M_impl = getelementptr inbounds %"struct.std::_Vector_base.383", ptr %this1, i32 0, i32 0
  %_M_finish = getelementptr inbounds %"struct.std::_Vector_base<cvc5::internal::NodeTemplate<true>, std::allocator<cvc5::internal::NodeTemplate<true>>>::_Vector_impl_data", ptr %_M_impl, i32 0, i32 1
  %0 = load ptr, ptr %_M_finish, align 8
  %_M_impl2 = getelementptr inbounds %"struct.std::_Vector_base.383", ptr %this1, i32 0, i32 0
