target datalayout = "e-m:e-p270:32:32-p271:32:32-p272:64:64-i64:64-i128:128-f80:128-n8:16:32:64-S128"
target triple = "x86_64-unknown-linux-gnu"

%"struct.std::nullopt_t" = type { i8 }
%"struct.std::in_place_t" = type { i8 }
%"class.folly::BasicFixedString" = type { [5 x i8], i64 }
%"class.std::vector" = type { %"struct.std::_Vector_base" }
%"struct.std::_Vector_base" = type { %"struct.std::_Vector_base<std::shared_ptr<facebook::velox::exec::FunctionSignature>, std::allocator<std::shared_ptr<facebook::velox::exec::FunctionSignature>>>::_Vector_impl" }
%"struct.std::_Vector_base<std::shared_ptr<facebook::velox::exec::FunctionSignature>, std::allocator<std::shared_ptr<facebook::velox::exec::FunctionSignature>>>::_Vector_impl" = type { %"struct.std::_Vector_base<std::shared_ptr<facebook::velox::exec::FunctionSignature>, std::allocator<std::shared_ptr<facebook::velox::exec::FunctionSignature>>>::_Vector_impl_data" }
%"struct.std::_Vector_base<std::shared_ptr<facebook::velox::exec::FunctionSignature>, std::allocator<std::shared_ptr<facebook::velox::exec::FunctionSignature>>>::_Vector_impl_data" = type { ptr, ptr, ptr }
%"class.std::unique_ptr" = type { %"struct.std::__uniq_ptr_data" }
%"struct.std::__uniq_ptr_data" = type { %"class.std::__uniq_ptr_impl" }
%"class.std::__uniq_ptr_impl" = type { %"class.std::tuple" }
%"class.std::tuple" = type { %"struct.std::_Tuple_impl" }
%"struct.std::_Tuple_impl" = type { %"struct.std::_Head_base.1" }
%"struct.std::_Head_base.1" = type { ptr }
%"class.std::unique_ptr.5" = type { %"struct.std::__uniq_ptr_data.6" }
%"struct.std::__uniq_ptr_data.6" = type { %"class.std::__uniq_ptr_impl.7" }
%"class.std::__uniq_ptr_impl.7" = type { %"class.std::tuple.8" }
%"class.std::tuple.8" = type { %"struct.std::_Tuple_impl.9" }
%"struct.std::_Tuple_impl.9" = type { %"struct.std::_Head_base.12" }
%"struct.std::_Head_base.12" = type { ptr }
%"struct.facebook::velox::exec::VectorFunctionMetadata" = type { i8 }
%"class.std::vector.21" = type { %"struct.std::_Vector_base.22" }
%"struct.std::_Vector_base.22" = type { %"struct.std::_Vector_base<std::__cxx11::basic_string<char>, std::allocator<std::__cxx11::basic_string<char>>>::_Vector_impl" }
%"struct.std::_Vector_base<std::__cxx11::basic_string<char>, std::allocator<std::__cxx11::basic_string<char>>>::_Vector_impl" = type { %"struct.std::_Vector_base<std::__cxx11::basic_string<char>, std::allocator<std::__cxx11::basic_string<char>>>::_Vector_impl_data" }
%"struct.std::_Vector_base<std::__cxx11::basic_string<char>, std::allocator<std::__cxx11::basic_string<char>>>::_Vector_impl_data" = type { ptr, ptr, ptr }
%"class.std::initializer_list" = type { ptr, i64 }
%"class.std::__cxx11::basic_string" = type { %"struct.std::__cxx11::basic_string<char>::_Alloc_hider", i64, %union.anon }
%"struct.std::__cxx11::basic_string<char>::_Alloc_hider" = type { ptr }
%union.anon = type { i64, [8 x i8] }
%"class.std::allocator.2" = type { i8 }
%"class.std::allocator.23" = type { i8 }
%"class.__gnu_cxx::__normal_iterator" = type { ptr }
%"class.std::shared_ptr" = type { %"class.std::__shared_ptr" }
%"class.std::__shared_ptr" = type { ptr, %"class.std::__shared_count" }
%"class.std::__shared_count" = type { ptr }
%"class.facebook::velox::exec::FunctionSignatureBuilder" = type <{ %"class.std::unordered_map", %"class.std::optional", %"class.std::vector.32", %"class.std::vector.48", i8, [7 x i8] }>
%"class.std::unordered_map" = type { %"class.std::_Hashtable" }
%"class.std::_Hashtable" = type { ptr, i64, %"struct.std::__detail::_Hash_node_base", i64, %"struct.std::__detail::_Prime_rehash_policy", ptr }
%"struct.std::__detail::_Hash_node_base" = type { ptr }
%"struct.std::__detail::_Prime_rehash_policy" = type { float, i64 }
%"class.std::optional" = type { %"struct.std::_Optional_base" }
%"struct.std::_Optional_base" = type { %"struct.std::_Optional_payload" }
%"struct.std::_Optional_payload" = type { %"struct.std::_Optional_payload.base.45", [7 x i8] }
%"struct.std::_Optional_payload.base.45" = type { %"struct.std::_Optional_payload_base.base.44" }
%"struct.std::_Optional_payload_base.base.44" = type <{ %"union.std::_Optional_payload_base<facebook::velox::exec::TypeSignature>::_Storage", i8 }>
%"union.std::_Optional_payload_base<facebook::velox::exec::TypeSignature>::_Storage" = type { %"class.facebook::velox::exec::TypeSignature" }
%"class.facebook::velox::exec::TypeSignature" = type { %"class.std::__cxx11::basic_string", %"class.std::vector.32", %"class.std::optional.37" }
%"class.std::optional.37" = type { %"struct.std::_Optional_base.38" }
%"struct.std::_Optional_base.38" = type { %"struct.std::_Optional_payload.40" }
%"struct.std::_Optional_payload.40" = type { %"struct.std::_Optional_payload.base", [7 x i8] }
%"struct.std::_Optional_payload.base" = type { %"struct.std::_Optional_payload_base.base" }
%"struct.std::_Optional_payload_base.base" = type <{ %"union.std::_Optional_payload_base<std::__cxx11::basic_string<char>>::_Storage", i8 }>
%"union.std::_Optional_payload_base<std::__cxx11::basic_string<char>>::_Storage" = type { %"class.std::__cxx11::basic_string" }
%"class.std::vector.32" = type { %"struct.std::_Vector_base.33" }
%"struct.std::_Vector_base.33" = type { %"struct.std::_Vector_base<facebook::velox::exec::TypeSignature, std::allocator<facebook::velox::exec::TypeSignature>>::_Vector_impl" }
%"struct.std::_Vector_base<facebook::velox::exec::TypeSignature, std::allocator<facebook::velox::exec::TypeSignature>>::_Vector_impl" = type { %"struct.std::_Vector_base<facebook::velox::exec::TypeSignature, std::allocator<facebook::velox::exec::TypeSignature>>::_Vector_impl_data" }
%"struct.std::_Vector_base<facebook::velox::exec::TypeSignature, std::allocator<facebook::velox::exec::TypeSignature>>::_Vector_impl_data" = type { ptr, ptr, ptr }
%"class.std::vector.48" = type { %"struct.std::_Bvector_base" }
%"struct.std::_Bvector_base" = type { %"struct.std::_Bvector_base<std::allocator<bool>>::_Bvector_impl" }
%"struct.std::_Bvector_base<std::allocator<bool>>::_Bvector_impl" = type { %"struct.std::_Bvector_base<std::allocator<bool>>::_Bvector_impl_data" }
%"struct.std::_Bvector_base<std::allocator<bool>>::_Bvector_impl_data" = type { %"struct.std::_Bit_iterator", %"struct.std::_Bit_iterator", ptr }
%"struct.std::_Bit_iterator" = type { %"struct.std::_Bit_iterator_base.base", [4 x i8] }
%"struct.std::_Bit_iterator_base.base" = type <{ ptr, i32 }>
%"class.std::unique_ptr.13" = type { %"struct.std::__uniq_ptr_data.14" }
%"struct.std::__uniq_ptr_data.14" = type { %"class.std::__uniq_ptr_impl.15" }
%"class.std::__uniq_ptr_impl.15" = type { %"class.std::tuple.16" }
%"class.std::tuple.16" = type { %"struct.std::_Tuple_impl.17" }
%"struct.std::_Tuple_impl.17" = type { %"struct.std::_Head_base.20" }
%"struct.std::_Head_base.20" = type { ptr }
%"class.__gnu_cxx::__normal_iterator.52" = type { ptr }
%"class.facebook::velox::exec::SignatureVariable" = type <{ %"class.std::__cxx11::basic_string", %"class.std::__cxx11::basic_string", i8, i8, i8, i8, [4 x i8] }>
%struct._Guard = type { ptr }
%"struct.std::_Optional_payload_base" = type <{ %"union.std::_Optional_payload_base<facebook::velox::exec::TypeSignature>::_Storage", i8, [7 x i8] }>
%"struct.std::_Bit_iterator_base" = type <{ ptr, i32, [4 x i8] }>
%"class.std::allocator.34" = type { i8 }
%"class.__gnu_cxx::__normal_iterator.53" = type { ptr }
%"struct.std::_Optional_payload_base.42" = type <{ %"union.std::_Optional_payload_base<std::__cxx11::basic_string<char>>::_Storage", i8, [7 x i8] }>
%"class.__gnu_cxx::__normal_iterator.54" = type { ptr }
%"struct.std::_Bit_reference" = type { ptr, i64 }
%"struct.std::_Bit_const_iterator" = type { %"struct.std::_Bit_iterator_base.base", [4 x i8] }
%"class.std::_Sp_counted_base" = type { ptr, i32, i32 }
%"struct.std::__detail::_Hash_node_value_base" = type { %"struct.__gnu_cxx::__aligned_buffer" }
%"struct.__gnu_cxx::__aligned_buffer" = type { %"union.std::aligned_storage<104, 8>::type" }
%"union.std::aligned_storage<104, 8>::type" = type { [104 x i8] }
%"struct.std::pair" = type { %"class.std::__cxx11::basic_string", %"class.facebook::velox::exec::SignatureVariable" }
%"class.std::allocator.55" = type { i8 }
%"struct.std::pair.58" = type <{ %"struct.std::__detail::_Node_iterator", i8, [7 x i8] }>
%"struct.std::__detail::_Node_iterator" = type { %"struct.std::__detail::_Node_iterator_base" }
%"struct.std::__detail::_Node_iterator_base" = type { ptr }
%"struct.std::__detail::_Node_const_iterator" = type { %"struct.std::__detail::_Node_iterator_base" }
%"struct.std::__detail::_Select1st" = type { i8 }
%"struct.std::__detail::_Mod_range_hashing" = type { i8 }
%"struct.std::__detail::_Hash_node_code_cache" = type { i64 }
%"struct.std::_Hashtable<std::__cxx11::basic_string<char>, std::pair<const std::__cxx11::basic_string<char>, facebook::velox::exec::SignatureVariable>, std::allocator<std::pair<const std::__cxx11::basic_string<char>, facebook::velox::exec::SignatureVariable>>, std::__detail::_Select1st, std::equal_to<std::__cxx11::basic_string<char>>, std::hash<string>, std::__detail::_Mod_range_hashing, std::__detail::_Default_ranged_hash, std::__detail::_Prime_rehash_policy, std::__detail::_Hashtable_traits<true, false, true>>::_Scoped_node" = type { ptr, ptr }
%"struct.std::pair.60" = type { i8, i64 }
%"class.std::vector.62" = type { %"struct.std::_Vector_base.63" }
%"struct.std::_Vector_base.63" = type { %"struct.std::_Vector_base<unsigned long, std::allocator<unsigned long>>::_Vector_impl" }
%"struct.std::_Vector_base<unsigned long, std::allocator<unsigned long>>::_Vector_impl" = type { %"struct.std::_Vector_base<unsigned long, std::allocator<unsigned long>>::_Vector_impl_data" }
%"struct.std::_Vector_base<unsigned long, std::allocator<unsigned long>>::_Vector_impl_data" = type { ptr, ptr, ptr }
%"class.std::optional.64" = type { %"struct.std::_Optional_base.65" }
%"struct.std::_Optional_base.65" = type { %"struct.std::_Optional_payload.67" }
%"struct.std::_Optional_payload.67" = type { %"struct.std::_Optional_payload.base.71", [7 x i8] }
%"struct.std::_Optional_payload.base.71" = type { %"struct.std::_Optional_payload_base.base.70" }
%"struct.std::_Optional_payload_base.base.70" = type <{ %"union.std::_Optional_payload_base<std::vector<unsigned long>>::_Storage", i8 }>
%"union.std::_Optional_payload_base<std::vector<unsigned long>>::_Storage" = type { %"class.std::vector.62" }
%"class.std::__shared_ptr.75" = type { ptr, %"class.std::__shared_count" }
%"class.facebook::velox::Type" = type <{ %"class.facebook::velox::Tree", %"class.facebook::velox::ISerializable", i8, [7 x i8] }>
%"class.facebook::velox::Tree" = type { ptr }
%"class.facebook::velox::ISerializable" = type { ptr }
%"class.boost::intrusive_ptr" = type { ptr }
%"class.facebook::velox::exec::DecodedArgs" = type { %"class.std::vector.119" }
%"class.std::vector.119" = type { %"struct.std::_Vector_base.120" }
%"struct.std::_Vector_base.120" = type { %"struct.std::_Vector_base<facebook::velox::exec::LocalDecodedVector, std::allocator<facebook::velox::exec::LocalDecodedVector>>::_Vector_impl" }
%"struct.std::_Vector_base<facebook::velox::exec::LocalDecodedVector, std::allocator<facebook::velox::exec::LocalDecodedVector>>::_Vector_impl" = type { %"struct.std::_Vector_base<facebook::velox::exec::LocalDecodedVector, std::allocator<facebook::velox::exec::LocalDecodedVector>>::_Vector_impl_data" }
%"struct.std::_Vector_base<facebook::velox::exec::LocalDecodedVector, std::allocator<facebook::velox::exec::LocalDecodedVector>>::_Vector_impl_data" = type { ptr, ptr, ptr }
%"class.std::set" = type { %"class.std::_Rb_tree" }
%"class.std::_Rb_tree" = type { %"struct.std::_Rb_tree<unsigned long, unsigned long, std::_Identity<unsigned long>, std::less<unsigned long>>::_Rb_tree_impl" }
%"struct.std::_Rb_tree<unsigned long, unsigned long, std::_Identity<unsigned long>, std::less<unsigned long>>::_Rb_tree_impl" = type { %"struct.std::_Rb_tree_key_compare", %"struct.std::_Rb_tree_header" }
%"struct.std::_Rb_tree_key_compare" = type { %"struct.std::less" }
%"struct.std::less" = type { i8 }
%"struct.std::_Rb_tree_header" = type { %"struct.std::_Rb_tree_node_base", i64 }
%"struct.std::_Rb_tree_node_base" = type { i32, ptr, ptr, ptr }
%class.anon = type { ptr, ptr, ptr, ptr, ptr }
%class.anon.231 = type { ptr, ptr, ptr, ptr, ptr }
%class.anon.246 = type { ptr, ptr, ptr, ptr, ptr }
%class.anon.254 = type { ptr, ptr, ptr, ptr, ptr }
%class.anon.269 = type { ptr, ptr, ptr, ptr, ptr }
%class.anon.284 = type { ptr, ptr, ptr, ptr, ptr }
%class.anon.300 = type { ptr, ptr, ptr, ptr, ptr }
%class.anon.315 = type { ptr, ptr, ptr, ptr, ptr }
%class.anon.332 = type { ptr, ptr, ptr, ptr, ptr }
%"struct.std::_Rb_tree_const_iterator" = type { ptr }
%class.anon.347 = type { ptr, ptr, ptr, ptr, ptr }
%"class.facebook::velox::exec::EvalCtx" = type { ptr, ptr, ptr, i8, i8, %"class.std::vector.83", %"class.std::shared_ptr.88", i8, i8, i8, ptr, %"class.std::shared_ptr.91" }
%"class.std::vector.83" = type { %"struct.std::_Vector_base.84" }
%"struct.std::_Vector_base.84" = type { %"struct.std::_Vector_base<std::shared_ptr<facebook::velox::BaseVector>, std::allocator<std::shared_ptr<facebook::velox::BaseVector>>>::_Vector_impl" }
%"struct.std::_Vector_base<std::shared_ptr<facebook::velox::BaseVector>, std::allocator<std::shared_ptr<facebook::velox::BaseVector>>>::_Vector_impl" = type { %"struct.std::_Vector_base<std::shared_ptr<facebook::velox::BaseVector>, std::allocator<std::shared_ptr<facebook::velox::BaseVector>>>::_Vector_impl_data" }
%"struct.std::_Vector_base<std::shared_ptr<facebook::velox::BaseVector>, std::allocator<std::shared_ptr<facebook::velox::BaseVector>>>::_Vector_impl_data" = type { ptr, ptr, ptr }
%"class.std::shared_ptr.88" = type { %"class.std::__shared_ptr.89" }
%"class.std::__shared_ptr.89" = type { ptr, %"class.std::__shared_count" }
%"class.std::shared_ptr.91" = type { %"class.std::__shared_ptr.92" }
%"class.std::__shared_ptr.92" = type { ptr, %"class.std::__shared_count" }
%"class.std::optional.77" = type { %"struct.std::_Optional_base.78" }
%"struct.std::_Optional_base.78" = type { %"struct.std::_Optional_payload.80" }
%"struct.std::_Optional_payload.80" = type { %"struct.std::_Optional_payload_base.81" }
%"struct.std::_Optional_payload_base.81" = type { %"union.std::_Optional_payload_base<bool>::_Storage", i8 }
%"union.std::_Optional_payload_base<bool>::_Storage" = type { %"struct.std::_Optional_payload_base<bool>::_Empty_byte" }
%"struct.std::_Optional_payload_base<bool>::_Empty_byte" = type { i8 }
%"class.facebook::velox::FlatVector" = type { %"class.facebook::velox::SimpleVector", %"class.boost::intrusive_ptr", ptr, %"class.std::vector.105", %"class.folly::F14FastSet" }
%"class.facebook::velox::SimpleVector" = type { %"class.facebook::velox::BaseVector.base", %"class.std::optional.77", i8, i32, %"struct.facebook::velox::SimpleVectorStats" }
%"class.facebook::velox::BaseVector.base" = type <{ ptr, %"class.std::shared_ptr.74", i8, [3 x i8], i32, %"class.boost::intrusive_ptr", ptr, ptr, i32, %"class.std::optional.97", %"class.std::optional.97", %"class.std::optional.97", %"class.std::optional.97", i32, i8, i8, i8 }>
%"class.std::shared_ptr.74" = type { %"class.std::__shared_ptr.75" }
%"class.std::optional.97" = type { %"struct.std::_Optional_base.98" }
%"struct.std::_Optional_base.98" = type { %"struct.std::_Optional_payload.100" }
%"struct.std::_Optional_payload.100" = type { %"struct.std::_Optional_payload_base.base.102", [3 x i8] }
%"struct.std::_Optional_payload_base.base.102" = type <{ %"union.std::_Optional_payload_base<int>::_Storage", i8 }>
%"union.std::_Optional_payload_base<int>::_Storage" = type { i32 }
%"struct.facebook::velox::SimpleVectorStats" = type { %"class.std::optional.77", %"class.std::optional.77" }
%"class.std::vector.105" = type { %"struct.std::_Vector_base.106" }
%"struct.std::_Vector_base.106" = type { %"struct.std::_Vector_base<boost::intrusive_ptr<facebook::velox::Buffer>, std::allocator<boost::intrusive_ptr<facebook::velox::Buffer>>>::_Vector_impl" }
%"struct.std::_Vector_base<boost::intrusive_ptr<facebook::velox::Buffer>, std::allocator<boost::intrusive_ptr<facebook::velox::Buffer>>>::_Vector_impl" = type { %"struct.std::_Vector_base<boost::intrusive_ptr<facebook::velox::Buffer>, std::allocator<boost::intrusive_ptr<facebook::velox::Buffer>>>::_Vector_impl_data" }
%"struct.std::_Vector_base<boost::intrusive_ptr<facebook::velox::Buffer>, std::allocator<boost::intrusive_ptr<facebook::velox::Buffer>>>::_Vector_impl_data" = type { ptr, ptr, ptr }
%"class.folly::F14FastSet" = type { %"class.folly::F14ValueSet" }
%"class.folly::F14ValueSet" = type { %"class.folly::f14::detail::F14BasicSet" }
%"class.folly::f14::detail::F14BasicSet" = type { %"class.folly::f14::detail::F14Table" }
%"class.folly::f14::detail::F14Table" = type { ptr, i64, %"struct.folly::f14::detail::SizeAndPackedBegin" }
%"struct.folly::f14::detail::SizeAndPackedBegin" = type { i64, %"class.folly::f14::detail::PackedChunkItemPtr" }
%"class.folly::f14::detail::PackedChunkItemPtr" = type { i64 }
%"class.facebook::velox::SelectivityVector" = type <{ %"class.std::vector.62", i32, i32, i32, %"class.std::optional.77", [2 x i8] }>
%"class.facebook::velox::Buffer" = type { ptr, ptr, ptr, i64, i64, %"struct.std::atomic", i8, [2 x i64] }
%"struct.std::atomic" = type { %"struct.std::__atomic_base" }
%"struct.std::__atomic_base" = type { i32 }
%"class.__gnu_cxx::__normal_iterator.173" = type { ptr }
%class.anon.198 = type { ptr, ptr }
%"class.facebook::velox::core::ExecCtx" = type { ptr, ptr, i8, %"class.std::vector.128", %"class.std::vector.133", %"class.std::unique_ptr.138" }
%"class.std::vector.128" = type { %"struct.std::_Vector_base.129" }
%"struct.std::_Vector_base.129" = type { %"struct.std::_Vector_base<std::unique_ptr<facebook::velox::DecodedVector>, std::allocator<std::unique_ptr<facebook::velox::DecodedVector>>>::_Vector_impl" }
%"struct.std::_Vector_base<std::unique_ptr<facebook::velox::DecodedVector>, std::allocator<std::unique_ptr<facebook::velox::DecodedVector>>>::_Vector_impl" = type { %"struct.std::_Vector_base<std::unique_ptr<facebook::velox::DecodedVector>, std::allocator<std::unique_ptr<facebook::velox::DecodedVector>>>::_Vector_impl_data" }
%"struct.std::_Vector_base<std::unique_ptr<facebook::velox::DecodedVector>, std::allocator<std::unique_ptr<facebook::velox::DecodedVector>>>::_Vector_impl_data" = type { ptr, ptr, ptr }
%"class.std::vector.133" = type { %"struct.std::_Vector_base.134" }
%"struct.std::_Vector_base.134" = type { %"struct.std::_Vector_base<std::unique_ptr<facebook::velox::SelectivityVector>, std::allocator<std::unique_ptr<facebook::velox::SelectivityVector>>>::_Vector_impl" }
%"struct.std::_Vector_base<std::unique_ptr<facebook::velox::SelectivityVector>, std::allocator<std::unique_ptr<facebook::velox::SelectivityVector>>>::_Vector_impl" = type { %"struct.std::_Vector_base<std::unique_ptr<facebook::velox::SelectivityVector>, std::allocator<std::unique_ptr<facebook::velox::SelectivityVector>>>::_Vector_impl_data" }
%"struct.std::_Vector_base<std::unique_ptr<facebook::velox::SelectivityVector>, std::allocator<std::unique_ptr<facebook::velox::SelectivityVector>>>::_Vector_impl_data" = type { ptr, ptr, ptr }
%"class.std::unique_ptr.138" = type { %"struct.std::__uniq_ptr_data.139" }
%"struct.std::__uniq_ptr_data.139" = type { %"class.std::__uniq_ptr_impl.140" }
%"class.std::__uniq_ptr_impl.140" = type { %"class.std::tuple.141" }
%"class.std::tuple.141" = type { %"struct.std::_Tuple_impl.142" }
%"struct.std::_Tuple_impl.142" = type { %"struct.std::_Head_base.145" }
%"struct.std::_Head_base.145" = type { ptr }
%"class.std::__shared_ptr.95" = type { ptr, %"class.std::__shared_count" }
%"class.std::optional.146" = type { %"struct.std::_Optional_base.147" }
%"struct.std::_Optional_base.147" = type { %"struct.std::_Optional_payload.149" }
%"struct.std::_Optional_payload.149" = type { %"struct.std::_Optional_payload_base.150" }
%"struct.std::_Optional_payload_base.150" = type { %"union.std::_Optional_payload_base<char>::_Storage", i8 }
%"union.std::_Optional_payload_base<char>::_Storage" = type { %"struct.std::_Optional_payload_base<char>::_Empty_byte" }
%"struct.std::_Optional_payload_base<char>::_Empty_byte" = type { i8 }
%"class.facebook::velox::BaseVector" = type <{ ptr, %"class.std::shared_ptr.74", i8, [3 x i8], i32, %"class.boost::intrusive_ptr", ptr, ptr, i32, %"class.std::optional.97", %"class.std::optional.97", %"class.std::optional.97", %"class.std::optional.97", i32, i8, i8, i8, [5 x i8] }>
%"class.__gnu_cxx::__normal_iterator.182" = type { ptr }
%"class.facebook::velox::exec::LocalDecodedVector" = type { %"class.std::reference_wrapper", %"class.std::unique_ptr.174" }
%"class.std::reference_wrapper" = type { ptr }
%"class.std::unique_ptr.174" = type { %"struct.std::__uniq_ptr_data.175" }
%"struct.std::__uniq_ptr_data.175" = type { %"class.std::__uniq_ptr_impl.176" }
%"class.std::__uniq_ptr_impl.176" = type { %"class.std::tuple.177" }
%"class.std::tuple.177" = type { %"struct.std::_Tuple_impl.178" }
%"struct.std::_Tuple_impl.178" = type { %"struct.std::_Head_base.181" }
%"struct.std::_Head_base.181" = type { ptr }
%"class.std::shared_ptr.94" = type { %"class.std::__shared_ptr.95" }
%"class.__gnu_cxx::__normal_iterator.196" = type { ptr }
%"class.__gnu_cxx::__normal_iterator.197" = type { ptr }
%"class.facebook::velox::DecodedVector" = type { i32, ptr, ptr, ptr, %"class.std::optional.183", ptr, i8, i8, i8, i8, i8, i32, %"class.std::vector.191", %"class.std::vector.62" }
%"class.std::optional.183" = type { %"struct.std::_Optional_base.184" }
%"struct.std::_Optional_base.184" = type { %"struct.std::_Optional_payload.186" }
%"struct.std::_Optional_payload.186" = type { %"struct.std::_Optional_payload_base.base.188", [7 x i8] }
%"struct.std::_Optional_payload_base.base.188" = type <{ %"union.std::_Optional_payload_base<const unsigned long *>::_Storage", i8 }>
%"union.std::_Optional_payload_base<const unsigned long *>::_Storage" = type { ptr }
%"class.std::vector.191" = type { %"struct.std::_Vector_base.192" }
%"struct.std::_Vector_base.192" = type { %"struct.std::_Vector_base<int, std::allocator<int>>::_Vector_impl" }
%"struct.std::_Vector_base<int, std::allocator<int>>::_Vector_impl" = type { %"struct.std::_Vector_base<int, std::allocator<int>>::_Vector_impl_data" }
%"struct.std::_Vector_base<int, std::allocator<int>>::_Vector_impl_data" = type { ptr, ptr, ptr }
%"struct.std::_Optional_payload_base.187" = type <{ %"union.std::_Optional_payload_base<const unsigned long *>::_Storage", i8, [7 x i8] }>
%"class.std::__exception_ptr::exception_ptr" = type { ptr }
%class.anon.199 = type { ptr, i64 }
%class.anon.200 = type { ptr, i64 }
%"struct.std::pair.204" = type <{ %"struct.std::_Rb_tree_const_iterator", i8, [7 x i8] }>
%"class.folly::Range" = type { ptr, ptr }
%"class.facebook::velox::VeloxException" = type { %"class.std::exception", %"class.std::shared_ptr.201" }
%"class.std::exception" = type { ptr }
%"class.std::shared_ptr.201" = type { %"class.std::__shared_ptr.202" }
%"class.std::__shared_ptr.202" = type { ptr, %"class.std::__shared_count" }
%"struct.facebook::velox::VeloxException::State" = type { %"class.std::unique_ptr.212", i32, %"class.std::__cxx11::basic_string", ptr, i64, ptr, %"class.std::__cxx11::basic_string", %"class.std::__cxx11::basic_string", %"class.std::__cxx11::basic_string", %"class.std::__cxx11::basic_string", %"class.std::__cxx11::basic_string", %"class.std::__cxx11::basic_string", i8, %"class.std::__exception_ptr::exception_ptr", %"class.folly::basic_once_flag", %"class.std::__cxx11::basic_string" }
%"class.std::unique_ptr.212" = type { %"struct.std::__uniq_ptr_data.213" }
%"struct.std::__uniq_ptr_data.213" = type { %"class.std::__uniq_ptr_impl.214" }
%"class.std::__uniq_ptr_impl.214" = type { %"class.std::tuple.215" }
%"class.std::tuple.215" = type { %"struct.std::_Tuple_impl.216" }
%"struct.std::_Tuple_impl.216" = type { %"struct.std::_Head_base.219" }
%"struct.std::_Head_base.219" = type { ptr }
%"class.folly::basic_once_flag" = type { %"struct.std::atomic.155", %"class.folly::SharedMutexImpl" }
%"struct.std::atomic.155" = type { %"struct.std::__atomic_base.156" }
%"struct.std::__atomic_base.156" = type { i8 }
%"class.folly::SharedMutexImpl" = type { %"struct.std::atomic.157" }
%"struct.std::atomic.157" = type { %"struct.std::__atomic_base.158" }
%"struct.std::__atomic_base.158" = type { i32 }
%"struct.std::pair.207" = type <{ %"struct.std::_Rb_tree_iterator", i8, [7 x i8] }>
%"struct.std::_Rb_tree_iterator" = type { ptr }
%"struct.std::pair.210" = type { ptr, ptr }
%"struct.std::_Identity" = type { i8 }
%"struct.std::_Rb_tree<unsigned long, unsigned long, std::_Identity<unsigned long>, std::less<unsigned long>>::_Alloc_node" = type { ptr }
%"struct.std::_Rb_tree_node" = type { %"struct.std::_Rb_tree_node_base", %"struct.__gnu_cxx::__aligned_membuf" }
%"struct.__gnu_cxx::__aligned_membuf" = type { [8 x i8] }
%class.anon.220 = type { i8, ptr, %class.anon.198 }
%class.anon.221 = type { i8, ptr, %class.anon.198 }
%"class.std::optional.225" = type { %"struct.std::_Optional_base.226" }
%"struct.std::_Optional_base.226" = type { %"struct.std::_Optional_payload.228" }
%"struct.std::_Optional_payload.228" = type { %"struct.std::_Optional_payload_base.229" }
%"struct.std::_Optional_payload_base.229" = type { %"union.std::_Optional_payload_base<signed char>::_Storage", i8 }
%"union.std::_Optional_payload_base<signed char>::_Storage" = type { %"struct.std::_Optional_payload_base<signed char>::_Empty_byte" }
%"struct.std::_Optional_payload_base<signed char>::_Empty_byte" = type { i8 }
%"class.facebook::velox::FlatVector.222" = type { %"class.facebook::velox::SimpleVector.223", %"class.boost::intrusive_ptr", ptr, %"class.std::vector.105", %"class.folly::F14FastSet" }
%"class.facebook::velox::SimpleVector.223" = type { %"class.facebook::velox::BaseVector.base", %"class.std::optional.77", i8, i32, %"struct.facebook::velox::SimpleVectorStats.224" }
%"struct.facebook::velox::SimpleVectorStats.224" = type { %"class.std::optional.225", %"class.std::optional.225" }
%class.anon.232 = type { ptr, ptr }
%class.anon.233 = type { i8, ptr, %class.anon.232 }
%class.anon.234 = type { i8, ptr, %class.anon.232 }
%"class.std::optional.238" = type { %"struct.std::_Optional_base.239" }
%"struct.std::_Optional_base.239" = type { %"struct.std::_Optional_payload.241" }
%"struct.std::_Optional_payload.241" = type { %"struct.std::_Optional_payload_base.base.243", i8 }
%"struct.std::_Optional_payload_base.base.243" = type <{ %"union.std::_Optional_payload_base<short>::_Storage", i8 }>
%"union.std::_Optional_payload_base<short>::_Storage" = type { i16 }
%"class.facebook::velox::FlatVector.235" = type { %"class.facebook::velox::SimpleVector.base", %"class.boost::intrusive_ptr", ptr, %"class.std::vector.105", %"class.folly::F14FastSet" }
%"class.facebook::velox::SimpleVector.base" = type { %"class.facebook::velox::BaseVector.base", %"class.std::optional.77", i8, i32, %"struct.facebook::velox::SimpleVectorStats.237" }
%"struct.facebook::velox::SimpleVectorStats.237" = type { %"class.std::optional.238", %"class.std::optional.238" }
%class.anon.247 = type { ptr, ptr }
%"struct.std::_Optional_payload_base.242" = type <{ %"union.std::_Optional_payload_base<short>::_Storage", i8, i8 }>
%class.anon.248 = type { i8, ptr, %class.anon.247 }
%class.anon.249 = type { i8, ptr, %class.anon.247 }
%"class.facebook::velox::FlatVector.250" = type { %"class.facebook::velox::SimpleVector.base.253", %"class.boost::intrusive_ptr", ptr, %"class.std::vector.105", %"class.folly::F14FastSet" }
%"class.facebook::velox::SimpleVector.base.253" = type { %"class.facebook::velox::BaseVector.base", %"class.std::optional.77", i8, i32, %"struct.facebook::velox::SimpleVectorStats.252" }
%"struct.facebook::velox::SimpleVectorStats.252" = type { %"class.std::optional.97", %"class.std::optional.97" }
%class.anon.255 = type { ptr, ptr }
%"struct.std::_Optional_payload_base.101" = type <{ %"union.std::_Optional_payload_base<int>::_Storage", i8, [3 x i8] }>
%class.anon.256 = type { i8, ptr, %class.anon.255 }
%class.anon.257 = type { i8, ptr, %class.anon.255 }
%"class.std::optional.261" = type { %"struct.std::_Optional_base.262" }
%"struct.std::_Optional_base.262" = type { %"struct.std::_Optional_payload.264" }
%"struct.std::_Optional_payload.264" = type { %"struct.std::_Optional_payload_base.base.266", [7 x i8] }
%"struct.std::_Optional_payload_base.base.266" = type <{ %"union.std::_Optional_payload_base<long>::_Storage", i8 }>
%"union.std::_Optional_payload_base<long>::_Storage" = type { i64 }
%"class.facebook::velox::FlatVector.258" = type { %"class.facebook::velox::SimpleVector.259", %"class.boost::intrusive_ptr", ptr, %"class.std::vector.105", %"class.folly::F14FastSet" }
%"class.facebook::velox::SimpleVector.259" = type { %"class.facebook::velox::BaseVector.base", %"class.std::optional.77", i8, i32, [4 x i8], %"struct.facebook::velox::SimpleVectorStats.260" }
%"struct.facebook::velox::SimpleVectorStats.260" = type { %"class.std::optional.261", %"class.std::optional.261" }
%class.anon.270 = type { ptr, ptr }
%"struct.std::_Optional_payload_base.265" = type <{ %"union.std::_Optional_payload_base<long>::_Storage", i8, [7 x i8] }>
%class.anon.271 = type { i8, ptr, %class.anon.270 }
%class.anon.272 = type { i8, ptr, %class.anon.270 }
%"class.std::optional.276" = type { %"struct.std::_Optional_base.277" }
%"struct.std::_Optional_base.277" = type { %"struct.std::_Optional_payload.279" }
%"struct.std::_Optional_payload.279" = type { %"struct.std::_Optional_payload_base.base.281", [15 x i8] }
%"struct.std::_Optional_payload_base.base.281" = type <{ %"union.std::_Optional_payload_base<__int128>::_Storage", i8 }>
%"union.std::_Optional_payload_base<__int128>::_Storage" = type { i128 }
%"class.facebook::velox::FlatVector.273" = type { %"class.facebook::velox::SimpleVector.274", %"class.boost::intrusive_ptr", ptr, %"class.std::vector.105", %"class.folly::F14FastSet", [8 x i8] }
%"class.facebook::velox::SimpleVector.274" = type { %"class.facebook::velox::BaseVector.base", %"class.std::optional.77", i8, i32, [4 x i8], %"struct.facebook::velox::SimpleVectorStats.275" }
%"struct.facebook::velox::SimpleVectorStats.275" = type { %"class.std::optional.276", %"class.std::optional.276" }
%class.anon.285 = type { ptr, ptr }
%"struct.std::_Optional_payload_base.280" = type <{ %"union.std::_Optional_payload_base<__int128>::_Storage", i8, [15 x i8] }>
%class.anon.286 = type { i8, ptr, %class.anon.285 }
%class.anon.287 = type { i8, ptr, %class.anon.285 }
%"class.std::optional.291" = type { %"struct.std::_Optional_base.292" }
%"struct.std::_Optional_base.292" = type { %"struct.std::_Optional_payload.294" }
%"struct.std::_Optional_payload.294" = type { %"struct.std::_Optional_payload_base.base.296", [3 x i8] }
%"struct.std::_Optional_payload_base.base.296" = type <{ %"union.std::_Optional_payload_base<float>::_Storage", i8 }>
%"union.std::_Optional_payload_base<float>::_Storage" = type { float }
%"class.facebook::velox::FlatVector.288" = type { %"class.facebook::velox::SimpleVector.base.299", %"class.boost::intrusive_ptr", ptr, %"class.std::vector.105", %"class.folly::F14FastSet" }
%"class.facebook::velox::SimpleVector.base.299" = type { %"class.facebook::velox::BaseVector.base", %"class.std::optional.77", i8, i32, %"struct.facebook::velox::SimpleVectorStats.290" }
%"struct.facebook::velox::SimpleVectorStats.290" = type { %"class.std::optional.291", %"class.std::optional.291" }
%class.anon.301 = type { ptr, ptr }
%"struct.std::_Optional_payload_base.295" = type <{ %"union.std::_Optional_payload_base<float>::_Storage", i8, [3 x i8] }>
%class.anon.302 = type { i8, ptr, %class.anon.301 }
%class.anon.303 = type { i8, ptr, %class.anon.301 }
%"class.std::optional.307" = type { %"struct.std::_Optional_base.308" }
%"struct.std::_Optional_base.308" = type { %"struct.std::_Optional_payload.310" }
%"struct.std::_Optional_payload.310" = type { %"struct.std::_Optional_payload_base.base.312", [7 x i8] }
%"struct.std::_Optional_payload_base.base.312" = type <{ %"union.std::_Optional_payload_base<double>::_Storage", i8 }>
%"union.std::_Optional_payload_base<double>::_Storage" = type { double }
%"class.facebook::velox::FlatVector.304" = type { %"class.facebook::velox::SimpleVector.305", %"class.boost::intrusive_ptr", ptr, %"class.std::vector.105", %"class.folly::F14FastSet" }
%"class.facebook::velox::SimpleVector.305" = type { %"class.facebook::velox::BaseVector.base", %"class.std::optional.77", i8, i32, [4 x i8], %"struct.facebook::velox::SimpleVectorStats.306" }
%"struct.facebook::velox::SimpleVectorStats.306" = type { %"class.std::optional.307", %"class.std::optional.307" }
%class.anon.316 = type { ptr, ptr }
%"struct.std::_Optional_payload_base.311" = type <{ %"union.std::_Optional_payload_base<double>::_Storage", i8, [7 x i8] }>
%class.anon.317 = type { i8, ptr, %class.anon.316 }
%class.anon.318 = type { i8, ptr, %class.anon.316 }
%"class.std::optional.323" = type { %"struct.std::_Optional_base.324" }
%"struct.std::_Optional_base.324" = type { %"struct.std::_Optional_payload.326" }
%"struct.std::_Optional_payload.326" = type { %"struct.std::_Optional_payload_base.base.329", [7 x i8] }
%"struct.std::_Optional_payload_base.base.329" = type <{ %"union.std::_Optional_payload_base<facebook::velox::StringView>::_Storage", i8 }>
%"union.std::_Optional_payload_base<facebook::velox::StringView>::_Storage" = type { %"struct.facebook::velox::StringView" }
%"struct.facebook::velox::StringView" = type { i32, [4 x i8], %union.anon.328 }
%union.anon.328 = type { ptr }
%"class.facebook::velox::FlatVector.319" = type { %"class.facebook::velox::SimpleVector.320", %"class.boost::intrusive_ptr", ptr, %"class.std::vector.105", %"class.folly::F14FastSet" }
%"class.facebook::velox::SimpleVector.320" = type { %"class.facebook::velox::BaseVector.base", %"class.std::optional.77", i8, %"struct.facebook::velox::AsciiInfo", %"struct.facebook::velox::SimpleVectorStats.322" }
%"struct.facebook::velox::AsciiInfo" = type { %"struct.std::atomic.155", [7 x i8], %"struct.folly::Synchronized" }
%"struct.folly::Synchronized" = type { %"class.facebook::velox::SelectivityVector", %"class.folly::SharedMutexImpl", [4 x i8] }
%"struct.facebook::velox::SimpleVectorStats.322" = type { %"class.std::optional.323", %"class.std::optional.323" }
%class.anon.333 = type { ptr, ptr }
%"struct.std::_Optional_payload_base.327" = type <{ %"union.std::_Optional_payload_base<facebook::velox::StringView>::_Storage", i8, [7 x i8] }>
%class.anon.334 = type { i8, ptr, %class.anon.333 }
%class.anon.335 = type { i8, ptr, %class.anon.333 }
%"class.std::optional.339" = type { %"struct.std::_Optional_base.340" }
%"struct.std::_Optional_base.340" = type { %"struct.std::_Optional_payload.342" }
%"struct.std::_Optional_payload.342" = type { %"struct.std::_Optional_payload_base.base.344", [7 x i8] }
%"struct.std::_Optional_payload_base.base.344" = type <{ %"union.std::_Optional_payload_base<facebook::velox::Timestamp>::_Storage", i8 }>
%"union.std::_Optional_payload_base<facebook::velox::Timestamp>::_Storage" = type { %"struct.facebook::velox::Timestamp" }
%"struct.facebook::velox::Timestamp" = type { i64, i64 }
%"class.facebook::velox::FlatVector.336" = type { %"class.facebook::velox::SimpleVector.337", %"class.boost::intrusive_ptr", ptr, %"class.std::vector.105", %"class.folly::F14FastSet" }
%"class.facebook::velox::SimpleVector.337" = type { %"class.facebook::velox::BaseVector.base", %"class.std::optional.77", i8, i32, [4 x i8], %"struct.facebook::velox::SimpleVectorStats.338" }
%"struct.facebook::velox::SimpleVectorStats.338" = type { %"class.std::optional.339", %"class.std::optional.339" }
%class.anon.348 = type { ptr, ptr }
%"struct.std::_Optional_payload_base.343" = type <{ %"union.std::_Optional_payload_base<facebook::velox::Timestamp>::_Storage", i8, [7 x i8] }>
%class.anon.349 = type { i8, ptr, %class.anon.348 }
%class.anon.350 = type { i8, ptr, %class.anon.348 }
%"struct.std::_Optional_payload_base.69" = type <{ %"union.std::_Optional_payload_base<std::vector<unsigned long>>::_Storage", i8, [7 x i8] }>
%class.anon.356 = type { ptr, ptr, ptr, ptr, ptr }
%class.anon.360 = type { ptr, ptr, ptr, ptr, ptr }
%class.anon.364 = type { ptr, ptr, ptr, ptr, ptr }
%class.anon.368 = type { ptr, ptr, ptr, ptr, ptr }
%class.anon.372 = type { ptr, ptr, ptr, ptr, ptr }
%class.anon.376 = type { ptr, ptr, ptr, ptr, ptr }
%class.anon.380 = type { ptr, ptr, ptr, ptr, ptr }
%class.anon.384 = type { ptr, ptr, ptr, ptr, ptr }
%class.anon.388 = type { ptr, ptr, ptr, ptr, ptr }
%class.anon.392 = type { ptr, ptr, ptr, ptr, ptr }
%class.anon.357 = type { ptr, ptr }
%class.anon.358 = type { i8, ptr, %class.anon.357 }
%class.anon.359 = type { i8, ptr, %class.anon.357 }
%class.anon.361 = type { ptr, ptr }
%class.anon.362 = type { i8, ptr, %class.anon.361 }
%class.anon.363 = type { i8, ptr, %class.anon.361 }
%class.anon.365 = type { ptr, ptr }
%class.anon.366 = type { i8, ptr, %class.anon.365 }
%class.anon.367 = type { i8, ptr, %class.anon.365 }
%class.anon.369 = type { ptr, ptr }
%class.anon.370 = type { i8, ptr, %class.anon.369 }
%class.anon.371 = type { i8, ptr, %class.anon.369 }
%class.anon.373 = type { ptr, ptr }
%class.anon.374 = type { i8, ptr, %class.anon.373 }
%class.anon.375 = type { i8, ptr, %class.anon.373 }
%class.anon.377 = type { ptr, ptr }
%class.anon.378 = type { i8, ptr, %class.anon.377 }
%class.anon.379 = type { i8, ptr, %class.anon.377 }
%class.anon.381 = type { ptr, ptr }
%class.anon.382 = type { i8, ptr, %class.anon.381 }
%class.anon.383 = type { i8, ptr, %class.anon.381 }
%class.anon.385 = type { ptr, ptr }
%class.anon.386 = type { i8, ptr, %class.anon.385 }
%class.anon.387 = type { i8, ptr, %class.anon.385 }
%class.anon.389 = type { ptr, ptr }
%class.anon.390 = type { i8, ptr, %class.anon.389 }
%class.anon.391 = type { i8, ptr, %class.anon.389 }
%class.anon.393 = type { ptr, ptr }
%class.anon.394 = type { i8, ptr, %class.anon.393 }
%class.anon.395 = type { i8, ptr, %class.anon.393 }

$_ZNSt10unique_ptrIN8facebook5velox4exec14VectorFunctionESt14default_deleteIS3_EED2Ev = comdat any

$_ZNSt6vectorISt10shared_ptrIN8facebook5velox4exec17FunctionSignatureEESaIS5_EED2Ev = comdat any

$_ZNSt7__cxx1112basic_stringIcSt11char_traitsIcESaIcEEC2IS3_EEPKcRKS3_ = comdat any

$_ZNSaINSt7__cxx1112basic_stringIcSt11char_traitsIcESaIcEEEEC2Ev = comdat any

$_ZNSt6vectorINSt7__cxx1112basic_stringIcSt11char_traitsIcESaIcEEESaIS5_EEC2ESt16initializer_listIS5_ERKS6_ = comdat any

$_ZNSaINSt7__cxx1112basic_stringIcSt11char_traitsIcESaIcEEEED2Ev = comdat any

$_ZNSt6vectorISt10shared_ptrIN8facebook5velox4exec17FunctionSignatureEESaIS5_EEC2Ev = comdat any

$_ZNKSt6vectorINSt7__cxx1112basic_stringIcSt11char_traitsIcESaIcEEESaIS5_EE5beginEv = comdat any

$_ZNKSt6vectorINSt7__cxx1112basic_stringIcSt11char_traitsIcESaIcEEESaIS5_EE3endEv = comdat any

$_ZN9__gnu_cxxneIPKNSt7__cxx1112basic_stringIcSt11char_traitsIcESaIcEEESt6vectorIS6_SaIS6_EEEEbRKNS_17__normal_iteratorIT_T0_EESH_ = comdat any

$_ZNK9__gnu_cxx17__normal_iteratorIPKNSt7__cxx1112basic_stringIcSt11char_traitsIcESaIcEEESt6vectorIS6_SaIS6_EEEdeEv = comdat any

$_ZNSt6vectorISt10shared_ptrIN8facebook5velox4exec17FunctionSignatureEESaIS5_EE12emplace_backIJS5_EEERS5_DpOT_ = comdat any

$_ZN8facebook5velox4exec24FunctionSignatureBuilderC2Ev = comdat any

$_ZN8facebook5velox4exec24FunctionSignatureBuilder10returnTypeERKNSt7__cxx1112basic_stringIcSt11char_traitsIcESaIcEEE = comdat any

$_ZN8facebook5velox4exec24FunctionSignatureBuilder12argumentTypeERKNSt7__cxx1112basic_stringIcSt11char_traitsIcESaIcEEE = comdat any

$_ZN8facebook5velox4exec24FunctionSignatureBuilder13variableArityEv = comdat any

$_ZNSt10shared_ptrIN8facebook5velox4exec17FunctionSignatureEED2Ev = comdat any

$_ZN8facebook5velox4exec24FunctionSignatureBuilderD2Ev = comdat any

$_ZN9__gnu_cxx17__normal_iteratorIPKNSt7__cxx1112basic_stringIcSt11char_traitsIcESaIcEEESt6vectorIS6_SaIS6_EEEppEv = comdat any

$_ZN8facebook5velox4exec24FunctionSignatureBuilder15integerVariableERKNSt7__cxx1112basic_stringIcSt11char_traitsIcESaIcEEESt8optionalIS8_E = comdat any

$_ZNSt8optionalINSt7__cxx1112basic_stringIcSt11char_traitsIcESaIcEEEEC2ESt9nullopt_t = comdat any

$_ZNSt8optionalINSt7__cxx1112basic_stringIcSt11char_traitsIcESaIcEEEED2Ev = comdat any

$_ZNSt6vectorINSt7__cxx1112basic_stringIcSt11char_traitsIcESaIcEEESaIS5_EED2Ev = comdat any

$_ZNSt11char_traitsIcE6lengthEPKc = comdat any

$_ZNSt7__cxx1112basic_stringIcSt11char_traitsIcESaIcEE12_M_constructIPKcEEvT_S8_St20forward_iterator_tag = comdat any

$_ZNSt7__cxx1112basic_stringIcSt11char_traitsIcESaIcEE12_Alloc_hiderD2Ev = comdat any

$_ZSt8distanceIPKcENSt15iterator_traitsIT_E15difference_typeES3_S3_ = comdat any

$_ZZNSt7__cxx1112basic_stringIcSt11char_traitsIcESaIcEE12_M_constructIPKcEEvT_S8_St20forward_iterator_tagEN6_GuardC2EPS4_ = comdat any

$_ZZNSt7__cxx1112basic_stringIcSt11char_traitsIcESaIcEE12_M_constructIPKcEEvT_S8_St20forward_iterator_tagEN6_GuardD2Ev = comdat any

$_ZSt10__distanceIPKcENSt15iterator_traitsIT_E15difference_typeES3_S3_St26random_access_iterator_tag = comdat any

$_ZSt19__iterator_categoryIPKcENSt15iterator_traitsIT_E17iterator_categoryERKS3_ = comdat any

$__clang_call_terminate = comdat any

$_ZNSt15__new_allocatorINSt7__cxx1112basic_stringIcSt11char_traitsIcESaIcEEEEC2Ev = comdat any

$_ZNSt12_Vector_baseINSt7__cxx1112basic_stringIcSt11char_traitsIcESaIcEEESaIS5_EEC2ERKS6_ = comdat any

$_ZNSt6vectorINSt7__cxx1112basic_stringIcSt11char_traitsIcESaIcEEESaIS5_EE19_M_range_initializeIPKS5_EEvT_SB_St20forward_iterator_tag = comdat any

$_ZNKSt16initializer_listINSt7__cxx1112basic_stringIcSt11char_traitsIcESaIcEEEE5beginEv = comdat any

$_ZNKSt16initializer_listINSt7__cxx1112basic_stringIcSt11char_traitsIcESaIcEEEE3endEv = comdat any

$_ZNSt12_Vector_baseINSt7__cxx1112basic_stringIcSt11char_traitsIcESaIcEEESaIS5_EED2Ev = comdat any

$_ZNSt12_Vector_baseINSt7__cxx1112basic_stringIcSt11char_traitsIcESaIcEEESaIS5_EE12_Vector_implC2ERKS6_ = comdat any

$_ZNSt12_Vector_baseINSt7__cxx1112basic_stringIcSt11char_traitsIcESaIcEEESaIS5_EE17_Vector_impl_dataC2Ev = comdat any

$_ZNSt15__new_allocatorINSt7__cxx1112basic_stringIcSt11char_traitsIcESaIcEEEEC2ERKS6_ = comdat any

$_ZSt8distanceIPKNSt7__cxx1112basic_stringIcSt11char_traitsIcESaIcEEEENSt15iterator_traitsIT_E15difference_typeES9_S9_ = comdat any

$_ZNSt12_Vector_baseINSt7__cxx1112basic_stringIcSt11char_traitsIcESaIcEEESaIS5_EE11_M_allocateEm = comdat any

$_ZNSt6vectorINSt7__cxx1112basic_stringIcSt11char_traitsIcESaIcEEESaIS5_EE17_S_check_init_lenEmRKS6_ = comdat any

$_ZNSt12_Vector_baseINSt7__cxx1112basic_stringIcSt11char_traitsIcESaIcEEESaIS5_EE19_M_get_Tp_allocatorEv = comdat any

$_ZSt22__uninitialized_copy_aIPKNSt7__cxx1112basic_stringIcSt11char_traitsIcESaIcEEEPS5_S5_ET0_T_SA_S9_RSaIT1_E = comdat any

$_ZSt10__distanceIPKNSt7__cxx1112basic_stringIcSt11char_traitsIcESaIcEEEENSt15iterator_traitsIT_E15difference_typeES9_S9_St26random_access_iterator_tag = comdat any

$_ZSt19__iterator_categoryIPKNSt7__cxx1112basic_stringIcSt11char_traitsIcESaIcEEEENSt15iterator_traitsIT_E17iterator_categoryERKS9_ = comdat any

$_ZNSt16allocator_traitsISaINSt7__cxx1112basic_stringIcSt11char_traitsIcESaIcEEEEE8allocateERS6_m = comdat any

$_ZNSt15__new_allocatorINSt7__cxx1112basic_stringIcSt11char_traitsIcESaIcEEEE8allocateEmPKv = comdat any

$_ZNKSt15__new_allocatorINSt7__cxx1112basic_stringIcSt11char_traitsIcESaIcEEEE11_M_max_sizeEv = comdat any

$_ZNSt6vectorINSt7__cxx1112basic_stringIcSt11char_traitsIcESaIcEEESaIS5_EE11_S_max_sizeERKS6_ = comdat any

$_ZNSaINSt7__cxx1112basic_stringIcSt11char_traitsIcESaIcEEEEC2ERKS5_ = comdat any

$_ZNSt16allocator_traitsISaINSt7__cxx1112basic_stringIcSt11char_traitsIcESaIcEEEEE8max_sizeERKS6_ = comdat any

$_ZSt3minImERKT_S2_S2_ = comdat any

$_ZNKSt15__new_allocatorINSt7__cxx1112basic_stringIcSt11char_traitsIcESaIcEEEE8max_sizeEv = comdat any

$_ZSt18uninitialized_copyIPKNSt7__cxx1112basic_stringIcSt11char_traitsIcESaIcEEEPS5_ET0_T_SA_S9_ = comdat any

$_ZNSt20__uninitialized_copyILb0EE13__uninit_copyIPKNSt7__cxx1112basic_stringIcSt11char_traitsIcESaIcEEEPS7_EET0_T_SC_SB_ = comdat any

$_ZSt16__do_uninit_copyIPKNSt7__cxx1112basic_stringIcSt11char_traitsIcESaIcEEEPS5_ET0_T_SA_S9_ = comdat any

$_ZSt10_ConstructINSt7__cxx1112basic_stringIcSt11char_traitsIcESaIcEEEJRKS5_EEvPT_DpOT0_ = comdat any

$_ZSt8_DestroyIPNSt7__cxx1112basic_stringIcSt11char_traitsIcESaIcEEEEvT_S7_ = comdat any

$_ZNSt12_Destroy_auxILb0EE9__destroyIPNSt7__cxx1112basic_stringIcSt11char_traitsIcESaIcEEEEEvT_S9_ = comdat any

$_ZSt8_DestroyINSt7__cxx1112basic_stringIcSt11char_traitsIcESaIcEEEEvPT_ = comdat any

$_ZNKSt16initializer_listINSt7__cxx1112basic_stringIcSt11char_traitsIcESaIcEEEE4sizeEv = comdat any

$_ZNSt12_Vector_baseINSt7__cxx1112basic_stringIcSt11char_traitsIcESaIcEEESaIS5_EE13_M_deallocateEPS5_m = comdat any

$_ZNSt12_Vector_baseINSt7__cxx1112basic_stringIcSt11char_traitsIcESaIcEEESaIS5_EE12_Vector_implD2Ev = comdat any

$_ZNSt16allocator_traitsISaINSt7__cxx1112basic_stringIcSt11char_traitsIcESaIcEEEEE10deallocateERS6_PS5_m = comdat any

$_ZNSt15__new_allocatorINSt7__cxx1112basic_stringIcSt11char_traitsIcESaIcEEEE10deallocateEPS5_m = comdat any

$_ZNSt15__new_allocatorINSt7__cxx1112basic_stringIcSt11char_traitsIcESaIcEEEED2Ev = comdat any

$_ZNSt12_Vector_baseISt10shared_ptrIN8facebook5velox4exec17FunctionSignatureEESaIS5_EEC2Ev = comdat any

$_ZNSt12_Vector_baseISt10shared_ptrIN8facebook5velox4exec17FunctionSignatureEESaIS5_EE12_Vector_implC2Ev = comdat any

$_ZNSaISt10shared_ptrIN8facebook5velox4exec17FunctionSignatureEEEC2Ev = comdat any

$_ZNSt12_Vector_baseISt10shared_ptrIN8facebook5velox4exec17FunctionSignatureEESaIS5_EE17_Vector_impl_dataC2Ev = comdat any

$_ZNSt15__new_allocatorISt10shared_ptrIN8facebook5velox4exec17FunctionSignatureEEEC2Ev = comdat any

$_ZN9__gnu_cxx17__normal_iteratorIPKNSt7__cxx1112basic_stringIcSt11char_traitsIcESaIcEEESt6vectorIS6_SaIS6_EEEC2ERKS8_ = comdat any

$_ZNK9__gnu_cxx17__normal_iteratorIPKNSt7__cxx1112basic_stringIcSt11char_traitsIcESaIcEEESt6vectorIS6_SaIS6_EEE4baseEv = comdat any

$_ZNSt16allocator_traitsISaISt10shared_ptrIN8facebook5velox4exec17FunctionSignatureEEEE9constructIS5_JS5_EEEvRS6_PT_DpOT0_ = comdat any

$_ZNSt6vectorISt10shared_ptrIN8facebook5velox4exec17FunctionSignatureEESaIS5_EE17_M_realloc_insertIJS5_EEEvN9__gnu_cxx17__normal_iteratorIPS5_S7_EEDpOT_ = comdat any

$_ZNSt6vectorISt10shared_ptrIN8facebook5velox4exec17FunctionSignatureEESaIS5_EE3endEv = comdat any

$_ZNSt6vectorISt10shared_ptrIN8facebook5velox4exec17FunctionSignatureEESaIS5_EE4backEv = comdat any

$_ZNSt15__new_allocatorISt10shared_ptrIN8facebook5velox4exec17FunctionSignatureEEE9constructIS5_JS5_EEEvPT_DpOT0_ = comdat any

$_ZNSt10shared_ptrIN8facebook5velox4exec17FunctionSignatureEEC2EOS4_ = comdat any

$_ZNSt12__shared_ptrIN8facebook5velox4exec17FunctionSignatureELN9__gnu_cxx12_Lock_policyE2EEC2EOS6_ = comdat any

$_ZNSt14__shared_countILN9__gnu_cxx12_Lock_policyE2EEC2Ev = comdat any

$_ZNSt14__shared_countILN9__gnu_cxx12_Lock_policyE2EE7_M_swapERS2_ = comdat any

$_ZNKSt6vectorISt10shared_ptrIN8facebook5velox4exec17FunctionSignatureEESaIS5_EE12_M_check_lenEmPKc = comdat any

$_ZN9__gnu_cxxmiIPSt10shared_ptrIN8facebook5velox4exec17FunctionSignatureEESt6vectorIS6_SaIS6_EEEENS_17__normal_iteratorIT_T0_E15difference_typeERKSE_SH_ = comdat any

$_ZNSt6vectorISt10shared_ptrIN8facebook5velox4exec17FunctionSignatureEESaIS5_EE5beginEv = comdat any

$_ZNSt12_Vector_baseISt10shared_ptrIN8facebook5velox4exec17FunctionSignatureEESaIS5_EE11_M_allocateEm = comdat any

$_ZNSt6vectorISt10shared_ptrIN8facebook5velox4exec17FunctionSignatureEESaIS5_EE11_S_relocateEPS5_S8_S8_RS6_ = comdat any

$_ZNK9__gnu_cxx17__normal_iteratorIPSt10shared_ptrIN8facebook5velox4exec17FunctionSignatureEESt6vectorIS6_SaIS6_EEE4baseEv = comdat any

$_ZNSt12_Vector_baseISt10shared_ptrIN8facebook5velox4exec17FunctionSignatureEESaIS5_EE19_M_get_Tp_allocatorEv = comdat any

$_ZNSt12_Vector_baseISt10shared_ptrIN8facebook5velox4exec17FunctionSignatureEESaIS5_EE13_M_deallocateEPS5_m = comdat any

$_ZNKSt6vectorISt10shared_ptrIN8facebook5velox4exec17FunctionSignatureEESaIS5_EE8max_sizeEv = comdat any

$_ZNKSt6vectorISt10shared_ptrIN8facebook5velox4exec17FunctionSignatureEESaIS5_EE4sizeEv = comdat any

$_ZSt3maxImERKT_S2_S2_ = comdat any

$_ZNSt6vectorISt10shared_ptrIN8facebook5velox4exec17FunctionSignatureEESaIS5_EE11_S_max_sizeERKS6_ = comdat any

$_ZNKSt12_Vector_baseISt10shared_ptrIN8facebook5velox4exec17FunctionSignatureEESaIS5_EE19_M_get_Tp_allocatorEv = comdat any

$_ZNSt16allocator_traitsISaISt10shared_ptrIN8facebook5velox4exec17FunctionSignatureEEEE8max_sizeERKS6_ = comdat any

$_ZNKSt15__new_allocatorISt10shared_ptrIN8facebook5velox4exec17FunctionSignatureEEE8max_sizeEv = comdat any

$_ZNKSt15__new_allocatorISt10shared_ptrIN8facebook5velox4exec17FunctionSignatureEEE11_M_max_sizeEv = comdat any

$_ZN9__gnu_cxx17__normal_iteratorIPSt10shared_ptrIN8facebook5velox4exec17FunctionSignatureEESt6vectorIS6_SaIS6_EEEC2ERKS7_ = comdat any

$_ZNSt16allocator_traitsISaISt10shared_ptrIN8facebook5velox4exec17FunctionSignatureEEEE8allocateERS6_m = comdat any

$_ZNSt15__new_allocatorISt10shared_ptrIN8facebook5velox4exec17FunctionSignatureEEE8allocateEmPKv = comdat any

$_ZSt12__relocate_aIPSt10shared_ptrIN8facebook5velox4exec17FunctionSignatureEES6_SaIS5_EET0_T_S9_S8_RT1_ = comdat any

$_ZSt14__relocate_a_1IPSt10shared_ptrIN8facebook5velox4exec17FunctionSignatureEES6_SaIS5_EET0_T_S9_S8_RT1_ = comdat any

$_ZSt12__niter_baseIPSt10shared_ptrIN8facebook5velox4exec17FunctionSignatureEEET_S7_ = comdat any

$_ZSt19__relocate_object_aISt10shared_ptrIN8facebook5velox4exec17FunctionSignatureEES5_SaIS5_EEvPT_PT0_RT1_ = comdat any

$_ZNSt16allocator_traitsISaISt10shared_ptrIN8facebook5velox4exec17FunctionSignatureEEEE7destroyIS5_EEvRS6_PT_ = comdat any

$_ZNSt15__new_allocatorISt10shared_ptrIN8facebook5velox4exec17FunctionSignatureEEE7destroyIS5_EEvPT_ = comdat any

$_ZNSt16allocator_traitsISaISt10shared_ptrIN8facebook5velox4exec17FunctionSignatureEEEE10deallocateERS6_PS5_m = comdat any

$_ZNSt15__new_allocatorISt10shared_ptrIN8facebook5velox4exec17FunctionSignatureEEE10deallocateEPS5_m = comdat any

$_ZNK9__gnu_cxx17__normal_iteratorIPSt10shared_ptrIN8facebook5velox4exec17FunctionSignatureEESt6vectorIS6_SaIS6_EEEmiEl = comdat any

$_ZNK9__gnu_cxx17__normal_iteratorIPSt10shared_ptrIN8facebook5velox4exec17FunctionSignatureEESt6vectorIS6_SaIS6_EEEdeEv = comdat any

$_ZNSt13unordered_mapINSt7__cxx1112basic_stringIcSt11char_traitsIcESaIcEEEN8facebook5velox4exec17SignatureVariableESt4hashIS5_ESt8equal_toIS5_ESaISt4pairIKS5_S9_EEEC2Ev = comdat any

$_ZNSt8optionalIN8facebook5velox4exec13TypeSignatureEEC2Ev = comdat any

$_ZNSt6vectorIN8facebook5velox4exec13TypeSignatureESaIS3_EEC2Ev = comdat any

$_ZNSt6vectorIbSaIbEEC2Ev = comdat any

$_ZNSt10_HashtableINSt7__cxx1112basic_stringIcSt11char_traitsIcESaIcEEESt4pairIKS5_N8facebook5velox4exec17SignatureVariableEESaISC_ENSt8__detail10_Select1stESt8equal_toIS5_ESt4hashIS5_ENSE_18_Mod_range_hashingENSE_20_Default_ranged_hashENSE_20_Prime_rehash_policyENSE_17_Hashtable_traitsILb1ELb0ELb1EEEEC2Ev = comdat any

$_ZNSt8__detail15_Hashtable_baseINSt7__cxx1112basic_stringIcSt11char_traitsIcESaIcEEESt4pairIKS6_N8facebook5velox4exec17SignatureVariableEENS_10_Select1stESt8equal_toIS6_ESt4hashIS6_ENS_18_Mod_range_hashingENS_20_Default_ranged_hashENS_17_Hashtable_traitsILb1ELb0ELb1EEEEC2Ev = comdat any

$_ZNSt8__detail16_Hashtable_allocISaINS_10_Hash_nodeISt4pairIKNSt7__cxx1112basic_stringIcSt11char_traitsIcESaIcEEEN8facebook5velox4exec17SignatureVariableEELb1EEEEEC2Ev = comdat any

$_ZNSt8__detail15_Hash_node_baseC2Ev = comdat any

$_ZNSt8__detail20_Prime_rehash_policyC2Ef = comdat any

$_ZNSt8__detail15_Hash_code_baseINSt7__cxx1112basic_stringIcSt11char_traitsIcESaIcEEESt4pairIKS6_N8facebook5velox4exec17SignatureVariableEENS_10_Select1stESt4hashIS6_ENS_18_Mod_range_hashingENS_20_Default_ranged_hashELb1EEC2Ev = comdat any

$_ZNSt8__detail21_Hashtable_ebo_helperILi0ESt8equal_toINSt7__cxx1112basic_stringIcSt11char_traitsIcESaIcEEEELb1EEC2Ev = comdat any

$_ZNSt8__detail21_Hashtable_ebo_helperILi1ESt4hashINSt7__cxx1112basic_stringIcSt11char_traitsIcESaIcEEEELb1EEC2Ev = comdat any

$_ZNSt8__detail21_Hashtable_ebo_helperILi0ESaINS_10_Hash_nodeISt4pairIKNSt7__cxx1112basic_stringIcSt11char_traitsIcESaIcEEEN8facebook5velox4exec17SignatureVariableEELb1EEEELb1EEC2Ev = comdat any

$_ZNSaINSt8__detail10_Hash_nodeISt4pairIKNSt7__cxx1112basic_stringIcSt11char_traitsIcESaIcEEEN8facebook5velox4exec17SignatureVariableEELb1EEEEC2Ev = comdat any

$_ZNSt15__new_allocatorINSt8__detail10_Hash_nodeISt4pairIKNSt7__cxx1112basic_stringIcSt11char_traitsIcESaIcEEEN8facebook5velox4exec17SignatureVariableEELb1EEEEC2Ev = comdat any

$_ZNSt14_Optional_baseIN8facebook5velox4exec13TypeSignatureELb0ELb0EEC2Ev = comdat any

$_ZNSt17_Optional_payloadIN8facebook5velox4exec13TypeSignatureELb0ELb0ELb0EEC2Ev = comdat any

$_ZNSt17_Optional_payloadIN8facebook5velox4exec13TypeSignatureELb1ELb0ELb0EEC2Ev = comdat any

$_ZNSt22_Optional_payload_baseIN8facebook5velox4exec13TypeSignatureEEC2Ev = comdat any

$_ZNSt22_Optional_payload_baseIN8facebook5velox4exec13TypeSignatureEE8_StorageIS3_Lb0EEC2Ev = comdat any

$_ZNSt12_Vector_baseIN8facebook5velox4exec13TypeSignatureESaIS3_EEC2Ev = comdat any

$_ZNSt12_Vector_baseIN8facebook5velox4exec13TypeSignatureESaIS3_EE12_Vector_implC2Ev = comdat any

$_ZNSaIN8facebook5velox4exec13TypeSignatureEEC2Ev = comdat any

$_ZNSt12_Vector_baseIN8facebook5velox4exec13TypeSignatureESaIS3_EE17_Vector_impl_dataC2Ev = comdat any

$_ZNSt15__new_allocatorIN8facebook5velox4exec13TypeSignatureEEC2Ev = comdat any

$_ZNSt13_Bvector_baseISaIbEEC2Ev = comdat any

$_ZNSt13_Bvector_baseISaIbEE13_Bvector_implC2Ev = comdat any

$_ZNSaImEC2Ev = comdat any

$_ZNSt15__new_allocatorImEC2Ev = comdat any

$_ZNSt13_Bit_iteratorC2Ev = comdat any

$_ZNSt18_Bit_iterator_baseC2EPmj = comdat any

$_ZNSt8optionalIN8facebook5velox4exec13TypeSignatureEE7emplaceIJS3_EEENSt9enable_ifIX18is_constructible_vIS3_DpT_EERS3_E4typeEDpOS7_ = comdat any

$_ZN8facebook5velox4exec13TypeSignatureD2Ev = comdat any

$_ZNSt19_Optional_base_implIN8facebook5velox4exec13TypeSignatureESt14_Optional_baseIS3_Lb0ELb0EEE8_M_resetEv = comdat any

$_ZNSt19_Optional_base_implIN8facebook5velox4exec13TypeSignatureESt14_Optional_baseIS3_Lb0ELb0EEE12_M_constructIJS3_EEEvDpOT_ = comdat any

$_ZNSt19_Optional_base_implIN8facebook5velox4exec13TypeSignatureESt14_Optional_baseIS3_Lb0ELb0EEE6_M_getEv = comdat any

$_ZNSt22_Optional_payload_baseIN8facebook5velox4exec13TypeSignatureEE8_M_resetEv = comdat any

$_ZNSt22_Optional_payload_baseIN8facebook5velox4exec13TypeSignatureEE10_M_destroyEv = comdat any

$_ZNSt22_Optional_payload_baseIN8facebook5velox4exec13TypeSignatureEE12_M_constructIJS3_EEEvDpOT_ = comdat any

$_ZSt10_ConstructIN8facebook5velox4exec13TypeSignatureEJS3_EEvPT_DpOT0_ = comdat any

$_ZN8facebook5velox4exec13TypeSignatureC2EOS2_ = comdat any

$_ZNSt6vectorIN8facebook5velox4exec13TypeSignatureESaIS3_EEC2ERKS5_ = comdat any

$_ZNSt8optionalINSt7__cxx1112basic_stringIcSt11char_traitsIcESaIcEEEEC2EOS6_ = comdat any

$_ZNKSt6vectorIN8facebook5velox4exec13TypeSignatureESaIS3_EE4sizeEv = comdat any

$_ZN9__gnu_cxx14__alloc_traitsISaIN8facebook5velox4exec13TypeSignatureEES4_E17_S_select_on_copyERKS5_ = comdat any

$_ZNKSt12_Vector_baseIN8facebook5velox4exec13TypeSignatureESaIS3_EE19_M_get_Tp_allocatorEv = comdat any

$_ZNSt12_Vector_baseIN8facebook5velox4exec13TypeSignatureESaIS3_EEC2EmRKS4_ = comdat any

$_ZNSaIN8facebook5velox4exec13TypeSignatureEED2Ev = comdat any

$_ZSt22__uninitialized_copy_aIN9__gnu_cxx17__normal_iteratorIPKN8facebook5velox4exec13TypeSignatureESt6vectorIS5_SaIS5_EEEEPS5_S5_ET0_T_SE_SD_RSaIT1_E = comdat any

$_ZNKSt6vectorIN8facebook5velox4exec13TypeSignatureESaIS3_EE5beginEv = comdat any

$_ZNKSt6vectorIN8facebook5velox4exec13TypeSignatureESaIS3_EE3endEv = comdat any

$_ZNSt12_Vector_baseIN8facebook5velox4exec13TypeSignatureESaIS3_EE19_M_get_Tp_allocatorEv = comdat any

$_ZNSt12_Vector_baseIN8facebook5velox4exec13TypeSignatureESaIS3_EED2Ev = comdat any

$_ZNSt16allocator_traitsISaIN8facebook5velox4exec13TypeSignatureEEE37select_on_container_copy_constructionERKS4_ = comdat any

$_ZNSaIN8facebook5velox4exec13TypeSignatureEEC2ERKS3_ = comdat any

$_ZNSt15__new_allocatorIN8facebook5velox4exec13TypeSignatureEEC2ERKS4_ = comdat any

$_ZNSt12_Vector_baseIN8facebook5velox4exec13TypeSignatureESaIS3_EE12_Vector_implC2ERKS4_ = comdat any

$_ZNSt12_Vector_baseIN8facebook5velox4exec13TypeSignatureESaIS3_EE17_M_create_storageEm = comdat any

$_ZNSt12_Vector_baseIN8facebook5velox4exec13TypeSignatureESaIS3_EE12_Vector_implD2Ev = comdat any

$_ZNSt12_Vector_baseIN8facebook5velox4exec13TypeSignatureESaIS3_EE11_M_allocateEm = comdat any

$_ZNSt16allocator_traitsISaIN8facebook5velox4exec13TypeSignatureEEE8allocateERS4_m = comdat any

$_ZNSt15__new_allocatorIN8facebook5velox4exec13TypeSignatureEE8allocateEmPKv = comdat any

$_ZNKSt15__new_allocatorIN8facebook5velox4exec13TypeSignatureEE11_M_max_sizeEv = comdat any

$_ZNSt15__new_allocatorIN8facebook5velox4exec13TypeSignatureEED2Ev = comdat any

$_ZSt18uninitialized_copyIN9__gnu_cxx17__normal_iteratorIPKN8facebook5velox4exec13TypeSignatureESt6vectorIS5_SaIS5_EEEEPS5_ET0_T_SE_SD_ = comdat any

$_ZNSt20__uninitialized_copyILb0EE13__uninit_copyIN9__gnu_cxx17__normal_iteratorIPKN8facebook5velox4exec13TypeSignatureESt6vectorIS7_SaIS7_EEEEPS7_EET0_T_SG_SF_ = comdat any

$_ZSt16__do_uninit_copyIN9__gnu_cxx17__normal_iteratorIPKN8facebook5velox4exec13TypeSignatureESt6vectorIS5_SaIS5_EEEEPS5_ET0_T_SE_SD_ = comdat any

$_ZN9__gnu_cxxneIPKN8facebook5velox4exec13TypeSignatureESt6vectorIS4_SaIS4_EEEEbRKNS_17__normal_iteratorIT_T0_EESF_ = comdat any

$_ZSt10_ConstructIN8facebook5velox4exec13TypeSignatureEJRKS3_EEvPT_DpOT0_ = comdat any

$_ZNK9__gnu_cxx17__normal_iteratorIPKN8facebook5velox4exec13TypeSignatureESt6vectorIS4_SaIS4_EEEdeEv = comdat any

$_ZN9__gnu_cxx17__normal_iteratorIPKN8facebook5velox4exec13TypeSignatureESt6vectorIS4_SaIS4_EEEppEv = comdat any

$_ZSt8_DestroyIPN8facebook5velox4exec13TypeSignatureEEvT_S5_ = comdat any

$_ZNK9__gnu_cxx17__normal_iteratorIPKN8facebook5velox4exec13TypeSignatureESt6vectorIS4_SaIS4_EEE4baseEv = comdat any

$_ZN8facebook5velox4exec13TypeSignatureC2ERKS2_ = comdat any

$_ZNSt8optionalINSt7__cxx1112basic_stringIcSt11char_traitsIcESaIcEEEEC2ERKS6_ = comdat any

$_ZNSt6vectorIN8facebook5velox4exec13TypeSignatureESaIS3_EED2Ev = comdat any

$_ZNSt14_Optional_baseINSt7__cxx1112basic_stringIcSt11char_traitsIcESaIcEEELb0ELb0EEC2ERKS6_ = comdat any

$_ZNSt17_Optional_payloadINSt7__cxx1112basic_stringIcSt11char_traitsIcESaIcEEELb0ELb0ELb0EECI2St22_Optional_payload_baseIS5_EEbRKS7_IS5_E = comdat any

$_ZNSt17_Optional_payloadINSt7__cxx1112basic_stringIcSt11char_traitsIcESaIcEEELb1ELb0ELb0EECI2St22_Optional_payload_baseIS5_EEbRKS7_IS5_E = comdat any

$_ZNSt22_Optional_payload_baseINSt7__cxx1112basic_stringIcSt11char_traitsIcESaIcEEEEC2EbRKS6_ = comdat any

$_ZNSt22_Optional_payload_baseINSt7__cxx1112basic_stringIcSt11char_traitsIcESaIcEEEE8_StorageIS5_Lb0EEC2Ev = comdat any

$_ZNSt22_Optional_payload_baseINSt7__cxx1112basic_stringIcSt11char_traitsIcESaIcEEEE12_M_constructIJRKS5_EEEvDpOT_ = comdat any

$_ZNKSt22_Optional_payload_baseINSt7__cxx1112basic_stringIcSt11char_traitsIcESaIcEEEE6_M_getEv = comdat any

$_ZNSt22_Optional_payload_baseINSt7__cxx1112basic_stringIcSt11char_traitsIcESaIcEEEE8_StorageIS5_Lb0EED2Ev = comdat any

$_ZSt8_DestroyIPN8facebook5velox4exec13TypeSignatureES3_EvT_S5_RSaIT0_E = comdat any

$_ZNSt12_Destroy_auxILb0EE9__destroyIPN8facebook5velox4exec13TypeSignatureEEEvT_S7_ = comdat any

$_ZSt8_DestroyIN8facebook5velox4exec13TypeSignatureEEvPT_ = comdat any

$_ZN9__gnu_cxx17__normal_iteratorIPKN8facebook5velox4exec13TypeSignatureESt6vectorIS4_SaIS4_EEEC2ERKS6_ = comdat any

$_ZNSt12_Vector_baseIN8facebook5velox4exec13TypeSignatureESaIS3_EE13_M_deallocateEPS3_m = comdat any

$_ZNSt16allocator_traitsISaIN8facebook5velox4exec13TypeSignatureEEE10deallocateERS4_PS3_m = comdat any

$_ZNSt15__new_allocatorIN8facebook5velox4exec13TypeSignatureEE10deallocateEPS3_m = comdat any

$_ZNSt14_Optional_baseINSt7__cxx1112basic_stringIcSt11char_traitsIcESaIcEEELb0ELb0EEC2EOS6_ = comdat any

$_ZNSt17_Optional_payloadINSt7__cxx1112basic_stringIcSt11char_traitsIcESaIcEEELb0ELb0ELb0EECI2St22_Optional_payload_baseIS5_EEbOS7_IS5_E = comdat any

$_ZNSt17_Optional_payloadINSt7__cxx1112basic_stringIcSt11char_traitsIcESaIcEEELb1ELb0ELb0EECI2St22_Optional_payload_baseIS5_EEbOS7_IS5_E = comdat any

$_ZNSt22_Optional_payload_baseINSt7__cxx1112basic_stringIcSt11char_traitsIcESaIcEEEEC2EbOS6_ = comdat any

$_ZNSt22_Optional_payload_baseINSt7__cxx1112basic_stringIcSt11char_traitsIcESaIcEEEE12_M_constructIJS5_EEEvDpOT_ = comdat any

$_ZNSt22_Optional_payload_baseINSt7__cxx1112basic_stringIcSt11char_traitsIcESaIcEEEE6_M_getEv = comdat any

$_ZSt10_ConstructINSt7__cxx1112basic_stringIcSt11char_traitsIcESaIcEEEJS5_EEvPT_DpOT0_ = comdat any

$_ZNSt22_Optional_payload_baseIN8facebook5velox4exec13TypeSignatureEE6_M_getEv = comdat any

$_ZNSt6vectorIN8facebook5velox4exec13TypeSignatureESaIS3_EE12emplace_backIJS3_EEERS3_DpOT_ = comdat any

$_ZNSt6vectorIbSaIbEE9push_backEb = comdat any

$_ZNSt16allocator_traitsISaIN8facebook5velox4exec13TypeSignatureEEE9constructIS3_JS3_EEEvRS4_PT_DpOT0_ = comdat any

$_ZNSt6vectorIN8facebook5velox4exec13TypeSignatureESaIS3_EE17_M_realloc_insertIJS3_EEEvN9__gnu_cxx17__normal_iteratorIPS3_S5_EEDpOT_ = comdat any

$_ZNSt6vectorIN8facebook5velox4exec13TypeSignatureESaIS3_EE3endEv = comdat any

$_ZNSt6vectorIN8facebook5velox4exec13TypeSignatureESaIS3_EE4backEv = comdat any

$_ZNSt15__new_allocatorIN8facebook5velox4exec13TypeSignatureEE9constructIS3_JS3_EEEvPT_DpOT0_ = comdat any

$_ZNKSt6vectorIN8facebook5velox4exec13TypeSignatureESaIS3_EE12_M_check_lenEmPKc = comdat any

$_ZN9__gnu_cxxmiIPN8facebook5velox4exec13TypeSignatureESt6vectorIS4_SaIS4_EEEENS_17__normal_iteratorIT_T0_E15difference_typeERKSC_SF_ = comdat any

$_ZNSt6vectorIN8facebook5velox4exec13TypeSignatureESaIS3_EE5beginEv = comdat any

$_ZSt34__uninitialized_move_if_noexcept_aIPN8facebook5velox4exec13TypeSignatureES4_SaIS3_EET0_T_S7_S6_RT1_ = comdat any

$_ZNK9__gnu_cxx17__normal_iteratorIPN8facebook5velox4exec13TypeSignatureESt6vectorIS4_SaIS4_EEE4baseEv = comdat any

$_ZNSt16allocator_traitsISaIN8facebook5velox4exec13TypeSignatureEEE7destroyIS3_EEvRS4_PT_ = comdat any

$_ZNKSt6vectorIN8facebook5velox4exec13TypeSignatureESaIS3_EE8max_sizeEv = comdat any

$_ZNSt6vectorIN8facebook5velox4exec13TypeSignatureESaIS3_EE11_S_max_sizeERKS4_ = comdat any

$_ZNSt16allocator_traitsISaIN8facebook5velox4exec13TypeSignatureEEE8max_sizeERKS4_ = comdat any

$_ZNKSt15__new_allocatorIN8facebook5velox4exec13TypeSignatureEE8max_sizeEv = comdat any

$_ZN9__gnu_cxx17__normal_iteratorIPN8facebook5velox4exec13TypeSignatureESt6vectorIS4_SaIS4_EEEC2ERKS5_ = comdat any

$_ZSt22__uninitialized_copy_aIPKN8facebook5velox4exec13TypeSignatureEPS3_S3_ET0_T_S8_S7_RSaIT1_E = comdat any

$_ZSt32__make_move_if_noexcept_iteratorIN8facebook5velox4exec13TypeSignatureEPKS3_ET0_PT_ = comdat any

$_ZSt18uninitialized_copyIPKN8facebook5velox4exec13TypeSignatureEPS3_ET0_T_S8_S7_ = comdat any

$_ZNSt20__uninitialized_copyILb0EE13__uninit_copyIPKN8facebook5velox4exec13TypeSignatureEPS5_EET0_T_SA_S9_ = comdat any

$_ZSt16__do_uninit_copyIPKN8facebook5velox4exec13TypeSignatureEPS3_ET0_T_S8_S7_ = comdat any

$_ZNSt15__new_allocatorIN8facebook5velox4exec13TypeSignatureEE7destroyIS3_EEvPT_ = comdat any

$_ZNK9__gnu_cxx17__normal_iteratorIPN8facebook5velox4exec13TypeSignatureESt6vectorIS4_SaIS4_EEEmiEl = comdat any

$_ZNK9__gnu_cxx17__normal_iteratorIPN8facebook5velox4exec13TypeSignatureESt6vectorIS4_SaIS4_EEEdeEv = comdat any

$_ZNKSt13_Bvector_baseISaIbEE13_Bvector_impl11_M_end_addrEv = comdat any

$_ZNSt13_Bit_iteratorppEi = comdat any

$_ZNKSt13_Bit_iteratordeEv = comdat any

$_ZNSt14_Bit_referenceaSEb = comdat any

$_ZNSt6vectorIbSaIbEE13_M_insert_auxESt13_Bit_iteratorb = comdat any

$_ZNSt6vectorIbSaIbEE3endEv = comdat any

$_ZNSt18_Bit_iterator_base10_M_bump_upEv = comdat any

$_ZNSt14_Bit_referenceC2EPmm = comdat any

$_ZSt13copy_backwardISt13_Bit_iteratorS0_ET0_T_S2_S1_ = comdat any

$_ZStplRKSt13_Bit_iteratorl = comdat any

$_ZNSt13_Bit_iteratorppEv = comdat any

$_ZNKSt6vectorIbSaIbEE12_M_check_lenEmPKc = comdat any

$_ZNSt13_Bvector_baseISaIbEE11_M_allocateEm = comdat any

$_ZNSt13_Bit_iteratorC2EPmj = comdat any

$_ZNSt6vectorIbSaIbEE15_M_copy_alignedESt19_Bit_const_iteratorS2_St13_Bit_iterator = comdat any

$_ZNSt6vectorIbSaIbEE5beginEv = comdat any

$_ZNSt19_Bit_const_iteratorC2ERKSt13_Bit_iterator = comdat any

$_ZSt4copyISt13_Bit_iteratorS0_ET0_T_S2_S1_ = comdat any

$_ZNSt13_Bvector_baseISaIbEE13_M_deallocateEv = comdat any

$_ZNSt13_Bvector_baseISaIbEE8_S_nwordEm = comdat any

$_ZSt22__copy_move_backward_aILb0ESt13_Bit_iteratorS0_ET1_T0_S2_S1_ = comdat any

$_ZSt12__miter_baseISt13_Bit_iteratorET_S1_ = comdat any

$_ZSt12__niter_wrapISt13_Bit_iteratorET_RKS1_S1_ = comdat any

$_ZSt23__copy_move_backward_a1ILb0ESt13_Bit_iteratorS0_ET1_T0_S2_S1_ = comdat any

$_ZSt12__niter_baseISt13_Bit_iteratorET_S1_ = comdat any

$_ZSt23__copy_move_backward_a2ILb0ESt13_Bit_iteratorS0_ET1_T0_S2_S1_ = comdat any

$_ZNSt20__copy_move_backwardILb0ELb0ESt26random_access_iterator_tagE13__copy_move_bISt13_Bit_iteratorS3_EET0_T_S5_S4_ = comdat any

$_ZStmiRKSt18_Bit_iterator_baseS1_ = comdat any

$_ZNSt13_Bit_iteratormmEv = comdat any

$_ZNSt14_Bit_referenceaSERKS_ = comdat any

$_ZNSt18_Bit_iterator_base12_M_bump_downEv = comdat any

$_ZNKSt14_Bit_referencecvbEv = comdat any

$_ZNSt13_Bit_iteratorpLEl = comdat any

$_ZNSt18_Bit_iterator_base7_M_incrEl = comdat any

$_ZNKSt6vectorIbSaIbEE8max_sizeEv = comdat any

$_ZNKSt6vectorIbSaIbEE4sizeEv = comdat any

$_ZNSt16allocator_traitsISaImEE8max_sizeERKS0_ = comdat any

$_ZNKSt13_Bvector_baseISaIbEE20_M_get_Bit_allocatorEv = comdat any

$_ZNKSt15__new_allocatorImE8max_sizeEv = comdat any

$_ZNKSt15__new_allocatorImE11_M_max_sizeEv = comdat any

$_ZNKSt6vectorIbSaIbEE3endEv = comdat any

$_ZNKSt6vectorIbSaIbEE5beginEv = comdat any

$_ZNSt19_Bit_const_iteratorC2EPmj = comdat any

$_ZNSt16allocator_traitsISaImEE8allocateERS0_m = comdat any

$_ZNSt15__new_allocatorImE8allocateEmPKv = comdat any

$_ZSt4copyIPmS0_ET0_T_S2_S1_ = comdat any

$_ZSt4copyISt19_Bit_const_iteratorSt13_Bit_iteratorET0_T_S3_S2_ = comdat any

$_ZSt13__copy_move_aILb0EPmS0_ET1_T0_S2_S1_ = comdat any

$_ZSt12__miter_baseIPmET_S1_ = comdat any

$_ZSt12__niter_wrapIPmET_RKS1_S1_ = comdat any

$_ZSt14__copy_move_a1ILb0EPmS0_ET1_T0_S2_S1_ = comdat any

$_ZSt12__niter_baseIPmET_S1_ = comdat any

$_ZSt14__copy_move_a2ILb0EPmS0_ET1_T0_S2_S1_ = comdat any

$_ZNSt11__copy_moveILb0ELb1ESt26random_access_iterator_tagE8__copy_mImEEPT_PKS3_S6_S4_ = comdat any

$_ZSt13__copy_move_aILb0ESt19_Bit_const_iteratorSt13_Bit_iteratorET1_T0_S3_S2_ = comdat any

$_ZSt12__miter_baseISt19_Bit_const_iteratorET_S1_ = comdat any

$_ZSt14__copy_move_a1ILb0ESt19_Bit_const_iteratorSt13_Bit_iteratorET1_T0_S3_S2_ = comdat any

$_ZSt12__niter_baseISt19_Bit_const_iteratorET_S1_ = comdat any

$_ZSt14__copy_move_a2ILb0ESt19_Bit_const_iteratorSt13_Bit_iteratorET1_T0_S3_S2_ = comdat any

$_ZNSt11__copy_moveILb0ELb0ESt26random_access_iterator_tagE8__copy_mISt19_Bit_const_iteratorSt13_Bit_iteratorEET0_T_S6_S5_ = comdat any

$_ZNKSt19_Bit_const_iteratordeEv = comdat any

$_ZNSt19_Bit_const_iteratorppEv = comdat any

$_ZSt13__copy_move_aILb0ESt13_Bit_iteratorS0_ET1_T0_S2_S1_ = comdat any

$_ZSt14__copy_move_a1ILb0ESt13_Bit_iteratorS0_ET1_T0_S2_S1_ = comdat any

$_ZSt14__copy_move_a2ILb0ESt13_Bit_iteratorS0_ET1_T0_S2_S1_ = comdat any

$_ZNSt11__copy_moveILb0ELb0ESt26random_access_iterator_tagE8__copy_mISt13_Bit_iteratorS3_EET0_T_S5_S4_ = comdat any

$_ZNSt16allocator_traitsISaImEE10deallocateERS0_Pmm = comdat any

$_ZNSt13_Bvector_baseISaIbEE18_Bvector_impl_data8_M_resetEv = comdat any

$_ZNSt15__new_allocatorImE10deallocateEPmm = comdat any

$_ZNSt13_Bvector_baseISaIbEE18_Bvector_impl_dataC2Ev = comdat any

$_ZNSt12__shared_ptrIN8facebook5velox4exec17FunctionSignatureELN9__gnu_cxx12_Lock_policyE2EED2Ev = comdat any

$_ZNSt14__shared_countILN9__gnu_cxx12_Lock_policyE2EED2Ev = comdat any

$_ZNSt16_Sp_counted_baseILN9__gnu_cxx12_Lock_policyE2EE10_M_releaseEv = comdat any

$_ZNSt16_Sp_counted_baseILN9__gnu_cxx12_Lock_policyE2EE24_M_release_last_use_coldEv = comdat any

$_ZNSt16_Sp_counted_baseILN9__gnu_cxx12_Lock_policyE2EE19_M_release_last_useEv = comdat any

$_ZNSt6vectorIbSaIbEED2Ev = comdat any

$_ZNSt8optionalIN8facebook5velox4exec13TypeSignatureEED2Ev = comdat any

$_ZNSt13unordered_mapINSt7__cxx1112basic_stringIcSt11char_traitsIcESaIcEEEN8facebook5velox4exec17SignatureVariableESt4hashIS5_ESt8equal_toIS5_ESaISt4pairIKS5_S9_EEED2Ev = comdat any

$_ZNSt13_Bvector_baseISaIbEED2Ev = comdat any

$_ZNSt13_Bvector_baseISaIbEE13_Bvector_implD2Ev = comdat any

$_ZNSaImED2Ev = comdat any

$_ZNSt15__new_allocatorImED2Ev = comdat any

$_ZNSt14_Optional_baseIN8facebook5velox4exec13TypeSignatureELb0ELb0EED2Ev = comdat any

$_ZNSt17_Optional_payloadIN8facebook5velox4exec13TypeSignatureELb0ELb0ELb0EED2Ev = comdat any

$_ZNSt17_Optional_payloadIN8facebook5velox4exec13TypeSignatureELb1ELb0ELb0EED2Ev = comdat any

$_ZNSt22_Optional_payload_baseIN8facebook5velox4exec13TypeSignatureEED2Ev = comdat any

$_ZNSt22_Optional_payload_baseIN8facebook5velox4exec13TypeSignatureEE8_StorageIS3_Lb0EED2Ev = comdat any

$_ZNSt10_HashtableINSt7__cxx1112basic_stringIcSt11char_traitsIcESaIcEEESt4pairIKS5_N8facebook5velox4exec17SignatureVariableEESaISC_ENSt8__detail10_Select1stESt8equal_toIS5_ESt4hashIS5_ENSE_18_Mod_range_hashingENSE_20_Default_ranged_hashENSE_20_Prime_rehash_policyENSE_17_Hashtable_traitsILb1ELb0ELb1EEEED2Ev = comdat any

$_ZNSt10_HashtableINSt7__cxx1112basic_stringIcSt11char_traitsIcESaIcEEESt4pairIKS5_N8facebook5velox4exec17SignatureVariableEESaISC_ENSt8__detail10_Select1stESt8equal_toIS5_ESt4hashIS5_ENSE_18_Mod_range_hashingENSE_20_Default_ranged_hashENSE_20_Prime_rehash_policyENSE_17_Hashtable_traitsILb1ELb0ELb1EEEE5clearEv = comdat any

$_ZNSt10_HashtableINSt7__cxx1112basic_stringIcSt11char_traitsIcESaIcEEESt4pairIKS5_N8facebook5velox4exec17SignatureVariableEESaISC_ENSt8__detail10_Select1stESt8equal_toIS5_ESt4hashIS5_ENSE_18_Mod_range_hashingENSE_20_Default_ranged_hashENSE_20_Prime_rehash_policyENSE_17_Hashtable_traitsILb1ELb0ELb1EEEE21_M_deallocate_bucketsEv = comdat any

$_ZNSt8__detail16_Hashtable_allocISaINS_10_Hash_nodeISt4pairIKNSt7__cxx1112basic_stringIcSt11char_traitsIcESaIcEEEN8facebook5velox4exec17SignatureVariableEELb1EEEEED2Ev = comdat any

$_ZNSt8__detail16_Hashtable_allocISaINS_10_Hash_nodeISt4pairIKNSt7__cxx1112basic_stringIcSt11char_traitsIcESaIcEEEN8facebook5velox4exec17SignatureVariableEELb1EEEEE19_M_deallocate_nodesEPSF_ = comdat any

$_ZNKSt10_HashtableINSt7__cxx1112basic_stringIcSt11char_traitsIcESaIcEEESt4pairIKS5_N8facebook5velox4exec17SignatureVariableEESaISC_ENSt8__detail10_Select1stESt8equal_toIS5_ESt4hashIS5_ENSE_18_Mod_range_hashingENSE_20_Default_ranged_hashENSE_20_Prime_rehash_policyENSE_17_Hashtable_traitsILb1ELb0ELb1EEEE8_M_beginEv = comdat any

$_ZNKSt8__detail10_Hash_nodeISt4pairIKNSt7__cxx1112basic_stringIcSt11char_traitsIcESaIcEEEN8facebook5velox4exec17SignatureVariableEELb1EE7_M_nextEv = comdat any

$_ZNSt8__detail16_Hashtable_allocISaINS_10_Hash_nodeISt4pairIKNSt7__cxx1112basic_stringIcSt11char_traitsIcESaIcEEEN8facebook5velox4exec17SignatureVariableEELb1EEEEE18_M_deallocate_nodeEPSF_ = comdat any

$_ZNSt16allocator_traitsISaINSt8__detail10_Hash_nodeISt4pairIKNSt7__cxx1112basic_stringIcSt11char_traitsIcESaIcEEEN8facebook5velox4exec17SignatureVariableEELb1EEEEE7destroyISE_EEvRSG_PT_ = comdat any

$_ZNSt8__detail16_Hashtable_allocISaINS_10_Hash_nodeISt4pairIKNSt7__cxx1112basic_stringIcSt11char_traitsIcESaIcEEEN8facebook5velox4exec17SignatureVariableEELb1EEEEE17_M_node_allocatorEv = comdat any

$_ZNSt8__detail21_Hash_node_value_baseISt4pairIKNSt7__cxx1112basic_stringIcSt11char_traitsIcESaIcEEEN8facebook5velox4exec17SignatureVariableEEE9_M_valptrEv = comdat any

$_ZNSt8__detail16_Hashtable_allocISaINS_10_Hash_nodeISt4pairIKNSt7__cxx1112basic_stringIcSt11char_traitsIcESaIcEEEN8facebook5velox4exec17SignatureVariableEELb1EEEEE22_M_deallocate_node_ptrEPSF_ = comdat any

$_ZNSt15__new_allocatorINSt8__detail10_Hash_nodeISt4pairIKNSt7__cxx1112basic_stringIcSt11char_traitsIcESaIcEEEN8facebook5velox4exec17SignatureVariableEELb1EEEE7destroyISE_EEvPT_ = comdat any

$_ZNSt4pairIKNSt7__cxx1112basic_stringIcSt11char_traitsIcESaIcEEEN8facebook5velox4exec17SignatureVariableEED2Ev = comdat any

$_ZN8facebook5velox4exec17SignatureVariableD2Ev = comdat any

$_ZNSt8__detail21_Hashtable_ebo_helperILi0ESaINS_10_Hash_nodeISt4pairIKNSt7__cxx1112basic_stringIcSt11char_traitsIcESaIcEEEN8facebook5velox4exec17SignatureVariableEELb1EEEELb1EE6_M_getEv = comdat any

$_ZN9__gnu_cxx16__aligned_bufferISt4pairIKNSt7__cxx1112basic_stringIcSt11char_traitsIcESaIcEEEN8facebook5velox4exec17SignatureVariableEEE6_M_ptrEv = comdat any

$_ZN9__gnu_cxx16__aligned_bufferISt4pairIKNSt7__cxx1112basic_stringIcSt11char_traitsIcESaIcEEEN8facebook5velox4exec17SignatureVariableEEE7_M_addrEv = comdat any

$_ZNSt19__ptr_traits_ptr_toIPNSt8__detail10_Hash_nodeISt4pairIKNSt7__cxx1112basic_stringIcSt11char_traitsIcESaIcEEEN8facebook5velox4exec17SignatureVariableEELb1EEESF_Lb0EE10pointer_toERSF_ = comdat any

$_ZNSt16allocator_traitsISaINSt8__detail10_Hash_nodeISt4pairIKNSt7__cxx1112basic_stringIcSt11char_traitsIcESaIcEEEN8facebook5velox4exec17SignatureVariableEELb1EEEEE10deallocateERSG_PSF_m = comdat any

$_ZNSt15__new_allocatorINSt8__detail10_Hash_nodeISt4pairIKNSt7__cxx1112basic_stringIcSt11char_traitsIcESaIcEEEN8facebook5velox4exec17SignatureVariableEELb1EEEE10deallocateEPSF_m = comdat any

$_ZNSt10_HashtableINSt7__cxx1112basic_stringIcSt11char_traitsIcESaIcEEESt4pairIKS5_N8facebook5velox4exec17SignatureVariableEESaISC_ENSt8__detail10_Select1stESt8equal_toIS5_ESt4hashIS5_ENSE_18_Mod_range_hashingENSE_20_Default_ranged_hashENSE_20_Prime_rehash_policyENSE_17_Hashtable_traitsILb1ELb0ELb1EEEE21_M_deallocate_bucketsEPPNSE_15_Hash_node_baseEm = comdat any

$_ZNKSt10_HashtableINSt7__cxx1112basic_stringIcSt11char_traitsIcESaIcEEESt4pairIKS5_N8facebook5velox4exec17SignatureVariableEESaISC_ENSt8__detail10_Select1stESt8equal_toIS5_ESt4hashIS5_ENSE_18_Mod_range_hashingENSE_20_Default_ranged_hashENSE_20_Prime_rehash_policyENSE_17_Hashtable_traitsILb1ELb0ELb1EEEE21_M_uses_single_bucketEPPNSE_15_Hash_node_baseE = comdat any

$_ZNSt8__detail16_Hashtable_allocISaINS_10_Hash_nodeISt4pairIKNSt7__cxx1112basic_stringIcSt11char_traitsIcESaIcEEEN8facebook5velox4exec17SignatureVariableEELb1EEEEE21_M_deallocate_bucketsEPPNS_15_Hash_node_baseEm = comdat any

$_ZNSt19__ptr_traits_ptr_toIPPNSt8__detail15_Hash_node_baseES2_Lb0EE10pointer_toERS2_ = comdat any

$_ZNSaIPNSt8__detail15_Hash_node_baseEEC2INS_10_Hash_nodeISt4pairIKNSt7__cxx1112basic_stringIcSt11char_traitsIcESaIcEEEN8facebook5velox4exec17SignatureVariableEELb1EEEEERKSaIT_E = comdat any

$_ZNSt16allocator_traitsISaIPNSt8__detail15_Hash_node_baseEEE10deallocateERS3_PS2_m = comdat any

$_ZNSaIPNSt8__detail15_Hash_node_baseEED2Ev = comdat any

$_ZNSt15__new_allocatorIPNSt8__detail15_Hash_node_baseEEC2Ev = comdat any

$_ZNSt15__new_allocatorIPNSt8__detail15_Hash_node_baseEE10deallocateEPS2_m = comdat any

$_ZNSt15__new_allocatorIPNSt8__detail15_Hash_node_baseEED2Ev = comdat any

$_ZNSt8__detail21_Hashtable_ebo_helperILi0ESaINS_10_Hash_nodeISt4pairIKNSt7__cxx1112basic_stringIcSt11char_traitsIcESaIcEEEN8facebook5velox4exec17SignatureVariableEELb1EEEELb1EED2Ev = comdat any

$_ZNSaINSt8__detail10_Hash_nodeISt4pairIKNSt7__cxx1112basic_stringIcSt11char_traitsIcESaIcEEEN8facebook5velox4exec17SignatureVariableEELb1EEEED2Ev = comdat any

$_ZNSt15__new_allocatorINSt8__detail10_Hash_nodeISt4pairIKNSt7__cxx1112basic_stringIcSt11char_traitsIcESaIcEEEN8facebook5velox4exec17SignatureVariableEELb1EEEED2Ev = comdat any

$_ZNKSt13unordered_mapINSt7__cxx1112basic_stringIcSt11char_traitsIcESaIcEEEN8facebook5velox4exec17SignatureVariableESt4hashIS5_ESt8equal_toIS5_ESaISt4pairIKS5_S9_EEE5countERSF_ = comdat any

$_ZNK8facebook5velox4exec17SignatureVariable4nameB5cxx11Ev = comdat any

$_ZNSt13unordered_mapINSt7__cxx1112basic_stringIcSt11char_traitsIcESaIcEEEN8facebook5velox4exec17SignatureVariableESt4hashIS5_ESt8equal_toIS5_ESaISt4pairIKS5_S9_EEE7emplaceIJRSF_RKS9_EEESE_INSt8__detail14_Node_iteratorISG_Lb0ELb1EEEbEDpOT_ = comdat any

$_ZNKSt10_HashtableINSt7__cxx1112basic_stringIcSt11char_traitsIcESaIcEEESt4pairIKS5_N8facebook5velox4exec17SignatureVariableEESaISC_ENSt8__detail10_Select1stESt8equal_toIS5_ESt4hashIS5_ENSE_18_Mod_range_hashingENSE_20_Default_ranged_hashENSE_20_Prime_rehash_policyENSE_17_Hashtable_traitsILb1ELb0ELb1EEEE5countERS7_ = comdat any

$_ZNKSt10_HashtableINSt7__cxx1112basic_stringIcSt11char_traitsIcESaIcEEESt4pairIKS5_N8facebook5velox4exec17SignatureVariableEESaISC_ENSt8__detail10_Select1stESt8equal_toIS5_ESt4hashIS5_ENSE_18_Mod_range_hashingENSE_20_Default_ranged_hashENSE_20_Prime_rehash_policyENSE_17_Hashtable_traitsILb1ELb0ELb1EEEE4findERS7_ = comdat any

$_ZNKSt10_HashtableINSt7__cxx1112basic_stringIcSt11char_traitsIcESaIcEEESt4pairIKS5_N8facebook5velox4exec17SignatureVariableEESaISC_ENSt8__detail10_Select1stESt8equal_toIS5_ESt4hashIS5_ENSE_18_Mod_range_hashingENSE_20_Default_ranged_hashENSE_20_Prime_rehash_policyENSE_17_Hashtable_traitsILb1ELb0ELb1EEEE4sizeEv = comdat any

$_ZNSt10_HashtableINSt7__cxx1112basic_stringIcSt11char_traitsIcESaIcEEESt4pairIKS5_N8facebook5velox4exec17SignatureVariableEESaISC_ENSt8__detail10_Select1stESt8equal_toIS5_ESt4hashIS5_ENSE_18_Mod_range_hashingENSE_20_Default_ranged_hashENSE_20_Prime_rehash_policyENSE_17_Hashtable_traitsILb1ELb0ELb1EEEE22__small_size_thresholdEv = comdat any

$_ZNKSt10_HashtableINSt7__cxx1112basic_stringIcSt11char_traitsIcESaIcEEESt4pairIKS5_N8facebook5velox4exec17SignatureVariableEESaISC_ENSt8__detail10_Select1stESt8equal_toIS5_ESt4hashIS5_ENSE_18_Mod_range_hashingENSE_20_Default_ranged_hashENSE_20_Prime_rehash_policyENSE_17_Hashtable_traitsILb1ELb0ELb1EEEE5beginEv = comdat any

$_ZNSt8__detailneERKNS_19_Node_iterator_baseISt4pairIKNSt7__cxx1112basic_stringIcSt11char_traitsIcESaIcEEEN8facebook5velox4exec17SignatureVariableEELb1EEESG_ = comdat any

$_ZNKSt10_HashtableINSt7__cxx1112basic_stringIcSt11char_traitsIcESaIcEEESt4pairIKS5_N8facebook5velox4exec17SignatureVariableEESaISC_ENSt8__detail10_Select1stESt8equal_toIS5_ESt4hashIS5_ENSE_18_Mod_range_hashingENSE_20_Default_ranged_hashENSE_20_Prime_rehash_policyENSE_17_Hashtable_traitsILb1ELb0ELb1EEEE3endEv = comdat any

$_ZNKSt8__detail15_Hashtable_baseINSt7__cxx1112basic_stringIcSt11char_traitsIcESaIcEEESt4pairIKS6_N8facebook5velox4exec17SignatureVariableEENS_10_Select1stESt8equal_toIS6_ESt4hashIS6_ENS_18_Mod_range_hashingENS_20_Default_ranged_hashENS_17_Hashtable_traitsILb1ELb0ELb1EEEE13_M_key_equalsERS8_RKNS_16_Hash_node_valueISD_Lb1EEE = comdat any

$_ZNSt8__detail20_Node_const_iteratorISt4pairIKNSt7__cxx1112basic_stringIcSt11char_traitsIcESaIcEEEN8facebook5velox4exec17SignatureVariableEELb0ELb1EEppEv = comdat any

$_ZNKSt8__detail15_Hash_code_baseINSt7__cxx1112basic_stringIcSt11char_traitsIcESaIcEEESt4pairIKS6_N8facebook5velox4exec17SignatureVariableEENS_10_Select1stESt4hashIS6_ENS_18_Mod_range_hashingENS_20_Default_ranged_hashELb1EE12_M_hash_codeERS8_ = comdat any

$_ZNKSt10_HashtableINSt7__cxx1112basic_stringIcSt11char_traitsIcESaIcEEESt4pairIKS5_N8facebook5velox4exec17SignatureVariableEESaISC_ENSt8__detail10_Select1stESt8equal_toIS5_ESt4hashIS5_ENSE_18_Mod_range_hashingENSE_20_Default_ranged_hashENSE_20_Prime_rehash_policyENSE_17_Hashtable_traitsILb1ELb0ELb1EEEE15_M_bucket_indexEm = comdat any

$_ZNKSt10_HashtableINSt7__cxx1112basic_stringIcSt11char_traitsIcESaIcEEESt4pairIKS5_N8facebook5velox4exec17SignatureVariableEESaISC_ENSt8__detail10_Select1stESt8equal_toIS5_ESt4hashIS5_ENSE_18_Mod_range_hashingENSE_20_Default_ranged_hashENSE_20_Prime_rehash_policyENSE_17_Hashtable_traitsILb1ELb0ELb1EEEE12_M_find_nodeEmRS7_m = comdat any

$_ZNSt8__detail20_Node_const_iteratorISt4pairIKNSt7__cxx1112basic_stringIcSt11char_traitsIcESaIcEEEN8facebook5velox4exec17SignatureVariableEELb0ELb1EEC2EPNS_10_Hash_nodeISD_Lb1EEE = comdat any

$_ZNSt8__detail22_Hashtable_hash_traitsISt4hashINSt7__cxx1112basic_stringIcSt11char_traitsIcESaIcEEEEE22__small_size_thresholdEv = comdat any

$_ZNKSt8__detail15_Hashtable_baseINSt7__cxx1112basic_stringIcSt11char_traitsIcESaIcEEESt4pairIKS6_N8facebook5velox4exec17SignatureVariableEENS_10_Select1stESt8equal_toIS6_ESt4hashIS6_ENS_18_Mod_range_hashingENS_20_Default_ranged_hashENS_17_Hashtable_traitsILb1ELb0ELb1EEEE5_M_eqEv = comdat any

$_ZNKSt8equal_toINSt7__cxx1112basic_stringIcSt11char_traitsIcESaIcEEEEclERKS5_S8_ = comdat any

$_ZNKSt8__detail10_Select1stclIRKSt4pairIKNSt7__cxx1112basic_stringIcSt11char_traitsIcESaIcEEEN8facebook5velox4exec17SignatureVariableEEEEONS0_10__1st_typeIT_E4typeEOSI_ = comdat any

$_ZNKSt8__detail21_Hash_node_value_baseISt4pairIKNSt7__cxx1112basic_stringIcSt11char_traitsIcESaIcEEEN8facebook5velox4exec17SignatureVariableEEE4_M_vEv = comdat any

$_ZNKSt8__detail21_Hashtable_ebo_helperILi0ESt8equal_toINSt7__cxx1112basic_stringIcSt11char_traitsIcESaIcEEEELb1EE7_M_cgetEv = comdat any

$_ZSteqIcEN9__gnu_cxx11__enable_ifIXsr9__is_charIT_EE7__valueEbE6__typeERKNSt7__cxx1112basic_stringIS2_St11char_traitsIS2_ESaIS2_EEESC_ = comdat any

$_ZNSt11char_traitsIcE7compareEPKcS2_m = comdat any

$_ZNKSt8__detail21_Hash_node_value_baseISt4pairIKNSt7__cxx1112basic_stringIcSt11char_traitsIcESaIcEEEN8facebook5velox4exec17SignatureVariableEEE9_M_valptrEv = comdat any

$_ZNK9__gnu_cxx16__aligned_bufferISt4pairIKNSt7__cxx1112basic_stringIcSt11char_traitsIcESaIcEEEN8facebook5velox4exec17SignatureVariableEEE6_M_ptrEv = comdat any

$_ZNK9__gnu_cxx16__aligned_bufferISt4pairIKNSt7__cxx1112basic_stringIcSt11char_traitsIcESaIcEEEN8facebook5velox4exec17SignatureVariableEEE7_M_addrEv = comdat any

$_ZNSt8__detail19_Node_iterator_baseISt4pairIKNSt7__cxx1112basic_stringIcSt11char_traitsIcESaIcEEEN8facebook5velox4exec17SignatureVariableEELb1EE7_M_incrEv = comdat any

$_ZNKSt8__detail15_Hash_code_baseINSt7__cxx1112basic_stringIcSt11char_traitsIcESaIcEEESt4pairIKS6_N8facebook5velox4exec17SignatureVariableEENS_10_Select1stESt4hashIS6_ENS_18_Mod_range_hashingENS_20_Default_ranged_hashELb1EE7_M_hashEv = comdat any

$_ZNKSt4hashINSt7__cxx1112basic_stringIcSt11char_traitsIcESaIcEEEEclERKS5_ = comdat any

$_ZNKSt8__detail21_Hashtable_ebo_helperILi1ESt4hashINSt7__cxx1112basic_stringIcSt11char_traitsIcESaIcEEEELb1EE7_M_cgetEv = comdat any

$_ZNSt10_Hash_impl4hashEPKvmm = comdat any

$_ZNKSt8__detail15_Hash_code_baseINSt7__cxx1112basic_stringIcSt11char_traitsIcESaIcEEESt4pairIKS6_N8facebook5velox4exec17SignatureVariableEENS_10_Select1stESt4hashIS6_ENS_18_Mod_range_hashingENS_20_Default_ranged_hashELb1EE15_M_bucket_indexEmm = comdat any

$_ZNKSt8__detail18_Mod_range_hashingclEmm = comdat any

$_ZNKSt10_HashtableINSt7__cxx1112basic_stringIcSt11char_traitsIcESaIcEEESt4pairIKS5_N8facebook5velox4exec17SignatureVariableEESaISC_ENSt8__detail10_Select1stESt8equal_toIS5_ESt4hashIS5_ENSE_18_Mod_range_hashingENSE_20_Default_ranged_hashENSE_20_Prime_rehash_policyENSE_17_Hashtable_traitsILb1ELb0ELb1EEEE19_M_find_before_nodeEmRS7_m = comdat any

$_ZNKSt8__detail15_Hashtable_baseINSt7__cxx1112basic_stringIcSt11char_traitsIcESaIcEEESt4pairIKS6_N8facebook5velox4exec17SignatureVariableEENS_10_Select1stESt8equal_toIS6_ESt4hashIS6_ENS_18_Mod_range_hashingENS_20_Default_ranged_hashENS_17_Hashtable_traitsILb1ELb0ELb1EEEE9_M_equalsERS8_mRKNS_16_Hash_node_valueISD_Lb1EEE = comdat any

$_ZNKSt10_HashtableINSt7__cxx1112basic_stringIcSt11char_traitsIcESaIcEEESt4pairIKS5_N8facebook5velox4exec17SignatureVariableEESaISC_ENSt8__detail10_Select1stESt8equal_toIS5_ESt4hashIS5_ENSE_18_Mod_range_hashingENSE_20_Default_ranged_hashENSE_20_Prime_rehash_policyENSE_17_Hashtable_traitsILb1ELb0ELb1EEEE15_M_bucket_indexERKNSE_16_Hash_node_valueISC_Lb1EEE = comdat any

$_ZNSt8__detail15_Hashtable_baseINSt7__cxx1112basic_stringIcSt11char_traitsIcESaIcEEESt4pairIKS6_N8facebook5velox4exec17SignatureVariableEENS_10_Select1stESt8equal_toIS6_ESt4hashIS6_ENS_18_Mod_range_hashingENS_20_Default_ranged_hashENS_17_Hashtable_traitsILb1ELb0ELb1EEEE9_S_equalsEmRKNS_21_Hash_node_code_cacheILb1EEE = comdat any

$_ZNKSt8__detail15_Hash_code_baseINSt7__cxx1112basic_stringIcSt11char_traitsIcESaIcEEESt4pairIKS6_N8facebook5velox4exec17SignatureVariableEENS_10_Select1stESt4hashIS6_ENS_18_Mod_range_hashingENS_20_Default_ranged_hashELb1EE15_M_bucket_indexERKNS_16_Hash_node_valueISD_Lb1EEEm = comdat any

$_ZNSt8__detail19_Node_iterator_baseISt4pairIKNSt7__cxx1112basic_stringIcSt11char_traitsIcESaIcEEEN8facebook5velox4exec17SignatureVariableEELb1EEC2EPNS_10_Hash_nodeISD_Lb1EEE = comdat any

$_ZNSt10_HashtableINSt7__cxx1112basic_stringIcSt11char_traitsIcESaIcEEESt4pairIKS5_N8facebook5velox4exec17SignatureVariableEESaISC_ENSt8__detail10_Select1stESt8equal_toIS5_ESt4hashIS5_ENSE_18_Mod_range_hashingENSE_20_Default_ranged_hashENSE_20_Prime_rehash_policyENSE_17_Hashtable_traitsILb1ELb0ELb1EEEE7emplaceIJRS7_RKSB_EEES6_INSE_14_Node_iteratorISC_Lb0ELb1EEEbEDpOT_ = comdat any

$_ZNSt10_HashtableINSt7__cxx1112basic_stringIcSt11char_traitsIcESaIcEEESt4pairIKS5_N8facebook5velox4exec17SignatureVariableEESaISC_ENSt8__detail10_Select1stESt8equal_toIS5_ESt4hashIS5_ENSE_18_Mod_range_hashingENSE_20_Default_ranged_hashENSE_20_Prime_rehash_policyENSE_17_Hashtable_traitsILb1ELb0ELb1EEEE10_M_emplaceIJRS7_RKSB_EEES6_INSE_14_Node_iteratorISC_Lb0ELb1EEEbESt17integral_constantIbLb1EEDpOT_ = comdat any

$_ZNSt10_HashtableINSt7__cxx1112basic_stringIcSt11char_traitsIcESaIcEEESt4pairIKS5_N8facebook5velox4exec17SignatureVariableEESaISC_ENSt8__detail10_Select1stESt8equal_toIS5_ESt4hashIS5_ENSE_18_Mod_range_hashingENSE_20_Default_ranged_hashENSE_20_Prime_rehash_policyENSE_17_Hashtable_traitsILb1ELb0ELb1EEEE12_Scoped_nodeC2IJRS7_RKSB_EEEPNSE_16_Hashtable_allocISaINSE_10_Hash_nodeISC_Lb1EEEEEEDpOT_ = comdat any

$_ZNKSt8__detail10_Select1stclIRSt4pairIKNSt7__cxx1112basic_stringIcSt11char_traitsIcESaIcEEEN8facebook5velox4exec17SignatureVariableEEEEONS0_10__1st_typeIT_E4typeEOSH_ = comdat any

$_ZNSt8__detail21_Hash_node_value_baseISt4pairIKNSt7__cxx1112basic_stringIcSt11char_traitsIcESaIcEEEN8facebook5velox4exec17SignatureVariableEEE4_M_vEv = comdat any

$_ZNSt10_HashtableINSt7__cxx1112basic_stringIcSt11char_traitsIcESaIcEEESt4pairIKS5_N8facebook5velox4exec17SignatureVariableEESaISC_ENSt8__detail10_Select1stESt8equal_toIS5_ESt4hashIS5_ENSE_18_Mod_range_hashingENSE_20_Default_ranged_hashENSE_20_Prime_rehash_policyENSE_17_Hashtable_traitsILb1ELb0ELb1EEEE5beginEv = comdat any

$_ZNSt10_HashtableINSt7__cxx1112basic_stringIcSt11char_traitsIcESaIcEEESt4pairIKS5_N8facebook5velox4exec17SignatureVariableEESaISC_ENSt8__detail10_Select1stESt8equal_toIS5_ESt4hashIS5_ENSE_18_Mod_range_hashingENSE_20_Default_ranged_hashENSE_20_Prime_rehash_policyENSE_17_Hashtable_traitsILb1ELb0ELb1EEEE3endEv = comdat any

$_ZNSt4pairINSt8__detail14_Node_iteratorIS_IKNSt7__cxx1112basic_stringIcSt11char_traitsIcESaIcEEEN8facebook5velox4exec17SignatureVariableEELb0ELb1EEEbEC2IRSE_bTnNSt9enable_ifIXaaclsr5_PCCPE22_MoveConstructiblePairIT_T0_EEclsr5_PCCPE30_ImplicitlyMoveConvertiblePairISJ_SK_EEEbE4typeELb1EEEOSJ_OSK_ = comdat any

$_ZNSt8__detail14_Node_iteratorISt4pairIKNSt7__cxx1112basic_stringIcSt11char_traitsIcESaIcEEEN8facebook5velox4exec17SignatureVariableEELb0ELb1EEppEv = comdat any

$_ZNSt8__detail14_Node_iteratorISt4pairIKNSt7__cxx1112basic_stringIcSt11char_traitsIcESaIcEEEN8facebook5velox4exec17SignatureVariableEELb0ELb1EEC2EPNS_10_Hash_nodeISD_Lb1EEE = comdat any

$_ZNSt4pairINSt8__detail14_Node_iteratorIS_IKNSt7__cxx1112basic_stringIcSt11char_traitsIcESaIcEEEN8facebook5velox4exec17SignatureVariableEELb0ELb1EEEbEC2ISE_bTnNSt9enable_ifIXaaclsr5_PCCPE22_MoveConstructiblePairIT_T0_EEclsr5_PCCPE30_ImplicitlyMoveConvertiblePairISI_SJ_EEEbE4typeELb1EEEOSI_OSJ_ = comdat any

$_ZNSt10_HashtableINSt7__cxx1112basic_stringIcSt11char_traitsIcESaIcEEESt4pairIKS5_N8facebook5velox4exec17SignatureVariableEESaISC_ENSt8__detail10_Select1stESt8equal_toIS5_ESt4hashIS5_ENSE_18_Mod_range_hashingENSE_20_Default_ranged_hashENSE_20_Prime_rehash_policyENSE_17_Hashtable_traitsILb1ELb0ELb1EEEE21_M_insert_unique_nodeEmmPNSE_10_Hash_nodeISC_Lb1EEEm = comdat any

$_ZNSt10_HashtableINSt7__cxx1112basic_stringIcSt11char_traitsIcESaIcEEESt4pairIKS5_N8facebook5velox4exec17SignatureVariableEESaISC_ENSt8__detail10_Select1stESt8equal_toIS5_ESt4hashIS5_ENSE_18_Mod_range_hashingENSE_20_Default_ranged_hashENSE_20_Prime_rehash_policyENSE_17_Hashtable_traitsILb1ELb0ELb1EEEE12_Scoped_nodeD2Ev = comdat any

$_ZNSt8__detail16_Hashtable_allocISaINS_10_Hash_nodeISt4pairIKNSt7__cxx1112basic_stringIcSt11char_traitsIcESaIcEEEN8facebook5velox4exec17SignatureVariableEELb1EEEEE16_M_allocate_nodeIJRS9_RKSD_EEEPSF_DpOT_ = comdat any

$_ZNSt16allocator_traitsISaINSt8__detail10_Hash_nodeISt4pairIKNSt7__cxx1112basic_stringIcSt11char_traitsIcESaIcEEEN8facebook5velox4exec17SignatureVariableEELb1EEEEE8allocateERSG_m = comdat any

$_ZSt12__to_addressINSt8__detail10_Hash_nodeISt4pairIKNSt7__cxx1112basic_stringIcSt11char_traitsIcESaIcEEEN8facebook5velox4exec17SignatureVariableEELb1EEEEPT_SH_ = comdat any

$_ZNSt8__detail10_Hash_nodeISt4pairIKNSt7__cxx1112basic_stringIcSt11char_traitsIcESaIcEEEN8facebook5velox4exec17SignatureVariableEELb1EEC2Ev = comdat any

$_ZNSt16allocator_traitsISaINSt8__detail10_Hash_nodeISt4pairIKNSt7__cxx1112basic_stringIcSt11char_traitsIcESaIcEEEN8facebook5velox4exec17SignatureVariableEELb1EEEEE9constructISE_JRS9_RKSD_EEEvRSG_PT_DpOT0_ = comdat any

$_ZNSt15__new_allocatorINSt8__detail10_Hash_nodeISt4pairIKNSt7__cxx1112basic_stringIcSt11char_traitsIcESaIcEEEN8facebook5velox4exec17SignatureVariableEELb1EEEE8allocateEmPKv = comdat any

$_ZNKSt15__new_allocatorINSt8__detail10_Hash_nodeISt4pairIKNSt7__cxx1112basic_stringIcSt11char_traitsIcESaIcEEEN8facebook5velox4exec17SignatureVariableEELb1EEEE11_M_max_sizeEv = comdat any

$_ZNSt15__new_allocatorINSt8__detail10_Hash_nodeISt4pairIKNSt7__cxx1112basic_stringIcSt11char_traitsIcESaIcEEEN8facebook5velox4exec17SignatureVariableEELb1EEEE9constructISE_JRS9_RKSD_EEEvPT_DpOT0_ = comdat any

$_ZNSt4pairIKNSt7__cxx1112basic_stringIcSt11char_traitsIcESaIcEEEN8facebook5velox4exec17SignatureVariableEEC2IS6_SA_TnNSt9enable_ifIXaaclsr5_PCCPE18_ConstructiblePairIT_T0_EEclsr5_PCCPE26_ImplicitlyConvertiblePairISE_SF_EEEbE4typeELb1EEERS6_RKSA_ = comdat any

$_ZN8facebook5velox4exec17SignatureVariableC2ERKS2_ = comdat any

$_ZNKSt8__detail20_Prime_rehash_policy8_M_stateEv = comdat any

$_ZNSt10_HashtableINSt7__cxx1112basic_stringIcSt11char_traitsIcESaIcEEESt4pairIKS5_N8facebook5velox4exec17SignatureVariableEESaISC_ENSt8__detail10_Select1stESt8equal_toIS5_ESt4hashIS5_ENSE_18_Mod_range_hashingENSE_20_Default_ranged_hashENSE_20_Prime_rehash_policyENSE_17_Hashtable_traitsILb1ELb0ELb1EEEE9_M_rehashEmRKm = comdat any

$_ZNKSt8__detail15_Hash_code_baseINSt7__cxx1112basic_stringIcSt11char_traitsIcESaIcEEESt4pairIKS6_N8facebook5velox4exec17SignatureVariableEENS_10_Select1stESt4hashIS6_ENS_18_Mod_range_hashingENS_20_Default_ranged_hashELb1EE13_M_store_codeERNS_21_Hash_node_code_cacheILb1EEEm = comdat any

$_ZNSt10_HashtableINSt7__cxx1112basic_stringIcSt11char_traitsIcESaIcEEESt4pairIKS5_N8facebook5velox4exec17SignatureVariableEESaISC_ENSt8__detail10_Select1stESt8equal_toIS5_ESt4hashIS5_ENSE_18_Mod_range_hashingENSE_20_Default_ranged_hashENSE_20_Prime_rehash_policyENSE_17_Hashtable_traitsILb1ELb0ELb1EEEE22_M_insert_bucket_beginEmPNSE_10_Hash_nodeISC_Lb1EEE = comdat any

$_ZNSt10_HashtableINSt7__cxx1112basic_stringIcSt11char_traitsIcESaIcEEESt4pairIKS5_N8facebook5velox4exec17SignatureVariableEESaISC_ENSt8__detail10_Select1stESt8equal_toIS5_ESt4hashIS5_ENSE_18_Mod_range_hashingENSE_20_Default_ranged_hashENSE_20_Prime_rehash_policyENSE_17_Hashtable_traitsILb1ELb0ELb1EEEE13_M_rehash_auxEmSt17integral_constantIbLb1EE = comdat any

$_ZNSt8__detail20_Prime_rehash_policy8_M_resetEm = comdat any

$_ZNSt10_HashtableINSt7__cxx1112basic_stringIcSt11char_traitsIcESaIcEEESt4pairIKS5_N8facebook5velox4exec17SignatureVariableEESaISC_ENSt8__detail10_Select1stESt8equal_toIS5_ESt4hashIS5_ENSE_18_Mod_range_hashingENSE_20_Default_ranged_hashENSE_20_Prime_rehash_policyENSE_17_Hashtable_traitsILb1ELb0ELb1EEEE19_M_allocate_bucketsEm = comdat any

$_ZNSt8__detail16_Hashtable_allocISaINS_10_Hash_nodeISt4pairIKNSt7__cxx1112basic_stringIcSt11char_traitsIcESaIcEEEN8facebook5velox4exec17SignatureVariableEELb1EEEEE19_M_allocate_bucketsEm = comdat any

$_ZNSt16allocator_traitsISaIPNSt8__detail15_Hash_node_baseEEE8allocateERS3_m = comdat any

$_ZSt12__to_addressIPNSt8__detail15_Hash_node_baseEEPT_S4_ = comdat any

$_ZNSt15__new_allocatorIPNSt8__detail15_Hash_node_baseEE8allocateEmPKv = comdat any

$_ZNKSt15__new_allocatorIPNSt8__detail15_Hash_node_baseEE11_M_max_sizeEv = comdat any

$_ZNSt14_Optional_baseINSt7__cxx1112basic_stringIcSt11char_traitsIcESaIcEEELb0ELb0EEC2Ev = comdat any

$_ZNSt17_Optional_payloadINSt7__cxx1112basic_stringIcSt11char_traitsIcESaIcEEELb0ELb0ELb0EEC2Ev = comdat any

$_ZNSt17_Optional_payloadINSt7__cxx1112basic_stringIcSt11char_traitsIcESaIcEEELb1ELb0ELb0EEC2Ev = comdat any

$_ZNSt22_Optional_payload_baseINSt7__cxx1112basic_stringIcSt11char_traitsIcESaIcEEEEC2Ev = comdat any

$_ZNSt14_Optional_baseINSt7__cxx1112basic_stringIcSt11char_traitsIcESaIcEEELb0ELb0EED2Ev = comdat any

$_ZNSt17_Optional_payloadINSt7__cxx1112basic_stringIcSt11char_traitsIcESaIcEEELb0ELb0ELb0EED2Ev = comdat any

$_ZNSt22_Optional_payload_baseINSt7__cxx1112basic_stringIcSt11char_traitsIcESaIcEEEE8_M_resetEv = comdat any

$_ZNSt17_Optional_payloadINSt7__cxx1112basic_stringIcSt11char_traitsIcESaIcEEELb1ELb0ELb0EED2Ev = comdat any

$_ZNSt22_Optional_payload_baseINSt7__cxx1112basic_stringIcSt11char_traitsIcESaIcEEEE10_M_destroyEv = comdat any

$_ZNSt22_Optional_payload_baseINSt7__cxx1112basic_stringIcSt11char_traitsIcESaIcEEEED2Ev = comdat any

$_ZSt8_DestroyIPNSt7__cxx1112basic_stringIcSt11char_traitsIcESaIcEEES5_EvT_S7_RSaIT0_E = comdat any

$_ZSt8_DestroyIPSt10shared_ptrIN8facebook5velox4exec17FunctionSignatureEES5_EvT_S7_RSaIT0_E = comdat any

$_ZNSt12_Vector_baseISt10shared_ptrIN8facebook5velox4exec17FunctionSignatureEESaIS5_EED2Ev = comdat any

$_ZSt8_DestroyIPSt10shared_ptrIN8facebook5velox4exec17FunctionSignatureEEEvT_S7_ = comdat any

$_ZNSt12_Destroy_auxILb0EE9__destroyIPSt10shared_ptrIN8facebook5velox4exec17FunctionSignatureEEEEvT_S9_ = comdat any

$_ZSt8_DestroyISt10shared_ptrIN8facebook5velox4exec17FunctionSignatureEEEvPT_ = comdat any

$_ZNSt12_Vector_baseISt10shared_ptrIN8facebook5velox4exec17FunctionSignatureEESaIS5_EE12_Vector_implD2Ev = comdat any

$_ZNSaISt10shared_ptrIN8facebook5velox4exec17FunctionSignatureEEED2Ev = comdat any

$_ZNSt15__new_allocatorISt10shared_ptrIN8facebook5velox4exec17FunctionSignatureEEED2Ev = comdat any

$_ZN8facebook5velox4exec14VectorFunctionC2Ev = comdat any

$_ZNK8facebook5velox4exec14VectorFunction15isDeterministicEv = comdat any

$_ZNK8facebook5velox4exec14VectorFunction21isDefaultNullBehaviorEv = comdat any

$_ZNK8facebook5velox4exec14VectorFunction27supportsFlatNoNullsFastPathEv = comdat any

$_ZNK8facebook5velox4exec14VectorFunction25ensureStringEncodingSetAtEv = comdat any

$_ZNK8facebook5velox4exec14VectorFunction34ensureStringEncodingSetAtAllInputsEv = comdat any

$_ZNK8facebook5velox4exec14VectorFunction36propagateStringEncodingFromAllInputsEv = comdat any

$_ZNK8facebook5velox4exec14VectorFunction27propagateStringEncodingFromEv = comdat any

$_ZN8facebook5velox4exec14VectorFunctionD2Ev = comdat any

$_ZN8facebook5velox4exec14VectorFunctionD0Ev = comdat any

$_ZNKSt12__shared_ptrIKN8facebook5velox4TypeELN9__gnu_cxx12_Lock_policyE2EE3getEv = comdat any

$_ZNK8facebook5velox4Type4kindEv = comdat any

$_ZN8facebook5velox4exec7EvalCtx14ensureWritableERKNS0_17SelectivityVectorERKSt10shared_ptrIKNS0_4TypeEERS6_INS0_10BaseVectorEE = comdat any

$_ZNKSt19__shared_ptr_accessIN8facebook5velox10BaseVectorELN9__gnu_cxx12_Lock_policyE2ELb0ELb0EEptEv = comdat any

$_ZN8facebook5velox10BaseVector2asINS0_10FlatVectorIbEEEEPT_v = comdat any

$_ZN8facebook5velox10FlatVectorIbE13mutableValuesEi = comdat any

$_ZNK8facebook5velox17SelectivityVector3endEv = comdat any

$_ZNK5boost13intrusive_ptrIN8facebook5velox6BufferEEptEv = comdat any

$_ZNK8facebook5velox6Buffer9asMutableIbEEPT_v = comdat any

$_ZN8facebook5velox4exec11DecodedArgsC2ERKNS0_17SelectivityVectorERKSt6vectorISt10shared_ptrINS0_10BaseVectorEESaIS9_EERNS1_7EvalCtxE = comdat any

$_ZNSt3setImSt4lessImESaImEEC2Ev = comdat any

$_ZNSt3setImSt4lessImESaImEED2Ev = comdat any

$_ZN8facebook5velox4exec11DecodedArgsD2Ev = comdat any

$_ZN5boost13intrusive_ptrIN8facebook5velox6BufferEED2Ev = comdat any

$_ZNK8facebook5velox4core7ExecCtx4poolEv = comdat any

$_ZN8facebook5velox4core7ExecCtx10vectorPoolEv = comdat any

$_ZNKSt10unique_ptrIN8facebook5velox10VectorPoolESt14default_deleteIS2_EE3getEv = comdat any

$_ZNKSt15__uniq_ptr_implIN8facebook5velox10VectorPoolESt14default_deleteIS2_EE6_M_ptrEv = comdat any

$_ZSt3getILm0EJPN8facebook5velox10VectorPoolESt14default_deleteIS2_EEERKNSt13tuple_elementIXT_ESt5tupleIJDpT0_EEE4typeERKSA_ = comdat any

$_ZSt12__get_helperILm0EPN8facebook5velox10VectorPoolEJSt14default_deleteIS2_EEERKT0_RKSt11_Tuple_implIXT_EJS6_DpT1_EE = comdat any

$_ZNSt11_Tuple_implILm0EJPN8facebook5velox10VectorPoolESt14default_deleteIS2_EEE7_M_headERKS6_ = comdat any

$_ZNSt10_Head_baseILm0EPN8facebook5velox10VectorPoolELb0EE7_M_headERKS4_ = comdat any

$_ZNKSt19__shared_ptr_accessIN8facebook5velox10BaseVectorELN9__gnu_cxx12_Lock_policyE2ELb0ELb0EE6_M_getEv = comdat any

$_ZNKSt12__shared_ptrIN8facebook5velox10BaseVectorELN9__gnu_cxx12_Lock_policyE2EE3getEv = comdat any

$_ZNK5boost13intrusive_ptrIN8facebook5velox6BufferEEcvbEv = comdat any

$_ZNK8facebook5velox6Buffer6uniqueEv = comdat any

$_ZNK8facebook5velox6Buffer4sizeEv = comdat any

$_ZN8facebook5velox13AlignedBuffer10reallocateIbEEvPN5boost13intrusive_ptrINS0_6BufferEEEmRKSt8optionalIT_E = comdat any

$_ZNSt8optionalIbEC2IbTnNSt9enable_ifIX7__and_vISt6__not_ISt7is_sameIS0_NSt9remove_cvINSt16remove_referenceIT_E4typeEE4typeEEES3_IS4_ISt10in_place_tSB_EESt16is_constructibleIbJS7_EESt14is_convertibleIS7_bEEEbE4typeELb1EEEOS7_ = comdat any

$_ZN8facebook5velox13AlignedBuffer8allocateIbEEN5boost13intrusive_ptrINS0_6BufferEEEmPNS0_6memory10MemoryPoolERKSt8optionalIT_E = comdat any

$_ZNK8facebook5velox10BaseVector4poolEv = comdat any

$_ZSt3minIiERKT_S2_S2_ = comdat any

$_ZNK8facebook5velox6Buffer2asIbEEPKT_v = comdat any

$_ZN5boost13intrusive_ptrIN8facebook5velox6BufferEEaSERKS4_ = comdat any

$_ZN5boost13intrusive_ptrIN8facebook5velox6BufferEEC2ERKS4_ = comdat any

$_ZNKSt13__atomic_baseIiEcviEv = comdat any

$_ZStanSt12memory_orderSt23__memory_order_modifier = comdat any

$_ZN8facebook5velox13AlignedBuffer10reallocateIcEEvPN5boost13intrusive_ptrINS0_6BufferEEEmRKSt8optionalIT_E = comdat any

$_ZN8facebook5velox4bits6nbytesEi = comdat any

$_ZNKSt8optionalIbEcvbEv = comdat any

$_ZNKRSt8optionalIbEdeEv = comdat any

$_ZNSt8optionalIcEC2IiTnNSt9enable_ifIX7__and_vISt6__not_ISt7is_sameIS0_NSt9remove_cvINSt16remove_referenceIT_E4typeEE4typeEEES3_IS4_ISt10in_place_tSB_EESt16is_constructibleIcJS7_EESt14is_convertibleIS7_cEEEbE4typeELb1EEEOS7_ = comdat any

$_ZNSt8optionalIcEC2ESt9nullopt_t = comdat any

$_ZN8facebook5velox15checkedMultiplyImEET_RKS2_S4_PKc = comdat any

$_ZNK5boost13intrusive_ptrIN8facebook5velox6BufferEE3getEv = comdat any

$_ZNK8facebook5velox6Buffer13checkEndGuardEv = comdat any

$_ZNK8facebook5velox6Buffer8capacityEv = comdat any

$_ZN8facebook5velox13AlignedBuffer13fillNewMemoryIcEEvmmRKSt8optionalIT_E = comdat any

$_ZNK8facebook5velox6Buffer4poolEv = comdat any

$_ZN8facebook5velox13AlignedBuffer8allocateIcEEN5boost13intrusive_ptrINS0_6BufferEEEmPNS0_6memory10MemoryPoolERKSt8optionalIT_E = comdat any

$_ZN5boost13intrusive_ptrIN8facebook5velox6BufferEEaSEOS4_ = comdat any

$_ZN8facebook5velox11checkedPlusImEET_RKS2_S4_PKc = comdat any

$_ZN5boost13intrusive_ptrIN8facebook5velox6BufferEE6detachEv = comdat any

$_ZN5boost13intrusive_ptrIN8facebook5velox6BufferEEaSEPS3_ = comdat any

$_ZN8facebook5velox6Buffer11setCapacityEm = comdat any

$_ZN8facebook5velox13AlignedBufferC2EPNS0_6memory10MemoryPoolEm = comdat any

$_ZNKSt8optionalIcEcvbEv = comdat any

$_ZNK8facebook5velox6Buffer9asMutableIcEEPT_v = comdat any

$_ZSt4fillIPccEvT_S1_RKT0_ = comdat any

$_ZNKRSt8optionalIcEdeEv = comdat any

$_ZNKSt19_Optional_base_implIcSt14_Optional_baseIcLb1ELb1EEE13_M_is_engagedEv = comdat any

$_ZSt8__fill_aIPccEvT_S1_RKT0_ = comdat any

$_ZSt9__fill_a1IcEN9__gnu_cxx11__enable_ifIXsr9__is_byteIT_EE7__valueEvE6__typeEPS2_S5_RKS2_ = comdat any

$_ZNKSt19_Optional_base_implIcSt14_Optional_baseIcLb1ELb1EEE6_M_getEv = comdat any

$_ZNKSt22_Optional_payload_baseIcE6_M_getEv = comdat any

$_ZN5boost13intrusive_ptrIN8facebook5velox6BufferEEC2EPS3_b = comdat any

$_ZN8facebook5velox6Buffer6addRefEv = comdat any

$_ZN5boost13intrusive_ptrIN8facebook5velox6BufferEEC2EOS4_ = comdat any

$_ZN5boost13intrusive_ptrIN8facebook5velox6BufferEE4swapERS4_ = comdat any

$_ZN8facebook5velox6Buffer11setEndGuardEv = comdat any

$_ZN8facebook5velox6BufferC2EPNS0_6memory10MemoryPoolEPhmb = comdat any

$_ZN8facebook5velox13AlignedBufferD2Ev = comdat any

$_ZN8facebook5velox13AlignedBufferD0Ev = comdat any

$_ZN8facebook5velox6Buffer7setSizeEm = comdat any

$_ZNK8facebook5velox6Buffer6isViewEv = comdat any

$_ZN8facebook5velox13AlignedBuffer15setEndGuardImplEv = comdat any

$_ZNK8facebook5velox13AlignedBuffer17checkEndGuardImplEv = comdat any

$_ZN8facebook5velox13AlignedBuffer10freeToPoolEv = comdat any

$_ZN8facebook5velox6Buffer8copyFromEPKS1_m = comdat any

$_ZN8facebook5velox6Buffer16releaseResourcesEv = comdat any

$_ZNSt6atomicIiEC2Ei = comdat any

$_ZN8facebook5velox6BufferD2Ev = comdat any

$_ZN8facebook5velox6BufferD0Ev = comdat any

$_ZN8facebook5velox6Buffer15setEndGuardImplEv = comdat any

$_ZNK8facebook5velox6Buffer17checkEndGuardImplEv = comdat any

$_ZN8facebook5velox6Buffer10freeToPoolEv = comdat any

$_ZNSt13__atomic_baseIiEC2Ei = comdat any

$_ZN8facebook5velox4bits7roundUpIiiEET_S3_T0_ = comdat any

$_ZNKSt19_Optional_base_implIbSt14_Optional_baseIbLb1ELb1EEE13_M_is_engagedEv = comdat any

$_ZNKSt19_Optional_base_implIbSt14_Optional_baseIbLb1ELb1EEE6_M_getEv = comdat any

$_ZNKSt22_Optional_payload_baseIbE6_M_getEv = comdat any

$_ZNSt14_Optional_baseIcLb1ELb1EEC2IJiETnNSt9enable_ifIX18is_constructible_vIcDpT_EEbE4typeELb0EEESt10in_place_tDpOS3_ = comdat any

$_ZNSt17_Optional_payloadIcLb1ELb1ELb1EECI2St22_Optional_payload_baseIcEIJiEEESt10in_place_tDpOT_ = comdat any

$_ZNSt22_Optional_payload_baseIcEC2IJiEEESt10in_place_tDpOT_ = comdat any

$_ZNSt22_Optional_payload_baseIcE8_StorageIcLb1EEC2IJiEEESt10in_place_tDpOT_ = comdat any

$_ZNSt14_Optional_baseIcLb1ELb1EEC2Ev = comdat any

$_ZNSt17_Optional_payloadIcLb1ELb1ELb1EEC2Ev = comdat any

$_ZNSt22_Optional_payload_baseIcEC2Ev = comdat any

$_ZNSt22_Optional_payload_baseIcE8_StorageIcLb1EEC2Ev = comdat any

$_ZNSt14_Optional_baseIbLb1ELb1EEC2IJbETnNSt9enable_ifIX18is_constructible_vIbDpT_EEbE4typeELb0EEESt10in_place_tDpOS3_ = comdat any

$_ZNSt17_Optional_payloadIbLb1ELb1ELb1EECI2St22_Optional_payload_baseIbEIJbEEESt10in_place_tDpOT_ = comdat any

$_ZNSt22_Optional_payload_baseIbEC2IJbEEESt10in_place_tDpOT_ = comdat any

$_ZNSt22_Optional_payload_baseIbE8_StorageIbLb1EEC2IJbEEESt10in_place_tDpOT_ = comdat any

$_ZNSt6vectorIN8facebook5velox4exec18LocalDecodedVectorESaIS3_EEC2Ev = comdat any

$_ZNKSt6vectorISt10shared_ptrIN8facebook5velox10BaseVectorEESaIS4_EE5beginEv = comdat any

$_ZNKSt6vectorISt10shared_ptrIN8facebook5velox10BaseVectorEESaIS4_EE3endEv = comdat any

$_ZN9__gnu_cxxneIPKSt10shared_ptrIN8facebook5velox10BaseVectorEESt6vectorIS5_SaIS5_EEEEbRKNS_17__normal_iteratorIT_T0_EESG_ = comdat any

$_ZNK9__gnu_cxx17__normal_iteratorIPKSt10shared_ptrIN8facebook5velox10BaseVectorEESt6vectorIS5_SaIS5_EEEdeEv = comdat any

$_ZNSt6vectorIN8facebook5velox4exec18LocalDecodedVectorESaIS3_EE12emplace_backIJRNS2_7EvalCtxERNS1_10BaseVectorERKNS1_17SelectivityVectorEEEERS3_DpOT_ = comdat any

$_ZNKSt19__shared_ptr_accessIN8facebook5velox10BaseVectorELN9__gnu_cxx12_Lock_policyE2ELb0ELb0EEdeEv = comdat any

$_ZN9__gnu_cxx17__normal_iteratorIPKSt10shared_ptrIN8facebook5velox10BaseVectorEESt6vectorIS5_SaIS5_EEEppEv = comdat any

$_ZNSt6vectorIN8facebook5velox4exec18LocalDecodedVectorESaIS3_EED2Ev = comdat any

$_ZNSt12_Vector_baseIN8facebook5velox4exec18LocalDecodedVectorESaIS3_EEC2Ev = comdat any

$_ZNSt12_Vector_baseIN8facebook5velox4exec18LocalDecodedVectorESaIS3_EE12_Vector_implC2Ev = comdat any

$_ZNSaIN8facebook5velox4exec18LocalDecodedVectorEEC2Ev = comdat any

$_ZNSt12_Vector_baseIN8facebook5velox4exec18LocalDecodedVectorESaIS3_EE17_Vector_impl_dataC2Ev = comdat any

$_ZNSt15__new_allocatorIN8facebook5velox4exec18LocalDecodedVectorEEC2Ev = comdat any

$_ZN9__gnu_cxx17__normal_iteratorIPKSt10shared_ptrIN8facebook5velox10BaseVectorEESt6vectorIS5_SaIS5_EEEC2ERKS7_ = comdat any

$_ZNK9__gnu_cxx17__normal_iteratorIPKSt10shared_ptrIN8facebook5velox10BaseVectorEESt6vectorIS5_SaIS5_EEE4baseEv = comdat any

$_ZNSt16allocator_traitsISaIN8facebook5velox4exec18LocalDecodedVectorEEE9constructIS3_JRNS2_7EvalCtxERNS1_10BaseVectorERKNS1_17SelectivityVectorEEEEvRS4_PT_DpOT0_ = comdat any

$_ZNSt6vectorIN8facebook5velox4exec18LocalDecodedVectorESaIS3_EE17_M_realloc_insertIJRNS2_7EvalCtxERNS1_10BaseVectorERKNS1_17SelectivityVectorEEEEvN9__gnu_cxx17__normal_iteratorIPS3_S5_EEDpOT_ = comdat any

$_ZNSt6vectorIN8facebook5velox4exec18LocalDecodedVectorESaIS3_EE3endEv = comdat any

$_ZNSt6vectorIN8facebook5velox4exec18LocalDecodedVectorESaIS3_EE4backEv = comdat any

$_ZNSt15__new_allocatorIN8facebook5velox4exec18LocalDecodedVectorEE9constructIS3_JRNS2_7EvalCtxERNS1_10BaseVectorERKNS1_17SelectivityVectorEEEEvPT_DpOT0_ = comdat any

$_ZN8facebook5velox4exec18LocalDecodedVectorC2ERKNS1_7EvalCtxERKNS0_10BaseVectorERKNS0_17SelectivityVectorEb = comdat any

$_ZNK8facebook5velox4exec7EvalCtx7execCtxEv = comdat any

$_ZNSt17reference_wrapperIN8facebook5velox4core7ExecCtxEEC2IRS3_vPS3_EEOT_ = comdat any

$_ZNSt10unique_ptrIN8facebook5velox13DecodedVectorESt14default_deleteIS2_EEC2IS4_vEEv = comdat any

$_ZN8facebook5velox4exec18LocalDecodedVector3getEv = comdat any

$_ZN8facebook5velox13DecodedVector6decodeERKNS0_10BaseVectorERKNS0_17SelectivityVectorEb = comdat any

$_ZNSt10unique_ptrIN8facebook5velox13DecodedVectorESt14default_deleteIS2_EED2Ev = comdat any

$_ZNSt17reference_wrapperIN8facebook5velox4core7ExecCtxEE6_S_funERS3_ = comdat any

$_ZNSt15__uniq_ptr_dataIN8facebook5velox13DecodedVectorESt14default_deleteIS2_ELb1ELb1EEC2Ev = comdat any

$_ZNSt15__uniq_ptr_implIN8facebook5velox13DecodedVectorESt14default_deleteIS2_EEC2Ev = comdat any

$_ZNSt5tupleIJPN8facebook5velox13DecodedVectorESt14default_deleteIS2_EEEC2ILb1ETnNSt9enable_ifIXclsr17_TupleConstraintsIXT_ES3_S5_EE37__is_implicitly_default_constructibleEEbE4typeELb1EEEv = comdat any

$_ZNSt11_Tuple_implILm0EJPN8facebook5velox13DecodedVectorESt14default_deleteIS2_EEEC2Ev = comdat any

$_ZNSt11_Tuple_implILm1EJSt14default_deleteIN8facebook5velox13DecodedVectorEEEEC2Ev = comdat any

$_ZNSt10_Head_baseILm0EPN8facebook5velox13DecodedVectorELb0EEC2Ev = comdat any

$_ZNSt10_Head_baseILm1ESt14default_deleteIN8facebook5velox13DecodedVectorEELb1EEC2Ev = comdat any

$_ZNKSt10unique_ptrIN8facebook5velox13DecodedVectorESt14default_deleteIS2_EEcvbEv = comdat any

$_ZNKSt17reference_wrapperIN8facebook5velox4core7ExecCtxEE3getEv = comdat any

$_ZN8facebook5velox4core7ExecCtx16getDecodedVectorEv = comdat any

$_ZNSt10unique_ptrIN8facebook5velox13DecodedVectorESt14default_deleteIS2_EEaSEOS5_ = comdat any

$_ZNKSt10unique_ptrIN8facebook5velox13DecodedVectorESt14default_deleteIS2_EE3getEv = comdat any

$_ZNKSt6vectorISt10unique_ptrIN8facebook5velox13DecodedVectorESt14default_deleteIS3_EESaIS6_EE5emptyEv = comdat any

$_ZSt11make_uniqueIN8facebook5velox13DecodedVectorEJEENSt8__detail9_MakeUniqIT_E15__single_objectEDpOT0_ = comdat any

$_ZNSt6vectorISt10unique_ptrIN8facebook5velox13DecodedVectorESt14default_deleteIS3_EESaIS6_EE4backEv = comdat any

$_ZNSt10unique_ptrIN8facebook5velox13DecodedVectorESt14default_deleteIS2_EEC2EOS5_ = comdat any

$_ZNSt6vectorISt10unique_ptrIN8facebook5velox13DecodedVectorESt14default_deleteIS3_EESaIS6_EE8pop_backEv = comdat any

$_ZN9__gnu_cxxeqIPKSt10unique_ptrIN8facebook5velox13DecodedVectorESt14default_deleteIS4_EESt6vectorIS7_SaIS7_EEEEbRKNS_17__normal_iteratorIT_T0_EESI_ = comdat any

$_ZNKSt6vectorISt10unique_ptrIN8facebook5velox13DecodedVectorESt14default_deleteIS3_EESaIS6_EE5beginEv = comdat any

$_ZNKSt6vectorISt10unique_ptrIN8facebook5velox13DecodedVectorESt14default_deleteIS3_EESaIS6_EE3endEv = comdat any

$_ZNK9__gnu_cxx17__normal_iteratorIPKSt10unique_ptrIN8facebook5velox13DecodedVectorESt14default_deleteIS4_EESt6vectorIS7_SaIS7_EEE4baseEv = comdat any

$_ZN9__gnu_cxx17__normal_iteratorIPKSt10unique_ptrIN8facebook5velox13DecodedVectorESt14default_deleteIS4_EESt6vectorIS7_SaIS7_EEEC2ERKS9_ = comdat any

$_ZN8facebook5velox13DecodedVectorC2Ev = comdat any

$_ZNSt10unique_ptrIN8facebook5velox13DecodedVectorESt14default_deleteIS2_EEC2IS4_vEEPS2_ = comdat any

$_ZNSt8optionalIPKmEC2IDnTnNSt9enable_ifIX7__and_vISt6__not_ISt7is_sameIS2_NSt9remove_cvINSt16remove_referenceIT_E4typeEE4typeEEES5_IS6_ISt10in_place_tSD_EESt16is_constructibleIS1_JS9_EESt14is_convertibleIS9_S1_EEEbE4typeELb1EEEOS9_ = comdat any

$_ZNSt6vectorIiSaIiEEC2Ev = comdat any

$_ZNSt6vectorImSaImEEC2Ev = comdat any

$_ZNSt14_Optional_baseIPKmLb1ELb1EEC2IJDnETnNSt9enable_ifIX18is_constructible_vIS1_DpT_EEbE4typeELb0EEESt10in_place_tDpOS5_ = comdat any

$_ZNSt17_Optional_payloadIPKmLb1ELb1ELb1EECI2St22_Optional_payload_baseIS1_EIJDnEEESt10in_place_tDpOT_ = comdat any

$_ZNSt22_Optional_payload_baseIPKmEC2IJDnEEESt10in_place_tDpOT_ = comdat any

$_ZNSt22_Optional_payload_baseIPKmE8_StorageIS1_Lb1EEC2IJDnEEESt10in_place_tDpOT_ = comdat any

$_ZNSt12_Vector_baseIiSaIiEEC2Ev = comdat any

$_ZNSt12_Vector_baseIiSaIiEE12_Vector_implC2Ev = comdat any

$_ZNSaIiEC2Ev = comdat any

$_ZNSt12_Vector_baseIiSaIiEE17_Vector_impl_dataC2Ev = comdat any

$_ZNSt15__new_allocatorIiEC2Ev = comdat any

$_ZNSt12_Vector_baseImSaImEEC2Ev = comdat any

$_ZNSt12_Vector_baseImSaImEE12_Vector_implC2Ev = comdat any

$_ZNSt12_Vector_baseImSaImEE17_Vector_impl_dataC2Ev = comdat any

$_ZNSt15__uniq_ptr_dataIN8facebook5velox13DecodedVectorESt14default_deleteIS2_ELb1ELb1EECI2St15__uniq_ptr_implIS2_S4_EEPS2_ = comdat any

$_ZNSt15__uniq_ptr_implIN8facebook5velox13DecodedVectorESt14default_deleteIS2_EEC2EPS2_ = comdat any

$_ZNSt15__uniq_ptr_implIN8facebook5velox13DecodedVectorESt14default_deleteIS2_EE6_M_ptrEv = comdat any

$_ZSt3getILm0EJPN8facebook5velox13DecodedVectorESt14default_deleteIS2_EEERNSt13tuple_elementIXT_ESt5tupleIJDpT0_EEE4typeERSA_ = comdat any

$_ZSt12__get_helperILm0EPN8facebook5velox13DecodedVectorEJSt14default_deleteIS2_EEERT0_RSt11_Tuple_implIXT_EJS6_DpT1_EE = comdat any

$_ZNSt11_Tuple_implILm0EJPN8facebook5velox13DecodedVectorESt14default_deleteIS2_EEE7_M_headERS6_ = comdat any

$_ZNSt10_Head_baseILm0EPN8facebook5velox13DecodedVectorELb0EE7_M_headERS4_ = comdat any

$_ZNSt6vectorISt10unique_ptrIN8facebook5velox13DecodedVectorESt14default_deleteIS3_EESaIS6_EE3endEv = comdat any

$_ZNK9__gnu_cxx17__normal_iteratorIPSt10unique_ptrIN8facebook5velox13DecodedVectorESt14default_deleteIS4_EESt6vectorIS7_SaIS7_EEEmiEl = comdat any

$_ZNK9__gnu_cxx17__normal_iteratorIPSt10unique_ptrIN8facebook5velox13DecodedVectorESt14default_deleteIS4_EESt6vectorIS7_SaIS7_EEEdeEv = comdat any

$_ZN9__gnu_cxx17__normal_iteratorIPSt10unique_ptrIN8facebook5velox13DecodedVectorESt14default_deleteIS4_EESt6vectorIS7_SaIS7_EEEC2ERKS8_ = comdat any

$_ZNSt15__uniq_ptr_dataIN8facebook5velox13DecodedVectorESt14default_deleteIS2_ELb1ELb1EEC2EOS5_ = comdat any

$_ZNSt15__uniq_ptr_implIN8facebook5velox13DecodedVectorESt14default_deleteIS2_EEC2EOS5_ = comdat any

$_ZNSt5tupleIJPN8facebook5velox13DecodedVectorESt14default_deleteIS2_EEEC2EOS6_ = comdat any

$_ZNSt11_Tuple_implILm0EJPN8facebook5velox13DecodedVectorESt14default_deleteIS2_EEEC2EOS6_ = comdat any

$_ZNSt11_Tuple_implILm1EJSt14default_deleteIN8facebook5velox13DecodedVectorEEEEC2EOS5_ = comdat any

$_ZNSt16allocator_traitsISaISt10unique_ptrIN8facebook5velox13DecodedVectorESt14default_deleteIS3_EEEE7destroyIS6_EEvRS7_PT_ = comdat any

$_ZNSt15__new_allocatorISt10unique_ptrIN8facebook5velox13DecodedVectorESt14default_deleteIS3_EEE7destroyIS6_EEvPT_ = comdat any

$_ZNSt15__uniq_ptr_dataIN8facebook5velox13DecodedVectorESt14default_deleteIS2_ELb1ELb1EEaSEOS5_ = comdat any

$_ZNSt15__uniq_ptr_implIN8facebook5velox13DecodedVectorESt14default_deleteIS2_EEaSEOS5_ = comdat any

$_ZNSt15__uniq_ptr_implIN8facebook5velox13DecodedVectorESt14default_deleteIS2_EE5resetEPS2_ = comdat any

$_ZNSt15__uniq_ptr_implIN8facebook5velox13DecodedVectorESt14default_deleteIS2_EE7releaseEv = comdat any

$_ZNSt15__uniq_ptr_implIN8facebook5velox13DecodedVectorESt14default_deleteIS2_EE10_M_deleterEv = comdat any

$_ZNKSt14default_deleteIN8facebook5velox13DecodedVectorEEclEPS2_ = comdat any

$_ZN8facebook5velox13DecodedVectorD2Ev = comdat any

$_ZNSt6vectorImSaImEED2Ev = comdat any

$_ZNSt6vectorIiSaIiEED2Ev = comdat any

$_ZSt8_DestroyIPmmEvT_S1_RSaIT0_E = comdat any

$_ZNSt12_Vector_baseImSaImEE19_M_get_Tp_allocatorEv = comdat any

$_ZNSt12_Vector_baseImSaImEED2Ev = comdat any

$_ZSt8_DestroyIPmEvT_S1_ = comdat any

$_ZNSt12_Destroy_auxILb1EE9__destroyIPmEEvT_S3_ = comdat any

$_ZNSt12_Vector_baseImSaImEE13_M_deallocateEPmm = comdat any

$_ZNSt12_Vector_baseImSaImEE12_Vector_implD2Ev = comdat any

$_ZSt8_DestroyIPiiEvT_S1_RSaIT0_E = comdat any

$_ZNSt12_Vector_baseIiSaIiEE19_M_get_Tp_allocatorEv = comdat any

$_ZNSt12_Vector_baseIiSaIiEED2Ev = comdat any

$_ZSt8_DestroyIPiEvT_S1_ = comdat any

$_ZNSt12_Destroy_auxILb1EE9__destroyIPiEEvT_S3_ = comdat any

$_ZNSt12_Vector_baseIiSaIiEE13_M_deallocateEPim = comdat any

$_ZNSt12_Vector_baseIiSaIiEE12_Vector_implD2Ev = comdat any

$_ZNSt16allocator_traitsISaIiEE10deallocateERS0_Pim = comdat any

$_ZNSt15__new_allocatorIiE10deallocateEPim = comdat any

$_ZNSaIiED2Ev = comdat any

$_ZNSt15__new_allocatorIiED2Ev = comdat any

$_ZSt3getILm1EJPN8facebook5velox13DecodedVectorESt14default_deleteIS2_EEERNSt13tuple_elementIXT_ESt5tupleIJDpT0_EEE4typeERSA_ = comdat any

$_ZSt12__get_helperILm1ESt14default_deleteIN8facebook5velox13DecodedVectorEEJEERT0_RSt11_Tuple_implIXT_EJS5_DpT1_EE = comdat any

$_ZNSt11_Tuple_implILm1EJSt14default_deleteIN8facebook5velox13DecodedVectorEEEE7_M_headERS5_ = comdat any

$_ZNSt10_Head_baseILm1ESt14default_deleteIN8facebook5velox13DecodedVectorEELb1EE7_M_headERS5_ = comdat any

$_ZNKSt15__uniq_ptr_implIN8facebook5velox13DecodedVectorESt14default_deleteIS2_EE6_M_ptrEv = comdat any

$_ZSt3getILm0EJPN8facebook5velox13DecodedVectorESt14default_deleteIS2_EEERKNSt13tuple_elementIXT_ESt5tupleIJDpT0_EEE4typeERKSA_ = comdat any

$_ZSt12__get_helperILm0EPN8facebook5velox13DecodedVectorEJSt14default_deleteIS2_EEERKT0_RKSt11_Tuple_implIXT_EJS6_DpT1_EE = comdat any

$_ZNSt11_Tuple_implILm0EJPN8facebook5velox13DecodedVectorESt14default_deleteIS2_EEE7_M_headERKS6_ = comdat any

$_ZNSt10_Head_baseILm0EPN8facebook5velox13DecodedVectorELb0EE7_M_headERKS4_ = comdat any

$_ZNSt10unique_ptrIN8facebook5velox13DecodedVectorESt14default_deleteIS2_EE11get_deleterEv = comdat any

$_ZNKSt6vectorIN8facebook5velox4exec18LocalDecodedVectorESaIS3_EE12_M_check_lenEmPKc = comdat any

$_ZN9__gnu_cxxmiIPN8facebook5velox4exec18LocalDecodedVectorESt6vectorIS4_SaIS4_EEEENS_17__normal_iteratorIT_T0_E15difference_typeERKSC_SF_ = comdat any

$_ZNSt6vectorIN8facebook5velox4exec18LocalDecodedVectorESaIS3_EE5beginEv = comdat any

$_ZNSt12_Vector_baseIN8facebook5velox4exec18LocalDecodedVectorESaIS3_EE11_M_allocateEm = comdat any

$_ZNSt6vectorIN8facebook5velox4exec18LocalDecodedVectorESaIS3_EE11_S_relocateEPS3_S6_S6_RS4_ = comdat any

$_ZNK9__gnu_cxx17__normal_iteratorIPN8facebook5velox4exec18LocalDecodedVectorESt6vectorIS4_SaIS4_EEE4baseEv = comdat any

$_ZNSt12_Vector_baseIN8facebook5velox4exec18LocalDecodedVectorESaIS3_EE19_M_get_Tp_allocatorEv = comdat any

$_ZNSt16allocator_traitsISaIN8facebook5velox4exec18LocalDecodedVectorEEE7destroyIS3_EEvRS4_PT_ = comdat any

$_ZSt8_DestroyIPN8facebook5velox4exec18LocalDecodedVectorES3_EvT_S5_RSaIT0_E = comdat any

$_ZNSt12_Vector_baseIN8facebook5velox4exec18LocalDecodedVectorESaIS3_EE13_M_deallocateEPS3_m = comdat any

$_ZNKSt6vectorIN8facebook5velox4exec18LocalDecodedVectorESaIS3_EE8max_sizeEv = comdat any

$_ZNKSt6vectorIN8facebook5velox4exec18LocalDecodedVectorESaIS3_EE4sizeEv = comdat any

$_ZNSt6vectorIN8facebook5velox4exec18LocalDecodedVectorESaIS3_EE11_S_max_sizeERKS4_ = comdat any

$_ZNKSt12_Vector_baseIN8facebook5velox4exec18LocalDecodedVectorESaIS3_EE19_M_get_Tp_allocatorEv = comdat any

$_ZNSt16allocator_traitsISaIN8facebook5velox4exec18LocalDecodedVectorEEE8max_sizeERKS4_ = comdat any

$_ZNKSt15__new_allocatorIN8facebook5velox4exec18LocalDecodedVectorEE8max_sizeEv = comdat any

$_ZNKSt15__new_allocatorIN8facebook5velox4exec18LocalDecodedVectorEE11_M_max_sizeEv = comdat any

$_ZN9__gnu_cxx17__normal_iteratorIPN8facebook5velox4exec18LocalDecodedVectorESt6vectorIS4_SaIS4_EEEC2ERKS5_ = comdat any

$_ZNSt16allocator_traitsISaIN8facebook5velox4exec18LocalDecodedVectorEEE8allocateERS4_m = comdat any

$_ZNSt15__new_allocatorIN8facebook5velox4exec18LocalDecodedVectorEE8allocateEmPKv = comdat any

$_ZSt12__relocate_aIPN8facebook5velox4exec18LocalDecodedVectorES4_SaIS3_EET0_T_S7_S6_RT1_ = comdat any

$_ZSt14__relocate_a_1IPN8facebook5velox4exec18LocalDecodedVectorES4_SaIS3_EET0_T_S7_S6_RT1_ = comdat any

$_ZSt12__niter_baseIPN8facebook5velox4exec18LocalDecodedVectorEET_S5_ = comdat any

$_ZSt19__relocate_object_aIN8facebook5velox4exec18LocalDecodedVectorES3_SaIS3_EEvPT_PT0_RT1_ = comdat any

$_ZNSt16allocator_traitsISaIN8facebook5velox4exec18LocalDecodedVectorEEE9constructIS3_JS3_EEEvRS4_PT_DpOT0_ = comdat any

$_ZNSt15__new_allocatorIN8facebook5velox4exec18LocalDecodedVectorEE9constructIS3_JS3_EEEvPT_DpOT0_ = comdat any

$_ZN8facebook5velox4exec18LocalDecodedVectorC2EOS2_ = comdat any

$_ZNSt15__new_allocatorIN8facebook5velox4exec18LocalDecodedVectorEE7destroyIS3_EEvPT_ = comdat any

$_ZN8facebook5velox4exec18LocalDecodedVectorD2Ev = comdat any

$_ZN8facebook5velox4core7ExecCtx20releaseDecodedVectorEOSt10unique_ptrINS0_13DecodedVectorESt14default_deleteIS4_EE = comdat any

$_ZNSt6vectorISt10unique_ptrIN8facebook5velox13DecodedVectorESt14default_deleteIS3_EESaIS6_EE9push_backEOS6_ = comdat any

$_ZNSt6vectorISt10unique_ptrIN8facebook5velox13DecodedVectorESt14default_deleteIS3_EESaIS6_EE12emplace_backIJS6_EEERS6_DpOT_ = comdat any

$_ZNSt16allocator_traitsISaISt10unique_ptrIN8facebook5velox13DecodedVectorESt14default_deleteIS3_EEEE9constructIS6_JS6_EEEvRS7_PT_DpOT0_ = comdat any

$_ZNSt6vectorISt10unique_ptrIN8facebook5velox13DecodedVectorESt14default_deleteIS3_EESaIS6_EE17_M_realloc_insertIJS6_EEEvN9__gnu_cxx17__normal_iteratorIPS6_S8_EEDpOT_ = comdat any

$_ZNSt15__new_allocatorISt10unique_ptrIN8facebook5velox13DecodedVectorESt14default_deleteIS3_EEE9constructIS6_JS6_EEEvPT_DpOT0_ = comdat any

$_ZNKSt6vectorISt10unique_ptrIN8facebook5velox13DecodedVectorESt14default_deleteIS3_EESaIS6_EE12_M_check_lenEmPKc = comdat any

$_ZN9__gnu_cxxmiIPSt10unique_ptrIN8facebook5velox13DecodedVectorESt14default_deleteIS4_EESt6vectorIS7_SaIS7_EEEENS_17__normal_iteratorIT_T0_E15difference_typeERKSF_SI_ = comdat any

$_ZNSt6vectorISt10unique_ptrIN8facebook5velox13DecodedVectorESt14default_deleteIS3_EESaIS6_EE5beginEv = comdat any

$_ZNSt12_Vector_baseISt10unique_ptrIN8facebook5velox13DecodedVectorESt14default_deleteIS3_EESaIS6_EE11_M_allocateEm = comdat any

$_ZNSt6vectorISt10unique_ptrIN8facebook5velox13DecodedVectorESt14default_deleteIS3_EESaIS6_EE11_S_relocateEPS6_S9_S9_RS7_ = comdat any

$_ZNK9__gnu_cxx17__normal_iteratorIPSt10unique_ptrIN8facebook5velox13DecodedVectorESt14default_deleteIS4_EESt6vectorIS7_SaIS7_EEE4baseEv = comdat any

$_ZNSt12_Vector_baseISt10unique_ptrIN8facebook5velox13DecodedVectorESt14default_deleteIS3_EESaIS6_EE19_M_get_Tp_allocatorEv = comdat any

$_ZNSt12_Vector_baseISt10unique_ptrIN8facebook5velox13DecodedVectorESt14default_deleteIS3_EESaIS6_EE13_M_deallocateEPS6_m = comdat any

$_ZNKSt6vectorISt10unique_ptrIN8facebook5velox13DecodedVectorESt14default_deleteIS3_EESaIS6_EE8max_sizeEv = comdat any

$_ZNKSt6vectorISt10unique_ptrIN8facebook5velox13DecodedVectorESt14default_deleteIS3_EESaIS6_EE4sizeEv = comdat any

$_ZNSt6vectorISt10unique_ptrIN8facebook5velox13DecodedVectorESt14default_deleteIS3_EESaIS6_EE11_S_max_sizeERKS7_ = comdat any

$_ZNKSt12_Vector_baseISt10unique_ptrIN8facebook5velox13DecodedVectorESt14default_deleteIS3_EESaIS6_EE19_M_get_Tp_allocatorEv = comdat any

$_ZNSt16allocator_traitsISaISt10unique_ptrIN8facebook5velox13DecodedVectorESt14default_deleteIS3_EEEE8max_sizeERKS7_ = comdat any

$_ZNKSt15__new_allocatorISt10unique_ptrIN8facebook5velox13DecodedVectorESt14default_deleteIS3_EEE8max_sizeEv = comdat any

$_ZNKSt15__new_allocatorISt10unique_ptrIN8facebook5velox13DecodedVectorESt14default_deleteIS3_EEE11_M_max_sizeEv = comdat any

$_ZNSt16allocator_traitsISaISt10unique_ptrIN8facebook5velox13DecodedVectorESt14default_deleteIS3_EEEE8allocateERS7_m = comdat any

$_ZNSt15__new_allocatorISt10unique_ptrIN8facebook5velox13DecodedVectorESt14default_deleteIS3_EEE8allocateEmPKv = comdat any

$_ZSt12__relocate_aIPSt10unique_ptrIN8facebook5velox13DecodedVectorESt14default_deleteIS3_EES7_SaIS6_EET0_T_SA_S9_RT1_ = comdat any

$_ZSt14__relocate_a_1IPSt10unique_ptrIN8facebook5velox13DecodedVectorESt14default_deleteIS3_EES7_SaIS6_EET0_T_SA_S9_RT1_ = comdat any

$_ZSt12__niter_baseIPSt10unique_ptrIN8facebook5velox13DecodedVectorESt14default_deleteIS3_EEET_S8_ = comdat any

$_ZSt19__relocate_object_aISt10unique_ptrIN8facebook5velox13DecodedVectorESt14default_deleteIS3_EES6_SaIS6_EEvPT_PT0_RT1_ = comdat any

$_ZNSt16allocator_traitsISaISt10unique_ptrIN8facebook5velox13DecodedVectorESt14default_deleteIS3_EEEE10deallocateERS7_PS6_m = comdat any

$_ZNSt15__new_allocatorISt10unique_ptrIN8facebook5velox13DecodedVectorESt14default_deleteIS3_EEE10deallocateEPS6_m = comdat any

$_ZSt8_DestroyIPN8facebook5velox4exec18LocalDecodedVectorEEvT_S5_ = comdat any

$_ZNSt12_Destroy_auxILb0EE9__destroyIPN8facebook5velox4exec18LocalDecodedVectorEEEvT_S7_ = comdat any

$_ZSt8_DestroyIN8facebook5velox4exec18LocalDecodedVectorEEvPT_ = comdat any

$_ZNSt16allocator_traitsISaIN8facebook5velox4exec18LocalDecodedVectorEEE10deallocateERS4_PS3_m = comdat any

$_ZNSt15__new_allocatorIN8facebook5velox4exec18LocalDecodedVectorEE10deallocateEPS3_m = comdat any

$_ZNK9__gnu_cxx17__normal_iteratorIPN8facebook5velox4exec18LocalDecodedVectorESt6vectorIS4_SaIS4_EEEmiEl = comdat any

$_ZNK9__gnu_cxx17__normal_iteratorIPN8facebook5velox4exec18LocalDecodedVectorESt6vectorIS4_SaIS4_EEEdeEv = comdat any

$_ZNSt12_Vector_baseIN8facebook5velox4exec18LocalDecodedVectorESaIS3_EED2Ev = comdat any

$_ZNSt12_Vector_baseIN8facebook5velox4exec18LocalDecodedVectorESaIS3_EE12_Vector_implD2Ev = comdat any

$_ZNSaIN8facebook5velox4exec18LocalDecodedVectorEED2Ev = comdat any

$_ZNSt15__new_allocatorIN8facebook5velox4exec18LocalDecodedVectorEED2Ev = comdat any

$_ZNSt8_Rb_treeImmSt9_IdentityImESt4lessImESaImEEC2Ev = comdat any

$_ZNSt8_Rb_treeImmSt9_IdentityImESt4lessImESaImEE13_Rb_tree_implIS3_Lb1EEC2Ev = comdat any

$_ZNSaISt13_Rb_tree_nodeImEEC2Ev = comdat any

$_ZNSt20_Rb_tree_key_compareISt4lessImEEC2Ev = comdat any

$_ZNSt15_Rb_tree_headerC2Ev = comdat any

$_ZNSt15__new_allocatorISt13_Rb_tree_nodeImEEC2Ev = comdat any

$_ZNSt15_Rb_tree_header8_M_resetEv = comdat any

$_ZNK8facebook5velox17SelectivityVector13isAllSelectedEv = comdat any

$_ZNKSt6vectorImSaImEE4dataEv = comdat any

$_ZNKSt8optionalIbE9has_valueEv = comdat any

$_ZNRSt8optionalIbE5valueEv = comdat any

$_ZN8facebook5velox4bits8isAllSetEPKmiib = comdat any

$_ZNSt19_Optional_base_implIbSt14_Optional_baseIbLb1ELb1EEE6_M_getEv = comdat any

$_ZSt27__throw_bad_optional_accessv = comdat any

$_ZNSt22_Optional_payload_baseIbE6_M_getEv = comdat any

$_ZNSt19bad_optional_accessC2Ev = comdat any

$_ZNSt19bad_optional_accessD2Ev = comdat any

$_ZNSt9exceptionC2Ev = comdat any

$_ZNSt19bad_optional_accessD0Ev = comdat any

$_ZNKSt19bad_optional_access4whatEv = comdat any

$_ZN8facebook5velox4bits9testWordsIZNS1_8isAllSetEPKmiibEUlimE_ZNS1_8isAllSetES4_iibEUliE_EEbiiT_T0_ = comdat any

$_ZZN8facebook5velox4bits8isAllSetEPKmiibENKUlimE_clEim = comdat any

$_ZN8facebook5velox4bits7lowMaskEi = comdat any

$_ZN8facebook5velox4bits8highMaskEi = comdat any

$_ZZN8facebook5velox4bits8isAllSetEPKmiibENKUliE_clEi = comdat any

$_ZNSt15__exception_ptr13exception_ptrD2Ev = comdat any

$_ZNK8facebook5velox14VeloxException11isUserErrorEv = comdat any

$_ZNK8facebook5velox4exec11DecodedArgs2atEi = comdat any

$_ZNK8facebook5velox13DecodedVector7valueAtIbEET_i = comdat any

$_ZNKSt6vectorISt10shared_ptrIN8facebook5velox10BaseVectorEESaIS4_EE4sizeEv = comdat any

$_ZNSt3setImSt4lessImESaImEE6insertERKm = comdat any

$_ZNKSt6vectorIN8facebook5velox4exec18LocalDecodedVectorESaIS3_EEixEm = comdat any

$_ZN8facebook5velox4bits8isBitSetImEEbPKT_i = comdat any

$_ZNK8facebook5velox13DecodedVector5indexEi = comdat any

$_ZNSt8_Rb_treeImmSt9_IdentityImESt4lessImESaImEE16_M_insert_uniqueIRKmEESt4pairISt17_Rb_tree_iteratorImEbEOT_ = comdat any

$_ZNSt4pairISt23_Rb_tree_const_iteratorImEbEC2IRSt17_Rb_tree_iteratorImERbTnNSt9enable_ifIXaaclsr5_PCCPE22_MoveConstructiblePairIT_T0_EEclsr5_PCCPE30_ImplicitlyMoveConvertiblePairIS9_SA_EEEbE4typeELb1EEEOS9_OSA_ = comdat any

$_ZNSt8_Rb_treeImmSt9_IdentityImESt4lessImESaImEE24_M_get_insert_unique_posERKm = comdat any

$_ZNKSt9_IdentityImEclERKm = comdat any

$_ZNSt8_Rb_treeImmSt9_IdentityImESt4lessImESaImEE11_Alloc_nodeC2ERS5_ = comdat any

$_ZNSt8_Rb_treeImmSt9_IdentityImESt4lessImESaImEE10_M_insert_IRKmNS5_11_Alloc_nodeEEESt17_Rb_tree_iteratorImEPSt18_Rb_tree_node_baseSD_OT_RT0_ = comdat any

$_ZNSt4pairISt17_Rb_tree_iteratorImEbEC2IS1_bTnNSt9enable_ifIXaaclsr5_PCCPE22_MoveConstructiblePairIT_T0_EEclsr5_PCCPE30_ImplicitlyMoveConvertiblePairIS5_S6_EEEbE4typeELb1EEEOS5_OS6_ = comdat any

$_ZNSt17_Rb_tree_iteratorImEC2EPSt18_Rb_tree_node_base = comdat any

$_ZNSt8_Rb_treeImmSt9_IdentityImESt4lessImESaImEE8_M_beginEv = comdat any

$_ZNSt8_Rb_treeImmSt9_IdentityImESt4lessImESaImEE6_M_endEv = comdat any

$_ZNKSt4lessImEclERKmS2_ = comdat any

$_ZNSt8_Rb_treeImmSt9_IdentityImESt4lessImESaImEE6_S_keyEPKSt13_Rb_tree_nodeImE = comdat any

$_ZNSt8_Rb_treeImmSt9_IdentityImESt4lessImESaImEE7_S_leftEPSt18_Rb_tree_node_base = comdat any

$_ZNSt8_Rb_treeImmSt9_IdentityImESt4lessImESaImEE8_S_rightEPSt18_Rb_tree_node_base = comdat any

$_ZSteqRKSt17_Rb_tree_iteratorImES2_ = comdat any

$_ZNSt8_Rb_treeImmSt9_IdentityImESt4lessImESaImEE5beginEv = comdat any

$_ZNSt4pairIPSt18_Rb_tree_node_baseS1_EC2IRPSt13_Rb_tree_nodeImERS1_TnNSt9enable_ifIXaaclsr5_PCCPE22_MoveConstructiblePairIT_T0_EEclsr5_PCCPE30_ImplicitlyMoveConvertiblePairISA_SB_EEEbE4typeELb1EEEOSA_OSB_ = comdat any

$_ZNSt17_Rb_tree_iteratorImEmmEv = comdat any

$_ZNSt8_Rb_treeImmSt9_IdentityImESt4lessImESaImEE6_S_keyEPKSt18_Rb_tree_node_base = comdat any

$_ZNSt4pairIPSt18_Rb_tree_node_baseS1_EC2IS1_S1_TnNSt9enable_ifIXaaclsr5_PCCPE18_ConstructiblePairIT_T0_EEclsr5_PCCPE26_ImplicitlyConvertiblePairIS5_S6_EEEbE4typeELb1EEERKS1_SA_ = comdat any

$_ZNKSt8_Rb_treeImmSt9_IdentityImESt4lessImESaImEE9_M_mbeginEv = comdat any

$_ZNKSt13_Rb_tree_nodeImE9_M_valptrEv = comdat any

$_ZNK9__gnu_cxx16__aligned_membufImE6_M_ptrEv = comdat any

$_ZNK9__gnu_cxx16__aligned_membufImE7_M_addrEv = comdat any

$_ZNKSt8_Rb_treeImmSt9_IdentityImESt4lessImESaImEE11_Alloc_nodeclIRKmEEPSt13_Rb_tree_nodeImEOT_ = comdat any

$_ZNSt8_Rb_treeImmSt9_IdentityImESt4lessImESaImEE14_M_create_nodeIJRKmEEEPSt13_Rb_tree_nodeImEDpOT_ = comdat any

$_ZNSt8_Rb_treeImmSt9_IdentityImESt4lessImESaImEE11_M_get_nodeEv = comdat any

$_ZNSt8_Rb_treeImmSt9_IdentityImESt4lessImESaImEE17_M_construct_nodeIJRKmEEEvPSt13_Rb_tree_nodeImEDpOT_ = comdat any

$_ZNSt16allocator_traitsISaISt13_Rb_tree_nodeImEEE8allocateERS2_m = comdat any

$_ZNSt8_Rb_treeImmSt9_IdentityImESt4lessImESaImEE21_M_get_Node_allocatorEv = comdat any

$_ZNSt15__new_allocatorISt13_Rb_tree_nodeImEE8allocateEmPKv = comdat any

$_ZNKSt15__new_allocatorISt13_Rb_tree_nodeImEE11_M_max_sizeEv = comdat any

$_ZNSt16allocator_traitsISaISt13_Rb_tree_nodeImEEE9constructImJRKmEEEvRS2_PT_DpOT0_ = comdat any

$_ZNSt13_Rb_tree_nodeImE9_M_valptrEv = comdat any

$_ZNSt8_Rb_treeImmSt9_IdentityImESt4lessImESaImEE11_M_put_nodeEPSt13_Rb_tree_nodeImE = comdat any

$_ZNSt15__new_allocatorISt13_Rb_tree_nodeImEE9constructImJRKmEEEvPT_DpOT0_ = comdat any

$_ZN9__gnu_cxx16__aligned_membufImE6_M_ptrEv = comdat any

$_ZN9__gnu_cxx16__aligned_membufImE7_M_addrEv = comdat any

$_ZNSt16allocator_traitsISaISt13_Rb_tree_nodeImEEE10deallocateERS2_PS1_m = comdat any

$_ZNSt15__new_allocatorISt13_Rb_tree_nodeImEE10deallocateEPS1_m = comdat any

$_ZNSt23_Rb_tree_const_iteratorImEC2ERKSt17_Rb_tree_iteratorImE = comdat any

$_ZN5follyeqENS_5RangeIPKcEERKNS_16BasicFixedStringIcLm4EEE = comdat any

$_ZNKSt19__shared_ptr_accessIKN8facebook5velox14VeloxException5StateELN9__gnu_cxx12_Lock_policyE2ELb0ELb0EEptEv = comdat any

$_ZN5folly5RangeIPKcEC2ISaIcES2_TnNS_6detail13IsCharPointerIT0_E10const_typeELi0EEERKNSt7__cxx1112basic_stringIcSt11char_traitsIcET_EE = comdat any

$_ZN5folly6detail11fixedstring6equal_IPKcA5_cEEbRKT_mRKT0_m = comdat any

$_ZNK5folly5RangeIPKcE5beginEv = comdat any

$_ZNK5folly5RangeIPKcE4sizeEv = comdat any

$_ZN5folly6detail11fixedstring8compare_IPKcA5_cEENS_8orderingERKT_mmRKT0_mm = comdat any

$_ZNKSt19__shared_ptr_accessIKN8facebook5velox14VeloxException5StateELN9__gnu_cxx12_Lock_policyE2ELb0ELb0EE6_M_getEv = comdat any

$_ZNKSt12__shared_ptrIKN8facebook5velox14VeloxException5StateELN9__gnu_cxx12_Lock_policyE2EE3getEv = comdat any

$_ZNKSt6vectorImSaImEE11_M_data_ptrImEEPT_S4_ = comdat any

$_ZNSt8_Rb_treeImmSt9_IdentityImESt4lessImESaImEED2Ev = comdat any

$_ZNSt8_Rb_treeImmSt9_IdentityImESt4lessImESaImEE8_M_eraseEPSt13_Rb_tree_nodeImE = comdat any

$_ZNSt8_Rb_treeImmSt9_IdentityImESt4lessImESaImEE13_Rb_tree_implIS3_Lb1EED2Ev = comdat any

$_ZNSt8_Rb_treeImmSt9_IdentityImESt4lessImESaImEE12_M_drop_nodeEPSt13_Rb_tree_nodeImE = comdat any

$_ZNSt8_Rb_treeImmSt9_IdentityImESt4lessImESaImEE15_M_destroy_nodeEPSt13_Rb_tree_nodeImE = comdat any

$_ZNSt16allocator_traitsISaISt13_Rb_tree_nodeImEEE7destroyImEEvRS2_PT_ = comdat any

$_ZNSt15__new_allocatorISt13_Rb_tree_nodeImEE7destroyImEEvPT_ = comdat any

$_ZNSaISt13_Rb_tree_nodeImEED2Ev = comdat any

$_ZNSt15__new_allocatorISt13_Rb_tree_nodeImEED2Ev = comdat any

$_ZN8facebook5velox6Buffer7releaseEv = comdat any

$_ZN8facebook5velox10BaseVector2asINS0_10FlatVectorIaEEEEPT_v = comdat any

$_ZN8facebook5velox10FlatVectorIaE13mutableValuesEi = comdat any

$_ZNK8facebook5velox6Buffer9asMutableIaEEPT_v = comdat any

$_ZN8facebook5velox10BaseVector8byteSizeIaEEmi = comdat any

$_ZN8facebook5velox13AlignedBuffer10reallocateIaEEvPN5boost13intrusive_ptrINS0_6BufferEEEmRKSt8optionalIT_E = comdat any

$_ZNSt8optionalIaEC2IaTnNSt9enable_ifIX7__and_vISt6__not_ISt7is_sameIS0_NSt9remove_cvINSt16remove_referenceIT_E4typeEE4typeEEES3_IS4_ISt10in_place_tSB_EESt16is_constructibleIaJS7_EESt14is_convertibleIS7_aEEEbE4typeELb1EEEOS7_ = comdat any

$_ZN8facebook5velox13AlignedBuffer8allocateIaEEN5boost13intrusive_ptrINS0_6BufferEEEmPNS0_6memory10MemoryPoolERKSt8optionalIT_E = comdat any

$_ZNK8facebook5velox6Buffer2asIcEEPKT_v = comdat any

$_ZN8facebook5velox13AlignedBuffer13fillNewMemoryIaEEvmmRKSt8optionalIT_E = comdat any

$_ZNSt8optionalIaEC2ESt9nullopt_t = comdat any

$_ZNKSt8optionalIaEcvbEv = comdat any

$_ZSt4fillIPaaEvT_S1_RKT0_ = comdat any

$_ZNKRSt8optionalIaEdeEv = comdat any

$_ZNKSt19_Optional_base_implIaSt14_Optional_baseIaLb1ELb1EEE13_M_is_engagedEv = comdat any

$_ZSt8__fill_aIPaaEvT_S1_RKT0_ = comdat any

$_ZSt9__fill_a1IaEN9__gnu_cxx11__enable_ifIXsr9__is_byteIT_EE7__valueEvE6__typeEPS2_S5_RKS2_ = comdat any

$_ZNKSt19_Optional_base_implIaSt14_Optional_baseIaLb1ELb1EEE6_M_getEv = comdat any

$_ZNKSt22_Optional_payload_baseIaE6_M_getEv = comdat any

$_ZNSt14_Optional_baseIaLb1ELb1EEC2Ev = comdat any

$_ZNSt17_Optional_payloadIaLb1ELb1ELb1EEC2Ev = comdat any

$_ZNSt22_Optional_payload_baseIaEC2Ev = comdat any

$_ZNSt22_Optional_payload_baseIaE8_StorageIaLb1EEC2Ev = comdat any

$_ZNSt14_Optional_baseIaLb1ELb1EEC2IJaETnNSt9enable_ifIX18is_constructible_vIaDpT_EEbE4typeELb0EEESt10in_place_tDpOS3_ = comdat any

$_ZNSt17_Optional_payloadIaLb1ELb1ELb1EECI2St22_Optional_payload_baseIaEIJaEEESt10in_place_tDpOT_ = comdat any

$_ZNSt22_Optional_payload_baseIaEC2IJaEEESt10in_place_tDpOT_ = comdat any

$_ZNSt22_Optional_payload_baseIaE8_StorageIaLb1EEC2IJaEEESt10in_place_tDpOT_ = comdat any

$_ZNK8facebook5velox13DecodedVector7valueAtIaEET_i = comdat any

$_ZN8facebook5velox10BaseVector2asINS0_10FlatVectorIsEEEEPT_v = comdat any

$_ZN8facebook5velox10FlatVectorIsE13mutableValuesEi = comdat any

$_ZNK8facebook5velox6Buffer9asMutableIsEEPT_v = comdat any

$_ZN8facebook5velox10BaseVector8byteSizeIsEEmi = comdat any

$_ZN8facebook5velox13AlignedBuffer10reallocateIsEEvPN5boost13intrusive_ptrINS0_6BufferEEEmRKSt8optionalIT_E = comdat any

$_ZNSt8optionalIsEC2IsTnNSt9enable_ifIX7__and_vISt6__not_ISt7is_sameIS0_NSt9remove_cvINSt16remove_referenceIT_E4typeEE4typeEEES3_IS4_ISt10in_place_tSB_EESt16is_constructibleIsJS7_EESt14is_convertibleIS7_sEEEbE4typeELb1EEEOS7_ = comdat any

$_ZN8facebook5velox13AlignedBuffer8allocateIsEEN5boost13intrusive_ptrINS0_6BufferEEEmPNS0_6memory10MemoryPoolERKSt8optionalIT_E = comdat any

$_ZN8facebook5velox13AlignedBuffer13fillNewMemoryIsEEvmmRKSt8optionalIT_E = comdat any

$_ZNSt8optionalIsEC2ESt9nullopt_t = comdat any

$_ZNKSt8optionalIsEcvbEv = comdat any

$_ZSt4fillIPssEvT_S1_RKT0_ = comdat any

$_ZNKRSt8optionalIsEdeEv = comdat any

$_ZNKSt19_Optional_base_implIsSt14_Optional_baseIsLb1ELb1EEE13_M_is_engagedEv = comdat any

$_ZSt8__fill_aIPssEvT_S1_RKT0_ = comdat any

$_ZSt9__fill_a1IPssEN9__gnu_cxx11__enable_ifIXsr11__is_scalarIT0_EE7__valueEvE6__typeET_S6_RKS3_ = comdat any

$_ZNKSt19_Optional_base_implIsSt14_Optional_baseIsLb1ELb1EEE6_M_getEv = comdat any

$_ZNKSt22_Optional_payload_baseIsE6_M_getEv = comdat any

$_ZNSt14_Optional_baseIsLb1ELb1EEC2Ev = comdat any

$_ZNSt17_Optional_payloadIsLb1ELb1ELb1EEC2Ev = comdat any

$_ZNSt22_Optional_payload_baseIsEC2Ev = comdat any

$_ZNSt22_Optional_payload_baseIsE8_StorageIsLb1EEC2Ev = comdat any

$_ZNSt14_Optional_baseIsLb1ELb1EEC2IJsETnNSt9enable_ifIX18is_constructible_vIsDpT_EEbE4typeELb0EEESt10in_place_tDpOS3_ = comdat any

$_ZNSt17_Optional_payloadIsLb1ELb1ELb1EECI2St22_Optional_payload_baseIsEIJsEEESt10in_place_tDpOT_ = comdat any

$_ZNSt22_Optional_payload_baseIsEC2IJsEEESt10in_place_tDpOT_ = comdat any

$_ZNSt22_Optional_payload_baseIsE8_StorageIsLb1EEC2IJsEEESt10in_place_tDpOT_ = comdat any

$_ZNK8facebook5velox13DecodedVector7valueAtIsEET_i = comdat any

$_ZN8facebook5velox10BaseVector2asINS0_10FlatVectorIiEEEEPT_v = comdat any

$_ZN8facebook5velox10FlatVectorIiE13mutableValuesEi = comdat any

$_ZNK8facebook5velox6Buffer9asMutableIiEEPT_v = comdat any

$_ZN8facebook5velox10BaseVector8byteSizeIiEEmi = comdat any

$_ZN8facebook5velox13AlignedBuffer10reallocateIiEEvPN5boost13intrusive_ptrINS0_6BufferEEEmRKSt8optionalIT_E = comdat any

$_ZNSt8optionalIiEC2IiTnNSt9enable_ifIX7__and_vISt6__not_ISt7is_sameIS0_NSt9remove_cvINSt16remove_referenceIT_E4typeEE4typeEEES3_IS4_ISt10in_place_tSB_EESt16is_constructibleIiJS7_EESt14is_convertibleIS7_iEEEbE4typeELb1EEEOS7_ = comdat any

$_ZN8facebook5velox13AlignedBuffer8allocateIiEEN5boost13intrusive_ptrINS0_6BufferEEEmPNS0_6memory10MemoryPoolERKSt8optionalIT_E = comdat any

$_ZN8facebook5velox13AlignedBuffer13fillNewMemoryIiEEvmmRKSt8optionalIT_E = comdat any

$_ZNSt8optionalIiEC2ESt9nullopt_t = comdat any

$_ZNKSt8optionalIiEcvbEv = comdat any

$_ZSt4fillIPiiEvT_S1_RKT0_ = comdat any

$_ZNKRSt8optionalIiEdeEv = comdat any

$_ZNKSt19_Optional_base_implIiSt14_Optional_baseIiLb1ELb1EEE13_M_is_engagedEv = comdat any

$_ZSt8__fill_aIPiiEvT_S1_RKT0_ = comdat any

$_ZSt9__fill_a1IPiiEN9__gnu_cxx11__enable_ifIXsr11__is_scalarIT0_EE7__valueEvE6__typeET_S6_RKS3_ = comdat any

$_ZNKSt19_Optional_base_implIiSt14_Optional_baseIiLb1ELb1EEE6_M_getEv = comdat any

$_ZNKSt22_Optional_payload_baseIiE6_M_getEv = comdat any

$_ZNSt14_Optional_baseIiLb1ELb1EEC2Ev = comdat any

$_ZNSt17_Optional_payloadIiLb1ELb1ELb1EEC2Ev = comdat any

$_ZNSt22_Optional_payload_baseIiEC2Ev = comdat any

$_ZNSt22_Optional_payload_baseIiE8_StorageIiLb1EEC2Ev = comdat any

$_ZNSt14_Optional_baseIiLb1ELb1EEC2IJiETnNSt9enable_ifIX18is_constructible_vIiDpT_EEbE4typeELb0EEESt10in_place_tDpOS3_ = comdat any

$_ZNSt17_Optional_payloadIiLb1ELb1ELb1EECI2St22_Optional_payload_baseIiEIJiEEESt10in_place_tDpOT_ = comdat any

$_ZNSt22_Optional_payload_baseIiEC2IJiEEESt10in_place_tDpOT_ = comdat any

$_ZNSt22_Optional_payload_baseIiE8_StorageIiLb1EEC2IJiEEESt10in_place_tDpOT_ = comdat any

$_ZNK8facebook5velox13DecodedVector7valueAtIiEET_i = comdat any

$_ZN8facebook5velox10BaseVector2asINS0_10FlatVectorIlEEEEPT_v = comdat any

$_ZN8facebook5velox10FlatVectorIlE13mutableValuesEi = comdat any

$_ZNK8facebook5velox6Buffer9asMutableIlEEPT_v = comdat any

$_ZN8facebook5velox10BaseVector8byteSizeIlEEmi = comdat any

$_ZN8facebook5velox13AlignedBuffer10reallocateIlEEvPN5boost13intrusive_ptrINS0_6BufferEEEmRKSt8optionalIT_E = comdat any

$_ZNSt8optionalIlEC2IlTnNSt9enable_ifIX7__and_vISt6__not_ISt7is_sameIS0_NSt9remove_cvINSt16remove_referenceIT_E4typeEE4typeEEES3_IS4_ISt10in_place_tSB_EESt16is_constructibleIlJS7_EESt14is_convertibleIS7_lEEEbE4typeELb1EEEOS7_ = comdat any

$_ZN8facebook5velox13AlignedBuffer8allocateIlEEN5boost13intrusive_ptrINS0_6BufferEEEmPNS0_6memory10MemoryPoolERKSt8optionalIT_E = comdat any

$_ZN8facebook5velox13AlignedBuffer13fillNewMemoryIlEEvmmRKSt8optionalIT_E = comdat any

$_ZNSt8optionalIlEC2ESt9nullopt_t = comdat any

$_ZNKSt8optionalIlEcvbEv = comdat any

$_ZSt4fillIPllEvT_S1_RKT0_ = comdat any

$_ZNKRSt8optionalIlEdeEv = comdat any

$_ZNKSt19_Optional_base_implIlSt14_Optional_baseIlLb1ELb1EEE13_M_is_engagedEv = comdat any

$_ZSt8__fill_aIPllEvT_S1_RKT0_ = comdat any

$_ZSt9__fill_a1IPllEN9__gnu_cxx11__enable_ifIXsr11__is_scalarIT0_EE7__valueEvE6__typeET_S6_RKS3_ = comdat any

$_ZNKSt19_Optional_base_implIlSt14_Optional_baseIlLb1ELb1EEE6_M_getEv = comdat any

$_ZNKSt22_Optional_payload_baseIlE6_M_getEv = comdat any

$_ZNSt14_Optional_baseIlLb1ELb1EEC2Ev = comdat any

$_ZNSt17_Optional_payloadIlLb1ELb1ELb1EEC2Ev = comdat any

$_ZNSt22_Optional_payload_baseIlEC2Ev = comdat any

$_ZNSt22_Optional_payload_baseIlE8_StorageIlLb1EEC2Ev = comdat any

$_ZNSt14_Optional_baseIlLb1ELb1EEC2IJlETnNSt9enable_ifIX18is_constructible_vIlDpT_EEbE4typeELb0EEESt10in_place_tDpOS3_ = comdat any

$_ZNSt17_Optional_payloadIlLb1ELb1ELb1EECI2St22_Optional_payload_baseIlEIJlEEESt10in_place_tDpOT_ = comdat any

$_ZNSt22_Optional_payload_baseIlEC2IJlEEESt10in_place_tDpOT_ = comdat any

$_ZNSt22_Optional_payload_baseIlE8_StorageIlLb1EEC2IJlEEESt10in_place_tDpOT_ = comdat any

$_ZNK8facebook5velox13DecodedVector7valueAtIlEET_i = comdat any

$_ZN8facebook5velox10BaseVector2asINS0_10FlatVectorInEEEEPT_v = comdat any

$_ZN8facebook5velox10FlatVectorInE13mutableValuesEi = comdat any

$_ZNK8facebook5velox6Buffer9asMutableInEEPT_v = comdat any

$_ZN8facebook5velox10BaseVector8byteSizeInEEmi = comdat any

$_ZN8facebook5velox13AlignedBuffer10reallocateInEEvPN5boost13intrusive_ptrINS0_6BufferEEEmRKSt8optionalIT_E = comdat any

$_ZNSt8optionalInEC2InTnNSt9enable_ifIX7__and_vISt6__not_ISt7is_sameIS0_NSt9remove_cvINSt16remove_referenceIT_E4typeEE4typeEEES3_IS4_ISt10in_place_tSB_EESt16is_constructibleInJS7_EESt14is_convertibleIS7_nEEEbE4typeELb1EEEOS7_ = comdat any

$_ZN8facebook5velox13AlignedBuffer8allocateInEEN5boost13intrusive_ptrINS0_6BufferEEEmPNS0_6memory10MemoryPoolERKSt8optionalIT_E = comdat any

$_ZN8facebook5velox13AlignedBuffer13fillNewMemoryInEEvmmRKSt8optionalIT_E = comdat any

$_ZNSt8optionalInEC2ESt9nullopt_t = comdat any

$_ZNKSt8optionalInEcvbEv = comdat any

$_ZSt4fillIPnnEvT_S1_RKT0_ = comdat any

$_ZNKRSt8optionalInEdeEv = comdat any

$_ZNKSt19_Optional_base_implInSt14_Optional_baseInLb1ELb1EEE13_M_is_engagedEv = comdat any

$_ZSt8__fill_aIPnnEvT_S1_RKT0_ = comdat any

$_ZSt9__fill_a1IPnnEN9__gnu_cxx11__enable_ifIXsr11__is_scalarIT0_EE7__valueEvE6__typeET_S6_RKS3_ = comdat any

$_ZNKSt19_Optional_base_implInSt14_Optional_baseInLb1ELb1EEE6_M_getEv = comdat any

$_ZNKSt22_Optional_payload_baseInE6_M_getEv = comdat any

$_ZNSt14_Optional_baseInLb1ELb1EEC2Ev = comdat any

$_ZNSt17_Optional_payloadInLb1ELb1ELb1EEC2Ev = comdat any

$_ZNSt22_Optional_payload_baseInEC2Ev = comdat any

$_ZNSt22_Optional_payload_baseInE8_StorageInLb1EEC2Ev = comdat any

$_ZNSt14_Optional_baseInLb1ELb1EEC2IJnETnNSt9enable_ifIX18is_constructible_vInDpT_EEbE4typeELb0EEESt10in_place_tDpOS3_ = comdat any

$_ZNSt17_Optional_payloadInLb1ELb1ELb1EECI2St22_Optional_payload_baseInEIJnEEESt10in_place_tDpOT_ = comdat any

$_ZNSt22_Optional_payload_baseInEC2IJnEEESt10in_place_tDpOT_ = comdat any

$_ZNSt22_Optional_payload_baseInE8_StorageInLb1EEC2IJnEEESt10in_place_tDpOT_ = comdat any

$_ZNK8facebook5velox13DecodedVector7valueAtInEET_i = comdat any

$_ZN8facebook5velox10BaseVector2asINS0_10FlatVectorIfEEEEPT_v = comdat any

$_ZN8facebook5velox10FlatVectorIfE13mutableValuesEi = comdat any

$_ZNK8facebook5velox6Buffer9asMutableIfEEPT_v = comdat any

$_ZN8facebook5velox10BaseVector8byteSizeIfEEmi = comdat any

$_ZN8facebook5velox13AlignedBuffer10reallocateIfEEvPN5boost13intrusive_ptrINS0_6BufferEEEmRKSt8optionalIT_E = comdat any

$_ZNSt8optionalIfEC2IfTnNSt9enable_ifIX7__and_vISt6__not_ISt7is_sameIS0_NSt9remove_cvINSt16remove_referenceIT_E4typeEE4typeEEES3_IS4_ISt10in_place_tSB_EESt16is_constructibleIfJS7_EESt14is_convertibleIS7_fEEEbE4typeELb1EEEOS7_ = comdat any

$_ZN8facebook5velox13AlignedBuffer8allocateIfEEN5boost13intrusive_ptrINS0_6BufferEEEmPNS0_6memory10MemoryPoolERKSt8optionalIT_E = comdat any

$_ZN8facebook5velox13AlignedBuffer13fillNewMemoryIfEEvmmRKSt8optionalIT_E = comdat any

$_ZNSt8optionalIfEC2ESt9nullopt_t = comdat any

$_ZNKSt8optionalIfEcvbEv = comdat any

$_ZSt4fillIPffEvT_S1_RKT0_ = comdat any

$_ZNKRSt8optionalIfEdeEv = comdat any

$_ZNKSt19_Optional_base_implIfSt14_Optional_baseIfLb1ELb1EEE13_M_is_engagedEv = comdat any

$_ZSt8__fill_aIPffEvT_S1_RKT0_ = comdat any

$_ZSt9__fill_a1IPffEN9__gnu_cxx11__enable_ifIXsr11__is_scalarIT0_EE7__valueEvE6__typeET_S6_RKS3_ = comdat any

$_ZNKSt19_Optional_base_implIfSt14_Optional_baseIfLb1ELb1EEE6_M_getEv = comdat any

$_ZNKSt22_Optional_payload_baseIfE6_M_getEv = comdat any

$_ZNSt14_Optional_baseIfLb1ELb1EEC2Ev = comdat any

$_ZNSt17_Optional_payloadIfLb1ELb1ELb1EEC2Ev = comdat any

$_ZNSt22_Optional_payload_baseIfEC2Ev = comdat any

$_ZNSt22_Optional_payload_baseIfE8_StorageIfLb1EEC2Ev = comdat any

$_ZNSt14_Optional_baseIfLb1ELb1EEC2IJfETnNSt9enable_ifIX18is_constructible_vIfDpT_EEbE4typeELb0EEESt10in_place_tDpOS3_ = comdat any

$_ZNSt17_Optional_payloadIfLb1ELb1ELb1EECI2St22_Optional_payload_baseIfEIJfEEESt10in_place_tDpOT_ = comdat any

$_ZNSt22_Optional_payload_baseIfEC2IJfEEESt10in_place_tDpOT_ = comdat any

$_ZNSt22_Optional_payload_baseIfE8_StorageIfLb1EEC2IJfEEESt10in_place_tDpOT_ = comdat any

$_ZNK8facebook5velox13DecodedVector7valueAtIfEET_i = comdat any

$_ZN8facebook5velox10BaseVector2asINS0_10FlatVectorIdEEEEPT_v = comdat any

$_ZN8facebook5velox10FlatVectorIdE13mutableValuesEi = comdat any

$_ZNK8facebook5velox6Buffer9asMutableIdEEPT_v = comdat any

$_ZN8facebook5velox10BaseVector8byteSizeIdEEmi = comdat any

$_ZN8facebook5velox13AlignedBuffer10reallocateIdEEvPN5boost13intrusive_ptrINS0_6BufferEEEmRKSt8optionalIT_E = comdat any

$_ZNSt8optionalIdEC2IdTnNSt9enable_ifIX7__and_vISt6__not_ISt7is_sameIS0_NSt9remove_cvINSt16remove_referenceIT_E4typeEE4typeEEES3_IS4_ISt10in_place_tSB_EESt16is_constructibleIdJS7_EESt14is_convertibleIS7_dEEEbE4typeELb1EEEOS7_ = comdat any

$_ZN8facebook5velox13AlignedBuffer8allocateIdEEN5boost13intrusive_ptrINS0_6BufferEEEmPNS0_6memory10MemoryPoolERKSt8optionalIT_E = comdat any

$_ZN8facebook5velox13AlignedBuffer13fillNewMemoryIdEEvmmRKSt8optionalIT_E = comdat any

$_ZNSt8optionalIdEC2ESt9nullopt_t = comdat any

$_ZNKSt8optionalIdEcvbEv = comdat any

$_ZSt4fillIPddEvT_S1_RKT0_ = comdat any

$_ZNKRSt8optionalIdEdeEv = comdat any

$_ZNKSt19_Optional_base_implIdSt14_Optional_baseIdLb1ELb1EEE13_M_is_engagedEv = comdat any

$_ZSt8__fill_aIPddEvT_S1_RKT0_ = comdat any

$_ZSt9__fill_a1IPddEN9__gnu_cxx11__enable_ifIXsr11__is_scalarIT0_EE7__valueEvE6__typeET_S6_RKS3_ = comdat any

$_ZNKSt19_Optional_base_implIdSt14_Optional_baseIdLb1ELb1EEE6_M_getEv = comdat any

$_ZNKSt22_Optional_payload_baseIdE6_M_getEv = comdat any

$_ZNSt14_Optional_baseIdLb1ELb1EEC2Ev = comdat any

$_ZNSt17_Optional_payloadIdLb1ELb1ELb1EEC2Ev = comdat any

$_ZNSt22_Optional_payload_baseIdEC2Ev = comdat any

$_ZNSt22_Optional_payload_baseIdE8_StorageIdLb1EEC2Ev = comdat any

$_ZNSt14_Optional_baseIdLb1ELb1EEC2IJdETnNSt9enable_ifIX18is_constructible_vIdDpT_EEbE4typeELb0EEESt10in_place_tDpOS3_ = comdat any

$_ZNSt17_Optional_payloadIdLb1ELb1ELb1EECI2St22_Optional_payload_baseIdEIJdEEESt10in_place_tDpOT_ = comdat any

$_ZNSt22_Optional_payload_baseIdEC2IJdEEESt10in_place_tDpOT_ = comdat any

$_ZNSt22_Optional_payload_baseIdE8_StorageIdLb1EEC2IJdEEESt10in_place_tDpOT_ = comdat any

$_ZNK8facebook5velox13DecodedVector7valueAtIdEET_i = comdat any

$_ZSt5isnand = comdat any

$_ZN8facebook5velox10BaseVector2asINS0_10FlatVectorINS0_10StringViewEEEEEPT_v = comdat any

$_ZN8facebook5velox10FlatVectorINS0_10StringViewEE13mutableValuesEi = comdat any

$_ZNK8facebook5velox6Buffer9asMutableINS0_10StringViewEEEPT_v = comdat any

$_ZNKSt3setImSt4lessImESaImEE5beginEv = comdat any

$_ZNKSt3setImSt4lessImESaImEE3endEv = comdat any

$_ZStneRKSt23_Rb_tree_const_iteratorImES2_ = comdat any

$_ZNKSt23_Rb_tree_const_iteratorImEdeEv = comdat any

$_ZNKSt6vectorISt10shared_ptrIN8facebook5velox10BaseVectorEESaIS4_EEixEm = comdat any

$_ZNSt23_Rb_tree_const_iteratorImEppEv = comdat any

$_ZN8facebook5velox10BaseVector8byteSizeINS0_10StringViewEEEmi = comdat any

$_ZN8facebook5velox13AlignedBuffer10reallocateINS0_10StringViewEEEvPN5boost13intrusive_ptrINS0_6BufferEEEmRKSt8optionalIT_E = comdat any

$_ZN8facebook5velox10StringViewC2Ev = comdat any

$_ZNSt8optionalIN8facebook5velox10StringViewEEC2IS2_TnNSt9enable_ifIX7__and_vISt6__not_ISt7is_sameIS3_NSt9remove_cvINSt16remove_referenceIT_E4typeEE4typeEEES6_IS7_ISt10in_place_tSE_EESt16is_constructibleIS2_JSA_EESt14is_convertibleISA_S2_EEEbE4typeELb1EEEOSA_ = comdat any

$_ZN8facebook5velox13AlignedBuffer8allocateINS0_10StringViewEEEN5boost13intrusive_ptrINS0_6BufferEEEmPNS0_6memory10MemoryPoolERKSt8optionalIT_E = comdat any

$_ZN8facebook5velox13AlignedBuffer13fillNewMemoryINS0_10StringViewEEEvmmRKSt8optionalIT_E = comdat any

$_ZNSt8optionalIN8facebook5velox10StringViewEEC2ESt9nullopt_t = comdat any

$_ZNKSt8optionalIN8facebook5velox10StringViewEEcvbEv = comdat any

$_ZSt4fillIPN8facebook5velox10StringViewES2_EvT_S4_RKT0_ = comdat any

$_ZNKRSt8optionalIN8facebook5velox10StringViewEEdeEv = comdat any

$_ZNKSt19_Optional_base_implIN8facebook5velox10StringViewESt14_Optional_baseIS2_Lb1ELb1EEE13_M_is_engagedEv = comdat any

$_ZSt8__fill_aIPN8facebook5velox10StringViewES2_EvT_S4_RKT0_ = comdat any

$_ZSt9__fill_a1IPN8facebook5velox10StringViewES2_EN9__gnu_cxx11__enable_ifIXntsr11__is_scalarIT0_EE7__valueEvE6__typeET_S9_RKS6_ = comdat any

$_ZNKSt19_Optional_base_implIN8facebook5velox10StringViewESt14_Optional_baseIS2_Lb1ELb1EEE6_M_getEv = comdat any

$_ZNKSt22_Optional_payload_baseIN8facebook5velox10StringViewEE6_M_getEv = comdat any

$_ZNSt14_Optional_baseIN8facebook5velox10StringViewELb1ELb1EEC2Ev = comdat any

$_ZNSt17_Optional_payloadIN8facebook5velox10StringViewELb1ELb1ELb1EEC2Ev = comdat any

$_ZNSt22_Optional_payload_baseIN8facebook5velox10StringViewEEC2Ev = comdat any

$_ZNSt22_Optional_payload_baseIN8facebook5velox10StringViewEE8_StorageIS2_Lb1EEC2Ev = comdat any

$_ZNSt14_Optional_baseIN8facebook5velox10StringViewELb1ELb1EEC2IJS2_ETnNSt9enable_ifIX18is_constructible_vIS2_DpT_EEbE4typeELb0EEESt10in_place_tDpOS6_ = comdat any

$_ZNSt17_Optional_payloadIN8facebook5velox10StringViewELb1ELb1ELb1EECI2St22_Optional_payload_baseIS2_EIJS2_EEESt10in_place_tDpOT_ = comdat any

$_ZNSt22_Optional_payload_baseIN8facebook5velox10StringViewEEC2IJS2_EEESt10in_place_tDpOT_ = comdat any

$_ZNSt22_Optional_payload_baseIN8facebook5velox10StringViewEE8_StorageIS2_Lb1EEC2IJS2_EEESt10in_place_tDpOT_ = comdat any

$_ZNK8facebook5velox13DecodedVector7valueAtINS0_10StringViewEEET_i = comdat any

$_ZNK8facebook5velox10StringViewltERKS1_ = comdat any

$_ZNK8facebook5velox10StringView7compareERKS1_ = comdat any

$_ZNK8facebook5velox10StringView11prefixAsIntEv = comdat any

$_ZSt3minIjERKT_S2_S2_ = comdat any

$_ZNK8facebook5velox10StringView8isInlineEv = comdat any

$_ZNKR8facebook5velox10StringView4dataEv = comdat any

$_ZNKSt8_Rb_treeImmSt9_IdentityImESt4lessImESaImEE5beginEv = comdat any

$_ZNSt23_Rb_tree_const_iteratorImEC2EPKSt18_Rb_tree_node_base = comdat any

$_ZNKSt8_Rb_treeImmSt9_IdentityImESt4lessImESaImEE3endEv = comdat any

$_ZN8facebook5velox10BaseVector2asINS0_10FlatVectorINS0_9TimestampEEEEEPT_v = comdat any

$_ZN8facebook5velox10FlatVectorINS0_9TimestampEE13mutableValuesEi = comdat any

$_ZNK8facebook5velox6Buffer9asMutableINS0_9TimestampEEEPT_v = comdat any

$_ZN8facebook5velox10BaseVector8byteSizeINS0_9TimestampEEEmi = comdat any

$_ZN8facebook5velox13AlignedBuffer10reallocateINS0_9TimestampEEEvPN5boost13intrusive_ptrINS0_6BufferEEEmRKSt8optionalIT_E = comdat any

$_ZN8facebook5velox9TimestampC2Ev = comdat any

$_ZNSt8optionalIN8facebook5velox9TimestampEEC2IS2_TnNSt9enable_ifIX7__and_vISt6__not_ISt7is_sameIS3_NSt9remove_cvINSt16remove_referenceIT_E4typeEE4typeEEES6_IS7_ISt10in_place_tSE_EESt16is_constructibleIS2_JSA_EESt14is_convertibleISA_S2_EEEbE4typeELb1EEEOSA_ = comdat any

$_ZN8facebook5velox13AlignedBuffer8allocateINS0_9TimestampEEEN5boost13intrusive_ptrINS0_6BufferEEEmPNS0_6memory10MemoryPoolERKSt8optionalIT_E = comdat any

$_ZN8facebook5velox13AlignedBuffer13fillNewMemoryINS0_9TimestampEEEvmmRKSt8optionalIT_E = comdat any

$_ZNSt8optionalIN8facebook5velox9TimestampEEC2ESt9nullopt_t = comdat any

$_ZNKSt8optionalIN8facebook5velox9TimestampEEcvbEv = comdat any

$_ZSt4fillIPN8facebook5velox9TimestampES2_EvT_S4_RKT0_ = comdat any

$_ZNKRSt8optionalIN8facebook5velox9TimestampEEdeEv = comdat any

$_ZNKSt19_Optional_base_implIN8facebook5velox9TimestampESt14_Optional_baseIS2_Lb1ELb1EEE13_M_is_engagedEv = comdat any

$_ZSt8__fill_aIPN8facebook5velox9TimestampES2_EvT_S4_RKT0_ = comdat any

$_ZSt9__fill_a1IPN8facebook5velox9TimestampES2_EN9__gnu_cxx11__enable_ifIXntsr11__is_scalarIT0_EE7__valueEvE6__typeET_S9_RKS6_ = comdat any

$_ZNKSt19_Optional_base_implIN8facebook5velox9TimestampESt14_Optional_baseIS2_Lb1ELb1EEE6_M_getEv = comdat any

$_ZNKSt22_Optional_payload_baseIN8facebook5velox9TimestampEE6_M_getEv = comdat any

$_ZNSt14_Optional_baseIN8facebook5velox9TimestampELb1ELb1EEC2Ev = comdat any

$_ZNSt17_Optional_payloadIN8facebook5velox9TimestampELb1ELb1ELb1EEC2Ev = comdat any

$_ZNSt22_Optional_payload_baseIN8facebook5velox9TimestampEEC2Ev = comdat any

$_ZNSt22_Optional_payload_baseIN8facebook5velox9TimestampEE8_StorageIS2_Lb1EEC2Ev = comdat any

$_ZNSt14_Optional_baseIN8facebook5velox9TimestampELb1ELb1EEC2IJS2_ETnNSt9enable_ifIX18is_constructible_vIS2_DpT_EEbE4typeELb0EEESt10in_place_tDpOS6_ = comdat any

$_ZNSt17_Optional_payloadIN8facebook5velox9TimestampELb1ELb1ELb1EECI2St22_Optional_payload_baseIS2_EIJS2_EEESt10in_place_tDpOT_ = comdat any

$_ZNSt22_Optional_payload_baseIN8facebook5velox9TimestampEEC2IJS2_EEESt10in_place_tDpOT_ = comdat any

$_ZNSt22_Optional_payload_baseIN8facebook5velox9TimestampEE8_StorageIS2_Lb1EEC2IJS2_EEESt10in_place_tDpOT_ = comdat any

$_ZNK8facebook5velox13DecodedVector7valueAtINS0_9TimestampEEET_i = comdat any

$_ZNK8facebook5velox9TimestampltERKS1_ = comdat any

$_ZNSt8optionalISt6vectorImSaImEEEC2ESt9nullopt_t = comdat any

$_ZNSt14_Optional_baseISt6vectorImSaImEELb0ELb0EEC2Ev = comdat any

$_ZNSt17_Optional_payloadISt6vectorImSaImEELb0ELb0ELb0EEC2Ev = comdat any

$_ZNSt17_Optional_payloadISt6vectorImSaImEELb1ELb0ELb0EEC2Ev = comdat any

$_ZNSt22_Optional_payload_baseISt6vectorImSaImEEEC2Ev = comdat any

$_ZNSt22_Optional_payload_baseISt6vectorImSaImEEE8_StorageIS2_Lb0EEC2Ev = comdat any

$_ZNSt10_Head_baseILm0EPN8facebook5velox4exec14VectorFunctionELb0EEC2IRS4_EEOT_ = comdat any

$_ZNSt15__uniq_ptr_implIN8facebook5velox4exec14VectorFunctionESt14default_deleteIS3_EE6_M_ptrEv = comdat any

$_ZNSt10unique_ptrIN8facebook5velox4exec14VectorFunctionESt14default_deleteIS3_EE11get_deleterEv = comdat any

$_ZNKSt14default_deleteIN8facebook5velox4exec14VectorFunctionEEclEPS3_ = comdat any

$_ZSt3getILm0EJPN8facebook5velox4exec14VectorFunctionESt14default_deleteIS3_EEERNSt13tuple_elementIXT_ESt5tupleIJDpT0_EEE4typeERSB_ = comdat any

$_ZSt12__get_helperILm0EPN8facebook5velox4exec14VectorFunctionEJSt14default_deleteIS3_EEERT0_RSt11_Tuple_implIXT_EJS7_DpT1_EE = comdat any

$_ZNSt11_Tuple_implILm0EJPN8facebook5velox4exec14VectorFunctionESt14default_deleteIS3_EEE7_M_headERS7_ = comdat any

$_ZNSt10_Head_baseILm0EPN8facebook5velox4exec14VectorFunctionELb0EE7_M_headERS5_ = comdat any

$_ZNSt15__uniq_ptr_implIN8facebook5velox4exec14VectorFunctionESt14default_deleteIS3_EE10_M_deleterEv = comdat any

$_ZSt3getILm1EJPN8facebook5velox4exec14VectorFunctionESt14default_deleteIS3_EEERNSt13tuple_elementIXT_ESt5tupleIJDpT0_EEE4typeERSB_ = comdat any

$_ZSt12__get_helperILm1ESt14default_deleteIN8facebook5velox4exec14VectorFunctionEEJEERT0_RSt11_Tuple_implIXT_EJS6_DpT1_EE = comdat any

$_ZNSt11_Tuple_implILm1EJSt14default_deleteIN8facebook5velox4exec14VectorFunctionEEEE7_M_headERS6_ = comdat any

$_ZNSt10_Head_baseILm1ESt14default_deleteIN8facebook5velox4exec14VectorFunctionEELb1EE7_M_headERS6_ = comdat any

$_ZNK8facebook5velox10StringViewgtERKS1_ = comdat any

$_ZNK8facebook5velox9TimestampgtERKS1_ = comdat any

$_ZSt7nullopt = comdat any

$_ZTSN8facebook5velox4exec14VectorFunctionE = comdat any

$_ZTIN8facebook5velox4exec14VectorFunctionE = comdat any

$_ZTVN8facebook5velox4exec14VectorFunctionE = comdat any

$_ZTSN8facebook5velox10FlatVectorIbEE = comdat any

$_ZTSN8facebook5velox12SimpleVectorIbEE = comdat any

$_ZTIN8facebook5velox12SimpleVectorIbEE = comdat any

$_ZTIN8facebook5velox10FlatVectorIbEE = comdat any

$_ZTVN8facebook5velox13AlignedBufferE = comdat any

$_ZTSN8facebook5velox13AlignedBufferE = comdat any

$_ZTSN8facebook5velox6BufferE = comdat any

$_ZTIN8facebook5velox6BufferE = comdat any

$_ZTIN8facebook5velox13AlignedBufferE = comdat any

$_ZTVN8facebook5velox6BufferE = comdat any

$_ZSt8in_place = comdat any

$_ZTSSt19bad_optional_access = comdat any

$_ZTISt19bad_optional_access = comdat any

$_ZTVSt19bad_optional_access = comdat any

$_ZTSN8facebook5velox14VeloxExceptionE = comdat any

$_ZTIN8facebook5velox14VeloxExceptionE = comdat any

$_ZN8facebook5velox12error_source16kErrorSourceUserE = comdat any

$_ZTSN8facebook5velox10FlatVectorIaEE = comdat any

$_ZTSN8facebook5velox12SimpleVectorIaEE = comdat any

$_ZTIN8facebook5velox12SimpleVectorIaEE = comdat any

$_ZTIN8facebook5velox10FlatVectorIaEE = comdat any

$_ZTSN8facebook5velox10FlatVectorIsEE = comdat any

$_ZTSN8facebook5velox12SimpleVectorIsEE = comdat any

$_ZTIN8facebook5velox12SimpleVectorIsEE = comdat any

$_ZTIN8facebook5velox10FlatVectorIsEE = comdat any

$_ZTSN8facebook5velox10FlatVectorIiEE = comdat any

$_ZTSN8facebook5velox12SimpleVectorIiEE = comdat any

$_ZTIN8facebook5velox12SimpleVectorIiEE = comdat any

$_ZTIN8facebook5velox10FlatVectorIiEE = comdat any

$_ZTSN8facebook5velox10FlatVectorIlEE = comdat any

$_ZTSN8facebook5velox12SimpleVectorIlEE = comdat any

$_ZTIN8facebook5velox12SimpleVectorIlEE = comdat any

$_ZTIN8facebook5velox10FlatVectorIlEE = comdat any

$_ZTSN8facebook5velox10FlatVectorInEE = comdat any

$_ZTSN8facebook5velox12SimpleVectorInEE = comdat any

$_ZTIN8facebook5velox12SimpleVectorInEE = comdat any

$_ZTIN8facebook5velox10FlatVectorInEE = comdat any

$_ZTSN8facebook5velox10FlatVectorIfEE = comdat any

$_ZTSN8facebook5velox12SimpleVectorIfEE = comdat any

$_ZTIN8facebook5velox12SimpleVectorIfEE = comdat any

$_ZTIN8facebook5velox10FlatVectorIfEE = comdat any

$_ZTSN8facebook5velox10FlatVectorIdEE = comdat any

$_ZTSN8facebook5velox12SimpleVectorIdEE = comdat any

$_ZTIN8facebook5velox12SimpleVectorIdEE = comdat any

$_ZTIN8facebook5velox10FlatVectorIdEE = comdat any

$_ZTSN8facebook5velox10FlatVectorINS0_10StringViewEEE = comdat any

$_ZTSN8facebook5velox12SimpleVectorINS0_10StringViewEEE = comdat any

$_ZTIN8facebook5velox12SimpleVectorINS0_10StringViewEEE = comdat any

$_ZTIN8facebook5velox10FlatVectorINS0_10StringViewEEE = comdat any

$_ZTSN8facebook5velox10FlatVectorINS0_9TimestampEEE = comdat any

$_ZTSN8facebook5velox12SimpleVectorINS0_9TimestampEEE = comdat any

$_ZTIN8facebook5velox12SimpleVectorINS0_9TimestampEEE = comdat any

$_ZTIN8facebook5velox10FlatVectorINS0_9TimestampEEE = comdat any

@.str = private unnamed_addr constant [8 x i8] c"boolean\00", align 1
@.str.1 = private unnamed_addr constant [8 x i8] c"tinyint\00", align 1
@.str.2 = private unnamed_addr constant [9 x i8] c"smallint\00", align 1
@.str.3 = private unnamed_addr constant [8 x i8] c"integer\00", align 1
@.str.4 = private unnamed_addr constant [7 x i8] c"bigint\00", align 1
@.str.5 = private unnamed_addr constant [7 x i8] c"double\00", align 1
@.str.6 = private unnamed_addr constant [5 x i8] c"real\00", align 1
@.str.7 = private unnamed_addr constant [8 x i8] c"varchar\00", align 1
@.str.8 = private unnamed_addr constant [10 x i8] c"timestamp\00", align 1
@.str.9 = private unnamed_addr constant [5 x i8] c"date\00", align 1
@.str.10 = private unnamed_addr constant [10 x i8] c"precision\00", align 1
@_ZSt7nullopt = linkonce_odr constant %"struct.std::nullopt_t" undef, comdat, align 1
@.str.11 = private unnamed_addr constant [6 x i8] c"scale\00", align 1
@.str.12 = private unnamed_addr constant [26 x i8] c"DECIMAL(precision, scale)\00", align 1
@.str.13 = private unnamed_addr constant [50 x i8] c"basic_string: construction from null is not valid\00", align 1
@.str.14 = private unnamed_addr constant [49 x i8] c"cannot create std::vector larger than max_size()\00", align 1
@.str.15 = private unnamed_addr constant [26 x i8] c"vector::_M_realloc_insert\00", align 1
@.str.16 = private unnamed_addr constant [28 x i8] c"vector<bool>::_M_insert_aux\00", align 1
@__libc_single_threaded = external global i8, align 1
@_ZTVN8facebook5velox9functions12_GLOBAL__N_120ExtremeValueFunctionILb1EEE = internal unnamed_addr constant { [12 x ptr] } { [12 x ptr] [ptr null, ptr @_ZTIN8facebook5velox9functions12_GLOBAL__N_120ExtremeValueFunctionILb1EEE, ptr @_ZN8facebook5velox9functions12_GLOBAL__N_120ExtremeValueFunctionILb1EED2Ev, ptr @_ZN8facebook5velox9functions12_GLOBAL__N_120ExtremeValueFunctionILb1EED0Ev, ptr @_ZNK8facebook5velox9functions12_GLOBAL__N_120ExtremeValueFunctionILb1EE5applyERKNS0_17SelectivityVectorERSt6vectorISt10shared_ptrINS0_10BaseVectorEESaISB_EERKS9_IKNS0_4TypeEERNS0_4exec7EvalCtxERSB_, ptr @_ZNK8facebook5velox4exec14VectorFunction15isDeterministicEv, ptr @_ZNK8facebook5velox4exec14VectorFunction21isDefaultNullBehaviorEv, ptr @_ZNK8facebook5velox4exec14VectorFunction27supportsFlatNoNullsFastPathEv, ptr @_ZNK8facebook5velox4exec14VectorFunction25ensureStringEncodingSetAtEv, ptr @_ZNK8facebook5velox4exec14VectorFunction34ensureStringEncodingSetAtAllInputsEv, ptr @_ZNK8facebook5velox4exec14VectorFunction36propagateStringEncodingFromAllInputsEv, ptr @_ZNK8facebook5velox4exec14VectorFunction27propagateStringEncodingFromEv] }, align 8
@_ZTVN10__cxxabiv120__si_class_type_infoE = external global [0 x ptr]
@_ZTSN8facebook5velox9functions12_GLOBAL__N_120ExtremeValueFunctionILb1EEE = internal constant [70 x i8] c"N8facebook5velox9functions12_GLOBAL__N_120ExtremeValueFunctionILb1EEE\00", align 1
@_ZTVN10__cxxabiv117__class_type_infoE = external global [0 x ptr]
@_ZTSN8facebook5velox4exec14VectorFunctionE = linkonce_odr constant [39 x i8] c"N8facebook5velox4exec14VectorFunctionE\00", comdat, align 1
@_ZTIN8facebook5velox4exec14VectorFunctionE = linkonce_odr constant { ptr, ptr } { ptr getelementptr inbounds (ptr, ptr @_ZTVN10__cxxabiv117__class_type_infoE, i64 2), ptr @_ZTSN8facebook5velox4exec14VectorFunctionE }, comdat, align 8
@_ZTIN8facebook5velox9functions12_GLOBAL__N_120ExtremeValueFunctionILb1EEE = internal constant { ptr, ptr, ptr } { ptr getelementptr inbounds (ptr, ptr @_ZTVN10__cxxabiv120__si_class_type_infoE, i64 2), ptr @_ZTSN8facebook5velox9functions12_GLOBAL__N_120ExtremeValueFunctionILb1EEE, ptr @_ZTIN8facebook5velox4exec14VectorFunctionE }, align 8
@_ZTVN8facebook5velox4exec14VectorFunctionE = linkonce_odr unnamed_addr constant { [12 x ptr] } { [12 x ptr] [ptr null, ptr @_ZTIN8facebook5velox4exec14VectorFunctionE, ptr @_ZN8facebook5velox4exec14VectorFunctionD2Ev, ptr @_ZN8facebook5velox4exec14VectorFunctionD0Ev, ptr @__cxa_pure_virtual, ptr @_ZNK8facebook5velox4exec14VectorFunction15isDeterministicEv, ptr @_ZNK8facebook5velox4exec14VectorFunction21isDefaultNullBehaviorEv, ptr @_ZNK8facebook5velox4exec14VectorFunction27supportsFlatNoNullsFastPathEv, ptr @_ZNK8facebook5velox4exec14VectorFunction25ensureStringEncodingSetAtEv, ptr @_ZNK8facebook5velox4exec14VectorFunction34ensureStringEncodingSetAtAllInputsEv, ptr @_ZNK8facebook5velox4exec14VectorFunction36propagateStringEncodingFromAllInputsEv, ptr @_ZNK8facebook5velox4exec14VectorFunction27propagateStringEncodingFromEv] }, comdat, align 8
@_ZTIN8facebook5velox10BaseVectorE = external constant ptr
@_ZTSN8facebook5velox10FlatVectorIbEE = linkonce_odr constant [33 x i8] c"N8facebook5velox10FlatVectorIbEE\00", comdat, align 1
@_ZTSN8facebook5velox12SimpleVectorIbEE = linkonce_odr constant [35 x i8] c"N8facebook5velox12SimpleVectorIbEE\00", comdat, align 1
@_ZTIN8facebook5velox12SimpleVectorIbEE = linkonce_odr constant { ptr, ptr, ptr } { ptr getelementptr inbounds (ptr, ptr @_ZTVN10__cxxabiv120__si_class_type_infoE, i64 2), ptr @_ZTSN8facebook5velox12SimpleVectorIbEE, ptr @_ZTIN8facebook5velox10BaseVectorE }, comdat, align 8
@_ZTIN8facebook5velox10FlatVectorIbEE = linkonce_odr constant { ptr, ptr, ptr } { ptr getelementptr inbounds (ptr, ptr @_ZTVN10__cxxabiv120__si_class_type_infoE, i64 2), ptr @_ZTSN8facebook5velox10FlatVectorIbEE, ptr @_ZTIN8facebook5velox12SimpleVectorIbEE }, comdat, align 8
@_ZTISt9exception = external constant ptr
@_ZTVN8facebook5velox13AlignedBufferE = linkonce_odr unnamed_addr constant { [11 x ptr] } { [11 x ptr] [ptr null, ptr @_ZTIN8facebook5velox13AlignedBufferE, ptr @_ZN8facebook5velox13AlignedBufferD2Ev, ptr @_ZN8facebook5velox13AlignedBufferD0Ev, ptr @_ZN8facebook5velox6Buffer7setSizeEm, ptr @_ZNK8facebook5velox6Buffer6isViewEv, ptr @_ZN8facebook5velox13AlignedBuffer15setEndGuardImplEv, ptr @_ZNK8facebook5velox13AlignedBuffer17checkEndGuardImplEv, ptr @_ZN8facebook5velox13AlignedBuffer10freeToPoolEv, ptr @_ZN8facebook5velox6Buffer8copyFromEPKS1_m, ptr @_ZN8facebook5velox6Buffer16releaseResourcesEv] }, comdat, align 8
@_ZTSN8facebook5velox13AlignedBufferE = linkonce_odr constant [33 x i8] c"N8facebook5velox13AlignedBufferE\00", comdat, align 1
@_ZTSN8facebook5velox6BufferE = linkonce_odr constant [25 x i8] c"N8facebook5velox6BufferE\00", comdat, align 1
@_ZTIN8facebook5velox6BufferE = linkonce_odr constant { ptr, ptr } { ptr getelementptr inbounds (ptr, ptr @_ZTVN10__cxxabiv117__class_type_infoE, i64 2), ptr @_ZTSN8facebook5velox6BufferE }, comdat, align 8
@_ZTIN8facebook5velox13AlignedBufferE = linkonce_odr constant { ptr, ptr, ptr } { ptr getelementptr inbounds (ptr, ptr @_ZTVN10__cxxabiv120__si_class_type_infoE, i64 2), ptr @_ZTSN8facebook5velox13AlignedBufferE, ptr @_ZTIN8facebook5velox6BufferE }, comdat, align 8
@_ZTVN8facebook5velox6BufferE = linkonce_odr unnamed_addr constant { [11 x ptr] } { [11 x ptr] [ptr null, ptr @_ZTIN8facebook5velox6BufferE, ptr @_ZN8facebook5velox6BufferD2Ev, ptr @_ZN8facebook5velox6BufferD0Ev, ptr @_ZN8facebook5velox6Buffer7setSizeEm, ptr @_ZNK8facebook5velox6Buffer6isViewEv, ptr @_ZN8facebook5velox6Buffer15setEndGuardImplEv, ptr @_ZNK8facebook5velox6Buffer17checkEndGuardImplEv, ptr @_ZN8facebook5velox6Buffer10freeToPoolEv, ptr @_ZN8facebook5velox6Buffer8copyFromEPKS1_m, ptr @_ZN8facebook5velox6Buffer16releaseResourcesEv] }, comdat, align 8
@_ZSt8in_place = linkonce_odr constant %"struct.std::in_place_t" zeroinitializer, comdat, align 1
@_ZTSSt19bad_optional_access = linkonce_odr constant [24 x i8] c"St19bad_optional_access\00", comdat, align 1
@_ZTISt19bad_optional_access = linkonce_odr constant { ptr, ptr, ptr } { ptr getelementptr inbounds (ptr, ptr @_ZTVN10__cxxabiv120__si_class_type_infoE, i64 2), ptr @_ZTSSt19bad_optional_access, ptr @_ZTISt9exception }, comdat, align 8
@_ZTVSt19bad_optional_access = linkonce_odr unnamed_addr constant { [5 x ptr] } { [5 x ptr] [ptr null, ptr @_ZTISt19bad_optional_access, ptr @_ZNSt19bad_optional_accessD2Ev, ptr @_ZNSt19bad_optional_accessD0Ev, ptr @_ZNKSt19bad_optional_access4whatEv] }, comdat, align 8
@_ZTVSt9exception = external unnamed_addr constant { [5 x ptr] }, align 8
@.str.17 = private unnamed_addr constant [20 x i8] c"bad optional access\00", align 1
@_ZTSN8facebook5velox14VeloxExceptionE = linkonce_odr constant [34 x i8] c"N8facebook5velox14VeloxExceptionE\00", comdat, align 1
@_ZTIN8facebook5velox14VeloxExceptionE = linkonce_odr constant { ptr, ptr, ptr } { ptr getelementptr inbounds (ptr, ptr @_ZTVN10__cxxabiv120__si_class_type_infoE, i64 2), ptr @_ZTSN8facebook5velox14VeloxExceptionE, ptr @_ZTISt9exception }, comdat, align 8
@_ZN8facebook5velox12error_source16kErrorSourceUserE = linkonce_odr constant %"class.folly::BasicFixedString" { [5 x i8] c"USER\00", i64 4 }, comdat, align 8
@_ZZN8facebook5velox4bits10forEachBitIZNS0_4exec7EvalCtx22applyToSelectedNoThrowIZNKS0_9functions12_GLOBAL__N_120ExtremeValueFunctionILb1EE10applyTypedIbEEvRKNS0_17SelectivityVectorERKSt6vectorISt10shared_ptrINS0_10BaseVectorEESaISH_EERKSF_IKNS0_4TypeEERS4_RSH_EUliE_EEvSD_T_EUlSU_E_EEvPKmiibSU_E7kAllSet = internal constant i64 -1, align 8
@_ZTSN8facebook5velox10FlatVectorIaEE = linkonce_odr constant [33 x i8] c"N8facebook5velox10FlatVectorIaEE\00", comdat, align 1
@_ZTSN8facebook5velox12SimpleVectorIaEE = linkonce_odr constant [35 x i8] c"N8facebook5velox12SimpleVectorIaEE\00", comdat, align 1
@_ZTIN8facebook5velox12SimpleVectorIaEE = linkonce_odr constant { ptr, ptr, ptr } { ptr getelementptr inbounds (ptr, ptr @_ZTVN10__cxxabiv120__si_class_type_infoE, i64 2), ptr @_ZTSN8facebook5velox12SimpleVectorIaEE, ptr @_ZTIN8facebook5velox10BaseVectorE }, comdat, align 8
@_ZTIN8facebook5velox10FlatVectorIaEE = linkonce_odr constant { ptr, ptr, ptr } { ptr getelementptr inbounds (ptr, ptr @_ZTVN10__cxxabiv120__si_class_type_infoE, i64 2), ptr @_ZTSN8facebook5velox10FlatVectorIaEE, ptr @_ZTIN8facebook5velox12SimpleVectorIaEE }, comdat, align 8
@_ZZN8facebook5velox4bits10forEachBitIZNS0_4exec7EvalCtx22applyToSelectedNoThrowIZNKS0_9functions12_GLOBAL__N_120ExtremeValueFunctionILb1EE10applyTypedIaEEvRKNS0_17SelectivityVectorERKSt6vectorISt10shared_ptrINS0_10BaseVectorEESaISH_EERKSF_IKNS0_4TypeEERS4_RSH_EUliE_EEvSD_T_EUlSU_E_EEvPKmiibSU_E7kAllSet = internal constant i64 -1, align 8
@_ZTSN8facebook5velox10FlatVectorIsEE = linkonce_odr constant [33 x i8] c"N8facebook5velox10FlatVectorIsEE\00", comdat, align 1
@_ZTSN8facebook5velox12SimpleVectorIsEE = linkonce_odr constant [35 x i8] c"N8facebook5velox12SimpleVectorIsEE\00", comdat, align 1
@_ZTIN8facebook5velox12SimpleVectorIsEE = linkonce_odr constant { ptr, ptr, ptr } { ptr getelementptr inbounds (ptr, ptr @_ZTVN10__cxxabiv120__si_class_type_infoE, i64 2), ptr @_ZTSN8facebook5velox12SimpleVectorIsEE, ptr @_ZTIN8facebook5velox10BaseVectorE }, comdat, align 8
@_ZTIN8facebook5velox10FlatVectorIsEE = linkonce_odr constant { ptr, ptr, ptr } { ptr getelementptr inbounds (ptr, ptr @_ZTVN10__cxxabiv120__si_class_type_infoE, i64 2), ptr @_ZTSN8facebook5velox10FlatVectorIsEE, ptr @_ZTIN8facebook5velox12SimpleVectorIsEE }, comdat, align 8
@_ZZN8facebook5velox4bits10forEachBitIZNS0_4exec7EvalCtx22applyToSelectedNoThrowIZNKS0_9functions12_GLOBAL__N_120ExtremeValueFunctionILb1EE10applyTypedIsEEvRKNS0_17SelectivityVectorERKSt6vectorISt10shared_ptrINS0_10BaseVectorEESaISH_EERKSF_IKNS0_4TypeEERS4_RSH_EUliE_EEvSD_T_EUlSU_E_EEvPKmiibSU_E7kAllSet = internal constant i64 -1, align 8
@_ZTSN8facebook5velox10FlatVectorIiEE = linkonce_odr constant [33 x i8] c"N8facebook5velox10FlatVectorIiEE\00", comdat, align 1
@_ZTSN8facebook5velox12SimpleVectorIiEE = linkonce_odr constant [35 x i8] c"N8facebook5velox12SimpleVectorIiEE\00", comdat, align 1
@_ZTIN8facebook5velox12SimpleVectorIiEE = linkonce_odr constant { ptr, ptr, ptr } { ptr getelementptr inbounds (ptr, ptr @_ZTVN10__cxxabiv120__si_class_type_infoE, i64 2), ptr @_ZTSN8facebook5velox12SimpleVectorIiEE, ptr @_ZTIN8facebook5velox10BaseVectorE }, comdat, align 8
@_ZTIN8facebook5velox10FlatVectorIiEE = linkonce_odr constant { ptr, ptr, ptr } { ptr getelementptr inbounds (ptr, ptr @_ZTVN10__cxxabiv120__si_class_type_infoE, i64 2), ptr @_ZTSN8facebook5velox10FlatVectorIiEE, ptr @_ZTIN8facebook5velox12SimpleVectorIiEE }, comdat, align 8
@_ZZN8facebook5velox4bits10forEachBitIZNS0_4exec7EvalCtx22applyToSelectedNoThrowIZNKS0_9functions12_GLOBAL__N_120ExtremeValueFunctionILb1EE10applyTypedIiEEvRKNS0_17SelectivityVectorERKSt6vectorISt10shared_ptrINS0_10BaseVectorEESaISH_EERKSF_IKNS0_4TypeEERS4_RSH_EUliE_EEvSD_T_EUlSU_E_EEvPKmiibSU_E7kAllSet = internal constant i64 -1, align 8
@_ZTSN8facebook5velox10FlatVectorIlEE = linkonce_odr constant [33 x i8] c"N8facebook5velox10FlatVectorIlEE\00", comdat, align 1
@_ZTSN8facebook5velox12SimpleVectorIlEE = linkonce_odr constant [35 x i8] c"N8facebook5velox12SimpleVectorIlEE\00", comdat, align 1
@_ZTIN8facebook5velox12SimpleVectorIlEE = linkonce_odr constant { ptr, ptr, ptr } { ptr getelementptr inbounds (ptr, ptr @_ZTVN10__cxxabiv120__si_class_type_infoE, i64 2), ptr @_ZTSN8facebook5velox12SimpleVectorIlEE, ptr @_ZTIN8facebook5velox10BaseVectorE }, comdat, align 8
@_ZTIN8facebook5velox10FlatVectorIlEE = linkonce_odr constant { ptr, ptr, ptr } { ptr getelementptr inbounds (ptr, ptr @_ZTVN10__cxxabiv120__si_class_type_infoE, i64 2), ptr @_ZTSN8facebook5velox10FlatVectorIlEE, ptr @_ZTIN8facebook5velox12SimpleVectorIlEE }, comdat, align 8
@_ZZN8facebook5velox4bits10forEachBitIZNS0_4exec7EvalCtx22applyToSelectedNoThrowIZNKS0_9functions12_GLOBAL__N_120ExtremeValueFunctionILb1EE10applyTypedIlEEvRKNS0_17SelectivityVectorERKSt6vectorISt10shared_ptrINS0_10BaseVectorEESaISH_EERKSF_IKNS0_4TypeEERS4_RSH_EUliE_EEvSD_T_EUlSU_E_EEvPKmiibSU_E7kAllSet = internal constant i64 -1, align 8
@_ZTSN8facebook5velox10FlatVectorInEE = linkonce_odr constant [33 x i8] c"N8facebook5velox10FlatVectorInEE\00", comdat, align 1
@_ZTSN8facebook5velox12SimpleVectorInEE = linkonce_odr constant [35 x i8] c"N8facebook5velox12SimpleVectorInEE\00", comdat, align 1
@_ZTIN8facebook5velox12SimpleVectorInEE = linkonce_odr constant { ptr, ptr, ptr } { ptr getelementptr inbounds (ptr, ptr @_ZTVN10__cxxabiv120__si_class_type_infoE, i64 2), ptr @_ZTSN8facebook5velox12SimpleVectorInEE, ptr @_ZTIN8facebook5velox10BaseVectorE }, comdat, align 8
@_ZTIN8facebook5velox10FlatVectorInEE = linkonce_odr constant { ptr, ptr, ptr } { ptr getelementptr inbounds (ptr, ptr @_ZTVN10__cxxabiv120__si_class_type_infoE, i64 2), ptr @_ZTSN8facebook5velox10FlatVectorInEE, ptr @_ZTIN8facebook5velox12SimpleVectorInEE }, comdat, align 8
@_ZZN8facebook5velox4bits10forEachBitIZNS0_4exec7EvalCtx22applyToSelectedNoThrowIZNKS0_9functions12_GLOBAL__N_120ExtremeValueFunctionILb1EE10applyTypedInEEvRKNS0_17SelectivityVectorERKSt6vectorISt10shared_ptrINS0_10BaseVectorEESaISH_EERKSF_IKNS0_4TypeEERS4_RSH_EUliE_EEvSD_T_EUlSU_E_EEvPKmiibSU_E7kAllSet = internal constant i64 -1, align 8
@_ZTSN8facebook5velox10FlatVectorIfEE = linkonce_odr constant [33 x i8] c"N8facebook5velox10FlatVectorIfEE\00", comdat, align 1
@_ZTSN8facebook5velox12SimpleVectorIfEE = linkonce_odr constant [35 x i8] c"N8facebook5velox12SimpleVectorIfEE\00", comdat, align 1
@_ZTIN8facebook5velox12SimpleVectorIfEE = linkonce_odr constant { ptr, ptr, ptr } { ptr getelementptr inbounds (ptr, ptr @_ZTVN10__cxxabiv120__si_class_type_infoE, i64 2), ptr @_ZTSN8facebook5velox12SimpleVectorIfEE, ptr @_ZTIN8facebook5velox10BaseVectorE }, comdat, align 8
@_ZTIN8facebook5velox10FlatVectorIfEE = linkonce_odr constant { ptr, ptr, ptr } { ptr getelementptr inbounds (ptr, ptr @_ZTVN10__cxxabiv120__si_class_type_infoE, i64 2), ptr @_ZTSN8facebook5velox10FlatVectorIfEE, ptr @_ZTIN8facebook5velox12SimpleVectorIfEE }, comdat, align 8
@_ZZN8facebook5velox4bits10forEachBitIZNS0_4exec7EvalCtx22applyToSelectedNoThrowIZNKS0_9functions12_GLOBAL__N_120ExtremeValueFunctionILb1EE10applyTypedIfEEvRKNS0_17SelectivityVectorERKSt6vectorISt10shared_ptrINS0_10BaseVectorEESaISH_EERKSF_IKNS0_4TypeEERS4_RSH_EUliE_EEvSD_T_EUlSU_E_EEvPKmiibSU_E7kAllSet = internal constant i64 -1, align 8
@_ZTSN8facebook5velox10FlatVectorIdEE = linkonce_odr constant [33 x i8] c"N8facebook5velox10FlatVectorIdEE\00", comdat, align 1
@_ZTSN8facebook5velox12SimpleVectorIdEE = linkonce_odr constant [35 x i8] c"N8facebook5velox12SimpleVectorIdEE\00", comdat, align 1
@_ZTIN8facebook5velox12SimpleVectorIdEE = linkonce_odr constant { ptr, ptr, ptr } { ptr getelementptr inbounds (ptr, ptr @_ZTVN10__cxxabiv120__si_class_type_infoE, i64 2), ptr @_ZTSN8facebook5velox12SimpleVectorIdEE, ptr @_ZTIN8facebook5velox10BaseVectorE }, comdat, align 8
@_ZTIN8facebook5velox10FlatVectorIdEE = linkonce_odr constant { ptr, ptr, ptr } { ptr getelementptr inbounds (ptr, ptr @_ZTVN10__cxxabiv120__si_class_type_infoE, i64 2), ptr @_ZTSN8facebook5velox10FlatVectorIdEE, ptr @_ZTIN8facebook5velox12SimpleVectorIdEE }, comdat, align 8
@_ZZN8facebook5velox4bits10forEachBitIZNS0_4exec7EvalCtx22applyToSelectedNoThrowIZNKS0_9functions12_GLOBAL__N_120ExtremeValueFunctionILb1EE10applyTypedIdEEvRKNS0_17SelectivityVectorERKSt6vectorISt10shared_ptrINS0_10BaseVectorEESaISH_EERKSF_IKNS0_4TypeEERS4_RSH_EUliE_EEvSD_T_EUlSU_E_EEvPKmiibSU_E7kAllSet = internal constant i64 -1, align 8
@_ZTSN8facebook5velox10FlatVectorINS0_10StringViewEEE = linkonce_odr constant [49 x i8] c"N8facebook5velox10FlatVectorINS0_10StringViewEEE\00", comdat, align 1
@_ZTSN8facebook5velox12SimpleVectorINS0_10StringViewEEE = linkonce_odr constant [51 x i8] c"N8facebook5velox12SimpleVectorINS0_10StringViewEEE\00", comdat, align 1
@_ZTIN8facebook5velox12SimpleVectorINS0_10StringViewEEE = linkonce_odr constant { ptr, ptr, ptr } { ptr getelementptr inbounds (ptr, ptr @_ZTVN10__cxxabiv120__si_class_type_infoE, i64 2), ptr @_ZTSN8facebook5velox12SimpleVectorINS0_10StringViewEEE, ptr @_ZTIN8facebook5velox10BaseVectorE }, comdat, align 8
@_ZTIN8facebook5velox10FlatVectorINS0_10StringViewEEE = linkonce_odr constant { ptr, ptr, ptr } { ptr getelementptr inbounds (ptr, ptr @_ZTVN10__cxxabiv120__si_class_type_infoE, i64 2), ptr @_ZTSN8facebook5velox10FlatVectorINS0_10StringViewEEE, ptr @_ZTIN8facebook5velox12SimpleVectorINS0_10StringViewEEE }, comdat, align 8
@_ZZN8facebook5velox4bits10forEachBitIZNS0_4exec7EvalCtx22applyToSelectedNoThrowIZNKS0_9functions12_GLOBAL__N_120ExtremeValueFunctionILb1EE10applyTypedINS0_10StringViewEEEvRKNS0_17SelectivityVectorERKSt6vectorISt10shared_ptrINS0_10BaseVectorEESaISI_EERKSG_IKNS0_4TypeEERS4_RSI_EUliE_EEvSE_T_EUlSV_E_EEvPKmiibSV_E7kAllSet = internal constant i64 -1, align 8
@_ZTSN8facebook5velox10FlatVectorINS0_9TimestampEEE = linkonce_odr constant [47 x i8] c"N8facebook5velox10FlatVectorINS0_9TimestampEEE\00", comdat, align 1
@_ZTSN8facebook5velox12SimpleVectorINS0_9TimestampEEE = linkonce_odr constant [49 x i8] c"N8facebook5velox12SimpleVectorINS0_9TimestampEEE\00", comdat, align 1
@_ZTIN8facebook5velox12SimpleVectorINS0_9TimestampEEE = linkonce_odr constant { ptr, ptr, ptr } { ptr getelementptr inbounds (ptr, ptr @_ZTVN10__cxxabiv120__si_class_type_infoE, i64 2), ptr @_ZTSN8facebook5velox12SimpleVectorINS0_9TimestampEEE, ptr @_ZTIN8facebook5velox10BaseVectorE }, comdat, align 8
@_ZTIN8facebook5velox10FlatVectorINS0_9TimestampEEE = linkonce_odr constant { ptr, ptr, ptr } { ptr getelementptr inbounds (ptr, ptr @_ZTVN10__cxxabiv120__si_class_type_infoE, i64 2), ptr @_ZTSN8facebook5velox10FlatVectorINS0_9TimestampEEE, ptr @_ZTIN8facebook5velox12SimpleVectorINS0_9TimestampEEE }, comdat, align 8
@_ZZN8facebook5velox4bits10forEachBitIZNS0_4exec7EvalCtx22applyToSelectedNoThrowIZNKS0_9functions12_GLOBAL__N_120ExtremeValueFunctionILb1EE10applyTypedINS0_9TimestampEEEvRKNS0_17SelectivityVectorERKSt6vectorISt10shared_ptrINS0_10BaseVectorEESaISI_EERKSG_IKNS0_4TypeEERS4_RSI_EUliE_EEvSE_T_EUlSV_E_EEvPKmiibSV_E7kAllSet = internal constant i64 -1, align 8
@_ZTVN8facebook5velox9functions12_GLOBAL__N_120ExtremeValueFunctionILb0EEE = internal unnamed_addr constant { [12 x ptr] } { [12 x ptr] [ptr null, ptr @_ZTIN8facebook5velox9functions12_GLOBAL__N_120ExtremeValueFunctionILb0EEE, ptr @_ZN8facebook5velox9functions12_GLOBAL__N_120ExtremeValueFunctionILb0EED2Ev, ptr @_ZN8facebook5velox9functions12_GLOBAL__N_120ExtremeValueFunctionILb0EED0Ev, ptr @_ZNK8facebook5velox9functions12_GLOBAL__N_120ExtremeValueFunctionILb0EE5applyERKNS0_17SelectivityVectorERSt6vectorISt10shared_ptrINS0_10BaseVectorEESaISB_EERKS9_IKNS0_4TypeEERNS0_4exec7EvalCtxERSB_, ptr @_ZNK8facebook5velox4exec14VectorFunction15isDeterministicEv, ptr @_ZNK8facebook5velox4exec14VectorFunction21isDefaultNullBehaviorEv, ptr @_ZNK8facebook5velox4exec14VectorFunction27supportsFlatNoNullsFastPathEv, ptr @_ZNK8facebook5velox4exec14VectorFunction25ensureStringEncodingSetAtEv, ptr @_ZNK8facebook5velox4exec14VectorFunction34ensureStringEncodingSetAtAllInputsEv, ptr @_ZNK8facebook5velox4exec14VectorFunction36propagateStringEncodingFromAllInputsEv, ptr @_ZNK8facebook5velox4exec14VectorFunction27propagateStringEncodingFromEv] }, align 8
@_ZTSN8facebook5velox9functions12_GLOBAL__N_120ExtremeValueFunctionILb0EEE = internal constant [70 x i8] c"N8facebook5velox9functions12_GLOBAL__N_120ExtremeValueFunctionILb0EEE\00", align 1
@_ZTIN8facebook5velox9functions12_GLOBAL__N_120ExtremeValueFunctionILb0EEE = internal constant { ptr, ptr, ptr } { ptr getelementptr inbounds (ptr, ptr @_ZTVN10__cxxabiv120__si_class_type_infoE, i64 2), ptr @_ZTSN8facebook5velox9functions12_GLOBAL__N_120ExtremeValueFunctionILb0EEE, ptr @_ZTIN8facebook5velox4exec14VectorFunctionE }, align 8
@_ZZN8facebook5velox4bits10forEachBitIZNS0_4exec7EvalCtx22applyToSelectedNoThrowIZNKS0_9functions12_GLOBAL__N_120ExtremeValueFunctionILb0EE10applyTypedIbEEvRKNS0_17SelectivityVectorERKSt6vectorISt10shared_ptrINS0_10BaseVectorEESaISH_EERKSF_IKNS0_4TypeEERS4_RSH_EUliE_EEvSD_T_EUlSU_E_EEvPKmiibSU_E7kAllSet = internal constant i64 -1, align 8
@_ZZN8facebook5velox4bits10forEachBitIZNS0_4exec7EvalCtx22applyToSelectedNoThrowIZNKS0_9functions12_GLOBAL__N_120ExtremeValueFunctionILb0EE10applyTypedIaEEvRKNS0_17SelectivityVectorERKSt6vectorISt10shared_ptrINS0_10BaseVectorEESaISH_EERKSF_IKNS0_4TypeEERS4_RSH_EUliE_EEvSD_T_EUlSU_E_EEvPKmiibSU_E7kAllSet = internal constant i64 -1, align 8
@_ZZN8facebook5velox4bits10forEachBitIZNS0_4exec7EvalCtx22applyToSelectedNoThrowIZNKS0_9functions12_GLOBAL__N_120ExtremeValueFunctionILb0EE10applyTypedIsEEvRKNS0_17SelectivityVectorERKSt6vectorISt10shared_ptrINS0_10BaseVectorEESaISH_EERKSF_IKNS0_4TypeEERS4_RSH_EUliE_EEvSD_T_EUlSU_E_EEvPKmiibSU_E7kAllSet = internal constant i64 -1, align 8
@_ZZN8facebook5velox4bits10forEachBitIZNS0_4exec7EvalCtx22applyToSelectedNoThrowIZNKS0_9functions12_GLOBAL__N_120ExtremeValueFunctionILb0EE10applyTypedIiEEvRKNS0_17SelectivityVectorERKSt6vectorISt10shared_ptrINS0_10BaseVectorEESaISH_EERKSF_IKNS0_4TypeEERS4_RSH_EUliE_EEvSD_T_EUlSU_E_EEvPKmiibSU_E7kAllSet = internal constant i64 -1, align 8
@_ZZN8facebook5velox4bits10forEachBitIZNS0_4exec7EvalCtx22applyToSelectedNoThrowIZNKS0_9functions12_GLOBAL__N_120ExtremeValueFunctionILb0EE10applyTypedIlEEvRKNS0_17SelectivityVectorERKSt6vectorISt10shared_ptrINS0_10BaseVectorEESaISH_EERKSF_IKNS0_4TypeEERS4_RSH_EUliE_EEvSD_T_EUlSU_E_EEvPKmiibSU_E7kAllSet = internal constant i64 -1, align 8
@_ZZN8facebook5velox4bits10forEachBitIZNS0_4exec7EvalCtx22applyToSelectedNoThrowIZNKS0_9functions12_GLOBAL__N_120ExtremeValueFunctionILb0EE10applyTypedInEEvRKNS0_17SelectivityVectorERKSt6vectorISt10shared_ptrINS0_10BaseVectorEESaISH_EERKSF_IKNS0_4TypeEERS4_RSH_EUliE_EEvSD_T_EUlSU_E_EEvPKmiibSU_E7kAllSet = internal constant i64 -1, align 8
@_ZZN8facebook5velox4bits10forEachBitIZNS0_4exec7EvalCtx22applyToSelectedNoThrowIZNKS0_9functions12_GLOBAL__N_120ExtremeValueFunctionILb0EE10applyTypedIfEEvRKNS0_17SelectivityVectorERKSt6vectorISt10shared_ptrINS0_10BaseVectorEESaISH_EERKSF_IKNS0_4TypeEERS4_RSH_EUliE_EEvSD_T_EUlSU_E_EEvPKmiibSU_E7kAllSet = internal constant i64 -1, align 8
@_ZZN8facebook5velox4bits10forEachBitIZNS0_4exec7EvalCtx22applyToSelectedNoThrowIZNKS0_9functions12_GLOBAL__N_120ExtremeValueFunctionILb0EE10applyTypedIdEEvRKNS0_17SelectivityVectorERKSt6vectorISt10shared_ptrINS0_10BaseVectorEESaISH_EERKSF_IKNS0_4TypeEERS4_RSH_EUliE_EEvSD_T_EUlSU_E_EEvPKmiibSU_E7kAllSet = internal constant i64 -1, align 8
@_ZZN8facebook5velox4bits10forEachBitIZNS0_4exec7EvalCtx22applyToSelectedNoThrowIZNKS0_9functions12_GLOBAL__N_120ExtremeValueFunctionILb0EE10applyTypedINS0_10StringViewEEEvRKNS0_17SelectivityVectorERKSt6vectorISt10shared_ptrINS0_10BaseVectorEESaISI_EERKSG_IKNS0_4TypeEERS4_RSI_EUliE_EEvSE_T_EUlSV_E_EEvPKmiibSV_E7kAllSet = internal constant i64 -1, align 8
@_ZZN8facebook5velox4bits10forEachBitIZNS0_4exec7EvalCtx22applyToSelectedNoThrowIZNKS0_9functions12_GLOBAL__N_120ExtremeValueFunctionILb0EE10applyTypedINS0_9TimestampEEEvRKNS0_17SelectivityVectorERKSt6vectorISt10shared_ptrINS0_10BaseVectorEESaISI_EERKSG_IKNS0_4TypeEERS4_RSI_EUliE_EEvSE_T_EUlSV_E_EEvPKmiibSV_E7kAllSet = internal constant i64 -1, align 8

; Function Attrs: mustprogress uwtable
define void @_ZN8facebook5velox9functions32registerVectorFunction_udf_leastERKNSt7__cxx1112basic_stringIcSt11char_traitsIcESaIcEEE(ptr noundef nonnull align 8 dereferenceable(32) %name) #0 personality ptr @__gxx_personality_v0 {
entry:
  %name.addr = alloca ptr, align 8
  %agg.tmp = alloca %"class.std::vector", align 8
  %agg.tmp1 = alloca %"class.std::unique_ptr", align 8
  %ref.tmp = alloca %"class.std::unique_ptr.5", align 8
  %exn.slot = alloca ptr, align 8
  %ehselector.slot = alloca i32, align 4
  %agg.tmp2 = alloca %"struct.facebook::velox::exec::VectorFunctionMetadata", align 1
  store ptr %name, ptr %name.addr, align 8
  %0 = load ptr, ptr %name.addr, align 8
  call void @_ZN8facebook5velox9functions12_GLOBAL__N_120ExtremeValueFunctionILb1EE10signaturesEv(ptr sret(%"class.std::vector") align 8 %agg.tmp)
  invoke void @_ZSt11make_uniqueIN8facebook5velox9functions12_GLOBAL__N_120ExtremeValueFunctionILb1EEEJEENSt8__detail9_MakeUniqIT_E15__single_objectEDpOT0_(ptr sret(%"class.std::unique_ptr.5") align 8 %ref.tmp)
          to label %invoke.cont unwind label %lpad

invoke.cont:                                      ; preds = %entry
  call void @_ZNSt10unique_ptrIN8facebook5velox4exec14VectorFunctionESt14default_deleteIS3_EEC2INS1_9functions12_GLOBAL__N_120ExtremeValueFunctionILb1EEES4_ISB_EvEEOS_IT_T0_E(ptr noundef nonnull align 8 dereferenceable(8) %agg.tmp1, ptr noundef nonnull align 8 dereferenceable(8) %ref.tmp) #16
  %supportsFlattening = getelementptr inbounds %"struct.facebook::velox::exec::VectorFunctionMetadata", ptr %agg.tmp2, i32 0, i32 0
  store i8 0, ptr %supportsFlattening, align 1
  %coerce.dive = getelementptr inbounds %"struct.facebook::velox::exec::VectorFunctionMetadata", ptr %agg.tmp2, i32 0, i32 0
  %1 = load i8, ptr %coerce.dive, align 1
  %call = invoke noundef zeroext i1 @_ZN8facebook5velox4exec22registerVectorFunctionERKNSt7__cxx1112basic_stringIcSt11char_traitsIcESaIcEEESt6vectorISt10shared_ptrINS1_17FunctionSignatureEESaISD_EESt10unique_ptrINS1_14VectorFunctionESt14default_deleteISH_EENS1_22VectorFunctionMetadataEb(ptr noundef nonnull align 8 dereferenceable(32) %0, ptr noundef %agg.tmp, ptr noundef %agg.tmp1, i8 %1, i1 noundef zeroext true)
          to label %invoke.cont4 unwind label %lpad3

invoke.cont4:                                     ; preds = %invoke.cont
  call void @_ZNSt10unique_ptrIN8facebook5velox4exec14VectorFunctionESt14default_deleteIS3_EED2Ev(ptr noundef nonnull align 8 dereferenceable(8) %agg.tmp1) #16
  call void @_ZNSt10unique_ptrIN8facebook5velox9functions12_GLOBAL__N_120ExtremeValueFunctionILb1EEESt14default_deleteIS5_EED2Ev(ptr noundef nonnull align 8 dereferenceable(8) %ref.tmp) #16
  call void @_ZNSt6vectorISt10shared_ptrIN8facebook5velox4exec17FunctionSignatureEESaIS5_EED2Ev(ptr noundef nonnull align 8 dereferenceable(24) %agg.tmp) #16
  ret void

lpad:                                             ; preds = %entry
  %2 = landingpad { ptr, i32 }
          cleanup
  %3 = extractvalue { ptr, i32 } %2, 0
  store ptr %3, ptr %exn.slot, align 8
  %4 = extractvalue { ptr, i32 } %2, 1
  store i32 %4, ptr %ehselector.slot, align 4
  br label %ehcleanup

lpad3:                                            ; preds = %invoke.cont
  %5 = landingpad { ptr, i32 }
          cleanup
  %6 = extractvalue { ptr, i32 } %5, 0
  store ptr %6, ptr %exn.slot, align 8
  %7 = extractvalue { ptr, i32 } %5, 1
  store i32 %7, ptr %ehselector.slot, align 4
  call void @_ZNSt10unique_ptrIN8facebook5velox4exec14VectorFunctionESt14default_deleteIS3_EED2Ev(ptr noundef nonnull align 8 dereferenceable(8) %agg.tmp1) #16
  call void @_ZNSt10unique_ptrIN8facebook5velox9functions12_GLOBAL__N_120ExtremeValueFunctionILb1EEESt14default_deleteIS5_EED2Ev(ptr noundef nonnull align 8 dereferenceable(8) %ref.tmp) #16
  br label %ehcleanup

ehcleanup:                                        ; preds = %lpad3, %lpad
  call void @_ZNSt6vectorISt10shared_ptrIN8facebook5velox4exec17FunctionSignatureEESaIS5_EED2Ev(ptr noundef nonnull align 8 dereferenceable(24) %agg.tmp) #16
  br label %eh.resume

eh.resume:                                        ; preds = %ehcleanup
  %exn = load ptr, ptr %exn.slot, align 8
  %sel = load i32, ptr %ehselector.slot, align 4
  %lpad.val = insertvalue { ptr, i32 } poison, ptr %exn, 0
  %lpad.val5 = insertvalue { ptr, i32 } %lpad.val, i32 %sel, 1
  resume { ptr, i32 } %lpad.val5
}

declare noundef zeroext i1 @_ZN8facebook5velox4exec22registerVectorFunctionERKNSt7__cxx1112basic_stringIcSt11char_traitsIcESaIcEEESt6vectorISt10shared_ptrINS1_17FunctionSignatureEESaISD_EESt10unique_ptrINS1_14VectorFunctionESt14default_deleteISH_EENS1_22VectorFunctionMetadataEb(ptr noundef nonnull align 8 dereferenceable(32), ptr noundef, ptr noundef, i8, i1 noundef zeroext) #1

; Function Attrs: mustprogress uwtable
define internal void @_ZN8facebook5velox9functions12_GLOBAL__N_120ExtremeValueFunctionILb1EE10signaturesEv(ptr noalias sret(%"class.std::vector") align 8 %agg.result) #0 align 2 personality ptr @__gxx_personality_v0 {
entry:
  %result.ptr = alloca ptr, align 8
  %types = alloca %"class.std::vector.21", align 8
  %agg.tmp = alloca %"class.std::initializer_list", align 8
  %ref.tmp = alloca [10 x %"class.std::__cxx11::basic_string"], align 8
  %arrayinit.endOfInit = alloca ptr, align 8
  %ref.tmp1 = alloca %"class.std::allocator.2", align 1
  %exn.slot = alloca ptr, align 8
  %ehselector.slot = alloca i32, align 4
  %ref.tmp2 = alloca %"class.std::allocator.2", align 1
  %ref.tmp6 = alloca %"class.std::allocator.2", align 1
  %ref.tmp10 = alloca %"class.std::allocator.2", align 1
  %ref.tmp14 = alloca %"class.std::allocator.2", align 1
  %ref.tmp18 = alloca %"class.std::allocator.2", align 1
  %ref.tmp22 = alloca %"class.std::allocator.2", align 1
  %ref.tmp26 = alloca %"class.std::allocator.2", align 1
  %ref.tmp30 = alloca %"class.std::allocator.2", align 1
  %ref.tmp34 = alloca %"class.std::allocator.2", align 1
  %cleanup.isactive = alloca i1, align 1
  %ref.tmp37 = alloca %"class.std::allocator.23", align 1
  %nrvo = alloca i1, align 1
  %__range4 = alloca ptr, align 8
  %__begin4 = alloca %"class.__gnu_cxx::__normal_iterator", align 8
  %__end4 = alloca %"class.__gnu_cxx::__normal_iterator", align 8
  %type = alloca ptr, align 8
  %ref.tmp66 = alloca %"class.std::shared_ptr", align 8
  %ref.tmp67 = alloca %"class.facebook::velox::exec::FunctionSignatureBuilder", align 8
  %ref.tmp82 = alloca %"class.std::shared_ptr", align 8
  %ref.tmp83 = alloca %"class.facebook::velox::exec::FunctionSignatureBuilder", align 8
  %ref.tmp84 = alloca %"class.std::__cxx11::basic_string", align 8
  %ref.tmp85 = alloca %"class.std::allocator.2", align 1
  %agg.tmp88 = alloca %"class.std::optional.37", align 8
  %ref.tmp93 = alloca %"class.std::__cxx11::basic_string", align 8
  %ref.tmp94 = alloca %"class.std::allocator.2", align 1
  %agg.tmp97 = alloca %"class.std::optional.37", align 8
  %ref.tmp102 = alloca %"class.std::__cxx11::basic_string", align 8
  %ref.tmp103 = alloca %"class.std::allocator.2", align 1
  %ref.tmp109 = alloca %"class.std::__cxx11::basic_string", align 8
  %ref.tmp110 = alloca %"class.std::allocator.2", align 1
  store ptr %agg.result, ptr %result.ptr, align 8
  %arrayinit.begin = getelementptr inbounds [10 x %"class.std::__cxx11::basic_string"], ptr %ref.tmp, i64 0, i64 0
  store i1 true, ptr %cleanup.isactive, align 1
  store ptr %arrayinit.begin, ptr %arrayinit.endOfInit, align 8
  call void @_ZNSaIcEC1Ev(ptr noundef nonnull align 1 dereferenceable(1) %ref.tmp1) #16
  invoke void @_ZNSt7__cxx1112basic_stringIcSt11char_traitsIcESaIcEEC2IS3_EEPKcRKS3_(ptr noundef nonnull align 8 dereferenceable(32) %arrayinit.begin, ptr noundef @.str, ptr noundef nonnull align 1 dereferenceable(1) %ref.tmp1)
          to label %invoke.cont unwind label %lpad

invoke.cont:                                      ; preds = %entry
  %arrayinit.element = getelementptr inbounds %"class.std::__cxx11::basic_string", ptr %arrayinit.begin, i64 1
  store ptr %arrayinit.element, ptr %arrayinit.endOfInit, align 8
  call void @_ZNSaIcEC1Ev(ptr noundef nonnull align 1 dereferenceable(1) %ref.tmp2) #16
  invoke void @_ZNSt7__cxx1112basic_stringIcSt11char_traitsIcESaIcEEC2IS3_EEPKcRKS3_(ptr noundef nonnull align 8 dereferenceable(32) %arrayinit.element, ptr noundef @.str.1, ptr noundef nonnull align 1 dereferenceable(1) %ref.tmp2)
          to label %invoke.cont4 unwind label %lpad3

invoke.cont4:                                     ; preds = %invoke.cont
  %arrayinit.element5 = getelementptr inbounds %"class.std::__cxx11::basic_string", ptr %arrayinit.element, i64 1
  store ptr %arrayinit.element5, ptr %arrayinit.endOfInit, align 8
  call void @_ZNSaIcEC1Ev(ptr noundef nonnull align 1 dereferenceable(1) %ref.tmp6) #16
  invoke void @_ZNSt7__cxx1112basic_stringIcSt11char_traitsIcESaIcEEC2IS3_EEPKcRKS3_(ptr noundef nonnull align 8 dereferenceable(32) %arrayinit.element5, ptr noundef @.str.2, ptr noundef nonnull align 1 dereferenceable(1) %ref.tmp6)
          to label %invoke.cont8 unwind label %lpad7

invoke.cont8:                                     ; preds = %invoke.cont4
  %arrayinit.element9 = getelementptr inbounds %"class.std::__cxx11::basic_string", ptr %arrayinit.element5, i64 1
  store ptr %arrayinit.element9, ptr %arrayinit.endOfInit, align 8
  call void @_ZNSaIcEC1Ev(ptr noundef nonnull align 1 dereferenceable(1) %ref.tmp10) #16
  invoke void @_ZNSt7__cxx1112basic_stringIcSt11char_traitsIcESaIcEEC2IS3_EEPKcRKS3_(ptr noundef nonnull align 8 dereferenceable(32) %arrayinit.element9, ptr noundef @.str.3, ptr noundef nonnull align 1 dereferenceable(1) %ref.tmp10)
          to label %invoke.cont12 unwind label %lpad11

invoke.cont12:                                    ; preds = %invoke.cont8
  %arrayinit.element13 = getelementptr inbounds %"class.std::__cxx11::basic_string", ptr %arrayinit.element9, i64 1
  store ptr %arrayinit.element13, ptr %arrayinit.endOfInit, align 8
  call void @_ZNSaIcEC1Ev(ptr noundef nonnull align 1 dereferenceable(1) %ref.tmp14) #16
  invoke void @_ZNSt7__cxx1112basic_stringIcSt11char_traitsIcESaIcEEC2IS3_EEPKcRKS3_(ptr noundef nonnull align 8 dereferenceable(32) %arrayinit.element13, ptr noundef @.str.4, ptr noundef nonnull align 1 dereferenceable(1) %ref.tmp14)
          to label %invoke.cont16 unwind label %lpad15

invoke.cont16:                                    ; preds = %invoke.cont12
  %arrayinit.element17 = getelementptr inbounds %"class.std::__cxx11::basic_string", ptr %arrayinit.element13, i64 1
  store ptr %arrayinit.element17, ptr %arrayinit.endOfInit, align 8
  call void @_ZNSaIcEC1Ev(ptr noundef nonnull align 1 dereferenceable(1) %ref.tmp18) #16
  invoke void @_ZNSt7__cxx1112basic_stringIcSt11char_traitsIcESaIcEEC2IS3_EEPKcRKS3_(ptr noundef nonnull align 8 dereferenceable(32) %arrayinit.element17, ptr noundef @.str.5, ptr noundef nonnull align 1 dereferenceable(1) %ref.tmp18)
          to label %invoke.cont20 unwind label %lpad19

invoke.cont20:                                    ; preds = %invoke.cont16
  %arrayinit.element21 = getelementptr inbounds %"class.std::__cxx11::basic_string", ptr %arrayinit.element17, i64 1
  store ptr %arrayinit.element21, ptr %arrayinit.endOfInit, align 8
  call void @_ZNSaIcEC1Ev(ptr noundef nonnull align 1 dereferenceable(1) %ref.tmp22) #16
  invoke void @_ZNSt7__cxx1112basic_stringIcSt11char_traitsIcESaIcEEC2IS3_EEPKcRKS3_(ptr noundef nonnull align 8 dereferenceable(32) %arrayinit.element21, ptr noundef @.str.6, ptr noundef nonnull align 1 dereferenceable(1) %ref.tmp22)
          to label %invoke.cont24 unwind label %lpad23

invoke.cont24:                                    ; preds = %invoke.cont20
  %arrayinit.element25 = getelementptr inbounds %"class.std::__cxx11::basic_string", ptr %arrayinit.element21, i64 1
  store ptr %arrayinit.element25, ptr %arrayinit.endOfInit, align 8
  call void @_ZNSaIcEC1Ev(ptr noundef nonnull align 1 dereferenceable(1) %ref.tmp26) #16
  invoke void @_ZNSt7__cxx1112basic_stringIcSt11char_traitsIcESaIcEEC2IS3_EEPKcRKS3_(ptr noundef nonnull align 8 dereferenceable(32) %arrayinit.element25, ptr noundef @.str.7, ptr noundef nonnull align 1 dereferenceable(1) %ref.tmp26)
          to label %invoke.cont28 unwind label %lpad27

invoke.cont28:                                    ; preds = %invoke.cont24
  %arrayinit.element29 = getelementptr inbounds %"class.std::__cxx11::basic_string", ptr %arrayinit.element25, i64 1
  store ptr %arrayinit.element29, ptr %arrayinit.endOfInit, align 8
  call void @_ZNSaIcEC1Ev(ptr noundef nonnull align 1 dereferenceable(1) %ref.tmp30) #16
  invoke void @_ZNSt7__cxx1112basic_stringIcSt11char_traitsIcESaIcEEC2IS3_EEPKcRKS3_(ptr noundef nonnull align 8 dereferenceable(32) %arrayinit.element29, ptr noundef @.str.8, ptr noundef nonnull align 1 dereferenceable(1) %ref.tmp30)
          to label %invoke.cont32 unwind label %lpad31

invoke.cont32:                                    ; preds = %invoke.cont28
  %arrayinit.element33 = getelementptr inbounds %"class.std::__cxx11::basic_string", ptr %arrayinit.element29, i64 1
  store ptr %arrayinit.element33, ptr %arrayinit.endOfInit, align 8
  call void @_ZNSaIcEC1Ev(ptr noundef nonnull align 1 dereferenceable(1) %ref.tmp34) #16
  invoke void @_ZNSt7__cxx1112basic_stringIcSt11char_traitsIcESaIcEEC2IS3_EEPKcRKS3_(ptr noundef nonnull align 8 dereferenceable(32) %arrayinit.element33, ptr noundef @.str.9, ptr noundef nonnull align 1 dereferenceable(1) %ref.tmp34)
          to label %invoke.cont36 unwind label %lpad35

invoke.cont36:                                    ; preds = %invoke.cont32
  store i1 false, ptr %cleanup.isactive, align 1
  %_M_array = getelementptr inbounds %"class.std::initializer_list", ptr %agg.tmp, i32 0, i32 0
  %arraystart = getelementptr inbounds [10 x %"class.std::__cxx11::basic_string"], ptr %ref.tmp, i64 0, i64 0
  store ptr %arraystart, ptr %_M_array, align 8
  %_M_len = getelementptr inbounds %"class.std::initializer_list", ptr %agg.tmp, i32 0, i32 1
  store i64 10, ptr %_M_len, align 8
  call void @_ZNSaINSt7__cxx1112basic_stringIcSt11char_traitsIcESaIcEEEEC2Ev(ptr noundef nonnull align 1 dereferenceable(1) %ref.tmp37) #16
  %0 = getelementptr inbounds { ptr, i64 }, ptr %agg.tmp, i32 0, i32 0
  %1 = load ptr, ptr %0, align 8
  %2 = getelementptr inbounds { ptr, i64 }, ptr %agg.tmp, i32 0, i32 1
  %3 = load i64, ptr %2, align 8
  invoke void @_ZNSt6vectorINSt7__cxx1112basic_stringIcSt11char_traitsIcESaIcEEESaIS5_EEC2ESt16initializer_listIS5_ERKS6_(ptr noundef nonnull align 8 dereferenceable(24) %types, ptr %1, i64 %3, ptr noundef nonnull align 1 dereferenceable(1) %ref.tmp37)
          to label %invoke.cont39 unwind label %lpad38

invoke.cont39:                                    ; preds = %invoke.cont36
  call void @_ZNSaINSt7__cxx1112basic_stringIcSt11char_traitsIcESaIcEEEED2Ev(ptr noundef nonnull align 1 dereferenceable(1) %ref.tmp37) #16
  %array.begin = getelementptr inbounds [10 x %"class.std::__cxx11::basic_string"], ptr %ref.tmp, i32 0, i32 0
  %4 = getelementptr inbounds %"class.std::__cxx11::basic_string", ptr %array.begin, i64 10
  br label %arraydestroy.body

arraydestroy.body:                                ; preds = %arraydestroy.body, %invoke.cont39
  %arraydestroy.elementPast = phi ptr [ %4, %invoke.cont39 ], [ %arraydestroy.element, %arraydestroy.body ]
  %arraydestroy.element = getelementptr inbounds %"class.std::__cxx11::basic_string", ptr %arraydestroy.elementPast, i64 -1
  call void @_ZNSt7__cxx1112basic_stringIcSt11char_traitsIcESaIcEED1Ev(ptr noundef nonnull align 8 dereferenceable(32) %arraydestroy.element) #16
  %arraydestroy.done = icmp eq ptr %arraydestroy.element, %array.begin
  br i1 %arraydestroy.done, label %arraydestroy.done40, label %arraydestroy.body

arraydestroy.done40:                              ; preds = %arraydestroy.body
  call void @_ZNSaIcED1Ev(ptr noundef nonnull align 1 dereferenceable(1) %ref.tmp34) #16
  call void @_ZNSaIcED1Ev(ptr noundef nonnull align 1 dereferenceable(1) %ref.tmp30) #16
  call void @_ZNSaIcED1Ev(ptr noundef nonnull align 1 dereferenceable(1) %ref.tmp26) #16
  call void @_ZNSaIcED1Ev(ptr noundef nonnull align 1 dereferenceable(1) %ref.tmp22) #16
  call void @_ZNSaIcED1Ev(ptr noundef nonnull align 1 dereferenceable(1) %ref.tmp18) #16
  call void @_ZNSaIcED1Ev(ptr noundef nonnull align 1 dereferenceable(1) %ref.tmp14) #16
  call void @_ZNSaIcED1Ev(ptr noundef nonnull align 1 dereferenceable(1) %ref.tmp10) #16
  call void @_ZNSaIcED1Ev(ptr noundef nonnull align 1 dereferenceable(1) %ref.tmp6) #16
  call void @_ZNSaIcED1Ev(ptr noundef nonnull align 1 dereferenceable(1) %ref.tmp2) #16
  call void @_ZNSaIcED1Ev(ptr noundef nonnull align 1 dereferenceable(1) %ref.tmp1) #16
  store i1 false, ptr %nrvo, align 1
  call void @_ZNSt6vectorISt10shared_ptrIN8facebook5velox4exec17FunctionSignatureEESaIS5_EEC2Ev(ptr noundef nonnull align 8 dereferenceable(24) %agg.result) #16
  store ptr %types, ptr %__range4, align 8
  %5 = load ptr, ptr %__range4, align 8
  %call = call ptr @_ZNKSt6vectorINSt7__cxx1112basic_stringIcSt11char_traitsIcESaIcEEESaIS5_EE5beginEv(ptr noundef nonnull align 8 dereferenceable(24) %5) #16
  %coerce.dive = getelementptr inbounds %"class.__gnu_cxx::__normal_iterator", ptr %__begin4, i32 0, i32 0
  store ptr %call, ptr %coerce.dive, align 8
  %6 = load ptr, ptr %__range4, align 8
  %call62 = call ptr @_ZNKSt6vectorINSt7__cxx1112basic_stringIcSt11char_traitsIcESaIcEEESaIS5_EE3endEv(ptr noundef nonnull align 8 dereferenceable(24) %6) #16
  %coerce.dive63 = getelementptr inbounds %"class.__gnu_cxx::__normal_iterator", ptr %__end4, i32 0, i32 0
  store ptr %call62, ptr %coerce.dive63, align 8
  br label %for.cond

for.cond:                                         ; preds = %for.inc, %arraydestroy.done40
  %call64 = call noundef zeroext i1 @_ZN9__gnu_cxxneIPKNSt7__cxx1112basic_stringIcSt11char_traitsIcESaIcEEESt6vectorIS6_SaIS6_EEEEbRKNS_17__normal_iteratorIT_T0_EESH_(ptr noundef nonnull align 8 dereferenceable(8) %__begin4, ptr noundef nonnull align 8 dereferenceable(8) %__end4) #16
  br i1 %call64, label %for.body, label %for.end

for.body:                                         ; preds = %for.cond
  %call65 = call noundef nonnull align 8 dereferenceable(32) ptr @_ZNK9__gnu_cxx17__normal_iteratorIPKNSt7__cxx1112basic_stringIcSt11char_traitsIcESaIcEEESt6vectorIS6_SaIS6_EEEdeEv(ptr noundef nonnull align 8 dereferenceable(8) %__begin4) #16
  store ptr %call65, ptr %type, align 8
  call void @llvm.memset.p0.i64(ptr align 8 %ref.tmp67, i8 0, i64 232, i1 false)
  call void @_ZN8facebook5velox4exec24FunctionSignatureBuilderC2Ev(ptr noundef nonnull align 8 dereferenceable(225) %ref.tmp67) #16
  %7 = load ptr, ptr %type, align 8
  %call70 = invoke noundef nonnull align 8 dereferenceable(225) ptr @_ZN8facebook5velox4exec24FunctionSignatureBuilder10returnTypeERKNSt7__cxx1112basic_stringIcSt11char_traitsIcESaIcEEE(ptr noundef nonnull align 8 dereferenceable(225) %ref.tmp67, ptr noundef nonnull align 8 dereferenceable(32) %7)
          to label %invoke.cont69 unwind label %lpad68

invoke.cont69:                                    ; preds = %for.body
  %8 = load ptr, ptr %type, align 8
  %call72 = invoke noundef nonnull align 8 dereferenceable(225) ptr @_ZN8facebook5velox4exec24FunctionSignatureBuilder12argumentTypeERKNSt7__cxx1112basic_stringIcSt11char_traitsIcESaIcEEE(ptr noundef nonnull align 8 dereferenceable(225) %call70, ptr noundef nonnull align 8 dereferenceable(32) %8)
          to label %invoke.cont71 unwind label %lpad68

invoke.cont71:                                    ; preds = %invoke.cont69
  %call74 = invoke noundef nonnull align 8 dereferenceable(225) ptr @_ZN8facebook5velox4exec24FunctionSignatureBuilder13variableArityEv(ptr noundef nonnull align 8 dereferenceable(225) %call72)
          to label %invoke.cont73 unwind label %lpad68

invoke.cont73:                                    ; preds = %invoke.cont71
  invoke void @_ZN8facebook5velox4exec24FunctionSignatureBuilder5buildEv(ptr sret(%"class.std::shared_ptr") align 8 %ref.tmp66, ptr noundef nonnull align 8 dereferenceable(225) %call74)
          to label %invoke.cont75 unwind label %lpad68

invoke.cont75:                                    ; preds = %invoke.cont73
  %call78 = invoke noundef nonnull align 8 dereferenceable(16) ptr @_ZNSt6vectorISt10shared_ptrIN8facebook5velox4exec17FunctionSignatureEESaIS5_EE12emplace_backIJS5_EEERS5_DpOT_(ptr noundef nonnull align 8 dereferenceable(24) %agg.result, ptr noundef nonnull align 8 dereferenceable(16) %ref.tmp66)
          to label %invoke.cont77 unwind label %lpad76

invoke.cont77:                                    ; preds = %invoke.cont75
  call void @_ZNSt10shared_ptrIN8facebook5velox4exec17FunctionSignatureEED2Ev(ptr noundef nonnull align 8 dereferenceable(16) %ref.tmp66) #16
  call void @_ZN8facebook5velox4exec24FunctionSignatureBuilderD2Ev(ptr noundef nonnull align 8 dereferenceable(225) %ref.tmp67) #16
  br label %for.inc

for.inc:                                          ; preds = %invoke.cont77
  %call81 = call noundef nonnull align 8 dereferenceable(8) ptr @_ZN9__gnu_cxx17__normal_iteratorIPKNSt7__cxx1112basic_stringIcSt11char_traitsIcESaIcEEESt6vectorIS6_SaIS6_EEEppEv(ptr noundef nonnull align 8 dereferenceable(8) %__begin4) #16
  br label %for.cond

lpad:                                             ; preds = %entry
  %9 = landingpad { ptr, i32 }
          cleanup
  %10 = extractvalue { ptr, i32 } %9, 0
  store ptr %10, ptr %exn.slot, align 8
  %11 = extractvalue { ptr, i32 } %9, 1
  store i32 %11, ptr %ehselector.slot, align 4
  br label %ehcleanup55

lpad3:                                            ; preds = %invoke.cont
  %12 = landingpad { ptr, i32 }
          cleanup
  %13 = extractvalue { ptr, i32 } %12, 0
  store ptr %13, ptr %exn.slot, align 8
  %14 = extractvalue { ptr, i32 } %12, 1
  store i32 %14, ptr %ehselector.slot, align 4
  br label %ehcleanup54

lpad7:                                            ; preds = %invoke.cont4
  %15 = landingpad { ptr, i32 }
          cleanup
  %16 = extractvalue { ptr, i32 } %15, 0
  store ptr %16, ptr %exn.slot, align 8
  %17 = extractvalue { ptr, i32 } %15, 1
  store i32 %17, ptr %ehselector.slot, align 4
  br label %ehcleanup53

lpad11:                                           ; preds = %invoke.cont8
  %18 = landingpad { ptr, i32 }
          cleanup
  %19 = extractvalue { ptr, i32 } %18, 0
  store ptr %19, ptr %exn.slot, align 8
  %20 = extractvalue { ptr, i32 } %18, 1
  store i32 %20, ptr %ehselector.slot, align 4
  br label %ehcleanup52

lpad15:                                           ; preds = %invoke.cont12
  %21 = landingpad { ptr, i32 }
          cleanup
  %22 = extractvalue { ptr, i32 } %21, 0
  store ptr %22, ptr %exn.slot, align 8
  %23 = extractvalue { ptr, i32 } %21, 1
  store i32 %23, ptr %ehselector.slot, align 4
  br label %ehcleanup51

lpad19:                                           ; preds = %invoke.cont16
  %24 = landingpad { ptr, i32 }
          cleanup
  %25 = extractvalue { ptr, i32 } %24, 0
  store ptr %25, ptr %exn.slot, align 8
  %26 = extractvalue { ptr, i32 } %24, 1
  store i32 %26, ptr %ehselector.slot, align 4
  br label %ehcleanup50

lpad23:                                           ; preds = %invoke.cont20
  %27 = landingpad { ptr, i32 }
          cleanup
  %28 = extractvalue { ptr, i32 } %27, 0
  store ptr %28, ptr %exn.slot, align 8
  %29 = extractvalue { ptr, i32 } %27, 1
  store i32 %29, ptr %ehselector.slot, align 4
  br label %ehcleanup49

lpad27:                                           ; preds = %invoke.cont24
  %30 = landingpad { ptr, i32 }
          cleanup
  %31 = extractvalue { ptr, i32 } %30, 0
  store ptr %31, ptr %exn.slot, align 8
  %32 = extractvalue { ptr, i32 } %30, 1
  store i32 %32, ptr %ehselector.slot, align 4
  br label %ehcleanup48

lpad31:                                           ; preds = %invoke.cont28
  %33 = landingpad { ptr, i32 }
          cleanup
  %34 = extractvalue { ptr, i32 } %33, 0
  store ptr %34, ptr %exn.slot, align 8
  %35 = extractvalue { ptr, i32 } %33, 1
  store i32 %35, ptr %ehselector.slot, align 4
  br label %ehcleanup47

lpad35:                                           ; preds = %invoke.cont32
  %36 = landingpad { ptr, i32 }
          cleanup
  %37 = extractvalue { ptr, i32 } %36, 0
  store ptr %37, ptr %exn.slot, align 8
  %38 = extractvalue { ptr, i32 } %36, 1
  store i32 %38, ptr %ehselector.slot, align 4
  br label %ehcleanup

lpad38:                                           ; preds = %invoke.cont36
  %39 = landingpad { ptr, i32 }
          cleanup
  %40 = extractvalue { ptr, i32 } %39, 0
  store ptr %40, ptr %exn.slot, align 8
  %41 = extractvalue { ptr, i32 } %39, 1
  store i32 %41, ptr %ehselector.slot, align 4
  call void @_ZNSaINSt7__cxx1112basic_stringIcSt11char_traitsIcESaIcEEEED2Ev(ptr noundef nonnull align 1 dereferenceable(1) %ref.tmp37) #16
  %array.begin41 = getelementptr inbounds [10 x %"class.std::__cxx11::basic_string"], ptr %ref.tmp, i32 0, i32 0
  %42 = getelementptr inbounds %"class.std::__cxx11::basic_string", ptr %array.begin41, i64 10
  br label %arraydestroy.body42

arraydestroy.body42:                              ; preds = %arraydestroy.body42, %lpad38
  %arraydestroy.elementPast43 = phi ptr [ %42, %lpad38 ], [ %arraydestroy.element44, %arraydestroy.body42 ]
  %arraydestroy.element44 = getelementptr inbounds %"class.std::__cxx11::basic_string", ptr %arraydestroy.elementPast43, i64 -1
  call void @_ZNSt7__cxx1112basic_stringIcSt11char_traitsIcESaIcEED1Ev(ptr noundef nonnull align 8 dereferenceable(32) %arraydestroy.element44) #16
  %arraydestroy.done45 = icmp eq ptr %arraydestroy.element44, %array.begin41
  br i1 %arraydestroy.done45, label %arraydestroy.done46, label %arraydestroy.body42

arraydestroy.done46:                              ; preds = %arraydestroy.body42
  br label %ehcleanup

ehcleanup:                                        ; preds = %arraydestroy.done46, %lpad35
  call void @_ZNSaIcED1Ev(ptr noundef nonnull align 1 dereferenceable(1) %ref.tmp34) #16
  br label %ehcleanup47

ehcleanup47:                                      ; preds = %ehcleanup, %lpad31
  call void @_ZNSaIcED1Ev(ptr noundef nonnull align 1 dereferenceable(1) %ref.tmp30) #16
  br label %ehcleanup48

ehcleanup48:                                      ; preds = %ehcleanup47, %lpad27
  call void @_ZNSaIcED1Ev(ptr noundef nonnull align 1 dereferenceable(1) %ref.tmp26) #16
  br label %ehcleanup49

ehcleanup49:                                      ; preds = %ehcleanup48, %lpad23
  call void @_ZNSaIcED1Ev(ptr noundef nonnull align 1 dereferenceable(1) %ref.tmp22) #16
  br label %ehcleanup50

ehcleanup50:                                      ; preds = %ehcleanup49, %lpad19
  call void @_ZNSaIcED1Ev(ptr noundef nonnull align 1 dereferenceable(1) %ref.tmp18) #16
  br label %ehcleanup51

ehcleanup51:                                      ; preds = %ehcleanup50, %lpad15
  call void @_ZNSaIcED1Ev(ptr noundef nonnull align 1 dereferenceable(1) %ref.tmp14) #16
  br label %ehcleanup52

ehcleanup52:                                      ; preds = %ehcleanup51, %lpad11
  call void @_ZNSaIcED1Ev(ptr noundef nonnull align 1 dereferenceable(1) %ref.tmp10) #16
  br label %ehcleanup53

ehcleanup53:                                      ; preds = %ehcleanup52, %lpad7
  call void @_ZNSaIcED1Ev(ptr noundef nonnull align 1 dereferenceable(1) %ref.tmp6) #16
  br label %ehcleanup54

ehcleanup54:                                      ; preds = %ehcleanup53, %lpad3
  call void @_ZNSaIcED1Ev(ptr noundef nonnull align 1 dereferenceable(1) %ref.tmp2) #16
  br label %ehcleanup55

ehcleanup55:                                      ; preds = %ehcleanup54, %lpad
  call void @_ZNSaIcED1Ev(ptr noundef nonnull align 1 dereferenceable(1) %ref.tmp1) #16
  %cleanup.is_active = load i1, ptr %cleanup.isactive, align 1
  br i1 %cleanup.is_active, label %cleanup.action, label %cleanup.done

cleanup.action:                                   ; preds = %ehcleanup55
  %43 = load ptr, ptr %arrayinit.endOfInit, align 8
  %arraydestroy.isempty = icmp eq ptr %arrayinit.begin, %43
  br i1 %arraydestroy.isempty, label %arraydestroy.done61, label %arraydestroy.body57

arraydestroy.body57:                              ; preds = %arraydestroy.body57, %cleanup.action
  %arraydestroy.elementPast58 = phi ptr [ %43, %cleanup.action ], [ %arraydestroy.element59, %arraydestroy.body57 ]
  %arraydestroy.element59 = getelementptr inbounds %"class.std::__cxx11::basic_string", ptr %arraydestroy.elementPast58, i64 -1
  call void @_ZNSt7__cxx1112basic_stringIcSt11char_traitsIcESaIcEED1Ev(ptr noundef nonnull align 8 dereferenceable(32) %arraydestroy.element59) #16
  %arraydestroy.done60 = icmp eq ptr %arraydestroy.element59, %arrayinit.begin
  br i1 %arraydestroy.done60, label %arraydestroy.done61, label %arraydestroy.body57

arraydestroy.done61:                              ; preds = %arraydestroy.body57, %cleanup.action
  br label %cleanup.done

cleanup.done:                                     ; preds = %arraydestroy.done61, %ehcleanup55
  br label %eh.resume

lpad68:                                           ; preds = %invoke.cont73, %invoke.cont71, %invoke.cont69, %for.body
  %44 = landingpad { ptr, i32 }
          cleanup
  %45 = extractvalue { ptr, i32 } %44, 0
  store ptr %45, ptr %exn.slot, align 8
  %46 = extractvalue { ptr, i32 } %44, 1
  store i32 %46, ptr %ehselector.slot, align 4
  br label %ehcleanup80

lpad76:                                           ; preds = %invoke.cont75
  %47 = landingpad { ptr, i32 }
          cleanup
  %48 = extractvalue { ptr, i32 } %47, 0
  store ptr %48, ptr %exn.slot, align 8
  %49 = extractvalue { ptr, i32 } %47, 1
  store i32 %49, ptr %ehselector.slot, align 4
  call void @_ZNSt10shared_ptrIN8facebook5velox4exec17FunctionSignatureEED2Ev(ptr noundef nonnull align 8 dereferenceable(16) %ref.tmp66) #16
  br label %ehcleanup80

ehcleanup80:                                      ; preds = %lpad76, %lpad68
  call void @_ZN8facebook5velox4exec24FunctionSignatureBuilderD2Ev(ptr noundef nonnull align 8 dereferenceable(225) %ref.tmp67) #16
  br label %ehcleanup134

for.end:                                          ; preds = %for.cond
  call void @llvm.memset.p0.i64(ptr align 8 %ref.tmp83, i8 0, i64 232, i1 false)
  call void @_ZN8facebook5velox4exec24FunctionSignatureBuilderC2Ev(ptr noundef nonnull align 8 dereferenceable(225) %ref.tmp83) #16
  call void @_ZNSaIcEC1Ev(ptr noundef nonnull align 1 dereferenceable(1) %ref.tmp85) #16
  invoke void @_ZNSt7__cxx1112basic_stringIcSt11char_traitsIcESaIcEEC2IS3_EEPKcRKS3_(ptr noundef nonnull align 8 dereferenceable(32) %ref.tmp84, ptr noundef @.str.10, ptr noundef nonnull align 1 dereferenceable(1) %ref.tmp85)
          to label %invoke.cont87 unwind label %lpad86

invoke.cont87:                                    ; preds = %for.end
  call void @_ZNSt8optionalINSt7__cxx1112basic_stringIcSt11char_traitsIcESaIcEEEEC2ESt9nullopt_t(ptr noundef nonnull align 8 dereferenceable(40) %agg.tmp88) #16
  %call92 = invoke noundef nonnull align 8 dereferenceable(225) ptr @_ZN8facebook5velox4exec24FunctionSignatureBuilder15integerVariableERKNSt7__cxx1112basic_stringIcSt11char_traitsIcESaIcEEESt8optionalIS8_E(ptr noundef nonnull align 8 dereferenceable(225) %ref.tmp83, ptr noundef nonnull align 8 dereferenceable(32) %ref.tmp84, ptr noundef %agg.tmp88)
          to label %invoke.cont91 unwind label %lpad90

invoke.cont91:                                    ; preds = %invoke.cont87
  call void @_ZNSaIcEC1Ev(ptr noundef nonnull align 1 dereferenceable(1) %ref.tmp94) #16
  invoke void @_ZNSt7__cxx1112basic_stringIcSt11char_traitsIcESaIcEEC2IS3_EEPKcRKS3_(ptr noundef nonnull align 8 dereferenceable(32) %ref.tmp93, ptr noundef @.str.11, ptr noundef nonnull align 1 dereferenceable(1) %ref.tmp94)
          to label %invoke.cont96 unwind label %lpad95

invoke.cont96:                                    ; preds = %invoke.cont91
  call void @_ZNSt8optionalINSt7__cxx1112basic_stringIcSt11char_traitsIcESaIcEEEEC2ESt9nullopt_t(ptr noundef nonnull align 8 dereferenceable(40) %agg.tmp97) #16
  %call101 = invoke noundef nonnull align 8 dereferenceable(225) ptr @_ZN8facebook5velox4exec24FunctionSignatureBuilder15integerVariableERKNSt7__cxx1112basic_stringIcSt11char_traitsIcESaIcEEESt8optionalIS8_E(ptr noundef nonnull align 8 dereferenceable(225) %call92, ptr noundef nonnull align 8 dereferenceable(32) %ref.tmp93, ptr noundef %agg.tmp97)
          to label %invoke.cont100 unwind label %lpad99

invoke.cont100:                                   ; preds = %invoke.cont96
  call void @_ZNSaIcEC1Ev(ptr noundef nonnull align 1 dereferenceable(1) %ref.tmp103) #16
  invoke void @_ZNSt7__cxx1112basic_stringIcSt11char_traitsIcESaIcEEC2IS3_EEPKcRKS3_(ptr noundef nonnull align 8 dereferenceable(32) %ref.tmp102, ptr noundef @.str.12, ptr noundef nonnull align 1 dereferenceable(1) %ref.tmp103)
          to label %invoke.cont105 unwind label %lpad104

invoke.cont105:                                   ; preds = %invoke.cont100
  %call108 = invoke noundef nonnull align 8 dereferenceable(225) ptr @_ZN8facebook5velox4exec24FunctionSignatureBuilder10returnTypeERKNSt7__cxx1112basic_stringIcSt11char_traitsIcESaIcEEE(ptr noundef nonnull align 8 dereferenceable(225) %call101, ptr noundef nonnull align 8 dereferenceable(32) %ref.tmp102)
          to label %invoke.cont107 unwind label %lpad106

invoke.cont107:                                   ; preds = %invoke.cont105
  call void @_ZNSaIcEC1Ev(ptr noundef nonnull align 1 dereferenceable(1) %ref.tmp110) #16
  invoke void @_ZNSt7__cxx1112basic_stringIcSt11char_traitsIcESaIcEEC2IS3_EEPKcRKS3_(ptr noundef nonnull align 8 dereferenceable(32) %ref.tmp109, ptr noundef @.str.12, ptr noundef nonnull align 1 dereferenceable(1) %ref.tmp110)
          to label %invoke.cont112 unwind label %lpad111

invoke.cont112:                                   ; preds = %invoke.cont107
  %call115 = invoke noundef nonnull align 8 dereferenceable(225) ptr @_ZN8facebook5velox4exec24FunctionSignatureBuilder12argumentTypeERKNSt7__cxx1112basic_stringIcSt11char_traitsIcESaIcEEE(ptr noundef nonnull align 8 dereferenceable(225) %call108, ptr noundef nonnull align 8 dereferenceable(32) %ref.tmp109)
          to label %invoke.cont114 unwind label %lpad113

invoke.cont114:                                   ; preds = %invoke.cont112
  %call117 = invoke noundef nonnull align 8 dereferenceable(225) ptr @_ZN8facebook5velox4exec24FunctionSignatureBuilder13variableArityEv(ptr noundef nonnull align 8 dereferenceable(225) %call115)
          to label %invoke.cont116 unwind label %lpad113

invoke.cont116:                                   ; preds = %invoke.cont114
  invoke void @_ZN8facebook5velox4exec24FunctionSignatureBuilder5buildEv(ptr sret(%"class.std::shared_ptr") align 8 %ref.tmp82, ptr noundef nonnull align 8 dereferenceable(225) %call117)
          to label %invoke.cont118 unwind label %lpad113

invoke.cont118:                                   ; preds = %invoke.cont116
  %call121 = invoke noundef nonnull align 8 dereferenceable(16) ptr @_ZNSt6vectorISt10shared_ptrIN8facebook5velox4exec17FunctionSignatureEESaIS5_EE12emplace_backIJS5_EEERS5_DpOT_(ptr noundef nonnull align 8 dereferenceable(24) %agg.result, ptr noundef nonnull align 8 dereferenceable(16) %ref.tmp82)
          to label %invoke.cont120 unwind label %lpad119

invoke.cont120:                                   ; preds = %invoke.cont118
  call void @_ZNSt10shared_ptrIN8facebook5velox4exec17FunctionSignatureEED2Ev(ptr noundef nonnull align 8 dereferenceable(16) %ref.tmp82) #16
  call void @_ZNSt7__cxx1112basic_stringIcSt11char_traitsIcESaIcEED1Ev(ptr noundef nonnull align 8 dereferenceable(32) %ref.tmp109) #16
  call void @_ZNSaIcED1Ev(ptr noundef nonnull align 1 dereferenceable(1) %ref.tmp110) #16
  call void @_ZNSt7__cxx1112basic_stringIcSt11char_traitsIcESaIcEED1Ev(ptr noundef nonnull align 8 dereferenceable(32) %ref.tmp102) #16
  call void @_ZNSaIcED1Ev(ptr noundef nonnull align 1 dereferenceable(1) %ref.tmp103) #16
  call void @_ZNSt8optionalINSt7__cxx1112basic_stringIcSt11char_traitsIcESaIcEEEED2Ev(ptr noundef nonnull align 8 dereferenceable(40) %agg.tmp97) #16
  call void @_ZNSt7__cxx1112basic_stringIcSt11char_traitsIcESaIcEED1Ev(ptr noundef nonnull align 8 dereferenceable(32) %ref.tmp93) #16
  call void @_ZNSaIcED1Ev(ptr noundef nonnull align 1 dereferenceable(1) %ref.tmp94) #16
  call void @_ZNSt8optionalINSt7__cxx1112basic_stringIcSt11char_traitsIcESaIcEEEED2Ev(ptr noundef nonnull align 8 dereferenceable(40) %agg.tmp88) #16
  call void @_ZNSt7__cxx1112basic_stringIcSt11char_traitsIcESaIcEED1Ev(ptr noundef nonnull align 8 dereferenceable(32) %ref.tmp84) #16
  call void @_ZNSaIcED1Ev(ptr noundef nonnull align 1 dereferenceable(1) %ref.tmp85) #16
  call void @_ZN8facebook5velox4exec24FunctionSignatureBuilderD2Ev(ptr noundef nonnull align 8 dereferenceable(225) %ref.tmp83) #16
  store i1 true, ptr %nrvo, align 1
  %nrvo.val = load i1, ptr %nrvo, align 1
  br i1 %nrvo.val, label %nrvo.skipdtor, label %nrvo.unused

lpad86:                                           ; preds = %for.end
  %50 = landingpad { ptr, i32 }
          cleanup
  %51 = extractvalue { ptr, i32 } %50, 0
  store ptr %51, ptr %exn.slot, align 8
  %52 = extractvalue { ptr, i32 } %50, 1
  store i32 %52, ptr %ehselector.slot, align 4
  br label %ehcleanup132

lpad90:                                           ; preds = %invoke.cont87
  %53 = landingpad { ptr, i32 }
          cleanup
  %54 = extractvalue { ptr, i32 } %53, 0
  store ptr %54, ptr %exn.slot, align 8
  %55 = extractvalue { ptr, i32 } %53, 1
  store i32 %55, ptr %ehselector.slot, align 4
  br label %ehcleanup130

lpad95:                                           ; preds = %invoke.cont91
  %56 = landingpad { ptr, i32 }
          cleanup
  %57 = extractvalue { ptr, i32 } %56, 0
  store ptr %57, ptr %exn.slot, align 8
  %58 = extractvalue { ptr, i32 } %56, 1
  store i32 %58, ptr %ehselector.slot, align 4
  br label %ehcleanup129

lpad99:                                           ; preds = %invoke.cont96
  %59 = landingpad { ptr, i32 }
          cleanup
  %60 = extractvalue { ptr, i32 } %59, 0
  store ptr %60, ptr %exn.slot, align 8
  %61 = extractvalue { ptr, i32 } %59, 1
  store i32 %61, ptr %ehselector.slot, align 4
  br label %ehcleanup127

lpad104:                                          ; preds = %invoke.cont100
  %62 = landingpad { ptr, i32 }
          cleanup
  %63 = extractvalue { ptr, i32 } %62, 0
  store ptr %63, ptr %exn.slot, align 8
  %64 = extractvalue { ptr, i32 } %62, 1
  store i32 %64, ptr %ehselector.slot, align 4
  br label %ehcleanup126

lpad106:                                          ; preds = %invoke.cont105
  %65 = landingpad { ptr, i32 }
          cleanup
  %66 = extractvalue { ptr, i32 } %65, 0
  store ptr %66, ptr %exn.slot, align 8
  %67 = extractvalue { ptr, i32 } %65, 1
  store i32 %67, ptr %ehselector.slot, align 4
  br label %ehcleanup125

lpad111:                                          ; preds = %invoke.cont107
  %68 = landingpad { ptr, i32 }
          cleanup
  %69 = extractvalue { ptr, i32 } %68, 0
  store ptr %69, ptr %exn.slot, align 8
  %70 = extractvalue { ptr, i32 } %68, 1
  store i32 %70, ptr %ehselector.slot, align 4
  br label %ehcleanup124

lpad113:                                          ; preds = %invoke.cont116, %invoke.cont114, %invoke.cont112
  %71 = landingpad { ptr, i32 }
          cleanup
  %72 = extractvalue { ptr, i32 } %71, 0
  store ptr %72, ptr %exn.slot, align 8
  %73 = extractvalue { ptr, i32 } %71, 1
  store i32 %73, ptr %ehselector.slot, align 4
  br label %ehcleanup123

lpad119:                                          ; preds = %invoke.cont118
  %74 = landingpad { ptr, i32 }
          cleanup
  %75 = extractvalue { ptr, i32 } %74, 0
  store ptr %75, ptr %exn.slot, align 8
  %76 = extractvalue { ptr, i32 } %74, 1
  store i32 %76, ptr %ehselector.slot, align 4
  call void @_ZNSt10shared_ptrIN8facebook5velox4exec17FunctionSignatureEED2Ev(ptr noundef nonnull align 8 dereferenceable(16) %ref.tmp82) #16
  br label %ehcleanup123

ehcleanup123:                                     ; preds = %lpad119, %lpad113
  call void @_ZNSt7__cxx1112basic_stringIcSt11char_traitsIcESaIcEED1Ev(ptr noundef nonnull align 8 dereferenceable(32) %ref.tmp109) #16
  br label %ehcleanup124

ehcleanup124:                                     ; preds = %ehcleanup123, %lpad111
  call void @_ZNSaIcED1Ev(ptr noundef nonnull align 1 dereferenceable(1) %ref.tmp110) #16
  br label %ehcleanup125

ehcleanup125:                                     ; preds = %ehcleanup124, %lpad106
  call void @_ZNSt7__cxx1112basic_stringIcSt11char_traitsIcESaIcEED1Ev(ptr noundef nonnull align 8 dereferenceable(32) %ref.tmp102) #16
  br label %ehcleanup126

ehcleanup126:                                     ; preds = %ehcleanup125, %lpad104
  call void @_ZNSaIcED1Ev(ptr noundef nonnull align 1 dereferenceable(1) %ref.tmp103) #16
  br label %ehcleanup127

ehcleanup127:                                     ; preds = %ehcleanup126, %lpad99
  call void @_ZNSt8optionalINSt7__cxx1112basic_stringIcSt11char_traitsIcESaIcEEEED2Ev(ptr noundef nonnull align 8 dereferenceable(40) %agg.tmp97) #16
  call void @_ZNSt7__cxx1112basic_stringIcSt11char_traitsIcESaIcEED1Ev(ptr noundef nonnull align 8 dereferenceable(32) %ref.tmp93) #16
  br label %ehcleanup129

ehcleanup129:                                     ; preds = %ehcleanup127, %lpad95
  call void @_ZNSaIcED1Ev(ptr noundef nonnull align 1 dereferenceable(1) %ref.tmp94) #16
  br label %ehcleanup130

ehcleanup130:                                     ; preds = %ehcleanup129, %lpad90
  call void @_ZNSt8optionalINSt7__cxx1112basic_stringIcSt11char_traitsIcESaIcEEEED2Ev(ptr noundef nonnull align 8 dereferenceable(40) %agg.tmp88) #16
  call void @_ZNSt7__cxx1112basic_stringIcSt11char_traitsIcESaIcEED1Ev(ptr noundef nonnull align 8 dereferenceable(32) %ref.tmp84) #16
  br label %ehcleanup132

ehcleanup132:                                     ; preds = %ehcleanup130, %lpad86
  call void @_ZNSaIcED1Ev(ptr noundef nonnull align 1 dereferenceable(1) %ref.tmp85) #16
  call void @_ZN8facebook5velox4exec24FunctionSignatureBuilderD2Ev(ptr noundef nonnull align 8 dereferenceable(225) %ref.tmp83) #16
  br label %ehcleanup134

nrvo.unused:                                      ; preds = %invoke.cont120
  call void @_ZNSt6vectorISt10shared_ptrIN8facebook5velox4exec17FunctionSignatureEESaIS5_EED2Ev(ptr noundef nonnull align 8 dereferenceable(24) %agg.result) #16
  br label %nrvo.skipdtor

nrvo.skipdtor:                                    ; preds = %nrvo.unused, %invoke.cont120
  call void @_ZNSt6vectorINSt7__cxx1112basic_stringIcSt11char_traitsIcESaIcEEESaIS5_EED2Ev(ptr noundef nonnull align 8 dereferenceable(24) %types) #16
  ret void

ehcleanup134:                                     ; preds = %ehcleanup132, %ehcleanup80
  call void @_ZNSt6vectorISt10shared_ptrIN8facebook5velox4exec17FunctionSignatureEESaIS5_EED2Ev(ptr noundef nonnull align 8 dereferenceable(24) %agg.result) #16
  call void @_ZNSt6vectorINSt7__cxx1112basic_stringIcSt11char_traitsIcESaIcEEESaIS5_EED2Ev(ptr noundef nonnull align 8 dereferenceable(24) %types) #16
  br label %eh.resume

eh.resume:                                        ; preds = %ehcleanup134, %cleanup.done
  %exn = load ptr, ptr %exn.slot, align 8
  %sel = load i32, ptr %ehselector.slot, align 4
  %lpad.val = insertvalue { ptr, i32 } poison, ptr %exn, 0
  %lpad.val136 = insertvalue { ptr, i32 } %lpad.val, i32 %sel, 1
  resume { ptr, i32 } %lpad.val136
}

; Function Attrs: mustprogress uwtable
define internal void @_ZSt11make_uniqueIN8facebook5velox9functions12_GLOBAL__N_120ExtremeValueFunctionILb1EEEJEENSt8__detail9_MakeUniqIT_E15__single_objectEDpOT0_(ptr noalias sret(%"class.std::unique_ptr.5") align 8 %agg.result) #0 {
entry:
  %result.ptr = alloca ptr, align 8
  store ptr %agg.result, ptr %result.ptr, align 8
  %call = call noalias noundef nonnull ptr @_Znwm(i64 noundef 8) #17
  call void @llvm.memset.p0.i64(ptr align 8 %call, i8 0, i64 8, i1 false)
  call void @_ZN8facebook5velox9functions12_GLOBAL__N_120ExtremeValueFunctionILb1EEC2Ev(ptr noundef nonnull align 8 dereferenceable(8) %call) #16
  call void @_ZNSt10unique_ptrIN8facebook5velox9functions12_GLOBAL__N_120ExtremeValueFunctionILb1EEESt14default_deleteIS5_EEC2IS7_vEEPS5_(ptr noundef nonnull align 8 dereferenceable(8) %agg.result, ptr noundef %call) #16
  ret void
}

declare i32 @__gxx_personality_v0(...)

; Function Attrs: mustprogress nounwind uwtable
define internal void @_ZNSt10unique_ptrIN8facebook5velox4exec14VectorFunctionESt14default_deleteIS3_EEC2INS1_9functions12_GLOBAL__N_120ExtremeValueFunctionILb1EEES4_ISB_EvEEOS_IT_T0_E(ptr noundef nonnull align 8 dereferenceable(8) %this, ptr noundef nonnull align 8 dereferenceable(8) %__u) unnamed_addr #2 align 2 personality ptr @__gxx_personality_v0 {
entry:
  %this.addr = alloca ptr, align 8
  %__u.addr = alloca ptr, align 8
  store ptr %this, ptr %this.addr, align 8
  store ptr %__u, ptr %__u.addr, align 8
  %this1 = load ptr, ptr %this.addr, align 8
  %_M_t = getelementptr inbounds %"class.std::unique_ptr", ptr %this1, i32 0, i32 0
  %0 = load ptr, ptr %__u.addr, align 8
  %call = call noundef ptr @_ZNSt10unique_ptrIN8facebook5velox9functions12_GLOBAL__N_120ExtremeValueFunctionILb1EEESt14default_deleteIS5_EE7releaseEv(ptr noundef nonnull align 8 dereferenceable(8) %0) #16
  %1 = load ptr, ptr %__u.addr, align 8
  %call2 = call noundef nonnull align 1 dereferenceable(1) ptr @_ZNSt10unique_ptrIN8facebook5velox9functions12_GLOBAL__N_120ExtremeValueFunctionILb1EEESt14default_deleteIS5_EE11get_deleterEv(ptr noundef nonnull align 8 dereferenceable(8) %1) #16
  invoke void @_ZNSt15__uniq_ptr_dataIN8facebook5velox4exec14VectorFunctionESt14default_deleteIS3_ELb1ELb1EECI2St15__uniq_ptr_implIS3_S5_EIS4_INS1_9functions12_GLOBAL__N_120ExtremeValueFunctionILb1EEEEEEPS3_OT_(ptr noundef nonnull align 8 dereferenceable(8) %_M_t, ptr noundef %call, ptr noundef nonnull align 1 dereferenceable(1) %call2)
          to label %invoke.cont unwind label %terminate.lpad

invoke.cont:                                      ; preds = %entry
  ret void

terminate.lpad:                                   ; preds = %entry
  %2 = landingpad { ptr, i32 }
          catch ptr null
  %3 = extractvalue { ptr, i32 } %2, 0
  call void @__clang_call_terminate(ptr %3) #18
  unreachable
}

; Function Attrs: mustprogress nounwind uwtable
define linkonce_odr void @_ZNSt10unique_ptrIN8facebook5velox4exec14VectorFunctionESt14default_deleteIS3_EED2Ev(ptr noundef nonnull align 8 dereferenceable(8) %this) unnamed_addr #2 comdat align 2 personality ptr @__gxx_personality_v0 {
entry:
  %this.addr = alloca ptr, align 8
  %__ptr = alloca ptr, align 8
  store ptr %this, ptr %this.addr, align 8
  %this1 = load ptr, ptr %this.addr, align 8
  %_M_t = getelementptr inbounds %"class.std::unique_ptr", ptr %this1, i32 0, i32 0
  %call = call noundef nonnull align 8 dereferenceable(8) ptr @_ZNSt15__uniq_ptr_implIN8facebook5velox4exec14VectorFunctionESt14default_deleteIS3_EE6_M_ptrEv(ptr noundef nonnull align 8 dereferenceable(8) %_M_t) #16
  store ptr %call, ptr %__ptr, align 8
  %0 = load ptr, ptr %__ptr, align 8
  %1 = load ptr, ptr %0, align 8
  %cmp = icmp ne ptr %1, null
  br i1 %cmp, label %if.then, label %if.end

if.then:                                          ; preds = %entry
  %call2 = call noundef nonnull align 1 dereferenceable(1) ptr @_ZNSt10unique_ptrIN8facebook5velox4exec14VectorFunctionESt14default_deleteIS3_EE11get_deleterEv(ptr noundef nonnull align 8 dereferenceable(8) %this1) #16
  %2 = load ptr, ptr %__ptr, align 8
  %3 = load ptr, ptr %2, align 8
  invoke void @_ZNKSt14default_deleteIN8facebook5velox4exec14VectorFunctionEEclEPS3_(ptr noundef nonnull align 1 dereferenceable(1) %call2, ptr noundef %3)
          to label %invoke.cont unwind label %terminate.lpad

invoke.cont:                                      ; preds = %if.then
  br label %if.end

if.end:                                           ; preds = %invoke.cont, %entry
  %4 = load ptr, ptr %__ptr, align 8
  store ptr null, ptr %4, align 8
  ret void

terminate.lpad:                                   ; preds = %if.then
  %5 = landingpad { ptr, i32 }
          catch ptr null
  %6 = extractvalue { ptr, i32 } %5, 0
  call void @__clang_call_terminate(ptr %6) #18
  unreachable
}

; Function Attrs: mustprogress nounwind uwtable
define internal void @_ZNSt10unique_ptrIN8facebook5velox9functions12_GLOBAL__N_120ExtremeValueFunctionILb1EEESt14default_deleteIS5_EED2Ev(ptr noundef nonnull align 8 dereferenceable(8) %this) unnamed_addr #2 align 2 personality ptr @__gxx_personality_v0 {
entry:
  %this.addr = alloca ptr, align 8
  %__ptr = alloca ptr, align 8
  store ptr %this, ptr %this.addr, align 8
  %this1 = load ptr, ptr %this.addr, align 8
  %_M_t = getelementptr inbounds %"class.std::unique_ptr.5", ptr %this1, i32 0, i32 0
  %call = call noundef nonnull align 8 dereferenceable(8) ptr @_ZNSt15__uniq_ptr_implIN8facebook5velox9functions12_GLOBAL__N_120ExtremeValueFunctionILb1EEESt14default_deleteIS5_EE6_M_ptrEv(ptr noundef nonnull align 8 dereferenceable(8) %_M_t) #16
  store ptr %call, ptr %__ptr, align 8
  %0 = load ptr, ptr %__ptr, align 8
  %1 = load ptr, ptr %0, align 8
  %cmp = icmp ne ptr %1, null
  br i1 %cmp, label %if.then, label %if.end

if.then:                                          ; preds = %entry
  %call2 = call noundef nonnull align 1 dereferenceable(1) ptr @_ZNSt10unique_ptrIN8facebook5velox9functions12_GLOBAL__N_120ExtremeValueFunctionILb1EEESt14default_deleteIS5_EE11get_deleterEv(ptr noundef nonnull align 8 dereferenceable(8) %this1) #16
  %2 = load ptr, ptr %__ptr, align 8
  %3 = load ptr, ptr %2, align 8
  invoke void @_ZNKSt14default_deleteIN8facebook5velox9functions12_GLOBAL__N_120ExtremeValueFunctionILb1EEEEclEPS5_(ptr noundef nonnull align 1 dereferenceable(1) %call2, ptr noundef %3)
          to label %invoke.cont unwind label %terminate.lpad

invoke.cont:                                      ; preds = %if.then
  br label %if.end

if.end:                                           ; preds = %invoke.cont, %entry
  %4 = load ptr, ptr %__ptr, align 8
  store ptr null, ptr %4, align 8
  ret void

terminate.lpad:                                   ; preds = %if.then
  %5 = landingpad { ptr, i32 }
          catch ptr null
  %6 = extractvalue { ptr, i32 } %5, 0
  call void @__clang_call_terminate(ptr %6) #18
  unreachable
}

; Function Attrs: mustprogress nounwind uwtable
define linkonce_odr void @_ZNSt6vectorISt10shared_ptrIN8facebook5velox4exec17FunctionSignatureEESaIS5_EED2Ev(ptr noundef nonnull align 8 dereferenceable(24) %this) unnamed_addr #2 comdat align 2 personality ptr @__gxx_personality_v0 {
entry:
  %this.addr = alloca ptr, align 8
  store ptr %this, ptr %this.addr, align 8
  %this1 = load ptr, ptr %this.addr, align 8
  %_M_impl = getelementptr inbounds %"struct.std::_Vector_base", ptr %this1, i32 0, i32 0
  %_M_start = getelementptr inbounds %"struct.std::_Vector_base<std::shared_ptr<facebook::velox::exec::FunctionSignature>, std::allocator<std::shared_ptr<facebook::velox::exec::FunctionSignature>>>::_Vector_impl_data", ptr %_M_impl, i32 0, i32 0
  %0 = load ptr, ptr %_M_start, align 8
  %_M_impl2 = getelementptr inbounds %"struct.std::_Vector_base", ptr %this1, i32 0, i32 0
  %_M_finish = getelementptr inbounds %"struct.std::_Vector_base<std::shared_ptr<facebook::velox::exec::FunctionSignature>, std::allocator<std::shared_ptr<facebook::velox::exec::FunctionSignature>>>::_Vector_impl_data", ptr %_M_impl2, i32 0, i32 1
  %1 = load ptr, ptr %_M_finish, align 8
  %call = call noundef nonnull align 1 dereferenceable(1) ptr @_ZNSt12_Vector_baseISt10shared_ptrIN8facebook5velox4exec17FunctionSignatureEESaIS5_EE19_M_get_Tp_allocatorEv(ptr noundef nonnull align 8 dereferenceable(24) %this1) #16
  invoke void @_ZSt8_DestroyIPSt10shared_ptrIN8facebook5velox4exec17FunctionSignatureEES5_EvT_S7_RSaIT0_E(ptr noundef %0, ptr noundef %1, ptr noundef nonnull align 1 dereferenceable(1) %call)
          to label %invoke.cont unwind label %terminate.lpad

invoke.cont:                                      ; preds = %entry
  call void @_ZNSt12_Vector_baseISt10shared_ptrIN8facebook5velox4exec17FunctionSignatureEESaIS5_EED2Ev(ptr noundef nonnull align 8 dereferenceable(24) %this1) #16
  ret void

terminate.lpad:                                   ; preds = %entry
  %2 = landingpad { ptr, i32 }
          catch ptr null
  %3 = extractvalue { ptr, i32 } %2, 0
  call void @__clang_call_terminate(ptr %3) #18
  unreachable
}

; Function Attrs: mustprogress uwtable
define void @_ZN8facebook5velox9functions35registerVectorFunction_udf_greatestERKNSt7__cxx1112basic_stringIcSt11char_traitsIcESaIcEEE(ptr noundef nonnull align 8 dereferenceable(32) %name) #0 personality ptr @__gxx_personality_v0 {
entry:
  %name.addr = alloca ptr, align 8
  %agg.tmp = alloca %"class.std::vector", align 8
  %agg.tmp1 = alloca %"class.std::unique_ptr", align 8
  %ref.tmp = alloca %"class.std::unique_ptr.13", align 8
  %exn.slot = alloca ptr, align 8
  %ehselector.slot = alloca i32, align 4
  %agg.tmp2 = alloca %"struct.facebook::velox::exec::VectorFunctionMetadata", align 1
  store ptr %name, ptr %name.addr, align 8
  %0 = load ptr, ptr %name.addr, align 8
  call void @_ZN8facebook5velox9functions12_GLOBAL__N_120ExtremeValueFunctionILb0EE10signaturesEv(ptr sret(%"class.std::vector") align 8 %agg.tmp)
  invoke void @_ZSt11make_uniqueIN8facebook5velox9functions12_GLOBAL__N_120ExtremeValueFunctionILb0EEEJEENSt8__detail9_MakeUniqIT_E15__single_objectEDpOT0_(ptr sret(%"class.std::unique_ptr.13") align 8 %ref.tmp)
          to label %invoke.cont unwind label %lpad

invoke.cont:                                      ; preds = %entry
  call void @_ZNSt10unique_ptrIN8facebook5velox4exec14VectorFunctionESt14default_deleteIS3_EEC2INS1_9functions12_GLOBAL__N_120ExtremeValueFunctionILb0EEES4_ISB_EvEEOS_IT_T0_E(ptr noundef nonnull align 8 dereferenceable(8) %agg.tmp1, ptr noundef nonnull align 8 dereferenceable(8) %ref.tmp) #16
  %supportsFlattening = getelementptr inbounds %"struct.facebook::velox::exec::VectorFunctionMetadata", ptr %agg.tmp2, i32 0, i32 0
  store i8 0, ptr %supportsFlattening, align 1
  %coerce.dive = getelementptr inbounds %"struct.facebook::velox::exec::VectorFunctionMetadata", ptr %agg.tmp2, i32 0, i32 0
  %1 = load i8, ptr %coerce.dive, align 1
  %call = invoke noundef zeroext i1 @_ZN8facebook5velox4exec22registerVectorFunctionERKNSt7__cxx1112basic_stringIcSt11char_traitsIcESaIcEEESt6vectorISt10shared_ptrINS1_17FunctionSignatureEESaISD_EESt10unique_ptrINS1_14VectorFunctionESt14default_deleteISH_EENS1_22VectorFunctionMetadataEb(ptr noundef nonnull align 8 dereferenceable(32) %0, ptr noundef %agg.tmp, ptr noundef %agg.tmp1, i8 %1, i1 noundef zeroext true)
          to label %invoke.cont4 unwind label %lpad3

invoke.cont4:                                     ; preds = %invoke.cont
  call void @_ZNSt10unique_ptrIN8facebook5velox4exec14VectorFunctionESt14default_deleteIS3_EED2Ev(ptr noundef nonnull align 8 dereferenceable(8) %agg.tmp1) #16
  call void @_ZNSt10unique_ptrIN8facebook5velox9functions12_GLOBAL__N_120ExtremeValueFunctionILb0EEESt14default_deleteIS5_EED2Ev(ptr noundef nonnull align 8 dereferenceable(8) %ref.tmp) #16
  call void @_ZNSt6vectorISt10shared_ptrIN8facebook5velox4exec17FunctionSignatureEESaIS5_EED2Ev(ptr noundef nonnull align 8 dereferenceable(24) %agg.tmp) #16
  ret void

lpad:                                             ; preds = %entry
  %2 = landingpad { ptr, i32 }
          cleanup
  %3 = extractvalue { ptr, i32 } %2, 0
  store ptr %3, ptr %exn.slot, align 8
  %4 = extractvalue { ptr, i32 } %2, 1
  store i32 %4, ptr %ehselector.slot, align 4
  br label %ehcleanup

lpad3:                                            ; preds = %invoke.cont
  %5 = landingpad { ptr, i32 }
          cleanup
  %6 = extractvalue { ptr, i32 } %5, 0
  store ptr %6, ptr %exn.slot, align 8
  %7 = extractvalue { ptr, i32 } %5, 1
  store i32 %7, ptr %ehselector.slot, align 4
  call void @_ZNSt10unique_ptrIN8facebook5velox4exec14VectorFunctionESt14default_deleteIS3_EED2Ev(ptr noundef nonnull align 8 dereferenceable(8) %agg.tmp1) #16
  call void @_ZNSt10unique_ptrIN8facebook5velox9functions12_GLOBAL__N_120ExtremeValueFunctionILb0EEESt14default_deleteIS5_EED2Ev(ptr noundef nonnull align 8 dereferenceable(8) %ref.tmp) #16
  br label %ehcleanup

ehcleanup:                                        ; preds = %lpad3, %lpad
  call void @_ZNSt6vectorISt10shared_ptrIN8facebook5velox4exec17FunctionSignatureEESaIS5_EED2Ev(ptr noundef nonnull align 8 dereferenceable(24) %agg.tmp) #16
  br label %eh.resume

eh.resume:                                        ; preds = %ehcleanup
  %exn = load ptr, ptr %exn.slot, align 8
  %sel = load i32, ptr %ehselector.slot, align 4
  %lpad.val = insertvalue { ptr, i32 } poison, ptr %exn, 0
  %lpad.val5 = insertvalue { ptr, i32 } %lpad.val, i32 %sel, 1
  resume { ptr, i32 } %lpad.val5
}

; Function Attrs: mustprogress uwtable
define internal void @_ZN8facebook5velox9functions12_GLOBAL__N_120ExtremeValueFunctionILb0EE10signaturesEv(ptr noalias sret(%"class.std::vector") align 8 %agg.result) #0 align 2 personality ptr @__gxx_personality_v0 {
entry:
  %result.ptr = alloca ptr, align 8
  %types = alloca %"class.std::vector.21", align 8
  %agg.tmp = alloca %"class.std::initializer_list", align 8
  %ref.tmp = alloca [10 x %"class.std::__cxx11::basic_string"], align 8
  %arrayinit.endOfInit = alloca ptr, align 8
  %ref.tmp1 = alloca %"class.std::allocator.2", align 1
  %exn.slot = alloca ptr, align 8
  %ehselector.slot = alloca i32, align 4
  %ref.tmp2 = alloca %"class.std::allocator.2", align 1
  %ref.tmp6 = alloca %"class.std::allocator.2", align 1
  %ref.tmp10 = alloca %"class.std::allocator.2", align 1
  %ref.tmp14 = alloca %"class.std::allocator.2", align 1
  %ref.tmp18 = alloca %"class.std::allocator.2", align 1
  %ref.tmp22 = alloca %"class.std::allocator.2", align 1
  %ref.tmp26 = alloca %"class.std::allocator.2", align 1
  %ref.tmp30 = alloca %"class.std::allocator.2", align 1
  %ref.tmp34 = alloca %"class.std::allocator.2", align 1
  %cleanup.isactive = alloca i1, align 1
  %ref.tmp37 = alloca %"class.std::allocator.23", align 1
  %nrvo = alloca i1, align 1
  %__range4 = alloca ptr, align 8
  %__begin4 = alloca %"class.__gnu_cxx::__normal_iterator", align 8
  %__end4 = alloca %"class.__gnu_cxx::__normal_iterator", align 8
  %type = alloca ptr, align 8
  %ref.tmp66 = alloca %"class.std::shared_ptr", align 8
  %ref.tmp67 = alloca %"class.facebook::velox::exec::FunctionSignatureBuilder", align 8
  %ref.tmp81 = alloca %"class.std::shared_ptr", align 8
  %ref.tmp82 = alloca %"class.facebook::velox::exec::FunctionSignatureBuilder", align 8
  %ref.tmp83 = alloca %"class.std::__cxx11::basic_string", align 8
  %ref.tmp84 = alloca %"class.std::allocator.2", align 1
  %agg.tmp87 = alloca %"class.std::optional.37", align 8
  %ref.tmp92 = alloca %"class.std::__cxx11::basic_string", align 8
  %ref.tmp93 = alloca %"class.std::allocator.2", align 1
  %agg.tmp96 = alloca %"class.std::optional.37", align 8
  %ref.tmp101 = alloca %"class.std::__cxx11::basic_string", align 8
  %ref.tmp102 = alloca %"class.std::allocator.2", align 1
  %ref.tmp108 = alloca %"class.std::__cxx11::basic_string", align 8
  %ref.tmp109 = alloca %"class.std::allocator.2", align 1
  store ptr %agg.result, ptr %result.ptr, align 8
  %arrayinit.begin = getelementptr inbounds [10 x %"class.std::__cxx11::basic_string"], ptr %ref.tmp, i64 0, i64 0
  store i1 true, ptr %cleanup.isactive, align 1
  store ptr %arrayinit.begin, ptr %arrayinit.endOfInit, align 8
  call void @_ZNSaIcEC1Ev(ptr noundef nonnull align 1 dereferenceable(1) %ref.tmp1) #16
  invoke void @_ZNSt7__cxx1112basic_stringIcSt11char_traitsIcESaIcEEC2IS3_EEPKcRKS3_(ptr noundef nonnull align 8 dereferenceable(32) %arrayinit.begin, ptr noundef @.str, ptr noundef nonnull align 1 dereferenceable(1) %ref.tmp1)
          to label %invoke.cont unwind label %lpad

invoke.cont:                                      ; preds = %entry
  %arrayinit.element = getelementptr inbounds %"class.std::__cxx11::basic_string", ptr %arrayinit.begin, i64 1
  store ptr %arrayinit.element, ptr %arrayinit.endOfInit, align 8
  call void @_ZNSaIcEC1Ev(ptr noundef nonnull align 1 dereferenceable(1) %ref.tmp2) #16
  invoke void @_ZNSt7__cxx1112basic_stringIcSt11char_traitsIcESaIcEEC2IS3_EEPKcRKS3_(ptr noundef nonnull align 8 dereferenceable(32) %arrayinit.element, ptr noundef @.str.1, ptr noundef nonnull align 1 dereferenceable(1) %ref.tmp2)
          to label %invoke.cont4 unwind label %lpad3

invoke.cont4:                                     ; preds = %invoke.cont
  %arrayinit.element5 = getelementptr inbounds %"class.std::__cxx11::basic_string", ptr %arrayinit.element, i64 1
  store ptr %arrayinit.element5, ptr %arrayinit.endOfInit, align 8
  call void @_ZNSaIcEC1Ev(ptr noundef nonnull align 1 dereferenceable(1) %ref.tmp6) #16
  invoke void @_ZNSt7__cxx1112basic_stringIcSt11char_traitsIcESaIcEEC2IS3_EEPKcRKS3_(ptr noundef nonnull align 8 dereferenceable(32) %arrayinit.element5, ptr noundef @.str.2, ptr noundef nonnull align 1 dereferenceable(1) %ref.tmp6)
          to label %invoke.cont8 unwind label %lpad7

invoke.cont8:                                     ; preds = %invoke.cont4
  %arrayinit.element9 = getelementptr inbounds %"class.std::__cxx11::basic_string", ptr %arrayinit.element5, i64 1
  store ptr %arrayinit.element9, ptr %arrayinit.endOfInit, align 8
  call void @_ZNSaIcEC1Ev(ptr noundef nonnull align 1 dereferenceable(1) %ref.tmp10) #16
  invoke void @_ZNSt7__cxx1112basic_stringIcSt11char_traitsIcESaIcEEC2IS3_EEPKcRKS3_(ptr noundef nonnull align 8 dereferenceable(32) %arrayinit.element9, ptr noundef @.str.3, ptr noundef nonnull align 1 dereferenceable(1) %ref.tmp10)
          to label %invoke.cont12 unwind label %lpad11

invoke.cont12:                                    ; preds = %invoke.cont8
  %arrayinit.element13 = getelementptr inbounds %"class.std::__cxx11::basic_string", ptr %arrayinit.element9, i64 1
  store ptr %arrayinit.element13, ptr %arrayinit.endOfInit, align 8
  call void @_ZNSaIcEC1Ev(ptr noundef nonnull align 1 dereferenceable(1) %ref.tmp14) #16
  invoke void @_ZNSt7__cxx1112basic_stringIcSt11char_traitsIcESaIcEEC2IS3_EEPKcRKS3_(ptr noundef nonnull align 8 dereferenceable(32) %arrayinit.element13, ptr noundef @.str.4, ptr noundef nonnull align 1 dereferenceable(1) %ref.tmp14)
          to label %invoke.cont16 unwind label %lpad15

invoke.cont16:                                    ; preds = %invoke.cont12
  %arrayinit.element17 = getelementptr inbounds %"class.std::__cxx11::basic_string", ptr %arrayinit.element13, i64 1
  store ptr %arrayinit.element17, ptr %arrayinit.endOfInit, align 8
  call void @_ZNSaIcEC1Ev(ptr noundef nonnull align 1 dereferenceable(1) %ref.tmp18) #16
  invoke void @_ZNSt7__cxx1112basic_stringIcSt11char_traitsIcESaIcEEC2IS3_EEPKcRKS3_(ptr noundef nonnull align 8 dereferenceable(32) %arrayinit.element17, ptr noundef @.str.5, ptr noundef nonnull align 1 dereferenceable(1) %ref.tmp18)
          to label %invoke.cont20 unwind label %lpad19

invoke.cont20:                                    ; preds = %invoke.cont16
  %arrayinit.element21 = getelementptr inbounds %"class.std::__cxx11::basic_string", ptr %arrayinit.element17, i64 1
  store ptr %arrayinit.element21, ptr %arrayinit.endOfInit, align 8
  call void @_ZNSaIcEC1Ev(ptr noundef nonnull align 1 dereferenceable(1) %ref.tmp22) #16
  invoke void @_ZNSt7__cxx1112basic_stringIcSt11char_traitsIcESaIcEEC2IS3_EEPKcRKS3_(ptr noundef nonnull align 8 dereferenceable(32) %arrayinit.element21, ptr noundef @.str.6, ptr noundef nonnull align 1 dereferenceable(1) %ref.tmp22)
          to label %invoke.cont24 unwind label %lpad23

invoke.cont24:                                    ; preds = %invoke.cont20
  %arrayinit.element25 = getelementptr inbounds %"class.std::__cxx11::basic_string", ptr %arrayinit.element21, i64 1
  store ptr %arrayinit.element25, ptr %arrayinit.endOfInit, align 8
  call void @_ZNSaIcEC1Ev(ptr noundef nonnull align 1 dereferenceable(1) %ref.tmp26) #16
  invoke void @_ZNSt7__cxx1112basic_stringIcSt11char_traitsIcESaIcEEC2IS3_EEPKcRKS3_(ptr noundef nonnull align 8 dereferenceable(32) %arrayinit.element25, ptr noundef @.str.7, ptr noundef nonnull align 1 dereferenceable(1) %ref.tmp26)
          to label %invoke.cont28 unwind label %lpad27

invoke.cont28:                                    ; preds = %invoke.cont24
  %arrayinit.element29 = getelementptr inbounds %"class.std::__cxx11::basic_string", ptr %arrayinit.element25, i64 1
  store ptr %arrayinit.element29, ptr %arrayinit.endOfInit, align 8
  call void @_ZNSaIcEC1Ev(ptr noundef nonnull align 1 dereferenceable(1) %ref.tmp30) #16
  invoke void @_ZNSt7__cxx1112basic_stringIcSt11char_traitsIcESaIcEEC2IS3_EEPKcRKS3_(ptr noundef nonnull align 8 dereferenceable(32) %arrayinit.element29, ptr noundef @.str.8, ptr noundef nonnull align 1 dereferenceable(1) %ref.tmp30)
          to label %invoke.cont32 unwind label %lpad31

invoke.cont32:                                    ; preds = %invoke.cont28
  %arrayinit.element33 = getelementptr inbounds %"class.std::__cxx11::basic_string", ptr %arrayinit.element29, i64 1
  store ptr %arrayinit.element33, ptr %arrayinit.endOfInit, align 8
  call void @_ZNSaIcEC1Ev(ptr noundef nonnull align 1 dereferenceable(1) %ref.tmp34) #16
  invoke void @_ZNSt7__cxx1112basic_stringIcSt11char_traitsIcESaIcEEC2IS3_EEPKcRKS3_(ptr noundef nonnull align 8 dereferenceable(32) %arrayinit.element33, ptr noundef @.str.9, ptr noundef nonnull align 1 dereferenceable(1) %ref.tmp34)
          to label %invoke.cont36 unwind label %lpad35

invoke.cont36:                                    ; preds = %invoke.cont32
  store i1 false, ptr %cleanup.isactive, align 1
  %_M_array = getelementptr inbounds %"class.std::initializer_list", ptr %agg.tmp, i32 0, i32 0
  %arraystart = getelementptr inbounds [10 x %"class.std::__cxx11::basic_string"], ptr %ref.tmp, i64 0, i64 0
  store ptr %arraystart, ptr %_M_array, align 8
  %_M_len = getelementptr inbounds %"class.std::initializer_list", ptr %agg.tmp, i32 0, i32 1
  store i64 10, ptr %_M_len, align 8
  call void @_ZNSaINSt7__cxx1112basic_stringIcSt11char_traitsIcESaIcEEEEC2Ev(ptr noundef nonnull align 1 dereferenceable(1) %ref.tmp37) #16
  %0 = getelementptr inbounds { ptr, i64 }, ptr %agg.tmp, i32 0, i32 0
  %1 = load ptr, ptr %0, align 8
  %2 = getelementptr inbounds { ptr, i64 }, ptr %agg.tmp, i32 0, i32 1
  %3 = load i64, ptr %2, align 8
  invoke void @_ZNSt6vectorINSt7__cxx1112basic_stringIcSt11char_traitsIcESaIcEEESaIS5_EEC2ESt16initializer_listIS5_ERKS6_(ptr noundef nonnull align 8 dereferenceable(24) %types, ptr %1, i64 %3, ptr noundef nonnull align 1 dereferenceable(1) %ref.tmp37)
          to label %invoke.cont39 unwind label %lpad38

invoke.cont39:                                    ; preds = %invoke.cont36
  call void @_ZNSaINSt7__cxx1112basic_stringIcSt11char_traitsIcESaIcEEEED2Ev(ptr noundef nonnull align 1 dereferenceable(1) %ref.tmp37) #16
  %array.begin = getelementptr inbounds [10 x %"class.std::__cxx11::basic_string"], ptr %ref.tmp, i32 0, i32 0
  %4 = getelementptr inbounds %"class.std::__cxx11::basic_string", ptr %array.begin, i64 10
  br label %arraydestroy.body

arraydestroy.body:                                ; preds = %arraydestroy.body, %invoke.cont39
  %arraydestroy.elementPast = phi ptr [ %4, %invoke.cont39 ], [ %arraydestroy.element, %arraydestroy.body ]
  %arraydestroy.element = getelementptr inbounds %"class.std::__cxx11::basic_string", ptr %arraydestroy.elementPast, i64 -1
  call void @_ZNSt7__cxx1112basic_stringIcSt11char_traitsIcESaIcEED1Ev(ptr noundef nonnull align 8 dereferenceable(32) %arraydestroy.element) #16
  %arraydestroy.done = icmp eq ptr %arraydestroy.element, %array.begin
  br i1 %arraydestroy.done, label %arraydestroy.done40, label %arraydestroy.body

arraydestroy.done40:                              ; preds = %arraydestroy.body
  call void @_ZNSaIcED1Ev(ptr noundef nonnull align 1 dereferenceable(1) %ref.tmp34) #16
  call void @_ZNSaIcED1Ev(ptr noundef nonnull align 1 dereferenceable(1) %ref.tmp30) #16
  call void @_ZNSaIcED1Ev(ptr noundef nonnull align 1 dereferenceable(1) %ref.tmp26) #16
  call void @_ZNSaIcED1Ev(ptr noundef nonnull align 1 dereferenceable(1) %ref.tmp22) #16
  call void @_ZNSaIcED1Ev(ptr noundef nonnull align 1 dereferenceable(1) %ref.tmp18) #16
  call void @_ZNSaIcED1Ev(ptr noundef nonnull align 1 dereferenceable(1) %ref.tmp14) #16
  call void @_ZNSaIcED1Ev(ptr noundef nonnull align 1 dereferenceable(1) %ref.tmp10) #16
  call void @_ZNSaIcED1Ev(ptr noundef nonnull align 1 dereferenceable(1) %ref.tmp6) #16
  call void @_ZNSaIcED1Ev(ptr noundef nonnull align 1 dereferenceable(1) %ref.tmp2) #16
  call void @_ZNSaIcED1Ev(ptr noundef nonnull align 1 dereferenceable(1) %ref.tmp1) #16
  store i1 false, ptr %nrvo, align 1
  call void @_ZNSt6vectorISt10shared_ptrIN8facebook5velox4exec17FunctionSignatureEESaIS5_EEC2Ev(ptr noundef nonnull align 8 dereferenceable(24) %agg.result) #16
  store ptr %types, ptr %__range4, align 8
  %5 = load ptr, ptr %__range4, align 8
  %call = call ptr @_ZNKSt6vectorINSt7__cxx1112basic_stringIcSt11char_traitsIcESaIcEEESaIS5_EE5beginEv(ptr noundef nonnull align 8 dereferenceable(24) %5) #16
  %coerce.dive = getelementptr inbounds %"class.__gnu_cxx::__normal_iterator", ptr %__begin4, i32 0, i32 0
  store ptr %call, ptr %coerce.dive, align 8
  %6 = load ptr, ptr %__range4, align 8
  %call62 = call ptr @_ZNKSt6vectorINSt7__cxx1112basic_stringIcSt11char_traitsIcESaIcEEESaIS5_EE3endEv(ptr noundef nonnull align 8 dereferenceable(24) %6) #16
  %coerce.dive63 = getelementptr inbounds %"class.__gnu_cxx::__normal_iterator", ptr %__end4, i32 0, i32 0
  store ptr %call62, ptr %coerce.dive63, align 8
  br label %for.cond

for.cond:                                         ; preds = %for.inc, %arraydestroy.done40
  %call64 = call noundef zeroext i1 @_ZN9__gnu_cxxneIPKNSt7__cxx1112basic_stringIcSt11char_traitsIcESaIcEEESt6vectorIS6_SaIS6_EEEEbRKNS_17__normal_iteratorIT_T0_EESH_(ptr noundef nonnull align 8 dereferenceable(8) %__begin4, ptr noundef nonnull align 8 dereferenceable(8) %__end4) #16
  br i1 %call64, label %for.body, label %for.end

for.body:                                         ; preds = %for.cond
  %call65 = call noundef nonnull align 8 dereferenceable(32) ptr @_ZNK9__gnu_cxx17__normal_iteratorIPKNSt7__cxx1112basic_stringIcSt11char_traitsIcESaIcEEESt6vectorIS6_SaIS6_EEEdeEv(ptr noundef nonnull align 8 dereferenceable(8) %__begin4) #16
  store ptr %call65, ptr %type, align 8
  call void @llvm.memset.p0.i64(ptr align 8 %ref.tmp67, i8 0, i64 232, i1 false)
  call void @_ZN8facebook5velox4exec24FunctionSignatureBuilderC2Ev(ptr noundef nonnull align 8 dereferenceable(225) %ref.tmp67) #16
  %7 = load ptr, ptr %type, align 8
  %call70 = invoke noundef nonnull align 8 dereferenceable(225) ptr @_ZN8facebook5velox4exec24FunctionSignatureBuilder10returnTypeERKNSt7__cxx1112basic_stringIcSt11char_traitsIcESaIcEEE(ptr noundef nonnull align 8 dereferenceable(225) %ref.tmp67, ptr noundef nonnull align 8 dereferenceable(32) %7)
          to label %invoke.cont69 unwind label %lpad68

invoke.cont69:                                    ; preds = %for.body
  %8 = load ptr, ptr %type, align 8
  %call72 = invoke noundef nonnull align 8 dereferenceable(225) ptr @_ZN8facebook5velox4exec24FunctionSignatureBuilder12argumentTypeERKNSt7__cxx1112basic_stringIcSt11char_traitsIcESaIcEEE(ptr noundef nonnull align 8 dereferenceable(225) %call70, ptr noundef nonnull align 8 dereferenceable(32) %8)
          to label %invoke.cont71 unwind label %lpad68

invoke.cont71:                                    ; preds = %invoke.cont69
  %call73 = call noundef nonnull align 8 dereferenceable(225) ptr @_ZN8facebook5velox4exec24FunctionSignatureBuilder13variableArityEv(ptr noundef nonnull align 8 dereferenceable(225) %call72)
  invoke void @_ZN8facebook5velox4exec24FunctionSignatureBuilder5buildEv(ptr sret(%"class.std::shared_ptr") align 8 %ref.tmp66, ptr noundef nonnull align 8 dereferenceable(225) %call73)
          to label %invoke.cont74 unwind label %lpad68

invoke.cont74:                                    ; preds = %invoke.cont71
  %call77 = invoke noundef nonnull align 8 dereferenceable(16) ptr @_ZNSt6vectorISt10shared_ptrIN8facebook5velox4exec17FunctionSignatureEESaIS5_EE12emplace_backIJS5_EEERS5_DpOT_(ptr noundef nonnull align 8 dereferenceable(24) %agg.result, ptr noundef nonnull align 8 dereferenceable(16) %ref.tmp66)
          to label %invoke.cont76 unwind label %lpad75

invoke.cont76:                                    ; preds = %invoke.cont74
  call void @_ZNSt10shared_ptrIN8facebook5velox4exec17FunctionSignatureEED2Ev(ptr noundef nonnull align 8 dereferenceable(16) %ref.tmp66) #16
  call void @_ZN8facebook5velox4exec24FunctionSignatureBuilderD2Ev(ptr noundef nonnull align 8 dereferenceable(225) %ref.tmp67) #16
  br label %for.inc

for.inc:                                          ; preds = %invoke.cont76
  %call80 = call noundef nonnull align 8 dereferenceable(8) ptr @_ZN9__gnu_cxx17__normal_iteratorIPKNSt7__cxx1112basic_stringIcSt11char_traitsIcESaIcEEESt6vectorIS6_SaIS6_EEEppEv(ptr noundef nonnull align 8 dereferenceable(8) %__begin4) #16
  br label %for.cond

lpad:                                             ; preds = %entry
  %9 = landingpad { ptr, i32 }
          cleanup
  %10 = extractvalue { ptr, i32 } %9, 0
  store ptr %10, ptr %exn.slot, align 8
  %11 = extractvalue { ptr, i32 } %9, 1
  store i32 %11, ptr %ehselector.slot, align 4
  br label %ehcleanup55

lpad3:                                            ; preds = %invoke.cont
  %12 = landingpad { ptr, i32 }
          cleanup
  %13 = extractvalue { ptr, i32 } %12, 0
  store ptr %13, ptr %exn.slot, align 8
  %14 = extractvalue { ptr, i32 } %12, 1
  store i32 %14, ptr %ehselector.slot, align 4
  br label %ehcleanup54

lpad7:                                            ; preds = %invoke.cont4
  %15 = landingpad { ptr, i32 }
          cleanup
  %16 = extractvalue { ptr, i32 } %15, 0
  store ptr %16, ptr %exn.slot, align 8
  %17 = extractvalue { ptr, i32 } %15, 1
  store i32 %17, ptr %ehselector.slot, align 4
  br label %ehcleanup53

lpad11:                                           ; preds = %invoke.cont8
  %18 = landingpad { ptr, i32 }
          cleanup
  %19 = extractvalue { ptr, i32 } %18, 0
  store ptr %19, ptr %exn.slot, align 8
  %20 = extractvalue { ptr, i32 } %18, 1
  store i32 %20, ptr %ehselector.slot, align 4
  br label %ehcleanup52

lpad15:                                           ; preds = %invoke.cont12
  %21 = landingpad { ptr, i32 }
          cleanup
  %22 = extractvalue { ptr, i32 } %21, 0
  store ptr %22, ptr %exn.slot, align 8
  %23 = extractvalue { ptr, i32 } %21, 1
  store i32 %23, ptr %ehselector.slot, align 4
  br label %ehcleanup51

lpad19:                                           ; preds = %invoke.cont16
  %24 = landingpad { ptr, i32 }
          cleanup
  %25 = extractvalue { ptr, i32 } %24, 0
  store ptr %25, ptr %exn.slot, align 8
  %26 = extractvalue { ptr, i32 } %24, 1
  store i32 %26, ptr %ehselector.slot, align 4
  br label %ehcleanup50

lpad23:                                           ; preds = %invoke.cont20
  %27 = landingpad { ptr, i32 }
          cleanup
  %28 = extractvalue { ptr, i32 } %27, 0
  store ptr %28, ptr %exn.slot, align 8
  %29 = extractvalue { ptr, i32 } %27, 1
  store i32 %29, ptr %ehselector.slot, align 4
  br label %ehcleanup49

lpad27:                                           ; preds = %invoke.cont24
  %30 = landingpad { ptr, i32 }
          cleanup
  %31 = extractvalue { ptr, i32 } %30, 0
  store ptr %31, ptr %exn.slot, align 8
  %32 = extractvalue { ptr, i32 } %30, 1
  store i32 %32, ptr %ehselector.slot, align 4
  br label %ehcleanup48

lpad31:                                           ; preds = %invoke.cont28
  %33 = landingpad { ptr, i32 }
          cleanup
  %34 = extractvalue { ptr, i32 } %33, 0
  store ptr %34, ptr %exn.slot, align 8
  %35 = extractvalue { ptr, i32 } %33, 1
  store i32 %35, ptr %ehselector.slot, align 4
  br label %ehcleanup47

lpad35:                                           ; preds = %invoke.cont32
  %36 = landingpad { ptr, i32 }
          cleanup
  %37 = extractvalue { ptr, i32 } %36, 0
  store ptr %37, ptr %exn.slot, align 8
  %38 = extractvalue { ptr, i32 } %36, 1
  store i32 %38, ptr %ehselector.slot, align 4
  br label %ehcleanup

lpad38:                                           ; preds = %invoke.cont36
  %39 = landingpad { ptr, i32 }
          cleanup
  %40 = extractvalue { ptr, i32 } %39, 0
  store ptr %40, ptr %exn.slot, align 8
  %41 = extractvalue { ptr, i32 } %39, 1
  store i32 %41, ptr %ehselector.slot, align 4
  call void @_ZNSaINSt7__cxx1112basic_stringIcSt11char_traitsIcESaIcEEEED2Ev(ptr noundef nonnull align 1 dereferenceable(1) %ref.tmp37) #16
  %array.begin41 = getelementptr inbounds [10 x %"class.std::__cxx11::basic_string"], ptr %ref.tmp, i32 0, i32 0
  %42 = getelementptr inbounds %"class.std::__cxx11::basic_string", ptr %array.begin41, i64 10
  br label %arraydestroy.body42

arraydestroy.body42:                              ; preds = %arraydestroy.body42, %lpad38
  %arraydestroy.elementPast43 = phi ptr [ %42, %lpad38 ], [ %arraydestroy.element44, %arraydestroy.body42 ]
  %arraydestroy.element44 = getelementptr inbounds %"class.std::__cxx11::basic_string", ptr %arraydestroy.elementPast43, i64 -1
  call void @_ZNSt7__cxx1112basic_stringIcSt11char_traitsIcESaIcEED1Ev(ptr noundef nonnull align 8 dereferenceable(32) %arraydestroy.element44) #16
  %arraydestroy.done45 = icmp eq ptr %arraydestroy.element44, %array.begin41
  br i1 %arraydestroy.done45, label %arraydestroy.done46, label %arraydestroy.body42

arraydestroy.done46:                              ; preds = %arraydestroy.body42
  br label %ehcleanup

ehcleanup:                                        ; preds = %arraydestroy.done46, %lpad35
  call void @_ZNSaIcED1Ev(ptr noundef nonnull align 1 dereferenceable(1) %ref.tmp34) #16
  br label %ehcleanup47

ehcleanup47:                                      ; preds = %ehcleanup, %lpad31
  call void @_ZNSaIcED1Ev(ptr noundef nonnull align 1 dereferenceable(1) %ref.tmp30) #16
  br label %ehcleanup48

ehcleanup48:                                      ; preds = %ehcleanup47, %lpad27
  call void @_ZNSaIcED1Ev(ptr noundef nonnull align 1 dereferenceable(1) %ref.tmp26) #16
  br label %ehcleanup49

ehcleanup49:                                      ; preds = %ehcleanup48, %lpad23
  call void @_ZNSaIcED1Ev(ptr noundef nonnull align 1 dereferenceable(1) %ref.tmp22) #16
  br label %ehcleanup50

ehcleanup50:                                      ; preds = %ehcleanup49, %lpad19
  call void @_ZNSaIcED1Ev(ptr noundef nonnull align 1 dereferenceable(1) %ref.tmp18) #16
  br label %ehcleanup51

ehcleanup51:                                      ; preds = %ehcleanup50, %lpad15
  call void @_ZNSaIcED1Ev(ptr noundef nonnull align 1 dereferenceable(1) %ref.tmp14) #16
  br label %ehcleanup52

ehcleanup52:                                      ; preds = %ehcleanup51, %lpad11
  call void @_ZNSaIcED1Ev(ptr noundef nonnull align 1 dereferenceable(1) %ref.tmp10) #16
  br label %ehcleanup53

ehcleanup53:                                      ; preds = %ehcleanup52, %lpad7
  call void @_ZNSaIcED1Ev(ptr noundef nonnull align 1 dereferenceable(1) %ref.tmp6) #16
  br label %ehcleanup54

ehcleanup54:                                      ; preds = %ehcleanup53, %lpad3
  call void @_ZNSaIcED1Ev(ptr noundef nonnull align 1 dereferenceable(1) %ref.tmp2) #16
  br label %ehcleanup55

ehcleanup55:                                      ; preds = %ehcleanup54, %lpad
  call void @_ZNSaIcED1Ev(ptr noundef nonnull align 1 dereferenceable(1) %ref.tmp1) #16
  %cleanup.is_active = load i1, ptr %cleanup.isactive, align 1
  br i1 %cleanup.is_active, label %cleanup.action, label %cleanup.done

cleanup.action:                                   ; preds = %ehcleanup55
  %43 = load ptr, ptr %arrayinit.endOfInit, align 8
  %arraydestroy.isempty = icmp eq ptr %arrayinit.begin, %43
  br i1 %arraydestroy.isempty, label %arraydestroy.done61, label %arraydestroy.body57

arraydestroy.body57:                              ; preds = %arraydestroy.body57, %cleanup.action
  %arraydestroy.elementPast58 = phi ptr [ %43, %cleanup.action ], [ %arraydestroy.element59, %arraydestroy.body57 ]
  %arraydestroy.element59 = getelementptr inbounds %"class.std::__cxx11::basic_string", ptr %arraydestroy.elementPast58, i64 -1
  call void @_ZNSt7__cxx1112basic_stringIcSt11char_traitsIcESaIcEED1Ev(ptr noundef nonnull align 8 dereferenceable(32) %arraydestroy.element59) #16
  %arraydestroy.done60 = icmp eq ptr %arraydestroy.element59, %arrayinit.begin
  br i1 %arraydestroy.done60, label %arraydestroy.done61, label %arraydestroy.body57

arraydestroy.done61:                              ; preds = %arraydestroy.body57, %cleanup.action
  br label %cleanup.done

cleanup.done:                                     ; preds = %arraydestroy.done61, %ehcleanup55
  br label %eh.resume

lpad68:                                           ; preds = %invoke.cont71, %invoke.cont69, %for.body
  %44 = landingpad { ptr, i32 }
          cleanup
  %45 = extractvalue { ptr, i32 } %44, 0
  store ptr %45, ptr %exn.slot, align 8
  %46 = extractvalue { ptr, i32 } %44, 1
  store i32 %46, ptr %ehselector.slot, align 4
  br label %ehcleanup79

lpad75:                                           ; preds = %invoke.cont74
  %47 = landingpad { ptr, i32 }
          cleanup
  %48 = extractvalue { ptr, i32 } %47, 0
  store ptr %48, ptr %exn.slot, align 8
  %49 = extractvalue { ptr, i32 } %47, 1
  store i32 %49, ptr %ehselector.slot, align 4
  call void @_ZNSt10shared_ptrIN8facebook5velox4exec17FunctionSignatureEED2Ev(ptr noundef nonnull align 8 dereferenceable(16) %ref.tmp66) #16
  br label %ehcleanup79

ehcleanup79:                                      ; preds = %lpad75, %lpad68
  call void @_ZN8facebook5velox4exec24FunctionSignatureBuilderD2Ev(ptr noundef nonnull align 8 dereferenceable(225) %ref.tmp67) #16
  br label %ehcleanup132

for.end:                                          ; preds = %for.cond
  call void @llvm.memset.p0.i64(ptr align 8 %ref.tmp82, i8 0, i64 232, i1 false)
  call void @_ZN8facebook5velox4exec24FunctionSignatureBuilderC2Ev(ptr noundef nonnull align 8 dereferenceable(225) %ref.tmp82) #16
  call void @_ZNSaIcEC1Ev(ptr noundef nonnull align 1 dereferenceable(1) %ref.tmp84) #16
  invoke void @_ZNSt7__cxx1112basic_stringIcSt11char_traitsIcESaIcEEC2IS3_EEPKcRKS3_(ptr noundef nonnull align 8 dereferenceable(32) %ref.tmp83, ptr noundef @.str.10, ptr noundef nonnull align 1 dereferenceable(1) %ref.tmp84)
          to label %invoke.cont86 unwind label %lpad85

invoke.cont86:                                    ; preds = %for.end
  call void @_ZNSt8optionalINSt7__cxx1112basic_stringIcSt11char_traitsIcESaIcEEEEC2ESt9nullopt_t(ptr noundef nonnull align 8 dereferenceable(40) %agg.tmp87) #16
  %call91 = invoke noundef nonnull align 8 dereferenceable(225) ptr @_ZN8facebook5velox4exec24FunctionSignatureBuilder15integerVariableERKNSt7__cxx1112basic_stringIcSt11char_traitsIcESaIcEEESt8optionalIS8_E(ptr noundef nonnull align 8 dereferenceable(225) %ref.tmp82, ptr noundef nonnull align 8 dereferenceable(32) %ref.tmp83, ptr noundef %agg.tmp87)
          to label %invoke.cont90 unwind label %lpad89

invoke.cont90:                                    ; preds = %invoke.cont86
  call void @_ZNSaIcEC1Ev(ptr noundef nonnull align 1 dereferenceable(1) %ref.tmp93) #16
  invoke void @_ZNSt7__cxx1112basic_stringIcSt11char_traitsIcESaIcEEC2IS3_EEPKcRKS3_(ptr noundef nonnull align 8 dereferenceable(32) %ref.tmp92, ptr noundef @.str.11, ptr noundef nonnull align 1 dereferenceable(1) %ref.tmp93)
          to label %invoke.cont95 unwind label %lpad94

invoke.cont95:                                    ; preds = %invoke.cont90
  call void @_ZNSt8optionalINSt7__cxx1112basic_stringIcSt11char_traitsIcESaIcEEEEC2ESt9nullopt_t(ptr noundef nonnull align 8 dereferenceable(40) %agg.tmp96) #16
  %call100 = invoke noundef nonnull align 8 dereferenceable(225) ptr @_ZN8facebook5velox4exec24FunctionSignatureBuilder15integerVariableERKNSt7__cxx1112basic_stringIcSt11char_traitsIcESaIcEEESt8optionalIS8_E(ptr noundef nonnull align 8 dereferenceable(225) %call91, ptr noundef nonnull align 8 dereferenceable(32) %ref.tmp92, ptr noundef %agg.tmp96)
          to label %invoke.cont99 unwind label %lpad98

invoke.cont99:                                    ; preds = %invoke.cont95
  call void @_ZNSaIcEC1Ev(ptr noundef nonnull align 1 dereferenceable(1) %ref.tmp102) #16
  invoke void @_ZNSt7__cxx1112basic_stringIcSt11char_traitsIcESaIcEEC2IS3_EEPKcRKS3_(ptr noundef nonnull align 8 dereferenceable(32) %ref.tmp101, ptr noundef @.str.12, ptr noundef nonnull align 1 dereferenceable(1) %ref.tmp102)
          to label %invoke.cont104 unwind label %lpad103

invoke.cont104:                                   ; preds = %invoke.cont99
  %call107 = invoke noundef nonnull align 8 dereferenceable(225) ptr @_ZN8facebook5velox4exec24FunctionSignatureBuilder10returnTypeERKNSt7__cxx1112basic_stringIcSt11char_traitsIcESaIcEEE(ptr noundef nonnull align 8 dereferenceable(225) %call100, ptr noundef nonnull align 8 dereferenceable(32) %ref.tmp101)
          to label %invoke.cont106 unwind label %lpad105

invoke.cont106:                                   ; preds = %invoke.cont104
  call void @_ZNSaIcEC1Ev(ptr noundef nonnull align 1 dereferenceable(1) %ref.tmp109) #16
  invoke void @_ZNSt7__cxx1112basic_stringIcSt11char_traitsIcESaIcEEC2IS3_EEPKcRKS3_(ptr noundef nonnull align 8 dereferenceable(32) %ref.tmp108, ptr noundef @.str.12, ptr noundef nonnull align 1 dereferenceable(1) %ref.tmp109)
          to label %invoke.cont111 unwind label %lpad110

invoke.cont111:                                   ; preds = %invoke.cont106
  %call114 = invoke noundef nonnull align 8 dereferenceable(225) ptr @_ZN8facebook5velox4exec24FunctionSignatureBuilder12argumentTypeERKNSt7__cxx1112basic_stringIcSt11char_traitsIcESaIcEEE(ptr noundef nonnull align 8 dereferenceable(225) %call107, ptr noundef nonnull align 8 dereferenceable(32) %ref.tmp108)
          to label %invoke.cont113 unwind label %lpad112

invoke.cont113:                                   ; preds = %invoke.cont111
  %call115 = call noundef nonnull align 8 dereferenceable(225) ptr @_ZN8facebook5velox4exec24FunctionSignatureBuilder13variableArityEv(ptr noundef nonnull align 8 dereferenceable(225) %call114)
  invoke void @_ZN8facebook5velox4exec24FunctionSignatureBuilder5buildEv(ptr sret(%"class.std::shared_ptr") align 8 %ref.tmp81, ptr noundef nonnull align 8 dereferenceable(225) %call115)
          to label %invoke.cont116 unwind label %lpad112

invoke.cont116:                                   ; preds = %invoke.cont113
  %call119 = invoke noundef nonnull align 8 dereferenceable(16) ptr @_ZNSt6vectorISt10shared_ptrIN8facebook5velox4exec17FunctionSignatureEESaIS5_EE12emplace_backIJS5_EEERS5_DpOT_(ptr noundef nonnull align 8 dereferenceable(24) %agg.result, ptr noundef nonnull align 8 dereferenceable(16) %ref.tmp81)
          to label %invoke.cont118 unwind label %lpad117

invoke.cont118:                                   ; preds = %invoke.cont116
  call void @_ZNSt10shared_ptrIN8facebook5velox4exec17FunctionSignatureEED2Ev(ptr noundef nonnull align 8 dereferenceable(16) %ref.tmp81) #16
  call void @_ZNSt7__cxx1112basic_stringIcSt11char_traitsIcESaIcEED1Ev(ptr noundef nonnull align 8 dereferenceable(32) %ref.tmp108) #16
  call void @_ZNSaIcED1Ev(ptr noundef nonnull align 1 dereferenceable(1) %ref.tmp109) #16
  call void @_ZNSt7__cxx1112basic_stringIcSt11char_traitsIcESaIcEED1Ev(ptr noundef nonnull align 8 dereferenceable(32) %ref.tmp101) #16
  call void @_ZNSaIcED1Ev(ptr noundef nonnull align 1 dereferenceable(1) %ref.tmp102) #16
  call void @_ZNSt8optionalINSt7__cxx1112basic_stringIcSt11char_traitsIcESaIcEEEED2Ev(ptr noundef nonnull align 8 dereferenceable(40) %agg.tmp96) #16
  call void @_ZNSt7__cxx1112basic_stringIcSt11char_traitsIcESaIcEED1Ev(ptr noundef nonnull align 8 dereferenceable(32) %ref.tmp92) #16
  call void @_ZNSaIcED1Ev(ptr noundef nonnull align 1 dereferenceable(1) %ref.tmp93) #16
  call void @_ZNSt8optionalINSt7__cxx1112basic_stringIcSt11char_traitsIcESaIcEEEED2Ev(ptr noundef nonnull align 8 dereferenceable(40) %agg.tmp87) #16
  call void @_ZNSt7__cxx1112basic_stringIcSt11char_traitsIcESaIcEED1Ev(ptr noundef nonnull align 8 dereferenceable(32) %ref.tmp83) #16
  call void @_ZNSaIcED1Ev(ptr noundef nonnull align 1 dereferenceable(1) %ref.tmp84) #16
  call void @_ZN8facebook5velox4exec24FunctionSignatureBuilderD2Ev(ptr noundef nonnull align 8 dereferenceable(225) %ref.tmp82) #16
  store i1 true, ptr %nrvo, align 1
  %nrvo.val = load i1, ptr %nrvo, align 1
  br i1 %nrvo.val, label %nrvo.skipdtor, label %nrvo.unused

lpad85:                                           ; preds = %for.end
  %50 = landingpad { ptr, i32 }
          cleanup
  %51 = extractvalue { ptr, i32 } %50, 0
  store ptr %51, ptr %exn.slot, align 8
  %52 = extractvalue { ptr, i32 } %50, 1
  store i32 %52, ptr %ehselector.slot, align 4
  br label %ehcleanup130

lpad89:                                           ; preds = %invoke.cont86
  %53 = landingpad { ptr, i32 }
          cleanup
  %54 = extractvalue { ptr, i32 } %53, 0
  store ptr %54, ptr %exn.slot, align 8
  %55 = extractvalue { ptr, i32 } %53, 1
  store i32 %55, ptr %ehselector.slot, align 4
  br label %ehcleanup128

lpad94:                                           ; preds = %invoke.cont90
  %56 = landingpad { ptr, i32 }
          cleanup
  %57 = extractvalue { ptr, i32 } %56, 0
  store ptr %57, ptr %exn.slot, align 8
  %58 = extractvalue { ptr, i32 } %56, 1
  store i32 %58, ptr %ehselector.slot, align 4
  br label %ehcleanup127

lpad98:                                           ; preds = %invoke.cont95
  %59 = landingpad { ptr, i32 }
          cleanup
  %60 = extractvalue { ptr, i32 } %59, 0
  store ptr %60, ptr %exn.slot, align 8
  %61 = extractvalue { ptr, i32 } %59, 1
  store i32 %61, ptr %ehselector.slot, align 4
  br label %ehcleanup125

lpad103:                                          ; preds = %invoke.cont99
  %62 = landingpad { ptr, i32 }
          cleanup
  %63 = extractvalue { ptr, i32 } %62, 0
  store ptr %63, ptr %exn.slot, align 8
  %64 = extractvalue { ptr, i32 } %62, 1
  store i32 %64, ptr %ehselector.slot, align 4
  br label %ehcleanup124

lpad105:                                          ; preds = %invoke.cont104
  %65 = landingpad { ptr, i32 }
          cleanup
  %66 = extractvalue { ptr, i32 } %65, 0
  store ptr %66, ptr %exn.slot, align 8
  %67 = extractvalue { ptr, i32 } %65, 1
  store i32 %67, ptr %ehselector.slot, align 4
  br label %ehcleanup123

lpad110:                                          ; preds = %invoke.cont106
  %68 = landingpad { ptr, i32 }
          cleanup
  %69 = extractvalue { ptr, i32 } %68, 0
  store ptr %69, ptr %exn.slot, align 8
  %70 = extractvalue { ptr, i32 } %68, 1
  store i32 %70, ptr %ehselector.slot, align 4
  br label %ehcleanup122

lpad112:                                          ; preds = %invoke.cont113, %invoke.cont111
  %71 = landingpad { ptr, i32 }
          cleanup
  %72 = extractvalue { ptr, i32 } %71, 0
  store ptr %72, ptr %exn.slot, align 8
  %73 = extractvalue { ptr, i32 } %71, 1
  store i32 %73, ptr %ehselector.slot, align 4
  br label %ehcleanup121

lpad117:                                          ; preds = %invoke.cont116
  %74 = landingpad { ptr, i32 }
          cleanup
  %75 = extractvalue { ptr, i32 } %74, 0
  store ptr %75, ptr %exn.slot, align 8
  %76 = extractvalue { ptr, i32 } %74, 1
  store i32 %76, ptr %ehselector.slot, align 4
  call void @_ZNSt10shared_ptrIN8facebook5velox4exec17FunctionSignatureEED2Ev(ptr noundef nonnull align 8 dereferenceable(16) %ref.tmp81) #16
  br label %ehcleanup121

ehcleanup121:                                     ; preds = %lpad117, %lpad112
  call void @_ZNSt7__cxx1112basic_stringIcSt11char_traitsIcESaIcEED1Ev(ptr noundef nonnull align 8 dereferenceable(32) %ref.tmp108) #16
  br label %ehcleanup122

ehcleanup122:                                     ; preds = %ehcleanup121, %lpad110
  call void @_ZNSaIcED1Ev(ptr noundef nonnull align 1 dereferenceable(1) %ref.tmp109) #16
  br label %ehcleanup123

ehcleanup123:                                     ; preds = %ehcleanup122, %lpad105
  call void @_ZNSt7__cxx1112basic_stringIcSt11char_traitsIcESaIcEED1Ev(ptr noundef nonnull align 8 dereferenceable(32) %ref.tmp101) #16
  br label %ehcleanup124

ehcleanup124:                                     ; preds = %ehcleanup123, %lpad103
  call void @_ZNSaIcED1Ev(ptr noundef nonnull align 1 dereferenceable(1) %ref.tmp102) #16
  br label %ehcleanup125

ehcleanup125:                                     ; preds = %ehcleanup124, %lpad98
  call void @_ZNSt8optionalINSt7__cxx1112basic_stringIcSt11char_traitsIcESaIcEEEED2Ev(ptr noundef nonnull align 8 dereferenceable(40) %agg.tmp96) #16
  call void @_ZNSt7__cxx1112basic_stringIcSt11char_traitsIcESaIcEED1Ev(ptr noundef nonnull align 8 dereferenceable(32) %ref.tmp92) #16
  br label %ehcleanup127

ehcleanup127:                                     ; preds = %ehcleanup125, %lpad94
  call void @_ZNSaIcED1Ev(ptr noundef nonnull align 1 dereferenceable(1) %ref.tmp93) #16
  br label %ehcleanup128

ehcleanup128:                                     ; preds = %ehcleanup127, %lpad89
  call void @_ZNSt8optionalINSt7__cxx1112basic_stringIcSt11char_traitsIcESaIcEEEED2Ev(ptr noundef nonnull align 8 dereferenceable(40) %agg.tmp87) #16
  call void @_ZNSt7__cxx1112basic_stringIcSt11char_traitsIcESaIcEED1Ev(ptr noundef nonnull align 8 dereferenceable(32) %ref.tmp83) #16
  br label %ehcleanup130

ehcleanup130:                                     ; preds = %ehcleanup128, %lpad85
  call void @_ZNSaIcED1Ev(ptr noundef nonnull align 1 dereferenceable(1) %ref.tmp84) #16
  call void @_ZN8facebook5velox4exec24FunctionSignatureBuilderD2Ev(ptr noundef nonnull align 8 dereferenceable(225) %ref.tmp82) #16
  br label %ehcleanup132

nrvo.unused:                                      ; preds = %invoke.cont118
  call void @_ZNSt6vectorISt10shared_ptrIN8facebook5velox4exec17FunctionSignatureEESaIS5_EED2Ev(ptr noundef nonnull align 8 dereferenceable(24) %agg.result) #16
  br label %nrvo.skipdtor

nrvo.skipdtor:                                    ; preds = %nrvo.unused, %invoke.cont118
  call void @_ZNSt6vectorINSt7__cxx1112basic_stringIcSt11char_traitsIcESaIcEEESaIS5_EED2Ev(ptr noundef nonnull align 8 dereferenceable(24) %types) #16
  ret void

ehcleanup132:                                     ; preds = %ehcleanup130, %ehcleanup79
  call void @_ZNSt6vectorISt10shared_ptrIN8facebook5velox4exec17FunctionSignatureEESaIS5_EED2Ev(ptr noundef nonnull align 8 dereferenceable(24) %agg.result) #16
  call void @_ZNSt6vectorINSt7__cxx1112basic_stringIcSt11char_traitsIcESaIcEEESaIS5_EED2Ev(ptr noundef nonnull align 8 dereferenceable(24) %types) #16
  br label %eh.resume

eh.resume:                                        ; preds = %ehcleanup132, %cleanup.done
  %exn = load ptr, ptr %exn.slot, align 8
  %sel = load i32, ptr %ehselector.slot, align 4
  %lpad.val = insertvalue { ptr, i32 } poison, ptr %exn, 0
  %lpad.val134 = insertvalue { ptr, i32 } %lpad.val, i32 %sel, 1
  resume { ptr, i32 } %lpad.val134
}

; Function Attrs: mustprogress uwtable
define internal void @_ZSt11make_uniqueIN8facebook5velox9functions12_GLOBAL__N_120ExtremeValueFunctionILb0EEEJEENSt8__detail9_MakeUniqIT_E15__single_objectEDpOT0_(ptr noalias sret(%"class.std::unique_ptr.13") align 8 %agg.result) #0 {
entry:
  %result.ptr = alloca ptr, align 8
  store ptr %agg.result, ptr %result.ptr, align 8
  %call = call noalias noundef nonnull ptr @_Znwm(i64 noundef 8) #17
  call void @llvm.memset.p0.i64(ptr align 8 %call, i8 0, i64 8, i1 false)
  call void @_ZN8facebook5velox9functions12_GLOBAL__N_120ExtremeValueFunctionILb0EEC2Ev(ptr noundef nonnull align 8 dereferenceable(8) %call) #16
  call void @_ZNSt10unique_ptrIN8facebook5velox9functions12_GLOBAL__N_120ExtremeValueFunctionILb0EEESt14default_deleteIS5_EEC2IS7_vEEPS5_(ptr noundef nonnull align 8 dereferenceable(8) %agg.result, ptr noundef %call) #16
  ret void
}

; Function Attrs: mustprogress nounwind uwtable
define internal void @_ZNSt10unique_ptrIN8facebook5velox4exec14VectorFunctionESt14default_deleteIS3_EEC2INS1_9functions12_GLOBAL__N_120ExtremeValueFunctionILb0EEES4_ISB_EvEEOS_IT_T0_E(ptr noundef nonnull align 8 dereferenceable(8) %this, ptr noundef nonnull align 8 dereferenceable(8) %__u) unnamed_addr #2 align 2 personality ptr @__gxx_personality_v0 {
entry:
  %this.addr = alloca ptr, align 8
  %__u.addr = alloca ptr, align 8
  store ptr %this, ptr %this.addr, align 8
  store ptr %__u, ptr %__u.addr, align 8
  %this1 = load ptr, ptr %this.addr, align 8
  %_M_t = getelementptr inbounds %"class.std::unique_ptr", ptr %this1, i32 0, i32 0
  %0 = load ptr, ptr %__u.addr, align 8
  %call = call noundef ptr @_ZNSt10unique_ptrIN8facebook5velox9functions12_GLOBAL__N_120ExtremeValueFunctionILb0EEESt14default_deleteIS5_EE7releaseEv(ptr noundef nonnull align 8 dereferenceable(8) %0) #16
  %1 = load ptr, ptr %__u.addr, align 8
  %call2 = call noundef nonnull align 1 dereferenceable(1) ptr @_ZNSt10unique_ptrIN8facebook5velox9functions12_GLOBAL__N_120ExtremeValueFunctionILb0EEESt14default_deleteIS5_EE11get_deleterEv(ptr noundef nonnull align 8 dereferenceable(8) %1) #16
  invoke void @_ZNSt15__uniq_ptr_dataIN8facebook5velox4exec14VectorFunctionESt14default_deleteIS3_ELb1ELb1EECI2St15__uniq_ptr_implIS3_S5_EIS4_INS1_9functions12_GLOBAL__N_120ExtremeValueFunctionILb0EEEEEEPS3_OT_(ptr noundef nonnull align 8 dereferenceable(8) %_M_t, ptr noundef %call, ptr noundef nonnull align 1 dereferenceable(1) %call2)
          to label %invoke.cont unwind label %terminate.lpad

invoke.cont:                                      ; preds = %entry
  ret void

terminate.lpad:                                   ; preds = %entry
  %2 = landingpad { ptr, i32 }
          catch ptr null
  %3 = extractvalue { ptr, i32 } %2, 0
  call void @__clang_call_terminate(ptr %3) #18
  unreachable
}

; Function Attrs: mustprogress nounwind uwtable
define internal void @_ZNSt10unique_ptrIN8facebook5velox9functions12_GLOBAL__N_120ExtremeValueFunctionILb0EEESt14default_deleteIS5_EED2Ev(ptr noundef nonnull align 8 dereferenceable(8) %this) unnamed_addr #2 align 2 personality ptr @__gxx_personality_v0 {
entry:
  %this.addr = alloca ptr, align 8
  %__ptr = alloca ptr, align 8
  store ptr %this, ptr %this.addr, align 8
  %this1 = load ptr, ptr %this.addr, align 8
  %_M_t = getelementptr inbounds %"class.std::unique_ptr.13", ptr %this1, i32 0, i32 0
  %call = call noundef nonnull align 8 dereferenceable(8) ptr @_ZNSt15__uniq_ptr_implIN8facebook5velox9functions12_GLOBAL__N_120ExtremeValueFunctionILb0EEESt14default_deleteIS5_EE6_M_ptrEv(ptr noundef nonnull align 8 dereferenceable(8) %_M_t) #16
  store ptr %call, ptr %__ptr, align 8
  %0 = load ptr, ptr %__ptr, align 8
  %1 = load ptr, ptr %0, align 8
  %cmp = icmp ne ptr %1, null
  br i1 %cmp, label %if.then, label %if.end

if.then:                                          ; preds = %entry
  %call2 = call noundef nonnull align 1 dereferenceable(1) ptr @_ZNSt10unique_ptrIN8facebook5velox9functions12_GLOBAL__N_120ExtremeValueFunctionILb0EEESt14default_deleteIS5_EE11get_deleterEv(ptr noundef nonnull align 8 dereferenceable(8) %this1) #16
  %2 = load ptr, ptr %__ptr, align 8
  %3 = load ptr, ptr %2, align 8
  invoke void @_ZNKSt14default_deleteIN8facebook5velox9functions12_GLOBAL__N_120ExtremeValueFunctionILb0EEEEclEPS5_(ptr noundef nonnull align 1 dereferenceable(1) %call2, ptr noundef %3)
          to label %invoke.cont unwind label %terminate.lpad

invoke.cont:                                      ; preds = %if.then
  br label %if.end

if.end:                                           ; preds = %invoke.cont, %entry
  %4 = load ptr, ptr %__ptr, align 8
  store ptr null, ptr %4, align 8
  ret void

terminate.lpad:                                   ; preds = %if.then
  %5 = landingpad { ptr, i32 }
          catch ptr null
  %6 = extractvalue { ptr, i32 } %5, 0
  call void @__clang_call_terminate(ptr %6) #18
  unreachable
}

; Function Attrs: nounwind
declare void @_ZNSaIcEC1Ev(ptr noundef nonnull align 1 dereferenceable(1)) unnamed_addr #3

; Function Attrs: mustprogress uwtable
define linkonce_odr void @_ZNSt7__cxx1112basic_stringIcSt11char_traitsIcESaIcEEC2IS3_EEPKcRKS3_(ptr noundef nonnull align 8 dereferenceable(32) %this, ptr noundef %__s, ptr noundef nonnull align 1 dereferenceable(1) %__a) unnamed_addr #0 comdat align 2 personality ptr @__gxx_personality_v0 {
entry:
  %this.addr = alloca ptr, align 8
  %__s.addr = alloca ptr, align 8
  %__a.addr = alloca ptr, align 8
  %exn.slot = alloca ptr, align 8
  %ehselector.slot = alloca i32, align 4
  %__end = alloca ptr, align 8
  store ptr %this, ptr %this.addr, align 8
  store ptr %__s, ptr %__s.addr, align 8
  store ptr %__a, ptr %__a.addr, align 8
  %this1 = load ptr, ptr %this.addr, align 8
  %_M_dataplus = getelementptr inbounds %"class.std::__cxx11::basic_string", ptr %this1, i32 0, i32 0
  %call = call noundef ptr @_ZNSt7__cxx1112basic_stringIcSt11char_traitsIcESaIcEE13_M_local_dataEv(ptr noundef nonnull align 8 dereferenceable(32) %this1)
  %0 = load ptr, ptr %__a.addr, align 8
  call void @_ZNSt7__cxx1112basic_stringIcSt11char_traitsIcESaIcEE12_Alloc_hiderC1EPcRKS3_(ptr noundef nonnull align 8 dereferenceable(8) %_M_dataplus, ptr noundef %call, ptr noundef nonnull align 1 dereferenceable(1) %0)
  %1 = load ptr, ptr %__s.addr, align 8
  %cmp = icmp eq ptr %1, null
  br i1 %cmp, label %if.then, label %if.end

if.then:                                          ; preds = %entry
  invoke void @_ZSt19__throw_logic_errorPKc(ptr noundef @.str.13) #19
          to label %invoke.cont unwind label %lpad

invoke.cont:                                      ; preds = %if.then
  unreachable

lpad:                                             ; preds = %invoke.cont2, %if.end, %if.then
  %2 = landingpad { ptr, i32 }
          cleanup
  %3 = extractvalue { ptr, i32 } %2, 0
  store ptr %3, ptr %exn.slot, align 8
  %4 = extractvalue { ptr, i32 } %2, 1
  store i32 %4, ptr %ehselector.slot, align 4
  call void @_ZNSt7__cxx1112basic_stringIcSt11char_traitsIcESaIcEE12_Alloc_hiderD2Ev(ptr noundef nonnull align 8 dereferenceable(8) %_M_dataplus) #16
  br label %eh.resume

if.end:                                           ; preds = %entry
  %5 = load ptr, ptr %__s.addr, align 8
  %6 = load ptr, ptr %__s.addr, align 8
  %call3 = invoke noundef i64 @_ZNSt11char_traitsIcE6lengthEPKc(ptr noundef %6)
          to label %invoke.cont2 unwind label %lpad

invoke.cont2:                                     ; preds = %if.end
  %add.ptr = getelementptr inbounds i8, ptr %5, i64 %call3
  store ptr %add.ptr, ptr %__end, align 8
  %7 = load ptr, ptr %__s.addr, align 8
  %8 = load ptr, ptr %__end, align 8
  invoke void @_ZNSt7__cxx1112basic_stringIcSt11char_traitsIcESaIcEE12_M_constructIPKcEEvT_S8_St20forward_iterator_tag(ptr noundef nonnull align 8 dereferenceable(32) %this1, ptr noundef %7, ptr noundef %8)
          to label %invoke.cont4 unwind label %lpad

invoke.cont4:                                     ; preds = %invoke.cont2
  ret void

eh.resume:                                        ; preds = %lpad
  %exn = load ptr, ptr %exn.slot, align 8
  %sel = load i32, ptr %ehselector.slot, align 4
  %lpad.val = insertvalue { ptr, i32 } poison, ptr %exn, 0
  %lpad.val5 = insertvalue { ptr, i32 } %lpad.val, i32 %sel, 1
  resume { ptr, i32 } %lpad.val5
}

; Function Attrs: mustprogress nounwind uwtable
define linkonce_odr void @_ZNSaINSt7__cxx1112basic_stringIcSt11char_traitsIcESaIcEEEEC2Ev(ptr noundef nonnull align 1 dereferenceable(1) %this) unnamed_addr #2 comdat align 2 {
entry:
  %this.addr = alloca ptr, align 8
  store ptr %this, ptr %this.addr, align 8
  %this1 = load ptr, ptr %this.addr, align 8
  call void @_ZNSt15__new_allocatorINSt7__cxx1112basic_stringIcSt11char_traitsIcESaIcEEEEC2Ev(ptr noundef nonnull align 1 dereferenceable(1) %this1) #16
  ret void
}

; Function Attrs: mustprogress uwtable
define linkonce_odr void @_ZNSt6vectorINSt7__cxx1112basic_stringIcSt11char_traitsIcESaIcEEESaIS5_EEC2ESt16initializer_listIS5_ERKS6_(ptr noundef nonnull align 8 dereferenceable(24) %this, ptr %__l.coerce0, i64 %__l.coerce1, ptr noundef nonnull align 1 dereferenceable(1) %__a) unnamed_addr #0 comdat align 2 personality ptr @__gxx_personality_v0 {
entry:
  %__l = alloca %"class.std::initializer_list", align 8
  %this.addr = alloca ptr, align 8
  %__a.addr = alloca ptr, align 8
  %exn.slot = alloca ptr, align 8
  %ehselector.slot = alloca i32, align 4
  %0 = getelementptr inbounds { ptr, i64 }, ptr %__l, i32 0, i32 0
  store ptr %__l.coerce0, ptr %0, align 8
  %1 = getelementptr inbounds { ptr, i64 }, ptr %__l, i32 0, i32 1
  store i64 %__l.coerce1, ptr %1, align 8
  store ptr %this, ptr %this.addr, align 8
  store ptr %__a, ptr %__a.addr, align 8
  %this1 = load ptr, ptr %this.addr, align 8
  %2 = load ptr, ptr %__a.addr, align 8
  call void @_ZNSt12_Vector_baseINSt7__cxx1112basic_stringIcSt11char_traitsIcESaIcEEESaIS5_EEC2ERKS6_(ptr noundef nonnull align 8 dereferenceable(24) %this1, ptr noundef nonnull align 1 dereferenceable(1) %2) #16
  %call = call noundef ptr @_ZNKSt16initializer_listINSt7__cxx1112basic_stringIcSt11char_traitsIcESaIcEEEE5beginEv(ptr noundef nonnull align 8 dereferenceable(16) %__l) #16
  %call2 = call noundef ptr @_ZNKSt16initializer_listINSt7__cxx1112basic_stringIcSt11char_traitsIcESaIcEEEE3endEv(ptr noundef nonnull align 8 dereferenceable(16) %__l) #16
  invoke void @_ZNSt6vectorINSt7__cxx1112basic_stringIcSt11char_traitsIcESaIcEEESaIS5_EE19_M_range_initializeIPKS5_EEvT_SB_St20forward_iterator_tag(ptr noundef nonnull align 8 dereferenceable(24) %this1, ptr noundef %call, ptr noundef %call2)
          to label %invoke.cont unwind label %lpad

invoke.cont:                                      ; preds = %entry
  ret void

lpad:                                             ; preds = %entry
  %3 = landingpad { ptr, i32 }
          cleanup
  %4 = extractvalue { ptr, i32 } %3, 0
  store ptr %4, ptr %exn.slot, align 8
  %5 = extractvalue { ptr, i32 } %3, 1
  store i32 %5, ptr %ehselector.slot, align 4
  call void @_ZNSt12_Vector_baseINSt7__cxx1112basic_stringIcSt11char_traitsIcESaIcEEESaIS5_EED2Ev(ptr noundef nonnull align 8 dereferenceable(24) %this1) #16
  br label %eh.resume

eh.resume:                                        ; preds = %lpad
  %exn = load ptr, ptr %exn.slot, align 8
  %sel = load i32, ptr %ehselector.slot, align 4
  %lpad.val = insertvalue { ptr, i32 } poison, ptr %exn, 0
  %lpad.val3 = insertvalue { ptr, i32 } %lpad.val, i32 %sel, 1
  resume { ptr, i32 } %lpad.val3
}

; Function Attrs: mustprogress nounwind uwtable
define linkonce_odr void @_ZNSaINSt7__cxx1112basic_stringIcSt11char_traitsIcESaIcEEEED2Ev(ptr noundef nonnull align 1 dereferenceable(1) %this) unnamed_addr #2 comdat align 2 {
entry:
  %this.addr = alloca ptr, align 8
  store ptr %this, ptr %this.addr, align 8
  %this1 = load ptr, ptr %this.addr, align 8
  call void @_ZNSt15__new_allocatorINSt7__cxx1112basic_stringIcSt11char_traitsIcESaIcEEEED2Ev(ptr noundef nonnull align 1 dereferenceable(1) %this1) #16
  ret void
}

; Function Attrs: nounwind
declare void @_ZNSt7__cxx1112basic_stringIcSt11char_traitsIcESaIcEED1Ev(ptr noundef nonnull align 8 dereferenceable(32)) unnamed_addr #3

; Function Attrs: nounwind
declare void @_ZNSaIcED1Ev(ptr noundef nonnull align 1 dereferenceable(1)) unnamed_addr #3

; Function Attrs: mustprogress nounwind uwtable
define linkonce_odr void @_ZNSt6vectorISt10shared_ptrIN8facebook5velox4exec17FunctionSignatureEESaIS5_EEC2Ev(ptr noundef nonnull align 8 dereferenceable(24) %this) unnamed_addr #2 comdat align 2 {
entry:
  %this.addr = alloca ptr, align 8
  store ptr %this, ptr %this.addr, align 8
  %this1 = load ptr, ptr %this.addr, align 8
  call void @_ZNSt12_Vector_baseISt10shared_ptrIN8facebook5velox4exec17FunctionSignatureEESaIS5_EEC2Ev(ptr noundef nonnull align 8 dereferenceable(24) %this1) #16
  ret void
}

; Function Attrs: mustprogress nounwind uwtable
define linkonce_odr ptr @_ZNKSt6vectorINSt7__cxx1112basic_stringIcSt11char_traitsIcESaIcEEESaIS5_EE5beginEv(ptr noundef nonnull align 8 dereferenceable(24) %this) #2 comdat align 2 {
entry:
  %retval = alloca %"class.__gnu_cxx::__normal_iterator", align 8
  %this.addr = alloca ptr, align 8
  store ptr %this, ptr %this.addr, align 8
  %this1 = load ptr, ptr %this.addr, align 8
  %_M_impl = getelementptr inbounds %"struct.std::_Vector_base.22", ptr %this1, i32 0, i32 0
  %_M_start = getelementptr inbounds %"struct.std::_Vector_base<std::__cxx11::basic_string<char>, std::allocator<std::__cxx11::basic_string<char>>>::_Vector_impl_data", ptr %_M_impl, i32 0, i32 0
  call void @_ZN9__gnu_cxx17__normal_iteratorIPKNSt7__cxx1112basic_stringIcSt11char_traitsIcESaIcEEESt6vectorIS6_SaIS6_EEEC2ERKS8_(ptr noundef nonnull align 8 dereferenceable(8) %retval, ptr noundef nonnull align 8 dereferenceable(8) %_M_start) #16
  %coerce.dive = getelementptr inbounds %"class.__gnu_cxx::__normal_iterator", ptr %retval, i32 0, i32 0
  %0 = load ptr, ptr %coerce.dive, align 8
  ret ptr %0
}

; Function Attrs: mustprogress nounwind uwtable
define linkonce_odr ptr @_ZNKSt6vectorINSt7__cxx1112basic_stringIcSt11char_traitsIcESaIcEEESaIS5_EE3endEv(ptr noundef nonnull align 8 dereferenceable(24) %this) #2 comdat align 2 {
entry:
  %retval = alloca %"class.__gnu_cxx::__normal_iterator", align 8
  %this.addr = alloca ptr, align 8
  store ptr %this, ptr %this.addr, align 8
  %this1 = load ptr, ptr %this.addr, align 8
  %_M_impl = getelementptr inbounds %"struct.std::_Vector_base.22", ptr %this1, i32 0, i32 0
  %_M_finish = getelementptr inbounds %"struct.std::_Vector_base<std::__cxx11::basic_string<char>, std::allocator<std::__cxx11::basic_string<char>>>::_Vector_impl_data", ptr %_M_impl, i32 0, i32 1
  call void @_ZN9__gnu_cxx17__normal_iteratorIPKNSt7__cxx1112basic_stringIcSt11char_traitsIcESaIcEEESt6vectorIS6_SaIS6_EEEC2ERKS8_(ptr noundef nonnull align 8 dereferenceable(8) %retval, ptr noundef nonnull align 8 dereferenceable(8) %_M_finish) #16
  %coerce.dive = getelementptr inbounds %"class.__gnu_cxx::__normal_iterator", ptr %retval, i32 0, i32 0
  %0 = load ptr, ptr %coerce.dive, align 8
  ret ptr %0
}

; Function Attrs: mustprogress nounwind uwtable
define linkonce_odr noundef zeroext i1 @_ZN9__gnu_cxxneIPKNSt7__cxx1112basic_stringIcSt11char_traitsIcESaIcEEESt6vectorIS6_SaIS6_EEEEbRKNS_17__normal_iteratorIT_T0_EESH_(ptr noundef nonnull align 8 dereferenceable(8) %__lhs, ptr noundef nonnull align 8 dereferenceable(8) %__rhs) #2 comdat {
entry:
  %__lhs.addr = alloca ptr, align 8
  %__rhs.addr = alloca ptr, align 8
  store ptr %__lhs, ptr %__lhs.addr, align 8
  store ptr %__rhs, ptr %__rhs.addr, align 8
  %0 = load ptr, ptr %__lhs.addr, align 8
  %call = call noundef nonnull align 8 dereferenceable(8) ptr @_ZNK9__gnu_cxx17__normal_iteratorIPKNSt7__cxx1112basic_stringIcSt11char_traitsIcESaIcEEESt6vectorIS6_SaIS6_EEE4baseEv(ptr noundef nonnull align 8 dereferenceable(8) %0) #16
  %1 = load ptr, ptr %call, align 8
  %2 = load ptr, ptr %__rhs.addr, align 8
  %call1 = call noundef nonnull align 8 dereferenceable(8) ptr @_ZNK9__gnu_cxx17__normal_iteratorIPKNSt7__cxx1112basic_stringIcSt11char_traitsIcESaIcEEESt6vectorIS6_SaIS6_EEE4baseEv(ptr noundef nonnull align 8 dereferenceable(8) %2) #16
  %3 = load ptr, ptr %call1, align 8
  %cmp = icmp ne ptr %1, %3
  ret i1 %cmp
}

; Function Attrs: mustprogress nounwind uwtable
define linkonce_odr noundef nonnull align 8 dereferenceable(32) ptr @_ZNK9__gnu_cxx17__normal_iteratorIPKNSt7__cxx1112basic_stringIcSt11char_traitsIcESaIcEEESt6vectorIS6_SaIS6_EEEdeEv(ptr noundef nonnull align 8 dereferenceable(8) %this) #2 comdat align 2 {
entry:
  %this.addr = alloca ptr, align 8
  store ptr %this, ptr %this.addr, align 8
  %this1 = load ptr, ptr %this.addr, align 8
  %_M_current = getelementptr inbounds %"class.__gnu_cxx::__normal_iterator", ptr %this1, i32 0, i32 0
  %0 = load ptr, ptr %_M_current, align 8
  ret ptr %0
}

; Function Attrs: mustprogress uwtable
define linkonce_odr noundef nonnull align 8 dereferenceable(16) ptr @_ZNSt6vectorISt10shared_ptrIN8facebook5velox4exec17FunctionSignatureEESaIS5_EE12emplace_backIJS5_EEERS5_DpOT_(ptr noundef nonnull align 8 dereferenceable(24) %this, ptr noundef nonnull align 8 dereferenceable(16) %__args) #0 comdat align 2 {
entry:
  %this.addr = alloca ptr, align 8
  %__args.addr = alloca ptr, align 8
  %agg.tmp = alloca %"class.__gnu_cxx::__normal_iterator.52", align 8
  store ptr %this, ptr %this.addr, align 8
  store ptr %__args, ptr %__args.addr, align 8
  %this1 = load ptr, ptr %this.addr, align 8
  %_M_impl = getelementptr inbounds %"struct.std::_Vector_base", ptr %this1, i32 0, i32 0
  %_M_finish = getelementptr inbounds %"struct.std::_Vector_base<std::shared_ptr<facebook::velox::exec::FunctionSignature>, std::allocator<std::shared_ptr<facebook::velox::exec::FunctionSignature>>>::_Vector_impl_data", ptr %_M_impl, i32 0, i32 1
  %0 = load ptr, ptr %_M_finish, align 8
  %_M_impl2 = getelementptr inbounds %"struct.std::_Vector_base", ptr %this1, i32 0, i32 0
  %_M_end_of_storage = getelementptr inbounds %"struct.std::_Vector_base<std::shared_ptr<facebook::velox::exec::FunctionSignature>, std::allocator<std::shared_ptr<facebook::velox::exec::FunctionSignature>>>::_Vector_impl_data", ptr %_M_impl2, i32 0, i32 2
  %1 = load ptr, ptr %_M_end_of_storage, align 8
  %cmp = icmp ne ptr %0, %1
  br i1 %cmp, label %if.then, label %if.else

if.then:                                          ; preds = %entry
  %_M_impl3 = getelementptr inbounds %"struct.std::_Vector_base", ptr %this1, i32 0, i32 0
  %_M_impl4 = getelementptr inbounds %"struct.std::_Vector_base", ptr %this1, i32 0, i32 0
  %_M_finish5 = getelementptr inbounds %"struct.std::_Vector_base<std::shared_ptr<facebook::velox::exec::FunctionSignature>, std::allocator<std::shared_ptr<facebook::velox::exec::FunctionSignature>>>::_Vector_impl_data", ptr %_M_impl4, i32 0, i32 1
  %2 = load ptr, ptr %_M_finish5, align 8
  %3 = load ptr, ptr %__args.addr, align 8
  call void @_ZNSt16allocator_traitsISaISt10shared_ptrIN8facebook5velox4exec17FunctionSignatureEEEE9constructIS5_JS5_EEEvRS6_PT_DpOT0_(ptr noundef nonnull align 1 dereferenceable(1) %_M_impl3, ptr noundef %2, ptr noundef nonnull align 8 dereferenceable(16) %3) #16
  %_M_impl6 = getelementptr inbounds %"struct.std::_Vector_base", ptr %this1, i32 0, i32 0
  %_M_finish7 = getelementptr inbounds %"struct.std::_Vector_base<std::shared_ptr<facebook::velox::exec::FunctionSignature>, std::allocator<std::shared_ptr<facebook::velox::exec::FunctionSignature>>>::_Vector_impl_data", ptr %_M_impl6, i32 0, i32 1
  %4 = load ptr, ptr %_M_finish7, align 8
  %incdec.ptr = getelementptr inbounds %"class.std::shared_ptr", ptr %4, i32 1
  store ptr %incdec.ptr, ptr %_M_finish7, align 8
  br label %if.end

if.else:                                          ; preds = %entry
  %call = call ptr @_ZNSt6vectorISt10shared_ptrIN8facebook5velox4exec17FunctionSignatureEESaIS5_EE3endEv(ptr noundef nonnull align 8 dereferenceable(24) %this1) #16
  %coerce.dive = getelementptr inbounds %"class.__gnu_cxx::__normal_iterator.52", ptr %agg.tmp, i32 0, i32 0
  store ptr %call, ptr %coerce.dive, align 8
  %5 = load ptr, ptr %__args.addr, align 8
  %coerce.dive8 = getelementptr inbounds %"class.__gnu_cxx::__normal_iterator.52", ptr %agg.tmp, i32 0, i32 0
  %6 = load ptr, ptr %coerce.dive8, align 8
  call void @_ZNSt6vectorISt10shared_ptrIN8facebook5velox4exec17FunctionSignatureEESaIS5_EE17_M_realloc_insertIJS5_EEEvN9__gnu_cxx17__normal_iteratorIPS5_S7_EEDpOT_(ptr noundef nonnull align 8 dereferenceable(24) %this1, ptr %6, ptr noundef nonnull align 8 dereferenceable(16) %5)
  br label %if.end

if.end:                                           ; preds = %if.else, %if.then
  %call9 = call noundef nonnull align 8 dereferenceable(16) ptr @_ZNSt6vectorISt10shared_ptrIN8facebook5velox4exec17FunctionSignatureEESaIS5_EE4backEv(ptr noundef nonnull align 8 dereferenceable(24) %this1) #16
  ret ptr %call9
}

; Function Attrs: nocallback nofree nounwind willreturn memory(argmem: write)
declare void @llvm.memset.p0.i64(ptr nocapture writeonly, i8, i64, i1 immarg) #4

; Function Attrs: mustprogress nounwind uwtable
define linkonce_odr void @_ZN8facebook5velox4exec24FunctionSignatureBuilderC2Ev(ptr noundef nonnull align 8 dereferenceable(225) %this) unnamed_addr #2 comdat align 2 {
entry:
  %this.addr = alloca ptr, align 8
  store ptr %this, ptr %this.addr, align 8
  %this1 = load ptr, ptr %this.addr, align 8
  %variables_ = getelementptr inbounds %"class.facebook::velox::exec::FunctionSignatureBuilder", ptr %this1, i32 0, i32 0
  call void @_ZNSt13unordered_mapINSt7__cxx1112basic_stringIcSt11char_traitsIcESaIcEEEN8facebook5velox4exec17SignatureVariableESt4hashIS5_ESt8equal_toIS5_ESaISt4pairIKS5_S9_EEEC2Ev(ptr noundef nonnull align 8 dereferenceable(56) %variables_) #16
  %returnType_ = getelementptr inbounds %"class.facebook::velox::exec::FunctionSignatureBuilder", ptr %this1, i32 0, i32 1
  call void @_ZNSt8optionalIN8facebook5velox4exec13TypeSignatureEEC2Ev(ptr noundef nonnull align 8 dereferenceable(104) %returnType_) #16
  %argumentTypes_ = getelementptr inbounds %"class.facebook::velox::exec::FunctionSignatureBuilder", ptr %this1, i32 0, i32 2
  call void @_ZNSt6vectorIN8facebook5velox4exec13TypeSignatureESaIS3_EEC2Ev(ptr noundef nonnull align 8 dereferenceable(24) %argumentTypes_) #16
  %constantArguments_ = getelementptr inbounds %"class.facebook::velox::exec::FunctionSignatureBuilder", ptr %this1, i32 0, i32 3
  call void @_ZNSt6vectorIbSaIbEEC2Ev(ptr noundef nonnull align 8 dereferenceable(40) %constantArguments_) #16
  %variableArity_ = getelementptr inbounds %"class.facebook::velox::exec::FunctionSignatureBuilder", ptr %this1, i32 0, i32 4
  store i8 0, ptr %variableArity_, align 8
  ret void
}

; Function Attrs: mustprogress uwtable
define linkonce_odr noundef nonnull align 8 dereferenceable(225) ptr @_ZN8facebook5velox4exec24FunctionSignatureBuilder10returnTypeERKNSt7__cxx1112basic_stringIcSt11char_traitsIcESaIcEEE(ptr noundef nonnull align 8 dereferenceable(225) %this, ptr noundef nonnull align 8 dereferenceable(32) %type) #0 comdat align 2 personality ptr @__gxx_personality_v0 {
entry:
  %this.addr = alloca ptr, align 8
  %type.addr = alloca ptr, align 8
  %ref.tmp = alloca %"class.facebook::velox::exec::TypeSignature", align 8
  %exn.slot = alloca ptr, align 8
  %ehselector.slot = alloca i32, align 4
  store ptr %this, ptr %this.addr, align 8
  store ptr %type, ptr %type.addr, align 8
  %this1 = load ptr, ptr %this.addr, align 8
  %returnType_ = getelementptr inbounds %"class.facebook::velox::exec::FunctionSignatureBuilder", ptr %this1, i32 0, i32 1
  %0 = load ptr, ptr %type.addr, align 8
  call void @_ZN8facebook5velox4exec18parseTypeSignatureERKNSt7__cxx1112basic_stringIcSt11char_traitsIcESaIcEEE(ptr sret(%"class.facebook::velox::exec::TypeSignature") align 8 %ref.tmp, ptr noundef nonnull align 8 dereferenceable(32) %0)
  %call = invoke noundef nonnull align 8 dereferenceable(96) ptr @_ZNSt8optionalIN8facebook5velox4exec13TypeSignatureEE7emplaceIJS3_EEENSt9enable_ifIX18is_constructible_vIS3_DpT_EERS3_E4typeEDpOS7_(ptr noundef nonnull align 8 dereferenceable(104) %returnType_, ptr noundef nonnull align 8 dereferenceable(96) %ref.tmp)
          to label %invoke.cont unwind label %lpad

invoke.cont:                                      ; preds = %entry
  call void @_ZN8facebook5velox4exec13TypeSignatureD2Ev(ptr noundef nonnull align 8 dereferenceable(96) %ref.tmp) #16
  ret ptr %this1

lpad:                                             ; preds = %entry
  %1 = landingpad { ptr, i32 }
          cleanup
  %2 = extractvalue { ptr, i32 } %1, 0
  store ptr %2, ptr %exn.slot, align 8
  %3 = extractvalue { ptr, i32 } %1, 1
  store i32 %3, ptr %ehselector.slot, align 4
  call void @_ZN8facebook5velox4exec13TypeSignatureD2Ev(ptr noundef nonnull align 8 dereferenceable(96) %ref.tmp) #16
  br label %eh.resume

eh.resume:                                        ; preds = %lpad
  %exn = load ptr, ptr %exn.slot, align 8
  %sel = load i32, ptr %ehselector.slot, align 4
  %lpad.val = insertvalue { ptr, i32 } poison, ptr %exn, 0
  %lpad.val2 = insertvalue { ptr, i32 } %lpad.val, i32 %sel, 1
  resume { ptr, i32 } %lpad.val2
}

; Function Attrs: mustprogress uwtable
define linkonce_odr noundef nonnull align 8 dereferenceable(225) ptr @_ZN8facebook5velox4exec24FunctionSignatureBuilder12argumentTypeERKNSt7__cxx1112basic_stringIcSt11char_traitsIcESaIcEEE(ptr noundef nonnull align 8 dereferenceable(225) %this, ptr noundef nonnull align 8 dereferenceable(32) %type) #0 comdat align 2 personality ptr @__gxx_personality_v0 {
entry:
  %this.addr = alloca ptr, align 8
  %type.addr = alloca ptr, align 8
  %ref.tmp = alloca %"class.facebook::velox::exec::TypeSignature", align 8
  %exn.slot = alloca ptr, align 8
  %ehselector.slot = alloca i32, align 4
  store ptr %this, ptr %this.addr, align 8
  store ptr %type, ptr %type.addr, align 8
  %this1 = load ptr, ptr %this.addr, align 8
  %argumentTypes_ = getelementptr inbounds %"class.facebook::velox::exec::FunctionSignatureBuilder", ptr %this1, i32 0, i32 2
  %0 = load ptr, ptr %type.addr, align 8
  call void @_ZN8facebook5velox4exec18parseTypeSignatureERKNSt7__cxx1112basic_stringIcSt11char_traitsIcESaIcEEE(ptr sret(%"class.facebook::velox::exec::TypeSignature") align 8 %ref.tmp, ptr noundef nonnull align 8 dereferenceable(32) %0)
  %call = invoke noundef nonnull align 8 dereferenceable(96) ptr @_ZNSt6vectorIN8facebook5velox4exec13TypeSignatureESaIS3_EE12emplace_backIJS3_EEERS3_DpOT_(ptr noundef nonnull align 8 dereferenceable(24) %argumentTypes_, ptr noundef nonnull align 8 dereferenceable(96) %ref.tmp)
          to label %invoke.cont unwind label %lpad

invoke.cont:                                      ; preds = %entry
  call void @_ZN8facebook5velox4exec13TypeSignatureD2Ev(ptr noundef nonnull align 8 dereferenceable(96) %ref.tmp) #16
  %constantArguments_ = getelementptr inbounds %"class.facebook::velox::exec::FunctionSignatureBuilder", ptr %this1, i32 0, i32 3
  call void @_ZNSt6vectorIbSaIbEE9push_backEb(ptr noundef nonnull align 8 dereferenceable(40) %constantArguments_, i1 noundef zeroext false)
  ret ptr %this1

lpad:                                             ; preds = %entry
  %1 = landingpad { ptr, i32 }
          cleanup
  %2 = extractvalue { ptr, i32 } %1, 0
  store ptr %2, ptr %exn.slot, align 8
  %3 = extractvalue { ptr, i32 } %1, 1
  store i32 %3, ptr %ehselector.slot, align 4
  call void @_ZN8facebook5velox4exec13TypeSignatureD2Ev(ptr noundef nonnull align 8 dereferenceable(96) %ref.tmp) #16
  br label %eh.resume

eh.resume:                                        ; preds = %lpad
  %exn = load ptr, ptr %exn.slot, align 8
  %sel = load i32, ptr %ehselector.slot, align 4
  %lpad.val = insertvalue { ptr, i32 } poison, ptr %exn, 0
  %lpad.val2 = insertvalue { ptr, i32 } %lpad.val, i32 %sel, 1
  resume { ptr, i32 } %lpad.val2
}

; Function Attrs: mustprogress nounwind uwtable
define linkonce_odr noundef nonnull align 8 dereferenceable(225) ptr @_ZN8facebook5velox4exec24FunctionSignatureBuilder13variableArityEv(ptr noundef nonnull align 8 dereferenceable(225) %this) #2 comdat align 2 {
entry:
  %this.addr = alloca ptr, align 8
  store ptr %this, ptr %this.addr, align 8
  %this1 = load ptr, ptr %this.addr, align 8
  %variableArity_ = getelementptr inbounds %"class.facebook::velox::exec::FunctionSignatureBuilder", ptr %this1, i32 0, i32 4
  store i8 1, ptr %variableArity_, align 8
  ret ptr %this1
}

declare void @_ZN8facebook5velox4exec24FunctionSignatureBuilder5buildEv(ptr sret(%"class.std::shared_ptr") align 8, ptr noundef nonnull align 8 dereferenceable(225)) #1

; Function Attrs: mustprogress nounwind uwtable
define linkonce_odr void @_ZNSt10shared_ptrIN8facebook5velox4exec17FunctionSignatureEED2Ev(ptr noundef nonnull align 8 dereferenceable(16) %this) unnamed_addr #2 comdat align 2 {
entry:
  %this.addr = alloca ptr, align 8
  store ptr %this, ptr %this.addr, align 8
  %this1 = load ptr, ptr %this.addr, align 8
  call void @_ZNSt12__shared_ptrIN8facebook5velox4exec17FunctionSignatureELN9__gnu_cxx12_Lock_policyE2EED2Ev(ptr noundef nonnull align 8 dereferenceable(16) %this1) #16
  ret void
}

; Function Attrs: mustprogress nounwind uwtable
define linkonce_odr void @_ZN8facebook5velox4exec24FunctionSignatureBuilderD2Ev(ptr noundef nonnull align 8 dereferenceable(225) %this) unnamed_addr #2 comdat align 2 {
entry:
  %this.addr = alloca ptr, align 8
  store ptr %this, ptr %this.addr, align 8
  %this1 = load ptr, ptr %this.addr, align 8
  %constantArguments_ = getelementptr inbounds %"class.facebook::velox::exec::FunctionSignatureBuilder", ptr %this1, i32 0, i32 3
  call void @_ZNSt6vectorIbSaIbEED2Ev(ptr noundef nonnull align 8 dereferenceable(40) %constantArguments_) #16
  %argumentTypes_ = getelementptr inbounds %"class.facebook::velox::exec::FunctionSignatureBuilder", ptr %this1, i32 0, i32 2
  call void @_ZNSt6vectorIN8facebook5velox4exec13TypeSignatureESaIS3_EED2Ev(ptr noundef nonnull align 8 dereferenceable(24) %argumentTypes_) #16
  %returnType_ = getelementptr inbounds %"class.facebook::velox::exec::FunctionSignatureBuilder", ptr %this1, i32 0, i32 1
  call void @_ZNSt8optionalIN8facebook5velox4exec13TypeSignatureEED2Ev(ptr noundef nonnull align 8 dereferenceable(104) %returnType_) #16
  %variables_ = getelementptr inbounds %"class.facebook::velox::exec::FunctionSignatureBuilder", ptr %this1, i32 0, i32 0
  call void @_ZNSt13unordered_mapINSt7__cxx1112basic_stringIcSt11char_traitsIcESaIcEEEN8facebook5velox4exec17SignatureVariableESt4hashIS5_ESt8equal_toIS5_ESaISt4pairIKS5_S9_EEED2Ev(ptr noundef nonnull align 8 dereferenceable(56) %variables_) #16
  ret void
}

; Function Attrs: mustprogress nounwind uwtable
define linkonce_odr noundef nonnull align 8 dereferenceable(8) ptr @_ZN9__gnu_cxx17__normal_iteratorIPKNSt7__cxx1112basic_stringIcSt11char_traitsIcESaIcEEESt6vectorIS6_SaIS6_EEEppEv(ptr noundef nonnull align 8 dereferenceable(8) %this) #2 comdat align 2 {
entry:
  %this.addr = alloca ptr, align 8
  store ptr %this, ptr %this.addr, align 8
  %this1 = load ptr, ptr %this.addr, align 8
  %_M_current = getelementptr inbounds %"class.__gnu_cxx::__normal_iterator", ptr %this1, i32 0, i32 0
  %0 = load ptr, ptr %_M_current, align 8
  %incdec.ptr = getelementptr inbounds %"class.std::__cxx11::basic_string", ptr %0, i32 1
  store ptr %incdec.ptr, ptr %_M_current, align 8
  ret ptr %this1
}

; Function Attrs: mustprogress uwtable
define linkonce_odr noundef nonnull align 8 dereferenceable(225) ptr @_ZN8facebook5velox4exec24FunctionSignatureBuilder15integerVariableERKNSt7__cxx1112basic_stringIcSt11char_traitsIcESaIcEEESt8optionalIS8_E(ptr noundef nonnull align 8 dereferenceable(225) %this, ptr noundef nonnull align 8 dereferenceable(32) %name, ptr noundef %constraint) #0 comdat align 2 personality ptr @__gxx_personality_v0 {
entry:
  %this.addr = alloca ptr, align 8
  %name.addr = alloca ptr, align 8
  %constraint.indirect_addr = alloca ptr, align 8
  %ref.tmp = alloca %"class.facebook::velox::exec::SignatureVariable", align 8
  %agg.tmp = alloca %"class.std::__cxx11::basic_string", align 8
  %agg.tmp2 = alloca %"class.std::optional.37", align 8
  %exn.slot = alloca ptr, align 8
  %ehselector.slot = alloca i32, align 4
  store ptr %this, ptr %this.addr, align 8
  store ptr %name, ptr %name.addr, align 8
  store ptr %constraint, ptr %constraint.indirect_addr, align 8
  %this1 = load ptr, ptr %this.addr, align 8
  %variables_ = getelementptr inbounds %"class.facebook::velox::exec::FunctionSignatureBuilder", ptr %this1, i32 0, i32 0
  %0 = load ptr, ptr %name.addr, align 8
  call void @_ZNSt7__cxx1112basic_stringIcSt11char_traitsIcESaIcEEC1ERKS4_(ptr noundef nonnull align 8 dereferenceable(32) %agg.tmp, ptr noundef nonnull align 8 dereferenceable(32) %0)
  invoke void @_ZNSt8optionalINSt7__cxx1112basic_stringIcSt11char_traitsIcESaIcEEEEC2ERKS6_(ptr noundef nonnull align 8 dereferenceable(40) %agg.tmp2, ptr noundef nonnull align 8 dereferenceable(40) %constraint)
          to label %invoke.cont unwind label %lpad

invoke.cont:                                      ; preds = %entry
  invoke void @_ZN8facebook5velox4exec17SignatureVariableC1ENSt7__cxx1112basic_stringIcSt11char_traitsIcESaIcEEESt8optionalIS8_ENS1_13ParameterTypeEbbb(ptr noundef nonnull align 8 dereferenceable(68) %ref.tmp, ptr noundef %agg.tmp, ptr noundef %agg.tmp2, i8 noundef signext 1, i1 noundef zeroext false, i1 noundef zeroext false, i1 noundef zeroext false)
          to label %invoke.cont4 unwind label %lpad3

invoke.cont4:                                     ; preds = %invoke.cont
  invoke void @_ZN8facebook5velox4exec12_GLOBAL__N_111addVariableERSt13unordered_mapINSt7__cxx1112basic_stringIcSt11char_traitsIcESaIcEEENS1_17SignatureVariableESt4hashIS9_ESt8equal_toIS9_ESaISt4pairIKS9_SA_EEERKSA_(ptr noundef nonnull align 8 dereferenceable(56) %variables_, ptr noundef nonnull align 8 dereferenceable(68) %ref.tmp)
          to label %invoke.cont6 unwind label %lpad5

invoke.cont6:                                     ; preds = %invoke.cont4
  call void @_ZN8facebook5velox4exec17SignatureVariableD2Ev(ptr noundef nonnull align 8 dereferenceable(68) %ref.tmp) #16
  call void @_ZNSt8optionalINSt7__cxx1112basic_stringIcSt11char_traitsIcESaIcEEEED2Ev(ptr noundef nonnull align 8 dereferenceable(40) %agg.tmp2) #16
  call void @_ZNSt7__cxx1112basic_stringIcSt11char_traitsIcESaIcEED1Ev(ptr noundef nonnull align 8 dereferenceable(32) %agg.tmp) #16
  ret ptr %this1

lpad:                                             ; preds = %entry
  %1 = landingpad { ptr, i32 }
          cleanup
  %2 = extractvalue { ptr, i32 } %1, 0
  store ptr %2, ptr %exn.slot, align 8
  %3 = extractvalue { ptr, i32 } %1, 1
  store i32 %3, ptr %ehselector.slot, align 4
  br label %ehcleanup7

lpad3:                                            ; preds = %invoke.cont
  %4 = landingpad { ptr, i32 }
          cleanup
  %5 = extractvalue { ptr, i32 } %4, 0
  store ptr %5, ptr %exn.slot, align 8
  %6 = extractvalue { ptr, i32 } %4, 1
  store i32 %6, ptr %ehselector.slot, align 4
  br label %ehcleanup

lpad5:                                            ; preds = %invoke.cont4
  %7 = landingpad { ptr, i32 }
          cleanup
  %8 = extractvalue { ptr, i32 } %7, 0
  store ptr %8, ptr %exn.slot, align 8
  %9 = extractvalue { ptr, i32 } %7, 1
  store i32 %9, ptr %ehselector.slot, align 4
  call void @_ZN8facebook5velox4exec17SignatureVariableD2Ev(ptr noundef nonnull align 8 dereferenceable(68) %ref.tmp) #16
  br label %ehcleanup

ehcleanup:                                        ; preds = %lpad5, %lpad3
  call void @_ZNSt8optionalINSt7__cxx1112basic_stringIcSt11char_traitsIcESaIcEEEED2Ev(ptr noundef nonnull align 8 dereferenceable(40) %agg.tmp2) #16
  br label %ehcleanup7

ehcleanup7:                                       ; preds = %ehcleanup, %lpad
  call void @_ZNSt7__cxx1112basic_stringIcSt11char_traitsIcESaIcEED1Ev(ptr noundef nonnull align 8 dereferenceable(32) %agg.tmp) #16
  br label %eh.resume

eh.resume:                                        ; preds = %ehcleanup7
  %exn = load ptr, ptr %exn.slot, align 8
  %sel = load i32, ptr %ehselector.slot, align 4
  %lpad.val = insertvalue { ptr, i32 } poison, ptr %exn, 0
  %lpad.val8 = insertvalue { ptr, i32 } %lpad.val, i32 %sel, 1
  resume { ptr, i32 } %lpad.val8
}

; Function Attrs: mustprogress nounwind uwtable
define linkonce_odr void @_ZNSt8optionalINSt7__cxx1112basic_stringIcSt11char_traitsIcESaIcEEEEC2ESt9nullopt_t(ptr noundef nonnull align 8 dereferenceable(40) %this) unnamed_addr #2 comdat align 2 {
entry:
  %this.addr = alloca ptr, align 8
  store ptr %this, ptr %this.addr, align 8
  %this1 = load ptr, ptr %this.addr, align 8
  call void @_ZNSt14_Optional_baseINSt7__cxx1112basic_stringIcSt11char_traitsIcESaIcEEELb0ELb0EEC2Ev(ptr noundef nonnull align 8 dereferenceable(40) %this1) #16
  ret void
}

; Function Attrs: mustprogress nounwind uwtable
define linkonce_odr void @_ZNSt8optionalINSt7__cxx1112basic_stringIcSt11char_traitsIcESaIcEEEED2Ev(ptr noundef nonnull align 8 dereferenceable(40) %this) unnamed_addr #2 comdat align 2 {
entry:
  %this.addr = alloca ptr, align 8
  store ptr %this, ptr %this.addr, align 8
  %this1 = load ptr, ptr %this.addr, align 8
  call void @_ZNSt14_Optional_baseINSt7__cxx1112basic_stringIcSt11char_traitsIcESaIcEEELb0ELb0EED2Ev(ptr noundef nonnull align 8 dereferenceable(40) %this1) #16
  ret void
}

; Function Attrs: mustprogress nounwind uwtable
define linkonce_odr void @_ZNSt6vectorINSt7__cxx1112basic_stringIcSt11char_traitsIcESaIcEEESaIS5_EED2Ev(ptr noundef nonnull align 8 dereferenceable(24) %this) unnamed_addr #2 comdat align 2 personality ptr @__gxx_personality_v0 {
entry:
  %this.addr = alloca ptr, align 8
  store ptr %this, ptr %this.addr, align 8
  %this1 = load ptr, ptr %this.addr, align 8
  %_M_impl = getelementptr inbounds %"struct.std::_Vector_base.22", ptr %this1, i32 0, i32 0
  %_M_start = getelementptr inbounds %"struct.std::_Vector_base<std::__cxx11::basic_string<char>, std::allocator<std::__cxx11::basic_string<char>>>::_Vector_impl_data", ptr %_M_impl, i32 0, i32 0
  %0 = load ptr, ptr %_M_start, align 8
  %_M_impl2 = getelementptr inbounds %"struct.std::_Vector_base.22", ptr %this1, i32 0, i32 0
  %_M_finish = getelementptr inbounds %"struct.std::_Vector_base<std::__cxx11::basic_string<char>, std::allocator<std::__cxx11::basic_string<char>>>::_Vector_impl_data", ptr %_M_impl2, i32 0, i32 1
  %1 = load ptr, ptr %_M_finish, align 8
  %call = call noundef nonnull align 1 dereferenceable(1) ptr @_ZNSt12_Vector_baseINSt7__cxx1112basic_stringIcSt11char_traitsIcESaIcEEESaIS5_EE19_M_get_Tp_allocatorEv(ptr noundef nonnull align 8 dereferenceable(24) %this1) #16
  invoke void @_ZSt8_DestroyIPNSt7__cxx1112basic_stringIcSt11char_traitsIcESaIcEEES5_EvT_S7_RSaIT0_E(ptr noundef %0, ptr noundef %1, ptr noundef nonnull align 1 dereferenceable(1) %call)
          to label %invoke.cont unwind label %terminate.lpad

invoke.cont:                                      ; preds = %entry
  call void @_ZNSt12_Vector_baseINSt7__cxx1112basic_stringIcSt11char_traitsIcESaIcEEESaIS5_EED2Ev(ptr noundef nonnull align 8 dereferenceable(24) %this1) #16
  ret void

terminate.lpad:                                   ; preds = %entry
  %2 = landingpad { ptr, i32 }
          catch ptr null
  %3 = extractvalue { ptr, i32 } %2, 0
  call void @__clang_call_terminate(ptr %3) #18
  unreachable
}

declare noundef ptr @_ZNSt7__cxx1112basic_stringIcSt11char_traitsIcESaIcEE13_M_local_dataEv(ptr noundef nonnull align 8 dereferenceable(32)) #1

declare void @_ZNSt7__cxx1112basic_stringIcSt11char_traitsIcESaIcEE12_Alloc_hiderC1EPcRKS3_(ptr noundef nonnull align 8 dereferenceable(8), ptr noundef, ptr noundef nonnull align 1 dereferenceable(1)) unnamed_addr #1

; Function Attrs: noreturn
declare void @_ZSt19__throw_logic_errorPKc(ptr noundef) #5

; Function Attrs: mustprogress nounwind uwtable
define linkonce_odr noundef i64 @_ZNSt11char_traitsIcE6lengthEPKc(ptr noundef %__s) #2 comdat align 2 {
entry:
  %__s.addr = alloca ptr, align 8
  store ptr %__s, ptr %__s.addr, align 8
  %0 = load ptr, ptr %__s.addr, align 8
  %call = call i64 @strlen(ptr noundef %0) #16
  ret i64 %call
}

; Function Attrs: mustprogress uwtable
define linkonce_odr void @_ZNSt7__cxx1112basic_stringIcSt11char_traitsIcESaIcEE12_M_constructIPKcEEvT_S8_St20forward_iterator_tag(ptr noundef nonnull align 8 dereferenceable(32) %this, ptr noundef %__beg, ptr noundef %__end) #0 comdat align 2 personality ptr @__gxx_personality_v0 {
entry:
  %this.addr.i = alloca ptr, align 8
  %this.addr = alloca ptr, align 8
  %__beg.addr = alloca ptr, align 8
  %__end.addr = alloca ptr, align 8
  %__dnew = alloca i64, align 8
  %__guard = alloca %struct._Guard, align 8
  %exn.slot = alloca ptr, align 8
  %ehselector.slot = alloca i32, align 4
  store ptr %this, ptr %this.addr, align 8
  store ptr %__beg, ptr %__beg.addr, align 8
  store ptr %__end, ptr %__end.addr, align 8
  %this1 = load ptr, ptr %this.addr, align 8
  %0 = load ptr, ptr %__beg.addr, align 8
  %1 = load ptr, ptr %__end.addr, align 8
  %call = call noundef i64 @_ZSt8distanceIPKcENSt15iterator_traitsIT_E15difference_typeES3_S3_(ptr noundef %0, ptr noundef %1)
  store i64 %call, ptr %__dnew, align 8
  %2 = load i64, ptr %__dnew, align 8
  %cmp = icmp ugt i64 %2, 15
  br i1 %cmp, label %if.then, label %if.else

if.then:                                          ; preds = %entry
  %call2 = call noundef ptr @_ZNSt7__cxx1112basic_stringIcSt11char_traitsIcESaIcEE9_M_createERmm(ptr noundef nonnull align 8 dereferenceable(32) %this1, ptr noundef nonnull align 8 dereferenceable(8) %__dnew, i64 noundef 0)
  call void @_ZNSt7__cxx1112basic_stringIcSt11char_traitsIcESaIcEE7_M_dataEPc(ptr noundef nonnull align 8 dereferenceable(32) %this1, ptr noundef %call2)
  %3 = load i64, ptr %__dnew, align 8
  call void @_ZNSt7__cxx1112basic_stringIcSt11char_traitsIcESaIcEE11_M_capacityEm(ptr noundef nonnull align 8 dereferenceable(32) %this1, i64 noundef %3)
  br label %if.end

if.else:                                          ; preds = %entry
  store ptr %this1, ptr %this.addr.i, align 8
  %this1.i = load ptr, ptr %this.addr.i, align 8
  %call.i = invoke noundef ptr @_ZNSt7__cxx1112basic_stringIcSt11char_traitsIcESaIcEE13_M_local_dataEv(ptr noundef nonnull align 8 dereferenceable(32) %this1.i)
          to label %_ZNSt7__cxx1112basic_stringIcSt11char_traitsIcESaIcEE17_M_use_local_dataEv.exit unwind label %terminate.lpad.i

terminate.lpad.i:                                 ; preds = %if.else
  %4 = landingpad { ptr, i32 }
          catch ptr null
  %5 = extractvalue { ptr, i32 } %4, 0
  call void @__clang_call_terminate(ptr %5) #18
  unreachable

_ZNSt7__cxx1112basic_stringIcSt11char_traitsIcESaIcEE17_M_use_local_dataEv.exit: ; preds = %if.else
  br label %if.end

if.end:                                           ; preds = %_ZNSt7__cxx1112basic_stringIcSt11char_traitsIcESaIcEE17_M_use_local_dataEv.exit, %if.then
  call void @_ZZNSt7__cxx1112basic_stringIcSt11char_traitsIcESaIcEE12_M_constructIPKcEEvT_S8_St20forward_iterator_tagEN6_GuardC2EPS4_(ptr noundef nonnull align 8 dereferenceable(8) %__guard, ptr noundef %this1)
  %call4 = invoke noundef ptr @_ZNKSt7__cxx1112basic_stringIcSt11char_traitsIcESaIcEE7_M_dataEv(ptr noundef nonnull align 8 dereferenceable(32) %this1)
          to label %invoke.cont unwind label %lpad

invoke.cont:                                      ; preds = %if.end
  %6 = load ptr, ptr %__beg.addr, align 8
  %7 = load ptr, ptr %__end.addr, align 8
  call void @_ZNSt7__cxx1112basic_stringIcSt11char_traitsIcESaIcEE13_S_copy_charsEPcPKcS7_(ptr noundef %call4, ptr noundef %6, ptr noundef %7) #16
  %_M_guarded = getelementptr inbounds %struct._Guard, ptr %__guard, i32 0, i32 0
  store ptr null, ptr %_M_guarded, align 8
  %8 = load i64, ptr %__dnew, align 8
  invoke void @_ZNSt7__cxx1112basic_stringIcSt11char_traitsIcESaIcEE13_M_set_lengthEm(ptr noundef nonnull align 8 dereferenceable(32) %this1, i64 noundef %8)
          to label %invoke.cont5 unwind label %lpad

invoke.cont5:                                     ; preds = %invoke.cont
  call void @_ZZNSt7__cxx1112basic_stringIcSt11char_traitsIcESaIcEE12_M_constructIPKcEEvT_S8_St20forward_iterator_tagEN6_GuardD2Ev(ptr noundef nonnull align 8 dereferenceable(8) %__guard) #16
  ret void

lpad:                                             ; preds = %invoke.cont, %if.end
  %9 = landingpad { ptr, i32 }
          cleanup
  %10 = extractvalue { ptr, i32 } %9, 0
  store ptr %10, ptr %exn.slot, align 8
  %11 = extractvalue { ptr, i32 } %9, 1
  store i32 %11, ptr %ehselector.slot, align 4
  call void @_ZZNSt7__cxx1112basic_stringIcSt11char_traitsIcESaIcEE12_M_constructIPKcEEvT_S8_St20forward_iterator_tagEN6_GuardD2Ev(ptr noundef nonnull align 8 dereferenceable(8) %__guard) #16
  br label %eh.resume

eh.resume:                                        ; preds = %lpad
  %exn = load ptr, ptr %exn.slot, align 8
  %sel = load i32, ptr %ehselector.slot, align 4
  %lpad.val = insertvalue { ptr, i32 } poison, ptr %exn, 0
  %lpad.val6 = insertvalue { ptr, i32 } %lpad.val, i32 %sel, 1
  resume { ptr, i32 } %lpad.val6
}

; Function Attrs: mustprogress nounwind uwtable
define linkonce_odr void @_ZNSt7__cxx1112basic_stringIcSt11char_traitsIcESaIcEE12_Alloc_hiderD2Ev(ptr noundef nonnull align 8 dereferenceable(8) %this) unnamed_addr #2 comdat align 2 {
entry:
  %this.addr = alloca ptr, align 8
  store ptr %this, ptr %this.addr, align 8
  %this1 = load ptr, ptr %this.addr, align 8
  call void @_ZNSaIcED2Ev(ptr noundef nonnull align 1 dereferenceable(1) %this1) #16
  ret void
}

; Function Attrs: nounwind
declare i64 @strlen(ptr noundef) #3

; Function Attrs: mustprogress uwtable
define linkonce_odr noundef i64 @_ZSt8distanceIPKcENSt15iterator_traitsIT_E15difference_typeES3_S3_(ptr noundef %__first, ptr noundef %__last) #0 comdat {
entry:
  %__first.addr = alloca ptr, align 8
  %__last.addr = alloca ptr, align 8
  store ptr %__first, ptr %__first.addr, align 8
  store ptr %__last, ptr %__last.addr, align 8
  %0 = load ptr, ptr %__first.addr, align 8
  %1 = load ptr, ptr %__last.addr, align 8
  call void @_ZSt19__iterator_categoryIPKcENSt15iterator_traitsIT_E17iterator_categoryERKS3_(ptr noundef nonnull align 8 dereferenceable(8) %__first.addr)
  %call = call noundef i64 @_ZSt10__distanceIPKcENSt15iterator_traitsIT_E15difference_typeES3_S3_St26random_access_iterator_tag(ptr noundef %0, ptr noundef %1)
  ret i64 %call
}

declare void @_ZNSt7__cxx1112basic_stringIcSt11char_traitsIcESaIcEE7_M_dataEPc(ptr noundef nonnull align 8 dereferenceable(32), ptr noundef) #1

declare noundef ptr @_ZNSt7__cxx1112basic_stringIcSt11char_traitsIcESaIcEE9_M_createERmm(ptr noundef nonnull align 8 dereferenceable(32), ptr noundef nonnull align 8 dereferenceable(8), i64 noundef) #1

declare void @_ZNSt7__cxx1112basic_stringIcSt11char_traitsIcESaIcEE11_M_capacityEm(ptr noundef nonnull align 8 dereferenceable(32), i64 noundef) #1

; Function Attrs: mustprogress nounwind uwtable
define linkonce_odr void @_ZZNSt7__cxx1112basic_stringIcSt11char_traitsIcESaIcEE12_M_constructIPKcEEvT_S8_St20forward_iterator_tagEN6_GuardC2EPS4_(ptr noundef nonnull align 8 dereferenceable(8) %this, ptr noundef %__s) unnamed_addr #2 comdat align 2 {
entry:
  %this.addr = alloca ptr, align 8
  %__s.addr = alloca ptr, align 8
  store ptr %this, ptr %this.addr, align 8
  store ptr %__s, ptr %__s.addr, align 8
  %this1 = load ptr, ptr %this.addr, align 8
  %_M_guarded = getelementptr inbounds %struct._Guard, ptr %this1, i32 0, i32 0
  %0 = load ptr, ptr %__s.addr, align 8
  store ptr %0, ptr %_M_guarded, align 8
  ret void
}

; Function Attrs: nounwind
declare void @_ZNSt7__cxx1112basic_stringIcSt11char_traitsIcESaIcEE13_S_copy_charsEPcPKcS7_(ptr noundef, ptr noundef, ptr noundef) #3

declare noundef ptr @_ZNKSt7__cxx1112basic_stringIcSt11char_traitsIcESaIcEE7_M_dataEv(ptr noundef nonnull align 8 dereferenceable(32)) #1

declare void @_ZNSt7__cxx1112basic_stringIcSt11char_traitsIcESaIcEE13_M_set_lengthEm(ptr noundef nonnull align 8 dereferenceable(32), i64 noundef) #1

; Function Attrs: mustprogress nounwind uwtable
define linkonce_odr void @_ZZNSt7__cxx1112basic_stringIcSt11char_traitsIcESaIcEE12_M_constructIPKcEEvT_S8_St20forward_iterator_tagEN6_GuardD2Ev(ptr noundef nonnull align 8 dereferenceable(8) %this) unnamed_addr #2 comdat align 2 personality ptr @__gxx_personality_v0 {
entry:
  %this.addr = alloca ptr, align 8
  store ptr %this, ptr %this.addr, align 8
  %this1 = load ptr, ptr %this.addr, align 8
  %_M_guarded = getelementptr inbounds %struct._Guard, ptr %this1, i32 0, i32 0
  %0 = load ptr, ptr %_M_guarded, align 8
  %tobool = icmp ne ptr %0, null
  br i1 %tobool, label %if.then, label %if.end

if.then:                                          ; preds = %entry
  %_M_guarded2 = getelementptr inbounds %struct._Guard, ptr %this1, i32 0, i32 0
  %1 = load ptr, ptr %_M_guarded2, align 8
  invoke void @_ZNSt7__cxx1112basic_stringIcSt11char_traitsIcESaIcEE10_M_disposeEv(ptr noundef nonnull align 8 dereferenceable(32) %1)
          to label %invoke.cont unwind label %terminate.lpad

invoke.cont:                                      ; preds = %if.then
  br label %if.end

if.end:                                           ; preds = %invoke.cont, %entry
  ret void

terminate.lpad:                                   ; preds = %if.then
  %2 = landingpad { ptr, i32 }
          catch ptr null
  %3 = extractvalue { ptr, i32 } %2, 0
  call void @__clang_call_terminate(ptr %3) #18
  unreachable
}

; Function Attrs: mustprogress nounwind uwtable
define linkonce_odr noundef i64 @_ZSt10__distanceIPKcENSt15iterator_traitsIT_E15difference_typeES3_S3_St26random_access_iterator_tag(ptr noundef %__first, ptr noundef %__last) #2 comdat {
entry:
  %__first.addr = alloca ptr, align 8
  %__last.addr = alloca ptr, align 8
  store ptr %__first, ptr %__first.addr, align 8
  store ptr %__last, ptr %__last.addr, align 8
  %0 = load ptr, ptr %__last.addr, align 8
  %1 = load ptr, ptr %__first.addr, align 8
  %sub.ptr.lhs.cast = ptrtoint ptr %0 to i64
  %sub.ptr.rhs.cast = ptrtoint ptr %1 to i64
  %sub.ptr.sub = sub i64 %sub.ptr.lhs.cast, %sub.ptr.rhs.cast
  ret i64 %sub.ptr.sub
}

; Function Attrs: mustprogress nounwind uwtable
define linkonce_odr void @_ZSt19__iterator_categoryIPKcENSt15iterator_traitsIT_E17iterator_categoryERKS3_(ptr noundef nonnull align 8 dereferenceable(8) %0) #2 comdat {
entry:
  %.addr = alloca ptr, align 8
  store ptr %0, ptr %.addr, align 8
  ret void
}

; Function Attrs: noreturn nounwind uwtable
define linkonce_odr hidden void @__clang_call_terminate(ptr noundef %0) #6 comdat {
  %2 = call ptr @__cxa_begin_catch(ptr %0) #16
  call void @_ZSt9terminatev() #18
  unreachable
}

declare ptr @__cxa_begin_catch(ptr)

declare void @_ZSt9terminatev()

declare void @_ZNSt7__cxx1112basic_stringIcSt11char_traitsIcESaIcEE10_M_disposeEv(ptr noundef nonnull align 8 dereferenceable(32)) #1

; Function Attrs: nounwind
declare void @_ZNSaIcED2Ev(ptr noundef nonnull align 1 dereferenceable(1)) unnamed_addr #3

; Function Attrs: mustprogress nounwind uwtable
define linkonce_odr void @_ZNSt15__new_allocatorINSt7__cxx1112basic_stringIcSt11char_traitsIcESaIcEEEEC2Ev(ptr noundef nonnull align 1 dereferenceable(1) %this) unnamed_addr #2 comdat align 2 {
entry:
  %this.addr = alloca ptr, align 8
  store ptr %this, ptr %this.addr, align 8
  ret void
}

; Function Attrs: mustprogress nounwind uwtable
define linkonce_odr void @_ZNSt12_Vector_baseINSt7__cxx1112basic_stringIcSt11char_traitsIcESaIcEEESaIS5_EEC2ERKS6_(ptr noundef nonnull align 8 dereferenceable(24) %this, ptr noundef nonnull align 1 dereferenceable(1) %__a) unnamed_addr #2 comdat align 2 {
entry:
  %this.addr = alloca ptr, align 8
  %__a.addr = alloca ptr, align 8
  store ptr %this, ptr %this.addr, align 8
  store ptr %__a, ptr %__a.addr, align 8
  %this1 = load ptr, ptr %this.addr, align 8
  %_M_impl = getelementptr inbounds %"struct.std::_Vector_base.22", ptr %this1, i32 0, i32 0
  %0 = load ptr, ptr %__a.addr, align 8
  call void @_ZNSt12_Vector_baseINSt7__cxx1112basic_stringIcSt11char_traitsIcESaIcEEESaIS5_EE12_Vector_implC2ERKS6_(ptr noundef nonnull align 8 dereferenceable(24) %_M_impl, ptr noundef nonnull align 1 dereferenceable(1) %0) #16
  ret void
}

; Function Attrs: mustprogress uwtable
define linkonce_odr void @_ZNSt6vectorINSt7__cxx1112basic_stringIcSt11char_traitsIcESaIcEEESaIS5_EE19_M_range_initializeIPKS5_EEvT_SB_St20forward_iterator_tag(ptr noundef nonnull align 8 dereferenceable(24) %this, ptr noundef %__first, ptr noundef %__last) #0 comdat align 2 {
entry:
  %this.addr = alloca ptr, align 8
  %__first.addr = alloca ptr, align 8
  %__last.addr = alloca ptr, align 8
  %__n = alloca i64, align 8
  store ptr %this, ptr %this.addr, align 8
  store ptr %__first, ptr %__first.addr, align 8
  store ptr %__last, ptr %__last.addr, align 8
  %this1 = load ptr, ptr %this.addr, align 8
  %0 = load ptr, ptr %__first.addr, align 8
  %1 = load ptr, ptr %__last.addr, align 8
  %call = call noundef i64 @_ZSt8distanceIPKNSt7__cxx1112basic_stringIcSt11char_traitsIcESaIcEEEENSt15iterator_traitsIT_E15difference_typeES9_S9_(ptr noundef %0, ptr noundef %1)
  store i64 %call, ptr %__n, align 8
  %2 = load i64, ptr %__n, align 8
  %call2 = call noundef nonnull align 1 dereferenceable(1) ptr @_ZNSt12_Vector_baseINSt7__cxx1112basic_stringIcSt11char_traitsIcESaIcEEESaIS5_EE19_M_get_Tp_allocatorEv(ptr noundef nonnull align 8 dereferenceable(24) %this1) #16
  %call3 = call noundef i64 @_ZNSt6vectorINSt7__cxx1112basic_stringIcSt11char_traitsIcESaIcEEESaIS5_EE17_S_check_init_lenEmRKS6_(i64 noundef %2, ptr noundef nonnull align 1 dereferenceable(1) %call2)
  %call4 = call noundef ptr @_ZNSt12_Vector_baseINSt7__cxx1112basic_stringIcSt11char_traitsIcESaIcEEESaIS5_EE11_M_allocateEm(ptr noundef nonnull align 8 dereferenceable(24) %this1, i64 noundef %call3)
  %_M_impl = getelementptr inbounds %"struct.std::_Vector_base.22", ptr %this1, i32 0, i32 0
  %_M_start = getelementptr inbounds %"struct.std::_Vector_base<std::__cxx11::basic_string<char>, std::allocator<std::__cxx11::basic_string<char>>>::_Vector_impl_data", ptr %_M_impl, i32 0, i32 0
  store ptr %call4, ptr %_M_start, align 8
  %_M_impl5 = getelementptr inbounds %"struct.std::_Vector_base.22", ptr %this1, i32 0, i32 0
  %_M_start6 = getelementptr inbounds %"struct.std::_Vector_base<std::__cxx11::basic_string<char>, std::allocator<std::__cxx11::basic_string<char>>>::_Vector_impl_data", ptr %_M_impl5, i32 0, i32 0
  %3 = load ptr, ptr %_M_start6, align 8
  %4 = load i64, ptr %__n, align 8
  %add.ptr = getelementptr inbounds %"class.std::__cxx11::basic_string", ptr %3, i64 %4
  %_M_impl7 = getelementptr inbounds %"struct.std::_Vector_base.22", ptr %this1, i32 0, i32 0
  %_M_end_of_storage = getelementptr inbounds %"struct.std::_Vector_base<std::__cxx11::basic_string<char>, std::allocator<std::__cxx11::basic_string<char>>>::_Vector_impl_data", ptr %_M_impl7, i32 0, i32 2
  store ptr %add.ptr, ptr %_M_end_of_storage, align 8
  %5 = load ptr, ptr %__first.addr, align 8
  %6 = load ptr, ptr %__last.addr, align 8
  %_M_impl8 = getelementptr inbounds %"struct.std::_Vector_base.22", ptr %this1, i32 0, i32 0
  %_M_start9 = getelementptr inbounds %"struct.std::_Vector_base<std::__cxx11::basic_string<char>, std::allocator<std::__cxx11::basic_string<char>>>::_Vector_impl_data", ptr %_M_impl8, i32 0, i32 0
  %7 = load ptr, ptr %_M_start9, align 8
  %call10 = call noundef nonnull align 1 dereferenceable(1) ptr @_ZNSt12_Vector_baseINSt7__cxx1112basic_stringIcSt11char_traitsIcESaIcEEESaIS5_EE19_M_get_Tp_allocatorEv(ptr noundef nonnull align 8 dereferenceable(24) %this1) #16
  %call11 = call noundef ptr @_ZSt22__uninitialized_copy_aIPKNSt7__cxx1112basic_stringIcSt11char_traitsIcESaIcEEEPS5_S5_ET0_T_SA_S9_RSaIT1_E(ptr noundef %5, ptr noundef %6, ptr noundef %7, ptr noundef nonnull align 1 dereferenceable(1) %call10)
  %_M_impl12 = getelementptr inbounds %"struct.std::_Vector_base.22", ptr %this1, i32 0, i32 0
  %_M_finish = getelementptr inbounds %"struct.std::_Vector_base<std::__cxx11::basic_string<char>, std::allocator<std::__cxx11::basic_string<char>>>::_Vector_impl_data", ptr %_M_impl12, i32 0, i32 1
  store ptr %call11, ptr %_M_finish, align 8
  ret void
}

; Function Attrs: mustprogress nounwind uwtable
define linkonce_odr noundef ptr @_ZNKSt16initializer_listINSt7__cxx1112basic_stringIcSt11char_traitsIcESaIcEEEE5beginEv(ptr noundef nonnull align 8 dereferenceable(16) %this) #2 comdat align 2 {
entry:
  %this.addr = alloca ptr, align 8
  store ptr %this, ptr %this.addr, align 8
  %this1 = load ptr, ptr %this.addr, align 8
  %_M_array = getelementptr inbounds %"class.std::initializer_list", ptr %this1, i32 0, i32 0
  %0 = load ptr, ptr %_M_array, align 8
  ret ptr %0
}

; Function Attrs: mustprogress nounwind uwtable
define linkonce_odr noundef ptr @_ZNKSt16initializer_listINSt7__cxx1112basic_stringIcSt11char_traitsIcESaIcEEEE3endEv(ptr noundef nonnull align 8 dereferenceable(16) %this) #2 comdat align 2 {
entry:
  %this.addr = alloca ptr, align 8
  store ptr %this, ptr %this.addr, align 8
  %this1 = load ptr, ptr %this.addr, align 8
  %call = call noundef ptr @_ZNKSt16initializer_listINSt7__cxx1112basic_stringIcSt11char_traitsIcESaIcEEEE5beginEv(ptr noundef nonnull align 8 dereferenceable(16) %this1) #16
  %call2 = call noundef i64 @_ZNKSt16initializer_listINSt7__cxx1112basic_stringIcSt11char_traitsIcESaIcEEEE4sizeEv(ptr noundef nonnull align 8 dereferenceable(16) %this1) #16
  %add.ptr = getelementptr inbounds %"class.std::__cxx11::basic_string", ptr %call, i64 %call2
  ret ptr %add.ptr
}

; Function Attrs: mustprogress nounwind uwtable
define linkonce_odr void @_ZNSt12_Vector_baseINSt7__cxx1112basic_stringIcSt11char_traitsIcESaIcEEESaIS5_EED2Ev(ptr noundef nonnull align 8 dereferenceable(24) %this) unnamed_addr #2 comdat align 2 personality ptr @__gxx_personality_v0 {
entry:
  %this.addr = alloca ptr, align 8
  store ptr %this, ptr %this.addr, align 8
  %this1 = load ptr, ptr %this.addr, align 8
  %_M_impl = getelementptr inbounds %"struct.std::_Vector_base.22", ptr %this1, i32 0, i32 0
  %_M_start = getelementptr inbounds %"struct.std::_Vector_base<std::__cxx11::basic_string<char>, std::allocator<std::__cxx11::basic_string<char>>>::_Vector_impl_data", ptr %_M_impl, i32 0, i32 0
  %0 = load ptr, ptr %_M_start, align 8
  %_M_impl2 = getelementptr inbounds %"struct.std::_Vector_base.22", ptr %this1, i32 0, i32 0
  %_M_end_of_storage = getelementptr inbounds %"struct.std::_Vector_base<std::__cxx11::basic_string<char>, std::allocator<std::__cxx11::basic_string<char>>>::_Vector_impl_data", ptr %_M_impl2, i32 0, i32 2
  %1 = load ptr, ptr %_M_end_of_storage, align 8
  %_M_impl3 = getelementptr inbounds %"struct.std::_Vector_base.22", ptr %this1, i32 0, i32 0
  %_M_start4 = getelementptr inbounds %"struct.std::_Vector_base<std::__cxx11::basic_string<char>, std::allocator<std::__cxx11::basic_string<char>>>::_Vector_impl_data", ptr %_M_impl3, i32 0, i32 0
  %2 = load ptr, ptr %_M_start4, align 8
  %sub.ptr.lhs.cast = ptrtoint ptr %1 to i64
  %sub.ptr.rhs.cast = ptrtoint ptr %2 to i64
  %sub.ptr.sub = sub i64 %sub.ptr.lhs.cast, %sub.ptr.rhs.cast
  %sub.ptr.div = sdiv exact i64 %sub.ptr.sub, 32
  invoke void @_ZNSt12_Vector_baseINSt7__cxx1112basic_stringIcSt11char_traitsIcESaIcEEESaIS5_EE13_M_deallocateEPS5_m(ptr noundef nonnull align 8 dereferenceable(24) %this1, ptr noundef %0, i64 noundef %sub.ptr.div)
          to label %invoke.cont unwind label %terminate.lpad

invoke.cont:                                      ; preds = %entry
  %_M_impl5 = getelementptr inbounds %"struct.std::_Vector_base.22", ptr %this1, i32 0, i32 0
  call void @_ZNSt12_Vector_baseINSt7__cxx1112basic_stringIcSt11char_traitsIcESaIcEEESaIS5_EE12_Vector_implD2Ev(ptr noundef nonnull align 8 dereferenceable(24) %_M_impl5) #16
  ret void

terminate.lpad:                                   ; preds = %entry
  %3 = landingpad { ptr, i32 }
          catch ptr null
  %4 = extractvalue { ptr, i32 } %3, 0
  call void @__clang_call_terminate(ptr %4) #18
  unreachable
}

; Function Attrs: mustprogress nounwind uwtable
define linkonce_odr void @_ZNSt12_Vector_baseINSt7__cxx1112basic_stringIcSt11char_traitsIcESaIcEEESaIS5_EE12_Vector_implC2ERKS6_(ptr noundef nonnull align 8 dereferenceable(24) %this, ptr noundef nonnull align 1 dereferenceable(1) %__a) unnamed_addr #2 comdat align 2 {
entry:
  %this.addr = alloca ptr, align 8
  %__a.addr = alloca ptr, align 8
  store ptr %this, ptr %this.addr, align 8
  store ptr %__a, ptr %__a.addr, align 8
  %this1 = load ptr, ptr %this.addr, align 8
  %0 = load ptr, ptr %__a.addr, align 8
  call void @_ZNSaINSt7__cxx1112basic_stringIcSt11char_traitsIcESaIcEEEEC2ERKS5_(ptr noundef nonnull align 1 dereferenceable(1) %this1, ptr noundef nonnull align 1 dereferenceable(1) %0) #16
  call void @_ZNSt12_Vector_baseINSt7__cxx1112basic_stringIcSt11char_traitsIcESaIcEEESaIS5_EE17_Vector_impl_dataC2Ev(ptr noundef nonnull align 8 dereferenceable(24) %this1) #16
  ret void
}

; Function Attrs: mustprogress nounwind uwtable
define linkonce_odr void @_ZNSt12_Vector_baseINSt7__cxx1112basic_stringIcSt11char_traitsIcESaIcEEESaIS5_EE17_Vector_impl_dataC2Ev(ptr noundef nonnull align 8 dereferenceable(24) %this) unnamed_addr #2 comdat align 2 {
entry:
  %this.addr = alloca ptr, align 8
  store ptr %this, ptr %this.addr, align 8
  %this1 = load ptr, ptr %this.addr, align 8
  %_M_start = getelementptr inbounds %"struct.std::_Vector_base<std::__cxx11::basic_string<char>, std::allocator<std::__cxx11::basic_string<char>>>::_Vector_impl_data", ptr %this1, i32 0, i32 0
  store ptr null, ptr %_M_start, align 8
  %_M_finish = getelementptr inbounds %"struct.std::_Vector_base<std::__cxx11::basic_string<char>, std::allocator<std::__cxx11::basic_string<char>>>::_Vector_impl_data", ptr %this1, i32 0, i32 1
  store ptr null, ptr %_M_finish, align 8
  %_M_end_of_storage = getelementptr inbounds %"struct.std::_Vector_base<std::__cxx11::basic_string<char>, std::allocator<std::__cxx11::basic_string<char>>>::_Vector_impl_data", ptr %this1, i32 0, i32 2
  store ptr null, ptr %_M_end_of_storage, align 8
  ret void
}

; Function Attrs: mustprogress nounwind uwtable
define linkonce_odr void @_ZNSt15__new_allocatorINSt7__cxx1112basic_stringIcSt11char_traitsIcESaIcEEEEC2ERKS6_(ptr noundef nonnull align 1 dereferenceable(1) %this, ptr noundef nonnull align 1 dereferenceable(1) %0) unnamed_addr #2 comdat align 2 {
entry:
  %this.addr = alloca ptr, align 8
  %.addr = alloca ptr, align 8
  store ptr %this, ptr %this.addr, align 8
  store ptr %0, ptr %.addr, align 8
  ret void
}

; Function Attrs: mustprogress uwtable
define linkonce_odr noundef i64 @_ZSt8distanceIPKNSt7__cxx1112basic_stringIcSt11char_traitsIcESaIcEEEENSt15iterator_traitsIT_E15difference_typeES9_S9_(ptr noundef %__first, ptr noundef %__last) #0 comdat {
entry:
  %__first.addr = alloca ptr, align 8
  %__last.addr = alloca ptr, align 8
  store ptr %__first, ptr %__first.addr, align 8
  store ptr %__last, ptr %__last.addr, align 8
  %0 = load ptr, ptr %__first.addr, align 8
  %1 = load ptr, ptr %__last.addr, align 8
  call void @_ZSt19__iterator_categoryIPKNSt7__cxx1112basic_stringIcSt11char_traitsIcESaIcEEEENSt15iterator_traitsIT_E17iterator_categoryERKS9_(ptr noundef nonnull align 8 dereferenceable(8) %__first.addr)
  %call = call noundef i64 @_ZSt10__distanceIPKNSt7__cxx1112basic_stringIcSt11char_traitsIcESaIcEEEENSt15iterator_traitsIT_E15difference_typeES9_S9_St26random_access_iterator_tag(ptr noundef %0, ptr noundef %1)
  ret i64 %call
}

; Function Attrs: mustprogress uwtable
define linkonce_odr noundef ptr @_ZNSt12_Vector_baseINSt7__cxx1112basic_stringIcSt11char_traitsIcESaIcEEESaIS5_EE11_M_allocateEm(ptr noundef nonnull align 8 dereferenceable(24) %this, i64 noundef %__n) #0 comdat align 2 {
entry:
  %this.addr = alloca ptr, align 8
  %__n.addr = alloca i64, align 8
  store ptr %this, ptr %this.addr, align 8
  store i64 %__n, ptr %__n.addr, align 8
  %this1 = load ptr, ptr %this.addr, align 8
  %0 = load i64, ptr %__n.addr, align 8
  %cmp = icmp ne i64 %0, 0
  br i1 %cmp, label %cond.true, label %cond.false

cond.true:                                        ; preds = %entry
  %_M_impl = getelementptr inbounds %"struct.std::_Vector_base.22", ptr %this1, i32 0, i32 0
  %1 = load i64, ptr %__n.addr, align 8
  %call = call noundef ptr @_ZNSt16allocator_traitsISaINSt7__cxx1112basic_stringIcSt11char_traitsIcESaIcEEEEE8allocateERS6_m(ptr noundef nonnull align 1 dereferenceable(1) %_M_impl, i64 noundef %1)
  br label %cond.end

cond.false:                                       ; preds = %entry
  br label %cond.end

cond.end:                                         ; preds = %cond.false, %cond.true
  %cond = phi ptr [ %call, %cond.true ], [ null, %cond.false ]
  ret ptr %cond
}

; Function Attrs: mustprogress uwtable
define linkonce_odr noundef i64 @_ZNSt6vectorINSt7__cxx1112basic_stringIcSt11char_traitsIcESaIcEEESaIS5_EE17_S_check_init_lenEmRKS6_(i64 noundef %__n, ptr noundef nonnull align 1 dereferenceable(1) %__a) #0 comdat align 2 {
entry:
  %__n.addr = alloca i64, align 8
  %__a.addr = alloca ptr, align 8
  %ref.tmp = alloca %"class.std::allocator.23", align 1
  store i64 %__n, ptr %__n.addr, align 8
  store ptr %__a, ptr %__a.addr, align 8
  %0 = load i64, ptr %__n.addr, align 8
  %1 = load ptr, ptr %__a.addr, align 8
  call void @_ZNSaINSt7__cxx1112basic_stringIcSt11char_traitsIcESaIcEEEEC2ERKS5_(ptr noundef nonnull align 1 dereferenceable(1) %ref.tmp, ptr noundef nonnull align 1 dereferenceable(1) %1) #16
  %call = call noundef i64 @_ZNSt6vectorINSt7__cxx1112basic_stringIcSt11char_traitsIcESaIcEEESaIS5_EE11_S_max_sizeERKS6_(ptr noundef nonnull align 1 dereferenceable(1) %ref.tmp) #16
  %cmp = icmp ugt i64 %0, %call
  call void @_ZNSaINSt7__cxx1112basic_stringIcSt11char_traitsIcESaIcEEEED2Ev(ptr noundef nonnull align 1 dereferenceable(1) %ref.tmp) #16
  br i1 %cmp, label %if.then, label %if.end

if.then:                                          ; preds = %entry
  call void @_ZSt20__throw_length_errorPKc(ptr noundef @.str.14) #19
  unreachable

if.end:                                           ; preds = %entry
  %2 = load i64, ptr %__n.addr, align 8
  ret i64 %2
}

; Function Attrs: mustprogress nounwind uwtable
define linkonce_odr noundef nonnull align 1 dereferenceable(1) ptr @_ZNSt12_Vector_baseINSt7__cxx1112basic_stringIcSt11char_traitsIcESaIcEEESaIS5_EE19_M_get_Tp_allocatorEv(ptr noundef nonnull align 8 dereferenceable(24) %this) #2 comdat align 2 {
entry:
  %this.addr = alloca ptr, align 8
  store ptr %this, ptr %this.addr, align 8
  %this1 = load ptr, ptr %this.addr, align 8
  %_M_impl = getelementptr inbounds %"struct.std::_Vector_base.22", ptr %this1, i32 0, i32 0
  ret ptr %_M_impl
}

; Function Attrs: mustprogress uwtable
define linkonce_odr noundef ptr @_ZSt22__uninitialized_copy_aIPKNSt7__cxx1112basic_stringIcSt11char_traitsIcESaIcEEEPS5_S5_ET0_T_SA_S9_RSaIT1_E(ptr noundef %__first, ptr noundef %__last, ptr noundef %__result, ptr noundef nonnull align 1 dereferenceable(1) %0) #0 comdat {
entry:
  %__first.addr = alloca ptr, align 8
  %__last.addr = alloca ptr, align 8
  %__result.addr = alloca ptr, align 8
  %.addr = alloca ptr, align 8
  store ptr %__first, ptr %__first.addr, align 8
  store ptr %__last, ptr %__last.addr, align 8
  store ptr %__result, ptr %__result.addr, align 8
  store ptr %0, ptr %.addr, align 8
  %1 = load ptr, ptr %__first.addr, align 8
  %2 = load ptr, ptr %__last.addr, align 8
  %3 = load ptr, ptr %__result.addr, align 8
  %call = call noundef ptr @_ZSt18uninitialized_copyIPKNSt7__cxx1112basic_stringIcSt11char_traitsIcESaIcEEEPS5_ET0_T_SA_S9_(ptr noundef %1, ptr noundef %2, ptr noundef %3)
  ret ptr %call
}

; Function Attrs: mustprogress nounwind uwtable
define linkonce_odr noundef i64 @_ZSt10__distanceIPKNSt7__cxx1112basic_stringIcSt11char_traitsIcESaIcEEEENSt15iterator_traitsIT_E15difference_typeES9_S9_St26random_access_iterator_tag(ptr noundef %__first, ptr noundef %__last) #2 comdat {
entry:
  %__first.addr = alloca ptr, align 8
  %__last.addr = alloca ptr, align 8
  store ptr %__first, ptr %__first.addr, align 8
  store ptr %__last, ptr %__last.addr, align 8
  %0 = load ptr, ptr %__last.addr, align 8
  %1 = load ptr, ptr %__first.addr, align 8
  %sub.ptr.lhs.cast = ptrtoint ptr %0 to i64
  %sub.ptr.rhs.cast = ptrtoint ptr %1 to i64
  %sub.ptr.sub = sub i64 %sub.ptr.lhs.cast, %sub.ptr.rhs.cast
  %sub.ptr.div = sdiv exact i64 %sub.ptr.sub, 32
  ret i64 %sub.ptr.div
}

; Function Attrs: mustprogress nounwind uwtable
define linkonce_odr void @_ZSt19__iterator_categoryIPKNSt7__cxx1112basic_stringIcSt11char_traitsIcESaIcEEEENSt15iterator_traitsIT_E17iterator_categoryERKS9_(ptr noundef nonnull align 8 dereferenceable(8) %0) #2 comdat {
entry:
  %.addr = alloca ptr, align 8
  store ptr %0, ptr %.addr, align 8
  ret void
}

; Function Attrs: mustprogress uwtable
define linkonce_odr noundef ptr @_ZNSt16allocator_traitsISaINSt7__cxx1112basic_stringIcSt11char_traitsIcESaIcEEEEE8allocateERS6_m(ptr noundef nonnull align 1 dereferenceable(1) %__a, i64 noundef %__n) #0 comdat align 2 {
entry:
  %__a.addr = alloca ptr, align 8
  %__n.addr = alloca i64, align 8
  store ptr %__a, ptr %__a.addr, align 8
  store i64 %__n, ptr %__n.addr, align 8
  %0 = load ptr, ptr %__a.addr, align 8
  %1 = load i64, ptr %__n.addr, align 8
  %call = call noundef ptr @_ZNSt15__new_allocatorINSt7__cxx1112basic_stringIcSt11char_traitsIcESaIcEEEE8allocateEmPKv(ptr noundef nonnull align 1 dereferenceable(1) %0, i64 noundef %1, ptr noundef null)
  ret ptr %call
}

; Function Attrs: mustprogress uwtable
define linkonce_odr noundef ptr @_ZNSt15__new_allocatorINSt7__cxx1112basic_stringIcSt11char_traitsIcESaIcEEEE8allocateEmPKv(ptr noundef nonnull align 1 dereferenceable(1) %this, i64 noundef %__n, ptr noundef %0) #0 comdat align 2 {
entry:
  %this.addr = alloca ptr, align 8
  %__n.addr = alloca i64, align 8
  %.addr = alloca ptr, align 8
  store ptr %this, ptr %this.addr, align 8
  store i64 %__n, ptr %__n.addr, align 8
  store ptr %0, ptr %.addr, align 8
  %this1 = load ptr, ptr %this.addr, align 8
  %1 = load i64, ptr %__n.addr, align 8
  %call = call noundef i64 @_ZNKSt15__new_allocatorINSt7__cxx1112basic_stringIcSt11char_traitsIcESaIcEEEE11_M_max_sizeEv(ptr noundef nonnull align 1 dereferenceable(1) %this1) #16
  %cmp = icmp ugt i64 %1, %call
  br i1 %cmp, label %if.then, label %if.end4

if.then:                                          ; preds = %entry
  %2 = load i64, ptr %__n.addr, align 8
  %cmp2 = icmp ugt i64 %2, 576460752303423487
  br i1 %cmp2, label %if.then3, label %if.end

if.then3:                                         ; preds = %if.then
  call void @_ZSt28__throw_bad_array_new_lengthv() #19
  unreachable

if.end:                                           ; preds = %if.then
  call void @_ZSt17__throw_bad_allocv() #19
  unreachable

if.end4:                                          ; preds = %entry
  %3 = load i64, ptr %__n.addr, align 8
  %mul = mul i64 %3, 32
  %call5 = call noalias noundef nonnull ptr @_Znwm(i64 noundef %mul) #17
  ret ptr %call5
}

; Function Attrs: mustprogress nounwind uwtable
define linkonce_odr noundef i64 @_ZNKSt15__new_allocatorINSt7__cxx1112basic_stringIcSt11char_traitsIcESaIcEEEE11_M_max_sizeEv(ptr noundef nonnull align 1 dereferenceable(1) %this) #2 comdat align 2 {
entry:
  %this.addr = alloca ptr, align 8
  store ptr %this, ptr %this.addr, align 8
  ret i64 288230376151711743
}

; Function Attrs: noreturn
declare void @_ZSt28__throw_bad_array_new_lengthv() #5

; Function Attrs: noreturn
declare void @_ZSt17__throw_bad_allocv() #5

; Function Attrs: nobuiltin allocsize(0)
declare noundef nonnull ptr @_Znwm(i64 noundef) #7

; Function Attrs: mustprogress nounwind uwtable
define linkonce_odr noundef i64 @_ZNSt6vectorINSt7__cxx1112basic_stringIcSt11char_traitsIcESaIcEEESaIS5_EE11_S_max_sizeERKS6_(ptr noundef nonnull align 1 dereferenceable(1) %__a) #2 comdat align 2 personality ptr @__gxx_personality_v0 {
entry:
  %__a.addr = alloca ptr, align 8
  %__diffmax = alloca i64, align 8
  %__allocmax = alloca i64, align 8
  store ptr %__a, ptr %__a.addr, align 8
  store i64 288230376151711743, ptr %__diffmax, align 8
  %0 = load ptr, ptr %__a.addr, align 8
  %call = call noundef i64 @_ZNSt16allocator_traitsISaINSt7__cxx1112basic_stringIcSt11char_traitsIcESaIcEEEEE8max_sizeERKS6_(ptr noundef nonnull align 1 dereferenceable(1) %0) #16
  store i64 %call, ptr %__allocmax, align 8
  %call1 = invoke noundef nonnull align 8 dereferenceable(8) ptr @_ZSt3minImERKT_S2_S2_(ptr noundef nonnull align 8 dereferenceable(8) %__diffmax, ptr noundef nonnull align 8 dereferenceable(8) %__allocmax)
          to label %invoke.cont unwind label %terminate.lpad

invoke.cont:                                      ; preds = %entry
  %1 = load i64, ptr %call1, align 8
  ret i64 %1

terminate.lpad:                                   ; preds = %entry
  %2 = landingpad { ptr, i32 }
          catch ptr null
  %3 = extractvalue { ptr, i32 } %2, 0
  call void @__clang_call_terminate(ptr %3) #18
  unreachable
}

; Function Attrs: mustprogress nounwind uwtable
define linkonce_odr void @_ZNSaINSt7__cxx1112basic_stringIcSt11char_traitsIcESaIcEEEEC2ERKS5_(ptr noundef nonnull align 1 dereferenceable(1) %this, ptr noundef nonnull align 1 dereferenceable(1) %__a) unnamed_addr #2 comdat align 2 {
entry:
  %this.addr = alloca ptr, align 8
  %__a.addr = alloca ptr, align 8
  store ptr %this, ptr %this.addr, align 8
  store ptr %__a, ptr %__a.addr, align 8
  %this1 = load ptr, ptr %this.addr, align 8
  %0 = load ptr, ptr %__a.addr, align 8
  call void @_ZNSt15__new_allocatorINSt7__cxx1112basic_stringIcSt11char_traitsIcESaIcEEEEC2ERKS6_(ptr noundef nonnull align 1 dereferenceable(1) %this1, ptr noundef nonnull align 1 dereferenceable(1) %0) #16
  ret void
}

; Function Attrs: noreturn
declare void @_ZSt20__throw_length_errorPKc(ptr noundef) #5

; Function Attrs: mustprogress nounwind uwtable
define linkonce_odr noundef i64 @_ZNSt16allocator_traitsISaINSt7__cxx1112basic_stringIcSt11char_traitsIcESaIcEEEEE8max_sizeERKS6_(ptr noundef nonnull align 1 dereferenceable(1) %__a) #2 comdat align 2 {
entry:
  %__a.addr = alloca ptr, align 8
  store ptr %__a, ptr %__a.addr, align 8
  %0 = load ptr, ptr %__a.addr, align 8
  %call = call noundef i64 @_ZNKSt15__new_allocatorINSt7__cxx1112basic_stringIcSt11char_traitsIcESaIcEEEE8max_sizeEv(ptr noundef nonnull align 1 dereferenceable(1) %0) #16
  ret i64 %call
}

; Function Attrs: mustprogress nounwind uwtable
define linkonce_odr noundef nonnull align 8 dereferenceable(8) ptr @_ZSt3minImERKT_S2_S2_(ptr noundef nonnull align 8 dereferenceable(8) %__a, ptr noundef nonnull align 8 dereferenceable(8) %__b) #2 comdat {
entry:
  %retval = alloca ptr, align 8
  %__a.addr = alloca ptr, align 8
  %__b.addr = alloca ptr, align 8
  store ptr %__a, ptr %__a.addr, align 8
  store ptr %__b, ptr %__b.addr, align 8
  %0 = load ptr, ptr %__b.addr, align 8
  %1 = load i64, ptr %0, align 8
  %2 = load ptr, ptr %__a.addr, align 8
  %3 = load i64, ptr %2, align 8
  %cmp = icmp ult i64 %1, %3
  br i1 %cmp, label %if.then, label %if.end

if.then:                                          ; preds = %entry
  %4 = load ptr, ptr %__b.addr, align 8
  store ptr %4, ptr %retval, align 8
  br label %return

if.end:                                           ; preds = %entry
  %5 = load ptr, ptr %__a.addr, align 8
  store ptr %5, ptr %retval, align 8
  br label %return

return:                                           ; preds = %if.end, %if.then
  %6 = load ptr, ptr %retval, align 8
  ret ptr %6
}

; Function Attrs: mustprogress nounwind uwtable
define linkonce_odr noundef i64 @_ZNKSt15__new_allocatorINSt7__cxx1112basic_stringIcSt11char_traitsIcESaIcEEEE8max_sizeEv(ptr noundef nonnull align 1 dereferenceable(1) %this) #2 comdat align 2 {
entry:
  %this.addr = alloca ptr, align 8
  store ptr %this, ptr %this.addr, align 8
  %this1 = load ptr, ptr %this.addr, align 8
  %call = call noundef i64 @_ZNKSt15__new_allocatorINSt7__cxx1112basic_stringIcSt11char_traitsIcESaIcEEEE11_M_max_sizeEv(ptr noundef nonnull align 1 dereferenceable(1) %this1) #16
  ret i64 %call
}

; Function Attrs: mustprogress uwtable
define linkonce_odr noundef ptr @_ZSt18uninitialized_copyIPKNSt7__cxx1112basic_stringIcSt11char_traitsIcESaIcEEEPS5_ET0_T_SA_S9_(ptr noundef %__first, ptr noundef %__last, ptr noundef %__result) #0 comdat {
entry:
  %__first.addr = alloca ptr, align 8
  %__last.addr = alloca ptr, align 8
  %__result.addr = alloca ptr, align 8
  %__can_memmove = alloca i8, align 1
  %__assignable = alloca i8, align 1
  store ptr %__first, ptr %__first.addr, align 8
  store ptr %__last, ptr %__last.addr, align 8
  store ptr %__result, ptr %__result.addr, align 8
  store i8 0, ptr %__can_memmove, align 1
  store i8 0, ptr %__assignable, align 1
  %0 = load ptr, ptr %__first.addr, align 8
  %1 = load ptr, ptr %__last.addr, align 8
  %2 = load ptr, ptr %__result.addr, align 8
  %call = call noundef ptr @_ZNSt20__uninitialized_copyILb0EE13__uninit_copyIPKNSt7__cxx1112basic_stringIcSt11char_traitsIcESaIcEEEPS7_EET0_T_SC_SB_(ptr noundef %0, ptr noundef %1, ptr noundef %2)
  ret ptr %call
}

; Function Attrs: mustprogress uwtable
define linkonce_odr noundef ptr @_ZNSt20__uninitialized_copyILb0EE13__uninit_copyIPKNSt7__cxx1112basic_stringIcSt11char_traitsIcESaIcEEEPS7_EET0_T_SC_SB_(ptr noundef %__first, ptr noundef %__last, ptr noundef %__result) #0 comdat align 2 {
entry:
  %__first.addr = alloca ptr, align 8
  %__last.addr = alloca ptr, align 8
  %__result.addr = alloca ptr, align 8
  store ptr %__first, ptr %__first.addr, align 8
  store ptr %__last, ptr %__last.addr, align 8
  store ptr %__result, ptr %__result.addr, align 8
  %0 = load ptr, ptr %__first.addr, align 8
  %1 = load ptr, ptr %__last.addr, align 8
  %2 = load ptr, ptr %__result.addr, align 8
  %call = call noundef ptr @_ZSt16__do_uninit_copyIPKNSt7__cxx1112basic_stringIcSt11char_traitsIcESaIcEEEPS5_ET0_T_SA_S9_(ptr noundef %0, ptr noundef %1, ptr noundef %2)
  ret ptr %call
}

; Function Attrs: mustprogress uwtable
define linkonce_odr noundef ptr @_ZSt16__do_uninit_copyIPKNSt7__cxx1112basic_stringIcSt11char_traitsIcESaIcEEEPS5_ET0_T_SA_S9_(ptr noundef %__first, ptr noundef %__last, ptr noundef %__result) #0 comdat personality ptr @__gxx_personality_v0 {
entry:
  %__first.addr = alloca ptr, align 8
  %__last.addr = alloca ptr, align 8
  %__result.addr = alloca ptr, align 8
  %__cur = alloca ptr, align 8
  %exn.slot = alloca ptr, align 8
  %ehselector.slot = alloca i32, align 4
  store ptr %__first, ptr %__first.addr, align 8
  store ptr %__last, ptr %__last.addr, align 8
  store ptr %__result, ptr %__result.addr, align 8
  %0 = load ptr, ptr %__result.addr, align 8
  store ptr %0, ptr %__cur, align 8
  br label %for.cond

for.cond:                                         ; preds = %for.inc, %entry
  %1 = load ptr, ptr %__first.addr, align 8
  %2 = load ptr, ptr %__last.addr, align 8
  %cmp = icmp ne ptr %1, %2
  br i1 %cmp, label %for.body, label %for.end

for.body:                                         ; preds = %for.cond
  %3 = load ptr, ptr %__cur, align 8
  %4 = load ptr, ptr %__first.addr, align 8
  invoke void @_ZSt10_ConstructINSt7__cxx1112basic_stringIcSt11char_traitsIcESaIcEEEJRKS5_EEvPT_DpOT0_(ptr noundef %3, ptr noundef nonnull align 8 dereferenceable(32) %4)
          to label %invoke.cont unwind label %lpad

invoke.cont:                                      ; preds = %for.body
  br label %for.inc

for.inc:                                          ; preds = %invoke.cont
  %5 = load ptr, ptr %__first.addr, align 8
  %incdec.ptr = getelementptr inbounds %"class.std::__cxx11::basic_string", ptr %5, i32 1
  store ptr %incdec.ptr, ptr %__first.addr, align 8
  %6 = load ptr, ptr %__cur, align 8
  %incdec.ptr1 = getelementptr inbounds %"class.std::__cxx11::basic_string", ptr %6, i32 1
  store ptr %incdec.ptr1, ptr %__cur, align 8
  br label %for.cond, !llvm.loop !4

lpad:                                             ; preds = %for.body
  %7 = landingpad { ptr, i32 }
          catch ptr null
  %8 = extractvalue { ptr, i32 } %7, 0
  store ptr %8, ptr %exn.slot, align 8
  %9 = extractvalue { ptr, i32 } %7, 1
  store i32 %9, ptr %ehselector.slot, align 4
  br label %catch

catch:                                            ; preds = %lpad
  %exn = load ptr, ptr %exn.slot, align 8
  %10 = call ptr @__cxa_begin_catch(ptr %exn) #16
  %11 = load ptr, ptr %__result.addr, align 8
  %12 = load ptr, ptr %__cur, align 8
  invoke void @_ZSt8_DestroyIPNSt7__cxx1112basic_stringIcSt11char_traitsIcESaIcEEEEvT_S7_(ptr noundef %11, ptr noundef %12)
          to label %invoke.cont3 unwind label %lpad2

invoke.cont3:                                     ; preds = %catch
  invoke void @__cxa_rethrow() #19
          to label %unreachable unwind label %lpad2

for.end:                                          ; preds = %for.cond
  %13 = load ptr, ptr %__cur, align 8
  ret ptr %13

lpad2:                                            ; preds = %invoke.cont3, %catch
  %14 = landingpad { ptr, i32 }
          cleanup
  %15 = extractvalue { ptr, i32 } %14, 0
  store ptr %15, ptr %exn.slot, align 8
  %16 = extractvalue { ptr, i32 } %14, 1
  store i32 %16, ptr %ehselector.slot, align 4
  invoke void @__cxa_end_catch()
          to label %invoke.cont4 unwind label %terminate.lpad

invoke.cont4:                                     ; preds = %lpad2
  br label %eh.resume

try.cont:                                         ; No predecessors!
  call void @llvm.trap()
  unreachable

eh.resume:                                        ; preds = %invoke.cont4
  %exn5 = load ptr, ptr %exn.slot, align 8
  %sel = load i32, ptr %ehselector.slot, align 4
  %lpad.val = insertvalue { ptr, i32 } poison, ptr %exn5, 0
  %lpad.val6 = insertvalue { ptr, i32 } %lpad.val, i32 %sel, 1
  resume { ptr, i32 } %lpad.val6

terminate.lpad:                                   ; preds = %lpad2
  %17 = landingpad { ptr, i32 }
          catch ptr null
  %18 = extractvalue { ptr, i32 } %17, 0
  call void @__clang_call_terminate(ptr %18) #18
  unreachable

unreachable:                                      ; preds = %invoke.cont3
  unreachable
}

; Function Attrs: mustprogress uwtable
define linkonce_odr void @_ZSt10_ConstructINSt7__cxx1112basic_stringIcSt11char_traitsIcESaIcEEEJRKS5_EEvPT_DpOT0_(ptr noundef %__p, ptr noundef nonnull align 8 dereferenceable(32) %__args) #0 comdat {
entry:
  %__p.addr = alloca ptr, align 8
  %__args.addr = alloca ptr, align 8
  store ptr %__p, ptr %__p.addr, align 8
  store ptr %__args, ptr %__args.addr, align 8
  %0 = load ptr, ptr %__p.addr, align 8
  %1 = load ptr, ptr %__args.addr, align 8
  call void @_ZNSt7__cxx1112basic_stringIcSt11char_traitsIcESaIcEEC1ERKS4_(ptr noundef nonnull align 8 dereferenceable(32) %0, ptr noundef nonnull align 8 dereferenceable(32) %1)
  ret void
}

; Function Attrs: mustprogress uwtable
define linkonce_odr void @_ZSt8_DestroyIPNSt7__cxx1112basic_stringIcSt11char_traitsIcESaIcEEEEvT_S7_(ptr noundef %__first, ptr noundef %__last) #0 comdat {
entry:
  %__first.addr = alloca ptr, align 8
  %__last.addr = alloca ptr, align 8
  store ptr %__first, ptr %__first.addr, align 8
  store ptr %__last, ptr %__last.addr, align 8
  %0 = load ptr, ptr %__first.addr, align 8
  %1 = load ptr, ptr %__last.addr, align 8
  call void @_ZNSt12_Destroy_auxILb0EE9__destroyIPNSt7__cxx1112basic_stringIcSt11char_traitsIcESaIcEEEEEvT_S9_(ptr noundef %0, ptr noundef %1)
  ret void
}

declare void @__cxa_rethrow()

declare void @__cxa_end_catch()

; Function Attrs: cold noreturn nounwind memory(inaccessiblemem: write)
declare void @llvm.trap() #8

declare void @_ZNSt7__cxx1112basic_stringIcSt11char_traitsIcESaIcEEC1ERKS4_(ptr noundef nonnull align 8 dereferenceable(32), ptr noundef nonnull align 8 dereferenceable(32)) unnamed_addr #1

; Function Attrs: mustprogress uwtable
define linkonce_odr void @_ZNSt12_Destroy_auxILb0EE9__destroyIPNSt7__cxx1112basic_stringIcSt11char_traitsIcESaIcEEEEEvT_S9_(ptr noundef %__first, ptr noundef %__last) #0 comdat align 2 {
entry:
  %__first.addr = alloca ptr, align 8
  %__last.addr = alloca ptr, align 8
  store ptr %__first, ptr %__first.addr, align 8
  store ptr %__last, ptr %__last.addr, align 8
  br label %for.cond

for.cond:                                         ; preds = %for.inc, %entry
  %0 = load ptr, ptr %__first.addr, align 8
  %1 = load ptr, ptr %__last.addr, align 8
  %cmp = icmp ne ptr %0, %1
  br i1 %cmp, label %for.body, label %for.end

for.body:                                         ; preds = %for.cond
  %2 = load ptr, ptr %__first.addr, align 8
  call void @_ZSt8_DestroyINSt7__cxx1112basic_stringIcSt11char_traitsIcESaIcEEEEvPT_(ptr noundef %2)
  br label %for.inc

for.inc:                                          ; preds = %for.body
  %3 = load ptr, ptr %__first.addr, align 8
  %incdec.ptr = getelementptr inbounds %"class.std::__cxx11::basic_string", ptr %3, i32 1
  store ptr %incdec.ptr, ptr %__first.addr, align 8
  br label %for.cond, !llvm.loop !6

for.end:                                          ; preds = %for.cond
  ret void
}

; Function Attrs: mustprogress nounwind uwtable
define linkonce_odr void @_ZSt8_DestroyINSt7__cxx1112basic_stringIcSt11char_traitsIcESaIcEEEEvPT_(ptr noundef %__pointer) #2 comdat {
entry:
  %__pointer.addr = alloca ptr, align 8
  store ptr %__pointer, ptr %__pointer.addr, align 8
  %0 = load ptr, ptr %__pointer.addr, align 8
  call void @_ZNSt7__cxx1112basic_stringIcSt11char_traitsIcESaIcEED1Ev(ptr noundef nonnull align 8 dereferenceable(32) %0) #16
  ret void
}

; Function Attrs: mustprogress nounwind uwtable
define linkonce_odr noundef i64 @_ZNKSt16initializer_listINSt7__cxx1112basic_stringIcSt11char_traitsIcESaIcEEEE4sizeEv(ptr noundef nonnull align 8 dereferenceable(16) %this) #2 comdat align 2 {
entry:
  %this.addr = alloca ptr, align 8
  store ptr %this, ptr %this.addr, align 8
  %this1 = load ptr, ptr %this.addr, align 8
  %_M_len = getelementptr inbounds %"class.std::initializer_list", ptr %this1, i32 0, i32 1
  %0 = load i64, ptr %_M_len, align 8
  ret i64 %0
}

; Function Attrs: mustprogress uwtable
define linkonce_odr void @_ZNSt12_Vector_baseINSt7__cxx1112basic_stringIcSt11char_traitsIcESaIcEEESaIS5_EE13_M_deallocateEPS5_m(ptr noundef nonnull align 8 dereferenceable(24) %this, ptr noundef %__p, i64 noundef %__n) #0 comdat align 2 {
entry:
  %this.addr = alloca ptr, align 8
  %__p.addr = alloca ptr, align 8
  %__n.addr = alloca i64, align 8
  store ptr %this, ptr %this.addr, align 8
  store ptr %__p, ptr %__p.addr, align 8
  store i64 %__n, ptr %__n.addr, align 8
  %this1 = load ptr, ptr %this.addr, align 8
  %0 = load ptr, ptr %__p.addr, align 8
  %tobool = icmp ne ptr %0, null
  br i1 %tobool, label %if.then, label %if.end

if.then:                                          ; preds = %entry
  %_M_impl = getelementptr inbounds %"struct.std::_Vector_base.22", ptr %this1, i32 0, i32 0
  %1 = load ptr, ptr %__p.addr, align 8
  %2 = load i64, ptr %__n.addr, align 8
  call void @_ZNSt16allocator_traitsISaINSt7__cxx1112basic_stringIcSt11char_traitsIcESaIcEEEEE10deallocateERS6_PS5_m(ptr noundef nonnull align 1 dereferenceable(1) %_M_impl, ptr noundef %1, i64 noundef %2)
  br label %if.end

if.end:                                           ; preds = %if.then, %entry
  ret void
}

; Function Attrs: mustprogress nounwind uwtable
define linkonce_odr void @_ZNSt12_Vector_baseINSt7__cxx1112basic_stringIcSt11char_traitsIcESaIcEEESaIS5_EE12_Vector_implD2Ev(ptr noundef nonnull align 8 dereferenceable(24) %this) unnamed_addr #2 comdat align 2 {
entry:
  %this.addr = alloca ptr, align 8
  store ptr %this, ptr %this.addr, align 8
  %this1 = load ptr, ptr %this.addr, align 8
  call void @_ZNSaINSt7__cxx1112basic_stringIcSt11char_traitsIcESaIcEEEED2Ev(ptr noundef nonnull align 1 dereferenceable(1) %this1) #16
  ret void
}

; Function Attrs: mustprogress uwtable
define linkonce_odr void @_ZNSt16allocator_traitsISaINSt7__cxx1112basic_stringIcSt11char_traitsIcESaIcEEEEE10deallocateERS6_PS5_m(ptr noundef nonnull align 1 dereferenceable(1) %__a, ptr noundef %__p, i64 noundef %__n) #0 comdat align 2 {
entry:
  %__a.addr = alloca ptr, align 8
  %__p.addr = alloca ptr, align 8
  %__n.addr = alloca i64, align 8
  store ptr %__a, ptr %__a.addr, align 8
  store ptr %__p, ptr %__p.addr, align 8
  store i64 %__n, ptr %__n.addr, align 8
  %0 = load ptr, ptr %__a.addr, align 8
  %1 = load ptr, ptr %__p.addr, align 8
  %2 = load i64, ptr %__n.addr, align 8
  call void @_ZNSt15__new_allocatorINSt7__cxx1112basic_stringIcSt11char_traitsIcESaIcEEEE10deallocateEPS5_m(ptr noundef nonnull align 1 dereferenceable(1) %0, ptr noundef %1, i64 noundef %2)
  ret void
}

; Function Attrs: mustprogress nounwind uwtable
define linkonce_odr void @_ZNSt15__new_allocatorINSt7__cxx1112basic_stringIcSt11char_traitsIcESaIcEEEE10deallocateEPS5_m(ptr noundef nonnull align 1 dereferenceable(1) %this, ptr noundef %__p, i64 noundef %__n) #2 comdat align 2 {
entry:
  %this.addr = alloca ptr, align 8
  %__p.addr = alloca ptr, align 8
  %__n.addr = alloca i64, align 8
  store ptr %this, ptr %this.addr, align 8
  store ptr %__p, ptr %__p.addr, align 8
  store i64 %__n, ptr %__n.addr, align 8
  %0 = load ptr, ptr %__p.addr, align 8
  call void @_ZdlPv(ptr noundef %0) #20
  ret void
}

; Function Attrs: nobuiltin nounwind
declare void @_ZdlPv(ptr noundef) #9

; Function Attrs: mustprogress nounwind uwtable
define linkonce_odr void @_ZNSt15__new_allocatorINSt7__cxx1112basic_stringIcSt11char_traitsIcESaIcEEEED2Ev(ptr noundef nonnull align 1 dereferenceable(1) %this) unnamed_addr #2 comdat align 2 {
entry:
  %this.addr = alloca ptr, align 8
  store ptr %this, ptr %this.addr, align 8
  ret void
}

; Function Attrs: mustprogress nounwind uwtable
define linkonce_odr void @_ZNSt12_Vector_baseISt10shared_ptrIN8facebook5velox4exec17FunctionSignatureEESaIS5_EEC2Ev(ptr noundef nonnull align 8 dereferenceable(24) %this) unnamed_addr #2 comdat align 2 {
entry:
  %this.addr = alloca ptr, align 8
  store ptr %this, ptr %this.addr, align 8
  %this1 = load ptr, ptr %this.addr, align 8
  %_M_impl = getelementptr inbounds %"struct.std::_Vector_base", ptr %this1, i32 0, i32 0
  call void @_ZNSt12_Vector_baseISt10shared_ptrIN8facebook5velox4exec17FunctionSignatureEESaIS5_EE12_Vector_implC2Ev(ptr noundef nonnull align 8 dereferenceable(24) %_M_impl) #16
  ret void
}

; Function Attrs: mustprogress nounwind uwtable
define linkonce_odr void @_ZNSt12_Vector_baseISt10shared_ptrIN8facebook5velox4exec17FunctionSignatureEESaIS5_EE12_Vector_implC2Ev(ptr noundef nonnull align 8 dereferenceable(24) %this) unnamed_addr #2 comdat align 2 {
entry:
  %this.addr = alloca ptr, align 8
  store ptr %this, ptr %this.addr, align 8
  %this1 = load ptr, ptr %this.addr, align 8
  call void @_ZNSaISt10shared_ptrIN8facebook5velox4exec17FunctionSignatureEEEC2Ev(ptr noundef nonnull align 1 dereferenceable(1) %this1) #16
  call void @_ZNSt12_Vector_baseISt10shared_ptrIN8facebook5velox4exec17FunctionSignatureEESaIS5_EE17_Vector_impl_dataC2Ev(ptr noundef nonnull align 8 dereferenceable(24) %this1) #16
  ret void
}

; Function Attrs: mustprogress nounwind uwtable
define linkonce_odr void @_ZNSaISt10shared_ptrIN8facebook5velox4exec17FunctionSignatureEEEC2Ev(ptr noundef nonnull align 1 dereferenceable(1) %this) unnamed_addr #2 comdat align 2 {
entry:
  %this.addr = alloca ptr, align 8
  store ptr %this, ptr %this.addr, align 8
  %this1 = load ptr, ptr %this.addr, align 8
  call void @_ZNSt15__new_allocatorISt10shared_ptrIN8facebook5velox4exec17FunctionSignatureEEEC2Ev(ptr noundef nonnull align 1 dereferenceable(1) %this1) #16
  ret void
}

; Function Attrs: mustprogress nounwind uwtable
define linkonce_odr void @_ZNSt12_Vector_baseISt10shared_ptrIN8facebook5velox4exec17FunctionSignatureEESaIS5_EE17_Vector_impl_dataC2Ev(ptr noundef nonnull align 8 dereferenceable(24) %this) unnamed_addr #2 comdat align 2 {
entry:
  %this.addr = alloca ptr, align 8
  store ptr %this, ptr %this.addr, align 8
  %this1 = load ptr, ptr %this.addr, align 8
  %_M_start = getelementptr inbounds %"struct.std::_Vector_base<std::shared_ptr<facebook::velox::exec::FunctionSignature>, std::allocator<std::shared_ptr<facebook::velox::exec::FunctionSignature>>>::_Vector_impl_data", ptr %this1, i32 0, i32 0
  store ptr null, ptr %_M_start, align 8
  %_M_finish = getelementptr inbounds %"struct.std::_Vector_base<std::shared_ptr<facebook::velox::exec::FunctionSignature>, std::allocator<std::shared_ptr<facebook::velox::exec::FunctionSignature>>>::_Vector_impl_data", ptr %this1, i32 0, i32 1
  store ptr null, ptr %_M_finish, align 8
  %_M_end_of_storage = getelementptr inbounds %"struct.std::_Vector_base<std::shared_ptr<facebook::velox::exec::FunctionSignature>, std::allocator<std::shared_ptr<facebook::velox::exec::FunctionSignature>>>::_Vector_impl_data", ptr %this1, i32 0, i32 2
  store ptr null, ptr %_M_end_of_storage, align 8
  ret void
}

; Function Attrs: mustprogress nounwind uwtable
define linkonce_odr void @_ZNSt15__new_allocatorISt10shared_ptrIN8facebook5velox4exec17FunctionSignatureEEEC2Ev(ptr noundef nonnull align 1 dereferenceable(1) %this) unnamed_addr #2 comdat align 2 {
entry:
  %this.addr = alloca ptr, align 8
  store ptr %this, ptr %this.addr, align 8
  ret void
}

; Function Attrs: mustprogress nounwind uwtable
define linkonce_odr void @_ZN9__gnu_cxx17__normal_iteratorIPKNSt7__cxx1112basic_stringIcSt11char_traitsIcESaIcEEESt6vectorIS6_SaIS6_EEEC2ERKS8_(ptr noundef nonnull align 8 dereferenceable(8) %this, ptr noundef nonnull align 8 dereferenceable(8) %__i) unnamed_addr #2 comdat align 2 {
entry:
  %this.addr = alloca ptr, align 8
  %__i.addr = alloca ptr, align 8
  store ptr %this, ptr %this.addr, align 8
  store ptr %__i, ptr %__i.addr, align 8
  %this1 = load ptr, ptr %this.addr, align 8
  %_M_current = getelementptr inbounds %"class.__gnu_cxx::__normal_iterator", ptr %this1, i32 0, i32 0
  %0 = load ptr, ptr %__i.addr, align 8
  %1 = load ptr, ptr %0, align 8
  store ptr %1, ptr %_M_current, align 8
  ret void
}

; Function Attrs: mustprogress nounwind uwtable
define linkonce_odr noundef nonnull align 8 dereferenceable(8) ptr @_ZNK9__gnu_cxx17__normal_iteratorIPKNSt7__cxx1112basic_stringIcSt11char_traitsIcESaIcEEESt6vectorIS6_SaIS6_EEE4baseEv(ptr noundef nonnull align 8 dereferenceable(8) %this) #2 comdat align 2 {
entry:
  %this.addr = alloca ptr, align 8
  store ptr %this, ptr %this.addr, align 8
  %this1 = load ptr, ptr %this.addr, align 8
  %_M_current = getelementptr inbounds %"class.__gnu_cxx::__normal_iterator", ptr %this1, i32 0, i32 0
  ret ptr %_M_current
}

; Function Attrs: mustprogress nounwind uwtable
define linkonce_odr void @_ZNSt16allocator_traitsISaISt10shared_ptrIN8facebook5velox4exec17FunctionSignatureEEEE9constructIS5_JS5_EEEvRS6_PT_DpOT0_(ptr noundef nonnull align 1 dereferenceable(1) %__a, ptr noundef %__p, ptr noundef nonnull align 8 dereferenceable(16) %__args) #2 comdat align 2 {
entry:
  %__a.addr = alloca ptr, align 8
  %__p.addr = alloca ptr, align 8
  %__args.addr = alloca ptr, align 8
  store ptr %__a, ptr %__a.addr, align 8
  store ptr %__p, ptr %__p.addr, align 8
  store ptr %__args, ptr %__args.addr, align 8
  %0 = load ptr, ptr %__a.addr, align 8
  %1 = load ptr, ptr %__p.addr, align 8
  %2 = load ptr, ptr %__args.addr, align 8
  call void @_ZNSt15__new_allocatorISt10shared_ptrIN8facebook5velox4exec17FunctionSignatureEEE9constructIS5_JS5_EEEvPT_DpOT0_(ptr noundef nonnull align 1 dereferenceable(1) %0, ptr noundef %1, ptr noundef nonnull align 8 dereferenceable(16) %2) #16
  ret void
}

; Function Attrs: mustprogress uwtable
define linkonce_odr void @_ZNSt6vectorISt10shared_ptrIN8facebook5velox4exec17FunctionSignatureEESaIS5_EE17_M_realloc_insertIJS5_EEEvN9__gnu_cxx17__normal_iteratorIPS5_S7_EEDpOT_(ptr noundef nonnull align 8 dereferenceable(24) %this, ptr %__position.coerce, ptr noundef nonnull align 8 dereferenceable(16) %__args) #0 comdat align 2 {
entry:
  %__position = alloca %"class.__gnu_cxx::__normal_iterator.52", align 8
  %this.addr = alloca ptr, align 8
  %__args.addr = alloca ptr, align 8
  %__len = alloca i64, align 8
  %__old_start = alloca ptr, align 8
  %__old_finish = alloca ptr, align 8
  %__elems_before = alloca i64, align 8
  %ref.tmp = alloca %"class.__gnu_cxx::__normal_iterator.52", align 8
  %__new_start = alloca ptr, align 8
  %__new_finish = alloca ptr, align 8
  %coerce.dive = getelementptr inbounds %"class.__gnu_cxx::__normal_iterator.52", ptr %__position, i32 0, i32 0
  store ptr %__position.coerce, ptr %coerce.dive, align 8
  store ptr %this, ptr %this.addr, align 8
  store ptr %__args, ptr %__args.addr, align 8
  %this1 = load ptr, ptr %this.addr, align 8
  %call = call noundef i64 @_ZNKSt6vectorISt10shared_ptrIN8facebook5velox4exec17FunctionSignatureEESaIS5_EE12_M_check_lenEmPKc(ptr noundef nonnull align 8 dereferenceable(24) %this1, i64 noundef 1, ptr noundef @.str.15)
  store i64 %call, ptr %__len, align 8
  %_M_impl = getelementptr inbounds %"struct.std::_Vector_base", ptr %this1, i32 0, i32 0
  %_M_start = getelementptr inbounds %"struct.std::_Vector_base<std::shared_ptr<facebook::velox::exec::FunctionSignature>, std::allocator<std::shared_ptr<facebook::velox::exec::FunctionSignature>>>::_Vector_impl_data", ptr %_M_impl, i32 0, i32 0
  %0 = load ptr, ptr %_M_start, align 8
  store ptr %0, ptr %__old_start, align 8
  %_M_impl2 = getelementptr inbounds %"struct.std::_Vector_base", ptr %this1, i32 0, i32 0
  %_M_finish = getelementptr inbounds %"struct.std::_Vector_base<std::shared_ptr<facebook::velox::exec::FunctionSignature>, std::allocator<std::shared_ptr<facebook::velox::exec::FunctionSignature>>>::_Vector_impl_data", ptr %_M_impl2, i32 0, i32 1
  %1 = load ptr, ptr %_M_finish, align 8
  store ptr %1, ptr %__old_finish, align 8
  %call3 = call ptr @_ZNSt6vectorISt10shared_ptrIN8facebook5velox4exec17FunctionSignatureEESaIS5_EE5beginEv(ptr noundef nonnull align 8 dereferenceable(24) %this1) #16
  %coerce.dive4 = getelementptr inbounds %"class.__gnu_cxx::__normal_iterator.52", ptr %ref.tmp, i32 0, i32 0
  store ptr %call3, ptr %coerce.dive4, align 8
  %call5 = call noundef i64 @_ZN9__gnu_cxxmiIPSt10shared_ptrIN8facebook5velox4exec17FunctionSignatureEESt6vectorIS6_SaIS6_EEEENS_17__normal_iteratorIT_T0_E15difference_typeERKSE_SH_(ptr noundef nonnull align 8 dereferenceable(8) %__position, ptr noundef nonnull align 8 dereferenceable(8) %ref.tmp) #16
  store i64 %call5, ptr %__elems_before, align 8
  %2 = load i64, ptr %__len, align 8
  %call6 = call noundef ptr @_ZNSt12_Vector_baseISt10shared_ptrIN8facebook5velox4exec17FunctionSignatureEESaIS5_EE11_M_allocateEm(ptr noundef nonnull align 8 dereferenceable(24) %this1, i64 noundef %2)
  store ptr %call6, ptr %__new_start, align 8
  %3 = load ptr, ptr %__new_start, align 8
  store ptr %3, ptr %__new_finish, align 8
  %_M_impl7 = getelementptr inbounds %"struct.std::_Vector_base", ptr %this1, i32 0, i32 0
  %4 = load ptr, ptr %__new_start, align 8
  %5 = load i64, ptr %__elems_before, align 8
  %add.ptr = getelementptr inbounds %"class.std::shared_ptr", ptr %4, i64 %5
  %6 = load ptr, ptr %__args.addr, align 8
  call void @_ZNSt16allocator_traitsISaISt10shared_ptrIN8facebook5velox4exec17FunctionSignatureEEEE9constructIS5_JS5_EEEvRS6_PT_DpOT0_(ptr noundef nonnull align 1 dereferenceable(1) %_M_impl7, ptr noundef %add.ptr, ptr noundef nonnull align 8 dereferenceable(16) %6) #16
  store ptr null, ptr %__new_finish, align 8
  %7 = load ptr, ptr %__old_start, align 8
  %call8 = call noundef nonnull align 8 dereferenceable(8) ptr @_ZNK9__gnu_cxx17__normal_iteratorIPSt10shared_ptrIN8facebook5velox4exec17FunctionSignatureEESt6vectorIS6_SaIS6_EEE4baseEv(ptr noundef nonnull align 8 dereferenceable(8) %__position) #16
  %8 = load ptr, ptr %call8, align 8
  %9 = load ptr, ptr %__new_start, align 8
  %call9 = call noundef nonnull align 1 dereferenceable(1) ptr @_ZNSt12_Vector_baseISt10shared_ptrIN8facebook5velox4exec17FunctionSignatureEESaIS5_EE19_M_get_Tp_allocatorEv(ptr noundef nonnull align 8 dereferenceable(24) %this1) #16
  %call10 = call noundef ptr @_ZNSt6vectorISt10shared_ptrIN8facebook5velox4exec17FunctionSignatureEESaIS5_EE11_S_relocateEPS5_S8_S8_RS6_(ptr noundef %7, ptr noundef %8, ptr noundef %9, ptr noundef nonnull align 1 dereferenceable(1) %call9) #16
  store ptr %call10, ptr %__new_finish, align 8
  %10 = load ptr, ptr %__new_finish, align 8
  %incdec.ptr = getelementptr inbounds %"class.std::shared_ptr", ptr %10, i32 1
  store ptr %incdec.ptr, ptr %__new_finish, align 8
  %call11 = call noundef nonnull align 8 dereferenceable(8) ptr @_ZNK9__gnu_cxx17__normal_iteratorIPSt10shared_ptrIN8facebook5velox4exec17FunctionSignatureEESt6vectorIS6_SaIS6_EEE4baseEv(ptr noundef nonnull align 8 dereferenceable(8) %__position) #16
  %11 = load ptr, ptr %call11, align 8
  %12 = load ptr, ptr %__old_finish, align 8
  %13 = load ptr, ptr %__new_finish, align 8
  %call12 = call noundef nonnull align 1 dereferenceable(1) ptr @_ZNSt12_Vector_baseISt10shared_ptrIN8facebook5velox4exec17FunctionSignatureEESaIS5_EE19_M_get_Tp_allocatorEv(ptr noundef nonnull align 8 dereferenceable(24) %this1) #16
  %call13 = call noundef ptr @_ZNSt6vectorISt10shared_ptrIN8facebook5velox4exec17FunctionSignatureEESaIS5_EE11_S_relocateEPS5_S8_S8_RS6_(ptr noundef %11, ptr noundef %12, ptr noundef %13, ptr noundef nonnull align 1 dereferenceable(1) %call12) #16
  store ptr %call13, ptr %__new_finish, align 8
  %14 = load ptr, ptr %__old_start, align 8
  %_M_impl14 = getelementptr inbounds %"struct.std::_Vector_base", ptr %this1, i32 0, i32 0
  %_M_end_of_storage = getelementptr inbounds %"struct.std::_Vector_base<std::shared_ptr<facebook::velox::exec::FunctionSignature>, std::allocator<std::shared_ptr<facebook::velox::exec::FunctionSignature>>>::_Vector_impl_data", ptr %_M_impl14, i32 0, i32 2
  %15 = load ptr, ptr %_M_end_of_storage, align 8
  %16 = load ptr, ptr %__old_start, align 8
  %sub.ptr.lhs.cast = ptrtoint ptr %15 to i64
  %sub.ptr.rhs.cast = ptrtoint ptr %16 to i64
  %sub.ptr.sub = sub i64 %sub.ptr.lhs.cast, %sub.ptr.rhs.cast
  %sub.ptr.div = sdiv exact i64 %sub.ptr.sub, 16
  call void @_ZNSt12_Vector_baseISt10shared_ptrIN8facebook5velox4exec17FunctionSignatureEESaIS5_EE13_M_deallocateEPS5_m(ptr noundef nonnull align 8 dereferenceable(24) %this1, ptr noundef %14, i64 noundef %sub.ptr.div)
  %17 = load ptr, ptr %__new_start, align 8
  %_M_impl15 = getelementptr inbounds %"struct.std::_Vector_base", ptr %this1, i32 0, i32 0
  %_M_start16 = getelementptr inbounds %"struct.std::_Vector_base<std::shared_ptr<facebook::velox::exec::FunctionSignature>, std::allocator<std::shared_ptr<facebook::velox::exec::FunctionSignature>>>::_Vector_impl_data", ptr %_M_impl15, i32 0, i32 0
  store ptr %17, ptr %_M_start16, align 8
  %18 = load ptr, ptr %__new_finish, align 8
  %_M_impl17 = getelementptr inbounds %"struct.std::_Vector_base", ptr %this1, i32 0, i32 0
  %_M_finish18 = getelementptr inbounds %"struct.std::_Vector_base<std::shared_ptr<facebook::velox::exec::FunctionSignature>, std::allocator<std::shared_ptr<facebook::velox::exec::FunctionSignature>>>::_Vector_impl_data", ptr %_M_impl17, i32 0, i32 1
  store ptr %18, ptr %_M_finish18, align 8
  %19 = load ptr, ptr %__new_start, align 8
  %20 = load i64, ptr %__len, align 8
  %add.ptr19 = getelementptr inbounds %"class.std::shared_ptr", ptr %19, i64 %20
  %_M_impl20 = getelementptr inbounds %"struct.std::_Vector_base", ptr %this1, i32 0, i32 0
  %_M_end_of_storage21 = getelementptr inbounds %"struct.std::_Vector_base<std::shared_ptr<facebook::velox::exec::FunctionSignature>, std::allocator<std::shared_ptr<facebook::velox::exec::FunctionSignature>>>::_Vector_impl_data", ptr %_M_impl20, i32 0, i32 2
  store ptr %add.ptr19, ptr %_M_end_of_storage21, align 8
  ret void
}

; Function Attrs: mustprogress nounwind uwtable
define linkonce_odr ptr @_ZNSt6vectorISt10shared_ptrIN8facebook5velox4exec17FunctionSignatureEESaIS5_EE3endEv(ptr noundef nonnull align 8 dereferenceable(24) %this) #2 comdat align 2 {
entry:
  %retval = alloca %"class.__gnu_cxx::__normal_iterator.52", align 8
  %this.addr = alloca ptr, align 8
  store ptr %this, ptr %this.addr, align 8
  %this1 = load ptr, ptr %this.addr, align 8
  %_M_impl = getelementptr inbounds %"struct.std::_Vector_base", ptr %this1, i32 0, i32 0
  %_M_finish = getelementptr inbounds %"struct.std::_Vector_base<std::shared_ptr<facebook::velox::exec::FunctionSignature>, std::allocator<std::shared_ptr<facebook::velox::exec::FunctionSignature>>>::_Vector_impl_data", ptr %_M_impl, i32 0, i32 1
  call void @_ZN9__gnu_cxx17__normal_iteratorIPSt10shared_ptrIN8facebook5velox4exec17FunctionSignatureEESt6vectorIS6_SaIS6_EEEC2ERKS7_(ptr noundef nonnull align 8 dereferenceable(8) %retval, ptr noundef nonnull align 8 dereferenceable(8) %_M_finish) #16
  %coerce.dive = getelementptr inbounds %"class.__gnu_cxx::__normal_iterator.52", ptr %retval, i32 0, i32 0
  %0 = load ptr, ptr %coerce.dive, align 8
  ret ptr %0
}

; Function Attrs: mustprogress nounwind uwtable
define linkonce_odr noundef nonnull align 8 dereferenceable(16) ptr @_ZNSt6vectorISt10shared_ptrIN8facebook5velox4exec17FunctionSignatureEESaIS5_EE4backEv(ptr noundef nonnull align 8 dereferenceable(24) %this) #2 comdat align 2 {
entry:
  %this.addr = alloca ptr, align 8
  %ref.tmp = alloca %"class.__gnu_cxx::__normal_iterator.52", align 8
  %ref.tmp2 = alloca %"class.__gnu_cxx::__normal_iterator.52", align 8
  store ptr %this, ptr %this.addr, align 8
  %this1 = load ptr, ptr %this.addr, align 8
  %call = call ptr @_ZNSt6vectorISt10shared_ptrIN8facebook5velox4exec17FunctionSignatureEESaIS5_EE3endEv(ptr noundef nonnull align 8 dereferenceable(24) %this1) #16
  %coerce.dive = getelementptr inbounds %"class.__gnu_cxx::__normal_iterator.52", ptr %ref.tmp2, i32 0, i32 0
  store ptr %call, ptr %coerce.dive, align 8
  %call3 = call ptr @_ZNK9__gnu_cxx17__normal_iteratorIPSt10shared_ptrIN8facebook5velox4exec17FunctionSignatureEESt6vectorIS6_SaIS6_EEEmiEl(ptr noundef nonnull align 8 dereferenceable(8) %ref.tmp2, i64 noundef 1) #16
  %coerce.dive4 = getelementptr inbounds %"class.__gnu_cxx::__normal_iterator.52", ptr %ref.tmp, i32 0, i32 0
  store ptr %call3, ptr %coerce.dive4, align 8
  %call5 = call noundef nonnull align 8 dereferenceable(16) ptr @_ZNK9__gnu_cxx17__normal_iteratorIPSt10shared_ptrIN8facebook5velox4exec17FunctionSignatureEESt6vectorIS6_SaIS6_EEEdeEv(ptr noundef nonnull align 8 dereferenceable(8) %ref.tmp) #16
  ret ptr %call5
}

; Function Attrs: mustprogress nounwind uwtable
define linkonce_odr void @_ZNSt15__new_allocatorISt10shared_ptrIN8facebook5velox4exec17FunctionSignatureEEE9constructIS5_JS5_EEEvPT_DpOT0_(ptr noundef nonnull align 1 dereferenceable(1) %this, ptr noundef %__p, ptr noundef nonnull align 8 dereferenceable(16) %__args) #2 comdat align 2 {
entry:
  %this.addr = alloca ptr, align 8
  %__p.addr = alloca ptr, align 8
  %__args.addr = alloca ptr, align 8
  store ptr %this, ptr %this.addr, align 8
  store ptr %__p, ptr %__p.addr, align 8
  store ptr %__args, ptr %__args.addr, align 8
  %0 = load ptr, ptr %__p.addr, align 8
  %1 = load ptr, ptr %__args.addr, align 8
  call void @_ZNSt10shared_ptrIN8facebook5velox4exec17FunctionSignatureEEC2EOS4_(ptr noundef nonnull align 8 dereferenceable(16) %0, ptr noundef nonnull align 8 dereferenceable(16) %1) #16
  ret void
}

; Function Attrs: mustprogress nounwind uwtable
define linkonce_odr void @_ZNSt10shared_ptrIN8facebook5velox4exec17FunctionSignatureEEC2EOS4_(ptr noundef nonnull align 8 dereferenceable(16) %this, ptr noundef nonnull align 8 dereferenceable(16) %__r) unnamed_addr #2 comdat align 2 {
entry:
  %this.addr = alloca ptr, align 8
  %__r.addr = alloca ptr, align 8
  store ptr %this, ptr %this.addr, align 8
  store ptr %__r, ptr %__r.addr, align 8
  %this1 = load ptr, ptr %this.addr, align 8
  %0 = load ptr, ptr %__r.addr, align 8
  call void @_ZNSt12__shared_ptrIN8facebook5velox4exec17FunctionSignatureELN9__gnu_cxx12_Lock_policyE2EEC2EOS6_(ptr noundef nonnull align 8 dereferenceable(16) %this1, ptr noundef nonnull align 8 dereferenceable(16) %0) #16
  ret void
}

; Function Attrs: mustprogress nounwind uwtable
define linkonce_odr void @_ZNSt12__shared_ptrIN8facebook5velox4exec17FunctionSignatureELN9__gnu_cxx12_Lock_policyE2EEC2EOS6_(ptr noundef nonnull align 8 dereferenceable(16) %this, ptr noundef nonnull align 8 dereferenceable(16) %__r) unnamed_addr #2 comdat align 2 {
entry:
  %this.addr = alloca ptr, align 8
  %__r.addr = alloca ptr, align 8
  store ptr %this, ptr %this.addr, align 8
  store ptr %__r, ptr %__r.addr, align 8
  %this1 = load ptr, ptr %this.addr, align 8
  %_M_ptr = getelementptr inbounds %"class.std::__shared_ptr", ptr %this1, i32 0, i32 0
  %0 = load ptr, ptr %__r.addr, align 8
  %_M_ptr2 = getelementptr inbounds %"class.std::__shared_ptr", ptr %0, i32 0, i32 0
  %1 = load ptr, ptr %_M_ptr2, align 8
  store ptr %1, ptr %_M_ptr, align 8
  %_M_refcount = getelementptr inbounds %"class.std::__shared_ptr", ptr %this1, i32 0, i32 1
  call void @_ZNSt14__shared_countILN9__gnu_cxx12_Lock_policyE2EEC2Ev(ptr noundef nonnull align 8 dereferenceable(8) %_M_refcount) #16
  %_M_refcount3 = getelementptr inbounds %"class.std::__shared_ptr", ptr %this1, i32 0, i32 1
  %2 = load ptr, ptr %__r.addr, align 8
  %_M_refcount4 = getelementptr inbounds %"class.std::__shared_ptr", ptr %2, i32 0, i32 1
  call void @_ZNSt14__shared_countILN9__gnu_cxx12_Lock_policyE2EE7_M_swapERS2_(ptr noundef nonnull align 8 dereferenceable(8) %_M_refcount3, ptr noundef nonnull align 8 dereferenceable(8) %_M_refcount4) #16
  %3 = load ptr, ptr %__r.addr, align 8
  %_M_ptr5 = getelementptr inbounds %"class.std::__shared_ptr", ptr %3, i32 0, i32 0
  store ptr null, ptr %_M_ptr5, align 8
  ret void
}

; Function Attrs: mustprogress nounwind uwtable
define linkonce_odr void @_ZNSt14__shared_countILN9__gnu_cxx12_Lock_policyE2EEC2Ev(ptr noundef nonnull align 8 dereferenceable(8) %this) unnamed_addr #2 comdat align 2 {
entry:
  %this.addr = alloca ptr, align 8
  store ptr %this, ptr %this.addr, align 8
  %this1 = load ptr, ptr %this.addr, align 8
  %_M_pi = getelementptr inbounds %"class.std::__shared_count", ptr %this1, i32 0, i32 0
  store ptr null, ptr %_M_pi, align 8
  ret void
}

; Function Attrs: mustprogress nounwind uwtable
define linkonce_odr void @_ZNSt14__shared_countILN9__gnu_cxx12_Lock_policyE2EE7_M_swapERS2_(ptr noundef nonnull align 8 dereferenceable(8) %this, ptr noundef nonnull align 8 dereferenceable(8) %__r) #2 comdat align 2 {
entry:
  %this.addr = alloca ptr, align 8
  %__r.addr = alloca ptr, align 8
  %__tmp = alloca ptr, align 8
  store ptr %this, ptr %this.addr, align 8
  store ptr %__r, ptr %__r.addr, align 8
  %this1 = load ptr, ptr %this.addr, align 8
  %0 = load ptr, ptr %__r.addr, align 8
  %_M_pi = getelementptr inbounds %"class.std::__shared_count", ptr %0, i32 0, i32 0
  %1 = load ptr, ptr %_M_pi, align 8
  store ptr %1, ptr %__tmp, align 8
  %_M_pi2 = getelementptr inbounds %"class.std::__shared_count", ptr %this1, i32 0, i32 0
  %2 = load ptr, ptr %_M_pi2, align 8
  %3 = load ptr, ptr %__r.addr, align 8
  %_M_pi3 = getelementptr inbounds %"class.std::__shared_count", ptr %3, i32 0, i32 0
  store ptr %2, ptr %_M_pi3, align 8
  %4 = load ptr, ptr %__tmp, align 8
  %_M_pi4 = getelementptr inbounds %"class.std::__shared_count", ptr %this1, i32 0, i32 0
  store ptr %4, ptr %_M_pi4, align 8
  ret void
}

; Function Attrs: mustprogress uwtable
define linkonce_odr noundef i64 @_ZNKSt6vectorISt10shared_ptrIN8facebook5velox4exec17FunctionSignatureEESaIS5_EE12_M_check_lenEmPKc(ptr noundef nonnull align 8 dereferenceable(24) %this, i64 noundef %__n, ptr noundef %__s) #0 comdat align 2 {
entry:
  %this.addr = alloca ptr, align 8
  %__n.addr = alloca i64, align 8
  %__s.addr = alloca ptr, align 8
  %__len = alloca i64, align 8
  %ref.tmp = alloca i64, align 8
  store ptr %this, ptr %this.addr, align 8
  store i64 %__n, ptr %__n.addr, align 8
  store ptr %__s, ptr %__s.addr, align 8
  %this1 = load ptr, ptr %this.addr, align 8
  %call = call noundef i64 @_ZNKSt6vectorISt10shared_ptrIN8facebook5velox4exec17FunctionSignatureEESaIS5_EE8max_sizeEv(ptr noundef nonnull align 8 dereferenceable(24) %this1) #16
  %call2 = call noundef i64 @_ZNKSt6vectorISt10shared_ptrIN8facebook5velox4exec17FunctionSignatureEESaIS5_EE4sizeEv(ptr noundef nonnull align 8 dereferenceable(24) %this1) #16
  %sub = sub i64 %call, %call2
  %0 = load i64, ptr %__n.addr, align 8
  %cmp = icmp ult i64 %sub, %0
  br i1 %cmp, label %if.then, label %if.end

if.then:                                          ; preds = %entry
  %1 = load ptr, ptr %__s.addr, align 8
  call void @_ZSt20__throw_length_errorPKc(ptr noundef %1) #19
  unreachable

if.end:                                           ; preds = %entry
  %call3 = call noundef i64 @_ZNKSt6vectorISt10shared_ptrIN8facebook5velox4exec17FunctionSignatureEESaIS5_EE4sizeEv(ptr noundef nonnull align 8 dereferenceable(24) %this1) #16
  %call4 = call noundef i64 @_ZNKSt6vectorISt10shared_ptrIN8facebook5velox4exec17FunctionSignatureEESaIS5_EE4sizeEv(ptr noundef nonnull align 8 dereferenceable(24) %this1) #16
  store i64 %call4, ptr %ref.tmp, align 8
  %call5 = call noundef nonnull align 8 dereferenceable(8) ptr @_ZSt3maxImERKT_S2_S2_(ptr noundef nonnull align 8 dereferenceable(8) %ref.tmp, ptr noundef nonnull align 8 dereferenceable(8) %__n.addr)
  %2 = load i64, ptr %call5, align 8
  %add = add i64 %call3, %2
  store i64 %add, ptr %__len, align 8
  %3 = load i64, ptr %__len, align 8
  %call6 = call noundef i64 @_ZNKSt6vectorISt10shared_ptrIN8facebook5velox4exec17FunctionSignatureEESaIS5_EE4sizeEv(ptr noundef nonnull align 8 dereferenceable(24) %this1) #16
  %cmp7 = icmp ult i64 %3, %call6
  br i1 %cmp7, label %cond.true, label %lor.lhs.false

lor.lhs.false:                                    ; preds = %if.end
  %4 = load i64, ptr %__len, align 8
  %call8 = call noundef i64 @_ZNKSt6vectorISt10shared_ptrIN8facebook5velox4exec17FunctionSignatureEESaIS5_EE8max_sizeEv(ptr noundef nonnull align 8 dereferenceable(24) %this1) #16
  %cmp9 = icmp ugt i64 %4, %call8
  br i1 %cmp9, label %cond.true, label %cond.false

cond.true:                                        ; preds = %lor.lhs.false, %if.end
  %call10 = call noundef i64 @_ZNKSt6vectorISt10shared_ptrIN8facebook5velox4exec17FunctionSignatureEESaIS5_EE8max_sizeEv(ptr noundef nonnull align 8 dereferenceable(24) %this1) #16
  br label %cond.end

cond.false:                                       ; preds = %lor.lhs.false
  %5 = load i64, ptr %__len, align 8
  br label %cond.end

cond.end:                                         ; preds = %cond.false, %cond.true
  %cond = phi i64 [ %call10, %cond.true ], [ %5, %cond.false ]
  ret i64 %cond
}

; Function Attrs: mustprogress nounwind uwtable
define linkonce_odr noundef i64 @_ZN9__gnu_cxxmiIPSt10shared_ptrIN8facebook5velox4exec17FunctionSignatureEESt6vectorIS6_SaIS6_EEEENS_17__normal_iteratorIT_T0_E15difference_typeERKSE_SH_(ptr noundef nonnull align 8 dereferenceable(8) %__lhs, ptr noundef nonnull align 8 dereferenceable(8) %__rhs) #2 comdat {
entry:
  %__lhs.addr = alloca ptr, align 8
  %__rhs.addr = alloca ptr, align 8
  store ptr %__lhs, ptr %__lhs.addr, align 8
  store ptr %__rhs, ptr %__rhs.addr, align 8
  %0 = load ptr, ptr %__lhs.addr, align 8
  %call = call noundef nonnull align 8 dereferenceable(8) ptr @_ZNK9__gnu_cxx17__normal_iteratorIPSt10shared_ptrIN8facebook5velox4exec17FunctionSignatureEESt6vectorIS6_SaIS6_EEE4baseEv(ptr noundef nonnull align 8 dereferenceable(8) %0) #16
  %1 = load ptr, ptr %call, align 8
  %2 = load ptr, ptr %__rhs.addr, align 8
  %call1 = call noundef nonnull align 8 dereferenceable(8) ptr @_ZNK9__gnu_cxx17__normal_iteratorIPSt10shared_ptrIN8facebook5velox4exec17FunctionSignatureEESt6vectorIS6_SaIS6_EEE4baseEv(ptr noundef nonnull align 8 dereferenceable(8) %2) #16
  %3 = load ptr, ptr %call1, align 8
  %sub.ptr.lhs.cast = ptrtoint ptr %1 to i64
  %sub.ptr.rhs.cast = ptrtoint ptr %3 to i64
  %sub.ptr.sub = sub i64 %sub.ptr.lhs.cast, %sub.ptr.rhs.cast
  %sub.ptr.div = sdiv exact i64 %sub.ptr.sub, 16
  ret i64 %sub.ptr.div
}

; Function Attrs: mustprogress nounwind uwtable
define linkonce_odr ptr @_ZNSt6vectorISt10shared_ptrIN8facebook5velox4exec17FunctionSignatureEESaIS5_EE5beginEv(ptr noundef nonnull align 8 dereferenceable(24) %this) #2 comdat align 2 {
entry:
  %retval = alloca %"class.__gnu_cxx::__normal_iterator.52", align 8
  %this.addr = alloca ptr, align 8
  store ptr %this, ptr %this.addr, align 8
  %this1 = load ptr, ptr %this.addr, align 8
  %_M_impl = getelementptr inbounds %"struct.std::_Vector_base", ptr %this1, i32 0, i32 0
  %_M_start = getelementptr inbounds %"struct.std::_Vector_base<std::shared_ptr<facebook::velox::exec::FunctionSignature>, std::allocator<std::shared_ptr<facebook::velox::exec::FunctionSignature>>>::_Vector_impl_data", ptr %_M_impl, i32 0, i32 0
  call void @_ZN9__gnu_cxx17__normal_iteratorIPSt10shared_ptrIN8facebook5velox4exec17FunctionSignatureEESt6vectorIS6_SaIS6_EEEC2ERKS7_(ptr noundef nonnull align 8 dereferenceable(8) %retval, ptr noundef nonnull align 8 dereferenceable(8) %_M_start) #16
  %coerce.dive = getelementptr inbounds %"class.__gnu_cxx::__normal_iterator.52", ptr %retval, i32 0, i32 0
  %0 = load ptr, ptr %coerce.dive, align 8
  ret ptr %0
}

; Function Attrs: mustprogress uwtable
define linkonce_odr noundef ptr @_ZNSt12_Vector_baseISt10shared_ptrIN8facebook5velox4exec17FunctionSignatureEESaIS5_EE11_M_allocateEm(ptr noundef nonnull align 8 dereferenceable(24) %this, i64 noundef %__n) #0 comdat align 2 {
entry:
  %this.addr = alloca ptr, align 8
  %__n.addr = alloca i64, align 8
  store ptr %this, ptr %this.addr, align 8
  store i64 %__n, ptr %__n.addr, align 8
  %this1 = load ptr, ptr %this.addr, align 8
  %0 = load i64, ptr %__n.addr, align 8
  %cmp = icmp ne i64 %0, 0
  br i1 %cmp, label %cond.true, label %cond.false

cond.true:                                        ; preds = %entry
  %_M_impl = getelementptr inbounds %"struct.std::_Vector_base", ptr %this1, i32 0, i32 0
  %1 = load i64, ptr %__n.addr, align 8
  %call = call noundef ptr @_ZNSt16allocator_traitsISaISt10shared_ptrIN8facebook5velox4exec17FunctionSignatureEEEE8allocateERS6_m(ptr noundef nonnull align 1 dereferenceable(1) %_M_impl, i64 noundef %1)
  br label %cond.end

cond.false:                                       ; preds = %entry
  br label %cond.end

cond.end:                                         ; preds = %cond.false, %cond.true
  %cond = phi ptr [ %call, %cond.true ], [ null, %cond.false ]
  ret ptr %cond
}

; Function Attrs: mustprogress nounwind uwtable
define linkonce_odr noundef ptr @_ZNSt6vectorISt10shared_ptrIN8facebook5velox4exec17FunctionSignatureEESaIS5_EE11_S_relocateEPS5_S8_S8_RS6_(ptr noundef %__first, ptr noundef %__last, ptr noundef %__result, ptr noundef nonnull align 1 dereferenceable(1) %__alloc) #2 comdat align 2 {
entry:
  %__first.addr = alloca ptr, align 8
  %__last.addr = alloca ptr, align 8
  %__result.addr = alloca ptr, align 8
  %__alloc.addr = alloca ptr, align 8
  store ptr %__first, ptr %__first.addr, align 8
  store ptr %__last, ptr %__last.addr, align 8
  store ptr %__result, ptr %__result.addr, align 8
  store ptr %__alloc, ptr %__alloc.addr, align 8
  %0 = load ptr, ptr %__first.addr, align 8
  %1 = load ptr, ptr %__last.addr, align 8
  %2 = load ptr, ptr %__result.addr, align 8
  %3 = load ptr, ptr %__alloc.addr, align 8
  %call = call noundef ptr @_ZSt12__relocate_aIPSt10shared_ptrIN8facebook5velox4exec17FunctionSignatureEES6_SaIS5_EET0_T_S9_S8_RT1_(ptr noundef %0, ptr noundef %1, ptr noundef %2, ptr noundef nonnull align 1 dereferenceable(1) %3) #16
  ret ptr %call
}

; Function Attrs: mustprogress nounwind uwtable
define linkonce_odr noundef nonnull align 8 dereferenceable(8) ptr @_ZNK9__gnu_cxx17__normal_iteratorIPSt10shared_ptrIN8facebook5velox4exec17FunctionSignatureEESt6vectorIS6_SaIS6_EEE4baseEv(ptr noundef nonnull align 8 dereferenceable(8) %this) #2 comdat align 2 {
entry:
  %this.addr = alloca ptr, align 8
  store ptr %this, ptr %this.addr, align 8
  %this1 = load ptr, ptr %this.addr, align 8
  %_M_current = getelementptr inbounds %"class.__gnu_cxx::__normal_iterator.52", ptr %this1, i32 0, i32 0
  ret ptr %_M_current
}

; Function Attrs: mustprogress nounwind uwtable
define linkonce_odr noundef nonnull align 1 dereferenceable(1) ptr @_ZNSt12_Vector_baseISt10shared_ptrIN8facebook5velox4exec17FunctionSignatureEESaIS5_EE19_M_get_Tp_allocatorEv(ptr noundef nonnull align 8 dereferenceable(24) %this) #2 comdat align 2 {
entry:
  %this.addr = alloca ptr, align 8
  store ptr %this, ptr %this.addr, align 8
  %this1 = load ptr, ptr %this.addr, align 8
  %_M_impl = getelementptr inbounds %"struct.std::_Vector_base", ptr %this1, i32 0, i32 0
  ret ptr %_M_impl
}

; Function Attrs: mustprogress uwtable
define linkonce_odr void @_ZNSt12_Vector_baseISt10shared_ptrIN8facebook5velox4exec17FunctionSignatureEESaIS5_EE13_M_deallocateEPS5_m(ptr noundef nonnull align 8 dereferenceable(24) %this, ptr noundef %__p, i64 noundef %__n) #0 comdat align 2 {
entry:
  %this.addr = alloca ptr, align 8
  %__p.addr = alloca ptr, align 8
  %__n.addr = alloca i64, align 8
  store ptr %this, ptr %this.addr, align 8
  store ptr %__p, ptr %__p.addr, align 8
  store i64 %__n, ptr %__n.addr, align 8
  %this1 = load ptr, ptr %this.addr, align 8
  %0 = load ptr, ptr %__p.addr, align 8
  %tobool = icmp ne ptr %0, null
  br i1 %tobool, label %if.then, label %if.end

if.then:                                          ; preds = %entry
  %_M_impl = getelementptr inbounds %"struct.std::_Vector_base", ptr %this1, i32 0, i32 0
  %1 = load ptr, ptr %__p.addr, align 8
  %2 = load i64, ptr %__n.addr, align 8
  call void @_ZNSt16allocator_traitsISaISt10shared_ptrIN8facebook5velox4exec17FunctionSignatureEEEE10deallocateERS6_PS5_m(ptr noundef nonnull align 1 dereferenceable(1) %_M_impl, ptr noundef %1, i64 noundef %2)
  br label %if.end

if.end:                                           ; preds = %if.then, %entry
  ret void
}

; Function Attrs: mustprogress nounwind uwtable
define linkonce_odr noundef i64 @_ZNKSt6vectorISt10shared_ptrIN8facebook5velox4exec17FunctionSignatureEESaIS5_EE8max_sizeEv(ptr noundef nonnull align 8 dereferenceable(24) %this) #2 comdat align 2 {
entry:
  %this.addr = alloca ptr, align 8
  store ptr %this, ptr %this.addr, align 8
  %this1 = load ptr, ptr %this.addr, align 8
  %call = call noundef nonnull align 1 dereferenceable(1) ptr @_ZNKSt12_Vector_baseISt10shared_ptrIN8facebook5velox4exec17FunctionSignatureEESaIS5_EE19_M_get_Tp_allocatorEv(ptr noundef nonnull align 8 dereferenceable(24) %this1) #16
  %call2 = call noundef i64 @_ZNSt6vectorISt10shared_ptrIN8facebook5velox4exec17FunctionSignatureEESaIS5_EE11_S_max_sizeERKS6_(ptr noundef nonnull align 1 dereferenceable(1) %call) #16
  ret i64 %call2
}

; Function Attrs: mustprogress nounwind uwtable
define linkonce_odr noundef i64 @_ZNKSt6vectorISt10shared_ptrIN8facebook5velox4exec17FunctionSignatureEESaIS5_EE4sizeEv(ptr noundef nonnull align 8 dereferenceable(24) %this) #2 comdat align 2 {
entry:
  %this.addr = alloca ptr, align 8
  store ptr %this, ptr %this.addr, align 8
  %this1 = load ptr, ptr %this.addr, align 8
  %_M_impl = getelementptr inbounds %"struct.std::_Vector_base", ptr %this1, i32 0, i32 0
  %_M_finish = getelementptr inbounds %"struct.std::_Vector_base<std::shared_ptr<facebook::velox::exec::FunctionSignature>, std::allocator<std::shared_ptr<facebook::velox::exec::FunctionSignature>>>::_Vector_impl_data", ptr %_M_impl, i32 0, i32 1
  %0 = load ptr, ptr %_M_finish, align 8
  %_M_impl2 = getelementptr inbounds %"struct.std::_Vector_base", ptr %this1, i32 0, i32 0
  %_M_start = getelementptr inbounds %"struct.std::_Vector_base<std::shared_ptr<facebook::velox::exec::FunctionSignature>, std::allocator<std::shared_ptr<facebook::velox::exec::FunctionSignature>>>::_Vector_impl_data", ptr %_M_impl2, i32 0, i32 0
  %1 = load ptr, ptr %_M_start, align 8
  %sub.ptr.lhs.cast = ptrtoint ptr %0 to i64
  %sub.ptr.rhs.cast = ptrtoint ptr %1 to i64
  %sub.ptr.sub = sub i64 %sub.ptr.lhs.cast, %sub.ptr.rhs.cast
  %sub.ptr.div = sdiv exact i64 %sub.ptr.sub, 16
  ret i64 %sub.ptr.div
}

; Function Attrs: mustprogress nounwind uwtable
define linkonce_odr noundef nonnull align 8 dereferenceable(8) ptr @_ZSt3maxImERKT_S2_S2_(ptr noundef nonnull align 8 dereferenceable(8) %__a, ptr noundef nonnull align 8 dereferenceable(8) %__b) #2 comdat {
entry:
  %retval = alloca ptr, align 8
  %__a.addr = alloca ptr, align 8
  %__b.addr = alloca ptr, align 8
  store ptr %__a, ptr %__a.addr, align 8
  store ptr %__b, ptr %__b.addr, align 8
  %0 = load ptr, ptr %__a.addr, align 8
  %1 = load i64, ptr %0, align 8
  %2 = load ptr, ptr %__b.addr, align 8
  %3 = load i64, ptr %2, align 8
  %cmp = icmp ult i64 %1, %3
  br i1 %cmp, label %if.then, label %if.end

if.then:                                          ; preds = %entry
  %4 = load ptr, ptr %__b.addr, align 8
  store ptr %4, ptr %retval, align 8
  br label %return

if.end:                                           ; preds = %entry
  %5 = load ptr, ptr %__a.addr, align 8
  store ptr %5, ptr %retval, align 8
  br label %return

return:                                           ; preds = %if.end, %if.then
  %6 = load ptr, ptr %retval, align 8
  ret ptr %6
}

; Function Attrs: mustprogress nounwind uwtable
define linkonce_odr noundef i64 @_ZNSt6vectorISt10shared_ptrIN8facebook5velox4exec17FunctionSignatureEESaIS5_EE11_S_max_sizeERKS6_(ptr noundef nonnull align 1 dereferenceable(1) %__a) #2 comdat align 2 {
entry:
  %__a.addr = alloca ptr, align 8
  %__diffmax = alloca i64, align 8
  %__allocmax = alloca i64, align 8
  store ptr %__a, ptr %__a.addr, align 8
  store i64 576460752303423487, ptr %__diffmax, align 8
  %0 = load ptr, ptr %__a.addr, align 8
  %call = call noundef i64 @_ZNSt16allocator_traitsISaISt10shared_ptrIN8facebook5velox4exec17FunctionSignatureEEEE8max_sizeERKS6_(ptr noundef nonnull align 1 dereferenceable(1) %0) #16
  store i64 %call, ptr %__allocmax, align 8
  %call1 = call noundef nonnull align 8 dereferenceable(8) ptr @_ZSt3minImERKT_S2_S2_(ptr noundef nonnull align 8 dereferenceable(8) %__diffmax, ptr noundef nonnull align 8 dereferenceable(8) %__allocmax)
  %1 = load i64, ptr %call1, align 8
  ret i64 %1
}

; Function Attrs: mustprogress nounwind uwtable
define linkonce_odr noundef nonnull align 1 dereferenceable(1) ptr @_ZNKSt12_Vector_baseISt10shared_ptrIN8facebook5velox4exec17FunctionSignatureEESaIS5_EE19_M_get_Tp_allocatorEv(ptr noundef nonnull align 8 dereferenceable(24) %this) #2 comdat align 2 {
entry:
  %this.addr = alloca ptr, align 8
  store ptr %this, ptr %this.addr, align 8
  %this1 = load ptr, ptr %this.addr, align 8
  %_M_impl = getelementptr inbounds %"struct.std::_Vector_base", ptr %this1, i32 0, i32 0
  ret ptr %_M_impl
}

; Function Attrs: mustprogress nounwind uwtable
define linkonce_odr noundef i64 @_ZNSt16allocator_traitsISaISt10shared_ptrIN8facebook5velox4exec17FunctionSignatureEEEE8max_sizeERKS6_(ptr noundef nonnull align 1 dereferenceable(1) %__a) #2 comdat align 2 {
entry:
  %__a.addr = alloca ptr, align 8
  store ptr %__a, ptr %__a.addr, align 8
  %0 = load ptr, ptr %__a.addr, align 8
  %call = call noundef i64 @_ZNKSt15__new_allocatorISt10shared_ptrIN8facebook5velox4exec17FunctionSignatureEEE8max_sizeEv(ptr noundef nonnull align 1 dereferenceable(1) %0) #16
  ret i64 %call
}

; Function Attrs: mustprogress nounwind uwtable
define linkonce_odr noundef i64 @_ZNKSt15__new_allocatorISt10shared_ptrIN8facebook5velox4exec17FunctionSignatureEEE8max_sizeEv(ptr noundef nonnull align 1 dereferenceable(1) %this) #2 comdat align 2 {
entry:
  %this.addr = alloca ptr, align 8
  store ptr %this, ptr %this.addr, align 8
  %this1 = load ptr, ptr %this.addr, align 8
  %call = call noundef i64 @_ZNKSt15__new_allocatorISt10shared_ptrIN8facebook5velox4exec17FunctionSignatureEEE11_M_max_sizeEv(ptr noundef nonnull align 1 dereferenceable(1) %this1) #16
  ret i64 %call
}

; Function Attrs: mustprogress nounwind uwtable
define linkonce_odr noundef i64 @_ZNKSt15__new_allocatorISt10shared_ptrIN8facebook5velox4exec17FunctionSignatureEEE11_M_max_sizeEv(ptr noundef nonnull align 1 dereferenceable(1) %this) #2 comdat align 2 {
entry:
  %this.addr = alloca ptr, align 8
  store ptr %this, ptr %this.addr, align 8
  ret i64 576460752303423487
}

; Function Attrs: mustprogress nounwind uwtable
define linkonce_odr void @_ZN9__gnu_cxx17__normal_iteratorIPSt10shared_ptrIN8facebook5velox4exec17FunctionSignatureEESt6vectorIS6_SaIS6_EEEC2ERKS7_(ptr noundef nonnull align 8 dereferenceable(8) %this, ptr noundef nonnull align 8 dereferenceable(8) %__i) unnamed_addr #2 comdat align 2 {
entry:
  %this.addr = alloca ptr, align 8
  %__i.addr = alloca ptr, align 8
  store ptr %this, ptr %this.addr, align 8
  store ptr %__i, ptr %__i.addr, align 8
  %this1 = load ptr, ptr %this.addr, align 8
  %_M_current = getelementptr inbounds %"class.__gnu_cxx::__normal_iterator.52", ptr %this1, i32 0, i32 0
  %0 = load ptr, ptr %__i.addr, align 8
  %1 = load ptr, ptr %0, align 8
  store ptr %1, ptr %_M_current, align 8
  ret void
}

; Function Attrs: mustprogress uwtable
define linkonce_odr noundef ptr @_ZNSt16allocator_traitsISaISt10shared_ptrIN8facebook5velox4exec17FunctionSignatureEEEE8allocateERS6_m(ptr noundef nonnull align 1 dereferenceable(1) %__a, i64 noundef %__n) #0 comdat align 2 {
entry:
  %__a.addr = alloca ptr, align 8
  %__n.addr = alloca i64, align 8
  store ptr %__a, ptr %__a.addr, align 8
  store i64 %__n, ptr %__n.addr, align 8
  %0 = load ptr, ptr %__a.addr, align 8
  %1 = load i64, ptr %__n.addr, align 8
  %call = call noundef ptr @_ZNSt15__new_allocatorISt10shared_ptrIN8facebook5velox4exec17FunctionSignatureEEE8allocateEmPKv(ptr noundef nonnull align 1 dereferenceable(1) %0, i64 noundef %1, ptr noundef null)
  ret ptr %call
}

; Function Attrs: mustprogress uwtable
define linkonce_odr noundef ptr @_ZNSt15__new_allocatorISt10shared_ptrIN8facebook5velox4exec17FunctionSignatureEEE8allocateEmPKv(ptr noundef nonnull align 1 dereferenceable(1) %this, i64 noundef %__n, ptr noundef %0) #0 comdat align 2 {
entry:
  %this.addr = alloca ptr, align 8
  %__n.addr = alloca i64, align 8
  %.addr = alloca ptr, align 8
  store ptr %this, ptr %this.addr, align 8
  store i64 %__n, ptr %__n.addr, align 8
  store ptr %0, ptr %.addr, align 8
  %this1 = load ptr, ptr %this.addr, align 8
  %1 = load i64, ptr %__n.addr, align 8
  %call = call noundef i64 @_ZNKSt15__new_allocatorISt10shared_ptrIN8facebook5velox4exec17FunctionSignatureEEE11_M_max_sizeEv(ptr noundef nonnull align 1 dereferenceable(1) %this1) #16
  %cmp = icmp ugt i64 %1, %call
  br i1 %cmp, label %if.then, label %if.end4

if.then:                                          ; preds = %entry
  %2 = load i64, ptr %__n.addr, align 8
  %cmp2 = icmp ugt i64 %2, 1152921504606846975
  br i1 %cmp2, label %if.then3, label %if.end

if.then3:                                         ; preds = %if.then
  call void @_ZSt28__throw_bad_array_new_lengthv() #19
  unreachable

if.end:                                           ; preds = %if.then
  call void @_ZSt17__throw_bad_allocv() #19
  unreachable

if.end4:                                          ; preds = %entry
  %3 = load i64, ptr %__n.addr, align 8
  %mul = mul i64 %3, 16
  %call5 = call noalias noundef nonnull ptr @_Znwm(i64 noundef %mul) #17
  ret ptr %call5
}

; Function Attrs: mustprogress nounwind uwtable
define linkonce_odr noundef ptr @_ZSt12__relocate_aIPSt10shared_ptrIN8facebook5velox4exec17FunctionSignatureEES6_SaIS5_EET0_T_S9_S8_RT1_(ptr noundef %__first, ptr noundef %__last, ptr noundef %__result, ptr noundef nonnull align 1 dereferenceable(1) %__alloc) #2 comdat {
entry:
  %__first.addr = alloca ptr, align 8
  %__last.addr = alloca ptr, align 8
  %__result.addr = alloca ptr, align 8
  %__alloc.addr = alloca ptr, align 8
  store ptr %__first, ptr %__first.addr, align 8
  store ptr %__last, ptr %__last.addr, align 8
  store ptr %__result, ptr %__result.addr, align 8
  store ptr %__alloc, ptr %__alloc.addr, align 8
  %0 = load ptr, ptr %__first.addr, align 8
  %call = call noundef ptr @_ZSt12__niter_baseIPSt10shared_ptrIN8facebook5velox4exec17FunctionSignatureEEET_S7_(ptr noundef %0) #16
  %1 = load ptr, ptr %__last.addr, align 8
  %call1 = call noundef ptr @_ZSt12__niter_baseIPSt10shared_ptrIN8facebook5velox4exec17FunctionSignatureEEET_S7_(ptr noundef %1) #16
  %2 = load ptr, ptr %__result.addr, align 8
  %call2 = call noundef ptr @_ZSt12__niter_baseIPSt10shared_ptrIN8facebook5velox4exec17FunctionSignatureEEET_S7_(ptr noundef %2) #16
  %3 = load ptr, ptr %__alloc.addr, align 8
  %call3 = call noundef ptr @_ZSt14__relocate_a_1IPSt10shared_ptrIN8facebook5velox4exec17FunctionSignatureEES6_SaIS5_EET0_T_S9_S8_RT1_(ptr noundef %call, ptr noundef %call1, ptr noundef %call2, ptr noundef nonnull align 1 dereferenceable(1) %3) #16
  ret ptr %call3
}

; Function Attrs: mustprogress nounwind uwtable
define linkonce_odr noundef ptr @_ZSt14__relocate_a_1IPSt10shared_ptrIN8facebook5velox4exec17FunctionSignatureEES6_SaIS5_EET0_T_S9_S8_RT1_(ptr noundef %__first, ptr noundef %__last, ptr noundef %__result, ptr noundef nonnull align 1 dereferenceable(1) %__alloc) #2 comdat {
entry:
  %__first.addr = alloca ptr, align 8
  %__last.addr = alloca ptr, align 8
  %__result.addr = alloca ptr, align 8
  %__alloc.addr = alloca ptr, align 8
  %__cur = alloca ptr, align 8
  store ptr %__first, ptr %__first.addr, align 8
  store ptr %__last, ptr %__last.addr, align 8
  store ptr %__result, ptr %__result.addr, align 8
  store ptr %__alloc, ptr %__alloc.addr, align 8
  %0 = load ptr, ptr %__result.addr, align 8
  store ptr %0, ptr %__cur, align 8
  br label %for.cond

for.cond:                                         ; preds = %for.inc, %entry
  %1 = load ptr, ptr %__first.addr, align 8
  %2 = load ptr, ptr %__last.addr, align 8
  %cmp = icmp ne ptr %1, %2
  br i1 %cmp, label %for.body, label %for.end

for.body:                                         ; preds = %for.cond
  %3 = load ptr, ptr %__cur, align 8
  %4 = load ptr, ptr %__first.addr, align 8
  %5 = load ptr, ptr %__alloc.addr, align 8
  call void @_ZSt19__relocate_object_aISt10shared_ptrIN8facebook5velox4exec17FunctionSignatureEES5_SaIS5_EEvPT_PT0_RT1_(ptr noundef %3, ptr noundef %4, ptr noundef nonnull align 1 dereferenceable(1) %5) #16
  br label %for.inc

for.inc:                                          ; preds = %for.body
  %6 = load ptr, ptr %__first.addr, align 8
  %incdec.ptr = getelementptr inbounds %"class.std::shared_ptr", ptr %6, i32 1
  store ptr %incdec.ptr, ptr %__first.addr, align 8
  %7 = load ptr, ptr %__cur, align 8
  %incdec.ptr1 = getelementptr inbounds %"class.std::shared_ptr", ptr %7, i32 1
  store ptr %incdec.ptr1, ptr %__cur, align 8
  br label %for.cond, !llvm.loop !7

for.end:                                          ; preds = %for.cond
  %8 = load ptr, ptr %__cur, align 8
  ret ptr %8
}

; Function Attrs: mustprogress nounwind uwtable
define linkonce_odr noundef ptr @_ZSt12__niter_baseIPSt10shared_ptrIN8facebook5velox4exec17FunctionSignatureEEET_S7_(ptr noundef %__it) #2 comdat {
entry:
  %__it.addr = alloca ptr, align 8
  store ptr %__it, ptr %__it.addr, align 8
  %0 = load ptr, ptr %__it.addr, align 8
  ret ptr %0
}

; Function Attrs: mustprogress nounwind uwtable
define linkonce_odr void @_ZSt19__relocate_object_aISt10shared_ptrIN8facebook5velox4exec17FunctionSignatureEES5_SaIS5_EEvPT_PT0_RT1_(ptr noalias noundef %__dest, ptr noalias noundef %__orig, ptr noundef nonnull align 1 dereferenceable(1) %__alloc) #2 comdat {
entry:
  %__dest.addr = alloca ptr, align 8
  %__orig.addr = alloca ptr, align 8
  %__alloc.addr = alloca ptr, align 8
  store ptr %__dest, ptr %__dest.addr, align 8
  store ptr %__orig, ptr %__orig.addr, align 8
  store ptr %__alloc, ptr %__alloc.addr, align 8
  %0 = load ptr, ptr %__alloc.addr, align 8
  %1 = load ptr, ptr %__dest.addr, align 8
  %2 = load ptr, ptr %__orig.addr, align 8
  call void @_ZNSt16allocator_traitsISaISt10shared_ptrIN8facebook5velox4exec17FunctionSignatureEEEE9constructIS5_JS5_EEEvRS6_PT_DpOT0_(ptr noundef nonnull align 1 dereferenceable(1) %0, ptr noundef %1, ptr noundef nonnull align 8 dereferenceable(16) %2) #16
  %3 = load ptr, ptr %__alloc.addr, align 8
  %4 = load ptr, ptr %__orig.addr, align 8
  call void @_ZNSt16allocator_traitsISaISt10shared_ptrIN8facebook5velox4exec17FunctionSignatureEEEE7destroyIS5_EEvRS6_PT_(ptr noundef nonnull align 1 dereferenceable(1) %3, ptr noundef %4) #16
  ret void
}

; Function Attrs: mustprogress nounwind uwtable
define linkonce_odr void @_ZNSt16allocator_traitsISaISt10shared_ptrIN8facebook5velox4exec17FunctionSignatureEEEE7destroyIS5_EEvRS6_PT_(ptr noundef nonnull align 1 dereferenceable(1) %__a, ptr noundef %__p) #2 comdat align 2 {
entry:
  %__a.addr = alloca ptr, align 8
  %__p.addr = alloca ptr, align 8
  store ptr %__a, ptr %__a.addr, align 8
  store ptr %__p, ptr %__p.addr, align 8
  %0 = load ptr, ptr %__a.addr, align 8
  %1 = load ptr, ptr %__p.addr, align 8
  call void @_ZNSt15__new_allocatorISt10shared_ptrIN8facebook5velox4exec17FunctionSignatureEEE7destroyIS5_EEvPT_(ptr noundef nonnull align 1 dereferenceable(1) %0, ptr noundef %1) #16
  ret void
}

; Function Attrs: mustprogress nounwind uwtable
define linkonce_odr void @_ZNSt15__new_allocatorISt10shared_ptrIN8facebook5velox4exec17FunctionSignatureEEE7destroyIS5_EEvPT_(ptr noundef nonnull align 1 dereferenceable(1) %this, ptr noundef %__p) #2 comdat align 2 {
entry:
  %this.addr = alloca ptr, align 8
  %__p.addr = alloca ptr, align 8
  store ptr %this, ptr %this.addr, align 8
  store ptr %__p, ptr %__p.addr, align 8
  %0 = load ptr, ptr %__p.addr, align 8
  call void @_ZNSt10shared_ptrIN8facebook5velox4exec17FunctionSignatureEED2Ev(ptr noundef nonnull align 8 dereferenceable(16) %0) #16
  ret void
}

; Function Attrs: mustprogress uwtable
define linkonce_odr void @_ZNSt16allocator_traitsISaISt10shared_ptrIN8facebook5velox4exec17FunctionSignatureEEEE10deallocateERS6_PS5_m(ptr noundef nonnull align 1 dereferenceable(1) %__a, ptr noundef %__p, i64 noundef %__n) #0 comdat align 2 {
entry:
  %__a.addr = alloca ptr, align 8
  %__p.addr = alloca ptr, align 8
  %__n.addr = alloca i64, align 8
  store ptr %__a, ptr %__a.addr, align 8
  store ptr %__p, ptr %__p.addr, align 8
  store i64 %__n, ptr %__n.addr, align 8
  %0 = load ptr, ptr %__a.addr, align 8
  %1 = load ptr, ptr %__p.addr, align 8
  %2 = load i64, ptr %__n.addr, align 8
  call void @_ZNSt15__new_allocatorISt10shared_ptrIN8facebook5velox4exec17FunctionSignatureEEE10deallocateEPS5_m(ptr noundef nonnull align 1 dereferenceable(1) %0, ptr noundef %1, i64 noundef %2)
  ret void
}

; Function Attrs: mustprogress nounwind uwtable
define linkonce_odr void @_ZNSt15__new_allocatorISt10shared_ptrIN8facebook5velox4exec17FunctionSignatureEEE10deallocateEPS5_m(ptr noundef nonnull align 1 dereferenceable(1) %this, ptr noundef %__p, i64 noundef %__n) #2 comdat align 2 {
entry:
  %this.addr = alloca ptr, align 8
  %__p.addr = alloca ptr, align 8
  %__n.addr = alloca i64, align 8
  store ptr %this, ptr %this.addr, align 8
  store ptr %__p, ptr %__p.addr, align 8
  store i64 %__n, ptr %__n.addr, align 8
  %0 = load ptr, ptr %__p.addr, align 8
  call void @_ZdlPv(ptr noundef %0) #20
  ret void
}

; Function Attrs: mustprogress nounwind uwtable
define linkonce_odr ptr @_ZNK9__gnu_cxx17__normal_iteratorIPSt10shared_ptrIN8facebook5velox4exec17FunctionSignatureEESt6vectorIS6_SaIS6_EEEmiEl(ptr noundef nonnull align 8 dereferenceable(8) %this, i64 noundef %__n) #2 comdat align 2 {
entry:
  %retval = alloca %"class.__gnu_cxx::__normal_iterator.52", align 8
  %this.addr = alloca ptr, align 8
  %__n.addr = alloca i64, align 8
  %ref.tmp = alloca ptr, align 8
  store ptr %this, ptr %this.addr, align 8
  store i64 %__n, ptr %__n.addr, align 8
  %this1 = load ptr, ptr %this.addr, align 8
  %_M_current = getelementptr inbounds %"class.__gnu_cxx::__normal_iterator.52", ptr %this1, i32 0, i32 0
  %0 = load ptr, ptr %_M_current, align 8
  %1 = load i64, ptr %__n.addr, align 8
  %idx.neg = sub i64 0, %1
  %add.ptr = getelementptr inbounds %"class.std::shared_ptr", ptr %0, i64 %idx.neg
  store ptr %add.ptr, ptr %ref.tmp, align 8
  call void @_ZN9__gnu_cxx17__normal_iteratorIPSt10shared_ptrIN8facebook5velox4exec17FunctionSignatureEESt6vectorIS6_SaIS6_EEEC2ERKS7_(ptr noundef nonnull align 8 dereferenceable(8) %retval, ptr noundef nonnull align 8 dereferenceable(8) %ref.tmp) #16
  %coerce.dive = getelementptr inbounds %"class.__gnu_cxx::__normal_iterator.52", ptr %retval, i32 0, i32 0
  %2 = load ptr, ptr %coerce.dive, align 8
  ret ptr %2
}

; Function Attrs: mustprogress nounwind uwtable
define linkonce_odr noundef nonnull align 8 dereferenceable(16) ptr @_ZNK9__gnu_cxx17__normal_iteratorIPSt10shared_ptrIN8facebook5velox4exec17FunctionSignatureEESt6vectorIS6_SaIS6_EEEdeEv(ptr noundef nonnull align 8 dereferenceable(8) %this) #2 comdat align 2 {
entry:
  %this.addr = alloca ptr, align 8
  store ptr %this, ptr %this.addr, align 8
  %this1 = load ptr, ptr %this.addr, align 8
  %_M_current = getelementptr inbounds %"class.__gnu_cxx::__normal_iterator.52", ptr %this1, i32 0, i32 0
  %0 = load ptr, ptr %_M_current, align 8
  ret ptr %0
}

; Function Attrs: mustprogress nounwind uwtable
define linkonce_odr void @_ZNSt13unordered_mapINSt7__cxx1112basic_stringIcSt11char_traitsIcESaIcEEEN8facebook5velox4exec17SignatureVariableESt4hashIS5_ESt8equal_toIS5_ESaISt4pairIKS5_S9_EEEC2Ev(ptr noundef nonnull align 8 dereferenceable(56) %this) unnamed_addr #2 comdat align 2 {
entry:
  %this.addr = alloca ptr, align 8
  store ptr %this, ptr %this.addr, align 8
  %this1 = load ptr, ptr %this.addr, align 8
  %_M_h = getelementptr inbounds %"class.std::unordered_map", ptr %this1, i32 0, i32 0
  call void @_ZNSt10_HashtableINSt7__cxx1112basic_stringIcSt11char_traitsIcESaIcEEESt4pairIKS5_N8facebook5velox4exec17SignatureVariableEESaISC_ENSt8__detail10_Select1stESt8equal_toIS5_ESt4hashIS5_ENSE_18_Mod_range_hashingENSE_20_Default_ranged_hashENSE_20_Prime_rehash_policyENSE_17_Hashtable_traitsILb1ELb0ELb1EEEEC2Ev(ptr noundef nonnull align 8 dereferenceable(56) %_M_h) #16
  ret void
}

; Function Attrs: mustprogress nounwind uwtable
define linkonce_odr void @_ZNSt8optionalIN8facebook5velox4exec13TypeSignatureEEC2Ev(ptr noundef nonnull align 8 dereferenceable(104) %this) unnamed_addr #2 comdat align 2 {
entry:
  %this.addr = alloca ptr, align 8
  store ptr %this, ptr %this.addr, align 8
  %this1 = load ptr, ptr %this.addr, align 8
  call void @_ZNSt14_Optional_baseIN8facebook5velox4exec13TypeSignatureELb0ELb0EEC2Ev(ptr noundef nonnull align 8 dereferenceable(104) %this1) #16
  ret void
}

; Function Attrs: mustprogress nounwind uwtable
define linkonce_odr void @_ZNSt6vectorIN8facebook5velox4exec13TypeSignatureESaIS3_EEC2Ev(ptr noundef nonnull align 8 dereferenceable(24) %this) unnamed_addr #2 comdat align 2 {
entry:
  %this.addr = alloca ptr, align 8
  store ptr %this, ptr %this.addr, align 8
  %this1 = load ptr, ptr %this.addr, align 8
  call void @_ZNSt12_Vector_baseIN8facebook5velox4exec13TypeSignatureESaIS3_EEC2Ev(ptr noundef nonnull align 8 dereferenceable(24) %this1) #16
  ret void
}

; Function Attrs: mustprogress nounwind uwtable
define linkonce_odr void @_ZNSt6vectorIbSaIbEEC2Ev(ptr noundef nonnull align 8 dereferenceable(40) %this) unnamed_addr #2 comdat align 2 {
entry:
  %this.addr = alloca ptr, align 8
  store ptr %this, ptr %this.addr, align 8
  %this1 = load ptr, ptr %this.addr, align 8
  call void @_ZNSt13_Bvector_baseISaIbEEC2Ev(ptr noundef nonnull align 8 dereferenceable(40) %this1) #16
  ret void
}

; Function Attrs: mustprogress nounwind uwtable
define linkonce_odr void @_ZNSt10_HashtableINSt7__cxx1112basic_stringIcSt11char_traitsIcESaIcEEESt4pairIKS5_N8facebook5velox4exec17SignatureVariableEESaISC_ENSt8__detail10_Select1stESt8equal_toIS5_ESt4hashIS5_ENSE_18_Mod_range_hashingENSE_20_Default_ranged_hashENSE_20_Prime_rehash_policyENSE_17_Hashtable_traitsILb1ELb0ELb1EEEEC2Ev(ptr noundef nonnull align 8 dereferenceable(56) %this) unnamed_addr #2 comdat align 2 {
entry:
  %this.addr = alloca ptr, align 8
  store ptr %this, ptr %this.addr, align 8
  %this1 = load ptr, ptr %this.addr, align 8
  call void @_ZNSt8__detail15_Hashtable_baseINSt7__cxx1112basic_stringIcSt11char_traitsIcESaIcEEESt4pairIKS6_N8facebook5velox4exec17SignatureVariableEENS_10_Select1stESt8equal_toIS6_ESt4hashIS6_ENS_18_Mod_range_hashingENS_20_Default_ranged_hashENS_17_Hashtable_traitsILb1ELb0ELb1EEEEC2Ev(ptr noundef nonnull align 1 dereferenceable(1) %this1) #16
  call void @_ZNSt8__detail16_Hashtable_allocISaINS_10_Hash_nodeISt4pairIKNSt7__cxx1112basic_stringIcSt11char_traitsIcESaIcEEEN8facebook5velox4exec17SignatureVariableEELb1EEEEEC2Ev(ptr noundef nonnull align 1 dereferenceable(1) %this1) #16
  %_M_buckets = getelementptr inbounds %"class.std::_Hashtable", ptr %this1, i32 0, i32 0
  %_M_single_bucket = getelementptr inbounds %"class.std::_Hashtable", ptr %this1, i32 0, i32 5
  store ptr %_M_single_bucket, ptr %_M_buckets, align 8
  %_M_bucket_count = getelementptr inbounds %"class.std::_Hashtable", ptr %this1, i32 0, i32 1
  store i64 1, ptr %_M_bucket_count, align 8
  %_M_before_begin = getelementptr inbounds %"class.std::_Hashtable", ptr %this1, i32 0, i32 2
  call void @_ZNSt8__detail15_Hash_node_baseC2Ev(ptr noundef nonnull align 8 dereferenceable(8) %_M_before_begin) #16
  %_M_element_count = getelementptr inbounds %"class.std::_Hashtable", ptr %this1, i32 0, i32 3
  store i64 0, ptr %_M_element_count, align 8
  %_M_rehash_policy = getelementptr inbounds %"class.std::_Hashtable", ptr %this1, i32 0, i32 4
  call void @_ZNSt8__detail20_Prime_rehash_policyC2Ef(ptr noundef nonnull align 8 dereferenceable(16) %_M_rehash_policy, float noundef 1.000000e+00) #16
  %_M_single_bucket2 = getelementptr inbounds %"class.std::_Hashtable", ptr %this1, i32 0, i32 5
  store ptr null, ptr %_M_single_bucket2, align 8
  ret void
}

; Function Attrs: mustprogress nounwind uwtable
define linkonce_odr void @_ZNSt8__detail15_Hashtable_baseINSt7__cxx1112basic_stringIcSt11char_traitsIcESaIcEEESt4pairIKS6_N8facebook5velox4exec17SignatureVariableEENS_10_Select1stESt8equal_toIS6_ESt4hashIS6_ENS_18_Mod_range_hashingENS_20_Default_ranged_hashENS_17_Hashtable_traitsILb1ELb0ELb1EEEEC2Ev(ptr noundef nonnull align 1 dereferenceable(1) %this) unnamed_addr #2 comdat align 2 {
entry:
  %this.addr = alloca ptr, align 8
  store ptr %this, ptr %this.addr, align 8
  %this1 = load ptr, ptr %this.addr, align 8
  call void @_ZNSt8__detail15_Hash_code_baseINSt7__cxx1112basic_stringIcSt11char_traitsIcESaIcEEESt4pairIKS6_N8facebook5velox4exec17SignatureVariableEENS_10_Select1stESt4hashIS6_ENS_18_Mod_range_hashingENS_20_Default_ranged_hashELb1EEC2Ev(ptr noundef nonnull align 1 dereferenceable(1) %this1) #16
  call void @_ZNSt8__detail21_Hashtable_ebo_helperILi0ESt8equal_toINSt7__cxx1112basic_stringIcSt11char_traitsIcESaIcEEEELb1EEC2Ev(ptr noundef nonnull align 1 dereferenceable(1) %this1) #16
  ret void
}

; Function Attrs: mustprogress nounwind uwtable
define linkonce_odr void @_ZNSt8__detail16_Hashtable_allocISaINS_10_Hash_nodeISt4pairIKNSt7__cxx1112basic_stringIcSt11char_traitsIcESaIcEEEN8facebook5velox4exec17SignatureVariableEELb1EEEEEC2Ev(ptr noundef nonnull align 1 dereferenceable(1) %this) unnamed_addr #2 comdat align 2 {
entry:
  %this.addr = alloca ptr, align 8
  store ptr %this, ptr %this.addr, align 8
  %this1 = load ptr, ptr %this.addr, align 8
  call void @_ZNSt8__detail21_Hashtable_ebo_helperILi0ESaINS_10_Hash_nodeISt4pairIKNSt7__cxx1112basic_stringIcSt11char_traitsIcESaIcEEEN8facebook5velox4exec17SignatureVariableEELb1EEEELb1EEC2Ev(ptr noundef nonnull align 1 dereferenceable(1) %this1) #16
  ret void
}

; Function Attrs: mustprogress nounwind uwtable
define linkonce_odr void @_ZNSt8__detail15_Hash_node_baseC2Ev(ptr noundef nonnull align 8 dereferenceable(8) %this) unnamed_addr #2 comdat align 2 {
entry:
  %this.addr = alloca ptr, align 8
  store ptr %this, ptr %this.addr, align 8
  %this1 = load ptr, ptr %this.addr, align 8
  %_M_nxt = getelementptr inbounds %"struct.std::__detail::_Hash_node_base", ptr %this1, i32 0, i32 0
  store ptr null, ptr %_M_nxt, align 8
  ret void
}

; Function Attrs: mustprogress nounwind uwtable
define linkonce_odr void @_ZNSt8__detail20_Prime_rehash_policyC2Ef(ptr noundef nonnull align 8 dereferenceable(16) %this, float noundef %__z) unnamed_addr #2 comdat align 2 {
entry:
  %this.addr = alloca ptr, align 8
  %__z.addr = alloca float, align 4
  store ptr %this, ptr %this.addr, align 8
  store float %__z, ptr %__z.addr, align 4
  %this1 = load ptr, ptr %this.addr, align 8
  %_M_max_load_factor = getelementptr inbounds %"struct.std::__detail::_Prime_rehash_policy", ptr %this1, i32 0, i32 0
  %0 = load float, ptr %__z.addr, align 4
  store float %0, ptr %_M_max_load_factor, align 8
  %_M_next_resize = getelementptr inbounds %"struct.std::__detail::_Prime_rehash_policy", ptr %this1, i32 0, i32 1
  store i64 0, ptr %_M_next_resize, align 8
  ret void
}

; Function Attrs: mustprogress nounwind uwtable
define linkonce_odr void @_ZNSt8__detail15_Hash_code_baseINSt7__cxx1112basic_stringIcSt11char_traitsIcESaIcEEESt4pairIKS6_N8facebook5velox4exec17SignatureVariableEENS_10_Select1stESt4hashIS6_ENS_18_Mod_range_hashingENS_20_Default_ranged_hashELb1EEC2Ev(ptr noundef nonnull align 1 dereferenceable(1) %this) unnamed_addr #2 comdat align 2 {
entry:
  %this.addr = alloca ptr, align 8
  store ptr %this, ptr %this.addr, align 8
  %this1 = load ptr, ptr %this.addr, align 8
  call void @_ZNSt8__detail21_Hashtable_ebo_helperILi1ESt4hashINSt7__cxx1112basic_stringIcSt11char_traitsIcESaIcEEEELb1EEC2Ev(ptr noundef nonnull align 1 dereferenceable(1) %this1) #16
  ret void
}

; Function Attrs: mustprogress nounwind uwtable
define linkonce_odr void @_ZNSt8__detail21_Hashtable_ebo_helperILi0ESt8equal_toINSt7__cxx1112basic_stringIcSt11char_traitsIcESaIcEEEELb1EEC2Ev(ptr noundef nonnull align 1 dereferenceable(1) %this) unnamed_addr #2 comdat align 2 {
entry:
  %this.addr = alloca ptr, align 8
  store ptr %this, ptr %this.addr, align 8
  ret void
}

; Function Attrs: mustprogress nounwind uwtable
define linkonce_odr void @_ZNSt8__detail21_Hashtable_ebo_helperILi1ESt4hashINSt7__cxx1112basic_stringIcSt11char_traitsIcESaIcEEEELb1EEC2Ev(ptr noundef nonnull align 1 dereferenceable(1) %this) unnamed_addr #2 comdat align 2 {
entry:
  %this.addr = alloca ptr, align 8
  store ptr %this, ptr %this.addr, align 8
  ret void
}

; Function Attrs: mustprogress nounwind uwtable
define linkonce_odr void @_ZNSt8__detail21_Hashtable_ebo_helperILi0ESaINS_10_Hash_nodeISt4pairIKNSt7__cxx1112basic_stringIcSt11char_traitsIcESaIcEEEN8facebook5velox4exec17SignatureVariableEELb1EEEELb1EEC2Ev(ptr noundef nonnull align 1 dereferenceable(1) %this) unnamed_addr #2 comdat align 2 {
entry:
  %this.addr = alloca ptr, align 8
  store ptr %this, ptr %this.addr, align 8
  %this1 = load ptr, ptr %this.addr, align 8
  call void @_ZNSaINSt8__detail10_Hash_nodeISt4pairIKNSt7__cxx1112basic_stringIcSt11char_traitsIcESaIcEEEN8facebook5velox4exec17SignatureVariableEELb1EEEEC2Ev(ptr noundef nonnull align 1 dereferenceable(1) %this1) #16
  ret void
}

; Function Attrs: mustprogress nounwind uwtable
define linkonce_odr void @_ZNSaINSt8__detail10_Hash_nodeISt4pairIKNSt7__cxx1112basic_stringIcSt11char_traitsIcESaIcEEEN8facebook5velox4exec17SignatureVariableEELb1EEEEC2Ev(ptr noundef nonnull align 1 dereferenceable(1) %this) unnamed_addr #2 comdat align 2 {
entry:
  %this.addr = alloca ptr, align 8
  store ptr %this, ptr %this.addr, align 8
  %this1 = load ptr, ptr %this.addr, align 8
  call void @_ZNSt15__new_allocatorINSt8__detail10_Hash_nodeISt4pairIKNSt7__cxx1112basic_stringIcSt11char_traitsIcESaIcEEEN8facebook5velox4exec17SignatureVariableEELb1EEEEC2Ev(ptr noundef nonnull align 1 dereferenceable(1) %this1) #16
  ret void
}

; Function Attrs: mustprogress nounwind uwtable
define linkonce_odr void @_ZNSt15__new_allocatorINSt8__detail10_Hash_nodeISt4pairIKNSt7__cxx1112basic_stringIcSt11char_traitsIcESaIcEEEN8facebook5velox4exec17SignatureVariableEELb1EEEEC2Ev(ptr noundef nonnull align 1 dereferenceable(1) %this) unnamed_addr #2 comdat align 2 {
entry:
  %this.addr = alloca ptr, align 8
  store ptr %this, ptr %this.addr, align 8
  ret void
}

; Function Attrs: mustprogress nounwind uwtable
define linkonce_odr void @_ZNSt14_Optional_baseIN8facebook5velox4exec13TypeSignatureELb0ELb0EEC2Ev(ptr noundef nonnull align 8 dereferenceable(104) %this) unnamed_addr #2 comdat align 2 {
entry:
  %this.addr = alloca ptr, align 8
  store ptr %this, ptr %this.addr, align 8
  %this1 = load ptr, ptr %this.addr, align 8
  %_M_payload = getelementptr inbounds %"struct.std::_Optional_base", ptr %this1, i32 0, i32 0
  call void @_ZNSt17_Optional_payloadIN8facebook5velox4exec13TypeSignatureELb0ELb0ELb0EEC2Ev(ptr noundef nonnull align 8 dereferenceable(97) %_M_payload) #16
  ret void
}

; Function Attrs: mustprogress nounwind uwtable
define linkonce_odr void @_ZNSt17_Optional_payloadIN8facebook5velox4exec13TypeSignatureELb0ELb0ELb0EEC2Ev(ptr noundef nonnull align 8 dereferenceable(97) %this) unnamed_addr #2 comdat align 2 {
entry:
  %this.addr = alloca ptr, align 8
  store ptr %this, ptr %this.addr, align 8
  %this1 = load ptr, ptr %this.addr, align 8
  call void @_ZNSt17_Optional_payloadIN8facebook5velox4exec13TypeSignatureELb1ELb0ELb0EEC2Ev(ptr noundef nonnull align 8 dereferenceable(97) %this1) #16
  ret void
}

; Function Attrs: mustprogress nounwind uwtable
define linkonce_odr void @_ZNSt17_Optional_payloadIN8facebook5velox4exec13TypeSignatureELb1ELb0ELb0EEC2Ev(ptr noundef nonnull align 8 dereferenceable(97) %this) unnamed_addr #2 comdat align 2 {
entry:
  %this.addr = alloca ptr, align 8
  store ptr %this, ptr %this.addr, align 8
  %this1 = load ptr, ptr %this.addr, align 8
  call void @_ZNSt22_Optional_payload_baseIN8facebook5velox4exec13TypeSignatureEEC2Ev(ptr noundef nonnull align 8 dereferenceable(97) %this1) #16
  ret void
}

; Function Attrs: mustprogress nounwind uwtable
define linkonce_odr void @_ZNSt22_Optional_payload_baseIN8facebook5velox4exec13TypeSignatureEEC2Ev(ptr noundef nonnull align 8 dereferenceable(97) %this) unnamed_addr #2 comdat align 2 {
entry:
  %this.addr = alloca ptr, align 8
  store ptr %this, ptr %this.addr, align 8
  %this1 = load ptr, ptr %this.addr, align 8
  %_M_payload = getelementptr inbounds %"struct.std::_Optional_payload_base", ptr %this1, i32 0, i32 0
  call void @_ZNSt22_Optional_payload_baseIN8facebook5velox4exec13TypeSignatureEE8_StorageIS3_Lb0EEC2Ev(ptr noundef nonnull align 8 dereferenceable(96) %_M_payload) #16
  %_M_engaged = getelementptr inbounds %"struct.std::_Optional_payload_base", ptr %this1, i32 0, i32 1
  store i8 0, ptr %_M_engaged, align 8
  ret void
}

; Function Attrs: mustprogress nounwind uwtable
define linkonce_odr void @_ZNSt22_Optional_payload_baseIN8facebook5velox4exec13TypeSignatureEE8_StorageIS3_Lb0EEC2Ev(ptr noundef nonnull align 8 dereferenceable(96) %this) unnamed_addr #2 comdat align 2 {
entry:
  %this.addr = alloca ptr, align 8
  store ptr %this, ptr %this.addr, align 8
  ret void
}

; Function Attrs: mustprogress nounwind uwtable
define linkonce_odr void @_ZNSt12_Vector_baseIN8facebook5velox4exec13TypeSignatureESaIS3_EEC2Ev(ptr noundef nonnull align 8 dereferenceable(24) %this) unnamed_addr #2 comdat align 2 {
entry:
  %this.addr = alloca ptr, align 8
  store ptr %this, ptr %this.addr, align 8
  %this1 = load ptr, ptr %this.addr, align 8
  %_M_impl = getelementptr inbounds %"struct.std::_Vector_base.33", ptr %this1, i32 0, i32 0
  call void @_ZNSt12_Vector_baseIN8facebook5velox4exec13TypeSignatureESaIS3_EE12_Vector_implC2Ev(ptr noundef nonnull align 8 dereferenceable(24) %_M_impl) #16
  ret void
}

; Function Attrs: mustprogress nounwind uwtable
define linkonce_odr void @_ZNSt12_Vector_baseIN8facebook5velox4exec13TypeSignatureESaIS3_EE12_Vector_implC2Ev(ptr noundef nonnull align 8 dereferenceable(24) %this) unnamed_addr #2 comdat align 2 {
entry:
  %this.addr = alloca ptr, align 8
  store ptr %this, ptr %this.addr, align 8
  %this1 = load ptr, ptr %this.addr, align 8
  call void @_ZNSaIN8facebook5velox4exec13TypeSignatureEEC2Ev(ptr noundef nonnull align 1 dereferenceable(1) %this1) #16
  call void @_ZNSt12_Vector_baseIN8facebook5velox4exec13TypeSignatureESaIS3_EE17_Vector_impl_dataC2Ev(ptr noundef nonnull align 8 dereferenceable(24) %this1) #16
  ret void
}

; Function Attrs: mustprogress nounwind uwtable
define linkonce_odr void @_ZNSaIN8facebook5velox4exec13TypeSignatureEEC2Ev(ptr noundef nonnull align 1 dereferenceable(1) %this) unnamed_addr #2 comdat align 2 {
entry:
  %this.addr = alloca ptr, align 8
  store ptr %this, ptr %this.addr, align 8
  %this1 = load ptr, ptr %this.addr, align 8
  call void @_ZNSt15__new_allocatorIN8facebook5velox4exec13TypeSignatureEEC2Ev(ptr noundef nonnull align 1 dereferenceable(1) %this1) #16
  ret void
}

; Function Attrs: mustprogress nounwind uwtable
define linkonce_odr void @_ZNSt12_Vector_baseIN8facebook5velox4exec13TypeSignatureESaIS3_EE17_Vector_impl_dataC2Ev(ptr noundef nonnull align 8 dereferenceable(24) %this) unnamed_addr #2 comdat align 2 {
entry:
  %this.addr = alloca ptr, align 8
  store ptr %this, ptr %this.addr, align 8
  %this1 = load ptr, ptr %this.addr, align 8
  %_M_start = getelementptr inbounds %"struct.std::_Vector_base<facebook::velox::exec::TypeSignature, std::allocator<facebook::velox::exec::TypeSignature>>::_Vector_impl_data", ptr %this1, i32 0, i32 0
  store ptr null, ptr %_M_start, align 8
  %_M_finish = getelementptr inbounds %"struct.std::_Vector_base<facebook::velox::exec::TypeSignature, std::allocator<facebook::velox::exec::TypeSignature>>::_Vector_impl_data", ptr %this1, i32 0, i32 1
  store ptr null, ptr %_M_finish, align 8
  %_M_end_of_storage = getelementptr inbounds %"struct.std::_Vector_base<facebook::velox::exec::TypeSignature, std::allocator<facebook::velox::exec::TypeSignature>>::_Vector_impl_data", ptr %this1, i32 0, i32 2
  store ptr null, ptr %_M_end_of_storage, align 8
  ret void
}

; Function Attrs: mustprogress nounwind uwtable
define linkonce_odr void @_ZNSt15__new_allocatorIN8facebook5velox4exec13TypeSignatureEEC2Ev(ptr noundef nonnull align 1 dereferenceable(1) %this) unnamed_addr #2 comdat align 2 {
entry:
  %this.addr = alloca ptr, align 8
  store ptr %this, ptr %this.addr, align 8
  ret void
}

; Function Attrs: mustprogress nounwind uwtable
define linkonce_odr void @_ZNSt13_Bvector_baseISaIbEEC2Ev(ptr noundef nonnull align 8 dereferenceable(40) %this) unnamed_addr #2 comdat align 2 {
entry:
  %this.addr = alloca ptr, align 8
  store ptr %this, ptr %this.addr, align 8
  %this1 = load ptr, ptr %this.addr, align 8
  %_M_impl = getelementptr inbounds %"struct.std::_Bvector_base", ptr %this1, i32 0, i32 0
  call void @_ZNSt13_Bvector_baseISaIbEE13_Bvector_implC2Ev(ptr noundef nonnull align 8 dereferenceable(40) %_M_impl) #16
  ret void
}

; Function Attrs: mustprogress nounwind uwtable
define linkonce_odr void @_ZNSt13_Bvector_baseISaIbEE13_Bvector_implC2Ev(ptr noundef nonnull align 8 dereferenceable(40) %this) unnamed_addr #2 comdat align 2 {
entry:
  %this.addr = alloca ptr, align 8
  store ptr %this, ptr %this.addr, align 8
  %this1 = load ptr, ptr %this.addr, align 8
  call void @_ZNSaImEC2Ev(ptr noundef nonnull align 1 dereferenceable(1) %this1) #16
  call void @_ZNSt13_Bvector_baseISaIbEE18_Bvector_impl_dataC2Ev(ptr noundef nonnull align 8 dereferenceable(40) %this1) #16
  ret void
}

; Function Attrs: mustprogress nounwind uwtable
define linkonce_odr void @_ZNSaImEC2Ev(ptr noundef nonnull align 1 dereferenceable(1) %this) unnamed_addr #2 comdat align 2 {
entry:
  %this.addr = alloca ptr, align 8
  store ptr %this, ptr %this.addr, align 8
  %this1 = load ptr, ptr %this.addr, align 8
  call void @_ZNSt15__new_allocatorImEC2Ev(ptr noundef nonnull align 1 dereferenceable(1) %this1) #16
  ret void
}

; Function Attrs: mustprogress nounwind uwtable
define linkonce_odr void @_ZNSt15__new_allocatorImEC2Ev(ptr noundef nonnull align 1 dereferenceable(1) %this) unnamed_addr #2 comdat align 2 {
entry:
  %this.addr = alloca ptr, align 8
  store ptr %this, ptr %this.addr, align 8
  ret void
}

; Function Attrs: mustprogress uwtable
define linkonce_odr void @_ZNSt13_Bit_iteratorC2Ev(ptr noundef nonnull align 8 dereferenceable(12) %this) unnamed_addr #0 comdat align 2 {
entry:
  %this.addr = alloca ptr, align 8
  store ptr %this, ptr %this.addr, align 8
  %this1 = load ptr, ptr %this.addr, align 8
  call void @_ZNSt18_Bit_iterator_baseC2EPmj(ptr noundef nonnull align 8 dereferenceable(12) %this1, ptr noundef null, i32 noundef 0)
  ret void
}

; Function Attrs: mustprogress nounwind uwtable
define linkonce_odr void @_ZNSt18_Bit_iterator_baseC2EPmj(ptr noundef nonnull align 8 dereferenceable(12) %this, ptr noundef %__x, i32 noundef %__y) unnamed_addr #2 comdat align 2 {
entry:
  %this.addr = alloca ptr, align 8
  %__x.addr = alloca ptr, align 8
  %__y.addr = alloca i32, align 4
  store ptr %this, ptr %this.addr, align 8
  store ptr %__x, ptr %__x.addr, align 8
  store i32 %__y, ptr %__y.addr, align 4
  %this1 = load ptr, ptr %this.addr, align 8
  %_M_p = getelementptr inbounds %"struct.std::_Bit_iterator_base", ptr %this1, i32 0, i32 0
  %0 = load ptr, ptr %__x.addr, align 8
  store ptr %0, ptr %_M_p, align 8
  %_M_offset = getelementptr inbounds %"struct.std::_Bit_iterator_base", ptr %this1, i32 0, i32 1
  %1 = load i32, ptr %__y.addr, align 4
  store i32 %1, ptr %_M_offset, align 8
  ret void
}

; Function Attrs: mustprogress uwtable
define linkonce_odr noundef nonnull align 8 dereferenceable(96) ptr @_ZNSt8optionalIN8facebook5velox4exec13TypeSignatureEE7emplaceIJS3_EEENSt9enable_ifIX18is_constructible_vIS3_DpT_EERS3_E4typeEDpOS7_(ptr noundef nonnull align 8 dereferenceable(104) %this, ptr noundef nonnull align 8 dereferenceable(96) %__args) #0 comdat align 2 {
entry:
  %this.addr = alloca ptr, align 8
  %__args.addr = alloca ptr, align 8
  store ptr %this, ptr %this.addr, align 8
  store ptr %__args, ptr %__args.addr, align 8
  %this1 = load ptr, ptr %this.addr, align 8
  call void @_ZNSt19_Optional_base_implIN8facebook5velox4exec13TypeSignatureESt14_Optional_baseIS3_Lb0ELb0EEE8_M_resetEv(ptr noundef nonnull align 1 dereferenceable(1) %this1) #16
  %0 = load ptr, ptr %__args.addr, align 8
  call void @_ZNSt19_Optional_base_implIN8facebook5velox4exec13TypeSignatureESt14_Optional_baseIS3_Lb0ELb0EEE12_M_constructIJS3_EEEvDpOT_(ptr noundef nonnull align 1 dereferenceable(1) %this1, ptr noundef nonnull align 8 dereferenceable(96) %0)
  %call = call noundef nonnull align 8 dereferenceable(96) ptr @_ZNSt19_Optional_base_implIN8facebook5velox4exec13TypeSignatureESt14_Optional_baseIS3_Lb0ELb0EEE6_M_getEv(ptr noundef nonnull align 1 dereferenceable(1) %this1) #16
  ret ptr %call
}

declare void @_ZN8facebook5velox4exec18parseTypeSignatureERKNSt7__cxx1112basic_stringIcSt11char_traitsIcESaIcEEE(ptr sret(%"class.facebook::velox::exec::TypeSignature") align 8, ptr noundef nonnull align 8 dereferenceable(32)) #1

; Function Attrs: mustprogress nounwind uwtable
define linkonce_odr void @_ZN8facebook5velox4exec13TypeSignatureD2Ev(ptr noundef nonnull align 8 dereferenceable(96) %this) unnamed_addr #2 comdat align 2 {
entry:
  %this.addr = alloca ptr, align 8
  store ptr %this, ptr %this.addr, align 8
  %this1 = load ptr, ptr %this.addr, align 8
  %rowFieldName_ = getelementptr inbounds %"class.facebook::velox::exec::TypeSignature", ptr %this1, i32 0, i32 2
  call void @_ZNSt8optionalINSt7__cxx1112basic_stringIcSt11char_traitsIcESaIcEEEED2Ev(ptr noundef nonnull align 8 dereferenceable(40) %rowFieldName_) #16
  %parameters_ = getelementptr inbounds %"class.facebook::velox::exec::TypeSignature", ptr %this1, i32 0, i32 1
  call void @_ZNSt6vectorIN8facebook5velox4exec13TypeSignatureESaIS3_EED2Ev(ptr noundef nonnull align 8 dereferenceable(24) %parameters_) #16
  %baseName_ = getelementptr inbounds %"class.facebook::velox::exec::TypeSignature", ptr %this1, i32 0, i32 0
  call void @_ZNSt7__cxx1112basic_stringIcSt11char_traitsIcESaIcEED1Ev(ptr noundef nonnull align 8 dereferenceable(32) %baseName_) #16
  ret void
}

; Function Attrs: mustprogress nounwind uwtable
define linkonce_odr void @_ZNSt19_Optional_base_implIN8facebook5velox4exec13TypeSignatureESt14_Optional_baseIS3_Lb0ELb0EEE8_M_resetEv(ptr noundef nonnull align 1 dereferenceable(1) %this) #2 comdat align 2 {
entry:
  %this.addr = alloca ptr, align 8
  store ptr %this, ptr %this.addr, align 8
  %this1 = load ptr, ptr %this.addr, align 8
  %_M_payload = getelementptr inbounds %"struct.std::_Optional_base", ptr %this1, i32 0, i32 0
  call void @_ZNSt22_Optional_payload_baseIN8facebook5velox4exec13TypeSignatureEE8_M_resetEv(ptr noundef nonnull align 8 dereferenceable(97) %_M_payload) #16
  ret void
}

; Function Attrs: mustprogress uwtable
define linkonce_odr void @_ZNSt19_Optional_base_implIN8facebook5velox4exec13TypeSignatureESt14_Optional_baseIS3_Lb0ELb0EEE12_M_constructIJS3_EEEvDpOT_(ptr noundef nonnull align 1 dereferenceable(1) %this, ptr noundef nonnull align 8 dereferenceable(96) %__args) #0 comdat align 2 {
entry:
  %this.addr = alloca ptr, align 8
  %__args.addr = alloca ptr, align 8
  store ptr %this, ptr %this.addr, align 8
  store ptr %__args, ptr %__args.addr, align 8
  %this1 = load ptr, ptr %this.addr, align 8
  %_M_payload = getelementptr inbounds %"struct.std::_Optional_base", ptr %this1, i32 0, i32 0
  %0 = load ptr, ptr %__args.addr, align 8
  call void @_ZNSt22_Optional_payload_baseIN8facebook5velox4exec13TypeSignatureEE12_M_constructIJS3_EEEvDpOT_(ptr noundef nonnull align 8 dereferenceable(97) %_M_payload, ptr noundef nonnull align 8 dereferenceable(96) %0)
  ret void
}

; Function Attrs: mustprogress nounwind uwtable
define linkonce_odr noundef nonnull align 8 dereferenceable(96) ptr @_ZNSt19_Optional_base_implIN8facebook5velox4exec13TypeSignatureESt14_Optional_baseIS3_Lb0ELb0EEE6_M_getEv(ptr noundef nonnull align 1 dereferenceable(1) %this) #2 comdat align 2 {
entry:
  %this.addr = alloca ptr, align 8
  store ptr %this, ptr %this.addr, align 8
  %this1 = load ptr, ptr %this.addr, align 8
  br label %do.body

do.body:                                          ; preds = %entry
  br label %do.cond

do.cond:                                          ; preds = %do.body
  br label %do.end

do.end:                                           ; preds = %do.cond
  %_M_payload = getelementptr inbounds %"struct.std::_Optional_base", ptr %this1, i32 0, i32 0
  %call = call noundef nonnull align 8 dereferenceable(96) ptr @_ZNSt22_Optional_payload_baseIN8facebook5velox4exec13TypeSignatureEE6_M_getEv(ptr noundef nonnull align 8 dereferenceable(97) %_M_payload) #16
  ret ptr %call
}

; Function Attrs: mustprogress nounwind uwtable
define linkonce_odr void @_ZNSt22_Optional_payload_baseIN8facebook5velox4exec13TypeSignatureEE8_M_resetEv(ptr noundef nonnull align 8 dereferenceable(97) %this) #2 comdat align 2 {
entry:
  %this.addr = alloca ptr, align 8
  store ptr %this, ptr %this.addr, align 8
  %this1 = load ptr, ptr %this.addr, align 8
  %_M_engaged = getelementptr inbounds %"struct.std::_Optional_payload_base", ptr %this1, i32 0, i32 1
  %0 = load i8, ptr %_M_engaged, align 8
  %tobool = trunc i8 %0 to i1
  br i1 %tobool, label %if.then, label %if.end

if.then:                                          ; preds = %entry
  call void @_ZNSt22_Optional_payload_baseIN8facebook5velox4exec13TypeSignatureEE10_M_destroyEv(ptr noundef nonnull align 8 dereferenceable(97) %this1) #16
  br label %if.end

if.end:                                           ; preds = %if.then, %entry
  ret void
}

; Function Attrs: mustprogress nounwind uwtable
define linkonce_odr void @_ZNSt22_Optional_payload_baseIN8facebook5velox4exec13TypeSignatureEE10_M_destroyEv(ptr noundef nonnull align 8 dereferenceable(97) %this) #2 comdat align 2 {
entry:
  %this.addr = alloca ptr, align 8
  store ptr %this, ptr %this.addr, align 8
  %this1 = load ptr, ptr %this.addr, align 8
  %_M_engaged = getelementptr inbounds %"struct.std::_Optional_payload_base", ptr %this1, i32 0, i32 1
  store i8 0, ptr %_M_engaged, align 8
  %_M_payload = getelementptr inbounds %"struct.std::_Optional_payload_base", ptr %this1, i32 0, i32 0
  call void @_ZN8facebook5velox4exec13TypeSignatureD2Ev(ptr noundef nonnull align 8 dereferenceable(96) %_M_payload) #16
  ret void
}

; Function Attrs: mustprogress uwtable
define linkonce_odr void @_ZNSt22_Optional_payload_baseIN8facebook5velox4exec13TypeSignatureEE12_M_constructIJS3_EEEvDpOT_(ptr noundef nonnull align 8 dereferenceable(97) %this, ptr noundef nonnull align 8 dereferenceable(96) %__args) #0 comdat align 2 {
entry:
  %this.addr = alloca ptr, align 8
  %__args.addr = alloca ptr, align 8
  store ptr %this, ptr %this.addr, align 8
  store ptr %__args, ptr %__args.addr, align 8
  %this1 = load ptr, ptr %this.addr, align 8
  %_M_payload = getelementptr inbounds %"struct.std::_Optional_payload_base", ptr %this1, i32 0, i32 0
  %0 = load ptr, ptr %__args.addr, align 8
  call void @_ZSt10_ConstructIN8facebook5velox4exec13TypeSignatureEJS3_EEvPT_DpOT0_(ptr noundef %_M_payload, ptr noundef nonnull align 8 dereferenceable(96) %0)
  %_M_engaged = getelementptr inbounds %"struct.std::_Optional_payload_base", ptr %this1, i32 0, i32 1
  store i8 1, ptr %_M_engaged, align 8
  ret void
}

; Function Attrs: mustprogress uwtable
define linkonce_odr void @_ZSt10_ConstructIN8facebook5velox4exec13TypeSignatureEJS3_EEvPT_DpOT0_(ptr noundef %__p, ptr noundef nonnull align 8 dereferenceable(96) %__args) #0 comdat {
entry:
  %__p.addr = alloca ptr, align 8
  %__args.addr = alloca ptr, align 8
  store ptr %__p, ptr %__p.addr, align 8
  store ptr %__args, ptr %__args.addr, align 8
  %0 = load ptr, ptr %__p.addr, align 8
  %1 = load ptr, ptr %__args.addr, align 8
  call void @_ZN8facebook5velox4exec13TypeSignatureC2EOS2_(ptr noundef nonnull align 8 dereferenceable(96) %0, ptr noundef nonnull align 8 dereferenceable(96) %1)
  ret void
}

; Function Attrs: mustprogress uwtable
define linkonce_odr void @_ZN8facebook5velox4exec13TypeSignatureC2EOS2_(ptr noundef nonnull align 8 dereferenceable(96) %this, ptr noundef nonnull align 8 dereferenceable(96) %0) unnamed_addr #0 comdat align 2 personality ptr @__gxx_personality_v0 {
entry:
  %this.addr = alloca ptr, align 8
  %.addr = alloca ptr, align 8
  %exn.slot = alloca ptr, align 8
  %ehselector.slot = alloca i32, align 4
  store ptr %this, ptr %this.addr, align 8
  store ptr %0, ptr %.addr, align 8
  %this1 = load ptr, ptr %this.addr, align 8
  %baseName_ = getelementptr inbounds %"class.facebook::velox::exec::TypeSignature", ptr %this1, i32 0, i32 0
  %1 = load ptr, ptr %.addr, align 8
  %baseName_2 = getelementptr inbounds %"class.facebook::velox::exec::TypeSignature", ptr %1, i32 0, i32 0
  call void @_ZNSt7__cxx1112basic_stringIcSt11char_traitsIcESaIcEEC1ERKS4_(ptr noundef nonnull align 8 dereferenceable(32) %baseName_, ptr noundef nonnull align 8 dereferenceable(32) %baseName_2)
  %parameters_ = getelementptr inbounds %"class.facebook::velox::exec::TypeSignature", ptr %this1, i32 0, i32 1
  %2 = load ptr, ptr %.addr, align 8
  %parameters_3 = getelementptr inbounds %"class.facebook::velox::exec::TypeSignature", ptr %2, i32 0, i32 1
  invoke void @_ZNSt6vectorIN8facebook5velox4exec13TypeSignatureESaIS3_EEC2ERKS5_(ptr noundef nonnull align 8 dereferenceable(24) %parameters_, ptr noundef nonnull align 8 dereferenceable(24) %parameters_3)
          to label %invoke.cont unwind label %lpad

invoke.cont:                                      ; preds = %entry
  %rowFieldName_ = getelementptr inbounds %"class.facebook::velox::exec::TypeSignature", ptr %this1, i32 0, i32 2
  %3 = load ptr, ptr %.addr, align 8
  %rowFieldName_4 = getelementptr inbounds %"class.facebook::velox::exec::TypeSignature", ptr %3, i32 0, i32 2
  call void @_ZNSt8optionalINSt7__cxx1112basic_stringIcSt11char_traitsIcESaIcEEEEC2EOS6_(ptr noundef nonnull align 8 dereferenceable(40) %rowFieldName_, ptr noundef nonnull align 8 dereferenceable(40) %rowFieldName_4) #16
  ret void

lpad:                                             ; preds = %entry
  %4 = landingpad { ptr, i32 }
          cleanup
  %5 = extractvalue { ptr, i32 } %4, 0
  store ptr %5, ptr %exn.slot, align 8
  %6 = extractvalue { ptr, i32 } %4, 1
  store i32 %6, ptr %ehselector.slot, align 4
  call void @_ZNSt7__cxx1112basic_stringIcSt11char_traitsIcESaIcEED1Ev(ptr noundef nonnull align 8 dereferenceable(32) %baseName_) #16
  br label %eh.resume

eh.resume:                                        ; preds = %lpad
  %exn = load ptr, ptr %exn.slot, align 8
  %sel = load i32, ptr %ehselector.slot, align 4
  %lpad.val = insertvalue { ptr, i32 } poison, ptr %exn, 0
  %lpad.val5 = insertvalue { ptr, i32 } %lpad.val, i32 %sel, 1
  resume { ptr, i32 } %lpad.val5
}

; Function Attrs: mustprogress uwtable
define linkonce_odr void @_ZNSt6vectorIN8facebook5velox4exec13TypeSignatureESaIS3_EEC2ERKS5_(ptr noundef nonnull align 8 dereferenceable(24) %this, ptr noundef nonnull align 8 dereferenceable(24) %__x) unnamed_addr #0 comdat align 2 personality ptr @__gxx_personality_v0 {
entry:
  %this.addr = alloca ptr, align 8
  %__x.addr = alloca ptr, align 8
  %ref.tmp = alloca %"class.std::allocator.34", align 1
  %exn.slot = alloca ptr, align 8
  %ehselector.slot = alloca i32, align 4
  %agg.tmp = alloca %"class.__gnu_cxx::__normal_iterator.53", align 8
  %agg.tmp4 = alloca %"class.__gnu_cxx::__normal_iterator.53", align 8
  store ptr %this, ptr %this.addr, align 8
  store ptr %__x, ptr %__x.addr, align 8
  %this1 = load ptr, ptr %this.addr, align 8
  %0 = load ptr, ptr %__x.addr, align 8
  %call = call noundef i64 @_ZNKSt6vectorIN8facebook5velox4exec13TypeSignatureESaIS3_EE4sizeEv(ptr noundef nonnull align 8 dereferenceable(24) %0) #16
  %1 = load ptr, ptr %__x.addr, align 8
  %call2 = call noundef nonnull align 1 dereferenceable(1) ptr @_ZNKSt12_Vector_baseIN8facebook5velox4exec13TypeSignatureESaIS3_EE19_M_get_Tp_allocatorEv(ptr noundef nonnull align 8 dereferenceable(24) %1) #16
  call void @_ZN9__gnu_cxx14__alloc_traitsISaIN8facebook5velox4exec13TypeSignatureEES4_E17_S_select_on_copyERKS5_(ptr sret(%"class.std::allocator.34") align 1 %ref.tmp, ptr noundef nonnull align 1 dereferenceable(1) %call2)
  invoke void @_ZNSt12_Vector_baseIN8facebook5velox4exec13TypeSignatureESaIS3_EEC2EmRKS4_(ptr noundef nonnull align 8 dereferenceable(24) %this1, i64 noundef %call, ptr noundef nonnull align 1 dereferenceable(1) %ref.tmp)
          to label %invoke.cont unwind label %lpad

invoke.cont:                                      ; preds = %entry
  call void @_ZNSaIN8facebook5velox4exec13TypeSignatureEED2Ev(ptr noundef nonnull align 1 dereferenceable(1) %ref.tmp) #16
  %2 = load ptr, ptr %__x.addr, align 8
  %call3 = call ptr @_ZNKSt6vectorIN8facebook5velox4exec13TypeSignatureESaIS3_EE5beginEv(ptr noundef nonnull align 8 dereferenceable(24) %2) #16
  %coerce.dive = getelementptr inbounds %"class.__gnu_cxx::__normal_iterator.53", ptr %agg.tmp, i32 0, i32 0
  store ptr %call3, ptr %coerce.dive, align 8
  %3 = load ptr, ptr %__x.addr, align 8
  %call5 = call ptr @_ZNKSt6vectorIN8facebook5velox4exec13TypeSignatureESaIS3_EE3endEv(ptr noundef nonnull align 8 dereferenceable(24) %3) #16
  %coerce.dive6 = getelementptr inbounds %"class.__gnu_cxx::__normal_iterator.53", ptr %agg.tmp4, i32 0, i32 0
  store ptr %call5, ptr %coerce.dive6, align 8
  %_M_impl = getelementptr inbounds %"struct.std::_Vector_base.33", ptr %this1, i32 0, i32 0
  %_M_start = getelementptr inbounds %"struct.std::_Vector_base<facebook::velox::exec::TypeSignature, std::allocator<facebook::velox::exec::TypeSignature>>::_Vector_impl_data", ptr %_M_impl, i32 0, i32 0
  %4 = load ptr, ptr %_M_start, align 8
  %call7 = call noundef nonnull align 1 dereferenceable(1) ptr @_ZNSt12_Vector_baseIN8facebook5velox4exec13TypeSignatureESaIS3_EE19_M_get_Tp_allocatorEv(ptr noundef nonnull align 8 dereferenceable(24) %this1) #16
  %coerce.dive8 = getelementptr inbounds %"class.__gnu_cxx::__normal_iterator.53", ptr %agg.tmp, i32 0, i32 0
  %5 = load ptr, ptr %coerce.dive8, align 8
  %coerce.dive9 = getelementptr inbounds %"class.__gnu_cxx::__normal_iterator.53", ptr %agg.tmp4, i32 0, i32 0
  %6 = load ptr, ptr %coerce.dive9, align 8
  %call12 = invoke noundef ptr @_ZSt22__uninitialized_copy_aIN9__gnu_cxx17__normal_iteratorIPKN8facebook5velox4exec13TypeSignatureESt6vectorIS5_SaIS5_EEEEPS5_S5_ET0_T_SE_SD_RSaIT1_E(ptr %5, ptr %6, ptr noundef %4, ptr noundef nonnull align 1 dereferenceable(1) %call7)
          to label %invoke.cont11 unwind label %lpad10

invoke.cont11:                                    ; preds = %invoke.cont
  %_M_impl13 = getelementptr inbounds %"struct.std::_Vector_base.33", ptr %this1, i32 0, i32 0
  %_M_finish = getelementptr inbounds %"struct.std::_Vector_base<facebook::velox::exec::TypeSignature, std::allocator<facebook::velox::exec::TypeSignature>>::_Vector_impl_data", ptr %_M_impl13, i32 0, i32 1
  store ptr %call12, ptr %_M_finish, align 8
  ret void

lpad:                                             ; preds = %entry
  %7 = landingpad { ptr, i32 }
          cleanup
  %8 = extractvalue { ptr, i32 } %7, 0
  store ptr %8, ptr %exn.slot, align 8
  %9 = extractvalue { ptr, i32 } %7, 1
  store i32 %9, ptr %ehselector.slot, align 4
  call void @_ZNSaIN8facebook5velox4exec13TypeSignatureEED2Ev(ptr noundef nonnull align 1 dereferenceable(1) %ref.tmp) #16
  br label %eh.resume

lpad10:                                           ; preds = %invoke.cont
  %10 = landingpad { ptr, i32 }
          cleanup
  %11 = extractvalue { ptr, i32 } %10, 0
  store ptr %11, ptr %exn.slot, align 8
  %12 = extractvalue { ptr, i32 } %10, 1
  store i32 %12, ptr %ehselector.slot, align 4
  call void @_ZNSt12_Vector_baseIN8facebook5velox4exec13TypeSignatureESaIS3_EED2Ev(ptr noundef nonnull align 8 dereferenceable(24) %this1) #16
  br label %eh.resume

eh.resume:                                        ; preds = %lpad10, %lpad
  %exn = load ptr, ptr %exn.slot, align 8
  %sel = load i32, ptr %ehselector.slot, align 4
  %lpad.val = insertvalue { ptr, i32 } poison, ptr %exn, 0
  %lpad.val14 = insertvalue { ptr, i32 } %lpad.val, i32 %sel, 1
  resume { ptr, i32 } %lpad.val14
}

; Function Attrs: mustprogress nounwind uwtable
define linkonce_odr void @_ZNSt8optionalINSt7__cxx1112basic_stringIcSt11char_traitsIcESaIcEEEEC2EOS6_(ptr noundef nonnull align 8 dereferenceable(40) %this, ptr noundef nonnull align 8 dereferenceable(40) %0) unnamed_addr #2 comdat align 2 {
entry:
  %this.addr = alloca ptr, align 8
  %.addr = alloca ptr, align 8
  store ptr %this, ptr %this.addr, align 8
  store ptr %0, ptr %.addr, align 8
  %this1 = load ptr, ptr %this.addr, align 8
  %1 = load ptr, ptr %.addr, align 8
  call void @_ZNSt14_Optional_baseINSt7__cxx1112basic_stringIcSt11char_traitsIcESaIcEEELb0ELb0EEC2EOS6_(ptr noundef nonnull align 8 dereferenceable(40) %this1, ptr noundef nonnull align 8 dereferenceable(40) %1) #16
  ret void
}

; Function Attrs: mustprogress nounwind uwtable
define linkonce_odr noundef i64 @_ZNKSt6vectorIN8facebook5velox4exec13TypeSignatureESaIS3_EE4sizeEv(ptr noundef nonnull align 8 dereferenceable(24) %this) #2 comdat align 2 {
entry:
  %this.addr = alloca ptr, align 8
  store ptr %this, ptr %this.addr, align 8
  %this1 = load ptr, ptr %this.addr, align 8
  %_M_impl = getelementptr inbounds %"struct.std::_Vector_base.33", ptr %this1, i32 0, i32 0
  %_M_finish = getelementptr inbounds %"struct.std::_Vector_base<facebook::velox::exec::TypeSignature, std::allocator<facebook::velox::exec::TypeSignature>>::_Vector_impl_data", ptr %_M_impl, i32 0, i32 1
  %0 = load ptr, ptr %_M_finish, align 8
  %_M_impl2 = getelementptr inbounds %"struct.std::_Vector_base.33", ptr %this1, i32 0, i32 0
  %_M_start = getelementptr inbounds %"struct.std::_Vector_base<facebook::velox::exec::TypeSignature, std::allocator<facebook::velox::exec::TypeSignature>>::_Vector_impl_data", ptr %_M_impl2, i32 0, i32 0
  %1 = load ptr, ptr %_M_start, align 8
  %sub.ptr.lhs.cast = ptrtoint ptr %0 to i64
  %sub.ptr.rhs.cast = ptrtoint ptr %1 to i64
  %sub.ptr.sub = sub i64 %sub.ptr.lhs.cast, %sub.ptr.rhs.cast
  %sub.ptr.div = sdiv exact i64 %sub.ptr.sub, 96
  ret i64 %sub.ptr.div
}

; Function Attrs: mustprogress uwtable
define linkonce_odr void @_ZN9__gnu_cxx14__alloc_traitsISaIN8facebook5velox4exec13TypeSignatureEES4_E17_S_select_on_copyERKS5_(ptr noalias sret(%"class.std::allocator.34") align 1 %agg.result, ptr noundef nonnull align 1 dereferenceable(1) %__a) #0 comdat align 2 {
entry:
  %result.ptr = alloca ptr, align 8
  %__a.addr = alloca ptr, align 8
  store ptr %agg.result, ptr %result.ptr, align 8
  store ptr %__a, ptr %__a.addr, align 8
  %0 = load ptr, ptr %__a.addr, align 8
  call void @_ZNSt16allocator_traitsISaIN8facebook5velox4exec13TypeSignatureEEE37select_on_container_copy_constructionERKS4_(ptr sret(%"class.std::allocator.34") align 1 %agg.result, ptr noundef nonnull align 1 dereferenceable(1) %0)
  ret void
}

; Function Attrs: mustprogress nounwind uwtable
define linkonce_odr noundef nonnull align 1 dereferenceable(1) ptr @_ZNKSt12_Vector_baseIN8facebook5velox4exec13TypeSignatureESaIS3_EE19_M_get_Tp_allocatorEv(ptr noundef nonnull align 8 dereferenceable(24) %this) #2 comdat align 2 {
entry:
  %this.addr = alloca ptr, align 8
  store ptr %this, ptr %this.addr, align 8
  %this1 = load ptr, ptr %this.addr, align 8
  %_M_impl = getelementptr inbounds %"struct.std::_Vector_base.33", ptr %this1, i32 0, i32 0
  ret ptr %_M_impl
}

; Function Attrs: mustprogress uwtable
define linkonce_odr void @_ZNSt12_Vector_baseIN8facebook5velox4exec13TypeSignatureESaIS3_EEC2EmRKS4_(ptr noundef nonnull align 8 dereferenceable(24) %this, i64 noundef %__n, ptr noundef nonnull align 1 dereferenceable(1) %__a) unnamed_addr #0 comdat align 2 personality ptr @__gxx_personality_v0 {
entry:
  %this.addr = alloca ptr, align 8
  %__n.addr = alloca i64, align 8
  %__a.addr = alloca ptr, align 8
  %exn.slot = alloca ptr, align 8
  %ehselector.slot = alloca i32, align 4
  store ptr %this, ptr %this.addr, align 8
  store i64 %__n, ptr %__n.addr, align 8
  store ptr %__a, ptr %__a.addr, align 8
  %this1 = load ptr, ptr %this.addr, align 8
  %_M_impl = getelementptr inbounds %"struct.std::_Vector_base.33", ptr %this1, i32 0, i32 0
  %0 = load ptr, ptr %__a.addr, align 8
  call void @_ZNSt12_Vector_baseIN8facebook5velox4exec13TypeSignatureESaIS3_EE12_Vector_implC2ERKS4_(ptr noundef nonnull align 8 dereferenceable(24) %_M_impl, ptr noundef nonnull align 1 dereferenceable(1) %0) #16
  %1 = load i64, ptr %__n.addr, align 8
  invoke void @_ZNSt12_Vector_baseIN8facebook5velox4exec13TypeSignatureESaIS3_EE17_M_create_storageEm(ptr noundef nonnull align 8 dereferenceable(24) %this1, i64 noundef %1)
          to label %invoke.cont unwind label %lpad

invoke.cont:                                      ; preds = %entry
  ret void

lpad:                                             ; preds = %entry
  %2 = landingpad { ptr, i32 }
          cleanup
  %3 = extractvalue { ptr, i32 } %2, 0
  store ptr %3, ptr %exn.slot, align 8
  %4 = extractvalue { ptr, i32 } %2, 1
  store i32 %4, ptr %ehselector.slot, align 4
  call void @_ZNSt12_Vector_baseIN8facebook5velox4exec13TypeSignatureESaIS3_EE12_Vector_implD2Ev(ptr noundef nonnull align 8 dereferenceable(24) %_M_impl) #16
  br label %eh.resume

eh.resume:                                        ; preds = %lpad
  %exn = load ptr, ptr %exn.slot, align 8
  %sel = load i32, ptr %ehselector.slot, align 4
  %lpad.val = insertvalue { ptr, i32 } poison, ptr %exn, 0
  %lpad.val2 = insertvalue { ptr, i32 } %lpad.val, i32 %sel, 1
  resume { ptr, i32 } %lpad.val2
}

; Function Attrs: mustprogress nounwind uwtable
define linkonce_odr void @_ZNSaIN8facebook5velox4exec13TypeSignatureEED2Ev(ptr noundef nonnull align 1 dereferenceable(1) %this) unnamed_addr #2 comdat align 2 {
entry:
  %this.addr = alloca ptr, align 8
  store ptr %this, ptr %this.addr, align 8
  %this1 = load ptr, ptr %this.addr, align 8
  call void @_ZNSt15__new_allocatorIN8facebook5velox4exec13TypeSignatureEED2Ev(ptr noundef nonnull align 1 dereferenceable(1) %this1) #16
  ret void
}

; Function Attrs: mustprogress uwtable
define linkonce_odr noundef ptr @_ZSt22__uninitialized_copy_aIN9__gnu_cxx17__normal_iteratorIPKN8facebook5velox4exec13TypeSignatureESt6vectorIS5_SaIS5_EEEEPS5_S5_ET0_T_SE_SD_RSaIT1_E(ptr %__first.coerce, ptr %__last.coerce, ptr noundef %__result, ptr noundef nonnull align 1 dereferenceable(1) %0) #0 comdat {
entry:
  %__first = alloca %"class.__gnu_cxx::__normal_iterator.53", align 8
  %__last = alloca %"class.__gnu_cxx::__normal_iterator.53", align 8
  %__result.addr = alloca ptr, align 8
  %.addr = alloca ptr, align 8
  %agg.tmp = alloca %"class.__gnu_cxx::__normal_iterator.53", align 8
  %agg.tmp2 = alloca %"class.__gnu_cxx::__normal_iterator.53", align 8
  %coerce.dive = getelementptr inbounds %"class.__gnu_cxx::__normal_iterator.53", ptr %__first, i32 0, i32 0
  store ptr %__first.coerce, ptr %coerce.dive, align 8
  %coerce.dive1 = getelementptr inbounds %"class.__gnu_cxx::__normal_iterator.53", ptr %__last, i32 0, i32 0
  store ptr %__last.coerce, ptr %coerce.dive1, align 8
  store ptr %__result, ptr %__result.addr, align 8
  store ptr %0, ptr %.addr, align 8
  call void @llvm.memcpy.p0.p0.i64(ptr align 8 %agg.tmp, ptr align 8 %__first, i64 8, i1 false)
  call void @llvm.memcpy.p0.p0.i64(ptr align 8 %agg.tmp2, ptr align 8 %__last, i64 8, i1 false)
  %1 = load ptr, ptr %__result.addr, align 8
  %coerce.dive3 = getelementptr inbounds %"class.__gnu_cxx::__normal_iterator.53", ptr %agg.tmp, i32 0, i32 0
  %2 = load ptr, ptr %coerce.dive3, align 8
  %coerce.dive4 = getelementptr inbounds %"class.__gnu_cxx::__normal_iterator.53", ptr %agg.tmp2, i32 0, i32 0
  %3 = load ptr, ptr %coerce.dive4, align 8
  %call = call noundef ptr @_ZSt18uninitialized_copyIN9__gnu_cxx17__normal_iteratorIPKN8facebook5velox4exec13TypeSignatureESt6vectorIS5_SaIS5_EEEEPS5_ET0_T_SE_SD_(ptr %2, ptr %3, ptr noundef %1)
  ret ptr %call
}

; Function Attrs: mustprogress nounwind uwtable
define linkonce_odr ptr @_ZNKSt6vectorIN8facebook5velox4exec13TypeSignatureESaIS3_EE5beginEv(ptr noundef nonnull align 8 dereferenceable(24) %this) #2 comdat align 2 {
entry:
  %retval = alloca %"class.__gnu_cxx::__normal_iterator.53", align 8
  %this.addr = alloca ptr, align 8
  store ptr %this, ptr %this.addr, align 8
  %this1 = load ptr, ptr %this.addr, align 8
  %_M_impl = getelementptr inbounds %"struct.std::_Vector_base.33", ptr %this1, i32 0, i32 0
  %_M_start = getelementptr inbounds %"struct.std::_Vector_base<facebook::velox::exec::TypeSignature, std::allocator<facebook::velox::exec::TypeSignature>>::_Vector_impl_data", ptr %_M_impl, i32 0, i32 0
  call void @_ZN9__gnu_cxx17__normal_iteratorIPKN8facebook5velox4exec13TypeSignatureESt6vectorIS4_SaIS4_EEEC2ERKS6_(ptr noundef nonnull align 8 dereferenceable(8) %retval, ptr noundef nonnull align 8 dereferenceable(8) %_M_start) #16
  %coerce.dive = getelementptr inbounds %"class.__gnu_cxx::__normal_iterator.53", ptr %retval, i32 0, i32 0
  %0 = load ptr, ptr %coerce.dive, align 8
  ret ptr %0
}

; Function Attrs: mustprogress nounwind uwtable
define linkonce_odr ptr @_ZNKSt6vectorIN8facebook5velox4exec13TypeSignatureESaIS3_EE3endEv(ptr noundef nonnull align 8 dereferenceable(24) %this) #2 comdat align 2 {
entry:
  %retval = alloca %"class.__gnu_cxx::__normal_iterator.53", align 8
  %this.addr = alloca ptr, align 8
  store ptr %this, ptr %this.addr, align 8
  %this1 = load ptr, ptr %this.addr, align 8
  %_M_impl = getelementptr inbounds %"struct.std::_Vector_base.33", ptr %this1, i32 0, i32 0
  %_M_finish = getelementptr inbounds %"struct.std::_Vector_base<facebook::velox::exec::TypeSignature, std::allocator<facebook::velox::exec::TypeSignature>>::_Vector_impl_data", ptr %_M_impl, i32 0, i32 1
  call void @_ZN9__gnu_cxx17__normal_iteratorIPKN8facebook5velox4exec13TypeSignatureESt6vectorIS4_SaIS4_EEEC2ERKS6_(ptr noundef nonnull align 8 dereferenceable(8) %retval, ptr noundef nonnull align 8 dereferenceable(8) %_M_finish) #16
  %coerce.dive = getelementptr inbounds %"class.__gnu_cxx::__normal_iterator.53", ptr %retval, i32 0, i32 0
  %0 = load ptr, ptr %coerce.dive, align 8
  ret ptr %0
}

; Function Attrs: mustprogress nounwind uwtable
define linkonce_odr noundef nonnull align 1 dereferenceable(1) ptr @_ZNSt12_Vector_baseIN8facebook5velox4exec13TypeSignatureESaIS3_EE19_M_get_Tp_allocatorEv(ptr noundef nonnull align 8 dereferenceable(24) %this) #2 comdat align 2 {
entry:
  %this.addr = alloca ptr, align 8
  store ptr %this, ptr %this.addr, align 8
  %this1 = load ptr, ptr %this.addr, align 8
  %_M_impl = getelementptr inbounds %"struct.std::_Vector_base.33", ptr %this1, i32 0, i32 0
  ret ptr %_M_impl
}

; Function Attrs: mustprogress nounwind uwtable
define linkonce_odr void @_ZNSt12_Vector_baseIN8facebook5velox4exec13TypeSignatureESaIS3_EED2Ev(ptr noundef nonnull align 8 dereferenceable(24) %this) unnamed_addr #2 comdat align 2 personality ptr @__gxx_personality_v0 {
entry:
  %this.addr = alloca ptr, align 8
  store ptr %this, ptr %this.addr, align 8
  %this1 = load ptr, ptr %this.addr, align 8
  %_M_impl = getelementptr inbounds %"struct.std::_Vector_base.33", ptr %this1, i32 0, i32 0
  %_M_start = getelementptr inbounds %"struct.std::_Vector_base<facebook::velox::exec::TypeSignature, std::allocator<facebook::velox::exec::TypeSignature>>::_Vector_impl_data", ptr %_M_impl, i32 0, i32 0
  %0 = load ptr, ptr %_M_start, align 8
  %_M_impl2 = getelementptr inbounds %"struct.std::_Vector_base.33", ptr %this1, i32 0, i32 0
  %_M_end_of_storage = getelementptr inbounds %"struct.std::_Vector_base<facebook::velox::exec::TypeSignature, std::allocator<facebook::velox::exec::TypeSignature>>::_Vector_impl_data", ptr %_M_impl2, i32 0, i32 2
  %1 = load ptr, ptr %_M_end_of_storage, align 8
  %_M_impl3 = getelementptr inbounds %"struct.std::_Vector_base.33", ptr %this1, i32 0, i32 0
  %_M_start4 = getelementptr inbounds %"struct.std::_Vector_base<facebook::velox::exec::TypeSignature, std::allocator<facebook::velox::exec::TypeSignature>>::_Vector_impl_data", ptr %_M_impl3, i32 0, i32 0
  %2 = load ptr, ptr %_M_start4, align 8
  %sub.ptr.lhs.cast = ptrtoint ptr %1 to i64
  %sub.ptr.rhs.cast = ptrtoint ptr %2 to i64
  %sub.ptr.sub = sub i64 %sub.ptr.lhs.cast, %sub.ptr.rhs.cast
  %sub.ptr.div = sdiv exact i64 %sub.ptr.sub, 96
  invoke void @_ZNSt12_Vector_baseIN8facebook5velox4exec13TypeSignatureESaIS3_EE13_M_deallocateEPS3_m(ptr noundef nonnull align 8 dereferenceable(24) %this1, ptr noundef %0, i64 noundef %sub.ptr.div)
          to label %invoke.cont unwind label %terminate.lpad

invoke.cont:                                      ; preds = %entry
  %_M_impl5 = getelementptr inbounds %"struct.std::_Vector_base.33", ptr %this1, i32 0, i32 0
  call void @_ZNSt12_Vector_baseIN8facebook5velox4exec13TypeSignatureESaIS3_EE12_Vector_implD2Ev(ptr noundef nonnull align 8 dereferenceable(24) %_M_impl5) #16
  ret void

terminate.lpad:                                   ; preds = %entry
  %3 = landingpad { ptr, i32 }
          catch ptr null
  %4 = extractvalue { ptr, i32 } %3, 0
  call void @__clang_call_terminate(ptr %4) #18
  unreachable
}

; Function Attrs: mustprogress nounwind uwtable
define linkonce_odr void @_ZNSt16allocator_traitsISaIN8facebook5velox4exec13TypeSignatureEEE37select_on_container_copy_constructionERKS4_(ptr noalias sret(%"class.std::allocator.34") align 1 %agg.result, ptr noundef nonnull align 1 dereferenceable(1) %__rhs) #2 comdat align 2 {
entry:
  %result.ptr = alloca ptr, align 8
  %__rhs.addr = alloca ptr, align 8
  store ptr %agg.result, ptr %result.ptr, align 8
  store ptr %__rhs, ptr %__rhs.addr, align 8
  %0 = load ptr, ptr %__rhs.addr, align 8
  call void @_ZNSaIN8facebook5velox4exec13TypeSignatureEEC2ERKS3_(ptr noundef nonnull align 1 dereferenceable(1) %agg.result, ptr noundef nonnull align 1 dereferenceable(1) %0) #16
  ret void
}

; Function Attrs: mustprogress nounwind uwtable
define linkonce_odr void @_ZNSaIN8facebook5velox4exec13TypeSignatureEEC2ERKS3_(ptr noundef nonnull align 1 dereferenceable(1) %this, ptr noundef nonnull align 1 dereferenceable(1) %__a) unnamed_addr #2 comdat align 2 {
entry:
  %this.addr = alloca ptr, align 8
  %__a.addr = alloca ptr, align 8
  store ptr %this, ptr %this.addr, align 8
  store ptr %__a, ptr %__a.addr, align 8
  %this1 = load ptr, ptr %this.addr, align 8
  %0 = load ptr, ptr %__a.addr, align 8
  call void @_ZNSt15__new_allocatorIN8facebook5velox4exec13TypeSignatureEEC2ERKS4_(ptr noundef nonnull align 1 dereferenceable(1) %this1, ptr noundef nonnull align 1 dereferenceable(1) %0) #16
  ret void
}

; Function Attrs: mustprogress nounwind uwtable
define linkonce_odr void @_ZNSt15__new_allocatorIN8facebook5velox4exec13TypeSignatureEEC2ERKS4_(ptr noundef nonnull align 1 dereferenceable(1) %this, ptr noundef nonnull align 1 dereferenceable(1) %0) unnamed_addr #2 comdat align 2 {
entry:
  %this.addr = alloca ptr, align 8
  %.addr = alloca ptr, align 8
  store ptr %this, ptr %this.addr, align 8
  store ptr %0, ptr %.addr, align 8
  ret void
}

; Function Attrs: mustprogress nounwind uwtable
define linkonce_odr void @_ZNSt12_Vector_baseIN8facebook5velox4exec13TypeSignatureESaIS3_EE12_Vector_implC2ERKS4_(ptr noundef nonnull align 8 dereferenceable(24) %this, ptr noundef nonnull align 1 dereferenceable(1) %__a) unnamed_addr #2 comdat align 2 {
entry:
  %this.addr = alloca ptr, align 8
  %__a.addr = alloca ptr, align 8
  store ptr %this, ptr %this.addr, align 8
  store ptr %__a, ptr %__a.addr, align 8
  %this1 = load ptr, ptr %this.addr, align 8
  %0 = load ptr, ptr %__a.addr, align 8
  call void @_ZNSaIN8facebook5velox4exec13TypeSignatureEEC2ERKS3_(ptr noundef nonnull align 1 dereferenceable(1) %this1, ptr noundef nonnull align 1 dereferenceable(1) %0) #16
  call void @_ZNSt12_Vector_baseIN8facebook5velox4exec13TypeSignatureESaIS3_EE17_Vector_impl_dataC2Ev(ptr noundef nonnull align 8 dereferenceable(24) %this1) #16
  ret void
}

; Function Attrs: mustprogress uwtable
define linkonce_odr void @_ZNSt12_Vector_baseIN8facebook5velox4exec13TypeSignatureESaIS3_EE17_M_create_storageEm(ptr noundef nonnull align 8 dereferenceable(24) %this, i64 noundef %__n) #0 comdat align 2 {
entry:
  %this.addr = alloca ptr, align 8
  %__n.addr = alloca i64, align 8
  store ptr %this, ptr %this.addr, align 8
  store i64 %__n, ptr %__n.addr, align 8
  %this1 = load ptr, ptr %this.addr, align 8
  %0 = load i64, ptr %__n.addr, align 8
  %call = call noundef ptr @_ZNSt12_Vector_baseIN8facebook5velox4exec13TypeSignatureESaIS3_EE11_M_allocateEm(ptr noundef nonnull align 8 dereferenceable(24) %this1, i64 noundef %0)
  %_M_impl = getelementptr inbounds %"struct.std::_Vector_base.33", ptr %this1, i32 0, i32 0
  %_M_start = getelementptr inbounds %"struct.std::_Vector_base<facebook::velox::exec::TypeSignature, std::allocator<facebook::velox::exec::TypeSignature>>::_Vector_impl_data", ptr %_M_impl, i32 0, i32 0
  store ptr %call, ptr %_M_start, align 8
  %_M_impl2 = getelementptr inbounds %"struct.std::_Vector_base.33", ptr %this1, i32 0, i32 0
  %_M_start3 = getelementptr inbounds %"struct.std::_Vector_base<facebook::velox::exec::TypeSignature, std::allocator<facebook::velox::exec::TypeSignature>>::_Vector_impl_data", ptr %_M_impl2, i32 0, i32 0
  %1 = load ptr, ptr %_M_start3, align 8
  %_M_impl4 = getelementptr inbounds %"struct.std::_Vector_base.33", ptr %this1, i32 0, i32 0
  %_M_finish = getelementptr inbounds %"struct.std::_Vector_base<facebook::velox::exec::TypeSignature, std::allocator<facebook::velox::exec::TypeSignature>>::_Vector_impl_data", ptr %_M_impl4, i32 0, i32 1
  store ptr %1, ptr %_M_finish, align 8
  %_M_impl5 = getelementptr inbounds %"struct.std::_Vector_base.33", ptr %this1, i32 0, i32 0
  %_M_start6 = getelementptr inbounds %"struct.std::_Vector_base<facebook::velox::exec::TypeSignature, std::allocator<facebook::velox::exec::TypeSignature>>::_Vector_impl_data", ptr %_M_impl5, i32 0, i32 0
  %2 = load ptr, ptr %_M_start6, align 8
  %3 = load i64, ptr %__n.addr, align 8
  %add.ptr = getelementptr inbounds %"class.facebook::velox::exec::TypeSignature", ptr %2, i64 %3
  %_M_impl7 = getelementptr inbounds %"struct.std::_Vector_base.33", ptr %this1, i32 0, i32 0
  %_M_end_of_storage = getelementptr inbounds %"struct.std::_Vector_base<facebook::velox::exec::TypeSignature, std::allocator<facebook::velox::exec::TypeSignature>>::_Vector_impl_data", ptr %_M_impl7, i32 0, i32 2
  store ptr %add.ptr, ptr %_M_end_of_storage, align 8
  ret void
}

; Function Attrs: mustprogress nounwind uwtable
define linkonce_odr void @_ZNSt12_Vector_baseIN8facebook5velox4exec13TypeSignatureESaIS3_EE12_Vector_implD2Ev(ptr noundef nonnull align 8 dereferenceable(24) %this) unnamed_addr #2 comdat align 2 {
entry:
  %this.addr = alloca ptr, align 8
  store ptr %this, ptr %this.addr, align 8
  %this1 = load ptr, ptr %this.addr, align 8
  call void @_ZNSaIN8facebook5velox4exec13TypeSignatureEED2Ev(ptr noundef nonnull align 1 dereferenceable(1) %this1) #16
  ret void
}

; Function Attrs: mustprogress uwtable
define linkonce_odr noundef ptr @_ZNSt12_Vector_baseIN8facebook5velox4exec13TypeSignatureESaIS3_EE11_M_allocateEm(ptr noundef nonnull align 8 dereferenceable(24) %this, i64 noundef %__n) #0 comdat align 2 {
entry:
  %this.addr = alloca ptr, align 8
  %__n.addr = alloca i64, align 8
  store ptr %this, ptr %this.addr, align 8
  store i64 %__n, ptr %__n.addr, align 8
  %this1 = load ptr, ptr %this.addr, align 8
  %0 = load i64, ptr %__n.addr, align 8
  %cmp = icmp ne i64 %0, 0
  br i1 %cmp, label %cond.true, label %cond.false

cond.true:                                        ; preds = %entry
  %_M_impl = getelementptr inbounds %"struct.std::_Vector_base.33", ptr %this1, i32 0, i32 0
  %1 = load i64, ptr %__n.addr, align 8
  %call = call noundef ptr @_ZNSt16allocator_traitsISaIN8facebook5velox4exec13TypeSignatureEEE8allocateERS4_m(ptr noundef nonnull align 1 dereferenceable(1) %_M_impl, i64 noundef %1)
  br label %cond.end

cond.false:                                       ; preds = %entry
  br label %cond.end

cond.end:                                         ; preds = %cond.false, %cond.true
  %cond = phi ptr [ %call, %cond.true ], [ null, %cond.false ]
  ret ptr %cond
}

; Function Attrs: mustprogress uwtable
define linkonce_odr noundef ptr @_ZNSt16allocator_traitsISaIN8facebook5velox4exec13TypeSignatureEEE8allocateERS4_m(ptr noundef nonnull align 1 dereferenceable(1) %__a, i64 noundef %__n) #0 comdat align 2 {
entry:
  %__a.addr = alloca ptr, align 8
  %__n.addr = alloca i64, align 8
  store ptr %__a, ptr %__a.addr, align 8
  store i64 %__n, ptr %__n.addr, align 8
  %0 = load ptr, ptr %__a.addr, align 8
  %1 = load i64, ptr %__n.addr, align 8
  %call = call noundef ptr @_ZNSt15__new_allocatorIN8facebook5velox4exec13TypeSignatureEE8allocateEmPKv(ptr noundef nonnull align 1 dereferenceable(1) %0, i64 noundef %1, ptr noundef null)
  ret ptr %call
}

; Function Attrs: mustprogress uwtable
define linkonce_odr noundef ptr @_ZNSt15__new_allocatorIN8facebook5velox4exec13TypeSignatureEE8allocateEmPKv(ptr noundef nonnull align 1 dereferenceable(1) %this, i64 noundef %__n, ptr noundef %0) #0 comdat align 2 {
entry:
  %this.addr = alloca ptr, align 8
  %__n.addr = alloca i64, align 8
  %.addr = alloca ptr, align 8
  store ptr %this, ptr %this.addr, align 8
  store i64 %__n, ptr %__n.addr, align 8
  store ptr %0, ptr %.addr, align 8
  %this1 = load ptr, ptr %this.addr, align 8
  %1 = load i64, ptr %__n.addr, align 8
  %call = call noundef i64 @_ZNKSt15__new_allocatorIN8facebook5velox4exec13TypeSignatureEE11_M_max_sizeEv(ptr noundef nonnull align 1 dereferenceable(1) %this1) #16
  %cmp = icmp ugt i64 %1, %call
  br i1 %cmp, label %if.then, label %if.end4

if.then:                                          ; preds = %entry
  %2 = load i64, ptr %__n.addr, align 8
  %cmp2 = icmp ugt i64 %2, 192153584101141162
  br i1 %cmp2, label %if.then3, label %if.end

if.then3:                                         ; preds = %if.then
  call void @_ZSt28__throw_bad_array_new_lengthv() #19
  unreachable

if.end:                                           ; preds = %if.then
  call void @_ZSt17__throw_bad_allocv() #19
  unreachable

if.end4:                                          ; preds = %entry
  %3 = load i64, ptr %__n.addr, align 8
  %mul = mul i64 %3, 96
  %call5 = call noalias noundef nonnull ptr @_Znwm(i64 noundef %mul) #17
  ret ptr %call5
}

; Function Attrs: mustprogress nounwind uwtable
define linkonce_odr noundef i64 @_ZNKSt15__new_allocatorIN8facebook5velox4exec13TypeSignatureEE11_M_max_sizeEv(ptr noundef nonnull align 1 dereferenceable(1) %this) #2 comdat align 2 {
entry:
  %this.addr = alloca ptr, align 8
  store ptr %this, ptr %this.addr, align 8
  ret i64 96076792050570581
}

; Function Attrs: mustprogress nounwind uwtable
define linkonce_odr void @_ZNSt15__new_allocatorIN8facebook5velox4exec13TypeSignatureEED2Ev(ptr noundef nonnull align 1 dereferenceable(1) %this) unnamed_addr #2 comdat align 2 {
entry:
  %this.addr = alloca ptr, align 8
  store ptr %this, ptr %this.addr, align 8
  ret void
}

; Function Attrs: mustprogress uwtable
define linkonce_odr noundef ptr @_ZSt18uninitialized_copyIN9__gnu_cxx17__normal_iteratorIPKN8facebook5velox4exec13TypeSignatureESt6vectorIS5_SaIS5_EEEEPS5_ET0_T_SE_SD_(ptr %__first.coerce, ptr %__last.coerce, ptr noundef %__result) #0 comdat {
entry:
  %__first = alloca %"class.__gnu_cxx::__normal_iterator.53", align 8
  %__last = alloca %"class.__gnu_cxx::__normal_iterator.53", align 8
  %__result.addr = alloca ptr, align 8
  %__can_memmove = alloca i8, align 1
  %__assignable = alloca i8, align 1
  %agg.tmp = alloca %"class.__gnu_cxx::__normal_iterator.53", align 8
  %agg.tmp2 = alloca %"class.__gnu_cxx::__normal_iterator.53", align 8
  %coerce.dive = getelementptr inbounds %"class.__gnu_cxx::__normal_iterator.53", ptr %__first, i32 0, i32 0
  store ptr %__first.coerce, ptr %coerce.dive, align 8
  %coerce.dive1 = getelementptr inbounds %"class.__gnu_cxx::__normal_iterator.53", ptr %__last, i32 0, i32 0
  store ptr %__last.coerce, ptr %coerce.dive1, align 8
  store ptr %__result, ptr %__result.addr, align 8
  store i8 0, ptr %__can_memmove, align 1
  store i8 0, ptr %__assignable, align 1
  call void @llvm.memcpy.p0.p0.i64(ptr align 8 %agg.tmp, ptr align 8 %__first, i64 8, i1 false)
  call void @llvm.memcpy.p0.p0.i64(ptr align 8 %agg.tmp2, ptr align 8 %__last, i64 8, i1 false)
  %0 = load ptr, ptr %__result.addr, align 8
  %coerce.dive3 = getelementptr inbounds %"class.__gnu_cxx::__normal_iterator.53", ptr %agg.tmp, i32 0, i32 0
  %1 = load ptr, ptr %coerce.dive3, align 8
  %coerce.dive4 = getelementptr inbounds %"class.__gnu_cxx::__normal_iterator.53", ptr %agg.tmp2, i32 0, i32 0
  %2 = load ptr, ptr %coerce.dive4, align 8
  %call = call noundef ptr @_ZNSt20__uninitialized_copyILb0EE13__uninit_copyIN9__gnu_cxx17__normal_iteratorIPKN8facebook5velox4exec13TypeSignatureESt6vectorIS7_SaIS7_EEEEPS7_EET0_T_SG_SF_(ptr %1, ptr %2, ptr noundef %0)
  ret ptr %call
}

; Function Attrs: nocallback nofree nounwind willreturn memory(argmem: readwrite)
declare void @llvm.memcpy.p0.p0.i64(ptr noalias nocapture writeonly, ptr noalias nocapture readonly, i64, i1 immarg) #10

; Function Attrs: mustprogress uwtable
define linkonce_odr noundef ptr @_ZNSt20__uninitialized_copyILb0EE13__uninit_copyIN9__gnu_cxx17__normal_iteratorIPKN8facebook5velox4exec13TypeSignatureESt6vectorIS7_SaIS7_EEEEPS7_EET0_T_SG_SF_(ptr %__first.coerce, ptr %__last.coerce, ptr noundef %__result) #0 comdat align 2 {
entry:
  %__first = alloca %"class.__gnu_cxx::__normal_iterator.53", align 8
  %__last = alloca %"class.__gnu_cxx::__normal_iterator.53", align 8
  %__result.addr = alloca ptr, align 8
  %agg.tmp = alloca %"class.__gnu_cxx::__normal_iterator.53", align 8
  %agg.tmp2 = alloca %"class.__gnu_cxx::__normal_iterator.53", align 8
  %coerce.dive = getelementptr inbounds %"class.__gnu_cxx::__normal_iterator.53", ptr %__first, i32 0, i32 0
  store ptr %__first.coerce, ptr %coerce.dive, align 8
  %coerce.dive1 = getelementptr inbounds %"class.__gnu_cxx::__normal_iterator.53", ptr %__last, i32 0, i32 0
  store ptr %__last.coerce, ptr %coerce.dive1, align 8
  store ptr %__result, ptr %__result.addr, align 8
  call void @llvm.memcpy.p0.p0.i64(ptr align 8 %agg.tmp, ptr align 8 %__first, i64 8, i1 false)
  call void @llvm.memcpy.p0.p0.i64(ptr align 8 %agg.tmp2, ptr align 8 %__last, i64 8, i1 false)
  %0 = load ptr, ptr %__result.addr, align 8
  %coerce.dive3 = getelementptr inbounds %"class.__gnu_cxx::__normal_iterator.53", ptr %agg.tmp, i32 0, i32 0
  %1 = load ptr, ptr %coerce.dive3, align 8
  %coerce.dive4 = getelementptr inbounds %"class.__gnu_cxx::__normal_iterator.53", ptr %agg.tmp2, i32 0, i32 0
  %2 = load ptr, ptr %coerce.dive4, align 8
  %call = call noundef ptr @_ZSt16__do_uninit_copyIN9__gnu_cxx17__normal_iteratorIPKN8facebook5velox4exec13TypeSignatureESt6vectorIS5_SaIS5_EEEEPS5_ET0_T_SE_SD_(ptr %1, ptr %2, ptr noundef %0)
  ret ptr %call
}

; Function Attrs: mustprogress uwtable
define linkonce_odr noundef ptr @_ZSt16__do_uninit_copyIN9__gnu_cxx17__normal_iteratorIPKN8facebook5velox4exec13TypeSignatureESt6vectorIS5_SaIS5_EEEEPS5_ET0_T_SE_SD_(ptr %__first.coerce, ptr %__last.coerce, ptr noundef %__result) #0 comdat personality ptr @__gxx_personality_v0 {
entry:
  %__first = alloca %"class.__gnu_cxx::__normal_iterator.53", align 8
  %__last = alloca %"class.__gnu_cxx::__normal_iterator.53", align 8
  %__result.addr = alloca ptr, align 8
  %__cur = alloca ptr, align 8
  %exn.slot = alloca ptr, align 8
  %ehselector.slot = alloca i32, align 4
  %coerce.dive = getelementptr inbounds %"class.__gnu_cxx::__normal_iterator.53", ptr %__first, i32 0, i32 0
  store ptr %__first.coerce, ptr %coerce.dive, align 8
  %coerce.dive1 = getelementptr inbounds %"class.__gnu_cxx::__normal_iterator.53", ptr %__last, i32 0, i32 0
  store ptr %__last.coerce, ptr %coerce.dive1, align 8
  store ptr %__result, ptr %__result.addr, align 8
  %0 = load ptr, ptr %__result.addr, align 8
  store ptr %0, ptr %__cur, align 8
  br label %for.cond

for.cond:                                         ; preds = %for.inc, %entry
  %call = call noundef zeroext i1 @_ZN9__gnu_cxxneIPKN8facebook5velox4exec13TypeSignatureESt6vectorIS4_SaIS4_EEEEbRKNS_17__normal_iteratorIT_T0_EESF_(ptr noundef nonnull align 8 dereferenceable(8) %__first, ptr noundef nonnull align 8 dereferenceable(8) %__last) #16
  br i1 %call, label %for.body, label %for.end

for.body:                                         ; preds = %for.cond
  %1 = load ptr, ptr %__cur, align 8
  %call2 = call noundef nonnull align 8 dereferenceable(96) ptr @_ZNK9__gnu_cxx17__normal_iteratorIPKN8facebook5velox4exec13TypeSignatureESt6vectorIS4_SaIS4_EEEdeEv(ptr noundef nonnull align 8 dereferenceable(8) %__first) #16
  invoke void @_ZSt10_ConstructIN8facebook5velox4exec13TypeSignatureEJRKS3_EEvPT_DpOT0_(ptr noundef %1, ptr noundef nonnull align 8 dereferenceable(96) %call2)
          to label %invoke.cont unwind label %lpad

invoke.cont:                                      ; preds = %for.body
  br label %for.inc

for.inc:                                          ; preds = %invoke.cont
  %call3 = call noundef nonnull align 8 dereferenceable(8) ptr @_ZN9__gnu_cxx17__normal_iteratorIPKN8facebook5velox4exec13TypeSignatureESt6vectorIS4_SaIS4_EEEppEv(ptr noundef nonnull align 8 dereferenceable(8) %__first) #16
  %2 = load ptr, ptr %__cur, align 8
  %incdec.ptr = getelementptr inbounds %"class.facebook::velox::exec::TypeSignature", ptr %2, i32 1
  store ptr %incdec.ptr, ptr %__cur, align 8
  br label %for.cond, !llvm.loop !8

lpad:                                             ; preds = %for.body
  %3 = landingpad { ptr, i32 }
          catch ptr null
  %4 = extractvalue { ptr, i32 } %3, 0
  store ptr %4, ptr %exn.slot, align 8
  %5 = extractvalue { ptr, i32 } %3, 1
  store i32 %5, ptr %ehselector.slot, align 4
  br label %catch

catch:                                            ; preds = %lpad
  %exn = load ptr, ptr %exn.slot, align 8
  %6 = call ptr @__cxa_begin_catch(ptr %exn) #16
  %7 = load ptr, ptr %__result.addr, align 8
  %8 = load ptr, ptr %__cur, align 8
  invoke void @_ZSt8_DestroyIPN8facebook5velox4exec13TypeSignatureEEvT_S5_(ptr noundef %7, ptr noundef %8)
          to label %invoke.cont5 unwind label %lpad4

invoke.cont5:                                     ; preds = %catch
  invoke void @__cxa_rethrow() #19
          to label %unreachable unwind label %lpad4

for.end:                                          ; preds = %for.cond
  %9 = load ptr, ptr %__cur, align 8
  ret ptr %9

lpad4:                                            ; preds = %invoke.cont5, %catch
  %10 = landingpad { ptr, i32 }
          cleanup
  %11 = extractvalue { ptr, i32 } %10, 0
  store ptr %11, ptr %exn.slot, align 8
  %12 = extractvalue { ptr, i32 } %10, 1
  store i32 %12, ptr %ehselector.slot, align 4
  invoke void @__cxa_end_catch()
          to label %invoke.cont6 unwind label %terminate.lpad

invoke.cont6:                                     ; preds = %lpad4
  br label %eh.resume

try.cont:                                         ; No predecessors!
  call void @llvm.trap()
  unreachable

eh.resume:                                        ; preds = %invoke.cont6
  %exn7 = load ptr, ptr %exn.slot, align 8
  %sel = load i32, ptr %ehselector.slot, align 4
  %lpad.val = insertvalue { ptr, i32 } poison, ptr %exn7, 0
  %lpad.val8 = insertvalue { ptr, i32 } %lpad.val, i32 %sel, 1
  resume { ptr, i32 } %lpad.val8

terminate.lpad:                                   ; preds = %lpad4
  %13 = landingpad { ptr, i32 }
          catch ptr null
  %14 = extractvalue { ptr, i32 } %13, 0
  call void @__clang_call_terminate(ptr %14) #18
  unreachable

unreachable:                                      ; preds = %invoke.cont5
  unreachable
}

; Function Attrs: mustprogress nounwind uwtable
define linkonce_odr noundef zeroext i1 @_ZN9__gnu_cxxneIPKN8facebook5velox4exec13TypeSignatureESt6vectorIS4_SaIS4_EEEEbRKNS_17__normal_iteratorIT_T0_EESF_(ptr noundef nonnull align 8 dereferenceable(8) %__lhs, ptr noundef nonnull align 8 dereferenceable(8) %__rhs) #2 comdat {
entry:
  %__lhs.addr = alloca ptr, align 8
  %__rhs.addr = alloca ptr, align 8
  store ptr %__lhs, ptr %__lhs.addr, align 8
  store ptr %__rhs, ptr %__rhs.addr, align 8
  %0 = load ptr, ptr %__lhs.addr, align 8
  %call = call noundef nonnull align 8 dereferenceable(8) ptr @_ZNK9__gnu_cxx17__normal_iteratorIPKN8facebook5velox4exec13TypeSignatureESt6vectorIS4_SaIS4_EEE4baseEv(ptr noundef nonnull align 8 dereferenceable(8) %0) #16
  %1 = load ptr, ptr %call, align 8
  %2 = load ptr, ptr %__rhs.addr, align 8
  %call1 = call noundef nonnull align 8 dereferenceable(8) ptr @_ZNK9__gnu_cxx17__normal_iteratorIPKN8facebook5velox4exec13TypeSignatureESt6vectorIS4_SaIS4_EEE4baseEv(ptr noundef nonnull align 8 dereferenceable(8) %2) #16
  %3 = load ptr, ptr %call1, align 8
  %cmp = icmp ne ptr %1, %3
  ret i1 %cmp
}

; Function Attrs: mustprogress uwtable
define linkonce_odr void @_ZSt10_ConstructIN8facebook5velox4exec13TypeSignatureEJRKS3_EEvPT_DpOT0_(ptr noundef %__p, ptr noundef nonnull align 8 dereferenceable(96) %__args) #0 comdat {
entry:
  %__p.addr = alloca ptr, align 8
  %__args.addr = alloca ptr, align 8
  store ptr %__p, ptr %__p.addr, align 8
  store ptr %__args, ptr %__args.addr, align 8
  %0 = load ptr, ptr %__p.addr, align 8
  %1 = load ptr, ptr %__args.addr, align 8
  call void @_ZN8facebook5velox4exec13TypeSignatureC2ERKS2_(ptr noundef nonnull align 8 dereferenceable(96) %0, ptr noundef nonnull align 8 dereferenceable(96) %1)
  ret void
}

; Function Attrs: mustprogress nounwind uwtable
define linkonce_odr noundef nonnull align 8 dereferenceable(96) ptr @_ZNK9__gnu_cxx17__normal_iteratorIPKN8facebook5velox4exec13TypeSignatureESt6vectorIS4_SaIS4_EEEdeEv(ptr noundef nonnull align 8 dereferenceable(8) %this) #2 comdat align 2 {
entry:
  %this.addr = alloca ptr, align 8
  store ptr %this, ptr %this.addr, align 8
  %this1 = load ptr, ptr %this.addr, align 8
  %_M_current = getelementptr inbounds %"class.__gnu_cxx::__normal_iterator.53", ptr %this1, i32 0, i32 0
  %0 = load ptr, ptr %_M_current, align 8
  ret ptr %0
}

; Function Attrs: mustprogress nounwind uwtable
define linkonce_odr noundef nonnull align 8 dereferenceable(8) ptr @_ZN9__gnu_cxx17__normal_iteratorIPKN8facebook5velox4exec13TypeSignatureESt6vectorIS4_SaIS4_EEEppEv(ptr noundef nonnull align 8 dereferenceable(8) %this) #2 comdat align 2 {
entry:
  %this.addr = alloca ptr, align 8
  store ptr %this, ptr %this.addr, align 8
  %this1 = load ptr, ptr %this.addr, align 8
  %_M_current = getelementptr inbounds %"class.__gnu_cxx::__normal_iterator.53", ptr %this1, i32 0, i32 0
  %0 = load ptr, ptr %_M_current, align 8
  %incdec.ptr = getelementptr inbounds %"class.facebook::velox::exec::TypeSignature", ptr %0, i32 1
  store ptr %incdec.ptr, ptr %_M_current, align 8
  ret ptr %this1
}

; Function Attrs: mustprogress uwtable
define linkonce_odr void @_ZSt8_DestroyIPN8facebook5velox4exec13TypeSignatureEEvT_S5_(ptr noundef %__first, ptr noundef %__last) #0 comdat {
entry:
  %__first.addr = alloca ptr, align 8
  %__last.addr = alloca ptr, align 8
  store ptr %__first, ptr %__first.addr, align 8
  store ptr %__last, ptr %__last.addr, align 8
  %0 = load ptr, ptr %__first.addr, align 8
  %1 = load ptr, ptr %__last.addr, align 8
  call void @_ZNSt12_Destroy_auxILb0EE9__destroyIPN8facebook5velox4exec13TypeSignatureEEEvT_S7_(ptr noundef %0, ptr noundef %1)
  ret void
}

; Function Attrs: mustprogress nounwind uwtable
define linkonce_odr noundef nonnull align 8 dereferenceable(8) ptr @_ZNK9__gnu_cxx17__normal_iteratorIPKN8facebook5velox4exec13TypeSignatureESt6vectorIS4_SaIS4_EEE4baseEv(ptr noundef nonnull align 8 dereferenceable(8) %this) #2 comdat align 2 {
entry:
  %this.addr = alloca ptr, align 8
  store ptr %this, ptr %this.addr, align 8
  %this1 = load ptr, ptr %this.addr, align 8
  %_M_current = getelementptr inbounds %"class.__gnu_cxx::__normal_iterator.53", ptr %this1, i32 0, i32 0
  ret ptr %_M_current
}

; Function Attrs: mustprogress uwtable
define linkonce_odr void @_ZN8facebook5velox4exec13TypeSignatureC2ERKS2_(ptr noundef nonnull align 8 dereferenceable(96) %this, ptr noundef nonnull align 8 dereferenceable(96) %0) unnamed_addr #0 comdat align 2 personality ptr @__gxx_personality_v0 {
entry:
  %this.addr = alloca ptr, align 8
  %.addr = alloca ptr, align 8
  %exn.slot = alloca ptr, align 8
  %ehselector.slot = alloca i32, align 4
  store ptr %this, ptr %this.addr, align 8
  store ptr %0, ptr %.addr, align 8
  %this1 = load ptr, ptr %this.addr, align 8
  %baseName_ = getelementptr inbounds %"class.facebook::velox::exec::TypeSignature", ptr %this1, i32 0, i32 0
  %1 = load ptr, ptr %.addr, align 8
  %baseName_2 = getelementptr inbounds %"class.facebook::velox::exec::TypeSignature", ptr %1, i32 0, i32 0
  call void @_ZNSt7__cxx1112basic_stringIcSt11char_traitsIcESaIcEEC1ERKS4_(ptr noundef nonnull align 8 dereferenceable(32) %baseName_, ptr noundef nonnull align 8 dereferenceable(32) %baseName_2)
  %parameters_ = getelementptr inbounds %"class.facebook::velox::exec::TypeSignature", ptr %this1, i32 0, i32 1
  %2 = load ptr, ptr %.addr, align 8
  %parameters_3 = getelementptr inbounds %"class.facebook::velox::exec::TypeSignature", ptr %2, i32 0, i32 1
  invoke void @_ZNSt6vectorIN8facebook5velox4exec13TypeSignatureESaIS3_EEC2ERKS5_(ptr noundef nonnull align 8 dereferenceable(24) %parameters_, ptr noundef nonnull align 8 dereferenceable(24) %parameters_3)
          to label %invoke.cont unwind label %lpad

invoke.cont:                                      ; preds = %entry
  %rowFieldName_ = getelementptr inbounds %"class.facebook::velox::exec::TypeSignature", ptr %this1, i32 0, i32 2
  %3 = load ptr, ptr %.addr, align 8
  %rowFieldName_4 = getelementptr inbounds %"class.facebook::velox::exec::TypeSignature", ptr %3, i32 0, i32 2
  invoke void @_ZNSt8optionalINSt7__cxx1112basic_stringIcSt11char_traitsIcESaIcEEEEC2ERKS6_(ptr noundef nonnull align 8 dereferenceable(40) %rowFieldName_, ptr noundef nonnull align 8 dereferenceable(40) %rowFieldName_4)
          to label %invoke.cont6 unwind label %lpad5

invoke.cont6:                                     ; preds = %invoke.cont
  ret void

lpad:                                             ; preds = %entry
  %4 = landingpad { ptr, i32 }
          cleanup
  %5 = extractvalue { ptr, i32 } %4, 0
  store ptr %5, ptr %exn.slot, align 8
  %6 = extractvalue { ptr, i32 } %4, 1
  store i32 %6, ptr %ehselector.slot, align 4
  br label %ehcleanup

lpad5:                                            ; preds = %invoke.cont
  %7 = landingpad { ptr, i32 }
          cleanup
  %8 = extractvalue { ptr, i32 } %7, 0
  store ptr %8, ptr %exn.slot, align 8
  %9 = extractvalue { ptr, i32 } %7, 1
  store i32 %9, ptr %ehselector.slot, align 4
  call void @_ZNSt6vectorIN8facebook5velox4exec13TypeSignatureESaIS3_EED2Ev(ptr noundef nonnull align 8 dereferenceable(24) %parameters_) #16
  br label %ehcleanup

ehcleanup:                                        ; preds = %lpad5, %lpad
  call void @_ZNSt7__cxx1112basic_stringIcSt11char_traitsIcESaIcEED1Ev(ptr noundef nonnull align 8 dereferenceable(32) %baseName_) #16
  br label %eh.resume

eh.resume:                                        ; preds = %ehcleanup
  %exn = load ptr, ptr %exn.slot, align 8
  %sel = load i32, ptr %ehselector.slot, align 4
  %lpad.val = insertvalue { ptr, i32 } poison, ptr %exn, 0
  %lpad.val7 = insertvalue { ptr, i32 } %lpad.val, i32 %sel, 1
  resume { ptr, i32 } %lpad.val7
}

; Function Attrs: mustprogress uwtable
define linkonce_odr void @_ZNSt8optionalINSt7__cxx1112basic_stringIcSt11char_traitsIcESaIcEEEEC2ERKS6_(ptr noundef nonnull align 8 dereferenceable(40) %this, ptr noundef nonnull align 8 dereferenceable(40) %0) unnamed_addr #0 comdat align 2 {
entry:
  %this.addr = alloca ptr, align 8
  %.addr = alloca ptr, align 8
  store ptr %this, ptr %this.addr, align 8
  store ptr %0, ptr %.addr, align 8
  %this1 = load ptr, ptr %this.addr, align 8
  %1 = load ptr, ptr %.addr, align 8
  call void @_ZNSt14_Optional_baseINSt7__cxx1112basic_stringIcSt11char_traitsIcESaIcEEELb0ELb0EEC2ERKS6_(ptr noundef nonnull align 8 dereferenceable(40) %this1, ptr noundef nonnull align 8 dereferenceable(40) %1)
  ret void
}

; Function Attrs: mustprogress nounwind uwtable
define linkonce_odr void @_ZNSt6vectorIN8facebook5velox4exec13TypeSignatureESaIS3_EED2Ev(ptr noundef nonnull align 8 dereferenceable(24) %this) unnamed_addr #2 comdat align 2 personality ptr @__gxx_personality_v0 {
entry:
  %this.addr = alloca ptr, align 8
  store ptr %this, ptr %this.addr, align 8
  %this1 = load ptr, ptr %this.addr, align 8
  %_M_impl = getelementptr inbounds %"struct.std::_Vector_base.33", ptr %this1, i32 0, i32 0
  %_M_start = getelementptr inbounds %"struct.std::_Vector_base<facebook::velox::exec::TypeSignature, std::allocator<facebook::velox::exec::TypeSignature>>::_Vector_impl_data", ptr %_M_impl, i32 0, i32 0
  %0 = load ptr, ptr %_M_start, align 8
  %_M_impl2 = getelementptr inbounds %"struct.std::_Vector_base.33", ptr %this1, i32 0, i32 0
  %_M_finish = getelementptr inbounds %"struct.std::_Vector_base<facebook::velox::exec::TypeSignature, std::allocator<facebook::velox::exec::TypeSignature>>::_Vector_impl_data", ptr %_M_impl2, i32 0, i32 1
  %1 = load ptr, ptr %_M_finish, align 8
  %call = call noundef nonnull align 1 dereferenceable(1) ptr @_ZNSt12_Vector_baseIN8facebook5velox4exec13TypeSignatureESaIS3_EE19_M_get_Tp_allocatorEv(ptr noundef nonnull align 8 dereferenceable(24) %this1) #16
  invoke void @_ZSt8_DestroyIPN8facebook5velox4exec13TypeSignatureES3_EvT_S5_RSaIT0_E(ptr noundef %0, ptr noundef %1, ptr noundef nonnull align 1 dereferenceable(1) %call)
          to label %invoke.cont unwind label %terminate.lpad

invoke.cont:                                      ; preds = %entry
  call void @_ZNSt12_Vector_baseIN8facebook5velox4exec13TypeSignatureESaIS3_EED2Ev(ptr noundef nonnull align 8 dereferenceable(24) %this1) #16
  ret void

terminate.lpad:                                   ; preds = %entry
  %2 = landingpad { ptr, i32 }
          catch ptr null
  %3 = extractvalue { ptr, i32 } %2, 0
  call void @__clang_call_terminate(ptr %3) #18
  unreachable
}

