target datalayout = "e-m:e-p270:32:32-p271:32:32-p272:64:64-i64:64-i128:128-f80:128-n8:16:32:64-S128"
target triple = "x86_64-unknown-linux-gnu"

%"struct.folly::Synchronized" = type <{ %"class.std::__cxx11::basic_string", %"class.folly::SharedMutexImpl", [4 x i8] }>
%"class.std::__cxx11::basic_string" = type { %"struct.std::__cxx11::basic_string<char>::_Alloc_hider", i64, %union.anon }
%"struct.std::__cxx11::basic_string<char>::_Alloc_hider" = type { ptr }
%union.anon = type { i64, [8 x i8] }
%"class.folly::SharedMutexImpl" = type { %"struct.std::atomic.16" }
%"struct.std::atomic.16" = type { %"struct.std::__atomic_base.17" }
%"struct.std::__atomic_base.17" = type { i32 }
%"struct.std::nothrow_t" = type { i8 }
%"class.fmt::v8::basic_string_view" = type { ptr, i64 }
%"class.fmt::v8::basic_format_string" = type { %"class.fmt::v8::basic_string_view" }
%"class.fmt::v8::basic_format_args" = type { i64, %union.anon.134 }
%union.anon.134 = type { ptr }
%"class.fmt::v8::format_arg_store.143" = type { %"struct.fmt::v8::detail::arg_data.144" }
%"struct.fmt::v8::detail::arg_data.144" = type { [11 x %"class.fmt::v8::detail::value"] }
%"class.fmt::v8::detail::value" = type { %union.anon.135 }
%union.anon.135 = type { i128 }
%"struct.facebook::velox::memory::MemoryPool::Stats" = type { i64, i64, i64, i64, i64, i64, i64, i64, i64, i64, i64 }
%"class.std::tuple" = type { %"struct.std::_Tuple_impl" }
%"struct.std::_Tuple_impl" = type { %"struct.std::_Tuple_impl.0", %"struct.std::_Head_base.15" }
%"struct.std::_Tuple_impl.0" = type { %"struct.std::_Tuple_impl.1", %"struct.std::_Head_base.14" }
%"struct.std::_Tuple_impl.1" = type { %"struct.std::_Tuple_impl.2", %"struct.std::_Head_base.13" }
%"struct.std::_Tuple_impl.2" = type { %"struct.std::_Tuple_impl.3", %"struct.std::_Head_base.12" }
%"struct.std::_Tuple_impl.3" = type { %"struct.std::_Tuple_impl.4", %"struct.std::_Head_base.11" }
%"struct.std::_Tuple_impl.4" = type { %"struct.std::_Tuple_impl.5", %"struct.std::_Head_base.10" }
%"struct.std::_Tuple_impl.5" = type { %"struct.std::_Tuple_impl.6", %"struct.std::_Head_base.9" }
%"struct.std::_Tuple_impl.6" = type { %"struct.std::_Tuple_impl.7", %"struct.std::_Head_base.8" }
%"struct.std::_Tuple_impl.7" = type { %"struct.std::_Head_base" }
%"struct.std::_Head_base" = type { ptr }
%"struct.std::_Head_base.8" = type { ptr }
%"struct.std::_Head_base.9" = type { ptr }
%"struct.std::_Head_base.10" = type { ptr }
%"struct.std::_Head_base.11" = type { ptr }
%"struct.std::_Head_base.12" = type { ptr }
%"struct.std::_Head_base.13" = type { ptr }
%"struct.std::_Head_base.14" = type { ptr }
%"struct.std::_Head_base.15" = type { ptr }
%"class.facebook::velox::memory::MemoryPool" = type { ptr, %"class.std::enable_shared_from_this", %"class.std::__cxx11::basic_string", i32, i16, %"class.std::shared_ptr", i64, i8, i8, i8, i8, i8, %"struct.std::atomic", %"class.std::__exception_ptr::exception_ptr", %"class.folly::SharedMutexImpl", %"class.std::unordered_map" }
%"class.std::enable_shared_from_this" = type { %"class.std::weak_ptr" }
%"class.std::weak_ptr" = type { %"class.std::__weak_ptr" }
%"class.std::__weak_ptr" = type { ptr, %"class.std::__weak_count" }
%"class.std::__weak_count" = type { ptr }
%"class.std::shared_ptr" = type { %"class.std::__shared_ptr" }
%"class.std::__shared_ptr" = type { ptr, %"class.std::__shared_count" }
%"class.std::__shared_count" = type { ptr }
%"struct.std::atomic" = type { %"struct.std::__atomic_base" }
%"struct.std::__atomic_base" = type { i8 }
%"class.std::__exception_ptr::exception_ptr" = type { ptr }
%"class.std::unordered_map" = type { %"class.std::_Hashtable" }
%"class.std::_Hashtable" = type { ptr, i64, %"struct.std::__detail::_Hash_node_base", i64, %"struct.std::__detail::_Prime_rehash_policy", ptr }
%"struct.std::__detail::_Hash_node_base" = type { ptr }
%"struct.std::__detail::_Prime_rehash_policy" = type { float, i64 }
%"struct.facebook::velox::memory::MemoryPool::Options" = type <{ i16, [6 x i8], i64, i8, i8, i8, i8, i8, [3 x i8] }>
%"class.fmt::v8::basic_format_string.23" = type { %"class.fmt::v8::basic_string_view" }
%"class.fmt::v8::format_arg_store.145" = type { %"struct.fmt::v8::detail::arg_data.146" }
%"struct.fmt::v8::detail::arg_data.146" = type { [1 x %"class.fmt::v8::detail::value"] }
%"class.std::allocator" = type { i8 }
%"class.folly::SharedMutexImpl<false>::ReadHolder" = type <{ ptr, %"struct.folly::SharedMutexToken", [4 x i8] }>
%"struct.folly::SharedMutexToken" = type { i16, i16 }
%"class.std::vector" = type { %"struct.std::_Vector_base" }
%"struct.std::_Vector_base" = type { %"struct.std::_Vector_base<std::shared_ptr<facebook::velox::memory::MemoryPool>, std::allocator<std::shared_ptr<facebook::velox::memory::MemoryPool>>>::_Vector_impl" }
%"struct.std::_Vector_base<std::shared_ptr<facebook::velox::memory::MemoryPool>, std::allocator<std::shared_ptr<facebook::velox::memory::MemoryPool>>>::_Vector_impl" = type { %"struct.std::_Vector_base<std::shared_ptr<facebook::velox::memory::MemoryPool>, std::allocator<std::shared_ptr<facebook::velox::memory::MemoryPool>>>::_Vector_impl_data" }
%"struct.std::_Vector_base<std::shared_ptr<facebook::velox::memory::MemoryPool>, std::allocator<std::shared_ptr<facebook::velox::memory::MemoryPool>>>::_Vector_impl_data" = type { ptr, ptr, ptr }
%"struct.std::__detail::_Node_const_iterator" = type { %"struct.std::__detail::_Node_iterator_base" }
%"struct.std::__detail::_Node_iterator_base" = type { ptr }
%"class.__gnu_cxx::__normal_iterator" = type { ptr }
%"struct.std::pair" = type { %"class.std::__cxx11::basic_string", %"class.std::weak_ptr" }
%"class.std::function" = type { %"class.std::_Function_base", ptr }
%"class.std::_Function_base" = type { %"union.std::_Any_data", ptr }
%"union.std::_Any_data" = type { %"union.std::_Nocopy_types" }
%"union.std::_Nocopy_types" = type { { i64, i64 } }
%"class.folly::SharedMutexImpl<false>::WriteHolder" = type { ptr }
%"class.std::unique_ptr" = type { %"struct.std::__uniq_ptr_data" }
%"struct.std::__uniq_ptr_data" = type { %"class.std::__uniq_ptr_impl" }
%"class.std::__uniq_ptr_impl" = type { %"class.std::tuple.27" }
%"class.std::tuple.27" = type { %"struct.std::_Tuple_impl.28" }
%"struct.std::_Tuple_impl.28" = type { %"struct.std::_Head_base.31" }
%"struct.std::_Head_base.31" = type { ptr }
%"struct.std::pair.32" = type <{ %"struct.std::__detail::_Node_iterator", i8, [7 x i8] }>
%"struct.std::__detail::_Node_iterator" = type { %"struct.std::__detail::_Node_iterator_base" }
%"class.folly::LockedPtr" = type { %"class.std::shared_lock" }
%"class.std::shared_lock" = type <{ ptr, i8, [7 x i8] }>
%"class.facebook::velox::memory::MemoryPoolImpl" = type { %"class.facebook::velox::memory::MemoryPool", ptr, ptr, %"class.std::function.34", %"class.std::__cxx11::basic_string", %"class.std::mutex", %"class.std::unique_ptr", i64, i64, i64, i64, i64, i64, %"struct.std::atomic.37", %"struct.std::atomic.37", %"struct.std::atomic.37", %"struct.std::atomic.37", %"struct.std::atomic.37", %"class.std::mutex", %"class.std::unordered_map.39" }
%"class.std::function.34" = type { %"class.std::_Function_base", ptr }
%"struct.std::atomic.37" = type { %"struct.std::__atomic_base.38" }
%"struct.std::__atomic_base.38" = type { i64 }
%"class.std::mutex" = type { %"class.std::__mutex_base" }
%"class.std::__mutex_base" = type { %union.pthread_mutex_t }
%union.pthread_mutex_t = type { %struct.__pthread_mutex_s }
%struct.__pthread_mutex_s = type { i32, i32, i32, i32, i32, i16, i16, %struct.__pthread_internal_list }
%struct.__pthread_internal_list = type { ptr, ptr }
%"class.std::unordered_map.39" = type { %"class.std::_Hashtable.40" }
%"class.std::_Hashtable.40" = type { ptr, i64, %"struct.std::__detail::_Hash_node_base", i64, %"struct.std::__detail::_Prime_rehash_policy", ptr }
%"class.std::__cxx11::basic_stringbuf" = type { %"class.std::basic_streambuf", i32, %"class.std::__cxx11::basic_string" }
%"class.std::basic_streambuf" = type { ptr, ptr, ptr, ptr, ptr, ptr, ptr, %"class.std::locale" }
%"class.std::locale" = type { ptr }
%"class.std::basic_ostream" = type { ptr, %"class.std::basic_ios" }
%"class.std::basic_ios" = type { %"class.std::ios_base", ptr, i8, i8, ptr, ptr, ptr, ptr }
%"class.std::ios_base" = type { ptr, i64, i64, i32, i32, i32, ptr, %"struct.std::ios_base::_Words", [8 x %"struct.std::ios_base::_Words"], i32, ptr, %"class.std::locale" }
%"struct.std::ios_base::_Words" = type { ptr, i64 }
%"struct.std::__detail::_Node_iterator.119" = type { %"struct.std::__detail::_Node_iterator_base.120" }
%"struct.std::__detail::_Node_iterator_base.120" = type { ptr }
%"struct.std::pair.122" = type { i64, %"struct.facebook::velox::memory::MemoryPoolImpl::AllocationRecord" }
%"struct.facebook::velox::memory::MemoryPoolImpl::AllocationRecord" = type { i64, %"class.std::__cxx11::basic_string" }
%"class.std::lock_guard" = type { ptr }
%"class.fmt::v8::basic_format_string.81" = type { %"class.fmt::v8::basic_string_view" }
%"class.fmt::v8::format_arg_store.149" = type { %"struct.fmt::v8::detail::arg_data" }
%"struct.fmt::v8::detail::arg_data" = type { [4 x %"class.fmt::v8::detail::value"] }
%"class.google::LogMessage" = type { ptr, ptr }
%"class.facebook::velox::process::StackTrace" = type { %"class.std::vector.107", %"class.folly::basic_once_flag", %"class.std::vector.112", %"class.folly::basic_once_flag", %"class.std::__cxx11::basic_string" }
%"class.std::vector.107" = type { %"struct.std::_Vector_base.108" }
%"struct.std::_Vector_base.108" = type { %"struct.std::_Vector_base<void *, std::allocator<void *>>::_Vector_impl" }
%"struct.std::_Vector_base<void *, std::allocator<void *>>::_Vector_impl" = type { %"struct.std::_Vector_base<void *, std::allocator<void *>>::_Vector_impl_data" }
%"struct.std::_Vector_base<void *, std::allocator<void *>>::_Vector_impl_data" = type { ptr, ptr, ptr }
%"class.std::vector.112" = type { %"struct.std::_Vector_base.113" }
%"struct.std::_Vector_base.113" = type { %"struct.std::_Vector_base<std::__cxx11::basic_string<char>, std::allocator<std::__cxx11::basic_string<char>>>::_Vector_impl" }
%"struct.std::_Vector_base<std::__cxx11::basic_string<char>, std::allocator<std::__cxx11::basic_string<char>>>::_Vector_impl" = type { %"struct.std::_Vector_base<std::__cxx11::basic_string<char>, std::allocator<std::__cxx11::basic_string<char>>>::_Vector_impl_data" }
%"struct.std::_Vector_base<std::__cxx11::basic_string<char>, std::allocator<std::__cxx11::basic_string<char>>>::_Vector_impl_data" = type { ptr, ptr, ptr }
%"class.folly::basic_once_flag" = type { %"struct.std::atomic", %"class.folly::SharedMutexImpl" }
%"struct.std::pair.117" = type <{ %"struct.std::__detail::_Node_iterator.119", i8, [7 x i8] }>
%"class.fmt::v8::basic_format_string.82" = type { %"class.fmt::v8::basic_string_view" }
%"class.fmt::v8::format_arg_store.150" = type { %"struct.fmt::v8::detail::arg_data.151" }
%"struct.fmt::v8::detail::arg_data.151" = type { [5 x %"class.fmt::v8::detail::value"] }
%"class.fmt::v8::basic_format_string.83" = type { %"class.fmt::v8::basic_string_view" }
%"class.fmt::v8::format_arg_store.152" = type { %"struct.fmt::v8::detail::arg_data.151" }
%"class.fmt::v8::basic_format_string.92" = type { %"class.fmt::v8::basic_string_view" }
%"class.fmt::v8::format_arg_store.153" = type { %"struct.fmt::v8::detail::arg_data" }
%"class.std::function.89" = type { %"class.std::_Function_base", ptr }
%class.anon = type { ptr }
%"class.facebook::velox::memory::Allocation" = type <{ ptr, %"class.std::vector.84", i32, [4 x i8] }>
%"class.std::vector.84" = type { %"struct.std::_Vector_base.85" }
%"struct.std::_Vector_base.85" = type { %"struct.std::_Vector_base<facebook::velox::memory::Allocation::PageRun, std::allocator<facebook::velox::memory::Allocation::PageRun>>::_Vector_impl" }
%"struct.std::_Vector_base<facebook::velox::memory::Allocation::PageRun, std::allocator<facebook::velox::memory::Allocation::PageRun>>::_Vector_impl" = type { %"struct.std::_Vector_base<facebook::velox::memory::Allocation::PageRun, std::allocator<facebook::velox::memory::Allocation::PageRun>>::_Vector_impl_data" }
%"struct.std::_Vector_base<facebook::velox::memory::Allocation::PageRun, std::allocator<facebook::velox::memory::Allocation::PageRun>>::_Vector_impl_data" = type { ptr, ptr, ptr }
%"class.facebook::velox::memory::Allocation::PageRun" = type { i64 }
%"class.fmt::v8::basic_format_string.94" = type { %"class.fmt::v8::basic_string_view" }
%"class.fmt::v8::format_arg_store.154" = type { %"struct.fmt::v8::detail::arg_data" }
%class.anon.93 = type { ptr }
%"class.facebook::velox::memory::ContiguousAllocation" = type { ptr, ptr, i64, i64 }
%"class.fmt::v8::basic_format_string.96" = type { %"class.fmt::v8::basic_string_view" }
%"class.fmt::v8::format_arg_store.155" = type { %"struct.fmt::v8::detail::arg_data" }
%class.anon.95 = type { ptr }
%"class.std::shared_ptr.97" = type { %"class.std::__shared_ptr.98" }
%"class.std::__shared_ptr.98" = type { ptr, %"class.std::__shared_count" }
%"class.std::allocator.156" = type { i8 }
%"struct.std::_Sp_alloc_shared_tag" = type { ptr }
%"class.std::__cxx11::basic_stringstream" = type { %"class.std::basic_iostream.base", %"class.std::__cxx11::basic_stringbuf", %"class.std::basic_ios" }
%"class.std::basic_iostream.base" = type { %"class.std::basic_istream.base", %"class.std::basic_ostream.base" }
%"class.std::basic_istream.base" = type { ptr, i64 }
%"class.std::basic_ostream.base" = type { ptr }
%"struct.facebook::velox::memory::(anonymous namespace)::MemoryUsage" = type { %"class.std::__cxx11::basic_string", i64, i64, i64 }
%"class.std::priority_queue" = type <{ %"class.std::vector.100", %"struct.facebook::velox::memory::(anonymous namespace)::MemoryUsageComp", [7 x i8] }>
%"class.std::vector.100" = type { %"struct.std::_Vector_base.101" }
%"struct.std::_Vector_base.101" = type { %"struct.std::_Vector_base<facebook::velox::memory::(anonymous namespace)::MemoryUsage, std::allocator<facebook::velox::memory::(anonymous namespace)::MemoryUsage>>::_Vector_impl" }
%"struct.std::_Vector_base<facebook::velox::memory::(anonymous namespace)::MemoryUsage, std::allocator<facebook::velox::memory::(anonymous namespace)::MemoryUsage>>::_Vector_impl" = type { %"struct.std::_Vector_base<facebook::velox::memory::(anonymous namespace)::MemoryUsage, std::allocator<facebook::velox::memory::(anonymous namespace)::MemoryUsage>>::_Vector_impl_data" }
%"struct.std::_Vector_base<facebook::velox::memory::(anonymous namespace)::MemoryUsage, std::allocator<facebook::velox::memory::(anonymous namespace)::MemoryUsage>>::_Vector_impl_data" = type { ptr, ptr, ptr }
%"struct.facebook::velox::memory::(anonymous namespace)::MemoryUsageComp" = type { i8 }
%class.anon.105 = type { i64, ptr, ptr }
%"class.__gnu_cxx::__normal_iterator.106" = type { ptr }
%"class.fmt::v8::basic_format_string.133" = type { %"class.fmt::v8::basic_string_view" }
%"class.fmt::v8::format_arg_store" = type { %"struct.fmt::v8::detail::arg_data" }
%"struct.facebook::velox::TsanEmptyLockGuard" = type { i8 }
%"class.re2::StringPiece" = type { ptr, i64 }
%"class.re2::RE2" = type <{ %"class.std::__cxx11::basic_string", %"class.re2::RE2::Options", ptr, ptr, i32, [4 x i8], %"class.std::__cxx11::basic_string", %"class.std::__cxx11::basic_string", i8, [7 x i8], ptr, ptr, i32, i8, [3 x i8], ptr, ptr, ptr, %"struct.std::once_flag", %"struct.std::once_flag", %"struct.std::once_flag", [4 x i8] }>
%"class.re2::RE2::Options" = type { i32, i8, i8, i8, i64, i8, i8, i8, i8, i8, i8, i8, i8 }
%"struct.std::once_flag" = type { i32 }
%"struct.std::__detail::_Hash_node_value_base" = type { %"struct.__gnu_cxx::__aligned_buffer" }
%"struct.__gnu_cxx::__aligned_buffer" = type { %"union.std::aligned_storage<48, 8>::type" }
%"union.std::aligned_storage<48, 8>::type" = type { [48 x i8] }
%"class.std::_Sp_counted_base" = type { ptr, i32, i32 }
%"class.std::allocator.124" = type { i8 }
%"struct.std::__detail::_Hash_node_value_base.129" = type { %"struct.__gnu_cxx::__aligned_buffer.130" }
%"struct.__gnu_cxx::__aligned_buffer.130" = type { %"union.std::aligned_storage<48, 8>::type" }
%"class.__gnu_cxx::__normal_iterator.132" = type { ptr }
%"struct.fmt::v8::detail::arg_mapper" = type { i8 }
%"struct.fmt::v8::detail::string_value" = type { ptr, i64 }
%"class.__gnu_cxx::__normal_iterator.136" = type { ptr }
%"struct.__gnu_cxx::__ops::_Iter_comp_iter" = type { %"struct.facebook::velox::memory::(anonymous namespace)::MemoryUsageComp" }
%"struct.__gnu_cxx::__ops::_Iter_comp_val" = type { %"struct.facebook::velox::memory::(anonymous namespace)::MemoryUsageComp" }
%"class.std::tuple.137" = type { %"struct.std::_Tuple_impl.138" }
%"struct.std::_Tuple_impl.138" = type { %"struct.std::_Tuple_impl.139", %"struct.std::_Head_base.15" }
%"struct.std::_Tuple_impl.139" = type { %"struct.std::_Tuple_impl.140", %"struct.std::_Head_base.14" }
%"struct.std::_Tuple_impl.140" = type { %"struct.std::_Tuple_impl.141", %"struct.std::_Head_base.13" }
%"struct.std::_Tuple_impl.141" = type { %"struct.std::_Head_base.142" }
%"struct.std::_Head_base.142" = type { ptr }
%struct._Guard = type { ptr }
%"struct.std::__detail::_Select1st" = type { i8 }
%"struct.std::__detail::_Mod_range_hashing" = type { i8 }
%"struct.std::__detail::_Hash_node_code_cache" = type { i64 }
%"struct.std::_Hashtable<std::__cxx11::basic_string<char>, std::pair<const std::__cxx11::basic_string<char>, std::weak_ptr<facebook::velox::memory::MemoryPool>>, std::allocator<std::pair<const std::__cxx11::basic_string<char>, std::weak_ptr<facebook::velox::memory::MemoryPool>>>, std::__detail::_Select1st, std::equal_to<std::__cxx11::basic_string<char>>, std::hash<string>, std::__detail::_Mod_range_hashing, std::__detail::_Default_ranged_hash, std::__detail::_Prime_rehash_policy, std::__detail::_Hashtable_traits<true, false, true>>::_Scoped_node" = type { ptr, ptr }
%"struct.std::pair.147" = type { i8, i64 }
%"class.std::allocator.157" = type { i8 }
%"struct.std::__allocated_ptr" = type { ptr, ptr }
%"class.std::_Sp_counted_ptr_inplace" = type { %"class.std::_Sp_counted_base", %"class.std::_Sp_counted_ptr_inplace<facebook::velox::memory::MemoryPoolImpl, std::allocator<void>, __gnu_cxx::_S_atomic>::_Impl" }
%"class.std::_Sp_counted_ptr_inplace<facebook::velox::memory::MemoryPoolImpl, std::allocator<void>, __gnu_cxx::_S_atomic>::_Impl" = type { %"struct.__gnu_cxx::__aligned_buffer.160" }
%"struct.__gnu_cxx::__aligned_buffer.160" = type { %"union.std::aligned_storage<480, 8>::type" }
%"union.std::aligned_storage<480, 8>::type" = type { [480 x i8] }
%"class.std::type_info" = type { ptr, ptr }
%class.anon.164 = type { i64, ptr, ptr }
%"struct.std::_Hashtable<unsigned long, std::pair<const unsigned long, facebook::velox::memory::MemoryPoolImpl::AllocationRecord>, std::allocator<std::pair<const unsigned long, facebook::velox::memory::MemoryPoolImpl::AllocationRecord>>, std::__detail::_Select1st, std::equal_to<unsigned long>, std::hash<unsigned long>, std::__detail::_Mod_range_hashing, std::__detail::_Default_ranged_hash, std::__detail::_Prime_rehash_policy, std::__detail::_Hashtable_traits<false, false, true>>::_Scoped_node" = type { ptr, ptr }

$_ZSteqIJRKmS1_S1_S1_S1_S1_S1_S1_S1_EJS1_S1_S1_S1_S1_S1_S1_S1_S1_EEbRKSt5tupleIJDpT_EERKS2_IJDpT0_EE = comdat any

$_ZSt3tieIJKmS0_S0_S0_S0_S0_S0_S0_S0_EESt5tupleIJDpRT_EES4_ = comdat any

$_ZNSt23enable_shared_from_thisIN8facebook5velox6memory10MemoryPoolEEC2Ev = comdat any

$_ZNSt10shared_ptrIN8facebook5velox6memory10MemoryPoolEEC2EOS4_ = comdat any

$_ZSteqIN8facebook5velox6memory10MemoryPoolEEbRKSt10shared_ptrIT_EDn = comdat any

$_ZNSt6atomicIbEC2Eb = comdat any

$_ZNSt15__exception_ptr13exception_ptrC2EDn = comdat any

$_ZNSt13unordered_mapINSt7__cxx1112basic_stringIcSt11char_traitsIcESaIcEEESt8weak_ptrIN8facebook5velox6memory10MemoryPoolEESt4hashIS5_ESt8equal_toIS5_ESaISt4pairIKS5_SB_EEEC2Ev = comdat any

$_ZNSt13unordered_mapINSt7__cxx1112basic_stringIcSt11char_traitsIcESaIcEEESt8weak_ptrIN8facebook5velox6memory10MemoryPoolEESt4hashIS5_ESt8equal_toIS5_ESaISt4pairIKS5_SB_EEED2Ev = comdat any

$_ZNSt15__exception_ptr13exception_ptrD2Ev = comdat any

$_ZNSt10shared_ptrIN8facebook5velox6memory10MemoryPoolEED2Ev = comdat any

$_ZNSt23enable_shared_from_thisIN8facebook5velox6memory10MemoryPoolEED2Ev = comdat any

$_ZNKSt13unordered_mapINSt7__cxx1112basic_stringIcSt11char_traitsIcESaIcEEESt8weak_ptrIN8facebook5velox6memory10MemoryPoolEESt4hashIS5_ESt8equal_toIS5_ESaISt4pairIKS5_SB_EEE5emptyEv = comdat any

$_ZNSt7__cxx1112basic_stringIcSt11char_traitsIcESaIcEEC2IS3_EEPKcRKS3_ = comdat any

$_ZNKSt12__shared_ptrIN8facebook5velox6memory10MemoryPoolELN9__gnu_cxx12_Lock_policyE2EE3getEv = comdat any

$_ZStneIN8facebook5velox6memory10MemoryPoolEEbRKSt10shared_ptrIT_EDn = comdat any

$_ZNKSt13unordered_mapINSt7__cxx1112basic_stringIcSt11char_traitsIcESaIcEEESt8weak_ptrIN8facebook5velox6memory10MemoryPoolEESt4hashIS5_ESt8equal_toIS5_ESaISt4pairIKS5_SB_EEE4sizeEv = comdat any

$_ZNSt6vectorISt10shared_ptrIN8facebook5velox6memory10MemoryPoolEESaIS5_EEC2Ev = comdat any

$_ZNSt6vectorISt10shared_ptrIN8facebook5velox6memory10MemoryPoolEESaIS5_EE7reserveEm = comdat any

$_ZNKSt13unordered_mapINSt7__cxx1112basic_stringIcSt11char_traitsIcESaIcEEESt8weak_ptrIN8facebook5velox6memory10MemoryPoolEESt4hashIS5_ESt8equal_toIS5_ESaISt4pairIKS5_SB_EEE5beginEv = comdat any

$_ZNKSt13unordered_mapINSt7__cxx1112basic_stringIcSt11char_traitsIcESaIcEEESt8weak_ptrIN8facebook5velox6memory10MemoryPoolEESt4hashIS5_ESt8equal_toIS5_ESaISt4pairIKS5_SB_EEE3endEv = comdat any

$_ZNSt8__detailneERKNS_19_Node_iterator_baseISt4pairIKNSt7__cxx1112basic_stringIcSt11char_traitsIcESaIcEEESt8weak_ptrIN8facebook5velox6memory10MemoryPoolEEELb1EEESI_ = comdat any

$_ZNKSt8__detail20_Node_const_iteratorISt4pairIKNSt7__cxx1112basic_stringIcSt11char_traitsIcESaIcEEESt8weak_ptrIN8facebook5velox6memory10MemoryPoolEEELb0ELb1EEdeEv = comdat any

$_ZNKSt8weak_ptrIN8facebook5velox6memory10MemoryPoolEE4lockEv = comdat any

$_ZNSt6vectorISt10shared_ptrIN8facebook5velox6memory10MemoryPoolEESaIS5_EE9push_backEOS5_ = comdat any

$_ZNSt8__detail20_Node_const_iteratorISt4pairIKNSt7__cxx1112basic_stringIcSt11char_traitsIcESaIcEEESt8weak_ptrIN8facebook5velox6memory10MemoryPoolEEELb0ELb1EEppEv = comdat any

$_ZNSt6vectorISt10shared_ptrIN8facebook5velox6memory10MemoryPoolEESaIS5_EE5beginEv = comdat any

$_ZNSt6vectorISt10shared_ptrIN8facebook5velox6memory10MemoryPoolEESaIS5_EE3endEv = comdat any

$_ZN9__gnu_cxxneIPSt10shared_ptrIN8facebook5velox6memory10MemoryPoolEESt6vectorIS6_SaIS6_EEEEbRKNS_17__normal_iteratorIT_T0_EESG_ = comdat any

$_ZNK9__gnu_cxx17__normal_iteratorIPSt10shared_ptrIN8facebook5velox6memory10MemoryPoolEESt6vectorIS6_SaIS6_EEEdeEv = comdat any

$_ZNKSt8functionIFbPN8facebook5velox6memory10MemoryPoolEEEclES4_ = comdat any

$_ZN9__gnu_cxx17__normal_iteratorIPSt10shared_ptrIN8facebook5velox6memory10MemoryPoolEESt6vectorIS6_SaIS6_EEEppEv = comdat any

$_ZNSt6vectorISt10shared_ptrIN8facebook5velox6memory10MemoryPoolEESaIS5_EED2Ev = comdat any

$_ZNKSt13unordered_mapINSt7__cxx1112basic_stringIcSt11char_traitsIcESaIcEEESt8weak_ptrIN8facebook5velox6memory10MemoryPoolEESt4hashIS5_ESt8equal_toIS5_ESaISt4pairIKS5_SB_EEE5countERSH_ = comdat any

$_ZNSt23enable_shared_from_thisIN8facebook5velox6memory10MemoryPoolEE16shared_from_thisEv = comdat any

$_ZNSt10unique_ptrIN8facebook5velox6memory15MemoryReclaimerESt14default_deleteIS3_EEC2EOS6_ = comdat any

$_ZNSt10unique_ptrIN8facebook5velox6memory15MemoryReclaimerESt14default_deleteIS3_EED2Ev = comdat any

$_ZNSt13unordered_mapINSt7__cxx1112basic_stringIcSt11char_traitsIcESaIcEEESt8weak_ptrIN8facebook5velox6memory10MemoryPoolEESt4hashIS5_ESt8equal_toIS5_ESaISt4pairIKS5_SB_EEE7emplaceIJRSH_RSt10shared_ptrISA_EEEESG_INSt8__detail14_Node_iteratorISI_Lb0ELb1EEEbEDpOT_ = comdat any

$_ZNSt13unordered_mapINSt7__cxx1112basic_stringIcSt11char_traitsIcESaIcEEESt8weak_ptrIN8facebook5velox6memory10MemoryPoolEESt4hashIS5_ESt8equal_toIS5_ESaISt4pairIKS5_SB_EEE5eraseERSH_ = comdat any

$_ZN8facebook5velox4bits17countLeadingZerosImEEiT_ = comdat any

$_ZNSt10shared_ptrIN8facebook5velox6memory10MemoryPoolEEC2ERKS4_ = comdat any

$_ZNSt8functionIFvPN8facebook5velox6memory10MemoryPoolEEEC2EOS6_ = comdat any

$_ZN8facebook5velox6memory14MemoryPoolImpl18debugPoolNameRegexB5cxx11Ev = comdat any

$_ZN5folly16SynchronizedBaseINS_12SynchronizedINSt7__cxx1112basic_stringIcSt11char_traitsIcESaIcEEENS_15SharedMutexImplILb0EvSt6atomicNS_24SharedMutexPolicyDefaultEEEEELNS_6detail22SynchronizedMutexLevelE2EE5rlockEv = comdat any

$_ZNK5folly9LockedPtrINS_12SynchronizedINSt7__cxx1112basic_stringIcSt11char_traitsIcESaIcEEENS_15SharedMutexImplILb0EvSt6atomicNS_24SharedMutexPolicyDefaultEEEEENS_6detail22SynchronizedLockPolicyILNSD_22SynchronizedMutexLevelE2ELNSD_23SynchronizedMutexMethodE0EEEEdeEv = comdat any

$_ZN5folly9LockedPtrINS_12SynchronizedINSt7__cxx1112basic_stringIcSt11char_traitsIcESaIcEEENS_15SharedMutexImplILb0EvSt6atomicNS_24SharedMutexPolicyDefaultEEEEENS_6detail22SynchronizedLockPolicyILNSD_22SynchronizedMutexLevelE2ELNSD_23SynchronizedMutexMethodE0EEEED2Ev = comdat any

$_ZNSt5mutexC2Ev = comdat any

$_ZNSt6atomicImEC2Em = comdat any

$_ZNSt13unordered_mapImN8facebook5velox6memory14MemoryPoolImpl16AllocationRecordESt4hashImESt8equal_toImESaISt4pairIKmS4_EEEC2Ev = comdat any

$_ZNKSt19__shared_ptr_accessIN8facebook5velox6memory10MemoryPoolELN9__gnu_cxx12_Lock_policyE2ELb0ELb0EEptEv = comdat any

$_ZSteqIN8facebook5velox6memory15MemoryReclaimerESt14default_deleteIS3_EEbRKSt10unique_ptrIT_T0_EDn = comdat any

$_ZNSt13unordered_mapImN8facebook5velox6memory14MemoryPoolImpl16AllocationRecordESt4hashImESt8equal_toImESaISt4pairIKmS4_EEED2Ev = comdat any

$_ZNSt8functionIFvPN8facebook5velox6memory10MemoryPoolEEED2Ev = comdat any

$__clang_call_terminate = comdat any

$_ZStneIvJPN8facebook5velox6memory10MemoryPoolEEEbRKSt8functionIFT_DpT0_EEDn = comdat any

$_ZNKSt8functionIFvPN8facebook5velox6memory10MemoryPoolEEEclES4_ = comdat any

$_ZNSt10lock_guardISt5mutexEC2ERS0_ = comdat any

$_ZNSt10lock_guardISt5mutexED2Ev = comdat any

$_ZN8facebook5velox6memory10MemoryPool5StatsC2Ev = comdat any

$_ZNKSt13__atomic_baseImEcvmEv = comdat any

$_ZNSt13__atomic_baseImEppEv = comdat any

$_ZSt3minIlERKT_S2_S2_ = comdat any

$_ZNK8facebook5velox6memory10Allocation5emptyEv = comdat any

$_ZN8facebook5velox6common8testutil9TestValue6adjustERKNSt7__cxx1112basic_stringIcSt11char_traitsIcESaIcEEEPv = comdat any

$_ZNSt8functionIFvlbEED2Ev = comdat any

$_ZNK8facebook5velox6memory10Allocation4poolEv = comdat any

$_ZN8facebook5velox6memory10Allocation7setPoolEPNS1_10MemoryPoolE = comdat any

$_ZNK8facebook5velox6memory20ContiguousAllocation5emptyEv = comdat any

$_ZNK8facebook5velox6memory20ContiguousAllocation4poolEv = comdat any

$_ZN8facebook5velox6memory20ContiguousAllocation7setPoolEPNS1_10MemoryPoolE = comdat any

$_ZNK8facebook5velox6memory20ContiguousAllocation4sizeEv = comdat any

$_ZNK8facebook5velox6memory20ContiguousAllocation4dataIhEEPT_v = comdat any

$_ZSt11make_sharedIN8facebook5velox6memory14MemoryPoolImplEJRKPNS2_13MemoryManagerERKNSt7__cxx1112basic_stringIcSt11char_traitsIcESaIcEEERNS2_10MemoryPool4KindERSt10shared_ptrISG_ESt10unique_ptrINS2_15MemoryReclaimerESt14default_deleteISN_EEDnNSG_7OptionsEEESJ_INSt9enable_ifIXntsr8is_arrayIT_EE5valueEST_E4typeEEDpOT0_ = comdat any

$_ZNSt10shared_ptrIN8facebook5velox6memory10MemoryPoolEEC2INS2_14MemoryPoolImplEvEEOS_IT_E = comdat any

$_ZNSt10shared_ptrIN8facebook5velox6memory14MemoryPoolImplEED2Ev = comdat any

$_ZN8facebook5velox4bits7roundUpImiEET_S3_T0_ = comdat any

$_ZN8facebook5velox15tsanAtomicValueIlEET_S2_ = comdat any

$_ZNSt13__atomic_baseImEpLEm = comdat any

$_ZSt3maxIlERKT_S2_S2_ = comdat any

$_ZNSt8functionIFbPN8facebook5velox6memory10MemoryPoolEEED2Ev = comdat any

$_ZNSt7__cxx1112basic_stringIcSt11char_traitsIcESaIcEEC2IS3_EEmcRKS3_ = comdat any

$_ZStneIN8facebook5velox6memory15MemoryReclaimerESt14default_deleteIS3_EEbRKSt10unique_ptrIT_T0_EDn = comdat any

$_ZNSt10unique_ptrIN8facebook5velox6memory15MemoryReclaimerESt14default_deleteIS3_EEaSEOS6_ = comdat any

$_ZN8facebook5velox18TsanEmptyLockGuardISt5mutexEC2ERS2_ = comdat any

$_ZNKSt10unique_ptrIN8facebook5velox6memory15MemoryReclaimerESt14default_deleteIS3_EE3getEv = comdat any

$_ZSt3maxImERKT_S2_S2_ = comdat any

$_ZSt3minImERKT_S2_S2_ = comdat any

$_ZNKSt6atomicIbEcvbEv = comdat any

$_ZNSt15__exception_ptrneERKNS_13exception_ptrES2_ = comdat any

$_ZNSt15__exception_ptr13exception_ptraSERKS0_ = comdat any

$_ZNSt6atomicIbEaSEb = comdat any

$_ZNSt15__exception_ptr13exception_ptrC2ERKS0_ = comdat any

$_ZN3re23RE29FullMatchIJEEEbRKNS_11StringPieceERKS0_DpOT_ = comdat any

$_ZN3re211StringPieceC2ERKNSt7__cxx1112basic_stringIcSt11char_traitsIcESaIcEEE = comdat any

$_ZN8facebook5velox7process10StackTraceD2Ev = comdat any

$_ZNSt13unordered_mapImN8facebook5velox6memory14MemoryPoolImpl16AllocationRecordESt4hashImESt8equal_toImESaISt4pairIKmS4_EEE7emplaceIJmS4_EEES9_INSt8__detail14_Node_iteratorISB_Lb0ELb0EEEbEDpOT_ = comdat any

$_ZN8facebook5velox6memory14MemoryPoolImpl16AllocationRecordD2Ev = comdat any

$_ZNK8facebook5velox6memory10Allocation5runAtEi = comdat any

$_ZNK8facebook5velox6memory10Allocation7PageRun4dataIhEEPT_v = comdat any

$_ZNK8facebook5velox6memory10Allocation8byteSizeEv = comdat any

$_ZNSt13unordered_mapImN8facebook5velox6memory14MemoryPoolImpl16AllocationRecordESt4hashImESt8equal_toImESaISt4pairIKmS4_EEE4findERSA_ = comdat any

$_ZNSt8__detaileqERKNS_19_Node_iterator_baseISt4pairIKmN8facebook5velox6memory14MemoryPoolImpl16AllocationRecordEELb0EEESB_ = comdat any

$_ZNSt13unordered_mapImN8facebook5velox6memory14MemoryPoolImpl16AllocationRecordESt4hashImESt8equal_toImESaISt4pairIKmS4_EEE3endEv = comdat any

$_ZNKSt8__detail14_Node_iteratorISt4pairIKmN8facebook5velox6memory14MemoryPoolImpl16AllocationRecordEELb0ELb0EEptEv = comdat any

$_ZN8facebook5velox6memory14MemoryPoolImpl16AllocationRecordC2ERKS3_ = comdat any

$_ZNSt13unordered_mapImN8facebook5velox6memory14MemoryPoolImpl16AllocationRecordESt4hashImESt8equal_toImESaISt4pairIKmS4_EEE5eraseERSA_ = comdat any

$_ZNKSt13unordered_mapImN8facebook5velox6memory14MemoryPoolImpl16AllocationRecordESt4hashImESt8equal_toImESaISt4pairIKmS4_EEE5emptyEv = comdat any

$_ZNKSt13unordered_mapImN8facebook5velox6memory14MemoryPoolImpl16AllocationRecordESt4hashImESt8equal_toImESaISt4pairIKmS4_EEE4sizeEv = comdat any

$_ZNSt13unordered_mapImN8facebook5velox6memory14MemoryPoolImpl16AllocationRecordESt4hashImESt8equal_toImESaISt4pairIKmS4_EEE5beginEv = comdat any

$_ZNSt8__detailneERKNS_19_Node_iterator_baseISt4pairIKmN8facebook5velox6memory14MemoryPoolImpl16AllocationRecordEELb0EEESB_ = comdat any

$_ZNKSt8__detail14_Node_iteratorISt4pairIKmN8facebook5velox6memory14MemoryPoolImpl16AllocationRecordEELb0ELb0EEdeEv = comdat any

$_ZNSt8__detail14_Node_iteratorISt4pairIKmN8facebook5velox6memory14MemoryPoolImpl16AllocationRecordEELb0ELb0EEppEv = comdat any

$_ZNSt7__cxx1115basic_stringbufIcSt11char_traitsIcESaIcEED2Ev = comdat any

$_ZNK8facebook5velox6memory10MemoryPool10trackUsageEv = comdat any

$_ZNK8facebook5velox6memory10MemoryPool10threadSafeEv = comdat any

$_ZNK8facebook5velox6memory10MemoryPool21testingCheckUsageLeakEv = comdat any

$_ZNK8facebook5velox6memory10MemoryPool9alignmentEv = comdat any

$_ZNK8facebook5velox6memory10MemoryPool11maxCapacityEv = comdat any

$_ZNK8facebook5velox6memory14MemoryPoolImpl12currentBytesEv = comdat any

$_ZNK8facebook5velox6memory14MemoryPoolImpl9peakBytesEv = comdat any

$_ZNK8facebook5velox6memory14MemoryPoolImpl20availableReservationEv = comdat any

$_ZNK8facebook5velox6memory14MemoryPoolImpl13reservedBytesEv = comdat any

$_ZNK8facebook5velox6memory14MemoryPoolImpl8toStringB5cxx11Ev = comdat any

$_ZNSt15__tuple_compareISt5tupleIJRKmS2_S2_S2_S2_S2_S2_S2_S2_EES3_Lm0ELm9EE4__eqERKS3_S6_ = comdat any

$_ZSt3getILm0EJRKmS1_S1_S1_S1_S1_S1_S1_S1_EERKNSt13tuple_elementIXT_ESt5tupleIJDpT0_EEE4typeERKS6_ = comdat any

$_ZNSt15__tuple_compareISt5tupleIJRKmS2_S2_S2_S2_S2_S2_S2_S2_EES3_Lm1ELm9EE4__eqERKS3_S6_ = comdat any

$_ZSt12__get_helperILm0ERKmJS1_S1_S1_S1_S1_S1_S1_S1_EERKT0_RKSt11_Tuple_implIXT_EJS2_DpT1_EE = comdat any

$_ZNSt11_Tuple_implILm0EJRKmS1_S1_S1_S1_S1_S1_S1_S1_EE7_M_headERKS2_ = comdat any

$_ZNSt10_Head_baseILm0ERKmLb0EE7_M_headERKS2_ = comdat any

$_ZSt3getILm1EJRKmS1_S1_S1_S1_S1_S1_S1_S1_EERKNSt13tuple_elementIXT_ESt5tupleIJDpT0_EEE4typeERKS6_ = comdat any

$_ZNSt15__tuple_compareISt5tupleIJRKmS2_S2_S2_S2_S2_S2_S2_S2_EES3_Lm2ELm9EE4__eqERKS3_S6_ = comdat any

$_ZSt12__get_helperILm1ERKmJS1_S1_S1_S1_S1_S1_S1_EERKT0_RKSt11_Tuple_implIXT_EJS2_DpT1_EE = comdat any

$_ZNSt11_Tuple_implILm1EJRKmS1_S1_S1_S1_S1_S1_S1_EE7_M_headERKS2_ = comdat any

$_ZNSt10_Head_baseILm1ERKmLb0EE7_M_headERKS2_ = comdat any

$_ZSt3getILm2EJRKmS1_S1_S1_S1_S1_S1_S1_S1_EERKNSt13tuple_elementIXT_ESt5tupleIJDpT0_EEE4typeERKS6_ = comdat any

$_ZNSt15__tuple_compareISt5tupleIJRKmS2_S2_S2_S2_S2_S2_S2_S2_EES3_Lm3ELm9EE4__eqERKS3_S6_ = comdat any

$_ZSt12__get_helperILm2ERKmJS1_S1_S1_S1_S1_S1_EERKT0_RKSt11_Tuple_implIXT_EJS2_DpT1_EE = comdat any

$_ZNSt11_Tuple_implILm2EJRKmS1_S1_S1_S1_S1_S1_EE7_M_headERKS2_ = comdat any

$_ZNSt10_Head_baseILm2ERKmLb0EE7_M_headERKS2_ = comdat any

$_ZSt3getILm3EJRKmS1_S1_S1_S1_S1_S1_S1_S1_EERKNSt13tuple_elementIXT_ESt5tupleIJDpT0_EEE4typeERKS6_ = comdat any

$_ZNSt15__tuple_compareISt5tupleIJRKmS2_S2_S2_S2_S2_S2_S2_S2_EES3_Lm4ELm9EE4__eqERKS3_S6_ = comdat any

$_ZSt12__get_helperILm3ERKmJS1_S1_S1_S1_S1_EERKT0_RKSt11_Tuple_implIXT_EJS2_DpT1_EE = comdat any

$_ZNSt11_Tuple_implILm3EJRKmS1_S1_S1_S1_S1_EE7_M_headERKS2_ = comdat any

$_ZNSt10_Head_baseILm3ERKmLb0EE7_M_headERKS2_ = comdat any

$_ZSt3getILm4EJRKmS1_S1_S1_S1_S1_S1_S1_S1_EERKNSt13tuple_elementIXT_ESt5tupleIJDpT0_EEE4typeERKS6_ = comdat any

$_ZNSt15__tuple_compareISt5tupleIJRKmS2_S2_S2_S2_S2_S2_S2_S2_EES3_Lm5ELm9EE4__eqERKS3_S6_ = comdat any

$_ZSt12__get_helperILm4ERKmJS1_S1_S1_S1_EERKT0_RKSt11_Tuple_implIXT_EJS2_DpT1_EE = comdat any

$_ZNSt11_Tuple_implILm4EJRKmS1_S1_S1_S1_EE7_M_headERKS2_ = comdat any

$_ZNSt10_Head_baseILm4ERKmLb0EE7_M_headERKS2_ = comdat any

$_ZSt3getILm5EJRKmS1_S1_S1_S1_S1_S1_S1_S1_EERKNSt13tuple_elementIXT_ESt5tupleIJDpT0_EEE4typeERKS6_ = comdat any

$_ZNSt15__tuple_compareISt5tupleIJRKmS2_S2_S2_S2_S2_S2_S2_S2_EES3_Lm6ELm9EE4__eqERKS3_S6_ = comdat any

$_ZSt12__get_helperILm5ERKmJS1_S1_S1_EERKT0_RKSt11_Tuple_implIXT_EJS2_DpT1_EE = comdat any

$_ZNSt11_Tuple_implILm5EJRKmS1_S1_S1_EE7_M_headERKS2_ = comdat any

$_ZNSt10_Head_baseILm5ERKmLb0EE7_M_headERKS2_ = comdat any

$_ZSt3getILm6EJRKmS1_S1_S1_S1_S1_S1_S1_S1_EERKNSt13tuple_elementIXT_ESt5tupleIJDpT0_EEE4typeERKS6_ = comdat any

$_ZNSt15__tuple_compareISt5tupleIJRKmS2_S2_S2_S2_S2_S2_S2_S2_EES3_Lm7ELm9EE4__eqERKS3_S6_ = comdat any

$_ZSt12__get_helperILm6ERKmJS1_S1_EERKT0_RKSt11_Tuple_implIXT_EJS2_DpT1_EE = comdat any

$_ZNSt11_Tuple_implILm6EJRKmS1_S1_EE7_M_headERKS2_ = comdat any

$_ZNSt10_Head_baseILm6ERKmLb0EE7_M_headERKS2_ = comdat any

$_ZSt3getILm7EJRKmS1_S1_S1_S1_S1_S1_S1_S1_EERKNSt13tuple_elementIXT_ESt5tupleIJDpT0_EEE4typeERKS6_ = comdat any

$_ZNSt15__tuple_compareISt5tupleIJRKmS2_S2_S2_S2_S2_S2_S2_S2_EES3_Lm8ELm9EE4__eqERKS3_S6_ = comdat any

$_ZSt12__get_helperILm7ERKmJS1_EERKT0_RKSt11_Tuple_implIXT_EJS2_DpT1_EE = comdat any

$_ZNSt11_Tuple_implILm7EJRKmS1_EE7_M_headERKS2_ = comdat any

$_ZNSt10_Head_baseILm7ERKmLb0EE7_M_headERKS2_ = comdat any

$_ZSt3getILm8EJRKmS1_S1_S1_S1_S1_S1_S1_S1_EERKNSt13tuple_elementIXT_ESt5tupleIJDpT0_EEE4typeERKS6_ = comdat any

$_ZNSt15__tuple_compareISt5tupleIJRKmS2_S2_S2_S2_S2_S2_S2_S2_EES3_Lm9ELm9EE4__eqERKS3_S6_ = comdat any

$_ZSt12__get_helperILm8ERKmJEERKT0_RKSt11_Tuple_implIXT_EJS2_DpT1_EE = comdat any

$_ZNSt11_Tuple_implILm8EJRKmEE7_M_headERKS2_ = comdat any

$_ZNSt10_Head_baseILm8ERKmLb0EE7_M_headERKS2_ = comdat any

$_ZNSt5tupleIJRKmS1_S1_S1_S1_S1_S1_S1_S1_EEC2ILb1ETnNSt9enable_ifIXclsr4_TCCIXT_EEE29__is_implicitly_constructibleIS1_S1_S1_S1_S1_S1_S1_S1_S1_EEEbE4typeELb1EEES1_S1_S1_S1_S1_S1_S1_S1_S1_ = comdat any

$_ZNSt11_Tuple_implILm0EJRKmS1_S1_S1_S1_S1_S1_S1_S1_EEC2ES1_S1_S1_S1_S1_S1_S1_S1_S1_ = comdat any

$_ZNSt11_Tuple_implILm1EJRKmS1_S1_S1_S1_S1_S1_S1_EEC2ES1_S1_S1_S1_S1_S1_S1_S1_ = comdat any

$_ZNSt10_Head_baseILm0ERKmLb0EEC2ES1_ = comdat any

$_ZNSt11_Tuple_implILm2EJRKmS1_S1_S1_S1_S1_S1_EEC2ES1_S1_S1_S1_S1_S1_S1_ = comdat any

$_ZNSt10_Head_baseILm1ERKmLb0EEC2ES1_ = comdat any

$_ZNSt11_Tuple_implILm3EJRKmS1_S1_S1_S1_S1_EEC2ES1_S1_S1_S1_S1_S1_ = comdat any

$_ZNSt10_Head_baseILm2ERKmLb0EEC2ES1_ = comdat any

$_ZNSt11_Tuple_implILm4EJRKmS1_S1_S1_S1_EEC2ES1_S1_S1_S1_S1_ = comdat any

$_ZNSt10_Head_baseILm3ERKmLb0EEC2ES1_ = comdat any

$_ZNSt11_Tuple_implILm5EJRKmS1_S1_S1_EEC2ES1_S1_S1_S1_ = comdat any

$_ZNSt10_Head_baseILm4ERKmLb0EEC2ES1_ = comdat any

$_ZNSt11_Tuple_implILm6EJRKmS1_S1_EEC2ES1_S1_S1_ = comdat any

$_ZNSt10_Head_baseILm5ERKmLb0EEC2ES1_ = comdat any

$_ZNSt11_Tuple_implILm7EJRKmS1_EEC2ES1_S1_ = comdat any

$_ZNSt10_Head_baseILm6ERKmLb0EEC2ES1_ = comdat any

$_ZNSt11_Tuple_implILm8EJRKmEEC2ES1_ = comdat any

$_ZNSt10_Head_baseILm7ERKmLb0EEC2ES1_ = comdat any

$_ZNSt10_Head_baseILm8ERKmLb0EEC2ES1_ = comdat any

$_ZNSt8weak_ptrIN8facebook5velox6memory10MemoryPoolEEC2Ev = comdat any

$_ZNSt10__weak_ptrIN8facebook5velox6memory10MemoryPoolELN9__gnu_cxx12_Lock_policyE2EEC2Ev = comdat any

$_ZNSt12__weak_countILN9__gnu_cxx12_Lock_policyE2EEC2Ev = comdat any

$_ZNSt13__atomic_baseIbEC2Eb = comdat any

$_ZNSt10_HashtableINSt7__cxx1112basic_stringIcSt11char_traitsIcESaIcEEESt4pairIKS5_St8weak_ptrIN8facebook5velox6memory10MemoryPoolEEESaISE_ENSt8__detail10_Select1stESt8equal_toIS5_ESt4hashIS5_ENSG_18_Mod_range_hashingENSG_20_Default_ranged_hashENSG_20_Prime_rehash_policyENSG_17_Hashtable_traitsILb1ELb0ELb1EEEEC2Ev = comdat any

$_ZNSt8__detail15_Hashtable_baseINSt7__cxx1112basic_stringIcSt11char_traitsIcESaIcEEESt4pairIKS6_St8weak_ptrIN8facebook5velox6memory10MemoryPoolEEENS_10_Select1stESt8equal_toIS6_ESt4hashIS6_ENS_18_Mod_range_hashingENS_20_Default_ranged_hashENS_17_Hashtable_traitsILb1ELb0ELb1EEEEC2Ev = comdat any

$_ZNSt8__detail16_Hashtable_allocISaINS_10_Hash_nodeISt4pairIKNSt7__cxx1112basic_stringIcSt11char_traitsIcESaIcEEESt8weak_ptrIN8facebook5velox6memory10MemoryPoolEEELb1EEEEEC2Ev = comdat any

$_ZNSt8__detail15_Hash_node_baseC2Ev = comdat any

$_ZNSt8__detail20_Prime_rehash_policyC2Ef = comdat any

$_ZNSt8__detail15_Hash_code_baseINSt7__cxx1112basic_stringIcSt11char_traitsIcESaIcEEESt4pairIKS6_St8weak_ptrIN8facebook5velox6memory10MemoryPoolEEENS_10_Select1stESt4hashIS6_ENS_18_Mod_range_hashingENS_20_Default_ranged_hashELb1EEC2Ev = comdat any

$_ZNSt8__detail21_Hashtable_ebo_helperILi0ESt8equal_toINSt7__cxx1112basic_stringIcSt11char_traitsIcESaIcEEEELb1EEC2Ev = comdat any

$_ZNSt8__detail21_Hashtable_ebo_helperILi1ESt4hashINSt7__cxx1112basic_stringIcSt11char_traitsIcESaIcEEEELb1EEC2Ev = comdat any

$_ZNSt8__detail21_Hashtable_ebo_helperILi0ESaINS_10_Hash_nodeISt4pairIKNSt7__cxx1112basic_stringIcSt11char_traitsIcESaIcEEESt8weak_ptrIN8facebook5velox6memory10MemoryPoolEEELb1EEEELb1EEC2Ev = comdat any

$_ZNSaINSt8__detail10_Hash_nodeISt4pairIKNSt7__cxx1112basic_stringIcSt11char_traitsIcESaIcEEESt8weak_ptrIN8facebook5velox6memory10MemoryPoolEEELb1EEEEC2Ev = comdat any

$_ZNSt15__new_allocatorINSt8__detail10_Hash_nodeISt4pairIKNSt7__cxx1112basic_stringIcSt11char_traitsIcESaIcEEESt8weak_ptrIN8facebook5velox6memory10MemoryPoolEEELb1EEEEC2Ev = comdat any

$_ZNSt10_HashtableINSt7__cxx1112basic_stringIcSt11char_traitsIcESaIcEEESt4pairIKS5_St8weak_ptrIN8facebook5velox6memory10MemoryPoolEEESaISE_ENSt8__detail10_Select1stESt8equal_toIS5_ESt4hashIS5_ENSG_18_Mod_range_hashingENSG_20_Default_ranged_hashENSG_20_Prime_rehash_policyENSG_17_Hashtable_traitsILb1ELb0ELb1EEEED2Ev = comdat any

$_ZNSt10_HashtableINSt7__cxx1112basic_stringIcSt11char_traitsIcESaIcEEESt4pairIKS5_St8weak_ptrIN8facebook5velox6memory10MemoryPoolEEESaISE_ENSt8__detail10_Select1stESt8equal_toIS5_ESt4hashIS5_ENSG_18_Mod_range_hashingENSG_20_Default_ranged_hashENSG_20_Prime_rehash_policyENSG_17_Hashtable_traitsILb1ELb0ELb1EEEE5clearEv = comdat any

$_ZNSt10_HashtableINSt7__cxx1112basic_stringIcSt11char_traitsIcESaIcEEESt4pairIKS5_St8weak_ptrIN8facebook5velox6memory10MemoryPoolEEESaISE_ENSt8__detail10_Select1stESt8equal_toIS5_ESt4hashIS5_ENSG_18_Mod_range_hashingENSG_20_Default_ranged_hashENSG_20_Prime_rehash_policyENSG_17_Hashtable_traitsILb1ELb0ELb1EEEE21_M_deallocate_bucketsEv = comdat any

$_ZNSt8__detail16_Hashtable_allocISaINS_10_Hash_nodeISt4pairIKNSt7__cxx1112basic_stringIcSt11char_traitsIcESaIcEEESt8weak_ptrIN8facebook5velox6memory10MemoryPoolEEELb1EEEEED2Ev = comdat any

$_ZNSt8__detail16_Hashtable_allocISaINS_10_Hash_nodeISt4pairIKNSt7__cxx1112basic_stringIcSt11char_traitsIcESaIcEEESt8weak_ptrIN8facebook5velox6memory10MemoryPoolEEELb1EEEEE19_M_deallocate_nodesEPSH_ = comdat any

$_ZNKSt10_HashtableINSt7__cxx1112basic_stringIcSt11char_traitsIcESaIcEEESt4pairIKS5_St8weak_ptrIN8facebook5velox6memory10MemoryPoolEEESaISE_ENSt8__detail10_Select1stESt8equal_toIS5_ESt4hashIS5_ENSG_18_Mod_range_hashingENSG_20_Default_ranged_hashENSG_20_Prime_rehash_policyENSG_17_Hashtable_traitsILb1ELb0ELb1EEEE8_M_beginEv = comdat any

$_ZNKSt8__detail10_Hash_nodeISt4pairIKNSt7__cxx1112basic_stringIcSt11char_traitsIcESaIcEEESt8weak_ptrIN8facebook5velox6memory10MemoryPoolEEELb1EE7_M_nextEv = comdat any

$_ZNSt8__detail16_Hashtable_allocISaINS_10_Hash_nodeISt4pairIKNSt7__cxx1112basic_stringIcSt11char_traitsIcESaIcEEESt8weak_ptrIN8facebook5velox6memory10MemoryPoolEEELb1EEEEE18_M_deallocate_nodeEPSH_ = comdat any

$_ZNSt16allocator_traitsISaINSt8__detail10_Hash_nodeISt4pairIKNSt7__cxx1112basic_stringIcSt11char_traitsIcESaIcEEESt8weak_ptrIN8facebook5velox6memory10MemoryPoolEEELb1EEEEE7destroyISG_EEvRSI_PT_ = comdat any

$_ZNSt8__detail16_Hashtable_allocISaINS_10_Hash_nodeISt4pairIKNSt7__cxx1112basic_stringIcSt11char_traitsIcESaIcEEESt8weak_ptrIN8facebook5velox6memory10MemoryPoolEEELb1EEEEE17_M_node_allocatorEv = comdat any

$_ZNSt8__detail21_Hash_node_value_baseISt4pairIKNSt7__cxx1112basic_stringIcSt11char_traitsIcESaIcEEESt8weak_ptrIN8facebook5velox6memory10MemoryPoolEEEE9_M_valptrEv = comdat any

$_ZNSt8__detail16_Hashtable_allocISaINS_10_Hash_nodeISt4pairIKNSt7__cxx1112basic_stringIcSt11char_traitsIcESaIcEEESt8weak_ptrIN8facebook5velox6memory10MemoryPoolEEELb1EEEEE22_M_deallocate_node_ptrEPSH_ = comdat any

$_ZNSt15__new_allocatorINSt8__detail10_Hash_nodeISt4pairIKNSt7__cxx1112basic_stringIcSt11char_traitsIcESaIcEEESt8weak_ptrIN8facebook5velox6memory10MemoryPoolEEELb1EEEE7destroyISG_EEvPT_ = comdat any

$_ZNSt4pairIKNSt7__cxx1112basic_stringIcSt11char_traitsIcESaIcEEESt8weak_ptrIN8facebook5velox6memory10MemoryPoolEEED2Ev = comdat any

$_ZNSt8weak_ptrIN8facebook5velox6memory10MemoryPoolEED2Ev = comdat any

$_ZNSt10__weak_ptrIN8facebook5velox6memory10MemoryPoolELN9__gnu_cxx12_Lock_policyE2EED2Ev = comdat any

$_ZNSt12__weak_countILN9__gnu_cxx12_Lock_policyE2EED2Ev = comdat any

$_ZNSt16_Sp_counted_baseILN9__gnu_cxx12_Lock_policyE2EE15_M_weak_releaseEv = comdat any

$_ZNSt8__detail21_Hashtable_ebo_helperILi0ESaINS_10_Hash_nodeISt4pairIKNSt7__cxx1112basic_stringIcSt11char_traitsIcESaIcEEESt8weak_ptrIN8facebook5velox6memory10MemoryPoolEEELb1EEEELb1EE6_M_getEv = comdat any

$_ZN9__gnu_cxx16__aligned_bufferISt4pairIKNSt7__cxx1112basic_stringIcSt11char_traitsIcESaIcEEESt8weak_ptrIN8facebook5velox6memory10MemoryPoolEEEE6_M_ptrEv = comdat any

$_ZN9__gnu_cxx16__aligned_bufferISt4pairIKNSt7__cxx1112basic_stringIcSt11char_traitsIcESaIcEEESt8weak_ptrIN8facebook5velox6memory10MemoryPoolEEEE7_M_addrEv = comdat any

$_ZNSt19__ptr_traits_ptr_toIPNSt8__detail10_Hash_nodeISt4pairIKNSt7__cxx1112basic_stringIcSt11char_traitsIcESaIcEEESt8weak_ptrIN8facebook5velox6memory10MemoryPoolEEELb1EEESH_Lb0EE10pointer_toERSH_ = comdat any

$_ZNSt16allocator_traitsISaINSt8__detail10_Hash_nodeISt4pairIKNSt7__cxx1112basic_stringIcSt11char_traitsIcESaIcEEESt8weak_ptrIN8facebook5velox6memory10MemoryPoolEEELb1EEEEE10deallocateERSI_PSH_m = comdat any

$_ZNSt15__new_allocatorINSt8__detail10_Hash_nodeISt4pairIKNSt7__cxx1112basic_stringIcSt11char_traitsIcESaIcEEESt8weak_ptrIN8facebook5velox6memory10MemoryPoolEEELb1EEEE10deallocateEPSH_m = comdat any

$_ZNSt10_HashtableINSt7__cxx1112basic_stringIcSt11char_traitsIcESaIcEEESt4pairIKS5_St8weak_ptrIN8facebook5velox6memory10MemoryPoolEEESaISE_ENSt8__detail10_Select1stESt8equal_toIS5_ESt4hashIS5_ENSG_18_Mod_range_hashingENSG_20_Default_ranged_hashENSG_20_Prime_rehash_policyENSG_17_Hashtable_traitsILb1ELb0ELb1EEEE21_M_deallocate_bucketsEPPNSG_15_Hash_node_baseEm = comdat any

$_ZNKSt10_HashtableINSt7__cxx1112basic_stringIcSt11char_traitsIcESaIcEEESt4pairIKS5_St8weak_ptrIN8facebook5velox6memory10MemoryPoolEEESaISE_ENSt8__detail10_Select1stESt8equal_toIS5_ESt4hashIS5_ENSG_18_Mod_range_hashingENSG_20_Default_ranged_hashENSG_20_Prime_rehash_policyENSG_17_Hashtable_traitsILb1ELb0ELb1EEEE21_M_uses_single_bucketEPPNSG_15_Hash_node_baseE = comdat any

$_ZNSt8__detail16_Hashtable_allocISaINS_10_Hash_nodeISt4pairIKNSt7__cxx1112basic_stringIcSt11char_traitsIcESaIcEEESt8weak_ptrIN8facebook5velox6memory10MemoryPoolEEELb1EEEEE21_M_deallocate_bucketsEPPNS_15_Hash_node_baseEm = comdat any

$_ZNSt19__ptr_traits_ptr_toIPPNSt8__detail15_Hash_node_baseES2_Lb0EE10pointer_toERS2_ = comdat any

$_ZNSaIPNSt8__detail15_Hash_node_baseEEC2INS_10_Hash_nodeISt4pairIKNSt7__cxx1112basic_stringIcSt11char_traitsIcESaIcEEESt8weak_ptrIN8facebook5velox6memory10MemoryPoolEEELb1EEEEERKSaIT_E = comdat any

$_ZNSt16allocator_traitsISaIPNSt8__detail15_Hash_node_baseEEE10deallocateERS3_PS2_m = comdat any

$_ZNSaIPNSt8__detail15_Hash_node_baseEED2Ev = comdat any

$_ZNSt15__new_allocatorIPNSt8__detail15_Hash_node_baseEEC2Ev = comdat any

$_ZNSt15__new_allocatorIPNSt8__detail15_Hash_node_baseEE10deallocateEPS2_m = comdat any

$_ZNSt15__new_allocatorIPNSt8__detail15_Hash_node_baseEED2Ev = comdat any

$_ZNSt8__detail21_Hashtable_ebo_helperILi0ESaINS_10_Hash_nodeISt4pairIKNSt7__cxx1112basic_stringIcSt11char_traitsIcESaIcEEESt8weak_ptrIN8facebook5velox6memory10MemoryPoolEEELb1EEEELb1EED2Ev = comdat any

$_ZNSaINSt8__detail10_Hash_nodeISt4pairIKNSt7__cxx1112basic_stringIcSt11char_traitsIcESaIcEEESt8weak_ptrIN8facebook5velox6memory10MemoryPoolEEELb1EEEED2Ev = comdat any

$_ZNSt15__new_allocatorINSt8__detail10_Hash_nodeISt4pairIKNSt7__cxx1112basic_stringIcSt11char_traitsIcESaIcEEESt8weak_ptrIN8facebook5velox6memory10MemoryPoolEEELb1EEEED2Ev = comdat any

$_ZNSt12__shared_ptrIN8facebook5velox6memory10MemoryPoolELN9__gnu_cxx12_Lock_policyE2EED2Ev = comdat any

$_ZNSt14__shared_countILN9__gnu_cxx12_Lock_policyE2EED2Ev = comdat any

$_ZNSt16_Sp_counted_baseILN9__gnu_cxx12_Lock_policyE2EE10_M_releaseEv = comdat any

$_ZNSt16_Sp_counted_baseILN9__gnu_cxx12_Lock_policyE2EE24_M_release_last_use_coldEv = comdat any

$_ZNSt16_Sp_counted_baseILN9__gnu_cxx12_Lock_policyE2EE19_M_release_last_useEv = comdat any

$_ZNSt12_Vector_baseISt10shared_ptrIN8facebook5velox6memory10MemoryPoolEESaIS5_EEC2Ev = comdat any

$_ZNSt12_Vector_baseISt10shared_ptrIN8facebook5velox6memory10MemoryPoolEESaIS5_EE12_Vector_implC2Ev = comdat any

$_ZNSaISt10shared_ptrIN8facebook5velox6memory10MemoryPoolEEEC2Ev = comdat any

$_ZNSt12_Vector_baseISt10shared_ptrIN8facebook5velox6memory10MemoryPoolEESaIS5_EE17_Vector_impl_dataC2Ev = comdat any

$_ZNSt15__new_allocatorISt10shared_ptrIN8facebook5velox6memory10MemoryPoolEEEC2Ev = comdat any

$_ZNSt15__uniq_ptr_dataIN8facebook5velox6memory15MemoryReclaimerESt14default_deleteIS3_ELb1ELb1EEC2EOS6_ = comdat any

$_ZNSt15__uniq_ptr_implIN8facebook5velox6memory15MemoryReclaimerESt14default_deleteIS3_EEC2EOS6_ = comdat any

$_ZNSt5tupleIJPN8facebook5velox6memory15MemoryReclaimerESt14default_deleteIS3_EEEC2EOS7_ = comdat any

$_ZNSt15__uniq_ptr_implIN8facebook5velox6memory15MemoryReclaimerESt14default_deleteIS3_EE6_M_ptrEv = comdat any

$_ZNSt11_Tuple_implILm0EJPN8facebook5velox6memory15MemoryReclaimerESt14default_deleteIS3_EEEC2EOS7_ = comdat any

$_ZNSt11_Tuple_implILm1EJSt14default_deleteIN8facebook5velox6memory15MemoryReclaimerEEEEC2EOS6_ = comdat any

$_ZSt3getILm0EJPN8facebook5velox6memory15MemoryReclaimerESt14default_deleteIS3_EEERNSt13tuple_elementIXT_ESt5tupleIJDpT0_EEE4typeERSB_ = comdat any

$_ZSt12__get_helperILm0EPN8facebook5velox6memory15MemoryReclaimerEJSt14default_deleteIS3_EEERT0_RSt11_Tuple_implIXT_EJS7_DpT1_EE = comdat any

$_ZNSt11_Tuple_implILm0EJPN8facebook5velox6memory15MemoryReclaimerESt14default_deleteIS3_EEE7_M_headERS7_ = comdat any

$_ZNSt10_Head_baseILm0EPN8facebook5velox6memory15MemoryReclaimerELb0EE7_M_headERS5_ = comdat any

$_ZNSt12__shared_ptrIN8facebook5velox6memory10MemoryPoolELN9__gnu_cxx12_Lock_policyE2EEC2ERKS6_ = comdat any

$_ZNSt14__shared_countILN9__gnu_cxx12_Lock_policyE2EEC2ERKS2_ = comdat any

$_ZNSt16_Sp_counted_baseILN9__gnu_cxx12_Lock_policyE2EE15_M_add_ref_copyEv = comdat any

$_ZN5folly12SynchronizedINSt7__cxx1112basic_stringIcSt11char_traitsIcESaIcEEENS_15SharedMutexImplILb0EvSt6atomicNS_24SharedMutexPolicyDefaultEEEEC2Ev = comdat any

$_ZN5folly12SynchronizedINSt7__cxx1112basic_stringIcSt11char_traitsIcESaIcEEENS_15SharedMutexImplILb0EvSt6atomicNS_24SharedMutexPolicyDefaultEEEED2Ev = comdat any

$_ZNSt11shared_lockIN5folly15SharedMutexImplILb0EvSt6atomicNS0_24SharedMutexPolicyDefaultEEEED2Ev = comdat any

$_ZNSt12__mutex_baseC2Ev = comdat any

$_ZNSt13__atomic_baseImEC2Em = comdat any

$_ZNSt10_HashtableImSt4pairIKmN8facebook5velox6memory14MemoryPoolImpl16AllocationRecordEESaIS7_ENSt8__detail10_Select1stESt8equal_toImESt4hashImENS9_18_Mod_range_hashingENS9_20_Default_ranged_hashENS9_20_Prime_rehash_policyENS9_17_Hashtable_traitsILb0ELb0ELb1EEEEC2Ev = comdat any

$_ZNSt8__detail15_Hashtable_baseImSt4pairIKmN8facebook5velox6memory14MemoryPoolImpl16AllocationRecordEENS_10_Select1stESt8equal_toImESt4hashImENS_18_Mod_range_hashingENS_20_Default_ranged_hashENS_17_Hashtable_traitsILb0ELb0ELb1EEEEC2Ev = comdat any

$_ZNSt8__detail16_Hashtable_allocISaINS_10_Hash_nodeISt4pairIKmN8facebook5velox6memory14MemoryPoolImpl16AllocationRecordEELb0EEEEEC2Ev = comdat any

$_ZNSt8__detail15_Hash_code_baseImSt4pairIKmN8facebook5velox6memory14MemoryPoolImpl16AllocationRecordEENS_10_Select1stESt4hashImENS_18_Mod_range_hashingENS_20_Default_ranged_hashELb0EEC2Ev = comdat any

$_ZNSt8__detail21_Hashtable_ebo_helperILi0ESt8equal_toImELb1EEC2Ev = comdat any

$_ZNSt8__detail21_Hashtable_ebo_helperILi1ESt4hashImELb1EEC2Ev = comdat any

$_ZNSt8__detail21_Hashtable_ebo_helperILi0ESaINS_10_Hash_nodeISt4pairIKmN8facebook5velox6memory14MemoryPoolImpl16AllocationRecordEELb0EEEELb1EEC2Ev = comdat any

$_ZNSaINSt8__detail10_Hash_nodeISt4pairIKmN8facebook5velox6memory14MemoryPoolImpl16AllocationRecordEELb0EEEEC2Ev = comdat any

$_ZNSt15__new_allocatorINSt8__detail10_Hash_nodeISt4pairIKmN8facebook5velox6memory14MemoryPoolImpl16AllocationRecordEELb0EEEEC2Ev = comdat any

$_ZNSt10_HashtableImSt4pairIKmN8facebook5velox6memory14MemoryPoolImpl16AllocationRecordEESaIS7_ENSt8__detail10_Select1stESt8equal_toImESt4hashImENS9_18_Mod_range_hashingENS9_20_Default_ranged_hashENS9_20_Prime_rehash_policyENS9_17_Hashtable_traitsILb0ELb0ELb1EEEED2Ev = comdat any

$_ZNSt10_HashtableImSt4pairIKmN8facebook5velox6memory14MemoryPoolImpl16AllocationRecordEESaIS7_ENSt8__detail10_Select1stESt8equal_toImESt4hashImENS9_18_Mod_range_hashingENS9_20_Default_ranged_hashENS9_20_Prime_rehash_policyENS9_17_Hashtable_traitsILb0ELb0ELb1EEEE5clearEv = comdat any

$_ZNSt10_HashtableImSt4pairIKmN8facebook5velox6memory14MemoryPoolImpl16AllocationRecordEESaIS7_ENSt8__detail10_Select1stESt8equal_toImESt4hashImENS9_18_Mod_range_hashingENS9_20_Default_ranged_hashENS9_20_Prime_rehash_policyENS9_17_Hashtable_traitsILb0ELb0ELb1EEEE21_M_deallocate_bucketsEv = comdat any

$_ZNSt8__detail16_Hashtable_allocISaINS_10_Hash_nodeISt4pairIKmN8facebook5velox6memory14MemoryPoolImpl16AllocationRecordEELb0EEEEED2Ev = comdat any

$_ZNSt8__detail16_Hashtable_allocISaINS_10_Hash_nodeISt4pairIKmN8facebook5velox6memory14MemoryPoolImpl16AllocationRecordEELb0EEEEE19_M_deallocate_nodesEPSA_ = comdat any

$_ZNKSt10_HashtableImSt4pairIKmN8facebook5velox6memory14MemoryPoolImpl16AllocationRecordEESaIS7_ENSt8__detail10_Select1stESt8equal_toImESt4hashImENS9_18_Mod_range_hashingENS9_20_Default_ranged_hashENS9_20_Prime_rehash_policyENS9_17_Hashtable_traitsILb0ELb0ELb1EEEE8_M_beginEv = comdat any

$_ZNKSt8__detail10_Hash_nodeISt4pairIKmN8facebook5velox6memory14MemoryPoolImpl16AllocationRecordEELb0EE7_M_nextEv = comdat any

$_ZNSt8__detail16_Hashtable_allocISaINS_10_Hash_nodeISt4pairIKmN8facebook5velox6memory14MemoryPoolImpl16AllocationRecordEELb0EEEEE18_M_deallocate_nodeEPSA_ = comdat any

$_ZNSt16allocator_traitsISaINSt8__detail10_Hash_nodeISt4pairIKmN8facebook5velox6memory14MemoryPoolImpl16AllocationRecordEELb0EEEEE7destroyIS9_EEvRSB_PT_ = comdat any

$_ZNSt8__detail16_Hashtable_allocISaINS_10_Hash_nodeISt4pairIKmN8facebook5velox6memory14MemoryPoolImpl16AllocationRecordEELb0EEEEE17_M_node_allocatorEv = comdat any

$_ZNSt8__detail21_Hash_node_value_baseISt4pairIKmN8facebook5velox6memory14MemoryPoolImpl16AllocationRecordEEE9_M_valptrEv = comdat any

$_ZNSt8__detail16_Hashtable_allocISaINS_10_Hash_nodeISt4pairIKmN8facebook5velox6memory14MemoryPoolImpl16AllocationRecordEELb0EEEEE22_M_deallocate_node_ptrEPSA_ = comdat any

$_ZNSt15__new_allocatorINSt8__detail10_Hash_nodeISt4pairIKmN8facebook5velox6memory14MemoryPoolImpl16AllocationRecordEELb0EEEE7destroyIS9_EEvPT_ = comdat any

$_ZNSt4pairIKmN8facebook5velox6memory14MemoryPoolImpl16AllocationRecordEED2Ev = comdat any

$_ZNSt8__detail21_Hashtable_ebo_helperILi0ESaINS_10_Hash_nodeISt4pairIKmN8facebook5velox6memory14MemoryPoolImpl16AllocationRecordEELb0EEEELb1EE6_M_getEv = comdat any

$_ZN9__gnu_cxx16__aligned_bufferISt4pairIKmN8facebook5velox6memory14MemoryPoolImpl16AllocationRecordEEE6_M_ptrEv = comdat any

$_ZN9__gnu_cxx16__aligned_bufferISt4pairIKmN8facebook5velox6memory14MemoryPoolImpl16AllocationRecordEEE7_M_addrEv = comdat any

$_ZNSt19__ptr_traits_ptr_toIPNSt8__detail10_Hash_nodeISt4pairIKmN8facebook5velox6memory14MemoryPoolImpl16AllocationRecordEELb0EEESA_Lb0EE10pointer_toERSA_ = comdat any

$_ZNSt16allocator_traitsISaINSt8__detail10_Hash_nodeISt4pairIKmN8facebook5velox6memory14MemoryPoolImpl16AllocationRecordEELb0EEEEE10deallocateERSB_PSA_m = comdat any

$_ZNSt15__new_allocatorINSt8__detail10_Hash_nodeISt4pairIKmN8facebook5velox6memory14MemoryPoolImpl16AllocationRecordEELb0EEEE10deallocateEPSA_m = comdat any

$_ZNSt10_HashtableImSt4pairIKmN8facebook5velox6memory14MemoryPoolImpl16AllocationRecordEESaIS7_ENSt8__detail10_Select1stESt8equal_toImESt4hashImENS9_18_Mod_range_hashingENS9_20_Default_ranged_hashENS9_20_Prime_rehash_policyENS9_17_Hashtable_traitsILb0ELb0ELb1EEEE21_M_deallocate_bucketsEPPNS9_15_Hash_node_baseEm = comdat any

$_ZNKSt10_HashtableImSt4pairIKmN8facebook5velox6memory14MemoryPoolImpl16AllocationRecordEESaIS7_ENSt8__detail10_Select1stESt8equal_toImESt4hashImENS9_18_Mod_range_hashingENS9_20_Default_ranged_hashENS9_20_Prime_rehash_policyENS9_17_Hashtable_traitsILb0ELb0ELb1EEEE21_M_uses_single_bucketEPPNS9_15_Hash_node_baseE = comdat any

$_ZNSt8__detail16_Hashtable_allocISaINS_10_Hash_nodeISt4pairIKmN8facebook5velox6memory14MemoryPoolImpl16AllocationRecordEELb0EEEEE21_M_deallocate_bucketsEPPNS_15_Hash_node_baseEm = comdat any

$_ZNSaIPNSt8__detail15_Hash_node_baseEEC2INS_10_Hash_nodeISt4pairIKmN8facebook5velox6memory14MemoryPoolImpl16AllocationRecordEELb0EEEEERKSaIT_E = comdat any

$_ZNSt8__detail21_Hashtable_ebo_helperILi0ESaINS_10_Hash_nodeISt4pairIKmN8facebook5velox6memory14MemoryPoolImpl16AllocationRecordEELb0EEEELb1EED2Ev = comdat any

$_ZNSaINSt8__detail10_Hash_nodeISt4pairIKmN8facebook5velox6memory14MemoryPoolImpl16AllocationRecordEELb0EEEED2Ev = comdat any

$_ZNSt15__new_allocatorINSt8__detail10_Hash_nodeISt4pairIKmN8facebook5velox6memory14MemoryPoolImpl16AllocationRecordEELb0EEEED2Ev = comdat any

$_ZNSt14_Function_baseD2Ev = comdat any

$_ZNKSt6vectorIN8facebook5velox6memory10Allocation7PageRunESaIS4_EE5emptyEv = comdat any

$_ZN9__gnu_cxxeqIPKN8facebook5velox6memory10Allocation7PageRunESt6vectorIS5_SaIS5_EEEEbRKNS_17__normal_iteratorIT_T0_EESG_ = comdat any

$_ZNKSt6vectorIN8facebook5velox6memory10Allocation7PageRunESaIS4_EE5beginEv = comdat any

$_ZNKSt6vectorIN8facebook5velox6memory10Allocation7PageRunESaIS4_EE3endEv = comdat any

$_ZNK9__gnu_cxx17__normal_iteratorIPKN8facebook5velox6memory10Allocation7PageRunESt6vectorIS5_SaIS5_EEE4baseEv = comdat any

$_ZN9__gnu_cxx17__normal_iteratorIPKN8facebook5velox6memory10Allocation7PageRunESt6vectorIS5_SaIS5_EEEC2ERKS7_ = comdat any

$_ZNSt12__shared_ptrIN8facebook5velox6memory14MemoryPoolImplELN9__gnu_cxx12_Lock_policyE2EED2Ev = comdat any

$_ZN8facebook5velox4bits7roundUpImmEET_S3_T0_ = comdat any

$_ZN3fmt2v816make_format_argsINS0_20basic_format_contextINS0_8appenderEcEEJRKNSt7__cxx1112basic_stringIcSt11char_traitsIcESaIcEEERSA_SD_SD_EEENS0_16format_arg_storeIT_JDpNSt9remove_cvINSt16remove_referenceIT0_E4typeEE4typeEEEEDpOSI_ = comdat any

$_ZN3fmt2v814to_string_viewIcSt11char_traitsIcESaIcEEENS0_17basic_string_viewIT_EERKNSt7__cxx1112basic_stringIS6_T0_T1_EE = comdat any

$_ZN3fmt2v817basic_string_viewIcEC2ISt11char_traitsIcESaIcEEERKNSt7__cxx1112basic_stringIcT_T0_EE = comdat any

$_ZNK3fmt2v817basic_string_viewIcE4dataEv = comdat any

$_ZNK3fmt2v817basic_string_viewIcE4sizeEv = comdat any

$_ZNSt11char_traitsIcE6lengthEPKc = comdat any

$_ZStgtIJRKmS1_S1_RKNSt7__cxx1112basic_stringIcSt11char_traitsIcESaIcEEEEJS1_S1_S1_S9_EEbRKSt5tupleIJDpT_EERKSA_IJDpT0_EE = comdat any

$_ZSt3tieIJKmS0_S0_KNSt7__cxx1112basic_stringIcSt11char_traitsIcESaIcEEEEESt5tupleIJDpRT_EESB_ = comdat any

$_ZStltIJRKmS1_S1_RKNSt7__cxx1112basic_stringIcSt11char_traitsIcESaIcEEEEJS1_S1_S1_S9_EEbRKSt5tupleIJDpT_EERKSA_IJDpT0_EE = comdat any

$_ZNSt15__tuple_compareISt5tupleIJRKmS2_S2_RKNSt7__cxx1112basic_stringIcSt11char_traitsIcESaIcEEEEESB_Lm0ELm4EE6__lessERKSB_SE_ = comdat any

$_ZSt3getILm0EJRKmS1_S1_RKNSt7__cxx1112basic_stringIcSt11char_traitsIcESaIcEEEEERKNSt13tuple_elementIXT_ESt5tupleIJDpT0_EEE4typeERKSE_ = comdat any

$_ZNSt15__tuple_compareISt5tupleIJRKmS2_S2_RKNSt7__cxx1112basic_stringIcSt11char_traitsIcESaIcEEEEESB_Lm1ELm4EE6__lessERKSB_SE_ = comdat any

$_ZSt12__get_helperILm0ERKmJS1_S1_RKNSt7__cxx1112basic_stringIcSt11char_traitsIcESaIcEEEEERKT0_RKSt11_Tuple_implIXT_EJSA_DpT1_EE = comdat any

$_ZNSt11_Tuple_implILm0EJRKmS1_S1_RKNSt7__cxx1112basic_stringIcSt11char_traitsIcESaIcEEEEE7_M_headERKSA_ = comdat any

$_ZSt3getILm1EJRKmS1_S1_RKNSt7__cxx1112basic_stringIcSt11char_traitsIcESaIcEEEEERKNSt13tuple_elementIXT_ESt5tupleIJDpT0_EEE4typeERKSE_ = comdat any

$_ZNSt15__tuple_compareISt5tupleIJRKmS2_S2_RKNSt7__cxx1112basic_stringIcSt11char_traitsIcESaIcEEEEESB_Lm2ELm4EE6__lessERKSB_SE_ = comdat any

$_ZSt12__get_helperILm1ERKmJS1_RKNSt7__cxx1112basic_stringIcSt11char_traitsIcESaIcEEEEERKT0_RKSt11_Tuple_implIXT_EJSA_DpT1_EE = comdat any

$_ZNSt11_Tuple_implILm1EJRKmS1_RKNSt7__cxx1112basic_stringIcSt11char_traitsIcESaIcEEEEE7_M_headERKSA_ = comdat any

$_ZSt3getILm2EJRKmS1_S1_RKNSt7__cxx1112basic_stringIcSt11char_traitsIcESaIcEEEEERKNSt13tuple_elementIXT_ESt5tupleIJDpT0_EEE4typeERKSE_ = comdat any

$_ZNSt15__tuple_compareISt5tupleIJRKmS2_S2_RKNSt7__cxx1112basic_stringIcSt11char_traitsIcESaIcEEEEESB_Lm3ELm4EE6__lessERKSB_SE_ = comdat any

$_ZSt12__get_helperILm2ERKmJRKNSt7__cxx1112basic_stringIcSt11char_traitsIcESaIcEEEEERKT0_RKSt11_Tuple_implIXT_EJSA_DpT1_EE = comdat any

$_ZNSt11_Tuple_implILm2EJRKmRKNSt7__cxx1112basic_stringIcSt11char_traitsIcESaIcEEEEE7_M_headERKSA_ = comdat any

$_ZStltIcSt11char_traitsIcESaIcEEbRKNSt7__cxx1112basic_stringIT_T0_T1_EESA_ = comdat any

$_ZSt3getILm3EJRKmS1_S1_RKNSt7__cxx1112basic_stringIcSt11char_traitsIcESaIcEEEEERKNSt13tuple_elementIXT_ESt5tupleIJDpT0_EEE4typeERKSE_ = comdat any

$_ZNSt15__tuple_compareISt5tupleIJRKmS2_S2_RKNSt7__cxx1112basic_stringIcSt11char_traitsIcESaIcEEEEESB_Lm4ELm4EE6__lessERKSB_SE_ = comdat any

$_ZSt12__get_helperILm3ERKNSt7__cxx1112basic_stringIcSt11char_traitsIcESaIcEEEJEERKT0_RKSt11_Tuple_implIXT_EJS8_DpT1_EE = comdat any

$_ZNSt11_Tuple_implILm3EJRKNSt7__cxx1112basic_stringIcSt11char_traitsIcESaIcEEEEE7_M_headERKS8_ = comdat any

$_ZNSt10_Head_baseILm3ERKNSt7__cxx1112basic_stringIcSt11char_traitsIcESaIcEEELb0EE7_M_headERKS8_ = comdat any

$_ZNSt5tupleIJRKmS1_S1_RKNSt7__cxx1112basic_stringIcSt11char_traitsIcESaIcEEEEEC2ILb1ETnNSt9enable_ifIXclsr4_TCCIXT_EEE29__is_implicitly_constructibleIS1_S1_S1_S9_EEEbE4typeELb1EEES1_S1_S1_S9_ = comdat any

$_ZNSt11_Tuple_implILm0EJRKmS1_S1_RKNSt7__cxx1112basic_stringIcSt11char_traitsIcESaIcEEEEEC2ES1_S1_S1_S9_ = comdat any

$_ZNSt11_Tuple_implILm1EJRKmS1_RKNSt7__cxx1112basic_stringIcSt11char_traitsIcESaIcEEEEEC2ES1_S1_S9_ = comdat any

$_ZNSt11_Tuple_implILm2EJRKmRKNSt7__cxx1112basic_stringIcSt11char_traitsIcESaIcEEEEEC2ES1_S9_ = comdat any

$_ZNSt11_Tuple_implILm3EJRKNSt7__cxx1112basic_stringIcSt11char_traitsIcESaIcEEEEEC2ES7_ = comdat any

$_ZNSt10_Head_baseILm3ERKNSt7__cxx1112basic_stringIcSt11char_traitsIcESaIcEEELb0EEC2ES7_ = comdat any

$_ZNSt15__uniq_ptr_dataIN8facebook5velox6memory15MemoryReclaimerESt14default_deleteIS3_ELb1ELb1EEaSEOS6_ = comdat any

$_ZNSt15__uniq_ptr_implIN8facebook5velox6memory15MemoryReclaimerESt14default_deleteIS3_EEaSEOS6_ = comdat any

$_ZNSt15__uniq_ptr_implIN8facebook5velox6memory15MemoryReclaimerESt14default_deleteIS3_EE5resetEPS3_ = comdat any

$_ZNSt15__uniq_ptr_implIN8facebook5velox6memory15MemoryReclaimerESt14default_deleteIS3_EE7releaseEv = comdat any

$_ZNSt15__uniq_ptr_implIN8facebook5velox6memory15MemoryReclaimerESt14default_deleteIS3_EE10_M_deleterEv = comdat any

$_ZNKSt14default_deleteIN8facebook5velox6memory15MemoryReclaimerEEclEPS3_ = comdat any

$_ZSt3getILm1EJPN8facebook5velox6memory15MemoryReclaimerESt14default_deleteIS3_EEERNSt13tuple_elementIXT_ESt5tupleIJDpT0_EEE4typeERSB_ = comdat any

$_ZSt12__get_helperILm1ESt14default_deleteIN8facebook5velox6memory15MemoryReclaimerEEJEERT0_RSt11_Tuple_implIXT_EJS6_DpT1_EE = comdat any

$_ZNSt11_Tuple_implILm1EJSt14default_deleteIN8facebook5velox6memory15MemoryReclaimerEEEE7_M_headERS6_ = comdat any

$_ZNSt10_Head_baseILm1ESt14default_deleteIN8facebook5velox6memory15MemoryReclaimerEELb1EE7_M_headERS6_ = comdat any

$_ZStanSt12memory_orderSt23__memory_order_modifier = comdat any

$_ZNSt15__exception_ptr13exception_ptr4swapERS0_ = comdat any

$_ZNSt13__atomic_baseIbEaSEb = comdat any

$_ZN5folly15basic_once_flagINS_15SharedMutexImplILb0EvSt6atomicNS_24SharedMutexPolicyDefaultEEES2_ED2Ev = comdat any

$_ZNSt6vectorINSt7__cxx1112basic_stringIcSt11char_traitsIcESaIcEEESaIS5_EED2Ev = comdat any

$_ZNSt6vectorIPvSaIS0_EED2Ev = comdat any

$_ZSt8_DestroyIPNSt7__cxx1112basic_stringIcSt11char_traitsIcESaIcEEES5_EvT_S7_RSaIT0_E = comdat any

$_ZNSt12_Vector_baseINSt7__cxx1112basic_stringIcSt11char_traitsIcESaIcEEESaIS5_EE19_M_get_Tp_allocatorEv = comdat any

$_ZNSt12_Vector_baseINSt7__cxx1112basic_stringIcSt11char_traitsIcESaIcEEESaIS5_EED2Ev = comdat any

$_ZSt8_DestroyIPNSt7__cxx1112basic_stringIcSt11char_traitsIcESaIcEEEEvT_S7_ = comdat any

$_ZNSt12_Destroy_auxILb0EE9__destroyIPNSt7__cxx1112basic_stringIcSt11char_traitsIcESaIcEEEEEvT_S9_ = comdat any

$_ZSt8_DestroyINSt7__cxx1112basic_stringIcSt11char_traitsIcESaIcEEEEvPT_ = comdat any

$_ZNSt12_Vector_baseINSt7__cxx1112basic_stringIcSt11char_traitsIcESaIcEEESaIS5_EE13_M_deallocateEPS5_m = comdat any

$_ZNSt12_Vector_baseINSt7__cxx1112basic_stringIcSt11char_traitsIcESaIcEEESaIS5_EE12_Vector_implD2Ev = comdat any

$_ZNSt16allocator_traitsISaINSt7__cxx1112basic_stringIcSt11char_traitsIcESaIcEEEEE10deallocateERS6_PS5_m = comdat any

$_ZNSt15__new_allocatorINSt7__cxx1112basic_stringIcSt11char_traitsIcESaIcEEEE10deallocateEPS5_m = comdat any

$_ZNSaINSt7__cxx1112basic_stringIcSt11char_traitsIcESaIcEEEED2Ev = comdat any

$_ZNSt15__new_allocatorINSt7__cxx1112basic_stringIcSt11char_traitsIcESaIcEEEED2Ev = comdat any

$_ZSt8_DestroyIPPvS0_EvT_S2_RSaIT0_E = comdat any

$_ZNSt12_Vector_baseIPvSaIS0_EE19_M_get_Tp_allocatorEv = comdat any

$_ZNSt12_Vector_baseIPvSaIS0_EED2Ev = comdat any

$_ZSt8_DestroyIPPvEvT_S2_ = comdat any

$_ZNSt12_Destroy_auxILb1EE9__destroyIPPvEEvT_S4_ = comdat any

$_ZNSt12_Vector_baseIPvSaIS0_EE13_M_deallocateEPS0_m = comdat any

$_ZNSt12_Vector_baseIPvSaIS0_EE12_Vector_implD2Ev = comdat any

$_ZNSt16allocator_traitsISaIPvEE10deallocateERS1_PS0_m = comdat any

$_ZNSt15__new_allocatorIPvE10deallocateEPS0_m = comdat any

$_ZNSaIPvED2Ev = comdat any

$_ZNSt15__new_allocatorIPvED2Ev = comdat any

$_ZNKSt6vectorIN8facebook5velox6memory10Allocation7PageRunESaIS4_EEixEm = comdat any

$_ZNSt7__cxx1112basic_stringIcSt11char_traitsIcESaIcEE12_Alloc_hiderD2Ev = comdat any

$_ZNSt7__cxx1112basic_stringIcSt11char_traitsIcESaIcEE12_M_constructIPKcEEvT_S8_St20forward_iterator_tag = comdat any

$_ZSt8distanceIPKcENSt15iterator_traitsIT_E15difference_typeES3_S3_ = comdat any

$_ZZNSt7__cxx1112basic_stringIcSt11char_traitsIcESaIcEE12_M_constructIPKcEEvT_S8_St20forward_iterator_tagEN6_GuardC2EPS4_ = comdat any

$_ZZNSt7__cxx1112basic_stringIcSt11char_traitsIcESaIcEE12_M_constructIPKcEEvT_S8_St20forward_iterator_tagEN6_GuardD2Ev = comdat any

$_ZSt10__distanceIPKcENSt15iterator_traitsIT_E15difference_typeES3_S3_St26random_access_iterator_tag = comdat any

$_ZSt19__iterator_categoryIPKcENSt15iterator_traitsIT_E17iterator_categoryERKS3_ = comdat any

$_ZNSt5mutex4lockEv = comdat any

$_ZNSt5mutex6unlockEv = comdat any

$_ZNKSt12__shared_ptrIN8facebook5velox6memory10MemoryPoolELN9__gnu_cxx12_Lock_policyE2EEcvbEv = comdat any

$_ZNKSt19__shared_ptr_accessIN8facebook5velox6memory10MemoryPoolELN9__gnu_cxx12_Lock_policyE2ELb0ELb0EE6_M_getEv = comdat any

$_ZN3fmt2v816make_format_argsINS0_20basic_format_contextINS0_8appenderEcEEJRNSt7__cxx1112basic_stringIcSt11char_traitsIcESaIcEEESB_SB_SB_RKmSD_SD_SD_SD_SD_SD_EEENS0_16format_arg_storeIT_JDpNSt9remove_cvINSt16remove_referenceIT0_E4typeEE4typeEEEEDpOSI_ = comdat any

$_ZNSt12__shared_ptrIN8facebook5velox6memory10MemoryPoolELN9__gnu_cxx12_Lock_policyE2EEC2EOS6_ = comdat any

$_ZNSt14__shared_countILN9__gnu_cxx12_Lock_policyE2EEC2Ev = comdat any

$_ZNSt14__shared_countILN9__gnu_cxx12_Lock_policyE2EE7_M_swapERS2_ = comdat any

$_ZNKSt10_HashtableINSt7__cxx1112basic_stringIcSt11char_traitsIcESaIcEEESt4pairIKS5_St8weak_ptrIN8facebook5velox6memory10MemoryPoolEEESaISE_ENSt8__detail10_Select1stESt8equal_toIS5_ESt4hashIS5_ENSG_18_Mod_range_hashingENSG_20_Default_ranged_hashENSG_20_Prime_rehash_policyENSG_17_Hashtable_traitsILb1ELb0ELb1EEEE5emptyEv = comdat any

$_ZNKSt10_HashtableINSt7__cxx1112basic_stringIcSt11char_traitsIcESaIcEEESt4pairIKS5_St8weak_ptrIN8facebook5velox6memory10MemoryPoolEEESaISE_ENSt8__detail10_Select1stESt8equal_toIS5_ESt4hashIS5_ENSG_18_Mod_range_hashingENSG_20_Default_ranged_hashENSG_20_Prime_rehash_policyENSG_17_Hashtable_traitsILb1ELb0ELb1EEEE4sizeEv = comdat any

$_ZN3fmt2v816make_format_argsINS0_20basic_format_contextINS0_8appenderEcEEJRiEEENS0_16format_arg_storeIT_JDpNSt9remove_cvINSt16remove_referenceIT0_E4typeEE4typeEEEEDpOSA_ = comdat any

$_ZSt8_DestroyIPSt10shared_ptrIN8facebook5velox6memory10MemoryPoolEES5_EvT_S7_RSaIT0_E = comdat any

$_ZNSt12_Vector_baseISt10shared_ptrIN8facebook5velox6memory10MemoryPoolEESaIS5_EE19_M_get_Tp_allocatorEv = comdat any

$_ZNSt12_Vector_baseISt10shared_ptrIN8facebook5velox6memory10MemoryPoolEESaIS5_EED2Ev = comdat any

$_ZSt8_DestroyIPSt10shared_ptrIN8facebook5velox6memory10MemoryPoolEEEvT_S7_ = comdat any

$_ZNSt12_Destroy_auxILb0EE9__destroyIPSt10shared_ptrIN8facebook5velox6memory10MemoryPoolEEEEvT_S9_ = comdat any

$_ZSt8_DestroyISt10shared_ptrIN8facebook5velox6memory10MemoryPoolEEEvPT_ = comdat any

$_ZNSt12_Vector_baseISt10shared_ptrIN8facebook5velox6memory10MemoryPoolEESaIS5_EE13_M_deallocateEPS5_m = comdat any

$_ZNSt12_Vector_baseISt10shared_ptrIN8facebook5velox6memory10MemoryPoolEESaIS5_EE12_Vector_implD2Ev = comdat any

$_ZNSt16allocator_traitsISaISt10shared_ptrIN8facebook5velox6memory10MemoryPoolEEEE10deallocateERS6_PS5_m = comdat any

$_ZNSt15__new_allocatorISt10shared_ptrIN8facebook5velox6memory10MemoryPoolEEE10deallocateEPS5_m = comdat any

$_ZNSaISt10shared_ptrIN8facebook5velox6memory10MemoryPoolEEED2Ev = comdat any

$_ZNSt15__new_allocatorISt10shared_ptrIN8facebook5velox6memory10MemoryPoolEEED2Ev = comdat any

$_ZNKSt6vectorISt10shared_ptrIN8facebook5velox6memory10MemoryPoolEESaIS5_EE8max_sizeEv = comdat any

$_ZNKSt6vectorISt10shared_ptrIN8facebook5velox6memory10MemoryPoolEESaIS5_EE8capacityEv = comdat any

$_ZNKSt6vectorISt10shared_ptrIN8facebook5velox6memory10MemoryPoolEESaIS5_EE4sizeEv = comdat any

$_ZNSt12_Vector_baseISt10shared_ptrIN8facebook5velox6memory10MemoryPoolEESaIS5_EE11_M_allocateEm = comdat any

$_ZNSt6vectorISt10shared_ptrIN8facebook5velox6memory10MemoryPoolEESaIS5_EE11_S_relocateEPS5_S8_S8_RS6_ = comdat any

$_ZNSt6vectorISt10shared_ptrIN8facebook5velox6memory10MemoryPoolEESaIS5_EE11_S_max_sizeERKS6_ = comdat any

$_ZNKSt12_Vector_baseISt10shared_ptrIN8facebook5velox6memory10MemoryPoolEESaIS5_EE19_M_get_Tp_allocatorEv = comdat any

$_ZNSt16allocator_traitsISaISt10shared_ptrIN8facebook5velox6memory10MemoryPoolEEEE8max_sizeERKS6_ = comdat any

$_ZNKSt15__new_allocatorISt10shared_ptrIN8facebook5velox6memory10MemoryPoolEEE8max_sizeEv = comdat any

$_ZNKSt15__new_allocatorISt10shared_ptrIN8facebook5velox6memory10MemoryPoolEEE11_M_max_sizeEv = comdat any

$_ZNSt16allocator_traitsISaISt10shared_ptrIN8facebook5velox6memory10MemoryPoolEEEE8allocateERS6_m = comdat any

$_ZNSt15__new_allocatorISt10shared_ptrIN8facebook5velox6memory10MemoryPoolEEE8allocateEmPKv = comdat any

$_ZSt12__relocate_aIPSt10shared_ptrIN8facebook5velox6memory10MemoryPoolEES6_SaIS5_EET0_T_S9_S8_RT1_ = comdat any

$_ZSt14__relocate_a_1IPSt10shared_ptrIN8facebook5velox6memory10MemoryPoolEES6_SaIS5_EET0_T_S9_S8_RT1_ = comdat any

$_ZSt12__niter_baseIPSt10shared_ptrIN8facebook5velox6memory10MemoryPoolEEET_S7_ = comdat any

$_ZSt19__relocate_object_aISt10shared_ptrIN8facebook5velox6memory10MemoryPoolEES5_SaIS5_EEvPT_PT0_RT1_ = comdat any

$_ZNSt16allocator_traitsISaISt10shared_ptrIN8facebook5velox6memory10MemoryPoolEEEE9constructIS5_JS5_EEEvRS6_PT_DpOT0_ = comdat any

$_ZNSt16allocator_traitsISaISt10shared_ptrIN8facebook5velox6memory10MemoryPoolEEEE7destroyIS5_EEvRS6_PT_ = comdat any

$_ZNSt15__new_allocatorISt10shared_ptrIN8facebook5velox6memory10MemoryPoolEEE9constructIS5_JS5_EEEvPT_DpOT0_ = comdat any

$_ZNSt15__new_allocatorISt10shared_ptrIN8facebook5velox6memory10MemoryPoolEEE7destroyIS5_EEvPT_ = comdat any

$_ZNKSt10_HashtableINSt7__cxx1112basic_stringIcSt11char_traitsIcESaIcEEESt4pairIKS5_St8weak_ptrIN8facebook5velox6memory10MemoryPoolEEESaISE_ENSt8__detail10_Select1stESt8equal_toIS5_ESt4hashIS5_ENSG_18_Mod_range_hashingENSG_20_Default_ranged_hashENSG_20_Prime_rehash_policyENSG_17_Hashtable_traitsILb1ELb0ELb1EEEE5beginEv = comdat any

$_ZNSt8__detail20_Node_const_iteratorISt4pairIKNSt7__cxx1112basic_stringIcSt11char_traitsIcESaIcEEESt8weak_ptrIN8facebook5velox6memory10MemoryPoolEEELb0ELb1EEC2EPNS_10_Hash_nodeISF_Lb1EEE = comdat any

$_ZNSt8__detail19_Node_iterator_baseISt4pairIKNSt7__cxx1112basic_stringIcSt11char_traitsIcESaIcEEESt8weak_ptrIN8facebook5velox6memory10MemoryPoolEEELb1EEC2EPNS_10_Hash_nodeISF_Lb1EEE = comdat any

$_ZNKSt10_HashtableINSt7__cxx1112basic_stringIcSt11char_traitsIcESaIcEEESt4pairIKS5_St8weak_ptrIN8facebook5velox6memory10MemoryPoolEEESaISE_ENSt8__detail10_Select1stESt8equal_toIS5_ESt4hashIS5_ENSG_18_Mod_range_hashingENSG_20_Default_ranged_hashENSG_20_Prime_rehash_policyENSG_17_Hashtable_traitsILb1ELb0ELb1EEEE3endEv = comdat any

$_ZNSt8__detail19_Node_iterator_baseISt4pairIKNSt7__cxx1112basic_stringIcSt11char_traitsIcESaIcEEESt8weak_ptrIN8facebook5velox6memory10MemoryPoolEEELb1EE7_M_incrEv = comdat any

$_ZNSt8__detail21_Hash_node_value_baseISt4pairIKNSt7__cxx1112basic_stringIcSt11char_traitsIcESaIcEEESt8weak_ptrIN8facebook5velox6memory10MemoryPoolEEEE4_M_vEv = comdat any

$_ZNSt10shared_ptrIN8facebook5velox6memory10MemoryPoolEEC2ERKSt8weak_ptrIS3_ESt9nothrow_t = comdat any

$_ZNSt12__shared_ptrIN8facebook5velox6memory10MemoryPoolELN9__gnu_cxx12_Lock_policyE2EEC2ERKSt10__weak_ptrIS3_LS5_2EESt9nothrow_t = comdat any

$_ZNSt14__shared_countILN9__gnu_cxx12_Lock_policyE2EEC2ERKSt12__weak_countILS1_2EESt9nothrow_t = comdat any

$_ZNKSt14__shared_countILN9__gnu_cxx12_Lock_policyE2EE16_M_get_use_countEv = comdat any

$_ZNSt16_Sp_counted_baseILN9__gnu_cxx12_Lock_policyE2EE23_M_add_ref_lock_nothrowEv = comdat any

$_ZNKSt16_Sp_counted_baseILN9__gnu_cxx12_Lock_policyE2EE16_M_get_use_countEv = comdat any

$_ZNSt6vectorISt10shared_ptrIN8facebook5velox6memory10MemoryPoolEESaIS5_EE12emplace_backIJS5_EEERS5_DpOT_ = comdat any

$_ZNSt6vectorISt10shared_ptrIN8facebook5velox6memory10MemoryPoolEESaIS5_EE17_M_realloc_insertIJS5_EEEvN9__gnu_cxx17__normal_iteratorIPS5_S7_EEDpOT_ = comdat any

$_ZNSt6vectorISt10shared_ptrIN8facebook5velox6memory10MemoryPoolEESaIS5_EE4backEv = comdat any

$_ZNKSt6vectorISt10shared_ptrIN8facebook5velox6memory10MemoryPoolEESaIS5_EE12_M_check_lenEmPKc = comdat any

$_ZN9__gnu_cxxmiIPSt10shared_ptrIN8facebook5velox6memory10MemoryPoolEESt6vectorIS6_SaIS6_EEEENS_17__normal_iteratorIT_T0_E15difference_typeERKSE_SH_ = comdat any

$_ZNK9__gnu_cxx17__normal_iteratorIPSt10shared_ptrIN8facebook5velox6memory10MemoryPoolEESt6vectorIS6_SaIS6_EEE4baseEv = comdat any

$_ZNK9__gnu_cxx17__normal_iteratorIPSt10shared_ptrIN8facebook5velox6memory10MemoryPoolEESt6vectorIS6_SaIS6_EEEmiEl = comdat any

$_ZN9__gnu_cxx17__normal_iteratorIPSt10shared_ptrIN8facebook5velox6memory10MemoryPoolEESt6vectorIS6_SaIS6_EEEC2ERKS7_ = comdat any

$_ZNKSt14_Function_base8_M_emptyEv = comdat any

$_ZNKSt10_HashtableINSt7__cxx1112basic_stringIcSt11char_traitsIcESaIcEEESt4pairIKS5_St8weak_ptrIN8facebook5velox6memory10MemoryPoolEEESaISE_ENSt8__detail10_Select1stESt8equal_toIS5_ESt4hashIS5_ENSG_18_Mod_range_hashingENSG_20_Default_ranged_hashENSG_20_Prime_rehash_policyENSG_17_Hashtable_traitsILb1ELb0ELb1EEEE5countERS7_ = comdat any

$_ZNKSt10_HashtableINSt7__cxx1112basic_stringIcSt11char_traitsIcESaIcEEESt4pairIKS5_St8weak_ptrIN8facebook5velox6memory10MemoryPoolEEESaISE_ENSt8__detail10_Select1stESt8equal_toIS5_ESt4hashIS5_ENSG_18_Mod_range_hashingENSG_20_Default_ranged_hashENSG_20_Prime_rehash_policyENSG_17_Hashtable_traitsILb1ELb0ELb1EEEE4findERS7_ = comdat any

$_ZNSt10_HashtableINSt7__cxx1112basic_stringIcSt11char_traitsIcESaIcEEESt4pairIKS5_St8weak_ptrIN8facebook5velox6memory10MemoryPoolEEESaISE_ENSt8__detail10_Select1stESt8equal_toIS5_ESt4hashIS5_ENSG_18_Mod_range_hashingENSG_20_Default_ranged_hashENSG_20_Prime_rehash_policyENSG_17_Hashtable_traitsILb1ELb0ELb1EEEE22__small_size_thresholdEv = comdat any

$_ZNKSt8__detail15_Hashtable_baseINSt7__cxx1112basic_stringIcSt11char_traitsIcESaIcEEESt4pairIKS6_St8weak_ptrIN8facebook5velox6memory10MemoryPoolEEENS_10_Select1stESt8equal_toIS6_ESt4hashIS6_ENS_18_Mod_range_hashingENS_20_Default_ranged_hashENS_17_Hashtable_traitsILb1ELb0ELb1EEEE13_M_key_equalsERS8_RKNS_16_Hash_node_valueISF_Lb1EEE = comdat any

$_ZNKSt8__detail15_Hash_code_baseINSt7__cxx1112basic_stringIcSt11char_traitsIcESaIcEEESt4pairIKS6_St8weak_ptrIN8facebook5velox6memory10MemoryPoolEEENS_10_Select1stESt4hashIS6_ENS_18_Mod_range_hashingENS_20_Default_ranged_hashELb1EE12_M_hash_codeERS8_ = comdat any

$_ZNKSt10_HashtableINSt7__cxx1112basic_stringIcSt11char_traitsIcESaIcEEESt4pairIKS5_St8weak_ptrIN8facebook5velox6memory10MemoryPoolEEESaISE_ENSt8__detail10_Select1stESt8equal_toIS5_ESt4hashIS5_ENSG_18_Mod_range_hashingENSG_20_Default_ranged_hashENSG_20_Prime_rehash_policyENSG_17_Hashtable_traitsILb1ELb0ELb1EEEE15_M_bucket_indexEm = comdat any

$_ZNKSt10_HashtableINSt7__cxx1112basic_stringIcSt11char_traitsIcESaIcEEESt4pairIKS5_St8weak_ptrIN8facebook5velox6memory10MemoryPoolEEESaISE_ENSt8__detail10_Select1stESt8equal_toIS5_ESt4hashIS5_ENSG_18_Mod_range_hashingENSG_20_Default_ranged_hashENSG_20_Prime_rehash_policyENSG_17_Hashtable_traitsILb1ELb0ELb1EEEE12_M_find_nodeEmRS7_m = comdat any

$_ZNSt8__detail22_Hashtable_hash_traitsISt4hashINSt7__cxx1112basic_stringIcSt11char_traitsIcESaIcEEEEE22__small_size_thresholdEv = comdat any

$_ZNKSt8__detail15_Hashtable_baseINSt7__cxx1112basic_stringIcSt11char_traitsIcESaIcEEESt4pairIKS6_St8weak_ptrIN8facebook5velox6memory10MemoryPoolEEENS_10_Select1stESt8equal_toIS6_ESt4hashIS6_ENS_18_Mod_range_hashingENS_20_Default_ranged_hashENS_17_Hashtable_traitsILb1ELb0ELb1EEEE5_M_eqEv = comdat any

$_ZNKSt8equal_toINSt7__cxx1112basic_stringIcSt11char_traitsIcESaIcEEEEclERKS5_S8_ = comdat any

$_ZNKSt8__detail10_Select1stclIRKSt4pairIKNSt7__cxx1112basic_stringIcSt11char_traitsIcESaIcEEESt8weak_ptrIN8facebook5velox6memory10MemoryPoolEEEEEONS0_10__1st_typeIT_E4typeEOSK_ = comdat any

$_ZNKSt8__detail21_Hash_node_value_baseISt4pairIKNSt7__cxx1112basic_stringIcSt11char_traitsIcESaIcEEESt8weak_ptrIN8facebook5velox6memory10MemoryPoolEEEE4_M_vEv = comdat any

$_ZNKSt8__detail21_Hashtable_ebo_helperILi0ESt8equal_toINSt7__cxx1112basic_stringIcSt11char_traitsIcESaIcEEEELb1EE7_M_cgetEv = comdat any

$_ZSteqIcEN9__gnu_cxx11__enable_ifIXsr9__is_charIT_EE7__valueEbE6__typeERKNSt7__cxx1112basic_stringIS2_St11char_traitsIS2_ESaIS2_EEESC_ = comdat any

$_ZNSt11char_traitsIcE7compareEPKcS2_m = comdat any

$_ZNKSt8__detail21_Hash_node_value_baseISt4pairIKNSt7__cxx1112basic_stringIcSt11char_traitsIcESaIcEEESt8weak_ptrIN8facebook5velox6memory10MemoryPoolEEEE9_M_valptrEv = comdat any

$_ZNK9__gnu_cxx16__aligned_bufferISt4pairIKNSt7__cxx1112basic_stringIcSt11char_traitsIcESaIcEEESt8weak_ptrIN8facebook5velox6memory10MemoryPoolEEEE6_M_ptrEv = comdat any

$_ZNK9__gnu_cxx16__aligned_bufferISt4pairIKNSt7__cxx1112basic_stringIcSt11char_traitsIcESaIcEEESt8weak_ptrIN8facebook5velox6memory10MemoryPoolEEEE7_M_addrEv = comdat any

$_ZNKSt8__detail15_Hash_code_baseINSt7__cxx1112basic_stringIcSt11char_traitsIcESaIcEEESt4pairIKS6_St8weak_ptrIN8facebook5velox6memory10MemoryPoolEEENS_10_Select1stESt4hashIS6_ENS_18_Mod_range_hashingENS_20_Default_ranged_hashELb1EE7_M_hashEv = comdat any

$_ZNKSt4hashINSt7__cxx1112basic_stringIcSt11char_traitsIcESaIcEEEEclERKS5_ = comdat any

$_ZNKSt8__detail21_Hashtable_ebo_helperILi1ESt4hashINSt7__cxx1112basic_stringIcSt11char_traitsIcESaIcEEEELb1EE7_M_cgetEv = comdat any

$_ZNSt10_Hash_impl4hashEPKvmm = comdat any

$_ZNKSt8__detail15_Hash_code_baseINSt7__cxx1112basic_stringIcSt11char_traitsIcESaIcEEESt4pairIKS6_St8weak_ptrIN8facebook5velox6memory10MemoryPoolEEENS_10_Select1stESt4hashIS6_ENS_18_Mod_range_hashingENS_20_Default_ranged_hashELb1EE15_M_bucket_indexEmm = comdat any

$_ZNKSt8__detail18_Mod_range_hashingclEmm = comdat any

$_ZNKSt10_HashtableINSt7__cxx1112basic_stringIcSt11char_traitsIcESaIcEEESt4pairIKS5_St8weak_ptrIN8facebook5velox6memory10MemoryPoolEEESaISE_ENSt8__detail10_Select1stESt8equal_toIS5_ESt4hashIS5_ENSG_18_Mod_range_hashingENSG_20_Default_ranged_hashENSG_20_Prime_rehash_policyENSG_17_Hashtable_traitsILb1ELb0ELb1EEEE19_M_find_before_nodeEmRS7_m = comdat any

$_ZNKSt8__detail15_Hashtable_baseINSt7__cxx1112basic_stringIcSt11char_traitsIcESaIcEEESt4pairIKS6_St8weak_ptrIN8facebook5velox6memory10MemoryPoolEEENS_10_Select1stESt8equal_toIS6_ESt4hashIS6_ENS_18_Mod_range_hashingENS_20_Default_ranged_hashENS_17_Hashtable_traitsILb1ELb0ELb1EEEE9_M_equalsERS8_mRKNS_16_Hash_node_valueISF_Lb1EEE = comdat any

$_ZNKSt10_HashtableINSt7__cxx1112basic_stringIcSt11char_traitsIcESaIcEEESt4pairIKS5_St8weak_ptrIN8facebook5velox6memory10MemoryPoolEEESaISE_ENSt8__detail10_Select1stESt8equal_toIS5_ESt4hashIS5_ENSG_18_Mod_range_hashingENSG_20_Default_ranged_hashENSG_20_Prime_rehash_policyENSG_17_Hashtable_traitsILb1ELb0ELb1EEEE15_M_bucket_indexERKNSG_16_Hash_node_valueISE_Lb1EEE = comdat any

$_ZNSt8__detail15_Hashtable_baseINSt7__cxx1112basic_stringIcSt11char_traitsIcESaIcEEESt4pairIKS6_St8weak_ptrIN8facebook5velox6memory10MemoryPoolEEENS_10_Select1stESt8equal_toIS6_ESt4hashIS6_ENS_18_Mod_range_hashingENS_20_Default_ranged_hashENS_17_Hashtable_traitsILb1ELb0ELb1EEEE9_S_equalsEmRKNS_21_Hash_node_code_cacheILb1EEE = comdat any

$_ZNKSt8__detail15_Hash_code_baseINSt7__cxx1112basic_stringIcSt11char_traitsIcESaIcEEESt4pairIKS6_St8weak_ptrIN8facebook5velox6memory10MemoryPoolEEENS_10_Select1stESt4hashIS6_ENS_18_Mod_range_hashingENS_20_Default_ranged_hashELb1EE15_M_bucket_indexERKNS_16_Hash_node_valueISF_Lb1EEEm = comdat any

$_ZNSt10shared_ptrIN8facebook5velox6memory10MemoryPoolEEC2IS3_vEERKSt8weak_ptrIT_E = comdat any

$_ZNSt12__shared_ptrIN8facebook5velox6memory10MemoryPoolELN9__gnu_cxx12_Lock_policyE2EEC2IS3_vEERKSt10__weak_ptrIT_LS5_2EE = comdat any

$_ZNSt14__shared_countILN9__gnu_cxx12_Lock_policyE2EEC2ERKSt12__weak_countILS1_2EE = comdat any

$_ZSt20__throw_bad_weak_ptrv = comdat any

$_ZNSt12bad_weak_ptrC2Ev = comdat any

$_ZNSt9exceptionC2Ev = comdat any

$_ZNSt10unique_ptrIN8facebook5velox6memory15MemoryReclaimerESt14default_deleteIS3_EE11get_deleterEv = comdat any

$_ZNSt10_HashtableINSt7__cxx1112basic_stringIcSt11char_traitsIcESaIcEEESt4pairIKS5_St8weak_ptrIN8facebook5velox6memory10MemoryPoolEEESaISE_ENSt8__detail10_Select1stESt8equal_toIS5_ESt4hashIS5_ENSG_18_Mod_range_hashingENSG_20_Default_ranged_hashENSG_20_Prime_rehash_policyENSG_17_Hashtable_traitsILb1ELb0ELb1EEEE7emplaceIJRS7_RSt10shared_ptrISC_EEEES6_INSG_14_Node_iteratorISE_Lb0ELb1EEEbEDpOT_ = comdat any

$_ZNSt10_HashtableINSt7__cxx1112basic_stringIcSt11char_traitsIcESaIcEEESt4pairIKS5_St8weak_ptrIN8facebook5velox6memory10MemoryPoolEEESaISE_ENSt8__detail10_Select1stESt8equal_toIS5_ESt4hashIS5_ENSG_18_Mod_range_hashingENSG_20_Default_ranged_hashENSG_20_Prime_rehash_policyENSG_17_Hashtable_traitsILb1ELb0ELb1EEEE10_M_emplaceIJRS7_RSt10shared_ptrISC_EEEES6_INSG_14_Node_iteratorISE_Lb0ELb1EEEbESt17integral_constantIbLb1EEDpOT_ = comdat any

$_ZNSt10_HashtableINSt7__cxx1112basic_stringIcSt11char_traitsIcESaIcEEESt4pairIKS5_St8weak_ptrIN8facebook5velox6memory10MemoryPoolEEESaISE_ENSt8__detail10_Select1stESt8equal_toIS5_ESt4hashIS5_ENSG_18_Mod_range_hashingENSG_20_Default_ranged_hashENSG_20_Prime_rehash_policyENSG_17_Hashtable_traitsILb1ELb0ELb1EEEE12_Scoped_nodeC2IJRS7_RSt10shared_ptrISC_EEEEPNSG_16_Hashtable_allocISaINSG_10_Hash_nodeISE_Lb1EEEEEEDpOT_ = comdat any

$_ZNKSt8__detail10_Select1stclIRSt4pairIKNSt7__cxx1112basic_stringIcSt11char_traitsIcESaIcEEESt8weak_ptrIN8facebook5velox6memory10MemoryPoolEEEEEONS0_10__1st_typeIT_E4typeEOSJ_ = comdat any

$_ZNSt10_HashtableINSt7__cxx1112basic_stringIcSt11char_traitsIcESaIcEEESt4pairIKS5_St8weak_ptrIN8facebook5velox6memory10MemoryPoolEEESaISE_ENSt8__detail10_Select1stESt8equal_toIS5_ESt4hashIS5_ENSG_18_Mod_range_hashingENSG_20_Default_ranged_hashENSG_20_Prime_rehash_policyENSG_17_Hashtable_traitsILb1ELb0ELb1EEEE5beginEv = comdat any

$_ZNSt10_HashtableINSt7__cxx1112basic_stringIcSt11char_traitsIcESaIcEEESt4pairIKS5_St8weak_ptrIN8facebook5velox6memory10MemoryPoolEEESaISE_ENSt8__detail10_Select1stESt8equal_toIS5_ESt4hashIS5_ENSG_18_Mod_range_hashingENSG_20_Default_ranged_hashENSG_20_Prime_rehash_policyENSG_17_Hashtable_traitsILb1ELb0ELb1EEEE3endEv = comdat any

$_ZNSt4pairINSt8__detail14_Node_iteratorIS_IKNSt7__cxx1112basic_stringIcSt11char_traitsIcESaIcEEESt8weak_ptrIN8facebook5velox6memory10MemoryPoolEEELb0ELb1EEEbEC2IRSG_bTnNSt9enable_ifIXaaclsr5_PCCPE22_MoveConstructiblePairIT_T0_EEclsr5_PCCPE30_ImplicitlyMoveConvertiblePairISL_SM_EEEbE4typeELb1EEEOSL_OSM_ = comdat any

$_ZNSt8__detail14_Node_iteratorISt4pairIKNSt7__cxx1112basic_stringIcSt11char_traitsIcESaIcEEESt8weak_ptrIN8facebook5velox6memory10MemoryPoolEEELb0ELb1EEppEv = comdat any

$_ZNSt8__detail14_Node_iteratorISt4pairIKNSt7__cxx1112basic_stringIcSt11char_traitsIcESaIcEEESt8weak_ptrIN8facebook5velox6memory10MemoryPoolEEELb0ELb1EEC2EPNS_10_Hash_nodeISF_Lb1EEE = comdat any

$_ZNSt4pairINSt8__detail14_Node_iteratorIS_IKNSt7__cxx1112basic_stringIcSt11char_traitsIcESaIcEEESt8weak_ptrIN8facebook5velox6memory10MemoryPoolEEELb0ELb1EEEbEC2ISG_bTnNSt9enable_ifIXaaclsr5_PCCPE22_MoveConstructiblePairIT_T0_EEclsr5_PCCPE30_ImplicitlyMoveConvertiblePairISK_SL_EEEbE4typeELb1EEEOSK_OSL_ = comdat any

$_ZNSt10_HashtableINSt7__cxx1112basic_stringIcSt11char_traitsIcESaIcEEESt4pairIKS5_St8weak_ptrIN8facebook5velox6memory10MemoryPoolEEESaISE_ENSt8__detail10_Select1stESt8equal_toIS5_ESt4hashIS5_ENSG_18_Mod_range_hashingENSG_20_Default_ranged_hashENSG_20_Prime_rehash_policyENSG_17_Hashtable_traitsILb1ELb0ELb1EEEE21_M_insert_unique_nodeEmmPNSG_10_Hash_nodeISE_Lb1EEEm = comdat any

$_ZNSt10_HashtableINSt7__cxx1112basic_stringIcSt11char_traitsIcESaIcEEESt4pairIKS5_St8weak_ptrIN8facebook5velox6memory10MemoryPoolEEESaISE_ENSt8__detail10_Select1stESt8equal_toIS5_ESt4hashIS5_ENSG_18_Mod_range_hashingENSG_20_Default_ranged_hashENSG_20_Prime_rehash_policyENSG_17_Hashtable_traitsILb1ELb0ELb1EEEE12_Scoped_nodeD2Ev = comdat any

$_ZNSt8__detail16_Hashtable_allocISaINS_10_Hash_nodeISt4pairIKNSt7__cxx1112basic_stringIcSt11char_traitsIcESaIcEEESt8weak_ptrIN8facebook5velox6memory10MemoryPoolEEELb1EEEEE16_M_allocate_nodeIJRS9_RSt10shared_ptrISE_EEEEPSH_DpOT_ = comdat any

$_ZNSt16allocator_traitsISaINSt8__detail10_Hash_nodeISt4pairIKNSt7__cxx1112basic_stringIcSt11char_traitsIcESaIcEEESt8weak_ptrIN8facebook5velox6memory10MemoryPoolEEELb1EEEEE8allocateERSI_m = comdat any

$_ZSt12__to_addressINSt8__detail10_Hash_nodeISt4pairIKNSt7__cxx1112basic_stringIcSt11char_traitsIcESaIcEEESt8weak_ptrIN8facebook5velox6memory10MemoryPoolEEELb1EEEEPT_SJ_ = comdat any

$_ZNSt8__detail10_Hash_nodeISt4pairIKNSt7__cxx1112basic_stringIcSt11char_traitsIcESaIcEEESt8weak_ptrIN8facebook5velox6memory10MemoryPoolEEELb1EEC2Ev = comdat any

$_ZNSt16allocator_traitsISaINSt8__detail10_Hash_nodeISt4pairIKNSt7__cxx1112basic_stringIcSt11char_traitsIcESaIcEEESt8weak_ptrIN8facebook5velox6memory10MemoryPoolEEELb1EEEEE9constructISG_JRS9_RSt10shared_ptrISE_EEEEvRSI_PT_DpOT0_ = comdat any

$_ZNSt15__new_allocatorINSt8__detail10_Hash_nodeISt4pairIKNSt7__cxx1112basic_stringIcSt11char_traitsIcESaIcEEESt8weak_ptrIN8facebook5velox6memory10MemoryPoolEEELb1EEEE8allocateEmPKv = comdat any

$_ZNKSt15__new_allocatorINSt8__detail10_Hash_nodeISt4pairIKNSt7__cxx1112basic_stringIcSt11char_traitsIcESaIcEEESt8weak_ptrIN8facebook5velox6memory10MemoryPoolEEELb1EEEE11_M_max_sizeEv = comdat any

$_ZNSt15__new_allocatorINSt8__detail10_Hash_nodeISt4pairIKNSt7__cxx1112basic_stringIcSt11char_traitsIcESaIcEEESt8weak_ptrIN8facebook5velox6memory10MemoryPoolEEELb1EEEE9constructISG_JRS9_RSt10shared_ptrISE_EEEEvPT_DpOT0_ = comdat any

$_ZNSt4pairIKNSt7__cxx1112basic_stringIcSt11char_traitsIcESaIcEEESt8weak_ptrIN8facebook5velox6memory10MemoryPoolEEEC2IRS6_RSt10shared_ptrISB_ETnNSt9enable_ifIXaaclsr5_PCCPE22_MoveConstructiblePairIT_T0_EEclsr5_PCCPE30_ImplicitlyMoveConvertiblePairISK_SL_EEEbE4typeELb1EEEOSK_OSL_ = comdat any

$_ZNSt8weak_ptrIN8facebook5velox6memory10MemoryPoolEEC2IS3_vEERKSt10shared_ptrIT_E = comdat any

$_ZNSt10__weak_ptrIN8facebook5velox6memory10MemoryPoolELN9__gnu_cxx12_Lock_policyE2EEC2IS3_vEERKSt12__shared_ptrIT_LS5_2EE = comdat any

$_ZNSt12__weak_countILN9__gnu_cxx12_Lock_policyE2EEC2ERKSt14__shared_countILS1_2EE = comdat any

$_ZNSt16_Sp_counted_baseILN9__gnu_cxx12_Lock_policyE2EE15_M_weak_add_refEv = comdat any

$_ZNKSt8__detail20_Prime_rehash_policy8_M_stateEv = comdat any

$_ZNSt10_HashtableINSt7__cxx1112basic_stringIcSt11char_traitsIcESaIcEEESt4pairIKS5_St8weak_ptrIN8facebook5velox6memory10MemoryPoolEEESaISE_ENSt8__detail10_Select1stESt8equal_toIS5_ESt4hashIS5_ENSG_18_Mod_range_hashingENSG_20_Default_ranged_hashENSG_20_Prime_rehash_policyENSG_17_Hashtable_traitsILb1ELb0ELb1EEEE9_M_rehashEmRKm = comdat any

$_ZNKSt8__detail15_Hash_code_baseINSt7__cxx1112basic_stringIcSt11char_traitsIcESaIcEEESt4pairIKS6_St8weak_ptrIN8facebook5velox6memory10MemoryPoolEEENS_10_Select1stESt4hashIS6_ENS_18_Mod_range_hashingENS_20_Default_ranged_hashELb1EE13_M_store_codeERNS_21_Hash_node_code_cacheILb1EEEm = comdat any

$_ZNSt10_HashtableINSt7__cxx1112basic_stringIcSt11char_traitsIcESaIcEEESt4pairIKS5_St8weak_ptrIN8facebook5velox6memory10MemoryPoolEEESaISE_ENSt8__detail10_Select1stESt8equal_toIS5_ESt4hashIS5_ENSG_18_Mod_range_hashingENSG_20_Default_ranged_hashENSG_20_Prime_rehash_policyENSG_17_Hashtable_traitsILb1ELb0ELb1EEEE22_M_insert_bucket_beginEmPNSG_10_Hash_nodeISE_Lb1EEE = comdat any

$_ZNSt10_HashtableINSt7__cxx1112basic_stringIcSt11char_traitsIcESaIcEEESt4pairIKS5_St8weak_ptrIN8facebook5velox6memory10MemoryPoolEEESaISE_ENSt8__detail10_Select1stESt8equal_toIS5_ESt4hashIS5_ENSG_18_Mod_range_hashingENSG_20_Default_ranged_hashENSG_20_Prime_rehash_policyENSG_17_Hashtable_traitsILb1ELb0ELb1EEEE13_M_rehash_auxEmSt17integral_constantIbLb1EE = comdat any

$_ZNSt8__detail20_Prime_rehash_policy8_M_resetEm = comdat any

$_ZNSt10_HashtableINSt7__cxx1112basic_stringIcSt11char_traitsIcESaIcEEESt4pairIKS5_St8weak_ptrIN8facebook5velox6memory10MemoryPoolEEESaISE_ENSt8__detail10_Select1stESt8equal_toIS5_ESt4hashIS5_ENSG_18_Mod_range_hashingENSG_20_Default_ranged_hashENSG_20_Prime_rehash_policyENSG_17_Hashtable_traitsILb1ELb0ELb1EEEE19_M_allocate_bucketsEm = comdat any

$_ZNSt8__detail16_Hashtable_allocISaINS_10_Hash_nodeISt4pairIKNSt7__cxx1112basic_stringIcSt11char_traitsIcESaIcEEESt8weak_ptrIN8facebook5velox6memory10MemoryPoolEEELb1EEEEE19_M_allocate_bucketsEm = comdat any

$_ZNSt16allocator_traitsISaIPNSt8__detail15_Hash_node_baseEEE8allocateERS3_m = comdat any

$_ZSt12__to_addressIPNSt8__detail15_Hash_node_baseEEPT_S4_ = comdat any

$_ZNSt15__new_allocatorIPNSt8__detail15_Hash_node_baseEE8allocateEmPKv = comdat any

$_ZNKSt15__new_allocatorIPNSt8__detail15_Hash_node_baseEE11_M_max_sizeEv = comdat any

$_ZNSt10_HashtableINSt7__cxx1112basic_stringIcSt11char_traitsIcESaIcEEESt4pairIKS5_St8weak_ptrIN8facebook5velox6memory10MemoryPoolEEESaISE_ENSt8__detail10_Select1stESt8equal_toIS5_ESt4hashIS5_ENSG_18_Mod_range_hashingENSG_20_Default_ranged_hashENSG_20_Prime_rehash_policyENSG_17_Hashtable_traitsILb1ELb0ELb1EEEE5eraseERS7_ = comdat any

$_ZNSt10_HashtableINSt7__cxx1112basic_stringIcSt11char_traitsIcESaIcEEESt4pairIKS5_St8weak_ptrIN8facebook5velox6memory10MemoryPoolEEESaISE_ENSt8__detail10_Select1stESt8equal_toIS5_ESt4hashIS5_ENSG_18_Mod_range_hashingENSG_20_Default_ranged_hashENSG_20_Prime_rehash_policyENSG_17_Hashtable_traitsILb1ELb0ELb1EEEE8_M_eraseESt17integral_constantIbLb1EERS7_ = comdat any

$_ZNSt10_HashtableINSt7__cxx1112basic_stringIcSt11char_traitsIcESaIcEEESt4pairIKS5_St8weak_ptrIN8facebook5velox6memory10MemoryPoolEEESaISE_ENSt8__detail10_Select1stESt8equal_toIS5_ESt4hashIS5_ENSG_18_Mod_range_hashingENSG_20_Default_ranged_hashENSG_20_Prime_rehash_policyENSG_17_Hashtable_traitsILb1ELb0ELb1EEEE19_M_find_before_nodeERS7_ = comdat any

$_ZNSt10_HashtableINSt7__cxx1112basic_stringIcSt11char_traitsIcESaIcEEESt4pairIKS5_St8weak_ptrIN8facebook5velox6memory10MemoryPoolEEESaISE_ENSt8__detail10_Select1stESt8equal_toIS5_ESt4hashIS5_ENSG_18_Mod_range_hashingENSG_20_Default_ranged_hashENSG_20_Prime_rehash_policyENSG_17_Hashtable_traitsILb1ELb0ELb1EEEE8_M_eraseEmPNSG_15_Hash_node_baseEPNSG_10_Hash_nodeISE_Lb1EEE = comdat any

$_ZNSt10_HashtableINSt7__cxx1112basic_stringIcSt11char_traitsIcESaIcEEESt4pairIKS5_St8weak_ptrIN8facebook5velox6memory10MemoryPoolEEESaISE_ENSt8__detail10_Select1stESt8equal_toIS5_ESt4hashIS5_ENSG_18_Mod_range_hashingENSG_20_Default_ranged_hashENSG_20_Prime_rehash_policyENSG_17_Hashtable_traitsILb1ELb0ELb1EEEE22_M_remove_bucket_beginEmPNSG_10_Hash_nodeISE_Lb1EEEm = comdat any

$_ZNSt14_Function_baseC2Ev = comdat any

$_ZNKSt8functionIFvPN8facebook5velox6memory10MemoryPoolEEEcvbEv = comdat any

$_ZN5folly9LockedPtrINS_12SynchronizedINSt7__cxx1112basic_stringIcSt11char_traitsIcESaIcEEENS_15SharedMutexImplILb0EvSt6atomicNS_24SharedMutexPolicyDefaultEEEEENS_6detail22SynchronizedLockPolicyILNSD_22SynchronizedMutexLevelE2ELNSD_23SynchronizedMutexMethodE0EEEEC2EPSC_ = comdat any

$_ZNSt11shared_lockIN5folly15SharedMutexImplILb0EvSt6atomicNS0_24SharedMutexPolicyDefaultEEEEC2Ev = comdat any

$_ZNSt11shared_lockIN5folly15SharedMutexImplILb0EvSt6atomicNS0_24SharedMutexPolicyDefaultEEEEC2ERS4_ = comdat any

$_ZNK5folly9LockedPtrINS_12SynchronizedINSt7__cxx1112basic_stringIcSt11char_traitsIcESaIcEEENS_15SharedMutexImplILb0EvSt6atomicNS_24SharedMutexPolicyDefaultEEEEENS_6detail22SynchronizedLockPolicyILNSD_22SynchronizedMutexLevelE2ELNSD_23SynchronizedMutexMethodE0EEEE6parentEv = comdat any

$_ZNKSt11shared_lockIN5folly15SharedMutexImplILb0EvSt6atomicNS0_24SharedMutexPolicyDefaultEEEE5mutexEv = comdat any

$_ZNKSt10unique_ptrIN8facebook5velox6memory15MemoryReclaimerESt14default_deleteIS3_EEcvbEv = comdat any

$_ZN3fmt2v816make_format_argsINS0_20basic_format_contextINS0_8appenderEcEEJRA9_KcRNSt7__cxx1112basic_stringIcSt11char_traitsIcESaIcEEESE_SE_EEENS0_16format_arg_storeIT_JDpNSt9remove_cvINSt16remove_referenceIT0_E4typeEE4typeEEEEDpOSJ_ = comdat any

$_ZN3fmt2v816make_format_argsINS0_20basic_format_contextINS0_8appenderEcEEJRA19_KcRlRNSt7__cxx1112basic_stringIcSt11char_traitsIcESaIcEEESF_SF_EEENS0_16format_arg_storeIT_JDpNSt9remove_cvINSt16remove_referenceIT0_E4typeEE4typeEEEEDpOSK_ = comdat any

$_ZN3fmt2v816make_format_argsINS0_20basic_format_contextINS0_8appenderEcEEJRA11_KcRNSt7__cxx1112basic_stringIcSt11char_traitsIcESaIcEEESE_SE_SE_EEENS0_16format_arg_storeIT_JDpNSt9remove_cvINSt16remove_referenceIT0_E4typeEE4typeEEEEDpOSJ_ = comdat any

$_ZNSt9_Any_data9_M_accessEv = comdat any

$_ZNKSt9_Any_data9_M_accessEv = comdat any

$_ZNSt9_Any_data9_M_accessIPKSt9type_infoEERT_v = comdat any

$_ZN3fmt2v816make_format_argsINS0_20basic_format_contextINS0_8appenderEcEEJRA22_KcRmRNSt7__cxx1112basic_stringIcSt11char_traitsIcESaIcEEESF_EEENS0_16format_arg_storeIT_JDpNSt9remove_cvINSt16remove_referenceIT0_E4typeEE4typeEEEEDpOSK_ = comdat any

$_ZN3fmt2v816make_format_argsINS0_20basic_format_contextINS0_8appenderEcEEJRA19_KcRmRNSt7__cxx1112basic_stringIcSt11char_traitsIcESaIcEEESF_EEENS0_16format_arg_storeIT_JDpNSt9remove_cvINSt16remove_referenceIT0_E4typeEE4typeEEEEDpOSK_ = comdat any

$_ZN3fmt2v816make_format_argsINS0_20basic_format_contextINS0_8appenderEcEEJRA15_KcRmRNSt7__cxx1112basic_stringIcSt11char_traitsIcESaIcEEESF_EEENS0_16format_arg_storeIT_JDpNSt9remove_cvINSt16remove_referenceIT0_E4typeEE4typeEEEEDpOSK_ = comdat any

$_ZNSt10shared_ptrIN8facebook5velox6memory14MemoryPoolImplEEC2ISaIvEJRKPNS2_13MemoryManagerERKNSt7__cxx1112basic_stringIcSt11char_traitsIcESaIcEEERNS2_10MemoryPool4KindERS_ISJ_ESt10unique_ptrINS2_15MemoryReclaimerESt14default_deleteISP_EEDnNSJ_7OptionsEEEESt20_Sp_alloc_shared_tagIT_EDpOT0_ = comdat any

$_ZNSt12__shared_ptrIN8facebook5velox6memory14MemoryPoolImplELN9__gnu_cxx12_Lock_policyE2EEC2ISaIvEJRKPNS2_13MemoryManagerERKNSt7__cxx1112basic_stringIcSt11char_traitsIcESaIcEEERNS2_10MemoryPool4KindERSt10shared_ptrISL_ESt10unique_ptrINS2_15MemoryReclaimerESt14default_deleteISS_EEDnNSL_7OptionsEEEESt20_Sp_alloc_shared_tagIT_EDpOT0_ = comdat any

$_ZNSt14__shared_countILN9__gnu_cxx12_Lock_policyE2EEC2IN8facebook5velox6memory14MemoryPoolImplESaIvEJRKPNS6_13MemoryManagerERKNSt7__cxx1112basic_stringIcSt11char_traitsIcESaIcEEERNS6_10MemoryPool4KindERSt10shared_ptrISL_ESt10unique_ptrINS6_15MemoryReclaimerESt14default_deleteISS_EEDnNSL_7OptionsEEEERPT_St20_Sp_alloc_shared_tagIT0_EDpOT1_ = comdat any

$_ZNSt12__shared_ptrIN8facebook5velox6memory14MemoryPoolImplELN9__gnu_cxx12_Lock_policyE2EE31_M_enable_shared_from_this_withIS3_S3_EENSt9enable_ifIXsr15__has_esft_baseIT0_EE5valueEvE4typeEPT_ = comdat any

$_ZNSaISt23_Sp_counted_ptr_inplaceIN8facebook5velox6memory14MemoryPoolImplESaIvELN9__gnu_cxx12_Lock_policyE2EEEC2IvEERKSaIT_E = comdat any

$_ZSt18__allocate_guardedISaISt23_Sp_counted_ptr_inplaceIN8facebook5velox6memory14MemoryPoolImplESaIvELN9__gnu_cxx12_Lock_policyE2EEEESt15__allocated_ptrIT_ERSB_ = comdat any

$_ZNSt15__allocated_ptrISaISt23_Sp_counted_ptr_inplaceIN8facebook5velox6memory14MemoryPoolImplESaIvELN9__gnu_cxx12_Lock_policyE2EEEE3getEv = comdat any

$_ZNSt23_Sp_counted_ptr_inplaceIN8facebook5velox6memory14MemoryPoolImplESaIvELN9__gnu_cxx12_Lock_policyE2EEC2IJRKPNS2_13MemoryManagerERKNSt7__cxx1112basic_stringIcSt11char_traitsIcESaIcEEERNS2_10MemoryPool4KindERSt10shared_ptrISL_ESt10unique_ptrINS2_15MemoryReclaimerESt14default_deleteISS_EEDnNSL_7OptionsEEEES4_DpOT_ = comdat any

$_ZNSt15__allocated_ptrISaISt23_Sp_counted_ptr_inplaceIN8facebook5velox6memory14MemoryPoolImplESaIvELN9__gnu_cxx12_Lock_policyE2EEEEaSEDn = comdat any

$_ZNSt23_Sp_counted_ptr_inplaceIN8facebook5velox6memory14MemoryPoolImplESaIvELN9__gnu_cxx12_Lock_policyE2EE6_M_ptrEv = comdat any

$_ZNSt15__allocated_ptrISaISt23_Sp_counted_ptr_inplaceIN8facebook5velox6memory14MemoryPoolImplESaIvELN9__gnu_cxx12_Lock_policyE2EEEED2Ev = comdat any

$_ZNSaISt23_Sp_counted_ptr_inplaceIN8facebook5velox6memory14MemoryPoolImplESaIvELN9__gnu_cxx12_Lock_policyE2EEED2Ev = comdat any

$_ZNSt15__new_allocatorISt23_Sp_counted_ptr_inplaceIN8facebook5velox6memory14MemoryPoolImplESaIvELN9__gnu_cxx12_Lock_policyE2EEEC2Ev = comdat any

$_ZNSt16allocator_traitsISaISt23_Sp_counted_ptr_inplaceIN8facebook5velox6memory14MemoryPoolImplESaIvELN9__gnu_cxx12_Lock_policyE2EEEE8allocateERS9_m = comdat any

$_ZNSt15__allocated_ptrISaISt23_Sp_counted_ptr_inplaceIN8facebook5velox6memory14MemoryPoolImplESaIvELN9__gnu_cxx12_Lock_policyE2EEEEC2ERS9_PS8_ = comdat any

$_ZNSt15__new_allocatorISt23_Sp_counted_ptr_inplaceIN8facebook5velox6memory14MemoryPoolImplESaIvELN9__gnu_cxx12_Lock_policyE2EEE8allocateEmPKv = comdat any

$_ZNKSt15__new_allocatorISt23_Sp_counted_ptr_inplaceIN8facebook5velox6memory14MemoryPoolImplESaIvELN9__gnu_cxx12_Lock_policyE2EEE11_M_max_sizeEv = comdat any

$_ZSt12__to_addressISt23_Sp_counted_ptr_inplaceIN8facebook5velox6memory14MemoryPoolImplESaIvELN9__gnu_cxx12_Lock_policyE2EEEPT_SA_ = comdat any

$_ZNSt16_Sp_counted_baseILN9__gnu_cxx12_Lock_policyE2EEC2Ev = comdat any

$_ZNSt23_Sp_counted_ptr_inplaceIN8facebook5velox6memory14MemoryPoolImplESaIvELN9__gnu_cxx12_Lock_policyE2EE5_ImplC2ES4_ = comdat any

$_ZNSt16allocator_traitsISaIvEE9constructIN8facebook5velox6memory14MemoryPoolImplEJRKPNS5_13MemoryManagerERKNSt7__cxx1112basic_stringIcSt11char_traitsIcESaIcEEERNS5_10MemoryPool4KindERSt10shared_ptrISJ_ESt10unique_ptrINS5_15MemoryReclaimerESt14default_deleteISQ_EEDnNSJ_7OptionsEEEEvRS0_PT_DpOT0_ = comdat any

$_ZNSt23_Sp_counted_ptr_inplaceIN8facebook5velox6memory14MemoryPoolImplESaIvELN9__gnu_cxx12_Lock_policyE2EED2Ev = comdat any

$_ZNSt23_Sp_counted_ptr_inplaceIN8facebook5velox6memory14MemoryPoolImplESaIvELN9__gnu_cxx12_Lock_policyE2EED0Ev = comdat any

$_ZNSt23_Sp_counted_ptr_inplaceIN8facebook5velox6memory14MemoryPoolImplESaIvELN9__gnu_cxx12_Lock_policyE2EE10_M_disposeEv = comdat any

$_ZNSt23_Sp_counted_ptr_inplaceIN8facebook5velox6memory14MemoryPoolImplESaIvELN9__gnu_cxx12_Lock_policyE2EE10_M_destroyEv = comdat any

$_ZNSt23_Sp_counted_ptr_inplaceIN8facebook5velox6memory14MemoryPoolImplESaIvELN9__gnu_cxx12_Lock_policyE2EE14_M_get_deleterERKSt9type_info = comdat any

$_ZNSt16_Sp_counted_baseILN9__gnu_cxx12_Lock_policyE2EED2Ev = comdat any

$_ZNSt16_Sp_counted_baseILN9__gnu_cxx12_Lock_policyE2EED0Ev = comdat any

$_ZNSt16_Sp_counted_baseILN9__gnu_cxx12_Lock_policyE2EE10_M_destroyEv = comdat any

$_ZNSt14_Sp_ebo_helperILi0ESaIvELb1EEC2ERKS0_ = comdat any

$_ZSt10_ConstructIN8facebook5velox6memory14MemoryPoolImplEJRKPNS2_13MemoryManagerERKNSt7__cxx1112basic_stringIcSt11char_traitsIcESaIcEEERNS2_10MemoryPool4KindERSt10shared_ptrISG_ESt10unique_ptrINS2_15MemoryReclaimerESt14default_deleteISN_EEDnNSG_7OptionsEEEvPT_DpOT0_ = comdat any

$_ZNSt8functionIFvPN8facebook5velox6memory10MemoryPoolEEEC2EDn = comdat any

$_ZNSt16allocator_traitsISaIvEE7destroyIN8facebook5velox6memory14MemoryPoolImplEEEvRS0_PT_ = comdat any

$_ZNSt23_Sp_counted_ptr_inplaceIN8facebook5velox6memory14MemoryPoolImplESaIvELN9__gnu_cxx12_Lock_policyE2EE5_Impl8_M_allocEv = comdat any

$_ZSt8_DestroyIN8facebook5velox6memory14MemoryPoolImplEEvPT_ = comdat any

$_ZNSt14_Sp_ebo_helperILi0ESaIvELb1EE6_S_getERS1_ = comdat any

$_ZNSt19_Sp_make_shared_tag5_S_tiEv = comdat any

$_ZNKSt9type_infoeqERKS_ = comdat any

$_ZNKSt9type_info4nameEv = comdat any

$_ZN9__gnu_cxx16__aligned_bufferIN8facebook5velox6memory14MemoryPoolImplEE6_M_ptrEv = comdat any

$_ZN9__gnu_cxx16__aligned_bufferIN8facebook5velox6memory14MemoryPoolImplEE7_M_addrEv = comdat any

$_ZNSt16allocator_traitsISaISt23_Sp_counted_ptr_inplaceIN8facebook5velox6memory14MemoryPoolImplESaIvELN9__gnu_cxx12_Lock_policyE2EEEE10deallocateERS9_PS8_m = comdat any

$_ZNSt15__new_allocatorISt23_Sp_counted_ptr_inplaceIN8facebook5velox6memory14MemoryPoolImplESaIvELN9__gnu_cxx12_Lock_policyE2EEE10deallocateEPS8_m = comdat any

$_ZNSt15__new_allocatorISt23_Sp_counted_ptr_inplaceIN8facebook5velox6memory14MemoryPoolImplESaIvELN9__gnu_cxx12_Lock_policyE2EEED2Ev = comdat any

$_ZSt30__enable_shared_from_this_baseRKSt14__shared_countILN9__gnu_cxx12_Lock_policyE2EEPKSt23enable_shared_from_thisIN8facebook5velox6memory10MemoryPoolEE = comdat any

$_ZNKSt23enable_shared_from_thisIN8facebook5velox6memory10MemoryPoolEE14_M_weak_assignINS2_14MemoryPoolImplEEEvPT_RKSt14__shared_countILN9__gnu_cxx12_Lock_policyE2EE = comdat any

$_ZNSt10__weak_ptrIN8facebook5velox6memory10MemoryPoolELN9__gnu_cxx12_Lock_policyE2EE9_M_assignEPS3_RKSt14__shared_countILS5_2EE = comdat any

$_ZNKSt10__weak_ptrIN8facebook5velox6memory10MemoryPoolELN9__gnu_cxx12_Lock_policyE2EE9use_countEv = comdat any

$_ZNSt12__weak_countILN9__gnu_cxx12_Lock_policyE2EEaSERKSt14__shared_countILS1_2EE = comdat any

$_ZNKSt12__weak_countILN9__gnu_cxx12_Lock_policyE2EE16_M_get_use_countEv = comdat any

$_ZNSt12__shared_ptrIN8facebook5velox6memory10MemoryPoolELN9__gnu_cxx12_Lock_policyE2EEC2INS2_14MemoryPoolImplEvEEOS_IT_LS5_2EE = comdat any

$_ZNK8facebook5velox6memory10MemoryPool5Stats5emptyEv = comdat any

$_ZNKSt15__uniq_ptr_implIN8facebook5velox6memory15MemoryReclaimerESt14default_deleteIS3_EE6_M_ptrEv = comdat any

$_ZSt3getILm0EJPN8facebook5velox6memory15MemoryReclaimerESt14default_deleteIS3_EEERKNSt13tuple_elementIXT_ESt5tupleIJDpT0_EEE4typeERKSB_ = comdat any

$_ZSt12__get_helperILm0EPN8facebook5velox6memory15MemoryReclaimerEJSt14default_deleteIS3_EEERKT0_RKSt11_Tuple_implIXT_EJS7_DpT1_EE = comdat any

$_ZNSt11_Tuple_implILm0EJPN8facebook5velox6memory15MemoryReclaimerESt14default_deleteIS3_EEE7_M_headERKS7_ = comdat any

$_ZNSt10_Head_baseILm0EPN8facebook5velox6memory15MemoryReclaimerELb0EE7_M_headERKS5_ = comdat any

$_ZN3re23RE25ApplyIPFbRKNS_11StringPieceERKS0_PKPKNS0_3ArgEiES2_EEbT_T0_S6_ = comdat any

$_ZNSt10_HashtableImSt4pairIKmN8facebook5velox6memory14MemoryPoolImpl16AllocationRecordEESaIS7_ENSt8__detail10_Select1stESt8equal_toImESt4hashImENS9_18_Mod_range_hashingENS9_20_Default_ranged_hashENS9_20_Prime_rehash_policyENS9_17_Hashtable_traitsILb0ELb0ELb1EEEE7emplaceIJmS6_EEES0_INS9_14_Node_iteratorIS7_Lb0ELb0EEEbEDpOT_ = comdat any

$_ZNSt10_HashtableImSt4pairIKmN8facebook5velox6memory14MemoryPoolImpl16AllocationRecordEESaIS7_ENSt8__detail10_Select1stESt8equal_toImESt4hashImENS9_18_Mod_range_hashingENS9_20_Default_ranged_hashENS9_20_Prime_rehash_policyENS9_17_Hashtable_traitsILb0ELb0ELb1EEEE10_M_emplaceIJmS6_EEES0_INS9_14_Node_iteratorIS7_Lb0ELb0EEEbESt17integral_constantIbLb1EEDpOT_ = comdat any

$_ZNSt10_HashtableImSt4pairIKmN8facebook5velox6memory14MemoryPoolImpl16AllocationRecordEESaIS7_ENSt8__detail10_Select1stESt8equal_toImESt4hashImENS9_18_Mod_range_hashingENS9_20_Default_ranged_hashENS9_20_Prime_rehash_policyENS9_17_Hashtable_traitsILb0ELb0ELb1EEEE12_Scoped_nodeC2IJmS6_EEEPNS9_16_Hashtable_allocISaINS9_10_Hash_nodeIS7_Lb0EEEEEEDpOT_ = comdat any

$_ZNKSt8__detail10_Select1stclIRSt4pairIKmN8facebook5velox6memory14MemoryPoolImpl16AllocationRecordEEEEONS0_10__1st_typeIT_E4typeEOSC_ = comdat any

$_ZNSt8__detail21_Hash_node_value_baseISt4pairIKmN8facebook5velox6memory14MemoryPoolImpl16AllocationRecordEEE4_M_vEv = comdat any

$_ZNKSt10_HashtableImSt4pairIKmN8facebook5velox6memory14MemoryPoolImpl16AllocationRecordEESaIS7_ENSt8__detail10_Select1stESt8equal_toImESt4hashImENS9_18_Mod_range_hashingENS9_20_Default_ranged_hashENS9_20_Prime_rehash_policyENS9_17_Hashtable_traitsILb0ELb0ELb1EEEE4sizeEv = comdat any

$_ZNSt10_HashtableImSt4pairIKmN8facebook5velox6memory14MemoryPoolImpl16AllocationRecordEESaIS7_ENSt8__detail10_Select1stESt8equal_toImESt4hashImENS9_18_Mod_range_hashingENS9_20_Default_ranged_hashENS9_20_Prime_rehash_policyENS9_17_Hashtable_traitsILb0ELb0ELb1EEEE22__small_size_thresholdEv = comdat any

$_ZNSt10_HashtableImSt4pairIKmN8facebook5velox6memory14MemoryPoolImpl16AllocationRecordEESaIS7_ENSt8__detail10_Select1stESt8equal_toImESt4hashImENS9_18_Mod_range_hashingENS9_20_Default_ranged_hashENS9_20_Prime_rehash_policyENS9_17_Hashtable_traitsILb0ELb0ELb1EEEE5beginEv = comdat any

$_ZNSt10_HashtableImSt4pairIKmN8facebook5velox6memory14MemoryPoolImpl16AllocationRecordEESaIS7_ENSt8__detail10_Select1stESt8equal_toImESt4hashImENS9_18_Mod_range_hashingENS9_20_Default_ranged_hashENS9_20_Prime_rehash_policyENS9_17_Hashtable_traitsILb0ELb0ELb1EEEE3endEv = comdat any

$_ZNKSt8__detail15_Hashtable_baseImSt4pairIKmN8facebook5velox6memory14MemoryPoolImpl16AllocationRecordEENS_10_Select1stESt8equal_toImESt4hashImENS_18_Mod_range_hashingENS_20_Default_ranged_hashENS_17_Hashtable_traitsILb0ELb0ELb1EEEE13_M_key_equalsERS2_RKNS_16_Hash_node_valueIS8_Lb0EEE = comdat any

$_ZNSt4pairINSt8__detail14_Node_iteratorIS_IKmN8facebook5velox6memory14MemoryPoolImpl16AllocationRecordEELb0ELb0EEEbEC2IRS9_bTnNSt9enable_ifIXaaclsr5_PCCPE22_MoveConstructiblePairIT_T0_EEclsr5_PCCPE30_ImplicitlyMoveConvertiblePairISE_SF_EEEbE4typeELb1EEEOSE_OSF_ = comdat any

$_ZNKSt8__detail15_Hash_code_baseImSt4pairIKmN8facebook5velox6memory14MemoryPoolImpl16AllocationRecordEENS_10_Select1stESt4hashImENS_18_Mod_range_hashingENS_20_Default_ranged_hashELb0EE12_M_hash_codeERS2_ = comdat any

$_ZNKSt10_HashtableImSt4pairIKmN8facebook5velox6memory14MemoryPoolImpl16AllocationRecordEESaIS7_ENSt8__detail10_Select1stESt8equal_toImESt4hashImENS9_18_Mod_range_hashingENS9_20_Default_ranged_hashENS9_20_Prime_rehash_policyENS9_17_Hashtable_traitsILb0ELb0ELb1EEEE15_M_bucket_indexEm = comdat any

$_ZNKSt10_HashtableImSt4pairIKmN8facebook5velox6memory14MemoryPoolImpl16AllocationRecordEESaIS7_ENSt8__detail10_Select1stESt8equal_toImESt4hashImENS9_18_Mod_range_hashingENS9_20_Default_ranged_hashENS9_20_Prime_rehash_policyENS9_17_Hashtable_traitsILb0ELb0ELb1EEEE12_M_find_nodeEmRS1_m = comdat any

$_ZNSt8__detail14_Node_iteratorISt4pairIKmN8facebook5velox6memory14MemoryPoolImpl16AllocationRecordEELb0ELb0EEC2EPNS_10_Hash_nodeIS8_Lb0EEE = comdat any

$_ZNSt4pairINSt8__detail14_Node_iteratorIS_IKmN8facebook5velox6memory14MemoryPoolImpl16AllocationRecordEELb0ELb0EEEbEC2IS9_bTnNSt9enable_ifIXaaclsr5_PCCPE22_MoveConstructiblePairIT_T0_EEclsr5_PCCPE30_ImplicitlyMoveConvertiblePairISD_SE_EEEbE4typeELb1EEEOSD_OSE_ = comdat any

$_ZNSt10_HashtableImSt4pairIKmN8facebook5velox6memory14MemoryPoolImpl16AllocationRecordEESaIS7_ENSt8__detail10_Select1stESt8equal_toImESt4hashImENS9_18_Mod_range_hashingENS9_20_Default_ranged_hashENS9_20_Prime_rehash_policyENS9_17_Hashtable_traitsILb0ELb0ELb1EEEE21_M_insert_unique_nodeEmmPNS9_10_Hash_nodeIS7_Lb0EEEm = comdat any

$_ZNSt10_HashtableImSt4pairIKmN8facebook5velox6memory14MemoryPoolImpl16AllocationRecordEESaIS7_ENSt8__detail10_Select1stESt8equal_toImESt4hashImENS9_18_Mod_range_hashingENS9_20_Default_ranged_hashENS9_20_Prime_rehash_policyENS9_17_Hashtable_traitsILb0ELb0ELb1EEEE12_Scoped_nodeD2Ev = comdat any

$_ZNSt8__detail16_Hashtable_allocISaINS_10_Hash_nodeISt4pairIKmN8facebook5velox6memory14MemoryPoolImpl16AllocationRecordEELb0EEEEE16_M_allocate_nodeIJmS8_EEEPSA_DpOT_ = comdat any

$_ZNSt16allocator_traitsISaINSt8__detail10_Hash_nodeISt4pairIKmN8facebook5velox6memory14MemoryPoolImpl16AllocationRecordEELb0EEEEE8allocateERSB_m = comdat any

$_ZSt12__to_addressINSt8__detail10_Hash_nodeISt4pairIKmN8facebook5velox6memory14MemoryPoolImpl16AllocationRecordEELb0EEEEPT_SC_ = comdat any

$_ZNSt8__detail10_Hash_nodeISt4pairIKmN8facebook5velox6memory14MemoryPoolImpl16AllocationRecordEELb0EEC2Ev = comdat any

$_ZNSt16allocator_traitsISaINSt8__detail10_Hash_nodeISt4pairIKmN8facebook5velox6memory14MemoryPoolImpl16AllocationRecordEELb0EEEEE9constructIS9_JmS8_EEEvRSB_PT_DpOT0_ = comdat any

$_ZNSt15__new_allocatorINSt8__detail10_Hash_nodeISt4pairIKmN8facebook5velox6memory14MemoryPoolImpl16AllocationRecordEELb0EEEE8allocateEmPKv = comdat any

$_ZNKSt15__new_allocatorINSt8__detail10_Hash_nodeISt4pairIKmN8facebook5velox6memory14MemoryPoolImpl16AllocationRecordEELb0EEEE11_M_max_sizeEv = comdat any

$_ZNSt15__new_allocatorINSt8__detail10_Hash_nodeISt4pairIKmN8facebook5velox6memory14MemoryPoolImpl16AllocationRecordEELb0EEEE9constructIS9_JmS8_EEEvPT_DpOT0_ = comdat any

$_ZNSt4pairIKmN8facebook5velox6memory14MemoryPoolImpl16AllocationRecordEEC2ImS5_TnNSt9enable_ifIXaaclsr5_PCCPE22_MoveConstructiblePairIT_T0_EEclsr5_PCCPE30_ImplicitlyMoveConvertiblePairIS9_SA_EEEbE4typeELb1EEEOS9_OSA_ = comdat any

$_ZN8facebook5velox6memory14MemoryPoolImpl16AllocationRecordC2EOS3_ = comdat any

$_ZNSt8__detail22_Hashtable_hash_traitsISt4hashImEE22__small_size_thresholdEv = comdat any

$_ZNKSt8__detail15_Hashtable_baseImSt4pairIKmN8facebook5velox6memory14MemoryPoolImpl16AllocationRecordEENS_10_Select1stESt8equal_toImESt4hashImENS_18_Mod_range_hashingENS_20_Default_ranged_hashENS_17_Hashtable_traitsILb0ELb0ELb1EEEE5_M_eqEv = comdat any

$_ZNKSt8equal_toImEclERKmS2_ = comdat any

$_ZNKSt8__detail10_Select1stclIRKSt4pairIKmN8facebook5velox6memory14MemoryPoolImpl16AllocationRecordEEEEONS0_10__1st_typeIT_E4typeEOSD_ = comdat any

$_ZNKSt8__detail21_Hash_node_value_baseISt4pairIKmN8facebook5velox6memory14MemoryPoolImpl16AllocationRecordEEE4_M_vEv = comdat any

$_ZNKSt8__detail21_Hashtable_ebo_helperILi0ESt8equal_toImELb1EE7_M_cgetEv = comdat any

$_ZNKSt8__detail21_Hash_node_value_baseISt4pairIKmN8facebook5velox6memory14MemoryPoolImpl16AllocationRecordEEE9_M_valptrEv = comdat any

$_ZNK9__gnu_cxx16__aligned_bufferISt4pairIKmN8facebook5velox6memory14MemoryPoolImpl16AllocationRecordEEE6_M_ptrEv = comdat any

$_ZNK9__gnu_cxx16__aligned_bufferISt4pairIKmN8facebook5velox6memory14MemoryPoolImpl16AllocationRecordEEE7_M_addrEv = comdat any

$_ZNKSt8__detail15_Hash_code_baseImSt4pairIKmN8facebook5velox6memory14MemoryPoolImpl16AllocationRecordEENS_10_Select1stESt4hashImENS_18_Mod_range_hashingENS_20_Default_ranged_hashELb0EE7_M_hashEv = comdat any

$_ZNKSt4hashImEclEm = comdat any

$_ZNKSt8__detail21_Hashtable_ebo_helperILi1ESt4hashImELb1EE7_M_cgetEv = comdat any

$_ZNKSt8__detail15_Hash_code_baseImSt4pairIKmN8facebook5velox6memory14MemoryPoolImpl16AllocationRecordEENS_10_Select1stESt4hashImENS_18_Mod_range_hashingENS_20_Default_ranged_hashELb0EE15_M_bucket_indexEmm = comdat any

$_ZNKSt10_HashtableImSt4pairIKmN8facebook5velox6memory14MemoryPoolImpl16AllocationRecordEESaIS7_ENSt8__detail10_Select1stESt8equal_toImESt4hashImENS9_18_Mod_range_hashingENS9_20_Default_ranged_hashENS9_20_Prime_rehash_policyENS9_17_Hashtable_traitsILb0ELb0ELb1EEEE19_M_find_before_nodeEmRS1_m = comdat any

$_ZNKSt8__detail15_Hashtable_baseImSt4pairIKmN8facebook5velox6memory14MemoryPoolImpl16AllocationRecordEENS_10_Select1stESt8equal_toImESt4hashImENS_18_Mod_range_hashingENS_20_Default_ranged_hashENS_17_Hashtable_traitsILb0ELb0ELb1EEEE9_M_equalsERS2_mRKNS_16_Hash_node_valueIS8_Lb0EEE = comdat any

$_ZNKSt10_HashtableImSt4pairIKmN8facebook5velox6memory14MemoryPoolImpl16AllocationRecordEESaIS7_ENSt8__detail10_Select1stESt8equal_toImESt4hashImENS9_18_Mod_range_hashingENS9_20_Default_ranged_hashENS9_20_Prime_rehash_policyENS9_17_Hashtable_traitsILb0ELb0ELb1EEEE15_M_bucket_indexERKNS9_16_Hash_node_valueIS7_Lb0EEE = comdat any

$_ZNSt8__detail15_Hashtable_baseImSt4pairIKmN8facebook5velox6memory14MemoryPoolImpl16AllocationRecordEENS_10_Select1stESt8equal_toImESt4hashImENS_18_Mod_range_hashingENS_20_Default_ranged_hashENS_17_Hashtable_traitsILb0ELb0ELb1EEEE9_S_equalsEmRKNS_21_Hash_node_code_cacheILb0EEE = comdat any

$_ZNKSt8__detail15_Hash_code_baseImSt4pairIKmN8facebook5velox6memory14MemoryPoolImpl16AllocationRecordEENS_10_Select1stESt4hashImENS_18_Mod_range_hashingENS_20_Default_ranged_hashELb0EE15_M_bucket_indexERKNS_16_Hash_node_valueIS8_Lb0EEEm = comdat any

$_ZNSt8__detail19_Node_iterator_baseISt4pairIKmN8facebook5velox6memory14MemoryPoolImpl16AllocationRecordEELb0EEC2EPNS_10_Hash_nodeIS8_Lb0EEE = comdat any

$_ZNSt10_HashtableImSt4pairIKmN8facebook5velox6memory14MemoryPoolImpl16AllocationRecordEESaIS7_ENSt8__detail10_Select1stESt8equal_toImESt4hashImENS9_18_Mod_range_hashingENS9_20_Default_ranged_hashENS9_20_Prime_rehash_policyENS9_17_Hashtable_traitsILb0ELb0ELb1EEEE9_M_rehashEmRS1_ = comdat any

$_ZNKSt8__detail15_Hash_code_baseImSt4pairIKmN8facebook5velox6memory14MemoryPoolImpl16AllocationRecordEENS_10_Select1stESt4hashImENS_18_Mod_range_hashingENS_20_Default_ranged_hashELb0EE13_M_store_codeERNS_21_Hash_node_code_cacheILb0EEEm = comdat any

$_ZNSt10_HashtableImSt4pairIKmN8facebook5velox6memory14MemoryPoolImpl16AllocationRecordEESaIS7_ENSt8__detail10_Select1stESt8equal_toImESt4hashImENS9_18_Mod_range_hashingENS9_20_Default_ranged_hashENS9_20_Prime_rehash_policyENS9_17_Hashtable_traitsILb0ELb0ELb1EEEE22_M_insert_bucket_beginEmPNS9_10_Hash_nodeIS7_Lb0EEE = comdat any

$_ZNSt10_HashtableImSt4pairIKmN8facebook5velox6memory14MemoryPoolImpl16AllocationRecordEESaIS7_ENSt8__detail10_Select1stESt8equal_toImESt4hashImENS9_18_Mod_range_hashingENS9_20_Default_ranged_hashENS9_20_Prime_rehash_policyENS9_17_Hashtable_traitsILb0ELb0ELb1EEEE13_M_rehash_auxEmSt17integral_constantIbLb1EE = comdat any

$_ZNSt10_HashtableImSt4pairIKmN8facebook5velox6memory14MemoryPoolImpl16AllocationRecordEESaIS7_ENSt8__detail10_Select1stESt8equal_toImESt4hashImENS9_18_Mod_range_hashingENS9_20_Default_ranged_hashENS9_20_Prime_rehash_policyENS9_17_Hashtable_traitsILb0ELb0ELb1EEEE19_M_allocate_bucketsEm = comdat any

$_ZNSt8__detail16_Hashtable_allocISaINS_10_Hash_nodeISt4pairIKmN8facebook5velox6memory14MemoryPoolImpl16AllocationRecordEELb0EEEEE19_M_allocate_bucketsEm = comdat any

$_ZNSt10_HashtableImSt4pairIKmN8facebook5velox6memory14MemoryPoolImpl16AllocationRecordEESaIS7_ENSt8__detail10_Select1stESt8equal_toImESt4hashImENS9_18_Mod_range_hashingENS9_20_Default_ranged_hashENS9_20_Prime_rehash_policyENS9_17_Hashtable_traitsILb0ELb0ELb1EEEE4findERS1_ = comdat any

$_ZNSt10_HashtableImSt4pairIKmN8facebook5velox6memory14MemoryPoolImpl16AllocationRecordEESaIS7_ENSt8__detail10_Select1stESt8equal_toImESt4hashImENS9_18_Mod_range_hashingENS9_20_Default_ranged_hashENS9_20_Prime_rehash_policyENS9_17_Hashtable_traitsILb0ELb0ELb1EEEE5eraseERS1_ = comdat any

$_ZNSt10_HashtableImSt4pairIKmN8facebook5velox6memory14MemoryPoolImpl16AllocationRecordEESaIS7_ENSt8__detail10_Select1stESt8equal_toImESt4hashImENS9_18_Mod_range_hashingENS9_20_Default_ranged_hashENS9_20_Prime_rehash_policyENS9_17_Hashtable_traitsILb0ELb0ELb1EEEE8_M_eraseESt17integral_constantIbLb1EERS1_ = comdat any

$_ZNSt10_HashtableImSt4pairIKmN8facebook5velox6memory14MemoryPoolImpl16AllocationRecordEESaIS7_ENSt8__detail10_Select1stESt8equal_toImESt4hashImENS9_18_Mod_range_hashingENS9_20_Default_ranged_hashENS9_20_Prime_rehash_policyENS9_17_Hashtable_traitsILb0ELb0ELb1EEEE19_M_find_before_nodeERS1_ = comdat any

$_ZNSt10_HashtableImSt4pairIKmN8facebook5velox6memory14MemoryPoolImpl16AllocationRecordEESaIS7_ENSt8__detail10_Select1stESt8equal_toImESt4hashImENS9_18_Mod_range_hashingENS9_20_Default_ranged_hashENS9_20_Prime_rehash_policyENS9_17_Hashtable_traitsILb0ELb0ELb1EEEE8_M_eraseEmPNS9_15_Hash_node_baseEPNS9_10_Hash_nodeIS7_Lb0EEE = comdat any

$_ZNSt10_HashtableImSt4pairIKmN8facebook5velox6memory14MemoryPoolImpl16AllocationRecordEESaIS7_ENSt8__detail10_Select1stESt8equal_toImESt4hashImENS9_18_Mod_range_hashingENS9_20_Default_ranged_hashENS9_20_Prime_rehash_policyENS9_17_Hashtable_traitsILb0ELb0ELb1EEEE22_M_remove_bucket_beginEmPNS9_10_Hash_nodeIS7_Lb0EEEm = comdat any

$_ZNKSt10_HashtableImSt4pairIKmN8facebook5velox6memory14MemoryPoolImpl16AllocationRecordEESaIS7_ENSt8__detail10_Select1stESt8equal_toImESt4hashImENS9_18_Mod_range_hashingENS9_20_Default_ranged_hashENS9_20_Prime_rehash_policyENS9_17_Hashtable_traitsILb0ELb0ELb1EEEE5emptyEv = comdat any

$_ZNSt8__detail19_Node_iterator_baseISt4pairIKmN8facebook5velox6memory14MemoryPoolImpl16AllocationRecordEELb0EE7_M_incrEv = comdat any

$_ZTSSt23enable_shared_from_thisIN8facebook5velox6memory10MemoryPoolEE = comdat any

$_ZTISt23enable_shared_from_thisIN8facebook5velox6memory10MemoryPoolEE = comdat any

$_ZZN8facebook5velox6memory14MemoryPoolImpl18debugPoolNameRegexB5cxx11EvE19debugPoolNameRegex_B5cxx11 = comdat any

$_ZGVZN8facebook5velox6memory14MemoryPoolImpl18debugPoolNameRegexB5cxx11EvE19debugPoolNameRegex_B5cxx11 = comdat any

$_ZTVSt23_Sp_counted_ptr_inplaceIN8facebook5velox6memory14MemoryPoolImplESaIvELN9__gnu_cxx12_Lock_policyE2EE = comdat any

$_ZTSSt23_Sp_counted_ptr_inplaceIN8facebook5velox6memory14MemoryPoolImplESaIvELN9__gnu_cxx12_Lock_policyE2EE = comdat any

$_ZTSSt16_Sp_counted_baseILN9__gnu_cxx12_Lock_policyE2EE = comdat any

$_ZTSSt11_Mutex_baseILN9__gnu_cxx12_Lock_policyE2EE = comdat any

$_ZTISt11_Mutex_baseILN9__gnu_cxx12_Lock_policyE2EE = comdat any

$_ZTISt16_Sp_counted_baseILN9__gnu_cxx12_Lock_policyE2EE = comdat any

$_ZTISt23_Sp_counted_ptr_inplaceIN8facebook5velox6memory14MemoryPoolImplESaIvELN9__gnu_cxx12_Lock_policyE2EE = comdat any

$_ZTVSt16_Sp_counted_baseILN9__gnu_cxx12_Lock_policyE2EE = comdat any

$_ZTSSt19_Sp_make_shared_tag = comdat any

$_ZTISt19_Sp_make_shared_tag = comdat any

$_ZZNSt19_Sp_make_shared_tag5_S_tiEvE5__tag = comdat any

@.str = private unnamed_addr constant [166 x i8] c"currentBytes:{} reservedBytes:{} peakBytes:{} cumulativeBytes:{} numAllocs:{} numFrees:{} numReserves:{} numReleases:{} numShrinks:{} numReclaims:{} numCollisions:{}\00", align 1
@_ZTVN8facebook5velox6memory10MemoryPoolE = unnamed_addr constant { [52 x ptr] } { [52 x ptr] [ptr null, ptr @_ZTIN8facebook5velox6memory10MemoryPoolE, ptr @_ZN8facebook5velox6memory10MemoryPoolD1Ev, ptr @_ZN8facebook5velox6memory10MemoryPoolD0Ev, ptr @_ZNK8facebook5velox6memory10MemoryPool4nameB5cxx11Ev, ptr @_ZNK8facebook5velox6memory10MemoryPool4kindEv, ptr @_ZNK8facebook5velox6memory10MemoryPool6parentEv, ptr @_ZNK8facebook5velox6memory10MemoryPool4rootEv, ptr @_ZNK8facebook5velox6memory10MemoryPool13getChildCountEv, ptr @_ZNK8facebook5velox6memory10MemoryPool10trackUsageEv, ptr @_ZNK8facebook5velox6memory10MemoryPool10threadSafeEv, ptr @_ZNK8facebook5velox6memory10MemoryPool21testingCheckUsageLeakEv, ptr @_ZNK8facebook5velox6memory10MemoryPool13visitChildrenERKSt8functionIFbPS2_EE, ptr @_ZN8facebook5velox6memory10MemoryPool12addLeafChildERKNSt7__cxx1112basic_stringIcSt11char_traitsIcESaIcEEEbSt10unique_ptrINS1_15MemoryReclaimerESt14default_deleteISC_EE, ptr @_ZN8facebook5velox6memory10MemoryPool17addAggregateChildERKNSt7__cxx1112basic_stringIcSt11char_traitsIcESaIcEEESt10unique_ptrINS1_15MemoryReclaimerESt14default_deleteISC_EE, ptr @__cxa_pure_virtual, ptr @__cxa_pure_virtual, ptr @__cxa_pure_virtual, ptr @__cxa_pure_virtual, ptr @__cxa_pure_virtual, ptr @__cxa_pure_virtual, ptr @__cxa_pure_virtual, ptr @__cxa_pure_virtual, ptr @__cxa_pure_virtual, ptr @__cxa_pure_virtual, ptr @__cxa_pure_virtual, ptr @_ZN8facebook5velox6memory10MemoryPool13preferredSizeEm, ptr @_ZNK8facebook5velox6memory10MemoryPool9alignmentEv, ptr @_ZNK8facebook5velox6memory10MemoryPool11maxCapacityEv, ptr @__cxa_pure_virtual, ptr @__cxa_pure_virtual, ptr @__cxa_pure_virtual, ptr @__cxa_pure_virtual, ptr @__cxa_pure_virtual, ptr @__cxa_pure_virtual, ptr @__cxa_pure_virtual, ptr @__cxa_pure_virtual, ptr @__cxa_pure_virtual, ptr @__cxa_pure_virtual, ptr @__cxa_pure_virtual, ptr @__cxa_pure_virtual, ptr @__cxa_pure_virtual, ptr @__cxa_pure_virtual, ptr @__cxa_pure_virtual, ptr @__cxa_pure_virtual, ptr @__cxa_pure_virtual, ptr @__cxa_pure_virtual, ptr @__cxa_pure_virtual, ptr @__cxa_pure_virtual, ptr @__cxa_pure_virtual, ptr @__cxa_pure_virtual, ptr @_ZN8facebook5velox6memory10MemoryPool9dropChildEPKS2_] }, align 8
@.str.1 = private unnamed_addr constant [5 x i8] c"LEAF\00", align 1
@.str.2 = private unnamed_addr constant [10 x i8] c"AGGREGATE\00", align 1
@.str.3 = private unnamed_addr constant [11 x i8] c"UNKNOWN_{}\00", align 1
@_ZTVN8facebook5velox6memory14MemoryPoolImplE = unnamed_addr constant { [52 x ptr] } { [52 x ptr] [ptr null, ptr @_ZTIN8facebook5velox6memory14MemoryPoolImplE, ptr @_ZN8facebook5velox6memory14MemoryPoolImplD1Ev, ptr @_ZN8facebook5velox6memory14MemoryPoolImplD0Ev, ptr @_ZNK8facebook5velox6memory10MemoryPool4nameB5cxx11Ev, ptr @_ZNK8facebook5velox6memory10MemoryPool4kindEv, ptr @_ZNK8facebook5velox6memory10MemoryPool6parentEv, ptr @_ZNK8facebook5velox6memory10MemoryPool4rootEv, ptr @_ZNK8facebook5velox6memory10MemoryPool13getChildCountEv, ptr @_ZNK8facebook5velox6memory10MemoryPool10trackUsageEv, ptr @_ZNK8facebook5velox6memory10MemoryPool10threadSafeEv, ptr @_ZNK8facebook5velox6memory10MemoryPool21testingCheckUsageLeakEv, ptr @_ZNK8facebook5velox6memory10MemoryPool13visitChildrenERKSt8functionIFbPS2_EE, ptr @_ZN8facebook5velox6memory10MemoryPool12addLeafChildERKNSt7__cxx1112basic_stringIcSt11char_traitsIcESaIcEEEbSt10unique_ptrINS1_15MemoryReclaimerESt14default_deleteISC_EE, ptr @_ZN8facebook5velox6memory10MemoryPool17addAggregateChildERKNSt7__cxx1112basic_stringIcSt11char_traitsIcESaIcEEESt10unique_ptrINS1_15MemoryReclaimerESt14default_deleteISC_EE, ptr @_ZN8facebook5velox6memory14MemoryPoolImpl8allocateEl, ptr @_ZN8facebook5velox6memory14MemoryPoolImpl18allocateZeroFilledEll, ptr @_ZN8facebook5velox6memory14MemoryPoolImpl10reallocateEPvll, ptr @_ZN8facebook5velox6memory14MemoryPoolImpl4freeEPvl, ptr @_ZN8facebook5velox6memory14MemoryPoolImpl21allocateNonContiguousEmRNS1_10AllocationEm, ptr @_ZN8facebook5velox6memory14MemoryPoolImpl17freeNonContiguousERNS1_10AllocationE, ptr @_ZNK8facebook5velox6memory14MemoryPoolImpl16largestSizeClassEv, ptr @_ZNK8facebook5velox6memory14MemoryPoolImpl11sizeClassesEv, ptr @_ZN8facebook5velox6memory14MemoryPoolImpl18allocateContiguousEmRNS1_20ContiguousAllocationEm, ptr @_ZN8facebook5velox6memory14MemoryPoolImpl14freeContiguousERNS1_20ContiguousAllocationE, ptr @_ZN8facebook5velox6memory14MemoryPoolImpl14growContiguousEmRNS1_20ContiguousAllocationE, ptr @_ZN8facebook5velox6memory10MemoryPool13preferredSizeEm, ptr @_ZNK8facebook5velox6memory10MemoryPool9alignmentEv, ptr @_ZNK8facebook5velox6memory10MemoryPool11maxCapacityEv, ptr @_ZNK8facebook5velox6memory14MemoryPoolImpl8capacityEv, ptr @_ZNK8facebook5velox6memory14MemoryPoolImpl12currentBytesEv, ptr @_ZNK8facebook5velox6memory14MemoryPoolImpl9peakBytesEv, ptr @_ZNK8facebook5velox6memory14MemoryPoolImpl20availableReservationEv, ptr @_ZNK8facebook5velox6memory14MemoryPoolImpl13reservedBytesEv, ptr @_ZN8facebook5velox6memory14MemoryPoolImpl12maybeReserveEm, ptr @_ZN8facebook5velox6memory14MemoryPoolImpl7releaseEv, ptr @_ZNK8facebook5velox6memory14MemoryPoolImpl9freeBytesEv, ptr @_ZN8facebook5velox6memory14MemoryPoolImpl6shrinkEm, ptr @_ZN8facebook5velox6memory14MemoryPoolImpl4growEm, ptr @_ZN8facebook5velox6memory14MemoryPoolImpl12setReclaimerESt10unique_ptrINS1_15MemoryReclaimerESt14default_deleteIS4_EE, ptr @_ZNK8facebook5velox6memory14MemoryPoolImpl9reclaimerEv, ptr @_ZN8facebook5velox6memory14MemoryPoolImpl16enterArbitrationEv, ptr @_ZN8facebook5velox6memory14MemoryPoolImpl16leaveArbitrationEv, ptr @_ZNK8facebook5velox6memory14MemoryPoolImpl16reclaimableBytesERm, ptr @_ZN8facebook5velox6memory14MemoryPoolImpl7reclaimEmmRNS1_15MemoryReclaimer5StatsE, ptr @_ZN8facebook5velox6memory14MemoryPoolImpl5abortERKNSt15__exception_ptr13exception_ptrE, ptr @_ZNK8facebook5velox6memory14MemoryPoolImpl7abortedEv, ptr @_ZNK8facebook5velox6memory14MemoryPoolImpl5statsEv, ptr @_ZNK8facebook5velox6memory14MemoryPoolImpl8toStringB5cxx11Ev, ptr @_ZNK8facebook5velox6memory14MemoryPoolImpl15treeMemoryUsageB5cxx11Ev, ptr @_ZN8facebook5velox6memory14MemoryPoolImpl8genChildESt10shared_ptrINS1_10MemoryPoolEERKNSt7__cxx1112basic_stringIcSt11char_traitsIcESaIcEEENS4_4KindEbSt10unique_ptrINS1_15MemoryReclaimerESt14default_deleteISG_EE, ptr @_ZN8facebook5velox6memory10MemoryPool9dropChildEPKS2_] }, align 8
@.str.4 = private unnamed_addr constant [1 x i8] zeroinitializer, align 1
@.str.5 = private unnamed_addr constant [29 x i8] c"{} failed with {} from {} {}\00", align 1
@__FUNCTION__._ZN8facebook5velox6memory14MemoryPoolImpl8allocateEl = private unnamed_addr constant [9 x i8] c"allocate\00", align 1
@.str.6 = private unnamed_addr constant [49 x i8] c"{} failed with {} entries and {} each from {} {}\00", align 1
@__FUNCTION__._ZN8facebook5velox6memory14MemoryPoolImpl18allocateZeroFilledEll = private unnamed_addr constant [19 x i8] c"allocateZeroFilled\00", align 1
@.str.7 = private unnamed_addr constant [44 x i8] c"{} failed with new {} and old {} from {} {}\00", align 1
@__FUNCTION__._ZN8facebook5velox6memory14MemoryPoolImpl10reallocateEPvll = private unnamed_addr constant [11 x i8] c"reallocate\00", align 1
@.str.8 = private unnamed_addr constant [71 x i8] c"facebook::velox::common::memory::MemoryPoolImpl::allocateNonContiguous\00", align 1
@.str.9 = private unnamed_addr constant [35 x i8] c"{} failed with {} pages from {} {}\00", align 1
@__FUNCTION__._ZN8facebook5velox6memory14MemoryPoolImpl21allocateNonContiguousEmRNS1_10AllocationEm = private unnamed_addr constant [22 x i8] c"allocateNonContiguous\00", align 1
@__FUNCTION__._ZN8facebook5velox6memory14MemoryPoolImpl18allocateContiguousEmRNS1_20ContiguousAllocationEm = private unnamed_addr constant [19 x i8] c"allocateContiguous\00", align 1
@__FUNCTION__._ZN8facebook5velox6memory14MemoryPoolImpl14growContiguousEmRNS1_20ContiguousAllocationE = private unnamed_addr constant [15 x i8] c"growContiguous\00", align 1
@.str.10 = private unnamed_addr constant [62 x i8] c"facebook::velox::common::memory::MemoryPoolImpl::maybeReserve\00", align 1
@_ZTISt9exception = external constant ptr
@.str.11 = private unnamed_addr constant [59 x i8] c"facebook::velox::memory::MemoryPoolImpl::reserveThreadSafe\00", align 1
@.str.12 = private unnamed_addr constant [91 x i8] c"facebook::velox::memory::MemoryPoolImpl::incrementReservationThreadSafe::AfterGrowCallback\00", align 1
@_ZN3fLB60FLAGS_velox_suppress_memory_capacity_exceeding_error_messageE = external global i8, align 1
@.str.13 = private unnamed_addr constant [2 x i8] c"\0A\00", align 1
@.str.14 = private unnamed_addr constant [6 x i8] c"\0ATop \00", align 1
@.str.15 = private unnamed_addr constant [27 x i8] c" leaf memory pool usages:\0A\00", align 1
@.str.16 = private unnamed_addr constant [19 x i8] c"Detected total of \00", align 1
@.str.17 = private unnamed_addr constant [22 x i8] c" leaked allocations:\0A\00", align 1
@.str.18 = private unnamed_addr constant [38 x i8] c"======== Leaked memory allocation of \00", align 1
@.str.19 = private unnamed_addr constant [17 x i8] c" bytes ========\0A\00", align 1
@.str.20 = private unnamed_addr constant [124 x i8] c"generated/home/dtcxzyw/WorkSpace/Projects/compilers/llvm-opt-benchmark/bench/velox/velox/velox/common/memory/MemoryPool.cpp\00", align 1
@_ZTVN10__cxxabiv121__vmi_class_type_infoE = external global [0 x ptr]
@_ZTSN8facebook5velox6memory10MemoryPoolE = constant [37 x i8] c"N8facebook5velox6memory10MemoryPoolE\00", align 1
@_ZTVN10__cxxabiv117__class_type_infoE = external global [0 x ptr]
@_ZTSSt23enable_shared_from_thisIN8facebook5velox6memory10MemoryPoolEE = linkonce_odr constant [66 x i8] c"St23enable_shared_from_thisIN8facebook5velox6memory10MemoryPoolEE\00", comdat, align 1
@_ZTISt23enable_shared_from_thisIN8facebook5velox6memory10MemoryPoolEE = linkonce_odr constant { ptr, ptr } { ptr getelementptr inbounds (ptr, ptr @_ZTVN10__cxxabiv117__class_type_infoE, i64 2), ptr @_ZTSSt23enable_shared_from_thisIN8facebook5velox6memory10MemoryPoolEE }, comdat, align 8
@_ZTIN8facebook5velox6memory10MemoryPoolE = constant { ptr, ptr, i32, i32, ptr, i64 } { ptr getelementptr inbounds (ptr, ptr @_ZTVN10__cxxabiv121__vmi_class_type_infoE, i64 2), ptr @_ZTSN8facebook5velox6memory10MemoryPoolE, i32 0, i32 1, ptr @_ZTISt23enable_shared_from_thisIN8facebook5velox6memory10MemoryPoolEE, i64 2050 }, align 8
@_ZTVN10__cxxabiv120__si_class_type_infoE = external global [0 x ptr]
@_ZTSN8facebook5velox6memory14MemoryPoolImplE = constant [41 x i8] c"N8facebook5velox6memory14MemoryPoolImplE\00", align 1
@_ZTIN8facebook5velox6memory14MemoryPoolImplE = constant { ptr, ptr, ptr } { ptr getelementptr inbounds (ptr, ptr @_ZTVN10__cxxabiv120__si_class_type_infoE, i64 2), ptr @_ZTSN8facebook5velox6memory14MemoryPoolImplE, ptr @_ZTIN8facebook5velox6memory10MemoryPoolE }, align 8
@__libc_single_threaded = external global i8, align 1
@_ZZN8facebook5velox6memory14MemoryPoolImpl18debugPoolNameRegexB5cxx11EvE19debugPoolNameRegex_B5cxx11 = linkonce_odr global %"struct.folly::Synchronized" zeroinitializer, comdat, align 8
@_ZGVZN8facebook5velox6memory14MemoryPoolImpl18debugPoolNameRegexB5cxx11EvE19debugPoolNameRegex_B5cxx11 = linkonce_odr global i64 0, comdat, align 8
@__dso_handle = external hidden global i8
@.str.21 = private unnamed_addr constant [32 x i8] c"{} usage {} reserved {} peak {}\00", align 1
@.str.22 = private unnamed_addr constant [16 x i8] c"vector::reserve\00", align 1
@.str.23 = private unnamed_addr constant [26 x i8] c"vector::_M_realloc_insert\00", align 1
@_ZTVNSt7__cxx1115basic_stringbufIcSt11char_traitsIcESaIcEEE = external unnamed_addr constant { [16 x ptr] }, align 8
@.str.24 = private unnamed_addr constant [13 x i8] c"Memory Pool[\00", align 1
@.str.25 = private unnamed_addr constant [2 x i8] c" \00", align 1
@.str.26 = private unnamed_addr constant [7 x i8] c" root[\00", align 1
@.str.27 = private unnamed_addr constant [10 x i8] c"] parent[\00", align 1
@.str.28 = private unnamed_addr constant [5 x i8] c"null\00", align 1
@.str.29 = private unnamed_addr constant [3 x i8] c"] \00", align 1
@.str.30 = private unnamed_addr constant [13 x i8] c" track-usage\00", align 1
@.str.31 = private unnamed_addr constant [16 x i8] c" no-usage-track\00", align 1
@.str.32 = private unnamed_addr constant [13 x i8] c" thread-safe\00", align 1
@.str.33 = private unnamed_addr constant [17 x i8] c" non-thread-safe\00", align 1
@.str.34 = private unnamed_addr constant [3 x i8] c"]<\00", align 1
@.str.35 = private unnamed_addr constant [14 x i8] c"max capacity \00", align 1
@.str.36 = private unnamed_addr constant [24 x i8] c"unlimited max capacity \00", align 1
@.str.37 = private unnamed_addr constant [10 x i8] c"capacity \00", align 1
@.str.38 = private unnamed_addr constant [20 x i8] c"unlimited capacity \00", align 1
@.str.39 = private unnamed_addr constant [6 x i8] c"used \00", align 1
@.str.40 = private unnamed_addr constant [12 x i8] c" available \00", align 1
@.str.41 = private unnamed_addr constant [20 x i8] c" reservation [used \00", align 1
@.str.42 = private unnamed_addr constant [12 x i8] c", reserved \00", align 1
@.str.43 = private unnamed_addr constant [7 x i8] c", min \00", align 1
@.str.44 = private unnamed_addr constant [20 x i8] c"] counters [allocs \00", align 1
@.str.45 = private unnamed_addr constant [9 x i8] c", frees \00", align 1
@.str.46 = private unnamed_addr constant [12 x i8] c", reserves \00", align 1
@.str.47 = private unnamed_addr constant [12 x i8] c", releases \00", align 1
@.str.48 = private unnamed_addr constant [14 x i8] c", collisions \00", align 1
@.str.49 = private unnamed_addr constant [3 x i8] c"])\00", align 1
@.str.50 = private unnamed_addr constant [2 x i8] c">\00", align 1
@.str.51 = private unnamed_addr constant [50 x i8] c"basic_string: construction from null is not valid\00", align 1
@_ZSt7nothrow = external global %"struct.std::nothrow_t", align 1
@_ZTISt12bad_weak_ptr = external constant ptr
@_ZTVSt12bad_weak_ptr = external unnamed_addr constant { [5 x ptr] }, align 8
@_ZTVSt9exception = external unnamed_addr constant { [5 x ptr] }, align 8
@"_ZTSZN8facebook5velox6memory14MemoryPoolImpl21allocateNonContiguousEmRNS1_10AllocationEmE3$_0" = internal constant [90 x i8] c"ZN8facebook5velox6memory14MemoryPoolImpl21allocateNonContiguousEmRNS1_10AllocationEmE3$_0\00", align 1
@"_ZTIZN8facebook5velox6memory14MemoryPoolImpl21allocateNonContiguousEmRNS1_10AllocationEmE3$_0" = internal constant { ptr, ptr } { ptr getelementptr inbounds (ptr, ptr @_ZTVN10__cxxabiv117__class_type_infoE, i64 2), ptr @"_ZTSZN8facebook5velox6memory14MemoryPoolImpl21allocateNonContiguousEmRNS1_10AllocationEmE3$_0" }, align 8
@"_ZTSZN8facebook5velox6memory14MemoryPoolImpl18allocateContiguousEmRNS1_20ContiguousAllocationEmE3$_0" = internal constant [97 x i8] c"ZN8facebook5velox6memory14MemoryPoolImpl18allocateContiguousEmRNS1_20ContiguousAllocationEmE3$_0\00", align 1
@"_ZTIZN8facebook5velox6memory14MemoryPoolImpl18allocateContiguousEmRNS1_20ContiguousAllocationEmE3$_0" = internal constant { ptr, ptr } { ptr getelementptr inbounds (ptr, ptr @_ZTVN10__cxxabiv117__class_type_infoE, i64 2), ptr @"_ZTSZN8facebook5velox6memory14MemoryPoolImpl18allocateContiguousEmRNS1_20ContiguousAllocationEmE3$_0" }, align 8
@"_ZTSZN8facebook5velox6memory14MemoryPoolImpl14growContiguousEmRNS1_20ContiguousAllocationEE3$_0" = internal constant [92 x i8] c"ZN8facebook5velox6memory14MemoryPoolImpl14growContiguousEmRNS1_20ContiguousAllocationEE3$_0\00", align 1
@"_ZTIZN8facebook5velox6memory14MemoryPoolImpl14growContiguousEmRNS1_20ContiguousAllocationEE3$_0" = internal constant { ptr, ptr } { ptr getelementptr inbounds (ptr, ptr @_ZTVN10__cxxabiv117__class_type_infoE, i64 2), ptr @"_ZTSZN8facebook5velox6memory14MemoryPoolImpl14growContiguousEmRNS1_20ContiguousAllocationEE3$_0" }, align 8
@_ZTVSt23_Sp_counted_ptr_inplaceIN8facebook5velox6memory14MemoryPoolImplESaIvELN9__gnu_cxx12_Lock_policyE2EE = linkonce_odr unnamed_addr constant { [7 x ptr] } { [7 x ptr] [ptr null, ptr @_ZTISt23_Sp_counted_ptr_inplaceIN8facebook5velox6memory14MemoryPoolImplESaIvELN9__gnu_cxx12_Lock_policyE2EE, ptr @_ZNSt23_Sp_counted_ptr_inplaceIN8facebook5velox6memory14MemoryPoolImplESaIvELN9__gnu_cxx12_Lock_policyE2EED2Ev, ptr @_ZNSt23_Sp_counted_ptr_inplaceIN8facebook5velox6memory14MemoryPoolImplESaIvELN9__gnu_cxx12_Lock_policyE2EED0Ev, ptr @_ZNSt23_Sp_counted_ptr_inplaceIN8facebook5velox6memory14MemoryPoolImplESaIvELN9__gnu_cxx12_Lock_policyE2EE10_M_disposeEv, ptr @_ZNSt23_Sp_counted_ptr_inplaceIN8facebook5velox6memory14MemoryPoolImplESaIvELN9__gnu_cxx12_Lock_policyE2EE10_M_destroyEv, ptr @_ZNSt23_Sp_counted_ptr_inplaceIN8facebook5velox6memory14MemoryPoolImplESaIvELN9__gnu_cxx12_Lock_policyE2EE14_M_get_deleterERKSt9type_info] }, comdat, align 8
@_ZTSSt23_Sp_counted_ptr_inplaceIN8facebook5velox6memory14MemoryPoolImplESaIvELN9__gnu_cxx12_Lock_policyE2EE = linkonce_odr constant [104 x i8] c"St23_Sp_counted_ptr_inplaceIN8facebook5velox6memory14MemoryPoolImplESaIvELN9__gnu_cxx12_Lock_policyE2EE\00", comdat, align 1
@_ZTSSt16_Sp_counted_baseILN9__gnu_cxx12_Lock_policyE2EE = linkonce_odr constant [52 x i8] c"St16_Sp_counted_baseILN9__gnu_cxx12_Lock_policyE2EE\00", comdat, align 1
@_ZTSSt11_Mutex_baseILN9__gnu_cxx12_Lock_policyE2EE = linkonce_odr constant [47 x i8] c"St11_Mutex_baseILN9__gnu_cxx12_Lock_policyE2EE\00", comdat, align 1
@_ZTISt11_Mutex_baseILN9__gnu_cxx12_Lock_policyE2EE = linkonce_odr constant { ptr, ptr } { ptr getelementptr inbounds (ptr, ptr @_ZTVN10__cxxabiv117__class_type_infoE, i64 2), ptr @_ZTSSt11_Mutex_baseILN9__gnu_cxx12_Lock_policyE2EE }, comdat, align 8
@_ZTISt16_Sp_counted_baseILN9__gnu_cxx12_Lock_policyE2EE = linkonce_odr constant { ptr, ptr, ptr } { ptr getelementptr inbounds (ptr, ptr @_ZTVN10__cxxabiv120__si_class_type_infoE, i64 2), ptr @_ZTSSt16_Sp_counted_baseILN9__gnu_cxx12_Lock_policyE2EE, ptr @_ZTISt11_Mutex_baseILN9__gnu_cxx12_Lock_policyE2EE }, comdat, align 8
@_ZTISt23_Sp_counted_ptr_inplaceIN8facebook5velox6memory14MemoryPoolImplESaIvELN9__gnu_cxx12_Lock_policyE2EE = linkonce_odr constant { ptr, ptr, ptr } { ptr getelementptr inbounds (ptr, ptr @_ZTVN10__cxxabiv120__si_class_type_infoE, i64 2), ptr @_ZTSSt23_Sp_counted_ptr_inplaceIN8facebook5velox6memory14MemoryPoolImplESaIvELN9__gnu_cxx12_Lock_policyE2EE, ptr @_ZTISt16_Sp_counted_baseILN9__gnu_cxx12_Lock_policyE2EE }, comdat, align 8
@_ZTVSt16_Sp_counted_baseILN9__gnu_cxx12_Lock_policyE2EE = linkonce_odr unnamed_addr constant { [7 x ptr] } { [7 x ptr] [ptr null, ptr @_ZTISt16_Sp_counted_baseILN9__gnu_cxx12_Lock_policyE2EE, ptr @_ZNSt16_Sp_counted_baseILN9__gnu_cxx12_Lock_policyE2EED2Ev, ptr @_ZNSt16_Sp_counted_baseILN9__gnu_cxx12_Lock_policyE2EED0Ev, ptr @__cxa_pure_virtual, ptr @_ZNSt16_Sp_counted_baseILN9__gnu_cxx12_Lock_policyE2EE10_M_destroyEv, ptr @__cxa_pure_virtual] }, comdat, align 8
@_ZTSSt19_Sp_make_shared_tag = linkonce_odr constant [24 x i8] c"St19_Sp_make_shared_tag\00", comdat, align 1
@_ZTISt19_Sp_make_shared_tag = linkonce_odr constant { ptr, ptr } { ptr getelementptr inbounds (ptr, ptr @_ZTVN10__cxxabiv117__class_type_infoE, i64 2), ptr @_ZTSSt19_Sp_make_shared_tag }, comdat, align 8
@_ZZNSt19_Sp_make_shared_tag5_S_tiEvE5__tag = linkonce_odr constant [16 x i8] zeroinitializer, comdat, align 8
@_ZZN8facebook5velox6memory12_GLOBAL__N_122treeMemoryUsageVisitorEPNS1_10MemoryPoolEmRSt14priority_queueINS2_11MemoryUsageESt6vectorIS6_SaIS6_EENS2_15MemoryUsageCompEERNSt7__cxx1118basic_stringstreamIcSt11char_traitsIcESaIcEEEE17kTopNLeafMessages = internal constant i64 10, align 8
@"_ZTSZN8facebook5velox6memory12_GLOBAL__N_122treeMemoryUsageVisitorEPNS1_10MemoryPoolEmRSt14priority_queueINS2_11MemoryUsageESt6vectorIS6_SaIS6_EENS2_15MemoryUsageCompEERNSt7__cxx1118basic_stringstreamIcSt11char_traitsIcESaIcEEEE3$_0" = internal constant [229 x i8] c"ZN8facebook5velox6memory12_GLOBAL__N_122treeMemoryUsageVisitorEPNS1_10MemoryPoolEmRSt14priority_queueINS2_11MemoryUsageESt6vectorIS6_SaIS6_EENS2_15MemoryUsageCompEERNSt7__cxx1118basic_stringstreamIcSt11char_traitsIcESaIcEEEE3$_0\00", align 1
@"_ZTIZN8facebook5velox6memory12_GLOBAL__N_122treeMemoryUsageVisitorEPNS1_10MemoryPoolEmRSt14priority_queueINS2_11MemoryUsageESt6vectorIS6_SaIS6_EENS2_15MemoryUsageCompEERNSt7__cxx1118basic_stringstreamIcSt11char_traitsIcESaIcEEEE3$_0" = internal constant { ptr, ptr } { ptr getelementptr inbounds (ptr, ptr @_ZTVN10__cxxabiv117__class_type_infoE, i64 2), ptr @"_ZTSZN8facebook5velox6memory12_GLOBAL__N_122treeMemoryUsageVisitorEPNS1_10MemoryPoolEmRSt14priority_queueINS2_11MemoryUsageESt6vectorIS6_SaIS6_EENS2_15MemoryUsageCompEERNSt7__cxx1118basic_stringstreamIcSt11char_traitsIcESaIcEEEE3$_0" }, align 8
@"_ZTSZNK8facebook5velox6memory14MemoryPoolImpl15treeMemoryUsageB5cxx11EvE3$_0" = internal constant [73 x i8] c"ZNK8facebook5velox6memory14MemoryPoolImpl15treeMemoryUsageB5cxx11EvE3$_0\00", align 1
@"_ZTIZNK8facebook5velox6memory14MemoryPoolImpl15treeMemoryUsageB5cxx11EvE3$_0" = internal constant { ptr, ptr } { ptr getelementptr inbounds (ptr, ptr @_ZTVN10__cxxabiv117__class_type_infoE, i64 2), ptr @"_ZTSZNK8facebook5velox6memory14MemoryPoolImpl15treeMemoryUsageB5cxx11EvE3$_0" }, align 8

@_ZN8facebook5velox6memory10MemoryPoolD1Ev = unnamed_addr alias void (ptr), ptr @_ZN8facebook5velox6memory10MemoryPoolD2Ev
@_ZN8facebook5velox6memory14MemoryPoolImplC1EPNS1_13MemoryManagerERKNSt7__cxx1112basic_stringIcSt11char_traitsIcESaIcEEENS1_10MemoryPool4KindESt10shared_ptrISD_ESt10unique_ptrINS1_15MemoryReclaimerESt14default_deleteISI_EESt8functionIFvPSD_EERKNSD_7OptionsE = unnamed_addr alias void (ptr, ptr, ptr, i32, ptr, ptr, ptr, ptr), ptr @_ZN8facebook5velox6memory14MemoryPoolImplC2EPNS1_13MemoryManagerERKNSt7__cxx1112basic_stringIcSt11char_traitsIcESaIcEEENS1_10MemoryPool4KindESt10shared_ptrISD_ESt10unique_ptrINS1_15MemoryReclaimerESt14default_deleteISI_EESt8functionIFvPSD_EERKNSD_7OptionsE
@_ZN8facebook5velox6memory14MemoryPoolImplD1Ev = unnamed_addr alias void (ptr), ptr @_ZN8facebook5velox6memory14MemoryPoolImplD2Ev

; Function Attrs: mustprogress uwtable
define void @_ZNK8facebook5velox6memory10MemoryPool5Stats8toStringB5cxx11Ev(ptr noalias sret(%"class.std::__cxx11::basic_string") align 8 %agg.result, ptr noundef nonnull align 8 dereferenceable(88) %this) #0 align 2 personality ptr @__gxx_personality_v0 {
entry:
  %.addr.i = alloca ptr, align 8
  %this.addr.i24 = alloca ptr, align 8
  %this.addr.i.i = alloca ptr, align 8
  %desc.addr.i.i = alloca i64, align 8
  %values.addr.i.i = alloca ptr, align 8
  %this.addr.i22 = alloca ptr, align 8
  %store.addr.i = alloca ptr, align 8
  %retval.i = alloca %"class.fmt::v8::basic_string_view", align 8
  %this.addr.i20 = alloca ptr, align 8
  %this.addr.i16 = alloca ptr, align 8
  %s.addr.i17 = alloca ptr, align 8
  %this.addr.i = alloca ptr, align 8
  %s.addr.i = alloca ptr, align 8
  %result.ptr.i = alloca ptr, align 8
  %fmt.i = alloca %"class.fmt::v8::basic_format_string", align 8
  %args.addr.i = alloca ptr, align 8
  %args.addr2.i = alloca ptr, align 8
  %args.addr4.i = alloca ptr, align 8
  %args.addr6.i = alloca ptr, align 8
  %args.addr8.i = alloca ptr, align 8
  %args.addr10.i = alloca ptr, align 8
  %args.addr12.i = alloca ptr, align 8
  %args.addr14.i = alloca ptr, align 8
  %args.addr16.i = alloca ptr, align 8
  %args.addr18.i = alloca ptr, align 8
  %args.addr20.i = alloca ptr, align 8
  %agg.tmp.i = alloca %"class.fmt::v8::basic_string_view", align 8
  %agg.tmp21.i = alloca %"class.fmt::v8::basic_format_args", align 8
  %ref.tmp.i = alloca %"class.fmt::v8::format_arg_store.143", align 16
  %result.ptr = alloca ptr, align 8
  %this.addr = alloca ptr, align 8
  %agg.tmp = alloca %"class.fmt::v8::basic_format_string", align 8
  %ref.tmp = alloca %"class.std::__cxx11::basic_string", align 8
  %ref.tmp2 = alloca %"class.std::__cxx11::basic_string", align 8
  %exn.slot = alloca ptr, align 8
  %ehselector.slot = alloca i32, align 4
  %ref.tmp3 = alloca %"class.std::__cxx11::basic_string", align 8
  %ref.tmp6 = alloca %"class.std::__cxx11::basic_string", align 8
  store ptr %agg.result, ptr %result.ptr, align 8
  store ptr %this, ptr %this.addr, align 8
  %this1 = load ptr, ptr %this.addr, align 8
  store ptr %agg.tmp, ptr %this.addr.i, align 8
  store ptr @.str, ptr %s.addr.i, align 8
  %this1.i = load ptr, ptr %this.addr.i, align 8
  %0 = load ptr, ptr %s.addr.i, align 8
  store ptr %this1.i, ptr %this.addr.i16, align 8
  store ptr %0, ptr %s.addr.i17, align 8
  %this1.i18 = load ptr, ptr %this.addr.i16, align 8
  %1 = load ptr, ptr %s.addr.i17, align 8
  store ptr %1, ptr %this1.i18, align 8
  %size_.i = getelementptr inbounds %"class.fmt::v8::basic_string_view", ptr %this1.i18, i32 0, i32 1
  %2 = load ptr, ptr %s.addr.i17, align 8
  %call.i19 = call noundef i64 @_ZNSt11char_traitsIcE6lengthEPKc(ptr noundef %2)
  store i64 %call.i19, ptr %size_.i, align 8
  %3 = load ptr, ptr %s.addr.i, align 8
  store ptr %3, ptr %.addr.i, align 8
  %currentBytes = getelementptr inbounds %"struct.facebook::velox::memory::MemoryPool::Stats", ptr %this1, i32 0, i32 0
  %4 = load i64, ptr %currentBytes, align 8
  call void @_ZN8facebook5velox13succinctBytesB5cxx11Emi(ptr sret(%"class.std::__cxx11::basic_string") align 8 %ref.tmp, i64 noundef %4, i32 noundef 2)
  %reservedBytes = getelementptr inbounds %"struct.facebook::velox::memory::MemoryPool::Stats", ptr %this1, i32 0, i32 1
  %5 = load i64, ptr %reservedBytes, align 8
  invoke void @_ZN8facebook5velox13succinctBytesB5cxx11Emi(ptr sret(%"class.std::__cxx11::basic_string") align 8 %ref.tmp2, i64 noundef %5, i32 noundef 2)
          to label %invoke.cont unwind label %lpad

invoke.cont:                                      ; preds = %entry
  %peakBytes = getelementptr inbounds %"struct.facebook::velox::memory::MemoryPool::Stats", ptr %this1, i32 0, i32 2
  %6 = load i64, ptr %peakBytes, align 8
  invoke void @_ZN8facebook5velox13succinctBytesB5cxx11Emi(ptr sret(%"class.std::__cxx11::basic_string") align 8 %ref.tmp3, i64 noundef %6, i32 noundef 2)
          to label %invoke.cont5 unwind label %lpad4

invoke.cont5:                                     ; preds = %invoke.cont
  %cumulativeBytes = getelementptr inbounds %"struct.facebook::velox::memory::MemoryPool::Stats", ptr %this1, i32 0, i32 3
  %7 = load i64, ptr %cumulativeBytes, align 8
  invoke void @_ZN8facebook5velox13succinctBytesB5cxx11Emi(ptr sret(%"class.std::__cxx11::basic_string") align 8 %ref.tmp6, i64 noundef %7, i32 noundef 2)
          to label %invoke.cont8 unwind label %lpad7

invoke.cont8:                                     ; preds = %invoke.cont5
  %numAllocs = getelementptr inbounds %"struct.facebook::velox::memory::MemoryPool::Stats", ptr %this1, i32 0, i32 4
  %numFrees = getelementptr inbounds %"struct.facebook::velox::memory::MemoryPool::Stats", ptr %this1, i32 0, i32 5
  %numReserves = getelementptr inbounds %"struct.facebook::velox::memory::MemoryPool::Stats", ptr %this1, i32 0, i32 6
  %numReleases = getelementptr inbounds %"struct.facebook::velox::memory::MemoryPool::Stats", ptr %this1, i32 0, i32 7
  %numShrinks = getelementptr inbounds %"struct.facebook::velox::memory::MemoryPool::Stats", ptr %this1, i32 0, i32 8
  %numReclaims = getelementptr inbounds %"struct.facebook::velox::memory::MemoryPool::Stats", ptr %this1, i32 0, i32 9
  %numCollisions = getelementptr inbounds %"struct.facebook::velox::memory::MemoryPool::Stats", ptr %this1, i32 0, i32 10
  %8 = getelementptr inbounds { ptr, i64 }, ptr %agg.tmp, i32 0, i32 0
  %9 = load ptr, ptr %8, align 8
  %10 = getelementptr inbounds { ptr, i64 }, ptr %agg.tmp, i32 0, i32 1
  %11 = load i64, ptr %10, align 8
  call void @llvm.experimental.noalias.scope.decl(metadata !4)
  store ptr %agg.result, ptr %result.ptr.i, align 8, !noalias !4
  store ptr %9, ptr %fmt.i, align 8, !noalias !4
  %12 = getelementptr inbounds { ptr, i64 }, ptr %fmt.i, i32 0, i32 1
  store i64 %11, ptr %12, align 8, !noalias !4
  store ptr %ref.tmp, ptr %args.addr.i, align 8, !noalias !4
  store ptr %ref.tmp2, ptr %args.addr2.i, align 8, !noalias !4
  store ptr %ref.tmp3, ptr %args.addr4.i, align 8, !noalias !4
  store ptr %ref.tmp6, ptr %args.addr6.i, align 8, !noalias !4
  store ptr %numAllocs, ptr %args.addr8.i, align 8, !noalias !4
  store ptr %numFrees, ptr %args.addr10.i, align 8, !noalias !4
  store ptr %numReserves, ptr %args.addr12.i, align 8, !noalias !4
  store ptr %numReleases, ptr %args.addr14.i, align 8, !noalias !4
  store ptr %numShrinks, ptr %args.addr16.i, align 8, !noalias !4
  store ptr %numReclaims, ptr %args.addr18.i, align 8, !noalias !4
  store ptr %numCollisions, ptr %args.addr20.i, align 8, !noalias !4
  store ptr %fmt.i, ptr %this.addr.i20, align 8
  %this1.i21 = load ptr, ptr %this.addr.i20, align 8
  call void @llvm.memcpy.p0.p0.i64(ptr align 8 %retval.i, ptr align 8 %this1.i21, i64 16, i1 false)
  %13 = load { ptr, i64 }, ptr %retval.i, align 8
  %14 = extractvalue { ptr, i64 } %13, 0
  store ptr %14, ptr %agg.tmp.i, align 8, !noalias !4
  %15 = getelementptr inbounds { ptr, i64 }, ptr %agg.tmp.i, i32 0, i32 1
  %16 = extractvalue { ptr, i64 } %13, 1
  store i64 %16, ptr %15, align 8, !noalias !4
  %17 = load ptr, ptr %args.addr.i, align 8, !noalias !4
  %18 = load ptr, ptr %args.addr2.i, align 8, !noalias !4
  %19 = load ptr, ptr %args.addr4.i, align 8, !noalias !4
  %20 = load ptr, ptr %args.addr6.i, align 8, !noalias !4
  %21 = load ptr, ptr %args.addr8.i, align 8, !noalias !4
  %22 = load ptr, ptr %args.addr10.i, align 8, !noalias !4
  %23 = load ptr, ptr %args.addr12.i, align 8, !noalias !4
  %24 = load ptr, ptr %args.addr14.i, align 8, !noalias !4
  %25 = load ptr, ptr %args.addr16.i, align 8, !noalias !4
  %26 = load ptr, ptr %args.addr18.i, align 8, !noalias !4
  %27 = load ptr, ptr %args.addr20.i, align 8, !noalias !4
  invoke void @_ZN3fmt2v816make_format_argsINS0_20basic_format_contextINS0_8appenderEcEEJRNSt7__cxx1112basic_stringIcSt11char_traitsIcESaIcEEESB_SB_SB_RKmSD_SD_SD_SD_SD_SD_EEENS0_16format_arg_storeIT_JDpNSt9remove_cvINSt16remove_referenceIT0_E4typeEE4typeEEEEDpOSI_(ptr sret(%"class.fmt::v8::format_arg_store.143") align 16 %ref.tmp.i, ptr noundef nonnull align 8 dereferenceable(32) %17, ptr noundef nonnull align 8 dereferenceable(32) %18, ptr noundef nonnull align 8 dereferenceable(32) %19, ptr noundef nonnull align 8 dereferenceable(32) %20, ptr noundef nonnull align 8 dereferenceable(8) %21, ptr noundef nonnull align 8 dereferenceable(8) %22, ptr noundef nonnull align 8 dereferenceable(8) %23, ptr noundef nonnull align 8 dereferenceable(8) %24, ptr noundef nonnull align 8 dereferenceable(8) %25, ptr noundef nonnull align 8 dereferenceable(8) %26, ptr noundef nonnull align 8 dereferenceable(8) %27)
          to label %.noexc unwind label %lpad9

.noexc:                                           ; preds = %invoke.cont8
  store ptr %agg.tmp21.i, ptr %this.addr.i22, align 8
  store ptr %ref.tmp.i, ptr %store.addr.i, align 8
  %this1.i23 = load ptr, ptr %this.addr.i22, align 8
  %28 = load ptr, ptr %store.addr.i, align 8
  store ptr %28, ptr %this.addr.i24, align 8
  %this1.i25 = load ptr, ptr %this.addr.i24, align 8
  store ptr %this1.i23, ptr %this.addr.i.i, align 8
  store i64 4691249651165, ptr %desc.addr.i.i, align 8
  store ptr %this1.i25, ptr %values.addr.i.i, align 8
  %this1.i.i = load ptr, ptr %this.addr.i.i, align 8
  %29 = load i64, ptr %desc.addr.i.i, align 8
  store i64 %29, ptr %this1.i.i, align 8
  %30 = getelementptr inbounds %"class.fmt::v8::basic_format_args", ptr %this1.i.i, i32 0, i32 1
  %31 = load ptr, ptr %values.addr.i.i, align 8
  store ptr %31, ptr %30, align 8
  br label %.noexc14

.noexc14:                                         ; preds = %.noexc
  %32 = load ptr, ptr %agg.tmp.i, align 8, !noalias !4
  %33 = getelementptr inbounds { ptr, i64 }, ptr %agg.tmp.i, i32 0, i32 1
  %34 = load i64, ptr %33, align 8, !noalias !4
  %35 = load i64, ptr %agg.tmp21.i, align 8, !noalias !4
  %36 = getelementptr inbounds { i64, ptr }, ptr %agg.tmp21.i, i32 0, i32 1
  %37 = load ptr, ptr %36, align 8, !noalias !4
  invoke void @_ZN3fmt2v87vformatB5cxx11ENS0_17basic_string_viewIcEENS0_17basic_format_argsINS0_20basic_format_contextINS0_8appenderEcEEEE(ptr sret(%"class.std::__cxx11::basic_string") align 8 %agg.result, ptr %32, i64 %34, i64 %35, ptr %37)
          to label %_ZN3fmt2v86formatIJNSt7__cxx1112basic_stringIcSt11char_traitsIcESaIcEEES7_S7_S7_RKmS9_S9_S9_S9_S9_S9_EEES7_NS0_19basic_format_stringIcJDpNS0_13type_identityIT_E4typeEEEEDpOSC_.exit unwind label %lpad9

_ZN3fmt2v86formatIJNSt7__cxx1112basic_stringIcSt11char_traitsIcESaIcEEES7_S7_S7_RKmS9_S9_S9_S9_S9_S9_EEES7_NS0_19basic_format_stringIcJDpNS0_13type_identityIT_E4typeEEEEDpOSC_.exit: ; preds = %.noexc14
  br label %invoke.cont10

invoke.cont10:                                    ; preds = %_ZN3fmt2v86formatIJNSt7__cxx1112basic_stringIcSt11char_traitsIcESaIcEEES7_S7_S7_RKmS9_S9_S9_S9_S9_S9_EEES7_NS0_19basic_format_stringIcJDpNS0_13type_identityIT_E4typeEEEEDpOSC_.exit
  call void @_ZNSt7__cxx1112basic_stringIcSt11char_traitsIcESaIcEED1Ev(ptr noundef nonnull align 8 dereferenceable(32) %ref.tmp6) #11
  call void @_ZNSt7__cxx1112basic_stringIcSt11char_traitsIcESaIcEED1Ev(ptr noundef nonnull align 8 dereferenceable(32) %ref.tmp3) #11
  call void @_ZNSt7__cxx1112basic_stringIcSt11char_traitsIcESaIcEED1Ev(ptr noundef nonnull align 8 dereferenceable(32) %ref.tmp2) #11
  call void @_ZNSt7__cxx1112basic_stringIcSt11char_traitsIcESaIcEED1Ev(ptr noundef nonnull align 8 dereferenceable(32) %ref.tmp) #11
  ret void

lpad:                                             ; preds = %entry
  %38 = landingpad { ptr, i32 }
          cleanup
  %39 = extractvalue { ptr, i32 } %38, 0
  store ptr %39, ptr %exn.slot, align 8
  %40 = extractvalue { ptr, i32 } %38, 1
  store i32 %40, ptr %ehselector.slot, align 4
  br label %ehcleanup12

lpad4:                                            ; preds = %invoke.cont
  %41 = landingpad { ptr, i32 }
          cleanup
  %42 = extractvalue { ptr, i32 } %41, 0
  store ptr %42, ptr %exn.slot, align 8
  %43 = extractvalue { ptr, i32 } %41, 1
  store i32 %43, ptr %ehselector.slot, align 4
  br label %ehcleanup11

lpad7:                                            ; preds = %invoke.cont5
  %44 = landingpad { ptr, i32 }
          cleanup
  %45 = extractvalue { ptr, i32 } %44, 0
  store ptr %45, ptr %exn.slot, align 8
  %46 = extractvalue { ptr, i32 } %44, 1
  store i32 %46, ptr %ehselector.slot, align 4
  br label %ehcleanup

lpad9:                                            ; preds = %.noexc14, %invoke.cont8
  %47 = landingpad { ptr, i32 }
          cleanup
  %48 = extractvalue { ptr, i32 } %47, 0
  store ptr %48, ptr %exn.slot, align 8
  %49 = extractvalue { ptr, i32 } %47, 1
  store i32 %49, ptr %ehselector.slot, align 4
  call void @_ZNSt7__cxx1112basic_stringIcSt11char_traitsIcESaIcEED1Ev(ptr noundef nonnull align 8 dereferenceable(32) %ref.tmp6) #11
  br label %ehcleanup

ehcleanup:                                        ; preds = %lpad9, %lpad7
  call void @_ZNSt7__cxx1112basic_stringIcSt11char_traitsIcESaIcEED1Ev(ptr noundef nonnull align 8 dereferenceable(32) %ref.tmp3) #11
  br label %ehcleanup11

ehcleanup11:                                      ; preds = %ehcleanup, %lpad4
  call void @_ZNSt7__cxx1112basic_stringIcSt11char_traitsIcESaIcEED1Ev(ptr noundef nonnull align 8 dereferenceable(32) %ref.tmp2) #11
  br label %ehcleanup12

ehcleanup12:                                      ; preds = %ehcleanup11, %lpad
  call void @_ZNSt7__cxx1112basic_stringIcSt11char_traitsIcESaIcEED1Ev(ptr noundef nonnull align 8 dereferenceable(32) %ref.tmp) #11
  br label %eh.resume

eh.resume:                                        ; preds = %ehcleanup12
  %exn = load ptr, ptr %exn.slot, align 8
  %sel = load i32, ptr %ehselector.slot, align 4
  %lpad.val = insertvalue { ptr, i32 } poison, ptr %exn, 0
  %lpad.val13 = insertvalue { ptr, i32 } %lpad.val, i32 %sel, 1
  resume { ptr, i32 } %lpad.val13
}

declare void @_ZN8facebook5velox13succinctBytesB5cxx11Emi(ptr sret(%"class.std::__cxx11::basic_string") align 8, i64 noundef, i32 noundef) #1

declare i32 @__gxx_personality_v0(...)

; Function Attrs: nounwind
declare void @_ZNSt7__cxx1112basic_stringIcSt11char_traitsIcESaIcEED1Ev(ptr noundef nonnull align 8 dereferenceable(32)) unnamed_addr #2

; Function Attrs: mustprogress uwtable
define noundef zeroext i1 @_ZNK8facebook5velox6memory10MemoryPool5StatseqERKS3_(ptr noundef nonnull align 8 dereferenceable(88) %this, ptr noundef nonnull align 8 dereferenceable(88) %other) #0 align 2 {
entry:
  %this.addr = alloca ptr, align 8
  %other.addr = alloca ptr, align 8
  %ref.tmp = alloca %"class.std::tuple", align 8
  %ref.tmp2 = alloca %"class.std::tuple", align 8
  store ptr %this, ptr %this.addr, align 8
  store ptr %other, ptr %other.addr, align 8
  %this1 = load ptr, ptr %this.addr, align 8
  %currentBytes = getelementptr inbounds %"struct.facebook::velox::memory::MemoryPool::Stats", ptr %this1, i32 0, i32 0
  %reservedBytes = getelementptr inbounds %"struct.facebook::velox::memory::MemoryPool::Stats", ptr %this1, i32 0, i32 1
  %peakBytes = getelementptr inbounds %"struct.facebook::velox::memory::MemoryPool::Stats", ptr %this1, i32 0, i32 2
  %cumulativeBytes = getelementptr inbounds %"struct.facebook::velox::memory::MemoryPool::Stats", ptr %this1, i32 0, i32 3
  %numAllocs = getelementptr inbounds %"struct.facebook::velox::memory::MemoryPool::Stats", ptr %this1, i32 0, i32 4
  %numFrees = getelementptr inbounds %"struct.facebook::velox::memory::MemoryPool::Stats", ptr %this1, i32 0, i32 5
  %numReserves = getelementptr inbounds %"struct.facebook::velox::memory::MemoryPool::Stats", ptr %this1, i32 0, i32 6
  %numReleases = getelementptr inbounds %"struct.facebook::velox::memory::MemoryPool::Stats", ptr %this1, i32 0, i32 7
  %numCollisions = getelementptr inbounds %"struct.facebook::velox::memory::MemoryPool::Stats", ptr %this1, i32 0, i32 10
  call void @_ZSt3tieIJKmS0_S0_S0_S0_S0_S0_S0_S0_EESt5tupleIJDpRT_EES4_(ptr sret(%"class.std::tuple") align 8 %ref.tmp, ptr noundef nonnull align 8 dereferenceable(8) %currentBytes, ptr noundef nonnull align 8 dereferenceable(8) %reservedBytes, ptr noundef nonnull align 8 dereferenceable(8) %peakBytes, ptr noundef nonnull align 8 dereferenceable(8) %cumulativeBytes, ptr noundef nonnull align 8 dereferenceable(8) %numAllocs, ptr noundef nonnull align 8 dereferenceable(8) %numFrees, ptr noundef nonnull align 8 dereferenceable(8) %numReserves, ptr noundef nonnull align 8 dereferenceable(8) %numReleases, ptr noundef nonnull align 8 dereferenceable(8) %numCollisions) #11
  %0 = load ptr, ptr %other.addr, align 8
  %currentBytes3 = getelementptr inbounds %"struct.facebook::velox::memory::MemoryPool::Stats", ptr %0, i32 0, i32 0
  %1 = load ptr, ptr %other.addr, align 8
  %reservedBytes4 = getelementptr inbounds %"struct.facebook::velox::memory::MemoryPool::Stats", ptr %1, i32 0, i32 1
  %2 = load ptr, ptr %other.addr, align 8
  %peakBytes5 = getelementptr inbounds %"struct.facebook::velox::memory::MemoryPool::Stats", ptr %2, i32 0, i32 2
  %3 = load ptr, ptr %other.addr, align 8
  %cumulativeBytes6 = getelementptr inbounds %"struct.facebook::velox::memory::MemoryPool::Stats", ptr %3, i32 0, i32 3
  %4 = load ptr, ptr %other.addr, align 8
  %numAllocs7 = getelementptr inbounds %"struct.facebook::velox::memory::MemoryPool::Stats", ptr %4, i32 0, i32 4
  %5 = load ptr, ptr %other.addr, align 8
  %numFrees8 = getelementptr inbounds %"struct.facebook::velox::memory::MemoryPool::Stats", ptr %5, i32 0, i32 5
  %6 = load ptr, ptr %other.addr, align 8
  %numReserves9 = getelementptr inbounds %"struct.facebook::velox::memory::MemoryPool::Stats", ptr %6, i32 0, i32 6
  %7 = load ptr, ptr %other.addr, align 8
  %numReleases10 = getelementptr inbounds %"struct.facebook::velox::memory::MemoryPool::Stats", ptr %7, i32 0, i32 7
  %8 = load ptr, ptr %other.addr, align 8
  %numCollisions11 = getelementptr inbounds %"struct.facebook::velox::memory::MemoryPool::Stats", ptr %8, i32 0, i32 10
  call void @_ZSt3tieIJKmS0_S0_S0_S0_S0_S0_S0_S0_EESt5tupleIJDpRT_EES4_(ptr sret(%"class.std::tuple") align 8 %ref.tmp2, ptr noundef nonnull align 8 dereferenceable(8) %currentBytes3, ptr noundef nonnull align 8 dereferenceable(8) %reservedBytes4, ptr noundef nonnull align 8 dereferenceable(8) %peakBytes5, ptr noundef nonnull align 8 dereferenceable(8) %cumulativeBytes6, ptr noundef nonnull align 8 dereferenceable(8) %numAllocs7, ptr noundef nonnull align 8 dereferenceable(8) %numFrees8, ptr noundef nonnull align 8 dereferenceable(8) %numReserves9, ptr noundef nonnull align 8 dereferenceable(8) %numReleases10, ptr noundef nonnull align 8 dereferenceable(8) %numCollisions11) #11
  %call = call noundef zeroext i1 @_ZSteqIJRKmS1_S1_S1_S1_S1_S1_S1_S1_EJS1_S1_S1_S1_S1_S1_S1_S1_S1_EEbRKSt5tupleIJDpT_EERKS2_IJDpT0_EE(ptr noundef nonnull align 8 dereferenceable(72) %ref.tmp, ptr noundef nonnull align 8 dereferenceable(72) %ref.tmp2)
  ret i1 %call
}

; Function Attrs: mustprogress uwtable
define linkonce_odr noundef zeroext i1 @_ZSteqIJRKmS1_S1_S1_S1_S1_S1_S1_S1_EJS1_S1_S1_S1_S1_S1_S1_S1_S1_EEbRKSt5tupleIJDpT_EERKS2_IJDpT0_EE(ptr noundef nonnull align 8 dereferenceable(72) %__t, ptr noundef nonnull align 8 dereferenceable(72) %__u) #0 comdat {
entry:
  %__t.addr = alloca ptr, align 8
  %__u.addr = alloca ptr, align 8
  store ptr %__t, ptr %__t.addr, align 8
  store ptr %__u, ptr %__u.addr, align 8
  %0 = load ptr, ptr %__t.addr, align 8
  %1 = load ptr, ptr %__u.addr, align 8
  %call = call noundef zeroext i1 @_ZNSt15__tuple_compareISt5tupleIJRKmS2_S2_S2_S2_S2_S2_S2_S2_EES3_Lm0ELm9EE4__eqERKS3_S6_(ptr noundef nonnull align 8 dereferenceable(72) %0, ptr noundef nonnull align 8 dereferenceable(72) %1)
  ret i1 %call
}

; Function Attrs: mustprogress nounwind uwtable
define linkonce_odr void @_ZSt3tieIJKmS0_S0_S0_S0_S0_S0_S0_S0_EESt5tupleIJDpRT_EES4_(ptr noalias sret(%"class.std::tuple") align 8 %agg.result, ptr noundef nonnull align 8 dereferenceable(8) %__args, ptr noundef nonnull align 8 dereferenceable(8) %__args1, ptr noundef nonnull align 8 dereferenceable(8) %__args3, ptr noundef nonnull align 8 dereferenceable(8) %__args5, ptr noundef nonnull align 8 dereferenceable(8) %__args7, ptr noundef nonnull align 8 dereferenceable(8) %__args9, ptr noundef nonnull align 8 dereferenceable(8) %__args11, ptr noundef nonnull align 8 dereferenceable(8) %__args13, ptr noundef nonnull align 8 dereferenceable(8) %__args15) #3 comdat {
entry:
  %result.ptr = alloca ptr, align 8
  %__args.addr = alloca ptr, align 8
  %__args.addr2 = alloca ptr, align 8
  %__args.addr4 = alloca ptr, align 8
  %__args.addr6 = alloca ptr, align 8
  %__args.addr8 = alloca ptr, align 8
  %__args.addr10 = alloca ptr, align 8
  %__args.addr12 = alloca ptr, align 8
  %__args.addr14 = alloca ptr, align 8
  %__args.addr16 = alloca ptr, align 8
  store ptr %agg.result, ptr %result.ptr, align 8
  store ptr %__args, ptr %__args.addr, align 8
  store ptr %__args1, ptr %__args.addr2, align 8
  store ptr %__args3, ptr %__args.addr4, align 8
  store ptr %__args5, ptr %__args.addr6, align 8
  store ptr %__args7, ptr %__args.addr8, align 8
  store ptr %__args9, ptr %__args.addr10, align 8
  store ptr %__args11, ptr %__args.addr12, align 8
  store ptr %__args13, ptr %__args.addr14, align 8
  store ptr %__args15, ptr %__args.addr16, align 8
  %0 = load ptr, ptr %__args.addr, align 8
  %1 = load ptr, ptr %__args.addr2, align 8
  %2 = load ptr, ptr %__args.addr4, align 8
  %3 = load ptr, ptr %__args.addr6, align 8
  %4 = load ptr, ptr %__args.addr8, align 8
  %5 = load ptr, ptr %__args.addr10, align 8
  %6 = load ptr, ptr %__args.addr12, align 8
  %7 = load ptr, ptr %__args.addr14, align 8
  %8 = load ptr, ptr %__args.addr16, align 8
  call void @_ZNSt5tupleIJRKmS1_S1_S1_S1_S1_S1_S1_S1_EEC2ILb1ETnNSt9enable_ifIXclsr4_TCCIXT_EEE29__is_implicitly_constructibleIS1_S1_S1_S1_S1_S1_S1_S1_S1_EEEbE4typeELb1EEES1_S1_S1_S1_S1_S1_S1_S1_S1_(ptr noundef nonnull align 8 dereferenceable(72) %agg.result, ptr noundef nonnull align 8 dereferenceable(8) %0, ptr noundef nonnull align 8 dereferenceable(8) %1, ptr noundef nonnull align 8 dereferenceable(8) %2, ptr noundef nonnull align 8 dereferenceable(8) %3, ptr noundef nonnull align 8 dereferenceable(8) %4, ptr noundef nonnull align 8 dereferenceable(8) %5, ptr noundef nonnull align 8 dereferenceable(8) %6, ptr noundef nonnull align 8 dereferenceable(8) %7, ptr noundef nonnull align 8 dereferenceable(8) %8) #11
  ret void
}

; Function Attrs: mustprogress uwtable
define noundef nonnull align 8 dereferenceable(8) ptr @_ZN8facebook5velox6memorylsERSoRKNS1_10MemoryPool5StatsE(ptr noundef nonnull align 8 dereferenceable(8) %os, ptr noundef nonnull align 8 dereferenceable(88) %stats) #0 personality ptr @__gxx_personality_v0 {
entry:
  %os.addr = alloca ptr, align 8
  %stats.addr = alloca ptr, align 8
  %ref.tmp = alloca %"class.std::__cxx11::basic_string", align 8
  %exn.slot = alloca ptr, align 8
  %ehselector.slot = alloca i32, align 4
  store ptr %os, ptr %os.addr, align 8
  store ptr %stats, ptr %stats.addr, align 8
  %0 = load ptr, ptr %os.addr, align 8
  %1 = load ptr, ptr %stats.addr, align 8
  call void @_ZNK8facebook5velox6memory10MemoryPool5Stats8toStringB5cxx11Ev(ptr sret(%"class.std::__cxx11::basic_string") align 8 %ref.tmp, ptr noundef nonnull align 8 dereferenceable(88) %1)
  %call = invoke noundef nonnull align 8 dereferenceable(8) ptr @_ZStlsIcSt11char_traitsIcESaIcEERSt13basic_ostreamIT_T0_ES7_RKNSt7__cxx1112basic_stringIS4_S5_T1_EE(ptr noundef nonnull align 8 dereferenceable(8) %0, ptr noundef nonnull align 8 dereferenceable(32) %ref.tmp)
          to label %invoke.cont unwind label %lpad

invoke.cont:                                      ; preds = %entry
  call void @_ZNSt7__cxx1112basic_stringIcSt11char_traitsIcESaIcEED1Ev(ptr noundef nonnull align 8 dereferenceable(32) %ref.tmp) #11
  ret ptr %call

lpad:                                             ; preds = %entry
  %2 = landingpad { ptr, i32 }
          cleanup
  %3 = extractvalue { ptr, i32 } %2, 0
  store ptr %3, ptr %exn.slot, align 8
  %4 = extractvalue { ptr, i32 } %2, 1
  store i32 %4, ptr %ehselector.slot, align 4
  call void @_ZNSt7__cxx1112basic_stringIcSt11char_traitsIcESaIcEED1Ev(ptr noundef nonnull align 8 dereferenceable(32) %ref.tmp) #11
  br label %eh.resume

eh.resume:                                        ; preds = %lpad
  %exn = load ptr, ptr %exn.slot, align 8
  %sel = load i32, ptr %ehselector.slot, align 4
  %lpad.val = insertvalue { ptr, i32 } poison, ptr %exn, 0
  %lpad.val1 = insertvalue { ptr, i32 } %lpad.val, i32 %sel, 1
  resume { ptr, i32 } %lpad.val1
}

declare noundef nonnull align 8 dereferenceable(8) ptr @_ZStlsIcSt11char_traitsIcESaIcEERSt13basic_ostreamIT_T0_ES7_RKNSt7__cxx1112basic_stringIS4_S5_T1_EE(ptr noundef nonnull align 8 dereferenceable(8), ptr noundef nonnull align 8 dereferenceable(32)) #1

; Function Attrs: mustprogress uwtable
define void @_ZN8facebook5velox6memory10MemoryPoolC2ERKNSt7__cxx1112basic_stringIcSt11char_traitsIcESaIcEEENS2_4KindESt10shared_ptrIS2_ERKNS2_7OptionsE(ptr noundef nonnull align 8 dereferenceable(168) %this, ptr noundef nonnull align 8 dereferenceable(32) %name, i32 noundef %kind, ptr noundef %parent, ptr noundef nonnull align 8 dereferenceable(21) %options) unnamed_addr #0 align 2 personality ptr @__gxx_personality_v0 {
entry:
  %this.addr.i24 = alloca ptr, align 8
  %this.addr.i = alloca ptr, align 8
  %this.addr = alloca ptr, align 8
  %name.addr = alloca ptr, align 8
  %kind.addr = alloca i32, align 4
  %parent.indirect_addr = alloca ptr, align 8
  %options.addr = alloca ptr, align 8
  %exn.slot = alloca ptr, align 8
  %ehselector.slot = alloca i32, align 4
  store ptr %this, ptr %this.addr, align 8
  store ptr %name, ptr %name.addr, align 8
  store i32 %kind, ptr %kind.addr, align 4
  store ptr %parent, ptr %parent.indirect_addr, align 8
  store ptr %options, ptr %options.addr, align 8
  %this1 = load ptr, ptr %this.addr, align 8
  %0 = getelementptr inbounds i8, ptr %this1, i64 8
  call void @_ZNSt23enable_shared_from_thisIN8facebook5velox6memory10MemoryPoolEEC2Ev(ptr noundef nonnull align 8 dereferenceable(16) %0) #11
  store ptr getelementptr inbounds ({ [52 x ptr] }, ptr @_ZTVN8facebook5velox6memory10MemoryPoolE, i32 0, inrange i32 0, i32 2), ptr %this1, align 8
  %name_ = getelementptr inbounds %"class.facebook::velox::memory::MemoryPool", ptr %this1, i32 0, i32 2
  %1 = load ptr, ptr %name.addr, align 8
  invoke void @_ZNSt7__cxx1112basic_stringIcSt11char_traitsIcESaIcEEC1ERKS4_(ptr noundef nonnull align 8 dereferenceable(32) %name_, ptr noundef nonnull align 8 dereferenceable(32) %1)
          to label %invoke.cont unwind label %lpad

invoke.cont:                                      ; preds = %entry
  %kind_ = getelementptr inbounds %"class.facebook::velox::memory::MemoryPool", ptr %this1, i32 0, i32 3
  %2 = load i32, ptr %kind.addr, align 4
  store i32 %2, ptr %kind_, align 8
  %alignment_ = getelementptr inbounds %"class.facebook::velox::memory::MemoryPool", ptr %this1, i32 0, i32 4
  %3 = load ptr, ptr %options.addr, align 8
  %alignment = getelementptr inbounds %"struct.facebook::velox::memory::MemoryPool::Options", ptr %3, i32 0, i32 0
  %4 = load i16, ptr %alignment, align 8
  store i16 %4, ptr %alignment_, align 4
  %parent_ = getelementptr inbounds %"class.facebook::velox::memory::MemoryPool", ptr %this1, i32 0, i32 5
  call void @_ZNSt10shared_ptrIN8facebook5velox6memory10MemoryPoolEEC2EOS4_(ptr noundef nonnull align 8 dereferenceable(16) %parent_, ptr noundef nonnull align 8 dereferenceable(16) %parent) #11
  %maxCapacity_ = getelementptr inbounds %"class.facebook::velox::memory::MemoryPool", ptr %this1, i32 0, i32 6
  %parent_2 = getelementptr inbounds %"class.facebook::velox::memory::MemoryPool", ptr %this1, i32 0, i32 5
  %call = call noundef zeroext i1 @_ZSteqIN8facebook5velox6memory10MemoryPoolEEbRKSt10shared_ptrIT_EDn(ptr noundef nonnull align 8 dereferenceable(16) %parent_2, ptr null) #11
  br i1 %call, label %cond.true, label %cond.false

cond.true:                                        ; preds = %invoke.cont
  %5 = load ptr, ptr %options.addr, align 8
  %maxCapacity = getelementptr inbounds %"struct.facebook::velox::memory::MemoryPool::Options", ptr %5, i32 0, i32 2
  %6 = load i64, ptr %maxCapacity, align 8
  br label %cond.end

cond.false:                                       ; preds = %invoke.cont
  br label %cond.end

cond.end:                                         ; preds = %cond.false, %cond.true
  %cond = phi i64 [ %6, %cond.true ], [ 9223372036854775807, %cond.false ]
  store i64 %cond, ptr %maxCapacity_, align 8
  %trackUsage_ = getelementptr inbounds %"class.facebook::velox::memory::MemoryPool", ptr %this1, i32 0, i32 7
  %7 = load ptr, ptr %options.addr, align 8
  %trackUsage = getelementptr inbounds %"struct.facebook::velox::memory::MemoryPool::Options", ptr %7, i32 0, i32 3
  %8 = load i8, ptr %trackUsage, align 8
  %tobool = trunc i8 %8 to i1
  %frombool = zext i1 %tobool to i8
  store i8 %frombool, ptr %trackUsage_, align 8
  %threadSafe_ = getelementptr inbounds %"class.facebook::velox::memory::MemoryPool", ptr %this1, i32 0, i32 8
  %9 = load ptr, ptr %options.addr, align 8
  %threadSafe = getelementptr inbounds %"struct.facebook::velox::memory::MemoryPool::Options", ptr %9, i32 0, i32 4
  %10 = load i8, ptr %threadSafe, align 1
  %tobool3 = trunc i8 %10 to i1
  %frombool4 = zext i1 %tobool3 to i8
  store i8 %frombool4, ptr %threadSafe_, align 1
  %checkUsageLeak_ = getelementptr inbounds %"class.facebook::velox::memory::MemoryPool", ptr %this1, i32 0, i32 9
  %11 = load ptr, ptr %options.addr, align 8
  %checkUsageLeak = getelementptr inbounds %"struct.facebook::velox::memory::MemoryPool::Options", ptr %11, i32 0, i32 5
  %12 = load i8, ptr %checkUsageLeak, align 2
  %tobool5 = trunc i8 %12 to i1
  %frombool6 = zext i1 %tobool5 to i8
  store i8 %frombool6, ptr %checkUsageLeak_, align 2
  %debugEnabled_ = getelementptr inbounds %"class.facebook::velox::memory::MemoryPool", ptr %this1, i32 0, i32 10
  %13 = load ptr, ptr %options.addr, align 8
  %debugEnabled = getelementptr inbounds %"struct.facebook::velox::memory::MemoryPool::Options", ptr %13, i32 0, i32 6
  %14 = load i8, ptr %debugEnabled, align 1
  %tobool7 = trunc i8 %14 to i1
  %frombool8 = zext i1 %tobool7 to i8
  store i8 %frombool8, ptr %debugEnabled_, align 1
  %coreOnAllocationFailureEnabled_ = getelementptr inbounds %"class.facebook::velox::memory::MemoryPool", ptr %this1, i32 0, i32 11
  %15 = load ptr, ptr %options.addr, align 8
  %coreOnAllocationFailureEnabled = getelementptr inbounds %"struct.facebook::velox::memory::MemoryPool::Options", ptr %15, i32 0, i32 7
  %16 = load i8, ptr %coreOnAllocationFailureEnabled, align 4
  %tobool9 = trunc i8 %16 to i1
  %frombool10 = zext i1 %tobool9 to i8
  store i8 %frombool10, ptr %coreOnAllocationFailureEnabled_, align 4
  %aborted_ = getelementptr inbounds %"class.facebook::velox::memory::MemoryPool", ptr %this1, i32 0, i32 12
  call void @_ZNSt6atomicIbEC2Eb(ptr noundef nonnull align 1 dereferenceable(1) %aborted_, i1 noundef zeroext false) #11
  %abortError_ = getelementptr inbounds %"class.facebook::velox::memory::MemoryPool", ptr %this1, i32 0, i32 13
  call void @_ZNSt15__exception_ptr13exception_ptrC2EDn(ptr noundef nonnull align 8 dereferenceable(8) %abortError_, ptr null) #11
  %poolMutex_ = getelementptr inbounds %"class.facebook::velox::memory::MemoryPool", ptr %this1, i32 0, i32 14
  call void @_ZN5folly15SharedMutexImplILb0EvSt6atomicNS_24SharedMutexPolicyDefaultEEC1Ev(ptr noundef nonnull align 4 dereferenceable(4) %poolMutex_) #11
  %children_ = getelementptr inbounds %"class.facebook::velox::memory::MemoryPool", ptr %this1, i32 0, i32 15
  call void @_ZNSt13unordered_mapINSt7__cxx1112basic_stringIcSt11char_traitsIcESaIcEEESt8weak_ptrIN8facebook5velox6memory10MemoryPoolEESt4hashIS5_ESt8equal_toIS5_ESaISt4pairIKS5_SB_EEEC2Ev(ptr noundef nonnull align 8 dereferenceable(56) %children_) #11
  store ptr %this1, ptr %this.addr.i, align 8
  %this1.i = load ptr, ptr %this.addr.i, align 8
  %parent_.i = getelementptr inbounds %"class.facebook::velox::memory::MemoryPool", ptr %this1.i, i32 0, i32 5
  %call.i = call noundef zeroext i1 @_ZSteqIN8facebook5velox6memory10MemoryPoolEEbRKSt10shared_ptrIT_EDn(ptr noundef nonnull align 8 dereferenceable(16) %parent_.i, ptr null) #11
  br label %invoke.cont12

invoke.cont12:                                    ; preds = %cond.end
  br i1 %call.i, label %lor.rhs, label %lor.end

lor.rhs:                                          ; preds = %invoke.cont12
  store ptr %this1, ptr %this.addr.i24, align 8
  %this1.i25 = load ptr, ptr %this.addr.i24, align 8
  %kind_.i = getelementptr inbounds %"class.facebook::velox::memory::MemoryPool", ptr %this1.i25, i32 0, i32 3
  %17 = load i32, ptr %kind_.i, align 8
  %cmp.i = icmp eq i32 %17, 0
  br label %invoke.cont14

invoke.cont14:                                    ; preds = %lor.rhs
  %lnot = xor i1 %cmp.i, true
  br label %lor.end

lor.end:                                          ; preds = %invoke.cont14, %invoke.cont12
  %18 = phi i1 [ true, %invoke.cont12 ], [ %lnot, %invoke.cont14 ]
  %lnot16 = xor i1 %18, true
  br i1 %lnot16, label %if.then, label %if.end

if.then:                                          ; preds = %lor.end
  call void @llvm.trap()
  br label %if.end

lpad:                                             ; preds = %entry
  %19 = landingpad { ptr, i32 }
          cleanup
  %20 = extractvalue { ptr, i32 } %19, 0
  store ptr %20, ptr %exn.slot, align 8
  %21 = extractvalue { ptr, i32 } %19, 1
  store i32 %21, ptr %ehselector.slot, align 4
  br label %ehcleanup

lpad11:                                           ; preds = %if.end20
  %22 = landingpad { ptr, i32 }
          cleanup
  %23 = extractvalue { ptr, i32 } %22, 0
  store ptr %23, ptr %exn.slot, align 8
  %24 = extractvalue { ptr, i32 } %22, 1
  store i32 %24, ptr %ehselector.slot, align 4
  call void @_ZNSt13unordered_mapINSt7__cxx1112basic_stringIcSt11char_traitsIcESaIcEEESt8weak_ptrIN8facebook5velox6memory10MemoryPoolEESt4hashIS5_ESt8equal_toIS5_ESaISt4pairIKS5_SB_EEED2Ev(ptr noundef nonnull align 8 dereferenceable(56) %children_) #11
  call void @_ZN5folly15SharedMutexImplILb0EvSt6atomicNS_24SharedMutexPolicyDefaultEED1Ev(ptr noundef nonnull align 4 dereferenceable(4) %poolMutex_) #11
  call void @_ZNSt15__exception_ptr13exception_ptrD2Ev(ptr noundef nonnull align 8 dereferenceable(8) %abortError_) #11
  call void @_ZNSt10shared_ptrIN8facebook5velox6memory10MemoryPoolEED2Ev(ptr noundef nonnull align 8 dereferenceable(16) %parent_) #11
  call void @_ZNSt7__cxx1112basic_stringIcSt11char_traitsIcESaIcEED1Ev(ptr noundef nonnull align 8 dereferenceable(32) %name_) #11
  br label %ehcleanup

if.end:                                           ; preds = %if.then, %lor.end
  %maxCapacity_17 = getelementptr inbounds %"class.facebook::velox::memory::MemoryPool", ptr %this1, i32 0, i32 6
  %25 = load i64, ptr %maxCapacity_17, align 8
  %cmp = icmp sgt i64 %25, 0
  %lnot18 = xor i1 %cmp, true
  br i1 %lnot18, label %if.then19, label %if.end20

if.then19:                                        ; preds = %if.end
  call void @llvm.trap()
  br label %if.end20

if.end20:                                         ; preds = %if.then19, %if.end
  %alignment_21 = getelementptr inbounds %"class.facebook::velox::memory::MemoryPool", ptr %this1, i32 0, i32 4
  %26 = load i16, ptr %alignment_21, align 4
  invoke void @_ZN8facebook5velox6memory15MemoryAllocator14alignmentCheckEmt(i64 noundef 0, i16 noundef zeroext %26)
          to label %invoke.cont22 unwind label %lpad11

invoke.cont22:                                    ; preds = %if.end20
  ret void

ehcleanup:                                        ; preds = %lpad11, %lpad
  %27 = getelementptr inbounds i8, ptr %this1, i64 8
  call void @_ZNSt23enable_shared_from_thisIN8facebook5velox6memory10MemoryPoolEED2Ev(ptr noundef nonnull align 8 dereferenceable(16) %27) #11
  br label %eh.resume

eh.resume:                                        ; preds = %ehcleanup
  %exn = load ptr, ptr %exn.slot, align 8
  %sel = load i32, ptr %ehselector.slot, align 4
  %lpad.val = insertvalue { ptr, i32 } poison, ptr %exn, 0
  %lpad.val23 = insertvalue { ptr, i32 } %lpad.val, i32 %sel, 1
  resume { ptr, i32 } %lpad.val23
}

; Function Attrs: mustprogress nounwind uwtable
define linkonce_odr void @_ZNSt23enable_shared_from_thisIN8facebook5velox6memory10MemoryPoolEEC2Ev(ptr noundef nonnull align 8 dereferenceable(16) %this) unnamed_addr #3 comdat align 2 {
entry:
  %this.addr = alloca ptr, align 8
  store ptr %this, ptr %this.addr, align 8
  %this1 = load ptr, ptr %this.addr, align 8
  %_M_weak_this = getelementptr inbounds %"class.std::enable_shared_from_this", ptr %this1, i32 0, i32 0
  call void @_ZNSt8weak_ptrIN8facebook5velox6memory10MemoryPoolEEC2Ev(ptr noundef nonnull align 8 dereferenceable(16) %_M_weak_this) #11
  ret void
}

declare void @_ZNSt7__cxx1112basic_stringIcSt11char_traitsIcESaIcEEC1ERKS4_(ptr noundef nonnull align 8 dereferenceable(32), ptr noundef nonnull align 8 dereferenceable(32)) unnamed_addr #1

; Function Attrs: mustprogress nounwind uwtable
define linkonce_odr void @_ZNSt10shared_ptrIN8facebook5velox6memory10MemoryPoolEEC2EOS4_(ptr noundef nonnull align 8 dereferenceable(16) %this, ptr noundef nonnull align 8 dereferenceable(16) %__r) unnamed_addr #3 comdat align 2 {
entry:
  %this.addr = alloca ptr, align 8
  %__r.addr = alloca ptr, align 8
  store ptr %this, ptr %this.addr, align 8
  store ptr %__r, ptr %__r.addr, align 8
  %this1 = load ptr, ptr %this.addr, align 8
  %0 = load ptr, ptr %__r.addr, align 8
  call void @_ZNSt12__shared_ptrIN8facebook5velox6memory10MemoryPoolELN9__gnu_cxx12_Lock_policyE2EEC2EOS6_(ptr noundef nonnull align 8 dereferenceable(16) %this1, ptr noundef nonnull align 8 dereferenceable(16) %0) #11
  ret void
}

; Function Attrs: mustprogress nounwind uwtable
define linkonce_odr noundef zeroext i1 @_ZSteqIN8facebook5velox6memory10MemoryPoolEEbRKSt10shared_ptrIT_EDn(ptr noundef nonnull align 8 dereferenceable(16) %__a, ptr %0) #3 comdat {
entry:
  %__a.addr = alloca ptr, align 8
  %.addr = alloca ptr, align 8
  store ptr %__a, ptr %__a.addr, align 8
  store ptr %0, ptr %.addr, align 8
  %1 = load ptr, ptr %__a.addr, align 8
  %call = call noundef zeroext i1 @_ZNKSt12__shared_ptrIN8facebook5velox6memory10MemoryPoolELN9__gnu_cxx12_Lock_policyE2EEcvbEv(ptr noundef nonnull align 8 dereferenceable(16) %1) #11
  %lnot = xor i1 %call, true
  ret i1 %lnot
}

; Function Attrs: mustprogress nounwind uwtable
define linkonce_odr void @_ZNSt6atomicIbEC2Eb(ptr noundef nonnull align 1 dereferenceable(1) %this, i1 noundef zeroext %__i) unnamed_addr #3 comdat align 2 {
entry:
  %this.addr = alloca ptr, align 8
  %__i.addr = alloca i8, align 1
  store ptr %this, ptr %this.addr, align 8
  %frombool = zext i1 %__i to i8
  store i8 %frombool, ptr %__i.addr, align 1
  %this1 = load ptr, ptr %this.addr, align 8
  %_M_base = getelementptr inbounds %"struct.std::atomic", ptr %this1, i32 0, i32 0
  %0 = load i8, ptr %__i.addr, align 1
  %tobool = trunc i8 %0 to i1
  call void @_ZNSt13__atomic_baseIbEC2Eb(ptr noundef nonnull align 1 dereferenceable(1) %_M_base, i1 noundef zeroext %tobool) #11
  ret void
}

; Function Attrs: mustprogress nounwind uwtable
define linkonce_odr void @_ZNSt15__exception_ptr13exception_ptrC2EDn(ptr noundef nonnull align 8 dereferenceable(8) %this, ptr %0) unnamed_addr #3 comdat align 2 {
entry:
  %this.addr = alloca ptr, align 8
  %.addr = alloca ptr, align 8
  store ptr %this, ptr %this.addr, align 8
  store ptr %0, ptr %.addr, align 8
  %this1 = load ptr, ptr %this.addr, align 8
  %_M_exception_object = getelementptr inbounds %"class.std::__exception_ptr::exception_ptr", ptr %this1, i32 0, i32 0
  store ptr null, ptr %_M_exception_object, align 8
  ret void
}

; Function Attrs: nounwind
declare void @_ZN5folly15SharedMutexImplILb0EvSt6atomicNS_24SharedMutexPolicyDefaultEEC1Ev(ptr noundef nonnull align 4 dereferenceable(4)) unnamed_addr #2

; Function Attrs: mustprogress nounwind uwtable
define linkonce_odr void @_ZNSt13unordered_mapINSt7__cxx1112basic_stringIcSt11char_traitsIcESaIcEEESt8weak_ptrIN8facebook5velox6memory10MemoryPoolEESt4hashIS5_ESt8equal_toIS5_ESaISt4pairIKS5_SB_EEEC2Ev(ptr noundef nonnull align 8 dereferenceable(56) %this) unnamed_addr #3 comdat align 2 {
entry:
  %this.addr = alloca ptr, align 8
  store ptr %this, ptr %this.addr, align 8
  %this1 = load ptr, ptr %this.addr, align 8
  %_M_h = getelementptr inbounds %"class.std::unordered_map", ptr %this1, i32 0, i32 0
  call void @_ZNSt10_HashtableINSt7__cxx1112basic_stringIcSt11char_traitsIcESaIcEEESt4pairIKS5_St8weak_ptrIN8facebook5velox6memory10MemoryPoolEEESaISE_ENSt8__detail10_Select1stESt8equal_toIS5_ESt4hashIS5_ENSG_18_Mod_range_hashingENSG_20_Default_ranged_hashENSG_20_Prime_rehash_policyENSG_17_Hashtable_traitsILb1ELb0ELb1EEEEC2Ev(ptr noundef nonnull align 8 dereferenceable(56) %_M_h) #11
  ret void
}

; Function Attrs: cold noreturn nounwind memory(inaccessiblemem: write)
declare void @llvm.trap() #4

declare void @_ZN8facebook5velox6memory15MemoryAllocator14alignmentCheckEmt(i64 noundef, i16 noundef zeroext) #1

; Function Attrs: mustprogress nounwind uwtable
define linkonce_odr void @_ZNSt13unordered_mapINSt7__cxx1112basic_stringIcSt11char_traitsIcESaIcEEESt8weak_ptrIN8facebook5velox6memory10MemoryPoolEESt4hashIS5_ESt8equal_toIS5_ESaISt4pairIKS5_SB_EEED2Ev(ptr noundef nonnull align 8 dereferenceable(56) %this) unnamed_addr #3 comdat align 2 {
entry:
  %this.addr = alloca ptr, align 8
  store ptr %this, ptr %this.addr, align 8
  %this1 = load ptr, ptr %this.addr, align 8
  %_M_h = getelementptr inbounds %"class.std::unordered_map", ptr %this1, i32 0, i32 0
  call void @_ZNSt10_HashtableINSt7__cxx1112basic_stringIcSt11char_traitsIcESaIcEEESt4pairIKS5_St8weak_ptrIN8facebook5velox6memory10MemoryPoolEEESaISE_ENSt8__detail10_Select1stESt8equal_toIS5_ESt4hashIS5_ENSG_18_Mod_range_hashingENSG_20_Default_ranged_hashENSG_20_Prime_rehash_policyENSG_17_Hashtable_traitsILb1ELb0ELb1EEEED2Ev(ptr noundef nonnull align 8 dereferenceable(56) %_M_h) #11
  ret void
}

; Function Attrs: nounwind
declare void @_ZN5folly15SharedMutexImplILb0EvSt6atomicNS_24SharedMutexPolicyDefaultEED1Ev(ptr noundef nonnull align 4 dereferenceable(4)) unnamed_addr #2

; Function Attrs: mustprogress nounwind uwtable
define linkonce_odr void @_ZNSt15__exception_ptr13exception_ptrD2Ev(ptr noundef nonnull align 8 dereferenceable(8) %this) unnamed_addr #3 comdat align 2 {
entry:
  %this.addr = alloca ptr, align 8
  store ptr %this, ptr %this.addr, align 8
  %this1 = load ptr, ptr %this.addr, align 8
  %_M_exception_object = getelementptr inbounds %"class.std::__exception_ptr::exception_ptr", ptr %this1, i32 0, i32 0
  %0 = load ptr, ptr %_M_exception_object, align 8
  %tobool = icmp ne ptr %0, null
  br i1 %tobool, label %if.then, label %if.end

if.then:                                          ; preds = %entry
  call void @_ZNSt15__exception_ptr13exception_ptr10_M_releaseEv(ptr noundef nonnull align 8 dereferenceable(8) %this1) #11
  br label %if.end

if.end:                                           ; preds = %if.then, %entry
  ret void
}

; Function Attrs: mustprogress nounwind uwtable
define linkonce_odr void @_ZNSt10shared_ptrIN8facebook5velox6memory10MemoryPoolEED2Ev(ptr noundef nonnull align 8 dereferenceable(16) %this) unnamed_addr #3 comdat align 2 {
entry:
  %this.addr = alloca ptr, align 8
  store ptr %this, ptr %this.addr, align 8
  %this1 = load ptr, ptr %this.addr, align 8
  call void @_ZNSt12__shared_ptrIN8facebook5velox6memory10MemoryPoolELN9__gnu_cxx12_Lock_policyE2EED2Ev(ptr noundef nonnull align 8 dereferenceable(16) %this1) #11
  ret void
}

; Function Attrs: mustprogress nounwind uwtable
define linkonce_odr void @_ZNSt23enable_shared_from_thisIN8facebook5velox6memory10MemoryPoolEED2Ev(ptr noundef nonnull align 8 dereferenceable(16) %this) unnamed_addr #3 comdat align 2 {
entry:
  %this.addr = alloca ptr, align 8
  store ptr %this, ptr %this.addr, align 8
  %this1 = load ptr, ptr %this.addr, align 8
  %_M_weak_this = getelementptr inbounds %"class.std::enable_shared_from_this", ptr %this1, i32 0, i32 0
  call void @_ZNSt8weak_ptrIN8facebook5velox6memory10MemoryPoolEED2Ev(ptr noundef nonnull align 8 dereferenceable(16) %_M_weak_this) #11
  ret void
}

; Function Attrs: mustprogress nounwind uwtable
define void @_ZN8facebook5velox6memory10MemoryPoolD2Ev(ptr noundef nonnull align 8 dereferenceable(168) %this) unnamed_addr #3 align 2 {
entry:
  %this.addr = alloca ptr, align 8
  store ptr %this, ptr %this.addr, align 8
  %this1 = load ptr, ptr %this.addr, align 8
  store ptr getelementptr inbounds ({ [52 x ptr] }, ptr @_ZTVN8facebook5velox6memory10MemoryPoolE, i32 0, inrange i32 0, i32 2), ptr %this1, align 8
  %children_ = getelementptr inbounds %"class.facebook::velox::memory::MemoryPool", ptr %this1, i32 0, i32 15
  %call = call noundef zeroext i1 @_ZNKSt13unordered_mapINSt7__cxx1112basic_stringIcSt11char_traitsIcESaIcEEESt8weak_ptrIN8facebook5velox6memory10MemoryPoolEESt4hashIS5_ESt8equal_toIS5_ESaISt4pairIKS5_SB_EEE5emptyEv(ptr noundef nonnull align 8 dereferenceable(56) %children_) #11
  %lnot = xor i1 %call, true
  br i1 %lnot, label %if.then, label %if.end

if.then:                                          ; preds = %entry
  call void @llvm.trap()
  br label %if.end

if.end:                                           ; preds = %if.then, %entry
  %children_2 = getelementptr inbounds %"class.facebook::velox::memory::MemoryPool", ptr %this1, i32 0, i32 15
  call void @_ZNSt13unordered_mapINSt7__cxx1112basic_stringIcSt11char_traitsIcESaIcEEESt8weak_ptrIN8facebook5velox6memory10MemoryPoolEESt4hashIS5_ESt8equal_toIS5_ESaISt4pairIKS5_SB_EEED2Ev(ptr noundef nonnull align 8 dereferenceable(56) %children_2) #11
  %poolMutex_ = getelementptr inbounds %"class.facebook::velox::memory::MemoryPool", ptr %this1, i32 0, i32 14
  call void @_ZN5folly15SharedMutexImplILb0EvSt6atomicNS_24SharedMutexPolicyDefaultEED1Ev(ptr noundef nonnull align 4 dereferenceable(4) %poolMutex_) #11
  %abortError_ = getelementptr inbounds %"class.facebook::velox::memory::MemoryPool", ptr %this1, i32 0, i32 13
  call void @_ZNSt15__exception_ptr13exception_ptrD2Ev(ptr noundef nonnull align 8 dereferenceable(8) %abortError_) #11
  %parent_ = getelementptr inbounds %"class.facebook::velox::memory::MemoryPool", ptr %this1, i32 0, i32 5
  call void @_ZNSt10shared_ptrIN8facebook5velox6memory10MemoryPoolEED2Ev(ptr noundef nonnull align 8 dereferenceable(16) %parent_) #11
  %name_ = getelementptr inbounds %"class.facebook::velox::memory::MemoryPool", ptr %this1, i32 0, i32 2
  call void @_ZNSt7__cxx1112basic_stringIcSt11char_traitsIcESaIcEED1Ev(ptr noundef nonnull align 8 dereferenceable(32) %name_) #11
  %0 = getelementptr inbounds i8, ptr %this1, i64 8
  call void @_ZNSt23enable_shared_from_thisIN8facebook5velox6memory10MemoryPoolEED2Ev(ptr noundef nonnull align 8 dereferenceable(16) %0) #11
  ret void
}

; Function Attrs: mustprogress nounwind uwtable
define linkonce_odr noundef zeroext i1 @_ZNKSt13unordered_mapINSt7__cxx1112basic_stringIcSt11char_traitsIcESaIcEEESt8weak_ptrIN8facebook5velox6memory10MemoryPoolEESt4hashIS5_ESt8equal_toIS5_ESaISt4pairIKS5_SB_EEE5emptyEv(ptr noundef nonnull align 8 dereferenceable(56) %this) #3 comdat align 2 {
entry:
  %this.addr = alloca ptr, align 8
  store ptr %this, ptr %this.addr, align 8
  %this1 = load ptr, ptr %this.addr, align 8
  %_M_h = getelementptr inbounds %"class.std::unordered_map", ptr %this1, i32 0, i32 0
  %call = call noundef zeroext i1 @_ZNKSt10_HashtableINSt7__cxx1112basic_stringIcSt11char_traitsIcESaIcEEESt4pairIKS5_St8weak_ptrIN8facebook5velox6memory10MemoryPoolEEESaISE_ENSt8__detail10_Select1stESt8equal_toIS5_ESt4hashIS5_ENSG_18_Mod_range_hashingENSG_20_Default_ranged_hashENSG_20_Prime_rehash_policyENSG_17_Hashtable_traitsILb1ELb0ELb1EEEE5emptyEv(ptr noundef nonnull align 8 dereferenceable(56) %_M_h) #11
  ret i1 %call
}

; Function Attrs: mustprogress nounwind uwtable
define void @_ZN8facebook5velox6memory10MemoryPoolD0Ev(ptr noundef nonnull align 8 dereferenceable(168) %this) unnamed_addr #3 align 2 {
entry:
  %this.addr = alloca ptr, align 8
  store ptr %this, ptr %this.addr, align 8
  call void @llvm.trap() #15
  unreachable
}

; Function Attrs: mustprogress uwtable
define void @_ZN8facebook5velox6memory10MemoryPool10kindStringB5cxx11ENS2_4KindE(ptr noalias sret(%"class.std::__cxx11::basic_string") align 8 %agg.result, i32 noundef %kind) #0 align 2 personality ptr @__gxx_personality_v0 {
entry:
  %.addr.i = alloca ptr, align 8
  %this.addr.i15 = alloca ptr, align 8
  %this.addr.i.i = alloca ptr, align 8
  %desc.addr.i.i = alloca i64, align 8
  %values.addr.i.i = alloca ptr, align 8
  %this.addr.i13 = alloca ptr, align 8
  %store.addr.i = alloca ptr, align 8
  %retval.i = alloca %"class.fmt::v8::basic_string_view", align 8
  %this.addr.i11 = alloca ptr, align 8
  %this.addr.i7 = alloca ptr, align 8
  %s.addr.i8 = alloca ptr, align 8
  %this.addr.i = alloca ptr, align 8
  %s.addr.i = alloca ptr, align 8
  %result.ptr.i = alloca ptr, align 8
  %fmt.i = alloca %"class.fmt::v8::basic_format_string.23", align 8
  %args.addr.i = alloca ptr, align 8
  %agg.tmp.i = alloca %"class.fmt::v8::basic_string_view", align 8
  %agg.tmp1.i = alloca %"class.fmt::v8::basic_format_args", align 8
  %ref.tmp.i = alloca %"class.fmt::v8::format_arg_store.145", align 16
  %result.ptr = alloca ptr, align 8
  %kind.addr = alloca i32, align 4
  %ref.tmp = alloca %"class.std::allocator", align 1
  %exn.slot = alloca ptr, align 8
  %ehselector.slot = alloca i32, align 4
  %ref.tmp2 = alloca %"class.std::allocator", align 1
  %agg.tmp = alloca %"class.fmt::v8::basic_format_string.23", align 8
  %ref.tmp5 = alloca i32, align 4
  store ptr %agg.result, ptr %result.ptr, align 8
  store i32 %kind, ptr %kind.addr, align 4
  %0 = load i32, ptr %kind.addr, align 4
  switch i32 %0, label %sw.default [
    i32 0, label %sw.bb
    i32 1, label %sw.bb1
  ]

sw.bb:                                            ; preds = %entry
  call void @_ZNSaIcEC1Ev(ptr noundef nonnull align 1 dereferenceable(1) %ref.tmp) #11
  invoke void @_ZNSt7__cxx1112basic_stringIcSt11char_traitsIcESaIcEEC2IS3_EEPKcRKS3_(ptr noundef nonnull align 8 dereferenceable(32) %agg.result, ptr noundef @.str.1, ptr noundef nonnull align 1 dereferenceable(1) %ref.tmp)
          to label %invoke.cont unwind label %lpad

invoke.cont:                                      ; preds = %sw.bb
  call void @_ZNSaIcED1Ev(ptr noundef nonnull align 1 dereferenceable(1) %ref.tmp) #11
  br label %return

lpad:                                             ; preds = %sw.bb
  %1 = landingpad { ptr, i32 }
          cleanup
  %2 = extractvalue { ptr, i32 } %1, 0
  store ptr %2, ptr %exn.slot, align 8
  %3 = extractvalue { ptr, i32 } %1, 1
  store i32 %3, ptr %ehselector.slot, align 4
  call void @_ZNSaIcED1Ev(ptr noundef nonnull align 1 dereferenceable(1) %ref.tmp) #11
  br label %eh.resume

sw.bb1:                                           ; preds = %entry
  call void @_ZNSaIcEC1Ev(ptr noundef nonnull align 1 dereferenceable(1) %ref.tmp2) #11
  invoke void @_ZNSt7__cxx1112basic_stringIcSt11char_traitsIcESaIcEEC2IS3_EEPKcRKS3_(ptr noundef nonnull align 8 dereferenceable(32) %agg.result, ptr noundef @.str.2, ptr noundef nonnull align 1 dereferenceable(1) %ref.tmp2)
          to label %invoke.cont4 unwind label %lpad3

invoke.cont4:                                     ; preds = %sw.bb1
  call void @_ZNSaIcED1Ev(ptr noundef nonnull align 1 dereferenceable(1) %ref.tmp2) #11
  br label %return

lpad3:                                            ; preds = %sw.bb1
  %4 = landingpad { ptr, i32 }
          cleanup
  %5 = extractvalue { ptr, i32 } %4, 0
  store ptr %5, ptr %exn.slot, align 8
  %6 = extractvalue { ptr, i32 } %4, 1
  store i32 %6, ptr %ehselector.slot, align 4
  call void @_ZNSaIcED1Ev(ptr noundef nonnull align 1 dereferenceable(1) %ref.tmp2) #11
  br label %eh.resume

sw.default:                                       ; preds = %entry
  store ptr %agg.tmp, ptr %this.addr.i, align 8
  store ptr @.str.3, ptr %s.addr.i, align 8
  %this1.i = load ptr, ptr %this.addr.i, align 8
  %7 = load ptr, ptr %s.addr.i, align 8
  store ptr %this1.i, ptr %this.addr.i7, align 8
  store ptr %7, ptr %s.addr.i8, align 8
  %this1.i9 = load ptr, ptr %this.addr.i7, align 8
  %8 = load ptr, ptr %s.addr.i8, align 8
  store ptr %8, ptr %this1.i9, align 8
  %size_.i = getelementptr inbounds %"class.fmt::v8::basic_string_view", ptr %this1.i9, i32 0, i32 1
  %9 = load ptr, ptr %s.addr.i8, align 8
  %call.i10 = call noundef i64 @_ZNSt11char_traitsIcE6lengthEPKc(ptr noundef %9)
  store i64 %call.i10, ptr %size_.i, align 8
  %10 = load ptr, ptr %s.addr.i, align 8
  store ptr %10, ptr %.addr.i, align 8
  %11 = load i32, ptr %kind.addr, align 4
  store i32 %11, ptr %ref.tmp5, align 4
  %12 = getelementptr inbounds { ptr, i64 }, ptr %agg.tmp, i32 0, i32 0
  %13 = load ptr, ptr %12, align 8
  %14 = getelementptr inbounds { ptr, i64 }, ptr %agg.tmp, i32 0, i32 1
  %15 = load i64, ptr %14, align 8
  call void @llvm.experimental.noalias.scope.decl(metadata !7)
  store ptr %agg.result, ptr %result.ptr.i, align 8, !noalias !7
  store ptr %13, ptr %fmt.i, align 8, !noalias !7
  %16 = getelementptr inbounds { ptr, i64 }, ptr %fmt.i, i32 0, i32 1
  store i64 %15, ptr %16, align 8, !noalias !7
  store ptr %ref.tmp5, ptr %args.addr.i, align 8, !noalias !7
  store ptr %fmt.i, ptr %this.addr.i11, align 8
  %this1.i12 = load ptr, ptr %this.addr.i11, align 8
  call void @llvm.memcpy.p0.p0.i64(ptr align 8 %retval.i, ptr align 8 %this1.i12, i64 16, i1 false)
  %17 = load { ptr, i64 }, ptr %retval.i, align 8
  %18 = extractvalue { ptr, i64 } %17, 0
  store ptr %18, ptr %agg.tmp.i, align 8, !noalias !7
  %19 = getelementptr inbounds { ptr, i64 }, ptr %agg.tmp.i, i32 0, i32 1
  %20 = extractvalue { ptr, i64 } %17, 1
  store i64 %20, ptr %19, align 8, !noalias !7
  %21 = load ptr, ptr %args.addr.i, align 8, !noalias !7
  %call2.i = call { i64, i64 } @_ZN3fmt2v816make_format_argsINS0_20basic_format_contextINS0_8appenderEcEEJRiEEENS0_16format_arg_storeIT_JDpNSt9remove_cvINSt16remove_referenceIT0_E4typeEE4typeEEEEDpOSA_(ptr noundef nonnull align 4 dereferenceable(4) %21)
  %22 = extractvalue { i64, i64 } %call2.i, 0
  store i64 %22, ptr %ref.tmp.i, align 16, !noalias !7
  %23 = getelementptr inbounds { i64, i64 }, ptr %ref.tmp.i, i32 0, i32 1
  %24 = extractvalue { i64, i64 } %call2.i, 1
  store i64 %24, ptr %23, align 8, !noalias !7
  store ptr %agg.tmp1.i, ptr %this.addr.i13, align 8
  store ptr %ref.tmp.i, ptr %store.addr.i, align 8
  %this1.i14 = load ptr, ptr %this.addr.i13, align 8
  %25 = load ptr, ptr %store.addr.i, align 8
  store ptr %25, ptr %this.addr.i15, align 8
  %this1.i16 = load ptr, ptr %this.addr.i15, align 8
  store ptr %this1.i14, ptr %this.addr.i.i, align 8
  store i64 1, ptr %desc.addr.i.i, align 8
  store ptr %this1.i16, ptr %values.addr.i.i, align 8
  %this1.i.i = load ptr, ptr %this.addr.i.i, align 8
  %26 = load i64, ptr %desc.addr.i.i, align 8
  store i64 %26, ptr %this1.i.i, align 8
  %27 = getelementptr inbounds %"class.fmt::v8::basic_format_args", ptr %this1.i.i, i32 0, i32 1
  %28 = load ptr, ptr %values.addr.i.i, align 8
  store ptr %28, ptr %27, align 8
  %29 = load ptr, ptr %agg.tmp.i, align 8, !noalias !7
  %30 = getelementptr inbounds { ptr, i64 }, ptr %agg.tmp.i, i32 0, i32 1
  %31 = load i64, ptr %30, align 8, !noalias !7
  %32 = load i64, ptr %agg.tmp1.i, align 8, !noalias !7
  %33 = getelementptr inbounds { i64, ptr }, ptr %agg.tmp1.i, i32 0, i32 1
  %34 = load ptr, ptr %33, align 8, !noalias !7
  call void @_ZN3fmt2v87vformatB5cxx11ENS0_17basic_string_viewIcEENS0_17basic_format_argsINS0_20basic_format_contextINS0_8appenderEcEEEE(ptr sret(%"class.std::__cxx11::basic_string") align 8 %agg.result, ptr %29, i64 %31, i64 %32, ptr %34)
  br label %return

return:                                           ; preds = %sw.default, %invoke.cont4, %invoke.cont
  ret void

eh.resume:                                        ; preds = %lpad3, %lpad
  %exn = load ptr, ptr %exn.slot, align 8
  %sel = load i32, ptr %ehselector.slot, align 4
  %lpad.val = insertvalue { ptr, i32 } poison, ptr %exn, 0
  %lpad.val6 = insertvalue { ptr, i32 } %lpad.val, i32 %sel, 1
  resume { ptr, i32 } %lpad.val6
}

; Function Attrs: nounwind
declare void @_ZNSaIcEC1Ev(ptr noundef nonnull align 1 dereferenceable(1)) unnamed_addr #2

; Function Attrs: mustprogress uwtable
define linkonce_odr void @_ZNSt7__cxx1112basic_stringIcSt11char_traitsIcESaIcEEC2IS3_EEPKcRKS3_(ptr noundef nonnull align 8 dereferenceable(32) %this, ptr noundef %__s, ptr noundef nonnull align 1 dereferenceable(1) %__a) unnamed_addr #0 comdat align 2 personality ptr @__gxx_personality_v0 {
entry:
  %this.addr = alloca ptr, align 8
  %__s.addr = alloca ptr, align 8
  %__a.addr = alloca ptr, align 8
  %exn.slot = alloca ptr, align 8
  %ehselector.slot = alloca i32, align 4
  %__end = alloca ptr, align 8
  store ptr %this, ptr %this.addr, align 8
  store ptr %__s, ptr %__s.addr, align 8
  store ptr %__a, ptr %__a.addr, align 8
  %this1 = load ptr, ptr %this.addr, align 8
  %_M_dataplus = getelementptr inbounds %"class.std::__cxx11::basic_string", ptr %this1, i32 0, i32 0
  %call = call noundef ptr @_ZNSt7__cxx1112basic_stringIcSt11char_traitsIcESaIcEE13_M_local_dataEv(ptr noundef nonnull align 8 dereferenceable(32) %this1)
  %0 = load ptr, ptr %__a.addr, align 8
  call void @_ZNSt7__cxx1112basic_stringIcSt11char_traitsIcESaIcEE12_Alloc_hiderC1EPcRKS3_(ptr noundef nonnull align 8 dereferenceable(8) %_M_dataplus, ptr noundef %call, ptr noundef nonnull align 1 dereferenceable(1) %0)
  %1 = load ptr, ptr %__s.addr, align 8
  %cmp = icmp eq ptr %1, null
  br i1 %cmp, label %if.then, label %if.end

if.then:                                          ; preds = %entry
  invoke void @_ZSt19__throw_logic_errorPKc(ptr noundef @.str.51) #16
          to label %invoke.cont unwind label %lpad

invoke.cont:                                      ; preds = %if.then
  unreachable

lpad:                                             ; preds = %if.end, %if.then
  %2 = landingpad { ptr, i32 }
          cleanup
  %3 = extractvalue { ptr, i32 } %2, 0
  store ptr %3, ptr %exn.slot, align 8
  %4 = extractvalue { ptr, i32 } %2, 1
  store i32 %4, ptr %ehselector.slot, align 4
  call void @_ZNSt7__cxx1112basic_stringIcSt11char_traitsIcESaIcEE12_Alloc_hiderD2Ev(ptr noundef nonnull align 8 dereferenceable(8) %_M_dataplus) #11
  br label %eh.resume

if.end:                                           ; preds = %entry
  %5 = load ptr, ptr %__s.addr, align 8
  %6 = load ptr, ptr %__s.addr, align 8
  %call2 = call noundef i64 @_ZNSt11char_traitsIcE6lengthEPKc(ptr noundef %6)
  %add.ptr = getelementptr inbounds i8, ptr %5, i64 %call2
  store ptr %add.ptr, ptr %__end, align 8
  %7 = load ptr, ptr %__s.addr, align 8
  %8 = load ptr, ptr %__end, align 8
  invoke void @_ZNSt7__cxx1112basic_stringIcSt11char_traitsIcESaIcEE12_M_constructIPKcEEvT_S8_St20forward_iterator_tag(ptr noundef nonnull align 8 dereferenceable(32) %this1, ptr noundef %7, ptr noundef %8)
          to label %invoke.cont3 unwind label %lpad

invoke.cont3:                                     ; preds = %if.end
  ret void

eh.resume:                                        ; preds = %lpad
  %exn = load ptr, ptr %exn.slot, align 8
  %sel = load i32, ptr %ehselector.slot, align 4
  %lpad.val = insertvalue { ptr, i32 } poison, ptr %exn, 0
  %lpad.val4 = insertvalue { ptr, i32 } %lpad.val, i32 %sel, 1
  resume { ptr, i32 } %lpad.val4
}

; Function Attrs: nounwind
declare void @_ZNSaIcED1Ev(ptr noundef nonnull align 1 dereferenceable(1)) unnamed_addr #2

; Function Attrs: mustprogress uwtable
define noundef nonnull align 8 dereferenceable(8) ptr @_ZN8facebook5velox6memorylsERSoNS1_10MemoryPool4KindE(ptr noundef nonnull align 8 dereferenceable(8) %out, i32 noundef %kind) #0 personality ptr @__gxx_personality_v0 {
entry:
  %out.addr = alloca ptr, align 8
  %kind.addr = alloca i32, align 4
  %ref.tmp = alloca %"class.std::__cxx11::basic_string", align 8
  %exn.slot = alloca ptr, align 8
  %ehselector.slot = alloca i32, align 4
  store ptr %out, ptr %out.addr, align 8
  store i32 %kind, ptr %kind.addr, align 4
  %0 = load ptr, ptr %out.addr, align 8
  %1 = load i32, ptr %kind.addr, align 4
  call void @_ZN8facebook5velox6memory10MemoryPool10kindStringB5cxx11ENS2_4KindE(ptr sret(%"class.std::__cxx11::basic_string") align 8 %ref.tmp, i32 noundef %1)
  %call = invoke noundef nonnull align 8 dereferenceable(8) ptr @_ZStlsIcSt11char_traitsIcESaIcEERSt13basic_ostreamIT_T0_ES7_RKNSt7__cxx1112basic_stringIS4_S5_T1_EE(ptr noundef nonnull align 8 dereferenceable(8) %0, ptr noundef nonnull align 8 dereferenceable(32) %ref.tmp)
          to label %invoke.cont unwind label %lpad

invoke.cont:                                      ; preds = %entry
  call void @_ZNSt7__cxx1112basic_stringIcSt11char_traitsIcESaIcEED1Ev(ptr noundef nonnull align 8 dereferenceable(32) %ref.tmp) #11
  ret ptr %call

lpad:                                             ; preds = %entry
  %2 = landingpad { ptr, i32 }
          cleanup
  %3 = extractvalue { ptr, i32 } %2, 0
  store ptr %3, ptr %exn.slot, align 8
  %4 = extractvalue { ptr, i32 } %2, 1
  store i32 %4, ptr %ehselector.slot, align 4
  call void @_ZNSt7__cxx1112basic_stringIcSt11char_traitsIcESaIcEED1Ev(ptr noundef nonnull align 8 dereferenceable(32) %ref.tmp) #11
  br label %eh.resume

eh.resume:                                        ; preds = %lpad
  %exn = load ptr, ptr %exn.slot, align 8
  %sel = load i32, ptr %ehselector.slot, align 4
  %lpad.val = insertvalue { ptr, i32 } poison, ptr %exn, 0
  %lpad.val1 = insertvalue { ptr, i32 } %lpad.val, i32 %sel, 1
  resume { ptr, i32 } %lpad.val1
}

; Function Attrs: mustprogress nounwind uwtable
define noundef nonnull align 8 dereferenceable(32) ptr @_ZNK8facebook5velox6memory10MemoryPool4nameB5cxx11Ev(ptr noundef nonnull align 8 dereferenceable(168) %this) unnamed_addr #3 align 2 {
entry:
  %this.addr = alloca ptr, align 8
  store ptr %this, ptr %this.addr, align 8
  %this1 = load ptr, ptr %this.addr, align 8
  %name_ = getelementptr inbounds %"class.facebook::velox::memory::MemoryPool", ptr %this1, i32 0, i32 2
  ret ptr %name_
}

; Function Attrs: mustprogress nounwind uwtable
define noundef i32 @_ZNK8facebook5velox6memory10MemoryPool4kindEv(ptr noundef nonnull align 8 dereferenceable(168) %this) unnamed_addr #3 align 2 {
entry:
  %this.addr = alloca ptr, align 8
  store ptr %this, ptr %this.addr, align 8
  %this1 = load ptr, ptr %this.addr, align 8
  %kind_ = getelementptr inbounds %"class.facebook::velox::memory::MemoryPool", ptr %this1, i32 0, i32 3
  %0 = load i32, ptr %kind_, align 8
  ret i32 %0
}

; Function Attrs: mustprogress nounwind uwtable
define noundef ptr @_ZNK8facebook5velox6memory10MemoryPool6parentEv(ptr noundef nonnull align 8 dereferenceable(168) %this) unnamed_addr #3 align 2 {
entry:
  %this.addr = alloca ptr, align 8
  store ptr %this, ptr %this.addr, align 8
  %this1 = load ptr, ptr %this.addr, align 8
  %parent_ = getelementptr inbounds %"class.facebook::velox::memory::MemoryPool", ptr %this1, i32 0, i32 5
  %call = call noundef ptr @_ZNKSt12__shared_ptrIN8facebook5velox6memory10MemoryPoolELN9__gnu_cxx12_Lock_policyE2EE3getEv(ptr noundef nonnull align 8 dereferenceable(16) %parent_) #11
  ret ptr %call
}

; Function Attrs: mustprogress nounwind uwtable
define linkonce_odr noundef ptr @_ZNKSt12__shared_ptrIN8facebook5velox6memory10MemoryPoolELN9__gnu_cxx12_Lock_policyE2EE3getEv(ptr noundef nonnull align 8 dereferenceable(16) %this) #3 comdat align 2 {
entry:
  %this.addr = alloca ptr, align 8
  store ptr %this, ptr %this.addr, align 8
  %this1 = load ptr, ptr %this.addr, align 8
  %_M_ptr = getelementptr inbounds %"class.std::__shared_ptr", ptr %this1, i32 0, i32 0
  %0 = load ptr, ptr %_M_ptr, align 8
  ret ptr %0
}

; Function Attrs: mustprogress nounwind uwtable
define noundef ptr @_ZNK8facebook5velox6memory10MemoryPool4rootEv(ptr noundef nonnull align 8 dereferenceable(168) %this) unnamed_addr #3 align 2 {
entry:
  %this.addr = alloca ptr, align 8
  %pool = alloca ptr, align 8
  store ptr %this, ptr %this.addr, align 8
  %this1 = load ptr, ptr %this.addr, align 8
  store ptr %this1, ptr %pool, align 8
  br label %while.cond

while.cond:                                       ; preds = %while.body, %entry
  %0 = load ptr, ptr %pool, align 8
  %parent_ = getelementptr inbounds %"class.facebook::velox::memory::MemoryPool", ptr %0, i32 0, i32 5
  %call = call noundef zeroext i1 @_ZStneIN8facebook5velox6memory10MemoryPoolEEbRKSt10shared_ptrIT_EDn(ptr noundef nonnull align 8 dereferenceable(16) %parent_, ptr null) #11
  br i1 %call, label %while.body, label %while.end

while.body:                                       ; preds = %while.cond
  %1 = load ptr, ptr %pool, align 8
  %parent_2 = getelementptr inbounds %"class.facebook::velox::memory::MemoryPool", ptr %1, i32 0, i32 5
  %call3 = call noundef ptr @_ZNKSt12__shared_ptrIN8facebook5velox6memory10MemoryPoolELN9__gnu_cxx12_Lock_policyE2EE3getEv(ptr noundef nonnull align 8 dereferenceable(16) %parent_2) #11
  store ptr %call3, ptr %pool, align 8
  br label %while.cond, !llvm.loop !10

while.end:                                        ; preds = %while.cond
  %2 = load ptr, ptr %pool, align 8
  ret ptr %2
}

; Function Attrs: mustprogress nounwind uwtable
define linkonce_odr noundef zeroext i1 @_ZStneIN8facebook5velox6memory10MemoryPoolEEbRKSt10shared_ptrIT_EDn(ptr noundef nonnull align 8 dereferenceable(16) %__a, ptr %0) #3 comdat {
entry:
  %__a.addr = alloca ptr, align 8
  %.addr = alloca ptr, align 8
  store ptr %__a, ptr %__a.addr, align 8
  store ptr %0, ptr %.addr, align 8
  %1 = load ptr, ptr %__a.addr, align 8
  %call = call noundef zeroext i1 @_ZNKSt12__shared_ptrIN8facebook5velox6memory10MemoryPoolELN9__gnu_cxx12_Lock_policyE2EEcvbEv(ptr noundef nonnull align 8 dereferenceable(16) %1) #11
  ret i1 %call
}

; Function Attrs: mustprogress uwtable
define noundef i64 @_ZNK8facebook5velox6memory10MemoryPool13getChildCountEv(ptr noundef nonnull align 8 dereferenceable(168) %this) unnamed_addr #0 align 2 {
entry:
  %this.addr = alloca ptr, align 8
  %guard = alloca %"class.folly::SharedMutexImpl<false>::ReadHolder", align 8
  store ptr %this, ptr %this.addr, align 8
  %this1 = load ptr, ptr %this.addr, align 8
  %poolMutex_ = getelementptr inbounds %"class.facebook::velox::memory::MemoryPool", ptr %this1, i32 0, i32 14
  call void @_ZN5folly15SharedMutexImplILb0EvSt6atomicNS_24SharedMutexPolicyDefaultEE10ReadHolderC1ERKS3_(ptr noundef nonnull align 8 dereferenceable(12) %guard, ptr noundef nonnull align 4 dereferenceable(4) %poolMutex_)
  %children_ = getelementptr inbounds %"class.facebook::velox::memory::MemoryPool", ptr %this1, i32 0, i32 15
  %call = call noundef i64 @_ZNKSt13unordered_mapINSt7__cxx1112basic_stringIcSt11char_traitsIcESaIcEEESt8weak_ptrIN8facebook5velox6memory10MemoryPoolEESt4hashIS5_ESt8equal_toIS5_ESaISt4pairIKS5_SB_EEE4sizeEv(ptr noundef nonnull align 8 dereferenceable(56) %children_) #11
  call void @_ZN5folly15SharedMutexImplILb0EvSt6atomicNS_24SharedMutexPolicyDefaultEE10ReadHolderD1Ev(ptr noundef nonnull align 8 dereferenceable(12) %guard) #11
  ret i64 %call
}

declare void @_ZN5folly15SharedMutexImplILb0EvSt6atomicNS_24SharedMutexPolicyDefaultEE10ReadHolderC1ERKS3_(ptr noundef nonnull align 8 dereferenceable(12), ptr noundef nonnull align 4 dereferenceable(4)) unnamed_addr #1

; Function Attrs: mustprogress nounwind uwtable
define linkonce_odr noundef i64 @_ZNKSt13unordered_mapINSt7__cxx1112basic_stringIcSt11char_traitsIcESaIcEEESt8weak_ptrIN8facebook5velox6memory10MemoryPoolEESt4hashIS5_ESt8equal_toIS5_ESaISt4pairIKS5_SB_EEE4sizeEv(ptr noundef nonnull align 8 dereferenceable(56) %this) #3 comdat align 2 {
entry:
  %this.addr = alloca ptr, align 8
  store ptr %this, ptr %this.addr, align 8
  %this1 = load ptr, ptr %this.addr, align 8
  %_M_h = getelementptr inbounds %"class.std::unordered_map", ptr %this1, i32 0, i32 0
  %call = call noundef i64 @_ZNKSt10_HashtableINSt7__cxx1112basic_stringIcSt11char_traitsIcESaIcEEESt4pairIKS5_St8weak_ptrIN8facebook5velox6memory10MemoryPoolEEESaISE_ENSt8__detail10_Select1stESt8equal_toIS5_ESt4hashIS5_ENSG_18_Mod_range_hashingENSG_20_Default_ranged_hashENSG_20_Prime_rehash_policyENSG_17_Hashtable_traitsILb1ELb0ELb1EEEE4sizeEv(ptr noundef nonnull align 8 dereferenceable(56) %_M_h) #11
  ret i64 %call
}

; Function Attrs: nounwind
declare void @_ZN5folly15SharedMutexImplILb0EvSt6atomicNS_24SharedMutexPolicyDefaultEE10ReadHolderD1Ev(ptr noundef nonnull align 8 dereferenceable(12)) unnamed_addr #2

; Function Attrs: mustprogress uwtable
define void @_ZNK8facebook5velox6memory10MemoryPool13visitChildrenERKSt8functionIFbPS2_EE(ptr noundef nonnull align 8 dereferenceable(168) %this, ptr noundef nonnull align 8 dereferenceable(32) %visitor) unnamed_addr #0 align 2 personality ptr @__gxx_personality_v0 {
entry:
  %this.addr = alloca ptr, align 8
  %visitor.addr = alloca ptr, align 8
  %children = alloca %"class.std::vector", align 8
  %guard = alloca %"class.folly::SharedMutexImpl<false>::ReadHolder", align 8
  %exn.slot = alloca ptr, align 8
  %ehselector.slot = alloca i32, align 4
  %__range3 = alloca ptr, align 8
  %__begin3 = alloca %"struct.std::__detail::_Node_const_iterator", align 8
  %__end3 = alloca %"struct.std::__detail::_Node_const_iterator", align 8
  %entry11 = alloca ptr, align 8
  %child = alloca %"class.std::shared_ptr", align 8
  %__range2 = alloca ptr, align 8
  %__begin2 = alloca %"class.__gnu_cxx::__normal_iterator", align 8
  %__end2 = alloca %"class.__gnu_cxx::__normal_iterator", align 8
  %child24 = alloca ptr, align 8
  %cleanup.dest.slot = alloca i32, align 4
  store ptr %this, ptr %this.addr, align 8
  store ptr %visitor, ptr %visitor.addr, align 8
  %this1 = load ptr, ptr %this.addr, align 8
  call void @_ZNSt6vectorISt10shared_ptrIN8facebook5velox6memory10MemoryPoolEESaIS5_EEC2Ev(ptr noundef nonnull align 8 dereferenceable(24) %children) #11
  %poolMutex_ = getelementptr inbounds %"class.facebook::velox::memory::MemoryPool", ptr %this1, i32 0, i32 14
  invoke void @_ZN5folly15SharedMutexImplILb0EvSt6atomicNS_24SharedMutexPolicyDefaultEE10ReadHolderC1ERKS3_(ptr noundef nonnull align 8 dereferenceable(12) %guard, ptr noundef nonnull align 4 dereferenceable(4) %poolMutex_)
          to label %invoke.cont unwind label %lpad

invoke.cont:                                      ; preds = %entry
  %children_ = getelementptr inbounds %"class.facebook::velox::memory::MemoryPool", ptr %this1, i32 0, i32 15
  %call = call noundef i64 @_ZNKSt13unordered_mapINSt7__cxx1112basic_stringIcSt11char_traitsIcESaIcEEESt8weak_ptrIN8facebook5velox6memory10MemoryPoolEESt4hashIS5_ESt8equal_toIS5_ESaISt4pairIKS5_SB_EEE4sizeEv(ptr noundef nonnull align 8 dereferenceable(56) %children_) #11
  invoke void @_ZNSt6vectorISt10shared_ptrIN8facebook5velox6memory10MemoryPoolEESaIS5_EE7reserveEm(ptr noundef nonnull align 8 dereferenceable(24) %children, i64 noundef %call)
          to label %invoke.cont3 unwind label %lpad2

invoke.cont3:                                     ; preds = %invoke.cont
  %children_4 = getelementptr inbounds %"class.facebook::velox::memory::MemoryPool", ptr %this1, i32 0, i32 15
  store ptr %children_4, ptr %__range3, align 8
  %0 = load ptr, ptr %__range3, align 8
  %call5 = call ptr @_ZNKSt13unordered_mapINSt7__cxx1112basic_stringIcSt11char_traitsIcESaIcEEESt8weak_ptrIN8facebook5velox6memory10MemoryPoolEESt4hashIS5_ESt8equal_toIS5_ESaISt4pairIKS5_SB_EEE5beginEv(ptr noundef nonnull align 8 dereferenceable(56) %0) #11
  %coerce.dive = getelementptr inbounds %"struct.std::__detail::_Node_const_iterator", ptr %__begin3, i32 0, i32 0
  %coerce.dive6 = getelementptr inbounds %"struct.std::__detail::_Node_iterator_base", ptr %coerce.dive, i32 0, i32 0
  store ptr %call5, ptr %coerce.dive6, align 8
  %1 = load ptr, ptr %__range3, align 8
  %call7 = call ptr @_ZNKSt13unordered_mapINSt7__cxx1112basic_stringIcSt11char_traitsIcESaIcEEESt8weak_ptrIN8facebook5velox6memory10MemoryPoolEESt4hashIS5_ESt8equal_toIS5_ESaISt4pairIKS5_SB_EEE3endEv(ptr noundef nonnull align 8 dereferenceable(56) %1) #11
  %coerce.dive8 = getelementptr inbounds %"struct.std::__detail::_Node_const_iterator", ptr %__end3, i32 0, i32 0
  %coerce.dive9 = getelementptr inbounds %"struct.std::__detail::_Node_iterator_base", ptr %coerce.dive8, i32 0, i32 0
  store ptr %call7, ptr %coerce.dive9, align 8
  br label %for.cond

for.cond:                                         ; preds = %for.inc, %invoke.cont3
  %call10 = call noundef zeroext i1 @_ZNSt8__detailneERKNS_19_Node_iterator_baseISt4pairIKNSt7__cxx1112basic_stringIcSt11char_traitsIcESaIcEEESt8weak_ptrIN8facebook5velox6memory10MemoryPoolEEELb1EEESI_(ptr noundef nonnull align 8 dereferenceable(8) %__begin3, ptr noundef nonnull align 8 dereferenceable(8) %__end3) #11
  br i1 %call10, label %for.body, label %for.end

for.body:                                         ; preds = %for.cond
  %call12 = call noundef nonnull align 8 dereferenceable(48) ptr @_ZNKSt8__detail20_Node_const_iteratorISt4pairIKNSt7__cxx1112basic_stringIcSt11char_traitsIcESaIcEEESt8weak_ptrIN8facebook5velox6memory10MemoryPoolEEELb0ELb1EEdeEv(ptr noundef nonnull align 8 dereferenceable(8) %__begin3) #11
  store ptr %call12, ptr %entry11, align 8
  %2 = load ptr, ptr %entry11, align 8
  %second = getelementptr inbounds %"struct.std::pair", ptr %2, i32 0, i32 1
  call void @_ZNKSt8weak_ptrIN8facebook5velox6memory10MemoryPoolEE4lockEv(ptr sret(%"class.std::shared_ptr") align 8 %child, ptr noundef nonnull align 8 dereferenceable(16) %second) #11
  %call13 = call noundef zeroext i1 @_ZStneIN8facebook5velox6memory10MemoryPoolEEbRKSt10shared_ptrIT_EDn(ptr noundef nonnull align 8 dereferenceable(16) %child, ptr null) #11
  br i1 %call13, label %if.then, label %if.end

if.then:                                          ; preds = %for.body
  invoke void @_ZNSt6vectorISt10shared_ptrIN8facebook5velox6memory10MemoryPoolEESaIS5_EE9push_backEOS5_(ptr noundef nonnull align 8 dereferenceable(24) %children, ptr noundef nonnull align 8 dereferenceable(16) %child)
          to label %invoke.cont15 unwind label %lpad14

invoke.cont15:                                    ; preds = %if.then
  br label %if.end

lpad:                                             ; preds = %for.body23, %entry
  %3 = landingpad { ptr, i32 }
          cleanup
  %4 = extractvalue { ptr, i32 } %3, 0
  store ptr %4, ptr %exn.slot, align 8
  %5 = extractvalue { ptr, i32 } %3, 1
  store i32 %5, ptr %ehselector.slot, align 4
  br label %ehcleanup34

lpad2:                                            ; preds = %invoke.cont
  %6 = landingpad { ptr, i32 }
          cleanup
  %7 = extractvalue { ptr, i32 } %6, 0
  store ptr %7, ptr %exn.slot, align 8
  %8 = extractvalue { ptr, i32 } %6, 1
  store i32 %8, ptr %ehselector.slot, align 4
  br label %ehcleanup

lpad14:                                           ; preds = %if.then
  %9 = landingpad { ptr, i32 }
          cleanup
  %10 = extractvalue { ptr, i32 } %9, 0
  store ptr %10, ptr %exn.slot, align 8
  %11 = extractvalue { ptr, i32 } %9, 1
  store i32 %11, ptr %ehselector.slot, align 4
  call void @_ZNSt10shared_ptrIN8facebook5velox6memory10MemoryPoolEED2Ev(ptr noundef nonnull align 8 dereferenceable(16) %child) #11
  br label %ehcleanup

if.end:                                           ; preds = %invoke.cont15, %for.body
  call void @_ZNSt10shared_ptrIN8facebook5velox6memory10MemoryPoolEED2Ev(ptr noundef nonnull align 8 dereferenceable(16) %child) #11
  br label %for.inc

for.inc:                                          ; preds = %if.end
  %call16 = call noundef nonnull align 8 dereferenceable(8) ptr @_ZNSt8__detail20_Node_const_iteratorISt4pairIKNSt7__cxx1112basic_stringIcSt11char_traitsIcESaIcEEESt8weak_ptrIN8facebook5velox6memory10MemoryPoolEEELb0ELb1EEppEv(ptr noundef nonnull align 8 dereferenceable(8) %__begin3) #11
  br label %for.cond

for.end:                                          ; preds = %for.cond
  call void @_ZN5folly15SharedMutexImplILb0EvSt6atomicNS_24SharedMutexPolicyDefaultEE10ReadHolderD1Ev(ptr noundef nonnull align 8 dereferenceable(12) %guard) #11
  store ptr %children, ptr %__range2, align 8
  %12 = load ptr, ptr %__range2, align 8
  %call17 = call ptr @_ZNSt6vectorISt10shared_ptrIN8facebook5velox6memory10MemoryPoolEESaIS5_EE5beginEv(ptr noundef nonnull align 8 dereferenceable(24) %12) #11
  %coerce.dive18 = getelementptr inbounds %"class.__gnu_cxx::__normal_iterator", ptr %__begin2, i32 0, i32 0
  store ptr %call17, ptr %coerce.dive18, align 8
  %13 = load ptr, ptr %__range2, align 8
  %call19 = call ptr @_ZNSt6vectorISt10shared_ptrIN8facebook5velox6memory10MemoryPoolEESaIS5_EE3endEv(ptr noundef nonnull align 8 dereferenceable(24) %13) #11
  %coerce.dive20 = getelementptr inbounds %"class.__gnu_cxx::__normal_iterator", ptr %__end2, i32 0, i32 0
  store ptr %call19, ptr %coerce.dive20, align 8
  br label %for.cond21

for.cond21:                                       ; preds = %for.inc31, %for.end
  %call22 = call noundef zeroext i1 @_ZN9__gnu_cxxneIPSt10shared_ptrIN8facebook5velox6memory10MemoryPoolEESt6vectorIS6_SaIS6_EEEEbRKNS_17__normal_iteratorIT_T0_EESG_(ptr noundef nonnull align 8 dereferenceable(8) %__begin2, ptr noundef nonnull align 8 dereferenceable(8) %__end2) #11
  br i1 %call22, label %for.body23, label %for.end33

for.body23:                                       ; preds = %for.cond21
  %call25 = call noundef nonnull align 8 dereferenceable(16) ptr @_ZNK9__gnu_cxx17__normal_iteratorIPSt10shared_ptrIN8facebook5velox6memory10MemoryPoolEESt6vectorIS6_SaIS6_EEEdeEv(ptr noundef nonnull align 8 dereferenceable(8) %__begin2) #11
  store ptr %call25, ptr %child24, align 8
  %14 = load ptr, ptr %visitor.addr, align 8
  %15 = load ptr, ptr %child24, align 8
  %call26 = call noundef ptr @_ZNKSt12__shared_ptrIN8facebook5velox6memory10MemoryPoolELN9__gnu_cxx12_Lock_policyE2EE3getEv(ptr noundef nonnull align 8 dereferenceable(16) %15) #11
  %call28 = invoke noundef zeroext i1 @_ZNKSt8functionIFbPN8facebook5velox6memory10MemoryPoolEEEclES4_(ptr noundef nonnull align 8 dereferenceable(32) %14, ptr noundef %call26)
          to label %invoke.cont27 unwind label %lpad

invoke.cont27:                                    ; preds = %for.body23
  br i1 %call28, label %if.end30, label %if.then29

if.then29:                                        ; preds = %invoke.cont27
  store i32 1, ptr %cleanup.dest.slot, align 4
  br label %cleanup

ehcleanup:                                        ; preds = %lpad14, %lpad2
  call void @_ZN5folly15SharedMutexImplILb0EvSt6atomicNS_24SharedMutexPolicyDefaultEE10ReadHolderD1Ev(ptr noundef nonnull align 8 dereferenceable(12) %guard) #11
  br label %ehcleanup34

if.end30:                                         ; preds = %invoke.cont27
  br label %for.inc31

for.inc31:                                        ; preds = %if.end30
  %call32 = call noundef nonnull align 8 dereferenceable(8) ptr @_ZN9__gnu_cxx17__normal_iteratorIPSt10shared_ptrIN8facebook5velox6memory10MemoryPoolEESt6vectorIS6_SaIS6_EEEppEv(ptr noundef nonnull align 8 dereferenceable(8) %__begin2) #11
  br label %for.cond21

for.end33:                                        ; preds = %for.cond21
  store i32 0, ptr %cleanup.dest.slot, align 4
  br label %cleanup

cleanup:                                          ; preds = %for.end33, %if.then29
  call void @_ZNSt6vectorISt10shared_ptrIN8facebook5velox6memory10MemoryPoolEESaIS5_EED2Ev(ptr noundef nonnull align 8 dereferenceable(24) %children) #11
  %cleanup.dest = load i32, ptr %cleanup.dest.slot, align 4
  switch i32 %cleanup.dest, label %unreachable [
    i32 0, label %cleanup.cont
    i32 1, label %cleanup.cont
  ]

cleanup.cont:                                     ; preds = %cleanup, %cleanup
  ret void

ehcleanup34:                                      ; preds = %ehcleanup, %lpad
  call void @_ZNSt6vectorISt10shared_ptrIN8facebook5velox6memory10MemoryPoolEESaIS5_EED2Ev(ptr noundef nonnull align 8 dereferenceable(24) %children) #11
  br label %eh.resume

eh.resume:                                        ; preds = %ehcleanup34
  %exn = load ptr, ptr %exn.slot, align 8
  %sel = load i32, ptr %ehselector.slot, align 4
  %lpad.val = insertvalue { ptr, i32 } poison, ptr %exn, 0
  %lpad.val35 = insertvalue { ptr, i32 } %lpad.val, i32 %sel, 1
  resume { ptr, i32 } %lpad.val35

unreachable:                                      ; preds = %cleanup
  unreachable
}

; Function Attrs: mustprogress nounwind uwtable
define linkonce_odr void @_ZNSt6vectorISt10shared_ptrIN8facebook5velox6memory10MemoryPoolEESaIS5_EEC2Ev(ptr noundef nonnull align 8 dereferenceable(24) %this) unnamed_addr #3 comdat align 2 {
entry:
  %this.addr = alloca ptr, align 8
  store ptr %this, ptr %this.addr, align 8
  %this1 = load ptr, ptr %this.addr, align 8
  call void @_ZNSt12_Vector_baseISt10shared_ptrIN8facebook5velox6memory10MemoryPoolEESaIS5_EEC2Ev(ptr noundef nonnull align 8 dereferenceable(24) %this1) #11
  ret void
}

; Function Attrs: mustprogress uwtable
define linkonce_odr void @_ZNSt6vectorISt10shared_ptrIN8facebook5velox6memory10MemoryPoolEESaIS5_EE7reserveEm(ptr noundef nonnull align 8 dereferenceable(24) %this, i64 noundef %__n) #0 comdat align 2 {
entry:
  %this.addr = alloca ptr, align 8
  %__n.addr = alloca i64, align 8
  %__old_size = alloca i64, align 8
  %__tmp = alloca ptr, align 8
  store ptr %this, ptr %this.addr, align 8
  store i64 %__n, ptr %__n.addr, align 8
  %this1 = load ptr, ptr %this.addr, align 8
  %0 = load i64, ptr %__n.addr, align 8
  %call = call noundef i64 @_ZNKSt6vectorISt10shared_ptrIN8facebook5velox6memory10MemoryPoolEESaIS5_EE8max_sizeEv(ptr noundef nonnull align 8 dereferenceable(24) %this1) #11
  %cmp = icmp ugt i64 %0, %call
  br i1 %cmp, label %if.then, label %if.end

if.then:                                          ; preds = %entry
  call void @_ZSt20__throw_length_errorPKc(ptr noundef @.str.22) #16
  unreachable

if.end:                                           ; preds = %entry
  %call2 = call noundef i64 @_ZNKSt6vectorISt10shared_ptrIN8facebook5velox6memory10MemoryPoolEESaIS5_EE8capacityEv(ptr noundef nonnull align 8 dereferenceable(24) %this1) #11
  %1 = load i64, ptr %__n.addr, align 8
  %cmp3 = icmp ult i64 %call2, %1
  br i1 %cmp3, label %if.then4, label %if.end24

if.then4:                                         ; preds = %if.end
  %call5 = call noundef i64 @_ZNKSt6vectorISt10shared_ptrIN8facebook5velox6memory10MemoryPoolEESaIS5_EE4sizeEv(ptr noundef nonnull align 8 dereferenceable(24) %this1) #11
  store i64 %call5, ptr %__old_size, align 8
  %2 = load i64, ptr %__n.addr, align 8
  %call6 = call noundef ptr @_ZNSt12_Vector_baseISt10shared_ptrIN8facebook5velox6memory10MemoryPoolEESaIS5_EE11_M_allocateEm(ptr noundef nonnull align 8 dereferenceable(24) %this1, i64 noundef %2)
  store ptr %call6, ptr %__tmp, align 8
  %_M_impl = getelementptr inbounds %"struct.std::_Vector_base", ptr %this1, i32 0, i32 0
  %_M_start = getelementptr inbounds %"struct.std::_Vector_base<std::shared_ptr<facebook::velox::memory::MemoryPool>, std::allocator<std::shared_ptr<facebook::velox::memory::MemoryPool>>>::_Vector_impl_data", ptr %_M_impl, i32 0, i32 0
  %3 = load ptr, ptr %_M_start, align 8
  %_M_impl7 = getelementptr inbounds %"struct.std::_Vector_base", ptr %this1, i32 0, i32 0
  %_M_finish = getelementptr inbounds %"struct.std::_Vector_base<std::shared_ptr<facebook::velox::memory::MemoryPool>, std::allocator<std::shared_ptr<facebook::velox::memory::MemoryPool>>>::_Vector_impl_data", ptr %_M_impl7, i32 0, i32 1
  %4 = load ptr, ptr %_M_finish, align 8
  %5 = load ptr, ptr %__tmp, align 8
  %call8 = call noundef nonnull align 1 dereferenceable(1) ptr @_ZNSt12_Vector_baseISt10shared_ptrIN8facebook5velox6memory10MemoryPoolEESaIS5_EE19_M_get_Tp_allocatorEv(ptr noundef nonnull align 8 dereferenceable(24) %this1) #11
  %call9 = call noundef ptr @_ZNSt6vectorISt10shared_ptrIN8facebook5velox6memory10MemoryPoolEESaIS5_EE11_S_relocateEPS5_S8_S8_RS6_(ptr noundef %3, ptr noundef %4, ptr noundef %5, ptr noundef nonnull align 1 dereferenceable(1) %call8) #11
  %_M_impl10 = getelementptr inbounds %"struct.std::_Vector_base", ptr %this1, i32 0, i32 0
  %_M_start11 = getelementptr inbounds %"struct.std::_Vector_base<std::shared_ptr<facebook::velox::memory::MemoryPool>, std::allocator<std::shared_ptr<facebook::velox::memory::MemoryPool>>>::_Vector_impl_data", ptr %_M_impl10, i32 0, i32 0
  %6 = load ptr, ptr %_M_start11, align 8
  %_M_impl12 = getelementptr inbounds %"struct.std::_Vector_base", ptr %this1, i32 0, i32 0
  %_M_end_of_storage = getelementptr inbounds %"struct.std::_Vector_base<std::shared_ptr<facebook::velox::memory::MemoryPool>, std::allocator<std::shared_ptr<facebook::velox::memory::MemoryPool>>>::_Vector_impl_data", ptr %_M_impl12, i32 0, i32 2
  %7 = load ptr, ptr %_M_end_of_storage, align 8
  %_M_impl13 = getelementptr inbounds %"struct.std::_Vector_base", ptr %this1, i32 0, i32 0
  %_M_start14 = getelementptr inbounds %"struct.std::_Vector_base<std::shared_ptr<facebook::velox::memory::MemoryPool>, std::allocator<std::shared_ptr<facebook::velox::memory::MemoryPool>>>::_Vector_impl_data", ptr %_M_impl13, i32 0, i32 0
  %8 = load ptr, ptr %_M_start14, align 8
  %sub.ptr.lhs.cast = ptrtoint ptr %7 to i64
  %sub.ptr.rhs.cast = ptrtoint ptr %8 to i64
  %sub.ptr.sub = sub i64 %sub.ptr.lhs.cast, %sub.ptr.rhs.cast
  %sub.ptr.div = sdiv exact i64 %sub.ptr.sub, 16
  call void @_ZNSt12_Vector_baseISt10shared_ptrIN8facebook5velox6memory10MemoryPoolEESaIS5_EE13_M_deallocateEPS5_m(ptr noundef nonnull align 8 dereferenceable(24) %this1, ptr noundef %6, i64 noundef %sub.ptr.div)
  %9 = load ptr, ptr %__tmp, align 8
  %_M_impl15 = getelementptr inbounds %"struct.std::_Vector_base", ptr %this1, i32 0, i32 0
  %_M_start16 = getelementptr inbounds %"struct.std::_Vector_base<std::shared_ptr<facebook::velox::memory::MemoryPool>, std::allocator<std::shared_ptr<facebook::velox::memory::MemoryPool>>>::_Vector_impl_data", ptr %_M_impl15, i32 0, i32 0
  store ptr %9, ptr %_M_start16, align 8
  %10 = load ptr, ptr %__tmp, align 8
  %11 = load i64, ptr %__old_size, align 8
  %add.ptr = getelementptr inbounds %"class.std::shared_ptr", ptr %10, i64 %11
  %_M_impl17 = getelementptr inbounds %"struct.std::_Vector_base", ptr %this1, i32 0, i32 0
  %_M_finish18 = getelementptr inbounds %"struct.std::_Vector_base<std::shared_ptr<facebook::velox::memory::MemoryPool>, std::allocator<std::shared_ptr<facebook::velox::memory::MemoryPool>>>::_Vector_impl_data", ptr %_M_impl17, i32 0, i32 1
  store ptr %add.ptr, ptr %_M_finish18, align 8
  %_M_impl19 = getelementptr inbounds %"struct.std::_Vector_base", ptr %this1, i32 0, i32 0
  %_M_start20 = getelementptr inbounds %"struct.std::_Vector_base<std::shared_ptr<facebook::velox::memory::MemoryPool>, std::allocator<std::shared_ptr<facebook::velox::memory::MemoryPool>>>::_Vector_impl_data", ptr %_M_impl19, i32 0, i32 0
  %12 = load ptr, ptr %_M_start20, align 8
  %13 = load i64, ptr %__n.addr, align 8
  %add.ptr21 = getelementptr inbounds %"class.std::shared_ptr", ptr %12, i64 %13
  %_M_impl22 = getelementptr inbounds %"struct.std::_Vector_base", ptr %this1, i32 0, i32 0
  %_M_end_of_storage23 = getelementptr inbounds %"struct.std::_Vector_base<std::shared_ptr<facebook::velox::memory::MemoryPool>, std::allocator<std::shared_ptr<facebook::velox::memory::MemoryPool>>>::_Vector_impl_data", ptr %_M_impl22, i32 0, i32 2
  store ptr %add.ptr21, ptr %_M_end_of_storage23, align 8
  br label %if.end24

if.end24:                                         ; preds = %if.then4, %if.end
  ret void
}

; Function Attrs: mustprogress nounwind uwtable
define linkonce_odr ptr @_ZNKSt13unordered_mapINSt7__cxx1112basic_stringIcSt11char_traitsIcESaIcEEESt8weak_ptrIN8facebook5velox6memory10MemoryPoolEESt4hashIS5_ESt8equal_toIS5_ESaISt4pairIKS5_SB_EEE5beginEv(ptr noundef nonnull align 8 dereferenceable(56) %this) #3 comdat align 2 {
entry:
  %retval = alloca %"struct.std::__detail::_Node_const_iterator", align 8
  %this.addr = alloca ptr, align 8
  store ptr %this, ptr %this.addr, align 8
  %this1 = load ptr, ptr %this.addr, align 8
  %_M_h = getelementptr inbounds %"class.std::unordered_map", ptr %this1, i32 0, i32 0
  %call = call ptr @_ZNKSt10_HashtableINSt7__cxx1112basic_stringIcSt11char_traitsIcESaIcEEESt4pairIKS5_St8weak_ptrIN8facebook5velox6memory10MemoryPoolEEESaISE_ENSt8__detail10_Select1stESt8equal_toIS5_ESt4hashIS5_ENSG_18_Mod_range_hashingENSG_20_Default_ranged_hashENSG_20_Prime_rehash_policyENSG_17_Hashtable_traitsILb1ELb0ELb1EEEE5beginEv(ptr noundef nonnull align 8 dereferenceable(56) %_M_h) #11
  %coerce.dive = getelementptr inbounds %"struct.std::__detail::_Node_const_iterator", ptr %retval, i32 0, i32 0
  %coerce.dive2 = getelementptr inbounds %"struct.std::__detail::_Node_iterator_base", ptr %coerce.dive, i32 0, i32 0
  store ptr %call, ptr %coerce.dive2, align 8
  %coerce.dive3 = getelementptr inbounds %"struct.std::__detail::_Node_const_iterator", ptr %retval, i32 0, i32 0
  %coerce.dive4 = getelementptr inbounds %"struct.std::__detail::_Node_iterator_base", ptr %coerce.dive3, i32 0, i32 0
  %0 = load ptr, ptr %coerce.dive4, align 8
  ret ptr %0
}

; Function Attrs: mustprogress nounwind uwtable
define linkonce_odr ptr @_ZNKSt13unordered_mapINSt7__cxx1112basic_stringIcSt11char_traitsIcESaIcEEESt8weak_ptrIN8facebook5velox6memory10MemoryPoolEESt4hashIS5_ESt8equal_toIS5_ESaISt4pairIKS5_SB_EEE3endEv(ptr noundef nonnull align 8 dereferenceable(56) %this) #3 comdat align 2 {
entry:
  %retval = alloca %"struct.std::__detail::_Node_const_iterator", align 8
  %this.addr = alloca ptr, align 8
  store ptr %this, ptr %this.addr, align 8
  %this1 = load ptr, ptr %this.addr, align 8
  %_M_h = getelementptr inbounds %"class.std::unordered_map", ptr %this1, i32 0, i32 0
  %call = call ptr @_ZNKSt10_HashtableINSt7__cxx1112basic_stringIcSt11char_traitsIcESaIcEEESt4pairIKS5_St8weak_ptrIN8facebook5velox6memory10MemoryPoolEEESaISE_ENSt8__detail10_Select1stESt8equal_toIS5_ESt4hashIS5_ENSG_18_Mod_range_hashingENSG_20_Default_ranged_hashENSG_20_Prime_rehash_policyENSG_17_Hashtable_traitsILb1ELb0ELb1EEEE3endEv(ptr noundef nonnull align 8 dereferenceable(56) %_M_h) #11
  %coerce.dive = getelementptr inbounds %"struct.std::__detail::_Node_const_iterator", ptr %retval, i32 0, i32 0
  %coerce.dive2 = getelementptr inbounds %"struct.std::__detail::_Node_iterator_base", ptr %coerce.dive, i32 0, i32 0
  store ptr %call, ptr %coerce.dive2, align 8
  %coerce.dive3 = getelementptr inbounds %"struct.std::__detail::_Node_const_iterator", ptr %retval, i32 0, i32 0
  %coerce.dive4 = getelementptr inbounds %"struct.std::__detail::_Node_iterator_base", ptr %coerce.dive3, i32 0, i32 0
  %0 = load ptr, ptr %coerce.dive4, align 8
  ret ptr %0
}

; Function Attrs: mustprogress nounwind uwtable
define linkonce_odr noundef zeroext i1 @_ZNSt8__detailneERKNS_19_Node_iterator_baseISt4pairIKNSt7__cxx1112basic_stringIcSt11char_traitsIcESaIcEEESt8weak_ptrIN8facebook5velox6memory10MemoryPoolEEELb1EEESI_(ptr noundef nonnull align 8 dereferenceable(8) %__x, ptr noundef nonnull align 8 dereferenceable(8) %__y) #3 comdat {
entry:
  %__x.addr = alloca ptr, align 8
  %__y.addr = alloca ptr, align 8
  store ptr %__x, ptr %__x.addr, align 8
  store ptr %__y, ptr %__y.addr, align 8
  %0 = load ptr, ptr %__x.addr, align 8
  %_M_cur = getelementptr inbounds %"struct.std::__detail::_Node_iterator_base", ptr %0, i32 0, i32 0
  %1 = load ptr, ptr %_M_cur, align 8
  %2 = load ptr, ptr %__y.addr, align 8
  %_M_cur1 = getelementptr inbounds %"struct.std::__detail::_Node_iterator_base", ptr %2, i32 0, i32 0
  %3 = load ptr, ptr %_M_cur1, align 8
  %cmp = icmp ne ptr %1, %3
  ret i1 %cmp
}

; Function Attrs: mustprogress nounwind uwtable
define linkonce_odr noundef nonnull align 8 dereferenceable(48) ptr @_ZNKSt8__detail20_Node_const_iteratorISt4pairIKNSt7__cxx1112basic_stringIcSt11char_traitsIcESaIcEEESt8weak_ptrIN8facebook5velox6memory10MemoryPoolEEELb0ELb1EEdeEv(ptr noundef nonnull align 8 dereferenceable(8) %this) #3 comdat align 2 {
entry:
  %this.addr = alloca ptr, align 8
  store ptr %this, ptr %this.addr, align 8
  %this1 = load ptr, ptr %this.addr, align 8
  %_M_cur = getelementptr inbounds %"struct.std::__detail::_Node_iterator_base", ptr %this1, i32 0, i32 0
  %0 = load ptr, ptr %_M_cur, align 8
  %add.ptr = getelementptr inbounds i8, ptr %0, i64 8
  %call = call noundef nonnull align 8 dereferenceable(48) ptr @_ZNSt8__detail21_Hash_node_value_baseISt4pairIKNSt7__cxx1112basic_stringIcSt11char_traitsIcESaIcEEESt8weak_ptrIN8facebook5velox6memory10MemoryPoolEEEE4_M_vEv(ptr noundef nonnull align 8 dereferenceable(48) %add.ptr) #11
  ret ptr %call
}

; Function Attrs: mustprogress nounwind uwtable
define linkonce_odr void @_ZNKSt8weak_ptrIN8facebook5velox6memory10MemoryPoolEE4lockEv(ptr noalias sret(%"class.std::shared_ptr") align 8 %agg.result, ptr noundef nonnull align 8 dereferenceable(16) %this) #3 comdat align 2 {
entry:
  %result.ptr = alloca ptr, align 8
  %this.addr = alloca ptr, align 8
  store ptr %agg.result, ptr %result.ptr, align 8
  store ptr %this, ptr %this.addr, align 8
  %this1 = load ptr, ptr %this.addr, align 8
  call void @_ZNSt10shared_ptrIN8facebook5velox6memory10MemoryPoolEEC2ERKSt8weak_ptrIS3_ESt9nothrow_t(ptr noundef nonnull align 8 dereferenceable(16) %agg.result, ptr noundef nonnull align 8 dereferenceable(16) %this1) #11
  ret void
}

; Function Attrs: mustprogress uwtable
define linkonce_odr void @_ZNSt6vectorISt10shared_ptrIN8facebook5velox6memory10MemoryPoolEESaIS5_EE9push_backEOS5_(ptr noundef nonnull align 8 dereferenceable(24) %this, ptr noundef nonnull align 8 dereferenceable(16) %__x) #0 comdat align 2 {
entry:
  %this.addr = alloca ptr, align 8
  %__x.addr = alloca ptr, align 8
  store ptr %this, ptr %this.addr, align 8
  store ptr %__x, ptr %__x.addr, align 8
  %this1 = load ptr, ptr %this.addr, align 8
  %0 = load ptr, ptr %__x.addr, align 8
  %call = call noundef nonnull align 8 dereferenceable(16) ptr @_ZNSt6vectorISt10shared_ptrIN8facebook5velox6memory10MemoryPoolEESaIS5_EE12emplace_backIJS5_EEERS5_DpOT_(ptr noundef nonnull align 8 dereferenceable(24) %this1, ptr noundef nonnull align 8 dereferenceable(16) %0)
  ret void
}

; Function Attrs: mustprogress nounwind uwtable
define linkonce_odr noundef nonnull align 8 dereferenceable(8) ptr @_ZNSt8__detail20_Node_const_iteratorISt4pairIKNSt7__cxx1112basic_stringIcSt11char_traitsIcESaIcEEESt8weak_ptrIN8facebook5velox6memory10MemoryPoolEEELb0ELb1EEppEv(ptr noundef nonnull align 8 dereferenceable(8) %this) #3 comdat align 2 {
entry:
  %this.addr = alloca ptr, align 8
  store ptr %this, ptr %this.addr, align 8
  %this1 = load ptr, ptr %this.addr, align 8
  call void @_ZNSt8__detail19_Node_iterator_baseISt4pairIKNSt7__cxx1112basic_stringIcSt11char_traitsIcESaIcEEESt8weak_ptrIN8facebook5velox6memory10MemoryPoolEEELb1EE7_M_incrEv(ptr noundef nonnull align 8 dereferenceable(8) %this1) #11
  ret ptr %this1
}

; Function Attrs: mustprogress nounwind uwtable
define linkonce_odr ptr @_ZNSt6vectorISt10shared_ptrIN8facebook5velox6memory10MemoryPoolEESaIS5_EE5beginEv(ptr noundef nonnull align 8 dereferenceable(24) %this) #3 comdat align 2 {
entry:
  %retval = alloca %"class.__gnu_cxx::__normal_iterator", align 8
  %this.addr = alloca ptr, align 8
  store ptr %this, ptr %this.addr, align 8
  %this1 = load ptr, ptr %this.addr, align 8
  %_M_impl = getelementptr inbounds %"struct.std::_Vector_base", ptr %this1, i32 0, i32 0
  %_M_start = getelementptr inbounds %"struct.std::_Vector_base<std::shared_ptr<facebook::velox::memory::MemoryPool>, std::allocator<std::shared_ptr<facebook::velox::memory::MemoryPool>>>::_Vector_impl_data", ptr %_M_impl, i32 0, i32 0
  call void @_ZN9__gnu_cxx17__normal_iteratorIPSt10shared_ptrIN8facebook5velox6memory10MemoryPoolEESt6vectorIS6_SaIS6_EEEC2ERKS7_(ptr noundef nonnull align 8 dereferenceable(8) %retval, ptr noundef nonnull align 8 dereferenceable(8) %_M_start) #11
  %coerce.dive = getelementptr inbounds %"class.__gnu_cxx::__normal_iterator", ptr %retval, i32 0, i32 0
  %0 = load ptr, ptr %coerce.dive, align 8
  ret ptr %0
}

; Function Attrs: mustprogress nounwind uwtable
define linkonce_odr ptr @_ZNSt6vectorISt10shared_ptrIN8facebook5velox6memory10MemoryPoolEESaIS5_EE3endEv(ptr noundef nonnull align 8 dereferenceable(24) %this) #3 comdat align 2 {
entry:
  %retval = alloca %"class.__gnu_cxx::__normal_iterator", align 8
  %this.addr = alloca ptr, align 8
  store ptr %this, ptr %this.addr, align 8
  %this1 = load ptr, ptr %this.addr, align 8
  %_M_impl = getelementptr inbounds %"struct.std::_Vector_base", ptr %this1, i32 0, i32 0
  %_M_finish = getelementptr inbounds %"struct.std::_Vector_base<std::shared_ptr<facebook::velox::memory::MemoryPool>, std::allocator<std::shared_ptr<facebook::velox::memory::MemoryPool>>>::_Vector_impl_data", ptr %_M_impl, i32 0, i32 1
  call void @_ZN9__gnu_cxx17__normal_iteratorIPSt10shared_ptrIN8facebook5velox6memory10MemoryPoolEESt6vectorIS6_SaIS6_EEEC2ERKS7_(ptr noundef nonnull align 8 dereferenceable(8) %retval, ptr noundef nonnull align 8 dereferenceable(8) %_M_finish) #11
  %coerce.dive = getelementptr inbounds %"class.__gnu_cxx::__normal_iterator", ptr %retval, i32 0, i32 0
  %0 = load ptr, ptr %coerce.dive, align 8
  ret ptr %0
}

; Function Attrs: mustprogress nounwind uwtable
define linkonce_odr noundef zeroext i1 @_ZN9__gnu_cxxneIPSt10shared_ptrIN8facebook5velox6memory10MemoryPoolEESt6vectorIS6_SaIS6_EEEEbRKNS_17__normal_iteratorIT_T0_EESG_(ptr noundef nonnull align 8 dereferenceable(8) %__lhs, ptr noundef nonnull align 8 dereferenceable(8) %__rhs) #3 comdat {
entry:
  %__lhs.addr = alloca ptr, align 8
  %__rhs.addr = alloca ptr, align 8
  store ptr %__lhs, ptr %__lhs.addr, align 8
  store ptr %__rhs, ptr %__rhs.addr, align 8
  %0 = load ptr, ptr %__lhs.addr, align 8
  %call = call noundef nonnull align 8 dereferenceable(8) ptr @_ZNK9__gnu_cxx17__normal_iteratorIPSt10shared_ptrIN8facebook5velox6memory10MemoryPoolEESt6vectorIS6_SaIS6_EEE4baseEv(ptr noundef nonnull align 8 dereferenceable(8) %0) #11
  %1 = load ptr, ptr %call, align 8
  %2 = load ptr, ptr %__rhs.addr, align 8
  %call1 = call noundef nonnull align 8 dereferenceable(8) ptr @_ZNK9__gnu_cxx17__normal_iteratorIPSt10shared_ptrIN8facebook5velox6memory10MemoryPoolEESt6vectorIS6_SaIS6_EEE4baseEv(ptr noundef nonnull align 8 dereferenceable(8) %2) #11
  %3 = load ptr, ptr %call1, align 8
  %cmp = icmp ne ptr %1, %3
  ret i1 %cmp
}

; Function Attrs: mustprogress nounwind uwtable
define linkonce_odr noundef nonnull align 8 dereferenceable(16) ptr @_ZNK9__gnu_cxx17__normal_iteratorIPSt10shared_ptrIN8facebook5velox6memory10MemoryPoolEESt6vectorIS6_SaIS6_EEEdeEv(ptr noundef nonnull align 8 dereferenceable(8) %this) #3 comdat align 2 {
entry:
  %this.addr = alloca ptr, align 8
  store ptr %this, ptr %this.addr, align 8
  %this1 = load ptr, ptr %this.addr, align 8
  %_M_current = getelementptr inbounds %"class.__gnu_cxx::__normal_iterator", ptr %this1, i32 0, i32 0
  %0 = load ptr, ptr %_M_current, align 8
  ret ptr %0
}

; Function Attrs: mustprogress uwtable
define linkonce_odr noundef zeroext i1 @_ZNKSt8functionIFbPN8facebook5velox6memory10MemoryPoolEEEclES4_(ptr noundef nonnull align 8 dereferenceable(32) %this, ptr noundef %__args) #0 comdat align 2 {
entry:
  %this.addr = alloca ptr, align 8
  %__args.addr = alloca ptr, align 8
  store ptr %this, ptr %this.addr, align 8
  store ptr %__args, ptr %__args.addr, align 8
  %this1 = load ptr, ptr %this.addr, align 8
  %call = call noundef zeroext i1 @_ZNKSt14_Function_base8_M_emptyEv(ptr noundef nonnull align 8 dereferenceable(24) %this1)
  br i1 %call, label %if.then, label %if.end

if.then:                                          ; preds = %entry
  call void @_ZSt25__throw_bad_function_callv() #16
  unreachable

if.end:                                           ; preds = %entry
  %_M_invoker = getelementptr inbounds %"class.std::function", ptr %this1, i32 0, i32 1
  %0 = load ptr, ptr %_M_invoker, align 8
  %_M_functor = getelementptr inbounds %"class.std::_Function_base", ptr %this1, i32 0, i32 0
  %call2 = call noundef zeroext i1 %0(ptr noundef nonnull align 8 dereferenceable(16) %_M_functor, ptr noundef nonnull align 8 dereferenceable(8) %__args.addr)
  ret i1 %call2
}

; Function Attrs: mustprogress nounwind uwtable
define linkonce_odr noundef nonnull align 8 dereferenceable(8) ptr @_ZN9__gnu_cxx17__normal_iteratorIPSt10shared_ptrIN8facebook5velox6memory10MemoryPoolEESt6vectorIS6_SaIS6_EEEppEv(ptr noundef nonnull align 8 dereferenceable(8) %this) #3 comdat align 2 {
entry:
  %this.addr = alloca ptr, align 8
  store ptr %this, ptr %this.addr, align 8
  %this1 = load ptr, ptr %this.addr, align 8
  %_M_current = getelementptr inbounds %"class.__gnu_cxx::__normal_iterator", ptr %this1, i32 0, i32 0
  %0 = load ptr, ptr %_M_current, align 8
  %incdec.ptr = getelementptr inbounds %"class.std::shared_ptr", ptr %0, i32 1
  store ptr %incdec.ptr, ptr %_M_current, align 8
  ret ptr %this1
}

; Function Attrs: mustprogress nounwind uwtable
define linkonce_odr void @_ZNSt6vectorISt10shared_ptrIN8facebook5velox6memory10MemoryPoolEESaIS5_EED2Ev(ptr noundef nonnull align 8 dereferenceable(24) %this) unnamed_addr #3 comdat align 2 personality ptr @__gxx_personality_v0 {
entry:
  %this.addr = alloca ptr, align 8
  store ptr %this, ptr %this.addr, align 8
  %this1 = load ptr, ptr %this.addr, align 8
  %_M_impl = getelementptr inbounds %"struct.std::_Vector_base", ptr %this1, i32 0, i32 0
  %_M_start = getelementptr inbounds %"struct.std::_Vector_base<std::shared_ptr<facebook::velox::memory::MemoryPool>, std::allocator<std::shared_ptr<facebook::velox::memory::MemoryPool>>>::_Vector_impl_data", ptr %_M_impl, i32 0, i32 0
  %0 = load ptr, ptr %_M_start, align 8
  %_M_impl2 = getelementptr inbounds %"struct.std::_Vector_base", ptr %this1, i32 0, i32 0
  %_M_finish = getelementptr inbounds %"struct.std::_Vector_base<std::shared_ptr<facebook::velox::memory::MemoryPool>, std::allocator<std::shared_ptr<facebook::velox::memory::MemoryPool>>>::_Vector_impl_data", ptr %_M_impl2, i32 0, i32 1
  %1 = load ptr, ptr %_M_finish, align 8
  %call = call noundef nonnull align 1 dereferenceable(1) ptr @_ZNSt12_Vector_baseISt10shared_ptrIN8facebook5velox6memory10MemoryPoolEESaIS5_EE19_M_get_Tp_allocatorEv(ptr noundef nonnull align 8 dereferenceable(24) %this1) #11
  invoke void @_ZSt8_DestroyIPSt10shared_ptrIN8facebook5velox6memory10MemoryPoolEES5_EvT_S7_RSaIT0_E(ptr noundef %0, ptr noundef %1, ptr noundef nonnull align 1 dereferenceable(1) %call)
          to label %invoke.cont unwind label %terminate.lpad

invoke.cont:                                      ; preds = %entry
  call void @_ZNSt12_Vector_baseISt10shared_ptrIN8facebook5velox6memory10MemoryPoolEESaIS5_EED2Ev(ptr noundef nonnull align 8 dereferenceable(24) %this1) #11
  ret void

terminate.lpad:                                   ; preds = %entry
  %2 = landingpad { ptr, i32 }
          catch ptr null
  %3 = extractvalue { ptr, i32 } %2, 0
  call void @__clang_call_terminate(ptr %3) #15
  unreachable
}

; Function Attrs: mustprogress uwtable
define void @_ZN8facebook5velox6memory10MemoryPool12addLeafChildERKNSt7__cxx1112basic_stringIcSt11char_traitsIcESaIcEEEbSt10unique_ptrINS1_15MemoryReclaimerESt14default_deleteISC_EE(ptr noalias sret(%"class.std::shared_ptr") align 8 %agg.result, ptr noundef nonnull align 8 dereferenceable(168) %this, ptr noundef nonnull align 8 dereferenceable(32) %name, i1 noundef zeroext %threadSafe, ptr noundef %reclaimer) unnamed_addr #0 align 2 personality ptr @__gxx_personality_v0 {
entry:
  %result.ptr = alloca ptr, align 8
  %this.addr = alloca ptr, align 8
  %name.addr = alloca ptr, align 8
  %threadSafe.addr = alloca i8, align 1
  %reclaimer.indirect_addr = alloca ptr, align 8
  %guard = alloca %"class.folly::SharedMutexImpl<false>::WriteHolder", align 8
  %exn.slot = alloca ptr, align 8
  %ehselector.slot = alloca i32, align 4
  %nrvo = alloca i1, align 1
  %agg.tmp = alloca %"class.std::shared_ptr", align 8
  %agg.tmp6 = alloca %"class.std::unique_ptr", align 8
  %coerce = alloca %"struct.std::pair.32", align 8
  store ptr %agg.result, ptr %result.ptr, align 8
  store ptr %this, ptr %this.addr, align 8
  store ptr %name, ptr %name.addr, align 8
  %frombool = zext i1 %threadSafe to i8
  store i8 %frombool, ptr %threadSafe.addr, align 1
  store ptr %reclaimer, ptr %reclaimer.indirect_addr, align 8
  %this1 = load ptr, ptr %this.addr, align 8
  br label %do.body

do.body:                                          ; preds = %entry
  %kind_ = getelementptr inbounds %"class.facebook::velox::memory::MemoryPool", ptr %this1, i32 0, i32 3
  %0 = load i32, ptr %kind_, align 8
  %cmp = icmp ne i32 %0, 1
  br i1 %cmp, label %if.then, label %if.end

if.then:                                          ; preds = %do.body
  call void @llvm.trap()
  br label %if.end

if.end:                                           ; preds = %if.then, %do.body
  br label %do.end

do.end:                                           ; preds = %if.end
  %poolMutex_ = getelementptr inbounds %"class.facebook::velox::memory::MemoryPool", ptr %this1, i32 0, i32 14
  call void @_ZN5folly15SharedMutexImplILb0EvSt6atomicNS_24SharedMutexPolicyDefaultEE11WriteHolderC1ERS3_(ptr noundef nonnull align 8 dereferenceable(8) %guard, ptr noundef nonnull align 4 dereferenceable(4) %poolMutex_)
  %children_ = getelementptr inbounds %"class.facebook::velox::memory::MemoryPool", ptr %this1, i32 0, i32 15
  %1 = load ptr, ptr %name.addr, align 8
  %call = invoke noundef i64 @_ZNKSt13unordered_mapINSt7__cxx1112basic_stringIcSt11char_traitsIcESaIcEEESt8weak_ptrIN8facebook5velox6memory10MemoryPoolEESt4hashIS5_ESt8equal_toIS5_ESaISt4pairIKS5_SB_EEE5countERSH_(ptr noundef nonnull align 8 dereferenceable(56) %children_, ptr noundef nonnull align 8 dereferenceable(32) %1)
          to label %invoke.cont unwind label %lpad

invoke.cont:                                      ; preds = %do.end
  %cmp2 = icmp eq i64 %call, 0
  %lnot = xor i1 %cmp2, true
  br i1 %lnot, label %if.then3, label %if.end4

if.then3:                                         ; preds = %invoke.cont
  call void @llvm.trap()
  br label %if.end4

lpad:                                             ; preds = %if.end4, %do.end
  %2 = landingpad { ptr, i32 }
          cleanup
  %3 = extractvalue { ptr, i32 } %2, 0
  store ptr %3, ptr %exn.slot, align 8
  %4 = extractvalue { ptr, i32 } %2, 1
  store i32 %4, ptr %ehselector.slot, align 4
  br label %ehcleanup

if.end4:                                          ; preds = %if.then3, %invoke.cont
  store i1 false, ptr %nrvo, align 1
  %add.ptr = getelementptr inbounds i8, ptr %this1, i64 8
  invoke void @_ZNSt23enable_shared_from_thisIN8facebook5velox6memory10MemoryPoolEE16shared_from_thisEv(ptr sret(%"class.std::shared_ptr") align 8 %agg.tmp, ptr noundef nonnull align 8 dereferenceable(16) %add.ptr)
          to label %invoke.cont5 unwind label %lpad

invoke.cont5:                                     ; preds = %if.end4
  %5 = load ptr, ptr %name.addr, align 8
  %6 = load i8, ptr %threadSafe.addr, align 1
  %tobool = trunc i8 %6 to i1
  call void @_ZNSt10unique_ptrIN8facebook5velox6memory15MemoryReclaimerESt14default_deleteIS3_EEC2EOS6_(ptr noundef nonnull align 8 dereferenceable(8) %agg.tmp6, ptr noundef nonnull align 8 dereferenceable(8) %reclaimer) #11
  %vtable = load ptr, ptr %this1, align 8
  %vfn = getelementptr inbounds ptr, ptr %vtable, i64 48
  %7 = load ptr, ptr %vfn, align 8
  invoke void %7(ptr sret(%"class.std::shared_ptr") align 8 %agg.result, ptr noundef nonnull align 8 dereferenceable(168) %this1, ptr noundef %agg.tmp, ptr noundef nonnull align 8 dereferenceable(32) %5, i32 noundef 0, i1 noundef zeroext %tobool, ptr noundef %agg.tmp6)
          to label %invoke.cont8 unwind label %lpad7

invoke.cont8:                                     ; preds = %invoke.cont5
  call void @_ZNSt10unique_ptrIN8facebook5velox6memory15MemoryReclaimerESt14default_deleteIS3_EED2Ev(ptr noundef nonnull align 8 dereferenceable(8) %agg.tmp6) #11
  call void @_ZNSt10shared_ptrIN8facebook5velox6memory10MemoryPoolEED2Ev(ptr noundef nonnull align 8 dereferenceable(16) %agg.tmp) #11
  %children_9 = getelementptr inbounds %"class.facebook::velox::memory::MemoryPool", ptr %this1, i32 0, i32 15
  %8 = load ptr, ptr %name.addr, align 8
  %call12 = invoke { ptr, i8 } @_ZNSt13unordered_mapINSt7__cxx1112basic_stringIcSt11char_traitsIcESaIcEEESt8weak_ptrIN8facebook5velox6memory10MemoryPoolEESt4hashIS5_ESt8equal_toIS5_ESaISt4pairIKS5_SB_EEE7emplaceIJRSH_RSt10shared_ptrISA_EEEESG_INSt8__detail14_Node_iteratorISI_Lb0ELb1EEEbEDpOT_(ptr noundef nonnull align 8 dereferenceable(56) %children_9, ptr noundef nonnull align 8 dereferenceable(32) %8, ptr noundef nonnull align 8 dereferenceable(16) %agg.result)
          to label %invoke.cont11 unwind label %lpad10

invoke.cont11:                                    ; preds = %invoke.cont8
  %9 = getelementptr inbounds { ptr, i8 }, ptr %coerce, i32 0, i32 0
  %10 = extractvalue { ptr, i8 } %call12, 0
  store ptr %10, ptr %9, align 8
  %11 = getelementptr inbounds { ptr, i8 }, ptr %coerce, i32 0, i32 1
  %12 = extractvalue { ptr, i8 } %call12, 1
  store i8 %12, ptr %11, align 8
  store i1 true, ptr %nrvo, align 1
  %nrvo.val = load i1, ptr %nrvo, align 1
  br i1 %nrvo.val, label %nrvo.skipdtor, label %nrvo.unused

lpad7:                                            ; preds = %invoke.cont5
  %13 = landingpad { ptr, i32 }
          cleanup
  %14 = extractvalue { ptr, i32 } %13, 0
  store ptr %14, ptr %exn.slot, align 8
  %15 = extractvalue { ptr, i32 } %13, 1
  store i32 %15, ptr %ehselector.slot, align 4
  call void @_ZNSt10unique_ptrIN8facebook5velox6memory15MemoryReclaimerESt14default_deleteIS3_EED2Ev(ptr noundef nonnull align 8 dereferenceable(8) %agg.tmp6) #11
  call void @_ZNSt10shared_ptrIN8facebook5velox6memory10MemoryPoolEED2Ev(ptr noundef nonnull align 8 dereferenceable(16) %agg.tmp) #11
  br label %ehcleanup

lpad10:                                           ; preds = %invoke.cont8
  %16 = landingpad { ptr, i32 }
          cleanup
  %17 = extractvalue { ptr, i32 } %16, 0
  store ptr %17, ptr %exn.slot, align 8
  %18 = extractvalue { ptr, i32 } %16, 1
  store i32 %18, ptr %ehselector.slot, align 4
  call void @_ZNSt10shared_ptrIN8facebook5velox6memory10MemoryPoolEED2Ev(ptr noundef nonnull align 8 dereferenceable(16) %agg.result) #11
  br label %ehcleanup

nrvo.unused:                                      ; preds = %invoke.cont11
  call void @_ZNSt10shared_ptrIN8facebook5velox6memory10MemoryPoolEED2Ev(ptr noundef nonnull align 8 dereferenceable(16) %agg.result) #11
  br label %nrvo.skipdtor

nrvo.skipdtor:                                    ; preds = %nrvo.unused, %invoke.cont11
  call void @_ZN5folly15SharedMutexImplILb0EvSt6atomicNS_24SharedMutexPolicyDefaultEE11WriteHolderD1Ev(ptr noundef nonnull align 8 dereferenceable(8) %guard) #11
  ret void

ehcleanup:                                        ; preds = %lpad10, %lpad7, %lpad
  call void @_ZN5folly15SharedMutexImplILb0EvSt6atomicNS_24SharedMutexPolicyDefaultEE11WriteHolderD1Ev(ptr noundef nonnull align 8 dereferenceable(8) %guard) #11
  br label %eh.resume

eh.resume:                                        ; preds = %ehcleanup
  %exn = load ptr, ptr %exn.slot, align 8
  %sel = load i32, ptr %ehselector.slot, align 4
  %lpad.val = insertvalue { ptr, i32 } poison, ptr %exn, 0
  %lpad.val13 = insertvalue { ptr, i32 } %lpad.val, i32 %sel, 1
  resume { ptr, i32 } %lpad.val13
}

declare void @_ZN5folly15SharedMutexImplILb0EvSt6atomicNS_24SharedMutexPolicyDefaultEE11WriteHolderC1ERS3_(ptr noundef nonnull align 8 dereferenceable(8), ptr noundef nonnull align 4 dereferenceable(4)) unnamed_addr #1

; Function Attrs: mustprogress uwtable
define linkonce_odr noundef i64 @_ZNKSt13unordered_mapINSt7__cxx1112basic_stringIcSt11char_traitsIcESaIcEEESt8weak_ptrIN8facebook5velox6memory10MemoryPoolEESt4hashIS5_ESt8equal_toIS5_ESaISt4pairIKS5_SB_EEE5countERSH_(ptr noundef nonnull align 8 dereferenceable(56) %this, ptr noundef nonnull align 8 dereferenceable(32) %__x) #0 comdat align 2 {
entry:
  %this.addr = alloca ptr, align 8
  %__x.addr = alloca ptr, align 8
  store ptr %this, ptr %this.addr, align 8
  store ptr %__x, ptr %__x.addr, align 8
  %this1 = load ptr, ptr %this.addr, align 8
  %_M_h = getelementptr inbounds %"class.std::unordered_map", ptr %this1, i32 0, i32 0
  %0 = load ptr, ptr %__x.addr, align 8
  %call = call noundef i64 @_ZNKSt10_HashtableINSt7__cxx1112basic_stringIcSt11char_traitsIcESaIcEEESt4pairIKS5_St8weak_ptrIN8facebook5velox6memory10MemoryPoolEEESaISE_ENSt8__detail10_Select1stESt8equal_toIS5_ESt4hashIS5_ENSG_18_Mod_range_hashingENSG_20_Default_ranged_hashENSG_20_Prime_rehash_policyENSG_17_Hashtable_traitsILb1ELb0ELb1EEEE5countERS7_(ptr noundef nonnull align 8 dereferenceable(56) %_M_h, ptr noundef nonnull align 8 dereferenceable(32) %0)
  ret i64 %call
}

; Function Attrs: mustprogress uwtable
define linkonce_odr void @_ZNSt23enable_shared_from_thisIN8facebook5velox6memory10MemoryPoolEE16shared_from_thisEv(ptr noalias sret(%"class.std::shared_ptr") align 8 %agg.result, ptr noundef nonnull align 8 dereferenceable(16) %this) #0 comdat align 2 {
entry:
  %result.ptr = alloca ptr, align 8
  %this.addr = alloca ptr, align 8
  store ptr %agg.result, ptr %result.ptr, align 8
  store ptr %this, ptr %this.addr, align 8
  %this1 = load ptr, ptr %this.addr, align 8
  %_M_weak_this = getelementptr inbounds %"class.std::enable_shared_from_this", ptr %this1, i32 0, i32 0
  call void @_ZNSt10shared_ptrIN8facebook5velox6memory10MemoryPoolEEC2IS3_vEERKSt8weak_ptrIT_E(ptr noundef nonnull align 8 dereferenceable(16) %agg.result, ptr noundef nonnull align 8 dereferenceable(16) %_M_weak_this)
  ret void
}

; Function Attrs: mustprogress nounwind uwtable
define linkonce_odr void @_ZNSt10unique_ptrIN8facebook5velox6memory15MemoryReclaimerESt14default_deleteIS3_EEC2EOS6_(ptr noundef nonnull align 8 dereferenceable(8) %this, ptr noundef nonnull align 8 dereferenceable(8) %0) unnamed_addr #3 comdat align 2 {
entry:
  %this.addr = alloca ptr, align 8
  %.addr = alloca ptr, align 8
  store ptr %this, ptr %this.addr, align 8
  store ptr %0, ptr %.addr, align 8
  %this1 = load ptr, ptr %this.addr, align 8
  %_M_t = getelementptr inbounds %"class.std::unique_ptr", ptr %this1, i32 0, i32 0
  %1 = load ptr, ptr %.addr, align 8
  %_M_t2 = getelementptr inbounds %"class.std::unique_ptr", ptr %1, i32 0, i32 0
  call void @_ZNSt15__uniq_ptr_dataIN8facebook5velox6memory15MemoryReclaimerESt14default_deleteIS3_ELb1ELb1EEC2EOS6_(ptr noundef nonnull align 8 dereferenceable(8) %_M_t, ptr noundef nonnull align 8 dereferenceable(8) %_M_t2) #11
  ret void
}

; Function Attrs: mustprogress nounwind uwtable
define linkonce_odr void @_ZNSt10unique_ptrIN8facebook5velox6memory15MemoryReclaimerESt14default_deleteIS3_EED2Ev(ptr noundef nonnull align 8 dereferenceable(8) %this) unnamed_addr #3 comdat align 2 {
entry:
  %this.addr = alloca ptr, align 8
  %__ptr = alloca ptr, align 8
  store ptr %this, ptr %this.addr, align 8
  %this1 = load ptr, ptr %this.addr, align 8
  %_M_t = getelementptr inbounds %"class.std::unique_ptr", ptr %this1, i32 0, i32 0
  %call = call noundef nonnull align 8 dereferenceable(8) ptr @_ZNSt15__uniq_ptr_implIN8facebook5velox6memory15MemoryReclaimerESt14default_deleteIS3_EE6_M_ptrEv(ptr noundef nonnull align 8 dereferenceable(8) %_M_t) #11
  store ptr %call, ptr %__ptr, align 8
  %0 = load ptr, ptr %__ptr, align 8
  %1 = load ptr, ptr %0, align 8
  %cmp = icmp ne ptr %1, null
  br i1 %cmp, label %if.then, label %if.end

if.then:                                          ; preds = %entry
  %call2 = call noundef nonnull align 1 dereferenceable(1) ptr @_ZNSt10unique_ptrIN8facebook5velox6memory15MemoryReclaimerESt14default_deleteIS3_EE11get_deleterEv(ptr noundef nonnull align 8 dereferenceable(8) %this1) #11
  %2 = load ptr, ptr %__ptr, align 8
  %3 = load ptr, ptr %2, align 8
  call void @_ZNKSt14default_deleteIN8facebook5velox6memory15MemoryReclaimerEEclEPS3_(ptr noundef nonnull align 1 dereferenceable(1) %call2, ptr noundef %3)
  br label %if.end

if.end:                                           ; preds = %if.then, %entry
  %4 = load ptr, ptr %__ptr, align 8
  store ptr null, ptr %4, align 8
  ret void
}

; Function Attrs: mustprogress uwtable
define linkonce_odr { ptr, i8 } @_ZNSt13unordered_mapINSt7__cxx1112basic_stringIcSt11char_traitsIcESaIcEEESt8weak_ptrIN8facebook5velox6memory10MemoryPoolEESt4hashIS5_ESt8equal_toIS5_ESaISt4pairIKS5_SB_EEE7emplaceIJRSH_RSt10shared_ptrISA_EEEESG_INSt8__detail14_Node_iteratorISI_Lb0ELb1EEEbEDpOT_(ptr noundef nonnull align 8 dereferenceable(56) %this, ptr noundef nonnull align 8 dereferenceable(32) %__args, ptr noundef nonnull align 8 dereferenceable(16) %__args1) #0 comdat align 2 {
entry:
  %retval = alloca %"struct.std::pair.32", align 8
  %this.addr = alloca ptr, align 8
  %__args.addr = alloca ptr, align 8
  %__args.addr2 = alloca ptr, align 8
  store ptr %this, ptr %this.addr, align 8
  store ptr %__args, ptr %__args.addr, align 8
  store ptr %__args1, ptr %__args.addr2, align 8
  %this3 = load ptr, ptr %this.addr, align 8
  %_M_h = getelementptr inbounds %"class.std::unordered_map", ptr %this3, i32 0, i32 0
  %0 = load ptr, ptr %__args.addr, align 8
  %1 = load ptr, ptr %__args.addr2, align 8
  %call = call { ptr, i8 } @_ZNSt10_HashtableINSt7__cxx1112basic_stringIcSt11char_traitsIcESaIcEEESt4pairIKS5_St8weak_ptrIN8facebook5velox6memory10MemoryPoolEEESaISE_ENSt8__detail10_Select1stESt8equal_toIS5_ESt4hashIS5_ENSG_18_Mod_range_hashingENSG_20_Default_ranged_hashENSG_20_Prime_rehash_policyENSG_17_Hashtable_traitsILb1ELb0ELb1EEEE7emplaceIJRS7_RSt10shared_ptrISC_EEEES6_INSG_14_Node_iteratorISE_Lb0ELb1EEEbEDpOT_(ptr noundef nonnull align 8 dereferenceable(56) %_M_h, ptr noundef nonnull align 8 dereferenceable(32) %0, ptr noundef nonnull align 8 dereferenceable(16) %1)
  %2 = getelementptr inbounds { ptr, i8 }, ptr %retval, i32 0, i32 0
  %3 = extractvalue { ptr, i8 } %call, 0
  store ptr %3, ptr %2, align 8
  %4 = getelementptr inbounds { ptr, i8 }, ptr %retval, i32 0, i32 1
  %5 = extractvalue { ptr, i8 } %call, 1
  store i8 %5, ptr %4, align 8
  %6 = load { ptr, i8 }, ptr %retval, align 8
  ret { ptr, i8 } %6
}

; Function Attrs: nounwind
declare void @_ZN5folly15SharedMutexImplILb0EvSt6atomicNS_24SharedMutexPolicyDefaultEE11WriteHolderD1Ev(ptr noundef nonnull align 8 dereferenceable(8)) unnamed_addr #2

; Function Attrs: mustprogress uwtable
define void @_ZN8facebook5velox6memory10MemoryPool17addAggregateChildERKNSt7__cxx1112basic_stringIcSt11char_traitsIcESaIcEEESt10unique_ptrINS1_15MemoryReclaimerESt14default_deleteISC_EE(ptr noalias sret(%"class.std::shared_ptr") align 8 %agg.result, ptr noundef nonnull align 8 dereferenceable(168) %this, ptr noundef nonnull align 8 dereferenceable(32) %name, ptr noundef %reclaimer) unnamed_addr #0 align 2 personality ptr @__gxx_personality_v0 {
entry:
  %result.ptr = alloca ptr, align 8
  %this.addr = alloca ptr, align 8
  %name.addr = alloca ptr, align 8
  %reclaimer.indirect_addr = alloca ptr, align 8
  %guard = alloca %"class.folly::SharedMutexImpl<false>::WriteHolder", align 8
  %exn.slot = alloca ptr, align 8
  %ehselector.slot = alloca i32, align 4
  %nrvo = alloca i1, align 1
  %agg.tmp = alloca %"class.std::shared_ptr", align 8
  %agg.tmp6 = alloca %"class.std::unique_ptr", align 8
  %coerce = alloca %"struct.std::pair.32", align 8
  store ptr %agg.result, ptr %result.ptr, align 8
  store ptr %this, ptr %this.addr, align 8
  store ptr %name, ptr %name.addr, align 8
  store ptr %reclaimer, ptr %reclaimer.indirect_addr, align 8
  %this1 = load ptr, ptr %this.addr, align 8
  br label %do.body

do.body:                                          ; preds = %entry
  %kind_ = getelementptr inbounds %"class.facebook::velox::memory::MemoryPool", ptr %this1, i32 0, i32 3
  %0 = load i32, ptr %kind_, align 8
  %cmp = icmp ne i32 %0, 1
  br i1 %cmp, label %if.then, label %if.end

if.then:                                          ; preds = %do.body
  call void @llvm.trap()
  br label %if.end

if.end:                                           ; preds = %if.then, %do.body
  br label %do.end

do.end:                                           ; preds = %if.end
  %poolMutex_ = getelementptr inbounds %"class.facebook::velox::memory::MemoryPool", ptr %this1, i32 0, i32 14
  call void @_ZN5folly15SharedMutexImplILb0EvSt6atomicNS_24SharedMutexPolicyDefaultEE11WriteHolderC1ERS3_(ptr noundef nonnull align 8 dereferenceable(8) %guard, ptr noundef nonnull align 4 dereferenceable(4) %poolMutex_)
  %children_ = getelementptr inbounds %"class.facebook::velox::memory::MemoryPool", ptr %this1, i32 0, i32 15
  %1 = load ptr, ptr %name.addr, align 8
  %call = invoke noundef i64 @_ZNKSt13unordered_mapINSt7__cxx1112basic_stringIcSt11char_traitsIcESaIcEEESt8weak_ptrIN8facebook5velox6memory10MemoryPoolEESt4hashIS5_ESt8equal_toIS5_ESaISt4pairIKS5_SB_EEE5countERSH_(ptr noundef nonnull align 8 dereferenceable(56) %children_, ptr noundef nonnull align 8 dereferenceable(32) %1)
          to label %invoke.cont unwind label %lpad

invoke.cont:                                      ; preds = %do.end
  %cmp2 = icmp eq i64 %call, 0
  %lnot = xor i1 %cmp2, true
  br i1 %lnot, label %if.then3, label %if.end4

if.then3:                                         ; preds = %invoke.cont
  call void @llvm.trap()
  br label %if.end4

lpad:                                             ; preds = %if.end4, %do.end
  %2 = landingpad { ptr, i32 }
          cleanup
  %3 = extractvalue { ptr, i32 } %2, 0
  store ptr %3, ptr %exn.slot, align 8
  %4 = extractvalue { ptr, i32 } %2, 1
  store i32 %4, ptr %ehselector.slot, align 4
  br label %ehcleanup

if.end4:                                          ; preds = %if.then3, %invoke.cont
  store i1 false, ptr %nrvo, align 1
  %add.ptr = getelementptr inbounds i8, ptr %this1, i64 8
  invoke void @_ZNSt23enable_shared_from_thisIN8facebook5velox6memory10MemoryPoolEE16shared_from_thisEv(ptr sret(%"class.std::shared_ptr") align 8 %agg.tmp, ptr noundef nonnull align 8 dereferenceable(16) %add.ptr)
          to label %invoke.cont5 unwind label %lpad

invoke.cont5:                                     ; preds = %if.end4
  %5 = load ptr, ptr %name.addr, align 8
  call void @_ZNSt10unique_ptrIN8facebook5velox6memory15MemoryReclaimerESt14default_deleteIS3_EEC2EOS6_(ptr noundef nonnull align 8 dereferenceable(8) %agg.tmp6, ptr noundef nonnull align 8 dereferenceable(8) %reclaimer) #11
  %vtable = load ptr, ptr %this1, align 8
  %vfn = getelementptr inbounds ptr, ptr %vtable, i64 48
  %6 = load ptr, ptr %vfn, align 8
  invoke void %6(ptr sret(%"class.std::shared_ptr") align 8 %agg.result, ptr noundef nonnull align 8 dereferenceable(168) %this1, ptr noundef %agg.tmp, ptr noundef nonnull align 8 dereferenceable(32) %5, i32 noundef 1, i1 noundef zeroext true, ptr noundef %agg.tmp6)
          to label %invoke.cont8 unwind label %lpad7

invoke.cont8:                                     ; preds = %invoke.cont5
  call void @_ZNSt10unique_ptrIN8facebook5velox6memory15MemoryReclaimerESt14default_deleteIS3_EED2Ev(ptr noundef nonnull align 8 dereferenceable(8) %agg.tmp6) #11
  call void @_ZNSt10shared_ptrIN8facebook5velox6memory10MemoryPoolEED2Ev(ptr noundef nonnull align 8 dereferenceable(16) %agg.tmp) #11
  %children_9 = getelementptr inbounds %"class.facebook::velox::memory::MemoryPool", ptr %this1, i32 0, i32 15
  %7 = load ptr, ptr %name.addr, align 8
  %call12 = invoke { ptr, i8 } @_ZNSt13unordered_mapINSt7__cxx1112basic_stringIcSt11char_traitsIcESaIcEEESt8weak_ptrIN8facebook5velox6memory10MemoryPoolEESt4hashIS5_ESt8equal_toIS5_ESaISt4pairIKS5_SB_EEE7emplaceIJRSH_RSt10shared_ptrISA_EEEESG_INSt8__detail14_Node_iteratorISI_Lb0ELb1EEEbEDpOT_(ptr noundef nonnull align 8 dereferenceable(56) %children_9, ptr noundef nonnull align 8 dereferenceable(32) %7, ptr noundef nonnull align 8 dereferenceable(16) %agg.result)
          to label %invoke.cont11 unwind label %lpad10

invoke.cont11:                                    ; preds = %invoke.cont8
  %8 = getelementptr inbounds { ptr, i8 }, ptr %coerce, i32 0, i32 0
  %9 = extractvalue { ptr, i8 } %call12, 0
  store ptr %9, ptr %8, align 8
  %10 = getelementptr inbounds { ptr, i8 }, ptr %coerce, i32 0, i32 1
  %11 = extractvalue { ptr, i8 } %call12, 1
  store i8 %11, ptr %10, align 8
  store i1 true, ptr %nrvo, align 1
  %nrvo.val = load i1, ptr %nrvo, align 1
  br i1 %nrvo.val, label %nrvo.skipdtor, label %nrvo.unused

lpad7:                                            ; preds = %invoke.cont5
  %12 = landingpad { ptr, i32 }
          cleanup
  %13 = extractvalue { ptr, i32 } %12, 0
  store ptr %13, ptr %exn.slot, align 8
  %14 = extractvalue { ptr, i32 } %12, 1
  store i32 %14, ptr %ehselector.slot, align 4
  call void @_ZNSt10unique_ptrIN8facebook5velox6memory15MemoryReclaimerESt14default_deleteIS3_EED2Ev(ptr noundef nonnull align 8 dereferenceable(8) %agg.tmp6) #11
  call void @_ZNSt10shared_ptrIN8facebook5velox6memory10MemoryPoolEED2Ev(ptr noundef nonnull align 8 dereferenceable(16) %agg.tmp) #11
  br label %ehcleanup

lpad10:                                           ; preds = %invoke.cont8
  %15 = landingpad { ptr, i32 }
          cleanup
  %16 = extractvalue { ptr, i32 } %15, 0
  store ptr %16, ptr %exn.slot, align 8
  %17 = extractvalue { ptr, i32 } %15, 1
  store i32 %17, ptr %ehselector.slot, align 4
  call void @_ZNSt10shared_ptrIN8facebook5velox6memory10MemoryPoolEED2Ev(ptr noundef nonnull align 8 dereferenceable(16) %agg.result) #11
  br label %ehcleanup

nrvo.unused:                                      ; preds = %invoke.cont11
  call void @_ZNSt10shared_ptrIN8facebook5velox6memory10MemoryPoolEED2Ev(ptr noundef nonnull align 8 dereferenceable(16) %agg.result) #11
  br label %nrvo.skipdtor

nrvo.skipdtor:                                    ; preds = %nrvo.unused, %invoke.cont11
  call void @_ZN5folly15SharedMutexImplILb0EvSt6atomicNS_24SharedMutexPolicyDefaultEE11WriteHolderD1Ev(ptr noundef nonnull align 8 dereferenceable(8) %guard) #11
  ret void

ehcleanup:                                        ; preds = %lpad10, %lpad7, %lpad
  call void @_ZN5folly15SharedMutexImplILb0EvSt6atomicNS_24SharedMutexPolicyDefaultEE11WriteHolderD1Ev(ptr noundef nonnull align 8 dereferenceable(8) %guard) #11
  br label %eh.resume

eh.resume:                                        ; preds = %ehcleanup
  %exn = load ptr, ptr %exn.slot, align 8
  %sel = load i32, ptr %ehselector.slot, align 4
  %lpad.val = insertvalue { ptr, i32 } poison, ptr %exn, 0
  %lpad.val13 = insertvalue { ptr, i32 } %lpad.val, i32 %sel, 1
  resume { ptr, i32 } %lpad.val13
}

; Function Attrs: mustprogress uwtable
define void @_ZN8facebook5velox6memory10MemoryPool9dropChildEPKS2_(ptr noundef nonnull align 8 dereferenceable(168) %this, ptr noundef %child) unnamed_addr #0 align 2 personality ptr @__gxx_personality_v0 {
entry:
  %this.addr = alloca ptr, align 8
  %child.addr = alloca ptr, align 8
  %guard = alloca %"class.folly::SharedMutexImpl<false>::WriteHolder", align 8
  %ret = alloca i64, align 8
  %exn.slot = alloca ptr, align 8
  %ehselector.slot = alloca i32, align 4
  store ptr %this, ptr %this.addr, align 8
  store ptr %child, ptr %child.addr, align 8
  %this1 = load ptr, ptr %this.addr, align 8
  br label %do.body

do.body:                                          ; preds = %entry
  %kind_ = getelementptr inbounds %"class.facebook::velox::memory::MemoryPool", ptr %this1, i32 0, i32 3
  %0 = load i32, ptr %kind_, align 8
  %cmp = icmp ne i32 %0, 1
  br i1 %cmp, label %if.then, label %if.end

if.then:                                          ; preds = %do.body
  call void @llvm.trap()
  br label %if.end

if.end:                                           ; preds = %if.then, %do.body
  br label %do.end

do.end:                                           ; preds = %if.end
  %poolMutex_ = getelementptr inbounds %"class.facebook::velox::memory::MemoryPool", ptr %this1, i32 0, i32 14
  call void @_ZN5folly15SharedMutexImplILb0EvSt6atomicNS_24SharedMutexPolicyDefaultEE11WriteHolderC1ERS3_(ptr noundef nonnull align 8 dereferenceable(8) %guard, ptr noundef nonnull align 4 dereferenceable(4) %poolMutex_)
  %children_ = getelementptr inbounds %"class.facebook::velox::memory::MemoryPool", ptr %this1, i32 0, i32 15
  %1 = load ptr, ptr %child.addr, align 8
  %vtable = load ptr, ptr %1, align 8
  %vfn = getelementptr inbounds ptr, ptr %vtable, i64 2
  %2 = load ptr, ptr %vfn, align 8
  %call = invoke noundef nonnull align 8 dereferenceable(32) ptr %2(ptr noundef nonnull align 8 dereferenceable(168) %1)
          to label %invoke.cont unwind label %lpad

invoke.cont:                                      ; preds = %do.end
  %call3 = invoke noundef i64 @_ZNSt13unordered_mapINSt7__cxx1112basic_stringIcSt11char_traitsIcESaIcEEESt8weak_ptrIN8facebook5velox6memory10MemoryPoolEESt4hashIS5_ESt8equal_toIS5_ESaISt4pairIKS5_SB_EEE5eraseERSH_(ptr noundef nonnull align 8 dereferenceable(56) %children_, ptr noundef nonnull align 8 dereferenceable(32) %call)
          to label %invoke.cont2 unwind label %lpad

invoke.cont2:                                     ; preds = %invoke.cont
  store i64 %call3, ptr %ret, align 8
  %3 = load i64, ptr %ret, align 8
  %cmp4 = icmp eq i64 %3, 1
  %lnot = xor i1 %cmp4, true
  br i1 %lnot, label %if.then5, label %if.end6

if.then5:                                         ; preds = %invoke.cont2
  call void @llvm.trap()
  br label %if.end6

lpad:                                             ; preds = %invoke.cont, %do.end
  %4 = landingpad { ptr, i32 }
          cleanup
  %5 = extractvalue { ptr, i32 } %4, 0
  store ptr %5, ptr %exn.slot, align 8
  %6 = extractvalue { ptr, i32 } %4, 1
  store i32 %6, ptr %ehselector.slot, align 4
  call void @_ZN5folly15SharedMutexImplILb0EvSt6atomicNS_24SharedMutexPolicyDefaultEE11WriteHolderD1Ev(ptr noundef nonnull align 8 dereferenceable(8) %guard) #11
  br label %eh.resume

if.end6:                                          ; preds = %if.then5, %invoke.cont2
  call void @_ZN5folly15SharedMutexImplILb0EvSt6atomicNS_24SharedMutexPolicyDefaultEE11WriteHolderD1Ev(ptr noundef nonnull align 8 dereferenceable(8) %guard) #11
  ret void

eh.resume:                                        ; preds = %lpad
  %exn = load ptr, ptr %exn.slot, align 8
  %sel = load i32, ptr %ehselector.slot, align 4
  %lpad.val = insertvalue { ptr, i32 } poison, ptr %exn, 0
  %lpad.val7 = insertvalue { ptr, i32 } %lpad.val, i32 %sel, 1
  resume { ptr, i32 } %lpad.val7
}

; Function Attrs: mustprogress uwtable
define linkonce_odr noundef i64 @_ZNSt13unordered_mapINSt7__cxx1112basic_stringIcSt11char_traitsIcESaIcEEESt8weak_ptrIN8facebook5velox6memory10MemoryPoolEESt4hashIS5_ESt8equal_toIS5_ESaISt4pairIKS5_SB_EEE5eraseERSH_(ptr noundef nonnull align 8 dereferenceable(56) %this, ptr noundef nonnull align 8 dereferenceable(32) %__x) #0 comdat align 2 {
entry:
  %this.addr = alloca ptr, align 8
  %__x.addr = alloca ptr, align 8
  store ptr %this, ptr %this.addr, align 8
  store ptr %__x, ptr %__x.addr, align 8
  %this1 = load ptr, ptr %this.addr, align 8
  %_M_h = getelementptr inbounds %"class.std::unordered_map", ptr %this1, i32 0, i32 0
  %0 = load ptr, ptr %__x.addr, align 8
  %call = call noundef i64 @_ZNSt10_HashtableINSt7__cxx1112basic_stringIcSt11char_traitsIcESaIcEEESt4pairIKS5_St8weak_ptrIN8facebook5velox6memory10MemoryPoolEEESaISE_ENSt8__detail10_Select1stESt8equal_toIS5_ESt4hashIS5_ENSG_18_Mod_range_hashingENSG_20_Default_ranged_hashENSG_20_Prime_rehash_policyENSG_17_Hashtable_traitsILb1ELb0ELb1EEEE5eraseERS7_(ptr noundef nonnull align 8 dereferenceable(56) %_M_h, ptr noundef nonnull align 8 dereferenceable(32) %0)
  ret i64 %call
}

; Function Attrs: mustprogress uwtable
define noundef i64 @_ZN8facebook5velox6memory10MemoryPool13preferredSizeEm(ptr noundef nonnull align 8 dereferenceable(168) %this, i64 noundef %size) unnamed_addr #0 align 2 {
entry:
  %retval = alloca i64, align 8
  %this.addr = alloca ptr, align 8
  %size.addr = alloca i64, align 8
  %bits = alloca i32, align 4
  %lower = alloca i64, align 8
  store ptr %this, ptr %this.addr, align 8
  store i64 %size, ptr %size.addr, align 8
  %0 = load i64, ptr %size.addr, align 8
  %cmp = icmp ult i64 %0, 8
  br i1 %cmp, label %if.then, label %if.end

if.then:                                          ; preds = %entry
  store i64 8, ptr %retval, align 8
  br label %return

if.end:                                           ; preds = %entry
  %1 = load i64, ptr %size.addr, align 8
  %call = call noundef i32 @_ZN8facebook5velox4bits17countLeadingZerosImEEiT_(i64 noundef %1)
  %sub = sub nsw i32 63, %call
  store i32 %sub, ptr %bits, align 4
  %2 = load i32, ptr %bits, align 4
  %sh_prom = zext i32 %2 to i64
  %shl = shl i64 1, %sh_prom
  store i64 %shl, ptr %lower, align 8
  %3 = load i64, ptr %lower, align 8
  %4 = load i64, ptr %size.addr, align 8
  %cmp2 = icmp eq i64 %3, %4
  br i1 %cmp2, label %if.then3, label %if.end4

if.then3:                                         ; preds = %if.end
  %5 = load i64, ptr %size.addr, align 8
  store i64 %5, ptr %retval, align 8
  br label %return

if.end4:                                          ; preds = %if.end
  %6 = load i64, ptr %lower, align 8
  %7 = load i64, ptr %lower, align 8
  %div = udiv i64 %7, 2
  %add = add i64 %6, %div
  %8 = load i64, ptr %size.addr, align 8
  %cmp5 = icmp uge i64 %add, %8
  br i1 %cmp5, label %if.then6, label %if.end9

if.then6:                                         ; preds = %if.end4
  %9 = load i64, ptr %lower, align 8
  %10 = load i64, ptr %lower, align 8
  %div7 = udiv i64 %10, 2
  %add8 = add i64 %9, %div7
  store i64 %add8, ptr %retval, align 8
  br label %return

if.end9:                                          ; preds = %if.end4
  %11 = load i64, ptr %lower, align 8
  %mul = mul i64 %11, 2
  store i64 %mul, ptr %retval, align 8
  br label %return

return:                                           ; preds = %if.end9, %if.then6, %if.then3, %if.then
  %12 = load i64, ptr %retval, align 8
  ret i64 %12
}

; Function Attrs: mustprogress nounwind uwtable
define linkonce_odr noundef i32 @_ZN8facebook5velox4bits17countLeadingZerosImEEiT_(i64 noundef %word) #3 comdat {
entry:
  %retval = alloca i32, align 4
  %word.addr = alloca i64, align 8
  store i64 %word, ptr %word.addr, align 8
  %0 = load i64, ptr %word.addr, align 8
  %cmp = icmp eq i64 %0, 0
  br i1 %cmp, label %if.then, label %if.end

if.then:                                          ; preds = %entry
  store i32 64, ptr %retval, align 4
  br label %return

if.end:                                           ; preds = %entry
  %1 = load i64, ptr %word.addr, align 8
  %2 = call i64 @llvm.ctlz.i64(i64 %1, i1 true)
  %cast = trunc i64 %2 to i32
  store i32 %cast, ptr %retval, align 4
  br label %return

return:                                           ; preds = %if.end, %if.then
  %3 = load i32, ptr %retval, align 4
  ret i32 %3
}

; Function Attrs: mustprogress uwtable
define void @_ZN8facebook5velox6memory14MemoryPoolImplC2EPNS1_13MemoryManagerERKNSt7__cxx1112basic_stringIcSt11char_traitsIcESaIcEEENS1_10MemoryPool4KindESt10shared_ptrISD_ESt10unique_ptrINS1_15MemoryReclaimerESt14default_deleteISI_EESt8functionIFvPSD_EERKNSD_7OptionsE(ptr noundef nonnull align 8 dereferenceable(480) %this, ptr noundef %memoryManager, ptr noundef nonnull align 8 dereferenceable(32) %name, i32 noundef %kind, ptr noundef %parent, ptr noundef %reclaimer, ptr noundef %destructionCb, ptr noundef nonnull align 8 dereferenceable(21) %options) unnamed_addr #0 align 2 personality ptr @__gxx_personality_v0 {
entry:
  %this.addr.i = alloca ptr, align 8
  %this.addr = alloca ptr, align 8
  %memoryManager.addr = alloca ptr, align 8
  %name.addr = alloca ptr, align 8
  %kind.addr = alloca i32, align 4
  %parent.indirect_addr = alloca ptr, align 8
  %reclaimer.indirect_addr = alloca ptr, align 8
  %destructionCb.indirect_addr = alloca ptr, align 8
  %options.addr = alloca ptr, align 8
  %agg.tmp = alloca %"class.std::shared_ptr", align 8
  %exn.slot = alloca ptr, align 8
  %ehselector.slot = alloca i32, align 4
  %ref.tmp = alloca %"class.folly::LockedPtr", align 8
  %cleanup.cond = alloca i1, align 1
  %ref.tmp13 = alloca %"class.std::allocator", align 1
  %cleanup.cond14 = alloca i1, align 1
  store ptr %this, ptr %this.addr, align 8
  store ptr %memoryManager, ptr %memoryManager.addr, align 8
  store ptr %name, ptr %name.addr, align 8
  store i32 %kind, ptr %kind.addr, align 4
  store ptr %parent, ptr %parent.indirect_addr, align 8
  store ptr %reclaimer, ptr %reclaimer.indirect_addr, align 8
  store ptr %destructionCb, ptr %destructionCb.indirect_addr, align 8
  store ptr %options, ptr %options.addr, align 8
  %this1 = load ptr, ptr %this.addr, align 8
  %0 = load ptr, ptr %name.addr, align 8
  %1 = load i32, ptr %kind.addr, align 4
  call void @_ZNSt10shared_ptrIN8facebook5velox6memory10MemoryPoolEEC2ERKS4_(ptr noundef nonnull align 8 dereferenceable(16) %agg.tmp, ptr noundef nonnull align 8 dereferenceable(16) %parent) #11
  %2 = load ptr, ptr %options.addr, align 8
  invoke void @_ZN8facebook5velox6memory10MemoryPoolC2ERKNSt7__cxx1112basic_stringIcSt11char_traitsIcESaIcEEENS2_4KindESt10shared_ptrIS2_ERKNS2_7OptionsE(ptr noundef nonnull align 8 dereferenceable(168) %this1, ptr noundef nonnull align 8 dereferenceable(32) %0, i32 noundef %1, ptr noundef %agg.tmp, ptr noundef nonnull align 8 dereferenceable(21) %2)
          to label %invoke.cont unwind label %lpad

invoke.cont:                                      ; preds = %entry
  call void @_ZNSt10shared_ptrIN8facebook5velox6memory10MemoryPoolEED2Ev(ptr noundef nonnull align 8 dereferenceable(16) %agg.tmp) #11
  store ptr getelementptr inbounds ({ [52 x ptr] }, ptr @_ZTVN8facebook5velox6memory14MemoryPoolImplE, i32 0, inrange i32 0, i32 2), ptr %this1, align 8
  %manager_ = getelementptr inbounds %"class.facebook::velox::memory::MemoryPoolImpl", ptr %this1, i32 0, i32 1
  %3 = load ptr, ptr %memoryManager.addr, align 8
  store ptr %3, ptr %manager_, align 8
  %allocator_ = getelementptr inbounds %"class.facebook::velox::memory::MemoryPoolImpl", ptr %this1, i32 0, i32 2
  %manager_2 = getelementptr inbounds %"class.facebook::velox::memory::MemoryPoolImpl", ptr %this1, i32 0, i32 1
  %4 = load ptr, ptr %manager_2, align 8
  %call = invoke noundef nonnull align 8 dereferenceable(880) ptr @_ZN8facebook5velox6memory13MemoryManager9allocatorEv(ptr noundef nonnull align 8 dereferenceable(176) %4)
          to label %invoke.cont4 unwind label %lpad3

invoke.cont4:                                     ; preds = %invoke.cont
  store ptr %call, ptr %allocator_, align 8
  %destructionCb_ = getelementptr inbounds %"class.facebook::velox::memory::MemoryPoolImpl", ptr %this1, i32 0, i32 3
  call void @_ZNSt8functionIFvPN8facebook5velox6memory10MemoryPoolEEEC2EOS6_(ptr noundef nonnull align 8 dereferenceable(32) %destructionCb_, ptr noundef nonnull align 8 dereferenceable(32) %destructionCb) #11
  %debugPoolNameRegex_ = getelementptr inbounds %"class.facebook::velox::memory::MemoryPoolImpl", ptr %this1, i32 0, i32 4
  %debugEnabled_ = getelementptr inbounds %"class.facebook::velox::memory::MemoryPool", ptr %this1, i32 0, i32 10
  %5 = load i8, ptr %debugEnabled_, align 1
  %tobool = trunc i8 %5 to i1
  store i1 false, ptr %cleanup.cond, align 1
  store i1 false, ptr %cleanup.cond14, align 1
  br i1 %tobool, label %cond.true, label %cond.false

cond.true:                                        ; preds = %invoke.cont4
  %call7 = invoke noundef nonnull align 8 dereferenceable(36) ptr @_ZN8facebook5velox6memory14MemoryPoolImpl18debugPoolNameRegexB5cxx11Ev()
          to label %invoke.cont6 unwind label %lpad5

invoke.cont6:                                     ; preds = %cond.true
  invoke void @_ZN5folly16SynchronizedBaseINS_12SynchronizedINSt7__cxx1112basic_stringIcSt11char_traitsIcESaIcEEENS_15SharedMutexImplILb0EvSt6atomicNS_24SharedMutexPolicyDefaultEEEEELNS_6detail22SynchronizedMutexLevelE2EE5rlockEv(ptr sret(%"class.folly::LockedPtr") align 8 %ref.tmp, ptr noundef nonnull align 1 dereferenceable(1) %call7)
          to label %invoke.cont8 unwind label %lpad5

invoke.cont8:                                     ; preds = %invoke.cont6
  store i1 true, ptr %cleanup.cond, align 1
  %call11 = invoke noundef nonnull align 8 dereferenceable(32) ptr @_ZNK5folly9LockedPtrINS_12SynchronizedINSt7__cxx1112basic_stringIcSt11char_traitsIcESaIcEEENS_15SharedMutexImplILb0EvSt6atomicNS_24SharedMutexPolicyDefaultEEEEENS_6detail22SynchronizedLockPolicyILNSD_22SynchronizedMutexLevelE2ELNSD_23SynchronizedMutexMethodE0EEEEdeEv(ptr noundef nonnull align 8 dereferenceable(16) %ref.tmp)
          to label %invoke.cont10 unwind label %lpad9

invoke.cont10:                                    ; preds = %invoke.cont8
  invoke void @_ZNSt7__cxx1112basic_stringIcSt11char_traitsIcESaIcEEC1ERKS4_(ptr noundef nonnull align 8 dereferenceable(32) %debugPoolNameRegex_, ptr noundef nonnull align 8 dereferenceable(32) %call11)
          to label %invoke.cont12 unwind label %lpad9

invoke.cont12:                                    ; preds = %invoke.cont10
  br label %cond.end

cond.false:                                       ; preds = %invoke.cont4
  call void @_ZNSaIcEC1Ev(ptr noundef nonnull align 1 dereferenceable(1) %ref.tmp13) #11
  store i1 true, ptr %cleanup.cond14, align 1
  invoke void @_ZNSt7__cxx1112basic_stringIcSt11char_traitsIcESaIcEEC2IS3_EEPKcRKS3_(ptr noundef nonnull align 8 dereferenceable(32) %debugPoolNameRegex_, ptr noundef @.str.4, ptr noundef nonnull align 1 dereferenceable(1) %ref.tmp13)
          to label %invoke.cont16 unwind label %lpad15

invoke.cont16:                                    ; preds = %cond.false
  br label %cond.end

cond.end:                                         ; preds = %invoke.cont16, %invoke.cont12
  %cleanup.is_active = load i1, ptr %cleanup.cond14, align 1
  br i1 %cleanup.is_active, label %cleanup.action, label %cleanup.done

cleanup.action:                                   ; preds = %cond.end
  call void @_ZNSaIcED1Ev(ptr noundef nonnull align 1 dereferenceable(1) %ref.tmp13) #11
  br label %cleanup.done

cleanup.done:                                     ; preds = %cleanup.action, %cond.end
  %cleanup.is_active20 = load i1, ptr %cleanup.cond, align 1
  br i1 %cleanup.is_active20, label %cleanup.action21, label %cleanup.done22

cleanup.action21:                                 ; preds = %cleanup.done
  call void @_ZN5folly9LockedPtrINS_12SynchronizedINSt7__cxx1112basic_stringIcSt11char_traitsIcESaIcEEENS_15SharedMutexImplILb0EvSt6atomicNS_24SharedMutexPolicyDefaultEEEEENS_6detail22SynchronizedLockPolicyILNSD_22SynchronizedMutexLevelE2ELNSD_23SynchronizedMutexMethodE0EEEED2Ev(ptr noundef nonnull align 8 dereferenceable(16) %ref.tmp) #11
  br label %cleanup.done22

cleanup.done22:                                   ; preds = %cleanup.action21, %cleanup.done
  %mutex_ = getelementptr inbounds %"class.facebook::velox::memory::MemoryPoolImpl", ptr %this1, i32 0, i32 5
  call void @_ZNSt5mutexC2Ev(ptr noundef nonnull align 8 dereferenceable(40) %mutex_) #11
  %reclaimer_ = getelementptr inbounds %"class.facebook::velox::memory::MemoryPoolImpl", ptr %this1, i32 0, i32 6
  call void @_ZNSt10unique_ptrIN8facebook5velox6memory15MemoryReclaimerESt14default_deleteIS3_EEC2EOS6_(ptr noundef nonnull align 8 dereferenceable(8) %reclaimer_, ptr noundef nonnull align 8 dereferenceable(8) %reclaimer) #11
  %capacity_ = getelementptr inbounds %"class.facebook::velox::memory::MemoryPoolImpl", ptr %this1, i32 0, i32 7
  %parent_ = getelementptr inbounds %"class.facebook::velox::memory::MemoryPool", ptr %this1, i32 0, i32 5
  %call26 = call noundef zeroext i1 @_ZStneIN8facebook5velox6memory10MemoryPoolEEbRKSt10shared_ptrIT_EDn(ptr noundef nonnull align 8 dereferenceable(16) %parent_, ptr null) #11
  %cond = select i1 %call26, i64 9223372036854775807, i64 0
  store i64 %cond, ptr %capacity_, align 8
  %reservationBytes_ = getelementptr inbounds %"class.facebook::velox::memory::MemoryPoolImpl", ptr %this1, i32 0, i32 8
  store i64 0, ptr %reservationBytes_, align 8
  %usedReservationBytes_ = getelementptr inbounds %"class.facebook::velox::memory::MemoryPoolImpl", ptr %this1, i32 0, i32 9
  store i64 0, ptr %usedReservationBytes_, align 8
  %minReservationBytes_ = getelementptr inbounds %"class.facebook::velox::memory::MemoryPoolImpl", ptr %this1, i32 0, i32 10
  store i64 0, ptr %minReservationBytes_, align 8
  %peakBytes_ = getelementptr inbounds %"class.facebook::velox::memory::MemoryPoolImpl", ptr %this1, i32 0, i32 11
  store i64 0, ptr %peakBytes_, align 8
  %cumulativeBytes_ = getelementptr inbounds %"class.facebook::velox::memory::MemoryPoolImpl", ptr %this1, i32 0, i32 12
  store i64 0, ptr %cumulativeBytes_, align 8
  %numAllocs_ = getelementptr inbounds %"class.facebook::velox::memory::MemoryPoolImpl", ptr %this1, i32 0, i32 13
  call void @_ZNSt6atomicImEC2Em(ptr noundef nonnull align 8 dereferenceable(8) %numAllocs_, i64 noundef 0) #11
  %numFrees_ = getelementptr inbounds %"class.facebook::velox::memory::MemoryPoolImpl", ptr %this1, i32 0, i32 14
  call void @_ZNSt6atomicImEC2Em(ptr noundef nonnull align 8 dereferenceable(8) %numFrees_, i64 noundef 0) #11
  %numReserves_ = getelementptr inbounds %"class.facebook::velox::memory::MemoryPoolImpl", ptr %this1, i32 0, i32 15
  call void @_ZNSt6atomicImEC2Em(ptr noundef nonnull align 8 dereferenceable(8) %numReserves_, i64 noundef 0) #11
  %numReleases_ = getelementptr inbounds %"class.facebook::velox::memory::MemoryPoolImpl", ptr %this1, i32 0, i32 16
  call void @_ZNSt6atomicImEC2Em(ptr noundef nonnull align 8 dereferenceable(8) %numReleases_, i64 noundef 0) #11
  %numCollisions_ = getelementptr inbounds %"class.facebook::velox::memory::MemoryPoolImpl", ptr %this1, i32 0, i32 17
  call void @_ZNSt6atomicImEC2Em(ptr noundef nonnull align 8 dereferenceable(8) %numCollisions_, i64 noundef 0) #11
  %debugAllocMutex_ = getelementptr inbounds %"class.facebook::velox::memory::MemoryPoolImpl", ptr %this1, i32 0, i32 18
  call void @_ZNSt5mutexC2Ev(ptr noundef nonnull align 8 dereferenceable(40) %debugAllocMutex_) #11
  %debugAllocRecords_ = getelementptr inbounds %"class.facebook::velox::memory::MemoryPoolImpl", ptr %this1, i32 0, i32 19
  call void @_ZNSt13unordered_mapImN8facebook5velox6memory14MemoryPoolImpl16AllocationRecordESt4hashImESt8equal_toImESaISt4pairIKmS4_EEEC2Ev(ptr noundef nonnull align 8 dereferenceable(56) %debugAllocRecords_) #11
  %6 = load ptr, ptr %options.addr, align 8
  %threadSafe = getelementptr inbounds %"struct.facebook::velox::memory::MemoryPool::Options", ptr %6, i32 0, i32 4
  %7 = load i8, ptr %threadSafe, align 1
  %tobool27 = trunc i8 %7 to i1
  br i1 %tobool27, label %lor.end, label %lor.rhs

lor.rhs:                                          ; preds = %cleanup.done22
  store ptr %this1, ptr %this.addr.i, align 8
  %this1.i = load ptr, ptr %this.addr.i, align 8
  %kind_.i = getelementptr inbounds %"class.facebook::velox::memory::MemoryPool", ptr %this1.i, i32 0, i32 3
  %8 = load i32, ptr %kind_.i, align 8
  %cmp.i = icmp eq i32 %8, 0
  br label %invoke.cont29

invoke.cont29:                                    ; preds = %lor.rhs
  br label %lor.end

lor.end:                                          ; preds = %invoke.cont29, %cleanup.done22
  %9 = phi i1 [ true, %cleanup.done22 ], [ %cmp.i, %invoke.cont29 ]
  %lnot = xor i1 %9, true
  br i1 %lnot, label %if.then, label %if.end

if.then:                                          ; preds = %lor.end
  call void @llvm.trap()
  br label %if.end

lpad:                                             ; preds = %entry
  %10 = landingpad { ptr, i32 }
          cleanup
  %11 = extractvalue { ptr, i32 } %10, 0
  store ptr %11, ptr %exn.slot, align 8
  %12 = extractvalue { ptr, i32 } %10, 1
  store i32 %12, ptr %ehselector.slot, align 4
  call void @_ZNSt10shared_ptrIN8facebook5velox6memory10MemoryPoolEED2Ev(ptr noundef nonnull align 8 dereferenceable(16) %agg.tmp) #11
  br label %eh.resume

lpad3:                                            ; preds = %invoke.cont
  %13 = landingpad { ptr, i32 }
          cleanup
  %14 = extractvalue { ptr, i32 } %13, 0
  store ptr %14, ptr %exn.slot, align 8
  %15 = extractvalue { ptr, i32 } %13, 1
  store i32 %15, ptr %ehselector.slot, align 4
  br label %ehcleanup48

lpad5:                                            ; preds = %invoke.cont6, %cond.true
  %16 = landingpad { ptr, i32 }
          cleanup
  %17 = extractvalue { ptr, i32 } %16, 0
  store ptr %17, ptr %exn.slot, align 8
  %18 = extractvalue { ptr, i32 } %16, 1
  store i32 %18, ptr %ehselector.slot, align 4
  br label %ehcleanup47

lpad9:                                            ; preds = %invoke.cont10, %invoke.cont8
  %19 = landingpad { ptr, i32 }
          cleanup
  %20 = extractvalue { ptr, i32 } %19, 0
  store ptr %20, ptr %exn.slot, align 8
  %21 = extractvalue { ptr, i32 } %19, 1
  store i32 %21, ptr %ehselector.slot, align 4
  br label %ehcleanup

lpad15:                                           ; preds = %cond.false
  %22 = landingpad { ptr, i32 }
          cleanup
  %23 = extractvalue { ptr, i32 } %22, 0
  store ptr %23, ptr %exn.slot, align 8
  %24 = extractvalue { ptr, i32 } %22, 1
  store i32 %24, ptr %ehselector.slot, align 4
  %cleanup.is_active17 = load i1, ptr %cleanup.cond14, align 1
  br i1 %cleanup.is_active17, label %cleanup.action18, label %cleanup.done19

cleanup.action18:                                 ; preds = %lpad15
  call void @_ZNSaIcED1Ev(ptr noundef nonnull align 1 dereferenceable(1) %ref.tmp13) #11
  br label %cleanup.done19

cleanup.done19:                                   ; preds = %cleanup.action18, %lpad15
  br label %ehcleanup

ehcleanup:                                        ; preds = %cleanup.done19, %lpad9
  %cleanup.is_active23 = load i1, ptr %cleanup.cond, align 1
  br i1 %cleanup.is_active23, label %cleanup.action24, label %cleanup.done25

cleanup.action24:                                 ; preds = %ehcleanup
  call void @_ZN5folly9LockedPtrINS_12SynchronizedINSt7__cxx1112basic_stringIcSt11char_traitsIcESaIcEEENS_15SharedMutexImplILb0EvSt6atomicNS_24SharedMutexPolicyDefaultEEEEENS_6detail22SynchronizedLockPolicyILNSD_22SynchronizedMutexLevelE2ELNSD_23SynchronizedMutexMethodE0EEEED2Ev(ptr noundef nonnull align 8 dereferenceable(16) %ref.tmp) #11
  br label %cleanup.done25

cleanup.done25:                                   ; preds = %cleanup.action24, %ehcleanup
  br label %ehcleanup47

lpad28:                                           ; preds = %lor.lhs.false
  %25 = landingpad { ptr, i32 }
          cleanup
  %26 = extractvalue { ptr, i32 } %25, 0
  store ptr %26, ptr %exn.slot, align 8
  %27 = extractvalue { ptr, i32 } %25, 1
  store i32 %27, ptr %ehselector.slot, align 4
  call void @_ZNSt13unordered_mapImN8facebook5velox6memory14MemoryPoolImpl16AllocationRecordESt4hashImESt8equal_toImESaISt4pairIKmS4_EEED2Ev(ptr noundef nonnull align 8 dereferenceable(56) %debugAllocRecords_) #11
  call void @_ZNSt10unique_ptrIN8facebook5velox6memory15MemoryReclaimerESt14default_deleteIS3_EED2Ev(ptr noundef nonnull align 8 dereferenceable(8) %reclaimer_) #11
  call void @_ZNSt7__cxx1112basic_stringIcSt11char_traitsIcESaIcEED1Ev(ptr noundef nonnull align 8 dereferenceable(32) %debugPoolNameRegex_) #11
  br label %ehcleanup47

if.end:                                           ; preds = %if.then, %lor.end
  %parent_31 = getelementptr inbounds %"class.facebook::velox::memory::MemoryPool", ptr %this1, i32 0, i32 5
  %call32 = call noundef zeroext i1 @_ZSteqIN8facebook5velox6memory10MemoryPoolEEbRKSt10shared_ptrIT_EDn(ptr noundef nonnull align 8 dereferenceable(16) %parent_31, ptr null) #11
  br i1 %call32, label %lor.end40, label %lor.lhs.false

lor.lhs.false:                                    ; preds = %if.end
  %parent_33 = getelementptr inbounds %"class.facebook::velox::memory::MemoryPool", ptr %this1, i32 0, i32 5
  %call34 = call noundef ptr @_ZNKSt19__shared_ptr_accessIN8facebook5velox6memory10MemoryPoolELN9__gnu_cxx12_Lock_policyE2ELb0ELb0EEptEv(ptr noundef nonnull align 1 dereferenceable(1) %parent_33) #11
  %vtable = load ptr, ptr %call34, align 8
  %vfn = getelementptr inbounds ptr, ptr %vtable, i64 38
  %28 = load ptr, ptr %vfn, align 8
  %call36 = invoke noundef ptr %28(ptr noundef nonnull align 8 dereferenceable(168) %call34)
          to label %invoke.cont35 unwind label %lpad28

invoke.cont35:                                    ; preds = %lor.lhs.false
  %cmp = icmp ne ptr %call36, null
  br i1 %cmp, label %lor.end40, label %lor.rhs37

lor.rhs37:                                        ; preds = %invoke.cont35
  %reclaimer_38 = getelementptr inbounds %"class.facebook::velox::memory::MemoryPoolImpl", ptr %this1, i32 0, i32 6
  %call39 = call noundef zeroext i1 @_ZSteqIN8facebook5velox6memory15MemoryReclaimerESt14default_deleteIS3_EEbRKSt10unique_ptrIT_T0_EDn(ptr noundef nonnull align 8 dereferenceable(8) %reclaimer_38, ptr null) #11
  br label %lor.end40

lor.end40:                                        ; preds = %lor.rhs37, %invoke.cont35, %if.end
  %29 = phi i1 [ true, %invoke.cont35 ], [ true, %if.end ], [ %call39, %lor.rhs37 ]
  %lnot41 = xor i1 %29, true
  br i1 %lnot41, label %if.then42, label %if.end43

if.then42:                                        ; preds = %lor.end40
  call void @llvm.trap()
  br label %if.end43

if.end43:                                         ; preds = %if.then42, %lor.end40
  ret void

ehcleanup47:                                      ; preds = %lpad28, %cleanup.done25, %lpad5
  call void @_ZNSt8functionIFvPN8facebook5velox6memory10MemoryPoolEEED2Ev(ptr noundef nonnull align 8 dereferenceable(32) %destructionCb_) #11
  br label %ehcleanup48

ehcleanup48:                                      ; preds = %ehcleanup47, %lpad3
  call void @_ZN8facebook5velox6memory10MemoryPoolD2Ev(ptr noundef nonnull align 8 dereferenceable(168) %this1) #11
  br label %eh.resume

eh.resume:                                        ; preds = %ehcleanup48, %lpad
  %exn = load ptr, ptr %exn.slot, align 8
  %sel = load i32, ptr %ehselector.slot, align 4
  %lpad.val = insertvalue { ptr, i32 } poison, ptr %exn, 0
  %lpad.val49 = insertvalue { ptr, i32 } %lpad.val, i32 %sel, 1
  resume { ptr, i32 } %lpad.val49
}

; Function Attrs: mustprogress nounwind uwtable
define linkonce_odr void @_ZNSt10shared_ptrIN8facebook5velox6memory10MemoryPoolEEC2ERKS4_(ptr noundef nonnull align 8 dereferenceable(16) %this, ptr noundef nonnull align 8 dereferenceable(16) %0) unnamed_addr #3 comdat align 2 {
entry:
  %this.addr = alloca ptr, align 8
  %.addr = alloca ptr, align 8
  store ptr %this, ptr %this.addr, align 8
  store ptr %0, ptr %.addr, align 8
  %this1 = load ptr, ptr %this.addr, align 8
  %1 = load ptr, ptr %.addr, align 8
  call void @_ZNSt12__shared_ptrIN8facebook5velox6memory10MemoryPoolELN9__gnu_cxx12_Lock_policyE2EEC2ERKS6_(ptr noundef nonnull align 8 dereferenceable(16) %this1, ptr noundef nonnull align 8 dereferenceable(16) %1) #11
  ret void
}

declare noundef nonnull align 8 dereferenceable(880) ptr @_ZN8facebook5velox6memory13MemoryManager9allocatorEv(ptr noundef nonnull align 8 dereferenceable(176)) #1

; Function Attrs: mustprogress nounwind uwtable
define linkonce_odr void @_ZNSt8functionIFvPN8facebook5velox6memory10MemoryPoolEEEC2EOS6_(ptr noundef nonnull align 8 dereferenceable(32) %this, ptr noundef nonnull align 8 dereferenceable(32) %__x) unnamed_addr #3 comdat align 2 {
entry:
  %this.addr = alloca ptr, align 8
  %__x.addr = alloca ptr, align 8
  store ptr %this, ptr %this.addr, align 8
  store ptr %__x, ptr %__x.addr, align 8
  %this1 = load ptr, ptr %this.addr, align 8
  %0 = getelementptr inbounds i8, ptr %this1, i64 0
  call void @llvm.memset.p0.i64(ptr align 8 %0, i8 0, i64 24, i1 false)
  call void @_ZNSt14_Function_baseC2Ev(ptr noundef nonnull align 8 dereferenceable(24) %this1) #11
  %_M_invoker = getelementptr inbounds %"class.std::function.34", ptr %this1, i32 0, i32 1
  %1 = load ptr, ptr %__x.addr, align 8
  %_M_invoker2 = getelementptr inbounds %"class.std::function.34", ptr %1, i32 0, i32 1
  %2 = load ptr, ptr %_M_invoker2, align 8
  store ptr %2, ptr %_M_invoker, align 8
  %3 = load ptr, ptr %__x.addr, align 8
  %call = call noundef zeroext i1 @_ZNKSt8functionIFvPN8facebook5velox6memory10MemoryPoolEEEcvbEv(ptr noundef nonnull align 8 dereferenceable(32) %3) #11
  br i1 %call, label %if.then, label %if.end

if.then:                                          ; preds = %entry
  %4 = load ptr, ptr %__x.addr, align 8
  %_M_functor = getelementptr inbounds %"class.std::_Function_base", ptr %4, i32 0, i32 0
  %_M_functor3 = getelementptr inbounds %"class.std::_Function_base", ptr %this1, i32 0, i32 0
  call void @llvm.memcpy.p0.p0.i64(ptr align 8 %_M_functor3, ptr align 8 %_M_functor, i64 16, i1 false)
  %5 = load ptr, ptr %__x.addr, align 8
  %_M_manager = getelementptr inbounds %"class.std::_Function_base", ptr %5, i32 0, i32 1
  %6 = load ptr, ptr %_M_manager, align 8
  %_M_manager4 = getelementptr inbounds %"class.std::_Function_base", ptr %this1, i32 0, i32 1
  store ptr %6, ptr %_M_manager4, align 8
  %7 = load ptr, ptr %__x.addr, align 8
  %_M_manager5 = getelementptr inbounds %"class.std::_Function_base", ptr %7, i32 0, i32 1
  store ptr null, ptr %_M_manager5, align 8
  %8 = load ptr, ptr %__x.addr, align 8
  %_M_invoker6 = getelementptr inbounds %"class.std::function.34", ptr %8, i32 0, i32 1
  store ptr null, ptr %_M_invoker6, align 8
  br label %if.end

if.end:                                           ; preds = %if.then, %entry
  ret void
}

; Function Attrs: mustprogress nounwind uwtable
define linkonce_odr noundef nonnull align 8 dereferenceable(36) ptr @_ZN8facebook5velox6memory14MemoryPoolImpl18debugPoolNameRegexB5cxx11Ev() #3 comdat align 2 {
entry:
  %0 = load atomic i8, ptr @_ZGVZN8facebook5velox6memory14MemoryPoolImpl18debugPoolNameRegexB5cxx11EvE19debugPoolNameRegex_B5cxx11 acquire, align 8
  %guard.uninitialized = icmp eq i8 %0, 0
  br i1 %guard.uninitialized, label %init.check, label %init.end, !prof !12

init.check:                                       ; preds = %entry
  %1 = call i32 @__cxa_guard_acquire(ptr @_ZGVZN8facebook5velox6memory14MemoryPoolImpl18debugPoolNameRegexB5cxx11EvE19debugPoolNameRegex_B5cxx11) #11
  %tobool = icmp ne i32 %1, 0
  br i1 %tobool, label %init, label %init.end

init:                                             ; preds = %init.check
  call void @_ZN5folly12SynchronizedINSt7__cxx1112basic_stringIcSt11char_traitsIcESaIcEEENS_15SharedMutexImplILb0EvSt6atomicNS_24SharedMutexPolicyDefaultEEEEC2Ev(ptr noundef nonnull align 8 dereferenceable(36) @_ZZN8facebook5velox6memory14MemoryPoolImpl18debugPoolNameRegexB5cxx11EvE19debugPoolNameRegex_B5cxx11) #11
  %2 = call i32 @__cxa_atexit(ptr @_ZN5folly12SynchronizedINSt7__cxx1112basic_stringIcSt11char_traitsIcESaIcEEENS_15SharedMutexImplILb0EvSt6atomicNS_24SharedMutexPolicyDefaultEEEED2Ev, ptr @_ZZN8facebook5velox6memory14MemoryPoolImpl18debugPoolNameRegexB5cxx11EvE19debugPoolNameRegex_B5cxx11, ptr @__dso_handle) #11
  call void @__cxa_guard_release(ptr @_ZGVZN8facebook5velox6memory14MemoryPoolImpl18debugPoolNameRegexB5cxx11EvE19debugPoolNameRegex_B5cxx11) #11
  br label %init.end

init.end:                                         ; preds = %init, %init.check, %entry
  ret ptr @_ZZN8facebook5velox6memory14MemoryPoolImpl18debugPoolNameRegexB5cxx11EvE19debugPoolNameRegex_B5cxx11
}

; Function Attrs: mustprogress uwtable
define linkonce_odr void @_ZN5folly16SynchronizedBaseINS_12SynchronizedINSt7__cxx1112basic_stringIcSt11char_traitsIcESaIcEEENS_15SharedMutexImplILb0EvSt6atomicNS_24SharedMutexPolicyDefaultEEEEELNS_6detail22SynchronizedMutexLevelE2EE5rlockEv(ptr noalias sret(%"class.folly::LockedPtr") align 8 %agg.result, ptr noundef nonnull align 1 dereferenceable(1) %this) #0 comdat align 2 {
entry:
  %result.ptr = alloca ptr, align 8
  %this.addr = alloca ptr, align 8
  store ptr %agg.result, ptr %result.ptr, align 8
  store ptr %this, ptr %this.addr, align 8
  %this1 = load ptr, ptr %this.addr, align 8
  call void @_ZN5folly9LockedPtrINS_12SynchronizedINSt7__cxx1112basic_stringIcSt11char_traitsIcESaIcEEENS_15SharedMutexImplILb0EvSt6atomicNS_24SharedMutexPolicyDefaultEEEEENS_6detail22SynchronizedLockPolicyILNSD_22SynchronizedMutexLevelE2ELNSD_23SynchronizedMutexMethodE0EEEEC2EPSC_(ptr noundef nonnull align 8 dereferenceable(16) %agg.result, ptr noundef %this1)
  ret void
}

; Function Attrs: mustprogress uwtable
define linkonce_odr noundef nonnull align 8 dereferenceable(32) ptr @_ZNK5folly9LockedPtrINS_12SynchronizedINSt7__cxx1112basic_stringIcSt11char_traitsIcESaIcEEENS_15SharedMutexImplILb0EvSt6atomicNS_24SharedMutexPolicyDefaultEEEEENS_6detail22SynchronizedLockPolicyILNSD_22SynchronizedMutexLevelE2ELNSD_23SynchronizedMutexMethodE0EEEEdeEv(ptr noundef nonnull align 8 dereferenceable(16) %this) #0 comdat align 2 {
entry:
  %this.addr = alloca ptr, align 8
  store ptr %this, ptr %this.addr, align 8
  %this1 = load ptr, ptr %this.addr, align 8
  %call = call noundef ptr @_ZNK5folly9LockedPtrINS_12SynchronizedINSt7__cxx1112basic_stringIcSt11char_traitsIcESaIcEEENS_15SharedMutexImplILb0EvSt6atomicNS_24SharedMutexPolicyDefaultEEEEENS_6detail22SynchronizedLockPolicyILNSD_22SynchronizedMutexLevelE2ELNSD_23SynchronizedMutexMethodE0EEEE6parentEv(ptr noundef nonnull align 8 dereferenceable(16) %this1)
  %datum_ = getelementptr inbounds %"struct.folly::Synchronized", ptr %call, i32 0, i32 0
  ret ptr %datum_
}

; Function Attrs: mustprogress nounwind uwtable
define linkonce_odr void @_ZN5folly9LockedPtrINS_12SynchronizedINSt7__cxx1112basic_stringIcSt11char_traitsIcESaIcEEENS_15SharedMutexImplILb0EvSt6atomicNS_24SharedMutexPolicyDefaultEEEEENS_6detail22SynchronizedLockPolicyILNSD_22SynchronizedMutexLevelE2ELNSD_23SynchronizedMutexMethodE0EEEED2Ev(ptr noundef nonnull align 8 dereferenceable(16) %this) unnamed_addr #3 comdat align 2 {
entry:
  %this.addr = alloca ptr, align 8
  store ptr %this, ptr %this.addr, align 8
  %this1 = load ptr, ptr %this.addr, align 8
  %lock_ = getelementptr inbounds %"class.folly::LockedPtr", ptr %this1, i32 0, i32 0
  call void @_ZNSt11shared_lockIN5folly15SharedMutexImplILb0EvSt6atomicNS0_24SharedMutexPolicyDefaultEEEED2Ev(ptr noundef nonnull align 8 dereferenceable(9) %lock_) #11
  ret void
}

; Function Attrs: mustprogress nounwind uwtable
define linkonce_odr void @_ZNSt5mutexC2Ev(ptr noundef nonnull align 8 dereferenceable(40) %this) unnamed_addr #3 comdat align 2 {
entry:
  %this.addr = alloca ptr, align 8
  store ptr %this, ptr %this.addr, align 8
  %this1 = load ptr, ptr %this.addr, align 8
  call void @_ZNSt12__mutex_baseC2Ev(ptr noundef nonnull align 8 dereferenceable(40) %this1) #11
  ret void
}

; Function Attrs: mustprogress nounwind uwtable
define linkonce_odr void @_ZNSt6atomicImEC2Em(ptr noundef nonnull align 8 dereferenceable(8) %this, i64 noundef %__i) unnamed_addr #3 comdat align 2 {
entry:
  %this.addr = alloca ptr, align 8
  %__i.addr = alloca i64, align 8
  store ptr %this, ptr %this.addr, align 8
  store i64 %__i, ptr %__i.addr, align 8
  %this1 = load ptr, ptr %this.addr, align 8
  %0 = load i64, ptr %__i.addr, align 8
  call void @_ZNSt13__atomic_baseImEC2Em(ptr noundef nonnull align 8 dereferenceable(8) %this1, i64 noundef %0) #11
  ret void
}

; Function Attrs: mustprogress nounwind uwtable
define linkonce_odr void @_ZNSt13unordered_mapImN8facebook5velox6memory14MemoryPoolImpl16AllocationRecordESt4hashImESt8equal_toImESaISt4pairIKmS4_EEEC2Ev(ptr noundef nonnull align 8 dereferenceable(56) %this) unnamed_addr #3 comdat align 2 {
entry:
  %this.addr = alloca ptr, align 8
  store ptr %this, ptr %this.addr, align 8
  %this1 = load ptr, ptr %this.addr, align 8
  %_M_h = getelementptr inbounds %"class.std::unordered_map.39", ptr %this1, i32 0, i32 0
  call void @_ZNSt10_HashtableImSt4pairIKmN8facebook5velox6memory14MemoryPoolImpl16AllocationRecordEESaIS7_ENSt8__detail10_Select1stESt8equal_toImESt4hashImENS9_18_Mod_range_hashingENS9_20_Default_ranged_hashENS9_20_Prime_rehash_policyENS9_17_Hashtable_traitsILb0ELb0ELb1EEEEC2Ev(ptr noundef nonnull align 8 dereferenceable(56) %_M_h) #11
  ret void
}

; Function Attrs: mustprogress nounwind uwtable
define linkonce_odr noundef ptr @_ZNKSt19__shared_ptr_accessIN8facebook5velox6memory10MemoryPoolELN9__gnu_cxx12_Lock_policyE2ELb0ELb0EEptEv(ptr noundef nonnull align 1 dereferenceable(1) %this) #3 comdat align 2 {
entry:
  %this.addr = alloca ptr, align 8
  store ptr %this, ptr %this.addr, align 8
  %this1 = load ptr, ptr %this.addr, align 8
  %call = call noundef ptr @_ZNKSt19__shared_ptr_accessIN8facebook5velox6memory10MemoryPoolELN9__gnu_cxx12_Lock_policyE2ELb0ELb0EE6_M_getEv(ptr noundef nonnull align 1 dereferenceable(1) %this1) #11
  ret ptr %call
}

; Function Attrs: mustprogress nounwind uwtable
define linkonce_odr noundef zeroext i1 @_ZSteqIN8facebook5velox6memory15MemoryReclaimerESt14default_deleteIS3_EEbRKSt10unique_ptrIT_T0_EDn(ptr noundef nonnull align 8 dereferenceable(8) %__x, ptr %0) #3 comdat {
entry:
  %__x.addr = alloca ptr, align 8
  %.addr = alloca ptr, align 8
  store ptr %__x, ptr %__x.addr, align 8
  store ptr %0, ptr %.addr, align 8
  %1 = load ptr, ptr %__x.addr, align 8
  %call = call noundef zeroext i1 @_ZNKSt10unique_ptrIN8facebook5velox6memory15MemoryReclaimerESt14default_deleteIS3_EEcvbEv(ptr noundef nonnull align 8 dereferenceable(8) %1) #11
  %lnot = xor i1 %call, true
  ret i1 %lnot
}

; Function Attrs: mustprogress nounwind uwtable
define linkonce_odr void @_ZNSt13unordered_mapImN8facebook5velox6memory14MemoryPoolImpl16AllocationRecordESt4hashImESt8equal_toImESaISt4pairIKmS4_EEED2Ev(ptr noundef nonnull align 8 dereferenceable(56) %this) unnamed_addr #3 comdat align 2 {
entry:
  %this.addr = alloca ptr, align 8
  store ptr %this, ptr %this.addr, align 8
  %this1 = load ptr, ptr %this.addr, align 8
  %_M_h = getelementptr inbounds %"class.std::unordered_map.39", ptr %this1, i32 0, i32 0
  call void @_ZNSt10_HashtableImSt4pairIKmN8facebook5velox6memory14MemoryPoolImpl16AllocationRecordEESaIS7_ENSt8__detail10_Select1stESt8equal_toImESt4hashImENS9_18_Mod_range_hashingENS9_20_Default_ranged_hashENS9_20_Prime_rehash_policyENS9_17_Hashtable_traitsILb0ELb0ELb1EEEED2Ev(ptr noundef nonnull align 8 dereferenceable(56) %_M_h) #11
  ret void
}

; Function Attrs: mustprogress nounwind uwtable
define linkonce_odr void @_ZNSt8functionIFvPN8facebook5velox6memory10MemoryPoolEEED2Ev(ptr noundef nonnull align 8 dereferenceable(32) %this) unnamed_addr #3 comdat align 2 {
entry:
  %this.addr = alloca ptr, align 8
  store ptr %this, ptr %this.addr, align 8
  %this1 = load ptr, ptr %this.addr, align 8
  call void @_ZNSt14_Function_baseD2Ev(ptr noundef nonnull align 8 dereferenceable(24) %this1) #11
  ret void
}

; Function Attrs: mustprogress nounwind uwtable
define void @_ZN8facebook5velox6memory14MemoryPoolImplD2Ev(ptr noundef nonnull align 8 dereferenceable(480) %this) unnamed_addr #3 align 2 personality ptr @__gxx_personality_v0 {
entry:
  %pool.addr.i = alloca ptr, align 8
  %this.addr = alloca ptr, align 8
  store ptr %this, ptr %this.addr, align 8
  %this1 = load ptr, ptr %this.addr, align 8
  store ptr getelementptr inbounds ({ [52 x ptr] }, ptr @_ZTVN8facebook5velox6memory14MemoryPoolImplE, i32 0, inrange i32 0, i32 2), ptr %this1, align 8
  %debugEnabled_ = getelementptr inbounds %"class.facebook::velox::memory::MemoryPool", ptr %this1, i32 0, i32 10
  %0 = load i8, ptr %debugEnabled_, align 1
  %tobool = trunc i8 %0 to i1
  br i1 %tobool, label %if.then, label %if.end

if.then:                                          ; preds = %entry
  invoke void @_ZN8facebook5velox6memory14MemoryPoolImpl12leakCheckDbgEv(ptr noundef nonnull align 8 dereferenceable(480) %this1)
          to label %invoke.cont unwind label %terminate.lpad

invoke.cont:                                      ; preds = %if.then
  br label %if.end

if.end:                                           ; preds = %invoke.cont, %entry
  %parent_ = getelementptr inbounds %"class.facebook::velox::memory::MemoryPool", ptr %this1, i32 0, i32 5
  %call = call noundef zeroext i1 @_ZStneIN8facebook5velox6memory10MemoryPoolEEbRKSt10shared_ptrIT_EDn(ptr noundef nonnull align 8 dereferenceable(16) %parent_, ptr null) #11
  br i1 %call, label %if.then2, label %if.end7

if.then2:                                         ; preds = %if.end
  %parent_3 = getelementptr inbounds %"class.facebook::velox::memory::MemoryPool", ptr %this1, i32 0, i32 5
  store ptr %parent_3, ptr %pool.addr.i, align 8
  %1 = load ptr, ptr %pool.addr.i, align 8
  %call.i = call noundef ptr @_ZNKSt12__shared_ptrIN8facebook5velox6memory10MemoryPoolELN9__gnu_cxx12_Lock_policyE2EE3getEv(ptr noundef nonnull align 8 dereferenceable(16) %1) #11
  br label %invoke.cont4

invoke.cont4:                                     ; preds = %if.then2
  %vtable = load ptr, ptr %call.i, align 8
  %vfn = getelementptr inbounds ptr, ptr %vtable, i64 49
  %2 = load ptr, ptr %vfn, align 8
  invoke void %2(ptr noundef nonnull align 8 dereferenceable(168) %call.i, ptr noundef %this1)
          to label %invoke.cont6 unwind label %terminate.lpad

invoke.cont6:                                     ; preds = %invoke.cont4
  br label %if.end7

if.end7:                                          ; preds = %invoke.cont6, %if.end
  %checkUsageLeak_ = getelementptr inbounds %"class.facebook::velox::memory::MemoryPool", ptr %this1, i32 0, i32 9
  %3 = load i8, ptr %checkUsageLeak_, align 2
  %tobool8 = trunc i8 %3 to i1
  br i1 %tobool8, label %if.then9, label %if.end14

if.then9:                                         ; preds = %if.end7
  %usedReservationBytes_ = getelementptr inbounds %"class.facebook::velox::memory::MemoryPoolImpl", ptr %this1, i32 0, i32 9
  %4 = load i64, ptr %usedReservationBytes_, align 8
  %cmp = icmp eq i64 %4, 0
  br i1 %cmp, label %land.lhs.true, label %land.end

land.lhs.true:                                    ; preds = %if.then9
  %reservationBytes_ = getelementptr inbounds %"class.facebook::velox::memory::MemoryPoolImpl", ptr %this1, i32 0, i32 8
  %5 = load i64, ptr %reservationBytes_, align 8
  %cmp10 = icmp eq i64 %5, 0
  br i1 %cmp10, label %land.rhs, label %land.end

land.rhs:                                         ; preds = %land.lhs.true
  %minReservationBytes_ = getelementptr inbounds %"class.facebook::velox::memory::MemoryPoolImpl", ptr %this1, i32 0, i32 10
  %6 = load i64, ptr %minReservationBytes_, align 8
  %cmp11 = icmp eq i64 %6, 0
  br label %land.end

land.end:                                         ; preds = %land.rhs, %land.lhs.true, %if.then9
  %7 = phi i1 [ false, %land.lhs.true ], [ false, %if.then9 ], [ %cmp11, %land.rhs ]
  %lnot = xor i1 %7, true
  br i1 %lnot, label %if.then12, label %if.end13

if.then12:                                        ; preds = %land.end
  call void @llvm.trap()
  br label %if.end13

if.end13:                                         ; preds = %if.then12, %land.end
  br label %if.end14

if.end14:                                         ; preds = %if.end13, %if.end7
  %destructionCb_ = getelementptr inbounds %"class.facebook::velox::memory::MemoryPoolImpl", ptr %this1, i32 0, i32 3
  %call15 = call noundef zeroext i1 @_ZStneIvJPN8facebook5velox6memory10MemoryPoolEEEbRKSt8functionIFT_DpT0_EEDn(ptr noundef nonnull align 8 dereferenceable(32) %destructionCb_, ptr null) #11
  br i1 %call15, label %if.then16, label %if.end19

if.then16:                                        ; preds = %if.end14
  %destructionCb_17 = getelementptr inbounds %"class.facebook::velox::memory::MemoryPoolImpl", ptr %this1, i32 0, i32 3
  invoke void @_ZNKSt8functionIFvPN8facebook5velox6memory10MemoryPoolEEEclES4_(ptr noundef nonnull align 8 dereferenceable(32) %destructionCb_17, ptr noundef %this1)
          to label %invoke.cont18 unwind label %terminate.lpad

invoke.cont18:                                    ; preds = %if.then16
  br label %if.end19

if.end19:                                         ; preds = %invoke.cont18, %if.end14
  %debugAllocRecords_ = getelementptr inbounds %"class.facebook::velox::memory::MemoryPoolImpl", ptr %this1, i32 0, i32 19
  call void @_ZNSt13unordered_mapImN8facebook5velox6memory14MemoryPoolImpl16AllocationRecordESt4hashImESt8equal_toImESaISt4pairIKmS4_EEED2Ev(ptr noundef nonnull align 8 dereferenceable(56) %debugAllocRecords_) #11
  %reclaimer_ = getelementptr inbounds %"class.facebook::velox::memory::MemoryPoolImpl", ptr %this1, i32 0, i32 6
  call void @_ZNSt10unique_ptrIN8facebook5velox6memory15MemoryReclaimerESt14default_deleteIS3_EED2Ev(ptr noundef nonnull align 8 dereferenceable(8) %reclaimer_) #11
  %debugPoolNameRegex_ = getelementptr inbounds %"class.facebook::velox::memory::MemoryPoolImpl", ptr %this1, i32 0, i32 4
  call void @_ZNSt7__cxx1112basic_stringIcSt11char_traitsIcESaIcEED1Ev(ptr noundef nonnull align 8 dereferenceable(32) %debugPoolNameRegex_) #11
  %destructionCb_20 = getelementptr inbounds %"class.facebook::velox::memory::MemoryPoolImpl", ptr %this1, i32 0, i32 3
  call void @_ZNSt8functionIFvPN8facebook5velox6memory10MemoryPoolEEED2Ev(ptr noundef nonnull align 8 dereferenceable(32) %destructionCb_20) #11
  call void @_ZN8facebook5velox6memory10MemoryPoolD2Ev(ptr noundef nonnull align 8 dereferenceable(168) %this1) #11
  ret void

terminate.lpad:                                   ; preds = %if.then16, %invoke.cont4, %if.then
  %8 = landingpad { ptr, i32 }
          catch ptr null
  %9 = extractvalue { ptr, i32 } %8, 0
  call void @__clang_call_terminate(ptr %9) #15
  unreachable
}

; Function Attrs: mustprogress uwtable
define void @_ZN8facebook5velox6memory14MemoryPoolImpl12leakCheckDbgEv(ptr noundef nonnull align 8 dereferenceable(480) %this) #0 align 2 personality ptr @__gxx_personality_v0 {
entry:
  %this.addr = alloca ptr, align 8
  %buf = alloca %"class.std::__cxx11::basic_stringbuf", align 8
  %oss = alloca %"class.std::basic_ostream", align 8
  %exn.slot = alloca ptr, align 8
  %ehselector.slot = alloca i32, align 4
  %__range2 = alloca ptr, align 8
  %__begin2 = alloca %"struct.std::__detail::_Node_iterator.119", align 8
  %__end2 = alloca %"struct.std::__detail::_Node_iterator.119", align 8
  %itr = alloca ptr, align 8
  %allocationRecord = alloca ptr, align 8
  store ptr %this, ptr %this.addr, align 8
  %this1 = load ptr, ptr %this.addr, align 8
  %debugEnabled_ = getelementptr inbounds %"class.facebook::velox::memory::MemoryPool", ptr %this1, i32 0, i32 10
  %0 = load i8, ptr %debugEnabled_, align 1
  %tobool = trunc i8 %0 to i1
  %lnot = xor i1 %tobool, true
  br i1 %lnot, label %if.then, label %if.end

if.then:                                          ; preds = %entry
  call void @llvm.trap()
  br label %if.end

if.end:                                           ; preds = %if.then, %entry
  %debugAllocRecords_ = getelementptr inbounds %"class.facebook::velox::memory::MemoryPoolImpl", ptr %this1, i32 0, i32 19
  %call = call noundef zeroext i1 @_ZNKSt13unordered_mapImN8facebook5velox6memory14MemoryPoolImpl16AllocationRecordESt4hashImESt8equal_toImESaISt4pairIKmS4_EEE5emptyEv(ptr noundef nonnull align 8 dereferenceable(56) %debugAllocRecords_) #11
  br i1 %call, label %if.then2, label %if.end3

if.then2:                                         ; preds = %if.end
  br label %return

if.end3:                                          ; preds = %if.end
  call void @_ZNSt7__cxx1115basic_stringbufIcSt11char_traitsIcESaIcEEC1Ev(ptr noundef nonnull align 8 dereferenceable(104) %buf)
  invoke void @_ZNSoC1EPSt15basic_streambufIcSt11char_traitsIcEE(ptr noundef nonnull align 8 dereferenceable(8) %oss, ptr noundef %buf)
          to label %invoke.cont unwind label %lpad

invoke.cont:                                      ; preds = %if.end3
  %call6 = invoke noundef nonnull align 8 dereferenceable(8) ptr @_ZStlsISt11char_traitsIcEERSt13basic_ostreamIcT_ES5_PKc(ptr noundef nonnull align 8 dereferenceable(8) %oss, ptr noundef @.str.16)
          to label %invoke.cont5 unwind label %lpad4

invoke.cont5:                                     ; preds = %invoke.cont
  %debugAllocRecords_7 = getelementptr inbounds %"class.facebook::velox::memory::MemoryPoolImpl", ptr %this1, i32 0, i32 19
  %call8 = call noundef i64 @_ZNKSt13unordered_mapImN8facebook5velox6memory14MemoryPoolImpl16AllocationRecordESt4hashImESt8equal_toImESaISt4pairIKmS4_EEE4sizeEv(ptr noundef nonnull align 8 dereferenceable(56) %debugAllocRecords_7) #11
  %call10 = invoke noundef nonnull align 8 dereferenceable(8) ptr @_ZNSolsEm(ptr noundef nonnull align 8 dereferenceable(8) %call6, i64 noundef %call8)
          to label %invoke.cont9 unwind label %lpad4

invoke.cont9:                                     ; preds = %invoke.cont5
  %call12 = invoke noundef nonnull align 8 dereferenceable(8) ptr @_ZStlsISt11char_traitsIcEERSt13basic_ostreamIcT_ES5_PKc(ptr noundef nonnull align 8 dereferenceable(8) %call10, ptr noundef @.str.17)
          to label %invoke.cont11 unwind label %lpad4

invoke.cont11:                                    ; preds = %invoke.cont9
  %debugAllocRecords_13 = getelementptr inbounds %"class.facebook::velox::memory::MemoryPoolImpl", ptr %this1, i32 0, i32 19
  store ptr %debugAllocRecords_13, ptr %__range2, align 8
  %1 = load ptr, ptr %__range2, align 8
  %call14 = call ptr @_ZNSt13unordered_mapImN8facebook5velox6memory14MemoryPoolImpl16AllocationRecordESt4hashImESt8equal_toImESaISt4pairIKmS4_EEE5beginEv(ptr noundef nonnull align 8 dereferenceable(56) %1) #11
  %coerce.dive = getelementptr inbounds %"struct.std::__detail::_Node_iterator.119", ptr %__begin2, i32 0, i32 0
  %coerce.dive15 = getelementptr inbounds %"struct.std::__detail::_Node_iterator_base.120", ptr %coerce.dive, i32 0, i32 0
  store ptr %call14, ptr %coerce.dive15, align 8
  %2 = load ptr, ptr %__range2, align 8
  %call16 = call ptr @_ZNSt13unordered_mapImN8facebook5velox6memory14MemoryPoolImpl16AllocationRecordESt4hashImESt8equal_toImESaISt4pairIKmS4_EEE3endEv(ptr noundef nonnull align 8 dereferenceable(56) %2) #11
  %coerce.dive17 = getelementptr inbounds %"struct.std::__detail::_Node_iterator.119", ptr %__end2, i32 0, i32 0
  %coerce.dive18 = getelementptr inbounds %"struct.std::__detail::_Node_iterator_base.120", ptr %coerce.dive17, i32 0, i32 0
  store ptr %call16, ptr %coerce.dive18, align 8
  br label %for.cond

for.cond:                                         ; preds = %for.inc, %invoke.cont11
  %call19 = call noundef zeroext i1 @_ZNSt8__detailneERKNS_19_Node_iterator_baseISt4pairIKmN8facebook5velox6memory14MemoryPoolImpl16AllocationRecordEELb0EEESB_(ptr noundef nonnull align 8 dereferenceable(8) %__begin2, ptr noundef nonnull align 8 dereferenceable(8) %__end2) #11
  br i1 %call19, label %for.body, label %for.end

for.body:                                         ; preds = %for.cond
  %call20 = call noundef nonnull align 8 dereferenceable(48) ptr @_ZNKSt8__detail14_Node_iteratorISt4pairIKmN8facebook5velox6memory14MemoryPoolImpl16AllocationRecordEELb0ELb0EEdeEv(ptr noundef nonnull align 8 dereferenceable(8) %__begin2) #11
  store ptr %call20, ptr %itr, align 8
  %3 = load ptr, ptr %itr, align 8
  %second = getelementptr inbounds %"struct.std::pair.122", ptr %3, i32 0, i32 1
  store ptr %second, ptr %allocationRecord, align 8
  %call22 = invoke noundef nonnull align 8 dereferenceable(8) ptr @_ZStlsISt11char_traitsIcEERSt13basic_ostreamIcT_ES5_PKc(ptr noundef nonnull align 8 dereferenceable(8) %oss, ptr noundef @.str.18)
          to label %invoke.cont21 unwind label %lpad4

invoke.cont21:                                    ; preds = %for.body
  %4 = load ptr, ptr %allocationRecord, align 8
  %size = getelementptr inbounds %"struct.facebook::velox::memory::MemoryPoolImpl::AllocationRecord", ptr %4, i32 0, i32 0
  %5 = load i64, ptr %size, align 8
  %call24 = invoke noundef nonnull align 8 dereferenceable(8) ptr @_ZNSolsEm(ptr noundef nonnull align 8 dereferenceable(8) %call22, i64 noundef %5)
          to label %invoke.cont23 unwind label %lpad4

invoke.cont23:                                    ; preds = %invoke.cont21
  %call26 = invoke noundef nonnull align 8 dereferenceable(8) ptr @_ZStlsISt11char_traitsIcEERSt13basic_ostreamIcT_ES5_PKc(ptr noundef nonnull align 8 dereferenceable(8) %call24, ptr noundef @.str.19)
          to label %invoke.cont25 unwind label %lpad4

invoke.cont25:                                    ; preds = %invoke.cont23
  %6 = load ptr, ptr %allocationRecord, align 8
  %callStack = getelementptr inbounds %"struct.facebook::velox::memory::MemoryPoolImpl::AllocationRecord", ptr %6, i32 0, i32 1
  %call28 = invoke noundef nonnull align 8 dereferenceable(8) ptr @_ZStlsIcSt11char_traitsIcESaIcEERSt13basic_ostreamIT_T0_ES7_RKNSt7__cxx1112basic_stringIS4_S5_T1_EE(ptr noundef nonnull align 8 dereferenceable(8) %call26, ptr noundef nonnull align 8 dereferenceable(32) %callStack)
          to label %invoke.cont27 unwind label %lpad4

invoke.cont27:                                    ; preds = %invoke.cont25
  br label %for.inc

for.inc:                                          ; preds = %invoke.cont27
  %call29 = call noundef nonnull align 8 dereferenceable(8) ptr @_ZNSt8__detail14_Node_iteratorISt4pairIKmN8facebook5velox6memory14MemoryPoolImpl16AllocationRecordEELb0ELb0EEppEv(ptr noundef nonnull align 8 dereferenceable(8) %__begin2) #11
  br label %for.cond

lpad:                                             ; preds = %if.end3
  %7 = landingpad { ptr, i32 }
          cleanup
  %8 = extractvalue { ptr, i32 } %7, 0
  store ptr %8, ptr %exn.slot, align 8
  %9 = extractvalue { ptr, i32 } %7, 1
  store i32 %9, ptr %ehselector.slot, align 4
  br label %ehcleanup

lpad4:                                            ; preds = %invoke.cont25, %invoke.cont23, %invoke.cont21, %for.body, %invoke.cont9, %invoke.cont5, %invoke.cont
  %10 = landingpad { ptr, i32 }
          cleanup
  %11 = extractvalue { ptr, i32 } %10, 0
  store ptr %11, ptr %exn.slot, align 8
  %12 = extractvalue { ptr, i32 } %10, 1
  store i32 %12, ptr %ehselector.slot, align 4
  call void @_ZNSoD1Ev(ptr noundef nonnull align 8 dereferenceable(8) %oss) #11
  br label %ehcleanup

for.end:                                          ; preds = %for.cond
  call void @llvm.trap()
  call void @_ZNSoD1Ev(ptr noundef nonnull align 8 dereferenceable(8) %oss) #11
  call void @_ZNSt7__cxx1115basic_stringbufIcSt11char_traitsIcESaIcEED2Ev(ptr noundef nonnull align 8 dereferenceable(104) %buf) #11
  br label %return

return:                                           ; preds = %for.end, %if.then2
  ret void

ehcleanup:                                        ; preds = %lpad4, %lpad
  call void @_ZNSt7__cxx1115basic_stringbufIcSt11char_traitsIcESaIcEED2Ev(ptr noundef nonnull align 8 dereferenceable(104) %buf) #11
  br label %eh.resume

eh.resume:                                        ; preds = %ehcleanup
  %exn = load ptr, ptr %exn.slot, align 8
  %sel = load i32, ptr %ehselector.slot, align 4
  %lpad.val = insertvalue { ptr, i32 } poison, ptr %exn, 0
  %lpad.val30 = insertvalue { ptr, i32 } %lpad.val, i32 %sel, 1
  resume { ptr, i32 } %lpad.val30
}

; Function Attrs: noreturn nounwind uwtable
define linkonce_odr hidden void @__clang_call_terminate(ptr noundef %0) #5 comdat {
  %2 = call ptr @__cxa_begin_catch(ptr %0) #11
  call void @_ZSt9terminatev() #15
  unreachable
}

declare ptr @__cxa_begin_catch(ptr)

declare void @_ZSt9terminatev()

; Function Attrs: mustprogress nounwind uwtable
define linkonce_odr noundef zeroext i1 @_ZStneIvJPN8facebook5velox6memory10MemoryPoolEEEbRKSt8functionIFT_DpT0_EEDn(ptr noundef nonnull align 8 dereferenceable(32) %__f, ptr %0) #3 comdat {
entry:
  %__f.addr = alloca ptr, align 8
  %.addr = alloca ptr, align 8
  store ptr %__f, ptr %__f.addr, align 8
  store ptr %0, ptr %.addr, align 8
  %1 = load ptr, ptr %__f.addr, align 8
  %call = call noundef zeroext i1 @_ZNKSt8functionIFvPN8facebook5velox6memory10MemoryPoolEEEcvbEv(ptr noundef nonnull align 8 dereferenceable(32) %1) #11
  ret i1 %call
}

; Function Attrs: mustprogress uwtable
define linkonce_odr void @_ZNKSt8functionIFvPN8facebook5velox6memory10MemoryPoolEEEclES4_(ptr noundef nonnull align 8 dereferenceable(32) %this, ptr noundef %__args) #0 comdat align 2 {
entry:
  %this.addr = alloca ptr, align 8
  %__args.addr = alloca ptr, align 8
  store ptr %this, ptr %this.addr, align 8
  store ptr %__args, ptr %__args.addr, align 8
  %this1 = load ptr, ptr %this.addr, align 8
  %call = call noundef zeroext i1 @_ZNKSt14_Function_base8_M_emptyEv(ptr noundef nonnull align 8 dereferenceable(24) %this1)
  br i1 %call, label %if.then, label %if.end

if.then:                                          ; preds = %entry
  call void @_ZSt25__throw_bad_function_callv() #16
  unreachable

if.end:                                           ; preds = %entry
  %_M_invoker = getelementptr inbounds %"class.std::function.34", ptr %this1, i32 0, i32 1
  %0 = load ptr, ptr %_M_invoker, align 8
  %_M_functor = getelementptr inbounds %"class.std::_Function_base", ptr %this1, i32 0, i32 0
  call void %0(ptr noundef nonnull align 8 dereferenceable(16) %_M_functor, ptr noundef nonnull align 8 dereferenceable(8) %__args.addr)
  ret void
}

; Function Attrs: mustprogress nounwind uwtable
define void @_ZN8facebook5velox6memory14MemoryPoolImplD0Ev(ptr noundef nonnull align 8 dereferenceable(480) %this) unnamed_addr #3 align 2 {
entry:
  %this.addr = alloca ptr, align 8
  store ptr %this, ptr %this.addr, align 8
  %this1 = load ptr, ptr %this.addr, align 8
  call void @_ZN8facebook5velox6memory14MemoryPoolImplD1Ev(ptr noundef nonnull align 8 dereferenceable(480) %this1) #11
  call void @_ZdlPv(ptr noundef %this1) #17
  ret void
}

; Function Attrs: nobuiltin nounwind
declare void @_ZdlPv(ptr noundef) #6

; Function Attrs: mustprogress uwtable
define void @_ZNK8facebook5velox6memory14MemoryPoolImpl5statsEv(ptr noalias sret(%"struct.facebook::velox::memory::MemoryPool::Stats") align 8 %agg.result, ptr noundef nonnull align 8 dereferenceable(480) %this) unnamed_addr #0 align 2 personality ptr @__gxx_personality_v0 {
entry:
  %this.addr = alloca ptr, align 8
  %l = alloca %"class.std::lock_guard", align 8
  %exn.slot = alloca ptr, align 8
  %ehselector.slot = alloca i32, align 4
  store ptr %this, ptr %this.addr, align 8
  %this1 = load ptr, ptr %this.addr, align 8
  %mutex_ = getelementptr inbounds %"class.facebook::velox::memory::MemoryPoolImpl", ptr %this1, i32 0, i32 5
  call void @_ZNSt10lock_guardISt5mutexEC2ERS0_(ptr noundef nonnull align 8 dereferenceable(8) %l, ptr noundef nonnull align 8 dereferenceable(40) %mutex_)
  invoke void @_ZNK8facebook5velox6memory14MemoryPoolImpl11statsLockedEv(ptr sret(%"struct.facebook::velox::memory::MemoryPool::Stats") align 8 %agg.result, ptr noundef nonnull align 8 dereferenceable(480) %this1)
          to label %invoke.cont unwind label %lpad

invoke.cont:                                      ; preds = %entry
  call void @_ZNSt10lock_guardISt5mutexED2Ev(ptr noundef nonnull align 8 dereferenceable(8) %l) #11
  ret void

lpad:                                             ; preds = %entry
  %0 = landingpad { ptr, i32 }
          cleanup
  %1 = extractvalue { ptr, i32 } %0, 0
  store ptr %1, ptr %exn.slot, align 8
  %2 = extractvalue { ptr, i32 } %0, 1
  store i32 %2, ptr %ehselector.slot, align 4
  call void @_ZNSt10lock_guardISt5mutexED2Ev(ptr noundef nonnull align 8 dereferenceable(8) %l) #11
  br label %eh.resume

eh.resume:                                        ; preds = %lpad
  %exn = load ptr, ptr %exn.slot, align 8
  %sel = load i32, ptr %ehselector.slot, align 4
  %lpad.val = insertvalue { ptr, i32 } poison, ptr %exn, 0
  %lpad.val2 = insertvalue { ptr, i32 } %lpad.val, i32 %sel, 1
  resume { ptr, i32 } %lpad.val2
}

; Function Attrs: mustprogress uwtable
define linkonce_odr void @_ZNSt10lock_guardISt5mutexEC2ERS0_(ptr noundef nonnull align 8 dereferenceable(8) %this, ptr noundef nonnull align 8 dereferenceable(40) %__m) unnamed_addr #0 comdat align 2 {
entry:
  %this.addr = alloca ptr, align 8
  %__m.addr = alloca ptr, align 8
  store ptr %this, ptr %this.addr, align 8
  store ptr %__m, ptr %__m.addr, align 8
  %this1 = load ptr, ptr %this.addr, align 8
  %_M_device = getelementptr inbounds %"class.std::lock_guard", ptr %this1, i32 0, i32 0
  %0 = load ptr, ptr %__m.addr, align 8
  store ptr %0, ptr %_M_device, align 8
  %_M_device2 = getelementptr inbounds %"class.std::lock_guard", ptr %this1, i32 0, i32 0
  %1 = load ptr, ptr %_M_device2, align 8
  call void @_ZNSt5mutex4lockEv(ptr noundef nonnull align 8 dereferenceable(40) %1)
  ret void
}

; Function Attrs: mustprogress uwtable
define void @_ZNK8facebook5velox6memory14MemoryPoolImpl11statsLockedEv(ptr noalias sret(%"struct.facebook::velox::memory::MemoryPool::Stats") align 8 %agg.result, ptr noundef nonnull align 8 dereferenceable(480) %this) #0 align 2 {
entry:
  %this.addr.i.i = alloca ptr, align 8
  %this.addr.i = alloca ptr, align 8
  %this.addr = alloca ptr, align 8
  store ptr %this, ptr %this.addr, align 8
  %this1 = load ptr, ptr %this.addr, align 8
  call void @_ZN8facebook5velox6memory10MemoryPool5StatsC2Ev(ptr noundef nonnull align 8 dereferenceable(88) %agg.result) #11
  store ptr %this1, ptr %this.addr.i, align 8
  %this1.i = load ptr, ptr %this.addr.i, align 8
  store ptr %this1.i, ptr %this.addr.i.i, align 8
  %this1.i.i = load ptr, ptr %this.addr.i.i, align 8
  %kind_.i.i = getelementptr inbounds %"class.facebook::velox::memory::MemoryPool", ptr %this1.i.i, i32 0, i32 3
  %0 = load i32, ptr %kind_.i.i, align 8
  %cmp.i.i = icmp eq i32 %0, 0
  br i1 %cmp.i.i, label %cond.true.i, label %cond.false.i

cond.true.i:                                      ; preds = %entry
  %usedReservationBytes_.i = getelementptr inbounds %"class.facebook::velox::memory::MemoryPoolImpl", ptr %this1.i, i32 0, i32 9
  %1 = load i64, ptr %usedReservationBytes_.i, align 8
  br label %_ZNK8facebook5velox6memory14MemoryPoolImpl18currentBytesLockedEv.exit

cond.false.i:                                     ; preds = %entry
  %reservationBytes_.i = getelementptr inbounds %"class.facebook::velox::memory::MemoryPoolImpl", ptr %this1.i, i32 0, i32 8
  %2 = load i64, ptr %reservationBytes_.i, align 8
  br label %_ZNK8facebook5velox6memory14MemoryPoolImpl18currentBytesLockedEv.exit

_ZNK8facebook5velox6memory14MemoryPoolImpl18currentBytesLockedEv.exit: ; preds = %cond.false.i, %cond.true.i
  %cond.i = phi i64 [ %1, %cond.true.i ], [ %2, %cond.false.i ]
  %currentBytes = getelementptr inbounds %"struct.facebook::velox::memory::MemoryPool::Stats", ptr %agg.result, i32 0, i32 0
  store i64 %cond.i, ptr %currentBytes, align 8
  %reservationBytes_ = getelementptr inbounds %"class.facebook::velox::memory::MemoryPoolImpl", ptr %this1, i32 0, i32 8
  %3 = load i64, ptr %reservationBytes_, align 8
  %reservedBytes = getelementptr inbounds %"struct.facebook::velox::memory::MemoryPool::Stats", ptr %agg.result, i32 0, i32 1
  store i64 %3, ptr %reservedBytes, align 8
  %peakBytes_ = getelementptr inbounds %"class.facebook::velox::memory::MemoryPoolImpl", ptr %this1, i32 0, i32 11
  %4 = load i64, ptr %peakBytes_, align 8
  %peakBytes = getelementptr inbounds %"struct.facebook::velox::memory::MemoryPool::Stats", ptr %agg.result, i32 0, i32 2
  store i64 %4, ptr %peakBytes, align 8
  %cumulativeBytes_ = getelementptr inbounds %"class.facebook::velox::memory::MemoryPoolImpl", ptr %this1, i32 0, i32 12
  %5 = load i64, ptr %cumulativeBytes_, align 8
  %cumulativeBytes = getelementptr inbounds %"struct.facebook::velox::memory::MemoryPool::Stats", ptr %agg.result, i32 0, i32 3
  store i64 %5, ptr %cumulativeBytes, align 8
  %numAllocs_ = getelementptr inbounds %"class.facebook::velox::memory::MemoryPoolImpl", ptr %this1, i32 0, i32 13
  %call2 = call noundef i64 @_ZNKSt13__atomic_baseImEcvmEv(ptr noundef nonnull align 8 dereferenceable(8) %numAllocs_) #11
  %numAllocs = getelementptr inbounds %"struct.facebook::velox::memory::MemoryPool::Stats", ptr %agg.result, i32 0, i32 4
  store i64 %call2, ptr %numAllocs, align 8
  %numFrees_ = getelementptr inbounds %"class.facebook::velox::memory::MemoryPoolImpl", ptr %this1, i32 0, i32 14
  %call3 = call noundef i64 @_ZNKSt13__atomic_baseImEcvmEv(ptr noundef nonnull align 8 dereferenceable(8) %numFrees_) #11
  %numFrees = getelementptr inbounds %"struct.facebook::velox::memory::MemoryPool::Stats", ptr %agg.result, i32 0, i32 5
  store i64 %call3, ptr %numFrees, align 8
  %numReserves_ = getelementptr inbounds %"class.facebook::velox::memory::MemoryPoolImpl", ptr %this1, i32 0, i32 15
  %call4 = call noundef i64 @_ZNKSt13__atomic_baseImEcvmEv(ptr noundef nonnull align 8 dereferenceable(8) %numReserves_) #11
  %numReserves = getelementptr inbounds %"struct.facebook::velox::memory::MemoryPool::Stats", ptr %agg.result, i32 0, i32 6
  store i64 %call4, ptr %numReserves, align 8
  %numReleases_ = getelementptr inbounds %"class.facebook::velox::memory::MemoryPoolImpl", ptr %this1, i32 0, i32 16
  %call5 = call noundef i64 @_ZNKSt13__atomic_baseImEcvmEv(ptr noundef nonnull align 8 dereferenceable(8) %numReleases_) #11
  %numReleases = getelementptr inbounds %"struct.facebook::velox::memory::MemoryPool::Stats", ptr %agg.result, i32 0, i32 7
  store i64 %call5, ptr %numReleases, align 8
  %numCollisions_ = getelementptr inbounds %"class.facebook::velox::memory::MemoryPoolImpl", ptr %this1, i32 0, i32 17
  %call6 = call noundef i64 @_ZNKSt13__atomic_baseImEcvmEv(ptr noundef nonnull align 8 dereferenceable(8) %numCollisions_) #11
  %numCollisions = getelementptr inbounds %"struct.facebook::velox::memory::MemoryPool::Stats", ptr %agg.result, i32 0, i32 10
  store i64 %call6, ptr %numCollisions, align 8
  ret void
}

; Function Attrs: mustprogress nounwind uwtable
define linkonce_odr void @_ZNSt10lock_guardISt5mutexED2Ev(ptr noundef nonnull align 8 dereferenceable(8) %this) unnamed_addr #3 comdat align 2 personality ptr @__gxx_personality_v0 {
entry:
  %this.addr = alloca ptr, align 8
  store ptr %this, ptr %this.addr, align 8
  %this1 = load ptr, ptr %this.addr, align 8
  %_M_device = getelementptr inbounds %"class.std::lock_guard", ptr %this1, i32 0, i32 0
  %0 = load ptr, ptr %_M_device, align 8
  invoke void @_ZNSt5mutex6unlockEv(ptr noundef nonnull align 8 dereferenceable(40) %0)
          to label %invoke.cont unwind label %terminate.lpad

invoke.cont:                                      ; preds = %entry
  ret void

terminate.lpad:                                   ; preds = %entry
  %1 = landingpad { ptr, i32 }
          catch ptr null
  %2 = extractvalue { ptr, i32 } %1, 0
  call void @__clang_call_terminate(ptr %2) #15
  unreachable
}

; Function Attrs: mustprogress nounwind uwtable
define linkonce_odr void @_ZN8facebook5velox6memory10MemoryPool5StatsC2Ev(ptr noundef nonnull align 8 dereferenceable(88) %this) unnamed_addr #3 comdat align 2 {
entry:
  %this.addr = alloca ptr, align 8
  store ptr %this, ptr %this.addr, align 8
  %this1 = load ptr, ptr %this.addr, align 8
  %currentBytes = getelementptr inbounds %"struct.facebook::velox::memory::MemoryPool::Stats", ptr %this1, i32 0, i32 0
  store i64 0, ptr %currentBytes, align 8
  %reservedBytes = getelementptr inbounds %"struct.facebook::velox::memory::MemoryPool::Stats", ptr %this1, i32 0, i32 1
  store i64 0, ptr %reservedBytes, align 8
  %peakBytes = getelementptr inbounds %"struct.facebook::velox::memory::MemoryPool::Stats", ptr %this1, i32 0, i32 2
  store i64 0, ptr %peakBytes, align 8
  %cumulativeBytes = getelementptr inbounds %"struct.facebook::velox::memory::MemoryPool::Stats", ptr %this1, i32 0, i32 3
  store i64 0, ptr %cumulativeBytes, align 8
  %numAllocs = getelementptr inbounds %"struct.facebook::velox::memory::MemoryPool::Stats", ptr %this1, i32 0, i32 4
  store i64 0, ptr %numAllocs, align 8
  %numFrees = getelementptr inbounds %"struct.facebook::velox::memory::MemoryPool::Stats", ptr %this1, i32 0, i32 5
  store i64 0, ptr %numFrees, align 8
  %numReserves = getelementptr inbounds %"struct.facebook::velox::memory::MemoryPool::Stats", ptr %this1, i32 0, i32 6
  store i64 0, ptr %numReserves, align 8
  %numReleases = getelementptr inbounds %"struct.facebook::velox::memory::MemoryPool::Stats", ptr %this1, i32 0, i32 7
  store i64 0, ptr %numReleases, align 8
  %numShrinks = getelementptr inbounds %"struct.facebook::velox::memory::MemoryPool::Stats", ptr %this1, i32 0, i32 8
  store i64 0, ptr %numShrinks, align 8
  %numReclaims = getelementptr inbounds %"struct.facebook::velox::memory::MemoryPool::Stats", ptr %this1, i32 0, i32 9
  store i64 0, ptr %numReclaims, align 8
  %numCollisions = getelementptr inbounds %"struct.facebook::velox::memory::MemoryPool::Stats", ptr %this1, i32 0, i32 10
  store i64 0, ptr %numCollisions, align 8
  ret void
}

; Function Attrs: mustprogress nounwind uwtable
define linkonce_odr noundef i64 @_ZNKSt13__atomic_baseImEcvmEv(ptr noundef nonnull align 8 dereferenceable(8) %this) #3 comdat align 2 {
entry:
  %this.addr.i = alloca ptr, align 8
  %__m.addr.i = alloca i32, align 4
  %__b.i = alloca i32, align 4
  %atomic-temp.i = alloca i64, align 8
  %this.addr = alloca ptr, align 8
  store ptr %this, ptr %this.addr, align 8
  %this1 = load ptr, ptr %this.addr, align 8
  store ptr %this1, ptr %this.addr.i, align 8
  store i32 5, ptr %__m.addr.i, align 4
  %this1.i = load ptr, ptr %this.addr.i, align 8
  %0 = load i32, ptr %__m.addr.i, align 4
  %call.i = call noundef i32 @_ZStanSt12memory_orderSt23__memory_order_modifier(i32 noundef %0, i32 noundef 65535)
  store i32 %call.i, ptr %__b.i, align 4
  %1 = load i32, ptr %__m.addr.i, align 4
  switch i32 %1, label %monotonic.i [
    i32 1, label %acquire.i
    i32 2, label %acquire.i
    i32 5, label %seqcst.i
  ]

monotonic.i:                                      ; preds = %entry
  %2 = load atomic i64, ptr %this1.i monotonic, align 8
  store i64 %2, ptr %atomic-temp.i, align 8
  br label %_ZNKSt13__atomic_baseImE4loadESt12memory_order.exit

acquire.i:                                        ; preds = %entry, %entry
  %3 = load atomic i64, ptr %this1.i acquire, align 8
  store i64 %3, ptr %atomic-temp.i, align 8
  br label %_ZNKSt13__atomic_baseImE4loadESt12memory_order.exit

seqcst.i:                                         ; preds = %entry
  %4 = load atomic i64, ptr %this1.i seq_cst, align 8
  store i64 %4, ptr %atomic-temp.i, align 8
  br label %_ZNKSt13__atomic_baseImE4loadESt12memory_order.exit

_ZNKSt13__atomic_baseImE4loadESt12memory_order.exit: ; preds = %seqcst.i, %acquire.i, %monotonic.i
  %5 = load i64, ptr %atomic-temp.i, align 8
  ret i64 %5
}

; Function Attrs: mustprogress uwtable
define noundef ptr @_ZN8facebook5velox6memory14MemoryPoolImpl8allocateEl(ptr noundef nonnull align 8 dereferenceable(480) %this, i64 noundef %size) unnamed_addr #0 align 2 personality ptr @__gxx_personality_v0 {
entry:
  %.addr.i = alloca ptr, align 8
  %this.addr.i2.i = alloca ptr, align 8
  %desc.addr.i.i = alloca i64, align 8
  %values.addr.i.i = alloca ptr, align 8
  %this.addr.i.i = alloca ptr, align 8
  %this.addr.i31 = alloca ptr, align 8
  %store.addr.i = alloca ptr, align 8
  %retval.i = alloca %"class.fmt::v8::basic_string_view", align 8
  %this.addr.i29 = alloca ptr, align 8
  %this.addr.i25 = alloca ptr, align 8
  %s.addr.i26 = alloca ptr, align 8
  %this.addr.i23 = alloca ptr, align 8
  %s.addr.i = alloca ptr, align 8
  %result.ptr.i = alloca ptr, align 8
  %fmt.i = alloca %"class.fmt::v8::basic_format_string.81", align 8
  %args.addr.i = alloca ptr, align 8
  %args.addr2.i = alloca ptr, align 8
  %args.addr4.i = alloca ptr, align 8
  %args.addr6.i = alloca ptr, align 8
  %agg.tmp.i = alloca %"class.fmt::v8::basic_string_view", align 8
  %agg.tmp7.i = alloca %"class.fmt::v8::basic_format_args", align 8
  %ref.tmp.i = alloca %"class.fmt::v8::format_arg_store.149", align 16
  %this.addr.i = alloca ptr, align 8
  %size.addr.i = alloca i64, align 8
  %remainder.i = alloca i64, align 8
  %this.addr = alloca ptr, align 8
  %size.addr = alloca i64, align 8
  %alignedSize = alloca i64, align 8
  %buffer = alloca ptr, align 8
  %ref.tmp = alloca %"class.std::__cxx11::basic_string", align 8
  %agg.tmp = alloca %"class.fmt::v8::basic_format_string.81", align 8
  %ref.tmp6 = alloca %"class.std::__cxx11::basic_string", align 8
  %ref.tmp7 = alloca %"class.std::__cxx11::basic_string", align 8
  %exn.slot = alloca ptr, align 8
  %ehselector.slot = alloca i32, align 4
  %ref.tmp8 = alloca %"class.std::__cxx11::basic_string", align 8
  store ptr %this, ptr %this.addr, align 8
  store i64 %size, ptr %size.addr, align 8
  %this1 = load ptr, ptr %this.addr, align 8
  br label %do.body

do.body:                                          ; preds = %entry
  %kind_ = getelementptr inbounds %"class.facebook::velox::memory::MemoryPool", ptr %this1, i32 0, i32 3
  %0 = load i32, ptr %kind_, align 8
  %cmp = icmp ne i32 %0, 0
  br i1 %cmp, label %if.then, label %if.end

if.then:                                          ; preds = %do.body
  call void @llvm.trap()
  br label %if.end

if.end:                                           ; preds = %if.then, %do.body
  %numAllocs_ = getelementptr inbounds %"class.facebook::velox::memory::MemoryPoolImpl", ptr %this1, i32 0, i32 13
  %call = call noundef i64 @_ZNSt13__atomic_baseImEppEv(ptr noundef nonnull align 8 dereferenceable(8) %numAllocs_) #11
  br label %do.end

do.end:                                           ; preds = %if.end
  %1 = load i64, ptr %size.addr, align 8
  store ptr %this1, ptr %this.addr.i, align 8
  store i64 %1, ptr %size.addr.i, align 8
  %this1.i = load ptr, ptr %this.addr.i, align 8
  %2 = load i64, ptr %size.addr.i, align 8
  %alignment_.i = getelementptr inbounds %"class.facebook::velox::memory::MemoryPool", ptr %this1.i, i32 0, i32 4
  %3 = load i16, ptr %alignment_.i, align 4
  %conv.i = zext i16 %3 to i64
  %rem.i = srem i64 %2, %conv.i
  store i64 %rem.i, ptr %remainder.i, align 8
  %4 = load i64, ptr %remainder.i, align 8
  %cmp.i = icmp eq i64 %4, 0
  br i1 %cmp.i, label %cond.true.i, label %cond.false.i

cond.true.i:                                      ; preds = %do.end
  %5 = load i64, ptr %size.addr.i, align 8
  br label %_ZN8facebook5velox6memory14MemoryPoolImpl9sizeAlignEl.exit

cond.false.i:                                     ; preds = %do.end
  %6 = load i64, ptr %size.addr.i, align 8
  %alignment_2.i = getelementptr inbounds %"class.facebook::velox::memory::MemoryPool", ptr %this1.i, i32 0, i32 4
  %7 = load i16, ptr %alignment_2.i, align 4
  %conv3.i = zext i16 %7 to i64
  %add.i = add nsw i64 %6, %conv3.i
  %8 = load i64, ptr %remainder.i, align 8
  %sub.i = sub nsw i64 %add.i, %8
  br label %_ZN8facebook5velox6memory14MemoryPoolImpl9sizeAlignEl.exit

_ZN8facebook5velox6memory14MemoryPoolImpl9sizeAlignEl.exit: ; preds = %cond.false.i, %cond.true.i
  %cond.i = phi i64 [ %5, %cond.true.i ], [ %sub.i, %cond.false.i ]
  store i64 %cond.i, ptr %alignedSize, align 8
  %9 = load i64, ptr %alignedSize, align 8
  call void @_ZN8facebook5velox6memory14MemoryPoolImpl7reserveEmb(ptr noundef nonnull align 8 dereferenceable(480) %this1, i64 noundef %9, i1 noundef zeroext false)
  %allocator_ = getelementptr inbounds %"class.facebook::velox::memory::MemoryPoolImpl", ptr %this1, i32 0, i32 2
  %10 = load ptr, ptr %allocator_, align 8
  %11 = load i64, ptr %alignedSize, align 8
  %alignment_ = getelementptr inbounds %"class.facebook::velox::memory::MemoryPool", ptr %this1, i32 0, i32 4
  %12 = load i16, ptr %alignment_, align 4
  %call3 = call noundef ptr @_ZN8facebook5velox6memory15MemoryAllocator13allocateBytesEmt(ptr noundef nonnull align 8 dereferenceable(880) %10, i64 noundef %11, i16 noundef zeroext %12)
  store ptr %call3, ptr %buffer, align 8
  %13 = load ptr, ptr %buffer, align 8
  %cmp4 = icmp eq ptr %13, null
  br i1 %cmp4, label %if.then5, label %if.end18

if.then5:                                         ; preds = %_ZN8facebook5velox6memory14MemoryPoolImpl9sizeAlignEl.exit
  %14 = load i64, ptr %alignedSize, align 8
  call void @_ZN8facebook5velox6memory14MemoryPoolImpl7releaseEmb(ptr noundef nonnull align 8 dereferenceable(480) %this1, i64 noundef %14, i1 noundef zeroext false)
  store ptr %agg.tmp, ptr %this.addr.i23, align 8
  store ptr @.str.5, ptr %s.addr.i, align 8
  %this1.i24 = load ptr, ptr %this.addr.i23, align 8
  %15 = load ptr, ptr %s.addr.i, align 8
  store ptr %this1.i24, ptr %this.addr.i25, align 8
  store ptr %15, ptr %s.addr.i26, align 8
  %this1.i27 = load ptr, ptr %this.addr.i25, align 8
  %16 = load ptr, ptr %s.addr.i26, align 8
  store ptr %16, ptr %this1.i27, align 8
  %size_.i = getelementptr inbounds %"class.fmt::v8::basic_string_view", ptr %this1.i27, i32 0, i32 1
  %17 = load ptr, ptr %s.addr.i26, align 8
  %call.i28 = call noundef i64 @_ZNSt11char_traitsIcE6lengthEPKc(ptr noundef %17)
  store i64 %call.i28, ptr %size_.i, align 8
  %18 = load ptr, ptr %s.addr.i, align 8
  store ptr %18, ptr %.addr.i, align 8
  %19 = load i64, ptr %size.addr, align 8
  call void @_ZN8facebook5velox13succinctBytesB5cxx11Emi(ptr sret(%"class.std::__cxx11::basic_string") align 8 %ref.tmp6, i64 noundef %19, i32 noundef 2)
  %vtable = load ptr, ptr %this1, align 8
  %vfn = getelementptr inbounds ptr, ptr %vtable, i64 46
  %20 = load ptr, ptr %vfn, align 8
  invoke void %20(ptr sret(%"class.std::__cxx11::basic_string") align 8 %ref.tmp7, ptr noundef nonnull align 8 dereferenceable(480) %this1)
          to label %invoke.cont unwind label %lpad

invoke.cont:                                      ; preds = %if.then5
  %allocator_9 = getelementptr inbounds %"class.facebook::velox::memory::MemoryPoolImpl", ptr %this1, i32 0, i32 2
  %21 = load ptr, ptr %allocator_9, align 8
  invoke void @_ZN8facebook5velox6memory15MemoryAllocator25getAndClearFailureMessageB5cxx11Ev(ptr sret(%"class.std::__cxx11::basic_string") align 8 %ref.tmp8, ptr noundef nonnull align 8 dereferenceable(880) %21)
          to label %invoke.cont11 unwind label %lpad10

invoke.cont11:                                    ; preds = %invoke.cont
  %22 = getelementptr inbounds { ptr, i64 }, ptr %agg.tmp, i32 0, i32 0
  %23 = load ptr, ptr %22, align 8
  %24 = getelementptr inbounds { ptr, i64 }, ptr %agg.tmp, i32 0, i32 1
  %25 = load i64, ptr %24, align 8
  call void @llvm.experimental.noalias.scope.decl(metadata !13)
  store ptr %ref.tmp, ptr %result.ptr.i, align 8, !noalias !13
  store ptr %23, ptr %fmt.i, align 8, !noalias !13
  %26 = getelementptr inbounds { ptr, i64 }, ptr %fmt.i, i32 0, i32 1
  store i64 %25, ptr %26, align 8, !noalias !13
  store ptr @__FUNCTION__._ZN8facebook5velox6memory14MemoryPoolImpl8allocateEl, ptr %args.addr.i, align 8, !noalias !13
  store ptr %ref.tmp6, ptr %args.addr2.i, align 8, !noalias !13
  store ptr %ref.tmp7, ptr %args.addr4.i, align 8, !noalias !13
  store ptr %ref.tmp8, ptr %args.addr6.i, align 8, !noalias !13
  store ptr %fmt.i, ptr %this.addr.i29, align 8
  %this1.i30 = load ptr, ptr %this.addr.i29, align 8
  call void @llvm.memcpy.p0.p0.i64(ptr align 8 %retval.i, ptr align 8 %this1.i30, i64 16, i1 false)
  %27 = load { ptr, i64 }, ptr %retval.i, align 8
  %28 = extractvalue { ptr, i64 } %27, 0
  store ptr %28, ptr %agg.tmp.i, align 8, !noalias !13
  %29 = getelementptr inbounds { ptr, i64 }, ptr %agg.tmp.i, i32 0, i32 1
  %30 = extractvalue { ptr, i64 } %27, 1
  store i64 %30, ptr %29, align 8, !noalias !13
  %31 = load ptr, ptr %args.addr.i, align 8, !noalias !13
  %32 = load ptr, ptr %args.addr2.i, align 8, !noalias !13
  %33 = load ptr, ptr %args.addr4.i, align 8, !noalias !13
  %34 = load ptr, ptr %args.addr6.i, align 8, !noalias !13
  invoke void @_ZN3fmt2v816make_format_argsINS0_20basic_format_contextINS0_8appenderEcEEJRA9_KcRNSt7__cxx1112basic_stringIcSt11char_traitsIcESaIcEEESE_SE_EEENS0_16format_arg_storeIT_JDpNSt9remove_cvINSt16remove_referenceIT0_E4typeEE4typeEEEEDpOSJ_(ptr sret(%"class.fmt::v8::format_arg_store.149") align 16 %ref.tmp.i, ptr noundef nonnull align 1 dereferenceable(9) %31, ptr noundef nonnull align 8 dereferenceable(32) %32, ptr noundef nonnull align 8 dereferenceable(32) %33, ptr noundef nonnull align 8 dereferenceable(32) %34)
          to label %.noexc unwind label %lpad12

.noexc:                                           ; preds = %invoke.cont11
  store ptr %agg.tmp7.i, ptr %this.addr.i31, align 8
  store ptr %ref.tmp.i, ptr %store.addr.i, align 8
  %this1.i32 = load ptr, ptr %this.addr.i31, align 8
  %35 = load ptr, ptr %store.addr.i, align 8
  store ptr %35, ptr %this.addr.i.i, align 8
  %this1.i.i = load ptr, ptr %this.addr.i.i, align 8
  store ptr %this1.i32, ptr %this.addr.i2.i, align 8
  store i64 56796, ptr %desc.addr.i.i, align 8
  store ptr %this1.i.i, ptr %values.addr.i.i, align 8
  %this1.i3.i = load ptr, ptr %this.addr.i2.i, align 8
  %36 = load i64, ptr %desc.addr.i.i, align 8
  store i64 %36, ptr %this1.i3.i, align 8
  %37 = getelementptr inbounds %"class.fmt::v8::basic_format_args", ptr %this1.i3.i, i32 0, i32 1
  %38 = load ptr, ptr %values.addr.i.i, align 8
  store ptr %38, ptr %37, align 8
  %39 = load ptr, ptr %agg.tmp.i, align 8, !noalias !13
  %40 = getelementptr inbounds { ptr, i64 }, ptr %agg.tmp.i, i32 0, i32 1
  %41 = load i64, ptr %40, align 8, !noalias !13
  %42 = load i64, ptr %agg.tmp7.i, align 8, !noalias !13
  %43 = getelementptr inbounds { i64, ptr }, ptr %agg.tmp7.i, i32 0, i32 1
  %44 = load ptr, ptr %43, align 8, !noalias !13
  invoke void @_ZN3fmt2v87vformatB5cxx11ENS0_17basic_string_viewIcEENS0_17basic_format_argsINS0_20basic_format_contextINS0_8appenderEcEEEE(ptr sret(%"class.std::__cxx11::basic_string") align 8 %ref.tmp, ptr %39, i64 %41, i64 %42, ptr %44)
          to label %_ZN3fmt2v86formatIJRA9_KcNSt7__cxx1112basic_stringIcSt11char_traitsIcESaIcEEESA_SA_EEESA_NS0_19basic_format_stringIcJDpNS0_13type_identityIT_E4typeEEEEDpOSD_.exit unwind label %lpad12

_ZN3fmt2v86formatIJRA9_KcNSt7__cxx1112basic_stringIcSt11char_traitsIcESaIcEEESA_SA_EEESA_NS0_19basic_format_stringIcJDpNS0_13type_identityIT_E4typeEEEEDpOSD_.exit: ; preds = %.noexc
  br label %invoke.cont13

invoke.cont13:                                    ; preds = %_ZN3fmt2v86formatIJRA9_KcNSt7__cxx1112basic_stringIcSt11char_traitsIcESaIcEEESA_SA_EEESA_NS0_19basic_format_stringIcJDpNS0_13type_identityIT_E4typeEEEEDpOSD_.exit
  invoke void @_ZN8facebook5velox6memory14MemoryPoolImpl23handleAllocationFailureERKNSt7__cxx1112basic_stringIcSt11char_traitsIcESaIcEEE(ptr noundef nonnull align 8 dereferenceable(480) %this1, ptr noundef nonnull align 8 dereferenceable(32) %ref.tmp)
          to label %invoke.cont15 unwind label %lpad14

invoke.cont15:                                    ; preds = %invoke.cont13
  call void @_ZNSt7__cxx1112basic_stringIcSt11char_traitsIcESaIcEED1Ev(ptr noundef nonnull align 8 dereferenceable(32) %ref.tmp) #11
  call void @_ZNSt7__cxx1112basic_stringIcSt11char_traitsIcESaIcEED1Ev(ptr noundef nonnull align 8 dereferenceable(32) %ref.tmp8) #11
  call void @_ZNSt7__cxx1112basic_stringIcSt11char_traitsIcESaIcEED1Ev(ptr noundef nonnull align 8 dereferenceable(32) %ref.tmp7) #11
  call void @_ZNSt7__cxx1112basic_stringIcSt11char_traitsIcESaIcEED1Ev(ptr noundef nonnull align 8 dereferenceable(32) %ref.tmp6) #11
  br label %if.end18

lpad:                                             ; preds = %if.then5
  %45 = landingpad { ptr, i32 }
          cleanup
  %46 = extractvalue { ptr, i32 } %45, 0
  store ptr %46, ptr %exn.slot, align 8
  %47 = extractvalue { ptr, i32 } %45, 1
  store i32 %47, ptr %ehselector.slot, align 4
  br label %ehcleanup17

lpad10:                                           ; preds = %invoke.cont
  %48 = landingpad { ptr, i32 }
          cleanup
  %49 = extractvalue { ptr, i32 } %48, 0
  store ptr %49, ptr %exn.slot, align 8
  %50 = extractvalue { ptr, i32 } %48, 1
  store i32 %50, ptr %ehselector.slot, align 4
  br label %ehcleanup16

lpad12:                                           ; preds = %.noexc, %invoke.cont11
  %51 = landingpad { ptr, i32 }
          cleanup
  %52 = extractvalue { ptr, i32 } %51, 0
  store ptr %52, ptr %exn.slot, align 8
  %53 = extractvalue { ptr, i32 } %51, 1
  store i32 %53, ptr %ehselector.slot, align 4
  br label %ehcleanup

lpad14:                                           ; preds = %invoke.cont13
  %54 = landingpad { ptr, i32 }
          cleanup
  %55 = extractvalue { ptr, i32 } %54, 0
  store ptr %55, ptr %exn.slot, align 8
  %56 = extractvalue { ptr, i32 } %54, 1
  store i32 %56, ptr %ehselector.slot, align 4
  call void @_ZNSt7__cxx1112basic_stringIcSt11char_traitsIcESaIcEED1Ev(ptr noundef nonnull align 8 dereferenceable(32) %ref.tmp) #11
  br label %ehcleanup

ehcleanup:                                        ; preds = %lpad14, %lpad12
  call void @_ZNSt7__cxx1112basic_stringIcSt11char_traitsIcESaIcEED1Ev(ptr noundef nonnull align 8 dereferenceable(32) %ref.tmp8) #11
  br label %ehcleanup16

ehcleanup16:                                      ; preds = %ehcleanup, %lpad10
  call void @_ZNSt7__cxx1112basic_stringIcSt11char_traitsIcESaIcEED1Ev(ptr noundef nonnull align 8 dereferenceable(32) %ref.tmp7) #11
  br label %ehcleanup17

ehcleanup17:                                      ; preds = %ehcleanup16, %lpad
  call void @_ZNSt7__cxx1112basic_stringIcSt11char_traitsIcESaIcEED1Ev(ptr noundef nonnull align 8 dereferenceable(32) %ref.tmp6) #11
  br label %eh.resume

if.end18:                                         ; preds = %invoke.cont15, %_ZN8facebook5velox6memory14MemoryPoolImpl9sizeAlignEl.exit
  %debugEnabled_ = getelementptr inbounds %"class.facebook::velox::memory::MemoryPool", ptr %this1, i32 0, i32 10
  %57 = load i8, ptr %debugEnabled_, align 1
  %tobool = trunc i8 %57 to i1
  br i1 %tobool, label %if.then19, label %if.end20

if.then19:                                        ; preds = %if.end18
  %58 = load ptr, ptr %buffer, align 8
  %59 = load i64, ptr %size.addr, align 8
  call void @_ZN8facebook5velox6memory14MemoryPoolImpl14recordAllocDbgEPKvm(ptr noundef nonnull align 8 dereferenceable(480) %this1, ptr noundef %58, i64 noundef %59)
  br label %if.end20

if.end20:                                         ; preds = %if.then19, %if.end18
  %60 = load ptr, ptr %buffer, align 8
  ret ptr %60

eh.resume:                                        ; preds = %ehcleanup17
  %exn = load ptr, ptr %exn.slot, align 8
  %sel = load i32, ptr %ehselector.slot, align 4
  %lpad.val = insertvalue { ptr, i32 } poison, ptr %exn, 0
  %lpad.val21 = insertvalue { ptr, i32 } %lpad.val, i32 %sel, 1
  resume { ptr, i32 } %lpad.val21
}

; Function Attrs: mustprogress nounwind uwtable
define linkonce_odr noundef i64 @_ZNSt13__atomic_baseImEppEv(ptr noundef nonnull align 8 dereferenceable(8) %this) #3 comdat align 2 {
entry:
  %this.addr = alloca ptr, align 8
  %.atomictmp = alloca i64, align 8
  %atomic-temp = alloca i64, align 8
  store ptr %this, ptr %this.addr, align 8
  %this1 = load ptr, ptr %this.addr, align 8
  %_M_i = getelementptr inbounds %"struct.std::__atomic_base.38", ptr %this1, i32 0, i32 0
  store i64 1, ptr %.atomictmp, align 8
  %0 = load i64, ptr %.atomictmp, align 8
  %1 = atomicrmw add ptr %_M_i, i64 %0 seq_cst, align 8
  %2 = add i64 %1, %0
  store i64 %2, ptr %atomic-temp, align 8
  %3 = load i64, ptr %atomic-temp, align 8
  ret i64 %3
}

; Function Attrs: mustprogress uwtable
define void @_ZN8facebook5velox6memory14MemoryPoolImpl7reserveEmb(ptr noundef nonnull align 8 dereferenceable(480) %this, i64 noundef %size, i1 noundef zeroext %reserveOnly) #0 align 2 {
entry:
  %retval.i.i = alloca i64, align 8
  %size.addr.i.i = alloca i64, align 8
  %size.addr.i45 = alloca i64, align 8
  %delta.addr.i = alloca i64, align 8
  %pool.addr.i.i = alloca ptr, align 8
  %this.addr.i.i30 = alloca ptr, align 8
  %retval.i31 = alloca i1, align 1
  %this.addr.i32 = alloca ptr, align 8
  %requestor.addr.i = alloca ptr, align 8
  %size.addr.i33 = alloca i64, align 8
  %this.addr.i22 = alloca ptr, align 8
  %this.addr.i19 = alloca ptr, align 8
  %newPeak.addr.i = alloca i64, align 8
  %retval.i = alloca i64, align 8
  %this.addr.i10 = alloca ptr, align 8
  %size.addr.i11 = alloca i64, align 8
  %neededSize.i = alloca i64, align 8
  %this.addr.i.i = alloca ptr, align 8
  %this.addr.i = alloca ptr, align 8
  %size.addr.i = alloca i64, align 8
  %reserveOnly.addr.i = alloca i8, align 1
  %numAttempts.i = alloca i32, align 4
  %increment.i = alloca i64, align 8
  %this.addr = alloca ptr, align 8
  %size.addr = alloca i64, align 8
  %reserveOnly.addr = alloca i8, align 1
  store ptr %this, ptr %this.addr, align 8
  store i64 %size, ptr %size.addr, align 8
  %frombool = zext i1 %reserveOnly to i8
  store i8 %frombool, ptr %reserveOnly.addr, align 1
  %this1 = load ptr, ptr %this.addr, align 8
  %trackUsage_ = getelementptr inbounds %"class.facebook::velox::memory::MemoryPool", ptr %this1, i32 0, i32 7
  %0 = load i8, ptr %trackUsage_, align 8
  %tobool = trunc i8 %0 to i1
  br i1 %tobool, label %if.then, label %if.end6

if.then:                                          ; preds = %entry
  %threadSafe_ = getelementptr inbounds %"class.facebook::velox::memory::MemoryPool", ptr %this1, i32 0, i32 8
  %1 = load i8, ptr %threadSafe_, align 1
  %tobool2 = trunc i8 %1 to i1
  br i1 %tobool2, label %if.then3, label %if.else

if.then3:                                         ; preds = %if.then
  %2 = load i64, ptr %size.addr, align 8
  %3 = load i8, ptr %reserveOnly.addr, align 1
  %tobool4 = trunc i8 %3 to i1
  call void @_ZN8facebook5velox6memory14MemoryPoolImpl17reserveThreadSafeEmb(ptr noundef nonnull align 8 dereferenceable(480) %this1, i64 noundef %2, i1 noundef zeroext %tobool4)
  br label %if.end

if.else:                                          ; preds = %if.then
  %4 = load i64, ptr %size.addr, align 8
  %5 = load i8, ptr %reserveOnly.addr, align 1
  %tobool5 = trunc i8 %5 to i1
  store ptr %this1, ptr %this.addr.i, align 8
  store i64 %4, ptr %size.addr.i, align 8
  %frombool.i = zext i1 %tobool5 to i8
  store i8 %frombool.i, ptr %reserveOnly.addr.i, align 1
  %this1.i = load ptr, ptr %this.addr.i, align 8
  store ptr %this1.i, ptr %this.addr.i.i, align 8
  %this1.i.i = load ptr, ptr %this.addr.i.i, align 8
  %kind_.i.i = getelementptr inbounds %"class.facebook::velox::memory::MemoryPool", ptr %this1.i.i, i32 0, i32 3
  %6 = load i32, ptr %kind_.i.i, align 8
  %cmp.i.i = icmp eq i32 %6, 0
  %lnot.i = xor i1 %cmp.i.i, true
  br i1 %lnot.i, label %if.then.i, label %if.end.i

if.then.i:                                        ; preds = %if.else
  call void @llvm.trap()
  br label %if.end.i

if.end.i:                                         ; preds = %if.then.i, %if.else
  store i32 0, ptr %numAttempts.i, align 4
  br label %for.cond.i

for.cond.i:                                       ; preds = %_ZN8facebook5velox6memory14MemoryPoolImpl33incrementReservationNonThreadSafeEPNS1_10MemoryPoolEm.exit, %if.end.i
  %7 = load i64, ptr %size.addr.i, align 8
  store ptr %this1.i, ptr %this.addr.i10, align 8
  store i64 %7, ptr %size.addr.i11, align 8
  %this1.i12 = load ptr, ptr %this.addr.i10, align 8
  %8 = load i64, ptr %size.addr.i11, align 8
  %reservationBytes_.i13 = getelementptr inbounds %"class.facebook::velox::memory::MemoryPoolImpl", ptr %this1.i12, i32 0, i32 8
  %9 = load i64, ptr %reservationBytes_.i13, align 8
  %usedReservationBytes_.i14 = getelementptr inbounds %"class.facebook::velox::memory::MemoryPoolImpl", ptr %this1.i12, i32 0, i32 9
  %10 = load i64, ptr %usedReservationBytes_.i14, align 8
  %sub.i15 = sub nsw i64 %9, %10
  %sub2.i = sub nsw i64 %8, %sub.i15
  store i64 %sub2.i, ptr %neededSize.i, align 8
  %11 = load i64, ptr %neededSize.i, align 8
  %cmp.i16 = icmp sle i64 %11, 0
  br i1 %cmp.i16, label %if.then.i18, label %if.end.i17

if.then.i18:                                      ; preds = %for.cond.i
  store i64 0, ptr %retval.i, align 8
  br label %_ZN8facebook5velox6memory14MemoryPoolImpl21reservationSizeLockedEl.exit

if.end.i17:                                       ; preds = %for.cond.i
  %reservationBytes_3.i = getelementptr inbounds %"class.facebook::velox::memory::MemoryPoolImpl", ptr %this1.i12, i32 0, i32 8
  %12 = load i64, ptr %reservationBytes_3.i, align 8
  %13 = load i64, ptr %neededSize.i, align 8
  store i64 %12, ptr %size.addr.i45, align 8
  store i64 %13, ptr %delta.addr.i, align 8
  %14 = load i64, ptr %size.addr.i45, align 8
  %15 = load i64, ptr %delta.addr.i, align 8
  %add.i46 = add nsw i64 %14, %15
  store i64 %add.i46, ptr %size.addr.i.i, align 8
  %16 = load i64, ptr %size.addr.i.i, align 8
  %cmp.i.i47 = icmp ult i64 %16, 16777216
  br i1 %cmp.i.i47, label %if.then.i.i, label %if.end.i.i

if.then.i.i:                                      ; preds = %if.end.i17
  %17 = load i64, ptr %size.addr.i.i, align 8
  %call.i.i49 = call noundef i64 @_ZN8facebook5velox4bits7roundUpImmEET_S3_T0_(i64 noundef %17, i64 noundef 1048576)
  store i64 %call.i.i49, ptr %retval.i.i, align 8
  br label %_ZN8facebook5velox6memory14MemoryPoolImpl12roundedDeltaEll.exit

if.end.i.i:                                       ; preds = %if.end.i17
  %18 = load i64, ptr %size.addr.i.i, align 8
  %cmp1.i.i = icmp ult i64 %18, 67108864
  br i1 %cmp1.i.i, label %if.then2.i.i, label %if.end4.i.i

if.then2.i.i:                                     ; preds = %if.end.i.i
  %19 = load i64, ptr %size.addr.i.i, align 8
  %call3.i.i = call noundef i64 @_ZN8facebook5velox4bits7roundUpImmEET_S3_T0_(i64 noundef %19, i64 noundef 4194304)
  store i64 %call3.i.i, ptr %retval.i.i, align 8
  br label %_ZN8facebook5velox6memory14MemoryPoolImpl12roundedDeltaEll.exit

if.end4.i.i:                                      ; preds = %if.end.i.i
  %20 = load i64, ptr %size.addr.i.i, align 8
  %call5.i.i = call noundef i64 @_ZN8facebook5velox4bits7roundUpImmEET_S3_T0_(i64 noundef %20, i64 noundef 8388608)
  store i64 %call5.i.i, ptr %retval.i.i, align 8
  br label %_ZN8facebook5velox6memory14MemoryPoolImpl12roundedDeltaEll.exit

_ZN8facebook5velox6memory14MemoryPoolImpl12roundedDeltaEll.exit: ; preds = %if.end4.i.i, %if.then2.i.i, %if.then.i.i
  %21 = load i64, ptr %retval.i.i, align 8
  %22 = load i64, ptr %size.addr.i45, align 8
  %sub.i48 = sub i64 %21, %22
  store i64 %sub.i48, ptr %retval.i, align 8
  br label %_ZN8facebook5velox6memory14MemoryPoolImpl21reservationSizeLockedEl.exit

_ZN8facebook5velox6memory14MemoryPoolImpl21reservationSizeLockedEl.exit: ; preds = %_ZN8facebook5velox6memory14MemoryPoolImpl12roundedDeltaEll.exit, %if.then.i18
  %23 = load i64, ptr %retval.i, align 8
  store i64 %23, ptr %increment.i, align 8
  %24 = load i64, ptr %increment.i, align 8
  %cmp.i = icmp eq i64 %24, 0
  br i1 %cmp.i, label %if.then3.i, label %if.end9.i

if.then3.i:                                       ; preds = %_ZN8facebook5velox6memory14MemoryPoolImpl21reservationSizeLockedEl.exit
  %25 = load i8, ptr %reserveOnly.addr.i, align 1
  %tobool.i = trunc i8 %25 to i1
  br i1 %tobool.i, label %if.then4.i, label %if.else.i

if.then4.i:                                       ; preds = %if.then3.i
  %reservationBytes_.i = getelementptr inbounds %"class.facebook::velox::memory::MemoryPoolImpl", ptr %this1.i, i32 0, i32 8
  %26 = load i64, ptr %reservationBytes_.i, align 8
  %call5.i = call noundef i64 @_ZN8facebook5velox15tsanAtomicValueIlEET_S2_(i64 noundef %26)
  %minReservationBytes_.i = getelementptr inbounds %"class.facebook::velox::memory::MemoryPoolImpl", ptr %this1.i, i32 0, i32 10
  store i64 %call5.i, ptr %minReservationBytes_.i, align 8
  br label %if.end8.i

if.else.i:                                        ; preds = %if.then3.i
  %27 = load i64, ptr %size.addr.i, align 8
  %usedReservationBytes_.i = getelementptr inbounds %"class.facebook::velox::memory::MemoryPoolImpl", ptr %this1.i, i32 0, i32 9
  %28 = load i64, ptr %usedReservationBytes_.i, align 8
  %add.i = add i64 %28, %27
  store i64 %add.i, ptr %usedReservationBytes_.i, align 8
  %29 = load i64, ptr %size.addr.i, align 8
  %cumulativeBytes_.i = getelementptr inbounds %"class.facebook::velox::memory::MemoryPoolImpl", ptr %this1.i, i32 0, i32 12
  %30 = load i64, ptr %cumulativeBytes_.i, align 8
  %add6.i = add i64 %30, %29
  store i64 %add6.i, ptr %cumulativeBytes_.i, align 8
  %usedReservationBytes_7.i = getelementptr inbounds %"class.facebook::velox::memory::MemoryPoolImpl", ptr %this1.i, i32 0, i32 9
  %31 = load i64, ptr %usedReservationBytes_7.i, align 8
  store ptr %this1.i, ptr %this.addr.i19, align 8
  store i64 %31, ptr %newPeak.addr.i, align 8
  %this1.i20 = load ptr, ptr %this.addr.i19, align 8
  %peakBytes_.i = getelementptr inbounds %"class.facebook::velox::memory::MemoryPoolImpl", ptr %this1.i20, i32 0, i32 11
  %call.i21 = call noundef nonnull align 8 dereferenceable(8) ptr @_ZSt3maxIlERKT_S2_S2_(ptr noundef nonnull align 8 dereferenceable(8) %peakBytes_.i, ptr noundef nonnull align 8 dereferenceable(8) %newPeak.addr.i)
  %32 = load i64, ptr %call.i21, align 8
  %peakBytes_2.i = getelementptr inbounds %"class.facebook::velox::memory::MemoryPoolImpl", ptr %this1.i20, i32 0, i32 11
  store i64 %32, ptr %peakBytes_2.i, align 8
  br label %if.end8.i

if.end8.i:                                        ; preds = %if.else.i, %if.then4.i
  store ptr %this1.i, ptr %this.addr.i22, align 8
  %this1.i23 = load ptr, ptr %this.addr.i22, align 8
  %reservationBytes_.i24 = getelementptr inbounds %"class.facebook::velox::memory::MemoryPoolImpl", ptr %this1.i23, i32 0, i32 8
  %33 = load i64, ptr %reservationBytes_.i24, align 8
  %usedReservationBytes_.i25 = getelementptr inbounds %"class.facebook::velox::memory::MemoryPoolImpl", ptr %this1.i23, i32 0, i32 9
  %34 = load i64, ptr %usedReservationBytes_.i25, align 8
  %cmp.i26 = icmp slt i64 %33, %34
  br i1 %cmp.i26, label %lor.end.i, label %lor.lhs.false.i

lor.lhs.false.i:                                  ; preds = %if.end8.i
  %reservationBytes_2.i = getelementptr inbounds %"class.facebook::velox::memory::MemoryPoolImpl", ptr %this1.i23, i32 0, i32 8
  %35 = load i64, ptr %reservationBytes_2.i, align 8
  %minReservationBytes_.i27 = getelementptr inbounds %"class.facebook::velox::memory::MemoryPoolImpl", ptr %this1.i23, i32 0, i32 10
  %36 = load i64, ptr %minReservationBytes_.i27, align 8
  %cmp3.i = icmp slt i64 %35, %36
  br i1 %cmp3.i, label %lor.end.i, label %lor.rhs.i

lor.rhs.i:                                        ; preds = %lor.lhs.false.i
  %usedReservationBytes_4.i = getelementptr inbounds %"class.facebook::velox::memory::MemoryPoolImpl", ptr %this1.i23, i32 0, i32 9
  %37 = load i64, ptr %usedReservationBytes_4.i, align 8
  %cmp5.i = icmp slt i64 %37, 0
  br label %lor.end.i

lor.end.i:                                        ; preds = %lor.rhs.i, %lor.lhs.false.i, %if.end8.i
  %38 = phi i1 [ true, %lor.lhs.false.i ], [ true, %if.end8.i ], [ %cmp5.i, %lor.rhs.i ]
  br i1 %38, label %if.then.i29, label %_ZNK8facebook5velox6memory14MemoryPoolImpl17sanityCheckLockedEv.exit

if.then.i29:                                      ; preds = %lor.end.i
  call void @llvm.trap()
  br label %_ZNK8facebook5velox6memory14MemoryPoolImpl17sanityCheckLockedEv.exit

_ZNK8facebook5velox6memory14MemoryPoolImpl17sanityCheckLockedEv.exit: ; preds = %if.then.i29, %lor.end.i
  %39 = load i32, ptr %numAttempts.i, align 4
  %cmp11.i = icmp sgt i32 %39, 1
  br i1 %cmp11.i, label %if.then12.i, label %_ZN8facebook5velox6memory14MemoryPoolImpl20reserveNonThreadSafeEmb.exit

if.end9.i:                                        ; preds = %_ZN8facebook5velox6memory14MemoryPoolImpl21reservationSizeLockedEl.exit
  %40 = load i64, ptr %increment.i, align 8
  store ptr %this1.i, ptr %this.addr.i32, align 8
  store ptr %this1.i, ptr %requestor.addr.i, align 8
  store i64 %40, ptr %size.addr.i33, align 8
  %this1.i34 = load ptr, ptr %this.addr.i32, align 8
  %parent_.i = getelementptr inbounds %"class.facebook::velox::memory::MemoryPool", ptr %this1.i34, i32 0, i32 5
  %call.i35 = call noundef zeroext i1 @_ZStneIN8facebook5velox6memory10MemoryPoolEEbRKSt10shared_ptrIT_EDn(ptr noundef nonnull align 8 dereferenceable(16) %parent_.i, ptr null) #11
  %lnot.i36 = xor i1 %call.i35, true
  br i1 %lnot.i36, label %if.then.i44, label %if.end.i37

if.then.i44:                                      ; preds = %if.end9.i
  call void @llvm.trap()
  br label %if.end.i37

if.end.i37:                                       ; preds = %if.then.i44, %if.end9.i
  store ptr %this1.i34, ptr %this.addr.i.i30, align 8
  %this1.i.i38 = load ptr, ptr %this.addr.i.i30, align 8
  %kind_.i.i39 = getelementptr inbounds %"class.facebook::velox::memory::MemoryPool", ptr %this1.i.i38, i32 0, i32 3
  %41 = load i32, ptr %kind_.i.i39, align 8
  %cmp.i.i40 = icmp eq i32 %41, 0
  %lnot3.i = xor i1 %cmp.i.i40, true
  br i1 %lnot3.i, label %if.then4.i43, label %if.end5.i

if.then4.i43:                                     ; preds = %if.end.i37
  call void @llvm.trap()
  br label %if.end5.i

if.end5.i:                                        ; preds = %if.then4.i43, %if.end.i37
  %parent_6.i = getelementptr inbounds %"class.facebook::velox::memory::MemoryPool", ptr %this1.i34, i32 0, i32 5
  store ptr %parent_6.i, ptr %pool.addr.i.i, align 8
  %42 = load ptr, ptr %pool.addr.i.i, align 8
  %call.i.i = call noundef ptr @_ZNKSt12__shared_ptrIN8facebook5velox6memory10MemoryPoolELN9__gnu_cxx12_Lock_policyE2EE3getEv(ptr noundef nonnull align 8 dereferenceable(16) %42) #11
  %43 = load ptr, ptr %requestor.addr.i, align 8
  %44 = load i64, ptr %size.addr.i33, align 8
  %call8.i = call noundef zeroext i1 @_ZN8facebook5velox6memory14MemoryPoolImpl30incrementReservationThreadSafeEPNS1_10MemoryPoolEm(ptr noundef nonnull align 8 dereferenceable(480) %call.i.i, ptr noundef %43, i64 noundef %44)
  br i1 %call8.i, label %if.end10.i, label %if.then9.i

if.then9.i:                                       ; preds = %if.end5.i
  store i1 false, ptr %retval.i31, align 1
  br label %_ZN8facebook5velox6memory14MemoryPoolImpl33incrementReservationNonThreadSafeEPNS1_10MemoryPoolEm.exit

if.end10.i:                                       ; preds = %if.end5.i
  %45 = load i64, ptr %size.addr.i33, align 8
  %reservationBytes_.i41 = getelementptr inbounds %"class.facebook::velox::memory::MemoryPoolImpl", ptr %this1.i34, i32 0, i32 8
  %46 = load i64, ptr %reservationBytes_.i41, align 8
  %add.i42 = add i64 %46, %45
  store i64 %add.i42, ptr %reservationBytes_.i41, align 8
  store i1 true, ptr %retval.i31, align 1
  br label %_ZN8facebook5velox6memory14MemoryPoolImpl33incrementReservationNonThreadSafeEPNS1_10MemoryPoolEm.exit

_ZN8facebook5velox6memory14MemoryPoolImpl33incrementReservationNonThreadSafeEPNS1_10MemoryPoolEm.exit: ; preds = %if.end10.i, %if.then9.i
  %47 = load i32, ptr %numAttempts.i, align 4
  %inc.i = add nsw i32 %47, 1
  store i32 %inc.i, ptr %numAttempts.i, align 4
  br label %for.cond.i, !llvm.loop !16

if.then12.i:                                      ; preds = %_ZNK8facebook5velox6memory14MemoryPoolImpl17sanityCheckLockedEv.exit
  %48 = load i32, ptr %numAttempts.i, align 4
  %sub.i = sub nsw i32 %48, 1
  %conv.i = sext i32 %sub.i to i64
  %numCollisions_.i = getelementptr inbounds %"class.facebook::velox::memory::MemoryPoolImpl", ptr %this1.i, i32 0, i32 17
  %call13.i = call noundef i64 @_ZNSt13__atomic_baseImEpLEm(ptr noundef nonnull align 8 dereferenceable(8) %numCollisions_.i, i64 noundef %conv.i) #11
  br label %_ZN8facebook5velox6memory14MemoryPoolImpl20reserveNonThreadSafeEmb.exit

_ZN8facebook5velox6memory14MemoryPoolImpl20reserveNonThreadSafeEmb.exit: ; preds = %if.then12.i, %_ZNK8facebook5velox6memory14MemoryPoolImpl17sanityCheckLockedEv.exit
  br label %if.end

if.end:                                           ; preds = %_ZN8facebook5velox6memory14MemoryPoolImpl20reserveNonThreadSafeEmb.exit, %if.then3
  br label %if.end6

if.end6:                                          ; preds = %if.end, %entry
  %49 = load i8, ptr %reserveOnly.addr, align 1
  %tobool7 = trunc i8 %49 to i1
  br i1 %tobool7, label %if.then8, label %if.end9

if.then8:                                         ; preds = %if.end6
  br label %if.end9

if.end9:                                          ; preds = %if.then8, %if.end6
  ret void
}

declare noundef ptr @_ZN8facebook5velox6memory15MemoryAllocator13allocateBytesEmt(ptr noundef nonnull align 8 dereferenceable(880), i64 noundef, i16 noundef zeroext) #1

; Function Attrs: mustprogress uwtable
define void @_ZN8facebook5velox6memory14MemoryPoolImpl7releaseEmb(ptr noundef nonnull align 8 dereferenceable(480) %this, i64 noundef %size, i1 noundef zeroext %releaseOnly) #0 align 2 {
entry:
  %retval.i14 = alloca i64, align 8
  %size.addr.i15 = alloca i64, align 8
  %retval.i = alloca i64, align 8
  %size.addr.i7 = alloca i64, align 8
  %this.addr.i19.i = alloca ptr, align 8
  %pool.addr.i.i = alloca ptr, align 8
  %this.addr.i.i = alloca ptr, align 8
  %this.addr.i = alloca ptr, align 8
  %size.addr.i = alloca i64, align 8
  %releaseOnly.addr.i = alloca i8, align 1
  %newQuantized.i = alloca i64, align 8
  %newCap.i = alloca i64, align 8
  %freeable.i = alloca i64, align 8
  %this.addr = alloca ptr, align 8
  %size.addr = alloca i64, align 8
  %releaseOnly.addr = alloca i8, align 1
  store ptr %this, ptr %this.addr, align 8
  store i64 %size, ptr %size.addr, align 8
  %frombool = zext i1 %releaseOnly to i8
  store i8 %frombool, ptr %releaseOnly.addr, align 1
  %this1 = load ptr, ptr %this.addr, align 8
  %trackUsage_ = getelementptr inbounds %"class.facebook::velox::memory::MemoryPool", ptr %this1, i32 0, i32 7
  %0 = load i8, ptr %trackUsage_, align 8
  %tobool = trunc i8 %0 to i1
  br i1 %tobool, label %if.then, label %if.end6

if.then:                                          ; preds = %entry
  %threadSafe_ = getelementptr inbounds %"class.facebook::velox::memory::MemoryPool", ptr %this1, i32 0, i32 8
  %1 = load i8, ptr %threadSafe_, align 1
  %tobool2 = trunc i8 %1 to i1
  br i1 %tobool2, label %if.then3, label %if.else

if.then3:                                         ; preds = %if.then
  %2 = load i64, ptr %size.addr, align 8
  %3 = load i8, ptr %releaseOnly.addr, align 1
  %tobool4 = trunc i8 %3 to i1
  call void @_ZN8facebook5velox6memory14MemoryPoolImpl17releaseThreadSafeEmb(ptr noundef nonnull align 8 dereferenceable(480) %this1, i64 noundef %2, i1 noundef zeroext %tobool4)
  br label %if.end

if.else:                                          ; preds = %if.then
  %4 = load i64, ptr %size.addr, align 8
  %5 = load i8, ptr %releaseOnly.addr, align 1
  %tobool5 = trunc i8 %5 to i1
  store ptr %this1, ptr %this.addr.i, align 8
  store i64 %4, ptr %size.addr.i, align 8
  %frombool.i = zext i1 %tobool5 to i8
  store i8 %frombool.i, ptr %releaseOnly.addr.i, align 1
  %this1.i = load ptr, ptr %this.addr.i, align 8
  store ptr %this1.i, ptr %this.addr.i.i, align 8
  %this1.i.i = load ptr, ptr %this.addr.i.i, align 8
  %kind_.i.i = getelementptr inbounds %"class.facebook::velox::memory::MemoryPool", ptr %this1.i.i, i32 0, i32 3
  %6 = load i32, ptr %kind_.i.i, align 8
  %cmp.i.i = icmp eq i32 %6, 0
  %lnot.i = xor i1 %cmp.i.i, true
  br i1 %lnot.i, label %if.then.i, label %if.end.i

if.then.i:                                        ; preds = %if.else
  call void @llvm.trap()
  br label %if.end.i

if.end.i:                                         ; preds = %if.then.i, %if.else
  %7 = load i8, ptr %releaseOnly.addr.i, align 1
  %tobool.i = trunc i8 %7 to i1
  br i1 %tobool.i, label %if.then2.i, label %if.else.i

if.then2.i:                                       ; preds = %if.end.i
  %minReservationBytes_.i = getelementptr inbounds %"class.facebook::velox::memory::MemoryPoolImpl", ptr %this1.i, i32 0, i32 10
  %8 = load i64, ptr %minReservationBytes_.i, align 8
  %cmp.i = icmp eq i64 %8, 0
  br i1 %cmp.i, label %if.then3.i, label %if.end4.i

if.then3.i:                                       ; preds = %if.then2.i
  br label %_ZN8facebook5velox6memory14MemoryPoolImpl20releaseNonThreadSafeEmb.exit

if.end4.i:                                        ; preds = %if.then2.i
  %usedReservationBytes_.i = getelementptr inbounds %"class.facebook::velox::memory::MemoryPoolImpl", ptr %this1.i, i32 0, i32 9
  %9 = load i64, ptr %usedReservationBytes_.i, align 8
  store i64 %9, ptr %size.addr.i7, align 8
  %10 = load i64, ptr %size.addr.i7, align 8
  %cmp.i8 = icmp ult i64 %10, 16777216
  br i1 %cmp.i8, label %if.then.i13, label %if.end.i9

if.then.i13:                                      ; preds = %if.end4.i
  %11 = load i64, ptr %size.addr.i7, align 8
  %call.i = call noundef i64 @_ZN8facebook5velox4bits7roundUpImmEET_S3_T0_(i64 noundef %11, i64 noundef 1048576)
  store i64 %call.i, ptr %retval.i, align 8
  br label %_ZN8facebook5velox6memory10MemoryPool13quantizedSizeEm.exit

if.end.i9:                                        ; preds = %if.end4.i
  %12 = load i64, ptr %size.addr.i7, align 8
  %cmp1.i = icmp ult i64 %12, 67108864
  br i1 %cmp1.i, label %if.then2.i12, label %if.end4.i10

if.then2.i12:                                     ; preds = %if.end.i9
  %13 = load i64, ptr %size.addr.i7, align 8
  %call3.i = call noundef i64 @_ZN8facebook5velox4bits7roundUpImmEET_S3_T0_(i64 noundef %13, i64 noundef 4194304)
  store i64 %call3.i, ptr %retval.i, align 8
  br label %_ZN8facebook5velox6memory10MemoryPool13quantizedSizeEm.exit

if.end4.i10:                                      ; preds = %if.end.i9
  %14 = load i64, ptr %size.addr.i7, align 8
  %call5.i11 = call noundef i64 @_ZN8facebook5velox4bits7roundUpImmEET_S3_T0_(i64 noundef %14, i64 noundef 8388608)
  store i64 %call5.i11, ptr %retval.i, align 8
  br label %_ZN8facebook5velox6memory10MemoryPool13quantizedSizeEm.exit

_ZN8facebook5velox6memory10MemoryPool13quantizedSizeEm.exit: ; preds = %if.end4.i10, %if.then2.i12, %if.then.i13
  %15 = load i64, ptr %retval.i, align 8
  store i64 %15, ptr %newQuantized.i, align 8
  %minReservationBytes_6.i = getelementptr inbounds %"class.facebook::velox::memory::MemoryPoolImpl", ptr %this1.i, i32 0, i32 10
  store i64 0, ptr %minReservationBytes_6.i, align 8
  br label %if.end12.i

if.else.i:                                        ; preds = %if.end.i
  %16 = load i64, ptr %size.addr.i, align 8
  %usedReservationBytes_7.i = getelementptr inbounds %"class.facebook::velox::memory::MemoryPoolImpl", ptr %this1.i, i32 0, i32 9
  %17 = load i64, ptr %usedReservationBytes_7.i, align 8
  %sub.i = sub i64 %17, %16
  store i64 %sub.i, ptr %usedReservationBytes_7.i, align 8
  %minReservationBytes_8.i = getelementptr inbounds %"class.facebook::velox::memory::MemoryPoolImpl", ptr %this1.i, i32 0, i32 10
  %usedReservationBytes_9.i = getelementptr inbounds %"class.facebook::velox::memory::MemoryPoolImpl", ptr %this1.i, i32 0, i32 9
  %call10.i = call noundef nonnull align 8 dereferenceable(8) ptr @_ZSt3maxIlERKT_S2_S2_(ptr noundef nonnull align 8 dereferenceable(8) %minReservationBytes_8.i, ptr noundef nonnull align 8 dereferenceable(8) %usedReservationBytes_9.i)
  %18 = load i64, ptr %call10.i, align 8
  store i64 %18, ptr %newCap.i, align 8
  %19 = load i64, ptr %newCap.i, align 8
  store i64 %19, ptr %size.addr.i15, align 8
  %20 = load i64, ptr %size.addr.i15, align 8
  %cmp.i16 = icmp ult i64 %20, 16777216
  br i1 %cmp.i16, label %if.then.i22, label %if.end.i17

if.then.i22:                                      ; preds = %if.else.i
  %21 = load i64, ptr %size.addr.i15, align 8
  %call.i23 = call noundef i64 @_ZN8facebook5velox4bits7roundUpImmEET_S3_T0_(i64 noundef %21, i64 noundef 1048576)
  store i64 %call.i23, ptr %retval.i14, align 8
  br label %_ZN8facebook5velox6memory10MemoryPool13quantizedSizeEm.exit24

if.end.i17:                                       ; preds = %if.else.i
  %22 = load i64, ptr %size.addr.i15, align 8
  %cmp1.i18 = icmp ult i64 %22, 67108864
  br i1 %cmp1.i18, label %if.then2.i20, label %if.end4.i19

if.then2.i20:                                     ; preds = %if.end.i17
  %23 = load i64, ptr %size.addr.i15, align 8
  %call3.i21 = call noundef i64 @_ZN8facebook5velox4bits7roundUpImmEET_S3_T0_(i64 noundef %23, i64 noundef 4194304)
  store i64 %call3.i21, ptr %retval.i14, align 8
  br label %_ZN8facebook5velox6memory10MemoryPool13quantizedSizeEm.exit24

if.end4.i19:                                      ; preds = %if.end.i17
  %24 = load i64, ptr %size.addr.i15, align 8
  %call5.i = call noundef i64 @_ZN8facebook5velox4bits7roundUpImmEET_S3_T0_(i64 noundef %24, i64 noundef 8388608)
  store i64 %call5.i, ptr %retval.i14, align 8
  br label %_ZN8facebook5velox6memory10MemoryPool13quantizedSizeEm.exit24

_ZN8facebook5velox6memory10MemoryPool13quantizedSizeEm.exit24: ; preds = %if.end4.i19, %if.then2.i20, %if.then.i22
  %25 = load i64, ptr %retval.i14, align 8
  store i64 %25, ptr %newQuantized.i, align 8
  br label %if.end12.i

if.end12.i:                                       ; preds = %_ZN8facebook5velox6memory10MemoryPool13quantizedSizeEm.exit24, %_ZN8facebook5velox6memory10MemoryPool13quantizedSizeEm.exit
  %reservationBytes_.i = getelementptr inbounds %"class.facebook::velox::memory::MemoryPoolImpl", ptr %this1.i, i32 0, i32 8
  %26 = load i64, ptr %reservationBytes_.i, align 8
  %27 = load i64, ptr %newQuantized.i, align 8
  %sub13.i = sub nsw i64 %26, %27
  store i64 %sub13.i, ptr %freeable.i, align 8
  %28 = load i64, ptr %freeable.i, align 8
  %cmp14.i = icmp sgt i64 %28, 0
  br i1 %cmp14.i, label %if.then15.i, label %_ZN8facebook5velox6memory14MemoryPoolImpl20releaseNonThreadSafeEmb.exit

if.then15.i:                                      ; preds = %if.end12.i
  %29 = load i64, ptr %newQuantized.i, align 8
  %reservationBytes_16.i = getelementptr inbounds %"class.facebook::velox::memory::MemoryPoolImpl", ptr %this1.i, i32 0, i32 8
  store i64 %29, ptr %reservationBytes_16.i, align 8
  store ptr %this1.i, ptr %this.addr.i19.i, align 8
  %this1.i20.i = load ptr, ptr %this.addr.i19.i, align 8
  %reservationBytes_.i.i = getelementptr inbounds %"class.facebook::velox::memory::MemoryPoolImpl", ptr %this1.i20.i, i32 0, i32 8
  %30 = load i64, ptr %reservationBytes_.i.i, align 8
  %usedReservationBytes_.i.i = getelementptr inbounds %"class.facebook::velox::memory::MemoryPoolImpl", ptr %this1.i20.i, i32 0, i32 9
  %31 = load i64, ptr %usedReservationBytes_.i.i, align 8
  %cmp.i21.i = icmp slt i64 %30, %31
  br i1 %cmp.i21.i, label %lor.end.i.i, label %lor.lhs.false.i.i

lor.lhs.false.i.i:                                ; preds = %if.then15.i
  %reservationBytes_2.i.i = getelementptr inbounds %"class.facebook::velox::memory::MemoryPoolImpl", ptr %this1.i20.i, i32 0, i32 8
  %32 = load i64, ptr %reservationBytes_2.i.i, align 8
  %minReservationBytes_.i.i = getelementptr inbounds %"class.facebook::velox::memory::MemoryPoolImpl", ptr %this1.i20.i, i32 0, i32 10
  %33 = load i64, ptr %minReservationBytes_.i.i, align 8
  %cmp3.i.i = icmp slt i64 %32, %33
  br i1 %cmp3.i.i, label %lor.end.i.i, label %lor.rhs.i.i

lor.rhs.i.i:                                      ; preds = %lor.lhs.false.i.i
  %usedReservationBytes_4.i.i = getelementptr inbounds %"class.facebook::velox::memory::MemoryPoolImpl", ptr %this1.i20.i, i32 0, i32 9
  %34 = load i64, ptr %usedReservationBytes_4.i.i, align 8
  %cmp5.i.i = icmp slt i64 %34, 0
  br label %lor.end.i.i

lor.end.i.i:                                      ; preds = %lor.rhs.i.i, %lor.lhs.false.i.i, %if.then15.i
  %35 = phi i1 [ true, %lor.lhs.false.i.i ], [ true, %if.then15.i ], [ %cmp5.i.i, %lor.rhs.i.i ]
  br i1 %35, label %if.then.i.i, label %_ZNK8facebook5velox6memory14MemoryPoolImpl17sanityCheckLockedEv.exit.i

if.then.i.i:                                      ; preds = %lor.end.i.i
  call void @llvm.trap()
  br label %_ZNK8facebook5velox6memory14MemoryPoolImpl17sanityCheckLockedEv.exit.i

_ZNK8facebook5velox6memory14MemoryPoolImpl17sanityCheckLockedEv.exit.i: ; preds = %if.then.i.i, %lor.end.i.i
  %parent_.i = getelementptr inbounds %"class.facebook::velox::memory::MemoryPool", ptr %this1.i, i32 0, i32 5
  store ptr %parent_.i, ptr %pool.addr.i.i, align 8
  %36 = load ptr, ptr %pool.addr.i.i, align 8
  %call.i.i = call noundef ptr @_ZNKSt12__shared_ptrIN8facebook5velox6memory10MemoryPoolELN9__gnu_cxx12_Lock_policyE2EE3getEv(ptr noundef nonnull align 8 dereferenceable(16) %36) #11
  %37 = load i64, ptr %freeable.i, align 8
  call void @_ZN8facebook5velox6memory14MemoryPoolImpl20decrementReservationEm(ptr noundef nonnull align 8 dereferenceable(480) %call.i.i, i64 noundef %37) #11
  br label %_ZN8facebook5velox6memory14MemoryPoolImpl20releaseNonThreadSafeEmb.exit

_ZN8facebook5velox6memory14MemoryPoolImpl20releaseNonThreadSafeEmb.exit: ; preds = %_ZNK8facebook5velox6memory14MemoryPoolImpl17sanityCheckLockedEv.exit.i, %if.end12.i, %if.then3.i
  br label %if.end

if.end:                                           ; preds = %_ZN8facebook5velox6memory14MemoryPoolImpl20releaseNonThreadSafeEmb.exit, %if.then3
  br label %if.end6

if.end6:                                          ; preds = %if.end, %entry
  ret void
}

; Function Attrs: mustprogress uwtable
define void @_ZN8facebook5velox6memory14MemoryPoolImpl23handleAllocationFailureERKNSt7__cxx1112basic_stringIcSt11char_traitsIcESaIcEEE(ptr noundef nonnull align 8 dereferenceable(480) %this, ptr noundef nonnull align 8 dereferenceable(32) %failureMessage) #0 align 2 personality ptr @__gxx_personality_v0 {
entry:
  %this.addr = alloca ptr, align 8
  %failureMessage.addr = alloca ptr, align 8
  %ref.tmp = alloca %"class.google::LogMessage", align 8
  %exn.slot = alloca ptr, align 8
  %ehselector.slot = alloca i32, align 4
  store ptr %this, ptr %this.addr, align 8
  store ptr %failureMessage, ptr %failureMessage.addr, align 8
  %this1 = load ptr, ptr %this.addr, align 8
  %coreOnAllocationFailureEnabled_ = getelementptr inbounds %"class.facebook::velox::memory::MemoryPool", ptr %this1, i32 0, i32 11
  %0 = load i8, ptr %coreOnAllocationFailureEnabled_, align 4
  %tobool = trunc i8 %0 to i1
  br i1 %tobool, label %if.then, label %if.end

if.then:                                          ; preds = %entry
  call void @_ZN6google10LogMessageC1EPKcii(ptr noundef nonnull align 8 dereferenceable(16) %ref.tmp, ptr noundef @.str.20, i32 noundef 1158, i32 noundef 2)
  %call = invoke noundef nonnull align 8 dereferenceable(8) ptr @_ZN6google10LogMessage6streamEv(ptr noundef nonnull align 8 dereferenceable(16) %ref.tmp)
          to label %invoke.cont unwind label %lpad

invoke.cont:                                      ; preds = %if.then
  %1 = load ptr, ptr %failureMessage.addr, align 8
  %call3 = invoke noundef nonnull align 8 dereferenceable(8) ptr @_ZStlsIcSt11char_traitsIcESaIcEERSt13basic_ostreamIT_T0_ES7_RKNSt7__cxx1112basic_stringIS4_S5_T1_EE(ptr noundef nonnull align 8 dereferenceable(8) %call, ptr noundef nonnull align 8 dereferenceable(32) %1)
          to label %invoke.cont2 unwind label %lpad

invoke.cont2:                                     ; preds = %invoke.cont
  call void @_ZN6google10LogMessageD1Ev(ptr noundef nonnull align 8 dereferenceable(16) %ref.tmp) #11
  %call4 = call i32 @raise(i32 noundef 7) #11
  br label %if.end

lpad:                                             ; preds = %invoke.cont, %if.then
  %2 = landingpad { ptr, i32 }
          cleanup
  %3 = extractvalue { ptr, i32 } %2, 0
  store ptr %3, ptr %exn.slot, align 8
  %4 = extractvalue { ptr, i32 } %2, 1
  store i32 %4, ptr %ehselector.slot, align 4
  call void @_ZN6google10LogMessageD1Ev(ptr noundef nonnull align 8 dereferenceable(16) %ref.tmp) #11
  br label %eh.resume

if.end:                                           ; preds = %invoke.cont2, %entry
  call void @llvm.trap()
  ret void

eh.resume:                                        ; preds = %lpad
  %exn = load ptr, ptr %exn.slot, align 8
  %sel = load i32, ptr %ehselector.slot, align 4
  %lpad.val = insertvalue { ptr, i32 } poison, ptr %exn, 0
  %lpad.val5 = insertvalue { ptr, i32 } %lpad.val, i32 %sel, 1
  resume { ptr, i32 } %lpad.val5
}

declare void @_ZN8facebook5velox6memory15MemoryAllocator25getAndClearFailureMessageB5cxx11Ev(ptr sret(%"class.std::__cxx11::basic_string") align 8, ptr noundef nonnull align 8 dereferenceable(880)) #1

; Function Attrs: mustprogress uwtable
define void @_ZN8facebook5velox6memory14MemoryPoolImpl14recordAllocDbgEPKvm(ptr noundef nonnull align 8 dereferenceable(480) %this, ptr noundef %addr, i64 noundef %size) #0 align 2 personality ptr @__gxx_personality_v0 {
entry:
  %this.addr = alloca ptr, align 8
  %addr.addr = alloca ptr, align 8
  %size.addr = alloca i64, align 8
  %stackTrace = alloca %"class.std::__cxx11::basic_string", align 8
  %ref.tmp = alloca %"class.facebook::velox::process::StackTrace", align 8
  %exn.slot = alloca ptr, align 8
  %ehselector.slot = alloca i32, align 4
  %l = alloca %"class.std::lock_guard", align 8
  %ref.tmp8 = alloca i64, align 8
  %ref.tmp9 = alloca %"struct.facebook::velox::memory::MemoryPoolImpl::AllocationRecord", align 8
  %coerce = alloca %"struct.std::pair.117", align 8
  store ptr %this, ptr %this.addr, align 8
  store ptr %addr, ptr %addr.addr, align 8
  store i64 %size, ptr %size.addr, align 8
  %this1 = load ptr, ptr %this.addr, align 8
  %debugEnabled_ = getelementptr inbounds %"class.facebook::velox::memory::MemoryPool", ptr %this1, i32 0, i32 10
  %0 = load i8, ptr %debugEnabled_, align 1
  %tobool = trunc i8 %0 to i1
  %lnot = xor i1 %tobool, true
  br i1 %lnot, label %if.then, label %if.end

if.then:                                          ; preds = %entry
  call void @llvm.trap()
  br label %if.end

if.end:                                           ; preds = %if.then, %entry
  %call = call noundef zeroext i1 @_ZN8facebook5velox6memory14MemoryPoolImpl13needRecordDbgEb(ptr noundef nonnull align 8 dereferenceable(480) %this1, i1 noundef zeroext true)
  br i1 %call, label %if.end3, label %if.then2

if.then2:                                         ; preds = %if.end
  br label %return

if.end3:                                          ; preds = %if.end
  call void @_ZN8facebook5velox7process10StackTraceC1Ei(ptr noundef nonnull align 8 dereferenceable(96) %ref.tmp, i32 noundef 0)
  %call4 = invoke noundef nonnull align 8 dereferenceable(32) ptr @_ZNK8facebook5velox7process10StackTrace8toStringB5cxx11Ev(ptr noundef nonnull align 8 dereferenceable(96) %ref.tmp)
          to label %invoke.cont unwind label %lpad

invoke.cont:                                      ; preds = %if.end3
  invoke void @_ZNSt7__cxx1112basic_stringIcSt11char_traitsIcESaIcEEC1ERKS4_(ptr noundef nonnull align 8 dereferenceable(32) %stackTrace, ptr noundef nonnull align 8 dereferenceable(32) %call4)
          to label %invoke.cont5 unwind label %lpad

invoke.cont5:                                     ; preds = %invoke.cont
  call void @_ZN8facebook5velox7process10StackTraceD2Ev(ptr noundef nonnull align 8 dereferenceable(96) %ref.tmp) #11
  %debugAllocMutex_ = getelementptr inbounds %"class.facebook::velox::memory::MemoryPoolImpl", ptr %this1, i32 0, i32 18
  invoke void @_ZNSt10lock_guardISt5mutexEC2ERS0_(ptr noundef nonnull align 8 dereferenceable(8) %l, ptr noundef nonnull align 8 dereferenceable(40) %debugAllocMutex_)
          to label %invoke.cont7 unwind label %lpad6

invoke.cont7:                                     ; preds = %invoke.cont5
  %debugAllocRecords_ = getelementptr inbounds %"class.facebook::velox::memory::MemoryPoolImpl", ptr %this1, i32 0, i32 19
  %1 = load ptr, ptr %addr.addr, align 8
  %2 = ptrtoint ptr %1 to i64
  store i64 %2, ptr %ref.tmp8, align 8
  %size10 = getelementptr inbounds %"struct.facebook::velox::memory::MemoryPoolImpl::AllocationRecord", ptr %ref.tmp9, i32 0, i32 0
  %3 = load i64, ptr %size.addr, align 8
  store i64 %3, ptr %size10, align 8
  %callStack = getelementptr inbounds %"struct.facebook::velox::memory::MemoryPoolImpl::AllocationRecord", ptr %ref.tmp9, i32 0, i32 1
  invoke void @_ZNSt7__cxx1112basic_stringIcSt11char_traitsIcESaIcEEC1ERKS4_(ptr noundef nonnull align 8 dereferenceable(32) %callStack, ptr noundef nonnull align 8 dereferenceable(32) %stackTrace)
          to label %invoke.cont12 unwind label %lpad11

invoke.cont12:                                    ; preds = %invoke.cont7
  %call15 = invoke { ptr, i8 } @_ZNSt13unordered_mapImN8facebook5velox6memory14MemoryPoolImpl16AllocationRecordESt4hashImESt8equal_toImESaISt4pairIKmS4_EEE7emplaceIJmS4_EEES9_INSt8__detail14_Node_iteratorISB_Lb0ELb0EEEbEDpOT_(ptr noundef nonnull align 8 dereferenceable(56) %debugAllocRecords_, ptr noundef nonnull align 8 dereferenceable(8) %ref.tmp8, ptr noundef nonnull align 8 dereferenceable(40) %ref.tmp9)
          to label %invoke.cont14 unwind label %lpad13

invoke.cont14:                                    ; preds = %invoke.cont12
  %4 = getelementptr inbounds { ptr, i8 }, ptr %coerce, i32 0, i32 0
  %5 = extractvalue { ptr, i8 } %call15, 0
  store ptr %5, ptr %4, align 8
  %6 = getelementptr inbounds { ptr, i8 }, ptr %coerce, i32 0, i32 1
  %7 = extractvalue { ptr, i8 } %call15, 1
  store i8 %7, ptr %6, align 8
  call void @_ZN8facebook5velox6memory14MemoryPoolImpl16AllocationRecordD2Ev(ptr noundef nonnull align 8 dereferenceable(40) %ref.tmp9) #11
  call void @_ZNSt10lock_guardISt5mutexED2Ev(ptr noundef nonnull align 8 dereferenceable(8) %l) #11
  call void @_ZNSt7__cxx1112basic_stringIcSt11char_traitsIcESaIcEED1Ev(ptr noundef nonnull align 8 dereferenceable(32) %stackTrace) #11
  br label %return

return:                                           ; preds = %invoke.cont14, %if.then2
  ret void

lpad:                                             ; preds = %invoke.cont, %if.end3
  %8 = landingpad { ptr, i32 }
          cleanup
  %9 = extractvalue { ptr, i32 } %8, 0
  store ptr %9, ptr %exn.slot, align 8
  %10 = extractvalue { ptr, i32 } %8, 1
  store i32 %10, ptr %ehselector.slot, align 4
  call void @_ZN8facebook5velox7process10StackTraceD2Ev(ptr noundef nonnull align 8 dereferenceable(96) %ref.tmp) #11
  br label %eh.resume

lpad6:                                            ; preds = %invoke.cont5
  %11 = landingpad { ptr, i32 }
          cleanup
  %12 = extractvalue { ptr, i32 } %11, 0
  store ptr %12, ptr %exn.slot, align 8
  %13 = extractvalue { ptr, i32 } %11, 1
  store i32 %13, ptr %ehselector.slot, align 4
  br label %ehcleanup16

lpad11:                                           ; preds = %invoke.cont7
  %14 = landingpad { ptr, i32 }
          cleanup
  %15 = extractvalue { ptr, i32 } %14, 0
  store ptr %15, ptr %exn.slot, align 8
  %16 = extractvalue { ptr, i32 } %14, 1
  store i32 %16, ptr %ehselector.slot, align 4
  br label %ehcleanup

lpad13:                                           ; preds = %invoke.cont12
  %17 = landingpad { ptr, i32 }
          cleanup
  %18 = extractvalue { ptr, i32 } %17, 0
  store ptr %18, ptr %exn.slot, align 8
  %19 = extractvalue { ptr, i32 } %17, 1
  store i32 %19, ptr %ehselector.slot, align 4
  call void @_ZN8facebook5velox6memory14MemoryPoolImpl16AllocationRecordD2Ev(ptr noundef nonnull align 8 dereferenceable(40) %ref.tmp9) #11
  br label %ehcleanup

ehcleanup:                                        ; preds = %lpad13, %lpad11
  call void @_ZNSt10lock_guardISt5mutexED2Ev(ptr noundef nonnull align 8 dereferenceable(8) %l) #11
  br label %ehcleanup16

ehcleanup16:                                      ; preds = %ehcleanup, %lpad6
  call void @_ZNSt7__cxx1112basic_stringIcSt11char_traitsIcESaIcEED1Ev(ptr noundef nonnull align 8 dereferenceable(32) %stackTrace) #11
  br label %eh.resume

eh.resume:                                        ; preds = %ehcleanup16, %lpad
  %exn = load ptr, ptr %exn.slot, align 8
  %sel = load i32, ptr %ehselector.slot, align 4
  %lpad.val = insertvalue { ptr, i32 } poison, ptr %exn, 0
  %lpad.val17 = insertvalue { ptr, i32 } %lpad.val, i32 %sel, 1
  resume { ptr, i32 } %lpad.val17
}

; Function Attrs: mustprogress uwtable
define noundef ptr @_ZN8facebook5velox6memory14MemoryPoolImpl18allocateZeroFilledEll(ptr noundef nonnull align 8 dereferenceable(480) %this, i64 noundef %numEntries, i64 noundef %sizeEach) unnamed_addr #0 align 2 personality ptr @__gxx_personality_v0 {
entry:
  %.addr.i = alloca ptr, align 8
  %this.addr.i34 = alloca ptr, align 8
  %this.addr.i.i = alloca ptr, align 8
  %desc.addr.i.i = alloca i64, align 8
  %values.addr.i.i = alloca ptr, align 8
  %this.addr.i32 = alloca ptr, align 8
  %store.addr.i = alloca ptr, align 8
  %retval.i = alloca %"class.fmt::v8::basic_string_view", align 8
  %this.addr.i30 = alloca ptr, align 8
  %this.addr.i26 = alloca ptr, align 8
  %s.addr.i27 = alloca ptr, align 8
  %this.addr.i24 = alloca ptr, align 8
  %s.addr.i = alloca ptr, align 8
  %result.ptr.i = alloca ptr, align 8
  %fmt.i = alloca %"class.fmt::v8::basic_format_string.82", align 8
  %args.addr.i = alloca ptr, align 8
  %args.addr2.i = alloca ptr, align 8
  %args.addr4.i = alloca ptr, align 8
  %args.addr6.i = alloca ptr, align 8
  %args.addr8.i = alloca ptr, align 8
  %agg.tmp.i = alloca %"class.fmt::v8::basic_string_view", align 8
  %agg.tmp9.i = alloca %"class.fmt::v8::basic_format_args", align 8
  %ref.tmp.i = alloca %"class.fmt::v8::format_arg_store.150", align 16
  %this.addr.i = alloca ptr, align 8
  %size.addr.i = alloca i64, align 8
  %remainder.i = alloca i64, align 8
  %this.addr = alloca ptr, align 8
  %numEntries.addr = alloca i64, align 8
  %sizeEach.addr = alloca i64, align 8
  %size = alloca i64, align 8
  %alignedSize = alloca i64, align 8
  %buffer = alloca ptr, align 8
  %ref.tmp = alloca %"class.std::__cxx11::basic_string", align 8
  %agg.tmp = alloca %"class.fmt::v8::basic_format_string.82", align 8
  %ref.tmp6 = alloca %"class.std::__cxx11::basic_string", align 8
  %ref.tmp7 = alloca %"class.std::__cxx11::basic_string", align 8
  %exn.slot = alloca ptr, align 8
  %ehselector.slot = alloca i32, align 4
  %ref.tmp8 = alloca %"class.std::__cxx11::basic_string", align 8
  store ptr %this, ptr %this.addr, align 8
  store i64 %numEntries, ptr %numEntries.addr, align 8
  store i64 %sizeEach, ptr %sizeEach.addr, align 8
  %this1 = load ptr, ptr %this.addr, align 8
  br label %do.body

do.body:                                          ; preds = %entry
  %kind_ = getelementptr inbounds %"class.facebook::velox::memory::MemoryPool", ptr %this1, i32 0, i32 3
  %0 = load i32, ptr %kind_, align 8
  %cmp = icmp ne i32 %0, 0
  br i1 %cmp, label %if.then, label %if.end

if.then:                                          ; preds = %do.body
  call void @llvm.trap()
  br label %if.end

if.end:                                           ; preds = %if.then, %do.body
  %numAllocs_ = getelementptr inbounds %"class.facebook::velox::memory::MemoryPoolImpl", ptr %this1, i32 0, i32 13
  %call = call noundef i64 @_ZNSt13__atomic_baseImEppEv(ptr noundef nonnull align 8 dereferenceable(8) %numAllocs_) #11
  br label %do.end

do.end:                                           ; preds = %if.end
  %1 = load i64, ptr %sizeEach.addr, align 8
  %2 = load i64, ptr %numEntries.addr, align 8
  %mul = mul nsw i64 %1, %2
  store i64 %mul, ptr %size, align 8
  %3 = load i64, ptr %size, align 8
  store ptr %this1, ptr %this.addr.i, align 8
  store i64 %3, ptr %size.addr.i, align 8
  %this1.i = load ptr, ptr %this.addr.i, align 8
  %4 = load i64, ptr %size.addr.i, align 8
  %alignment_.i = getelementptr inbounds %"class.facebook::velox::memory::MemoryPool", ptr %this1.i, i32 0, i32 4
  %5 = load i16, ptr %alignment_.i, align 4
  %conv.i = zext i16 %5 to i64
  %rem.i = srem i64 %4, %conv.i
  store i64 %rem.i, ptr %remainder.i, align 8
  %6 = load i64, ptr %remainder.i, align 8
  %cmp.i = icmp eq i64 %6, 0
  br i1 %cmp.i, label %cond.true.i, label %cond.false.i

cond.true.i:                                      ; preds = %do.end
  %7 = load i64, ptr %size.addr.i, align 8
  br label %_ZN8facebook5velox6memory14MemoryPoolImpl9sizeAlignEl.exit

cond.false.i:                                     ; preds = %do.end
  %8 = load i64, ptr %size.addr.i, align 8
  %alignment_2.i = getelementptr inbounds %"class.facebook::velox::memory::MemoryPool", ptr %this1.i, i32 0, i32 4
  %9 = load i16, ptr %alignment_2.i, align 4
  %conv3.i = zext i16 %9 to i64
  %add.i = add nsw i64 %8, %conv3.i
  %10 = load i64, ptr %remainder.i, align 8
  %sub.i = sub nsw i64 %add.i, %10
  br label %_ZN8facebook5velox6memory14MemoryPoolImpl9sizeAlignEl.exit

_ZN8facebook5velox6memory14MemoryPoolImpl9sizeAlignEl.exit: ; preds = %cond.false.i, %cond.true.i
  %cond.i = phi i64 [ %7, %cond.true.i ], [ %sub.i, %cond.false.i ]
  store i64 %cond.i, ptr %alignedSize, align 8
  %11 = load i64, ptr %alignedSize, align 8
  call void @_ZN8facebook5velox6memory14MemoryPoolImpl7reserveEmb(ptr noundef nonnull align 8 dereferenceable(480) %this1, i64 noundef %11, i1 noundef zeroext false)
  %allocator_ = getelementptr inbounds %"class.facebook::velox::memory::MemoryPoolImpl", ptr %this1, i32 0, i32 2
  %12 = load ptr, ptr %allocator_, align 8
  %13 = load i64, ptr %alignedSize, align 8
  %call3 = call noundef ptr @_ZN8facebook5velox6memory15MemoryAllocator18allocateZeroFilledEm(ptr noundef nonnull align 8 dereferenceable(880) %12, i64 noundef %13)
  store ptr %call3, ptr %buffer, align 8
  %14 = load ptr, ptr %buffer, align 8
  %cmp4 = icmp eq ptr %14, null
  br i1 %cmp4, label %if.then5, label %if.end18

if.then5:                                         ; preds = %_ZN8facebook5velox6memory14MemoryPoolImpl9sizeAlignEl.exit
  %15 = load i64, ptr %alignedSize, align 8
  call void @_ZN8facebook5velox6memory14MemoryPoolImpl7releaseEmb(ptr noundef nonnull align 8 dereferenceable(480) %this1, i64 noundef %15, i1 noundef zeroext false)
  store ptr %agg.tmp, ptr %this.addr.i24, align 8
  store ptr @.str.6, ptr %s.addr.i, align 8
  %this1.i25 = load ptr, ptr %this.addr.i24, align 8
  %16 = load ptr, ptr %s.addr.i, align 8
  store ptr %this1.i25, ptr %this.addr.i26, align 8
  store ptr %16, ptr %s.addr.i27, align 8
  %this1.i28 = load ptr, ptr %this.addr.i26, align 8
  %17 = load ptr, ptr %s.addr.i27, align 8
  store ptr %17, ptr %this1.i28, align 8
  %size_.i = getelementptr inbounds %"class.fmt::v8::basic_string_view", ptr %this1.i28, i32 0, i32 1
  %18 = load ptr, ptr %s.addr.i27, align 8
  %call.i29 = call noundef i64 @_ZNSt11char_traitsIcE6lengthEPKc(ptr noundef %18)
  store i64 %call.i29, ptr %size_.i, align 8
  %19 = load ptr, ptr %s.addr.i, align 8
  store ptr %19, ptr %.addr.i, align 8
  %20 = load i64, ptr %sizeEach.addr, align 8
  call void @_ZN8facebook5velox13succinctBytesB5cxx11Emi(ptr sret(%"class.std::__cxx11::basic_string") align 8 %ref.tmp6, i64 noundef %20, i32 noundef 2)
  %vtable = load ptr, ptr %this1, align 8
  %vfn = getelementptr inbounds ptr, ptr %vtable, i64 46
  %21 = load ptr, ptr %vfn, align 8
  invoke void %21(ptr sret(%"class.std::__cxx11::basic_string") align 8 %ref.tmp7, ptr noundef nonnull align 8 dereferenceable(480) %this1)
          to label %invoke.cont unwind label %lpad

invoke.cont:                                      ; preds = %if.then5
  %allocator_9 = getelementptr inbounds %"class.facebook::velox::memory::MemoryPoolImpl", ptr %this1, i32 0, i32 2
  %22 = load ptr, ptr %allocator_9, align 8
  invoke void @_ZN8facebook5velox6memory15MemoryAllocator25getAndClearFailureMessageB5cxx11Ev(ptr sret(%"class.std::__cxx11::basic_string") align 8 %ref.tmp8, ptr noundef nonnull align 8 dereferenceable(880) %22)
          to label %invoke.cont11 unwind label %lpad10

invoke.cont11:                                    ; preds = %invoke.cont
  %23 = getelementptr inbounds { ptr, i64 }, ptr %agg.tmp, i32 0, i32 0
  %24 = load ptr, ptr %23, align 8
  %25 = getelementptr inbounds { ptr, i64 }, ptr %agg.tmp, i32 0, i32 1
  %26 = load i64, ptr %25, align 8
  call void @llvm.experimental.noalias.scope.decl(metadata !17)
  store ptr %ref.tmp, ptr %result.ptr.i, align 8, !noalias !17
  store ptr %24, ptr %fmt.i, align 8, !noalias !17
  %27 = getelementptr inbounds { ptr, i64 }, ptr %fmt.i, i32 0, i32 1
  store i64 %26, ptr %27, align 8, !noalias !17
  store ptr @__FUNCTION__._ZN8facebook5velox6memory14MemoryPoolImpl18allocateZeroFilledEll, ptr %args.addr.i, align 8, !noalias !17
  store ptr %numEntries.addr, ptr %args.addr2.i, align 8, !noalias !17
  store ptr %ref.tmp6, ptr %args.addr4.i, align 8, !noalias !17
  store ptr %ref.tmp7, ptr %args.addr6.i, align 8, !noalias !17
  store ptr %ref.tmp8, ptr %args.addr8.i, align 8, !noalias !17
  store ptr %fmt.i, ptr %this.addr.i30, align 8
  %this1.i31 = load ptr, ptr %this.addr.i30, align 8
  call void @llvm.memcpy.p0.p0.i64(ptr align 8 %retval.i, ptr align 8 %this1.i31, i64 16, i1 false)
  %28 = load { ptr, i64 }, ptr %retval.i, align 8
  %29 = extractvalue { ptr, i64 } %28, 0
  store ptr %29, ptr %agg.tmp.i, align 8, !noalias !17
  %30 = getelementptr inbounds { ptr, i64 }, ptr %agg.tmp.i, i32 0, i32 1
  %31 = extractvalue { ptr, i64 } %28, 1
  store i64 %31, ptr %30, align 8, !noalias !17
  %32 = load ptr, ptr %args.addr.i, align 8, !noalias !17
  %33 = load ptr, ptr %args.addr2.i, align 8, !noalias !17
  %34 = load ptr, ptr %args.addr4.i, align 8, !noalias !17
  %35 = load ptr, ptr %args.addr6.i, align 8, !noalias !17
  %36 = load ptr, ptr %args.addr8.i, align 8, !noalias !17
  invoke void @_ZN3fmt2v816make_format_argsINS0_20basic_format_contextINS0_8appenderEcEEJRA19_KcRlRNSt7__cxx1112basic_stringIcSt11char_traitsIcESaIcEEESF_SF_EEENS0_16format_arg_storeIT_JDpNSt9remove_cvINSt16remove_referenceIT0_E4typeEE4typeEEEEDpOSK_(ptr sret(%"class.fmt::v8::format_arg_store.150") align 16 %ref.tmp.i, ptr noundef nonnull align 1 dereferenceable(19) %32, ptr noundef nonnull align 8 dereferenceable(8) %33, ptr noundef nonnull align 8 dereferenceable(32) %34, ptr noundef nonnull align 8 dereferenceable(32) %35, ptr noundef nonnull align 8 dereferenceable(32) %36)
          to label %.noexc unwind label %lpad12

.noexc:                                           ; preds = %invoke.cont11
  store ptr %agg.tmp9.i, ptr %this.addr.i32, align 8
  store ptr %ref.tmp.i, ptr %store.addr.i, align 8
  %this1.i33 = load ptr, ptr %this.addr.i32, align 8
  %37 = load ptr, ptr %store.addr.i, align 8
  store ptr %37, ptr %this.addr.i34, align 8
  %this1.i35 = load ptr, ptr %this.addr.i34, align 8
  store ptr %this1.i33, ptr %this.addr.i.i, align 8
  store i64 908604, ptr %desc.addr.i.i, align 8
  store ptr %this1.i35, ptr %values.addr.i.i, align 8
  %this1.i.i = load ptr, ptr %this.addr.i.i, align 8
  %38 = load i64, ptr %desc.addr.i.i, align 8
  store i64 %38, ptr %this1.i.i, align 8
  %39 = getelementptr inbounds %"class.fmt::v8::basic_format_args", ptr %this1.i.i, i32 0, i32 1
  %40 = load ptr, ptr %values.addr.i.i, align 8
  store ptr %40, ptr %39, align 8
  br label %.noexc22

.noexc22:                                         ; preds = %.noexc
  %41 = load ptr, ptr %agg.tmp.i, align 8, !noalias !17
  %42 = getelementptr inbounds { ptr, i64 }, ptr %agg.tmp.i, i32 0, i32 1
  %43 = load i64, ptr %42, align 8, !noalias !17
  %44 = load i64, ptr %agg.tmp9.i, align 8, !noalias !17
  %45 = getelementptr inbounds { i64, ptr }, ptr %agg.tmp9.i, i32 0, i32 1
  %46 = load ptr, ptr %45, align 8, !noalias !17
  invoke void @_ZN3fmt2v87vformatB5cxx11ENS0_17basic_string_viewIcEENS0_17basic_format_argsINS0_20basic_format_contextINS0_8appenderEcEEEE(ptr sret(%"class.std::__cxx11::basic_string") align 8 %ref.tmp, ptr %41, i64 %43, i64 %44, ptr %46)
          to label %_ZN3fmt2v86formatIJRA19_KcRlNSt7__cxx1112basic_stringIcSt11char_traitsIcESaIcEEESB_SB_EEESB_NS0_19basic_format_stringIcJDpNS0_13type_identityIT_E4typeEEEEDpOSE_.exit unwind label %lpad12

_ZN3fmt2v86formatIJRA19_KcRlNSt7__cxx1112basic_stringIcSt11char_traitsIcESaIcEEESB_SB_EEESB_NS0_19basic_format_stringIcJDpNS0_13type_identityIT_E4typeEEEEDpOSE_.exit: ; preds = %.noexc22
  br label %invoke.cont13

invoke.cont13:                                    ; preds = %_ZN3fmt2v86formatIJRA19_KcRlNSt7__cxx1112basic_stringIcSt11char_traitsIcESaIcEEESB_SB_EEESB_NS0_19basic_format_stringIcJDpNS0_13type_identityIT_E4typeEEEEDpOSE_.exit
  invoke void @_ZN8facebook5velox6memory14MemoryPoolImpl23handleAllocationFailureERKNSt7__cxx1112basic_stringIcSt11char_traitsIcESaIcEEE(ptr noundef nonnull align 8 dereferenceable(480) %this1, ptr noundef nonnull align 8 dereferenceable(32) %ref.tmp)
          to label %invoke.cont15 unwind label %lpad14

invoke.cont15:                                    ; preds = %invoke.cont13
  call void @_ZNSt7__cxx1112basic_stringIcSt11char_traitsIcESaIcEED1Ev(ptr noundef nonnull align 8 dereferenceable(32) %ref.tmp) #11
  call void @_ZNSt7__cxx1112basic_stringIcSt11char_traitsIcESaIcEED1Ev(ptr noundef nonnull align 8 dereferenceable(32) %ref.tmp8) #11
  call void @_ZNSt7__cxx1112basic_stringIcSt11char_traitsIcESaIcEED1Ev(ptr noundef nonnull align 8 dereferenceable(32) %ref.tmp7) #11
  call void @_ZNSt7__cxx1112basic_stringIcSt11char_traitsIcESaIcEED1Ev(ptr noundef nonnull align 8 dereferenceable(32) %ref.tmp6) #11
  br label %if.end18

lpad:                                             ; preds = %if.then5
  %47 = landingpad { ptr, i32 }
          cleanup
  %48 = extractvalue { ptr, i32 } %47, 0
  store ptr %48, ptr %exn.slot, align 8
  %49 = extractvalue { ptr, i32 } %47, 1
  store i32 %49, ptr %ehselector.slot, align 4
  br label %ehcleanup17

lpad10:                                           ; preds = %invoke.cont
  %50 = landingpad { ptr, i32 }
          cleanup
  %51 = extractvalue { ptr, i32 } %50, 0
  store ptr %51, ptr %exn.slot, align 8
  %52 = extractvalue { ptr, i32 } %50, 1
  store i32 %52, ptr %ehselector.slot, align 4
  br label %ehcleanup16

lpad12:                                           ; preds = %.noexc22, %invoke.cont11
  %53 = landingpad { ptr, i32 }
          cleanup
  %54 = extractvalue { ptr, i32 } %53, 0
  store ptr %54, ptr %exn.slot, align 8
  %55 = extractvalue { ptr, i32 } %53, 1
  store i32 %55, ptr %ehselector.slot, align 4
  br label %ehcleanup

lpad14:                                           ; preds = %invoke.cont13
  %56 = landingpad { ptr, i32 }
          cleanup
  %57 = extractvalue { ptr, i32 } %56, 0
  store ptr %57, ptr %exn.slot, align 8
  %58 = extractvalue { ptr, i32 } %56, 1
  store i32 %58, ptr %ehselector.slot, align 4
  call void @_ZNSt7__cxx1112basic_stringIcSt11char_traitsIcESaIcEED1Ev(ptr noundef nonnull align 8 dereferenceable(32) %ref.tmp) #11
  br label %ehcleanup

ehcleanup:                                        ; preds = %lpad14, %lpad12
  call void @_ZNSt7__cxx1112basic_stringIcSt11char_traitsIcESaIcEED1Ev(ptr noundef nonnull align 8 dereferenceable(32) %ref.tmp8) #11
  br label %ehcleanup16

ehcleanup16:                                      ; preds = %ehcleanup, %lpad10
  call void @_ZNSt7__cxx1112basic_stringIcSt11char_traitsIcESaIcEED1Ev(ptr noundef nonnull align 8 dereferenceable(32) %ref.tmp7) #11
  br label %ehcleanup17

ehcleanup17:                                      ; preds = %ehcleanup16, %lpad
  call void @_ZNSt7__cxx1112basic_stringIcSt11char_traitsIcESaIcEED1Ev(ptr noundef nonnull align 8 dereferenceable(32) %ref.tmp6) #11
  br label %eh.resume

if.end18:                                         ; preds = %invoke.cont15, %_ZN8facebook5velox6memory14MemoryPoolImpl9sizeAlignEl.exit
  %debugEnabled_ = getelementptr inbounds %"class.facebook::velox::memory::MemoryPool", ptr %this1, i32 0, i32 10
  %59 = load i8, ptr %debugEnabled_, align 1
  %tobool = trunc i8 %59 to i1
  br i1 %tobool, label %if.then19, label %if.end20

if.then19:                                        ; preds = %if.end18
  %60 = load ptr, ptr %buffer, align 8
  %61 = load i64, ptr %size, align 8
  call void @_ZN8facebook5velox6memory14MemoryPoolImpl14recordAllocDbgEPKvm(ptr noundef nonnull align 8 dereferenceable(480) %this1, ptr noundef %60, i64 noundef %61)
  br label %if.end20

if.end20:                                         ; preds = %if.then19, %if.end18
  %62 = load ptr, ptr %buffer, align 8
  ret ptr %62

eh.resume:                                        ; preds = %ehcleanup17
  %exn = load ptr, ptr %exn.slot, align 8
  %sel = load i32, ptr %ehselector.slot, align 4
  %lpad.val = insertvalue { ptr, i32 } poison, ptr %exn, 0
  %lpad.val21 = insertvalue { ptr, i32 } %lpad.val, i32 %sel, 1
  resume { ptr, i32 } %lpad.val21
}

declare noundef ptr @_ZN8facebook5velox6memory15MemoryAllocator18allocateZeroFilledEm(ptr noundef nonnull align 8 dereferenceable(880), i64 noundef) #1

; Function Attrs: mustprogress uwtable
define noundef ptr @_ZN8facebook5velox6memory14MemoryPoolImpl10reallocateEPvll(ptr noundef nonnull align 8 dereferenceable(480) %this, ptr noundef %p, i64 noundef %size, i64 noundef %newSize) unnamed_addr #0 align 2 personality ptr @__gxx_personality_v0 {
entry:
  %.addr.i = alloca ptr, align 8
  %this.addr.i2.i = alloca ptr, align 8
  %this.addr.i.i = alloca ptr, align 8
  %desc.addr.i.i = alloca i64, align 8
  %values.addr.i.i = alloca ptr, align 8
  %this.addr.i41 = alloca ptr, align 8
  %store.addr.i = alloca ptr, align 8
  %retval.i = alloca %"class.fmt::v8::basic_string_view", align 8
  %this.addr.i39 = alloca ptr, align 8
  %this.addr.i35 = alloca ptr, align 8
  %s.addr.i36 = alloca ptr, align 8
  %this.addr.i33 = alloca ptr, align 8
  %s.addr.i = alloca ptr, align 8
  %result.ptr.i = alloca ptr, align 8
  %fmt.i = alloca %"class.fmt::v8::basic_format_string.83", align 8
  %args.addr.i = alloca ptr, align 8
  %args.addr2.i = alloca ptr, align 8
  %args.addr4.i = alloca ptr, align 8
  %args.addr6.i = alloca ptr, align 8
  %args.addr8.i = alloca ptr, align 8
  %agg.tmp.i = alloca %"class.fmt::v8::basic_string_view", align 8
  %agg.tmp9.i = alloca %"class.fmt::v8::basic_format_args", align 8
  %ref.tmp.i = alloca %"class.fmt::v8::format_arg_store.152", align 16
  %this.addr.i = alloca ptr, align 8
  %size.addr.i = alloca i64, align 8
  %remainder.i = alloca i64, align 8
  %this.addr = alloca ptr, align 8
  %p.addr = alloca ptr, align 8
  %size.addr = alloca i64, align 8
  %newSize.addr = alloca i64, align 8
  %alignedNewSize = alloca i64, align 8
  %newP = alloca ptr, align 8
  %ref.tmp = alloca %"class.std::__cxx11::basic_string", align 8
  %agg.tmp = alloca %"class.fmt::v8::basic_format_string.83", align 8
  %ref.tmp6 = alloca %"class.std::__cxx11::basic_string", align 8
  %ref.tmp7 = alloca %"class.std::__cxx11::basic_string", align 8
  %exn.slot = alloca ptr, align 8
  %ehselector.slot = alloca i32, align 4
  %ref.tmp8 = alloca %"class.std::__cxx11::basic_string", align 8
  %ref.tmp11 = alloca %"class.std::__cxx11::basic_string", align 8
  store ptr %this, ptr %this.addr, align 8
  store ptr %p, ptr %p.addr, align 8
  store i64 %size, ptr %size.addr, align 8
  store i64 %newSize, ptr %newSize.addr, align 8
  %this1 = load ptr, ptr %this.addr, align 8
  br label %do.body

do.body:                                          ; preds = %entry
  %kind_ = getelementptr inbounds %"class.facebook::velox::memory::MemoryPool", ptr %this1, i32 0, i32 3
  %0 = load i32, ptr %kind_, align 8
  %cmp = icmp ne i32 %0, 0
  br i1 %cmp, label %if.then, label %if.end

if.then:                                          ; preds = %do.body
  call void @llvm.trap()
  br label %if.end

if.end:                                           ; preds = %if.then, %do.body
  %numAllocs_ = getelementptr inbounds %"class.facebook::velox::memory::MemoryPoolImpl", ptr %this1, i32 0, i32 13
  %call = call noundef i64 @_ZNSt13__atomic_baseImEppEv(ptr noundef nonnull align 8 dereferenceable(8) %numAllocs_) #11
  br label %do.end

do.end:                                           ; preds = %if.end
  %1 = load i64, ptr %newSize.addr, align 8
  store ptr %this1, ptr %this.addr.i, align 8
  store i64 %1, ptr %size.addr.i, align 8
  %this1.i = load ptr, ptr %this.addr.i, align 8
  %2 = load i64, ptr %size.addr.i, align 8
  %alignment_.i = getelementptr inbounds %"class.facebook::velox::memory::MemoryPool", ptr %this1.i, i32 0, i32 4
  %3 = load i16, ptr %alignment_.i, align 4
  %conv.i = zext i16 %3 to i64
  %rem.i = srem i64 %2, %conv.i
  store i64 %rem.i, ptr %remainder.i, align 8
  %4 = load i64, ptr %remainder.i, align 8
  %cmp.i = icmp eq i64 %4, 0
  br i1 %cmp.i, label %cond.true.i, label %cond.false.i

cond.true.i:                                      ; preds = %do.end
  %5 = load i64, ptr %size.addr.i, align 8
  br label %_ZN8facebook5velox6memory14MemoryPoolImpl9sizeAlignEl.exit

cond.false.i:                                     ; preds = %do.end
  %6 = load i64, ptr %size.addr.i, align 8
  %alignment_2.i = getelementptr inbounds %"class.facebook::velox::memory::MemoryPool", ptr %this1.i, i32 0, i32 4
  %7 = load i16, ptr %alignment_2.i, align 4
  %conv3.i = zext i16 %7 to i64
  %add.i = add nsw i64 %6, %conv3.i
  %8 = load i64, ptr %remainder.i, align 8
  %sub.i = sub nsw i64 %add.i, %8
  br label %_ZN8facebook5velox6memory14MemoryPoolImpl9sizeAlignEl.exit

_ZN8facebook5velox6memory14MemoryPoolImpl9sizeAlignEl.exit: ; preds = %cond.false.i, %cond.true.i
  %cond.i = phi i64 [ %5, %cond.true.i ], [ %sub.i, %cond.false.i ]
  store i64 %cond.i, ptr %alignedNewSize, align 8
  %9 = load i64, ptr %alignedNewSize, align 8
  call void @_ZN8facebook5velox6memory14MemoryPoolImpl7reserveEmb(ptr noundef nonnull align 8 dereferenceable(480) %this1, i64 noundef %9, i1 noundef zeroext false)
  %allocator_ = getelementptr inbounds %"class.facebook::velox::memory::MemoryPoolImpl", ptr %this1, i32 0, i32 2
  %10 = load ptr, ptr %allocator_, align 8
  %11 = load i64, ptr %alignedNewSize, align 8
  %alignment_ = getelementptr inbounds %"class.facebook::velox::memory::MemoryPool", ptr %this1, i32 0, i32 4
  %12 = load i16, ptr %alignment_, align 4
  %call3 = call noundef ptr @_ZN8facebook5velox6memory15MemoryAllocator13allocateBytesEmt(ptr noundef nonnull align 8 dereferenceable(880) %10, i64 noundef %11, i16 noundef zeroext %12)
  store ptr %call3, ptr %newP, align 8
  %13 = load ptr, ptr %newP, align 8
  %cmp4 = icmp eq ptr %13, null
  br i1 %cmp4, label %if.then5, label %if.end22

if.then5:                                         ; preds = %_ZN8facebook5velox6memory14MemoryPoolImpl9sizeAlignEl.exit
  %14 = load i64, ptr %alignedNewSize, align 8
  call void @_ZN8facebook5velox6memory14MemoryPoolImpl7releaseEmb(ptr noundef nonnull align 8 dereferenceable(480) %this1, i64 noundef %14, i1 noundef zeroext false)
  store ptr %agg.tmp, ptr %this.addr.i33, align 8
  store ptr @.str.7, ptr %s.addr.i, align 8
  %this1.i34 = load ptr, ptr %this.addr.i33, align 8
  %15 = load ptr, ptr %s.addr.i, align 8
  store ptr %this1.i34, ptr %this.addr.i35, align 8
  store ptr %15, ptr %s.addr.i36, align 8
  %this1.i37 = load ptr, ptr %this.addr.i35, align 8
  %16 = load ptr, ptr %s.addr.i36, align 8
  store ptr %16, ptr %this1.i37, align 8
  %size_.i = getelementptr inbounds %"class.fmt::v8::basic_string_view", ptr %this1.i37, i32 0, i32 1
  %17 = load ptr, ptr %s.addr.i36, align 8
  %call.i38 = call noundef i64 @_ZNSt11char_traitsIcE6lengthEPKc(ptr noundef %17)
  store i64 %call.i38, ptr %size_.i, align 8
  %18 = load ptr, ptr %s.addr.i, align 8
  store ptr %18, ptr %.addr.i, align 8
  %19 = load i64, ptr %newSize.addr, align 8
  call void @_ZN8facebook5velox13succinctBytesB5cxx11Emi(ptr sret(%"class.std::__cxx11::basic_string") align 8 %ref.tmp6, i64 noundef %19, i32 noundef 2)
  %20 = load i64, ptr %size.addr, align 8
  invoke void @_ZN8facebook5velox13succinctBytesB5cxx11Emi(ptr sret(%"class.std::__cxx11::basic_string") align 8 %ref.tmp7, i64 noundef %20, i32 noundef 2)
          to label %invoke.cont unwind label %lpad

invoke.cont:                                      ; preds = %if.then5
  %vtable = load ptr, ptr %this1, align 8
  %vfn = getelementptr inbounds ptr, ptr %vtable, i64 46
  %21 = load ptr, ptr %vfn, align 8
  invoke void %21(ptr sret(%"class.std::__cxx11::basic_string") align 8 %ref.tmp8, ptr noundef nonnull align 8 dereferenceable(480) %this1)
          to label %invoke.cont10 unwind label %lpad9

invoke.cont10:                                    ; preds = %invoke.cont
  %allocator_12 = getelementptr inbounds %"class.facebook::velox::memory::MemoryPoolImpl", ptr %this1, i32 0, i32 2
  %22 = load ptr, ptr %allocator_12, align 8
  invoke void @_ZN8facebook5velox6memory15MemoryAllocator25getAndClearFailureMessageB5cxx11Ev(ptr sret(%"class.std::__cxx11::basic_string") align 8 %ref.tmp11, ptr noundef nonnull align 8 dereferenceable(880) %22)
          to label %invoke.cont14 unwind label %lpad13

invoke.cont14:                                    ; preds = %invoke.cont10
  %23 = getelementptr inbounds { ptr, i64 }, ptr %agg.tmp, i32 0, i32 0
  %24 = load ptr, ptr %23, align 8
  %25 = getelementptr inbounds { ptr, i64 }, ptr %agg.tmp, i32 0, i32 1
  %26 = load i64, ptr %25, align 8
  call void @llvm.experimental.noalias.scope.decl(metadata !20)
  store ptr %ref.tmp, ptr %result.ptr.i, align 8, !noalias !20
  store ptr %24, ptr %fmt.i, align 8, !noalias !20
  %27 = getelementptr inbounds { ptr, i64 }, ptr %fmt.i, i32 0, i32 1
  store i64 %26, ptr %27, align 8, !noalias !20
  store ptr @__FUNCTION__._ZN8facebook5velox6memory14MemoryPoolImpl10reallocateEPvll, ptr %args.addr.i, align 8, !noalias !20
  store ptr %ref.tmp6, ptr %args.addr2.i, align 8, !noalias !20
  store ptr %ref.tmp7, ptr %args.addr4.i, align 8, !noalias !20
  store ptr %ref.tmp8, ptr %args.addr6.i, align 8, !noalias !20
  store ptr %ref.tmp11, ptr %args.addr8.i, align 8, !noalias !20
  store ptr %fmt.i, ptr %this.addr.i39, align 8
  %this1.i40 = load ptr, ptr %this.addr.i39, align 8
  call void @llvm.memcpy.p0.p0.i64(ptr align 8 %retval.i, ptr align 8 %this1.i40, i64 16, i1 false)
  %28 = load { ptr, i64 }, ptr %retval.i, align 8
  %29 = extractvalue { ptr, i64 } %28, 0
  store ptr %29, ptr %agg.tmp.i, align 8, !noalias !20
  %30 = getelementptr inbounds { ptr, i64 }, ptr %agg.tmp.i, i32 0, i32 1
  %31 = extractvalue { ptr, i64 } %28, 1
  store i64 %31, ptr %30, align 8, !noalias !20
  %32 = load ptr, ptr %args.addr.i, align 8, !noalias !20
  %33 = load ptr, ptr %args.addr2.i, align 8, !noalias !20
  %34 = load ptr, ptr %args.addr4.i, align 8, !noalias !20
  %35 = load ptr, ptr %args.addr6.i, align 8, !noalias !20
  %36 = load ptr, ptr %args.addr8.i, align 8, !noalias !20
  invoke void @_ZN3fmt2v816make_format_argsINS0_20basic_format_contextINS0_8appenderEcEEJRA11_KcRNSt7__cxx1112basic_stringIcSt11char_traitsIcESaIcEEESE_SE_SE_EEENS0_16format_arg_storeIT_JDpNSt9remove_cvINSt16remove_referenceIT0_E4typeEE4typeEEEEDpOSJ_(ptr sret(%"class.fmt::v8::format_arg_store.152") align 16 %ref.tmp.i, ptr noundef nonnull align 1 dereferenceable(11) %32, ptr noundef nonnull align 8 dereferenceable(32) %33, ptr noundef nonnull align 8 dereferenceable(32) %34, ptr noundef nonnull align 8 dereferenceable(32) %35, ptr noundef nonnull align 8 dereferenceable(32) %36)
          to label %.noexc unwind label %lpad15

.noexc:                                           ; preds = %invoke.cont14
  store ptr %agg.tmp9.i, ptr %this.addr.i41, align 8
  store ptr %ref.tmp.i, ptr %store.addr.i, align 8
  %this1.i42 = load ptr, ptr %this.addr.i41, align 8
  %37 = load ptr, ptr %store.addr.i, align 8
  store ptr %37, ptr %this.addr.i2.i, align 8
  %this1.i3.i = load ptr, ptr %this.addr.i2.i, align 8
  store ptr %this1.i42, ptr %this.addr.i.i, align 8
  store i64 908764, ptr %desc.addr.i.i, align 8
  store ptr %this1.i3.i, ptr %values.addr.i.i, align 8
  %this1.i.i = load ptr, ptr %this.addr.i.i, align 8
  %38 = load i64, ptr %desc.addr.i.i, align 8
  store i64 %38, ptr %this1.i.i, align 8
  %39 = getelementptr inbounds %"class.fmt::v8::basic_format_args", ptr %this1.i.i, i32 0, i32 1
  %40 = load ptr, ptr %values.addr.i.i, align 8
  store ptr %40, ptr %39, align 8
  %41 = load ptr, ptr %agg.tmp.i, align 8, !noalias !20
  %42 = getelementptr inbounds { ptr, i64 }, ptr %agg.tmp.i, i32 0, i32 1
  %43 = load i64, ptr %42, align 8, !noalias !20
  %44 = load i64, ptr %agg.tmp9.i, align 8, !noalias !20
  %45 = getelementptr inbounds { i64, ptr }, ptr %agg.tmp9.i, i32 0, i32 1
  %46 = load ptr, ptr %45, align 8, !noalias !20
  invoke void @_ZN3fmt2v87vformatB5cxx11ENS0_17basic_string_viewIcEENS0_17basic_format_argsINS0_20basic_format_contextINS0_8appenderEcEEEE(ptr sret(%"class.std::__cxx11::basic_string") align 8 %ref.tmp, ptr %41, i64 %43, i64 %44, ptr %46)
          to label %_ZN3fmt2v86formatIJRA11_KcNSt7__cxx1112basic_stringIcSt11char_traitsIcESaIcEEESA_SA_SA_EEESA_NS0_19basic_format_stringIcJDpNS0_13type_identityIT_E4typeEEEEDpOSD_.exit unwind label %lpad15

_ZN3fmt2v86formatIJRA11_KcNSt7__cxx1112basic_stringIcSt11char_traitsIcESaIcEEESA_SA_SA_EEESA_NS0_19basic_format_stringIcJDpNS0_13type_identityIT_E4typeEEEEDpOSD_.exit: ; preds = %.noexc
  br label %invoke.cont16

invoke.cont16:                                    ; preds = %_ZN3fmt2v86formatIJRA11_KcNSt7__cxx1112basic_stringIcSt11char_traitsIcESaIcEEESA_SA_SA_EEESA_NS0_19basic_format_stringIcJDpNS0_13type_identityIT_E4typeEEEEDpOSD_.exit
  invoke void @_ZN8facebook5velox6memory14MemoryPoolImpl23handleAllocationFailureERKNSt7__cxx1112basic_stringIcSt11char_traitsIcESaIcEEE(ptr noundef nonnull align 8 dereferenceable(480) %this1, ptr noundef nonnull align 8 dereferenceable(32) %ref.tmp)
          to label %invoke.cont18 unwind label %lpad17

invoke.cont18:                                    ; preds = %invoke.cont16
  call void @_ZNSt7__cxx1112basic_stringIcSt11char_traitsIcESaIcEED1Ev(ptr noundef nonnull align 8 dereferenceable(32) %ref.tmp) #11
  call void @_ZNSt7__cxx1112basic_stringIcSt11char_traitsIcESaIcEED1Ev(ptr noundef nonnull align 8 dereferenceable(32) %ref.tmp11) #11
  call void @_ZNSt7__cxx1112basic_stringIcSt11char_traitsIcESaIcEED1Ev(ptr noundef nonnull align 8 dereferenceable(32) %ref.tmp8) #11
  call void @_ZNSt7__cxx1112basic_stringIcSt11char_traitsIcESaIcEED1Ev(ptr noundef nonnull align 8 dereferenceable(32) %ref.tmp7) #11
  call void @_ZNSt7__cxx1112basic_stringIcSt11char_traitsIcESaIcEED1Ev(ptr noundef nonnull align 8 dereferenceable(32) %ref.tmp6) #11
  br label %if.end22

lpad:                                             ; preds = %if.then5
  %47 = landingpad { ptr, i32 }
          cleanup
  %48 = extractvalue { ptr, i32 } %47, 0
  store ptr %48, ptr %exn.slot, align 8
  %49 = extractvalue { ptr, i32 } %47, 1
  store i32 %49, ptr %ehselector.slot, align 4
  br label %ehcleanup21

lpad9:                                            ; preds = %invoke.cont
  %50 = landingpad { ptr, i32 }
          cleanup
  %51 = extractvalue { ptr, i32 } %50, 0
  store ptr %51, ptr %exn.slot, align 8
  %52 = extractvalue { ptr, i32 } %50, 1
  store i32 %52, ptr %ehselector.slot, align 4
  br label %ehcleanup20

lpad13:                                           ; preds = %invoke.cont10
  %53 = landingpad { ptr, i32 }
          cleanup
  %54 = extractvalue { ptr, i32 } %53, 0
  store ptr %54, ptr %exn.slot, align 8
  %55 = extractvalue { ptr, i32 } %53, 1
  store i32 %55, ptr %ehselector.slot, align 4
  br label %ehcleanup19

lpad15:                                           ; preds = %.noexc, %invoke.cont14
  %56 = landingpad { ptr, i32 }
          cleanup
  %57 = extractvalue { ptr, i32 } %56, 0
  store ptr %57, ptr %exn.slot, align 8
  %58 = extractvalue { ptr, i32 } %56, 1
  store i32 %58, ptr %ehselector.slot, align 4
  br label %ehcleanup

lpad17:                                           ; preds = %invoke.cont16
  %59 = landingpad { ptr, i32 }
          cleanup
  %60 = extractvalue { ptr, i32 } %59, 0
  store ptr %60, ptr %exn.slot, align 8
  %61 = extractvalue { ptr, i32 } %59, 1
  store i32 %61, ptr %ehselector.slot, align 4
  call void @_ZNSt7__cxx1112basic_stringIcSt11char_traitsIcESaIcEED1Ev(ptr noundef nonnull align 8 dereferenceable(32) %ref.tmp) #11
  br label %ehcleanup

ehcleanup:                                        ; preds = %lpad17, %lpad15
  call void @_ZNSt7__cxx1112basic_stringIcSt11char_traitsIcESaIcEED1Ev(ptr noundef nonnull align 8 dereferenceable(32) %ref.tmp11) #11
  br label %ehcleanup19

ehcleanup19:                                      ; preds = %ehcleanup, %lpad13
  call void @_ZNSt7__cxx1112basic_stringIcSt11char_traitsIcESaIcEED1Ev(ptr noundef nonnull align 8 dereferenceable(32) %ref.tmp8) #11
  br label %ehcleanup20

ehcleanup20:                                      ; preds = %ehcleanup19, %lpad9
  call void @_ZNSt7__cxx1112basic_stringIcSt11char_traitsIcESaIcEED1Ev(ptr noundef nonnull align 8 dereferenceable(32) %ref.tmp7) #11
  br label %ehcleanup21

ehcleanup21:                                      ; preds = %ehcleanup20, %lpad
  call void @_ZNSt7__cxx1112basic_stringIcSt11char_traitsIcESaIcEED1Ev(ptr noundef nonnull align 8 dereferenceable(32) %ref.tmp6) #11
  br label %eh.resume

if.end22:                                         ; preds = %invoke.cont18, %_ZN8facebook5velox6memory14MemoryPoolImpl9sizeAlignEl.exit
  %debugEnabled_ = getelementptr inbounds %"class.facebook::velox::memory::MemoryPool", ptr %this1, i32 0, i32 10
  %62 = load i8, ptr %debugEnabled_, align 1
  %tobool = trunc i8 %62 to i1
  br i1 %tobool, label %if.then23, label %if.end24

if.then23:                                        ; preds = %if.end22
  %63 = load ptr, ptr %newP, align 8
  %64 = load i64, ptr %newSize.addr, align 8
  call void @_ZN8facebook5velox6memory14MemoryPoolImpl14recordAllocDbgEPKvm(ptr noundef nonnull align 8 dereferenceable(480) %this1, ptr noundef %63, i64 noundef %64)
  br label %if.end24

if.end24:                                         ; preds = %if.then23, %if.end22
  %65 = load ptr, ptr %p.addr, align 8
  %cmp25 = icmp ne ptr %65, null
  br i1 %cmp25, label %if.then26, label %if.end30

if.then26:                                        ; preds = %if.end24
  %66 = load ptr, ptr %newP, align 8
  %67 = load ptr, ptr %p.addr, align 8
  %call27 = call noundef nonnull align 8 dereferenceable(8) ptr @_ZSt3minIlERKT_S2_S2_(ptr noundef nonnull align 8 dereferenceable(8) %size.addr, ptr noundef nonnull align 8 dereferenceable(8) %newSize.addr)
  %68 = load i64, ptr %call27, align 8
  call void @llvm.memcpy.p0.p0.i64(ptr align 1 %66, ptr align 1 %67, i64 %68, i1 false)
  %69 = load ptr, ptr %p.addr, align 8
  %70 = load i64, ptr %size.addr, align 8
  %vtable28 = load ptr, ptr %this1, align 8
  %vfn29 = getelementptr inbounds ptr, ptr %vtable28, i64 16
  %71 = load ptr, ptr %vfn29, align 8
  call void %71(ptr noundef nonnull align 8 dereferenceable(480) %this1, ptr noundef %69, i64 noundef %70)
  br label %if.end30

if.end30:                                         ; preds = %if.then26, %if.end24
  %72 = load ptr, ptr %newP, align 8
  ret ptr %72

eh.resume:                                        ; preds = %ehcleanup21
  %exn = load ptr, ptr %exn.slot, align 8
  %sel = load i32, ptr %ehselector.slot, align 4
  %lpad.val = insertvalue { ptr, i32 } poison, ptr %exn, 0
  %lpad.val31 = insertvalue { ptr, i32 } %lpad.val, i32 %sel, 1
  resume { ptr, i32 } %lpad.val31
}

; Function Attrs: mustprogress nounwind uwtable
define linkonce_odr noundef nonnull align 8 dereferenceable(8) ptr @_ZSt3minIlERKT_S2_S2_(ptr noundef nonnull align 8 dereferenceable(8) %__a, ptr noundef nonnull align 8 dereferenceable(8) %__b) #3 comdat {
entry:
  %retval = alloca ptr, align 8
  %__a.addr = alloca ptr, align 8
  %__b.addr = alloca ptr, align 8
  store ptr %__a, ptr %__a.addr, align 8
  store ptr %__b, ptr %__b.addr, align 8
  %0 = load ptr, ptr %__b.addr, align 8
  %1 = load i64, ptr %0, align 8
  %2 = load ptr, ptr %__a.addr, align 8
  %3 = load i64, ptr %2, align 8
  %cmp = icmp slt i64 %1, %3
  br i1 %cmp, label %if.then, label %if.end

if.then:                                          ; preds = %entry
  %4 = load ptr, ptr %__b.addr, align 8
  store ptr %4, ptr %retval, align 8
  br label %return

if.end:                                           ; preds = %entry
  %5 = load ptr, ptr %__a.addr, align 8
  store ptr %5, ptr %retval, align 8
  br label %return

return:                                           ; preds = %if.end, %if.then
  %6 = load ptr, ptr %retval, align 8
  ret ptr %6
}

; Function Attrs: nocallback nofree nounwind willreturn memory(argmem: readwrite)
declare void @llvm.memcpy.p0.p0.i64(ptr noalias nocapture writeonly, ptr noalias nocapture readonly, i64, i1 immarg) #7

; Function Attrs: mustprogress uwtable
define void @_ZN8facebook5velox6memory14MemoryPoolImpl4freeEPvl(ptr noundef nonnull align 8 dereferenceable(480) %this, ptr noundef %p, i64 noundef %size) unnamed_addr #0 align 2 {
entry:
  %this.addr.i = alloca ptr, align 8
  %size.addr.i = alloca i64, align 8
  %remainder.i = alloca i64, align 8
  %this.addr = alloca ptr, align 8
  %p.addr = alloca ptr, align 8
  %size.addr = alloca i64, align 8
  %alignedSize = alloca i64, align 8
  store ptr %this, ptr %this.addr, align 8
  store ptr %p, ptr %p.addr, align 8
  store i64 %size, ptr %size.addr, align 8
  %this1 = load ptr, ptr %this.addr, align 8
  br label %do.body

do.body:                                          ; preds = %entry
  %kind_ = getelementptr inbounds %"class.facebook::velox::memory::MemoryPool", ptr %this1, i32 0, i32 3
  %0 = load i32, ptr %kind_, align 8
  %cmp = icmp ne i32 %0, 0
  br i1 %cmp, label %if.then, label %if.end

if.then:                                          ; preds = %do.body
  call void @llvm.trap()
  br label %if.end

if.end:                                           ; preds = %if.then, %do.body
  %numFrees_ = getelementptr inbounds %"class.facebook::velox::memory::MemoryPoolImpl", ptr %this1, i32 0, i32 14
  %call = call noundef i64 @_ZNSt13__atomic_baseImEppEv(ptr noundef nonnull align 8 dereferenceable(8) %numFrees_) #11
  br label %do.end

do.end:                                           ; preds = %if.end
  %1 = load i64, ptr %size.addr, align 8
  store ptr %this1, ptr %this.addr.i, align 8
  store i64 %1, ptr %size.addr.i, align 8
  %this1.i = load ptr, ptr %this.addr.i, align 8
  %2 = load i64, ptr %size.addr.i, align 8
  %alignment_.i = getelementptr inbounds %"class.facebook::velox::memory::MemoryPool", ptr %this1.i, i32 0, i32 4
  %3 = load i16, ptr %alignment_.i, align 4
  %conv.i = zext i16 %3 to i64
  %rem.i = srem i64 %2, %conv.i
  store i64 %rem.i, ptr %remainder.i, align 8
  %4 = load i64, ptr %remainder.i, align 8
  %cmp.i = icmp eq i64 %4, 0
  br i1 %cmp.i, label %cond.true.i, label %cond.false.i

cond.true.i:                                      ; preds = %do.end
  %5 = load i64, ptr %size.addr.i, align 8
  br label %_ZN8facebook5velox6memory14MemoryPoolImpl9sizeAlignEl.exit

cond.false.i:                                     ; preds = %do.end
  %6 = load i64, ptr %size.addr.i, align 8
  %alignment_2.i = getelementptr inbounds %"class.facebook::velox::memory::MemoryPool", ptr %this1.i, i32 0, i32 4
  %7 = load i16, ptr %alignment_2.i, align 4
  %conv3.i = zext i16 %7 to i64
  %add.i = add nsw i64 %6, %conv3.i
  %8 = load i64, ptr %remainder.i, align 8
  %sub.i = sub nsw i64 %add.i, %8
  br label %_ZN8facebook5velox6memory14MemoryPoolImpl9sizeAlignEl.exit

_ZN8facebook5velox6memory14MemoryPoolImpl9sizeAlignEl.exit: ; preds = %cond.false.i, %cond.true.i
  %cond.i = phi i64 [ %5, %cond.true.i ], [ %sub.i, %cond.false.i ]
  store i64 %cond.i, ptr %alignedSize, align 8
  %debugEnabled_ = getelementptr inbounds %"class.facebook::velox::memory::MemoryPool", ptr %this1, i32 0, i32 10
  %9 = load i8, ptr %debugEnabled_, align 1
  %tobool = trunc i8 %9 to i1
  br i1 %tobool, label %if.then3, label %if.end4

if.then3:                                         ; preds = %_ZN8facebook5velox6memory14MemoryPoolImpl9sizeAlignEl.exit
  %10 = load ptr, ptr %p.addr, align 8
  %11 = load i64, ptr %size.addr, align 8
  call void @_ZN8facebook5velox6memory14MemoryPoolImpl13recordFreeDbgEPKvm(ptr noundef nonnull align 8 dereferenceable(480) %this1, ptr noundef %10, i64 noundef %11)
  br label %if.end4

if.end4:                                          ; preds = %if.then3, %_ZN8facebook5velox6memory14MemoryPoolImpl9sizeAlignEl.exit
  %allocator_ = getelementptr inbounds %"class.facebook::velox::memory::MemoryPoolImpl", ptr %this1, i32 0, i32 2
  %12 = load ptr, ptr %allocator_, align 8
  %13 = load ptr, ptr %p.addr, align 8
  %14 = load i64, ptr %alignedSize, align 8
  %vtable = load ptr, ptr %12, align 8
  %vfn = getelementptr inbounds ptr, ptr %vtable, i64 7
  %15 = load ptr, ptr %vfn, align 8
  call void %15(ptr noundef nonnull align 8 dereferenceable(880) %12, ptr noundef %13, i64 noundef %14) #11
  %16 = load i64, ptr %alignedSize, align 8
  call void @_ZN8facebook5velox6memory14MemoryPoolImpl7releaseEmb(ptr noundef nonnull align 8 dereferenceable(480) %this1, i64 noundef %16, i1 noundef zeroext false)
  ret void
}

; Function Attrs: mustprogress uwtable
define void @_ZN8facebook5velox6memory14MemoryPoolImpl13recordFreeDbgEPKvm(ptr noundef nonnull align 8 dereferenceable(480) %this, ptr noundef %addr, i64 noundef %size) #0 align 2 personality ptr @__gxx_personality_v0 {
entry:
  %this.addr = alloca ptr, align 8
  %addr.addr = alloca ptr, align 8
  %size.addr = alloca i64, align 8
  %l = alloca %"class.std::lock_guard", align 8
  %addrUint64 = alloca i64, align 8
  %allocResult = alloca %"struct.std::__detail::_Node_iterator.119", align 8
  %exn.slot = alloca ptr, align 8
  %ehselector.slot = alloca i32, align 4
  %ref.tmp = alloca %"struct.std::__detail::_Node_iterator.119", align 8
  %allocRecord = alloca %"struct.facebook::velox::memory::MemoryPoolImpl::AllocationRecord", align 8
  %freeStackTrace = alloca %"class.std::__cxx11::basic_string", align 8
  %ref.tmp18 = alloca %"class.facebook::velox::process::StackTrace", align 8
  store ptr %this, ptr %this.addr, align 8
  store ptr %addr, ptr %addr.addr, align 8
  store i64 %size, ptr %size.addr, align 8
  %this1 = load ptr, ptr %this.addr, align 8
  %debugEnabled_ = getelementptr inbounds %"class.facebook::velox::memory::MemoryPool", ptr %this1, i32 0, i32 10
  %0 = load i8, ptr %debugEnabled_, align 1
  %tobool = trunc i8 %0 to i1
  %lnot = xor i1 %tobool, true
  br i1 %lnot, label %if.then, label %if.end

if.then:                                          ; preds = %entry
  call void @llvm.trap()
  br label %if.end

if.end:                                           ; preds = %if.then, %entry
  %call = call noundef zeroext i1 @_ZN8facebook5velox6memory14MemoryPoolImpl13needRecordDbgEb(ptr noundef nonnull align 8 dereferenceable(480) %this1, i1 noundef zeroext false)
  br i1 %call, label %lor.lhs.false, label %if.then2

lor.lhs.false:                                    ; preds = %if.end
  %1 = load ptr, ptr %addr.addr, align 8
  %cmp = icmp eq ptr %1, null
  br i1 %cmp, label %if.then2, label %if.end3

if.then2:                                         ; preds = %lor.lhs.false, %if.end
  br label %return

if.end3:                                          ; preds = %lor.lhs.false
  %debugAllocMutex_ = getelementptr inbounds %"class.facebook::velox::memory::MemoryPoolImpl", ptr %this1, i32 0, i32 18
  call void @_ZNSt10lock_guardISt5mutexEC2ERS0_(ptr noundef nonnull align 8 dereferenceable(8) %l, ptr noundef nonnull align 8 dereferenceable(40) %debugAllocMutex_)
  %2 = load ptr, ptr %addr.addr, align 8
  %3 = ptrtoint ptr %2 to i64
  store i64 %3, ptr %addrUint64, align 8
  %debugAllocRecords_ = getelementptr inbounds %"class.facebook::velox::memory::MemoryPoolImpl", ptr %this1, i32 0, i32 19
  %call4 = invoke ptr @_ZNSt13unordered_mapImN8facebook5velox6memory14MemoryPoolImpl16AllocationRecordESt4hashImESt8equal_toImESaISt4pairIKmS4_EEE4findERSA_(ptr noundef nonnull align 8 dereferenceable(56) %debugAllocRecords_, ptr noundef nonnull align 8 dereferenceable(8) %addrUint64)
          to label %invoke.cont unwind label %lpad

invoke.cont:                                      ; preds = %if.end3
  %coerce.dive = getelementptr inbounds %"struct.std::__detail::_Node_iterator.119", ptr %allocResult, i32 0, i32 0
  %coerce.dive5 = getelementptr inbounds %"struct.std::__detail::_Node_iterator_base.120", ptr %coerce.dive, i32 0, i32 0
  store ptr %call4, ptr %coerce.dive5, align 8
  %debugAllocRecords_6 = getelementptr inbounds %"class.facebook::velox::memory::MemoryPoolImpl", ptr %this1, i32 0, i32 19
  %call7 = call ptr @_ZNSt13unordered_mapImN8facebook5velox6memory14MemoryPoolImpl16AllocationRecordESt4hashImESt8equal_toImESaISt4pairIKmS4_EEE3endEv(ptr noundef nonnull align 8 dereferenceable(56) %debugAllocRecords_6) #11
  %coerce.dive8 = getelementptr inbounds %"struct.std::__detail::_Node_iterator.119", ptr %ref.tmp, i32 0, i32 0
  %coerce.dive9 = getelementptr inbounds %"struct.std::__detail::_Node_iterator_base.120", ptr %coerce.dive8, i32 0, i32 0
  store ptr %call7, ptr %coerce.dive9, align 8
  %call10 = call noundef zeroext i1 @_ZNSt8__detaileqERKNS_19_Node_iterator_baseISt4pairIKmN8facebook5velox6memory14MemoryPoolImpl16AllocationRecordEELb0EEESB_(ptr noundef nonnull align 8 dereferenceable(8) %allocResult, ptr noundef nonnull align 8 dereferenceable(8) %ref.tmp) #11
  br i1 %call10, label %if.then11, label %if.end12

if.then11:                                        ; preds = %invoke.cont
  call void @llvm.trap()
  br label %if.end12

lpad:                                             ; preds = %if.end12, %if.end3
  %4 = landingpad { ptr, i32 }
          cleanup
  %5 = extractvalue { ptr, i32 } %4, 0
  store ptr %5, ptr %exn.slot, align 8
  %6 = extractvalue { ptr, i32 } %4, 1
  store i32 %6, ptr %ehselector.slot, align 4
  br label %ehcleanup29

if.end12:                                         ; preds = %if.then11, %invoke.cont
  %call13 = call noundef ptr @_ZNKSt8__detail14_Node_iteratorISt4pairIKmN8facebook5velox6memory14MemoryPoolImpl16AllocationRecordEELb0ELb0EEptEv(ptr noundef nonnull align 8 dereferenceable(8) %allocResult) #11
  %second = getelementptr inbounds %"struct.std::pair.122", ptr %call13, i32 0, i32 1
  invoke void @_ZN8facebook5velox6memory14MemoryPoolImpl16AllocationRecordC2ERKS3_(ptr noundef nonnull align 8 dereferenceable(40) %allocRecord, ptr noundef nonnull align 8 dereferenceable(40) %second)
          to label %invoke.cont14 unwind label %lpad

invoke.cont14:                                    ; preds = %if.end12
  %size15 = getelementptr inbounds %"struct.facebook::velox::memory::MemoryPoolImpl::AllocationRecord", ptr %allocRecord, i32 0, i32 0
  %7 = load i64, ptr %size15, align 8
  %8 = load i64, ptr %size.addr, align 8
  %cmp16 = icmp ne i64 %7, %8
  br i1 %cmp16, label %if.then17, label %if.end25

if.then17:                                        ; preds = %invoke.cont14
  invoke void @_ZN8facebook5velox7process10StackTraceC1Ei(ptr noundef nonnull align 8 dereferenceable(96) %ref.tmp18, i32 noundef 0)
          to label %invoke.cont20 unwind label %lpad19

invoke.cont20:                                    ; preds = %if.then17
  %call23 = invoke noundef nonnull align 8 dereferenceable(32) ptr @_ZNK8facebook5velox7process10StackTrace8toStringB5cxx11Ev(ptr noundef nonnull align 8 dereferenceable(96) %ref.tmp18)
          to label %invoke.cont22 unwind label %lpad21

invoke.cont22:                                    ; preds = %invoke.cont20
  invoke void @_ZNSt7__cxx1112basic_stringIcSt11char_traitsIcESaIcEEC1ERKS4_(ptr noundef nonnull align 8 dereferenceable(32) %freeStackTrace, ptr noundef nonnull align 8 dereferenceable(32) %call23)
          to label %invoke.cont24 unwind label %lpad21

invoke.cont24:                                    ; preds = %invoke.cont22
  call void @_ZN8facebook5velox7process10StackTraceD2Ev(ptr noundef nonnull align 8 dereferenceable(96) %ref.tmp18) #11
  call void @llvm.trap()
  call void @_ZNSt7__cxx1112basic_stringIcSt11char_traitsIcESaIcEED1Ev(ptr noundef nonnull align 8 dereferenceable(32) %freeStackTrace) #11
  br label %if.end25

lpad19:                                           ; preds = %if.end25, %if.then17
  %9 = landingpad { ptr, i32 }
          cleanup
  %10 = extractvalue { ptr, i32 } %9, 0
  store ptr %10, ptr %exn.slot, align 8
  %11 = extractvalue { ptr, i32 } %9, 1
  store i32 %11, ptr %ehselector.slot, align 4
  br label %ehcleanup

lpad21:                                           ; preds = %invoke.cont22, %invoke.cont20
  %12 = landingpad { ptr, i32 }
          cleanup
  %13 = extractvalue { ptr, i32 } %12, 0
  store ptr %13, ptr %exn.slot, align 8
  %14 = extractvalue { ptr, i32 } %12, 1
  store i32 %14, ptr %ehselector.slot, align 4
  call void @_ZN8facebook5velox7process10StackTraceD2Ev(ptr noundef nonnull align 8 dereferenceable(96) %ref.tmp18) #11
  br label %ehcleanup

if.end25:                                         ; preds = %invoke.cont24, %invoke.cont14
  %debugAllocRecords_26 = getelementptr inbounds %"class.facebook::velox::memory::MemoryPoolImpl", ptr %this1, i32 0, i32 19
  %call28 = invoke noundef i64 @_ZNSt13unordered_mapImN8facebook5velox6memory14MemoryPoolImpl16AllocationRecordESt4hashImESt8equal_toImESaISt4pairIKmS4_EEE5eraseERSA_(ptr noundef nonnull align 8 dereferenceable(56) %debugAllocRecords_26, ptr noundef nonnull align 8 dereferenceable(8) %addrUint64)
          to label %invoke.cont27 unwind label %lpad19

invoke.cont27:                                    ; preds = %if.end25
  call void @_ZN8facebook5velox6memory14MemoryPoolImpl16AllocationRecordD2Ev(ptr noundef nonnull align 8 dereferenceable(40) %allocRecord) #11
  call void @_ZNSt10lock_guardISt5mutexED2Ev(ptr noundef nonnull align 8 dereferenceable(8) %l) #11
  br label %return

return:                                           ; preds = %invoke.cont27, %if.then2
  ret void

ehcleanup:                                        ; preds = %lpad21, %lpad19
  call void @_ZN8facebook5velox6memory14MemoryPoolImpl16AllocationRecordD2Ev(ptr noundef nonnull align 8 dereferenceable(40) %allocRecord) #11
  br label %ehcleanup29

ehcleanup29:                                      ; preds = %ehcleanup, %lpad
  call void @_ZNSt10lock_guardISt5mutexED2Ev(ptr noundef nonnull align 8 dereferenceable(8) %l) #11
  br label %eh.resume

eh.resume:                                        ; preds = %ehcleanup29
  %exn = load ptr, ptr %exn.slot, align 8
  %sel = load i32, ptr %ehselector.slot, align 4
  %lpad.val = insertvalue { ptr, i32 } poison, ptr %exn, 0
  %lpad.val30 = insertvalue { ptr, i32 } %lpad.val, i32 %sel, 1
  resume { ptr, i32 } %lpad.val30
}

; Function Attrs: mustprogress uwtable
define void @_ZN8facebook5velox6memory14MemoryPoolImpl21allocateNonContiguousEmRNS1_10AllocationEm(ptr noundef nonnull align 8 dereferenceable(480) %this, i64 noundef %numPages, ptr noundef nonnull align 8 dereferenceable(36) %out, i64 noundef %minSizeClass) unnamed_addr #0 align 2 personality ptr @__gxx_personality_v0 {
entry:
  %.addr.i = alloca ptr, align 8
  %this.addr.i2.i = alloca ptr, align 8
  %desc.addr.i.i = alloca i64, align 8
  %values.addr.i.i = alloca ptr, align 8
  %this.addr.i.i = alloca ptr, align 8
  %this.addr.i62 = alloca ptr, align 8
  %store.addr.i = alloca ptr, align 8
  %retval.i = alloca %"class.fmt::v8::basic_string_view", align 8
  %this.addr.i60 = alloca ptr, align 8
  %this.addr.i56 = alloca ptr, align 8
  %s.addr.i57 = alloca ptr, align 8
  %this.addr.i = alloca ptr, align 8
  %s.addr.i = alloca ptr, align 8
  %result.ptr.i = alloca ptr, align 8
  %fmt.i = alloca %"class.fmt::v8::basic_format_string.92", align 8
  %args.addr.i = alloca ptr, align 8
  %args.addr2.i = alloca ptr, align 8
  %args.addr4.i = alloca ptr, align 8
  %args.addr6.i = alloca ptr, align 8
  %agg.tmp.i = alloca %"class.fmt::v8::basic_string_view", align 8
  %agg.tmp7.i = alloca %"class.fmt::v8::basic_format_args", align 8
  %ref.tmp.i = alloca %"class.fmt::v8::format_arg_store.153", align 16
  %this.addr = alloca ptr, align 8
  %numPages.addr = alloca i64, align 8
  %out.addr = alloca ptr, align 8
  %minSizeClass.addr = alloca i64, align 8
  %ref.tmp = alloca %"class.std::__cxx11::basic_string", align 8
  %ref.tmp9 = alloca %"class.std::allocator", align 1
  %exn.slot = alloca ptr, align 8
  %ehselector.slot = alloca i32, align 4
  %agg.tmp = alloca %"class.std::function.89", align 8
  %ref.tmp14 = alloca %class.anon, align 8
  %ref.tmp25 = alloca %"class.std::__cxx11::basic_string", align 8
  %agg.tmp26 = alloca %"class.fmt::v8::basic_format_string.92", align 8
  %ref.tmp27 = alloca %"class.std::__cxx11::basic_string", align 8
  %ref.tmp28 = alloca %"class.std::__cxx11::basic_string", align 8
  store ptr %this, ptr %this.addr, align 8
  store i64 %numPages, ptr %numPages.addr, align 8
  store ptr %out, ptr %out.addr, align 8
  store i64 %minSizeClass, ptr %minSizeClass.addr, align 8
  %this1 = load ptr, ptr %this.addr, align 8
  br label %do.body

do.body:                                          ; preds = %entry
  %kind_ = getelementptr inbounds %"class.facebook::velox::memory::MemoryPool", ptr %this1, i32 0, i32 3
  %0 = load i32, ptr %kind_, align 8
  %cmp = icmp ne i32 %0, 0
  br i1 %cmp, label %if.then, label %if.end

if.then:                                          ; preds = %do.body
  call void @llvm.trap()
  br label %if.end

if.end:                                           ; preds = %if.then, %do.body
  %numAllocs_ = getelementptr inbounds %"class.facebook::velox::memory::MemoryPoolImpl", ptr %this1, i32 0, i32 13
  %call = call noundef i64 @_ZNSt13__atomic_baseImEppEv(ptr noundef nonnull align 8 dereferenceable(8) %numAllocs_) #11
  br label %do.end

do.end:                                           ; preds = %if.end
  %1 = load ptr, ptr %out.addr, align 8
  %call2 = call noundef zeroext i1 @_ZNK8facebook5velox6memory10Allocation5emptyEv(ptr noundef nonnull align 8 dereferenceable(36) %1)
  br i1 %call2, label %if.end5, label %if.then3

if.then3:                                         ; preds = %do.end
  %numFrees_ = getelementptr inbounds %"class.facebook::velox::memory::MemoryPoolImpl", ptr %this1, i32 0, i32 14
  %call4 = call noundef i64 @_ZNSt13__atomic_baseImEppEv(ptr noundef nonnull align 8 dereferenceable(8) %numFrees_) #11
  br label %if.end5

if.end5:                                          ; preds = %if.then3, %do.end
  %2 = load i64, ptr %numPages.addr, align 8
  %cmp6 = icmp ugt i64 %2, 0
  %lnot = xor i1 %cmp6, true
  br i1 %lnot, label %if.then7, label %if.end8

if.then7:                                         ; preds = %if.end5
  call void @llvm.trap()
  br label %if.end8

if.end8:                                          ; preds = %if.then7, %if.end5
  call void @_ZNSaIcEC1Ev(ptr noundef nonnull align 1 dereferenceable(1) %ref.tmp9) #11
  invoke void @_ZNSt7__cxx1112basic_stringIcSt11char_traitsIcESaIcEEC2IS3_EEPKcRKS3_(ptr noundef nonnull align 8 dereferenceable(32) %ref.tmp, ptr noundef @.str.8, ptr noundef nonnull align 1 dereferenceable(1) %ref.tmp9)
          to label %invoke.cont unwind label %lpad

invoke.cont:                                      ; preds = %if.end8
  invoke void @_ZN8facebook5velox6common8testutil9TestValue6adjustERKNSt7__cxx1112basic_stringIcSt11char_traitsIcESaIcEEEPv(ptr noundef nonnull align 8 dereferenceable(32) %ref.tmp, ptr noundef %this1)
          to label %invoke.cont11 unwind label %lpad10

invoke.cont11:                                    ; preds = %invoke.cont
  call void @_ZNSt7__cxx1112basic_stringIcSt11char_traitsIcESaIcEED1Ev(ptr noundef nonnull align 8 dereferenceable(32) %ref.tmp) #11
  call void @_ZNSaIcED1Ev(ptr noundef nonnull align 1 dereferenceable(1) %ref.tmp9) #11
  %debugEnabled_ = getelementptr inbounds %"class.facebook::velox::memory::MemoryPool", ptr %this1, i32 0, i32 10
  %3 = load i8, ptr %debugEnabled_, align 1
  %tobool = trunc i8 %3 to i1
  br i1 %tobool, label %if.then12, label %if.end13

if.then12:                                        ; preds = %invoke.cont11
  %4 = load ptr, ptr %out.addr, align 8
  call void @_ZN8facebook5velox6memory14MemoryPoolImpl13recordFreeDbgERKNS1_10AllocationE(ptr noundef nonnull align 8 dereferenceable(480) %this1, ptr noundef nonnull align 8 dereferenceable(36) %4)
  br label %if.end13

lpad:                                             ; preds = %if.end8
  %5 = landingpad { ptr, i32 }
          cleanup
  %6 = extractvalue { ptr, i32 } %5, 0
  store ptr %6, ptr %exn.slot, align 8
  %7 = extractvalue { ptr, i32 } %5, 1
  store i32 %7, ptr %ehselector.slot, align 4
  br label %ehcleanup

lpad10:                                           ; preds = %invoke.cont
  %8 = landingpad { ptr, i32 }
          cleanup
  %9 = extractvalue { ptr, i32 } %8, 0
  store ptr %9, ptr %exn.slot, align 8
  %10 = extractvalue { ptr, i32 } %8, 1
  store i32 %10, ptr %ehselector.slot, align 4
  call void @_ZNSt7__cxx1112basic_stringIcSt11char_traitsIcESaIcEED1Ev(ptr noundef nonnull align 8 dereferenceable(32) %ref.tmp) #11
  br label %ehcleanup

ehcleanup:                                        ; preds = %lpad10, %lpad
  call void @_ZNSaIcED1Ev(ptr noundef nonnull align 1 dereferenceable(1) %ref.tmp9) #11
  br label %eh.resume

if.end13:                                         ; preds = %if.then12, %invoke.cont11
  %allocator_ = getelementptr inbounds %"class.facebook::velox::memory::MemoryPoolImpl", ptr %this1, i32 0, i32 2
  %11 = load ptr, ptr %allocator_, align 8
  %12 = load i64, ptr %numPages.addr, align 8
  %13 = load ptr, ptr %out.addr, align 8
  %14 = getelementptr inbounds %class.anon, ptr %ref.tmp14, i32 0, i32 0
  store ptr %this1, ptr %14, align 8
  call void @"_ZNSt8functionIFvlbEEC2IZN8facebook5velox6memory14MemoryPoolImpl21allocateNonContiguousEmRNS5_10AllocationEmE3$_0vEEOT_"(ptr noundef nonnull align 8 dereferenceable(32) %agg.tmp, ptr noundef nonnull align 8 dereferenceable(8) %ref.tmp14) #11
  %15 = load i64, ptr %minSizeClass.addr, align 8
  %call17 = invoke noundef zeroext i1 @_ZN8facebook5velox6memory15MemoryAllocator21allocateNonContiguousEmRNS1_10AllocationESt8functionIFvlbEEm(ptr noundef nonnull align 8 dereferenceable(880) %11, i64 noundef %12, ptr noundef nonnull align 8 dereferenceable(36) %13, ptr noundef %agg.tmp, i64 noundef %15)
          to label %invoke.cont16 unwind label %lpad15

invoke.cont16:                                    ; preds = %if.end13
  %lnot18 = xor i1 %call17, true
  call void @_ZNSt8functionIFvlbEED2Ev(ptr noundef nonnull align 8 dereferenceable(32) %agg.tmp) #11
  br i1 %lnot18, label %if.then20, label %if.end39

if.then20:                                        ; preds = %invoke.cont16
  %16 = load ptr, ptr %out.addr, align 8
  %call21 = call noundef zeroext i1 @_ZNK8facebook5velox6memory10Allocation5emptyEv(ptr noundef nonnull align 8 dereferenceable(36) %16)
  %lnot22 = xor i1 %call21, true
  br i1 %lnot22, label %if.then23, label %if.end24

if.then23:                                        ; preds = %if.then20
  call void @llvm.trap()
  br label %if.end24

lpad15:                                           ; preds = %if.end13
  %17 = landingpad { ptr, i32 }
          cleanup
  %18 = extractvalue { ptr, i32 } %17, 0
  store ptr %18, ptr %exn.slot, align 8
  %19 = extractvalue { ptr, i32 } %17, 1
  store i32 %19, ptr %ehselector.slot, align 4
  call void @_ZNSt8functionIFvlbEED2Ev(ptr noundef nonnull align 8 dereferenceable(32) %agg.tmp) #11
  br label %eh.resume

if.end24:                                         ; preds = %if.then23, %if.then20
  store ptr %agg.tmp26, ptr %this.addr.i, align 8
  store ptr @.str.9, ptr %s.addr.i, align 8
  %this1.i = load ptr, ptr %this.addr.i, align 8
  %20 = load ptr, ptr %s.addr.i, align 8
  store ptr %this1.i, ptr %this.addr.i56, align 8
  store ptr %20, ptr %s.addr.i57, align 8
  %this1.i58 = load ptr, ptr %this.addr.i56, align 8
  %21 = load ptr, ptr %s.addr.i57, align 8
  store ptr %21, ptr %this1.i58, align 8
  %size_.i = getelementptr inbounds %"class.fmt::v8::basic_string_view", ptr %this1.i58, i32 0, i32 1
  %22 = load ptr, ptr %s.addr.i57, align 8
  %call.i59 = call noundef i64 @_ZNSt11char_traitsIcE6lengthEPKc(ptr noundef %22)
  store i64 %call.i59, ptr %size_.i, align 8
  %23 = load ptr, ptr %s.addr.i, align 8
  store ptr %23, ptr %.addr.i, align 8
  %vtable = load ptr, ptr %this1, align 8
  %vfn = getelementptr inbounds ptr, ptr %vtable, i64 46
  %24 = load ptr, ptr %vfn, align 8
  call void %24(ptr sret(%"class.std::__cxx11::basic_string") align 8 %ref.tmp27, ptr noundef nonnull align 8 dereferenceable(480) %this1)
  %allocator_29 = getelementptr inbounds %"class.facebook::velox::memory::MemoryPoolImpl", ptr %this1, i32 0, i32 2
  %25 = load ptr, ptr %allocator_29, align 8
  invoke void @_ZN8facebook5velox6memory15MemoryAllocator25getAndClearFailureMessageB5cxx11Ev(ptr sret(%"class.std::__cxx11::basic_string") align 8 %ref.tmp28, ptr noundef nonnull align 8 dereferenceable(880) %25)
          to label %invoke.cont31 unwind label %lpad30

invoke.cont31:                                    ; preds = %if.end24
  %26 = getelementptr inbounds { ptr, i64 }, ptr %agg.tmp26, i32 0, i32 0
  %27 = load ptr, ptr %26, align 8
  %28 = getelementptr inbounds { ptr, i64 }, ptr %agg.tmp26, i32 0, i32 1
  %29 = load i64, ptr %28, align 8
  call void @llvm.experimental.noalias.scope.decl(metadata !23)
  store ptr %ref.tmp25, ptr %result.ptr.i, align 8, !noalias !23
  store ptr %27, ptr %fmt.i, align 8, !noalias !23
  %30 = getelementptr inbounds { ptr, i64 }, ptr %fmt.i, i32 0, i32 1
  store i64 %29, ptr %30, align 8, !noalias !23
  store ptr @__FUNCTION__._ZN8facebook5velox6memory14MemoryPoolImpl21allocateNonContiguousEmRNS1_10AllocationEm, ptr %args.addr.i, align 8, !noalias !23
  store ptr %numPages.addr, ptr %args.addr2.i, align 8, !noalias !23
  store ptr %ref.tmp27, ptr %args.addr4.i, align 8, !noalias !23
  store ptr %ref.tmp28, ptr %args.addr6.i, align 8, !noalias !23
  store ptr %fmt.i, ptr %this.addr.i60, align 8
  %this1.i61 = load ptr, ptr %this.addr.i60, align 8
  call void @llvm.memcpy.p0.p0.i64(ptr align 8 %retval.i, ptr align 8 %this1.i61, i64 16, i1 false)
  %31 = load { ptr, i64 }, ptr %retval.i, align 8
  %32 = extractvalue { ptr, i64 } %31, 0
  store ptr %32, ptr %agg.tmp.i, align 8, !noalias !23
  %33 = getelementptr inbounds { ptr, i64 }, ptr %agg.tmp.i, i32 0, i32 1
  %34 = extractvalue { ptr, i64 } %31, 1
  store i64 %34, ptr %33, align 8, !noalias !23
  %35 = load ptr, ptr %args.addr.i, align 8, !noalias !23
  %36 = load ptr, ptr %args.addr2.i, align 8, !noalias !23
  %37 = load ptr, ptr %args.addr4.i, align 8, !noalias !23
  %38 = load ptr, ptr %args.addr6.i, align 8, !noalias !23
  invoke void @_ZN3fmt2v816make_format_argsINS0_20basic_format_contextINS0_8appenderEcEEJRA22_KcRmRNSt7__cxx1112basic_stringIcSt11char_traitsIcESaIcEEESF_EEENS0_16format_arg_storeIT_JDpNSt9remove_cvINSt16remove_referenceIT0_E4typeEE4typeEEEEDpOSK_(ptr sret(%"class.fmt::v8::format_arg_store.153") align 16 %ref.tmp.i, ptr noundef nonnull align 1 dereferenceable(22) %35, ptr noundef nonnull align 8 dereferenceable(8) %36, ptr noundef nonnull align 8 dereferenceable(32) %37, ptr noundef nonnull align 8 dereferenceable(32) %38)
          to label %.noexc unwind label %lpad32

.noexc:                                           ; preds = %invoke.cont31
  store ptr %agg.tmp7.i, ptr %this.addr.i62, align 8
  store ptr %ref.tmp.i, ptr %store.addr.i, align 8
  %this1.i63 = load ptr, ptr %this.addr.i62, align 8
  %39 = load ptr, ptr %store.addr.i, align 8
  store ptr %39, ptr %this.addr.i.i, align 8
  %this1.i.i = load ptr, ptr %this.addr.i.i, align 8
  store ptr %this1.i63, ptr %this.addr.i2.i, align 8
  store i64 56652, ptr %desc.addr.i.i, align 8
  store ptr %this1.i.i, ptr %values.addr.i.i, align 8
  %this1.i3.i = load ptr, ptr %this.addr.i2.i, align 8
  %40 = load i64, ptr %desc.addr.i.i, align 8
  store i64 %40, ptr %this1.i3.i, align 8
  %41 = getelementptr inbounds %"class.fmt::v8::basic_format_args", ptr %this1.i3.i, i32 0, i32 1
  %42 = load ptr, ptr %values.addr.i.i, align 8
  store ptr %42, ptr %41, align 8
  %43 = load ptr, ptr %agg.tmp.i, align 8, !noalias !23
  %44 = getelementptr inbounds { ptr, i64 }, ptr %agg.tmp.i, i32 0, i32 1
  %45 = load i64, ptr %44, align 8, !noalias !23
  %46 = load i64, ptr %agg.tmp7.i, align 8, !noalias !23
  %47 = getelementptr inbounds { i64, ptr }, ptr %agg.tmp7.i, i32 0, i32 1
  %48 = load ptr, ptr %47, align 8, !noalias !23
  invoke void @_ZN3fmt2v87vformatB5cxx11ENS0_17basic_string_viewIcEENS0_17basic_format_argsINS0_20basic_format_contextINS0_8appenderEcEEEE(ptr sret(%"class.std::__cxx11::basic_string") align 8 %ref.tmp25, ptr %43, i64 %45, i64 %46, ptr %48)
          to label %_ZN3fmt2v86formatIJRA22_KcRmNSt7__cxx1112basic_stringIcSt11char_traitsIcESaIcEEESB_EEESB_NS0_19basic_format_stringIcJDpNS0_13type_identityIT_E4typeEEEEDpOSE_.exit unwind label %lpad32

_ZN3fmt2v86formatIJRA22_KcRmNSt7__cxx1112basic_stringIcSt11char_traitsIcESaIcEEESB_EEESB_NS0_19basic_format_stringIcJDpNS0_13type_identityIT_E4typeEEEEDpOSE_.exit: ; preds = %.noexc
  br label %invoke.cont33

invoke.cont33:                                    ; preds = %_ZN3fmt2v86formatIJRA22_KcRmNSt7__cxx1112basic_stringIcSt11char_traitsIcESaIcEEESB_EEESB_NS0_19basic_format_stringIcJDpNS0_13type_identityIT_E4typeEEEEDpOSE_.exit
  invoke void @_ZN8facebook5velox6memory14MemoryPoolImpl23handleAllocationFailureERKNSt7__cxx1112basic_stringIcSt11char_traitsIcESaIcEEE(ptr noundef nonnull align 8 dereferenceable(480) %this1, ptr noundef nonnull align 8 dereferenceable(32) %ref.tmp25)
          to label %invoke.cont35 unwind label %lpad34

invoke.cont35:                                    ; preds = %invoke.cont33
  call void @_ZNSt7__cxx1112basic_stringIcSt11char_traitsIcESaIcEED1Ev(ptr noundef nonnull align 8 dereferenceable(32) %ref.tmp25) #11
  call void @_ZNSt7__cxx1112basic_stringIcSt11char_traitsIcESaIcEED1Ev(ptr noundef nonnull align 8 dereferenceable(32) %ref.tmp28) #11
  call void @_ZNSt7__cxx1112basic_stringIcSt11char_traitsIcESaIcEED1Ev(ptr noundef nonnull align 8 dereferenceable(32) %ref.tmp27) #11
  br label %if.end39

lpad30:                                           ; preds = %if.end24
  %49 = landingpad { ptr, i32 }
          cleanup
  %50 = extractvalue { ptr, i32 } %49, 0
  store ptr %50, ptr %exn.slot, align 8
  %51 = extractvalue { ptr, i32 } %49, 1
  store i32 %51, ptr %ehselector.slot, align 4
  br label %ehcleanup38

lpad32:                                           ; preds = %.noexc, %invoke.cont31
  %52 = landingpad { ptr, i32 }
          cleanup
  %53 = extractvalue { ptr, i32 } %52, 0
  store ptr %53, ptr %exn.slot, align 8
  %54 = extractvalue { ptr, i32 } %52, 1
  store i32 %54, ptr %ehselector.slot, align 4
  br label %ehcleanup37

lpad34:                                           ; preds = %invoke.cont33
  %55 = landingpad { ptr, i32 }
          cleanup
  %56 = extractvalue { ptr, i32 } %55, 0
  store ptr %56, ptr %exn.slot, align 8
  %57 = extractvalue { ptr, i32 } %55, 1
  store i32 %57, ptr %ehselector.slot, align 4
  call void @_ZNSt7__cxx1112basic_stringIcSt11char_traitsIcESaIcEED1Ev(ptr noundef nonnull align 8 dereferenceable(32) %ref.tmp25) #11
  br label %ehcleanup37

ehcleanup37:                                      ; preds = %lpad34, %lpad32
  call void @_ZNSt7__cxx1112basic_stringIcSt11char_traitsIcESaIcEED1Ev(ptr noundef nonnull align 8 dereferenceable(32) %ref.tmp28) #11
  br label %ehcleanup38

ehcleanup38:                                      ; preds = %ehcleanup37, %lpad30
  call void @_ZNSt7__cxx1112basic_stringIcSt11char_traitsIcESaIcEED1Ev(ptr noundef nonnull align 8 dereferenceable(32) %ref.tmp27) #11
  br label %eh.resume

if.end39:                                         ; preds = %invoke.cont35, %invoke.cont16
  %debugEnabled_40 = getelementptr inbounds %"class.facebook::velox::memory::MemoryPool", ptr %this1, i32 0, i32 10
  %58 = load i8, ptr %debugEnabled_40, align 1
  %tobool41 = trunc i8 %58 to i1
  br i1 %tobool41, label %if.then42, label %if.end43

if.then42:                                        ; preds = %if.end39
  %59 = load ptr, ptr %out.addr, align 8
  call void @_ZN8facebook5velox6memory14MemoryPoolImpl14recordAllocDbgERKNS1_10AllocationE(ptr noundef nonnull align 8 dereferenceable(480) %this1, ptr noundef nonnull align 8 dereferenceable(36) %59)
  br label %if.end43

if.end43:                                         ; preds = %if.then42, %if.end39
  %60 = load ptr, ptr %out.addr, align 8
  %call44 = call noundef zeroext i1 @_ZNK8facebook5velox6memory10Allocation5emptyEv(ptr noundef nonnull align 8 dereferenceable(36) %60)
  %lnot45 = xor i1 %call44, true
  %lnot46 = xor i1 %lnot45, true
  br i1 %lnot46, label %if.then47, label %if.end48

if.then47:                                        ; preds = %if.end43
  call void @llvm.trap()
  br label %if.end48

if.end48:                                         ; preds = %if.then47, %if.end43
  %61 = load ptr, ptr %out.addr, align 8
  %call49 = call noundef ptr @_ZNK8facebook5velox6memory10Allocation4poolEv(ptr noundef nonnull align 8 dereferenceable(36) %61)
  %cmp50 = icmp eq ptr %call49, null
  %lnot51 = xor i1 %cmp50, true
  br i1 %lnot51, label %if.then52, label %if.end53

if.then52:                                        ; preds = %if.end48
  call void @llvm.trap()
  br label %if.end53

if.end53:                                         ; preds = %if.then52, %if.end48
  %62 = load ptr, ptr %out.addr, align 8
  call void @_ZN8facebook5velox6memory10Allocation7setPoolEPNS1_10MemoryPoolE(ptr noundef nonnull align 8 dereferenceable(36) %62, ptr noundef %this1)
  ret void

eh.resume:                                        ; preds = %ehcleanup38, %lpad15, %ehcleanup
  %exn = load ptr, ptr %exn.slot, align 8
  %sel = load i32, ptr %ehselector.slot, align 4
  %lpad.val = insertvalue { ptr, i32 } poison, ptr %exn, 0
  %lpad.val54 = insertvalue { ptr, i32 } %lpad.val, i32 %sel, 1
  resume { ptr, i32 } %lpad.val54
}

; Function Attrs: mustprogress uwtable
define linkonce_odr noundef zeroext i1 @_ZNK8facebook5velox6memory10Allocation5emptyEv(ptr noundef nonnull align 8 dereferenceable(36) %this) #0 comdat align 2 {
entry:
  %this.addr.i = alloca ptr, align 8
  %this.addr = alloca ptr, align 8
  store ptr %this, ptr %this.addr, align 8
  %this1 = load ptr, ptr %this.addr, align 8
  store ptr %this1, ptr %this.addr.i, align 8
  %this1.i = load ptr, ptr %this.addr.i, align 8
  %numPages_.i = getelementptr inbounds %"class.facebook::velox::memory::Allocation", ptr %this1.i, i32 0, i32 2
  %0 = load i32, ptr %numPages_.i, align 8
  %cmp.i = icmp eq i32 %0, 0
  %conv.i = zext i1 %cmp.i to i32
  %runs_.i = getelementptr inbounds %"class.facebook::velox::memory::Allocation", ptr %this1.i, i32 0, i32 1
  %call.i = call noundef zeroext i1 @_ZNKSt6vectorIN8facebook5velox6memory10Allocation7PageRunESaIS4_EE5emptyEv(ptr noundef nonnull align 8 dereferenceable(24) %runs_.i) #11
  %conv2.i = zext i1 %call.i to i32
  %cmp3.i = icmp eq i32 %conv.i, %conv2.i
  %lnot.i = xor i1 %cmp3.i, true
  br i1 %lnot.i, label %if.then.i, label %if.end.i

if.then.i:                                        ; preds = %entry
  call void @llvm.trap()
  br label %if.end.i

if.end.i:                                         ; preds = %if.then.i, %entry
  %numPages_5.i = getelementptr inbounds %"class.facebook::velox::memory::Allocation", ptr %this1.i, i32 0, i32 2
  %1 = load i32, ptr %numPages_5.i, align 8
  %cmp6.i = icmp ne i32 %1, 0
  br i1 %cmp6.i, label %lor.end.i, label %lor.rhs.i

lor.rhs.i:                                        ; preds = %if.end.i
  %2 = load ptr, ptr %this1.i, align 8
  %cmp7.i = icmp eq ptr %2, null
  br label %lor.end.i

lor.end.i:                                        ; preds = %lor.rhs.i, %if.end.i
  %3 = phi i1 [ true, %if.end.i ], [ %cmp7.i, %lor.rhs.i ]
  %lnot8.i = xor i1 %3, true
  br i1 %lnot8.i, label %if.then10.i, label %_ZNK8facebook5velox6memory10Allocation11sanityCheckEv.exit

if.then10.i:                                      ; preds = %lor.end.i
  call void @llvm.trap()
  br label %_ZNK8facebook5velox6memory10Allocation11sanityCheckEv.exit

_ZNK8facebook5velox6memory10Allocation11sanityCheckEv.exit: ; preds = %if.then10.i, %lor.end.i
  %numPages_ = getelementptr inbounds %"class.facebook::velox::memory::Allocation", ptr %this1, i32 0, i32 2
  %4 = load i32, ptr %numPages_, align 8
  %cmp = icmp eq i32 %4, 0
  ret i1 %cmp
}

; Function Attrs: mustprogress nounwind uwtable
define linkonce_odr void @_ZN8facebook5velox6common8testutil9TestValue6adjustERKNSt7__cxx1112basic_stringIcSt11char_traitsIcESaIcEEEPv(ptr noundef nonnull align 8 dereferenceable(32) %injectionPoint, ptr noundef %testData) #3 comdat align 2 {
entry:
  %injectionPoint.addr = alloca ptr, align 8
  %testData.addr = alloca ptr, align 8
  store ptr %injectionPoint, ptr %injectionPoint.addr, align 8
  store ptr %testData, ptr %testData.addr, align 8
  ret void
}

; Function Attrs: mustprogress uwtable
define void @_ZN8facebook5velox6memory14MemoryPoolImpl13recordFreeDbgERKNS1_10AllocationE(ptr noundef nonnull align 8 dereferenceable(480) %this, ptr noundef nonnull align 8 dereferenceable(36) %allocation) #0 align 2 {
entry:
  %this.addr = alloca ptr, align 8
  %allocation.addr = alloca ptr, align 8
  %ref.tmp = alloca %"class.facebook::velox::memory::Allocation::PageRun", align 8
  store ptr %this, ptr %this.addr, align 8
  store ptr %allocation, ptr %allocation.addr, align 8
  %this1 = load ptr, ptr %this.addr, align 8
  %debugEnabled_ = getelementptr inbounds %"class.facebook::velox::memory::MemoryPool", ptr %this1, i32 0, i32 10
  %0 = load i8, ptr %debugEnabled_, align 1
  %tobool = trunc i8 %0 to i1
  %lnot = xor i1 %tobool, true
  br i1 %lnot, label %if.then, label %if.end

if.then:                                          ; preds = %entry
  call void @llvm.trap()
  br label %if.end

if.end:                                           ; preds = %if.then, %entry
  %call = call noundef zeroext i1 @_ZN8facebook5velox6memory14MemoryPoolImpl13needRecordDbgEb(ptr noundef nonnull align 8 dereferenceable(480) %this1, i1 noundef zeroext false)
  br i1 %call, label %lor.lhs.false, label %if.then3

lor.lhs.false:                                    ; preds = %if.end
  %1 = load ptr, ptr %allocation.addr, align 8
  %call2 = call noundef zeroext i1 @_ZNK8facebook5velox6memory10Allocation5emptyEv(ptr noundef nonnull align 8 dereferenceable(36) %1)
  br i1 %call2, label %if.then3, label %if.end4

if.then3:                                         ; preds = %lor.lhs.false, %if.end
  br label %return

if.end4:                                          ; preds = %lor.lhs.false
  %2 = load ptr, ptr %allocation.addr, align 8
  %call5 = call i64 @_ZNK8facebook5velox6memory10Allocation5runAtEi(ptr noundef nonnull align 8 dereferenceable(36) %2, i32 noundef 0)
  %coerce.dive = getelementptr inbounds %"class.facebook::velox::memory::Allocation::PageRun", ptr %ref.tmp, i32 0, i32 0
  store i64 %call5, ptr %coerce.dive, align 8
  %call6 = call noundef ptr @_ZNK8facebook5velox6memory10Allocation7PageRun4dataIhEEPT_v(ptr noundef nonnull align 8 dereferenceable(8) %ref.tmp)
  %3 = load ptr, ptr %allocation.addr, align 8
  %call7 = call noundef i64 @_ZNK8facebook5velox6memory10Allocation8byteSizeEv(ptr noundef nonnull align 8 dereferenceable(36) %3)
  call void @_ZN8facebook5velox6memory14MemoryPoolImpl13recordFreeDbgEPKvm(ptr noundef nonnull align 8 dereferenceable(480) %this1, ptr noundef %call6, i64 noundef %call7)
  br label %return

return:                                           ; preds = %if.end4, %if.then3
  ret void
}

declare noundef zeroext i1 @_ZN8facebook5velox6memory15MemoryAllocator21allocateNonContiguousEmRNS1_10AllocationESt8functionIFvlbEEm(ptr noundef nonnull align 8 dereferenceable(880), i64 noundef, ptr noundef nonnull align 8 dereferenceable(36), ptr noundef, i64 noundef) #1

; Function Attrs: mustprogress nounwind uwtable
define internal void @"_ZNSt8functionIFvlbEEC2IZN8facebook5velox6memory14MemoryPoolImpl21allocateNonContiguousEmRNS5_10AllocationEmE3$_0vEEOT_"(ptr noundef nonnull align 8 dereferenceable(32) %this, ptr noundef nonnull align 8 dereferenceable(8) %__f) unnamed_addr #3 align 2 {
entry:
  %this.addr = alloca ptr, align 8
  %__f.addr = alloca ptr, align 8
  store ptr %this, ptr %this.addr, align 8
  store ptr %__f, ptr %__f.addr, align 8
  %this1 = load ptr, ptr %this.addr, align 8
  %0 = getelementptr inbounds i8, ptr %this1, i64 0
  call void @llvm.memset.p0.i64(ptr align 8 %0, i8 0, i64 24, i1 false)
  call void @_ZNSt14_Function_baseC2Ev(ptr noundef nonnull align 8 dereferenceable(24) %this1) #11
  %_M_invoker = getelementptr inbounds %"class.std::function.89", ptr %this1, i32 0, i32 1
  store ptr null, ptr %_M_invoker, align 8
  %1 = load ptr, ptr %__f.addr, align 8
  %call = call noundef zeroext i1 @"_ZNSt14_Function_base13_Base_managerIZN8facebook5velox6memory14MemoryPoolImpl21allocateNonContiguousEmRNS3_10AllocationEmE3$_0E21_M_not_empty_functionIS7_EEbRKT_"(ptr noundef nonnull align 8 dereferenceable(8) %1) #11
  br i1 %call, label %if.then, label %if.end

if.then:                                          ; preds = %entry
  %_M_functor = getelementptr inbounds %"class.std::_Function_base", ptr %this1, i32 0, i32 0
  %2 = load ptr, ptr %__f.addr, align 8
  call void @"_ZNSt14_Function_base13_Base_managerIZN8facebook5velox6memory14MemoryPoolImpl21allocateNonContiguousEmRNS3_10AllocationEmE3$_0E15_M_init_functorIS7_EEvRSt9_Any_dataOT_"(ptr noundef nonnull align 8 dereferenceable(16) %_M_functor, ptr noundef nonnull align 8 dereferenceable(8) %2) #11
  %_M_invoker2 = getelementptr inbounds %"class.std::function.89", ptr %this1, i32 0, i32 1
  store ptr @"_ZNSt17_Function_handlerIFvlbEZN8facebook5velox6memory14MemoryPoolImpl21allocateNonContiguousEmRNS3_10AllocationEmE3$_0E9_M_invokeERKSt9_Any_dataOlOb", ptr %_M_invoker2, align 8
  %_M_manager = getelementptr inbounds %"class.std::_Function_base", ptr %this1, i32 0, i32 1
  store ptr @"_ZNSt17_Function_handlerIFvlbEZN8facebook5velox6memory14MemoryPoolImpl21allocateNonContiguousEmRNS3_10AllocationEmE3$_0E10_M_managerERSt9_Any_dataRKS9_St18_Manager_operation", ptr %_M_manager, align 8
  br label %if.end

if.end:                                           ; preds = %if.then, %entry
  ret void
}

; Function Attrs: mustprogress nounwind uwtable
define linkonce_odr void @_ZNSt8functionIFvlbEED2Ev(ptr noundef nonnull align 8 dereferenceable(32) %this) unnamed_addr #3 comdat align 2 {
entry:
  %this.addr = alloca ptr, align 8
  store ptr %this, ptr %this.addr, align 8
  %this1 = load ptr, ptr %this.addr, align 8
  call void @_ZNSt14_Function_baseD2Ev(ptr noundef nonnull align 8 dereferenceable(24) %this1) #11
  ret void
}

; Function Attrs: mustprogress uwtable
define void @_ZN8facebook5velox6memory14MemoryPoolImpl14recordAllocDbgERKNS1_10AllocationE(ptr noundef nonnull align 8 dereferenceable(480) %this, ptr noundef nonnull align 8 dereferenceable(36) %allocation) #0 align 2 {
entry:
  %this.addr = alloca ptr, align 8
  %allocation.addr = alloca ptr, align 8
  %ref.tmp = alloca %"class.facebook::velox::memory::Allocation::PageRun", align 8
  store ptr %this, ptr %this.addr, align 8
  store ptr %allocation, ptr %allocation.addr, align 8
  %this1 = load ptr, ptr %this.addr, align 8
  %debugEnabled_ = getelementptr inbounds %"class.facebook::velox::memory::MemoryPool", ptr %this1, i32 0, i32 10
  %0 = load i8, ptr %debugEnabled_, align 1
  %tobool = trunc i8 %0 to i1
  %lnot = xor i1 %tobool, true
  br i1 %lnot, label %if.then, label %if.end

if.then:                                          ; preds = %entry
  call void @llvm.trap()
  br label %if.end

if.end:                                           ; preds = %if.then, %entry
  %call = call noundef zeroext i1 @_ZN8facebook5velox6memory14MemoryPoolImpl13needRecordDbgEb(ptr noundef nonnull align 8 dereferenceable(480) %this1, i1 noundef zeroext true)
  br i1 %call, label %lor.lhs.false, label %if.then3

lor.lhs.false:                                    ; preds = %if.end
  %1 = load ptr, ptr %allocation.addr, align 8
  %call2 = call noundef zeroext i1 @_ZNK8facebook5velox6memory10Allocation5emptyEv(ptr noundef nonnull align 8 dereferenceable(36) %1)
  br i1 %call2, label %if.then3, label %if.end4

if.then3:                                         ; preds = %lor.lhs.false, %if.end
  br label %return

if.end4:                                          ; preds = %lor.lhs.false
  %2 = load ptr, ptr %allocation.addr, align 8
  %call5 = call i64 @_ZNK8facebook5velox6memory10Allocation5runAtEi(ptr noundef nonnull align 8 dereferenceable(36) %2, i32 noundef 0)
  %coerce.dive = getelementptr inbounds %"class.facebook::velox::memory::Allocation::PageRun", ptr %ref.tmp, i32 0, i32 0
  store i64 %call5, ptr %coerce.dive, align 8
  %call6 = call noundef ptr @_ZNK8facebook5velox6memory10Allocation7PageRun4dataIhEEPT_v(ptr noundef nonnull align 8 dereferenceable(8) %ref.tmp)
  %3 = load ptr, ptr %allocation.addr, align 8
  %call7 = call noundef i64 @_ZNK8facebook5velox6memory10Allocation8byteSizeEv(ptr noundef nonnull align 8 dereferenceable(36) %3)
  call void @_ZN8facebook5velox6memory14MemoryPoolImpl14recordAllocDbgEPKvm(ptr noundef nonnull align 8 dereferenceable(480) %this1, ptr noundef %call6, i64 noundef %call7)
  br label %return

return:                                           ; preds = %if.end4, %if.then3
  ret void
}

; Function Attrs: mustprogress nounwind uwtable
define linkonce_odr noundef ptr @_ZNK8facebook5velox6memory10Allocation4poolEv(ptr noundef nonnull align 8 dereferenceable(36) %this) #3 comdat align 2 {
entry:
  %this.addr = alloca ptr, align 8
  store ptr %this, ptr %this.addr, align 8
  %this1 = load ptr, ptr %this.addr, align 8
  %pool_ = getelementptr inbounds %"class.facebook::velox::memory::Allocation", ptr %this1, i32 0, i32 0
  %0 = load ptr, ptr %pool_, align 8
  ret ptr %0
}

; Function Attrs: mustprogress nounwind uwtable
define linkonce_odr void @_ZN8facebook5velox6memory10Allocation7setPoolEPNS1_10MemoryPoolE(ptr noundef nonnull align 8 dereferenceable(36) %this, ptr noundef %pool) #3 comdat align 2 {
entry:
  %this.addr = alloca ptr, align 8
  %pool.addr = alloca ptr, align 8
  store ptr %this, ptr %this.addr, align 8
  store ptr %pool, ptr %pool.addr, align 8
  %this1 = load ptr, ptr %this.addr, align 8
  %0 = load ptr, ptr %pool.addr, align 8
  %cmp = icmp ne ptr %0, null
  %lnot = xor i1 %cmp, true
  br i1 %lnot, label %if.then, label %if.end

if.then:                                          ; preds = %entry
  call void @llvm.trap()
  br label %if.end

if.end:                                           ; preds = %if.then, %entry
  %pool_ = getelementptr inbounds %"class.facebook::velox::memory::Allocation", ptr %this1, i32 0, i32 0
  %1 = load ptr, ptr %pool_, align 8
  %cmp2 = icmp eq ptr %1, null
  %lnot3 = xor i1 %cmp2, true
  br i1 %lnot3, label %if.then4, label %if.end5

if.then4:                                         ; preds = %if.end
  call void @llvm.trap()
  br label %if.end5

if.end5:                                          ; preds = %if.then4, %if.end
  %2 = load ptr, ptr %pool.addr, align 8
  %pool_6 = getelementptr inbounds %"class.facebook::velox::memory::Allocation", ptr %this1, i32 0, i32 0
  store ptr %2, ptr %pool_6, align 8
  ret void
}

; Function Attrs: mustprogress uwtable
define void @_ZN8facebook5velox6memory14MemoryPoolImpl17freeNonContiguousERNS1_10AllocationE(ptr noundef nonnull align 8 dereferenceable(480) %this, ptr noundef nonnull align 8 dereferenceable(36) %allocation) unnamed_addr #0 align 2 {
entry:
  %this.addr = alloca ptr, align 8
  %allocation.addr = alloca ptr, align 8
  %freedBytes = alloca i64, align 8
  store ptr %this, ptr %this.addr, align 8
  store ptr %allocation, ptr %allocation.addr, align 8
  %this1 = load ptr, ptr %this.addr, align 8
  br label %do.body

do.body:                                          ; preds = %entry
  %kind_ = getelementptr inbounds %"class.facebook::velox::memory::MemoryPool", ptr %this1, i32 0, i32 3
  %0 = load i32, ptr %kind_, align 8
  %cmp = icmp ne i32 %0, 0
  br i1 %cmp, label %if.then, label %if.end

if.then:                                          ; preds = %do.body
  call void @llvm.trap()
  br label %if.end

if.end:                                           ; preds = %if.then, %do.body
  %numFrees_ = getelementptr inbounds %"class.facebook::velox::memory::MemoryPoolImpl", ptr %this1, i32 0, i32 14
  %call = call noundef i64 @_ZNSt13__atomic_baseImEppEv(ptr noundef nonnull align 8 dereferenceable(8) %numFrees_) #11
  br label %do.end

do.end:                                           ; preds = %if.end
  %debugEnabled_ = getelementptr inbounds %"class.facebook::velox::memory::MemoryPool", ptr %this1, i32 0, i32 10
  %1 = load i8, ptr %debugEnabled_, align 1
  %tobool = trunc i8 %1 to i1
  br i1 %tobool, label %if.then2, label %if.end3

if.then2:                                         ; preds = %do.end
  %2 = load ptr, ptr %allocation.addr, align 8
  call void @_ZN8facebook5velox6memory14MemoryPoolImpl13recordFreeDbgERKNS1_10AllocationE(ptr noundef nonnull align 8 dereferenceable(480) %this1, ptr noundef nonnull align 8 dereferenceable(36) %2)
  br label %if.end3

if.end3:                                          ; preds = %if.then2, %do.end
  %allocator_ = getelementptr inbounds %"class.facebook::velox::memory::MemoryPoolImpl", ptr %this1, i32 0, i32 2
  %3 = load ptr, ptr %allocator_, align 8
  %4 = load ptr, ptr %allocation.addr, align 8
  %vtable = load ptr, ptr %3, align 8
  %vfn = getelementptr inbounds ptr, ptr %vtable, i64 5
  %5 = load ptr, ptr %vfn, align 8
  %call4 = call noundef i64 %5(ptr noundef nonnull align 8 dereferenceable(880) %3, ptr noundef nonnull align 8 dereferenceable(36) %4)
  store i64 %call4, ptr %freedBytes, align 8
  %6 = load ptr, ptr %allocation.addr, align 8
  %call5 = call noundef zeroext i1 @_ZNK8facebook5velox6memory10Allocation5emptyEv(ptr noundef nonnull align 8 dereferenceable(36) %6)
  %lnot = xor i1 %call5, true
  br i1 %lnot, label %if.then6, label %if.end7

if.then6:                                         ; preds = %if.end3
  call void @llvm.trap()
  br label %if.end7

if.end7:                                          ; preds = %if.then6, %if.end3
  %7 = load i64, ptr %freedBytes, align 8
  call void @_ZN8facebook5velox6memory14MemoryPoolImpl7releaseEmb(ptr noundef nonnull align 8 dereferenceable(480) %this1, i64 noundef %7, i1 noundef zeroext false)
  ret void
}

; Function Attrs: mustprogress uwtable
define noundef i64 @_ZNK8facebook5velox6memory14MemoryPoolImpl16largestSizeClassEv(ptr noundef nonnull align 8 dereferenceable(480) %this) unnamed_addr #0 align 2 {
entry:
  %this.addr = alloca ptr, align 8
  store ptr %this, ptr %this.addr, align 8
  %this1 = load ptr, ptr %this.addr, align 8
  %allocator_ = getelementptr inbounds %"class.facebook::velox::memory::MemoryPoolImpl", ptr %this1, i32 0, i32 2
  %0 = load ptr, ptr %allocator_, align 8
  %vtable = load ptr, ptr %0, align 8
  %vfn = getelementptr inbounds ptr, ptr %vtable, i64 10
  %1 = load ptr, ptr %vfn, align 8
  %call = call noundef i64 %1(ptr noundef nonnull align 8 dereferenceable(880) %0)
  ret i64 %call
}

; Function Attrs: mustprogress uwtable
define noundef nonnull align 8 dereferenceable(24) ptr @_ZNK8facebook5velox6memory14MemoryPoolImpl11sizeClassesEv(ptr noundef nonnull align 8 dereferenceable(480) %this) unnamed_addr #0 align 2 {
entry:
  %this.addr = alloca ptr, align 8
  store ptr %this, ptr %this.addr, align 8
  %this1 = load ptr, ptr %this.addr, align 8
  %allocator_ = getelementptr inbounds %"class.facebook::velox::memory::MemoryPoolImpl", ptr %this1, i32 0, i32 2
  %0 = load ptr, ptr %allocator_, align 8
  %vtable = load ptr, ptr %0, align 8
  %vfn = getelementptr inbounds ptr, ptr %vtable, i64 11
  %1 = load ptr, ptr %vfn, align 8
  %call = call noundef nonnull align 8 dereferenceable(24) ptr %1(ptr noundef nonnull align 8 dereferenceable(880) %0)
  ret ptr %call
}

; Function Attrs: mustprogress uwtable
define void @_ZN8facebook5velox6memory14MemoryPoolImpl18allocateContiguousEmRNS1_20ContiguousAllocationEm(ptr noundef nonnull align 8 dereferenceable(480) %this, i64 noundef %numPages, ptr noundef nonnull align 8 dereferenceable(32) %out, i64 noundef %maxPages) unnamed_addr #0 align 2 personality ptr @__gxx_personality_v0 {
entry:
  %.addr.i = alloca ptr, align 8
  %this.addr.i2.i = alloca ptr, align 8
  %desc.addr.i.i = alloca i64, align 8
  %values.addr.i.i = alloca ptr, align 8
  %this.addr.i.i = alloca ptr, align 8
  %this.addr.i53 = alloca ptr, align 8
  %store.addr.i = alloca ptr, align 8
  %retval.i = alloca %"class.fmt::v8::basic_string_view", align 8
  %this.addr.i51 = alloca ptr, align 8
  %this.addr.i47 = alloca ptr, align 8
  %s.addr.i48 = alloca ptr, align 8
  %this.addr.i = alloca ptr, align 8
  %s.addr.i = alloca ptr, align 8
  %result.ptr.i = alloca ptr, align 8
  %fmt.i = alloca %"class.fmt::v8::basic_format_string.94", align 8
  %args.addr.i = alloca ptr, align 8
  %args.addr2.i = alloca ptr, align 8
  %args.addr4.i = alloca ptr, align 8
  %args.addr6.i = alloca ptr, align 8
  %agg.tmp.i = alloca %"class.fmt::v8::basic_string_view", align 8
  %agg.tmp7.i = alloca %"class.fmt::v8::basic_format_args", align 8
  %ref.tmp.i = alloca %"class.fmt::v8::format_arg_store.154", align 16
  %this.addr = alloca ptr, align 8
  %numPages.addr = alloca i64, align 8
  %out.addr = alloca ptr, align 8
  %maxPages.addr = alloca i64, align 8
  %agg.tmp = alloca %"class.std::function.89", align 8
  %ref.tmp = alloca %class.anon.93, align 8
  %exn.slot = alloca ptr, align 8
  %ehselector.slot = alloca i32, align 4
  %ref.tmp18 = alloca %"class.std::__cxx11::basic_string", align 8
  %agg.tmp19 = alloca %"class.fmt::v8::basic_format_string.94", align 8
  %ref.tmp20 = alloca %"class.std::__cxx11::basic_string", align 8
  %ref.tmp21 = alloca %"class.std::__cxx11::basic_string", align 8
  store ptr %this, ptr %this.addr, align 8
  store i64 %numPages, ptr %numPages.addr, align 8
  store ptr %out, ptr %out.addr, align 8
  store i64 %maxPages, ptr %maxPages.addr, align 8
  %this1 = load ptr, ptr %this.addr, align 8
  br label %do.body

do.body:                                          ; preds = %entry
  %kind_ = getelementptr inbounds %"class.facebook::velox::memory::MemoryPool", ptr %this1, i32 0, i32 3
  %0 = load i32, ptr %kind_, align 8
  %cmp = icmp ne i32 %0, 0
  br i1 %cmp, label %if.then, label %if.end

if.then:                                          ; preds = %do.body
  call void @llvm.trap()
  br label %if.end

if.end:                                           ; preds = %if.then, %do.body
  %numAllocs_ = getelementptr inbounds %"class.facebook::velox::memory::MemoryPoolImpl", ptr %this1, i32 0, i32 13
  %call = call noundef i64 @_ZNSt13__atomic_baseImEppEv(ptr noundef nonnull align 8 dereferenceable(8) %numAllocs_) #11
  br label %do.end

do.end:                                           ; preds = %if.end
  %1 = load ptr, ptr %out.addr, align 8
  %call2 = call noundef zeroext i1 @_ZNK8facebook5velox6memory20ContiguousAllocation5emptyEv(ptr noundef nonnull align 8 dereferenceable(32) %1)
  br i1 %call2, label %if.end5, label %if.then3

if.then3:                                         ; preds = %do.end
  %numFrees_ = getelementptr inbounds %"class.facebook::velox::memory::MemoryPoolImpl", ptr %this1, i32 0, i32 14
  %call4 = call noundef i64 @_ZNSt13__atomic_baseImEppEv(ptr noundef nonnull align 8 dereferenceable(8) %numFrees_) #11
  br label %if.end5

if.end5:                                          ; preds = %if.then3, %do.end
  %2 = load i64, ptr %numPages.addr, align 8
  %cmp6 = icmp ugt i64 %2, 0
  %lnot = xor i1 %cmp6, true
  br i1 %lnot, label %if.then7, label %if.end8

if.then7:                                         ; preds = %if.end5
  call void @llvm.trap()
  br label %if.end8

if.end8:                                          ; preds = %if.then7, %if.end5
  %debugEnabled_ = getelementptr inbounds %"class.facebook::velox::memory::MemoryPool", ptr %this1, i32 0, i32 10
  %3 = load i8, ptr %debugEnabled_, align 1
  %tobool = trunc i8 %3 to i1
  br i1 %tobool, label %if.then9, label %if.end10

if.then9:                                         ; preds = %if.end8
  %4 = load ptr, ptr %out.addr, align 8
  call void @_ZN8facebook5velox6memory14MemoryPoolImpl13recordFreeDbgERKNS1_20ContiguousAllocationE(ptr noundef nonnull align 8 dereferenceable(480) %this1, ptr noundef nonnull align 8 dereferenceable(32) %4)
  br label %if.end10

if.end10:                                         ; preds = %if.then9, %if.end8
  %allocator_ = getelementptr inbounds %"class.facebook::velox::memory::MemoryPoolImpl", ptr %this1, i32 0, i32 2
  %5 = load ptr, ptr %allocator_, align 8
  %6 = load i64, ptr %numPages.addr, align 8
  %7 = load ptr, ptr %out.addr, align 8
  %8 = getelementptr inbounds %class.anon.93, ptr %ref.tmp, i32 0, i32 0
  store ptr %this1, ptr %8, align 8
  call void @"_ZNSt8functionIFvlbEEC2IZN8facebook5velox6memory14MemoryPoolImpl18allocateContiguousEmRNS5_20ContiguousAllocationEmE3$_0vEEOT_"(ptr noundef nonnull align 8 dereferenceable(32) %agg.tmp, ptr noundef nonnull align 8 dereferenceable(8) %ref.tmp) #11
  %9 = load i64, ptr %maxPages.addr, align 8
  %call11 = invoke noundef zeroext i1 @_ZN8facebook5velox6memory15MemoryAllocator18allocateContiguousEmPNS1_10AllocationERNS1_20ContiguousAllocationESt8functionIFvlbEEm(ptr noundef nonnull align 8 dereferenceable(880) %5, i64 noundef %6, ptr noundef null, ptr noundef nonnull align 8 dereferenceable(32) %7, ptr noundef %agg.tmp, i64 noundef %9)
          to label %invoke.cont unwind label %lpad

invoke.cont:                                      ; preds = %if.end10
  %lnot12 = xor i1 %call11, true
  call void @_ZNSt8functionIFvlbEED2Ev(ptr noundef nonnull align 8 dereferenceable(32) %agg.tmp) #11
  br i1 %lnot12, label %if.then13, label %if.end30

if.then13:                                        ; preds = %invoke.cont
  %10 = load ptr, ptr %out.addr, align 8
  %call14 = call noundef zeroext i1 @_ZNK8facebook5velox6memory20ContiguousAllocation5emptyEv(ptr noundef nonnull align 8 dereferenceable(32) %10)
  %lnot15 = xor i1 %call14, true
  br i1 %lnot15, label %if.then16, label %if.end17

if.then16:                                        ; preds = %if.then13
  call void @llvm.trap()
  br label %if.end17

lpad:                                             ; preds = %if.end10
  %11 = landingpad { ptr, i32 }
          cleanup
  %12 = extractvalue { ptr, i32 } %11, 0
  store ptr %12, ptr %exn.slot, align 8
  %13 = extractvalue { ptr, i32 } %11, 1
  store i32 %13, ptr %ehselector.slot, align 4
  call void @_ZNSt8functionIFvlbEED2Ev(ptr noundef nonnull align 8 dereferenceable(32) %agg.tmp) #11
  br label %eh.resume

if.end17:                                         ; preds = %if.then16, %if.then13
  store ptr %agg.tmp19, ptr %this.addr.i, align 8
  store ptr @.str.9, ptr %s.addr.i, align 8
  %this1.i = load ptr, ptr %this.addr.i, align 8
  %14 = load ptr, ptr %s.addr.i, align 8
  store ptr %this1.i, ptr %this.addr.i47, align 8
  store ptr %14, ptr %s.addr.i48, align 8
  %this1.i49 = load ptr, ptr %this.addr.i47, align 8
  %15 = load ptr, ptr %s.addr.i48, align 8
  store ptr %15, ptr %this1.i49, align 8
  %size_.i = getelementptr inbounds %"class.fmt::v8::basic_string_view", ptr %this1.i49, i32 0, i32 1
  %16 = load ptr, ptr %s.addr.i48, align 8
  %call.i50 = call noundef i64 @_ZNSt11char_traitsIcE6lengthEPKc(ptr noundef %16)
  store i64 %call.i50, ptr %size_.i, align 8
  %17 = load ptr, ptr %s.addr.i, align 8
  store ptr %17, ptr %.addr.i, align 8
  %vtable = load ptr, ptr %this1, align 8
  %vfn = getelementptr inbounds ptr, ptr %vtable, i64 46
  %18 = load ptr, ptr %vfn, align 8
  call void %18(ptr sret(%"class.std::__cxx11::basic_string") align 8 %ref.tmp20, ptr noundef nonnull align 8 dereferenceable(480) %this1)
  %allocator_22 = getelementptr inbounds %"class.facebook::velox::memory::MemoryPoolImpl", ptr %this1, i32 0, i32 2
  %19 = load ptr, ptr %allocator_22, align 8
  invoke void @_ZN8facebook5velox6memory15MemoryAllocator25getAndClearFailureMessageB5cxx11Ev(ptr sret(%"class.std::__cxx11::basic_string") align 8 %ref.tmp21, ptr noundef nonnull align 8 dereferenceable(880) %19)
          to label %invoke.cont24 unwind label %lpad23

invoke.cont24:                                    ; preds = %if.end17
  %20 = getelementptr inbounds { ptr, i64 }, ptr %agg.tmp19, i32 0, i32 0
  %21 = load ptr, ptr %20, align 8
  %22 = getelementptr inbounds { ptr, i64 }, ptr %agg.tmp19, i32 0, i32 1
  %23 = load i64, ptr %22, align 8
  call void @llvm.experimental.noalias.scope.decl(metadata !26)
  store ptr %ref.tmp18, ptr %result.ptr.i, align 8, !noalias !26
  store ptr %21, ptr %fmt.i, align 8, !noalias !26
  %24 = getelementptr inbounds { ptr, i64 }, ptr %fmt.i, i32 0, i32 1
  store i64 %23, ptr %24, align 8, !noalias !26
  store ptr @__FUNCTION__._ZN8facebook5velox6memory14MemoryPoolImpl18allocateContiguousEmRNS1_20ContiguousAllocationEm, ptr %args.addr.i, align 8, !noalias !26
  store ptr %numPages.addr, ptr %args.addr2.i, align 8, !noalias !26
  store ptr %ref.tmp20, ptr %args.addr4.i, align 8, !noalias !26
  store ptr %ref.tmp21, ptr %args.addr6.i, align 8, !noalias !26
  store ptr %fmt.i, ptr %this.addr.i51, align 8
  %this1.i52 = load ptr, ptr %this.addr.i51, align 8
  call void @llvm.memcpy.p0.p0.i64(ptr align 8 %retval.i, ptr align 8 %this1.i52, i64 16, i1 false)
  %25 = load { ptr, i64 }, ptr %retval.i, align 8
  %26 = extractvalue { ptr, i64 } %25, 0
  store ptr %26, ptr %agg.tmp.i, align 8, !noalias !26
  %27 = getelementptr inbounds { ptr, i64 }, ptr %agg.tmp.i, i32 0, i32 1
  %28 = extractvalue { ptr, i64 } %25, 1
  store i64 %28, ptr %27, align 8, !noalias !26
  %29 = load ptr, ptr %args.addr.i, align 8, !noalias !26
  %30 = load ptr, ptr %args.addr2.i, align 8, !noalias !26
  %31 = load ptr, ptr %args.addr4.i, align 8, !noalias !26
  %32 = load ptr, ptr %args.addr6.i, align 8, !noalias !26
  invoke void @_ZN3fmt2v816make_format_argsINS0_20basic_format_contextINS0_8appenderEcEEJRA19_KcRmRNSt7__cxx1112basic_stringIcSt11char_traitsIcESaIcEEESF_EEENS0_16format_arg_storeIT_JDpNSt9remove_cvINSt16remove_referenceIT0_E4typeEE4typeEEEEDpOSK_(ptr sret(%"class.fmt::v8::format_arg_store.154") align 16 %ref.tmp.i, ptr noundef nonnull align 1 dereferenceable(19) %29, ptr noundef nonnull align 8 dereferenceable(8) %30, ptr noundef nonnull align 8 dereferenceable(32) %31, ptr noundef nonnull align 8 dereferenceable(32) %32)
          to label %.noexc unwind label %lpad25

.noexc:                                           ; preds = %invoke.cont24
  store ptr %agg.tmp7.i, ptr %this.addr.i53, align 8
  store ptr %ref.tmp.i, ptr %store.addr.i, align 8
  %this1.i54 = load ptr, ptr %this.addr.i53, align 8
  %33 = load ptr, ptr %store.addr.i, align 8
  store ptr %33, ptr %this.addr.i.i, align 8
  %this1.i.i = load ptr, ptr %this.addr.i.i, align 8
  store ptr %this1.i54, ptr %this.addr.i2.i, align 8
  store i64 56652, ptr %desc.addr.i.i, align 8
  store ptr %this1.i.i, ptr %values.addr.i.i, align 8
  %this1.i3.i = load ptr, ptr %this.addr.i2.i, align 8
  %34 = load i64, ptr %desc.addr.i.i, align 8
  store i64 %34, ptr %this1.i3.i, align 8
  %35 = getelementptr inbounds %"class.fmt::v8::basic_format_args", ptr %this1.i3.i, i32 0, i32 1
  %36 = load ptr, ptr %values.addr.i.i, align 8
  store ptr %36, ptr %35, align 8
  %37 = load ptr, ptr %agg.tmp.i, align 8, !noalias !26
  %38 = getelementptr inbounds { ptr, i64 }, ptr %agg.tmp.i, i32 0, i32 1
  %39 = load i64, ptr %38, align 8, !noalias !26
  %40 = load i64, ptr %agg.tmp7.i, align 8, !noalias !26
  %41 = getelementptr inbounds { i64, ptr }, ptr %agg.tmp7.i, i32 0, i32 1
  %42 = load ptr, ptr %41, align 8, !noalias !26
  invoke void @_ZN3fmt2v87vformatB5cxx11ENS0_17basic_string_viewIcEENS0_17basic_format_argsINS0_20basic_format_contextINS0_8appenderEcEEEE(ptr sret(%"class.std::__cxx11::basic_string") align 8 %ref.tmp18, ptr %37, i64 %39, i64 %40, ptr %42)
          to label %_ZN3fmt2v86formatIJRA19_KcRmNSt7__cxx1112basic_stringIcSt11char_traitsIcESaIcEEESB_EEESB_NS0_19basic_format_stringIcJDpNS0_13type_identityIT_E4typeEEEEDpOSE_.exit unwind label %lpad25

_ZN3fmt2v86formatIJRA19_KcRmNSt7__cxx1112basic_stringIcSt11char_traitsIcESaIcEEESB_EEESB_NS0_19basic_format_stringIcJDpNS0_13type_identityIT_E4typeEEEEDpOSE_.exit: ; preds = %.noexc
  br label %invoke.cont26

invoke.cont26:                                    ; preds = %_ZN3fmt2v86formatIJRA19_KcRmNSt7__cxx1112basic_stringIcSt11char_traitsIcESaIcEEESB_EEESB_NS0_19basic_format_stringIcJDpNS0_13type_identityIT_E4typeEEEEDpOSE_.exit
  invoke void @_ZN8facebook5velox6memory14MemoryPoolImpl23handleAllocationFailureERKNSt7__cxx1112basic_stringIcSt11char_traitsIcESaIcEEE(ptr noundef nonnull align 8 dereferenceable(480) %this1, ptr noundef nonnull align 8 dereferenceable(32) %ref.tmp18)
          to label %invoke.cont28 unwind label %lpad27

invoke.cont28:                                    ; preds = %invoke.cont26
  call void @_ZNSt7__cxx1112basic_stringIcSt11char_traitsIcESaIcEED1Ev(ptr noundef nonnull align 8 dereferenceable(32) %ref.tmp18) #11
  call void @_ZNSt7__cxx1112basic_stringIcSt11char_traitsIcESaIcEED1Ev(ptr noundef nonnull align 8 dereferenceable(32) %ref.tmp21) #11
  call void @_ZNSt7__cxx1112basic_stringIcSt11char_traitsIcESaIcEED1Ev(ptr noundef nonnull align 8 dereferenceable(32) %ref.tmp20) #11
  br label %if.end30

lpad23:                                           ; preds = %if.end17
  %43 = landingpad { ptr, i32 }
          cleanup
  %44 = extractvalue { ptr, i32 } %43, 0
  store ptr %44, ptr %exn.slot, align 8
  %45 = extractvalue { ptr, i32 } %43, 1
  store i32 %45, ptr %ehselector.slot, align 4
  br label %ehcleanup29

lpad25:                                           ; preds = %.noexc, %invoke.cont24
  %46 = landingpad { ptr, i32 }
          cleanup
  %47 = extractvalue { ptr, i32 } %46, 0
  store ptr %47, ptr %exn.slot, align 8
  %48 = extractvalue { ptr, i32 } %46, 1
  store i32 %48, ptr %ehselector.slot, align 4
  br label %ehcleanup

lpad27:                                           ; preds = %invoke.cont26
  %49 = landingpad { ptr, i32 }
          cleanup
  %50 = extractvalue { ptr, i32 } %49, 0
  store ptr %50, ptr %exn.slot, align 8
  %51 = extractvalue { ptr, i32 } %49, 1
  store i32 %51, ptr %ehselector.slot, align 4
  call void @_ZNSt7__cxx1112basic_stringIcSt11char_traitsIcESaIcEED1Ev(ptr noundef nonnull align 8 dereferenceable(32) %ref.tmp18) #11
  br label %ehcleanup

ehcleanup:                                        ; preds = %lpad27, %lpad25
  call void @_ZNSt7__cxx1112basic_stringIcSt11char_traitsIcESaIcEED1Ev(ptr noundef nonnull align 8 dereferenceable(32) %ref.tmp21) #11
  br label %ehcleanup29

ehcleanup29:                                      ; preds = %ehcleanup, %lpad23
  call void @_ZNSt7__cxx1112basic_stringIcSt11char_traitsIcESaIcEED1Ev(ptr noundef nonnull align 8 dereferenceable(32) %ref.tmp20) #11
  br label %eh.resume

if.end30:                                         ; preds = %invoke.cont28, %invoke.cont
  %debugEnabled_31 = getelementptr inbounds %"class.facebook::velox::memory::MemoryPool", ptr %this1, i32 0, i32 10
  %52 = load i8, ptr %debugEnabled_31, align 1
  %tobool32 = trunc i8 %52 to i1
  br i1 %tobool32, label %if.then33, label %if.end34

if.then33:                                        ; preds = %if.end30
  %53 = load ptr, ptr %out.addr, align 8
