target datalayout = "e-m:e-p270:32:32-p271:32:32-p272:64:64-i64:64-i128:128-f80:128-n8:16:32:64-S128"
target triple = "x86_64-unknown-linux-gnu"

%"struct.std::atomic.0" = type { %"struct.std::__atomic_base.1" }
%"struct.std::__atomic_base.1" = type { i64 }
%"class.__gnu_cxx::__normal_iterator" = type { ptr }
%"class.std::unique_ptr.9" = type { %"struct.std::__uniq_ptr_data.10" }
%"struct.std::__uniq_ptr_data.10" = type { %"class.std::__uniq_ptr_impl.11" }
%"class.std::__uniq_ptr_impl.11" = type { %"class.std::tuple.12" }
%"class.std::tuple.12" = type { %"struct.std::_Tuple_impl.13" }
%"struct.std::_Tuple_impl.13" = type { %"struct.std::_Head_base.16" }
%"struct.std::_Head_base.16" = type { ptr }
%"class.std::unique_ptr" = type { %"struct.std::__uniq_ptr_data" }
%"struct.std::__uniq_ptr_data" = type { %"class.std::__uniq_ptr_impl" }
%"class.std::__uniq_ptr_impl" = type { %"class.std::tuple" }
%"class.std::tuple" = type { %"struct.std::_Tuple_impl" }
%"struct.std::_Tuple_impl" = type { %"struct.std::_Head_base.8" }
%"struct.std::_Head_base.8" = type { ptr }
%"class.facebook::velox::memory::MmapAllocator" = type { %"class.facebook::velox::memory::MemoryAllocator", i32, i8, %"class.std::mutex", %"struct.std::atomic", i32, i64, i64, %"class.std::vector.2", %"struct.std::atomic", %"struct.std::atomic", %"struct.std::atomic", %"struct.std::atomic", %"class.std::mutex", %"class.std::unique_ptr", %"class.std::shared_ptr" }
%"class.facebook::velox::memory::MemoryAllocator" = type { ptr, %"class.std::enable_shared_from_this", %"class.std::vector", %"struct.std::atomic", %"struct.std::atomic", i32, i8, %"struct.facebook::velox::memory::Stats" }
%"class.std::enable_shared_from_this" = type { %"class.std::weak_ptr" }
%"class.std::weak_ptr" = type { %"class.std::__weak_ptr" }
%"class.std::__weak_ptr" = type { ptr, %"class.std::__weak_count" }
%"class.std::__weak_count" = type { ptr }
%"class.std::vector" = type { %"struct.std::_Vector_base" }
%"struct.std::_Vector_base" = type { %"struct.std::_Vector_base<unsigned long, std::allocator<unsigned long>>::_Vector_impl" }
%"struct.std::_Vector_base<unsigned long, std::allocator<unsigned long>>::_Vector_impl" = type { %"struct.std::_Vector_base<unsigned long, std::allocator<unsigned long>>::_Vector_impl_data" }
%"struct.std::_Vector_base<unsigned long, std::allocator<unsigned long>>::_Vector_impl_data" = type { ptr, ptr, ptr }
%"struct.facebook::velox::memory::Stats" = type { %"struct.std::array", i64 }
%"struct.std::array" = type { [20 x %"struct.facebook::velox::memory::SizeClassStats"] }
%"struct.facebook::velox::memory::SizeClassStats" = type { i32, %"struct.std::atomic", %"struct.std::atomic", %"struct.std::atomic.0", %"struct.std::atomic.0" }
%"class.std::vector.2" = type { %"struct.std::_Vector_base.3" }
%"struct.std::_Vector_base.3" = type { %"struct.std::_Vector_base<std::unique_ptr<facebook::velox::memory::MmapAllocator::SizeClass>, std::allocator<std::unique_ptr<facebook::velox::memory::MmapAllocator::SizeClass>>>::_Vector_impl" }
%"struct.std::_Vector_base<std::unique_ptr<facebook::velox::memory::MmapAllocator::SizeClass>, std::allocator<std::unique_ptr<facebook::velox::memory::MmapAllocator::SizeClass>>>::_Vector_impl" = type { %"struct.std::_Vector_base<std::unique_ptr<facebook::velox::memory::MmapAllocator::SizeClass>, std::allocator<std::unique_ptr<facebook::velox::memory::MmapAllocator::SizeClass>>>::_Vector_impl_data" }
%"struct.std::_Vector_base<std::unique_ptr<facebook::velox::memory::MmapAllocator::SizeClass>, std::allocator<std::unique_ptr<facebook::velox::memory::MmapAllocator::SizeClass>>>::_Vector_impl_data" = type { ptr, ptr, ptr }
%"struct.std::atomic" = type { %"struct.std::__atomic_base" }
%"struct.std::__atomic_base" = type { i64 }
%"class.std::mutex" = type { %"class.std::__mutex_base" }
%"class.std::__mutex_base" = type { %union.pthread_mutex_t }
%union.pthread_mutex_t = type { %struct.__pthread_mutex_s }
%struct.__pthread_mutex_s = type { i32, i32, i32, i32, i32, i16, i16, %struct.__pthread_internal_list }
%struct.__pthread_internal_list = type { ptr, ptr }
%"class.std::shared_ptr" = type { %"class.std::__shared_ptr" }
%"class.std::__shared_ptr" = type { ptr, %"class.std::__shared_count" }
%"class.std::__shared_count" = type { ptr }
%"struct.facebook::velox::memory::MmapAllocator::Options" = type { i64, i8, i32, i32, i32 }
%"class.std::initializer_list" = type { ptr, i64 }
%"class.std::allocator" = type { i8 }
%"class.fmt::v8::basic_string_view" = type { ptr, i64 }
%"class.fmt::v8::basic_format_string.28" = type { %"class.fmt::v8::basic_string_view" }
%"class.fmt::v8::basic_format_args" = type { i64, %union.anon.52 }
%union.anon.52 = type { ptr }
%"class.fmt::v8::format_arg_store.55" = type { %"struct.fmt::v8::detail::arg_data" }
%"struct.fmt::v8::detail::arg_data" = type { [2 x %"class.fmt::v8::detail::value"] }
%"class.fmt::v8::detail::value" = type { %union.anon.53 }
%union.anon.53 = type { i128 }
%"class.fmt::v8::basic_format_string.27" = type { %"class.fmt::v8::basic_string_view" }
%"class.fmt::v8::format_arg_store.54" = type { %"struct.fmt::v8::detail::arg_data" }
%"class.fmt::v8::basic_format_string" = type { %"class.fmt::v8::basic_string_view" }
%"class.fmt::v8::format_arg_store" = type { %"struct.fmt::v8::detail::arg_data" }
%"struct.facebook::velox::memory::MemoryAllocator::SizeMix" = type { %"struct.std::array.22", %"struct.std::array.22", i32, i32 }
%"struct.std::array.22" = type { [12 x i32] }
%"class.std::__cxx11::basic_string" = type { %"struct.std::__cxx11::basic_string<char>::_Alloc_hider", i64, %union.anon }
%"struct.std::__cxx11::basic_string<char>::_Alloc_hider" = type { ptr }
%union.anon = type { i64, [8 x i8] }
%"class.std::chrono::duration" = type { i64 }
%"class.std::chrono::duration.26" = type { i64 }
%"class.std::chrono::time_point" = type { %"class.std::chrono::duration.26" }
%"class.google::LogMessage" = type { ptr, ptr }
%"class.std::__exception_ptr::exception_ptr" = type { ptr }
%class.anon = type { ptr, ptr, ptr, ptr, ptr, ptr }
%"class.facebook::velox::ClockTimer" = type { ptr, ptr, i64 }
%"class.std::function" = type { %"class.std::_Function_base", ptr }
%"class.std::_Function_base" = type { %"union.std::_Any_data", ptr }
%"union.std::_Any_data" = type { %"union.std::_Nocopy_types" }
%"union.std::_Nocopy_types" = type { { i64, i64 } }
%"class.facebook::velox::memory::Allocation" = type <{ ptr, %"class.std::vector.17", i32, [4 x i8] }>
%"class.std::vector.17" = type { %"struct.std::_Vector_base.18" }
%"struct.std::_Vector_base.18" = type { %"struct.std::_Vector_base<facebook::velox::memory::Allocation::PageRun, std::allocator<facebook::velox::memory::Allocation::PageRun>>::_Vector_impl" }
%"struct.std::_Vector_base<facebook::velox::memory::Allocation::PageRun, std::allocator<facebook::velox::memory::Allocation::PageRun>>::_Vector_impl" = type { %"struct.std::_Vector_base<facebook::velox::memory::Allocation::PageRun, std::allocator<facebook::velox::memory::Allocation::PageRun>>::_Vector_impl_data" }
%"struct.std::_Vector_base<facebook::velox::memory::Allocation::PageRun, std::allocator<facebook::velox::memory::Allocation::PageRun>>::_Vector_impl_data" = type { ptr, ptr, ptr }
%"class.std::lock_guard" = type { ptr }
%"class.__gnu_cxx::__normal_iterator.44" = type { ptr }
%"class.facebook::velox::memory::Allocation::PageRun" = type { i64 }
%"class.facebook::velox::memory::MmapAllocator::SizeClass" = type { i64, i64, i64, i32, %"class.std::mutex", ptr, i32, i32, i32, %"class.std::vector", %"class.std::vector", %"class.std::vector", i64, i64, i64 }
%class.anon.29 = type { ptr, ptr, ptr, ptr, ptr, ptr, ptr }
%"class.fmt::v8::basic_format_string.40" = type { %"class.fmt::v8::basic_string_view" }
%"class.fmt::v8::format_arg_store.59" = type { %"struct.fmt::v8::detail::arg_data" }
%"class.fmt::v8::basic_format_string.39" = type { %"class.fmt::v8::basic_string_view" }
%"class.fmt::v8::format_arg_store.58" = type { %"struct.fmt::v8::detail::arg_data" }
%"class.fmt::v8::basic_format_string.38" = type { %"class.fmt::v8::basic_string_view" }
%"class.fmt::v8::format_arg_store.56" = type { %"struct.fmt::v8::detail::arg_data.57" }
%"struct.fmt::v8::detail::arg_data.57" = type { [3 x %"class.fmt::v8::detail::value"] }
%class.anon.37 = type { ptr, ptr, ptr, ptr }
%"class.facebook::velox::memory::ContiguousAllocation" = type { ptr, ptr, i64, i64 }
%class.anon.41 = type { ptr, ptr }
%"class.fmt::v8::basic_format_string.43" = type { %"class.fmt::v8::basic_string_view" }
%"class.fmt::v8::format_arg_store.61" = type { %"struct.fmt::v8::detail::arg_data" }
%"class.fmt::v8::basic_format_string.42" = type { %"class.fmt::v8::basic_string_view" }
%"class.fmt::v8::format_arg_store.60" = type { %"struct.fmt::v8::detail::arg_data.57" }
%"class.std::__cxx11::basic_stringstream" = type { %"class.std::basic_iostream.base", %"class.std::__cxx11::basic_stringbuf", %"class.std::basic_ios" }
%"class.std::basic_iostream.base" = type { %"class.std::basic_istream.base", %"class.std::basic_ostream.base" }
%"class.std::basic_istream.base" = type { ptr, i64 }
%"class.std::basic_ostream.base" = type { ptr }
%"class.std::__cxx11::basic_stringbuf" = type { %"class.std::basic_streambuf", i32, %"class.std::__cxx11::basic_string" }
%"class.std::basic_streambuf" = type { ptr, ptr, ptr, ptr, ptr, ptr, ptr, %"class.std::locale" }
%"class.std::locale" = type { ptr }
%"class.std::basic_ios" = type { %"class.std::ios_base", ptr, i8, i8, ptr, ptr, ptr, ptr }
%"class.std::ios_base" = type { ptr, i64, i64, i32, i32, i32, ptr, %"struct.std::ios_base::_Words", [8 x %"struct.std::ios_base::_Words"], i32, ptr, %"class.std::locale" }
%"struct.std::ios_base::_Words" = type { ptr, i64 }
%"class.xsimd::batch" = type { %"struct.xsimd::types::simd_register" }
%"struct.xsimd::types::simd_register" = type { %"struct.xsimd::types::simd_register.45" }
%"struct.xsimd::types::simd_register.45" = type { %"struct.xsimd::types::simd_register.46" }
%"struct.xsimd::types::simd_register.46" = type { <4 x i64> }
%"struct.xsimd::fma3" = type { i8 }
%"class.xsimd::batch_bool" = type { %"struct.xsimd::types::simd_register" }
%class.anon.47 = type { ptr, ptr, ptr, ptr }
%"class.google::LogMessageFatal" = type { %"class.google::LogMessage" }
%class.anon.62 = type { i8, ptr, %class.anon.47 }
%class.anon.63 = type { i8, ptr, %class.anon.47 }
%"class.__gnu_cxx::__normal_iterator.48" = type { ptr }
%"class.std::allocator.23" = type { i8 }
%"class.std::_Sp_counted_base" = type { ptr, i32, i32 }
%"class.facebook::velox::memory::ManagedMmapArenas" = type { i64, %"class.std::map", %"class.std::shared_ptr.34" }
%"class.std::map" = type { %"class.std::_Rb_tree" }
%"class.std::_Rb_tree" = type { %"struct.std::_Rb_tree<unsigned long, std::pair<const unsigned long, std::shared_ptr<facebook::velox::memory::MmapArena>>, std::_Select1st<std::pair<const unsigned long, std::shared_ptr<facebook::velox::memory::MmapArena>>>, std::less<unsigned long>>::_Rb_tree_impl" }
%"struct.std::_Rb_tree<unsigned long, std::pair<const unsigned long, std::shared_ptr<facebook::velox::memory::MmapArena>>, std::_Select1st<std::pair<const unsigned long, std::shared_ptr<facebook::velox::memory::MmapArena>>>, std::less<unsigned long>>::_Rb_tree_impl" = type { %"struct.std::_Rb_tree_key_compare", %"struct.std::_Rb_tree_header" }
%"struct.std::_Rb_tree_key_compare" = type { %"struct.std::less" }
%"struct.std::less" = type { i8 }
%"struct.std::_Rb_tree_header" = type { %"struct.std::_Rb_tree_node_base", i64 }
%"struct.std::_Rb_tree_node_base" = type { i32, ptr, ptr, ptr }
%"class.std::shared_ptr.34" = type { %"class.std::__shared_ptr.35" }
%"class.std::__shared_ptr.35" = type { ptr, %"class.std::__shared_count" }
%"struct.std::_Rb_tree_node" = type { %"struct.std::_Rb_tree_node_base", %"struct.__gnu_cxx::__aligned_membuf" }
%"struct.__gnu_cxx::__aligned_membuf" = type { [24 x i8] }
%"struct.std::pair" = type { i64, %"class.std::shared_ptr.34" }
%"class.__gnu_cxx::__normal_iterator.49" = type { ptr }
%struct._Guard = type { ptr }
%"struct.fmt::v8::detail::arg_mapper" = type { i8 }

$_ZN8facebook5velox6memory15MemoryAllocatorC2Ev = comdat any

$_ZNSt5mutexC2Ev = comdat any

$_ZNSt6atomicImEC2Em = comdat any

$_ZN8facebook5velox4bits7roundUpImmEET_S3_T0_ = comdat any

$_ZNKSt6vectorImSaImEE4backEv = comdat any

$_ZNSt6vectorISt10unique_ptrIN8facebook5velox6memory13MmapAllocator9SizeClassESt14default_deleteIS5_EESaIS8_EEC2Ev = comdat any

$_ZNSt10unique_ptrIN8facebook5velox6memory17ManagedMmapArenasESt14default_deleteIS3_EEC2IS5_vEEv = comdat any

$_ZNSt10shared_ptrIN8facebook5velox6memory5CacheEEC2Ev = comdat any

$_ZNKSt6vectorImSaImEE5beginEv = comdat any

$_ZNKSt6vectorImSaImEE3endEv = comdat any

$_ZN9__gnu_cxxneIPKmSt6vectorImSaImEEEEbRKNS_17__normal_iteratorIT_T0_EESB_ = comdat any

$_ZNK9__gnu_cxx17__normal_iteratorIPKmSt6vectorImSaImEEEdeEv = comdat any

$_ZNSt6vectorISt10unique_ptrIN8facebook5velox6memory13MmapAllocator9SizeClassESt14default_deleteIS5_EESaIS8_EE9push_backEOS8_ = comdat any

$_ZSt11make_uniqueIN8facebook5velox6memory13MmapAllocator9SizeClassEJmRKmEENSt8__detail9_MakeUniqIT_E15__single_objectEDpOT0_ = comdat any

$_ZNSt10unique_ptrIN8facebook5velox6memory13MmapAllocator9SizeClassESt14default_deleteIS4_EED2Ev = comdat any

$_ZN9__gnu_cxx17__normal_iteratorIPKmSt6vectorImSaImEEEppEv = comdat any

$_ZSt11make_uniqueIN8facebook5velox6memory17ManagedMmapArenasEJRKmEENSt8__detail9_MakeUniqIT_E15__single_objectEDpOT0_ = comdat any

$_ZSt3maxImERKT_S2_S2_ = comdat any

$_ZNSt10unique_ptrIN8facebook5velox6memory17ManagedMmapArenasESt14default_deleteIS3_EEaSEOS6_ = comdat any

$_ZNSt10unique_ptrIN8facebook5velox6memory17ManagedMmapArenasESt14default_deleteIS3_EED2Ev = comdat any

$_ZNSt10shared_ptrIN8facebook5velox6memory5CacheEED2Ev = comdat any

$_ZNSt6vectorISt10unique_ptrIN8facebook5velox6memory13MmapAllocator9SizeClassESt14default_deleteIS5_EESaIS8_EED2Ev = comdat any

$_ZN8facebook5velox6memory15MemoryAllocatorD2Ev = comdat any

$_ZNKSt13__atomic_baseImEcvmEv = comdat any

$_ZStneIvJlbEEbRKSt8functionIFT_DpT0_EEDn = comdat any

$_ZNKSt8functionIFvlbEEclElb = comdat any

$_ZNSt6chrono13duration_castINS_8durationIlSt5ratioILl1ELl1000EEEElS2_ILl1ELl1000000000EEEENSt9enable_ifIXsr13__is_durationIT_EE5valueES7_E4typeERKNS1_IT0_T1_EE = comdat any

$_ZNKSt6chrono10time_pointINS_3_V212system_clockENS_8durationIlSt5ratioILl1ELl1000000000EEEEE16time_since_epochEv = comdat any

$_ZNKSt6chrono8durationIlSt5ratioILl1ELl1000EEE5countEv = comdat any

$_ZNSt13__atomic_baseImEppEv = comdat any

$_ZNSt13__atomic_baseImEpLEm = comdat any

$_ZNSt15__exception_ptr13exception_ptrD2Ev = comdat any

$__clang_call_terminate = comdat any

$_ZNKSt6vectorImSaImEEixEm = comdat any

$_ZNKSt5arrayIiLm12EEixEm = comdat any

$_ZNK8facebook5velox6memory10Allocation8numPagesEv = comdat any

$_ZNSt10lock_guardISt5mutexEC2ERS0_ = comdat any

$_ZNSt10lock_guardISt5mutexED2Ev = comdat any

$_ZNK8facebook5velox6memory10Allocation5emptyEv = comdat any

$_ZNKSt6vectorISt10unique_ptrIN8facebook5velox6memory13MmapAllocator9SizeClassESt14default_deleteIS5_EESaIS8_EE4sizeEv = comdat any

$_ZNSt6vectorISt10unique_ptrIN8facebook5velox6memory13MmapAllocator9SizeClassESt14default_deleteIS5_EESaIS8_EEixEm = comdat any

$_ZN8facebook5velox10ClockTimerC2ERm = comdat any

$_ZNKSt10unique_ptrIN8facebook5velox6memory13MmapAllocator9SizeClassESt14default_deleteIS4_EEptEv = comdat any

$_ZN8facebook5velox10ClockTimerD2Ev = comdat any

$_ZN8facebook5velox6memory5Stats9sizeIndexEl = comdat any

$_ZNSt5arrayIN8facebook5velox6memory14SizeClassStatsELm20EEixEm = comdat any

$_ZN8facebook5velox6memory10Allocation5clearEv = comdat any

$_ZNKSt10unique_ptrIN8facebook5velox6memory17ManagedMmapArenasESt14default_deleteIS3_EEptEv = comdat any

$_ZNK8facebook5velox6memory20ContiguousAllocation4dataIhEEPT_v = comdat any

$_ZNK8facebook5velox6memory20ContiguousAllocation7maxSizeEv = comdat any

$_ZNSt13__atomic_baseImEmIEm = comdat any

$_ZNK8facebook5velox6memory20ContiguousAllocation4sizeEv = comdat any

$_ZNK8facebook5velox6memory20ContiguousAllocation5emptyEv = comdat any

$_ZN8facebook5velox6memory10AllocationC2Ev = comdat any

$_ZNSt8functionIFvlbEEC2EDn = comdat any

$_ZNSt8functionIFvlbEED2Ev = comdat any

$_ZNK8facebook5velox6memory10Allocation5runAtEi = comdat any

$_ZNK8facebook5velox6memory10Allocation7numRunsEv = comdat any

$_ZNK8facebook5velox6memory10Allocation7PageRun4dataIcEEPT_v = comdat any

$_ZN8facebook5velox6memory20ContiguousAllocationC2Ev = comdat any

$_ZNK8facebook5velox6memory20ContiguousAllocation4dataIcEEPT_v = comdat any

$_ZNSt6vectorISt10unique_ptrIN8facebook5velox6memory13MmapAllocator9SizeClassESt14default_deleteIS5_EESaIS8_EE5beginEv = comdat any

$_ZNSt6vectorISt10unique_ptrIN8facebook5velox6memory13MmapAllocator9SizeClassESt14default_deleteIS5_EESaIS8_EE3endEv = comdat any

$_ZN9__gnu_cxxneIPSt10unique_ptrIN8facebook5velox6memory13MmapAllocator9SizeClassESt14default_deleteIS6_EESt6vectorIS9_SaIS9_EEEEbRKNS_17__normal_iteratorIT_T0_EESJ_ = comdat any

$_ZNK9__gnu_cxx17__normal_iteratorIPSt10unique_ptrIN8facebook5velox6memory13MmapAllocator9SizeClassESt14default_deleteIS6_EESt6vectorIS9_SaIS9_EEEdeEv = comdat any

$_ZN9__gnu_cxx17__normal_iteratorIPSt10unique_ptrIN8facebook5velox6memory13MmapAllocator9SizeClassESt14default_deleteIS6_EESt6vectorIS9_SaIS9_EEEppEv = comdat any

$_ZNSaImEC2Ev = comdat any

$_ZNSt6vectorImSaImEEC2EmRKS0_ = comdat any

$_ZNSaImED2Ev = comdat any

$_ZNSt6vectorImSaImEED2Ev = comdat any

$_ZSt3minIiERKT_S2_S2_ = comdat any

$_ZN8facebook5velox4bits8isBitSetImEEbPKT_i = comdat any

$_ZNKSt6vectorImSaImEE4dataEv = comdat any

$_ZNSt6vectorImSaImEEixEm = comdat any

$_ZNKSt6vectorImSaImEE4sizeEv = comdat any

$_ZN5xsimd14load_unalignedINS_4fma3INS_4avx2EEEmEENS_5batchIT0_T_EEPKS5_ = comdat any

$_ZNSt6vectorImSaImEE4dataEv = comdat any

$_ZN8facebook5velox4simd13allSetBitMaskIlN5xsimd4fma3INS3_4avx2EEEEEDaRKT0_ = comdat any

$_ZN8facebook5velox4simd9toBitMaskImN5xsimd4fma3INS3_4avx2EEEEEDaNS3_10batch_boolIT_T0_EERKS9_ = comdat any

$_ZN5xsimdeqERKNS_5batchImNS_4fma3INS_4avx2EEEEES6_ = comdat any

$_ZN5xsimd9broadcastImNS_4fma3INS_4avx2EEEEENS_5batchIT_T0_EES5_ = comdat any

$_Z20count_trailing_zerosm = comdat any

$_ZN5xsimdanERKNS_5batchImNS_4fma3INS_4avx2EEEEES6_ = comdat any

$_ZN5xsimdeoERKNS_5batchImNS_4fma3INS_4avx2EEEEES6_ = comdat any

$_ZN8facebook5velox4bits21getAndClearLastSetBitERt = comdat any

$_ZN8facebook5velox4bits6setBitImEEvPT_jb = comdat any

$_ZNK8facebook5velox6memory10Allocation7PageRun4dataIhEEPT_v = comdat any

$_ZNK8facebook5velox6memory10Allocation7PageRun8numPagesEv = comdat any

$_ZN8facebook5velox6memory13MmapAllocator9SizeClass14markMappedFreeEi = comdat any

$_ZN8facebook5velox4bits8clearBitImEEvPT_j = comdat any

$_ZN8facebook5velox4bits6setBitImEEvPT_j = comdat any

$_ZNKSt6vectorISt10unique_ptrIN8facebook5velox6memory13MmapAllocator9SizeClassESt14default_deleteIS5_EESaIS8_EE5beginEv = comdat any

$_ZNKSt6vectorISt10unique_ptrIN8facebook5velox6memory13MmapAllocator9SizeClassESt14default_deleteIS5_EESaIS8_EE3endEv = comdat any

$_ZN9__gnu_cxxneIPKSt10unique_ptrIN8facebook5velox6memory13MmapAllocator9SizeClassESt14default_deleteIS6_EESt6vectorIS9_SaIS9_EEEEbRKNS_17__normal_iteratorIT_T0_EESK_ = comdat any

$_ZNK9__gnu_cxx17__normal_iteratorIPKSt10unique_ptrIN8facebook5velox6memory13MmapAllocator9SizeClassESt14default_deleteIS6_EESt6vectorIS9_SaIS9_EEEdeEv = comdat any

$_ZNK8facebook5velox6memory13MmapAllocator9SizeClass8unitSizeEv = comdat any

$_ZN9__gnu_cxx17__normal_iteratorIPKSt10unique_ptrIN8facebook5velox6memory13MmapAllocator9SizeClassESt14default_deleteIS6_EESt6vectorIS9_SaIS9_EEEppEv = comdat any

$_ZNSt7__cxx1112basic_stringIcSt11char_traitsIcESaIcEEC2IS3_EEPKcRKS3_ = comdat any

$_ZNK8facebook5velox6memory13MmapAllocator4kindEv = comdat any

$_ZN8facebook5velox6memory13MmapAllocator13registerCacheERKSt10shared_ptrINS1_5CacheEE = comdat any

$_ZNK8facebook5velox6memory13MmapAllocator8capacityEv = comdat any

$_ZNK8facebook5velox6memory15MemoryAllocator16largestSizeClassEv = comdat any

$_ZNK8facebook5velox6memory15MemoryAllocator11sizeClassesEv = comdat any

$_ZNK8facebook5velox6memory13MmapAllocator14totalUsedBytesEv = comdat any

$_ZNK8facebook5velox6memory13MmapAllocator12numAllocatedEv = comdat any

$_ZNK8facebook5velox6memory13MmapAllocator9numMappedEv = comdat any

$_ZNK8facebook5velox6memory13MmapAllocator5statsEv = comdat any

$_ZNK8facebook5velox6memory13MmapAllocator5cacheEv = comdat any

$_ZNSt23enable_shared_from_thisIN8facebook5velox6memory15MemoryAllocatorEEC2Ev = comdat any

$_ZNSt6vectorImSaImEEC2ESt16initializer_listImERKS0_ = comdat any

$_ZN8facebook5velox6memory5StatsC2Ev = comdat any

$_ZNSt23enable_shared_from_thisIN8facebook5velox6memory15MemoryAllocatorEED2Ev = comdat any

$_ZNSt8weak_ptrIN8facebook5velox6memory15MemoryAllocatorEEC2Ev = comdat any

$_ZNSt10__weak_ptrIN8facebook5velox6memory15MemoryAllocatorELN9__gnu_cxx12_Lock_policyE2EEC2Ev = comdat any

$_ZNSt12__weak_countILN9__gnu_cxx12_Lock_policyE2EEC2Ev = comdat any

$_ZNSt12_Vector_baseImSaImEEC2ERKS0_ = comdat any

$_ZNSt6vectorImSaImEE19_M_range_initializeIPKmEEvT_S5_St20forward_iterator_tag = comdat any

$_ZNKSt16initializer_listImE5beginEv = comdat any

$_ZNKSt16initializer_listImE3endEv = comdat any

$_ZNSt12_Vector_baseImSaImEED2Ev = comdat any

$_ZNSt12_Vector_baseImSaImEE12_Vector_implC2ERKS0_ = comdat any

$_ZNSt12_Vector_baseImSaImEE17_Vector_impl_dataC2Ev = comdat any

$_ZNSt15__new_allocatorImEC2ERKS0_ = comdat any

$_ZSt8distanceIPKmENSt15iterator_traitsIT_E15difference_typeES3_S3_ = comdat any

$_ZNSt12_Vector_baseImSaImEE11_M_allocateEm = comdat any

$_ZNSt6vectorImSaImEE17_S_check_init_lenEmRKS0_ = comdat any

$_ZNSt12_Vector_baseImSaImEE19_M_get_Tp_allocatorEv = comdat any

$_ZSt22__uninitialized_copy_aIPKmPmmET0_T_S4_S3_RSaIT1_E = comdat any

$_ZSt10__distanceIPKmENSt15iterator_traitsIT_E15difference_typeES3_S3_St26random_access_iterator_tag = comdat any

$_ZSt19__iterator_categoryIPKmENSt15iterator_traitsIT_E17iterator_categoryERKS3_ = comdat any

$_ZNSt16allocator_traitsISaImEE8allocateERS0_m = comdat any

$_ZNSt15__new_allocatorImE8allocateEmPKv = comdat any

$_ZNKSt15__new_allocatorImE11_M_max_sizeEv = comdat any

$_ZNSt6vectorImSaImEE11_S_max_sizeERKS0_ = comdat any

$_ZNSaImEC2ERKS_ = comdat any

$_ZNSt16allocator_traitsISaImEE8max_sizeERKS0_ = comdat any

$_ZSt3minImERKT_S2_S2_ = comdat any

$_ZNKSt15__new_allocatorImE8max_sizeEv = comdat any

$_ZSt18uninitialized_copyIPKmPmET0_T_S4_S3_ = comdat any

$_ZNSt20__uninitialized_copyILb1EE13__uninit_copyIPKmPmEET0_T_S6_S5_ = comdat any

$_ZSt4copyIPKmPmET0_T_S4_S3_ = comdat any

$_ZSt13__copy_move_aILb0EPKmPmET1_T0_S4_S3_ = comdat any

$_ZSt12__miter_baseIPKmET_S2_ = comdat any

$_ZSt12__niter_wrapIPmET_RKS1_S1_ = comdat any

$_ZSt14__copy_move_a1ILb0EPKmPmET1_T0_S4_S3_ = comdat any

$_ZSt12__niter_baseIPKmET_S2_ = comdat any

$_ZSt12__niter_baseIPmET_S1_ = comdat any

$_ZSt14__copy_move_a2ILb0EPKmPmET1_T0_S4_S3_ = comdat any

$_ZNSt11__copy_moveILb0ELb1ESt26random_access_iterator_tagE8__copy_mImEEPT_PKS3_S6_S4_ = comdat any

$_ZNKSt16initializer_listImE4sizeEv = comdat any

$_ZNSt12_Vector_baseImSaImEE13_M_deallocateEPmm = comdat any

$_ZNSt12_Vector_baseImSaImEE12_Vector_implD2Ev = comdat any

$_ZNSt16allocator_traitsISaImEE10deallocateERS0_Pmm = comdat any

$_ZNSt15__new_allocatorImE10deallocateEPmm = comdat any

$_ZNSt15__new_allocatorImED2Ev = comdat any

$_ZNSt5arrayIN8facebook5velox6memory14SizeClassStatsELm20EEC2Ev = comdat any

$_ZNKSt5arrayIN8facebook5velox6memory14SizeClassStatsELm20EE4sizeEv = comdat any

$_ZN8facebook5velox6memory14SizeClassStatsC2Ev = comdat any

$_ZNSt6atomicIlEC2El = comdat any

$_ZNSt13__atomic_baseIlEC2El = comdat any

$_ZNSt8weak_ptrIN8facebook5velox6memory15MemoryAllocatorEED2Ev = comdat any

$_ZNSt10__weak_ptrIN8facebook5velox6memory15MemoryAllocatorELN9__gnu_cxx12_Lock_policyE2EED2Ev = comdat any

$_ZNSt12__weak_countILN9__gnu_cxx12_Lock_policyE2EED2Ev = comdat any

$_ZNSt16_Sp_counted_baseILN9__gnu_cxx12_Lock_policyE2EE15_M_weak_releaseEv = comdat any

$_ZNSt12__mutex_baseC2Ev = comdat any

$_ZNSt13__atomic_baseImEC2Em = comdat any

$_ZNSt12_Vector_baseISt10unique_ptrIN8facebook5velox6memory13MmapAllocator9SizeClassESt14default_deleteIS5_EESaIS8_EEC2Ev = comdat any

$_ZNSt12_Vector_baseISt10unique_ptrIN8facebook5velox6memory13MmapAllocator9SizeClassESt14default_deleteIS5_EESaIS8_EE12_Vector_implC2Ev = comdat any

$_ZNSaISt10unique_ptrIN8facebook5velox6memory13MmapAllocator9SizeClassESt14default_deleteIS4_EEEC2Ev = comdat any

$_ZNSt12_Vector_baseISt10unique_ptrIN8facebook5velox6memory13MmapAllocator9SizeClassESt14default_deleteIS5_EESaIS8_EE17_Vector_impl_dataC2Ev = comdat any

$_ZNSt15__new_allocatorISt10unique_ptrIN8facebook5velox6memory13MmapAllocator9SizeClassESt14default_deleteIS5_EEEC2Ev = comdat any

$_ZNSt15__uniq_ptr_dataIN8facebook5velox6memory17ManagedMmapArenasESt14default_deleteIS3_ELb1ELb1EEC2Ev = comdat any

$_ZNSt15__uniq_ptr_implIN8facebook5velox6memory17ManagedMmapArenasESt14default_deleteIS3_EEC2Ev = comdat any

$_ZNSt5tupleIJPN8facebook5velox6memory17ManagedMmapArenasESt14default_deleteIS3_EEEC2ILb1ETnNSt9enable_ifIXclsr17_TupleConstraintsIXT_ES4_S6_EE37__is_implicitly_default_constructibleEEbE4typeELb1EEEv = comdat any

$_ZNSt11_Tuple_implILm0EJPN8facebook5velox6memory17ManagedMmapArenasESt14default_deleteIS3_EEEC2Ev = comdat any

$_ZNSt11_Tuple_implILm1EJSt14default_deleteIN8facebook5velox6memory17ManagedMmapArenasEEEEC2Ev = comdat any

$_ZNSt10_Head_baseILm0EPN8facebook5velox6memory17ManagedMmapArenasELb0EEC2Ev = comdat any

$_ZNSt10_Head_baseILm1ESt14default_deleteIN8facebook5velox6memory17ManagedMmapArenasEELb1EEC2Ev = comdat any

$_ZNSt12__shared_ptrIN8facebook5velox6memory5CacheELN9__gnu_cxx12_Lock_policyE2EEC2Ev = comdat any

$_ZNSt14__shared_countILN9__gnu_cxx12_Lock_policyE2EEC2Ev = comdat any

$_ZNSt15__uniq_ptr_dataIN8facebook5velox6memory17ManagedMmapArenasESt14default_deleteIS3_ELb1ELb1EEaSEOS6_ = comdat any

$_ZNSt15__uniq_ptr_implIN8facebook5velox6memory17ManagedMmapArenasESt14default_deleteIS3_EEaSEOS6_ = comdat any

$_ZNSt15__uniq_ptr_implIN8facebook5velox6memory17ManagedMmapArenasESt14default_deleteIS3_EE5resetEPS3_ = comdat any

$_ZNSt15__uniq_ptr_implIN8facebook5velox6memory17ManagedMmapArenasESt14default_deleteIS3_EE7releaseEv = comdat any

$_ZNSt15__uniq_ptr_implIN8facebook5velox6memory17ManagedMmapArenasESt14default_deleteIS3_EE10_M_deleterEv = comdat any

$_ZNSt15__uniq_ptr_implIN8facebook5velox6memory17ManagedMmapArenasESt14default_deleteIS3_EE6_M_ptrEv = comdat any

$_ZNKSt14default_deleteIN8facebook5velox6memory17ManagedMmapArenasEEclEPS3_ = comdat any

$_ZSt3getILm0EJPN8facebook5velox6memory17ManagedMmapArenasESt14default_deleteIS3_EEERNSt13tuple_elementIXT_ESt5tupleIJDpT0_EEE4typeERSB_ = comdat any

$_ZSt12__get_helperILm0EPN8facebook5velox6memory17ManagedMmapArenasEJSt14default_deleteIS3_EEERT0_RSt11_Tuple_implIXT_EJS7_DpT1_EE = comdat any

$_ZNSt11_Tuple_implILm0EJPN8facebook5velox6memory17ManagedMmapArenasESt14default_deleteIS3_EEE7_M_headERS7_ = comdat any

$_ZNSt10_Head_baseILm0EPN8facebook5velox6memory17ManagedMmapArenasELb0EE7_M_headERS5_ = comdat any

$_ZN8facebook5velox6memory17ManagedMmapArenasD2Ev = comdat any

$_ZNSt10shared_ptrIN8facebook5velox6memory9MmapArenaEED2Ev = comdat any

$_ZNSt3mapImSt10shared_ptrIN8facebook5velox6memory9MmapArenaEESt4lessImESaISt4pairIKmS5_EEED2Ev = comdat any

$_ZNSt12__shared_ptrIN8facebook5velox6memory9MmapArenaELN9__gnu_cxx12_Lock_policyE2EED2Ev = comdat any

$_ZNSt14__shared_countILN9__gnu_cxx12_Lock_policyE2EED2Ev = comdat any

$_ZNSt16_Sp_counted_baseILN9__gnu_cxx12_Lock_policyE2EE10_M_releaseEv = comdat any

$_ZNSt16_Sp_counted_baseILN9__gnu_cxx12_Lock_policyE2EE24_M_release_last_use_coldEv = comdat any

$_ZNSt16_Sp_counted_baseILN9__gnu_cxx12_Lock_policyE2EE19_M_release_last_useEv = comdat any

$_ZNSt8_Rb_treeImSt4pairIKmSt10shared_ptrIN8facebook5velox6memory9MmapArenaEEESt10_Select1stIS8_ESt4lessImESaIS8_EED2Ev = comdat any

$_ZNSt8_Rb_treeImSt4pairIKmSt10shared_ptrIN8facebook5velox6memory9MmapArenaEEESt10_Select1stIS8_ESt4lessImESaIS8_EE8_M_eraseEPSt13_Rb_tree_nodeIS8_E = comdat any

$_ZNSt8_Rb_treeImSt4pairIKmSt10shared_ptrIN8facebook5velox6memory9MmapArenaEEESt10_Select1stIS8_ESt4lessImESaIS8_EE8_M_beginEv = comdat any

$_ZNSt8_Rb_treeImSt4pairIKmSt10shared_ptrIN8facebook5velox6memory9MmapArenaEEESt10_Select1stIS8_ESt4lessImESaIS8_EE13_Rb_tree_implISC_Lb1EED2Ev = comdat any

$_ZNSt8_Rb_treeImSt4pairIKmSt10shared_ptrIN8facebook5velox6memory9MmapArenaEEESt10_Select1stIS8_ESt4lessImESaIS8_EE8_S_rightEPSt18_Rb_tree_node_base = comdat any

$_ZNSt8_Rb_treeImSt4pairIKmSt10shared_ptrIN8facebook5velox6memory9MmapArenaEEESt10_Select1stIS8_ESt4lessImESaIS8_EE7_S_leftEPSt18_Rb_tree_node_base = comdat any

$_ZNSt8_Rb_treeImSt4pairIKmSt10shared_ptrIN8facebook5velox6memory9MmapArenaEEESt10_Select1stIS8_ESt4lessImESaIS8_EE12_M_drop_nodeEPSt13_Rb_tree_nodeIS8_E = comdat any

$_ZNSt8_Rb_treeImSt4pairIKmSt10shared_ptrIN8facebook5velox6memory9MmapArenaEEESt10_Select1stIS8_ESt4lessImESaIS8_EE15_M_destroy_nodeEPSt13_Rb_tree_nodeIS8_E = comdat any

$_ZNSt8_Rb_treeImSt4pairIKmSt10shared_ptrIN8facebook5velox6memory9MmapArenaEEESt10_Select1stIS8_ESt4lessImESaIS8_EE11_M_put_nodeEPSt13_Rb_tree_nodeIS8_E = comdat any

$_ZNSt16allocator_traitsISaISt13_Rb_tree_nodeISt4pairIKmSt10shared_ptrIN8facebook5velox6memory9MmapArenaEEEEEE7destroyIS9_EEvRSB_PT_ = comdat any

$_ZNSt8_Rb_treeImSt4pairIKmSt10shared_ptrIN8facebook5velox6memory9MmapArenaEEESt10_Select1stIS8_ESt4lessImESaIS8_EE21_M_get_Node_allocatorEv = comdat any

$_ZNSt13_Rb_tree_nodeISt4pairIKmSt10shared_ptrIN8facebook5velox6memory9MmapArenaEEEE9_M_valptrEv = comdat any

$_ZNSt15__new_allocatorISt13_Rb_tree_nodeISt4pairIKmSt10shared_ptrIN8facebook5velox6memory9MmapArenaEEEEE7destroyIS9_EEvPT_ = comdat any

$_ZNSt4pairIKmSt10shared_ptrIN8facebook5velox6memory9MmapArenaEEED2Ev = comdat any

$_ZN9__gnu_cxx16__aligned_membufISt4pairIKmSt10shared_ptrIN8facebook5velox6memory9MmapArenaEEEE6_M_ptrEv = comdat any

$_ZN9__gnu_cxx16__aligned_membufISt4pairIKmSt10shared_ptrIN8facebook5velox6memory9MmapArenaEEEE7_M_addrEv = comdat any

$_ZNSt16allocator_traitsISaISt13_Rb_tree_nodeISt4pairIKmSt10shared_ptrIN8facebook5velox6memory9MmapArenaEEEEEE10deallocateERSB_PSA_m = comdat any

$_ZNSt15__new_allocatorISt13_Rb_tree_nodeISt4pairIKmSt10shared_ptrIN8facebook5velox6memory9MmapArenaEEEEE10deallocateEPSA_m = comdat any

$_ZNKSt8_Rb_treeImSt4pairIKmSt10shared_ptrIN8facebook5velox6memory9MmapArenaEEESt10_Select1stIS8_ESt4lessImESaIS8_EE9_M_mbeginEv = comdat any

$_ZNSaISt13_Rb_tree_nodeISt4pairIKmSt10shared_ptrIN8facebook5velox6memory9MmapArenaEEEEED2Ev = comdat any

$_ZNSt15__new_allocatorISt13_Rb_tree_nodeISt4pairIKmSt10shared_ptrIN8facebook5velox6memory9MmapArenaEEEEED2Ev = comdat any

$_ZSt3getILm1EJPN8facebook5velox6memory17ManagedMmapArenasESt14default_deleteIS3_EEERNSt13tuple_elementIXT_ESt5tupleIJDpT0_EEE4typeERSB_ = comdat any

$_ZSt12__get_helperILm1ESt14default_deleteIN8facebook5velox6memory17ManagedMmapArenasEEJEERT0_RSt11_Tuple_implIXT_EJS6_DpT1_EE = comdat any

$_ZNSt11_Tuple_implILm1EJSt14default_deleteIN8facebook5velox6memory17ManagedMmapArenasEEEE7_M_headERS6_ = comdat any

$_ZNSt10_Head_baseILm1ESt14default_deleteIN8facebook5velox6memory17ManagedMmapArenasEELb1EE7_M_headERS6_ = comdat any

$_ZNSt12__shared_ptrIN8facebook5velox6memory5CacheELN9__gnu_cxx12_Lock_policyE2EED2Ev = comdat any

$_ZNSt6chrono20__duration_cast_implINS_8durationIlSt5ratioILl1ELl1000EEEES2_ILl1ELl1000000EElLb1ELb0EE6__castIlS2_ILl1ELl1000000000EEEES4_RKNS1_IT_T0_EE = comdat any

$_ZNKSt6chrono8durationIlSt5ratioILl1ELl1000000000EEE5countEv = comdat any

$_ZNSt6chrono8durationIlSt5ratioILl1ELl1000EEEC2IlvEERKT_ = comdat any

$_ZNSt14__array_traitsIiLm12EE6_S_refERA12_Kim = comdat any

$_ZNKSt6vectorIN8facebook5velox6memory10Allocation7PageRunESaIS4_EE5emptyEv = comdat any

$_ZN9__gnu_cxxeqIPKN8facebook5velox6memory10Allocation7PageRunESt6vectorIS5_SaIS5_EEEEbRKNS_17__normal_iteratorIT_T0_EESG_ = comdat any

$_ZNKSt6vectorIN8facebook5velox6memory10Allocation7PageRunESaIS4_EE5beginEv = comdat any

$_ZNKSt6vectorIN8facebook5velox6memory10Allocation7PageRunESaIS4_EE3endEv = comdat any

$_ZNK9__gnu_cxx17__normal_iteratorIPKN8facebook5velox6memory10Allocation7PageRunESt6vectorIS5_SaIS5_EEE4baseEv = comdat any

$_ZN9__gnu_cxx17__normal_iteratorIPKN8facebook5velox6memory10Allocation7PageRunESt6vectorIS5_SaIS5_EEEC2ERKS7_ = comdat any

$_ZN5folly18hardware_timestampEv = comdat any

$_ZN8facebook5velox4bits14nextPowerOfTwoEm = comdat any

$_ZN8facebook5velox4bits17countLeadingZerosImEEiT_ = comdat any

$_ZNSt14__array_traitsIN8facebook5velox6memory14SizeClassStatsELm20EE6_S_refERA20_KS3_m = comdat any

$_ZNSt6vectorIN8facebook5velox6memory10Allocation7PageRunESaIS4_EE5clearEv = comdat any

$_ZNSt6vectorIN8facebook5velox6memory10Allocation7PageRunESaIS4_EE15_M_erase_at_endEPS4_ = comdat any

$_ZSt8_DestroyIPN8facebook5velox6memory10Allocation7PageRunES4_EvT_S6_RSaIT0_E = comdat any

$_ZNSt12_Vector_baseIN8facebook5velox6memory10Allocation7PageRunESaIS4_EE19_M_get_Tp_allocatorEv = comdat any

$_ZSt8_DestroyIPN8facebook5velox6memory10Allocation7PageRunEEvT_S6_ = comdat any

$_ZNSt12_Destroy_auxILb1EE9__destroyIPN8facebook5velox6memory10Allocation7PageRunEEEvT_S8_ = comdat any

$_ZNSt6vectorIN8facebook5velox6memory10Allocation7PageRunESaIS4_EEC2Ev = comdat any

$_ZNSt12_Vector_baseIN8facebook5velox6memory10Allocation7PageRunESaIS4_EEC2Ev = comdat any

$_ZNSt12_Vector_baseIN8facebook5velox6memory10Allocation7PageRunESaIS4_EE12_Vector_implC2Ev = comdat any

$_ZNSaIN8facebook5velox6memory10Allocation7PageRunEEC2Ev = comdat any

$_ZNSt12_Vector_baseIN8facebook5velox6memory10Allocation7PageRunESaIS4_EE17_Vector_impl_dataC2Ev = comdat any

$_ZNSt15__new_allocatorIN8facebook5velox6memory10Allocation7PageRunEEC2Ev = comdat any

$_ZNSt14_Function_baseD2Ev = comdat any

$_ZNKSt6vectorIN8facebook5velox6memory10Allocation7PageRunESaIS4_EEixEm = comdat any

$_ZNKSt6vectorIN8facebook5velox6memory10Allocation7PageRunESaIS4_EE4sizeEv = comdat any

$_ZN8facebook5velox4simd6detail7BitMaskImN5xsimd4fma3INS4_4avx2EEELm8EE9toBitMaskENS4_10batch_boolImS7_EERKNS4_3avxE = comdat any

$_ZN8facebook5velox4simd13allSetBitMaskImN5xsimd4fma3INS3_4avx2EEEEEDaRKT0_ = comdat any

$_ZSteqIN8facebook5velox6memory5CacheEEbRKSt10shared_ptrIT_EDn = comdat any

$_ZStneIN8facebook5velox6memory5CacheEEbRKSt10shared_ptrIT_EDn = comdat any

$_ZNKSt19__shared_ptr_accessIN8facebook5velox6memory5CacheELN9__gnu_cxx12_Lock_policyE2ELb0ELb0EEptEv = comdat any

$_ZNSt10shared_ptrIN8facebook5velox6memory5CacheEEaSERKS4_ = comdat any

$_ZNKSt12__shared_ptrIN8facebook5velox6memory5CacheELN9__gnu_cxx12_Lock_policyE2EEcvbEv = comdat any

$_ZNKSt19__shared_ptr_accessIN8facebook5velox6memory5CacheELN9__gnu_cxx12_Lock_policyE2ELb0ELb0EE6_M_getEv = comdat any

$_ZNKSt12__shared_ptrIN8facebook5velox6memory5CacheELN9__gnu_cxx12_Lock_policyE2EE3getEv = comdat any

$_ZNSt12__shared_ptrIN8facebook5velox6memory5CacheELN9__gnu_cxx12_Lock_policyE2EEaSERKS6_ = comdat any

$_ZNSt14__shared_countILN9__gnu_cxx12_Lock_policyE2EEaSERKS2_ = comdat any

$_ZNSt16_Sp_counted_baseILN9__gnu_cxx12_Lock_policyE2EE15_M_add_ref_copyEv = comdat any

$_ZN8facebook5velox6memory5StatsC2ERKS2_ = comdat any

$_ZNSt5arrayIN8facebook5velox6memory14SizeClassStatsELm20EEC2ERKS4_ = comdat any

$_ZN8facebook5velox6memory14SizeClassStatsC2ERKS2_ = comdat any

$_ZN8facebook5velox6memory14SizeClassStatsaSERKS2_ = comdat any

$_ZNSt13__atomic_baseImEaSEm = comdat any

$_ZNKSt13__atomic_baseIlEcvlEv = comdat any

$_ZNSt13__atomic_baseIlEaSEl = comdat any

$_ZStanSt12memory_orderSt23__memory_order_modifier = comdat any

$_ZNSt11char_traitsIcE6lengthEPKc = comdat any

$_ZNSt7__cxx1112basic_stringIcSt11char_traitsIcESaIcEE12_M_constructIPKcEEvT_S8_St20forward_iterator_tag = comdat any

$_ZNSt7__cxx1112basic_stringIcSt11char_traitsIcESaIcEE12_Alloc_hiderD2Ev = comdat any

$_ZSt8distanceIPKcENSt15iterator_traitsIT_E15difference_typeES3_S3_ = comdat any

$_ZZNSt7__cxx1112basic_stringIcSt11char_traitsIcESaIcEE12_M_constructIPKcEEvT_S8_St20forward_iterator_tagEN6_GuardC2EPS4_ = comdat any

$_ZZNSt7__cxx1112basic_stringIcSt11char_traitsIcESaIcEE12_M_constructIPKcEEvT_S8_St20forward_iterator_tagEN6_GuardD2Ev = comdat any

$_ZSt10__distanceIPKcENSt15iterator_traitsIT_E15difference_typeES3_S3_St26random_access_iterator_tag = comdat any

$_ZSt19__iterator_categoryIPKcENSt15iterator_traitsIT_E17iterator_categoryERKS3_ = comdat any

$_ZNSt5mutex4lockEv = comdat any

$_ZNSt5mutex6unlockEv = comdat any

$_ZNSt15__new_allocatorImEC2Ev = comdat any

$_ZNK9__gnu_cxx17__normal_iteratorIPKmSt6vectorImSaImEEEmiEl = comdat any

$_ZN9__gnu_cxx17__normal_iteratorIPKmSt6vectorImSaImEEEC2ERKS2_ = comdat any

$_ZNKSt6vectorImSaImEE11_M_data_ptrImEEPT_S4_ = comdat any

$_ZSt8_DestroyIPmmEvT_S1_RSaIT0_E = comdat any

$_ZSt8_DestroyIPmEvT_S1_ = comdat any

$_ZNSt12_Destroy_auxILb1EE9__destroyIPmEEvT_S3_ = comdat any

$_ZSt8_DestroyIPSt10unique_ptrIN8facebook5velox6memory13MmapAllocator9SizeClassESt14default_deleteIS5_EES8_EvT_SA_RSaIT0_E = comdat any

$_ZNSt12_Vector_baseISt10unique_ptrIN8facebook5velox6memory13MmapAllocator9SizeClassESt14default_deleteIS5_EESaIS8_EE19_M_get_Tp_allocatorEv = comdat any

$_ZNSt12_Vector_baseISt10unique_ptrIN8facebook5velox6memory13MmapAllocator9SizeClassESt14default_deleteIS5_EESaIS8_EED2Ev = comdat any

$_ZSt8_DestroyIPSt10unique_ptrIN8facebook5velox6memory13MmapAllocator9SizeClassESt14default_deleteIS5_EEEvT_SA_ = comdat any

$_ZNSt12_Destroy_auxILb0EE9__destroyIPSt10unique_ptrIN8facebook5velox6memory13MmapAllocator9SizeClassESt14default_deleteIS7_EEEEvT_SC_ = comdat any

$_ZSt8_DestroyISt10unique_ptrIN8facebook5velox6memory13MmapAllocator9SizeClassESt14default_deleteIS5_EEEvPT_ = comdat any

$_ZNSt12_Vector_baseISt10unique_ptrIN8facebook5velox6memory13MmapAllocator9SizeClassESt14default_deleteIS5_EESaIS8_EE13_M_deallocateEPS8_m = comdat any

$_ZNSt12_Vector_baseISt10unique_ptrIN8facebook5velox6memory13MmapAllocator9SizeClassESt14default_deleteIS5_EESaIS8_EE12_Vector_implD2Ev = comdat any

$_ZNSt16allocator_traitsISaISt10unique_ptrIN8facebook5velox6memory13MmapAllocator9SizeClassESt14default_deleteIS5_EEEE10deallocateERS9_PS8_m = comdat any

$_ZNSt15__new_allocatorISt10unique_ptrIN8facebook5velox6memory13MmapAllocator9SizeClassESt14default_deleteIS5_EEE10deallocateEPS8_m = comdat any

$_ZNSaISt10unique_ptrIN8facebook5velox6memory13MmapAllocator9SizeClassESt14default_deleteIS4_EEED2Ev = comdat any

$_ZNSt15__new_allocatorISt10unique_ptrIN8facebook5velox6memory13MmapAllocator9SizeClassESt14default_deleteIS5_EEED2Ev = comdat any

$_ZNSt10unique_ptrIN8facebook5velox6memory17ManagedMmapArenasESt14default_deleteIS3_EE11get_deleterEv = comdat any

$_ZNK9__gnu_cxx17__normal_iteratorIPKmSt6vectorImSaImEEE4baseEv = comdat any

$_ZNSt10unique_ptrIN8facebook5velox6memory13MmapAllocator9SizeClassESt14default_deleteIS4_EEC2IS6_vEEPS4_ = comdat any

$_ZNSt15__uniq_ptr_dataIN8facebook5velox6memory13MmapAllocator9SizeClassESt14default_deleteIS4_ELb1ELb1EECI2St15__uniq_ptr_implIS4_S6_EEPS4_ = comdat any

$_ZNSt15__uniq_ptr_implIN8facebook5velox6memory13MmapAllocator9SizeClassESt14default_deleteIS4_EEC2EPS4_ = comdat any

$_ZNSt5tupleIJPN8facebook5velox6memory13MmapAllocator9SizeClassESt14default_deleteIS4_EEEC2ILb1ETnNSt9enable_ifIXclsr17_TupleConstraintsIXT_ES5_S7_EE37__is_implicitly_default_constructibleEEbE4typeELb1EEEv = comdat any

$_ZNSt15__uniq_ptr_implIN8facebook5velox6memory13MmapAllocator9SizeClassESt14default_deleteIS4_EE6_M_ptrEv = comdat any

$_ZNSt11_Tuple_implILm0EJPN8facebook5velox6memory13MmapAllocator9SizeClassESt14default_deleteIS4_EEEC2Ev = comdat any

$_ZNSt11_Tuple_implILm1EJSt14default_deleteIN8facebook5velox6memory13MmapAllocator9SizeClassEEEEC2Ev = comdat any

$_ZNSt10_Head_baseILm0EPN8facebook5velox6memory13MmapAllocator9SizeClassELb0EEC2Ev = comdat any

$_ZNSt10_Head_baseILm1ESt14default_deleteIN8facebook5velox6memory13MmapAllocator9SizeClassEELb1EEC2Ev = comdat any

$_ZSt3getILm0EJPN8facebook5velox6memory13MmapAllocator9SizeClassESt14default_deleteIS4_EEERNSt13tuple_elementIXT_ESt5tupleIJDpT0_EEE4typeERSC_ = comdat any

$_ZSt12__get_helperILm0EPN8facebook5velox6memory13MmapAllocator9SizeClassEJSt14default_deleteIS4_EEERT0_RSt11_Tuple_implIXT_EJS8_DpT1_EE = comdat any

$_ZNSt11_Tuple_implILm0EJPN8facebook5velox6memory13MmapAllocator9SizeClassESt14default_deleteIS4_EEE7_M_headERS8_ = comdat any

$_ZNSt10_Head_baseILm0EPN8facebook5velox6memory13MmapAllocator9SizeClassELb0EE7_M_headERS6_ = comdat any

$_ZNSt10unique_ptrIN8facebook5velox6memory13MmapAllocator9SizeClassESt14default_deleteIS4_EE11get_deleterEv = comdat any

$_ZNKSt14default_deleteIN8facebook5velox6memory13MmapAllocator9SizeClassEEclEPS4_ = comdat any

$_ZNSt15__uniq_ptr_implIN8facebook5velox6memory13MmapAllocator9SizeClassESt14default_deleteIS4_EE10_M_deleterEv = comdat any

$_ZSt3getILm1EJPN8facebook5velox6memory13MmapAllocator9SizeClassESt14default_deleteIS4_EEERNSt13tuple_elementIXT_ESt5tupleIJDpT0_EEE4typeERSC_ = comdat any

$_ZSt12__get_helperILm1ESt14default_deleteIN8facebook5velox6memory13MmapAllocator9SizeClassEEJEERT0_RSt11_Tuple_implIXT_EJS7_DpT1_EE = comdat any

$_ZNSt11_Tuple_implILm1EJSt14default_deleteIN8facebook5velox6memory13MmapAllocator9SizeClassEEEE7_M_headERS7_ = comdat any

$_ZNSt10_Head_baseILm1ESt14default_deleteIN8facebook5velox6memory13MmapAllocator9SizeClassEELb1EE7_M_headERS7_ = comdat any

$_ZNSt6vectorISt10unique_ptrIN8facebook5velox6memory13MmapAllocator9SizeClassESt14default_deleteIS5_EESaIS8_EE12emplace_backIJS8_EEERS8_DpOT_ = comdat any

$_ZNSt16allocator_traitsISaISt10unique_ptrIN8facebook5velox6memory13MmapAllocator9SizeClassESt14default_deleteIS5_EEEE9constructIS8_JS8_EEEvRS9_PT_DpOT0_ = comdat any

$_ZNSt6vectorISt10unique_ptrIN8facebook5velox6memory13MmapAllocator9SizeClassESt14default_deleteIS5_EESaIS8_EE17_M_realloc_insertIJS8_EEEvN9__gnu_cxx17__normal_iteratorIPS8_SA_EEDpOT_ = comdat any

$_ZNSt6vectorISt10unique_ptrIN8facebook5velox6memory13MmapAllocator9SizeClassESt14default_deleteIS5_EESaIS8_EE4backEv = comdat any

$_ZNSt15__new_allocatorISt10unique_ptrIN8facebook5velox6memory13MmapAllocator9SizeClassESt14default_deleteIS5_EEE9constructIS8_JS8_EEEvPT_DpOT0_ = comdat any

$_ZNSt10unique_ptrIN8facebook5velox6memory13MmapAllocator9SizeClassESt14default_deleteIS4_EEC2EOS7_ = comdat any

$_ZNSt15__uniq_ptr_dataIN8facebook5velox6memory13MmapAllocator9SizeClassESt14default_deleteIS4_ELb1ELb1EEC2EOS7_ = comdat any

$_ZNSt15__uniq_ptr_implIN8facebook5velox6memory13MmapAllocator9SizeClassESt14default_deleteIS4_EEC2EOS7_ = comdat any

$_ZNSt5tupleIJPN8facebook5velox6memory13MmapAllocator9SizeClassESt14default_deleteIS4_EEEC2EOS8_ = comdat any

$_ZNSt11_Tuple_implILm0EJPN8facebook5velox6memory13MmapAllocator9SizeClassESt14default_deleteIS4_EEEC2EOS8_ = comdat any

$_ZNSt11_Tuple_implILm1EJSt14default_deleteIN8facebook5velox6memory13MmapAllocator9SizeClassEEEEC2EOS7_ = comdat any

$_ZNKSt6vectorISt10unique_ptrIN8facebook5velox6memory13MmapAllocator9SizeClassESt14default_deleteIS5_EESaIS8_EE12_M_check_lenEmPKc = comdat any

$_ZN9__gnu_cxxmiIPSt10unique_ptrIN8facebook5velox6memory13MmapAllocator9SizeClassESt14default_deleteIS6_EESt6vectorIS9_SaIS9_EEEENS_17__normal_iteratorIT_T0_E15difference_typeERKSH_SK_ = comdat any

$_ZNSt12_Vector_baseISt10unique_ptrIN8facebook5velox6memory13MmapAllocator9SizeClassESt14default_deleteIS5_EESaIS8_EE11_M_allocateEm = comdat any

$_ZNSt6vectorISt10unique_ptrIN8facebook5velox6memory13MmapAllocator9SizeClassESt14default_deleteIS5_EESaIS8_EE11_S_relocateEPS8_SB_SB_RS9_ = comdat any

$_ZNK9__gnu_cxx17__normal_iteratorIPSt10unique_ptrIN8facebook5velox6memory13MmapAllocator9SizeClassESt14default_deleteIS6_EESt6vectorIS9_SaIS9_EEE4baseEv = comdat any

$_ZNKSt6vectorISt10unique_ptrIN8facebook5velox6memory13MmapAllocator9SizeClassESt14default_deleteIS5_EESaIS8_EE8max_sizeEv = comdat any

$_ZNSt6vectorISt10unique_ptrIN8facebook5velox6memory13MmapAllocator9SizeClassESt14default_deleteIS5_EESaIS8_EE11_S_max_sizeERKS9_ = comdat any

$_ZNKSt12_Vector_baseISt10unique_ptrIN8facebook5velox6memory13MmapAllocator9SizeClassESt14default_deleteIS5_EESaIS8_EE19_M_get_Tp_allocatorEv = comdat any

$_ZNSt16allocator_traitsISaISt10unique_ptrIN8facebook5velox6memory13MmapAllocator9SizeClassESt14default_deleteIS5_EEEE8max_sizeERKS9_ = comdat any

$_ZNKSt15__new_allocatorISt10unique_ptrIN8facebook5velox6memory13MmapAllocator9SizeClassESt14default_deleteIS5_EEE8max_sizeEv = comdat any

$_ZNKSt15__new_allocatorISt10unique_ptrIN8facebook5velox6memory13MmapAllocator9SizeClassESt14default_deleteIS5_EEE11_M_max_sizeEv = comdat any

$_ZNSt16allocator_traitsISaISt10unique_ptrIN8facebook5velox6memory13MmapAllocator9SizeClassESt14default_deleteIS5_EEEE8allocateERS9_m = comdat any

$_ZNSt15__new_allocatorISt10unique_ptrIN8facebook5velox6memory13MmapAllocator9SizeClassESt14default_deleteIS5_EEE8allocateEmPKv = comdat any

$_ZSt12__relocate_aIPSt10unique_ptrIN8facebook5velox6memory13MmapAllocator9SizeClassESt14default_deleteIS5_EES9_SaIS8_EET0_T_SC_SB_RT1_ = comdat any

$_ZSt14__relocate_a_1IPSt10unique_ptrIN8facebook5velox6memory13MmapAllocator9SizeClassESt14default_deleteIS5_EES9_SaIS8_EET0_T_SC_SB_RT1_ = comdat any

$_ZSt12__niter_baseIPSt10unique_ptrIN8facebook5velox6memory13MmapAllocator9SizeClassESt14default_deleteIS5_EEET_SA_ = comdat any

$_ZSt19__relocate_object_aISt10unique_ptrIN8facebook5velox6memory13MmapAllocator9SizeClassESt14default_deleteIS5_EES8_SaIS8_EEvPT_PT0_RT1_ = comdat any

$_ZNSt16allocator_traitsISaISt10unique_ptrIN8facebook5velox6memory13MmapAllocator9SizeClassESt14default_deleteIS5_EEEE7destroyIS8_EEvRS9_PT_ = comdat any

$_ZNSt15__new_allocatorISt10unique_ptrIN8facebook5velox6memory13MmapAllocator9SizeClassESt14default_deleteIS5_EEE7destroyIS8_EEvPT_ = comdat any

$_ZNK9__gnu_cxx17__normal_iteratorIPSt10unique_ptrIN8facebook5velox6memory13MmapAllocator9SizeClassESt14default_deleteIS6_EESt6vectorIS9_SaIS9_EEEmiEl = comdat any

$_ZN9__gnu_cxx17__normal_iteratorIPSt10unique_ptrIN8facebook5velox6memory13MmapAllocator9SizeClassESt14default_deleteIS6_EESt6vectorIS9_SaIS9_EEEC2ERKSA_ = comdat any

$_ZNSt10unique_ptrIN8facebook5velox6memory17ManagedMmapArenasESt14default_deleteIS3_EEC2IS5_vEEPS3_ = comdat any

$_ZNSt15__uniq_ptr_dataIN8facebook5velox6memory17ManagedMmapArenasESt14default_deleteIS3_ELb1ELb1EECI2St15__uniq_ptr_implIS3_S5_EEPS3_ = comdat any

$_ZNSt15__uniq_ptr_implIN8facebook5velox6memory17ManagedMmapArenasESt14default_deleteIS3_EEC2EPS3_ = comdat any

$_ZNKSt8functionIFvlbEEcvbEv = comdat any

$_ZNKSt14_Function_base8_M_emptyEv = comdat any

$_ZN3fmt2v816make_format_argsINS0_20basic_format_contextINS0_8appenderEcEEJRKiRKmEEENS0_16format_arg_storeIT_JDpNSt9remove_cvINSt16remove_referenceIT0_E4typeEE4typeEEEEDpOSD_ = comdat any

$_ZSt23__cmpexch_failure_orderSt12memory_order = comdat any

$_ZStorSt12memory_orderSt23__memory_order_modifier = comdat any

$_ZSt24__cmpexch_failure_order2St12memory_order = comdat any

$_ZNKSt10unique_ptrIN8facebook5velox6memory13MmapAllocator9SizeClassESt14default_deleteIS4_EE3getEv = comdat any

$_ZNKSt15__uniq_ptr_implIN8facebook5velox6memory13MmapAllocator9SizeClassESt14default_deleteIS4_EE6_M_ptrEv = comdat any

$_ZSt3getILm0EJPN8facebook5velox6memory13MmapAllocator9SizeClassESt14default_deleteIS4_EEERKNSt13tuple_elementIXT_ESt5tupleIJDpT0_EEE4typeERKSC_ = comdat any

$_ZSt12__get_helperILm0EPN8facebook5velox6memory13MmapAllocator9SizeClassEJSt14default_deleteIS4_EEERKT0_RKSt11_Tuple_implIXT_EJS8_DpT1_EE = comdat any

$_ZNSt11_Tuple_implILm0EJPN8facebook5velox6memory13MmapAllocator9SizeClassESt14default_deleteIS4_EEE7_M_headERKS8_ = comdat any

$_ZNSt10_Head_baseILm0EPN8facebook5velox6memory13MmapAllocator9SizeClassELb0EE7_M_headERKS6_ = comdat any

$_ZN8facebook5velox10ClockTimerC2ERSt6atomicImE = comdat any

$_ZNSt13__atomic_baseIlEpLEl = comdat any

$_ZN3fmt2v816make_format_argsINS0_20basic_format_contextINS0_8appenderEcEEJRiRKiEEENS0_16format_arg_storeIT_JDpNSt9remove_cvINSt16remove_referenceIT0_E4typeEE4typeEEEEDpOSC_ = comdat any

$_ZN3fmt2v816make_format_argsINS0_20basic_format_contextINS0_8appenderEcEEJRmRKiEEENS0_16format_arg_storeIT_JDpNSt9remove_cvINSt16remove_referenceIT0_E4typeEE4typeEEEEDpOSC_ = comdat any

$_ZNSt8functionIFvlbEEC2ERKS1_ = comdat any

$_ZNSt14_Function_baseC2Ev = comdat any

$_ZNKSt10unique_ptrIN8facebook5velox6memory17ManagedMmapArenasESt14default_deleteIS3_EE3getEv = comdat any

$_ZNKSt15__uniq_ptr_implIN8facebook5velox6memory17ManagedMmapArenasESt14default_deleteIS3_EE6_M_ptrEv = comdat any

$_ZSt3getILm0EJPN8facebook5velox6memory17ManagedMmapArenasESt14default_deleteIS3_EEERKNSt13tuple_elementIXT_ESt5tupleIJDpT0_EEE4typeERKSB_ = comdat any

$_ZSt12__get_helperILm0EPN8facebook5velox6memory17ManagedMmapArenasEJSt14default_deleteIS3_EEERKT0_RKSt11_Tuple_implIXT_EJS7_DpT1_EE = comdat any

$_ZNSt11_Tuple_implILm0EJPN8facebook5velox6memory17ManagedMmapArenasESt14default_deleteIS3_EEE7_M_headERKS7_ = comdat any

$_ZNSt10_Head_baseILm0EPN8facebook5velox6memory17ManagedMmapArenasELb0EE7_M_headERKS5_ = comdat any

$_ZN3fmt2v816make_format_argsINS0_20basic_format_contextINS0_8appenderEcEEJRKlRmRKmEEENS0_16format_arg_storeIT_JDpNSt9remove_cvINSt16remove_referenceIT0_E4typeEE4typeEEEEDpOSE_ = comdat any

$_ZN3fmt2v816make_format_argsINS0_20basic_format_contextINS0_8appenderEcEEJRKlRmEEENS0_16format_arg_storeIT_JDpNSt9remove_cvINSt16remove_referenceIT0_E4typeEE4typeEEEEDpOSC_ = comdat any

$_ZN3fmt2v816make_format_argsINS0_20basic_format_contextINS0_8appenderEcEEJRmRPKcEEENS0_16format_arg_storeIT_JDpNSt9remove_cvINSt16remove_referenceIT0_E4typeEE4typeEEEEDpOSD_ = comdat any

$_ZN3fmt2v816make_format_argsINS0_20basic_format_contextINS0_8appenderEcEEJRmS5_RKmEEENS0_16format_arg_storeIT_JDpNSt9remove_cvINSt16remove_referenceIT0_E4typeEE4typeEEEEDpOSC_ = comdat any

$_ZN3fmt2v816make_format_argsINS0_20basic_format_contextINS0_8appenderEcEEJRmS5_EEENS0_16format_arg_storeIT_JDpNSt9remove_cvINSt16remove_referenceIT0_E4typeEE4typeEEEEDpOSA_ = comdat any

$_ZNSt12_Vector_baseImSaImEEC2EmRKS0_ = comdat any

$_ZNSt6vectorImSaImEE21_M_default_initializeEm = comdat any

$_ZNSt12_Vector_baseImSaImEE17_M_create_storageEm = comdat any

$_ZSt27__uninitialized_default_n_aIPmmmET_S1_T0_RSaIT1_E = comdat any

$_ZSt25__uninitialized_default_nIPmmET_S1_T0_ = comdat any

$_ZNSt27__uninitialized_default_n_1ILb1EE18__uninit_default_nIPmmEET_S3_T0_ = comdat any

$_ZSt10_ConstructImJEEvPT_DpOT0_ = comdat any

$_ZSt6fill_nIPmmmET_S1_T0_RKT1_ = comdat any

$_ZSt10__fill_n_aIPmmmET_S1_T0_RKT1_St26random_access_iterator_tag = comdat any

$_ZSt17__size_to_integerm = comdat any

$_ZSt19__iterator_categoryIPmENSt15iterator_traitsIT_E17iterator_categoryERKS2_ = comdat any

$_ZSt8__fill_aIPmmEvT_S1_RKT0_ = comdat any

$_ZSt9__fill_a1IPmmEN9__gnu_cxx11__enable_ifIXsr11__is_scalarIT0_EE7__valueEvE6__typeET_S6_RKS3_ = comdat any

$_ZN5xsimd6detail29static_check_supported_configImNS_4fma3INS_4avx2EEEEEvv = comdat any

$_ZN5xsimd5batchImNS_4fma3INS_4avx2EEEE9broadcastImEES4_T_ = comdat any

$_ZN5xsimd5batchImNS_4fma3INS_4avx2EEEEC2Em = comdat any

$_ZN5xsimd6kernel9broadcastINS_4fma3INS_4avx2EEEmvEENS_5batchIT0_T_EES6_RKNS_3avxE = comdat any

$_ZN5xsimd5batchImNS_4fma3INS_4avx2EEEEC2EDv4_x = comdat any

$_ZN5xsimd5types13simd_registerImNS_4fma3INS_4avx2EEEEC2EDv4_x = comdat any

$_ZN5xsimd5types13simd_registerImNS_4avx2EEC2EDv4_x = comdat any

$_ZN5xsimd7details2eqImNS_4fma3INS_4avx2EEEEENS_10batch_boolIT_T0_EERKNS_5batchIS6_S7_EESC_ = comdat any

$_ZN5xsimd6kernel2eqINS_4fma3INS_4avx2EEEmvEENS_10batch_boolIT0_T_EERKNS_5batchIS6_S7_EESC_RKS3_ = comdat any

$_ZNK5xsimd5types13simd_registerImNS_3avxEEcvDv4_xEv = comdat any

$_ZN5xsimd10batch_boolImNS_4fma3INS_4avx2EEEEC2EDv4_x = comdat any

$_ZN5xsimd7load_asImNS_4fma3INS_4avx2EEEmEENS_6detail21simd_return_type_implIT1_T_T0_E4typeEPKS6_NS_14unaligned_modeE = comdat any

$_ZN5xsimd6kernel14load_unalignedINS_4fma3INS_4avx2EEEmvEENS_5batchIT0_T_EEPKS6_NS0_7convertIS6_EERKNS_3avxE = comdat any

$_ZN5xsimd5batchImNS_4fma3INS_4avx2EEEEeOERKS4_ = comdat any

$_ZN5xsimd6kernel11bitwise_xorINS_4fma3INS_4avx2EEEmvEENS_5batchIT0_T_EERKS8_SA_RKS3_ = comdat any

$_ZN5xsimd5batchImNS_4fma3INS_4avx2EEEEaNERKS4_ = comdat any

$_ZN5xsimd6kernel11bitwise_andINS_4fma3INS_4avx2EEEmvEENS_5batchIT0_T_EERKS8_SA_RKS3_ = comdat any

$_ZN8facebook5velox4bits7roundUpIiiEET_S3_T0_ = comdat any

$_ZN8facebook5velox4bits7lowMaskEi = comdat any

$_ZN8facebook5velox4bits8highMaskEi = comdat any

$_ZN9__gnu_cxx17__normal_iteratorIPKSt10unique_ptrIN8facebook5velox6memory13MmapAllocator9SizeClassESt14default_deleteIS6_EESt6vectorIS9_SaIS9_EEEC2ERKSB_ = comdat any

$_ZNK9__gnu_cxx17__normal_iteratorIPKSt10unique_ptrIN8facebook5velox6memory13MmapAllocator9SizeClassESt14default_deleteIS6_EESt6vectorIS9_SaIS9_EEE4baseEv = comdat any

@_ZTVN8facebook5velox6memory13MmapAllocatorE = unnamed_addr constant { [25 x ptr] } { [25 x ptr] [ptr null, ptr @_ZTIN8facebook5velox6memory13MmapAllocatorE, ptr @_ZN8facebook5velox6memory13MmapAllocatorD1Ev, ptr @_ZN8facebook5velox6memory13MmapAllocatorD0Ev, ptr @_ZNK8facebook5velox6memory13MmapAllocator4kindEv, ptr @_ZN8facebook5velox6memory13MmapAllocator13registerCacheERKSt10shared_ptrINS1_5CacheEE, ptr @_ZNK8facebook5velox6memory13MmapAllocator8capacityEv, ptr @_ZN8facebook5velox6memory13MmapAllocator17freeNonContiguousERNS1_10AllocationE, ptr @_ZN8facebook5velox6memory13MmapAllocator14freeContiguousERNS1_20ContiguousAllocationE, ptr @_ZN8facebook5velox6memory13MmapAllocator9freeBytesEPvm, ptr @_ZN8facebook5velox6memory13MmapAllocator5unmapEm, ptr @_ZNK8facebook5velox6memory13MmapAllocator16checkConsistencyEv, ptr @_ZNK8facebook5velox6memory15MemoryAllocator16largestSizeClassEv, ptr @_ZNK8facebook5velox6memory15MemoryAllocator11sizeClassesEv, ptr @_ZNK8facebook5velox6memory13MmapAllocator14totalUsedBytesEv, ptr @_ZNK8facebook5velox6memory13MmapAllocator12numAllocatedEv, ptr @_ZNK8facebook5velox6memory13MmapAllocator9numMappedEv, ptr @_ZNK8facebook5velox6memory13MmapAllocator5statsEv, ptr @_ZNK8facebook5velox6memory13MmapAllocator8toStringB5cxx11Ev, ptr @_ZN8facebook5velox6memory13MmapAllocator30allocateContiguousWithoutRetryEmPNS1_10AllocationERNS1_20ContiguousAllocationESt8functionIFvlbEEm, ptr @_ZN8facebook5velox6memory13MmapAllocator33allocateNonContiguousWithoutRetryEmRNS1_10AllocationESt8functionIFvlbEEm, ptr @_ZN8facebook5velox6memory13MmapAllocator25allocateBytesWithoutRetryEmt, ptr @_ZN8facebook5velox6memory15MemoryAllocator30allocateZeroFilledWithoutRetryEm, ptr @_ZN8facebook5velox6memory13MmapAllocator26growContiguousWithoutRetryEmRNS1_20ContiguousAllocationESt8functionIFvlbEE, ptr @_ZNK8facebook5velox6memory13MmapAllocator5cacheEv] }, align 8
@.str = private unnamed_addr constant [83 x i8] c"Exceeded memory allocator limit when allocating {} pages with capacity of {} pages\00", align 1
@_ZZN8facebook5velox6memory13MmapAllocator33allocateNonContiguousWithoutRetryEmRNS1_10AllocationESt8functionIFvlbEEmE11FB_LEM_hist = internal global %"struct.std::atomic.0" zeroinitializer, align 8
@.str.1 = private unnamed_addr constant [127 x i8] c"generated/home/dtcxzyw/WorkSpace/Projects/compilers/llvm-opt-benchmark/bench/velox/velox/velox/common/memory/MmapAllocator.cpp\00", align 1
@.str.2 = private unnamed_addr constant [7 x i8] c"[MEM] \00", align 1
@.str.3 = private unnamed_addr constant [84 x i8] c"Exceeding memory allocator limit when allocating {} pages with capacity of {} pages\00", align 1
@_ZZN8facebook5velox6memory13MmapAllocator33allocateNonContiguousWithoutRetryEmRNS1_10AllocationESt8functionIFvlbEEmE11FB_LEM_hist_0 = internal global %"struct.std::atomic.0" zeroinitializer, align 8
@_ZTISt9exception = external constant ptr
@_ZZN8facebook5velox6memory13MmapAllocator33allocateNonContiguousWithoutRetryEmRNS1_10AllocationESt8functionIFvlbEEmE11FB_LEM_hist_1 = internal global %"struct.std::atomic.0" zeroinitializer, align 8
@.str.4 = private unnamed_addr constant [48 x i8] c"Exceeded memory reservation limit when reserve \00", align 1
@.str.5 = private unnamed_addr constant [26 x i8] c" new pages when allocate \00", align 1
@.str.6 = private unnamed_addr constant [7 x i8] c" pages\00", align 1
@.str.7 = private unnamed_addr constant [48 x i8] c"Failed allocation in size class {} for {} pages\00", align 1
@.str.8 = private unnamed_addr constant [75 x i8] c"Could not advise away enough for {} pages for total allocation of {} pages\00", align 1
@_ZN3fLB28FLAGS_velox_time_allocationsE = external global i8, align 1
@.str.9 = private unnamed_addr constant [12 x i8] c"munmap got \00", align 1
@.str.10 = private unnamed_addr constant [6 x i8] c" for \00", align 1
@_ZZN8facebook5velox6memory13MmapAllocator22allocateContiguousImplEmPNS1_10AllocationERNS1_20ContiguousAllocationESt8functionIFvlbEEmE11FB_LEM_hist = internal global %"struct.std::atomic.0" zeroinitializer, align 8
@.str.11 = private unnamed_addr constant [16 x i8] c" pages, error: \00", align 1
@.str.12 = private unnamed_addr constant [137 x i8] c"Exceeded memory allocator limit when allocating {} new pages for total allocation of {} pages, the memory allocator capacity is {} pages\00", align 1
@_ZZN8facebook5velox6memory13MmapAllocator22allocateContiguousImplEmPNS1_10AllocationERNS1_20ContiguousAllocationESt8functionIFvlbEEmE11FB_LEM_hist_0 = internal global %"struct.std::atomic.0" zeroinitializer, align 8
@.str.13 = private unnamed_addr constant [43 x i8] c"Mmap failed with {} pages use MmapArena {}\00", align 1
@.str.14 = private unnamed_addr constant [5 x i8] c"true\00", align 1
@.str.15 = private unnamed_addr constant [6 x i8] c"false\00", align 1
@.str.16 = private unnamed_addr constant [17 x i8] c"munmap returned \00", align 1
@_ZZN8facebook5velox6memory13MmapAllocator26growContiguousWithoutRetryEmRNS1_20ContiguousAllocationESt8functionIFvlbEEE11FB_LEM_hist = internal global %"struct.std::atomic.0" zeroinitializer, align 8
@.str.17 = private unnamed_addr constant [77 x i8] c"Could not advise away enough for {} pages for growing allocation of {} pages\00", align 1
@.str.18 = private unnamed_addr constant [25 x i8] c"Failed to allocateBytes \00", align 1
@.str.19 = private unnamed_addr constant [13 x i8] c" bytes with \00", align 1
@.str.20 = private unnamed_addr constant [11 x i8] c" alignment\00", align 1
@.str.21 = private unnamed_addr constant [36 x i8] c"Extra mapped free bit for group at \00", align 1
@.str.22 = private unnamed_addr constant [33 x i8] c"Missing lookup bit for group at \00", align 1
@.str.23 = private unnamed_addr constant [53 x i8] c"Mismatched count of mapped free pages in size class \00", align 1
@.str.24 = private unnamed_addr constant [11 x i8] c". Actual= \00", align 1
@.str.25 = private unnamed_addr constant [15 x i8] c" vs recorded= \00", align 1
@.str.26 = private unnamed_addr constant [16 x i8] c". Total mapped=\00", align 1
@.str.27 = private unnamed_addr constant [7 x i8] c"[size \00", align 1
@.str.28 = private unnamed_addr constant [3 x i8] c": \00", align 1
@.str.29 = private unnamed_addr constant [2 x i8] c"(\00", align 1
@.str.30 = private unnamed_addr constant [15 x i8] c"MB) allocated \00", align 1
@.str.31 = private unnamed_addr constant [8 x i8] c" mapped\00", align 1
@.str.32 = private unnamed_addr constant [39 x i8] c"Mismatched count of mapped free pages \00", align 1
@.str.33 = private unnamed_addr constant [2 x i8] c"]\00", align 1
@.str.34 = private unnamed_addr constant [39 x i8] c"Inconsistent mapped free lookup class \00", align 1
@.str.35 = private unnamed_addr constant [47 x i8] c"Lookup bit set but no free mapped pages class \00", align 1
@.str.36 = private unnamed_addr constant [19 x i8] c"madvise got errno \00", align 1
@.str.37 = private unnamed_addr constant [21 x i8] c"Double free: page = \00", align 1
@.str.38 = private unnamed_addr constant [14 x i8] c" sizeclass = \00", align 1
@.str.39 = private unnamed_addr constant [38 x i8] c"Allocated count out of sync. Actual= \00", align 1
@.str.40 = private unnamed_addr constant [12 x i8] c" recorded= \00", align 1
@.str.41 = private unnamed_addr constant [35 x i8] c"Mapped count out of sync. Actual= \00", align 1
@.str.42 = private unnamed_addr constant [36 x i8] c"MmapAllocator::checkConsistency(): \00", align 1
@.str.43 = private unnamed_addr constant [8 x i8] c" errors\00", align 1
@.str.44 = private unnamed_addr constant [18 x i8] c"Memory Allocator[\00", align 1
@.str.45 = private unnamed_addr constant [11 x i8] c" capacity \00", align 1
@.str.46 = private unnamed_addr constant [10 x i8] c"UNLIMITED\00", align 1
@.str.47 = private unnamed_addr constant [18 x i8] c" allocated pages \00", align 1
@.str.48 = private unnamed_addr constant [15 x i8] c" mapped pages \00", align 1
@.str.49 = private unnamed_addr constant [24 x i8] c" external mapped pages \00", align 1
@_ZTVN10__cxxabiv120__si_class_type_infoE = external global [0 x ptr]
@_ZTSN8facebook5velox6memory13MmapAllocatorE = constant [40 x i8] c"N8facebook5velox6memory13MmapAllocatorE\00", align 1
@_ZTIN8facebook5velox6memory15MemoryAllocatorE = external constant ptr
@_ZTIN8facebook5velox6memory13MmapAllocatorE = constant { ptr, ptr, ptr } { ptr getelementptr inbounds (ptr, ptr @_ZTVN10__cxxabiv120__si_class_type_infoE, i64 2), ptr @_ZTSN8facebook5velox6memory13MmapAllocatorE, ptr @_ZTIN8facebook5velox6memory15MemoryAllocatorE }, align 8
@_ZTVN8facebook5velox6memory15MemoryAllocatorE = external unnamed_addr constant { [25 x ptr] }, align 8
@constinit = private constant [9 x i64] [i64 1, i64 2, i64 4, i64 8, i64 16, i64 32, i64 64, i64 128, i64 256], align 8
@.str.50 = private unnamed_addr constant [49 x i8] c"cannot create std::vector larger than max_size()\00", align 1
@__libc_single_threaded = external global i8, align 1
@.str.51 = private unnamed_addr constant [50 x i8] c"basic_string: construction from null is not valid\00", align 1
@.str.52 = private unnamed_addr constant [26 x i8] c"vector::_M_realloc_insert\00", align 1
@_ZN8facebook5velox4bitsL13kZeroBitmasksE = internal constant [8 x i8] c"\FE\FD\FB\F7\EF\DF\BF\7F", align 1

@_ZN8facebook5velox6memory13MmapAllocatorC1ERKNS2_7OptionsE = unnamed_addr alias void (ptr, ptr), ptr @_ZN8facebook5velox6memory13MmapAllocatorC2ERKNS2_7OptionsE
@_ZN8facebook5velox6memory13MmapAllocatorD1Ev = unnamed_addr alias void (ptr), ptr @_ZN8facebook5velox6memory13MmapAllocatorD2Ev
@_ZN8facebook5velox6memory13MmapAllocator9SizeClassC1Emm = unnamed_addr alias void (ptr, i64, i64), ptr @_ZN8facebook5velox6memory13MmapAllocator9SizeClassC2Emm
@_ZN8facebook5velox6memory13MmapAllocator9SizeClassD1Ev = unnamed_addr alias void (ptr), ptr @_ZN8facebook5velox6memory13MmapAllocator9SizeClassD2Ev

; Function Attrs: mustprogress uwtable
define void @_ZN8facebook5velox6memory13MmapAllocatorC2ERKNS2_7OptionsE(ptr noundef nonnull align 8 dereferenceable(1080) %this, ptr noundef nonnull align 8 dereferenceable(24) %options) unnamed_addr #0 align 2 personality ptr @__gxx_personality_v0 {
entry:
  %numPages.addr.i = alloca i64, align 8
  %bytes.addr.i = alloca i64, align 8
  %this.addr = alloca ptr, align 8
  %options.addr = alloca ptr, align 8
  %exn.slot = alloca ptr, align 8
  %ehselector.slot = alloca i32, align 4
  %__range2 = alloca ptr, align 8
  %__begin2 = alloca %"class.__gnu_cxx::__normal_iterator", align 8
  %__end2 = alloca %"class.__gnu_cxx::__normal_iterator", align 8
  %size = alloca ptr, align 8
  %ref.tmp = alloca %"class.std::unique_ptr.9", align 8
  %ref.tmp16 = alloca i64, align 8
  %arenaSizeBytes = alloca i64, align 8
  %ref.tmp33 = alloca %"class.std::unique_ptr", align 8
  %ref.tmp34 = alloca i64, align 8
  store ptr %this, ptr %this.addr, align 8
  store ptr %options, ptr %options.addr, align 8
  %this1 = load ptr, ptr %this.addr, align 8
  call void @_ZN8facebook5velox6memory15MemoryAllocatorC2Ev(ptr noundef nonnull align 8 dereferenceable(880) %this1)
  store ptr getelementptr inbounds ({ [25 x ptr] }, ptr @_ZTVN8facebook5velox6memory13MmapAllocatorE, i32 0, inrange i32 0, i32 2), ptr %this1, align 8
  %kind_ = getelementptr inbounds %"class.facebook::velox::memory::MmapAllocator", ptr %this1, i32 0, i32 1
  store i32 1, ptr %kind_, align 8
  %useMmapArena_ = getelementptr inbounds %"class.facebook::velox::memory::MmapAllocator", ptr %this1, i32 0, i32 2
  %0 = load ptr, ptr %options.addr, align 8
  %useMmapArena = getelementptr inbounds %"struct.facebook::velox::memory::MmapAllocator::Options", ptr %0, i32 0, i32 1
  %1 = load i8, ptr %useMmapArena, align 8
  %tobool = trunc i8 %1 to i1
  %frombool = zext i1 %tobool to i8
  store i8 %frombool, ptr %useMmapArena_, align 4
  %sizeClassBalanceMutex_ = getelementptr inbounds %"class.facebook::velox::memory::MmapAllocator", ptr %this1, i32 0, i32 3
  call void @_ZNSt5mutexC2Ev(ptr noundef nonnull align 8 dereferenceable(40) %sizeClassBalanceMutex_) #21
  %numExternalMapped_ = getelementptr inbounds %"class.facebook::velox::memory::MmapAllocator", ptr %this1, i32 0, i32 4
  call void @_ZNSt6atomicImEC2Em(ptr noundef nonnull align 8 dereferenceable(8) %numExternalMapped_, i64 noundef 0) #21
  %maxMallocBytes_ = getelementptr inbounds %"class.facebook::velox::memory::MmapAllocator", ptr %this1, i32 0, i32 5
  %2 = load ptr, ptr %options.addr, align 8
  %maxMallocBytes = getelementptr inbounds %"struct.facebook::velox::memory::MmapAllocator::Options", ptr %2, i32 0, i32 4
  %3 = load i32, ptr %maxMallocBytes, align 4
  store i32 %3, ptr %maxMallocBytes_, align 8
  %mallocReservedBytes_ = getelementptr inbounds %"class.facebook::velox::memory::MmapAllocator", ptr %this1, i32 0, i32 6
  %maxMallocBytes_2 = getelementptr inbounds %"class.facebook::velox::memory::MmapAllocator", ptr %this1, i32 0, i32 5
  %4 = load i32, ptr %maxMallocBytes_2, align 8
  %cmp = icmp eq i32 %4, 0
  br i1 %cmp, label %cond.true, label %cond.false

cond.true:                                        ; preds = %entry
  br label %cond.end

cond.false:                                       ; preds = %entry
  %5 = load ptr, ptr %options.addr, align 8
  %capacity = getelementptr inbounds %"struct.facebook::velox::memory::MmapAllocator::Options", ptr %5, i32 0, i32 0
  %6 = load i64, ptr %capacity, align 8
  %7 = load ptr, ptr %options.addr, align 8
  %smallAllocationReservePct = getelementptr inbounds %"struct.facebook::velox::memory::MmapAllocator::Options", ptr %7, i32 0, i32 3
  %8 = load i32, ptr %smallAllocationReservePct, align 8
  %conv = zext i32 %8 to i64
  %mul = mul i64 %6, %conv
  %div = udiv i64 %mul, 100
  br label %cond.end

cond.end:                                         ; preds = %cond.false, %cond.true
  %cond = phi i64 [ 0, %cond.true ], [ %div, %cond.false ]
  store i64 %cond, ptr %mallocReservedBytes_, align 8
  %capacity_ = getelementptr inbounds %"class.facebook::velox::memory::MmapAllocator", ptr %this1, i32 0, i32 7
  %9 = load ptr, ptr %options.addr, align 8
  %capacity3 = getelementptr inbounds %"struct.facebook::velox::memory::MmapAllocator::Options", ptr %9, i32 0, i32 0
  %10 = load i64, ptr %capacity3, align 8
  %mallocReservedBytes_4 = getelementptr inbounds %"class.facebook::velox::memory::MmapAllocator", ptr %this1, i32 0, i32 6
  %11 = load i64, ptr %mallocReservedBytes_4, align 8
  %sub = sub i64 %10, %11
  store i64 %sub, ptr %bytes.addr.i, align 8
  %12 = load i64, ptr %bytes.addr.i, align 8
  %call.i = call noundef i64 @_ZN8facebook5velox4bits7roundUpImmEET_S3_T0_(i64 noundef %12, i64 noundef 4096)
  %div.i = udiv i64 %call.i, 4096
  br label %invoke.cont

invoke.cont:                                      ; preds = %cond.end
  %sizeClassSizes_ = getelementptr inbounds %"class.facebook::velox::memory::MemoryAllocator", ptr %this1, i32 0, i32 2
  %call5 = call noundef nonnull align 8 dereferenceable(8) ptr @_ZNKSt6vectorImSaImEE4backEv(ptr noundef nonnull align 8 dereferenceable(24) %sizeClassSizes_) #21
  %13 = load i64, ptr %call5, align 8
  %mul6 = mul i64 64, %13
  %call8 = invoke noundef i64 @_ZN8facebook5velox4bits7roundUpImmEET_S3_T0_(i64 noundef %div.i, i64 noundef %mul6)
          to label %invoke.cont7 unwind label %lpad

invoke.cont7:                                     ; preds = %invoke.cont
  store i64 %call8, ptr %capacity_, align 8
  %sizeClasses_ = getelementptr inbounds %"class.facebook::velox::memory::MmapAllocator", ptr %this1, i32 0, i32 8
  call void @_ZNSt6vectorISt10unique_ptrIN8facebook5velox6memory13MmapAllocator9SizeClassESt14default_deleteIS5_EESaIS8_EEC2Ev(ptr noundef nonnull align 8 dereferenceable(24) %sizeClasses_) #21
  %numAllocations_ = getelementptr inbounds %"class.facebook::velox::memory::MmapAllocator", ptr %this1, i32 0, i32 9
  call void @_ZNSt6atomicImEC2Em(ptr noundef nonnull align 8 dereferenceable(8) %numAllocations_, i64 noundef 0) #21
  %numAllocatedPages_ = getelementptr inbounds %"class.facebook::velox::memory::MmapAllocator", ptr %this1, i32 0, i32 10
  call void @_ZNSt6atomicImEC2Em(ptr noundef nonnull align 8 dereferenceable(8) %numAllocatedPages_, i64 noundef 0) #21
  %numAdvisedPages_ = getelementptr inbounds %"class.facebook::velox::memory::MmapAllocator", ptr %this1, i32 0, i32 11
  call void @_ZNSt6atomicImEC2Em(ptr noundef nonnull align 8 dereferenceable(8) %numAdvisedPages_, i64 noundef 0) #21
  %numMallocBytes_ = getelementptr inbounds %"class.facebook::velox::memory::MmapAllocator", ptr %this1, i32 0, i32 12
  call void @_ZNSt6atomicImEC2Em(ptr noundef nonnull align 8 dereferenceable(8) %numMallocBytes_, i64 noundef 0) #21
  %arenaMutex_ = getelementptr inbounds %"class.facebook::velox::memory::MmapAllocator", ptr %this1, i32 0, i32 13
  call void @_ZNSt5mutexC2Ev(ptr noundef nonnull align 8 dereferenceable(40) %arenaMutex_) #21
  %managedArenas_ = getelementptr inbounds %"class.facebook::velox::memory::MmapAllocator", ptr %this1, i32 0, i32 14
  call void @_ZNSt10unique_ptrIN8facebook5velox6memory17ManagedMmapArenasESt14default_deleteIS3_EEC2IS5_vEEv(ptr noundef nonnull align 8 dereferenceable(8) %managedArenas_) #21
  %cache_ = getelementptr inbounds %"class.facebook::velox::memory::MmapAllocator", ptr %this1, i32 0, i32 15
  call void @_ZNSt10shared_ptrIN8facebook5velox6memory5CacheEEC2Ev(ptr noundef nonnull align 8 dereferenceable(16) %cache_) #21
  %sizeClassSizes_9 = getelementptr inbounds %"class.facebook::velox::memory::MemoryAllocator", ptr %this1, i32 0, i32 2
  store ptr %sizeClassSizes_9, ptr %__range2, align 8
  %14 = load ptr, ptr %__range2, align 8
  %call10 = call ptr @_ZNKSt6vectorImSaImEE5beginEv(ptr noundef nonnull align 8 dereferenceable(24) %14) #21
  %coerce.dive = getelementptr inbounds %"class.__gnu_cxx::__normal_iterator", ptr %__begin2, i32 0, i32 0
  store ptr %call10, ptr %coerce.dive, align 8
  %15 = load ptr, ptr %__range2, align 8
  %call11 = call ptr @_ZNKSt6vectorImSaImEE3endEv(ptr noundef nonnull align 8 dereferenceable(24) %15) #21
  %coerce.dive12 = getelementptr inbounds %"class.__gnu_cxx::__normal_iterator", ptr %__end2, i32 0, i32 0
  store ptr %call11, ptr %coerce.dive12, align 8
  br label %for.cond

for.cond:                                         ; preds = %for.inc, %invoke.cont7
  %call13 = call noundef zeroext i1 @_ZN9__gnu_cxxneIPKmSt6vectorImSaImEEEEbRKNS_17__normal_iteratorIT_T0_EESB_(ptr noundef nonnull align 8 dereferenceable(8) %__begin2, ptr noundef nonnull align 8 dereferenceable(8) %__end2) #21
  br i1 %call13, label %for.body, label %for.end

for.body:                                         ; preds = %for.cond
  %call14 = call noundef nonnull align 8 dereferenceable(8) ptr @_ZNK9__gnu_cxx17__normal_iteratorIPKmSt6vectorImSaImEEEdeEv(ptr noundef nonnull align 8 dereferenceable(8) %__begin2) #21
  store ptr %call14, ptr %size, align 8
  %sizeClasses_15 = getelementptr inbounds %"class.facebook::velox::memory::MmapAllocator", ptr %this1, i32 0, i32 8
  %capacity_17 = getelementptr inbounds %"class.facebook::velox::memory::MmapAllocator", ptr %this1, i32 0, i32 7
  %16 = load i64, ptr %capacity_17, align 8
  %17 = load ptr, ptr %size, align 8
  %18 = load i64, ptr %17, align 8
  %div18 = udiv i64 %16, %18
  store i64 %div18, ptr %ref.tmp16, align 8
  %19 = load ptr, ptr %size, align 8
  invoke void @_ZSt11make_uniqueIN8facebook5velox6memory13MmapAllocator9SizeClassEJmRKmEENSt8__detail9_MakeUniqIT_E15__single_objectEDpOT0_(ptr sret(%"class.std::unique_ptr.9") align 8 %ref.tmp, ptr noundef nonnull align 8 dereferenceable(8) %ref.tmp16, ptr noundef nonnull align 8 dereferenceable(8) %19)
          to label %invoke.cont20 unwind label %lpad19

invoke.cont20:                                    ; preds = %for.body
  invoke void @_ZNSt6vectorISt10unique_ptrIN8facebook5velox6memory13MmapAllocator9SizeClassESt14default_deleteIS5_EESaIS8_EE9push_backEOS8_(ptr noundef nonnull align 8 dereferenceable(24) %sizeClasses_15, ptr noundef nonnull align 8 dereferenceable(8) %ref.tmp)
          to label %invoke.cont22 unwind label %lpad21

invoke.cont22:                                    ; preds = %invoke.cont20
  call void @_ZNSt10unique_ptrIN8facebook5velox6memory13MmapAllocator9SizeClassESt14default_deleteIS4_EED2Ev(ptr noundef nonnull align 8 dereferenceable(8) %ref.tmp) #21
  br label %for.inc

for.inc:                                          ; preds = %invoke.cont22
  %call23 = call noundef nonnull align 8 dereferenceable(8) ptr @_ZN9__gnu_cxx17__normal_iteratorIPKmSt6vectorImSaImEEEppEv(ptr noundef nonnull align 8 dereferenceable(8) %__begin2) #21
  br label %for.cond

lpad:                                             ; preds = %invoke.cont
  %20 = landingpad { ptr, i32 }
          cleanup
  %21 = extractvalue { ptr, i32 } %20, 0
  store ptr %21, ptr %exn.slot, align 8
  %22 = extractvalue { ptr, i32 } %20, 1
  store i32 %22, ptr %ehselector.slot, align 4
  br label %ehcleanup42

lpad19:                                           ; preds = %invoke.cont35, %invoke.cont31, %invoke.cont27, %for.body
  %23 = landingpad { ptr, i32 }
          cleanup
  %24 = extractvalue { ptr, i32 } %23, 0
  store ptr %24, ptr %exn.slot, align 8
  %25 = extractvalue { ptr, i32 } %23, 1
  store i32 %25, ptr %ehselector.slot, align 4
  br label %ehcleanup

lpad21:                                           ; preds = %invoke.cont20
  %26 = landingpad { ptr, i32 }
          cleanup
  %27 = extractvalue { ptr, i32 } %26, 0
  store ptr %27, ptr %exn.slot, align 8
  %28 = extractvalue { ptr, i32 } %26, 1
  store i32 %28, ptr %ehselector.slot, align 4
  call void @_ZNSt10unique_ptrIN8facebook5velox6memory13MmapAllocator9SizeClassESt14default_deleteIS4_EED2Ev(ptr noundef nonnull align 8 dereferenceable(8) %ref.tmp) #21
  br label %ehcleanup

for.end:                                          ; preds = %for.cond
  %useMmapArena_24 = getelementptr inbounds %"class.facebook::velox::memory::MmapAllocator", ptr %this1, i32 0, i32 2
  %29 = load i8, ptr %useMmapArena_24, align 4
  %tobool25 = trunc i8 %29 to i1
  br i1 %tobool25, label %if.then, label %if.end

if.then:                                          ; preds = %for.end
  %capacity_26 = getelementptr inbounds %"class.facebook::velox::memory::MmapAllocator", ptr %this1, i32 0, i32 7
  %30 = load i64, ptr %capacity_26, align 8
  store i64 %30, ptr %numPages.addr.i, align 8
  %31 = load i64, ptr %numPages.addr.i, align 8
  %mul.i = mul i64 %31, 4096
  br label %invoke.cont27

invoke.cont27:                                    ; preds = %if.then
  %32 = load ptr, ptr %options.addr, align 8
  %mmapArenaCapacityRatio = getelementptr inbounds %"struct.facebook::velox::memory::MmapAllocator::Options", ptr %32, i32 0, i32 2
  %33 = load i32, ptr %mmapArenaCapacityRatio, align 4
  %conv29 = sext i32 %33 to i64
  %div30 = udiv i64 %mul.i, %conv29
  %call32 = invoke noundef i64 @_ZN8facebook5velox4bits7roundUpImmEET_S3_T0_(i64 noundef %div30, i64 noundef 4096)
          to label %invoke.cont31 unwind label %lpad19

invoke.cont31:                                    ; preds = %invoke.cont27
  store i64 %call32, ptr %arenaSizeBytes, align 8
  store i64 134217728, ptr %ref.tmp34, align 8
  %call36 = invoke noundef nonnull align 8 dereferenceable(8) ptr @_ZSt3maxImERKT_S2_S2_(ptr noundef nonnull align 8 dereferenceable(8) %arenaSizeBytes, ptr noundef nonnull align 8 dereferenceable(8) %ref.tmp34)
          to label %invoke.cont35 unwind label %lpad19

invoke.cont35:                                    ; preds = %invoke.cont31
  invoke void @_ZSt11make_uniqueIN8facebook5velox6memory17ManagedMmapArenasEJRKmEENSt8__detail9_MakeUniqIT_E15__single_objectEDpOT0_(ptr sret(%"class.std::unique_ptr") align 8 %ref.tmp33, ptr noundef nonnull align 8 dereferenceable(8) %call36)
          to label %invoke.cont37 unwind label %lpad19

invoke.cont37:                                    ; preds = %invoke.cont35
  %managedArenas_38 = getelementptr inbounds %"class.facebook::velox::memory::MmapAllocator", ptr %this1, i32 0, i32 14
  %call39 = call noundef nonnull align 8 dereferenceable(8) ptr @_ZNSt10unique_ptrIN8facebook5velox6memory17ManagedMmapArenasESt14default_deleteIS3_EEaSEOS6_(ptr noundef nonnull align 8 dereferenceable(8) %managedArenas_38, ptr noundef nonnull align 8 dereferenceable(8) %ref.tmp33) #21
  call void @_ZNSt10unique_ptrIN8facebook5velox6memory17ManagedMmapArenasESt14default_deleteIS3_EED2Ev(ptr noundef nonnull align 8 dereferenceable(8) %ref.tmp33) #21
  br label %if.end

if.end:                                           ; preds = %invoke.cont37, %for.end
  ret void

ehcleanup:                                        ; preds = %lpad21, %lpad19
  call void @_ZNSt10shared_ptrIN8facebook5velox6memory5CacheEED2Ev(ptr noundef nonnull align 8 dereferenceable(16) %cache_) #21
  call void @_ZNSt10unique_ptrIN8facebook5velox6memory17ManagedMmapArenasESt14default_deleteIS3_EED2Ev(ptr noundef nonnull align 8 dereferenceable(8) %managedArenas_) #21
  call void @_ZNSt6vectorISt10unique_ptrIN8facebook5velox6memory13MmapAllocator9SizeClassESt14default_deleteIS5_EESaIS8_EED2Ev(ptr noundef nonnull align 8 dereferenceable(24) %sizeClasses_) #21
  br label %ehcleanup42

ehcleanup42:                                      ; preds = %ehcleanup, %lpad
  call void @_ZN8facebook5velox6memory15MemoryAllocatorD2Ev(ptr noundef nonnull align 8 dereferenceable(880) %this1) #21
  br label %eh.resume

eh.resume:                                        ; preds = %ehcleanup42
  %exn = load ptr, ptr %exn.slot, align 8
  %sel = load i32, ptr %ehselector.slot, align 4
  %lpad.val = insertvalue { ptr, i32 } poison, ptr %exn, 0
  %lpad.val43 = insertvalue { ptr, i32 } %lpad.val, i32 %sel, 1
  resume { ptr, i32 } %lpad.val43
}

; Function Attrs: mustprogress uwtable
define linkonce_odr void @_ZN8facebook5velox6memory15MemoryAllocatorC2Ev(ptr noundef nonnull align 8 dereferenceable(880) %this) unnamed_addr #0 comdat align 2 personality ptr @__gxx_personality_v0 {
entry:
  %this.addr = alloca ptr, align 8
  %agg.tmp = alloca %"class.std::initializer_list", align 8
  %ref.tmp = alloca [9 x i64], align 8
  %ref.tmp2 = alloca %"class.std::allocator", align 1
  %exn.slot = alloca ptr, align 8
  %ehselector.slot = alloca i32, align 4
  store ptr %this, ptr %this.addr, align 8
  %this1 = load ptr, ptr %this.addr, align 8
  %0 = getelementptr inbounds i8, ptr %this1, i64 8
  call void @_ZNSt23enable_shared_from_thisIN8facebook5velox6memory15MemoryAllocatorEEC2Ev(ptr noundef nonnull align 8 dereferenceable(16) %0) #21
  store ptr getelementptr inbounds ({ [25 x ptr] }, ptr @_ZTVN8facebook5velox6memory15MemoryAllocatorE, i32 0, inrange i32 0, i32 2), ptr %this1, align 8
  %sizeClassSizes_ = getelementptr inbounds %"class.facebook::velox::memory::MemoryAllocator", ptr %this1, i32 0, i32 2
  call void @llvm.memcpy.p0.p0.i64(ptr align 8 %ref.tmp, ptr align 8 @constinit, i64 72, i1 false)
  %_M_array = getelementptr inbounds %"class.std::initializer_list", ptr %agg.tmp, i32 0, i32 0
  %arraystart = getelementptr inbounds [9 x i64], ptr %ref.tmp, i64 0, i64 0
  store ptr %arraystart, ptr %_M_array, align 8
  %_M_len = getelementptr inbounds %"class.std::initializer_list", ptr %agg.tmp, i32 0, i32 1
  store i64 9, ptr %_M_len, align 8
  call void @_ZNSaImEC2Ev(ptr noundef nonnull align 1 dereferenceable(1) %ref.tmp2) #21
  %1 = getelementptr inbounds { ptr, i64 }, ptr %agg.tmp, i32 0, i32 0
  %2 = load ptr, ptr %1, align 8
  %3 = getelementptr inbounds { ptr, i64 }, ptr %agg.tmp, i32 0, i32 1
  %4 = load i64, ptr %3, align 8
  invoke void @_ZNSt6vectorImSaImEEC2ESt16initializer_listImERKS0_(ptr noundef nonnull align 8 dereferenceable(24) %sizeClassSizes_, ptr %2, i64 %4, ptr noundef nonnull align 1 dereferenceable(1) %ref.tmp2)
          to label %invoke.cont unwind label %lpad

invoke.cont:                                      ; preds = %entry
  call void @_ZNSaImED2Ev(ptr noundef nonnull align 1 dereferenceable(1) %ref.tmp2) #21
  %numAllocated_ = getelementptr inbounds %"class.facebook::velox::memory::MemoryAllocator", ptr %this1, i32 0, i32 3
  call void @_ZNSt6atomicImEC2Em(ptr noundef nonnull align 8 dereferenceable(8) %numAllocated_, i64 noundef 0) #21
  %numMapped_ = getelementptr inbounds %"class.facebook::velox::memory::MemoryAllocator", ptr %this1, i32 0, i32 4
  call void @_ZNSt6atomicImEC2Em(ptr noundef nonnull align 8 dereferenceable(8) %numMapped_, i64 noundef 0) #21
  %injectedFailure_ = getelementptr inbounds %"class.facebook::velox::memory::MemoryAllocator", ptr %this1, i32 0, i32 5
  store i32 0, ptr %injectedFailure_, align 8
  %isPersistentFailureInjection_ = getelementptr inbounds %"class.facebook::velox::memory::MemoryAllocator", ptr %this1, i32 0, i32 6
  store i8 0, ptr %isPersistentFailureInjection_, align 4
  %stats_ = getelementptr inbounds %"class.facebook::velox::memory::MemoryAllocator", ptr %this1, i32 0, i32 7
  invoke void @_ZN8facebook5velox6memory5StatsC2Ev(ptr noundef nonnull align 8 dereferenceable(808) %stats_)
          to label %invoke.cont4 unwind label %lpad3

invoke.cont4:                                     ; preds = %invoke.cont
  ret void

lpad:                                             ; preds = %entry
  %5 = landingpad { ptr, i32 }
          cleanup
  %6 = extractvalue { ptr, i32 } %5, 0
  store ptr %6, ptr %exn.slot, align 8
  %7 = extractvalue { ptr, i32 } %5, 1
  store i32 %7, ptr %ehselector.slot, align 4
  call void @_ZNSaImED2Ev(ptr noundef nonnull align 1 dereferenceable(1) %ref.tmp2) #21
  br label %ehcleanup

lpad3:                                            ; preds = %invoke.cont
  %8 = landingpad { ptr, i32 }
          cleanup
  %9 = extractvalue { ptr, i32 } %8, 0
  store ptr %9, ptr %exn.slot, align 8
  %10 = extractvalue { ptr, i32 } %8, 1
  store i32 %10, ptr %ehselector.slot, align 4
  call void @_ZNSt6vectorImSaImEED2Ev(ptr noundef nonnull align 8 dereferenceable(24) %sizeClassSizes_) #21
  br label %ehcleanup

ehcleanup:                                        ; preds = %lpad3, %lpad
  %11 = getelementptr inbounds i8, ptr %this1, i64 8
  call void @_ZNSt23enable_shared_from_thisIN8facebook5velox6memory15MemoryAllocatorEED2Ev(ptr noundef nonnull align 8 dereferenceable(16) %11) #21
  br label %eh.resume

eh.resume:                                        ; preds = %ehcleanup
  %exn = load ptr, ptr %exn.slot, align 8
  %sel = load i32, ptr %ehselector.slot, align 4
  %lpad.val = insertvalue { ptr, i32 } poison, ptr %exn, 0
  %lpad.val5 = insertvalue { ptr, i32 } %lpad.val, i32 %sel, 1
  resume { ptr, i32 } %lpad.val5
}

; Function Attrs: mustprogress nounwind uwtable
define linkonce_odr void @_ZNSt5mutexC2Ev(ptr noundef nonnull align 8 dereferenceable(40) %this) unnamed_addr #1 comdat align 2 {
entry:
  %this.addr = alloca ptr, align 8
  store ptr %this, ptr %this.addr, align 8
  %this1 = load ptr, ptr %this.addr, align 8
  call void @_ZNSt12__mutex_baseC2Ev(ptr noundef nonnull align 8 dereferenceable(40) %this1) #21
  ret void
}

; Function Attrs: mustprogress nounwind uwtable
define linkonce_odr void @_ZNSt6atomicImEC2Em(ptr noundef nonnull align 8 dereferenceable(8) %this, i64 noundef %__i) unnamed_addr #1 comdat align 2 {
entry:
  %this.addr = alloca ptr, align 8
  %__i.addr = alloca i64, align 8
  store ptr %this, ptr %this.addr, align 8
  store i64 %__i, ptr %__i.addr, align 8
  %this1 = load ptr, ptr %this.addr, align 8
  %0 = load i64, ptr %__i.addr, align 8
  call void @_ZNSt13__atomic_baseImEC2Em(ptr noundef nonnull align 8 dereferenceable(8) %this1, i64 noundef %0) #21
  ret void
}

; Function Attrs: mustprogress nounwind uwtable
define linkonce_odr noundef i64 @_ZN8facebook5velox4bits7roundUpImmEET_S3_T0_(i64 noundef %value, i64 noundef %factor) #1 comdat {
entry:
  %value.addr = alloca i64, align 8
  %factor.addr = alloca i64, align 8
  store i64 %value, ptr %value.addr, align 8
  store i64 %factor, ptr %factor.addr, align 8
  %0 = load i64, ptr %value.addr, align 8
  %1 = load i64, ptr %factor.addr, align 8
  %sub = sub i64 %1, 1
  %add = add i64 %0, %sub
  %2 = load i64, ptr %factor.addr, align 8
  %div = udiv i64 %add, %2
  %3 = load i64, ptr %factor.addr, align 8
  %mul = mul i64 %div, %3
  ret i64 %mul
}

declare i32 @__gxx_personality_v0(...)

; Function Attrs: mustprogress nounwind uwtable
define linkonce_odr noundef nonnull align 8 dereferenceable(8) ptr @_ZNKSt6vectorImSaImEE4backEv(ptr noundef nonnull align 8 dereferenceable(24) %this) #1 comdat align 2 {
entry:
  %this.addr = alloca ptr, align 8
  %ref.tmp = alloca %"class.__gnu_cxx::__normal_iterator", align 8
  %ref.tmp2 = alloca %"class.__gnu_cxx::__normal_iterator", align 8
  store ptr %this, ptr %this.addr, align 8
  %this1 = load ptr, ptr %this.addr, align 8
  %call = call ptr @_ZNKSt6vectorImSaImEE3endEv(ptr noundef nonnull align 8 dereferenceable(24) %this1) #21
  %coerce.dive = getelementptr inbounds %"class.__gnu_cxx::__normal_iterator", ptr %ref.tmp2, i32 0, i32 0
  store ptr %call, ptr %coerce.dive, align 8
  %call3 = call ptr @_ZNK9__gnu_cxx17__normal_iteratorIPKmSt6vectorImSaImEEEmiEl(ptr noundef nonnull align 8 dereferenceable(8) %ref.tmp2, i64 noundef 1) #21
  %coerce.dive4 = getelementptr inbounds %"class.__gnu_cxx::__normal_iterator", ptr %ref.tmp, i32 0, i32 0
  store ptr %call3, ptr %coerce.dive4, align 8
  %call5 = call noundef nonnull align 8 dereferenceable(8) ptr @_ZNK9__gnu_cxx17__normal_iteratorIPKmSt6vectorImSaImEEEdeEv(ptr noundef nonnull align 8 dereferenceable(8) %ref.tmp) #21
  ret ptr %call5
}

; Function Attrs: mustprogress nounwind uwtable
define linkonce_odr void @_ZNSt6vectorISt10unique_ptrIN8facebook5velox6memory13MmapAllocator9SizeClassESt14default_deleteIS5_EESaIS8_EEC2Ev(ptr noundef nonnull align 8 dereferenceable(24) %this) unnamed_addr #1 comdat align 2 {
entry:
  %this.addr = alloca ptr, align 8
  store ptr %this, ptr %this.addr, align 8
  %this1 = load ptr, ptr %this.addr, align 8
  call void @_ZNSt12_Vector_baseISt10unique_ptrIN8facebook5velox6memory13MmapAllocator9SizeClassESt14default_deleteIS5_EESaIS8_EEC2Ev(ptr noundef nonnull align 8 dereferenceable(24) %this1) #21
  ret void
}

; Function Attrs: mustprogress nounwind uwtable
define linkonce_odr void @_ZNSt10unique_ptrIN8facebook5velox6memory17ManagedMmapArenasESt14default_deleteIS3_EEC2IS5_vEEv(ptr noundef nonnull align 8 dereferenceable(8) %this) unnamed_addr #1 comdat align 2 {
entry:
  %this.addr = alloca ptr, align 8
  store ptr %this, ptr %this.addr, align 8
  %this1 = load ptr, ptr %this.addr, align 8
  %_M_t = getelementptr inbounds %"class.std::unique_ptr", ptr %this1, i32 0, i32 0
  call void @llvm.memset.p0.i64(ptr align 8 %_M_t, i8 0, i64 8, i1 false)
  call void @_ZNSt15__uniq_ptr_dataIN8facebook5velox6memory17ManagedMmapArenasESt14default_deleteIS3_ELb1ELb1EEC2Ev(ptr noundef nonnull align 8 dereferenceable(8) %_M_t) #21
  ret void
}

; Function Attrs: mustprogress nounwind uwtable
define linkonce_odr void @_ZNSt10shared_ptrIN8facebook5velox6memory5CacheEEC2Ev(ptr noundef nonnull align 8 dereferenceable(16) %this) unnamed_addr #1 comdat align 2 {
entry:
  %this.addr = alloca ptr, align 8
  store ptr %this, ptr %this.addr, align 8
  %this1 = load ptr, ptr %this.addr, align 8
  call void @_ZNSt12__shared_ptrIN8facebook5velox6memory5CacheELN9__gnu_cxx12_Lock_policyE2EEC2Ev(ptr noundef nonnull align 8 dereferenceable(16) %this1) #21
  ret void
}

; Function Attrs: mustprogress nounwind uwtable
define linkonce_odr ptr @_ZNKSt6vectorImSaImEE5beginEv(ptr noundef nonnull align 8 dereferenceable(24) %this) #1 comdat align 2 {
entry:
  %retval = alloca %"class.__gnu_cxx::__normal_iterator", align 8
  %this.addr = alloca ptr, align 8
  store ptr %this, ptr %this.addr, align 8
  %this1 = load ptr, ptr %this.addr, align 8
  %_M_impl = getelementptr inbounds %"struct.std::_Vector_base", ptr %this1, i32 0, i32 0
  %_M_start = getelementptr inbounds %"struct.std::_Vector_base<unsigned long, std::allocator<unsigned long>>::_Vector_impl_data", ptr %_M_impl, i32 0, i32 0
  call void @_ZN9__gnu_cxx17__normal_iteratorIPKmSt6vectorImSaImEEEC2ERKS2_(ptr noundef nonnull align 8 dereferenceable(8) %retval, ptr noundef nonnull align 8 dereferenceable(8) %_M_start) #21
  %coerce.dive = getelementptr inbounds %"class.__gnu_cxx::__normal_iterator", ptr %retval, i32 0, i32 0
  %0 = load ptr, ptr %coerce.dive, align 8
  ret ptr %0
}

; Function Attrs: mustprogress nounwind uwtable
define linkonce_odr ptr @_ZNKSt6vectorImSaImEE3endEv(ptr noundef nonnull align 8 dereferenceable(24) %this) #1 comdat align 2 {
entry:
  %retval = alloca %"class.__gnu_cxx::__normal_iterator", align 8
  %this.addr = alloca ptr, align 8
  store ptr %this, ptr %this.addr, align 8
  %this1 = load ptr, ptr %this.addr, align 8
  %_M_impl = getelementptr inbounds %"struct.std::_Vector_base", ptr %this1, i32 0, i32 0
  %_M_finish = getelementptr inbounds %"struct.std::_Vector_base<unsigned long, std::allocator<unsigned long>>::_Vector_impl_data", ptr %_M_impl, i32 0, i32 1
  call void @_ZN9__gnu_cxx17__normal_iteratorIPKmSt6vectorImSaImEEEC2ERKS2_(ptr noundef nonnull align 8 dereferenceable(8) %retval, ptr noundef nonnull align 8 dereferenceable(8) %_M_finish) #21
  %coerce.dive = getelementptr inbounds %"class.__gnu_cxx::__normal_iterator", ptr %retval, i32 0, i32 0
  %0 = load ptr, ptr %coerce.dive, align 8
  ret ptr %0
}

; Function Attrs: mustprogress nounwind uwtable
define linkonce_odr noundef zeroext i1 @_ZN9__gnu_cxxneIPKmSt6vectorImSaImEEEEbRKNS_17__normal_iteratorIT_T0_EESB_(ptr noundef nonnull align 8 dereferenceable(8) %__lhs, ptr noundef nonnull align 8 dereferenceable(8) %__rhs) #1 comdat {
entry:
  %__lhs.addr = alloca ptr, align 8
  %__rhs.addr = alloca ptr, align 8
  store ptr %__lhs, ptr %__lhs.addr, align 8
  store ptr %__rhs, ptr %__rhs.addr, align 8
  %0 = load ptr, ptr %__lhs.addr, align 8
  %call = call noundef nonnull align 8 dereferenceable(8) ptr @_ZNK9__gnu_cxx17__normal_iteratorIPKmSt6vectorImSaImEEE4baseEv(ptr noundef nonnull align 8 dereferenceable(8) %0) #21
  %1 = load ptr, ptr %call, align 8
  %2 = load ptr, ptr %__rhs.addr, align 8
  %call1 = call noundef nonnull align 8 dereferenceable(8) ptr @_ZNK9__gnu_cxx17__normal_iteratorIPKmSt6vectorImSaImEEE4baseEv(ptr noundef nonnull align 8 dereferenceable(8) %2) #21
  %3 = load ptr, ptr %call1, align 8
  %cmp = icmp ne ptr %1, %3
  ret i1 %cmp
}

; Function Attrs: mustprogress nounwind uwtable
define linkonce_odr noundef nonnull align 8 dereferenceable(8) ptr @_ZNK9__gnu_cxx17__normal_iteratorIPKmSt6vectorImSaImEEEdeEv(ptr noundef nonnull align 8 dereferenceable(8) %this) #1 comdat align 2 {
entry:
  %this.addr = alloca ptr, align 8
  store ptr %this, ptr %this.addr, align 8
  %this1 = load ptr, ptr %this.addr, align 8
  %_M_current = getelementptr inbounds %"class.__gnu_cxx::__normal_iterator", ptr %this1, i32 0, i32 0
  %0 = load ptr, ptr %_M_current, align 8
  ret ptr %0
}

; Function Attrs: mustprogress uwtable
define linkonce_odr void @_ZNSt6vectorISt10unique_ptrIN8facebook5velox6memory13MmapAllocator9SizeClassESt14default_deleteIS5_EESaIS8_EE9push_backEOS8_(ptr noundef nonnull align 8 dereferenceable(24) %this, ptr noundef nonnull align 8 dereferenceable(8) %__x) #0 comdat align 2 {
entry:
  %this.addr = alloca ptr, align 8
  %__x.addr = alloca ptr, align 8
  store ptr %this, ptr %this.addr, align 8
  store ptr %__x, ptr %__x.addr, align 8
  %this1 = load ptr, ptr %this.addr, align 8
  %0 = load ptr, ptr %__x.addr, align 8
  %call = call noundef nonnull align 8 dereferenceable(8) ptr @_ZNSt6vectorISt10unique_ptrIN8facebook5velox6memory13MmapAllocator9SizeClassESt14default_deleteIS5_EESaIS8_EE12emplace_backIJS8_EEERS8_DpOT_(ptr noundef nonnull align 8 dereferenceable(24) %this1, ptr noundef nonnull align 8 dereferenceable(8) %0)
  ret void
}

; Function Attrs: mustprogress uwtable
define linkonce_odr void @_ZSt11make_uniqueIN8facebook5velox6memory13MmapAllocator9SizeClassEJmRKmEENSt8__detail9_MakeUniqIT_E15__single_objectEDpOT0_(ptr noalias sret(%"class.std::unique_ptr.9") align 8 %agg.result, ptr noundef nonnull align 8 dereferenceable(8) %__args, ptr noundef nonnull align 8 dereferenceable(8) %__args1) #0 comdat personality ptr @__gxx_personality_v0 {
entry:
  %result.ptr = alloca ptr, align 8
  %__args.addr = alloca ptr, align 8
  %__args.addr2 = alloca ptr, align 8
  %exn.slot = alloca ptr, align 8
  %ehselector.slot = alloca i32, align 4
  store ptr %agg.result, ptr %result.ptr, align 8
  store ptr %__args, ptr %__args.addr, align 8
  store ptr %__args1, ptr %__args.addr2, align 8
  %call = call noalias noundef nonnull ptr @_Znwm(i64 noundef 192) #24
  %0 = load ptr, ptr %__args.addr, align 8
  %1 = load i64, ptr %0, align 8
  %2 = load ptr, ptr %__args.addr2, align 8
  %3 = load i64, ptr %2, align 8
  invoke void @_ZN8facebook5velox6memory13MmapAllocator9SizeClassC1Emm(ptr noundef nonnull align 8 dereferenceable(192) %call, i64 noundef %1, i64 noundef %3)
          to label %invoke.cont unwind label %lpad

invoke.cont:                                      ; preds = %entry
  call void @_ZNSt10unique_ptrIN8facebook5velox6memory13MmapAllocator9SizeClassESt14default_deleteIS4_EEC2IS6_vEEPS4_(ptr noundef nonnull align 8 dereferenceable(8) %agg.result, ptr noundef %call) #21
  ret void

lpad:                                             ; preds = %entry
  %4 = landingpad { ptr, i32 }
          cleanup
  %5 = extractvalue { ptr, i32 } %4, 0
  store ptr %5, ptr %exn.slot, align 8
  %6 = extractvalue { ptr, i32 } %4, 1
  store i32 %6, ptr %ehselector.slot, align 4
  call void @_ZdlPv(ptr noundef %call) #25
  br label %eh.resume

eh.resume:                                        ; preds = %lpad
  %exn = load ptr, ptr %exn.slot, align 8
  %sel = load i32, ptr %ehselector.slot, align 4
  %lpad.val = insertvalue { ptr, i32 } poison, ptr %exn, 0
  %lpad.val3 = insertvalue { ptr, i32 } %lpad.val, i32 %sel, 1
  resume { ptr, i32 } %lpad.val3
}

; Function Attrs: mustprogress nounwind uwtable
define linkonce_odr void @_ZNSt10unique_ptrIN8facebook5velox6memory13MmapAllocator9SizeClassESt14default_deleteIS4_EED2Ev(ptr noundef nonnull align 8 dereferenceable(8) %this) unnamed_addr #1 comdat align 2 personality ptr @__gxx_personality_v0 {
entry:
  %this.addr = alloca ptr, align 8
  %__ptr = alloca ptr, align 8
  store ptr %this, ptr %this.addr, align 8
  %this1 = load ptr, ptr %this.addr, align 8
  %_M_t = getelementptr inbounds %"class.std::unique_ptr.9", ptr %this1, i32 0, i32 0
  %call = call noundef nonnull align 8 dereferenceable(8) ptr @_ZNSt15__uniq_ptr_implIN8facebook5velox6memory13MmapAllocator9SizeClassESt14default_deleteIS4_EE6_M_ptrEv(ptr noundef nonnull align 8 dereferenceable(8) %_M_t) #21
  store ptr %call, ptr %__ptr, align 8
  %0 = load ptr, ptr %__ptr, align 8
  %1 = load ptr, ptr %0, align 8
  %cmp = icmp ne ptr %1, null
  br i1 %cmp, label %if.then, label %if.end

if.then:                                          ; preds = %entry
  %call2 = call noundef nonnull align 1 dereferenceable(1) ptr @_ZNSt10unique_ptrIN8facebook5velox6memory13MmapAllocator9SizeClassESt14default_deleteIS4_EE11get_deleterEv(ptr noundef nonnull align 8 dereferenceable(8) %this1) #21
  %2 = load ptr, ptr %__ptr, align 8
  %3 = load ptr, ptr %2, align 8
  invoke void @_ZNKSt14default_deleteIN8facebook5velox6memory13MmapAllocator9SizeClassEEclEPS4_(ptr noundef nonnull align 1 dereferenceable(1) %call2, ptr noundef %3)
          to label %invoke.cont unwind label %terminate.lpad

invoke.cont:                                      ; preds = %if.then
  br label %if.end

if.end:                                           ; preds = %invoke.cont, %entry
  %4 = load ptr, ptr %__ptr, align 8
  store ptr null, ptr %4, align 8
  ret void

terminate.lpad:                                   ; preds = %if.then
  %5 = landingpad { ptr, i32 }
          catch ptr null
  %6 = extractvalue { ptr, i32 } %5, 0
  call void @__clang_call_terminate(ptr %6) #26
  unreachable
}

; Function Attrs: mustprogress nounwind uwtable
define linkonce_odr noundef nonnull align 8 dereferenceable(8) ptr @_ZN9__gnu_cxx17__normal_iteratorIPKmSt6vectorImSaImEEEppEv(ptr noundef nonnull align 8 dereferenceable(8) %this) #1 comdat align 2 {
entry:
  %this.addr = alloca ptr, align 8
  store ptr %this, ptr %this.addr, align 8
  %this1 = load ptr, ptr %this.addr, align 8
  %_M_current = getelementptr inbounds %"class.__gnu_cxx::__normal_iterator", ptr %this1, i32 0, i32 0
  %0 = load ptr, ptr %_M_current, align 8
  %incdec.ptr = getelementptr inbounds i64, ptr %0, i32 1
  store ptr %incdec.ptr, ptr %_M_current, align 8
  ret ptr %this1
}

; Function Attrs: mustprogress uwtable
define linkonce_odr void @_ZSt11make_uniqueIN8facebook5velox6memory17ManagedMmapArenasEJRKmEENSt8__detail9_MakeUniqIT_E15__single_objectEDpOT0_(ptr noalias sret(%"class.std::unique_ptr") align 8 %agg.result, ptr noundef nonnull align 8 dereferenceable(8) %__args) #0 comdat personality ptr @__gxx_personality_v0 {
entry:
  %result.ptr = alloca ptr, align 8
  %__args.addr = alloca ptr, align 8
  %exn.slot = alloca ptr, align 8
  %ehselector.slot = alloca i32, align 4
  store ptr %agg.result, ptr %result.ptr, align 8
  store ptr %__args, ptr %__args.addr, align 8
  %call = call noalias noundef nonnull ptr @_Znwm(i64 noundef 72) #24
  %0 = load ptr, ptr %__args.addr, align 8
  %1 = load i64, ptr %0, align 8
  invoke void @_ZN8facebook5velox6memory17ManagedMmapArenasC1Em(ptr noundef nonnull align 8 dereferenceable(72) %call, i64 noundef %1)
          to label %invoke.cont unwind label %lpad

invoke.cont:                                      ; preds = %entry
  call void @_ZNSt10unique_ptrIN8facebook5velox6memory17ManagedMmapArenasESt14default_deleteIS3_EEC2IS5_vEEPS3_(ptr noundef nonnull align 8 dereferenceable(8) %agg.result, ptr noundef %call) #21
  ret void

lpad:                                             ; preds = %entry
  %2 = landingpad { ptr, i32 }
          cleanup
  %3 = extractvalue { ptr, i32 } %2, 0
  store ptr %3, ptr %exn.slot, align 8
  %4 = extractvalue { ptr, i32 } %2, 1
  store i32 %4, ptr %ehselector.slot, align 4
  call void @_ZdlPv(ptr noundef %call) #25
  br label %eh.resume

eh.resume:                                        ; preds = %lpad
  %exn = load ptr, ptr %exn.slot, align 8
  %sel = load i32, ptr %ehselector.slot, align 4
  %lpad.val = insertvalue { ptr, i32 } poison, ptr %exn, 0
  %lpad.val1 = insertvalue { ptr, i32 } %lpad.val, i32 %sel, 1
  resume { ptr, i32 } %lpad.val1
}

; Function Attrs: mustprogress nounwind uwtable
define linkonce_odr noundef nonnull align 8 dereferenceable(8) ptr @_ZSt3maxImERKT_S2_S2_(ptr noundef nonnull align 8 dereferenceable(8) %__a, ptr noundef nonnull align 8 dereferenceable(8) %__b) #1 comdat {
entry:
  %retval = alloca ptr, align 8
  %__a.addr = alloca ptr, align 8
  %__b.addr = alloca ptr, align 8
  store ptr %__a, ptr %__a.addr, align 8
  store ptr %__b, ptr %__b.addr, align 8
  %0 = load ptr, ptr %__a.addr, align 8
  %1 = load i64, ptr %0, align 8
  %2 = load ptr, ptr %__b.addr, align 8
  %3 = load i64, ptr %2, align 8
  %cmp = icmp ult i64 %1, %3
  br i1 %cmp, label %if.then, label %if.end

if.then:                                          ; preds = %entry
  %4 = load ptr, ptr %__b.addr, align 8
  store ptr %4, ptr %retval, align 8
  br label %return

if.end:                                           ; preds = %entry
  %5 = load ptr, ptr %__a.addr, align 8
  store ptr %5, ptr %retval, align 8
  br label %return

return:                                           ; preds = %if.end, %if.then
  %6 = load ptr, ptr %retval, align 8
  ret ptr %6
}

; Function Attrs: mustprogress nounwind uwtable
define linkonce_odr noundef nonnull align 8 dereferenceable(8) ptr @_ZNSt10unique_ptrIN8facebook5velox6memory17ManagedMmapArenasESt14default_deleteIS3_EEaSEOS6_(ptr noundef nonnull align 8 dereferenceable(8) %this, ptr noundef nonnull align 8 dereferenceable(8) %0) #1 comdat align 2 {
entry:
  %this.addr = alloca ptr, align 8
  %.addr = alloca ptr, align 8
  store ptr %this, ptr %this.addr, align 8
  store ptr %0, ptr %.addr, align 8
  %this1 = load ptr, ptr %this.addr, align 8
  %_M_t = getelementptr inbounds %"class.std::unique_ptr", ptr %this1, i32 0, i32 0
  %1 = load ptr, ptr %.addr, align 8
  %_M_t2 = getelementptr inbounds %"class.std::unique_ptr", ptr %1, i32 0, i32 0
  %call = call noundef nonnull align 8 dereferenceable(8) ptr @_ZNSt15__uniq_ptr_dataIN8facebook5velox6memory17ManagedMmapArenasESt14default_deleteIS3_ELb1ELb1EEaSEOS6_(ptr noundef nonnull align 8 dereferenceable(8) %_M_t, ptr noundef nonnull align 8 dereferenceable(8) %_M_t2) #21
  ret ptr %this1
}

; Function Attrs: mustprogress nounwind uwtable
define linkonce_odr void @_ZNSt10unique_ptrIN8facebook5velox6memory17ManagedMmapArenasESt14default_deleteIS3_EED2Ev(ptr noundef nonnull align 8 dereferenceable(8) %this) unnamed_addr #1 comdat align 2 {
entry:
  %this.addr = alloca ptr, align 8
  %__ptr = alloca ptr, align 8
  store ptr %this, ptr %this.addr, align 8
  %this1 = load ptr, ptr %this.addr, align 8
  %_M_t = getelementptr inbounds %"class.std::unique_ptr", ptr %this1, i32 0, i32 0
  %call = call noundef nonnull align 8 dereferenceable(8) ptr @_ZNSt15__uniq_ptr_implIN8facebook5velox6memory17ManagedMmapArenasESt14default_deleteIS3_EE6_M_ptrEv(ptr noundef nonnull align 8 dereferenceable(8) %_M_t) #21
  store ptr %call, ptr %__ptr, align 8
  %0 = load ptr, ptr %__ptr, align 8
  %1 = load ptr, ptr %0, align 8
  %cmp = icmp ne ptr %1, null
  br i1 %cmp, label %if.then, label %if.end

if.then:                                          ; preds = %entry
  %call2 = call noundef nonnull align 1 dereferenceable(1) ptr @_ZNSt10unique_ptrIN8facebook5velox6memory17ManagedMmapArenasESt14default_deleteIS3_EE11get_deleterEv(ptr noundef nonnull align 8 dereferenceable(8) %this1) #21
  %2 = load ptr, ptr %__ptr, align 8
  %3 = load ptr, ptr %2, align 8
  call void @_ZNKSt14default_deleteIN8facebook5velox6memory17ManagedMmapArenasEEclEPS3_(ptr noundef nonnull align 1 dereferenceable(1) %call2, ptr noundef %3)
  br label %if.end

if.end:                                           ; preds = %if.then, %entry
  %4 = load ptr, ptr %__ptr, align 8
  store ptr null, ptr %4, align 8
  ret void
}

; Function Attrs: mustprogress nounwind uwtable
define linkonce_odr void @_ZNSt10shared_ptrIN8facebook5velox6memory5CacheEED2Ev(ptr noundef nonnull align 8 dereferenceable(16) %this) unnamed_addr #1 comdat align 2 {
entry:
  %this.addr = alloca ptr, align 8
  store ptr %this, ptr %this.addr, align 8
  %this1 = load ptr, ptr %this.addr, align 8
  call void @_ZNSt12__shared_ptrIN8facebook5velox6memory5CacheELN9__gnu_cxx12_Lock_policyE2EED2Ev(ptr noundef nonnull align 8 dereferenceable(16) %this1) #21
  ret void
}

; Function Attrs: mustprogress nounwind uwtable
define linkonce_odr void @_ZNSt6vectorISt10unique_ptrIN8facebook5velox6memory13MmapAllocator9SizeClassESt14default_deleteIS5_EESaIS8_EED2Ev(ptr noundef nonnull align 8 dereferenceable(24) %this) unnamed_addr #1 comdat align 2 personality ptr @__gxx_personality_v0 {
entry:
  %this.addr = alloca ptr, align 8
  store ptr %this, ptr %this.addr, align 8
  %this1 = load ptr, ptr %this.addr, align 8
  %_M_impl = getelementptr inbounds %"struct.std::_Vector_base.3", ptr %this1, i32 0, i32 0
  %_M_start = getelementptr inbounds %"struct.std::_Vector_base<std::unique_ptr<facebook::velox::memory::MmapAllocator::SizeClass>, std::allocator<std::unique_ptr<facebook::velox::memory::MmapAllocator::SizeClass>>>::_Vector_impl_data", ptr %_M_impl, i32 0, i32 0
  %0 = load ptr, ptr %_M_start, align 8
  %_M_impl2 = getelementptr inbounds %"struct.std::_Vector_base.3", ptr %this1, i32 0, i32 0
  %_M_finish = getelementptr inbounds %"struct.std::_Vector_base<std::unique_ptr<facebook::velox::memory::MmapAllocator::SizeClass>, std::allocator<std::unique_ptr<facebook::velox::memory::MmapAllocator::SizeClass>>>::_Vector_impl_data", ptr %_M_impl2, i32 0, i32 1
  %1 = load ptr, ptr %_M_finish, align 8
  %call = call noundef nonnull align 1 dereferenceable(1) ptr @_ZNSt12_Vector_baseISt10unique_ptrIN8facebook5velox6memory13MmapAllocator9SizeClassESt14default_deleteIS5_EESaIS8_EE19_M_get_Tp_allocatorEv(ptr noundef nonnull align 8 dereferenceable(24) %this1) #21
  invoke void @_ZSt8_DestroyIPSt10unique_ptrIN8facebook5velox6memory13MmapAllocator9SizeClassESt14default_deleteIS5_EES8_EvT_SA_RSaIT0_E(ptr noundef %0, ptr noundef %1, ptr noundef nonnull align 1 dereferenceable(1) %call)
          to label %invoke.cont unwind label %terminate.lpad

invoke.cont:                                      ; preds = %entry
  call void @_ZNSt12_Vector_baseISt10unique_ptrIN8facebook5velox6memory13MmapAllocator9SizeClassESt14default_deleteIS5_EESaIS8_EED2Ev(ptr noundef nonnull align 8 dereferenceable(24) %this1) #21
  ret void

terminate.lpad:                                   ; preds = %entry
  %2 = landingpad { ptr, i32 }
          catch ptr null
  %3 = extractvalue { ptr, i32 } %2, 0
  call void @__clang_call_terminate(ptr %3) #26
  unreachable
}

; Function Attrs: mustprogress nounwind uwtable
define linkonce_odr void @_ZN8facebook5velox6memory15MemoryAllocatorD2Ev(ptr noundef nonnull align 8 dereferenceable(880) %this) unnamed_addr #1 comdat align 2 {
entry:
  %this.addr = alloca ptr, align 8
  store ptr %this, ptr %this.addr, align 8
  %this1 = load ptr, ptr %this.addr, align 8
  store ptr getelementptr inbounds ({ [25 x ptr] }, ptr @_ZTVN8facebook5velox6memory15MemoryAllocatorE, i32 0, inrange i32 0, i32 2), ptr %this1, align 8
  %sizeClassSizes_ = getelementptr inbounds %"class.facebook::velox::memory::MemoryAllocator", ptr %this1, i32 0, i32 2
  call void @_ZNSt6vectorImSaImEED2Ev(ptr noundef nonnull align 8 dereferenceable(24) %sizeClassSizes_) #21
  %0 = getelementptr inbounds i8, ptr %this1, i64 8
  call void @_ZNSt23enable_shared_from_thisIN8facebook5velox6memory15MemoryAllocatorEED2Ev(ptr noundef nonnull align 8 dereferenceable(16) %0) #21
  ret void
}

; Function Attrs: mustprogress nounwind uwtable
define void @_ZN8facebook5velox6memory13MmapAllocatorD2Ev(ptr noundef nonnull align 8 dereferenceable(1080) %this) unnamed_addr #1 align 2 {
entry:
  %this.addr = alloca ptr, align 8
  store ptr %this, ptr %this.addr, align 8
  %this1 = load ptr, ptr %this.addr, align 8
  store ptr getelementptr inbounds ({ [25 x ptr] }, ptr @_ZTVN8facebook5velox6memory13MmapAllocatorE, i32 0, inrange i32 0, i32 2), ptr %this1, align 8
  %numAllocated_ = getelementptr inbounds %"class.facebook::velox::memory::MemoryAllocator", ptr %this1, i32 0, i32 3
  %call = call noundef i64 @_ZNKSt13__atomic_baseImEcvmEv(ptr noundef nonnull align 8 dereferenceable(8) %numAllocated_) #21
  %cmp = icmp eq i64 %call, 0
  br i1 %cmp, label %land.rhs, label %land.end

land.rhs:                                         ; preds = %entry
  %numExternalMapped_ = getelementptr inbounds %"class.facebook::velox::memory::MmapAllocator", ptr %this1, i32 0, i32 4
  %call2 = call noundef i64 @_ZNKSt13__atomic_baseImEcvmEv(ptr noundef nonnull align 8 dereferenceable(8) %numExternalMapped_) #21
  %cmp3 = icmp eq i64 %call2, 0
  br label %land.end

land.end:                                         ; preds = %land.rhs, %entry
  %0 = phi i1 [ false, %entry ], [ %cmp3, %land.rhs ]
  %lnot = xor i1 %0, true
  br i1 %lnot, label %if.then, label %if.end

if.then:                                          ; preds = %land.end
  call void @llvm.trap()
  br label %if.end

if.end:                                           ; preds = %if.then, %land.end
  %cache_ = getelementptr inbounds %"class.facebook::velox::memory::MmapAllocator", ptr %this1, i32 0, i32 15
  call void @_ZNSt10shared_ptrIN8facebook5velox6memory5CacheEED2Ev(ptr noundef nonnull align 8 dereferenceable(16) %cache_) #21
  %managedArenas_ = getelementptr inbounds %"class.facebook::velox::memory::MmapAllocator", ptr %this1, i32 0, i32 14
  call void @_ZNSt10unique_ptrIN8facebook5velox6memory17ManagedMmapArenasESt14default_deleteIS3_EED2Ev(ptr noundef nonnull align 8 dereferenceable(8) %managedArenas_) #21
  %sizeClasses_ = getelementptr inbounds %"class.facebook::velox::memory::MmapAllocator", ptr %this1, i32 0, i32 8
  call void @_ZNSt6vectorISt10unique_ptrIN8facebook5velox6memory13MmapAllocator9SizeClassESt14default_deleteIS5_EESaIS8_EED2Ev(ptr noundef nonnull align 8 dereferenceable(24) %sizeClasses_) #21
  call void @_ZN8facebook5velox6memory15MemoryAllocatorD2Ev(ptr noundef nonnull align 8 dereferenceable(880) %this1) #21
  ret void
}

; Function Attrs: mustprogress nounwind uwtable
define linkonce_odr noundef i64 @_ZNKSt13__atomic_baseImEcvmEv(ptr noundef nonnull align 8 dereferenceable(8) %this) #1 comdat align 2 {
entry:
  %this.addr.i = alloca ptr, align 8
  %__m.addr.i = alloca i32, align 4
  %__b.i = alloca i32, align 4
  %atomic-temp.i = alloca i64, align 8
  %this.addr = alloca ptr, align 8
  store ptr %this, ptr %this.addr, align 8
  %this1 = load ptr, ptr %this.addr, align 8
  store ptr %this1, ptr %this.addr.i, align 8
  store i32 5, ptr %__m.addr.i, align 4
  %this1.i = load ptr, ptr %this.addr.i, align 8
  %0 = load i32, ptr %__m.addr.i, align 4
  %call.i = call noundef i32 @_ZStanSt12memory_orderSt23__memory_order_modifier(i32 noundef %0, i32 noundef 65535)
  store i32 %call.i, ptr %__b.i, align 4
  %1 = load i32, ptr %__m.addr.i, align 4
  switch i32 %1, label %monotonic.i [
    i32 1, label %acquire.i
    i32 2, label %acquire.i
    i32 5, label %seqcst.i
  ]

monotonic.i:                                      ; preds = %entry
  %2 = load atomic i64, ptr %this1.i monotonic, align 8
  store i64 %2, ptr %atomic-temp.i, align 8
  br label %_ZNKSt13__atomic_baseImE4loadESt12memory_order.exit

acquire.i:                                        ; preds = %entry, %entry
  %3 = load atomic i64, ptr %this1.i acquire, align 8
  store i64 %3, ptr %atomic-temp.i, align 8
  br label %_ZNKSt13__atomic_baseImE4loadESt12memory_order.exit

seqcst.i:                                         ; preds = %entry
  %4 = load atomic i64, ptr %this1.i seq_cst, align 8
  store i64 %4, ptr %atomic-temp.i, align 8
  br label %_ZNKSt13__atomic_baseImE4loadESt12memory_order.exit

_ZNKSt13__atomic_baseImE4loadESt12memory_order.exit: ; preds = %seqcst.i, %acquire.i, %monotonic.i
  %5 = load i64, ptr %atomic-temp.i, align 8
  ret i64 %5
}

; Function Attrs: cold noreturn nounwind memory(inaccessiblemem: write)
declare void @llvm.trap() #2

; Function Attrs: mustprogress nounwind uwtable
define void @_ZN8facebook5velox6memory13MmapAllocatorD0Ev(ptr noundef nonnull align 8 dereferenceable(1080) %this) unnamed_addr #1 align 2 {
entry:
  %this.addr = alloca ptr, align 8
  store ptr %this, ptr %this.addr, align 8
  %this1 = load ptr, ptr %this.addr, align 8
  call void @_ZN8facebook5velox6memory13MmapAllocatorD1Ev(ptr noundef nonnull align 8 dereferenceable(1080) %this1) #21
  call void @_ZdlPv(ptr noundef %this1) #25
  ret void
}

; Function Attrs: nobuiltin nounwind
declare void @_ZdlPv(ptr noundef) #3

; Function Attrs: mustprogress uwtable
define noundef zeroext i1 @_ZN8facebook5velox6memory13MmapAllocator33allocateNonContiguousWithoutRetryEmRNS1_10AllocationESt8functionIFvlbEEm(ptr noundef nonnull align 8 dereferenceable(1080) %this, i64 noundef %numPages, ptr noundef nonnull align 8 dereferenceable(36) %out, ptr noundef %reservationCB, i64 noundef %minSizeClass) unnamed_addr #0 align 2 personality ptr @__gxx_personality_v0 {
entry:
  %.addr.i738 = alloca ptr, align 8
  %this.addr.i2.i729 = alloca ptr, align 8
  %desc.addr.i.i730 = alloca i64, align 8
  %values.addr.i.i731 = alloca ptr, align 8
  %this.addr.i.i732 = alloca ptr, align 8
  %this.addr.i733 = alloca ptr, align 8
  %store.addr.i734 = alloca ptr, align 8
  %retval.i726 = alloca %"class.fmt::v8::basic_string_view", align 8
  %this.addr.i727 = alloca ptr, align 8
  %.addr.i725 = alloca ptr, align 8
  %this.addr.i2.i = alloca ptr, align 8
  %desc.addr.i.i = alloca i64, align 8
  %values.addr.i.i = alloca ptr, align 8
  %this.addr.i.i = alloca ptr, align 8
  %this.addr.i722 = alloca ptr, align 8
  %store.addr.i723 = alloca ptr, align 8
  %retval.i719 = alloca %"class.fmt::v8::basic_string_view", align 8
  %this.addr.i720 = alloca ptr, align 8
  %.addr.i718 = alloca ptr, align 8
  %this.addr.i638 = alloca ptr, align 8
  %__i1.addr.i639 = alloca ptr, align 8
  %__i2.addr.i640 = alloca i64, align 8
  %__m1.addr.i641 = alloca i32, align 4
  %__m2.addr.i642 = alloca i32, align 4
  %.atomictmp.i643 = alloca i64, align 8
  %cmpxchg.bool.i644 = alloca i8, align 1
  %this.addr.i558 = alloca ptr, align 8
  %__i1.addr.i559 = alloca ptr, align 8
  %__i2.addr.i560 = alloca i64, align 8
  %__m1.addr.i561 = alloca i32, align 4
  %__m2.addr.i562 = alloca i32, align 4
  %.atomictmp.i563 = alloca i64, align 8
  %cmpxchg.bool.i564 = alloca i8, align 1
  %this.addr.i547 = alloca ptr, align 8
  %__i1.addr.i548 = alloca ptr, align 8
  %__i2.addr.i549 = alloca i64, align 8
  %__m1.addr.i = alloca i32, align 4
  %__m2.addr.i = alloca i32, align 4
  %.atomictmp.i550 = alloca i64, align 8
  %cmpxchg.bool.i = alloca i8, align 1
  %.addr.i = alloca ptr, align 8
  %this.addr.i542 = alloca ptr, align 8
  %s.addr.i543 = alloca ptr, align 8
  %this.addr.i537 = alloca ptr, align 8
  %s.addr.i538 = alloca ptr, align 8
  %this.addr.i532 = alloca ptr, align 8
  %s.addr.i533 = alloca ptr, align 8
  %this.addr.i529 = alloca ptr, align 8
  %s.addr.i530 = alloca ptr, align 8
  %this.addr.i525 = alloca ptr, align 8
  %desc.addr.i526 = alloca i64, align 8
  %values.addr.i527 = alloca ptr, align 8
  %this.addr.i523 = alloca ptr, align 8
  %desc.addr.i = alloca i64, align 8
  %values.addr.i = alloca ptr, align 8
  %this.addr.i521 = alloca ptr, align 8
  %this.addr.i519 = alloca ptr, align 8
  %this.addr.i515 = alloca ptr, align 8
  %store.addr.i516 = alloca ptr, align 8
  %this.addr.i513 = alloca ptr, align 8
  %store.addr.i = alloca ptr, align 8
  %retval.i510 = alloca %"class.fmt::v8::basic_string_view", align 8
  %this.addr.i511 = alloca ptr, align 8
  %retval.i507 = alloca %"class.fmt::v8::basic_string_view", align 8
  %this.addr.i508 = alloca ptr, align 8
  %this.addr.i504 = alloca ptr, align 8
  %s.addr.i505 = alloca ptr, align 8
  %result.ptr.i496 = alloca ptr, align 8
  %fmt.i497 = alloca %"class.fmt::v8::basic_format_string.28", align 8
  %args.addr.i498 = alloca ptr, align 8
  %args.addr2.i499 = alloca ptr, align 8
  %agg.tmp.i500 = alloca %"class.fmt::v8::basic_string_view", align 8
  %agg.tmp3.i501 = alloca %"class.fmt::v8::basic_format_args", align 8
  %ref.tmp.i502 = alloca %"class.fmt::v8::format_arg_store.55", align 16
  %this.addr.i493 = alloca ptr, align 8
  %s.addr.i494 = alloca ptr, align 8
  %result.ptr.i485 = alloca ptr, align 8
  %fmt.i486 = alloca %"class.fmt::v8::basic_format_string.27", align 8
  %args.addr.i487 = alloca ptr, align 8
  %args.addr2.i488 = alloca ptr, align 8
  %agg.tmp.i489 = alloca %"class.fmt::v8::basic_string_view", align 8
  %agg.tmp3.i490 = alloca %"class.fmt::v8::basic_format_args", align 8
  %ref.tmp.i491 = alloca %"class.fmt::v8::format_arg_store.54", align 16
  %this.addr.i482 = alloca ptr, align 8
  %s.addr.i483 = alloca ptr, align 8
  %this.addr.i471 = alloca ptr, align 8
  %__i.addr.i472 = alloca i64, align 8
  %__m.addr.i473 = alloca i32, align 4
  %.atomictmp.i474 = alloca i64, align 8
  %atomic-temp.i475 = alloca i64, align 8
  %this.addr.i464 = alloca ptr, align 8
  %__i1.addr.i465 = alloca ptr, align 8
  %__i2.addr.i466 = alloca i64, align 8
  %__m.addr.i467 = alloca i32, align 4
  %this.addr.i457 = alloca ptr, align 8
  %__i1.addr.i458 = alloca ptr, align 8
  %__i2.addr.i459 = alloca i64, align 8
  %__m.addr.i460 = alloca i32, align 4
  %this.addr.i453 = alloca ptr, align 8
  %__i1.addr.i = alloca ptr, align 8
  %__i2.addr.i = alloca i64, align 8
  %__m.addr.i454 = alloca i32, align 4
  %this.addr.i443 = alloca ptr, align 8
  %__m.addr.i444 = alloca i32, align 4
  %__b.i445 = alloca i32, align 4
  %atomic-temp.i446 = alloca i64, align 8
  %this.addr.i433 = alloca ptr, align 8
  %__m.addr.i434 = alloca i32, align 4
  %__b.i435 = alloca i32, align 4
  %atomic-temp.i436 = alloca i64, align 8
  %this.addr.i425 = alloca ptr, align 8
  %__m.addr.i426 = alloca i32, align 4
  %__b.i = alloca i32, align 4
  %atomic-temp.i427 = alloca i64, align 8
  %this.addr.i423 = alloca ptr, align 8
  %s.addr.i = alloca ptr, align 8
  %result.ptr.i415 = alloca ptr, align 8
  %fmt.i416 = alloca %"class.fmt::v8::basic_format_string", align 8
  %args.addr.i417 = alloca ptr, align 8
  %args.addr2.i418 = alloca ptr, align 8
  %agg.tmp.i419 = alloca %"class.fmt::v8::basic_string_view", align 8
  %agg.tmp3.i420 = alloca %"class.fmt::v8::basic_format_args", align 8
  %ref.tmp.i421 = alloca %"class.fmt::v8::format_arg_store", align 16
  %result.ptr.i = alloca ptr, align 8
  %fmt.i = alloca %"class.fmt::v8::basic_format_string", align 8
  %args.addr.i = alloca ptr, align 8
  %args.addr2.i = alloca ptr, align 8
  %agg.tmp.i = alloca %"class.fmt::v8::basic_string_view", align 8
  %agg.tmp3.i = alloca %"class.fmt::v8::basic_format_args", align 8
  %ref.tmp.i = alloca %"class.fmt::v8::format_arg_store", align 16
  %retval.i401 = alloca i1, align 1
  %this.addr.i402 = alloca ptr, align 8
  %failure.addr.i403 = alloca i32, align 4
  %retval.i = alloca i1, align 1
  %this.addr.i399 = alloca ptr, align 8
  %failure.addr.i = alloca i32, align 4
  %this.addr.i387 = alloca ptr, align 8
  %__i.addr.i388 = alloca i64, align 8
  %__m.addr.i389 = alloca i32, align 4
  %.atomictmp.i390 = alloca i64, align 8
  %atomic-temp.i391 = alloca i64, align 8
  %this.addr.i375 = alloca ptr, align 8
  %__i.addr.i376 = alloca i64, align 8
  %__m.addr.i377 = alloca i32, align 4
  %.atomictmp.i378 = alloca i64, align 8
  %atomic-temp.i379 = alloca i64, align 8
  %this.addr.i363 = alloca ptr, align 8
  %__i.addr.i364 = alloca i64, align 8
  %__m.addr.i365 = alloca i32, align 4
  %.atomictmp.i366 = alloca i64, align 8
  %atomic-temp.i367 = alloca i64, align 8
  %this.addr.i = alloca ptr, align 8
  %__i.addr.i = alloca i64, align 8
  %__m.addr.i = alloca i32, align 4
  %.atomictmp.i = alloca i64, align 8
  %atomic-temp.i = alloca i64, align 8
  %numPages.addr.i361 = alloca i64, align 8
  %numPages.addr.i359 = alloca i64, align 8
  %numPages.addr.i357 = alloca i64, align 8
  %numPages.addr.i355 = alloca i64, align 8
  %numPages.addr.i = alloca i64, align 8
  %retval = alloca i1, align 1
  %this.addr = alloca ptr, align 8
  %numPages.addr = alloca i64, align 8
  %out.addr = alloca ptr, align 8
  %reservationCB.indirect_addr = alloca ptr, align 8
  %minSizeClass.addr = alloca i64, align 8
  %numFreed = alloca i64, align 8
  %bytesFreed = alloca i64, align 8
  %mix = alloca %"struct.facebook::velox::memory::MemoryAllocator::SizeMix", align 4
  %errorMsg = alloca %"class.std::__cxx11::basic_string", align 8
  %agg.tmp = alloca %"class.fmt::v8::basic_format_string", align 8
  %FB_LEM_once = alloca i32, align 4
  %FB_LEM_interval = alloca i32, align 4
  %FB_LEM_prev = alloca i64, align 8
  %FB_LEM_now = alloca i64, align 8
  %ref.tmp = alloca %"class.std::chrono::duration", align 8
  %ref.tmp19 = alloca %"class.std::chrono::duration.26", align 8
  %ref.tmp20 = alloca %"class.std::chrono::time_point", align 8
  %exn.slot = alloca ptr, align 8
  %ehselector.slot = alloca i32, align 4
  %ref.tmp44 = alloca %"class.google::LogMessage", align 8
  %agg.tmp56 = alloca %"class.std::__cxx11::basic_string", align 8
  %errorMsg77 = alloca %"class.std::__cxx11::basic_string", align 8
  %agg.tmp78 = alloca %"class.fmt::v8::basic_format_string", align 8
  %FB_LEM_once81 = alloca i32, align 4
  %FB_LEM_interval82 = alloca i32, align 4
  %FB_LEM_prev86 = alloca i64, align 8
  %FB_LEM_now87 = alloca i64, align 8
  %ref.tmp91 = alloca %"class.std::chrono::duration", align 8
  %ref.tmp92 = alloca %"class.std::chrono::duration.26", align 8
  %ref.tmp93 = alloca %"class.std::chrono::time_point", align 8
  %ref.tmp124 = alloca %"class.google::LogMessage", align 8
  %agg.tmp139 = alloca %"class.std::__cxx11::basic_string", align 8
  %numNeededPages = alloca i64, align 8
  %e = alloca ptr, align 8
  %FB_LEM_once169 = alloca i32, align 4
  %FB_LEM_interval170 = alloca i32, align 4
  %FB_LEM_prev174 = alloca i64, align 8
  %FB_LEM_now175 = alloca i64, align 8
  %ref.tmp179 = alloca %"class.std::chrono::duration", align 8
  %ref.tmp180 = alloca %"class.std::chrono::duration.26", align 8
  %ref.tmp181 = alloca %"class.std::chrono::time_point", align 8
  %ref.tmp212 = alloca %"class.google::LogMessage", align 8
  %agg.tmp241 = alloca %"class.std::__exception_ptr::exception_ptr", align 8
  %newMapsNeeded = alloca i64, align 8
  %i = alloca i32, align 4
  %success = alloca i8, align 1
  %agg.tmp258 = alloca %class.anon, align 8
  %errorMsg271 = alloca %"class.std::__cxx11::basic_string", align 8
  %agg.tmp272 = alloca %"class.fmt::v8::basic_format_string.27", align 8
  %ref.tmp276 = alloca %"class.google::LogMessage", align 8
  %agg.tmp287 = alloca %"class.std::__cxx11::basic_string", align 8
  %failedPages = alloca i64, align 8
  %errorMsg320 = alloca %"class.std::__cxx11::basic_string", align 8
  %agg.tmp321 = alloca %"class.fmt::v8::basic_format_string.28", align 8
  %ref.tmp323 = alloca %"class.google::LogMessage", align 8
  %agg.tmp334 = alloca %"class.std::__cxx11::basic_string", align 8
  store ptr %this, ptr %this.addr, align 8
  store i64 %numPages, ptr %numPages.addr, align 8
  store ptr %out, ptr %out.addr, align 8
  store ptr %reservationCB, ptr %reservationCB.indirect_addr, align 8
  store i64 %minSizeClass, ptr %minSizeClass.addr, align 8
  %this1 = load ptr, ptr %this.addr, align 8
  %0 = load ptr, ptr %out.addr, align 8
  %call = call noundef i64 @_ZN8facebook5velox6memory13MmapAllocator25freeNonContiguousInternalERNS1_10AllocationE(ptr noundef nonnull align 8 dereferenceable(1080) %this1, ptr noundef nonnull align 8 dereferenceable(36) %0)
  store i64 %call, ptr %numFreed, align 8
  %1 = load i64, ptr %numFreed, align 8
  store i64 %1, ptr %numPages.addr.i361, align 8
  %2 = load i64, ptr %numPages.addr.i361, align 8
  %mul.i362 = mul i64 %2, 4096
  store i64 %mul.i362, ptr %bytesFreed, align 8
  %3 = load i64, ptr %numFreed, align 8
  %cmp = icmp ne i64 %3, 0
  br i1 %cmp, label %if.then, label %if.end

if.then:                                          ; preds = %entry
  %numAllocated_ = getelementptr inbounds %"class.facebook::velox::memory::MemoryAllocator", ptr %this1, i32 0, i32 3
  %4 = load i64, ptr %numFreed, align 8
  store ptr %numAllocated_, ptr %this.addr.i387, align 8
  store i64 %4, ptr %__i.addr.i388, align 8
  store i32 5, ptr %__m.addr.i389, align 4
  %this1.i392 = load ptr, ptr %this.addr.i387, align 8
  %5 = load i32, ptr %__m.addr.i389, align 4
  %6 = load i64, ptr %__i.addr.i388, align 8
  store i64 %6, ptr %.atomictmp.i390, align 8
  switch i32 %5, label %monotonic.i397 [
    i32 1, label %acquire.i396
    i32 2, label %acquire.i396
    i32 3, label %release.i395
    i32 4, label %acqrel.i394
    i32 5, label %seqcst.i393
  ]

monotonic.i397:                                   ; preds = %if.then
  %7 = load i64, ptr %.atomictmp.i390, align 8
  %8 = atomicrmw sub ptr %this1.i392, i64 %7 monotonic, align 8
  store i64 %8, ptr %atomic-temp.i391, align 8
  br label %_ZNSt13__atomic_baseImE9fetch_subEmSt12memory_order.exit398

acquire.i396:                                     ; preds = %if.then, %if.then
  %9 = load i64, ptr %.atomictmp.i390, align 8
  %10 = atomicrmw sub ptr %this1.i392, i64 %9 acquire, align 8
  store i64 %10, ptr %atomic-temp.i391, align 8
  br label %_ZNSt13__atomic_baseImE9fetch_subEmSt12memory_order.exit398

release.i395:                                     ; preds = %if.then
  %11 = load i64, ptr %.atomictmp.i390, align 8
  %12 = atomicrmw sub ptr %this1.i392, i64 %11 release, align 8
  store i64 %12, ptr %atomic-temp.i391, align 8
  br label %_ZNSt13__atomic_baseImE9fetch_subEmSt12memory_order.exit398

acqrel.i394:                                      ; preds = %if.then
  %13 = load i64, ptr %.atomictmp.i390, align 8
  %14 = atomicrmw sub ptr %this1.i392, i64 %13 acq_rel, align 8
  store i64 %14, ptr %atomic-temp.i391, align 8
  br label %_ZNSt13__atomic_baseImE9fetch_subEmSt12memory_order.exit398

seqcst.i393:                                      ; preds = %if.then
  %15 = load i64, ptr %.atomictmp.i390, align 8
  %16 = atomicrmw sub ptr %this1.i392, i64 %15 seq_cst, align 8
  store i64 %16, ptr %atomic-temp.i391, align 8
  br label %_ZNSt13__atomic_baseImE9fetch_subEmSt12memory_order.exit398

_ZNSt13__atomic_baseImE9fetch_subEmSt12memory_order.exit398: ; preds = %seqcst.i393, %acqrel.i394, %release.i395, %acquire.i396, %monotonic.i397
  br label %if.end

if.end:                                           ; preds = %_ZNSt13__atomic_baseImE9fetch_subEmSt12memory_order.exit398, %entry
  %17 = load i64, ptr %numPages.addr, align 8
  %cmp4 = icmp eq i64 %17, 0
  br i1 %cmp4, label %if.then5, label %if.end10

if.then5:                                         ; preds = %if.end
  %18 = load i64, ptr %bytesFreed, align 8
  %cmp6 = icmp ne i64 %18, 0
  br i1 %cmp6, label %land.lhs.true, label %if.end9

land.lhs.true:                                    ; preds = %if.then5
  %call7 = call noundef zeroext i1 @_ZStneIvJlbEEbRKSt8functionIFT_DpT0_EEDn(ptr noundef nonnull align 8 dereferenceable(32) %reservationCB, ptr null) #21
  br i1 %call7, label %if.then8, label %if.end9

if.then8:                                         ; preds = %land.lhs.true
  %19 = load i64, ptr %bytesFreed, align 8
  call void @_ZNKSt8functionIFvlbEEclElb(ptr noundef nonnull align 8 dereferenceable(32) %reservationCB, i64 noundef %19, i1 noundef zeroext false)
  br label %if.end9

if.end9:                                          ; preds = %if.then8, %land.lhs.true, %if.then5
  store i1 true, ptr %retval, align 1
  br label %return

if.end10:                                         ; preds = %if.end
  %20 = load i64, ptr %numPages.addr, align 8
  %21 = load i64, ptr %minSizeClass.addr, align 8
  call void @_ZNK8facebook5velox6memory15MemoryAllocator14allocationSizeEmm(ptr sret(%"struct.facebook::velox::memory::MemoryAllocator::SizeMix") align 4 %mix, ptr noundef nonnull align 8 dereferenceable(880) %this1, i64 noundef %20, i64 noundef %21)
  %numAllocated_11 = getelementptr inbounds %"class.facebook::velox::memory::MemoryAllocator", ptr %this1, i32 0, i32 3
  %call12 = call noundef i64 @_ZNKSt13__atomic_baseImEcvmEv(ptr noundef nonnull align 8 dereferenceable(8) %numAllocated_11) #21
  %totalPages = getelementptr inbounds %"struct.facebook::velox::memory::MemoryAllocator::SizeMix", ptr %mix, i32 0, i32 3
  %22 = load i32, ptr %totalPages, align 4
  %conv = sext i32 %22 to i64
  %add = add i64 %call12, %conv
  %capacity_ = getelementptr inbounds %"class.facebook::velox::memory::MmapAllocator", ptr %this1, i32 0, i32 7
  %23 = load i64, ptr %capacity_, align 8
  %cmp13 = icmp ugt i64 %add, %23
  br i1 %cmp13, label %if.then15, label %lor.lhs.false

lor.lhs.false:                                    ; preds = %if.end10
  store ptr %this1, ptr %this.addr.i402, align 8
  store i32 4, ptr %failure.addr.i403, align 4
  %this1.i404 = load ptr, ptr %this.addr.i402, align 8
  %injectedFailure_.i405 = getelementptr inbounds %"class.facebook::velox::memory::MemoryAllocator", ptr %this1.i404, i32 0, i32 5
  %24 = load i32, ptr %injectedFailure_.i405, align 8
  %25 = load i32, ptr %failure.addr.i403, align 4
  %cmp.i406 = icmp ne i32 %24, %25
  br i1 %cmp.i406, label %if.then.i413, label %if.end.i407

if.then.i413:                                     ; preds = %lor.lhs.false
  store i1 false, ptr %retval.i401, align 1
  br label %_ZN8facebook5velox6memory15MemoryAllocator25testingHasInjectedFailureENS2_15InjectedFailureE.exit414

if.end.i407:                                      ; preds = %lor.lhs.false
  %isPersistentFailureInjection_.i408 = getelementptr inbounds %"class.facebook::velox::memory::MemoryAllocator", ptr %this1.i404, i32 0, i32 6
  %26 = load i8, ptr %isPersistentFailureInjection_.i408, align 4
  %tobool.i409 = trunc i8 %26 to i1
  br i1 %tobool.i409, label %if.end4.i412, label %if.then2.i410

if.then2.i410:                                    ; preds = %if.end.i407
  %injectedFailure_3.i411 = getelementptr inbounds %"class.facebook::velox::memory::MemoryAllocator", ptr %this1.i404, i32 0, i32 5
  store i32 0, ptr %injectedFailure_3.i411, align 8
  br label %if.end4.i412

if.end4.i412:                                     ; preds = %if.then2.i410, %if.end.i407
  store i1 true, ptr %retval.i401, align 1
  br label %_ZN8facebook5velox6memory15MemoryAllocator25testingHasInjectedFailureENS2_15InjectedFailureE.exit414

_ZN8facebook5velox6memory15MemoryAllocator25testingHasInjectedFailureENS2_15InjectedFailureE.exit414: ; preds = %if.end4.i412, %if.then.i413
  %27 = load i1, ptr %retval.i401, align 1
  br i1 %27, label %if.then15, label %if.end66

if.then15:                                        ; preds = %_ZN8facebook5velox6memory15MemoryAllocator25testingHasInjectedFailureENS2_15InjectedFailureE.exit414, %if.end10
  store ptr %agg.tmp, ptr %this.addr.i423, align 8
  store ptr @.str, ptr %s.addr.i, align 8
  %this1.i424 = load ptr, ptr %this.addr.i423, align 8
  %28 = load ptr, ptr %s.addr.i, align 8
  store ptr %this1.i424, ptr %this.addr.i542, align 8
  store ptr %28, ptr %s.addr.i543, align 8
  %this1.i544 = load ptr, ptr %this.addr.i542, align 8
  %29 = load ptr, ptr %s.addr.i543, align 8
  store ptr %29, ptr %this1.i544, align 8
  %size_.i545 = getelementptr inbounds %"class.fmt::v8::basic_string_view", ptr %this1.i544, i32 0, i32 1
  %30 = load ptr, ptr %s.addr.i543, align 8
  %call.i546 = call noundef i64 @_ZNSt11char_traitsIcE6lengthEPKc(ptr noundef %30)
  store i64 %call.i546, ptr %size_.i545, align 8
  %31 = load ptr, ptr %s.addr.i, align 8
  store ptr %31, ptr %.addr.i, align 8
  %totalPages16 = getelementptr inbounds %"struct.facebook::velox::memory::MemoryAllocator::SizeMix", ptr %mix, i32 0, i32 3
  %capacity_17 = getelementptr inbounds %"class.facebook::velox::memory::MmapAllocator", ptr %this1, i32 0, i32 7
  %32 = getelementptr inbounds { ptr, i64 }, ptr %agg.tmp, i32 0, i32 0
  %33 = load ptr, ptr %32, align 8
  %34 = getelementptr inbounds { ptr, i64 }, ptr %agg.tmp, i32 0, i32 1
  %35 = load i64, ptr %34, align 8
  call void @llvm.experimental.noalias.scope.decl(metadata !4)
  store ptr %errorMsg, ptr %result.ptr.i415, align 8, !noalias !4
  store ptr %33, ptr %fmt.i416, align 8, !noalias !4
  %36 = getelementptr inbounds { ptr, i64 }, ptr %fmt.i416, i32 0, i32 1
  store i64 %35, ptr %36, align 8, !noalias !4
  store ptr %totalPages16, ptr %args.addr.i417, align 8, !noalias !4
  store ptr %capacity_17, ptr %args.addr2.i418, align 8, !noalias !4
  store ptr %fmt.i416, ptr %this.addr.i508, align 8
  %this1.i509 = load ptr, ptr %this.addr.i508, align 8
  call void @llvm.memcpy.p0.p0.i64(ptr align 8 %retval.i507, ptr align 8 %this1.i509, i64 16, i1 false)
  %37 = load { ptr, i64 }, ptr %retval.i507, align 8
  %38 = extractvalue { ptr, i64 } %37, 0
  store ptr %38, ptr %agg.tmp.i419, align 8, !noalias !4
  %39 = getelementptr inbounds { ptr, i64 }, ptr %agg.tmp.i419, i32 0, i32 1
  %40 = extractvalue { ptr, i64 } %37, 1
  store i64 %40, ptr %39, align 8, !noalias !4
  %41 = load ptr, ptr %args.addr.i417, align 8, !noalias !4
  %42 = load ptr, ptr %args.addr2.i418, align 8, !noalias !4
  call void @_ZN3fmt2v816make_format_argsINS0_20basic_format_contextINS0_8appenderEcEEJRKiRKmEEENS0_16format_arg_storeIT_JDpNSt9remove_cvINSt16remove_referenceIT0_E4typeEE4typeEEEEDpOSD_(ptr sret(%"class.fmt::v8::format_arg_store") align 16 %ref.tmp.i421, ptr noundef nonnull align 4 dereferenceable(4) %41, ptr noundef nonnull align 8 dereferenceable(8) %42)
  store ptr %agg.tmp3.i420, ptr %this.addr.i513, align 8
  store ptr %ref.tmp.i421, ptr %store.addr.i, align 8
  %this1.i514 = load ptr, ptr %this.addr.i513, align 8
  %43 = load ptr, ptr %store.addr.i, align 8
  store ptr %43, ptr %this.addr.i521, align 8
  %this1.i522 = load ptr, ptr %this.addr.i521, align 8
  store ptr %this1.i514, ptr %this.addr.i525, align 8
  store i64 65, ptr %desc.addr.i526, align 8
  store ptr %this1.i522, ptr %values.addr.i527, align 8
  %this1.i528 = load ptr, ptr %this.addr.i525, align 8
  %44 = load i64, ptr %desc.addr.i526, align 8
  store i64 %44, ptr %this1.i528, align 8
  %45 = getelementptr inbounds %"class.fmt::v8::basic_format_args", ptr %this1.i528, i32 0, i32 1
  %46 = load ptr, ptr %values.addr.i527, align 8
  store ptr %46, ptr %45, align 8
  %47 = load ptr, ptr %agg.tmp.i419, align 8, !noalias !4
  %48 = getelementptr inbounds { ptr, i64 }, ptr %agg.tmp.i419, i32 0, i32 1
  %49 = load i64, ptr %48, align 8, !noalias !4
  %50 = load i64, ptr %agg.tmp3.i420, align 8, !noalias !4
  %51 = getelementptr inbounds { i64, ptr }, ptr %agg.tmp3.i420, i32 0, i32 1
  %52 = load ptr, ptr %51, align 8, !noalias !4
  call void @_ZN3fmt2v87vformatB5cxx11ENS0_17basic_string_viewIcEENS0_17basic_format_argsINS0_20basic_format_contextINS0_8appenderEcEEEE(ptr sret(%"class.std::__cxx11::basic_string") align 8 %errorMsg, ptr %47, i64 %49, i64 %50, ptr %52)
  store i32 1, ptr %FB_LEM_once, align 4
  store i32 1000, ptr %FB_LEM_interval, align 4
  br label %for.cond

for.cond:                                         ; preds = %for.end54, %if.then15
  %53 = load i32, ptr %FB_LEM_once, align 4
  %tobool = icmp ne i32 %53, 0
  br i1 %tobool, label %for.body, label %for.end55

for.body:                                         ; preds = %for.cond
  %54 = load i32, ptr %FB_LEM_interval, align 4
  %cmp18 = icmp sle i32 %54, 0
  br i1 %cmp18, label %cond.true, label %cond.false

cond.true:                                        ; preds = %for.body
  br label %cond.end

cond.false:                                       ; preds = %for.body
  %call21 = call i64 @_ZNSt6chrono3_V212system_clock3nowEv() #21
  %coerce.dive = getelementptr inbounds %"class.std::chrono::time_point", ptr %ref.tmp20, i32 0, i32 0
  %coerce.dive22 = getelementptr inbounds %"class.std::chrono::duration.26", ptr %coerce.dive, i32 0, i32 0
  store i64 %call21, ptr %coerce.dive22, align 8
  %call23 = invoke i64 @_ZNKSt6chrono10time_pointINS_3_V212system_clockENS_8durationIlSt5ratioILl1ELl1000000000EEEEE16time_since_epochEv(ptr noundef nonnull align 8 dereferenceable(8) %ref.tmp20)
          to label %invoke.cont unwind label %lpad

invoke.cont:                                      ; preds = %cond.false
  %coerce.dive24 = getelementptr inbounds %"class.std::chrono::duration.26", ptr %ref.tmp19, i32 0, i32 0
  store i64 %call23, ptr %coerce.dive24, align 8
  %call26 = invoke i64 @_ZNSt6chrono13duration_castINS_8durationIlSt5ratioILl1ELl1000EEEElS2_ILl1ELl1000000000EEEENSt9enable_ifIXsr13__is_durationIT_EE5valueES7_E4typeERKNS1_IT0_T1_EE(ptr noundef nonnull align 8 dereferenceable(8) %ref.tmp19)
          to label %invoke.cont25 unwind label %lpad

invoke.cont25:                                    ; preds = %invoke.cont
  %coerce.dive27 = getelementptr inbounds %"class.std::chrono::duration", ptr %ref.tmp, i32 0, i32 0
  store i64 %call26, ptr %coerce.dive27, align 8
  %call29 = invoke noundef i64 @_ZNKSt6chrono8durationIlSt5ratioILl1ELl1000EEE5countEv(ptr noundef nonnull align 8 dereferenceable(8) %ref.tmp)
          to label %invoke.cont28 unwind label %lpad

invoke.cont28:                                    ; preds = %invoke.cont25
  br label %cond.end

cond.end:                                         ; preds = %invoke.cont28, %cond.true
  %cond = phi i64 [ 0, %cond.true ], [ %call29, %invoke.cont28 ]
  store i64 %cond, ptr %FB_LEM_now, align 8
  br label %for.cond30

for.cond30:                                       ; preds = %for.end, %cond.end
  %55 = load i32, ptr %FB_LEM_once, align 4
  %tobool31 = icmp ne i32 %55, 0
  br i1 %tobool31, label %for.body32, label %for.end54

for.body32:                                       ; preds = %for.cond30
  br label %for.cond33

for.cond33:                                       ; preds = %for.inc, %for.body32
  %56 = load i32, ptr %FB_LEM_once, align 4
  %tobool34 = icmp ne i32 %56, 0
  br i1 %tobool34, label %for.body35, label %for.end

for.body35:                                       ; preds = %for.cond33
  %57 = load i32, ptr %FB_LEM_interval, align 4
  %cmp36 = icmp sgt i32 %57, 0
  br i1 %cmp36, label %land.lhs.true37, label %if.else

land.lhs.true37:                                  ; preds = %for.body35
  %58 = load i64, ptr %FB_LEM_now, align 8
  store ptr @_ZZN8facebook5velox6memory13MmapAllocator33allocateNonContiguousWithoutRetryEmRNS1_10AllocationESt8functionIFvlbEEmE11FB_LEM_hist, ptr %this.addr.i443, align 8
  store i32 2, ptr %__m.addr.i444, align 4
  %this1.i447 = load ptr, ptr %this.addr.i443, align 8
  %59 = load i32, ptr %__m.addr.i444, align 4
  %call.i448 = call noundef i32 @_ZStanSt12memory_orderSt23__memory_order_modifier(i32 noundef %59, i32 noundef 65535)
  store i32 %call.i448, ptr %__b.i445, align 4
  %60 = load i32, ptr %__m.addr.i444, align 4
  switch i32 %60, label %monotonic.i451 [
    i32 1, label %acquire.i450
    i32 2, label %acquire.i450
    i32 5, label %seqcst.i449
  ]

monotonic.i451:                                   ; preds = %land.lhs.true37
  %61 = load atomic i64, ptr %this1.i447 monotonic, align 8
  store i64 %61, ptr %atomic-temp.i446, align 8
  br label %_ZNKSt13__atomic_baseIlE4loadESt12memory_order.exit452

acquire.i450:                                     ; preds = %land.lhs.true37, %land.lhs.true37
  %62 = load atomic i64, ptr %this1.i447 acquire, align 8
  store i64 %62, ptr %atomic-temp.i446, align 8
  br label %_ZNKSt13__atomic_baseIlE4loadESt12memory_order.exit452

seqcst.i449:                                      ; preds = %land.lhs.true37
  %63 = load atomic i64, ptr %this1.i447 seq_cst, align 8
  store i64 %63, ptr %atomic-temp.i446, align 8
  br label %_ZNKSt13__atomic_baseIlE4loadESt12memory_order.exit452

_ZNKSt13__atomic_baseIlE4loadESt12memory_order.exit452: ; preds = %seqcst.i449, %acquire.i450, %monotonic.i451
  %64 = load i64, ptr %atomic-temp.i446, align 8
  store i64 %64, ptr %FB_LEM_prev, align 8
  %sub = sub nsw i64 %58, %64
  %65 = load i32, ptr %FB_LEM_interval, align 4
  %conv39 = sext i32 %65 to i64
  %cmp40 = icmp slt i64 %sub, %conv39
  br i1 %cmp40, label %if.then43, label %lor.lhs.false41

lor.lhs.false41:                                  ; preds = %_ZNKSt13__atomic_baseIlE4loadESt12memory_order.exit452
  %66 = load i64, ptr %FB_LEM_now, align 8
  store ptr @_ZZN8facebook5velox6memory13MmapAllocator33allocateNonContiguousWithoutRetryEmRNS1_10AllocationESt8functionIFvlbEEmE11FB_LEM_hist, ptr %this.addr.i464, align 8
  store ptr %FB_LEM_prev, ptr %__i1.addr.i465, align 8
  store i64 %66, ptr %__i2.addr.i466, align 8
  store i32 5, ptr %__m.addr.i467, align 4
  %this1.i468 = load ptr, ptr %this.addr.i464, align 8
  %67 = load ptr, ptr %__i1.addr.i465, align 8
  %68 = load i64, ptr %__i2.addr.i466, align 8
  %69 = load i32, ptr %__m.addr.i467, align 4
  %70 = load i32, ptr %__m.addr.i467, align 4
  %call.i469 = call noundef i32 @_ZSt23__cmpexch_failure_orderSt12memory_order(i32 noundef %70) #21
  store ptr %this1.i468, ptr %this.addr.i547, align 8
  store ptr %67, ptr %__i1.addr.i548, align 8
  store i64 %68, ptr %__i2.addr.i549, align 8
  store i32 %69, ptr %__m1.addr.i, align 4
  store i32 %call.i469, ptr %__m2.addr.i, align 4
  %this1.i551 = load ptr, ptr %this.addr.i547, align 8
  %71 = load i32, ptr %__m1.addr.i, align 4
  %72 = load ptr, ptr %__i1.addr.i548, align 8
  %73 = load i64, ptr %__i2.addr.i549, align 8
  store i64 %73, ptr %.atomictmp.i550, align 8
  %74 = load i32, ptr %__m2.addr.i, align 4
  switch i32 %71, label %monotonic.i557 [
    i32 1, label %acquire.i556
    i32 2, label %acquire.i556
    i32 3, label %release.i555
    i32 4, label %acqrel.i554
    i32 5, label %seqcst.i552
  ]

monotonic.i557:                                   ; preds = %lor.lhs.false41
  switch i32 %74, label %monotonic_fail.i [
    i32 1, label %acquire_fail.i
    i32 2, label %acquire_fail.i
    i32 5, label %seqcst_fail.i
  ]

acquire.i556:                                     ; preds = %lor.lhs.false41, %lor.lhs.false41
  switch i32 %74, label %monotonic_fail9.i [
    i32 1, label %acquire_fail10.i
    i32 2, label %acquire_fail10.i
    i32 5, label %seqcst_fail11.i
  ]

release.i555:                                     ; preds = %lor.lhs.false41
  switch i32 %74, label %monotonic_fail22.i [
    i32 1, label %acquire_fail23.i
    i32 2, label %acquire_fail23.i
    i32 5, label %seqcst_fail24.i
  ]

acqrel.i554:                                      ; preds = %lor.lhs.false41
  switch i32 %74, label %monotonic_fail35.i [
    i32 1, label %acquire_fail36.i
    i32 2, label %acquire_fail36.i
    i32 5, label %seqcst_fail37.i
  ]

seqcst.i552:                                      ; preds = %lor.lhs.false41
  switch i32 %74, label %monotonic_fail48.i [
    i32 1, label %acquire_fail49.i
    i32 2, label %acquire_fail49.i
    i32 5, label %seqcst_fail50.i
  ]

monotonic_fail.i:                                 ; preds = %monotonic.i557
  %75 = load i64, ptr %72, align 8
  %76 = load i64, ptr %.atomictmp.i550, align 8
  %77 = cmpxchg ptr %this1.i551, i64 %75, i64 %76 monotonic monotonic, align 8
  %78 = extractvalue { i64, i1 } %77, 0
  %79 = extractvalue { i64, i1 } %77, 1
  br i1 %79, label %cmpxchg.continue.i, label %cmpxchg.store_expected.i

acquire_fail.i:                                   ; preds = %monotonic.i557, %monotonic.i557
  %80 = load i64, ptr %72, align 8
  %81 = load i64, ptr %.atomictmp.i550, align 8
  %82 = cmpxchg ptr %this1.i551, i64 %80, i64 %81 monotonic acquire, align 8
  %83 = extractvalue { i64, i1 } %82, 0
  %84 = extractvalue { i64, i1 } %82, 1
  br i1 %84, label %cmpxchg.continue4.i, label %cmpxchg.store_expected3.i

seqcst_fail.i:                                    ; preds = %monotonic.i557
  %85 = load i64, ptr %72, align 8
  %86 = load i64, ptr %.atomictmp.i550, align 8
  %87 = cmpxchg ptr %this1.i551, i64 %85, i64 %86 monotonic seq_cst, align 8
  %88 = extractvalue { i64, i1 } %87, 0
  %89 = extractvalue { i64, i1 } %87, 1
  br i1 %89, label %cmpxchg.continue7.i, label %cmpxchg.store_expected6.i

atomic.continue2.i:                               ; preds = %cmpxchg.continue7.i, %cmpxchg.continue4.i, %cmpxchg.continue.i
  br label %_ZNSt13__atomic_baseIlE23compare_exchange_strongERllSt12memory_orderS2_.exit

cmpxchg.store_expected.i:                         ; preds = %monotonic_fail.i
  store i64 %78, ptr %72, align 8
  br label %cmpxchg.continue.i

cmpxchg.continue.i:                               ; preds = %cmpxchg.store_expected.i, %monotonic_fail.i
  %frombool.i = zext i1 %79 to i8
  store i8 %frombool.i, ptr %cmpxchg.bool.i, align 1
  br label %atomic.continue2.i

cmpxchg.store_expected3.i:                        ; preds = %acquire_fail.i
  store i64 %83, ptr %72, align 8
  br label %cmpxchg.continue4.i

cmpxchg.continue4.i:                              ; preds = %cmpxchg.store_expected3.i, %acquire_fail.i
  %frombool5.i = zext i1 %84 to i8
  store i8 %frombool5.i, ptr %cmpxchg.bool.i, align 1
  br label %atomic.continue2.i

cmpxchg.store_expected6.i:                        ; preds = %seqcst_fail.i
  store i64 %88, ptr %72, align 8
  br label %cmpxchg.continue7.i

cmpxchg.continue7.i:                              ; preds = %cmpxchg.store_expected6.i, %seqcst_fail.i
  %frombool8.i = zext i1 %89 to i8
  store i8 %frombool8.i, ptr %cmpxchg.bool.i, align 1
  br label %atomic.continue2.i

monotonic_fail9.i:                                ; preds = %acquire.i556
  %90 = load i64, ptr %72, align 8
  %91 = load i64, ptr %.atomictmp.i550, align 8
  %92 = cmpxchg ptr %this1.i551, i64 %90, i64 %91 acquire monotonic, align 8
  %93 = extractvalue { i64, i1 } %92, 0
  %94 = extractvalue { i64, i1 } %92, 1
  br i1 %94, label %cmpxchg.continue14.i, label %cmpxchg.store_expected13.i

acquire_fail10.i:                                 ; preds = %acquire.i556, %acquire.i556
  %95 = load i64, ptr %72, align 8
  %96 = load i64, ptr %.atomictmp.i550, align 8
  %97 = cmpxchg ptr %this1.i551, i64 %95, i64 %96 acquire acquire, align 8
  %98 = extractvalue { i64, i1 } %97, 0
  %99 = extractvalue { i64, i1 } %97, 1
  br i1 %99, label %cmpxchg.continue17.i, label %cmpxchg.store_expected16.i

seqcst_fail11.i:                                  ; preds = %acquire.i556
  %100 = load i64, ptr %72, align 8
  %101 = load i64, ptr %.atomictmp.i550, align 8
  %102 = cmpxchg ptr %this1.i551, i64 %100, i64 %101 acquire seq_cst, align 8
  %103 = extractvalue { i64, i1 } %102, 0
  %104 = extractvalue { i64, i1 } %102, 1
  br i1 %104, label %cmpxchg.continue20.i, label %cmpxchg.store_expected19.i

atomic.continue12.i:                              ; preds = %cmpxchg.continue20.i, %cmpxchg.continue17.i, %cmpxchg.continue14.i
  br label %_ZNSt13__atomic_baseIlE23compare_exchange_strongERllSt12memory_orderS2_.exit

cmpxchg.store_expected13.i:                       ; preds = %monotonic_fail9.i
  store i64 %93, ptr %72, align 8
  br label %cmpxchg.continue14.i

cmpxchg.continue14.i:                             ; preds = %cmpxchg.store_expected13.i, %monotonic_fail9.i
  %frombool15.i = zext i1 %94 to i8
  store i8 %frombool15.i, ptr %cmpxchg.bool.i, align 1
  br label %atomic.continue12.i

cmpxchg.store_expected16.i:                       ; preds = %acquire_fail10.i
  store i64 %98, ptr %72, align 8
  br label %cmpxchg.continue17.i

cmpxchg.continue17.i:                             ; preds = %cmpxchg.store_expected16.i, %acquire_fail10.i
  %frombool18.i = zext i1 %99 to i8
  store i8 %frombool18.i, ptr %cmpxchg.bool.i, align 1
  br label %atomic.continue12.i

cmpxchg.store_expected19.i:                       ; preds = %seqcst_fail11.i
  store i64 %103, ptr %72, align 8
  br label %cmpxchg.continue20.i

cmpxchg.continue20.i:                             ; preds = %cmpxchg.store_expected19.i, %seqcst_fail11.i
  %frombool21.i = zext i1 %104 to i8
  store i8 %frombool21.i, ptr %cmpxchg.bool.i, align 1
  br label %atomic.continue12.i

monotonic_fail22.i:                               ; preds = %release.i555
  %105 = load i64, ptr %72, align 8
  %106 = load i64, ptr %.atomictmp.i550, align 8
  %107 = cmpxchg ptr %this1.i551, i64 %105, i64 %106 release monotonic, align 8
  %108 = extractvalue { i64, i1 } %107, 0
  %109 = extractvalue { i64, i1 } %107, 1
  br i1 %109, label %cmpxchg.continue27.i, label %cmpxchg.store_expected26.i

acquire_fail23.i:                                 ; preds = %release.i555, %release.i555
  %110 = load i64, ptr %72, align 8
  %111 = load i64, ptr %.atomictmp.i550, align 8
  %112 = cmpxchg ptr %this1.i551, i64 %110, i64 %111 release acquire, align 8
  %113 = extractvalue { i64, i1 } %112, 0
  %114 = extractvalue { i64, i1 } %112, 1
  br i1 %114, label %cmpxchg.continue30.i, label %cmpxchg.store_expected29.i

seqcst_fail24.i:                                  ; preds = %release.i555
  %115 = load i64, ptr %72, align 8
  %116 = load i64, ptr %.atomictmp.i550, align 8
  %117 = cmpxchg ptr %this1.i551, i64 %115, i64 %116 release seq_cst, align 8
  %118 = extractvalue { i64, i1 } %117, 0
  %119 = extractvalue { i64, i1 } %117, 1
  br i1 %119, label %cmpxchg.continue33.i, label %cmpxchg.store_expected32.i

atomic.continue25.i:                              ; preds = %cmpxchg.continue33.i, %cmpxchg.continue30.i, %cmpxchg.continue27.i
  br label %_ZNSt13__atomic_baseIlE23compare_exchange_strongERllSt12memory_orderS2_.exit

cmpxchg.store_expected26.i:                       ; preds = %monotonic_fail22.i
  store i64 %108, ptr %72, align 8
  br label %cmpxchg.continue27.i

cmpxchg.continue27.i:                             ; preds = %cmpxchg.store_expected26.i, %monotonic_fail22.i
  %frombool28.i = zext i1 %109 to i8
  store i8 %frombool28.i, ptr %cmpxchg.bool.i, align 1
  br label %atomic.continue25.i

cmpxchg.store_expected29.i:                       ; preds = %acquire_fail23.i
  store i64 %113, ptr %72, align 8
  br label %cmpxchg.continue30.i

cmpxchg.continue30.i:                             ; preds = %cmpxchg.store_expected29.i, %acquire_fail23.i
  %frombool31.i = zext i1 %114 to i8
  store i8 %frombool31.i, ptr %cmpxchg.bool.i, align 1
  br label %atomic.continue25.i

cmpxchg.store_expected32.i:                       ; preds = %seqcst_fail24.i
  store i64 %118, ptr %72, align 8
  br label %cmpxchg.continue33.i

cmpxchg.continue33.i:                             ; preds = %cmpxchg.store_expected32.i, %seqcst_fail24.i
  %frombool34.i = zext i1 %119 to i8
  store i8 %frombool34.i, ptr %cmpxchg.bool.i, align 1
  br label %atomic.continue25.i

monotonic_fail35.i:                               ; preds = %acqrel.i554
  %120 = load i64, ptr %72, align 8
  %121 = load i64, ptr %.atomictmp.i550, align 8
  %122 = cmpxchg ptr %this1.i551, i64 %120, i64 %121 acq_rel monotonic, align 8
  %123 = extractvalue { i64, i1 } %122, 0
  %124 = extractvalue { i64, i1 } %122, 1
  br i1 %124, label %cmpxchg.continue40.i, label %cmpxchg.store_expected39.i

acquire_fail36.i:                                 ; preds = %acqrel.i554, %acqrel.i554
  %125 = load i64, ptr %72, align 8
  %126 = load i64, ptr %.atomictmp.i550, align 8
  %127 = cmpxchg ptr %this1.i551, i64 %125, i64 %126 acq_rel acquire, align 8
  %128 = extractvalue { i64, i1 } %127, 0
  %129 = extractvalue { i64, i1 } %127, 1
  br i1 %129, label %cmpxchg.continue43.i, label %cmpxchg.store_expected42.i

seqcst_fail37.i:                                  ; preds = %acqrel.i554
  %130 = load i64, ptr %72, align 8
  %131 = load i64, ptr %.atomictmp.i550, align 8
  %132 = cmpxchg ptr %this1.i551, i64 %130, i64 %131 acq_rel seq_cst, align 8
  %133 = extractvalue { i64, i1 } %132, 0
  %134 = extractvalue { i64, i1 } %132, 1
  br i1 %134, label %cmpxchg.continue46.i, label %cmpxchg.store_expected45.i

atomic.continue38.i:                              ; preds = %cmpxchg.continue46.i, %cmpxchg.continue43.i, %cmpxchg.continue40.i
  br label %_ZNSt13__atomic_baseIlE23compare_exchange_strongERllSt12memory_orderS2_.exit

cmpxchg.store_expected39.i:                       ; preds = %monotonic_fail35.i
  store i64 %123, ptr %72, align 8
  br label %cmpxchg.continue40.i

cmpxchg.continue40.i:                             ; preds = %cmpxchg.store_expected39.i, %monotonic_fail35.i
  %frombool41.i = zext i1 %124 to i8
  store i8 %frombool41.i, ptr %cmpxchg.bool.i, align 1
  br label %atomic.continue38.i

cmpxchg.store_expected42.i:                       ; preds = %acquire_fail36.i
  store i64 %128, ptr %72, align 8
  br label %cmpxchg.continue43.i

cmpxchg.continue43.i:                             ; preds = %cmpxchg.store_expected42.i, %acquire_fail36.i
  %frombool44.i = zext i1 %129 to i8
  store i8 %frombool44.i, ptr %cmpxchg.bool.i, align 1
  br label %atomic.continue38.i

cmpxchg.store_expected45.i:                       ; preds = %seqcst_fail37.i
  store i64 %133, ptr %72, align 8
  br label %cmpxchg.continue46.i

cmpxchg.continue46.i:                             ; preds = %cmpxchg.store_expected45.i, %seqcst_fail37.i
  %frombool47.i = zext i1 %134 to i8
  store i8 %frombool47.i, ptr %cmpxchg.bool.i, align 1
  br label %atomic.continue38.i

monotonic_fail48.i:                               ; preds = %seqcst.i552
  %135 = load i64, ptr %72, align 8
  %136 = load i64, ptr %.atomictmp.i550, align 8
  %137 = cmpxchg ptr %this1.i551, i64 %135, i64 %136 seq_cst monotonic, align 8
  %138 = extractvalue { i64, i1 } %137, 0
  %139 = extractvalue { i64, i1 } %137, 1
  br i1 %139, label %cmpxchg.continue53.i, label %cmpxchg.store_expected52.i

acquire_fail49.i:                                 ; preds = %seqcst.i552, %seqcst.i552
  %140 = load i64, ptr %72, align 8
  %141 = load i64, ptr %.atomictmp.i550, align 8
  %142 = cmpxchg ptr %this1.i551, i64 %140, i64 %141 seq_cst acquire, align 8
  %143 = extractvalue { i64, i1 } %142, 0
  %144 = extractvalue { i64, i1 } %142, 1
  br i1 %144, label %cmpxchg.continue56.i, label %cmpxchg.store_expected55.i

seqcst_fail50.i:                                  ; preds = %seqcst.i552
  %145 = load i64, ptr %72, align 8
  %146 = load i64, ptr %.atomictmp.i550, align 8
  %147 = cmpxchg ptr %this1.i551, i64 %145, i64 %146 seq_cst seq_cst, align 8
  %148 = extractvalue { i64, i1 } %147, 0
  %149 = extractvalue { i64, i1 } %147, 1
  br i1 %149, label %cmpxchg.continue59.i, label %cmpxchg.store_expected58.i

atomic.continue51.i:                              ; preds = %cmpxchg.continue59.i, %cmpxchg.continue56.i, %cmpxchg.continue53.i
  br label %_ZNSt13__atomic_baseIlE23compare_exchange_strongERllSt12memory_orderS2_.exit

cmpxchg.store_expected52.i:                       ; preds = %monotonic_fail48.i
  store i64 %138, ptr %72, align 8
  br label %cmpxchg.continue53.i

cmpxchg.continue53.i:                             ; preds = %cmpxchg.store_expected52.i, %monotonic_fail48.i
  %frombool54.i = zext i1 %139 to i8
  store i8 %frombool54.i, ptr %cmpxchg.bool.i, align 1
  br label %atomic.continue51.i

cmpxchg.store_expected55.i:                       ; preds = %acquire_fail49.i
  store i64 %143, ptr %72, align 8
  br label %cmpxchg.continue56.i

cmpxchg.continue56.i:                             ; preds = %cmpxchg.store_expected55.i, %acquire_fail49.i
  %frombool57.i = zext i1 %144 to i8
  store i8 %frombool57.i, ptr %cmpxchg.bool.i, align 1
  br label %atomic.continue51.i

cmpxchg.store_expected58.i:                       ; preds = %seqcst_fail50.i
  store i64 %148, ptr %72, align 8
  br label %cmpxchg.continue59.i

cmpxchg.continue59.i:                             ; preds = %cmpxchg.store_expected58.i, %seqcst_fail50.i
  %frombool60.i = zext i1 %149 to i8
  store i8 %frombool60.i, ptr %cmpxchg.bool.i, align 1
  br label %atomic.continue51.i

_ZNSt13__atomic_baseIlE23compare_exchange_strongERllSt12memory_orderS2_.exit: ; preds = %atomic.continue51.i, %atomic.continue38.i, %atomic.continue25.i, %atomic.continue12.i, %atomic.continue2.i
  %150 = load i8, ptr %cmpxchg.bool.i, align 1
  %tobool.i553 = trunc i8 %150 to i1
  br i1 %tobool.i553, label %if.else, label %if.then43

if.then43:                                        ; preds = %_ZNSt13__atomic_baseIlE23compare_exchange_strongERllSt12memory_orderS2_.exit, %_ZNKSt13__atomic_baseIlE4loadESt12memory_order.exit452
  br label %if.end53

lpad:                                             ; preds = %if.then63, %for.end55, %if.else, %invoke.cont25, %invoke.cont, %cond.false
  %151 = landingpad { ptr, i32 }
          cleanup
  %152 = extractvalue { ptr, i32 } %151, 0
  store ptr %152, ptr %exn.slot, align 8
  %153 = extractvalue { ptr, i32 } %151, 1
  store i32 %153, ptr %ehselector.slot, align 4
  br label %ehcleanup

if.else:                                          ; preds = %_ZNSt13__atomic_baseIlE23compare_exchange_strongERllSt12memory_orderS2_.exit, %for.body35
  invoke void @_ZN6google10LogMessageC1EPKcii(ptr noundef nonnull align 8 dereferenceable(16) %ref.tmp44, ptr noundef @.str.1, i32 noundef 79, i32 noundef 1)
          to label %invoke.cont45 unwind label %lpad

invoke.cont45:                                    ; preds = %if.else
  %call48 = invoke noundef nonnull align 8 dereferenceable(8) ptr @_ZN6google10LogMessage6streamEv(ptr noundef nonnull align 8 dereferenceable(16) %ref.tmp44)
          to label %invoke.cont47 unwind label %lpad46

invoke.cont47:                                    ; preds = %invoke.cont45
  %call50 = invoke noundef nonnull align 8 dereferenceable(8) ptr @_ZStlsISt11char_traitsIcEERSt13basic_ostreamIcT_ES5_PKc(ptr noundef nonnull align 8 dereferenceable(8) %call48, ptr noundef @.str.2)
          to label %invoke.cont49 unwind label %lpad46

invoke.cont49:                                    ; preds = %invoke.cont47
  %call52 = invoke noundef nonnull align 8 dereferenceable(8) ptr @_ZStlsIcSt11char_traitsIcESaIcEERSt13basic_ostreamIT_T0_ES7_RKNSt7__cxx1112basic_stringIS4_S5_T1_EE(ptr noundef nonnull align 8 dereferenceable(8) %call50, ptr noundef nonnull align 8 dereferenceable(32) %errorMsg)
          to label %invoke.cont51 unwind label %lpad46

invoke.cont51:                                    ; preds = %invoke.cont49
  call void @_ZN6google10LogMessageD1Ev(ptr noundef nonnull align 8 dereferenceable(16) %ref.tmp44) #21
  br label %if.end53

lpad46:                                           ; preds = %invoke.cont49, %invoke.cont47, %invoke.cont45
  %154 = landingpad { ptr, i32 }
          cleanup
  %155 = extractvalue { ptr, i32 } %154, 0
  store ptr %155, ptr %exn.slot, align 8
  %156 = extractvalue { ptr, i32 } %154, 1
  store i32 %156, ptr %ehselector.slot, align 4
  call void @_ZN6google10LogMessageD1Ev(ptr noundef nonnull align 8 dereferenceable(16) %ref.tmp44) #21
  br label %ehcleanup

if.end53:                                         ; preds = %invoke.cont51, %if.then43
  br label %for.inc

for.inc:                                          ; preds = %if.end53
  store i32 0, ptr %FB_LEM_once, align 4
  br label %for.cond33, !llvm.loop !7

for.end:                                          ; preds = %for.cond33
  br label %for.cond30, !llvm.loop !9

for.end54:                                        ; preds = %for.cond30
  br label %for.cond, !llvm.loop !10

for.end55:                                        ; preds = %for.cond
  invoke void @_ZNSt7__cxx1112basic_stringIcSt11char_traitsIcESaIcEEC1ERKS4_(ptr noundef nonnull align 8 dereferenceable(32) %agg.tmp56, ptr noundef nonnull align 8 dereferenceable(32) %errorMsg)
          to label %invoke.cont57 unwind label %lpad

invoke.cont57:                                    ; preds = %for.end55
  invoke void @_ZN8facebook5velox6memory15MemoryAllocator26setAllocatorFailureMessageENSt7__cxx1112basic_stringIcSt11char_traitsIcESaIcEEE(ptr noundef nonnull align 8 dereferenceable(880) %this1, ptr noundef %agg.tmp56)
          to label %invoke.cont59 unwind label %lpad58

invoke.cont59:                                    ; preds = %invoke.cont57
  call void @_ZNSt7__cxx1112basic_stringIcSt11char_traitsIcESaIcEED1Ev(ptr noundef nonnull align 8 dereferenceable(32) %agg.tmp56) #21
  %157 = load i64, ptr %bytesFreed, align 8
  %cmp60 = icmp ne i64 %157, 0
  br i1 %cmp60, label %land.lhs.true61, label %if.end65

land.lhs.true61:                                  ; preds = %invoke.cont59
  %call62 = call noundef zeroext i1 @_ZStneIvJlbEEbRKSt8functionIFT_DpT0_EEDn(ptr noundef nonnull align 8 dereferenceable(32) %reservationCB, ptr null) #21
  br i1 %call62, label %if.then63, label %if.end65

if.then63:                                        ; preds = %land.lhs.true61
  %158 = load i64, ptr %bytesFreed, align 8
  invoke void @_ZNKSt8functionIFvlbEEclElb(ptr noundef nonnull align 8 dereferenceable(32) %reservationCB, i64 noundef %158, i1 noundef zeroext false)
          to label %invoke.cont64 unwind label %lpad

invoke.cont64:                                    ; preds = %if.then63
  br label %if.end65

lpad58:                                           ; preds = %invoke.cont57
  %159 = landingpad { ptr, i32 }
          cleanup
  %160 = extractvalue { ptr, i32 } %159, 0
  store ptr %160, ptr %exn.slot, align 8
  %161 = extractvalue { ptr, i32 } %159, 1
  store i32 %161, ptr %ehselector.slot, align 4
  call void @_ZNSt7__cxx1112basic_stringIcSt11char_traitsIcESaIcEED1Ev(ptr noundef nonnull align 8 dereferenceable(32) %agg.tmp56) #21
  br label %ehcleanup

if.end65:                                         ; preds = %invoke.cont64, %land.lhs.true61, %invoke.cont59
  store i1 false, ptr %retval, align 1
  call void @_ZNSt7__cxx1112basic_stringIcSt11char_traitsIcESaIcEED1Ev(ptr noundef nonnull align 8 dereferenceable(32) %errorMsg) #21
  br label %return

ehcleanup:                                        ; preds = %lpad58, %lpad46, %lpad
  call void @_ZNSt7__cxx1112basic_stringIcSt11char_traitsIcESaIcEED1Ev(ptr noundef nonnull align 8 dereferenceable(32) %errorMsg) #21
  br label %eh.resume

if.end66:                                         ; preds = %_ZN8facebook5velox6memory15MemoryAllocator25testingHasInjectedFailureENS2_15InjectedFailureE.exit414
  %numAllocated_67 = getelementptr inbounds %"class.facebook::velox::memory::MemoryAllocator", ptr %this1, i32 0, i32 3
  %totalPages68 = getelementptr inbounds %"struct.facebook::velox::memory::MemoryAllocator::SizeMix", ptr %mix, i32 0, i32 3
  %162 = load i32, ptr %totalPages68, align 4
  %conv69 = sext i32 %162 to i64
  store ptr %numAllocated_67, ptr %this.addr.i471, align 8
  store i64 %conv69, ptr %__i.addr.i472, align 8
  store i32 5, ptr %__m.addr.i473, align 4
  %this1.i476 = load ptr, ptr %this.addr.i471, align 8
  %163 = load i32, ptr %__m.addr.i473, align 4
  %164 = load i64, ptr %__i.addr.i472, align 8
  store i64 %164, ptr %.atomictmp.i474, align 8
  switch i32 %163, label %monotonic.i481 [
    i32 1, label %acquire.i480
    i32 2, label %acquire.i480
    i32 3, label %release.i479
    i32 4, label %acqrel.i478
    i32 5, label %seqcst.i477
  ]

monotonic.i481:                                   ; preds = %if.end66
  %165 = load i64, ptr %.atomictmp.i474, align 8
  %166 = atomicrmw add ptr %this1.i476, i64 %165 monotonic, align 8
  store i64 %166, ptr %atomic-temp.i475, align 8
  br label %_ZNSt13__atomic_baseImE9fetch_addEmSt12memory_order.exit

acquire.i480:                                     ; preds = %if.end66, %if.end66
  %167 = load i64, ptr %.atomictmp.i474, align 8
  %168 = atomicrmw add ptr %this1.i476, i64 %167 acquire, align 8
  store i64 %168, ptr %atomic-temp.i475, align 8
  br label %_ZNSt13__atomic_baseImE9fetch_addEmSt12memory_order.exit

release.i479:                                     ; preds = %if.end66
  %169 = load i64, ptr %.atomictmp.i474, align 8
  %170 = atomicrmw add ptr %this1.i476, i64 %169 release, align 8
  store i64 %170, ptr %atomic-temp.i475, align 8
  br label %_ZNSt13__atomic_baseImE9fetch_addEmSt12memory_order.exit

acqrel.i478:                                      ; preds = %if.end66
  %171 = load i64, ptr %.atomictmp.i474, align 8
  %172 = atomicrmw add ptr %this1.i476, i64 %171 acq_rel, align 8
  store i64 %172, ptr %atomic-temp.i475, align 8
  br label %_ZNSt13__atomic_baseImE9fetch_addEmSt12memory_order.exit

seqcst.i477:                                      ; preds = %if.end66
  %173 = load i64, ptr %.atomictmp.i474, align 8
  %174 = atomicrmw add ptr %this1.i476, i64 %173 seq_cst, align 8
  store i64 %174, ptr %atomic-temp.i475, align 8
  br label %_ZNSt13__atomic_baseImE9fetch_addEmSt12memory_order.exit

_ZNSt13__atomic_baseImE9fetch_addEmSt12memory_order.exit: ; preds = %seqcst.i477, %acqrel.i478, %release.i479, %acquire.i480, %monotonic.i481
  %175 = load i64, ptr %atomic-temp.i475, align 8
  %totalPages71 = getelementptr inbounds %"struct.facebook::velox::memory::MemoryAllocator::SizeMix", ptr %mix, i32 0, i32 3
  %176 = load i32, ptr %totalPages71, align 4
  %conv72 = sext i32 %176 to i64
  %add73 = add i64 %175, %conv72
  %capacity_74 = getelementptr inbounds %"class.facebook::velox::memory::MmapAllocator", ptr %this1, i32 0, i32 7
  %177 = load i64, ptr %capacity_74, align 8
  %cmp75 = icmp ugt i64 %add73, %177
  br i1 %cmp75, label %if.then76, label %if.end155

if.then76:                                        ; preds = %_ZNSt13__atomic_baseImE9fetch_addEmSt12memory_order.exit
  store ptr %agg.tmp78, ptr %this.addr.i482, align 8
  store ptr @.str.3, ptr %s.addr.i483, align 8
  %this1.i484 = load ptr, ptr %this.addr.i482, align 8
  %178 = load ptr, ptr %s.addr.i483, align 8
  store ptr %this1.i484, ptr %this.addr.i537, align 8
  store ptr %178, ptr %s.addr.i538, align 8
  %this1.i539 = load ptr, ptr %this.addr.i537, align 8
  %179 = load ptr, ptr %s.addr.i538, align 8
  store ptr %179, ptr %this1.i539, align 8
  %size_.i540 = getelementptr inbounds %"class.fmt::v8::basic_string_view", ptr %this1.i539, i32 0, i32 1
  %180 = load ptr, ptr %s.addr.i538, align 8
  %call.i541 = call noundef i64 @_ZNSt11char_traitsIcE6lengthEPKc(ptr noundef %180)
  store i64 %call.i541, ptr %size_.i540, align 8
  %181 = load ptr, ptr %s.addr.i483, align 8
  store ptr %181, ptr %.addr.i718, align 8
  %totalPages79 = getelementptr inbounds %"struct.facebook::velox::memory::MemoryAllocator::SizeMix", ptr %mix, i32 0, i32 3
  %capacity_80 = getelementptr inbounds %"class.facebook::velox::memory::MmapAllocator", ptr %this1, i32 0, i32 7
  %182 = getelementptr inbounds { ptr, i64 }, ptr %agg.tmp78, i32 0, i32 0
  %183 = load ptr, ptr %182, align 8
  %184 = getelementptr inbounds { ptr, i64 }, ptr %agg.tmp78, i32 0, i32 1
  %185 = load i64, ptr %184, align 8
  call void @llvm.experimental.noalias.scope.decl(metadata !11)
  store ptr %errorMsg77, ptr %result.ptr.i, align 8, !noalias !11
  store ptr %183, ptr %fmt.i, align 8, !noalias !11
  %186 = getelementptr inbounds { ptr, i64 }, ptr %fmt.i, i32 0, i32 1
  store i64 %185, ptr %186, align 8, !noalias !11
  store ptr %totalPages79, ptr %args.addr.i, align 8, !noalias !11
  store ptr %capacity_80, ptr %args.addr2.i, align 8, !noalias !11
  store ptr %fmt.i, ptr %this.addr.i511, align 8
  %this1.i512 = load ptr, ptr %this.addr.i511, align 8
  call void @llvm.memcpy.p0.p0.i64(ptr align 8 %retval.i510, ptr align 8 %this1.i512, i64 16, i1 false)
  %187 = load { ptr, i64 }, ptr %retval.i510, align 8
  %188 = extractvalue { ptr, i64 } %187, 0
  store ptr %188, ptr %agg.tmp.i, align 8, !noalias !11
  %189 = getelementptr inbounds { ptr, i64 }, ptr %agg.tmp.i, i32 0, i32 1
  %190 = extractvalue { ptr, i64 } %187, 1
  store i64 %190, ptr %189, align 8, !noalias !11
  %191 = load ptr, ptr %args.addr.i, align 8, !noalias !11
  %192 = load ptr, ptr %args.addr2.i, align 8, !noalias !11
  call void @_ZN3fmt2v816make_format_argsINS0_20basic_format_contextINS0_8appenderEcEEJRKiRKmEEENS0_16format_arg_storeIT_JDpNSt9remove_cvINSt16remove_referenceIT0_E4typeEE4typeEEEEDpOSD_(ptr sret(%"class.fmt::v8::format_arg_store") align 16 %ref.tmp.i, ptr noundef nonnull align 4 dereferenceable(4) %191, ptr noundef nonnull align 8 dereferenceable(8) %192)
  store ptr %agg.tmp3.i, ptr %this.addr.i515, align 8
  store ptr %ref.tmp.i, ptr %store.addr.i516, align 8
  %this1.i517 = load ptr, ptr %this.addr.i515, align 8
  %193 = load ptr, ptr %store.addr.i516, align 8
  store ptr %193, ptr %this.addr.i519, align 8
  %this1.i520 = load ptr, ptr %this.addr.i519, align 8
  store ptr %this1.i517, ptr %this.addr.i523, align 8
  store i64 65, ptr %desc.addr.i, align 8
  store ptr %this1.i520, ptr %values.addr.i, align 8
  %this1.i524 = load ptr, ptr %this.addr.i523, align 8
  %194 = load i64, ptr %desc.addr.i, align 8
  store i64 %194, ptr %this1.i524, align 8
  %195 = getelementptr inbounds %"class.fmt::v8::basic_format_args", ptr %this1.i524, i32 0, i32 1
  %196 = load ptr, ptr %values.addr.i, align 8
  store ptr %196, ptr %195, align 8
  %197 = load ptr, ptr %agg.tmp.i, align 8, !noalias !11
  %198 = getelementptr inbounds { ptr, i64 }, ptr %agg.tmp.i, i32 0, i32 1
  %199 = load i64, ptr %198, align 8, !noalias !11
  %200 = load i64, ptr %agg.tmp3.i, align 8, !noalias !11
  %201 = getelementptr inbounds { i64, ptr }, ptr %agg.tmp3.i, i32 0, i32 1
  %202 = load ptr, ptr %201, align 8, !noalias !11
  call void @_ZN3fmt2v87vformatB5cxx11ENS0_17basic_string_viewIcEENS0_17basic_format_argsINS0_20basic_format_contextINS0_8appenderEcEEEE(ptr sret(%"class.std::__cxx11::basic_string") align 8 %errorMsg77, ptr %197, i64 %199, i64 %200, ptr %202)
  store i32 1, ptr %FB_LEM_once81, align 4
  store i32 1000, ptr %FB_LEM_interval82, align 4
  br label %for.cond83

for.cond83:                                       ; preds = %for.end137, %if.then76
  %203 = load i32, ptr %FB_LEM_once81, align 4
  %tobool84 = icmp ne i32 %203, 0
  br i1 %tobool84, label %for.body85, label %for.end138

for.body85:                                       ; preds = %for.cond83
  %204 = load i32, ptr %FB_LEM_interval82, align 4
  %cmp88 = icmp sle i32 %204, 0
  br i1 %cmp88, label %cond.true89, label %cond.false90

cond.true89:                                      ; preds = %for.body85
  br label %cond.end106

cond.false90:                                     ; preds = %for.body85
  %call94 = call i64 @_ZNSt6chrono3_V212system_clock3nowEv() #21
  %coerce.dive95 = getelementptr inbounds %"class.std::chrono::time_point", ptr %ref.tmp93, i32 0, i32 0
  %coerce.dive96 = getelementptr inbounds %"class.std::chrono::duration.26", ptr %coerce.dive95, i32 0, i32 0
  store i64 %call94, ptr %coerce.dive96, align 8
  %call99 = invoke i64 @_ZNKSt6chrono10time_pointINS_3_V212system_clockENS_8durationIlSt5ratioILl1ELl1000000000EEEEE16time_since_epochEv(ptr noundef nonnull align 8 dereferenceable(8) %ref.tmp93)
          to label %invoke.cont98 unwind label %lpad97

invoke.cont98:                                    ; preds = %cond.false90
  %coerce.dive100 = getelementptr inbounds %"class.std::chrono::duration.26", ptr %ref.tmp92, i32 0, i32 0
  store i64 %call99, ptr %coerce.dive100, align 8
  %call102 = invoke i64 @_ZNSt6chrono13duration_castINS_8durationIlSt5ratioILl1ELl1000EEEElS2_ILl1ELl1000000000EEEENSt9enable_ifIXsr13__is_durationIT_EE5valueES7_E4typeERKNS1_IT0_T1_EE(ptr noundef nonnull align 8 dereferenceable(8) %ref.tmp92)
          to label %invoke.cont101 unwind label %lpad97

invoke.cont101:                                   ; preds = %invoke.cont98
  %coerce.dive103 = getelementptr inbounds %"class.std::chrono::duration", ptr %ref.tmp91, i32 0, i32 0
  store i64 %call102, ptr %coerce.dive103, align 8
  %call105 = invoke noundef i64 @_ZNKSt6chrono8durationIlSt5ratioILl1ELl1000EEE5countEv(ptr noundef nonnull align 8 dereferenceable(8) %ref.tmp91)
          to label %invoke.cont104 unwind label %lpad97

invoke.cont104:                                   ; preds = %invoke.cont101
  br label %cond.end106

cond.end106:                                      ; preds = %invoke.cont104, %cond.true89
  %cond107 = phi i64 [ 0, %cond.true89 ], [ %call105, %invoke.cont104 ]
  store i64 %cond107, ptr %FB_LEM_now87, align 8
  br label %for.cond108

for.cond108:                                      ; preds = %for.end136, %cond.end106
  %205 = load i32, ptr %FB_LEM_once81, align 4
  %tobool109 = icmp ne i32 %205, 0
  br i1 %tobool109, label %for.body110, label %for.end137

for.body110:                                      ; preds = %for.cond108
  br label %for.cond111

for.cond111:                                      ; preds = %for.inc135, %for.body110
  %206 = load i32, ptr %FB_LEM_once81, align 4
  %tobool112 = icmp ne i32 %206, 0
  br i1 %tobool112, label %for.body113, label %for.end136

for.body113:                                      ; preds = %for.cond111
  %207 = load i32, ptr %FB_LEM_interval82, align 4
  %cmp114 = icmp sgt i32 %207, 0
  br i1 %cmp114, label %land.lhs.true115, label %if.else123

land.lhs.true115:                                 ; preds = %for.body113
  %208 = load i64, ptr %FB_LEM_now87, align 8
  store ptr @_ZZN8facebook5velox6memory13MmapAllocator33allocateNonContiguousWithoutRetryEmRNS1_10AllocationESt8functionIFvlbEEmE11FB_LEM_hist_0, ptr %this.addr.i433, align 8
  store i32 2, ptr %__m.addr.i434, align 4
  %this1.i437 = load ptr, ptr %this.addr.i433, align 8
  %209 = load i32, ptr %__m.addr.i434, align 4
  %call.i438 = call noundef i32 @_ZStanSt12memory_orderSt23__memory_order_modifier(i32 noundef %209, i32 noundef 65535)
  store i32 %call.i438, ptr %__b.i435, align 4
  %210 = load i32, ptr %__m.addr.i434, align 4
  switch i32 %210, label %monotonic.i441 [
    i32 1, label %acquire.i440
    i32 2, label %acquire.i440
    i32 5, label %seqcst.i439
  ]

monotonic.i441:                                   ; preds = %land.lhs.true115
  %211 = load atomic i64, ptr %this1.i437 monotonic, align 8
  store i64 %211, ptr %atomic-temp.i436, align 8
  br label %_ZNKSt13__atomic_baseIlE4loadESt12memory_order.exit442

acquire.i440:                                     ; preds = %land.lhs.true115, %land.lhs.true115
  %212 = load atomic i64, ptr %this1.i437 acquire, align 8
  store i64 %212, ptr %atomic-temp.i436, align 8
  br label %_ZNKSt13__atomic_baseIlE4loadESt12memory_order.exit442

seqcst.i439:                                      ; preds = %land.lhs.true115
  %213 = load atomic i64, ptr %this1.i437 seq_cst, align 8
  store i64 %213, ptr %atomic-temp.i436, align 8
  br label %_ZNKSt13__atomic_baseIlE4loadESt12memory_order.exit442

_ZNKSt13__atomic_baseIlE4loadESt12memory_order.exit442: ; preds = %seqcst.i439, %acquire.i440, %monotonic.i441
  %214 = load i64, ptr %atomic-temp.i436, align 8
  store i64 %214, ptr %FB_LEM_prev86, align 8
  %sub117 = sub nsw i64 %208, %214
  %215 = load i32, ptr %FB_LEM_interval82, align 4
  %conv118 = sext i32 %215 to i64
  %cmp119 = icmp slt i64 %sub117, %conv118
  br i1 %cmp119, label %if.then122, label %lor.lhs.false120

lor.lhs.false120:                                 ; preds = %_ZNKSt13__atomic_baseIlE4loadESt12memory_order.exit442
  %216 = load i64, ptr %FB_LEM_now87, align 8
  store ptr @_ZZN8facebook5velox6memory13MmapAllocator33allocateNonContiguousWithoutRetryEmRNS1_10AllocationESt8functionIFvlbEEmE11FB_LEM_hist_0, ptr %this.addr.i457, align 8
  store ptr %FB_LEM_prev86, ptr %__i1.addr.i458, align 8
  store i64 %216, ptr %__i2.addr.i459, align 8
  store i32 5, ptr %__m.addr.i460, align 4
  %this1.i461 = load ptr, ptr %this.addr.i457, align 8
  %217 = load ptr, ptr %__i1.addr.i458, align 8
  %218 = load i64, ptr %__i2.addr.i459, align 8
  %219 = load i32, ptr %__m.addr.i460, align 4
  %220 = load i32, ptr %__m.addr.i460, align 4
  %call.i462 = call noundef i32 @_ZSt23__cmpexch_failure_orderSt12memory_order(i32 noundef %220) #21
  store ptr %this1.i461, ptr %this.addr.i558, align 8
  store ptr %217, ptr %__i1.addr.i559, align 8
  store i64 %218, ptr %__i2.addr.i560, align 8
  store i32 %219, ptr %__m1.addr.i561, align 4
  store i32 %call.i462, ptr %__m2.addr.i562, align 4
  %this1.i565 = load ptr, ptr %this.addr.i558, align 8
  %221 = load i32, ptr %__m1.addr.i561, align 4
  %222 = load ptr, ptr %__i1.addr.i559, align 8
  %223 = load i64, ptr %__i2.addr.i560, align 8
  store i64 %223, ptr %.atomictmp.i563, align 8
  %224 = load i32, ptr %__m2.addr.i562, align 4
  switch i32 %221, label %monotonic.i623 [
    i32 1, label %acquire.i609
    i32 2, label %acquire.i609
    i32 3, label %release.i595
    i32 4, label %acqrel.i581
    i32 5, label %seqcst.i566
  ]

monotonic.i623:                                   ; preds = %lor.lhs.false120
  switch i32 %224, label %monotonic_fail.i633 [
    i32 1, label %acquire_fail.i629
    i32 2, label %acquire_fail.i629
    i32 5, label %seqcst_fail.i624
  ]

acquire.i609:                                     ; preds = %lor.lhs.false120, %lor.lhs.false120
  switch i32 %224, label %monotonic_fail9.i619 [
    i32 1, label %acquire_fail10.i615
    i32 2, label %acquire_fail10.i615
    i32 5, label %seqcst_fail11.i610
  ]

release.i595:                                     ; preds = %lor.lhs.false120
  switch i32 %224, label %monotonic_fail22.i605 [
    i32 1, label %acquire_fail23.i601
    i32 2, label %acquire_fail23.i601
    i32 5, label %seqcst_fail24.i596
  ]

acqrel.i581:                                      ; preds = %lor.lhs.false120
  switch i32 %224, label %monotonic_fail35.i591 [
    i32 1, label %acquire_fail36.i587
    i32 2, label %acquire_fail36.i587
    i32 5, label %seqcst_fail37.i582
  ]

seqcst.i566:                                      ; preds = %lor.lhs.false120
  switch i32 %224, label %monotonic_fail48.i577 [
    i32 1, label %acquire_fail49.i573
    i32 2, label %acquire_fail49.i573
    i32 5, label %seqcst_fail50.i567
  ]

monotonic_fail.i633:                              ; preds = %monotonic.i623
  %225 = load i64, ptr %222, align 8
  %226 = load i64, ptr %.atomictmp.i563, align 8
  %227 = cmpxchg ptr %this1.i565, i64 %225, i64 %226 monotonic monotonic, align 8
  %228 = extractvalue { i64, i1 } %227, 0
  %229 = extractvalue { i64, i1 } %227, 1
  br i1 %229, label %cmpxchg.continue.i635, label %cmpxchg.store_expected.i634

acquire_fail.i629:                                ; preds = %monotonic.i623, %monotonic.i623
  %230 = load i64, ptr %222, align 8
  %231 = load i64, ptr %.atomictmp.i563, align 8
  %232 = cmpxchg ptr %this1.i565, i64 %230, i64 %231 monotonic acquire, align 8
  %233 = extractvalue { i64, i1 } %232, 0
  %234 = extractvalue { i64, i1 } %232, 1
  br i1 %234, label %cmpxchg.continue4.i631, label %cmpxchg.store_expected3.i630

seqcst_fail.i624:                                 ; preds = %monotonic.i623
  %235 = load i64, ptr %222, align 8
  %236 = load i64, ptr %.atomictmp.i563, align 8
  %237 = cmpxchg ptr %this1.i565, i64 %235, i64 %236 monotonic seq_cst, align 8
  %238 = extractvalue { i64, i1 } %237, 0
  %239 = extractvalue { i64, i1 } %237, 1
  br i1 %239, label %cmpxchg.continue7.i626, label %cmpxchg.store_expected6.i625

atomic.continue2.i628:                            ; preds = %cmpxchg.continue7.i626, %cmpxchg.continue4.i631, %cmpxchg.continue.i635
  br label %_ZNSt13__atomic_baseIlE23compare_exchange_strongERllSt12memory_orderS2_.exit637

cmpxchg.store_expected.i634:                      ; preds = %monotonic_fail.i633
  store i64 %228, ptr %222, align 8
  br label %cmpxchg.continue.i635

cmpxchg.continue.i635:                            ; preds = %cmpxchg.store_expected.i634, %monotonic_fail.i633
  %frombool.i636 = zext i1 %229 to i8
  store i8 %frombool.i636, ptr %cmpxchg.bool.i564, align 1
  br label %atomic.continue2.i628

cmpxchg.store_expected3.i630:                     ; preds = %acquire_fail.i629
  store i64 %233, ptr %222, align 8
  br label %cmpxchg.continue4.i631

cmpxchg.continue4.i631:                           ; preds = %cmpxchg.store_expected3.i630, %acquire_fail.i629
  %frombool5.i632 = zext i1 %234 to i8
  store i8 %frombool5.i632, ptr %cmpxchg.bool.i564, align 1
  br label %atomic.continue2.i628

cmpxchg.store_expected6.i625:                     ; preds = %seqcst_fail.i624
  store i64 %238, ptr %222, align 8
  br label %cmpxchg.continue7.i626

cmpxchg.continue7.i626:                           ; preds = %cmpxchg.store_expected6.i625, %seqcst_fail.i624
  %frombool8.i627 = zext i1 %239 to i8
  store i8 %frombool8.i627, ptr %cmpxchg.bool.i564, align 1
  br label %atomic.continue2.i628

monotonic_fail9.i619:                             ; preds = %acquire.i609
  %240 = load i64, ptr %222, align 8
  %241 = load i64, ptr %.atomictmp.i563, align 8
  %242 = cmpxchg ptr %this1.i565, i64 %240, i64 %241 acquire monotonic, align 8
  %243 = extractvalue { i64, i1 } %242, 0
  %244 = extractvalue { i64, i1 } %242, 1
  br i1 %244, label %cmpxchg.continue14.i621, label %cmpxchg.store_expected13.i620

acquire_fail10.i615:                              ; preds = %acquire.i609, %acquire.i609
  %245 = load i64, ptr %222, align 8
  %246 = load i64, ptr %.atomictmp.i563, align 8
  %247 = cmpxchg ptr %this1.i565, i64 %245, i64 %246 acquire acquire, align 8
  %248 = extractvalue { i64, i1 } %247, 0
  %249 = extractvalue { i64, i1 } %247, 1
  br i1 %249, label %cmpxchg.continue17.i617, label %cmpxchg.store_expected16.i616

seqcst_fail11.i610:                               ; preds = %acquire.i609
  %250 = load i64, ptr %222, align 8
  %251 = load i64, ptr %.atomictmp.i563, align 8
  %252 = cmpxchg ptr %this1.i565, i64 %250, i64 %251 acquire seq_cst, align 8
  %253 = extractvalue { i64, i1 } %252, 0
  %254 = extractvalue { i64, i1 } %252, 1
  br i1 %254, label %cmpxchg.continue20.i612, label %cmpxchg.store_expected19.i611

atomic.continue12.i614:                           ; preds = %cmpxchg.continue20.i612, %cmpxchg.continue17.i617, %cmpxchg.continue14.i621
  br label %_ZNSt13__atomic_baseIlE23compare_exchange_strongERllSt12memory_orderS2_.exit637

cmpxchg.store_expected13.i620:                    ; preds = %monotonic_fail9.i619
  store i64 %243, ptr %222, align 8
  br label %cmpxchg.continue14.i621

cmpxchg.continue14.i621:                          ; preds = %cmpxchg.store_expected13.i620, %monotonic_fail9.i619
  %frombool15.i622 = zext i1 %244 to i8
  store i8 %frombool15.i622, ptr %cmpxchg.bool.i564, align 1
  br label %atomic.continue12.i614

cmpxchg.store_expected16.i616:                    ; preds = %acquire_fail10.i615
  store i64 %248, ptr %222, align 8
  br label %cmpxchg.continue17.i617

cmpxchg.continue17.i617:                          ; preds = %cmpxchg.store_expected16.i616, %acquire_fail10.i615
  %frombool18.i618 = zext i1 %249 to i8
  store i8 %frombool18.i618, ptr %cmpxchg.bool.i564, align 1
  br label %atomic.continue12.i614

cmpxchg.store_expected19.i611:                    ; preds = %seqcst_fail11.i610
  store i64 %253, ptr %222, align 8
  br label %cmpxchg.continue20.i612

cmpxchg.continue20.i612:                          ; preds = %cmpxchg.store_expected19.i611, %seqcst_fail11.i610
  %frombool21.i613 = zext i1 %254 to i8
  store i8 %frombool21.i613, ptr %cmpxchg.bool.i564, align 1
  br label %atomic.continue12.i614

monotonic_fail22.i605:                            ; preds = %release.i595
  %255 = load i64, ptr %222, align 8
  %256 = load i64, ptr %.atomictmp.i563, align 8
  %257 = cmpxchg ptr %this1.i565, i64 %255, i64 %256 release monotonic, align 8
  %258 = extractvalue { i64, i1 } %257, 0
  %259 = extractvalue { i64, i1 } %257, 1
  br i1 %259, label %cmpxchg.continue27.i607, label %cmpxchg.store_expected26.i606

acquire_fail23.i601:                              ; preds = %release.i595, %release.i595
  %260 = load i64, ptr %222, align 8
  %261 = load i64, ptr %.atomictmp.i563, align 8
  %262 = cmpxchg ptr %this1.i565, i64 %260, i64 %261 release acquire, align 8
  %263 = extractvalue { i64, i1 } %262, 0
  %264 = extractvalue { i64, i1 } %262, 1
  br i1 %264, label %cmpxchg.continue30.i603, label %cmpxchg.store_expected29.i602

seqcst_fail24.i596:                               ; preds = %release.i595
  %265 = load i64, ptr %222, align 8
  %266 = load i64, ptr %.atomictmp.i563, align 8
  %267 = cmpxchg ptr %this1.i565, i64 %265, i64 %266 release seq_cst, align 8
  %268 = extractvalue { i64, i1 } %267, 0
  %269 = extractvalue { i64, i1 } %267, 1
  br i1 %269, label %cmpxchg.continue33.i598, label %cmpxchg.store_expected32.i597

atomic.continue25.i600:                           ; preds = %cmpxchg.continue33.i598, %cmpxchg.continue30.i603, %cmpxchg.continue27.i607
  br label %_ZNSt13__atomic_baseIlE23compare_exchange_strongERllSt12memory_orderS2_.exit637

cmpxchg.store_expected26.i606:                    ; preds = %monotonic_fail22.i605
  store i64 %258, ptr %222, align 8
  br label %cmpxchg.continue27.i607

cmpxchg.continue27.i607:                          ; preds = %cmpxchg.store_expected26.i606, %monotonic_fail22.i605
  %frombool28.i608 = zext i1 %259 to i8
  store i8 %frombool28.i608, ptr %cmpxchg.bool.i564, align 1
  br label %atomic.continue25.i600

cmpxchg.store_expected29.i602:                    ; preds = %acquire_fail23.i601
  store i64 %263, ptr %222, align 8
  br label %cmpxchg.continue30.i603

cmpxchg.continue30.i603:                          ; preds = %cmpxchg.store_expected29.i602, %acquire_fail23.i601
  %frombool31.i604 = zext i1 %264 to i8
  store i8 %frombool31.i604, ptr %cmpxchg.bool.i564, align 1
  br label %atomic.continue25.i600

cmpxchg.store_expected32.i597:                    ; preds = %seqcst_fail24.i596
  store i64 %268, ptr %222, align 8
  br label %cmpxchg.continue33.i598

cmpxchg.continue33.i598:                          ; preds = %cmpxchg.store_expected32.i597, %seqcst_fail24.i596
  %frombool34.i599 = zext i1 %269 to i8
  store i8 %frombool34.i599, ptr %cmpxchg.bool.i564, align 1
  br label %atomic.continue25.i600

monotonic_fail35.i591:                            ; preds = %acqrel.i581
  %270 = load i64, ptr %222, align 8
  %271 = load i64, ptr %.atomictmp.i563, align 8
  %272 = cmpxchg ptr %this1.i565, i64 %270, i64 %271 acq_rel monotonic, align 8
  %273 = extractvalue { i64, i1 } %272, 0
  %274 = extractvalue { i64, i1 } %272, 1
  br i1 %274, label %cmpxchg.continue40.i593, label %cmpxchg.store_expected39.i592

acquire_fail36.i587:                              ; preds = %acqrel.i581, %acqrel.i581
  %275 = load i64, ptr %222, align 8
  %276 = load i64, ptr %.atomictmp.i563, align 8
  %277 = cmpxchg ptr %this1.i565, i64 %275, i64 %276 acq_rel acquire, align 8
  %278 = extractvalue { i64, i1 } %277, 0
  %279 = extractvalue { i64, i1 } %277, 1
  br i1 %279, label %cmpxchg.continue43.i589, label %cmpxchg.store_expected42.i588

seqcst_fail37.i582:                               ; preds = %acqrel.i581
  %280 = load i64, ptr %222, align 8
  %281 = load i64, ptr %.atomictmp.i563, align 8
  %282 = cmpxchg ptr %this1.i565, i64 %280, i64 %281 acq_rel seq_cst, align 8
  %283 = extractvalue { i64, i1 } %282, 0
  %284 = extractvalue { i64, i1 } %282, 1
  br i1 %284, label %cmpxchg.continue46.i584, label %cmpxchg.store_expected45.i583

atomic.continue38.i586:                           ; preds = %cmpxchg.continue46.i584, %cmpxchg.continue43.i589, %cmpxchg.continue40.i593
  br label %_ZNSt13__atomic_baseIlE23compare_exchange_strongERllSt12memory_orderS2_.exit637

cmpxchg.store_expected39.i592:                    ; preds = %monotonic_fail35.i591
  store i64 %273, ptr %222, align 8
  br label %cmpxchg.continue40.i593

cmpxchg.continue40.i593:                          ; preds = %cmpxchg.store_expected39.i592, %monotonic_fail35.i591
  %frombool41.i594 = zext i1 %274 to i8
  store i8 %frombool41.i594, ptr %cmpxchg.bool.i564, align 1
  br label %atomic.continue38.i586

cmpxchg.store_expected42.i588:                    ; preds = %acquire_fail36.i587
  store i64 %278, ptr %222, align 8
  br label %cmpxchg.continue43.i589

cmpxchg.continue43.i589:                          ; preds = %cmpxchg.store_expected42.i588, %acquire_fail36.i587
  %frombool44.i590 = zext i1 %279 to i8
  store i8 %frombool44.i590, ptr %cmpxchg.bool.i564, align 1
  br label %atomic.continue38.i586

cmpxchg.store_expected45.i583:                    ; preds = %seqcst_fail37.i582
  store i64 %283, ptr %222, align 8
  br label %cmpxchg.continue46.i584

cmpxchg.continue46.i584:                          ; preds = %cmpxchg.store_expected45.i583, %seqcst_fail37.i582
  %frombool47.i585 = zext i1 %284 to i8
  store i8 %frombool47.i585, ptr %cmpxchg.bool.i564, align 1
  br label %atomic.continue38.i586

monotonic_fail48.i577:                            ; preds = %seqcst.i566
  %285 = load i64, ptr %222, align 8
  %286 = load i64, ptr %.atomictmp.i563, align 8
  %287 = cmpxchg ptr %this1.i565, i64 %285, i64 %286 seq_cst monotonic, align 8
  %288 = extractvalue { i64, i1 } %287, 0
  %289 = extractvalue { i64, i1 } %287, 1
  br i1 %289, label %cmpxchg.continue53.i579, label %cmpxchg.store_expected52.i578

acquire_fail49.i573:                              ; preds = %seqcst.i566, %seqcst.i566
  %290 = load i64, ptr %222, align 8
  %291 = load i64, ptr %.atomictmp.i563, align 8
  %292 = cmpxchg ptr %this1.i565, i64 %290, i64 %291 seq_cst acquire, align 8
  %293 = extractvalue { i64, i1 } %292, 0
  %294 = extractvalue { i64, i1 } %292, 1
  br i1 %294, label %cmpxchg.continue56.i575, label %cmpxchg.store_expected55.i574

seqcst_fail50.i567:                               ; preds = %seqcst.i566
  %295 = load i64, ptr %222, align 8
  %296 = load i64, ptr %.atomictmp.i563, align 8
  %297 = cmpxchg ptr %this1.i565, i64 %295, i64 %296 seq_cst seq_cst, align 8
  %298 = extractvalue { i64, i1 } %297, 0
  %299 = extractvalue { i64, i1 } %297, 1
  br i1 %299, label %cmpxchg.continue59.i569, label %cmpxchg.store_expected58.i568

atomic.continue51.i571:                           ; preds = %cmpxchg.continue59.i569, %cmpxchg.continue56.i575, %cmpxchg.continue53.i579
  br label %_ZNSt13__atomic_baseIlE23compare_exchange_strongERllSt12memory_orderS2_.exit637

cmpxchg.store_expected52.i578:                    ; preds = %monotonic_fail48.i577
  store i64 %288, ptr %222, align 8
  br label %cmpxchg.continue53.i579

cmpxchg.continue53.i579:                          ; preds = %cmpxchg.store_expected52.i578, %monotonic_fail48.i577
  %frombool54.i580 = zext i1 %289 to i8
  store i8 %frombool54.i580, ptr %cmpxchg.bool.i564, align 1
  br label %atomic.continue51.i571

cmpxchg.store_expected55.i574:                    ; preds = %acquire_fail49.i573
  store i64 %293, ptr %222, align 8
  br label %cmpxchg.continue56.i575

cmpxchg.continue56.i575:                          ; preds = %cmpxchg.store_expected55.i574, %acquire_fail49.i573
  %frombool57.i576 = zext i1 %294 to i8
  store i8 %frombool57.i576, ptr %cmpxchg.bool.i564, align 1
  br label %atomic.continue51.i571

cmpxchg.store_expected58.i568:                    ; preds = %seqcst_fail50.i567
  store i64 %298, ptr %222, align 8
  br label %cmpxchg.continue59.i569

cmpxchg.continue59.i569:                          ; preds = %cmpxchg.store_expected58.i568, %seqcst_fail50.i567
  %frombool60.i570 = zext i1 %299 to i8
  store i8 %frombool60.i570, ptr %cmpxchg.bool.i564, align 1
  br label %atomic.continue51.i571

_ZNSt13__atomic_baseIlE23compare_exchange_strongERllSt12memory_orderS2_.exit637: ; preds = %atomic.continue51.i571, %atomic.continue38.i586, %atomic.continue25.i600, %atomic.continue12.i614, %atomic.continue2.i628
  %300 = load i8, ptr %cmpxchg.bool.i564, align 1
  %tobool.i572 = trunc i8 %300 to i1
  br i1 %tobool.i572, label %if.else123, label %if.then122

if.then122:                                       ; preds = %_ZNSt13__atomic_baseIlE23compare_exchange_strongERllSt12memory_orderS2_.exit637, %_ZNKSt13__atomic_baseIlE4loadESt12memory_order.exit442
  br label %if.end134

lpad97:                                           ; preds = %if.then151, %for.end138, %if.else123, %invoke.cont101, %invoke.cont98, %cond.false90
  %301 = landingpad { ptr, i32 }
          cleanup
  %302 = extractvalue { ptr, i32 } %301, 0
  store ptr %302, ptr %exn.slot, align 8
  %303 = extractvalue { ptr, i32 } %301, 1
  store i32 %303, ptr %ehselector.slot, align 4
  br label %ehcleanup154

if.else123:                                       ; preds = %_ZNSt13__atomic_baseIlE23compare_exchange_strongERllSt12memory_orderS2_.exit637, %for.body113
  invoke void @_ZN6google10LogMessageC1EPKcii(ptr noundef nonnull align 8 dereferenceable(16) %ref.tmp124, ptr noundef @.str.1, i32 noundef 92, i32 noundef 1)
          to label %invoke.cont125 unwind label %lpad97

invoke.cont125:                                   ; preds = %if.else123
  %call128 = invoke noundef nonnull align 8 dereferenceable(8) ptr @_ZN6google10LogMessage6streamEv(ptr noundef nonnull align 8 dereferenceable(16) %ref.tmp124)
          to label %invoke.cont127 unwind label %lpad126

invoke.cont127:                                   ; preds = %invoke.cont125
  %call130 = invoke noundef nonnull align 8 dereferenceable(8) ptr @_ZStlsISt11char_traitsIcEERSt13basic_ostreamIcT_ES5_PKc(ptr noundef nonnull align 8 dereferenceable(8) %call128, ptr noundef @.str.2)
          to label %invoke.cont129 unwind label %lpad126

invoke.cont129:                                   ; preds = %invoke.cont127
  %call132 = invoke noundef nonnull align 8 dereferenceable(8) ptr @_ZStlsIcSt11char_traitsIcESaIcEERSt13basic_ostreamIT_T0_ES7_RKNSt7__cxx1112basic_stringIS4_S5_T1_EE(ptr noundef nonnull align 8 dereferenceable(8) %call130, ptr noundef nonnull align 8 dereferenceable(32) %errorMsg77)
          to label %invoke.cont131 unwind label %lpad126

invoke.cont131:                                   ; preds = %invoke.cont129
  call void @_ZN6google10LogMessageD1Ev(ptr noundef nonnull align 8 dereferenceable(16) %ref.tmp124) #21
  br label %if.end134

lpad126:                                          ; preds = %invoke.cont129, %invoke.cont127, %invoke.cont125
  %304 = landingpad { ptr, i32 }
          cleanup
  %305 = extractvalue { ptr, i32 } %304, 0
  store ptr %305, ptr %exn.slot, align 8
  %306 = extractvalue { ptr, i32 } %304, 1
  store i32 %306, ptr %ehselector.slot, align 4
  call void @_ZN6google10LogMessageD1Ev(ptr noundef nonnull align 8 dereferenceable(16) %ref.tmp124) #21
  br label %ehcleanup154

if.end134:                                        ; preds = %invoke.cont131, %if.then122
  br label %for.inc135

for.inc135:                                       ; preds = %if.end134
  store i32 0, ptr %FB_LEM_once81, align 4
  br label %for.cond111, !llvm.loop !14

for.end136:                                       ; preds = %for.cond111
  br label %for.cond108, !llvm.loop !15

for.end137:                                       ; preds = %for.cond108
  br label %for.cond83, !llvm.loop !16

for.end138:                                       ; preds = %for.cond83
  invoke void @_ZNSt7__cxx1112basic_stringIcSt11char_traitsIcESaIcEEC1ERKS4_(ptr noundef nonnull align 8 dereferenceable(32) %agg.tmp139, ptr noundef nonnull align 8 dereferenceable(32) %errorMsg77)
          to label %invoke.cont140 unwind label %lpad97

invoke.cont140:                                   ; preds = %for.end138
  invoke void @_ZN8facebook5velox6memory15MemoryAllocator26setAllocatorFailureMessageENSt7__cxx1112basic_stringIcSt11char_traitsIcESaIcEEE(ptr noundef nonnull align 8 dereferenceable(880) %this1, ptr noundef %agg.tmp139)
          to label %invoke.cont142 unwind label %lpad141

invoke.cont142:                                   ; preds = %invoke.cont140
  call void @_ZNSt7__cxx1112basic_stringIcSt11char_traitsIcESaIcEED1Ev(ptr noundef nonnull align 8 dereferenceable(32) %agg.tmp139) #21
  %numAllocated_144 = getelementptr inbounds %"class.facebook::velox::memory::MemoryAllocator", ptr %this1, i32 0, i32 3
  %totalPages145 = getelementptr inbounds %"struct.facebook::velox::memory::MemoryAllocator::SizeMix", ptr %mix, i32 0, i32 3
  %307 = load i32, ptr %totalPages145, align 4
  %conv146 = sext i32 %307 to i64
  store ptr %numAllocated_144, ptr %this.addr.i375, align 8
  store i64 %conv146, ptr %__i.addr.i376, align 8
  store i32 5, ptr %__m.addr.i377, align 4
  %this1.i380 = load ptr, ptr %this.addr.i375, align 8
  %308 = load i32, ptr %__m.addr.i377, align 4
  %309 = load i64, ptr %__i.addr.i376, align 8
  store i64 %309, ptr %.atomictmp.i378, align 8
  switch i32 %308, label %monotonic.i385 [
    i32 1, label %acquire.i384
    i32 2, label %acquire.i384
    i32 3, label %release.i383
    i32 4, label %acqrel.i382
    i32 5, label %seqcst.i381
  ]

monotonic.i385:                                   ; preds = %invoke.cont142
  %310 = load i64, ptr %.atomictmp.i378, align 8
  %311 = atomicrmw sub ptr %this1.i380, i64 %310 monotonic, align 8
  store i64 %311, ptr %atomic-temp.i379, align 8
  br label %_ZNSt13__atomic_baseImE9fetch_subEmSt12memory_order.exit386

acquire.i384:                                     ; preds = %invoke.cont142, %invoke.cont142
  %312 = load i64, ptr %.atomictmp.i378, align 8
  %313 = atomicrmw sub ptr %this1.i380, i64 %312 acquire, align 8
  store i64 %313, ptr %atomic-temp.i379, align 8
  br label %_ZNSt13__atomic_baseImE9fetch_subEmSt12memory_order.exit386

release.i383:                                     ; preds = %invoke.cont142
  %314 = load i64, ptr %.atomictmp.i378, align 8
  %315 = atomicrmw sub ptr %this1.i380, i64 %314 release, align 8
  store i64 %315, ptr %atomic-temp.i379, align 8
  br label %_ZNSt13__atomic_baseImE9fetch_subEmSt12memory_order.exit386

acqrel.i382:                                      ; preds = %invoke.cont142
  %316 = load i64, ptr %.atomictmp.i378, align 8
  %317 = atomicrmw sub ptr %this1.i380, i64 %316 acq_rel, align 8
  store i64 %317, ptr %atomic-temp.i379, align 8
  br label %_ZNSt13__atomic_baseImE9fetch_subEmSt12memory_order.exit386

seqcst.i381:                                      ; preds = %invoke.cont142
  %318 = load i64, ptr %.atomictmp.i378, align 8
  %319 = atomicrmw sub ptr %this1.i380, i64 %318 seq_cst, align 8
  store i64 %319, ptr %atomic-temp.i379, align 8
  br label %_ZNSt13__atomic_baseImE9fetch_subEmSt12memory_order.exit386

_ZNSt13__atomic_baseImE9fetch_subEmSt12memory_order.exit386: ; preds = %seqcst.i381, %acqrel.i382, %release.i383, %acquire.i384, %monotonic.i385
  %320 = load i64, ptr %bytesFreed, align 8
  %cmp148 = icmp ne i64 %320, 0
  br i1 %cmp148, label %land.lhs.true149, label %if.end153

land.lhs.true149:                                 ; preds = %_ZNSt13__atomic_baseImE9fetch_subEmSt12memory_order.exit386
  %call150 = call noundef zeroext i1 @_ZStneIvJlbEEbRKSt8functionIFT_DpT0_EEDn(ptr noundef nonnull align 8 dereferenceable(32) %reservationCB, ptr null) #21
  br i1 %call150, label %if.then151, label %if.end153

if.then151:                                       ; preds = %land.lhs.true149
  %321 = load i64, ptr %bytesFreed, align 8
  invoke void @_ZNKSt8functionIFvlbEEclElb(ptr noundef nonnull align 8 dereferenceable(32) %reservationCB, i64 noundef %321, i1 noundef zeroext false)
          to label %invoke.cont152 unwind label %lpad97

invoke.cont152:                                   ; preds = %if.then151
  br label %if.end153

lpad141:                                          ; preds = %invoke.cont140
  %322 = landingpad { ptr, i32 }
          cleanup
  %323 = extractvalue { ptr, i32 } %322, 0
  store ptr %323, ptr %exn.slot, align 8
  %324 = extractvalue { ptr, i32 } %322, 1
  store i32 %324, ptr %ehselector.slot, align 4
  call void @_ZNSt7__cxx1112basic_stringIcSt11char_traitsIcESaIcEED1Ev(ptr noundef nonnull align 8 dereferenceable(32) %agg.tmp139) #21
  br label %ehcleanup154

if.end153:                                        ; preds = %invoke.cont152, %land.lhs.true149, %_ZNSt13__atomic_baseImE9fetch_subEmSt12memory_order.exit386
  store i1 false, ptr %retval, align 1
  call void @_ZNSt7__cxx1112basic_stringIcSt11char_traitsIcESaIcEED1Ev(ptr noundef nonnull align 8 dereferenceable(32) %errorMsg77) #21
  br label %return

ehcleanup154:                                     ; preds = %lpad141, %lpad126, %lpad97
  call void @_ZNSt7__cxx1112basic_stringIcSt11char_traitsIcESaIcEED1Ev(ptr noundef nonnull align 8 dereferenceable(32) %errorMsg77) #21
  br label %eh.resume

if.end155:                                        ; preds = %_ZNSt13__atomic_baseImE9fetch_addEmSt12memory_order.exit
  %numAllocations_ = getelementptr inbounds %"class.facebook::velox::memory::MmapAllocator", ptr %this1, i32 0, i32 9
  %call156 = call noundef i64 @_ZNSt13__atomic_baseImEppEv(ptr noundef nonnull align 8 dereferenceable(8) %numAllocations_) #21
  %totalPages157 = getelementptr inbounds %"struct.facebook::velox::memory::MemoryAllocator::SizeMix", ptr %mix, i32 0, i32 3
  %325 = load i32, ptr %totalPages157, align 4
  %conv158 = sext i32 %325 to i64
  %numAllocatedPages_ = getelementptr inbounds %"class.facebook::velox::memory::MmapAllocator", ptr %this1, i32 0, i32 10
  %call159 = call noundef i64 @_ZNSt13__atomic_baseImEpLEm(ptr noundef nonnull align 8 dereferenceable(8) %numAllocatedPages_, i64 noundef %conv158) #21
  %totalPages160 = getelementptr inbounds %"struct.facebook::velox::memory::MemoryAllocator::SizeMix", ptr %mix, i32 0, i32 3
  %326 = load i32, ptr %totalPages160, align 4
  %conv161 = sext i32 %326 to i64
  %327 = load i64, ptr %numFreed, align 8
  %sub162 = sub i64 %conv161, %327
  store i64 %sub162, ptr %numNeededPages, align 8
  %call163 = call noundef zeroext i1 @_ZStneIvJlbEEbRKSt8functionIFT_DpT0_EEDn(ptr noundef nonnull align 8 dereferenceable(32) %reservationCB, ptr null) #21
  br i1 %call163, label %if.then164, label %if.end247

if.then164:                                       ; preds = %if.end155
  %328 = load i64, ptr %numNeededPages, align 8
  store i64 %328, ptr %numPages.addr.i359, align 8
  %329 = load i64, ptr %numPages.addr.i359, align 8
  %mul.i360 = mul i64 %329, 4096
  br label %invoke.cont166

invoke.cont166:                                   ; preds = %if.then164
  invoke void @_ZNKSt8functionIFvlbEEclElb(ptr noundef nonnull align 8 dereferenceable(32) %reservationCB, i64 noundef %mul.i360, i1 noundef zeroext true)
          to label %invoke.cont168 unwind label %lpad165

invoke.cont168:                                   ; preds = %invoke.cont166
  br label %try.cont

lpad165:                                          ; preds = %invoke.cont166
  %330 = landingpad { ptr, i32 }
          catch ptr @_ZTISt9exception
  %331 = extractvalue { ptr, i32 } %330, 0
  store ptr %331, ptr %exn.slot, align 8
  %332 = extractvalue { ptr, i32 } %330, 1
  store i32 %332, ptr %ehselector.slot, align 4
  br label %catch.dispatch

catch.dispatch:                                   ; preds = %lpad165
  %sel = load i32, ptr %ehselector.slot, align 4
  %333 = call i32 @llvm.eh.typeid.for(ptr @_ZTISt9exception) #21
  %matches = icmp eq i32 %sel, %333
  br i1 %matches, label %catch, label %eh.resume

catch:                                            ; preds = %catch.dispatch
  %exn = load ptr, ptr %exn.slot, align 8
  %334 = call ptr @__cxa_begin_catch(ptr %exn) #21
  store ptr %334, ptr %e, align 8
  store i32 1, ptr %FB_LEM_once169, align 4
  store i32 1000, ptr %FB_LEM_interval170, align 4
  br label %for.cond171

for.cond171:                                      ; preds = %for.end234, %catch
  %335 = load i32, ptr %FB_LEM_once169, align 4
  %tobool172 = icmp ne i32 %335, 0
  br i1 %tobool172, label %for.body173, label %for.end235

for.body173:                                      ; preds = %for.cond171
  %336 = load i32, ptr %FB_LEM_interval170, align 4
  %cmp176 = icmp sle i32 %336, 0
  br i1 %cmp176, label %cond.true177, label %cond.false178

cond.true177:                                     ; preds = %for.body173
  br label %cond.end194

cond.false178:                                    ; preds = %for.body173
  %call182 = call i64 @_ZNSt6chrono3_V212system_clock3nowEv() #21
  %coerce.dive183 = getelementptr inbounds %"class.std::chrono::time_point", ptr %ref.tmp181, i32 0, i32 0
  %coerce.dive184 = getelementptr inbounds %"class.std::chrono::duration.26", ptr %coerce.dive183, i32 0, i32 0
  store i64 %call182, ptr %coerce.dive184, align 8
  %call187 = invoke i64 @_ZNKSt6chrono10time_pointINS_3_V212system_clockENS_8durationIlSt5ratioILl1ELl1000000000EEEEE16time_since_epochEv(ptr noundef nonnull align 8 dereferenceable(8) %ref.tmp181)
          to label %invoke.cont186 unwind label %lpad185

invoke.cont186:                                   ; preds = %cond.false178
  %coerce.dive188 = getelementptr inbounds %"class.std::chrono::duration.26", ptr %ref.tmp180, i32 0, i32 0
  store i64 %call187, ptr %coerce.dive188, align 8
  %call190 = invoke i64 @_ZNSt6chrono13duration_castINS_8durationIlSt5ratioILl1ELl1000EEEElS2_ILl1ELl1000000000EEEENSt9enable_ifIXsr13__is_durationIT_EE5valueES7_E4typeERKNS1_IT0_T1_EE(ptr noundef nonnull align 8 dereferenceable(8) %ref.tmp180)
          to label %invoke.cont189 unwind label %lpad185

invoke.cont189:                                   ; preds = %invoke.cont186
  %coerce.dive191 = getelementptr inbounds %"class.std::chrono::duration", ptr %ref.tmp179, i32 0, i32 0
  store i64 %call190, ptr %coerce.dive191, align 8
  %call193 = invoke noundef i64 @_ZNKSt6chrono8durationIlSt5ratioILl1ELl1000EEE5countEv(ptr noundef nonnull align 8 dereferenceable(8) %ref.tmp179)
          to label %invoke.cont192 unwind label %lpad185

invoke.cont192:                                   ; preds = %invoke.cont189
  br label %cond.end194

cond.end194:                                      ; preds = %invoke.cont192, %cond.true177
  %cond195 = phi i64 [ 0, %cond.true177 ], [ %call193, %invoke.cont192 ]
  store i64 %cond195, ptr %FB_LEM_now175, align 8
  br label %for.cond196

for.cond196:                                      ; preds = %for.end233, %cond.end194
  %337 = load i32, ptr %FB_LEM_once169, align 4
  %tobool197 = icmp ne i32 %337, 0
  br i1 %tobool197, label %for.body198, label %for.end234

for.body198:                                      ; preds = %for.cond196
  br label %for.cond199

for.cond199:                                      ; preds = %for.inc232, %for.body198
  %338 = load i32, ptr %FB_LEM_once169, align 4
  %tobool200 = icmp ne i32 %338, 0
  br i1 %tobool200, label %for.body201, label %for.end233

for.body201:                                      ; preds = %for.cond199
  %339 = load i32, ptr %FB_LEM_interval170, align 4
  %cmp202 = icmp sgt i32 %339, 0
  br i1 %cmp202, label %land.lhs.true203, label %if.else211

land.lhs.true203:                                 ; preds = %for.body201
  %340 = load i64, ptr %FB_LEM_now175, align 8
  store ptr @_ZZN8facebook5velox6memory13MmapAllocator33allocateNonContiguousWithoutRetryEmRNS1_10AllocationESt8functionIFvlbEEmE11FB_LEM_hist_1, ptr %this.addr.i425, align 8
  store i32 2, ptr %__m.addr.i426, align 4
  %this1.i428 = load ptr, ptr %this.addr.i425, align 8
  %341 = load i32, ptr %__m.addr.i426, align 4
  %call.i429 = call noundef i32 @_ZStanSt12memory_orderSt23__memory_order_modifier(i32 noundef %341, i32 noundef 65535)
  store i32 %call.i429, ptr %__b.i, align 4
  %342 = load i32, ptr %__m.addr.i426, align 4
  switch i32 %342, label %monotonic.i432 [
    i32 1, label %acquire.i431
    i32 2, label %acquire.i431
    i32 5, label %seqcst.i430
  ]

monotonic.i432:                                   ; preds = %land.lhs.true203
  %343 = load atomic i64, ptr %this1.i428 monotonic, align 8
  store i64 %343, ptr %atomic-temp.i427, align 8
  br label %_ZNKSt13__atomic_baseIlE4loadESt12memory_order.exit

acquire.i431:                                     ; preds = %land.lhs.true203, %land.lhs.true203
  %344 = load atomic i64, ptr %this1.i428 acquire, align 8
  store i64 %344, ptr %atomic-temp.i427, align 8
  br label %_ZNKSt13__atomic_baseIlE4loadESt12memory_order.exit

seqcst.i430:                                      ; preds = %land.lhs.true203
  %345 = load atomic i64, ptr %this1.i428 seq_cst, align 8
  store i64 %345, ptr %atomic-temp.i427, align 8
  br label %_ZNKSt13__atomic_baseIlE4loadESt12memory_order.exit

_ZNKSt13__atomic_baseIlE4loadESt12memory_order.exit: ; preds = %seqcst.i430, %acquire.i431, %monotonic.i432
  %346 = load i64, ptr %atomic-temp.i427, align 8
  store i64 %346, ptr %FB_LEM_prev174, align 8
  %sub205 = sub nsw i64 %340, %346
  %347 = load i32, ptr %FB_LEM_interval170, align 4
  %conv206 = sext i32 %347 to i64
  %cmp207 = icmp slt i64 %sub205, %conv206
  br i1 %cmp207, label %if.then210, label %lor.lhs.false208

lor.lhs.false208:                                 ; preds = %_ZNKSt13__atomic_baseIlE4loadESt12memory_order.exit
  %348 = load i64, ptr %FB_LEM_now175, align 8
  store ptr @_ZZN8facebook5velox6memory13MmapAllocator33allocateNonContiguousWithoutRetryEmRNS1_10AllocationESt8functionIFvlbEEmE11FB_LEM_hist_1, ptr %this.addr.i453, align 8
  store ptr %FB_LEM_prev174, ptr %__i1.addr.i, align 8
  store i64 %348, ptr %__i2.addr.i, align 8
  store i32 5, ptr %__m.addr.i454, align 4
  %this1.i455 = load ptr, ptr %this.addr.i453, align 8
  %349 = load ptr, ptr %__i1.addr.i, align 8
  %350 = load i64, ptr %__i2.addr.i, align 8
  %351 = load i32, ptr %__m.addr.i454, align 4
  %352 = load i32, ptr %__m.addr.i454, align 4
  %call.i456 = call noundef i32 @_ZSt23__cmpexch_failure_orderSt12memory_order(i32 noundef %352) #21
  store ptr %this1.i455, ptr %this.addr.i638, align 8
  store ptr %349, ptr %__i1.addr.i639, align 8
  store i64 %350, ptr %__i2.addr.i640, align 8
  store i32 %351, ptr %__m1.addr.i641, align 4
  store i32 %call.i456, ptr %__m2.addr.i642, align 4
  %this1.i645 = load ptr, ptr %this.addr.i638, align 8
  %353 = load i32, ptr %__m1.addr.i641, align 4
  %354 = load ptr, ptr %__i1.addr.i639, align 8
  %355 = load i64, ptr %__i2.addr.i640, align 8
  store i64 %355, ptr %.atomictmp.i643, align 8
  %356 = load i32, ptr %__m2.addr.i642, align 4
  switch i32 %353, label %monotonic.i703 [
    i32 1, label %acquire.i689
    i32 2, label %acquire.i689
    i32 3, label %release.i675
    i32 4, label %acqrel.i661
    i32 5, label %seqcst.i646
  ]

monotonic.i703:                                   ; preds = %lor.lhs.false208
  switch i32 %356, label %monotonic_fail.i713 [
    i32 1, label %acquire_fail.i709
    i32 2, label %acquire_fail.i709
    i32 5, label %seqcst_fail.i704
  ]

acquire.i689:                                     ; preds = %lor.lhs.false208, %lor.lhs.false208
  switch i32 %356, label %monotonic_fail9.i699 [
    i32 1, label %acquire_fail10.i695
    i32 2, label %acquire_fail10.i695
    i32 5, label %seqcst_fail11.i690
  ]

release.i675:                                     ; preds = %lor.lhs.false208
  switch i32 %356, label %monotonic_fail22.i685 [
    i32 1, label %acquire_fail23.i681
    i32 2, label %acquire_fail23.i681
    i32 5, label %seqcst_fail24.i676
  ]

acqrel.i661:                                      ; preds = %lor.lhs.false208
  switch i32 %356, label %monotonic_fail35.i671 [
    i32 1, label %acquire_fail36.i667
    i32 2, label %acquire_fail36.i667
    i32 5, label %seqcst_fail37.i662
  ]

seqcst.i646:                                      ; preds = %lor.lhs.false208
  switch i32 %356, label %monotonic_fail48.i657 [
    i32 1, label %acquire_fail49.i653
    i32 2, label %acquire_fail49.i653
    i32 5, label %seqcst_fail50.i647
  ]

monotonic_fail.i713:                              ; preds = %monotonic.i703
  %357 = load i64, ptr %354, align 8
  %358 = load i64, ptr %.atomictmp.i643, align 8
  %359 = cmpxchg ptr %this1.i645, i64 %357, i64 %358 monotonic monotonic, align 8
  %360 = extractvalue { i64, i1 } %359, 0
  %361 = extractvalue { i64, i1 } %359, 1
  br i1 %361, label %cmpxchg.continue.i715, label %cmpxchg.store_expected.i714

acquire_fail.i709:                                ; preds = %monotonic.i703, %monotonic.i703
  %362 = load i64, ptr %354, align 8
  %363 = load i64, ptr %.atomictmp.i643, align 8
  %364 = cmpxchg ptr %this1.i645, i64 %362, i64 %363 monotonic acquire, align 8
  %365 = extractvalue { i64, i1 } %364, 0
  %366 = extractvalue { i64, i1 } %364, 1
  br i1 %366, label %cmpxchg.continue4.i711, label %cmpxchg.store_expected3.i710

seqcst_fail.i704:                                 ; preds = %monotonic.i703
  %367 = load i64, ptr %354, align 8
  %368 = load i64, ptr %.atomictmp.i643, align 8
  %369 = cmpxchg ptr %this1.i645, i64 %367, i64 %368 monotonic seq_cst, align 8
  %370 = extractvalue { i64, i1 } %369, 0
  %371 = extractvalue { i64, i1 } %369, 1
  br i1 %371, label %cmpxchg.continue7.i706, label %cmpxchg.store_expected6.i705

atomic.continue2.i708:                            ; preds = %cmpxchg.continue7.i706, %cmpxchg.continue4.i711, %cmpxchg.continue.i715
  br label %_ZNSt13__atomic_baseIlE23compare_exchange_strongERllSt12memory_orderS2_.exit717

cmpxchg.store_expected.i714:                      ; preds = %monotonic_fail.i713
  store i64 %360, ptr %354, align 8
  br label %cmpxchg.continue.i715

cmpxchg.continue.i715:                            ; preds = %cmpxchg.store_expected.i714, %monotonic_fail.i713
  %frombool.i716 = zext i1 %361 to i8
  store i8 %frombool.i716, ptr %cmpxchg.bool.i644, align 1
  br label %atomic.continue2.i708

cmpxchg.store_expected3.i710:                     ; preds = %acquire_fail.i709
  store i64 %365, ptr %354, align 8
  br label %cmpxchg.continue4.i711

cmpxchg.continue4.i711:                           ; preds = %cmpxchg.store_expected3.i710, %acquire_fail.i709
  %frombool5.i712 = zext i1 %366 to i8
  store i8 %frombool5.i712, ptr %cmpxchg.bool.i644, align 1
  br label %atomic.continue2.i708

cmpxchg.store_expected6.i705:                     ; preds = %seqcst_fail.i704
  store i64 %370, ptr %354, align 8
  br label %cmpxchg.continue7.i706

cmpxchg.continue7.i706:                           ; preds = %cmpxchg.store_expected6.i705, %seqcst_fail.i704
  %frombool8.i707 = zext i1 %371 to i8
  store i8 %frombool8.i707, ptr %cmpxchg.bool.i644, align 1
  br label %atomic.continue2.i708

monotonic_fail9.i699:                             ; preds = %acquire.i689
  %372 = load i64, ptr %354, align 8
  %373 = load i64, ptr %.atomictmp.i643, align 8
  %374 = cmpxchg ptr %this1.i645, i64 %372, i64 %373 acquire monotonic, align 8
  %375 = extractvalue { i64, i1 } %374, 0
  %376 = extractvalue { i64, i1 } %374, 1
  br i1 %376, label %cmpxchg.continue14.i701, label %cmpxchg.store_expected13.i700

acquire_fail10.i695:                              ; preds = %acquire.i689, %acquire.i689
  %377 = load i64, ptr %354, align 8
  %378 = load i64, ptr %.atomictmp.i643, align 8
  %379 = cmpxchg ptr %this1.i645, i64 %377, i64 %378 acquire acquire, align 8
  %380 = extractvalue { i64, i1 } %379, 0
  %381 = extractvalue { i64, i1 } %379, 1
  br i1 %381, label %cmpxchg.continue17.i697, label %cmpxchg.store_expected16.i696

seqcst_fail11.i690:                               ; preds = %acquire.i689
  %382 = load i64, ptr %354, align 8
  %383 = load i64, ptr %.atomictmp.i643, align 8
  %384 = cmpxchg ptr %this1.i645, i64 %382, i64 %383 acquire seq_cst, align 8
  %385 = extractvalue { i64, i1 } %384, 0
  %386 = extractvalue { i64, i1 } %384, 1
  br i1 %386, label %cmpxchg.continue20.i692, label %cmpxchg.store_expected19.i691

atomic.continue12.i694:                           ; preds = %cmpxchg.continue20.i692, %cmpxchg.continue17.i697, %cmpxchg.continue14.i701
  br label %_ZNSt13__atomic_baseIlE23compare_exchange_strongERllSt12memory_orderS2_.exit717

cmpxchg.store_expected13.i700:                    ; preds = %monotonic_fail9.i699
  store i64 %375, ptr %354, align 8
  br label %cmpxchg.continue14.i701

cmpxchg.continue14.i701:                          ; preds = %cmpxchg.store_expected13.i700, %monotonic_fail9.i699
  %frombool15.i702 = zext i1 %376 to i8
  store i8 %frombool15.i702, ptr %cmpxchg.bool.i644, align 1
  br label %atomic.continue12.i694

cmpxchg.store_expected16.i696:                    ; preds = %acquire_fail10.i695
  store i64 %380, ptr %354, align 8
  br label %cmpxchg.continue17.i697

cmpxchg.continue17.i697:                          ; preds = %cmpxchg.store_expected16.i696, %acquire_fail10.i695
  %frombool18.i698 = zext i1 %381 to i8
  store i8 %frombool18.i698, ptr %cmpxchg.bool.i644, align 1
  br label %atomic.continue12.i694

cmpxchg.store_expected19.i691:                    ; preds = %seqcst_fail11.i690
  store i64 %385, ptr %354, align 8
  br label %cmpxchg.continue20.i692

cmpxchg.continue20.i692:                          ; preds = %cmpxchg.store_expected19.i691, %seqcst_fail11.i690
  %frombool21.i693 = zext i1 %386 to i8
  store i8 %frombool21.i693, ptr %cmpxchg.bool.i644, align 1
  br label %atomic.continue12.i694

monotonic_fail22.i685:                            ; preds = %release.i675
  %387 = load i64, ptr %354, align 8
  %388 = load i64, ptr %.atomictmp.i643, align 8
  %389 = cmpxchg ptr %this1.i645, i64 %387, i64 %388 release monotonic, align 8
  %390 = extractvalue { i64, i1 } %389, 0
  %391 = extractvalue { i64, i1 } %389, 1
  br i1 %391, label %cmpxchg.continue27.i687, label %cmpxchg.store_expected26.i686

acquire_fail23.i681:                              ; preds = %release.i675, %release.i675
  %392 = load i64, ptr %354, align 8
  %393 = load i64, ptr %.atomictmp.i643, align 8
  %394 = cmpxchg ptr %this1.i645, i64 %392, i64 %393 release acquire, align 8
  %395 = extractvalue { i64, i1 } %394, 0
  %396 = extractvalue { i64, i1 } %394, 1
  br i1 %396, label %cmpxchg.continue30.i683, label %cmpxchg.store_expected29.i682

seqcst_fail24.i676:                               ; preds = %release.i675
  %397 = load i64, ptr %354, align 8
  %398 = load i64, ptr %.atomictmp.i643, align 8
  %399 = cmpxchg ptr %this1.i645, i64 %397, i64 %398 release seq_cst, align 8
  %400 = extractvalue { i64, i1 } %399, 0
  %401 = extractvalue { i64, i1 } %399, 1
  br i1 %401, label %cmpxchg.continue33.i678, label %cmpxchg.store_expected32.i677

atomic.continue25.i680:                           ; preds = %cmpxchg.continue33.i678, %cmpxchg.continue30.i683, %cmpxchg.continue27.i687
  br label %_ZNSt13__atomic_baseIlE23compare_exchange_strongERllSt12memory_orderS2_.exit717

cmpxchg.store_expected26.i686:                    ; preds = %monotonic_fail22.i685
  store i64 %390, ptr %354, align 8
  br label %cmpxchg.continue27.i687

cmpxchg.continue27.i687:                          ; preds = %cmpxchg.store_expected26.i686, %monotonic_fail22.i685
  %frombool28.i688 = zext i1 %391 to i8
  store i8 %frombool28.i688, ptr %cmpxchg.bool.i644, align 1
  br label %atomic.continue25.i680

cmpxchg.store_expected29.i682:                    ; preds = %acquire_fail23.i681
  store i64 %395, ptr %354, align 8
  br label %cmpxchg.continue30.i683

cmpxchg.continue30.i683:                          ; preds = %cmpxchg.store_expected29.i682, %acquire_fail23.i681
  %frombool31.i684 = zext i1 %396 to i8
  store i8 %frombool31.i684, ptr %cmpxchg.bool.i644, align 1
  br label %atomic.continue25.i680

cmpxchg.store_expected32.i677:                    ; preds = %seqcst_fail24.i676
  store i64 %400, ptr %354, align 8
  br label %cmpxchg.continue33.i678

cmpxchg.continue33.i678:                          ; preds = %cmpxchg.store_expected32.i677, %seqcst_fail24.i676
  %frombool34.i679 = zext i1 %401 to i8
  store i8 %frombool34.i679, ptr %cmpxchg.bool.i644, align 1
  br label %atomic.continue25.i680

monotonic_fail35.i671:                            ; preds = %acqrel.i661
  %402 = load i64, ptr %354, align 8
  %403 = load i64, ptr %.atomictmp.i643, align 8
  %404 = cmpxchg ptr %this1.i645, i64 %402, i64 %403 acq_rel monotonic, align 8
  %405 = extractvalue { i64, i1 } %404, 0
  %406 = extractvalue { i64, i1 } %404, 1
  br i1 %406, label %cmpxchg.continue40.i673, label %cmpxchg.store_expected39.i672

acquire_fail36.i667:                              ; preds = %acqrel.i661, %acqrel.i661
  %407 = load i64, ptr %354, align 8
  %408 = load i64, ptr %.atomictmp.i643, align 8
  %409 = cmpxchg ptr %this1.i645, i64 %407, i64 %408 acq_rel acquire, align 8
  %410 = extractvalue { i64, i1 } %409, 0
  %411 = extractvalue { i64, i1 } %409, 1
  br i1 %411, label %cmpxchg.continue43.i669, label %cmpxchg.store_expected42.i668

seqcst_fail37.i662:                               ; preds = %acqrel.i661
  %412 = load i64, ptr %354, align 8
  %413 = load i64, ptr %.atomictmp.i643, align 8
  %414 = cmpxchg ptr %this1.i645, i64 %412, i64 %413 acq_rel seq_cst, align 8
  %415 = extractvalue { i64, i1 } %414, 0
  %416 = extractvalue { i64, i1 } %414, 1
  br i1 %416, label %cmpxchg.continue46.i664, label %cmpxchg.store_expected45.i663

atomic.continue38.i666:                           ; preds = %cmpxchg.continue46.i664, %cmpxchg.continue43.i669, %cmpxchg.continue40.i673
  br label %_ZNSt13__atomic_baseIlE23compare_exchange_strongERllSt12memory_orderS2_.exit717

cmpxchg.store_expected39.i672:                    ; preds = %monotonic_fail35.i671
  store i64 %405, ptr %354, align 8
  br label %cmpxchg.continue40.i673

cmpxchg.continue40.i673:                          ; preds = %cmpxchg.store_expected39.i672, %monotonic_fail35.i671
  %frombool41.i674 = zext i1 %406 to i8
  store i8 %frombool41.i674, ptr %cmpxchg.bool.i644, align 1
  br label %atomic.continue38.i666

cmpxchg.store_expected42.i668:                    ; preds = %acquire_fail36.i667
  store i64 %410, ptr %354, align 8
  br label %cmpxchg.continue43.i669

cmpxchg.continue43.i669:                          ; preds = %cmpxchg.store_expected42.i668, %acquire_fail36.i667
  %frombool44.i670 = zext i1 %411 to i8
  store i8 %frombool44.i670, ptr %cmpxchg.bool.i644, align 1
  br label %atomic.continue38.i666

cmpxchg.store_expected45.i663:                    ; preds = %seqcst_fail37.i662
  store i64 %415, ptr %354, align 8
  br label %cmpxchg.continue46.i664

cmpxchg.continue46.i664:                          ; preds = %cmpxchg.store_expected45.i663, %seqcst_fail37.i662
  %frombool47.i665 = zext i1 %416 to i8
  store i8 %frombool47.i665, ptr %cmpxchg.bool.i644, align 1
  br label %atomic.continue38.i666

monotonic_fail48.i657:                            ; preds = %seqcst.i646
  %417 = load i64, ptr %354, align 8
  %418 = load i64, ptr %.atomictmp.i643, align 8
  %419 = cmpxchg ptr %this1.i645, i64 %417, i64 %418 seq_cst monotonic, align 8
  %420 = extractvalue { i64, i1 } %419, 0
  %421 = extractvalue { i64, i1 } %419, 1
  br i1 %421, label %cmpxchg.continue53.i659, label %cmpxchg.store_expected52.i658

acquire_fail49.i653:                              ; preds = %seqcst.i646, %seqcst.i646
  %422 = load i64, ptr %354, align 8
  %423 = load i64, ptr %.atomictmp.i643, align 8
  %424 = cmpxchg ptr %this1.i645, i64 %422, i64 %423 seq_cst acquire, align 8
  %425 = extractvalue { i64, i1 } %424, 0
  %426 = extractvalue { i64, i1 } %424, 1
  br i1 %426, label %cmpxchg.continue56.i655, label %cmpxchg.store_expected55.i654

seqcst_fail50.i647:                               ; preds = %seqcst.i646
  %427 = load i64, ptr %354, align 8
  %428 = load i64, ptr %.atomictmp.i643, align 8
  %429 = cmpxchg ptr %this1.i645, i64 %427, i64 %428 seq_cst seq_cst, align 8
  %430 = extractvalue { i64, i1 } %429, 0
  %431 = extractvalue { i64, i1 } %429, 1
  br i1 %431, label %cmpxchg.continue59.i649, label %cmpxchg.store_expected58.i648

atomic.continue51.i651:                           ; preds = %cmpxchg.continue59.i649, %cmpxchg.continue56.i655, %cmpxchg.continue53.i659
  br label %_ZNSt13__atomic_baseIlE23compare_exchange_strongERllSt12memory_orderS2_.exit717

cmpxchg.store_expected52.i658:                    ; preds = %monotonic_fail48.i657
  store i64 %420, ptr %354, align 8
  br label %cmpxchg.continue53.i659

cmpxchg.continue53.i659:                          ; preds = %cmpxchg.store_expected52.i658, %monotonic_fail48.i657
  %frombool54.i660 = zext i1 %421 to i8
  store i8 %frombool54.i660, ptr %cmpxchg.bool.i644, align 1
  br label %atomic.continue51.i651

cmpxchg.store_expected55.i654:                    ; preds = %acquire_fail49.i653
  store i64 %425, ptr %354, align 8
  br label %cmpxchg.continue56.i655

cmpxchg.continue56.i655:                          ; preds = %cmpxchg.store_expected55.i654, %acquire_fail49.i653
  %frombool57.i656 = zext i1 %426 to i8
  store i8 %frombool57.i656, ptr %cmpxchg.bool.i644, align 1
  br label %atomic.continue51.i651

cmpxchg.store_expected58.i648:                    ; preds = %seqcst_fail50.i647
  store i64 %430, ptr %354, align 8
  br label %cmpxchg.continue59.i649

cmpxchg.continue59.i649:                          ; preds = %cmpxchg.store_expected58.i648, %seqcst_fail50.i647
  %frombool60.i650 = zext i1 %431 to i8
  store i8 %frombool60.i650, ptr %cmpxchg.bool.i644, align 1
  br label %atomic.continue51.i651

_ZNSt13__atomic_baseIlE23compare_exchange_strongERllSt12memory_orderS2_.exit717: ; preds = %atomic.continue51.i651, %atomic.continue38.i666, %atomic.continue25.i680, %atomic.continue12.i694, %atomic.continue2.i708
  %432 = load i8, ptr %cmpxchg.bool.i644, align 1
  %tobool.i652 = trunc i8 %432 to i1
  br i1 %tobool.i652, label %if.else211, label %if.then210

if.then210:                                       ; preds = %_ZNSt13__atomic_baseIlE23compare_exchange_strongERllSt12memory_orderS2_.exit717, %_ZNKSt13__atomic_baseIlE4loadESt12memory_order.exit
  br label %if.end231

lpad185:                                          ; preds = %_ZNSt13__atomic_baseImE9fetch_subEmSt12memory_order.exit374, %if.else211, %invoke.cont189, %invoke.cont186, %cond.false178
  %433 = landingpad { ptr, i32 }
          cleanup
  %434 = extractvalue { ptr, i32 } %433, 0
  store ptr %434, ptr %exn.slot, align 8
  %435 = extractvalue { ptr, i32 } %433, 1
  store i32 %435, ptr %ehselector.slot, align 4
  br label %ehcleanup245

if.else211:                                       ; preds = %_ZNSt13__atomic_baseIlE23compare_exchange_strongERllSt12memory_orderS2_.exit717, %for.body201
  invoke void @_ZN6google10LogMessageC1EPKcii(ptr noundef nonnull align 8 dereferenceable(16) %ref.tmp212, ptr noundef @.str.1, i32 noundef 108, i32 noundef 1)
          to label %invoke.cont213 unwind label %lpad185

invoke.cont213:                                   ; preds = %if.else211
  %call216 = invoke noundef nonnull align 8 dereferenceable(8) ptr @_ZN6google10LogMessage6streamEv(ptr noundef nonnull align 8 dereferenceable(16) %ref.tmp212)
          to label %invoke.cont215 unwind label %lpad214

invoke.cont215:                                   ; preds = %invoke.cont213
  %call218 = invoke noundef nonnull align 8 dereferenceable(8) ptr @_ZStlsISt11char_traitsIcEERSt13basic_ostreamIcT_ES5_PKc(ptr noundef nonnull align 8 dereferenceable(8) %call216, ptr noundef @.str.2)
          to label %invoke.cont217 unwind label %lpad214

invoke.cont217:                                   ; preds = %invoke.cont215
  %call220 = invoke noundef nonnull align 8 dereferenceable(8) ptr @_ZStlsISt11char_traitsIcEERSt13basic_ostreamIcT_ES5_PKc(ptr noundef nonnull align 8 dereferenceable(8) %call218, ptr noundef @.str.4)
          to label %invoke.cont219 unwind label %lpad214

invoke.cont219:                                   ; preds = %invoke.cont217
  %436 = load i64, ptr %numNeededPages, align 8
  %call222 = invoke noundef nonnull align 8 dereferenceable(8) ptr @_ZNSolsEl(ptr noundef nonnull align 8 dereferenceable(8) %call220, i64 noundef %436)
          to label %invoke.cont221 unwind label %lpad214

invoke.cont221:                                   ; preds = %invoke.cont219
  %call224 = invoke noundef nonnull align 8 dereferenceable(8) ptr @_ZStlsISt11char_traitsIcEERSt13basic_ostreamIcT_ES5_PKc(ptr noundef nonnull align 8 dereferenceable(8) %call222, ptr noundef @.str.5)
          to label %invoke.cont223 unwind label %lpad214

invoke.cont223:                                   ; preds = %invoke.cont221
  %totalPages225 = getelementptr inbounds %"struct.facebook::velox::memory::MemoryAllocator::SizeMix", ptr %mix, i32 0, i32 3
  %437 = load i32, ptr %totalPages225, align 4
  %call227 = invoke noundef nonnull align 8 dereferenceable(8) ptr @_ZNSolsEi(ptr noundef nonnull align 8 dereferenceable(8) %call224, i32 noundef %437)
          to label %invoke.cont226 unwind label %lpad214

invoke.cont226:                                   ; preds = %invoke.cont223
  %call229 = invoke noundef nonnull align 8 dereferenceable(8) ptr @_ZStlsISt11char_traitsIcEERSt13basic_ostreamIcT_ES5_PKc(ptr noundef nonnull align 8 dereferenceable(8) %call227, ptr noundef @.str.6)
          to label %invoke.cont228 unwind label %lpad214

invoke.cont228:                                   ; preds = %invoke.cont226
  call void @_ZN6google10LogMessageD1Ev(ptr noundef nonnull align 8 dereferenceable(16) %ref.tmp212) #21
  br label %if.end231

lpad214:                                          ; preds = %invoke.cont226, %invoke.cont223, %invoke.cont221, %invoke.cont219, %invoke.cont217, %invoke.cont215, %invoke.cont213
  %438 = landingpad { ptr, i32 }
          cleanup
  %439 = extractvalue { ptr, i32 } %438, 0
  store ptr %439, ptr %exn.slot, align 8
  %440 = extractvalue { ptr, i32 } %438, 1
  store i32 %440, ptr %ehselector.slot, align 4
  call void @_ZN6google10LogMessageD1Ev(ptr noundef nonnull align 8 dereferenceable(16) %ref.tmp212) #21
  br label %ehcleanup245

if.end231:                                        ; preds = %invoke.cont228, %if.then210
  br label %for.inc232

for.inc232:                                       ; preds = %if.end231
  store i32 0, ptr %FB_LEM_once169, align 4
  br label %for.cond199, !llvm.loop !17

for.end233:                                       ; preds = %for.cond199
  br label %for.cond196, !llvm.loop !18

for.end234:                                       ; preds = %for.cond196
  br label %for.cond171, !llvm.loop !19

for.end235:                                       ; preds = %for.cond171
  %numAllocated_236 = getelementptr inbounds %"class.facebook::velox::memory::MemoryAllocator", ptr %this1, i32 0, i32 3
  %totalPages237 = getelementptr inbounds %"struct.facebook::velox::memory::MemoryAllocator::SizeMix", ptr %mix, i32 0, i32 3
  %441 = load i32, ptr %totalPages237, align 4
  %conv238 = sext i32 %441 to i64
  store ptr %numAllocated_236, ptr %this.addr.i363, align 8
  store i64 %conv238, ptr %__i.addr.i364, align 8
  store i32 5, ptr %__m.addr.i365, align 4
  %this1.i368 = load ptr, ptr %this.addr.i363, align 8
  %442 = load i32, ptr %__m.addr.i365, align 4
  %443 = load i64, ptr %__i.addr.i364, align 8
  store i64 %443, ptr %.atomictmp.i366, align 8
  switch i32 %442, label %monotonic.i373 [
    i32 1, label %acquire.i372
    i32 2, label %acquire.i372
    i32 3, label %release.i371
    i32 4, label %acqrel.i370
    i32 5, label %seqcst.i369
  ]

monotonic.i373:                                   ; preds = %for.end235
  %444 = load i64, ptr %.atomictmp.i366, align 8
  %445 = atomicrmw sub ptr %this1.i368, i64 %444 monotonic, align 8
  store i64 %445, ptr %atomic-temp.i367, align 8
  br label %_ZNSt13__atomic_baseImE9fetch_subEmSt12memory_order.exit374

acquire.i372:                                     ; preds = %for.end235, %for.end235
  %446 = load i64, ptr %.atomictmp.i366, align 8
  %447 = atomicrmw sub ptr %this1.i368, i64 %446 acquire, align 8
  store i64 %447, ptr %atomic-temp.i367, align 8
  br label %_ZNSt13__atomic_baseImE9fetch_subEmSt12memory_order.exit374

release.i371:                                     ; preds = %for.end235
  %448 = load i64, ptr %.atomictmp.i366, align 8
  %449 = atomicrmw sub ptr %this1.i368, i64 %448 release, align 8
  store i64 %449, ptr %atomic-temp.i367, align 8
  br label %_ZNSt13__atomic_baseImE9fetch_subEmSt12memory_order.exit374

acqrel.i370:                                      ; preds = %for.end235
  %450 = load i64, ptr %.atomictmp.i366, align 8
  %451 = atomicrmw sub ptr %this1.i368, i64 %450 acq_rel, align 8
  store i64 %451, ptr %atomic-temp.i367, align 8
  br label %_ZNSt13__atomic_baseImE9fetch_subEmSt12memory_order.exit374

seqcst.i369:                                      ; preds = %for.end235
  %452 = load i64, ptr %.atomictmp.i366, align 8
  %453 = atomicrmw sub ptr %this1.i368, i64 %452 seq_cst, align 8
  store i64 %453, ptr %atomic-temp.i367, align 8
  br label %_ZNSt13__atomic_baseImE9fetch_subEmSt12memory_order.exit374

_ZNSt13__atomic_baseImE9fetch_subEmSt12memory_order.exit374: ; preds = %seqcst.i369, %acqrel.i370, %release.i371, %acquire.i372, %monotonic.i373
  %454 = load i64, ptr %bytesFreed, align 8
  invoke void @_ZNKSt8functionIFvlbEEclElb(ptr noundef nonnull align 8 dereferenceable(32) %reservationCB, i64 noundef %454, i1 noundef zeroext false)
          to label %invoke.cont240 unwind label %lpad185

invoke.cont240:                                   ; preds = %_ZNSt13__atomic_baseImE9fetch_subEmSt12memory_order.exit374
  call void @_ZSt17current_exceptionv(ptr sret(%"class.std::__exception_ptr::exception_ptr") align 8 %agg.tmp241) #21
  invoke void @_ZSt17rethrow_exceptionNSt15__exception_ptr13exception_ptrE(ptr noundef %agg.tmp241) #27
          to label %invoke.cont243 unwind label %lpad242

invoke.cont243:                                   ; preds = %invoke.cont240
  unreachable

lpad242:                                          ; preds = %invoke.cont240
  %455 = landingpad { ptr, i32 }
          cleanup
  %456 = extractvalue { ptr, i32 } %455, 0
  store ptr %456, ptr %exn.slot, align 8
  %457 = extractvalue { ptr, i32 } %455, 1
  store i32 %457, ptr %ehselector.slot, align 4
  call void @_ZNSt15__exception_ptr13exception_ptrD2Ev(ptr noundef nonnull align 8 dereferenceable(8) %agg.tmp241) #21
  br label %ehcleanup245

ehcleanup245:                                     ; preds = %lpad242, %lpad214, %lpad185
  invoke void @__cxa_end_catch()
          to label %invoke.cont246 unwind label %terminate.lpad

invoke.cont246:                                   ; preds = %ehcleanup245
  br label %eh.resume

try.cont:                                         ; preds = %invoke.cont168
  br label %if.end247

if.end247:                                        ; preds = %try.cont, %if.end155
  store i64 0, ptr %newMapsNeeded, align 8
  store i32 0, ptr %i, align 4
  br label %for.cond248

for.cond248:                                      ; preds = %for.inc311, %if.end247
  %458 = load i32, ptr %i, align 4
  %numSizes = getelementptr inbounds %"struct.facebook::velox::memory::MemoryAllocator::SizeMix", ptr %mix, i32 0, i32 2
  %459 = load i32, ptr %numSizes, align 4
  %cmp249 = icmp slt i32 %458, %459
  br i1 %cmp249, label %for.body250, label %for.end312

for.body250:                                      ; preds = %for.cond248
  %stats_ = getelementptr inbounds %"class.facebook::velox::memory::MemoryAllocator", ptr %this1, i32 0, i32 7
  %sizeClassSizes_ = getelementptr inbounds %"class.facebook::velox::memory::MemoryAllocator", ptr %this1, i32 0, i32 2
  %sizeIndices = getelementptr inbounds %"struct.facebook::velox::memory::MemoryAllocator::SizeMix", ptr %mix, i32 0, i32 0
  %460 = load i32, ptr %i, align 4
  %conv251 = sext i32 %460 to i64
  %call252 = call noundef nonnull align 4 dereferenceable(4) ptr @_ZNKSt5arrayIiLm12EEixEm(ptr noundef nonnull align 4 dereferenceable(48) %sizeIndices, i64 noundef %conv251) #21
  %461 = load i32, ptr %call252, align 4
  %conv253 = sext i32 %461 to i64
  %call254 = call noundef nonnull align 8 dereferenceable(8) ptr @_ZNKSt6vectorImSaImEEixEm(ptr noundef nonnull align 8 dereferenceable(24) %sizeClassSizes_, i64 noundef %conv253) #21
  %462 = load i64, ptr %call254, align 8
  store i64 %462, ptr %numPages.addr.i357, align 8
  %463 = load i64, ptr %numPages.addr.i357, align 8
  %mul.i358 = mul i64 %463, 4096
  %sizeCounts = getelementptr inbounds %"struct.facebook::velox::memory::MemoryAllocator::SizeMix", ptr %mix, i32 0, i32 1
  %464 = load i32, ptr %i, align 4
  %conv256 = sext i32 %464 to i64
  %call257 = call noundef nonnull align 4 dereferenceable(4) ptr @_ZNKSt5arrayIiLm12EEixEm(ptr noundef nonnull align 4 dereferenceable(48) %sizeCounts, i64 noundef %conv256) #21
  %465 = load i32, ptr %call257, align 4
  %466 = getelementptr inbounds %class.anon, ptr %agg.tmp258, i32 0, i32 0
  store ptr %success, ptr %466, align 8
  %467 = getelementptr inbounds %class.anon, ptr %agg.tmp258, i32 0, i32 1
  store ptr %this1, ptr %467, align 8
  %468 = getelementptr inbounds %class.anon, ptr %agg.tmp258, i32 0, i32 2
  store ptr %mix, ptr %468, align 8
  %469 = getelementptr inbounds %class.anon, ptr %agg.tmp258, i32 0, i32 3
  store ptr %i, ptr %469, align 8
  %470 = getelementptr inbounds %class.anon, ptr %agg.tmp258, i32 0, i32 4
  store ptr %newMapsNeeded, ptr %470, align 8
  %471 = getelementptr inbounds %class.anon, ptr %agg.tmp258, i32 0, i32 5
  %472 = load ptr, ptr %out.addr, align 8
  store ptr %472, ptr %471, align 8
  call void @"_ZN8facebook5velox6memory5Stats14recordAllocateIZNS1_13MmapAllocator33allocateNonContiguousWithoutRetryEmRNS1_10AllocationESt8functionIFvlbEEmE3$_0EEvliT_"(ptr noundef nonnull align 8 dereferenceable(808) %stats_, i64 noundef %mul.i358, i32 noundef %465, ptr noundef byval(%class.anon) align 8 %agg.tmp258)
  %473 = load i8, ptr %success, align 1
  %tobool259 = trunc i8 %473 to i1
  br i1 %tobool259, label %land.lhs.true260, label %if.end268

land.lhs.true260:                                 ; preds = %for.body250
  %474 = load i32, ptr %i, align 4
  %cmp261 = icmp sgt i32 %474, 0
  br i1 %cmp261, label %land.lhs.true265, label %lor.lhs.false262

lor.lhs.false262:                                 ; preds = %land.lhs.true260
  %numSizes263 = getelementptr inbounds %"struct.facebook::velox::memory::MemoryAllocator::SizeMix", ptr %mix, i32 0, i32 2
  %475 = load i32, ptr %numSizes263, align 4
  %cmp264 = icmp eq i32 %475, 1
  br i1 %cmp264, label %land.lhs.true265, label %if.end268

land.lhs.true265:                                 ; preds = %lor.lhs.false262, %land.lhs.true260
  store ptr %this1, ptr %this.addr.i399, align 8
  store i32 3, ptr %failure.addr.i, align 4
  %this1.i400 = load ptr, ptr %this.addr.i399, align 8
  %injectedFailure_.i = getelementptr inbounds %"class.facebook::velox::memory::MemoryAllocator", ptr %this1.i400, i32 0, i32 5
  %476 = load i32, ptr %injectedFailure_.i, align 8
  %477 = load i32, ptr %failure.addr.i, align 4
  %cmp.i = icmp ne i32 %476, %477
  br i1 %cmp.i, label %if.then.i, label %if.end.i

if.then.i:                                        ; preds = %land.lhs.true265
  store i1 false, ptr %retval.i, align 1
  br label %_ZN8facebook5velox6memory15MemoryAllocator25testingHasInjectedFailureENS2_15InjectedFailureE.exit

if.end.i:                                         ; preds = %land.lhs.true265
  %isPersistentFailureInjection_.i = getelementptr inbounds %"class.facebook::velox::memory::MemoryAllocator", ptr %this1.i400, i32 0, i32 6
  %478 = load i8, ptr %isPersistentFailureInjection_.i, align 4
  %tobool.i = trunc i8 %478 to i1
  br i1 %tobool.i, label %if.end4.i, label %if.then2.i

if.then2.i:                                       ; preds = %if.end.i
  %injectedFailure_3.i = getelementptr inbounds %"class.facebook::velox::memory::MemoryAllocator", ptr %this1.i400, i32 0, i32 5
  store i32 0, ptr %injectedFailure_3.i, align 8
  br label %if.end4.i

if.end4.i:                                        ; preds = %if.then2.i, %if.end.i
  store i1 true, ptr %retval.i, align 1
  br label %_ZN8facebook5velox6memory15MemoryAllocator25testingHasInjectedFailureENS2_15InjectedFailureE.exit

_ZN8facebook5velox6memory15MemoryAllocator25testingHasInjectedFailureENS2_15InjectedFailureE.exit: ; preds = %if.end4.i, %if.then.i
  %479 = load i1, ptr %retval.i, align 1
  br i1 %479, label %if.then267, label %if.end268

if.then267:                                       ; preds = %_ZN8facebook5velox6memory15MemoryAllocator25testingHasInjectedFailureENS2_15InjectedFailureE.exit
  store i8 0, ptr %success, align 1
  br label %if.end268

if.end268:                                        ; preds = %if.then267, %_ZN8facebook5velox6memory15MemoryAllocator25testingHasInjectedFailureENS2_15InjectedFailureE.exit, %lor.lhs.false262, %for.body250
  %480 = load i8, ptr %success, align 1
  %tobool269 = trunc i8 %480 to i1
  br i1 %tobool269, label %if.end310, label %if.then270

if.then270:                                       ; preds = %if.end268
  store ptr %agg.tmp272, ptr %this.addr.i493, align 8
  store ptr @.str.7, ptr %s.addr.i494, align 8
  %this1.i495 = load ptr, ptr %this.addr.i493, align 8
  %481 = load ptr, ptr %s.addr.i494, align 8
  store ptr %this1.i495, ptr %this.addr.i532, align 8
  store ptr %481, ptr %s.addr.i533, align 8
  %this1.i534 = load ptr, ptr %this.addr.i532, align 8
  %482 = load ptr, ptr %s.addr.i533, align 8
  store ptr %482, ptr %this1.i534, align 8
  %size_.i535 = getelementptr inbounds %"class.fmt::v8::basic_string_view", ptr %this1.i534, i32 0, i32 1
  %483 = load ptr, ptr %s.addr.i533, align 8
  %call.i536 = call noundef i64 @_ZNSt11char_traitsIcE6lengthEPKc(ptr noundef %483)
  store i64 %call.i536, ptr %size_.i535, align 8
  %484 = load ptr, ptr %s.addr.i494, align 8
  store ptr %484, ptr %.addr.i725, align 8
  %sizeCounts273 = getelementptr inbounds %"struct.facebook::velox::memory::MemoryAllocator::SizeMix", ptr %mix, i32 0, i32 1
  %485 = load i32, ptr %i, align 4
  %conv274 = sext i32 %485 to i64
  %call275 = call noundef nonnull align 4 dereferenceable(4) ptr @_ZNKSt5arrayIiLm12EEixEm(ptr noundef nonnull align 4 dereferenceable(48) %sizeCounts273, i64 noundef %conv274) #21
  %486 = getelementptr inbounds { ptr, i64 }, ptr %agg.tmp272, i32 0, i32 0
  %487 = load ptr, ptr %486, align 8
  %488 = getelementptr inbounds { ptr, i64 }, ptr %agg.tmp272, i32 0, i32 1
  %489 = load i64, ptr %488, align 8
  call void @llvm.experimental.noalias.scope.decl(metadata !20)
  store ptr %errorMsg271, ptr %result.ptr.i485, align 8, !noalias !20
  store ptr %487, ptr %fmt.i486, align 8, !noalias !20
  %490 = getelementptr inbounds { ptr, i64 }, ptr %fmt.i486, i32 0, i32 1
  store i64 %489, ptr %490, align 8, !noalias !20
  store ptr %i, ptr %args.addr.i487, align 8, !noalias !20
  store ptr %call275, ptr %args.addr2.i488, align 8, !noalias !20
  store ptr %fmt.i486, ptr %this.addr.i720, align 8
  %this1.i721 = load ptr, ptr %this.addr.i720, align 8
  call void @llvm.memcpy.p0.p0.i64(ptr align 8 %retval.i719, ptr align 8 %this1.i721, i64 16, i1 false)
  %491 = load { ptr, i64 }, ptr %retval.i719, align 8
  %492 = extractvalue { ptr, i64 } %491, 0
  store ptr %492, ptr %agg.tmp.i489, align 8, !noalias !20
  %493 = getelementptr inbounds { ptr, i64 }, ptr %agg.tmp.i489, i32 0, i32 1
  %494 = extractvalue { ptr, i64 } %491, 1
  store i64 %494, ptr %493, align 8, !noalias !20
  %495 = load ptr, ptr %args.addr.i487, align 8, !noalias !20
  %496 = load ptr, ptr %args.addr2.i488, align 8, !noalias !20
  call void @_ZN3fmt2v816make_format_argsINS0_20basic_format_contextINS0_8appenderEcEEJRiRKiEEENS0_16format_arg_storeIT_JDpNSt9remove_cvINSt16remove_referenceIT0_E4typeEE4typeEEEEDpOSC_(ptr sret(%"class.fmt::v8::format_arg_store.54") align 16 %ref.tmp.i491, ptr noundef nonnull align 4 dereferenceable(4) %495, ptr noundef nonnull align 4 dereferenceable(4) %496)
  store ptr %agg.tmp3.i490, ptr %this.addr.i722, align 8
  store ptr %ref.tmp.i491, ptr %store.addr.i723, align 8
  %this1.i724 = load ptr, ptr %this.addr.i722, align 8
  %497 = load ptr, ptr %store.addr.i723, align 8
  store ptr %497, ptr %this.addr.i.i, align 8
  %this1.i.i = load ptr, ptr %this.addr.i.i, align 8
  store ptr %this1.i724, ptr %this.addr.i2.i, align 8
  store i64 17, ptr %desc.addr.i.i, align 8
  store ptr %this1.i.i, ptr %values.addr.i.i, align 8
  %this1.i3.i = load ptr, ptr %this.addr.i2.i, align 8
  %498 = load i64, ptr %desc.addr.i.i, align 8
  store i64 %498, ptr %this1.i3.i, align 8
  %499 = getelementptr inbounds %"class.fmt::v8::basic_format_args", ptr %this1.i3.i, i32 0, i32 1
  %500 = load ptr, ptr %values.addr.i.i, align 8
  store ptr %500, ptr %499, align 8
  %501 = load ptr, ptr %agg.tmp.i489, align 8, !noalias !20
  %502 = getelementptr inbounds { ptr, i64 }, ptr %agg.tmp.i489, i32 0, i32 1
  %503 = load i64, ptr %502, align 8, !noalias !20
  %504 = load i64, ptr %agg.tmp3.i490, align 8, !noalias !20
  %505 = getelementptr inbounds { i64, ptr }, ptr %agg.tmp3.i490, i32 0, i32 1
  %506 = load ptr, ptr %505, align 8, !noalias !20
  call void @_ZN3fmt2v87vformatB5cxx11ENS0_17basic_string_viewIcEENS0_17basic_format_argsINS0_20basic_format_contextINS0_8appenderEcEEEE(ptr sret(%"class.std::__cxx11::basic_string") align 8 %errorMsg271, ptr %501, i64 %503, i64 %504, ptr %506)
  invoke void @_ZN6google10LogMessageC1EPKcii(ptr noundef nonnull align 8 dereferenceable(16) %ref.tmp276, ptr noundef @.str.1, i32 noundef 139, i32 noundef 1)
          to label %invoke.cont278 unwind label %lpad277

invoke.cont278:                                   ; preds = %if.then270
  %call281 = invoke noundef nonnull align 8 dereferenceable(8) ptr @_ZN6google10LogMessage6streamEv(ptr noundef nonnull align 8 dereferenceable(16) %ref.tmp276)
          to label %invoke.cont280 unwind label %lpad279

invoke.cont280:                                   ; preds = %invoke.cont278
  %call283 = invoke noundef nonnull align 8 dereferenceable(8) ptr @_ZStlsISt11char_traitsIcEERSt13basic_ostreamIcT_ES5_PKc(ptr noundef nonnull align 8 dereferenceable(8) %call281, ptr noundef @.str.2)
          to label %invoke.cont282 unwind label %lpad279

invoke.cont282:                                   ; preds = %invoke.cont280
  %call285 = invoke noundef nonnull align 8 dereferenceable(8) ptr @_ZStlsIcSt11char_traitsIcESaIcEERSt13basic_ostreamIT_T0_ES7_RKNSt7__cxx1112basic_stringIS4_S5_T1_EE(ptr noundef nonnull align 8 dereferenceable(8) %call283, ptr noundef nonnull align 8 dereferenceable(32) %errorMsg271)
          to label %invoke.cont284 unwind label %lpad279

invoke.cont284:                                   ; preds = %invoke.cont282
  call void @_ZN6google10LogMessageD1Ev(ptr noundef nonnull align 8 dereferenceable(16) %ref.tmp276) #21
  invoke void @_ZNSt7__cxx1112basic_stringIcSt11char_traitsIcESaIcEEC1ERKS4_(ptr noundef nonnull align 8 dereferenceable(32) %agg.tmp287, ptr noundef nonnull align 8 dereferenceable(32) %errorMsg271)
          to label %invoke.cont288 unwind label %lpad277

invoke.cont288:                                   ; preds = %invoke.cont284
  invoke void @_ZN8facebook5velox6memory15MemoryAllocator26setAllocatorFailureMessageENSt7__cxx1112basic_stringIcSt11char_traitsIcESaIcEEE(ptr noundef nonnull align 8 dereferenceable(880) %this1, ptr noundef %agg.tmp287)
          to label %invoke.cont290 unwind label %lpad289

invoke.cont290:                                   ; preds = %invoke.cont288
  call void @_ZNSt7__cxx1112basic_stringIcSt11char_traitsIcESaIcEED1Ev(ptr noundef nonnull align 8 dereferenceable(32) %agg.tmp287) #21
  %totalPages292 = getelementptr inbounds %"struct.facebook::velox::memory::MemoryAllocator::SizeMix", ptr %mix, i32 0, i32 3
  %507 = load i32, ptr %totalPages292, align 4
  %conv293 = sext i32 %507 to i64
  %508 = load ptr, ptr %out.addr, align 8
  %call295 = invoke noundef i64 @_ZNK8facebook5velox6memory10Allocation8numPagesEv(ptr noundef nonnull align 8 dereferenceable(36) %508)
          to label %invoke.cont294 unwind label %lpad277

invoke.cont294:                                   ; preds = %invoke.cont290
  %sub296 = sub i64 %conv293, %call295
  store i64 %sub296, ptr %failedPages, align 8
  %509 = load ptr, ptr %out.addr, align 8
  %vtable = load ptr, ptr %this1, align 8
  %vfn = getelementptr inbounds ptr, ptr %vtable, i64 5
  %510 = load ptr, ptr %vfn, align 8
  %call298 = invoke noundef i64 %510(ptr noundef nonnull align 8 dereferenceable(1080) %this1, ptr noundef nonnull align 8 dereferenceable(36) %509)
          to label %invoke.cont297 unwind label %lpad277

invoke.cont297:                                   ; preds = %invoke.cont294
  %numAllocated_299 = getelementptr inbounds %"class.facebook::velox::memory::MemoryAllocator", ptr %this1, i32 0, i32 3
  %511 = load i64, ptr %failedPages, align 8
  store ptr %numAllocated_299, ptr %this.addr.i, align 8
  store i64 %511, ptr %__i.addr.i, align 8
  store i32 5, ptr %__m.addr.i, align 4
  %this1.i = load ptr, ptr %this.addr.i, align 8
  %512 = load i32, ptr %__m.addr.i, align 4
  %513 = load i64, ptr %__i.addr.i, align 8
  store i64 %513, ptr %.atomictmp.i, align 8
  switch i32 %512, label %monotonic.i [
    i32 1, label %acquire.i
    i32 2, label %acquire.i
    i32 3, label %release.i
    i32 4, label %acqrel.i
    i32 5, label %seqcst.i
  ]

monotonic.i:                                      ; preds = %invoke.cont297
  %514 = load i64, ptr %.atomictmp.i, align 8
  %515 = atomicrmw sub ptr %this1.i, i64 %514 monotonic, align 8
  store i64 %515, ptr %atomic-temp.i, align 8
  br label %_ZNSt13__atomic_baseImE9fetch_subEmSt12memory_order.exit

acquire.i:                                        ; preds = %invoke.cont297, %invoke.cont297
  %516 = load i64, ptr %.atomictmp.i, align 8
  %517 = atomicrmw sub ptr %this1.i, i64 %516 acquire, align 8
  store i64 %517, ptr %atomic-temp.i, align 8
  br label %_ZNSt13__atomic_baseImE9fetch_subEmSt12memory_order.exit

release.i:                                        ; preds = %invoke.cont297
  %518 = load i64, ptr %.atomictmp.i, align 8
  %519 = atomicrmw sub ptr %this1.i, i64 %518 release, align 8
  store i64 %519, ptr %atomic-temp.i, align 8
  br label %_ZNSt13__atomic_baseImE9fetch_subEmSt12memory_order.exit

acqrel.i:                                         ; preds = %invoke.cont297
  %520 = load i64, ptr %.atomictmp.i, align 8
  %521 = atomicrmw sub ptr %this1.i, i64 %520 acq_rel, align 8
  store i64 %521, ptr %atomic-temp.i, align 8
  br label %_ZNSt13__atomic_baseImE9fetch_subEmSt12memory_order.exit

seqcst.i:                                         ; preds = %invoke.cont297
  %522 = load i64, ptr %.atomictmp.i, align 8
  %523 = atomicrmw sub ptr %this1.i, i64 %522 seq_cst, align 8
  store i64 %523, ptr %atomic-temp.i, align 8
  br label %_ZNSt13__atomic_baseImE9fetch_subEmSt12memory_order.exit

_ZNSt13__atomic_baseImE9fetch_subEmSt12memory_order.exit: ; preds = %seqcst.i, %acqrel.i, %release.i, %acquire.i, %monotonic.i
  %call301 = call noundef zeroext i1 @_ZStneIvJlbEEbRKSt8functionIFT_DpT0_EEDn(ptr noundef nonnull align 8 dereferenceable(32) %reservationCB, ptr null) #21
  br i1 %call301, label %if.then302, label %if.end308

if.then302:                                       ; preds = %_ZNSt13__atomic_baseImE9fetch_subEmSt12memory_order.exit
  %totalPages303 = getelementptr inbounds %"struct.facebook::velox::memory::MemoryAllocator::SizeMix", ptr %mix, i32 0, i32 3
  %524 = load i32, ptr %totalPages303, align 4
  %conv304 = sext i32 %524 to i64
  store i64 %conv304, ptr %numPages.addr.i355, align 8
  %525 = load i64, ptr %numPages.addr.i355, align 8
  %mul.i356 = mul i64 %525, 4096
  br label %invoke.cont305

invoke.cont305:                                   ; preds = %if.then302
