target datalayout = "e-m:e-p270:32:32-p271:32:32-p272:64:64-i64:64-i128:128-f80:128-n8:16:32:64-S128"
target triple = "x86_64-unknown-linux-gnu"

%"class.std::shared_ptr" = type { %"class.std::__shared_ptr" }
%"class.std::__shared_ptr" = type { ptr, %"class.std::__shared_count" }
%"class.std::__shared_count" = type { ptr }
%"class.fmt::v8::basic_string_view" = type { ptr, i64 }
%"class.fmt::v8::basic_format_string" = type { %"class.fmt::v8::basic_string_view" }
%"class.fmt::v8::basic_format_args" = type { i64, %union.anon.43 }
%union.anon.43 = type { ptr }
%"class.fmt::v8::format_arg_store" = type { %"struct.fmt::v8::detail::arg_data" }
%"struct.fmt::v8::detail::arg_data" = type { [1 x %"class.fmt::v8::detail::value"] }
%"class.fmt::v8::detail::value" = type { %union.anon.44 }
%union.anon.44 = type { i128 }
%"class.std::vector.0" = type { %"struct.std::_Vector_base.1" }
%"struct.std::_Vector_base.1" = type { %"struct.std::_Vector_base<std::__cxx11::basic_string<char>, std::allocator<std::__cxx11::basic_string<char>>>::_Vector_impl" }
%"struct.std::_Vector_base<std::__cxx11::basic_string<char>, std::allocator<std::__cxx11::basic_string<char>>>::_Vector_impl" = type { %"struct.std::_Vector_base<std::__cxx11::basic_string<char>, std::allocator<std::__cxx11::basic_string<char>>>::_Vector_impl_data" }
%"struct.std::_Vector_base<std::__cxx11::basic_string<char>, std::allocator<std::__cxx11::basic_string<char>>>::_Vector_impl_data" = type { ptr, ptr, ptr }
%"class.std::allocator.2" = type { i8 }
%"class.std::vector" = type { %"struct.std::_Vector_base" }
%"struct.std::_Vector_base" = type { %"struct.std::_Vector_base<std::shared_ptr<const facebook::velox::Type>, std::allocator<std::shared_ptr<const facebook::velox::Type>>>::_Vector_impl" }
%"struct.std::_Vector_base<std::shared_ptr<const facebook::velox::Type>, std::allocator<std::shared_ptr<const facebook::velox::Type>>>::_Vector_impl" = type { %"struct.std::_Vector_base<std::shared_ptr<const facebook::velox::Type>, std::allocator<std::shared_ptr<const facebook::velox::Type>>>::_Vector_impl_data" }
%"struct.std::_Vector_base<std::shared_ptr<const facebook::velox::Type>, std::allocator<std::shared_ptr<const facebook::velox::Type>>>::_Vector_impl_data" = type { ptr, ptr, ptr }
%"class.std::allocator" = type { i8 }
%"class.std::__cxx11::basic_string" = type { %"struct.std::__cxx11::basic_string<char>::_Alloc_hider", i64, %union.anon }
%"struct.std::__cxx11::basic_string<char>::_Alloc_hider" = type { ptr }
%union.anon = type { i64, [8 x i8] }
%"class.std::shared_ptr.8" = type { %"class.std::__shared_ptr.9" }
%"class.std::__shared_ptr.9" = type { ptr, %"class.std::__shared_count" }
%"class.std::shared_ptr.11" = type { %"class.std::__shared_ptr.12" }
%"class.std::__shared_ptr.12" = type { ptr, %"class.std::__shared_count" }
%"class.std::shared_ptr.14" = type { %"class.std::__shared_ptr.15" }
%"class.std::__shared_ptr.15" = type { ptr, %"class.std::__shared_count" }
%class.anon = type { ptr }
%"class.folly::LockedPtr" = type { %"class.std::shared_lock" }
%"class.std::shared_lock" = type <{ ptr, i8, [7 x i8] }>
%"class.std::allocator.55" = type { i8 }
%"struct.std::_Sp_alloc_shared_tag" = type { ptr }
%"class.std::_Sp_counted_base" = type { ptr, i32, i32 }
%"struct.std::__detail::_Node_const_iterator" = type { %"struct.std::__detail::_Node_iterator_base" }
%"struct.std::__detail::_Node_iterator_base" = type { ptr }
%"class.std::allocator.5" = type { i8 }
%"class.std::vector.35" = type { %"struct.std::_Vector_base.36" }
%"struct.std::_Vector_base.36" = type { %"struct.std::_Vector_base<facebook::velox::exec::VectorFunctionArg, std::allocator<facebook::velox::exec::VectorFunctionArg>>::_Vector_impl" }
%"struct.std::_Vector_base<facebook::velox::exec::VectorFunctionArg, std::allocator<facebook::velox::exec::VectorFunctionArg>>::_Vector_impl" = type { %"struct.std::_Vector_base<facebook::velox::exec::VectorFunctionArg, std::allocator<facebook::velox::exec::VectorFunctionArg>>::_Vector_impl_data" }
%"struct.std::_Vector_base<facebook::velox::exec::VectorFunctionArg, std::allocator<facebook::velox::exec::VectorFunctionArg>>::_Vector_impl_data" = type { ptr, ptr, ptr }
%"struct.std::pair" = type { %"class.std::__cxx11::basic_string", %"struct.facebook::velox::exec::VectorFunctionEntry" }
%"struct.facebook::velox::exec::VectorFunctionEntry" = type <{ %"class.std::vector.30", %"class.std::function", %"struct.facebook::velox::exec::VectorFunctionMetadata", [7 x i8] }>
%"class.std::vector.30" = type { %"struct.std::_Vector_base.31" }
%"struct.std::_Vector_base.31" = type { %"struct.std::_Vector_base<std::shared_ptr<facebook::velox::exec::FunctionSignature>, std::allocator<std::shared_ptr<facebook::velox::exec::FunctionSignature>>>::_Vector_impl" }
%"struct.std::_Vector_base<std::shared_ptr<facebook::velox::exec::FunctionSignature>, std::allocator<std::shared_ptr<facebook::velox::exec::FunctionSignature>>>::_Vector_impl" = type { %"struct.std::_Vector_base<std::shared_ptr<facebook::velox::exec::FunctionSignature>, std::allocator<std::shared_ptr<facebook::velox::exec::FunctionSignature>>>::_Vector_impl_data" }
%"struct.std::_Vector_base<std::shared_ptr<facebook::velox::exec::FunctionSignature>, std::allocator<std::shared_ptr<facebook::velox::exec::FunctionSignature>>>::_Vector_impl_data" = type { ptr, ptr, ptr }
%"class.std::function" = type { %"class.std::_Function_base", ptr }
%"class.std::_Function_base" = type { %"union.std::_Any_data", ptr }
%"union.std::_Any_data" = type { %"union.std::_Nocopy_types" }
%"union.std::_Nocopy_types" = type { { i64, i64 } }
%"struct.facebook::velox::exec::VectorFunctionMetadata" = type { i8 }
%"struct.folly::Synchronized" = type <{ %"class.std::unordered_map", %"class.folly::SharedMutexImpl", [4 x i8] }>
%"class.std::unordered_map" = type { %"class.std::_Hashtable" }
%"class.std::_Hashtable" = type { ptr, i64, %"struct.std::__detail::_Hash_node_base", i64, %"struct.std::__detail::_Prime_rehash_policy", ptr }
%"struct.std::__detail::_Hash_node_base" = type { ptr }
%"struct.std::__detail::_Prime_rehash_policy" = type { float, i64 }
%"class.folly::SharedMutexImpl" = type { %"struct.std::atomic" }
%"struct.std::atomic" = type { %"struct.std::__atomic_base" }
%"struct.std::__atomic_base" = type { i32 }
%"struct.std::__detail::_Select1st" = type { i8 }
%"struct.std::__detail::_Hash_node_value_base" = type { %"struct.__gnu_cxx::__aligned_buffer" }
%"struct.__gnu_cxx::__aligned_buffer" = type { %"union.std::aligned_storage<96, 8>::type" }
%"union.std::aligned_storage<96, 8>::type" = type { [96 x i8] }
%"struct.std::__detail::_Mod_range_hashing" = type { i8 }
%"struct.std::__detail::_Hash_node_code_cache" = type { i64 }
%struct._Guard = type { ptr }
%"struct.facebook::velox::exec::VectorFunctionArg" = type { %"class.std::shared_ptr", %"class.std::shared_ptr.40" }
%"class.std::shared_ptr.40" = type { %"class.std::__shared_ptr.41" }
%"class.std::__shared_ptr.41" = type { ptr, %"class.std::__shared_count" }
%"struct.fmt::v8::detail::arg_mapper" = type { i8 }
%"class.std::allocator.56" = type { i8 }
%"struct.std::__allocated_ptr" = type { ptr, ptr }
%"class.std::_Sp_counted_ptr_inplace" = type { %"class.std::_Sp_counted_base", %"class.std::_Sp_counted_ptr_inplace<facebook::velox::exec::Expr, std::allocator<void>, __gnu_cxx::_S_atomic>::_Impl" }
%"class.std::_Sp_counted_ptr_inplace<facebook::velox::exec::Expr, std::allocator<void>, __gnu_cxx::_S_atomic>::_Impl" = type { %"struct.__gnu_cxx::__aligned_buffer.59" }
%"struct.__gnu_cxx::__aligned_buffer.59" = type { %"union.std::aligned_storage<448, 8>::type" }
%"union.std::aligned_storage<448, 8>::type" = type { [448 x i8] }
%"class.std::type_info" = type { ptr, ptr }

$_ZNKSt6vectorISt10shared_ptrIKN8facebook5velox4TypeEESaIS5_EE4sizeEv = comdat any

$_ZNSaINSt7__cxx1112basic_stringIcSt11char_traitsIcESaIcEEEEC2Ev = comdat any

$_ZNSt6vectorINSt7__cxx1112basic_stringIcSt11char_traitsIcESaIcEEESaIS5_EEC2EmRKS6_ = comdat any

$_ZNSaINSt7__cxx1112basic_stringIcSt11char_traitsIcESaIcEEEED2Ev = comdat any

$_ZNSaISt10shared_ptrIKN8facebook5velox4TypeEEEC2Ev = comdat any

$_ZNSt6vectorISt10shared_ptrIKN8facebook5velox4TypeEESaIS5_EEC2EmRKS6_ = comdat any

$_ZNSaISt10shared_ptrIKN8facebook5velox4TypeEEED2Ev = comdat any

$_ZNKSt6vectorISt10shared_ptrIKN8facebook5velox4TypeEESaIS5_EEixEm = comdat any

$_ZNSt6vectorISt10shared_ptrIKN8facebook5velox4TypeEESaIS5_EEixEm = comdat any

$_ZNSt10shared_ptrIKN8facebook5velox4TypeEEaSERKS4_ = comdat any

$_ZNSt6vectorINSt7__cxx1112basic_stringIcSt11char_traitsIcESaIcEEESaIS5_EEixEm = comdat any

$_ZNSt10shared_ptrIKN8facebook5velox4TypeEEC2IKNS1_7RowTypeEvEEOS_IT_E = comdat any

$_ZNSt10shared_ptrIKN8facebook5velox7RowTypeEED2Ev = comdat any

$_ZNSt6vectorISt10shared_ptrIKN8facebook5velox4TypeEESaIS5_EED2Ev = comdat any

$_ZNSt6vectorINSt7__cxx1112basic_stringIcSt11char_traitsIcESaIcEEESaIS5_EED2Ev = comdat any

$_ZSt11make_sharedIN8facebook5velox4exec4ExprEJRKSt10shared_ptrIKNS1_4TypeEESt6vectorIS4_IS3_ESaISB_EERS4_INS2_14VectorFunctionEERKPKcRbEES4_INSt9enable_ifIXntsr8is_arrayIT_EE5valueESN_E4typeEEDpOT0_ = comdat any

$_ZNSt10shared_ptrIN8facebook5velox4exec14VectorFunctionEED2Ev = comdat any

$_ZN8facebook5velox4exec31RowConstructorCallToSpecialFormD2Ev = comdat any

$_ZN8facebook5velox4exec31RowConstructorCallToSpecialFormD0Ev = comdat any

$_ZNSt12__shared_ptrIKN8facebook5velox4TypeELN9__gnu_cxx12_Lock_policyE2EEaSERKS6_ = comdat any

$_ZNSt14__shared_countILN9__gnu_cxx12_Lock_policyE2EEaSERKS2_ = comdat any

$_ZNSt16_Sp_counted_baseILN9__gnu_cxx12_Lock_policyE2EE15_M_add_ref_copyEv = comdat any

$__clang_call_terminate = comdat any

$_ZNSt16_Sp_counted_baseILN9__gnu_cxx12_Lock_policyE2EE10_M_releaseEv = comdat any

$_ZNSt16_Sp_counted_baseILN9__gnu_cxx12_Lock_policyE2EE24_M_release_last_use_coldEv = comdat any

$_ZNSt16_Sp_counted_baseILN9__gnu_cxx12_Lock_policyE2EE19_M_release_last_useEv = comdat any

$_ZNSt12__shared_ptrIKN8facebook5velox7RowTypeELN9__gnu_cxx12_Lock_policyE2EED2Ev = comdat any

$_ZNSt14__shared_countILN9__gnu_cxx12_Lock_policyE2EED2Ev = comdat any

$_ZNK5folly16SynchronizedBaseINS_12SynchronizedISt13unordered_mapINSt7__cxx1112basic_stringIcSt11char_traitsIcESaIcEEEN8facebook5velox4exec19VectorFunctionEntryESt4hashIS8_ESt8equal_toIS8_ESaISt4pairIKS8_SC_EEENS_15SharedMutexImplILb0EvSt6atomicNS_24SharedMutexPolicyDefaultEEEEELNS_6detail22SynchronizedMutexLevelE2EE5rlockEv = comdat any

$_ZNK5folly9LockedPtrIKNS_12SynchronizedISt13unordered_mapINSt7__cxx1112basic_stringIcSt11char_traitsIcESaIcEEEN8facebook5velox4exec19VectorFunctionEntryESt4hashIS8_ESt8equal_toIS8_ESaISt4pairIKS8_SC_EEENS_15SharedMutexImplILb0EvSt6atomicNS_24SharedMutexPolicyDefaultEEEEENS_6detail22SynchronizedLockPolicyILNSS_22SynchronizedMutexLevelE2ELNSS_23SynchronizedMutexMethodE0EEEEdeEv = comdat any

$_ZN5folly9LockedPtrIKNS_12SynchronizedISt13unordered_mapINSt7__cxx1112basic_stringIcSt11char_traitsIcESaIcEEEN8facebook5velox4exec19VectorFunctionEntryESt4hashIS8_ESt8equal_toIS8_ESaISt4pairIKS8_SC_EEENS_15SharedMutexImplILb0EvSt6atomicNS_24SharedMutexPolicyDefaultEEEEENS_6detail22SynchronizedLockPolicyILNSS_22SynchronizedMutexLevelE2ELNSS_23SynchronizedMutexMethodE0EEEED2Ev = comdat any

$_ZNKSt13unordered_mapINSt7__cxx1112basic_stringIcSt11char_traitsIcESaIcEEEN8facebook5velox4exec19VectorFunctionEntryESt4hashIS5_ESt8equal_toIS5_ESaISt4pairIKS5_S9_EEE4findERSF_ = comdat any

$_ZNSt7__cxx1112basic_stringIcSt11char_traitsIcESaIcEEC2IS3_EEPKcRKS3_ = comdat any

$_ZNSt8__detailneERKNS_19_Node_iterator_baseISt4pairIKNSt7__cxx1112basic_stringIcSt11char_traitsIcESaIcEEEN8facebook5velox4exec19VectorFunctionEntryEELb1EEESG_ = comdat any

$_ZNKSt13unordered_mapINSt7__cxx1112basic_stringIcSt11char_traitsIcESaIcEEEN8facebook5velox4exec19VectorFunctionEntryESt4hashIS5_ESt8equal_toIS5_ESaISt4pairIKS5_S9_EEE3endEv = comdat any

$_ZNKSt8__detail20_Node_const_iteratorISt4pairIKNSt7__cxx1112basic_stringIcSt11char_traitsIcESaIcEEEN8facebook5velox4exec19VectorFunctionEntryEELb0ELb1EEptEv = comdat any

$_ZNKSt8functionIFSt10shared_ptrIN8facebook5velox4exec14VectorFunctionEERKNSt7__cxx1112basic_stringIcSt11char_traitsIcESaIcEEERKSt6vectorINS3_17VectorFunctionArgESaISF_EERKNS2_4core11QueryConfigEEEclESD_SJ_SN_ = comdat any

$_ZNSt6vectorIN8facebook5velox4exec17VectorFunctionArgESaIS3_EEC2Ev = comdat any

$_ZNSt6vectorIN8facebook5velox4exec17VectorFunctionArgESaIS3_EED2Ev = comdat any

$_ZNKSt10_HashtableINSt7__cxx1112basic_stringIcSt11char_traitsIcESaIcEEESt4pairIKS5_N8facebook5velox4exec19VectorFunctionEntryEESaISC_ENSt8__detail10_Select1stESt8equal_toIS5_ESt4hashIS5_ENSE_18_Mod_range_hashingENSE_20_Default_ranged_hashENSE_20_Prime_rehash_policyENSE_17_Hashtable_traitsILb1ELb0ELb1EEEE4findERS7_ = comdat any

$_ZNKSt10_HashtableINSt7__cxx1112basic_stringIcSt11char_traitsIcESaIcEEESt4pairIKS5_N8facebook5velox4exec19VectorFunctionEntryEESaISC_ENSt8__detail10_Select1stESt8equal_toIS5_ESt4hashIS5_ENSE_18_Mod_range_hashingENSE_20_Default_ranged_hashENSE_20_Prime_rehash_policyENSE_17_Hashtable_traitsILb1ELb0ELb1EEEE4sizeEv = comdat any

$_ZNSt10_HashtableINSt7__cxx1112basic_stringIcSt11char_traitsIcESaIcEEESt4pairIKS5_N8facebook5velox4exec19VectorFunctionEntryEESaISC_ENSt8__detail10_Select1stESt8equal_toIS5_ESt4hashIS5_ENSE_18_Mod_range_hashingENSE_20_Default_ranged_hashENSE_20_Prime_rehash_policyENSE_17_Hashtable_traitsILb1ELb0ELb1EEEE22__small_size_thresholdEv = comdat any

$_ZNKSt10_HashtableINSt7__cxx1112basic_stringIcSt11char_traitsIcESaIcEEESt4pairIKS5_N8facebook5velox4exec19VectorFunctionEntryEESaISC_ENSt8__detail10_Select1stESt8equal_toIS5_ESt4hashIS5_ENSE_18_Mod_range_hashingENSE_20_Default_ranged_hashENSE_20_Prime_rehash_policyENSE_17_Hashtable_traitsILb1ELb0ELb1EEEE5beginEv = comdat any

$_ZNKSt10_HashtableINSt7__cxx1112basic_stringIcSt11char_traitsIcESaIcEEESt4pairIKS5_N8facebook5velox4exec19VectorFunctionEntryEESaISC_ENSt8__detail10_Select1stESt8equal_toIS5_ESt4hashIS5_ENSE_18_Mod_range_hashingENSE_20_Default_ranged_hashENSE_20_Prime_rehash_policyENSE_17_Hashtable_traitsILb1ELb0ELb1EEEE3endEv = comdat any

$_ZNKSt8__detail15_Hashtable_baseINSt7__cxx1112basic_stringIcSt11char_traitsIcESaIcEEESt4pairIKS6_N8facebook5velox4exec19VectorFunctionEntryEENS_10_Select1stESt8equal_toIS6_ESt4hashIS6_ENS_18_Mod_range_hashingENS_20_Default_ranged_hashENS_17_Hashtable_traitsILb1ELb0ELb1EEEE13_M_key_equalsERS8_RKNS_16_Hash_node_valueISD_Lb1EEE = comdat any

$_ZNSt8__detail20_Node_const_iteratorISt4pairIKNSt7__cxx1112basic_stringIcSt11char_traitsIcESaIcEEEN8facebook5velox4exec19VectorFunctionEntryEELb0ELb1EEppEv = comdat any

$_ZNKSt8__detail15_Hash_code_baseINSt7__cxx1112basic_stringIcSt11char_traitsIcESaIcEEESt4pairIKS6_N8facebook5velox4exec19VectorFunctionEntryEENS_10_Select1stESt4hashIS6_ENS_18_Mod_range_hashingENS_20_Default_ranged_hashELb1EE12_M_hash_codeERS8_ = comdat any

$_ZNKSt10_HashtableINSt7__cxx1112basic_stringIcSt11char_traitsIcESaIcEEESt4pairIKS5_N8facebook5velox4exec19VectorFunctionEntryEESaISC_ENSt8__detail10_Select1stESt8equal_toIS5_ESt4hashIS5_ENSE_18_Mod_range_hashingENSE_20_Default_ranged_hashENSE_20_Prime_rehash_policyENSE_17_Hashtable_traitsILb1ELb0ELb1EEEE15_M_bucket_indexEm = comdat any

$_ZNKSt10_HashtableINSt7__cxx1112basic_stringIcSt11char_traitsIcESaIcEEESt4pairIKS5_N8facebook5velox4exec19VectorFunctionEntryEESaISC_ENSt8__detail10_Select1stESt8equal_toIS5_ESt4hashIS5_ENSE_18_Mod_range_hashingENSE_20_Default_ranged_hashENSE_20_Prime_rehash_policyENSE_17_Hashtable_traitsILb1ELb0ELb1EEEE12_M_find_nodeEmRS7_m = comdat any

$_ZNSt8__detail20_Node_const_iteratorISt4pairIKNSt7__cxx1112basic_stringIcSt11char_traitsIcESaIcEEEN8facebook5velox4exec19VectorFunctionEntryEELb0ELb1EEC2EPNS_10_Hash_nodeISD_Lb1EEE = comdat any

$_ZNSt8__detail22_Hashtable_hash_traitsISt4hashINSt7__cxx1112basic_stringIcSt11char_traitsIcESaIcEEEEE22__small_size_thresholdEv = comdat any

$_ZNKSt10_HashtableINSt7__cxx1112basic_stringIcSt11char_traitsIcESaIcEEESt4pairIKS5_N8facebook5velox4exec19VectorFunctionEntryEESaISC_ENSt8__detail10_Select1stESt8equal_toIS5_ESt4hashIS5_ENSE_18_Mod_range_hashingENSE_20_Default_ranged_hashENSE_20_Prime_rehash_policyENSE_17_Hashtable_traitsILb1ELb0ELb1EEEE8_M_beginEv = comdat any

$_ZNKSt8__detail15_Hashtable_baseINSt7__cxx1112basic_stringIcSt11char_traitsIcESaIcEEESt4pairIKS6_N8facebook5velox4exec19VectorFunctionEntryEENS_10_Select1stESt8equal_toIS6_ESt4hashIS6_ENS_18_Mod_range_hashingENS_20_Default_ranged_hashENS_17_Hashtable_traitsILb1ELb0ELb1EEEE5_M_eqEv = comdat any

$_ZNKSt8equal_toINSt7__cxx1112basic_stringIcSt11char_traitsIcESaIcEEEEclERKS5_S8_ = comdat any

$_ZNKSt8__detail10_Select1stclIRKSt4pairIKNSt7__cxx1112basic_stringIcSt11char_traitsIcESaIcEEEN8facebook5velox4exec19VectorFunctionEntryEEEEONS0_10__1st_typeIT_E4typeEOSI_ = comdat any

$_ZNKSt8__detail21_Hash_node_value_baseISt4pairIKNSt7__cxx1112basic_stringIcSt11char_traitsIcESaIcEEEN8facebook5velox4exec19VectorFunctionEntryEEE4_M_vEv = comdat any

$_ZNKSt8__detail21_Hashtable_ebo_helperILi0ESt8equal_toINSt7__cxx1112basic_stringIcSt11char_traitsIcESaIcEEEELb1EE7_M_cgetEv = comdat any

$_ZSteqIcEN9__gnu_cxx11__enable_ifIXsr9__is_charIT_EE7__valueEbE6__typeERKNSt7__cxx1112basic_stringIS2_St11char_traitsIS2_ESaIS2_EEESC_ = comdat any

$_ZNSt11char_traitsIcE7compareEPKcS2_m = comdat any

$_ZNKSt8__detail21_Hash_node_value_baseISt4pairIKNSt7__cxx1112basic_stringIcSt11char_traitsIcESaIcEEEN8facebook5velox4exec19VectorFunctionEntryEEE9_M_valptrEv = comdat any

$_ZNK9__gnu_cxx16__aligned_bufferISt4pairIKNSt7__cxx1112basic_stringIcSt11char_traitsIcESaIcEEEN8facebook5velox4exec19VectorFunctionEntryEEE6_M_ptrEv = comdat any

$_ZNK9__gnu_cxx16__aligned_bufferISt4pairIKNSt7__cxx1112basic_stringIcSt11char_traitsIcESaIcEEEN8facebook5velox4exec19VectorFunctionEntryEEE7_M_addrEv = comdat any

$_ZNSt8__detail19_Node_iterator_baseISt4pairIKNSt7__cxx1112basic_stringIcSt11char_traitsIcESaIcEEEN8facebook5velox4exec19VectorFunctionEntryEELb1EE7_M_incrEv = comdat any

$_ZNKSt8__detail10_Hash_nodeISt4pairIKNSt7__cxx1112basic_stringIcSt11char_traitsIcESaIcEEEN8facebook5velox4exec19VectorFunctionEntryEELb1EE7_M_nextEv = comdat any

$_ZNKSt8__detail15_Hash_code_baseINSt7__cxx1112basic_stringIcSt11char_traitsIcESaIcEEESt4pairIKS6_N8facebook5velox4exec19VectorFunctionEntryEENS_10_Select1stESt4hashIS6_ENS_18_Mod_range_hashingENS_20_Default_ranged_hashELb1EE7_M_hashEv = comdat any

$_ZNKSt4hashINSt7__cxx1112basic_stringIcSt11char_traitsIcESaIcEEEEclERKS5_ = comdat any

$_ZNKSt8__detail21_Hashtable_ebo_helperILi1ESt4hashINSt7__cxx1112basic_stringIcSt11char_traitsIcESaIcEEEELb1EE7_M_cgetEv = comdat any

$_ZNSt10_Hash_impl4hashEPKvmm = comdat any

$_ZNKSt8__detail15_Hash_code_baseINSt7__cxx1112basic_stringIcSt11char_traitsIcESaIcEEESt4pairIKS6_N8facebook5velox4exec19VectorFunctionEntryEENS_10_Select1stESt4hashIS6_ENS_18_Mod_range_hashingENS_20_Default_ranged_hashELb1EE15_M_bucket_indexEmm = comdat any

$_ZNKSt8__detail18_Mod_range_hashingclEmm = comdat any

$_ZNKSt10_HashtableINSt7__cxx1112basic_stringIcSt11char_traitsIcESaIcEEESt4pairIKS5_N8facebook5velox4exec19VectorFunctionEntryEESaISC_ENSt8__detail10_Select1stESt8equal_toIS5_ESt4hashIS5_ENSE_18_Mod_range_hashingENSE_20_Default_ranged_hashENSE_20_Prime_rehash_policyENSE_17_Hashtable_traitsILb1ELb0ELb1EEEE19_M_find_before_nodeEmRS7_m = comdat any

$_ZNKSt8__detail15_Hashtable_baseINSt7__cxx1112basic_stringIcSt11char_traitsIcESaIcEEESt4pairIKS6_N8facebook5velox4exec19VectorFunctionEntryEENS_10_Select1stESt8equal_toIS6_ESt4hashIS6_ENS_18_Mod_range_hashingENS_20_Default_ranged_hashENS_17_Hashtable_traitsILb1ELb0ELb1EEEE9_M_equalsERS8_mRKNS_16_Hash_node_valueISD_Lb1EEE = comdat any

$_ZNKSt10_HashtableINSt7__cxx1112basic_stringIcSt11char_traitsIcESaIcEEESt4pairIKS5_N8facebook5velox4exec19VectorFunctionEntryEESaISC_ENSt8__detail10_Select1stESt8equal_toIS5_ESt4hashIS5_ENSE_18_Mod_range_hashingENSE_20_Default_ranged_hashENSE_20_Prime_rehash_policyENSE_17_Hashtable_traitsILb1ELb0ELb1EEEE15_M_bucket_indexERKNSE_16_Hash_node_valueISC_Lb1EEE = comdat any

$_ZNSt8__detail15_Hashtable_baseINSt7__cxx1112basic_stringIcSt11char_traitsIcESaIcEEESt4pairIKS6_N8facebook5velox4exec19VectorFunctionEntryEENS_10_Select1stESt8equal_toIS6_ESt4hashIS6_ENS_18_Mod_range_hashingENS_20_Default_ranged_hashENS_17_Hashtable_traitsILb1ELb0ELb1EEEE9_S_equalsEmRKNS_21_Hash_node_code_cacheILb1EEE = comdat any

$_ZNKSt8__detail15_Hash_code_baseINSt7__cxx1112basic_stringIcSt11char_traitsIcESaIcEEESt4pairIKS6_N8facebook5velox4exec19VectorFunctionEntryEENS_10_Select1stESt4hashIS6_ENS_18_Mod_range_hashingENS_20_Default_ranged_hashELb1EE15_M_bucket_indexERKNS_16_Hash_node_valueISD_Lb1EEEm = comdat any

$_ZNSt8__detail19_Node_iterator_baseISt4pairIKNSt7__cxx1112basic_stringIcSt11char_traitsIcESaIcEEEN8facebook5velox4exec19VectorFunctionEntryEELb1EEC2EPNS_10_Hash_nodeISD_Lb1EEE = comdat any

$_ZNSt11char_traitsIcE6lengthEPKc = comdat any

$_ZNSt7__cxx1112basic_stringIcSt11char_traitsIcESaIcEE12_M_constructIPKcEEvT_S8_St20forward_iterator_tag = comdat any

$_ZNSt7__cxx1112basic_stringIcSt11char_traitsIcESaIcEE12_Alloc_hiderD2Ev = comdat any

$_ZSt8distanceIPKcENSt15iterator_traitsIT_E15difference_typeES3_S3_ = comdat any

$_ZZNSt7__cxx1112basic_stringIcSt11char_traitsIcESaIcEE12_M_constructIPKcEEvT_S8_St20forward_iterator_tagEN6_GuardC2EPS4_ = comdat any

$_ZZNSt7__cxx1112basic_stringIcSt11char_traitsIcESaIcEE12_M_constructIPKcEEvT_S8_St20forward_iterator_tagEN6_GuardD2Ev = comdat any

$_ZSt10__distanceIPKcENSt15iterator_traitsIT_E15difference_typeES3_S3_St26random_access_iterator_tag = comdat any

$_ZSt19__iterator_categoryIPKcENSt15iterator_traitsIT_E17iterator_categoryERKS3_ = comdat any

$_ZNSt8__detail21_Hash_node_value_baseISt4pairIKNSt7__cxx1112basic_stringIcSt11char_traitsIcESaIcEEEN8facebook5velox4exec19VectorFunctionEntryEEE9_M_valptrEv = comdat any

$_ZN9__gnu_cxx16__aligned_bufferISt4pairIKNSt7__cxx1112basic_stringIcSt11char_traitsIcESaIcEEEN8facebook5velox4exec19VectorFunctionEntryEEE6_M_ptrEv = comdat any

$_ZN9__gnu_cxx16__aligned_bufferISt4pairIKNSt7__cxx1112basic_stringIcSt11char_traitsIcESaIcEEEN8facebook5velox4exec19VectorFunctionEntryEEE7_M_addrEv = comdat any

$_ZNKSt14_Function_base8_M_emptyEv = comdat any

$_ZNSt12_Vector_baseIN8facebook5velox4exec17VectorFunctionArgESaIS3_EEC2Ev = comdat any

$_ZNSt12_Vector_baseIN8facebook5velox4exec17VectorFunctionArgESaIS3_EE12_Vector_implC2Ev = comdat any

$_ZNSaIN8facebook5velox4exec17VectorFunctionArgEEC2Ev = comdat any

$_ZNSt12_Vector_baseIN8facebook5velox4exec17VectorFunctionArgESaIS3_EE17_Vector_impl_dataC2Ev = comdat any

$_ZNSt15__new_allocatorIN8facebook5velox4exec17VectorFunctionArgEEC2Ev = comdat any

$_ZSt8_DestroyIPN8facebook5velox4exec17VectorFunctionArgES3_EvT_S5_RSaIT0_E = comdat any

$_ZNSt12_Vector_baseIN8facebook5velox4exec17VectorFunctionArgESaIS3_EE19_M_get_Tp_allocatorEv = comdat any

$_ZNSt12_Vector_baseIN8facebook5velox4exec17VectorFunctionArgESaIS3_EED2Ev = comdat any

$_ZSt8_DestroyIPN8facebook5velox4exec17VectorFunctionArgEEvT_S5_ = comdat any

$_ZNSt12_Destroy_auxILb0EE9__destroyIPN8facebook5velox4exec17VectorFunctionArgEEEvT_S7_ = comdat any

$_ZSt8_DestroyIN8facebook5velox4exec17VectorFunctionArgEEvPT_ = comdat any

$_ZN8facebook5velox4exec17VectorFunctionArgD2Ev = comdat any

$_ZNSt10shared_ptrIN8facebook5velox10BaseVectorEED2Ev = comdat any

$_ZNSt10shared_ptrIKN8facebook5velox4TypeEED2Ev = comdat any

$_ZNSt12__shared_ptrIN8facebook5velox10BaseVectorELN9__gnu_cxx12_Lock_policyE2EED2Ev = comdat any

$_ZNSt12__shared_ptrIKN8facebook5velox4TypeELN9__gnu_cxx12_Lock_policyE2EED2Ev = comdat any

$_ZNSt12_Vector_baseIN8facebook5velox4exec17VectorFunctionArgESaIS3_EE13_M_deallocateEPS3_m = comdat any

$_ZNSt12_Vector_baseIN8facebook5velox4exec17VectorFunctionArgESaIS3_EE12_Vector_implD2Ev = comdat any

$_ZNSt16allocator_traitsISaIN8facebook5velox4exec17VectorFunctionArgEEE10deallocateERS4_PS3_m = comdat any

$_ZNSt15__new_allocatorIN8facebook5velox4exec17VectorFunctionArgEE10deallocateEPS3_m = comdat any

$_ZNSaIN8facebook5velox4exec17VectorFunctionArgEED2Ev = comdat any

$_ZNSt15__new_allocatorIN8facebook5velox4exec17VectorFunctionArgEED2Ev = comdat any

$_ZN5folly9LockedPtrIKNS_12SynchronizedISt13unordered_mapINSt7__cxx1112basic_stringIcSt11char_traitsIcESaIcEEEN8facebook5velox4exec19VectorFunctionEntryESt4hashIS8_ESt8equal_toIS8_ESaISt4pairIKS8_SC_EEENS_15SharedMutexImplILb0EvSt6atomicNS_24SharedMutexPolicyDefaultEEEEENS_6detail22SynchronizedLockPolicyILNSS_22SynchronizedMutexLevelE2ELNSS_23SynchronizedMutexMethodE0EEEEC2EPSR_ = comdat any

$_ZNSt11shared_lockIN5folly15SharedMutexImplILb0EvSt6atomicNS0_24SharedMutexPolicyDefaultEEEEC2Ev = comdat any

$_ZNSt11shared_lockIN5folly15SharedMutexImplILb0EvSt6atomicNS0_24SharedMutexPolicyDefaultEEEEC2ERS4_ = comdat any

$_ZNK5folly9LockedPtrIKNS_12SynchronizedISt13unordered_mapINSt7__cxx1112basic_stringIcSt11char_traitsIcESaIcEEEN8facebook5velox4exec19VectorFunctionEntryESt4hashIS8_ESt8equal_toIS8_ESaISt4pairIKS8_SC_EEENS_15SharedMutexImplILb0EvSt6atomicNS_24SharedMutexPolicyDefaultEEEEENS_6detail22SynchronizedLockPolicyILNSS_22SynchronizedMutexLevelE2ELNSS_23SynchronizedMutexMethodE0EEEE6parentEv = comdat any

$_ZNKSt11shared_lockIN5folly15SharedMutexImplILb0EvSt6atomicNS0_24SharedMutexPolicyDefaultEEEE5mutexEv = comdat any

$_ZNSt11shared_lockIN5folly15SharedMutexImplILb0EvSt6atomicNS0_24SharedMutexPolicyDefaultEEEED2Ev = comdat any

$_ZNSt12__shared_ptrIN8facebook5velox4exec14VectorFunctionELN9__gnu_cxx12_Lock_policyE2EED2Ev = comdat any

$_ZN8facebook5velox4exec25FunctionCallToSpecialFormD2Ev = comdat any

$_ZNSt15__new_allocatorISt10shared_ptrIKN8facebook5velox4TypeEEEC2Ev = comdat any

$_ZNSt15__new_allocatorISt10shared_ptrIKN8facebook5velox4TypeEEED2Ev = comdat any

$_ZNSt15__new_allocatorINSt7__cxx1112basic_stringIcSt11char_traitsIcESaIcEEEEC2Ev = comdat any

$_ZNSt15__new_allocatorINSt7__cxx1112basic_stringIcSt11char_traitsIcESaIcEEEED2Ev = comdat any

$_ZSt8_DestroyIPSt10shared_ptrIKN8facebook5velox4TypeEES5_EvT_S7_RSaIT0_E = comdat any

$_ZNSt12_Vector_baseISt10shared_ptrIKN8facebook5velox4TypeEESaIS5_EE19_M_get_Tp_allocatorEv = comdat any

$_ZNSt12_Vector_baseISt10shared_ptrIKN8facebook5velox4TypeEESaIS5_EED2Ev = comdat any

$_ZSt8_DestroyIPSt10shared_ptrIKN8facebook5velox4TypeEEEvT_S7_ = comdat any

$_ZNSt12_Destroy_auxILb0EE9__destroyIPSt10shared_ptrIKN8facebook5velox4TypeEEEEvT_S9_ = comdat any

$_ZSt8_DestroyISt10shared_ptrIKN8facebook5velox4TypeEEEvPT_ = comdat any

$_ZNSt12_Vector_baseISt10shared_ptrIKN8facebook5velox4TypeEESaIS5_EE13_M_deallocateEPS5_m = comdat any

$_ZNSt12_Vector_baseISt10shared_ptrIKN8facebook5velox4TypeEESaIS5_EE12_Vector_implD2Ev = comdat any

$_ZNSt16allocator_traitsISaISt10shared_ptrIKN8facebook5velox4TypeEEEE10deallocateERS6_PS5_m = comdat any

$_ZNSt15__new_allocatorISt10shared_ptrIKN8facebook5velox4TypeEEE10deallocateEPS5_m = comdat any

$_ZN3fmt2v816make_format_argsINS0_20basic_format_contextINS0_8appenderEcEEJRiEEENS0_16format_arg_storeIT_JDpNSt9remove_cvINSt16remove_referenceIT0_E4typeEE4typeEEEEDpOSA_ = comdat any

$_ZNSt12__shared_ptrIKN8facebook5velox4TypeELN9__gnu_cxx12_Lock_policyE2EEC2IKNS1_7RowTypeEvEEOS_IT_LS5_2EE = comdat any

$_ZNSt14__shared_countILN9__gnu_cxx12_Lock_policyE2EEC2Ev = comdat any

$_ZNSt14__shared_countILN9__gnu_cxx12_Lock_policyE2EE7_M_swapERS2_ = comdat any

$_ZSt8_DestroyIPNSt7__cxx1112basic_stringIcSt11char_traitsIcESaIcEEES5_EvT_S7_RSaIT0_E = comdat any

$_ZNSt12_Vector_baseINSt7__cxx1112basic_stringIcSt11char_traitsIcESaIcEEESaIS5_EE19_M_get_Tp_allocatorEv = comdat any

$_ZNSt12_Vector_baseINSt7__cxx1112basic_stringIcSt11char_traitsIcESaIcEEESaIS5_EED2Ev = comdat any

$_ZSt8_DestroyIPNSt7__cxx1112basic_stringIcSt11char_traitsIcESaIcEEEEvT_S7_ = comdat any

$_ZNSt12_Destroy_auxILb0EE9__destroyIPNSt7__cxx1112basic_stringIcSt11char_traitsIcESaIcEEEEEvT_S9_ = comdat any

$_ZSt8_DestroyINSt7__cxx1112basic_stringIcSt11char_traitsIcESaIcEEEEvPT_ = comdat any

$_ZNSt12_Vector_baseINSt7__cxx1112basic_stringIcSt11char_traitsIcESaIcEEESaIS5_EE13_M_deallocateEPS5_m = comdat any

$_ZNSt12_Vector_baseINSt7__cxx1112basic_stringIcSt11char_traitsIcESaIcEEESaIS5_EE12_Vector_implD2Ev = comdat any

$_ZNSt16allocator_traitsISaINSt7__cxx1112basic_stringIcSt11char_traitsIcESaIcEEEEE10deallocateERS6_PS5_m = comdat any

$_ZNSt15__new_allocatorINSt7__cxx1112basic_stringIcSt11char_traitsIcESaIcEEEE10deallocateEPS5_m = comdat any

$_ZNSt6vectorINSt7__cxx1112basic_stringIcSt11char_traitsIcESaIcEEESaIS5_EE17_S_check_init_lenEmRKS6_ = comdat any

$_ZNSt12_Vector_baseINSt7__cxx1112basic_stringIcSt11char_traitsIcESaIcEEESaIS5_EEC2EmRKS6_ = comdat any

$_ZNSt6vectorINSt7__cxx1112basic_stringIcSt11char_traitsIcESaIcEEESaIS5_EE21_M_default_initializeEm = comdat any

$_ZNSt6vectorINSt7__cxx1112basic_stringIcSt11char_traitsIcESaIcEEESaIS5_EE11_S_max_sizeERKS6_ = comdat any

$_ZNSaINSt7__cxx1112basic_stringIcSt11char_traitsIcESaIcEEEEC2ERKS5_ = comdat any

$_ZNSt16allocator_traitsISaINSt7__cxx1112basic_stringIcSt11char_traitsIcESaIcEEEEE8max_sizeERKS6_ = comdat any

$_ZSt3minImERKT_S2_S2_ = comdat any

$_ZNKSt15__new_allocatorINSt7__cxx1112basic_stringIcSt11char_traitsIcESaIcEEEE8max_sizeEv = comdat any

$_ZNKSt15__new_allocatorINSt7__cxx1112basic_stringIcSt11char_traitsIcESaIcEEEE11_M_max_sizeEv = comdat any

$_ZNSt15__new_allocatorINSt7__cxx1112basic_stringIcSt11char_traitsIcESaIcEEEEC2ERKS6_ = comdat any

$_ZNSt12_Vector_baseINSt7__cxx1112basic_stringIcSt11char_traitsIcESaIcEEESaIS5_EE12_Vector_implC2ERKS6_ = comdat any

$_ZNSt12_Vector_baseINSt7__cxx1112basic_stringIcSt11char_traitsIcESaIcEEESaIS5_EE17_M_create_storageEm = comdat any

$_ZNSt12_Vector_baseINSt7__cxx1112basic_stringIcSt11char_traitsIcESaIcEEESaIS5_EE17_Vector_impl_dataC2Ev = comdat any

$_ZNSt12_Vector_baseINSt7__cxx1112basic_stringIcSt11char_traitsIcESaIcEEESaIS5_EE11_M_allocateEm = comdat any

$_ZNSt16allocator_traitsISaINSt7__cxx1112basic_stringIcSt11char_traitsIcESaIcEEEEE8allocateERS6_m = comdat any

$_ZNSt15__new_allocatorINSt7__cxx1112basic_stringIcSt11char_traitsIcESaIcEEEE8allocateEmPKv = comdat any

$_ZSt27__uninitialized_default_n_aIPNSt7__cxx1112basic_stringIcSt11char_traitsIcESaIcEEEmS5_ET_S7_T0_RSaIT1_E = comdat any

$_ZSt25__uninitialized_default_nIPNSt7__cxx1112basic_stringIcSt11char_traitsIcESaIcEEEmET_S7_T0_ = comdat any

$_ZNSt27__uninitialized_default_n_1ILb0EE18__uninit_default_nIPNSt7__cxx1112basic_stringIcSt11char_traitsIcESaIcEEEmEET_S9_T0_ = comdat any

$_ZSt10_ConstructINSt7__cxx1112basic_stringIcSt11char_traitsIcESaIcEEEJEEvPT_DpOT0_ = comdat any

$_ZNSt6vectorISt10shared_ptrIKN8facebook5velox4TypeEESaIS5_EE17_S_check_init_lenEmRKS6_ = comdat any

$_ZNSt12_Vector_baseISt10shared_ptrIKN8facebook5velox4TypeEESaIS5_EEC2EmRKS6_ = comdat any

$_ZNSt6vectorISt10shared_ptrIKN8facebook5velox4TypeEESaIS5_EE21_M_default_initializeEm = comdat any

$_ZNSt6vectorISt10shared_ptrIKN8facebook5velox4TypeEESaIS5_EE11_S_max_sizeERKS6_ = comdat any

$_ZNSaISt10shared_ptrIKN8facebook5velox4TypeEEEC2ERKS5_ = comdat any

$_ZNSt16allocator_traitsISaISt10shared_ptrIKN8facebook5velox4TypeEEEE8max_sizeERKS6_ = comdat any

$_ZNKSt15__new_allocatorISt10shared_ptrIKN8facebook5velox4TypeEEE8max_sizeEv = comdat any

$_ZNKSt15__new_allocatorISt10shared_ptrIKN8facebook5velox4TypeEEE11_M_max_sizeEv = comdat any

$_ZNSt15__new_allocatorISt10shared_ptrIKN8facebook5velox4TypeEEEC2ERKS6_ = comdat any

$_ZNSt12_Vector_baseISt10shared_ptrIKN8facebook5velox4TypeEESaIS5_EE12_Vector_implC2ERKS6_ = comdat any

$_ZNSt12_Vector_baseISt10shared_ptrIKN8facebook5velox4TypeEESaIS5_EE17_M_create_storageEm = comdat any

$_ZNSt12_Vector_baseISt10shared_ptrIKN8facebook5velox4TypeEESaIS5_EE17_Vector_impl_dataC2Ev = comdat any

$_ZNSt12_Vector_baseISt10shared_ptrIKN8facebook5velox4TypeEESaIS5_EE11_M_allocateEm = comdat any

$_ZNSt16allocator_traitsISaISt10shared_ptrIKN8facebook5velox4TypeEEEE8allocateERS6_m = comdat any

$_ZNSt15__new_allocatorISt10shared_ptrIKN8facebook5velox4TypeEEE8allocateEmPKv = comdat any

$_ZSt27__uninitialized_default_n_aIPSt10shared_ptrIKN8facebook5velox4TypeEEmS5_ET_S7_T0_RSaIT1_E = comdat any

$_ZSt25__uninitialized_default_nIPSt10shared_ptrIKN8facebook5velox4TypeEEmET_S7_T0_ = comdat any

$_ZNSt27__uninitialized_default_n_1ILb0EE18__uninit_default_nIPSt10shared_ptrIKN8facebook5velox4TypeEEmEET_S9_T0_ = comdat any

$_ZSt10_ConstructISt10shared_ptrIKN8facebook5velox4TypeEEJEEvPT_DpOT0_ = comdat any

$_ZNSt10shared_ptrIKN8facebook5velox4TypeEEC2Ev = comdat any

$_ZNSt12__shared_ptrIKN8facebook5velox4TypeELN9__gnu_cxx12_Lock_policyE2EEC2Ev = comdat any

$_ZNSt10shared_ptrIN8facebook5velox4exec4ExprEEC2ISaIvEJRKS_IKNS1_4TypeEESt6vectorIS4_SaIS4_EERS_INS2_14VectorFunctionEERKPKcRbEEESt20_Sp_alloc_shared_tagIT_EDpOT0_ = comdat any

$_ZNSt12__shared_ptrIN8facebook5velox4exec4ExprELN9__gnu_cxx12_Lock_policyE2EEC2ISaIvEJRKSt10shared_ptrIKNS1_4TypeEESt6vectorIS9_IS3_ESaISG_EERS9_INS2_14VectorFunctionEERKPKcRbEEESt20_Sp_alloc_shared_tagIT_EDpOT0_ = comdat any

$_ZNSt14__shared_countILN9__gnu_cxx12_Lock_policyE2EEC2IN8facebook5velox4exec4ExprESaIvEJRKSt10shared_ptrIKNS5_4TypeEESt6vectorIS9_IS7_ESaISG_EERS9_INS6_14VectorFunctionEERKPKcRbEEERPT_St20_Sp_alloc_shared_tagIT0_EDpOT1_ = comdat any

$_ZNSt12__shared_ptrIN8facebook5velox4exec4ExprELN9__gnu_cxx12_Lock_policyE2EE31_M_enable_shared_from_this_withIS3_S3_EENSt9enable_ifIXntsr15__has_esft_baseIT0_EE5valueEvE4typeEPT_ = comdat any

$_ZNSaISt23_Sp_counted_ptr_inplaceIN8facebook5velox4exec4ExprESaIvELN9__gnu_cxx12_Lock_policyE2EEEC2IvEERKSaIT_E = comdat any

$_ZSt18__allocate_guardedISaISt23_Sp_counted_ptr_inplaceIN8facebook5velox4exec4ExprESaIvELN9__gnu_cxx12_Lock_policyE2EEEESt15__allocated_ptrIT_ERSB_ = comdat any

$_ZNSt15__allocated_ptrISaISt23_Sp_counted_ptr_inplaceIN8facebook5velox4exec4ExprESaIvELN9__gnu_cxx12_Lock_policyE2EEEE3getEv = comdat any

$_ZNSt23_Sp_counted_ptr_inplaceIN8facebook5velox4exec4ExprESaIvELN9__gnu_cxx12_Lock_policyE2EEC2IJRKSt10shared_ptrIKNS1_4TypeEESt6vectorIS9_IS3_ESaISG_EERS9_INS2_14VectorFunctionEERKPKcRbEEES4_DpOT_ = comdat any

$_ZNSt15__allocated_ptrISaISt23_Sp_counted_ptr_inplaceIN8facebook5velox4exec4ExprESaIvELN9__gnu_cxx12_Lock_policyE2EEEEaSEDn = comdat any

$_ZNSt23_Sp_counted_ptr_inplaceIN8facebook5velox4exec4ExprESaIvELN9__gnu_cxx12_Lock_policyE2EE6_M_ptrEv = comdat any

$_ZNSt15__allocated_ptrISaISt23_Sp_counted_ptr_inplaceIN8facebook5velox4exec4ExprESaIvELN9__gnu_cxx12_Lock_policyE2EEEED2Ev = comdat any

$_ZNSaISt23_Sp_counted_ptr_inplaceIN8facebook5velox4exec4ExprESaIvELN9__gnu_cxx12_Lock_policyE2EEED2Ev = comdat any

$_ZNSt15__new_allocatorISt23_Sp_counted_ptr_inplaceIN8facebook5velox4exec4ExprESaIvELN9__gnu_cxx12_Lock_policyE2EEEC2Ev = comdat any

$_ZNSt16allocator_traitsISaISt23_Sp_counted_ptr_inplaceIN8facebook5velox4exec4ExprESaIvELN9__gnu_cxx12_Lock_policyE2EEEE8allocateERS9_m = comdat any

$_ZNSt15__allocated_ptrISaISt23_Sp_counted_ptr_inplaceIN8facebook5velox4exec4ExprESaIvELN9__gnu_cxx12_Lock_policyE2EEEEC2ERS9_PS8_ = comdat any

$_ZNSt15__new_allocatorISt23_Sp_counted_ptr_inplaceIN8facebook5velox4exec4ExprESaIvELN9__gnu_cxx12_Lock_policyE2EEE8allocateEmPKv = comdat any

$_ZNKSt15__new_allocatorISt23_Sp_counted_ptr_inplaceIN8facebook5velox4exec4ExprESaIvELN9__gnu_cxx12_Lock_policyE2EEE11_M_max_sizeEv = comdat any

$_ZSt12__to_addressISt23_Sp_counted_ptr_inplaceIN8facebook5velox4exec4ExprESaIvELN9__gnu_cxx12_Lock_policyE2EEEPT_SA_ = comdat any

$_ZNSt16_Sp_counted_baseILN9__gnu_cxx12_Lock_policyE2EEC2Ev = comdat any

$_ZNSt23_Sp_counted_ptr_inplaceIN8facebook5velox4exec4ExprESaIvELN9__gnu_cxx12_Lock_policyE2EE5_ImplC2ES4_ = comdat any

$_ZNSt16allocator_traitsISaIvEE9constructIN8facebook5velox4exec4ExprEJRKSt10shared_ptrIKNS4_4TypeEESt6vectorIS7_IS6_ESaISE_EERS7_INS5_14VectorFunctionEERKPKcRbEEEvRS0_PT_DpOT0_ = comdat any

$_ZNSt23_Sp_counted_ptr_inplaceIN8facebook5velox4exec4ExprESaIvELN9__gnu_cxx12_Lock_policyE2EED2Ev = comdat any

$_ZNSt23_Sp_counted_ptr_inplaceIN8facebook5velox4exec4ExprESaIvELN9__gnu_cxx12_Lock_policyE2EED0Ev = comdat any

$_ZNSt23_Sp_counted_ptr_inplaceIN8facebook5velox4exec4ExprESaIvELN9__gnu_cxx12_Lock_policyE2EE10_M_disposeEv = comdat any

$_ZNSt23_Sp_counted_ptr_inplaceIN8facebook5velox4exec4ExprESaIvELN9__gnu_cxx12_Lock_policyE2EE10_M_destroyEv = comdat any

$_ZNSt23_Sp_counted_ptr_inplaceIN8facebook5velox4exec4ExprESaIvELN9__gnu_cxx12_Lock_policyE2EE14_M_get_deleterERKSt9type_info = comdat any

$_ZNSt16_Sp_counted_baseILN9__gnu_cxx12_Lock_policyE2EED2Ev = comdat any

$_ZNSt16_Sp_counted_baseILN9__gnu_cxx12_Lock_policyE2EED0Ev = comdat any

$_ZNSt16_Sp_counted_baseILN9__gnu_cxx12_Lock_policyE2EE10_M_destroyEv = comdat any

$_ZNSt14_Sp_ebo_helperILi0ESaIvELb1EEC2ERKS0_ = comdat any

$_ZSt10_ConstructIN8facebook5velox4exec4ExprEJRKSt10shared_ptrIKNS1_4TypeEESt6vectorIS4_IS3_ESaISB_EERS4_INS2_14VectorFunctionEERKPKcRbEEvPT_DpOT0_ = comdat any

$_ZNSt10shared_ptrIKN8facebook5velox4TypeEEC2ERKS4_ = comdat any

$_ZNSt10shared_ptrIN8facebook5velox4exec14VectorFunctionEEC2ERKS4_ = comdat any

$_ZNSt12__shared_ptrIKN8facebook5velox4TypeELN9__gnu_cxx12_Lock_policyE2EEC2ERKS6_ = comdat any

$_ZNSt14__shared_countILN9__gnu_cxx12_Lock_policyE2EEC2ERKS2_ = comdat any

$_ZNSt12__shared_ptrIN8facebook5velox4exec14VectorFunctionELN9__gnu_cxx12_Lock_policyE2EEC2ERKS6_ = comdat any

$_ZNSt16allocator_traitsISaIvEE7destroyIN8facebook5velox4exec4ExprEEEvRS0_PT_ = comdat any

$_ZNSt23_Sp_counted_ptr_inplaceIN8facebook5velox4exec4ExprESaIvELN9__gnu_cxx12_Lock_policyE2EE5_Impl8_M_allocEv = comdat any

$_ZSt8_DestroyIN8facebook5velox4exec4ExprEEvPT_ = comdat any

$_ZNSt14_Sp_ebo_helperILi0ESaIvELb1EE6_S_getERS1_ = comdat any

$_ZNSt19_Sp_make_shared_tag5_S_tiEv = comdat any

$_ZNKSt9type_infoeqERKS_ = comdat any

$_ZNKSt9type_info4nameEv = comdat any

$_ZN9__gnu_cxx16__aligned_bufferIN8facebook5velox4exec4ExprEE6_M_ptrEv = comdat any

$_ZN9__gnu_cxx16__aligned_bufferIN8facebook5velox4exec4ExprEE7_M_addrEv = comdat any

$_ZNSt16allocator_traitsISaISt23_Sp_counted_ptr_inplaceIN8facebook5velox4exec4ExprESaIvELN9__gnu_cxx12_Lock_policyE2EEEE10deallocateERS9_PS8_m = comdat any

$_ZNSt15__new_allocatorISt23_Sp_counted_ptr_inplaceIN8facebook5velox4exec4ExprESaIvELN9__gnu_cxx12_Lock_policyE2EEE10deallocateEPS8_m = comdat any

$_ZNSt15__new_allocatorISt23_Sp_counted_ptr_inplaceIN8facebook5velox4exec4ExprESaIvELN9__gnu_cxx12_Lock_policyE2EEED2Ev = comdat any

$_ZN8facebook5velox4exec31RowConstructorCallToSpecialForm15kRowConstructorE = comdat any

$_ZTSN8facebook5velox4exec25FunctionCallToSpecialFormE = comdat any

$_ZTIN8facebook5velox4exec25FunctionCallToSpecialFormE = comdat any

$_ZTVSt23_Sp_counted_ptr_inplaceIN8facebook5velox4exec4ExprESaIvELN9__gnu_cxx12_Lock_policyE2EE = comdat any

$_ZTSSt23_Sp_counted_ptr_inplaceIN8facebook5velox4exec4ExprESaIvELN9__gnu_cxx12_Lock_policyE2EE = comdat any

$_ZTSSt16_Sp_counted_baseILN9__gnu_cxx12_Lock_policyE2EE = comdat any

$_ZTSSt11_Mutex_baseILN9__gnu_cxx12_Lock_policyE2EE = comdat any

$_ZTISt11_Mutex_baseILN9__gnu_cxx12_Lock_policyE2EE = comdat any

$_ZTISt16_Sp_counted_baseILN9__gnu_cxx12_Lock_policyE2EE = comdat any

$_ZTISt23_Sp_counted_ptr_inplaceIN8facebook5velox4exec4ExprESaIvELN9__gnu_cxx12_Lock_policyE2EE = comdat any

$_ZTVSt16_Sp_counted_baseILN9__gnu_cxx12_Lock_policyE2EE = comdat any

$_ZTSSt19_Sp_make_shared_tag = comdat any

$_ZTISt19_Sp_make_shared_tag = comdat any

$_ZZNSt19_Sp_make_shared_tag5_S_tiEvE5__tag = comdat any

@.str = private unnamed_addr constant [4 x i8] c"c{}\00", align 1
@_ZN8facebook5velox4exec31RowConstructorCallToSpecialForm15kRowConstructorE = linkonce_odr constant ptr @.str.1, comdat, align 8
@_ZTVN8facebook5velox4exec31RowConstructorCallToSpecialFormE = unnamed_addr constant { [6 x ptr] } { [6 x ptr] [ptr null, ptr @_ZTIN8facebook5velox4exec31RowConstructorCallToSpecialFormE, ptr @_ZN8facebook5velox4exec31RowConstructorCallToSpecialFormD2Ev, ptr @_ZN8facebook5velox4exec31RowConstructorCallToSpecialFormD0Ev, ptr @_ZN8facebook5velox4exec31RowConstructorCallToSpecialForm11resolveTypeERKSt6vectorISt10shared_ptrIKNS0_4TypeEESaIS7_EE, ptr @_ZN8facebook5velox4exec31RowConstructorCallToSpecialForm20constructSpecialFormERKSt10shared_ptrIKNS0_4TypeEEOSt6vectorIS3_INS1_4ExprEESaISB_EEbRKNS0_4core11QueryConfigE] }, align 8
@_ZTVN10__cxxabiv120__si_class_type_infoE = external global [0 x ptr]
@_ZTSN8facebook5velox4exec31RowConstructorCallToSpecialFormE = constant [56 x i8] c"N8facebook5velox4exec31RowConstructorCallToSpecialFormE\00", align 1
@_ZTVN10__cxxabiv117__class_type_infoE = external global [0 x ptr]
@_ZTSN8facebook5velox4exec25FunctionCallToSpecialFormE = linkonce_odr constant [50 x i8] c"N8facebook5velox4exec25FunctionCallToSpecialFormE\00", comdat, align 1
@_ZTIN8facebook5velox4exec25FunctionCallToSpecialFormE = linkonce_odr constant { ptr, ptr } { ptr getelementptr inbounds (ptr, ptr @_ZTVN10__cxxabiv117__class_type_infoE, i64 2), ptr @_ZTSN8facebook5velox4exec25FunctionCallToSpecialFormE }, comdat, align 8
@_ZTIN8facebook5velox4exec31RowConstructorCallToSpecialFormE = constant { ptr, ptr, ptr } { ptr getelementptr inbounds (ptr, ptr @_ZTVN10__cxxabiv120__si_class_type_infoE, i64 2), ptr @_ZTSN8facebook5velox4exec31RowConstructorCallToSpecialFormE, ptr @_ZTIN8facebook5velox4exec25FunctionCallToSpecialFormE }, align 8
@__libc_single_threaded = external global i8, align 1
@.str.1 = private unnamed_addr constant [16 x i8] c"row_constructor\00", align 1
@.str.2 = private unnamed_addr constant [50 x i8] c"basic_string: construction from null is not valid\00", align 1
@.str.3 = private unnamed_addr constant [49 x i8] c"cannot create std::vector larger than max_size()\00", align 1
@_ZTVSt23_Sp_counted_ptr_inplaceIN8facebook5velox4exec4ExprESaIvELN9__gnu_cxx12_Lock_policyE2EE = linkonce_odr unnamed_addr constant { [7 x ptr] } { [7 x ptr] [ptr null, ptr @_ZTISt23_Sp_counted_ptr_inplaceIN8facebook5velox4exec4ExprESaIvELN9__gnu_cxx12_Lock_policyE2EE, ptr @_ZNSt23_Sp_counted_ptr_inplaceIN8facebook5velox4exec4ExprESaIvELN9__gnu_cxx12_Lock_policyE2EED2Ev, ptr @_ZNSt23_Sp_counted_ptr_inplaceIN8facebook5velox4exec4ExprESaIvELN9__gnu_cxx12_Lock_policyE2EED0Ev, ptr @_ZNSt23_Sp_counted_ptr_inplaceIN8facebook5velox4exec4ExprESaIvELN9__gnu_cxx12_Lock_policyE2EE10_M_disposeEv, ptr @_ZNSt23_Sp_counted_ptr_inplaceIN8facebook5velox4exec4ExprESaIvELN9__gnu_cxx12_Lock_policyE2EE10_M_destroyEv, ptr @_ZNSt23_Sp_counted_ptr_inplaceIN8facebook5velox4exec4ExprESaIvELN9__gnu_cxx12_Lock_policyE2EE14_M_get_deleterERKSt9type_info] }, comdat, align 8
@_ZTSSt23_Sp_counted_ptr_inplaceIN8facebook5velox4exec4ExprESaIvELN9__gnu_cxx12_Lock_policyE2EE = linkonce_odr constant [91 x i8] c"St23_Sp_counted_ptr_inplaceIN8facebook5velox4exec4ExprESaIvELN9__gnu_cxx12_Lock_policyE2EE\00", comdat, align 1
@_ZTSSt16_Sp_counted_baseILN9__gnu_cxx12_Lock_policyE2EE = linkonce_odr constant [52 x i8] c"St16_Sp_counted_baseILN9__gnu_cxx12_Lock_policyE2EE\00", comdat, align 1
@_ZTSSt11_Mutex_baseILN9__gnu_cxx12_Lock_policyE2EE = linkonce_odr constant [47 x i8] c"St11_Mutex_baseILN9__gnu_cxx12_Lock_policyE2EE\00", comdat, align 1
@_ZTISt11_Mutex_baseILN9__gnu_cxx12_Lock_policyE2EE = linkonce_odr constant { ptr, ptr } { ptr getelementptr inbounds (ptr, ptr @_ZTVN10__cxxabiv117__class_type_infoE, i64 2), ptr @_ZTSSt11_Mutex_baseILN9__gnu_cxx12_Lock_policyE2EE }, comdat, align 8
@_ZTISt16_Sp_counted_baseILN9__gnu_cxx12_Lock_policyE2EE = linkonce_odr constant { ptr, ptr, ptr } { ptr getelementptr inbounds (ptr, ptr @_ZTVN10__cxxabiv120__si_class_type_infoE, i64 2), ptr @_ZTSSt16_Sp_counted_baseILN9__gnu_cxx12_Lock_policyE2EE, ptr @_ZTISt11_Mutex_baseILN9__gnu_cxx12_Lock_policyE2EE }, comdat, align 8
@_ZTISt23_Sp_counted_ptr_inplaceIN8facebook5velox4exec4ExprESaIvELN9__gnu_cxx12_Lock_policyE2EE = linkonce_odr constant { ptr, ptr, ptr } { ptr getelementptr inbounds (ptr, ptr @_ZTVN10__cxxabiv120__si_class_type_infoE, i64 2), ptr @_ZTSSt23_Sp_counted_ptr_inplaceIN8facebook5velox4exec4ExprESaIvELN9__gnu_cxx12_Lock_policyE2EE, ptr @_ZTISt16_Sp_counted_baseILN9__gnu_cxx12_Lock_policyE2EE }, comdat, align 8
@_ZTVSt16_Sp_counted_baseILN9__gnu_cxx12_Lock_policyE2EE = linkonce_odr unnamed_addr constant { [7 x ptr] } { [7 x ptr] [ptr null, ptr @_ZTISt16_Sp_counted_baseILN9__gnu_cxx12_Lock_policyE2EE, ptr @_ZNSt16_Sp_counted_baseILN9__gnu_cxx12_Lock_policyE2EED2Ev, ptr @_ZNSt16_Sp_counted_baseILN9__gnu_cxx12_Lock_policyE2EED0Ev, ptr @__cxa_pure_virtual, ptr @_ZNSt16_Sp_counted_baseILN9__gnu_cxx12_Lock_policyE2EE10_M_destroyEv, ptr @__cxa_pure_virtual] }, comdat, align 8
@_ZTSSt19_Sp_make_shared_tag = linkonce_odr constant [24 x i8] c"St19_Sp_make_shared_tag\00", comdat, align 1
@_ZTISt19_Sp_make_shared_tag = linkonce_odr constant { ptr, ptr } { ptr getelementptr inbounds (ptr, ptr @_ZTVN10__cxxabiv117__class_type_infoE, i64 2), ptr @_ZTSSt19_Sp_make_shared_tag }, comdat, align 8
@_ZZNSt19_Sp_make_shared_tag5_S_tiEvE5__tag = linkonce_odr constant [16 x i8] zeroinitializer, comdat, align 8

; Function Attrs: mustprogress uwtable
define void @_ZN8facebook5velox4exec31RowConstructorCallToSpecialForm11resolveTypeERKSt6vectorISt10shared_ptrIKNS0_4TypeEESaIS7_EE(ptr noalias sret(%"class.std::shared_ptr") align 8 %agg.result, ptr noundef nonnull align 8 dereferenceable(8) %this, ptr noundef nonnull align 8 dereferenceable(24) %argTypes) unnamed_addr #0 align 2 personality ptr @__gxx_personality_v0 {
entry:
  %.addr.i = alloca ptr, align 8
  %this.addr.i31 = alloca ptr, align 8
  %s.addr.i32 = alloca ptr, align 8
  %this.addr.i29 = alloca ptr, align 8
  %desc.addr.i = alloca i64, align 8
  %values.addr.i = alloca ptr, align 8
  %this.addr.i27 = alloca ptr, align 8
  %this.addr.i25 = alloca ptr, align 8
  %store.addr.i = alloca ptr, align 8
  %retval.i = alloca %"class.fmt::v8::basic_string_view", align 8
  %this.addr.i23 = alloca ptr, align 8
  %this.addr.i = alloca ptr, align 8
  %s.addr.i = alloca ptr, align 8
  %result.ptr.i = alloca ptr, align 8
  %fmt.i = alloca %"class.fmt::v8::basic_format_string", align 8
  %args.addr.i = alloca ptr, align 8
  %agg.tmp.i = alloca %"class.fmt::v8::basic_string_view", align 8
  %agg.tmp1.i = alloca %"class.fmt::v8::basic_format_args", align 8
  %ref.tmp.i = alloca %"class.fmt::v8::format_arg_store", align 16
  %result.ptr = alloca ptr, align 8
  %this.addr = alloca ptr, align 8
  %argTypes.addr = alloca ptr, align 8
  %numInput = alloca i64, align 8
  %names = alloca %"class.std::vector.0", align 8
  %ref.tmp = alloca %"class.std::allocator.2", align 1
  %exn.slot = alloca ptr, align 8
  %ehselector.slot = alloca i32, align 4
  %types = alloca %"class.std::vector", align 8
  %ref.tmp2 = alloca %"class.std::allocator", align 1
  %i = alloca i32, align 4
  %ref.tmp10 = alloca %"class.std::__cxx11::basic_string", align 8
  %agg.tmp = alloca %"class.fmt::v8::basic_format_string", align 8
  %ref.tmp13 = alloca i32, align 4
  %ref.tmp18 = alloca %"class.std::shared_ptr.8", align 8
  store ptr %agg.result, ptr %result.ptr, align 8
  store ptr %this, ptr %this.addr, align 8
  store ptr %argTypes, ptr %argTypes.addr, align 8
  %0 = load ptr, ptr %argTypes.addr, align 8
  %call = call noundef i64 @_ZNKSt6vectorISt10shared_ptrIKN8facebook5velox4TypeEESaIS5_EE4sizeEv(ptr noundef nonnull align 8 dereferenceable(24) %0) #12
  store i64 %call, ptr %numInput, align 8
  %1 = load i64, ptr %numInput, align 8
  call void @_ZNSaINSt7__cxx1112basic_stringIcSt11char_traitsIcESaIcEEEEC2Ev(ptr noundef nonnull align 1 dereferenceable(1) %ref.tmp) #12
  invoke void @_ZNSt6vectorINSt7__cxx1112basic_stringIcSt11char_traitsIcESaIcEEESaIS5_EEC2EmRKS6_(ptr noundef nonnull align 8 dereferenceable(24) %names, i64 noundef %1, ptr noundef nonnull align 1 dereferenceable(1) %ref.tmp)
          to label %invoke.cont unwind label %lpad

invoke.cont:                                      ; preds = %entry
  call void @_ZNSaINSt7__cxx1112basic_stringIcSt11char_traitsIcESaIcEEEED2Ev(ptr noundef nonnull align 1 dereferenceable(1) %ref.tmp) #12
  %2 = load i64, ptr %numInput, align 8
  call void @_ZNSaISt10shared_ptrIKN8facebook5velox4TypeEEEC2Ev(ptr noundef nonnull align 1 dereferenceable(1) %ref.tmp2) #12
  invoke void @_ZNSt6vectorISt10shared_ptrIKN8facebook5velox4TypeEESaIS5_EEC2EmRKS6_(ptr noundef nonnull align 8 dereferenceable(24) %types, i64 noundef %2, ptr noundef nonnull align 1 dereferenceable(1) %ref.tmp2)
          to label %invoke.cont4 unwind label %lpad3

invoke.cont4:                                     ; preds = %invoke.cont
  call void @_ZNSaISt10shared_ptrIKN8facebook5velox4TypeEEED2Ev(ptr noundef nonnull align 1 dereferenceable(1) %ref.tmp2) #12
  store i32 0, ptr %i, align 4
  br label %for.cond

for.cond:                                         ; preds = %for.inc, %invoke.cont4
  %3 = load i32, ptr %i, align 4
  %conv = sext i32 %3 to i64
  %4 = load i64, ptr %numInput, align 8
  %cmp = icmp ult i64 %conv, %4
  br i1 %cmp, label %for.body, label %for.end

for.body:                                         ; preds = %for.cond
  %5 = load ptr, ptr %argTypes.addr, align 8
  %6 = load i32, ptr %i, align 4
  %conv5 = sext i32 %6 to i64
  %call6 = call noundef nonnull align 8 dereferenceable(16) ptr @_ZNKSt6vectorISt10shared_ptrIKN8facebook5velox4TypeEESaIS5_EEixEm(ptr noundef nonnull align 8 dereferenceable(24) %5, i64 noundef %conv5) #12
  %7 = load i32, ptr %i, align 4
  %conv7 = sext i32 %7 to i64
  %call8 = call noundef nonnull align 8 dereferenceable(16) ptr @_ZNSt6vectorISt10shared_ptrIKN8facebook5velox4TypeEESaIS5_EEixEm(ptr noundef nonnull align 8 dereferenceable(24) %types, i64 noundef %conv7) #12
  %call9 = call noundef nonnull align 8 dereferenceable(16) ptr @_ZNSt10shared_ptrIKN8facebook5velox4TypeEEaSERKS4_(ptr noundef nonnull align 8 dereferenceable(16) %call8, ptr noundef nonnull align 8 dereferenceable(16) %call6) #12
  store ptr %agg.tmp, ptr %this.addr.i, align 8
  store ptr @.str, ptr %s.addr.i, align 8
  %this1.i = load ptr, ptr %this.addr.i, align 8
  %8 = load ptr, ptr %s.addr.i, align 8
  store ptr %this1.i, ptr %this.addr.i31, align 8
  store ptr %8, ptr %s.addr.i32, align 8
  %this1.i33 = load ptr, ptr %this.addr.i31, align 8
  %9 = load ptr, ptr %s.addr.i32, align 8
  store ptr %9, ptr %this1.i33, align 8
  %size_.i = getelementptr inbounds %"class.fmt::v8::basic_string_view", ptr %this1.i33, i32 0, i32 1
  %10 = load ptr, ptr %s.addr.i32, align 8
  %call.i = call noundef i64 @_ZNSt11char_traitsIcE6lengthEPKc(ptr noundef %10)
  store i64 %call.i, ptr %size_.i, align 8
  %11 = load ptr, ptr %s.addr.i, align 8
  store ptr %11, ptr %.addr.i, align 8
  br label %invoke.cont12

invoke.cont12:                                    ; preds = %for.body
  %12 = load i32, ptr %i, align 4
  %add = add nsw i32 %12, 1
  store i32 %add, ptr %ref.tmp13, align 4
  %13 = getelementptr inbounds { ptr, i64 }, ptr %agg.tmp, i32 0, i32 0
  %14 = load ptr, ptr %13, align 8
  %15 = getelementptr inbounds { ptr, i64 }, ptr %agg.tmp, i32 0, i32 1
  %16 = load i64, ptr %15, align 8
  call void @llvm.experimental.noalias.scope.decl(metadata !4)
  store ptr %ref.tmp10, ptr %result.ptr.i, align 8, !noalias !4
  store ptr %14, ptr %fmt.i, align 8, !noalias !4
  %17 = getelementptr inbounds { ptr, i64 }, ptr %fmt.i, i32 0, i32 1
  store i64 %16, ptr %17, align 8, !noalias !4
  store ptr %ref.tmp13, ptr %args.addr.i, align 8, !noalias !4
  store ptr %fmt.i, ptr %this.addr.i23, align 8
  %this1.i24 = load ptr, ptr %this.addr.i23, align 8
  call void @llvm.memcpy.p0.p0.i64(ptr align 8 %retval.i, ptr align 8 %this1.i24, i64 16, i1 false)
  %18 = load { ptr, i64 }, ptr %retval.i, align 8
  %19 = extractvalue { ptr, i64 } %18, 0
  store ptr %19, ptr %agg.tmp.i, align 8, !noalias !4
  %20 = getelementptr inbounds { ptr, i64 }, ptr %agg.tmp.i, i32 0, i32 1
  %21 = extractvalue { ptr, i64 } %18, 1
  store i64 %21, ptr %20, align 8, !noalias !4
  %22 = load ptr, ptr %args.addr.i, align 8, !noalias !4
  %call2.i21 = invoke { i64, i64 } @_ZN3fmt2v816make_format_argsINS0_20basic_format_contextINS0_8appenderEcEEJRiEEENS0_16format_arg_storeIT_JDpNSt9remove_cvINSt16remove_referenceIT0_E4typeEE4typeEEEEDpOSA_(ptr noundef nonnull align 4 dereferenceable(4) %22)
          to label %call2.i.noexc unwind label %lpad11

call2.i.noexc:                                    ; preds = %invoke.cont12
  %23 = extractvalue { i64, i64 } %call2.i21, 0
  store i64 %23, ptr %ref.tmp.i, align 16, !noalias !4
  %24 = getelementptr inbounds { i64, i64 }, ptr %ref.tmp.i, i32 0, i32 1
  %25 = extractvalue { i64, i64 } %call2.i21, 1
  store i64 %25, ptr %24, align 8, !noalias !4
  store ptr %agg.tmp1.i, ptr %this.addr.i25, align 8
  store ptr %ref.tmp.i, ptr %store.addr.i, align 8
  %this1.i26 = load ptr, ptr %this.addr.i25, align 8
  %26 = load ptr, ptr %store.addr.i, align 8
  store ptr %26, ptr %this.addr.i27, align 8
  %this1.i28 = load ptr, ptr %this.addr.i27, align 8
  store ptr %this1.i26, ptr %this.addr.i29, align 8
  store i64 1, ptr %desc.addr.i, align 8
  store ptr %this1.i28, ptr %values.addr.i, align 8
  %this1.i30 = load ptr, ptr %this.addr.i29, align 8
  %27 = load i64, ptr %desc.addr.i, align 8
  store i64 %27, ptr %this1.i30, align 8
  %28 = getelementptr inbounds %"class.fmt::v8::basic_format_args", ptr %this1.i30, i32 0, i32 1
  %29 = load ptr, ptr %values.addr.i, align 8
  store ptr %29, ptr %28, align 8
  br label %.noexc

.noexc:                                           ; preds = %call2.i.noexc
  %30 = load ptr, ptr %agg.tmp.i, align 8, !noalias !4
  %31 = getelementptr inbounds { ptr, i64 }, ptr %agg.tmp.i, i32 0, i32 1
  %32 = load i64, ptr %31, align 8, !noalias !4
  %33 = load i64, ptr %agg.tmp1.i, align 8, !noalias !4
  %34 = getelementptr inbounds { i64, ptr }, ptr %agg.tmp1.i, i32 0, i32 1
  %35 = load ptr, ptr %34, align 8, !noalias !4
  invoke void @_ZN3fmt2v87vformatB5cxx11ENS0_17basic_string_viewIcEENS0_17basic_format_argsINS0_20basic_format_contextINS0_8appenderEcEEEE(ptr sret(%"class.std::__cxx11::basic_string") align 8 %ref.tmp10, ptr %30, i64 %32, i64 %33, ptr %35)
          to label %_ZN3fmt2v86formatIJiEEENSt7__cxx1112basic_stringIcSt11char_traitsIcESaIcEEENS0_19basic_format_stringIcJDpNS0_13type_identityIT_E4typeEEEEDpOSA_.exit unwind label %lpad11

_ZN3fmt2v86formatIJiEEENSt7__cxx1112basic_stringIcSt11char_traitsIcESaIcEEENS0_19basic_format_stringIcJDpNS0_13type_identityIT_E4typeEEEEDpOSA_.exit: ; preds = %.noexc
  br label %invoke.cont14

invoke.cont14:                                    ; preds = %_ZN3fmt2v86formatIJiEEENSt7__cxx1112basic_stringIcSt11char_traitsIcESaIcEEENS0_19basic_format_stringIcJDpNS0_13type_identityIT_E4typeEEEEDpOSA_.exit
  %36 = load i32, ptr %i, align 4
  %conv15 = sext i32 %36 to i64
  %call16 = call noundef nonnull align 8 dereferenceable(32) ptr @_ZNSt6vectorINSt7__cxx1112basic_stringIcSt11char_traitsIcESaIcEEESaIS5_EEixEm(ptr noundef nonnull align 8 dereferenceable(24) %names, i64 noundef %conv15) #12
  %call17 = call noundef nonnull align 8 dereferenceable(32) ptr @_ZNSt7__cxx1112basic_stringIcSt11char_traitsIcESaIcEEaSEOS4_(ptr noundef nonnull align 8 dereferenceable(32) %call16, ptr noundef nonnull align 8 dereferenceable(32) %ref.tmp10) #12
  call void @_ZNSt7__cxx1112basic_stringIcSt11char_traitsIcESaIcEED1Ev(ptr noundef nonnull align 8 dereferenceable(32) %ref.tmp10) #12
  br label %for.inc

for.inc:                                          ; preds = %invoke.cont14
  %37 = load i32, ptr %i, align 4
  %inc = add nsw i32 %37, 1
  store i32 %inc, ptr %i, align 4
  br label %for.cond, !llvm.loop !7

lpad:                                             ; preds = %entry
  %38 = landingpad { ptr, i32 }
          cleanup
  %39 = extractvalue { ptr, i32 } %38, 0
  store ptr %39, ptr %exn.slot, align 8
  %40 = extractvalue { ptr, i32 } %38, 1
  store i32 %40, ptr %ehselector.slot, align 4
  call void @_ZNSaINSt7__cxx1112basic_stringIcSt11char_traitsIcESaIcEEEED2Ev(ptr noundef nonnull align 1 dereferenceable(1) %ref.tmp) #12
  br label %eh.resume

lpad3:                                            ; preds = %invoke.cont
  %41 = landingpad { ptr, i32 }
          cleanup
  %42 = extractvalue { ptr, i32 } %41, 0
  store ptr %42, ptr %exn.slot, align 8
  %43 = extractvalue { ptr, i32 } %41, 1
  store i32 %43, ptr %ehselector.slot, align 4
  call void @_ZNSaISt10shared_ptrIKN8facebook5velox4TypeEEED2Ev(ptr noundef nonnull align 1 dereferenceable(1) %ref.tmp2) #12
  br label %ehcleanup

lpad11:                                           ; preds = %for.end, %.noexc, %invoke.cont12
  %44 = landingpad { ptr, i32 }
          cleanup
  %45 = extractvalue { ptr, i32 } %44, 0
  store ptr %45, ptr %exn.slot, align 8
  %46 = extractvalue { ptr, i32 } %44, 1
  store i32 %46, ptr %ehselector.slot, align 4
  call void @_ZNSt6vectorISt10shared_ptrIKN8facebook5velox4TypeEESaIS5_EED2Ev(ptr noundef nonnull align 8 dereferenceable(24) %types) #12
  br label %ehcleanup

for.end:                                          ; preds = %for.cond
  invoke void @_ZN8facebook5velox3ROWEOSt6vectorINSt7__cxx1112basic_stringIcSt11char_traitsIcESaIcEEESaIS7_EEOS1_ISt10shared_ptrIKNS0_4TypeEESaISE_EE(ptr sret(%"class.std::shared_ptr.8") align 8 %ref.tmp18, ptr noundef nonnull align 8 dereferenceable(24) %names, ptr noundef nonnull align 8 dereferenceable(24) %types)
          to label %invoke.cont19 unwind label %lpad11

invoke.cont19:                                    ; preds = %for.end
  call void @_ZNSt10shared_ptrIKN8facebook5velox4TypeEEC2IKNS1_7RowTypeEvEEOS_IT_E(ptr noundef nonnull align 8 dereferenceable(16) %agg.result, ptr noundef nonnull align 8 dereferenceable(16) %ref.tmp18) #12
  call void @_ZNSt10shared_ptrIKN8facebook5velox7RowTypeEED2Ev(ptr noundef nonnull align 8 dereferenceable(16) %ref.tmp18) #12
  call void @_ZNSt6vectorISt10shared_ptrIKN8facebook5velox4TypeEESaIS5_EED2Ev(ptr noundef nonnull align 8 dereferenceable(24) %types) #12
  call void @_ZNSt6vectorINSt7__cxx1112basic_stringIcSt11char_traitsIcESaIcEEESaIS5_EED2Ev(ptr noundef nonnull align 8 dereferenceable(24) %names) #12
  ret void

ehcleanup:                                        ; preds = %lpad11, %lpad3
  call void @_ZNSt6vectorINSt7__cxx1112basic_stringIcSt11char_traitsIcESaIcEEESaIS5_EED2Ev(ptr noundef nonnull align 8 dereferenceable(24) %names) #12
  br label %eh.resume

eh.resume:                                        ; preds = %ehcleanup, %lpad
  %exn = load ptr, ptr %exn.slot, align 8
  %sel = load i32, ptr %ehselector.slot, align 4
  %lpad.val = insertvalue { ptr, i32 } poison, ptr %exn, 0
  %lpad.val20 = insertvalue { ptr, i32 } %lpad.val, i32 %sel, 1
  resume { ptr, i32 } %lpad.val20
}

; Function Attrs: mustprogress nounwind uwtable
define linkonce_odr noundef i64 @_ZNKSt6vectorISt10shared_ptrIKN8facebook5velox4TypeEESaIS5_EE4sizeEv(ptr noundef nonnull align 8 dereferenceable(24) %this) #1 comdat align 2 {
entry:
  %this.addr = alloca ptr, align 8
  store ptr %this, ptr %this.addr, align 8
  %this1 = load ptr, ptr %this.addr, align 8
  %_M_impl = getelementptr inbounds %"struct.std::_Vector_base", ptr %this1, i32 0, i32 0
  %_M_finish = getelementptr inbounds %"struct.std::_Vector_base<std::shared_ptr<const facebook::velox::Type>, std::allocator<std::shared_ptr<const facebook::velox::Type>>>::_Vector_impl_data", ptr %_M_impl, i32 0, i32 1
  %0 = load ptr, ptr %_M_finish, align 8
  %_M_impl2 = getelementptr inbounds %"struct.std::_Vector_base", ptr %this1, i32 0, i32 0
  %_M_start = getelementptr inbounds %"struct.std::_Vector_base<std::shared_ptr<const facebook::velox::Type>, std::allocator<std::shared_ptr<const facebook::velox::Type>>>::_Vector_impl_data", ptr %_M_impl2, i32 0, i32 0
  %1 = load ptr, ptr %_M_start, align 8
  %sub.ptr.lhs.cast = ptrtoint ptr %0 to i64
  %sub.ptr.rhs.cast = ptrtoint ptr %1 to i64
  %sub.ptr.sub = sub i64 %sub.ptr.lhs.cast, %sub.ptr.rhs.cast
  %sub.ptr.div = sdiv exact i64 %sub.ptr.sub, 16
  ret i64 %sub.ptr.div
}

; Function Attrs: mustprogress nounwind uwtable
define linkonce_odr void @_ZNSaINSt7__cxx1112basic_stringIcSt11char_traitsIcESaIcEEEEC2Ev(ptr noundef nonnull align 1 dereferenceable(1) %this) unnamed_addr #1 comdat align 2 {
entry:
  %this.addr = alloca ptr, align 8
  store ptr %this, ptr %this.addr, align 8
  %this1 = load ptr, ptr %this.addr, align 8
  call void @_ZNSt15__new_allocatorINSt7__cxx1112basic_stringIcSt11char_traitsIcESaIcEEEEC2Ev(ptr noundef nonnull align 1 dereferenceable(1) %this1) #12
  ret void
}

; Function Attrs: mustprogress uwtable
define linkonce_odr void @_ZNSt6vectorINSt7__cxx1112basic_stringIcSt11char_traitsIcESaIcEEESaIS5_EEC2EmRKS6_(ptr noundef nonnull align 8 dereferenceable(24) %this, i64 noundef %__n, ptr noundef nonnull align 1 dereferenceable(1) %__a) unnamed_addr #0 comdat align 2 personality ptr @__gxx_personality_v0 {
entry:
  %this.addr = alloca ptr, align 8
  %__n.addr = alloca i64, align 8
  %__a.addr = alloca ptr, align 8
  %exn.slot = alloca ptr, align 8
  %ehselector.slot = alloca i32, align 4
  store ptr %this, ptr %this.addr, align 8
  store i64 %__n, ptr %__n.addr, align 8
  store ptr %__a, ptr %__a.addr, align 8
  %this1 = load ptr, ptr %this.addr, align 8
  %0 = load i64, ptr %__n.addr, align 8
  %1 = load ptr, ptr %__a.addr, align 8
  %call = call noundef i64 @_ZNSt6vectorINSt7__cxx1112basic_stringIcSt11char_traitsIcESaIcEEESaIS5_EE17_S_check_init_lenEmRKS6_(i64 noundef %0, ptr noundef nonnull align 1 dereferenceable(1) %1)
  %2 = load ptr, ptr %__a.addr, align 8
  call void @_ZNSt12_Vector_baseINSt7__cxx1112basic_stringIcSt11char_traitsIcESaIcEEESaIS5_EEC2EmRKS6_(ptr noundef nonnull align 8 dereferenceable(24) %this1, i64 noundef %call, ptr noundef nonnull align 1 dereferenceable(1) %2)
  %3 = load i64, ptr %__n.addr, align 8
  invoke void @_ZNSt6vectorINSt7__cxx1112basic_stringIcSt11char_traitsIcESaIcEEESaIS5_EE21_M_default_initializeEm(ptr noundef nonnull align 8 dereferenceable(24) %this1, i64 noundef %3)
          to label %invoke.cont unwind label %lpad

invoke.cont:                                      ; preds = %entry
  ret void

lpad:                                             ; preds = %entry
  %4 = landingpad { ptr, i32 }
          cleanup
  %5 = extractvalue { ptr, i32 } %4, 0
  store ptr %5, ptr %exn.slot, align 8
  %6 = extractvalue { ptr, i32 } %4, 1
  store i32 %6, ptr %ehselector.slot, align 4
  call void @_ZNSt12_Vector_baseINSt7__cxx1112basic_stringIcSt11char_traitsIcESaIcEEESaIS5_EED2Ev(ptr noundef nonnull align 8 dereferenceable(24) %this1) #12
  br label %eh.resume

eh.resume:                                        ; preds = %lpad
  %exn = load ptr, ptr %exn.slot, align 8
  %sel = load i32, ptr %ehselector.slot, align 4
  %lpad.val = insertvalue { ptr, i32 } poison, ptr %exn, 0
  %lpad.val2 = insertvalue { ptr, i32 } %lpad.val, i32 %sel, 1
  resume { ptr, i32 } %lpad.val2
}

declare i32 @__gxx_personality_v0(...)

; Function Attrs: mustprogress nounwind uwtable
define linkonce_odr void @_ZNSaINSt7__cxx1112basic_stringIcSt11char_traitsIcESaIcEEEED2Ev(ptr noundef nonnull align 1 dereferenceable(1) %this) unnamed_addr #1 comdat align 2 {
entry:
  %this.addr = alloca ptr, align 8
  store ptr %this, ptr %this.addr, align 8
  %this1 = load ptr, ptr %this.addr, align 8
  call void @_ZNSt15__new_allocatorINSt7__cxx1112basic_stringIcSt11char_traitsIcESaIcEEEED2Ev(ptr noundef nonnull align 1 dereferenceable(1) %this1) #12
  ret void
}

; Function Attrs: mustprogress nounwind uwtable
define linkonce_odr void @_ZNSaISt10shared_ptrIKN8facebook5velox4TypeEEEC2Ev(ptr noundef nonnull align 1 dereferenceable(1) %this) unnamed_addr #1 comdat align 2 {
entry:
  %this.addr = alloca ptr, align 8
  store ptr %this, ptr %this.addr, align 8
  %this1 = load ptr, ptr %this.addr, align 8
  call void @_ZNSt15__new_allocatorISt10shared_ptrIKN8facebook5velox4TypeEEEC2Ev(ptr noundef nonnull align 1 dereferenceable(1) %this1) #12
  ret void
}

; Function Attrs: mustprogress uwtable
define linkonce_odr void @_ZNSt6vectorISt10shared_ptrIKN8facebook5velox4TypeEESaIS5_EEC2EmRKS6_(ptr noundef nonnull align 8 dereferenceable(24) %this, i64 noundef %__n, ptr noundef nonnull align 1 dereferenceable(1) %__a) unnamed_addr #0 comdat align 2 personality ptr @__gxx_personality_v0 {
entry:
  %this.addr = alloca ptr, align 8
  %__n.addr = alloca i64, align 8
  %__a.addr = alloca ptr, align 8
  %exn.slot = alloca ptr, align 8
  %ehselector.slot = alloca i32, align 4
  store ptr %this, ptr %this.addr, align 8
  store i64 %__n, ptr %__n.addr, align 8
  store ptr %__a, ptr %__a.addr, align 8
  %this1 = load ptr, ptr %this.addr, align 8
  %0 = load i64, ptr %__n.addr, align 8
  %1 = load ptr, ptr %__a.addr, align 8
  %call = call noundef i64 @_ZNSt6vectorISt10shared_ptrIKN8facebook5velox4TypeEESaIS5_EE17_S_check_init_lenEmRKS6_(i64 noundef %0, ptr noundef nonnull align 1 dereferenceable(1) %1)
  %2 = load ptr, ptr %__a.addr, align 8
  call void @_ZNSt12_Vector_baseISt10shared_ptrIKN8facebook5velox4TypeEESaIS5_EEC2EmRKS6_(ptr noundef nonnull align 8 dereferenceable(24) %this1, i64 noundef %call, ptr noundef nonnull align 1 dereferenceable(1) %2)
  %3 = load i64, ptr %__n.addr, align 8
  invoke void @_ZNSt6vectorISt10shared_ptrIKN8facebook5velox4TypeEESaIS5_EE21_M_default_initializeEm(ptr noundef nonnull align 8 dereferenceable(24) %this1, i64 noundef %3)
          to label %invoke.cont unwind label %lpad

invoke.cont:                                      ; preds = %entry
  ret void

lpad:                                             ; preds = %entry
  %4 = landingpad { ptr, i32 }
          cleanup
  %5 = extractvalue { ptr, i32 } %4, 0
  store ptr %5, ptr %exn.slot, align 8
  %6 = extractvalue { ptr, i32 } %4, 1
  store i32 %6, ptr %ehselector.slot, align 4
  call void @_ZNSt12_Vector_baseISt10shared_ptrIKN8facebook5velox4TypeEESaIS5_EED2Ev(ptr noundef nonnull align 8 dereferenceable(24) %this1) #12
  br label %eh.resume

eh.resume:                                        ; preds = %lpad
  %exn = load ptr, ptr %exn.slot, align 8
  %sel = load i32, ptr %ehselector.slot, align 4
  %lpad.val = insertvalue { ptr, i32 } poison, ptr %exn, 0
  %lpad.val2 = insertvalue { ptr, i32 } %lpad.val, i32 %sel, 1
  resume { ptr, i32 } %lpad.val2
}

; Function Attrs: mustprogress nounwind uwtable
define linkonce_odr void @_ZNSaISt10shared_ptrIKN8facebook5velox4TypeEEED2Ev(ptr noundef nonnull align 1 dereferenceable(1) %this) unnamed_addr #1 comdat align 2 {
entry:
  %this.addr = alloca ptr, align 8
  store ptr %this, ptr %this.addr, align 8
  %this1 = load ptr, ptr %this.addr, align 8
  call void @_ZNSt15__new_allocatorISt10shared_ptrIKN8facebook5velox4TypeEEED2Ev(ptr noundef nonnull align 1 dereferenceable(1) %this1) #12
  ret void
}

; Function Attrs: mustprogress nounwind uwtable
define linkonce_odr noundef nonnull align 8 dereferenceable(16) ptr @_ZNKSt6vectorISt10shared_ptrIKN8facebook5velox4TypeEESaIS5_EEixEm(ptr noundef nonnull align 8 dereferenceable(24) %this, i64 noundef %__n) #1 comdat align 2 {
entry:
  %this.addr = alloca ptr, align 8
  %__n.addr = alloca i64, align 8
  store ptr %this, ptr %this.addr, align 8
  store i64 %__n, ptr %__n.addr, align 8
  %this1 = load ptr, ptr %this.addr, align 8
  %_M_impl = getelementptr inbounds %"struct.std::_Vector_base", ptr %this1, i32 0, i32 0
  %_M_start = getelementptr inbounds %"struct.std::_Vector_base<std::shared_ptr<const facebook::velox::Type>, std::allocator<std::shared_ptr<const facebook::velox::Type>>>::_Vector_impl_data", ptr %_M_impl, i32 0, i32 0
  %0 = load ptr, ptr %_M_start, align 8
  %1 = load i64, ptr %__n.addr, align 8
  %add.ptr = getelementptr inbounds %"class.std::shared_ptr", ptr %0, i64 %1
  ret ptr %add.ptr
}

; Function Attrs: mustprogress nounwind uwtable
define linkonce_odr noundef nonnull align 8 dereferenceable(16) ptr @_ZNSt6vectorISt10shared_ptrIKN8facebook5velox4TypeEESaIS5_EEixEm(ptr noundef nonnull align 8 dereferenceable(24) %this, i64 noundef %__n) #1 comdat align 2 {
entry:
  %this.addr = alloca ptr, align 8
  %__n.addr = alloca i64, align 8
  store ptr %this, ptr %this.addr, align 8
  store i64 %__n, ptr %__n.addr, align 8
  %this1 = load ptr, ptr %this.addr, align 8
  %_M_impl = getelementptr inbounds %"struct.std::_Vector_base", ptr %this1, i32 0, i32 0
  %_M_start = getelementptr inbounds %"struct.std::_Vector_base<std::shared_ptr<const facebook::velox::Type>, std::allocator<std::shared_ptr<const facebook::velox::Type>>>::_Vector_impl_data", ptr %_M_impl, i32 0, i32 0
  %0 = load ptr, ptr %_M_start, align 8
  %1 = load i64, ptr %__n.addr, align 8
  %add.ptr = getelementptr inbounds %"class.std::shared_ptr", ptr %0, i64 %1
  ret ptr %add.ptr
}

; Function Attrs: mustprogress nounwind uwtable
define linkonce_odr noundef nonnull align 8 dereferenceable(16) ptr @_ZNSt10shared_ptrIKN8facebook5velox4TypeEEaSERKS4_(ptr noundef nonnull align 8 dereferenceable(16) %this, ptr noundef nonnull align 8 dereferenceable(16) %0) #1 comdat align 2 {
entry:
  %this.addr = alloca ptr, align 8
  %.addr = alloca ptr, align 8
  store ptr %this, ptr %this.addr, align 8
  store ptr %0, ptr %.addr, align 8
  %this1 = load ptr, ptr %this.addr, align 8
  %1 = load ptr, ptr %.addr, align 8
  %call = call noundef nonnull align 8 dereferenceable(16) ptr @_ZNSt12__shared_ptrIKN8facebook5velox4TypeELN9__gnu_cxx12_Lock_policyE2EEaSERKS6_(ptr noundef nonnull align 8 dereferenceable(16) %this1, ptr noundef nonnull align 8 dereferenceable(16) %1) #12
  ret ptr %this1
}

; Function Attrs: mustprogress nounwind uwtable
define linkonce_odr noundef nonnull align 8 dereferenceable(32) ptr @_ZNSt6vectorINSt7__cxx1112basic_stringIcSt11char_traitsIcESaIcEEESaIS5_EEixEm(ptr noundef nonnull align 8 dereferenceable(24) %this, i64 noundef %__n) #1 comdat align 2 {
entry:
  %this.addr = alloca ptr, align 8
  %__n.addr = alloca i64, align 8
  store ptr %this, ptr %this.addr, align 8
  store i64 %__n, ptr %__n.addr, align 8
  %this1 = load ptr, ptr %this.addr, align 8
  %_M_impl = getelementptr inbounds %"struct.std::_Vector_base.1", ptr %this1, i32 0, i32 0
  %_M_start = getelementptr inbounds %"struct.std::_Vector_base<std::__cxx11::basic_string<char>, std::allocator<std::__cxx11::basic_string<char>>>::_Vector_impl_data", ptr %_M_impl, i32 0, i32 0
  %0 = load ptr, ptr %_M_start, align 8
  %1 = load i64, ptr %__n.addr, align 8
  %add.ptr = getelementptr inbounds %"class.std::__cxx11::basic_string", ptr %0, i64 %1
  ret ptr %add.ptr
}

; Function Attrs: nounwind
declare noundef nonnull align 8 dereferenceable(32) ptr @_ZNSt7__cxx1112basic_stringIcSt11char_traitsIcESaIcEEaSEOS4_(ptr noundef nonnull align 8 dereferenceable(32), ptr noundef nonnull align 8 dereferenceable(32)) #2

; Function Attrs: nounwind
declare void @_ZNSt7__cxx1112basic_stringIcSt11char_traitsIcESaIcEED1Ev(ptr noundef nonnull align 8 dereferenceable(32)) unnamed_addr #2

declare void @_ZN8facebook5velox3ROWEOSt6vectorINSt7__cxx1112basic_stringIcSt11char_traitsIcESaIcEEESaIS7_EEOS1_ISt10shared_ptrIKNS0_4TypeEESaISE_EE(ptr sret(%"class.std::shared_ptr.8") align 8, ptr noundef nonnull align 8 dereferenceable(24), ptr noundef nonnull align 8 dereferenceable(24)) #3

; Function Attrs: mustprogress nounwind uwtable
define linkonce_odr void @_ZNSt10shared_ptrIKN8facebook5velox4TypeEEC2IKNS1_7RowTypeEvEEOS_IT_E(ptr noundef nonnull align 8 dereferenceable(16) %this, ptr noundef nonnull align 8 dereferenceable(16) %__r) unnamed_addr #1 comdat align 2 {
entry:
  %this.addr = alloca ptr, align 8
  %__r.addr = alloca ptr, align 8
  store ptr %this, ptr %this.addr, align 8
  store ptr %__r, ptr %__r.addr, align 8
  %this1 = load ptr, ptr %this.addr, align 8
  %0 = load ptr, ptr %__r.addr, align 8
  call void @_ZNSt12__shared_ptrIKN8facebook5velox4TypeELN9__gnu_cxx12_Lock_policyE2EEC2IKNS1_7RowTypeEvEEOS_IT_LS5_2EE(ptr noundef nonnull align 8 dereferenceable(16) %this1, ptr noundef nonnull align 8 dereferenceable(16) %0) #12
  ret void
}

; Function Attrs: mustprogress nounwind uwtable
define linkonce_odr void @_ZNSt10shared_ptrIKN8facebook5velox7RowTypeEED2Ev(ptr noundef nonnull align 8 dereferenceable(16) %this) unnamed_addr #1 comdat align 2 {
entry:
  %this.addr = alloca ptr, align 8
  store ptr %this, ptr %this.addr, align 8
  %this1 = load ptr, ptr %this.addr, align 8
  call void @_ZNSt12__shared_ptrIKN8facebook5velox7RowTypeELN9__gnu_cxx12_Lock_policyE2EED2Ev(ptr noundef nonnull align 8 dereferenceable(16) %this1) #12
  ret void
}

; Function Attrs: mustprogress nounwind uwtable
define linkonce_odr void @_ZNSt6vectorISt10shared_ptrIKN8facebook5velox4TypeEESaIS5_EED2Ev(ptr noundef nonnull align 8 dereferenceable(24) %this) unnamed_addr #1 comdat align 2 personality ptr @__gxx_personality_v0 {
entry:
  %this.addr = alloca ptr, align 8
  store ptr %this, ptr %this.addr, align 8
  %this1 = load ptr, ptr %this.addr, align 8
  %_M_impl = getelementptr inbounds %"struct.std::_Vector_base", ptr %this1, i32 0, i32 0
  %_M_start = getelementptr inbounds %"struct.std::_Vector_base<std::shared_ptr<const facebook::velox::Type>, std::allocator<std::shared_ptr<const facebook::velox::Type>>>::_Vector_impl_data", ptr %_M_impl, i32 0, i32 0
  %0 = load ptr, ptr %_M_start, align 8
  %_M_impl2 = getelementptr inbounds %"struct.std::_Vector_base", ptr %this1, i32 0, i32 0
  %_M_finish = getelementptr inbounds %"struct.std::_Vector_base<std::shared_ptr<const facebook::velox::Type>, std::allocator<std::shared_ptr<const facebook::velox::Type>>>::_Vector_impl_data", ptr %_M_impl2, i32 0, i32 1
  %1 = load ptr, ptr %_M_finish, align 8
  %call = call noundef nonnull align 1 dereferenceable(1) ptr @_ZNSt12_Vector_baseISt10shared_ptrIKN8facebook5velox4TypeEESaIS5_EE19_M_get_Tp_allocatorEv(ptr noundef nonnull align 8 dereferenceable(24) %this1) #12
  invoke void @_ZSt8_DestroyIPSt10shared_ptrIKN8facebook5velox4TypeEES5_EvT_S7_RSaIT0_E(ptr noundef %0, ptr noundef %1, ptr noundef nonnull align 1 dereferenceable(1) %call)
          to label %invoke.cont unwind label %terminate.lpad

invoke.cont:                                      ; preds = %entry
  call void @_ZNSt12_Vector_baseISt10shared_ptrIKN8facebook5velox4TypeEESaIS5_EED2Ev(ptr noundef nonnull align 8 dereferenceable(24) %this1) #12
  ret void

terminate.lpad:                                   ; preds = %entry
  %2 = landingpad { ptr, i32 }
          catch ptr null
  %3 = extractvalue { ptr, i32 } %2, 0
  call void @__clang_call_terminate(ptr %3) #13
  unreachable
}

; Function Attrs: mustprogress nounwind uwtable
define linkonce_odr void @_ZNSt6vectorINSt7__cxx1112basic_stringIcSt11char_traitsIcESaIcEEESaIS5_EED2Ev(ptr noundef nonnull align 8 dereferenceable(24) %this) unnamed_addr #1 comdat align 2 personality ptr @__gxx_personality_v0 {
entry:
  %this.addr = alloca ptr, align 8
  store ptr %this, ptr %this.addr, align 8
  %this1 = load ptr, ptr %this.addr, align 8
  %_M_impl = getelementptr inbounds %"struct.std::_Vector_base.1", ptr %this1, i32 0, i32 0
  %_M_start = getelementptr inbounds %"struct.std::_Vector_base<std::__cxx11::basic_string<char>, std::allocator<std::__cxx11::basic_string<char>>>::_Vector_impl_data", ptr %_M_impl, i32 0, i32 0
  %0 = load ptr, ptr %_M_start, align 8
  %_M_impl2 = getelementptr inbounds %"struct.std::_Vector_base.1", ptr %this1, i32 0, i32 0
  %_M_finish = getelementptr inbounds %"struct.std::_Vector_base<std::__cxx11::basic_string<char>, std::allocator<std::__cxx11::basic_string<char>>>::_Vector_impl_data", ptr %_M_impl2, i32 0, i32 1
  %1 = load ptr, ptr %_M_finish, align 8
  %call = call noundef nonnull align 1 dereferenceable(1) ptr @_ZNSt12_Vector_baseINSt7__cxx1112basic_stringIcSt11char_traitsIcESaIcEEESaIS5_EE19_M_get_Tp_allocatorEv(ptr noundef nonnull align 8 dereferenceable(24) %this1) #12
  invoke void @_ZSt8_DestroyIPNSt7__cxx1112basic_stringIcSt11char_traitsIcESaIcEEES5_EvT_S7_RSaIT0_E(ptr noundef %0, ptr noundef %1, ptr noundef nonnull align 1 dereferenceable(1) %call)
          to label %invoke.cont unwind label %terminate.lpad

invoke.cont:                                      ; preds = %entry
  call void @_ZNSt12_Vector_baseINSt7__cxx1112basic_stringIcSt11char_traitsIcESaIcEEESaIS5_EED2Ev(ptr noundef nonnull align 8 dereferenceable(24) %this1) #12
  ret void

terminate.lpad:                                   ; preds = %entry
  %2 = landingpad { ptr, i32 }
          catch ptr null
  %3 = extractvalue { ptr, i32 } %2, 0
  call void @__clang_call_terminate(ptr %3) #13
  unreachable
}

; Function Attrs: mustprogress uwtable
define void @_ZN8facebook5velox4exec31RowConstructorCallToSpecialForm20constructSpecialFormERKSt10shared_ptrIKNS0_4TypeEEOSt6vectorIS3_INS1_4ExprEESaISB_EEbRKNS0_4core11QueryConfigE(ptr noalias sret(%"class.std::shared_ptr.11") align 8 %agg.result, ptr noundef nonnull align 8 dereferenceable(8) %this, ptr noundef nonnull align 8 dereferenceable(16) %type, ptr noundef nonnull align 8 dereferenceable(24) %compiledChildren, i1 noundef zeroext %trackCpuUsage, ptr noundef nonnull align 8 dereferenceable(8) %config) unnamed_addr #0 align 2 personality ptr @__gxx_personality_v0 {
entry:
  %result.ptr = alloca ptr, align 8
  %this.addr = alloca ptr, align 8
  %type.addr = alloca ptr, align 8
  %compiledChildren.addr = alloca ptr, align 8
  %trackCpuUsage.addr = alloca i8, align 1
  %config.addr = alloca ptr, align 8
  %function = alloca %"class.std::shared_ptr.14", align 8
  %ref.tmp = alloca %class.anon, align 8
  %exn.slot = alloca ptr, align 8
  %ehselector.slot = alloca i32, align 4
  store ptr %agg.result, ptr %result.ptr, align 8
  store ptr %this, ptr %this.addr, align 8
  store ptr %type, ptr %type.addr, align 8
  store ptr %compiledChildren, ptr %compiledChildren.addr, align 8
  %frombool = zext i1 %trackCpuUsage to i8
  store i8 %frombool, ptr %trackCpuUsage.addr, align 1
  store ptr %config, ptr %config.addr, align 8
  %call = call noundef nonnull align 8 dereferenceable(60) ptr @_ZN8facebook5velox4exec23vectorFunctionFactoriesB5cxx11Ev()
  %0 = getelementptr inbounds %class.anon, ptr %ref.tmp, i32 0, i32 0
  %1 = load ptr, ptr %config.addr, align 8
  store ptr %1, ptr %0, align 8
  call void @"_ZNK5folly16SynchronizedBaseINS_12SynchronizedISt13unordered_mapINSt7__cxx1112basic_stringIcSt11char_traitsIcESaIcEEEN8facebook5velox4exec19VectorFunctionEntryESt4hashIS8_ESt8equal_toIS8_ESaISt4pairIKS8_SC_EEENS_15SharedMutexImplILb0EvSt6atomicNS_24SharedMutexPolicyDefaultEEEEELNS_6detail22SynchronizedMutexLevelE2EE9withRLockIZNSB_31RowConstructorCallToSpecialForm20constructSpecialFormERKSt10shared_ptrIKNSA_4TypeEEOSt6vectorISW_INSB_4ExprEESaIS14_EEbRKNSA_4core11QueryConfigEE3$_0EEDaOT_"(ptr sret(%"class.std::shared_ptr.14") align 8 %function, ptr noundef nonnull align 1 dereferenceable(1) %call, ptr noundef nonnull align 8 dereferenceable(8) %ref.tmp)
  %2 = load ptr, ptr %type.addr, align 8
  %3 = load ptr, ptr %compiledChildren.addr, align 8
  invoke void @_ZSt11make_sharedIN8facebook5velox4exec4ExprEJRKSt10shared_ptrIKNS1_4TypeEESt6vectorIS4_IS3_ESaISB_EERS4_INS2_14VectorFunctionEERKPKcRbEES4_INSt9enable_ifIXntsr8is_arrayIT_EE5valueESN_E4typeEEDpOT0_(ptr sret(%"class.std::shared_ptr.11") align 8 %agg.result, ptr noundef nonnull align 8 dereferenceable(16) %2, ptr noundef nonnull align 8 dereferenceable(24) %3, ptr noundef nonnull align 8 dereferenceable(16) %function, ptr noundef nonnull align 8 dereferenceable(8) @_ZN8facebook5velox4exec31RowConstructorCallToSpecialForm15kRowConstructorE, ptr noundef nonnull align 1 dereferenceable(1) %trackCpuUsage.addr)
          to label %invoke.cont unwind label %lpad

invoke.cont:                                      ; preds = %entry
  call void @_ZNSt10shared_ptrIN8facebook5velox4exec14VectorFunctionEED2Ev(ptr noundef nonnull align 8 dereferenceable(16) %function) #12
  ret void

lpad:                                             ; preds = %entry
  %4 = landingpad { ptr, i32 }
          cleanup
  %5 = extractvalue { ptr, i32 } %4, 0
  store ptr %5, ptr %exn.slot, align 8
  %6 = extractvalue { ptr, i32 } %4, 1
  store i32 %6, ptr %ehselector.slot, align 4
  call void @_ZNSt10shared_ptrIN8facebook5velox4exec14VectorFunctionEED2Ev(ptr noundef nonnull align 8 dereferenceable(16) %function) #12
  br label %eh.resume

eh.resume:                                        ; preds = %lpad
  %exn = load ptr, ptr %exn.slot, align 8
  %sel = load i32, ptr %ehselector.slot, align 4
  %lpad.val = insertvalue { ptr, i32 } poison, ptr %exn, 0
  %lpad.val2 = insertvalue { ptr, i32 } %lpad.val, i32 %sel, 1
  resume { ptr, i32 } %lpad.val2
}

declare noundef nonnull align 8 dereferenceable(60) ptr @_ZN8facebook5velox4exec23vectorFunctionFactoriesB5cxx11Ev() #3

; Function Attrs: mustprogress uwtable
define internal void @"_ZNK5folly16SynchronizedBaseINS_12SynchronizedISt13unordered_mapINSt7__cxx1112basic_stringIcSt11char_traitsIcESaIcEEEN8facebook5velox4exec19VectorFunctionEntryESt4hashIS8_ESt8equal_toIS8_ESaISt4pairIKS8_SC_EEENS_15SharedMutexImplILb0EvSt6atomicNS_24SharedMutexPolicyDefaultEEEEELNS_6detail22SynchronizedMutexLevelE2EE9withRLockIZNSB_31RowConstructorCallToSpecialForm20constructSpecialFormERKSt10shared_ptrIKNSA_4TypeEEOSt6vectorISW_INSB_4ExprEESaIS14_EEbRKNSA_4core11QueryConfigEE3$_0EEDaOT_"(ptr noalias sret(%"class.std::shared_ptr.14") align 8 %agg.result, ptr noundef nonnull align 1 dereferenceable(1) %this, ptr noundef nonnull align 8 dereferenceable(8) %function) #0 align 2 personality ptr @__gxx_personality_v0 {
entry:
  %result.ptr = alloca ptr, align 8
  %this.addr = alloca ptr, align 8
  %function.addr = alloca ptr, align 8
  %ref.tmp = alloca %"class.folly::LockedPtr", align 8
  %exn.slot = alloca ptr, align 8
  %ehselector.slot = alloca i32, align 4
  store ptr %agg.result, ptr %result.ptr, align 8
  store ptr %this, ptr %this.addr, align 8
  store ptr %function, ptr %function.addr, align 8
  %this1 = load ptr, ptr %this.addr, align 8
  %0 = load ptr, ptr %function.addr, align 8
  call void @_ZNK5folly16SynchronizedBaseINS_12SynchronizedISt13unordered_mapINSt7__cxx1112basic_stringIcSt11char_traitsIcESaIcEEEN8facebook5velox4exec19VectorFunctionEntryESt4hashIS8_ESt8equal_toIS8_ESaISt4pairIKS8_SC_EEENS_15SharedMutexImplILb0EvSt6atomicNS_24SharedMutexPolicyDefaultEEEEELNS_6detail22SynchronizedMutexLevelE2EE5rlockEv(ptr sret(%"class.folly::LockedPtr") align 8 %ref.tmp, ptr noundef nonnull align 1 dereferenceable(1) %this1)
  %call = invoke noundef nonnull align 8 dereferenceable(56) ptr @_ZNK5folly9LockedPtrIKNS_12SynchronizedISt13unordered_mapINSt7__cxx1112basic_stringIcSt11char_traitsIcESaIcEEEN8facebook5velox4exec19VectorFunctionEntryESt4hashIS8_ESt8equal_toIS8_ESaISt4pairIKS8_SC_EEENS_15SharedMutexImplILb0EvSt6atomicNS_24SharedMutexPolicyDefaultEEEEENS_6detail22SynchronizedLockPolicyILNSS_22SynchronizedMutexLevelE2ELNSS_23SynchronizedMutexMethodE0EEEEdeEv(ptr noundef nonnull align 8 dereferenceable(16) %ref.tmp)
          to label %invoke.cont unwind label %lpad

invoke.cont:                                      ; preds = %entry
  invoke void @"_ZZN8facebook5velox4exec31RowConstructorCallToSpecialForm20constructSpecialFormERKSt10shared_ptrIKNS0_4TypeEEOSt6vectorIS3_INS1_4ExprEESaISB_EEbRKNS0_4core11QueryConfigEENK3$_0clIKSt13unordered_mapINSt7__cxx1112basic_stringIcSt11char_traitsIcESaIcEEENS1_19VectorFunctionEntryESt4hashISR_ESt8equal_toISR_ESaISt4pairIKSR_SS_EEEEEDaRT_"(ptr sret(%"class.std::shared_ptr.14") align 8 %agg.result, ptr noundef nonnull align 8 dereferenceable(8) %0, ptr noundef nonnull align 8 dereferenceable(56) %call)
          to label %invoke.cont2 unwind label %lpad

invoke.cont2:                                     ; preds = %invoke.cont
  call void @_ZN5folly9LockedPtrIKNS_12SynchronizedISt13unordered_mapINSt7__cxx1112basic_stringIcSt11char_traitsIcESaIcEEEN8facebook5velox4exec19VectorFunctionEntryESt4hashIS8_ESt8equal_toIS8_ESaISt4pairIKS8_SC_EEENS_15SharedMutexImplILb0EvSt6atomicNS_24SharedMutexPolicyDefaultEEEEENS_6detail22SynchronizedLockPolicyILNSS_22SynchronizedMutexLevelE2ELNSS_23SynchronizedMutexMethodE0EEEED2Ev(ptr noundef nonnull align 8 dereferenceable(16) %ref.tmp) #12
  ret void

lpad:                                             ; preds = %invoke.cont, %entry
  %1 = landingpad { ptr, i32 }
          cleanup
  %2 = extractvalue { ptr, i32 } %1, 0
  store ptr %2, ptr %exn.slot, align 8
  %3 = extractvalue { ptr, i32 } %1, 1
  store i32 %3, ptr %ehselector.slot, align 4
  call void @_ZN5folly9LockedPtrIKNS_12SynchronizedISt13unordered_mapINSt7__cxx1112basic_stringIcSt11char_traitsIcESaIcEEEN8facebook5velox4exec19VectorFunctionEntryESt4hashIS8_ESt8equal_toIS8_ESaISt4pairIKS8_SC_EEENS_15SharedMutexImplILb0EvSt6atomicNS_24SharedMutexPolicyDefaultEEEEENS_6detail22SynchronizedLockPolicyILNSS_22SynchronizedMutexLevelE2ELNSS_23SynchronizedMutexMethodE0EEEED2Ev(ptr noundef nonnull align 8 dereferenceable(16) %ref.tmp) #12
  br label %eh.resume

eh.resume:                                        ; preds = %lpad
  %exn = load ptr, ptr %exn.slot, align 8
  %sel = load i32, ptr %ehselector.slot, align 4
  %lpad.val = insertvalue { ptr, i32 } poison, ptr %exn, 0
  %lpad.val3 = insertvalue { ptr, i32 } %lpad.val, i32 %sel, 1
  resume { ptr, i32 } %lpad.val3
}

; Function Attrs: mustprogress uwtable
define linkonce_odr void @_ZSt11make_sharedIN8facebook5velox4exec4ExprEJRKSt10shared_ptrIKNS1_4TypeEESt6vectorIS4_IS3_ESaISB_EERS4_INS2_14VectorFunctionEERKPKcRbEES4_INSt9enable_ifIXntsr8is_arrayIT_EE5valueESN_E4typeEEDpOT0_(ptr noalias sret(%"class.std::shared_ptr.11") align 8 %agg.result, ptr noundef nonnull align 8 dereferenceable(16) %__args, ptr noundef nonnull align 8 dereferenceable(24) %__args1, ptr noundef nonnull align 8 dereferenceable(16) %__args3, ptr noundef nonnull align 8 dereferenceable(8) %__args5, ptr noundef nonnull align 1 dereferenceable(1) %__args7) #0 comdat {
entry:
  %result.ptr = alloca ptr, align 8
  %__args.addr = alloca ptr, align 8
  %__args.addr2 = alloca ptr, align 8
  %__args.addr4 = alloca ptr, align 8
  %__args.addr6 = alloca ptr, align 8
  %__args.addr8 = alloca ptr, align 8
  %__a = alloca %"class.std::allocator.55", align 1
  %agg.tmp = alloca %"struct.std::_Sp_alloc_shared_tag", align 8
  store ptr %agg.result, ptr %result.ptr, align 8
  store ptr %__args, ptr %__args.addr, align 8
  store ptr %__args1, ptr %__args.addr2, align 8
  store ptr %__args3, ptr %__args.addr4, align 8
  store ptr %__args5, ptr %__args.addr6, align 8
  store ptr %__args7, ptr %__args.addr8, align 8
  %_M_a = getelementptr inbounds %"struct.std::_Sp_alloc_shared_tag", ptr %agg.tmp, i32 0, i32 0
  store ptr %__a, ptr %_M_a, align 8
  %0 = load ptr, ptr %__args.addr, align 8
  %1 = load ptr, ptr %__args.addr2, align 8
  %2 = load ptr, ptr %__args.addr4, align 8
  %3 = load ptr, ptr %__args.addr6, align 8
  %4 = load ptr, ptr %__args.addr8, align 8
  %coerce.dive = getelementptr inbounds %"struct.std::_Sp_alloc_shared_tag", ptr %agg.tmp, i32 0, i32 0
  %5 = load ptr, ptr %coerce.dive, align 8
  call void @_ZNSt10shared_ptrIN8facebook5velox4exec4ExprEEC2ISaIvEJRKS_IKNS1_4TypeEESt6vectorIS4_SaIS4_EERS_INS2_14VectorFunctionEERKPKcRbEEESt20_Sp_alloc_shared_tagIT_EDpOT0_(ptr noundef nonnull align 8 dereferenceable(16) %agg.result, ptr %5, ptr noundef nonnull align 8 dereferenceable(16) %0, ptr noundef nonnull align 8 dereferenceable(24) %1, ptr noundef nonnull align 8 dereferenceable(16) %2, ptr noundef nonnull align 8 dereferenceable(8) %3, ptr noundef nonnull align 1 dereferenceable(1) %4)
  ret void
}

; Function Attrs: mustprogress nounwind uwtable
define linkonce_odr void @_ZNSt10shared_ptrIN8facebook5velox4exec14VectorFunctionEED2Ev(ptr noundef nonnull align 8 dereferenceable(16) %this) unnamed_addr #1 comdat align 2 {
entry:
  %this.addr = alloca ptr, align 8
  store ptr %this, ptr %this.addr, align 8
  %this1 = load ptr, ptr %this.addr, align 8
  call void @_ZNSt12__shared_ptrIN8facebook5velox4exec14VectorFunctionELN9__gnu_cxx12_Lock_policyE2EED2Ev(ptr noundef nonnull align 8 dereferenceable(16) %this1) #12
  ret void
}

; Function Attrs: mustprogress nounwind uwtable
define linkonce_odr void @_ZN8facebook5velox4exec31RowConstructorCallToSpecialFormD2Ev(ptr noundef nonnull align 8 dereferenceable(8) %this) unnamed_addr #1 comdat align 2 {
entry:
  %this.addr = alloca ptr, align 8
  store ptr %this, ptr %this.addr, align 8
  %this1 = load ptr, ptr %this.addr, align 8
  call void @_ZN8facebook5velox4exec25FunctionCallToSpecialFormD2Ev(ptr noundef nonnull align 8 dereferenceable(8) %this1) #12
  ret void
}

; Function Attrs: mustprogress nounwind uwtable
define linkonce_odr void @_ZN8facebook5velox4exec31RowConstructorCallToSpecialFormD0Ev(ptr noundef nonnull align 8 dereferenceable(8) %this) unnamed_addr #1 comdat align 2 {
entry:
  %this.addr = alloca ptr, align 8
  store ptr %this, ptr %this.addr, align 8
  %this1 = load ptr, ptr %this.addr, align 8
  call void @_ZN8facebook5velox4exec31RowConstructorCallToSpecialFormD2Ev(ptr noundef nonnull align 8 dereferenceable(8) %this1) #12
  call void @_ZdlPv(ptr noundef %this1) #14
  ret void
}

; Function Attrs: mustprogress nounwind uwtable
define linkonce_odr noundef nonnull align 8 dereferenceable(16) ptr @_ZNSt12__shared_ptrIKN8facebook5velox4TypeELN9__gnu_cxx12_Lock_policyE2EEaSERKS6_(ptr noundef nonnull align 8 dereferenceable(16) %this, ptr noundef nonnull align 8 dereferenceable(16) %0) #1 comdat align 2 {
entry:
  %this.addr = alloca ptr, align 8
  %.addr = alloca ptr, align 8
  store ptr %this, ptr %this.addr, align 8
  store ptr %0, ptr %.addr, align 8
  %this1 = load ptr, ptr %this.addr, align 8
  %1 = load ptr, ptr %.addr, align 8
  %_M_ptr = getelementptr inbounds %"class.std::__shared_ptr", ptr %1, i32 0, i32 0
  %2 = load ptr, ptr %_M_ptr, align 8
  %_M_ptr2 = getelementptr inbounds %"class.std::__shared_ptr", ptr %this1, i32 0, i32 0
  store ptr %2, ptr %_M_ptr2, align 8
  %_M_refcount = getelementptr inbounds %"class.std::__shared_ptr", ptr %this1, i32 0, i32 1
  %3 = load ptr, ptr %.addr, align 8
  %_M_refcount3 = getelementptr inbounds %"class.std::__shared_ptr", ptr %3, i32 0, i32 1
  %call = call noundef nonnull align 8 dereferenceable(8) ptr @_ZNSt14__shared_countILN9__gnu_cxx12_Lock_policyE2EEaSERKS2_(ptr noundef nonnull align 8 dereferenceable(8) %_M_refcount, ptr noundef nonnull align 8 dereferenceable(8) %_M_refcount3) #12
  ret ptr %this1
}

; Function Attrs: mustprogress nounwind uwtable
define linkonce_odr noundef nonnull align 8 dereferenceable(8) ptr @_ZNSt14__shared_countILN9__gnu_cxx12_Lock_policyE2EEaSERKS2_(ptr noundef nonnull align 8 dereferenceable(8) %this, ptr noundef nonnull align 8 dereferenceable(8) %__r) #1 comdat align 2 personality ptr @__gxx_personality_v0 {
entry:
  %this.addr = alloca ptr, align 8
  %__r.addr = alloca ptr, align 8
  %__tmp = alloca ptr, align 8
  store ptr %this, ptr %this.addr, align 8
  store ptr %__r, ptr %__r.addr, align 8
  %this1 = load ptr, ptr %this.addr, align 8
  %0 = load ptr, ptr %__r.addr, align 8
  %_M_pi = getelementptr inbounds %"class.std::__shared_count", ptr %0, i32 0, i32 0
  %1 = load ptr, ptr %_M_pi, align 8
  store ptr %1, ptr %__tmp, align 8
  %2 = load ptr, ptr %__tmp, align 8
  %_M_pi2 = getelementptr inbounds %"class.std::__shared_count", ptr %this1, i32 0, i32 0
  %3 = load ptr, ptr %_M_pi2, align 8
  %cmp = icmp ne ptr %2, %3
  br i1 %cmp, label %if.then, label %if.end11

if.then:                                          ; preds = %entry
  %4 = load ptr, ptr %__tmp, align 8
  %cmp3 = icmp ne ptr %4, null
  br i1 %cmp3, label %if.then4, label %if.end

if.then4:                                         ; preds = %if.then
  %5 = load ptr, ptr %__tmp, align 8
  invoke void @_ZNSt16_Sp_counted_baseILN9__gnu_cxx12_Lock_policyE2EE15_M_add_ref_copyEv(ptr noundef nonnull align 8 dereferenceable(16) %5)
          to label %invoke.cont unwind label %terminate.lpad

invoke.cont:                                      ; preds = %if.then4
  br label %if.end

if.end:                                           ; preds = %invoke.cont, %if.then
  %_M_pi5 = getelementptr inbounds %"class.std::__shared_count", ptr %this1, i32 0, i32 0
  %6 = load ptr, ptr %_M_pi5, align 8
  %cmp6 = icmp ne ptr %6, null
  br i1 %cmp6, label %if.then7, label %if.end9

if.then7:                                         ; preds = %if.end
  %_M_pi8 = getelementptr inbounds %"class.std::__shared_count", ptr %this1, i32 0, i32 0
  %7 = load ptr, ptr %_M_pi8, align 8
  call void @_ZNSt16_Sp_counted_baseILN9__gnu_cxx12_Lock_policyE2EE10_M_releaseEv(ptr noundef nonnull align 8 dereferenceable(16) %7) #12
  br label %if.end9

if.end9:                                          ; preds = %if.then7, %if.end
  %8 = load ptr, ptr %__tmp, align 8
  %_M_pi10 = getelementptr inbounds %"class.std::__shared_count", ptr %this1, i32 0, i32 0
  store ptr %8, ptr %_M_pi10, align 8
  br label %if.end11

if.end11:                                         ; preds = %if.end9, %entry
  ret ptr %this1

terminate.lpad:                                   ; preds = %if.then4
  %9 = landingpad { ptr, i32 }
          catch ptr null
  %10 = extractvalue { ptr, i32 } %9, 0
  call void @__clang_call_terminate(ptr %10) #13
  unreachable
}

; Function Attrs: mustprogress uwtable
define linkonce_odr void @_ZNSt16_Sp_counted_baseILN9__gnu_cxx12_Lock_policyE2EE15_M_add_ref_copyEv(ptr noundef nonnull align 8 dereferenceable(16) %this) #0 comdat align 2 {
entry:
  %__mem.addr.i4 = alloca ptr, align 8
  %__val.addr.i5 = alloca i32, align 4
  %.atomictmp.i = alloca i32, align 4
  %atomic-temp.i = alloca i32, align 4
  %__mem.addr.i2 = alloca ptr, align 8
  %__val.addr.i3 = alloca i32, align 4
  %__mem.addr.i = alloca ptr, align 8
  %__val.addr.i = alloca i32, align 4
  %this.addr = alloca ptr, align 8
  store ptr %this, ptr %this.addr, align 8
  %this1 = load ptr, ptr %this.addr, align 8
  %_M_use_count = getelementptr inbounds %"class.std::_Sp_counted_base", ptr %this1, i32 0, i32 1
  store ptr %_M_use_count, ptr %__mem.addr.i, align 8
  store i32 1, ptr %__val.addr.i, align 4
  %0 = load i8, ptr @__libc_single_threaded, align 1
  %tobool.i = icmp ne i8 %0, 0
  br i1 %tobool.i, label %if.then.i, label %if.else.i

if.then.i:                                        ; preds = %entry
  %1 = load ptr, ptr %__mem.addr.i, align 8
  %2 = load i32, ptr %__val.addr.i, align 4
  store ptr %1, ptr %__mem.addr.i2, align 8
  store i32 %2, ptr %__val.addr.i3, align 4
  %3 = load i32, ptr %__val.addr.i3, align 4
  %4 = load ptr, ptr %__mem.addr.i2, align 8
  %5 = load i32, ptr %4, align 4
  %add.i = add nsw i32 %5, %3
  store i32 %add.i, ptr %4, align 4
  br label %_ZN9__gnu_cxx21__atomic_add_dispatchEPii.exit

if.else.i:                                        ; preds = %entry
  %6 = load ptr, ptr %__mem.addr.i, align 8
  %7 = load i32, ptr %__val.addr.i, align 4
  store ptr %6, ptr %__mem.addr.i4, align 8
  store i32 %7, ptr %__val.addr.i5, align 4
  %8 = load ptr, ptr %__mem.addr.i4, align 8
  %9 = load i32, ptr %__val.addr.i5, align 4
  store i32 %9, ptr %.atomictmp.i, align 4
  %10 = load i32, ptr %.atomictmp.i, align 4
  %11 = atomicrmw volatile add ptr %8, i32 %10 acq_rel, align 4
  store i32 %11, ptr %atomic-temp.i, align 4
  br label %_ZN9__gnu_cxx21__atomic_add_dispatchEPii.exit

_ZN9__gnu_cxx21__atomic_add_dispatchEPii.exit:    ; preds = %if.else.i, %if.then.i
  ret void
}

; Function Attrs: noreturn nounwind uwtable
define linkonce_odr hidden void @__clang_call_terminate(ptr noundef %0) #4 comdat {
  %2 = call ptr @__cxa_begin_catch(ptr %0) #12
  call void @_ZSt9terminatev() #13
  unreachable
}

declare ptr @__cxa_begin_catch(ptr)

declare void @_ZSt9terminatev()

; Function Attrs: mustprogress nounwind uwtable
define linkonce_odr void @_ZNSt16_Sp_counted_baseILN9__gnu_cxx12_Lock_policyE2EE10_M_releaseEv(ptr noundef nonnull align 8 dereferenceable(16) %this) #1 comdat align 2 personality ptr @__gxx_personality_v0 {
entry:
  %__mem.addr.i11 = alloca ptr, align 8
  %__val.addr.i12 = alloca i32, align 4
  %.atomictmp.i = alloca i32, align 4
  %atomic-temp.i = alloca i32, align 4
  %__mem.addr.i9 = alloca ptr, align 8
  %__val.addr.i10 = alloca i32, align 4
  %__result.i = alloca i32, align 4
  %retval.i = alloca i32, align 4
  %__mem.addr.i = alloca ptr, align 8
  %__val.addr.i = alloca i32, align 4
  %this.addr = alloca ptr, align 8
  %__lock_free = alloca i8, align 1
  %__double_word = alloca i8, align 1
  %__aligned = alloca i8, align 1
  %__wordbits = alloca i32, align 4
  %__shiftbits = alloca i32, align 4
  %__unique_ref = alloca i64, align 8
  %__both_counts = alloca ptr, align 8
  %atomic-temp = alloca i64, align 8
  store ptr %this, ptr %this.addr, align 8
  %this1 = load ptr, ptr %this.addr, align 8
  store i8 1, ptr %__lock_free, align 1
  store i8 1, ptr %__double_word, align 1
  store i8 1, ptr %__aligned, align 1
  store i32 32, ptr %__wordbits, align 4
  store i32 32, ptr %__shiftbits, align 4
  store i64 4294967297, ptr %__unique_ref, align 8
  %_M_use_count = getelementptr inbounds %"class.std::_Sp_counted_base", ptr %this1, i32 0, i32 1
  store ptr %_M_use_count, ptr %__both_counts, align 8
  %0 = load ptr, ptr %__both_counts, align 8
  %1 = load atomic i64, ptr %0 acquire, align 8
  store i64 %1, ptr %atomic-temp, align 8
  %2 = load i64, ptr %atomic-temp, align 8
  %cmp = icmp eq i64 %2, 4294967297
  br i1 %cmp, label %if.then, label %if.end

if.then:                                          ; preds = %entry
  %_M_use_count2 = getelementptr inbounds %"class.std::_Sp_counted_base", ptr %this1, i32 0, i32 1
  store i32 0, ptr %_M_use_count2, align 8
  %_M_weak_count = getelementptr inbounds %"class.std::_Sp_counted_base", ptr %this1, i32 0, i32 2
  store i32 0, ptr %_M_weak_count, align 4
  %vtable = load ptr, ptr %this1, align 8
  %vfn = getelementptr inbounds ptr, ptr %vtable, i64 2
  %3 = load ptr, ptr %vfn, align 8
  call void %3(ptr noundef nonnull align 8 dereferenceable(16) %this1) #12
  %vtable3 = load ptr, ptr %this1, align 8
  %vfn4 = getelementptr inbounds ptr, ptr %vtable3, i64 3
  %4 = load ptr, ptr %vfn4, align 8
  call void %4(ptr noundef nonnull align 8 dereferenceable(16) %this1) #12
  br label %if.end8

if.end:                                           ; preds = %entry
  %_M_use_count5 = getelementptr inbounds %"class.std::_Sp_counted_base", ptr %this1, i32 0, i32 1
  store ptr %_M_use_count5, ptr %__mem.addr.i, align 8
  store i32 -1, ptr %__val.addr.i, align 4
  %5 = load i8, ptr @__libc_single_threaded, align 1
  %tobool.i.i = icmp ne i8 %5, 0
  br i1 %tobool.i.i, label %if.then.i, label %if.else.i

if.then.i:                                        ; preds = %if.end
  %6 = load ptr, ptr %__mem.addr.i, align 8
  %7 = load i32, ptr %__val.addr.i, align 4
  store ptr %6, ptr %__mem.addr.i9, align 8
  store i32 %7, ptr %__val.addr.i10, align 4
  %8 = load ptr, ptr %__mem.addr.i9, align 8
  %9 = load i32, ptr %8, align 4
  store i32 %9, ptr %__result.i, align 4
  %10 = load i32, ptr %__val.addr.i10, align 4
  %11 = load ptr, ptr %__mem.addr.i9, align 8
  %12 = load i32, ptr %11, align 4
  %add.i = add nsw i32 %12, %10
  store i32 %add.i, ptr %11, align 4
  %13 = load i32, ptr %__result.i, align 4
  store i32 %13, ptr %retval.i, align 4
  br label %_ZN9__gnu_cxx27__exchange_and_add_dispatchEPii.exit

if.else.i:                                        ; preds = %if.end
  %14 = load ptr, ptr %__mem.addr.i, align 8
  %15 = load i32, ptr %__val.addr.i, align 4
  store ptr %14, ptr %__mem.addr.i11, align 8
  store i32 %15, ptr %__val.addr.i12, align 4
  %16 = load ptr, ptr %__mem.addr.i11, align 8
  %17 = load i32, ptr %__val.addr.i12, align 4
  store i32 %17, ptr %.atomictmp.i, align 4
  %18 = load i32, ptr %.atomictmp.i, align 4
  %19 = atomicrmw volatile add ptr %16, i32 %18 acq_rel, align 4
  store i32 %19, ptr %atomic-temp.i, align 4
  %20 = load i32, ptr %atomic-temp.i, align 4
  store i32 %20, ptr %retval.i, align 4
  br label %_ZN9__gnu_cxx27__exchange_and_add_dispatchEPii.exit

_ZN9__gnu_cxx27__exchange_and_add_dispatchEPii.exit: ; preds = %if.else.i, %if.then.i
  %21 = load i32, ptr %retval.i, align 4
  br label %invoke.cont

invoke.cont:                                      ; preds = %_ZN9__gnu_cxx27__exchange_and_add_dispatchEPii.exit
  %cmp6 = icmp eq i32 %21, 1
  br i1 %cmp6, label %if.then7, label %if.end8

if.then7:                                         ; preds = %invoke.cont
  call void @_ZNSt16_Sp_counted_baseILN9__gnu_cxx12_Lock_policyE2EE24_M_release_last_use_coldEv(ptr noundef nonnull align 8 dereferenceable(16) %this1) #12
  br label %if.end8

if.end8:                                          ; preds = %if.then7, %invoke.cont, %if.then
  ret void

terminate.lpad:                                   ; No predecessors!
  %22 = landingpad { ptr, i32 }
          catch ptr null
  %23 = extractvalue { ptr, i32 } %22, 0
  call void @__clang_call_terminate(ptr %23) #13
  unreachable
}

; Function Attrs: mustprogress nounwind uwtable
define linkonce_odr void @_ZNSt16_Sp_counted_baseILN9__gnu_cxx12_Lock_policyE2EE24_M_release_last_use_coldEv(ptr noundef nonnull align 8 dereferenceable(16) %this) #1 comdat align 2 {
entry:
  %this.addr = alloca ptr, align 8
  store ptr %this, ptr %this.addr, align 8
  %this1 = load ptr, ptr %this.addr, align 8
  call void @_ZNSt16_Sp_counted_baseILN9__gnu_cxx12_Lock_policyE2EE19_M_release_last_useEv(ptr noundef nonnull align 8 dereferenceable(16) %this1) #12
  ret void
}

; Function Attrs: mustprogress nounwind uwtable
define linkonce_odr void @_ZNSt16_Sp_counted_baseILN9__gnu_cxx12_Lock_policyE2EE19_M_release_last_useEv(ptr noundef nonnull align 8 dereferenceable(16) %this) #1 comdat align 2 personality ptr @__gxx_personality_v0 {
entry:
  %__mem.addr.i6 = alloca ptr, align 8
  %__val.addr.i7 = alloca i32, align 4
  %.atomictmp.i = alloca i32, align 4
  %atomic-temp.i = alloca i32, align 4
  %__mem.addr.i4 = alloca ptr, align 8
  %__val.addr.i5 = alloca i32, align 4
  %__result.i = alloca i32, align 4
  %retval.i = alloca i32, align 4
  %__mem.addr.i = alloca ptr, align 8
  %__val.addr.i = alloca i32, align 4
  %this.addr = alloca ptr, align 8
  store ptr %this, ptr %this.addr, align 8
  %this1 = load ptr, ptr %this.addr, align 8
  %vtable = load ptr, ptr %this1, align 8
  %vfn = getelementptr inbounds ptr, ptr %vtable, i64 2
  %0 = load ptr, ptr %vfn, align 8
  call void %0(ptr noundef nonnull align 8 dereferenceable(16) %this1) #12
  %_M_weak_count = getelementptr inbounds %"class.std::_Sp_counted_base", ptr %this1, i32 0, i32 2
  store ptr %_M_weak_count, ptr %__mem.addr.i, align 8
  store i32 -1, ptr %__val.addr.i, align 4
  %1 = load i8, ptr @__libc_single_threaded, align 1
  %tobool.i.i = icmp ne i8 %1, 0
  br i1 %tobool.i.i, label %if.then.i, label %if.else.i

if.then.i:                                        ; preds = %entry
  %2 = load ptr, ptr %__mem.addr.i, align 8
  %3 = load i32, ptr %__val.addr.i, align 4
  store ptr %2, ptr %__mem.addr.i4, align 8
  store i32 %3, ptr %__val.addr.i5, align 4
  %4 = load ptr, ptr %__mem.addr.i4, align 8
  %5 = load i32, ptr %4, align 4
  store i32 %5, ptr %__result.i, align 4
  %6 = load i32, ptr %__val.addr.i5, align 4
  %7 = load ptr, ptr %__mem.addr.i4, align 8
  %8 = load i32, ptr %7, align 4
  %add.i = add nsw i32 %8, %6
  store i32 %add.i, ptr %7, align 4
  %9 = load i32, ptr %__result.i, align 4
  store i32 %9, ptr %retval.i, align 4
  br label %_ZN9__gnu_cxx27__exchange_and_add_dispatchEPii.exit

if.else.i:                                        ; preds = %entry
  %10 = load ptr, ptr %__mem.addr.i, align 8
  %11 = load i32, ptr %__val.addr.i, align 4
  store ptr %10, ptr %__mem.addr.i6, align 8
  store i32 %11, ptr %__val.addr.i7, align 4
  %12 = load ptr, ptr %__mem.addr.i6, align 8
  %13 = load i32, ptr %__val.addr.i7, align 4
  store i32 %13, ptr %.atomictmp.i, align 4
  %14 = load i32, ptr %.atomictmp.i, align 4
  %15 = atomicrmw volatile add ptr %12, i32 %14 acq_rel, align 4
  store i32 %15, ptr %atomic-temp.i, align 4
  %16 = load i32, ptr %atomic-temp.i, align 4
  store i32 %16, ptr %retval.i, align 4
  br label %_ZN9__gnu_cxx27__exchange_and_add_dispatchEPii.exit

_ZN9__gnu_cxx27__exchange_and_add_dispatchEPii.exit: ; preds = %if.else.i, %if.then.i
  %17 = load i32, ptr %retval.i, align 4
  br label %invoke.cont

invoke.cont:                                      ; preds = %_ZN9__gnu_cxx27__exchange_and_add_dispatchEPii.exit
  %cmp = icmp eq i32 %17, 1
  br i1 %cmp, label %if.then, label %if.end

if.then:                                          ; preds = %invoke.cont
  %vtable2 = load ptr, ptr %this1, align 8
  %vfn3 = getelementptr inbounds ptr, ptr %vtable2, i64 3
  %18 = load ptr, ptr %vfn3, align 8
  call void %18(ptr noundef nonnull align 8 dereferenceable(16) %this1) #12
  br label %if.end

if.end:                                           ; preds = %if.then, %invoke.cont
  ret void

terminate.lpad:                                   ; No predecessors!
  %19 = landingpad { ptr, i32 }
          catch ptr null
  %20 = extractvalue { ptr, i32 } %19, 0
  call void @__clang_call_terminate(ptr %20) #13
  unreachable
}

; Function Attrs: mustprogress nounwind uwtable
define linkonce_odr void @_ZNSt12__shared_ptrIKN8facebook5velox7RowTypeELN9__gnu_cxx12_Lock_policyE2EED2Ev(ptr noundef nonnull align 8 dereferenceable(16) %this) unnamed_addr #1 comdat align 2 {
entry:
  %this.addr = alloca ptr, align 8
  store ptr %this, ptr %this.addr, align 8
  %this1 = load ptr, ptr %this.addr, align 8
  %_M_refcount = getelementptr inbounds %"class.std::__shared_ptr.9", ptr %this1, i32 0, i32 1
  call void @_ZNSt14__shared_countILN9__gnu_cxx12_Lock_policyE2EED2Ev(ptr noundef nonnull align 8 dereferenceable(8) %_M_refcount) #12
  ret void
}

; Function Attrs: mustprogress nounwind uwtable
define linkonce_odr void @_ZNSt14__shared_countILN9__gnu_cxx12_Lock_policyE2EED2Ev(ptr noundef nonnull align 8 dereferenceable(8) %this) unnamed_addr #1 comdat align 2 {
entry:
  %this.addr = alloca ptr, align 8
  store ptr %this, ptr %this.addr, align 8
  %this1 = load ptr, ptr %this.addr, align 8
  %_M_pi = getelementptr inbounds %"class.std::__shared_count", ptr %this1, i32 0, i32 0
  %0 = load ptr, ptr %_M_pi, align 8
  %cmp = icmp ne ptr %0, null
  br i1 %cmp, label %if.then, label %if.end

if.then:                                          ; preds = %entry
  %_M_pi2 = getelementptr inbounds %"class.std::__shared_count", ptr %this1, i32 0, i32 0
  %1 = load ptr, ptr %_M_pi2, align 8
  call void @_ZNSt16_Sp_counted_baseILN9__gnu_cxx12_Lock_policyE2EE10_M_releaseEv(ptr noundef nonnull align 8 dereferenceable(16) %1) #12
  br label %if.end

if.end:                                           ; preds = %if.then, %entry
  ret void
}

; Function Attrs: mustprogress uwtable
define internal void @"_ZZN8facebook5velox4exec31RowConstructorCallToSpecialForm20constructSpecialFormERKSt10shared_ptrIKNS0_4TypeEEOSt6vectorIS3_INS1_4ExprEESaISB_EEbRKNS0_4core11QueryConfigEENK3$_0clIKSt13unordered_mapINSt7__cxx1112basic_stringIcSt11char_traitsIcESaIcEEENS1_19VectorFunctionEntryESt4hashISR_ESt8equal_toISR_ESaISt4pairIKSR_SS_EEEEEDaRT_"(ptr noalias sret(%"class.std::shared_ptr.14") align 8 %agg.result, ptr noundef nonnull align 8 dereferenceable(8) %this, ptr noundef nonnull align 8 dereferenceable(56) %functionMap) #0 align 2 personality ptr @__gxx_personality_v0 {
entry:
  %result.ptr = alloca ptr, align 8
  %this.addr = alloca ptr, align 8
  %functionMap.addr = alloca ptr, align 8
  %functionIterator = alloca %"struct.std::__detail::_Node_const_iterator", align 8
  %ref.tmp = alloca %"class.std::__cxx11::basic_string", align 8
  %ref.tmp2 = alloca %"class.std::allocator.5", align 1
  %exn.slot = alloca ptr, align 8
  %ehselector.slot = alloca i32, align 4
  %ref.tmp6 = alloca %"struct.std::__detail::_Node_const_iterator", align 8
  %ref.tmp12 = alloca %"class.std::__cxx11::basic_string", align 8
  %ref.tmp13 = alloca %"class.std::allocator.5", align 1
  %ref.tmp16 = alloca %"class.std::vector.35", align 8
  store ptr %agg.result, ptr %result.ptr, align 8
  store ptr %this, ptr %this.addr, align 8
  store ptr %functionMap, ptr %functionMap.addr, align 8
  %this1 = load ptr, ptr %this.addr, align 8
  %0 = load ptr, ptr %functionMap.addr, align 8
  call void @_ZNSaIcEC1Ev(ptr noundef nonnull align 1 dereferenceable(1) %ref.tmp2) #12
  invoke void @_ZNSt7__cxx1112basic_stringIcSt11char_traitsIcESaIcEEC2IS3_EEPKcRKS3_(ptr noundef nonnull align 8 dereferenceable(32) %ref.tmp, ptr noundef @.str.1, ptr noundef nonnull align 1 dereferenceable(1) %ref.tmp2)
          to label %invoke.cont unwind label %lpad

invoke.cont:                                      ; preds = %entry
  %call = invoke ptr @_ZNKSt13unordered_mapINSt7__cxx1112basic_stringIcSt11char_traitsIcESaIcEEEN8facebook5velox4exec19VectorFunctionEntryESt4hashIS5_ESt8equal_toIS5_ESaISt4pairIKS5_S9_EEE4findERSF_(ptr noundef nonnull align 8 dereferenceable(56) %0, ptr noundef nonnull align 8 dereferenceable(32) %ref.tmp)
          to label %invoke.cont4 unwind label %lpad3

invoke.cont4:                                     ; preds = %invoke.cont
  %coerce.dive = getelementptr inbounds %"struct.std::__detail::_Node_const_iterator", ptr %functionIterator, i32 0, i32 0
  %coerce.dive5 = getelementptr inbounds %"struct.std::__detail::_Node_iterator_base", ptr %coerce.dive, i32 0, i32 0
  store ptr %call, ptr %coerce.dive5, align 8
  call void @_ZNSt7__cxx1112basic_stringIcSt11char_traitsIcESaIcEED1Ev(ptr noundef nonnull align 8 dereferenceable(32) %ref.tmp) #12
  call void @_ZNSaIcED1Ev(ptr noundef nonnull align 1 dereferenceable(1) %ref.tmp2) #12
  %1 = load ptr, ptr %functionMap.addr, align 8
  %call7 = call ptr @_ZNKSt13unordered_mapINSt7__cxx1112basic_stringIcSt11char_traitsIcESaIcEEEN8facebook5velox4exec19VectorFunctionEntryESt4hashIS5_ESt8equal_toIS5_ESaISt4pairIKS5_S9_EEE3endEv(ptr noundef nonnull align 8 dereferenceable(56) %1) #12
  %coerce.dive8 = getelementptr inbounds %"struct.std::__detail::_Node_const_iterator", ptr %ref.tmp6, i32 0, i32 0
  %coerce.dive9 = getelementptr inbounds %"struct.std::__detail::_Node_iterator_base", ptr %coerce.dive8, i32 0, i32 0
  store ptr %call7, ptr %coerce.dive9, align 8
  %call10 = call noundef zeroext i1 @_ZNSt8__detailneERKNS_19_Node_iterator_baseISt4pairIKNSt7__cxx1112basic_stringIcSt11char_traitsIcESaIcEEEN8facebook5velox4exec19VectorFunctionEntryEELb1EEESG_(ptr noundef nonnull align 8 dereferenceable(8) %functionIterator, ptr noundef nonnull align 8 dereferenceable(8) %ref.tmp6) #12
  br i1 %call10, label %if.then, label %if.else

if.then:                                          ; preds = %invoke.cont4
  %call11 = call noundef ptr @_ZNKSt8__detail20_Node_const_iteratorISt4pairIKNSt7__cxx1112basic_stringIcSt11char_traitsIcESaIcEEEN8facebook5velox4exec19VectorFunctionEntryEELb0ELb1EEptEv(ptr noundef nonnull align 8 dereferenceable(8) %functionIterator) #12
  %second = getelementptr inbounds %"struct.std::pair", ptr %call11, i32 0, i32 1
  %factory = getelementptr inbounds %"struct.facebook::velox::exec::VectorFunctionEntry", ptr %second, i32 0, i32 1
  call void @_ZNSaIcEC1Ev(ptr noundef nonnull align 1 dereferenceable(1) %ref.tmp13) #12
  invoke void @_ZNSt7__cxx1112basic_stringIcSt11char_traitsIcESaIcEEC2IS3_EEPKcRKS3_(ptr noundef nonnull align 8 dereferenceable(32) %ref.tmp12, ptr noundef @.str.1, ptr noundef nonnull align 1 dereferenceable(1) %ref.tmp13)
          to label %invoke.cont15 unwind label %lpad14

invoke.cont15:                                    ; preds = %if.then
  call void @llvm.memset.p0.i64(ptr align 8 %ref.tmp16, i8 0, i64 24, i1 false)
  call void @_ZNSt6vectorIN8facebook5velox4exec17VectorFunctionArgESaIS3_EEC2Ev(ptr noundef nonnull align 8 dereferenceable(24) %ref.tmp16) #12
  %2 = getelementptr inbounds %class.anon, ptr %this1, i32 0, i32 0
  %3 = load ptr, ptr %2, align 8
  invoke void @_ZNKSt8functionIFSt10shared_ptrIN8facebook5velox4exec14VectorFunctionEERKNSt7__cxx1112basic_stringIcSt11char_traitsIcESaIcEEERKSt6vectorINS3_17VectorFunctionArgESaISF_EERKNS2_4core11QueryConfigEEEclESD_SJ_SN_(ptr sret(%"class.std::shared_ptr.14") align 8 %agg.result, ptr noundef nonnull align 8 dereferenceable(32) %factory, ptr noundef nonnull align 8 dereferenceable(32) %ref.tmp12, ptr noundef nonnull align 8 dereferenceable(24) %ref.tmp16, ptr noundef nonnull align 8 dereferenceable(8) %3)
          to label %invoke.cont18 unwind label %lpad17

invoke.cont18:                                    ; preds = %invoke.cont15
  call void @_ZNSt6vectorIN8facebook5velox4exec17VectorFunctionArgESaIS3_EED2Ev(ptr noundef nonnull align 8 dereferenceable(24) %ref.tmp16) #12
  call void @_ZNSt7__cxx1112basic_stringIcSt11char_traitsIcESaIcEED1Ev(ptr noundef nonnull align 8 dereferenceable(32) %ref.tmp12) #12
  call void @_ZNSaIcED1Ev(ptr noundef nonnull align 1 dereferenceable(1) %ref.tmp13) #12
  ret void

lpad:                                             ; preds = %entry
  %4 = landingpad { ptr, i32 }
          cleanup
  %5 = extractvalue { ptr, i32 } %4, 0
  store ptr %5, ptr %exn.slot, align 8
  %6 = extractvalue { ptr, i32 } %4, 1
  store i32 %6, ptr %ehselector.slot, align 4
  br label %ehcleanup

lpad3:                                            ; preds = %invoke.cont
  %7 = landingpad { ptr, i32 }
          cleanup
  %8 = extractvalue { ptr, i32 } %7, 0
  store ptr %8, ptr %exn.slot, align 8
  %9 = extractvalue { ptr, i32 } %7, 1
  store i32 %9, ptr %ehselector.slot, align 4
  call void @_ZNSt7__cxx1112basic_stringIcSt11char_traitsIcESaIcEED1Ev(ptr noundef nonnull align 8 dereferenceable(32) %ref.tmp) #12
  br label %ehcleanup

ehcleanup:                                        ; preds = %lpad3, %lpad
  call void @_ZNSaIcED1Ev(ptr noundef nonnull align 1 dereferenceable(1) %ref.tmp2) #12
  br label %eh.resume

lpad14:                                           ; preds = %if.then
  %10 = landingpad { ptr, i32 }
          cleanup
  %11 = extractvalue { ptr, i32 } %10, 0
  store ptr %11, ptr %exn.slot, align 8
  %12 = extractvalue { ptr, i32 } %10, 1
  store i32 %12, ptr %ehselector.slot, align 4
  br label %ehcleanup21

lpad17:                                           ; preds = %invoke.cont15
  %13 = landingpad { ptr, i32 }
          cleanup
  %14 = extractvalue { ptr, i32 } %13, 0
  store ptr %14, ptr %exn.slot, align 8
  %15 = extractvalue { ptr, i32 } %13, 1
  store i32 %15, ptr %ehselector.slot, align 4
  call void @_ZNSt6vectorIN8facebook5velox4exec17VectorFunctionArgESaIS3_EED2Ev(ptr noundef nonnull align 8 dereferenceable(24) %ref.tmp16) #12
  call void @_ZNSt7__cxx1112basic_stringIcSt11char_traitsIcESaIcEED1Ev(ptr noundef nonnull align 8 dereferenceable(32) %ref.tmp12) #12
  br label %ehcleanup21

ehcleanup21:                                      ; preds = %lpad17, %lpad14
  call void @_ZNSaIcED1Ev(ptr noundef nonnull align 1 dereferenceable(1) %ref.tmp13) #12
  br label %eh.resume

if.else:                                          ; preds = %invoke.cont4
  call void @llvm.trap()
  br label %if.end

if.end:                                           ; preds = %if.else
  call void @llvm.trap()
  unreachable

eh.resume:                                        ; preds = %ehcleanup21, %ehcleanup
  %exn = load ptr, ptr %exn.slot, align 8
  %sel = load i32, ptr %ehselector.slot, align 4
  %lpad.val = insertvalue { ptr, i32 } poison, ptr %exn, 0
  %lpad.val22 = insertvalue { ptr, i32 } %lpad.val, i32 %sel, 1
  resume { ptr, i32 } %lpad.val22
}

; Function Attrs: mustprogress uwtable
define linkonce_odr void @_ZNK5folly16SynchronizedBaseINS_12SynchronizedISt13unordered_mapINSt7__cxx1112basic_stringIcSt11char_traitsIcESaIcEEEN8facebook5velox4exec19VectorFunctionEntryESt4hashIS8_ESt8equal_toIS8_ESaISt4pairIKS8_SC_EEENS_15SharedMutexImplILb0EvSt6atomicNS_24SharedMutexPolicyDefaultEEEEELNS_6detail22SynchronizedMutexLevelE2EE5rlockEv(ptr noalias sret(%"class.folly::LockedPtr") align 8 %agg.result, ptr noundef nonnull align 1 dereferenceable(1) %this) #0 comdat align 2 {
entry:
  %result.ptr = alloca ptr, align 8
  %this.addr = alloca ptr, align 8
  store ptr %agg.result, ptr %result.ptr, align 8
  store ptr %this, ptr %this.addr, align 8
  %this1 = load ptr, ptr %this.addr, align 8
  call void @_ZN5folly9LockedPtrIKNS_12SynchronizedISt13unordered_mapINSt7__cxx1112basic_stringIcSt11char_traitsIcESaIcEEEN8facebook5velox4exec19VectorFunctionEntryESt4hashIS8_ESt8equal_toIS8_ESaISt4pairIKS8_SC_EEENS_15SharedMutexImplILb0EvSt6atomicNS_24SharedMutexPolicyDefaultEEEEENS_6detail22SynchronizedLockPolicyILNSS_22SynchronizedMutexLevelE2ELNSS_23SynchronizedMutexMethodE0EEEEC2EPSR_(ptr noundef nonnull align 8 dereferenceable(16) %agg.result, ptr noundef %this1)
  ret void
}

; Function Attrs: mustprogress uwtable
define linkonce_odr noundef nonnull align 8 dereferenceable(56) ptr @_ZNK5folly9LockedPtrIKNS_12SynchronizedISt13unordered_mapINSt7__cxx1112basic_stringIcSt11char_traitsIcESaIcEEEN8facebook5velox4exec19VectorFunctionEntryESt4hashIS8_ESt8equal_toIS8_ESaISt4pairIKS8_SC_EEENS_15SharedMutexImplILb0EvSt6atomicNS_24SharedMutexPolicyDefaultEEEEENS_6detail22SynchronizedLockPolicyILNSS_22SynchronizedMutexLevelE2ELNSS_23SynchronizedMutexMethodE0EEEEdeEv(ptr noundef nonnull align 8 dereferenceable(16) %this) #0 comdat align 2 {
entry:
  %this.addr = alloca ptr, align 8
  store ptr %this, ptr %this.addr, align 8
  %this1 = load ptr, ptr %this.addr, align 8
  %call = call noundef ptr @_ZNK5folly9LockedPtrIKNS_12SynchronizedISt13unordered_mapINSt7__cxx1112basic_stringIcSt11char_traitsIcESaIcEEEN8facebook5velox4exec19VectorFunctionEntryESt4hashIS8_ESt8equal_toIS8_ESaISt4pairIKS8_SC_EEENS_15SharedMutexImplILb0EvSt6atomicNS_24SharedMutexPolicyDefaultEEEEENS_6detail22SynchronizedLockPolicyILNSS_22SynchronizedMutexLevelE2ELNSS_23SynchronizedMutexMethodE0EEEE6parentEv(ptr noundef nonnull align 8 dereferenceable(16) %this1)
  %datum_ = getelementptr inbounds %"struct.folly::Synchronized", ptr %call, i32 0, i32 0
  ret ptr %datum_
}

; Function Attrs: mustprogress nounwind uwtable
define linkonce_odr void @_ZN5folly9LockedPtrIKNS_12SynchronizedISt13unordered_mapINSt7__cxx1112basic_stringIcSt11char_traitsIcESaIcEEEN8facebook5velox4exec19VectorFunctionEntryESt4hashIS8_ESt8equal_toIS8_ESaISt4pairIKS8_SC_EEENS_15SharedMutexImplILb0EvSt6atomicNS_24SharedMutexPolicyDefaultEEEEENS_6detail22SynchronizedLockPolicyILNSS_22SynchronizedMutexLevelE2ELNSS_23SynchronizedMutexMethodE0EEEED2Ev(ptr noundef nonnull align 8 dereferenceable(16) %this) unnamed_addr #1 comdat align 2 {
entry:
  %this.addr = alloca ptr, align 8
  store ptr %this, ptr %this.addr, align 8
  %this1 = load ptr, ptr %this.addr, align 8
  %lock_ = getelementptr inbounds %"class.folly::LockedPtr", ptr %this1, i32 0, i32 0
  call void @_ZNSt11shared_lockIN5folly15SharedMutexImplILb0EvSt6atomicNS0_24SharedMutexPolicyDefaultEEEED2Ev(ptr noundef nonnull align 8 dereferenceable(9) %lock_) #12
  ret void
}

; Function Attrs: mustprogress uwtable
define linkonce_odr ptr @_ZNKSt13unordered_mapINSt7__cxx1112basic_stringIcSt11char_traitsIcESaIcEEEN8facebook5velox4exec19VectorFunctionEntryESt4hashIS5_ESt8equal_toIS5_ESaISt4pairIKS5_S9_EEE4findERSF_(ptr noundef nonnull align 8 dereferenceable(56) %this, ptr noundef nonnull align 8 dereferenceable(32) %__x) #0 comdat align 2 {
entry:
  %retval = alloca %"struct.std::__detail::_Node_const_iterator", align 8
  %this.addr = alloca ptr, align 8
  %__x.addr = alloca ptr, align 8
  store ptr %this, ptr %this.addr, align 8
  store ptr %__x, ptr %__x.addr, align 8
  %this1 = load ptr, ptr %this.addr, align 8
  %_M_h = getelementptr inbounds %"class.std::unordered_map", ptr %this1, i32 0, i32 0
  %0 = load ptr, ptr %__x.addr, align 8
  %call = call ptr @_ZNKSt10_HashtableINSt7__cxx1112basic_stringIcSt11char_traitsIcESaIcEEESt4pairIKS5_N8facebook5velox4exec19VectorFunctionEntryEESaISC_ENSt8__detail10_Select1stESt8equal_toIS5_ESt4hashIS5_ENSE_18_Mod_range_hashingENSE_20_Default_ranged_hashENSE_20_Prime_rehash_policyENSE_17_Hashtable_traitsILb1ELb0ELb1EEEE4findERS7_(ptr noundef nonnull align 8 dereferenceable(56) %_M_h, ptr noundef nonnull align 8 dereferenceable(32) %0)
  %coerce.dive = getelementptr inbounds %"struct.std::__detail::_Node_const_iterator", ptr %retval, i32 0, i32 0
  %coerce.dive2 = getelementptr inbounds %"struct.std::__detail::_Node_iterator_base", ptr %coerce.dive, i32 0, i32 0
  store ptr %call, ptr %coerce.dive2, align 8
  %coerce.dive3 = getelementptr inbounds %"struct.std::__detail::_Node_const_iterator", ptr %retval, i32 0, i32 0
  %coerce.dive4 = getelementptr inbounds %"struct.std::__detail::_Node_iterator_base", ptr %coerce.dive3, i32 0, i32 0
  %1 = load ptr, ptr %coerce.dive4, align 8
  ret ptr %1
}

; Function Attrs: nounwind
declare void @_ZNSaIcEC1Ev(ptr noundef nonnull align 1 dereferenceable(1)) unnamed_addr #2

; Function Attrs: mustprogress uwtable
define linkonce_odr void @_ZNSt7__cxx1112basic_stringIcSt11char_traitsIcESaIcEEC2IS3_EEPKcRKS3_(ptr noundef nonnull align 8 dereferenceable(32) %this, ptr noundef %__s, ptr noundef nonnull align 1 dereferenceable(1) %__a) unnamed_addr #0 comdat align 2 personality ptr @__gxx_personality_v0 {
entry:
  %this.addr = alloca ptr, align 8
  %__s.addr = alloca ptr, align 8
  %__a.addr = alloca ptr, align 8
  %exn.slot = alloca ptr, align 8
  %ehselector.slot = alloca i32, align 4
  %__end = alloca ptr, align 8
  store ptr %this, ptr %this.addr, align 8
  store ptr %__s, ptr %__s.addr, align 8
  store ptr %__a, ptr %__a.addr, align 8
  %this1 = load ptr, ptr %this.addr, align 8
  %_M_dataplus = getelementptr inbounds %"class.std::__cxx11::basic_string", ptr %this1, i32 0, i32 0
  %call = call noundef ptr @_ZNSt7__cxx1112basic_stringIcSt11char_traitsIcESaIcEE13_M_local_dataEv(ptr noundef nonnull align 8 dereferenceable(32) %this1)
  %0 = load ptr, ptr %__a.addr, align 8
  call void @_ZNSt7__cxx1112basic_stringIcSt11char_traitsIcESaIcEE12_Alloc_hiderC1EPcRKS3_(ptr noundef nonnull align 8 dereferenceable(8) %_M_dataplus, ptr noundef %call, ptr noundef nonnull align 1 dereferenceable(1) %0)
  %1 = load ptr, ptr %__s.addr, align 8
  %cmp = icmp eq ptr %1, null
  br i1 %cmp, label %if.then, label %if.end

if.then:                                          ; preds = %entry
  invoke void @_ZSt19__throw_logic_errorPKc(ptr noundef @.str.2) #15
          to label %invoke.cont unwind label %lpad

invoke.cont:                                      ; preds = %if.then
  unreachable

lpad:                                             ; preds = %invoke.cont2, %if.end, %if.then
  %2 = landingpad { ptr, i32 }
          cleanup
  %3 = extractvalue { ptr, i32 } %2, 0
  store ptr %3, ptr %exn.slot, align 8
  %4 = extractvalue { ptr, i32 } %2, 1
  store i32 %4, ptr %ehselector.slot, align 4
  call void @_ZNSt7__cxx1112basic_stringIcSt11char_traitsIcESaIcEE12_Alloc_hiderD2Ev(ptr noundef nonnull align 8 dereferenceable(8) %_M_dataplus) #12
  br label %eh.resume

if.end:                                           ; preds = %entry
  %5 = load ptr, ptr %__s.addr, align 8
  %6 = load ptr, ptr %__s.addr, align 8
  %call3 = invoke noundef i64 @_ZNSt11char_traitsIcE6lengthEPKc(ptr noundef %6)
          to label %invoke.cont2 unwind label %lpad

invoke.cont2:                                     ; preds = %if.end
  %add.ptr = getelementptr inbounds i8, ptr %5, i64 %call3
  store ptr %add.ptr, ptr %__end, align 8
  %7 = load ptr, ptr %__s.addr, align 8
  %8 = load ptr, ptr %__end, align 8
  invoke void @_ZNSt7__cxx1112basic_stringIcSt11char_traitsIcESaIcEE12_M_constructIPKcEEvT_S8_St20forward_iterator_tag(ptr noundef nonnull align 8 dereferenceable(32) %this1, ptr noundef %7, ptr noundef %8)
          to label %invoke.cont4 unwind label %lpad

invoke.cont4:                                     ; preds = %invoke.cont2
  ret void

eh.resume:                                        ; preds = %lpad
  %exn = load ptr, ptr %exn.slot, align 8
  %sel = load i32, ptr %ehselector.slot, align 4
  %lpad.val = insertvalue { ptr, i32 } poison, ptr %exn, 0
  %lpad.val5 = insertvalue { ptr, i32 } %lpad.val, i32 %sel, 1
  resume { ptr, i32 } %lpad.val5
}

; Function Attrs: nounwind
declare void @_ZNSaIcED1Ev(ptr noundef nonnull align 1 dereferenceable(1)) unnamed_addr #2

; Function Attrs: mustprogress nounwind uwtable
define linkonce_odr noundef zeroext i1 @_ZNSt8__detailneERKNS_19_Node_iterator_baseISt4pairIKNSt7__cxx1112basic_stringIcSt11char_traitsIcESaIcEEEN8facebook5velox4exec19VectorFunctionEntryEELb1EEESG_(ptr noundef nonnull align 8 dereferenceable(8) %__x, ptr noundef nonnull align 8 dereferenceable(8) %__y) #1 comdat {
entry:
  %__x.addr = alloca ptr, align 8
  %__y.addr = alloca ptr, align 8
  store ptr %__x, ptr %__x.addr, align 8
  store ptr %__y, ptr %__y.addr, align 8
  %0 = load ptr, ptr %__x.addr, align 8
  %_M_cur = getelementptr inbounds %"struct.std::__detail::_Node_iterator_base", ptr %0, i32 0, i32 0
  %1 = load ptr, ptr %_M_cur, align 8
  %2 = load ptr, ptr %__y.addr, align 8
  %_M_cur1 = getelementptr inbounds %"struct.std::__detail::_Node_iterator_base", ptr %2, i32 0, i32 0
  %3 = load ptr, ptr %_M_cur1, align 8
  %cmp = icmp ne ptr %1, %3
  ret i1 %cmp
}

; Function Attrs: mustprogress nounwind uwtable
define linkonce_odr ptr @_ZNKSt13unordered_mapINSt7__cxx1112basic_stringIcSt11char_traitsIcESaIcEEEN8facebook5velox4exec19VectorFunctionEntryESt4hashIS5_ESt8equal_toIS5_ESaISt4pairIKS5_S9_EEE3endEv(ptr noundef nonnull align 8 dereferenceable(56) %this) #1 comdat align 2 {
entry:
  %retval = alloca %"struct.std::__detail::_Node_const_iterator", align 8
  %this.addr = alloca ptr, align 8
  store ptr %this, ptr %this.addr, align 8
  %this1 = load ptr, ptr %this.addr, align 8
  %_M_h = getelementptr inbounds %"class.std::unordered_map", ptr %this1, i32 0, i32 0
  %call = call ptr @_ZNKSt10_HashtableINSt7__cxx1112basic_stringIcSt11char_traitsIcESaIcEEESt4pairIKS5_N8facebook5velox4exec19VectorFunctionEntryEESaISC_ENSt8__detail10_Select1stESt8equal_toIS5_ESt4hashIS5_ENSE_18_Mod_range_hashingENSE_20_Default_ranged_hashENSE_20_Prime_rehash_policyENSE_17_Hashtable_traitsILb1ELb0ELb1EEEE3endEv(ptr noundef nonnull align 8 dereferenceable(56) %_M_h) #12
  %coerce.dive = getelementptr inbounds %"struct.std::__detail::_Node_const_iterator", ptr %retval, i32 0, i32 0
  %coerce.dive2 = getelementptr inbounds %"struct.std::__detail::_Node_iterator_base", ptr %coerce.dive, i32 0, i32 0
  store ptr %call, ptr %coerce.dive2, align 8
  %coerce.dive3 = getelementptr inbounds %"struct.std::__detail::_Node_const_iterator", ptr %retval, i32 0, i32 0
  %coerce.dive4 = getelementptr inbounds %"struct.std::__detail::_Node_iterator_base", ptr %coerce.dive3, i32 0, i32 0
  %0 = load ptr, ptr %coerce.dive4, align 8
  ret ptr %0
}

; Function Attrs: mustprogress nounwind uwtable
define linkonce_odr noundef ptr @_ZNKSt8__detail20_Node_const_iteratorISt4pairIKNSt7__cxx1112basic_stringIcSt11char_traitsIcESaIcEEEN8facebook5velox4exec19VectorFunctionEntryEELb0ELb1EEptEv(ptr noundef nonnull align 8 dereferenceable(8) %this) #1 comdat align 2 {
entry:
  %this.addr = alloca ptr, align 8
  store ptr %this, ptr %this.addr, align 8
  %this1 = load ptr, ptr %this.addr, align 8
  %_M_cur = getelementptr inbounds %"struct.std::__detail::_Node_iterator_base", ptr %this1, i32 0, i32 0
  %0 = load ptr, ptr %_M_cur, align 8
  %add.ptr = getelementptr inbounds i8, ptr %0, i64 8
  %call = call noundef ptr @_ZNSt8__detail21_Hash_node_value_baseISt4pairIKNSt7__cxx1112basic_stringIcSt11char_traitsIcESaIcEEEN8facebook5velox4exec19VectorFunctionEntryEEE9_M_valptrEv(ptr noundef nonnull align 8 dereferenceable(96) %add.ptr) #12
  ret ptr %call
}

; Function Attrs: mustprogress uwtable
define linkonce_odr void @_ZNKSt8functionIFSt10shared_ptrIN8facebook5velox4exec14VectorFunctionEERKNSt7__cxx1112basic_stringIcSt11char_traitsIcESaIcEEERKSt6vectorINS3_17VectorFunctionArgESaISF_EERKNS2_4core11QueryConfigEEEclESD_SJ_SN_(ptr noalias sret(%"class.std::shared_ptr.14") align 8 %agg.result, ptr noundef nonnull align 8 dereferenceable(32) %this, ptr noundef nonnull align 8 dereferenceable(32) %__args, ptr noundef nonnull align 8 dereferenceable(24) %__args1, ptr noundef nonnull align 8 dereferenceable(8) %__args3) #0 comdat align 2 {
entry:
  %result.ptr = alloca ptr, align 8
  %this.addr = alloca ptr, align 8
  %__args.addr = alloca ptr, align 8
  %__args.addr2 = alloca ptr, align 8
  %__args.addr4 = alloca ptr, align 8
  store ptr %agg.result, ptr %result.ptr, align 8
  store ptr %this, ptr %this.addr, align 8
  store ptr %__args, ptr %__args.addr, align 8
  store ptr %__args1, ptr %__args.addr2, align 8
  store ptr %__args3, ptr %__args.addr4, align 8
  %this5 = load ptr, ptr %this.addr, align 8
  %call = call noundef zeroext i1 @_ZNKSt14_Function_base8_M_emptyEv(ptr noundef nonnull align 8 dereferenceable(24) %this5)
  br i1 %call, label %if.then, label %if.end

if.then:                                          ; preds = %entry
  call void @_ZSt25__throw_bad_function_callv() #15
  unreachable

if.end:                                           ; preds = %entry
  %_M_invoker = getelementptr inbounds %"class.std::function", ptr %this5, i32 0, i32 1
  %0 = load ptr, ptr %_M_invoker, align 8
  %_M_functor = getelementptr inbounds %"class.std::_Function_base", ptr %this5, i32 0, i32 0
  %1 = load ptr, ptr %__args.addr, align 8
  %2 = load ptr, ptr %__args.addr2, align 8
  %3 = load ptr, ptr %__args.addr4, align 8
  call void %0(ptr sret(%"class.std::shared_ptr.14") align 8 %agg.result, ptr noundef nonnull align 8 dereferenceable(16) %_M_functor, ptr noundef nonnull align 8 dereferenceable(32) %1, ptr noundef nonnull align 8 dereferenceable(24) %2, ptr noundef nonnull align 8 dereferenceable(8) %3)
  ret void
}

; Function Attrs: nocallback nofree nounwind willreturn memory(argmem: write)
declare void @llvm.memset.p0.i64(ptr nocapture writeonly, i8, i64, i1 immarg) #5

; Function Attrs: mustprogress nounwind uwtable
define linkonce_odr void @_ZNSt6vectorIN8facebook5velox4exec17VectorFunctionArgESaIS3_EEC2Ev(ptr noundef nonnull align 8 dereferenceable(24) %this) unnamed_addr #1 comdat align 2 {
entry:
  %this.addr = alloca ptr, align 8
  store ptr %this, ptr %this.addr, align 8
  %this1 = load ptr, ptr %this.addr, align 8
  call void @_ZNSt12_Vector_baseIN8facebook5velox4exec17VectorFunctionArgESaIS3_EEC2Ev(ptr noundef nonnull align 8 dereferenceable(24) %this1) #12
  ret void
}

; Function Attrs: mustprogress nounwind uwtable
define linkonce_odr void @_ZNSt6vectorIN8facebook5velox4exec17VectorFunctionArgESaIS3_EED2Ev(ptr noundef nonnull align 8 dereferenceable(24) %this) unnamed_addr #1 comdat align 2 personality ptr @__gxx_personality_v0 {
entry:
  %this.addr = alloca ptr, align 8
  store ptr %this, ptr %this.addr, align 8
  %this1 = load ptr, ptr %this.addr, align 8
  %_M_impl = getelementptr inbounds %"struct.std::_Vector_base.36", ptr %this1, i32 0, i32 0
  %_M_start = getelementptr inbounds %"struct.std::_Vector_base<facebook::velox::exec::VectorFunctionArg, std::allocator<facebook::velox::exec::VectorFunctionArg>>::_Vector_impl_data", ptr %_M_impl, i32 0, i32 0
  %0 = load ptr, ptr %_M_start, align 8
  %_M_impl2 = getelementptr inbounds %"struct.std::_Vector_base.36", ptr %this1, i32 0, i32 0
  %_M_finish = getelementptr inbounds %"struct.std::_Vector_base<facebook::velox::exec::VectorFunctionArg, std::allocator<facebook::velox::exec::VectorFunctionArg>>::_Vector_impl_data", ptr %_M_impl2, i32 0, i32 1
  %1 = load ptr, ptr %_M_finish, align 8
  %call = call noundef nonnull align 1 dereferenceable(1) ptr @_ZNSt12_Vector_baseIN8facebook5velox4exec17VectorFunctionArgESaIS3_EE19_M_get_Tp_allocatorEv(ptr noundef nonnull align 8 dereferenceable(24) %this1) #12
  invoke void @_ZSt8_DestroyIPN8facebook5velox4exec17VectorFunctionArgES3_EvT_S5_RSaIT0_E(ptr noundef %0, ptr noundef %1, ptr noundef nonnull align 1 dereferenceable(1) %call)
          to label %invoke.cont unwind label %terminate.lpad

invoke.cont:                                      ; preds = %entry
  call void @_ZNSt12_Vector_baseIN8facebook5velox4exec17VectorFunctionArgESaIS3_EED2Ev(ptr noundef nonnull align 8 dereferenceable(24) %this1) #12
  ret void

terminate.lpad:                                   ; preds = %entry
  %2 = landingpad { ptr, i32 }
          catch ptr null
  %3 = extractvalue { ptr, i32 } %2, 0
  call void @__clang_call_terminate(ptr %3) #13
  unreachable
}

; Function Attrs: cold noreturn nounwind memory(inaccessiblemem: write)
declare void @llvm.trap() #6

; Function Attrs: mustprogress uwtable
define linkonce_odr ptr @_ZNKSt10_HashtableINSt7__cxx1112basic_stringIcSt11char_traitsIcESaIcEEESt4pairIKS5_N8facebook5velox4exec19VectorFunctionEntryEESaISC_ENSt8__detail10_Select1stESt8equal_toIS5_ESt4hashIS5_ENSE_18_Mod_range_hashingENSE_20_Default_ranged_hashENSE_20_Prime_rehash_policyENSE_17_Hashtable_traitsILb1ELb0ELb1EEEE4findERS7_(ptr noundef nonnull align 8 dereferenceable(56) %this, ptr noundef nonnull align 8 dereferenceable(32) %__k) #0 comdat align 2 {
entry:
  %retval = alloca %"struct.std::__detail::_Node_const_iterator", align 8
  %this.addr = alloca ptr, align 8
  %__k.addr = alloca ptr, align 8
  %ref.tmp = alloca %"struct.std::__detail::_Node_const_iterator", align 8
  %__code = alloca i64, align 8
  %__bkt = alloca i64, align 8
  store ptr %this, ptr %this.addr, align 8
  store ptr %__k, ptr %__k.addr, align 8
  %this1 = load ptr, ptr %this.addr, align 8
  %call = call noundef i64 @_ZNKSt10_HashtableINSt7__cxx1112basic_stringIcSt11char_traitsIcESaIcEEESt4pairIKS5_N8facebook5velox4exec19VectorFunctionEntryEESaISC_ENSt8__detail10_Select1stESt8equal_toIS5_ESt4hashIS5_ENSE_18_Mod_range_hashingENSE_20_Default_ranged_hashENSE_20_Prime_rehash_policyENSE_17_Hashtable_traitsILb1ELb0ELb1EEEE4sizeEv(ptr noundef nonnull align 8 dereferenceable(56) %this1) #12
  %call2 = call noundef i64 @_ZNSt10_HashtableINSt7__cxx1112basic_stringIcSt11char_traitsIcESaIcEEESt4pairIKS5_N8facebook5velox4exec19VectorFunctionEntryEESaISC_ENSt8__detail10_Select1stESt8equal_toIS5_ESt4hashIS5_ENSE_18_Mod_range_hashingENSE_20_Default_ranged_hashENSE_20_Prime_rehash_policyENSE_17_Hashtable_traitsILb1ELb0ELb1EEEE22__small_size_thresholdEv() #12
  %cmp = icmp ule i64 %call, %call2
  br i1 %cmp, label %if.then, label %if.end15

if.then:                                          ; preds = %entry
  %call3 = call ptr @_ZNKSt10_HashtableINSt7__cxx1112basic_stringIcSt11char_traitsIcESaIcEEESt4pairIKS5_N8facebook5velox4exec19VectorFunctionEntryEESaISC_ENSt8__detail10_Select1stESt8equal_toIS5_ESt4hashIS5_ENSE_18_Mod_range_hashingENSE_20_Default_ranged_hashENSE_20_Prime_rehash_policyENSE_17_Hashtable_traitsILb1ELb0ELb1EEEE5beginEv(ptr noundef nonnull align 8 dereferenceable(56) %this1) #12
  %coerce.dive = getelementptr inbounds %"struct.std::__detail::_Node_const_iterator", ptr %retval, i32 0, i32 0
  %coerce.dive4 = getelementptr inbounds %"struct.std::__detail::_Node_iterator_base", ptr %coerce.dive, i32 0, i32 0
  store ptr %call3, ptr %coerce.dive4, align 8
  br label %for.cond

for.cond:                                         ; preds = %for.inc, %if.then
  %call5 = call ptr @_ZNKSt10_HashtableINSt7__cxx1112basic_stringIcSt11char_traitsIcESaIcEEESt4pairIKS5_N8facebook5velox4exec19VectorFunctionEntryEESaISC_ENSt8__detail10_Select1stESt8equal_toIS5_ESt4hashIS5_ENSE_18_Mod_range_hashingENSE_20_Default_ranged_hashENSE_20_Prime_rehash_policyENSE_17_Hashtable_traitsILb1ELb0ELb1EEEE3endEv(ptr noundef nonnull align 8 dereferenceable(56) %this1) #12
  %coerce.dive6 = getelementptr inbounds %"struct.std::__detail::_Node_const_iterator", ptr %ref.tmp, i32 0, i32 0
  %coerce.dive7 = getelementptr inbounds %"struct.std::__detail::_Node_iterator_base", ptr %coerce.dive6, i32 0, i32 0
  store ptr %call5, ptr %coerce.dive7, align 8
  %call8 = call noundef zeroext i1 @_ZNSt8__detailneERKNS_19_Node_iterator_baseISt4pairIKNSt7__cxx1112basic_stringIcSt11char_traitsIcESaIcEEEN8facebook5velox4exec19VectorFunctionEntryEELb1EEESG_(ptr noundef nonnull align 8 dereferenceable(8) %retval, ptr noundef nonnull align 8 dereferenceable(8) %ref.tmp) #12
  br i1 %call8, label %for.body, label %for.end

for.body:                                         ; preds = %for.cond
  %0 = load ptr, ptr %__k.addr, align 8
  %_M_cur = getelementptr inbounds %"struct.std::__detail::_Node_iterator_base", ptr %retval, i32 0, i32 0
  %1 = load ptr, ptr %_M_cur, align 8
  %add.ptr = getelementptr inbounds i8, ptr %1, i64 8
  %call9 = call noundef zeroext i1 @_ZNKSt8__detail15_Hashtable_baseINSt7__cxx1112basic_stringIcSt11char_traitsIcESaIcEEESt4pairIKS6_N8facebook5velox4exec19VectorFunctionEntryEENS_10_Select1stESt8equal_toIS6_ESt4hashIS6_ENS_18_Mod_range_hashingENS_20_Default_ranged_hashENS_17_Hashtable_traitsILb1ELb0ELb1EEEE13_M_key_equalsERS8_RKNS_16_Hash_node_valueISD_Lb1EEE(ptr noundef nonnull align 1 dereferenceable(1) %this1, ptr noundef nonnull align 8 dereferenceable(32) %0, ptr noundef nonnull align 8 dereferenceable(104) %add.ptr)
  br i1 %call9, label %if.then10, label %if.end

if.then10:                                        ; preds = %for.body
  br label %return

if.end:                                           ; preds = %for.body
  br label %for.inc

for.inc:                                          ; preds = %if.end
  %call11 = call noundef nonnull align 8 dereferenceable(8) ptr @_ZNSt8__detail20_Node_const_iteratorISt4pairIKNSt7__cxx1112basic_stringIcSt11char_traitsIcESaIcEEEN8facebook5velox4exec19VectorFunctionEntryEELb0ELb1EEppEv(ptr noundef nonnull align 8 dereferenceable(8) %retval) #12
  br label %for.cond, !llvm.loop !9

for.end:                                          ; preds = %for.cond
  %call12 = call ptr @_ZNKSt10_HashtableINSt7__cxx1112basic_stringIcSt11char_traitsIcESaIcEEESt4pairIKS5_N8facebook5velox4exec19VectorFunctionEntryEESaISC_ENSt8__detail10_Select1stESt8equal_toIS5_ESt4hashIS5_ENSE_18_Mod_range_hashingENSE_20_Default_ranged_hashENSE_20_Prime_rehash_policyENSE_17_Hashtable_traitsILb1ELb0ELb1EEEE3endEv(ptr noundef nonnull align 8 dereferenceable(56) %this1) #12
  %coerce.dive13 = getelementptr inbounds %"struct.std::__detail::_Node_const_iterator", ptr %retval, i32 0, i32 0
  %coerce.dive14 = getelementptr inbounds %"struct.std::__detail::_Node_iterator_base", ptr %coerce.dive13, i32 0, i32 0
  store ptr %call12, ptr %coerce.dive14, align 8
  br label %return

if.end15:                                         ; preds = %entry
  %2 = load ptr, ptr %__k.addr, align 8
  %call16 = call noundef i64 @_ZNKSt8__detail15_Hash_code_baseINSt7__cxx1112basic_stringIcSt11char_traitsIcESaIcEEESt4pairIKS6_N8facebook5velox4exec19VectorFunctionEntryEENS_10_Select1stESt4hashIS6_ENS_18_Mod_range_hashingENS_20_Default_ranged_hashELb1EE12_M_hash_codeERS8_(ptr noundef nonnull align 1 dereferenceable(1) %this1, ptr noundef nonnull align 8 dereferenceable(32) %2)
  store i64 %call16, ptr %__code, align 8
  %3 = load i64, ptr %__code, align 8
  %call17 = call noundef i64 @_ZNKSt10_HashtableINSt7__cxx1112basic_stringIcSt11char_traitsIcESaIcEEESt4pairIKS5_N8facebook5velox4exec19VectorFunctionEntryEESaISC_ENSt8__detail10_Select1stESt8equal_toIS5_ESt4hashIS5_ENSE_18_Mod_range_hashingENSE_20_Default_ranged_hashENSE_20_Prime_rehash_policyENSE_17_Hashtable_traitsILb1ELb0ELb1EEEE15_M_bucket_indexEm(ptr noundef nonnull align 8 dereferenceable(56) %this1, i64 noundef %3)
  store i64 %call17, ptr %__bkt, align 8
  %4 = load i64, ptr %__bkt, align 8
  %5 = load ptr, ptr %__k.addr, align 8
  %6 = load i64, ptr %__code, align 8
  %call18 = call noundef ptr @_ZNKSt10_HashtableINSt7__cxx1112basic_stringIcSt11char_traitsIcESaIcEEESt4pairIKS5_N8facebook5velox4exec19VectorFunctionEntryEESaISC_ENSt8__detail10_Select1stESt8equal_toIS5_ESt4hashIS5_ENSE_18_Mod_range_hashingENSE_20_Default_ranged_hashENSE_20_Prime_rehash_policyENSE_17_Hashtable_traitsILb1ELb0ELb1EEEE12_M_find_nodeEmRS7_m(ptr noundef nonnull align 8 dereferenceable(56) %this1, i64 noundef %4, ptr noundef nonnull align 8 dereferenceable(32) %5, i64 noundef %6)
  call void @_ZNSt8__detail20_Node_const_iteratorISt4pairIKNSt7__cxx1112basic_stringIcSt11char_traitsIcESaIcEEEN8facebook5velox4exec19VectorFunctionEntryEELb0ELb1EEC2EPNS_10_Hash_nodeISD_Lb1EEE(ptr noundef nonnull align 8 dereferenceable(8) %retval, ptr noundef %call18) #12
  br label %return

return:                                           ; preds = %if.end15, %for.end, %if.then10
  %coerce.dive19 = getelementptr inbounds %"struct.std::__detail::_Node_const_iterator", ptr %retval, i32 0, i32 0
  %coerce.dive20 = getelementptr inbounds %"struct.std::__detail::_Node_iterator_base", ptr %coerce.dive19, i32 0, i32 0
  %7 = load ptr, ptr %coerce.dive20, align 8
  ret ptr %7
}

; Function Attrs: mustprogress nounwind uwtable
define linkonce_odr noundef i64 @_ZNKSt10_HashtableINSt7__cxx1112basic_stringIcSt11char_traitsIcESaIcEEESt4pairIKS5_N8facebook5velox4exec19VectorFunctionEntryEESaISC_ENSt8__detail10_Select1stESt8equal_toIS5_ESt4hashIS5_ENSE_18_Mod_range_hashingENSE_20_Default_ranged_hashENSE_20_Prime_rehash_policyENSE_17_Hashtable_traitsILb1ELb0ELb1EEEE4sizeEv(ptr noundef nonnull align 8 dereferenceable(56) %this) #1 comdat align 2 {
entry:
  %this.addr = alloca ptr, align 8
  store ptr %this, ptr %this.addr, align 8
  %this1 = load ptr, ptr %this.addr, align 8
  %_M_element_count = getelementptr inbounds %"class.std::_Hashtable", ptr %this1, i32 0, i32 3
  %0 = load i64, ptr %_M_element_count, align 8
  ret i64 %0
}

; Function Attrs: mustprogress nounwind uwtable
define linkonce_odr noundef i64 @_ZNSt10_HashtableINSt7__cxx1112basic_stringIcSt11char_traitsIcESaIcEEESt4pairIKS5_N8facebook5velox4exec19VectorFunctionEntryEESaISC_ENSt8__detail10_Select1stESt8equal_toIS5_ESt4hashIS5_ENSE_18_Mod_range_hashingENSE_20_Default_ranged_hashENSE_20_Prime_rehash_policyENSE_17_Hashtable_traitsILb1ELb0ELb1EEEE22__small_size_thresholdEv() #1 comdat align 2 {
entry:
  %call = call noundef i64 @_ZNSt8__detail22_Hashtable_hash_traitsISt4hashINSt7__cxx1112basic_stringIcSt11char_traitsIcESaIcEEEEE22__small_size_thresholdEv() #12
  ret i64 %call
}

; Function Attrs: mustprogress nounwind uwtable
define linkonce_odr ptr @_ZNKSt10_HashtableINSt7__cxx1112basic_stringIcSt11char_traitsIcESaIcEEESt4pairIKS5_N8facebook5velox4exec19VectorFunctionEntryEESaISC_ENSt8__detail10_Select1stESt8equal_toIS5_ESt4hashIS5_ENSE_18_Mod_range_hashingENSE_20_Default_ranged_hashENSE_20_Prime_rehash_policyENSE_17_Hashtable_traitsILb1ELb0ELb1EEEE5beginEv(ptr noundef nonnull align 8 dereferenceable(56) %this) #1 comdat align 2 personality ptr @__gxx_personality_v0 {
entry:
  %retval = alloca %"struct.std::__detail::_Node_const_iterator", align 8
  %this.addr = alloca ptr, align 8
  store ptr %this, ptr %this.addr, align 8
  %this1 = load ptr, ptr %this.addr, align 8
  %call = invoke noundef ptr @_ZNKSt10_HashtableINSt7__cxx1112basic_stringIcSt11char_traitsIcESaIcEEESt4pairIKS5_N8facebook5velox4exec19VectorFunctionEntryEESaISC_ENSt8__detail10_Select1stESt8equal_toIS5_ESt4hashIS5_ENSE_18_Mod_range_hashingENSE_20_Default_ranged_hashENSE_20_Prime_rehash_policyENSE_17_Hashtable_traitsILb1ELb0ELb1EEEE8_M_beginEv(ptr noundef nonnull align 8 dereferenceable(56) %this1)
          to label %invoke.cont unwind label %terminate.lpad

invoke.cont:                                      ; preds = %entry
  call void @_ZNSt8__detail20_Node_const_iteratorISt4pairIKNSt7__cxx1112basic_stringIcSt11char_traitsIcESaIcEEEN8facebook5velox4exec19VectorFunctionEntryEELb0ELb1EEC2EPNS_10_Hash_nodeISD_Lb1EEE(ptr noundef nonnull align 8 dereferenceable(8) %retval, ptr noundef %call) #12
  %coerce.dive = getelementptr inbounds %"struct.std::__detail::_Node_const_iterator", ptr %retval, i32 0, i32 0
  %coerce.dive2 = getelementptr inbounds %"struct.std::__detail::_Node_iterator_base", ptr %coerce.dive, i32 0, i32 0
  %0 = load ptr, ptr %coerce.dive2, align 8
  ret ptr %0

terminate.lpad:                                   ; preds = %entry
  %1 = landingpad { ptr, i32 }
          catch ptr null
  %2 = extractvalue { ptr, i32 } %1, 0
  call void @__clang_call_terminate(ptr %2) #13
  unreachable
}

; Function Attrs: mustprogress nounwind uwtable
define linkonce_odr ptr @_ZNKSt10_HashtableINSt7__cxx1112basic_stringIcSt11char_traitsIcESaIcEEESt4pairIKS5_N8facebook5velox4exec19VectorFunctionEntryEESaISC_ENSt8__detail10_Select1stESt8equal_toIS5_ESt4hashIS5_ENSE_18_Mod_range_hashingENSE_20_Default_ranged_hashENSE_20_Prime_rehash_policyENSE_17_Hashtable_traitsILb1ELb0ELb1EEEE3endEv(ptr noundef nonnull align 8 dereferenceable(56) %this) #1 comdat align 2 {
entry:
  %retval = alloca %"struct.std::__detail::_Node_const_iterator", align 8
  %this.addr = alloca ptr, align 8
  store ptr %this, ptr %this.addr, align 8
  call void @_ZNSt8__detail20_Node_const_iteratorISt4pairIKNSt7__cxx1112basic_stringIcSt11char_traitsIcESaIcEEEN8facebook5velox4exec19VectorFunctionEntryEELb0ELb1EEC2EPNS_10_Hash_nodeISD_Lb1EEE(ptr noundef nonnull align 8 dereferenceable(8) %retval, ptr noundef null) #12
  %coerce.dive = getelementptr inbounds %"struct.std::__detail::_Node_const_iterator", ptr %retval, i32 0, i32 0
  %coerce.dive2 = getelementptr inbounds %"struct.std::__detail::_Node_iterator_base", ptr %coerce.dive, i32 0, i32 0
  %0 = load ptr, ptr %coerce.dive2, align 8
  ret ptr %0
}

; Function Attrs: mustprogress uwtable
define linkonce_odr noundef zeroext i1 @_ZNKSt8__detail15_Hashtable_baseINSt7__cxx1112basic_stringIcSt11char_traitsIcESaIcEEESt4pairIKS6_N8facebook5velox4exec19VectorFunctionEntryEENS_10_Select1stESt8equal_toIS6_ESt4hashIS6_ENS_18_Mod_range_hashingENS_20_Default_ranged_hashENS_17_Hashtable_traitsILb1ELb0ELb1EEEE13_M_key_equalsERS8_RKNS_16_Hash_node_valueISD_Lb1EEE(ptr noundef nonnull align 1 dereferenceable(1) %this, ptr noundef nonnull align 8 dereferenceable(32) %__k, ptr noundef nonnull align 8 dereferenceable(104) %__n) #0 comdat align 2 {
entry:
  %this.addr = alloca ptr, align 8
  %__k.addr = alloca ptr, align 8
  %__n.addr = alloca ptr, align 8
  %ref.tmp = alloca %"struct.std::__detail::_Select1st", align 1
  store ptr %this, ptr %this.addr, align 8
  store ptr %__k, ptr %__k.addr, align 8
  store ptr %__n, ptr %__n.addr, align 8
  %this1 = load ptr, ptr %this.addr, align 8
  %call = call noundef nonnull align 1 dereferenceable(1) ptr @_ZNKSt8__detail15_Hashtable_baseINSt7__cxx1112basic_stringIcSt11char_traitsIcESaIcEEESt4pairIKS6_N8facebook5velox4exec19VectorFunctionEntryEENS_10_Select1stESt8equal_toIS6_ESt4hashIS6_ENS_18_Mod_range_hashingENS_20_Default_ranged_hashENS_17_Hashtable_traitsILb1ELb0ELb1EEEE5_M_eqEv(ptr noundef nonnull align 1 dereferenceable(1) %this1)
  %0 = load ptr, ptr %__k.addr, align 8
  %1 = load ptr, ptr %__n.addr, align 8
  %call2 = call noundef nonnull align 8 dereferenceable(96) ptr @_ZNKSt8__detail21_Hash_node_value_baseISt4pairIKNSt7__cxx1112basic_stringIcSt11char_traitsIcESaIcEEEN8facebook5velox4exec19VectorFunctionEntryEEE4_M_vEv(ptr noundef nonnull align 8 dereferenceable(96) %1) #12
  %call3 = call noundef nonnull align 8 dereferenceable(32) ptr @_ZNKSt8__detail10_Select1stclIRKSt4pairIKNSt7__cxx1112basic_stringIcSt11char_traitsIcESaIcEEEN8facebook5velox4exec19VectorFunctionEntryEEEEONS0_10__1st_typeIT_E4typeEOSI_(ptr noundef nonnull align 1 dereferenceable(1) %ref.tmp, ptr noundef nonnull align 8 dereferenceable(96) %call2) #12
  %call4 = call noundef zeroext i1 @_ZNKSt8equal_toINSt7__cxx1112basic_stringIcSt11char_traitsIcESaIcEEEEclERKS5_S8_(ptr noundef nonnull align 1 dereferenceable(1) %call, ptr noundef nonnull align 8 dereferenceable(32) %0, ptr noundef nonnull align 8 dereferenceable(32) %call3)
  ret i1 %call4
}

; Function Attrs: mustprogress nounwind uwtable
define linkonce_odr noundef nonnull align 8 dereferenceable(8) ptr @_ZNSt8__detail20_Node_const_iteratorISt4pairIKNSt7__cxx1112basic_stringIcSt11char_traitsIcESaIcEEEN8facebook5velox4exec19VectorFunctionEntryEELb0ELb1EEppEv(ptr noundef nonnull align 8 dereferenceable(8) %this) #1 comdat align 2 {
entry:
  %this.addr = alloca ptr, align 8
  store ptr %this, ptr %this.addr, align 8
  %this1 = load ptr, ptr %this.addr, align 8
  call void @_ZNSt8__detail19_Node_iterator_baseISt4pairIKNSt7__cxx1112basic_stringIcSt11char_traitsIcESaIcEEEN8facebook5velox4exec19VectorFunctionEntryEELb1EE7_M_incrEv(ptr noundef nonnull align 8 dereferenceable(8) %this1) #12
  ret ptr %this1
}

; Function Attrs: mustprogress uwtable
define linkonce_odr noundef i64 @_ZNKSt8__detail15_Hash_code_baseINSt7__cxx1112basic_stringIcSt11char_traitsIcESaIcEEESt4pairIKS6_N8facebook5velox4exec19VectorFunctionEntryEENS_10_Select1stESt4hashIS6_ENS_18_Mod_range_hashingENS_20_Default_ranged_hashELb1EE12_M_hash_codeERS8_(ptr noundef nonnull align 1 dereferenceable(1) %this, ptr noundef nonnull align 8 dereferenceable(32) %__k) #0 comdat align 2 {
entry:
  %this.addr = alloca ptr, align 8
  %__k.addr = alloca ptr, align 8
  store ptr %this, ptr %this.addr, align 8
  store ptr %__k, ptr %__k.addr, align 8
  %this1 = load ptr, ptr %this.addr, align 8
  %call = call noundef nonnull align 1 dereferenceable(1) ptr @_ZNKSt8__detail15_Hash_code_baseINSt7__cxx1112basic_stringIcSt11char_traitsIcESaIcEEESt4pairIKS6_N8facebook5velox4exec19VectorFunctionEntryEENS_10_Select1stESt4hashIS6_ENS_18_Mod_range_hashingENS_20_Default_ranged_hashELb1EE7_M_hashEv(ptr noundef nonnull align 1 dereferenceable(1) %this1)
  %0 = load ptr, ptr %__k.addr, align 8
  %call2 = call noundef i64 @_ZNKSt4hashINSt7__cxx1112basic_stringIcSt11char_traitsIcESaIcEEEEclERKS5_(ptr noundef nonnull align 1 dereferenceable(1) %call, ptr noundef nonnull align 8 dereferenceable(32) %0) #12
  ret i64 %call2
}

; Function Attrs: mustprogress uwtable
define linkonce_odr noundef i64 @_ZNKSt10_HashtableINSt7__cxx1112basic_stringIcSt11char_traitsIcESaIcEEESt4pairIKS5_N8facebook5velox4exec19VectorFunctionEntryEESaISC_ENSt8__detail10_Select1stESt8equal_toIS5_ESt4hashIS5_ENSE_18_Mod_range_hashingENSE_20_Default_ranged_hashENSE_20_Prime_rehash_policyENSE_17_Hashtable_traitsILb1ELb0ELb1EEEE15_M_bucket_indexEm(ptr noundef nonnull align 8 dereferenceable(56) %this, i64 noundef %__c) #0 comdat align 2 {
entry:
  %this.addr = alloca ptr, align 8
  %__c.addr = alloca i64, align 8
  store ptr %this, ptr %this.addr, align 8
  store i64 %__c, ptr %__c.addr, align 8
  %this1 = load ptr, ptr %this.addr, align 8
  %0 = load i64, ptr %__c.addr, align 8
  %_M_bucket_count = getelementptr inbounds %"class.std::_Hashtable", ptr %this1, i32 0, i32 1
  %1 = load i64, ptr %_M_bucket_count, align 8
  %call = call noundef i64 @_ZNKSt8__detail15_Hash_code_baseINSt7__cxx1112basic_stringIcSt11char_traitsIcESaIcEEESt4pairIKS6_N8facebook5velox4exec19VectorFunctionEntryEENS_10_Select1stESt4hashIS6_ENS_18_Mod_range_hashingENS_20_Default_ranged_hashELb1EE15_M_bucket_indexEmm(ptr noundef nonnull align 1 dereferenceable(1) %this1, i64 noundef %0, i64 noundef %1)
  ret i64 %call
}

; Function Attrs: mustprogress uwtable
define linkonce_odr noundef ptr @_ZNKSt10_HashtableINSt7__cxx1112basic_stringIcSt11char_traitsIcESaIcEEESt4pairIKS5_N8facebook5velox4exec19VectorFunctionEntryEESaISC_ENSt8__detail10_Select1stESt8equal_toIS5_ESt4hashIS5_ENSE_18_Mod_range_hashingENSE_20_Default_ranged_hashENSE_20_Prime_rehash_policyENSE_17_Hashtable_traitsILb1ELb0ELb1EEEE12_M_find_nodeEmRS7_m(ptr noundef nonnull align 8 dereferenceable(56) %this, i64 noundef %__bkt, ptr noundef nonnull align 8 dereferenceable(32) %__key, i64 noundef %__c) #0 comdat align 2 {
entry:
  %retval = alloca ptr, align 8
  %this.addr = alloca ptr, align 8
  %__bkt.addr = alloca i64, align 8
  %__key.addr = alloca ptr, align 8
  %__c.addr = alloca i64, align 8
  %__before_n = alloca ptr, align 8
  store ptr %this, ptr %this.addr, align 8
  store i64 %__bkt, ptr %__bkt.addr, align 8
  store ptr %__key, ptr %__key.addr, align 8
  store i64 %__c, ptr %__c.addr, align 8
  %this1 = load ptr, ptr %this.addr, align 8
  %0 = load i64, ptr %__bkt.addr, align 8
  %1 = load ptr, ptr %__key.addr, align 8
  %2 = load i64, ptr %__c.addr, align 8
  %call = call noundef ptr @_ZNKSt10_HashtableINSt7__cxx1112basic_stringIcSt11char_traitsIcESaIcEEESt4pairIKS5_N8facebook5velox4exec19VectorFunctionEntryEESaISC_ENSt8__detail10_Select1stESt8equal_toIS5_ESt4hashIS5_ENSE_18_Mod_range_hashingENSE_20_Default_ranged_hashENSE_20_Prime_rehash_policyENSE_17_Hashtable_traitsILb1ELb0ELb1EEEE19_M_find_before_nodeEmRS7_m(ptr noundef nonnull align 8 dereferenceable(56) %this1, i64 noundef %0, ptr noundef nonnull align 8 dereferenceable(32) %1, i64 noundef %2)
  store ptr %call, ptr %__before_n, align 8
  %3 = load ptr, ptr %__before_n, align 8
  %tobool = icmp ne ptr %3, null
  br i1 %tobool, label %if.then, label %if.end

if.then:                                          ; preds = %entry
  %4 = load ptr, ptr %__before_n, align 8
  %_M_nxt = getelementptr inbounds %"struct.std::__detail::_Hash_node_base", ptr %4, i32 0, i32 0
  %5 = load ptr, ptr %_M_nxt, align 8
  store ptr %5, ptr %retval, align 8
  br label %return

if.end:                                           ; preds = %entry
  store ptr null, ptr %retval, align 8
  br label %return

return:                                           ; preds = %if.end, %if.then
  %6 = load ptr, ptr %retval, align 8
  ret ptr %6
}

; Function Attrs: mustprogress nounwind uwtable
define linkonce_odr void @_ZNSt8__detail20_Node_const_iteratorISt4pairIKNSt7__cxx1112basic_stringIcSt11char_traitsIcESaIcEEEN8facebook5velox4exec19VectorFunctionEntryEELb0ELb1EEC2EPNS_10_Hash_nodeISD_Lb1EEE(ptr noundef nonnull align 8 dereferenceable(8) %this, ptr noundef %__p) unnamed_addr #1 comdat align 2 {
entry:
  %this.addr = alloca ptr, align 8
  %__p.addr = alloca ptr, align 8
  store ptr %this, ptr %this.addr, align 8
  store ptr %__p, ptr %__p.addr, align 8
  %this1 = load ptr, ptr %this.addr, align 8
  %0 = load ptr, ptr %__p.addr, align 8
  call void @_ZNSt8__detail19_Node_iterator_baseISt4pairIKNSt7__cxx1112basic_stringIcSt11char_traitsIcESaIcEEEN8facebook5velox4exec19VectorFunctionEntryEELb1EEC2EPNS_10_Hash_nodeISD_Lb1EEE(ptr noundef nonnull align 8 dereferenceable(8) %this1, ptr noundef %0) #12
  ret void
}

; Function Attrs: mustprogress nounwind uwtable
define linkonce_odr noundef i64 @_ZNSt8__detail22_Hashtable_hash_traitsISt4hashINSt7__cxx1112basic_stringIcSt11char_traitsIcESaIcEEEEE22__small_size_thresholdEv() #1 comdat align 2 {
entry:
  ret i64 20
}

; Function Attrs: mustprogress nounwind uwtable
define linkonce_odr noundef ptr @_ZNKSt10_HashtableINSt7__cxx1112basic_stringIcSt11char_traitsIcESaIcEEESt4pairIKS5_N8facebook5velox4exec19VectorFunctionEntryEESaISC_ENSt8__detail10_Select1stESt8equal_toIS5_ESt4hashIS5_ENSE_18_Mod_range_hashingENSE_20_Default_ranged_hashENSE_20_Prime_rehash_policyENSE_17_Hashtable_traitsILb1ELb0ELb1EEEE8_M_beginEv(ptr noundef nonnull align 8 dereferenceable(56) %this) #1 comdat align 2 {
entry:
  %this.addr = alloca ptr, align 8
  store ptr %this, ptr %this.addr, align 8
  %this1 = load ptr, ptr %this.addr, align 8
  %_M_before_begin = getelementptr inbounds %"class.std::_Hashtable", ptr %this1, i32 0, i32 2
  %_M_nxt = getelementptr inbounds %"struct.std::__detail::_Hash_node_base", ptr %_M_before_begin, i32 0, i32 0
  %0 = load ptr, ptr %_M_nxt, align 8
  ret ptr %0
}

; Function Attrs: mustprogress uwtable
define linkonce_odr noundef nonnull align 1 dereferenceable(1) ptr @_ZNKSt8__detail15_Hashtable_baseINSt7__cxx1112basic_stringIcSt11char_traitsIcESaIcEEESt4pairIKS6_N8facebook5velox4exec19VectorFunctionEntryEENS_10_Select1stESt8equal_toIS6_ESt4hashIS6_ENS_18_Mod_range_hashingENS_20_Default_ranged_hashENS_17_Hashtable_traitsILb1ELb0ELb1EEEE5_M_eqEv(ptr noundef nonnull align 1 dereferenceable(1) %this) #0 comdat align 2 {
entry:
  %this.addr = alloca ptr, align 8
  store ptr %this, ptr %this.addr, align 8
  %this1 = load ptr, ptr %this.addr, align 8
  %call = call noundef nonnull align 1 dereferenceable(1) ptr @_ZNKSt8__detail21_Hashtable_ebo_helperILi0ESt8equal_toINSt7__cxx1112basic_stringIcSt11char_traitsIcESaIcEEEELb1EE7_M_cgetEv(ptr noundef nonnull align 1 dereferenceable(1) %this1)
  ret ptr %call
}

; Function Attrs: mustprogress nounwind uwtable
define linkonce_odr noundef zeroext i1 @_ZNKSt8equal_toINSt7__cxx1112basic_stringIcSt11char_traitsIcESaIcEEEEclERKS5_S8_(ptr noundef nonnull align 1 dereferenceable(1) %this, ptr noundef nonnull align 8 dereferenceable(32) %__x, ptr noundef nonnull align 8 dereferenceable(32) %__y) #1 comdat align 2 {
entry:
  %this.addr = alloca ptr, align 8
  %__x.addr = alloca ptr, align 8
  %__y.addr = alloca ptr, align 8
  store ptr %this, ptr %this.addr, align 8
  store ptr %__x, ptr %__x.addr, align 8
  store ptr %__y, ptr %__y.addr, align 8
  %0 = load ptr, ptr %__x.addr, align 8
  %1 = load ptr, ptr %__y.addr, align 8
  %call = call noundef zeroext i1 @_ZSteqIcEN9__gnu_cxx11__enable_ifIXsr9__is_charIT_EE7__valueEbE6__typeERKNSt7__cxx1112basic_stringIS2_St11char_traitsIS2_ESaIS2_EEESC_(ptr noundef nonnull align 8 dereferenceable(32) %0, ptr noundef nonnull align 8 dereferenceable(32) %1) #12
  ret i1 %call
}

; Function Attrs: mustprogress nounwind uwtable
define linkonce_odr noundef nonnull align 8 dereferenceable(32) ptr @_ZNKSt8__detail10_Select1stclIRKSt4pairIKNSt7__cxx1112basic_stringIcSt11char_traitsIcESaIcEEEN8facebook5velox4exec19VectorFunctionEntryEEEEONS0_10__1st_typeIT_E4typeEOSI_(ptr noundef nonnull align 1 dereferenceable(1) %this, ptr noundef nonnull align 8 dereferenceable(96) %__x) #1 comdat align 2 {
entry:
  %this.addr = alloca ptr, align 8
  %__x.addr = alloca ptr, align 8
  store ptr %this, ptr %this.addr, align 8
  store ptr %__x, ptr %__x.addr, align 8
  %0 = load ptr, ptr %__x.addr, align 8
  %first = getelementptr inbounds %"struct.std::pair", ptr %0, i32 0, i32 0
  ret ptr %first
}

; Function Attrs: mustprogress nounwind uwtable
define linkonce_odr noundef nonnull align 8 dereferenceable(96) ptr @_ZNKSt8__detail21_Hash_node_value_baseISt4pairIKNSt7__cxx1112basic_stringIcSt11char_traitsIcESaIcEEEN8facebook5velox4exec19VectorFunctionEntryEEE4_M_vEv(ptr noundef nonnull align 8 dereferenceable(96) %this) #1 comdat align 2 {
entry:
  %this.addr = alloca ptr, align 8
  store ptr %this, ptr %this.addr, align 8
  %this1 = load ptr, ptr %this.addr, align 8
  %call = call noundef ptr @_ZNKSt8__detail21_Hash_node_value_baseISt4pairIKNSt7__cxx1112basic_stringIcSt11char_traitsIcESaIcEEEN8facebook5velox4exec19VectorFunctionEntryEEE9_M_valptrEv(ptr noundef nonnull align 8 dereferenceable(96) %this1) #12
  ret ptr %call
}

; Function Attrs: mustprogress nounwind uwtable
define linkonce_odr noundef nonnull align 1 dereferenceable(1) ptr @_ZNKSt8__detail21_Hashtable_ebo_helperILi0ESt8equal_toINSt7__cxx1112basic_stringIcSt11char_traitsIcESaIcEEEELb1EE7_M_cgetEv(ptr noundef nonnull align 1 dereferenceable(1) %this) #1 comdat align 2 {
entry:
  %this.addr = alloca ptr, align 8
  store ptr %this, ptr %this.addr, align 8
  %this1 = load ptr, ptr %this.addr, align 8
  ret ptr %this1
}

; Function Attrs: mustprogress nounwind uwtable
define linkonce_odr noundef zeroext i1 @_ZSteqIcEN9__gnu_cxx11__enable_ifIXsr9__is_charIT_EE7__valueEbE6__typeERKNSt7__cxx1112basic_stringIS2_St11char_traitsIS2_ESaIS2_EEESC_(ptr noundef nonnull align 8 dereferenceable(32) %__lhs, ptr noundef nonnull align 8 dereferenceable(32) %__rhs) #1 comdat personality ptr @__gxx_personality_v0 {
entry:
  %__lhs.addr = alloca ptr, align 8
  %__rhs.addr = alloca ptr, align 8
  store ptr %__lhs, ptr %__lhs.addr, align 8
  store ptr %__rhs, ptr %__rhs.addr, align 8
  %0 = load ptr, ptr %__lhs.addr, align 8
  %call = call noundef i64 @_ZNKSt7__cxx1112basic_stringIcSt11char_traitsIcESaIcEE4sizeEv(ptr noundef nonnull align 8 dereferenceable(32) %0) #12
  %1 = load ptr, ptr %__rhs.addr, align 8
  %call1 = call noundef i64 @_ZNKSt7__cxx1112basic_stringIcSt11char_traitsIcESaIcEE4sizeEv(ptr noundef nonnull align 8 dereferenceable(32) %1) #12
  %cmp = icmp eq i64 %call, %call1
  br i1 %cmp, label %land.rhs, label %land.end

land.rhs:                                         ; preds = %entry
  %2 = load ptr, ptr %__lhs.addr, align 8
  %call2 = call noundef ptr @_ZNKSt7__cxx1112basic_stringIcSt11char_traitsIcESaIcEE4dataEv(ptr noundef nonnull align 8 dereferenceable(32) %2) #12
  %3 = load ptr, ptr %__rhs.addr, align 8
  %call3 = call noundef ptr @_ZNKSt7__cxx1112basic_stringIcSt11char_traitsIcESaIcEE4dataEv(ptr noundef nonnull align 8 dereferenceable(32) %3) #12
  %4 = load ptr, ptr %__lhs.addr, align 8
  %call4 = call noundef i64 @_ZNKSt7__cxx1112basic_stringIcSt11char_traitsIcESaIcEE4sizeEv(ptr noundef nonnull align 8 dereferenceable(32) %4) #12
  %call5 = invoke noundef i32 @_ZNSt11char_traitsIcE7compareEPKcS2_m(ptr noundef %call2, ptr noundef %call3, i64 noundef %call4)
          to label %invoke.cont unwind label %terminate.lpad

invoke.cont:                                      ; preds = %land.rhs
  %tobool = icmp ne i32 %call5, 0
  %lnot = xor i1 %tobool, true
  br label %land.end

land.end:                                         ; preds = %invoke.cont, %entry
  %5 = phi i1 [ false, %entry ], [ %lnot, %invoke.cont ]
  ret i1 %5

terminate.lpad:                                   ; preds = %land.rhs
  %6 = landingpad { ptr, i32 }
          catch ptr null
  %7 = extractvalue { ptr, i32 } %6, 0
  call void @__clang_call_terminate(ptr %7) #13
  unreachable
}

; Function Attrs: nounwind
declare noundef i64 @_ZNKSt7__cxx1112basic_stringIcSt11char_traitsIcESaIcEE4sizeEv(ptr noundef nonnull align 8 dereferenceable(32)) #2

; Function Attrs: mustprogress nounwind uwtable
define linkonce_odr noundef i32 @_ZNSt11char_traitsIcE7compareEPKcS2_m(ptr noundef %__s1, ptr noundef %__s2, i64 noundef %__n) #1 comdat align 2 {
entry:
  %retval = alloca i32, align 4
  %__s1.addr = alloca ptr, align 8
  %__s2.addr = alloca ptr, align 8
  %__n.addr = alloca i64, align 8
  store ptr %__s1, ptr %__s1.addr, align 8
  store ptr %__s2, ptr %__s2.addr, align 8
  store i64 %__n, ptr %__n.addr, align 8
  %0 = load i64, ptr %__n.addr, align 8
  %cmp = icmp eq i64 %0, 0
  br i1 %cmp, label %if.then, label %if.end

if.then:                                          ; preds = %entry
  store i32 0, ptr %retval, align 4
  br label %return

if.end:                                           ; preds = %entry
  %1 = load ptr, ptr %__s1.addr, align 8
  %2 = load ptr, ptr %__s2.addr, align 8
  %3 = load i64, ptr %__n.addr, align 8
  %call = call i32 @memcmp(ptr noundef %1, ptr noundef %2, i64 noundef %3) #12
  store i32 %call, ptr %retval, align 4
  br label %return

return:                                           ; preds = %if.end, %if.then
  %4 = load i32, ptr %retval, align 4
  ret i32 %4
}

; Function Attrs: nounwind
declare noundef ptr @_ZNKSt7__cxx1112basic_stringIcSt11char_traitsIcESaIcEE4dataEv(ptr noundef nonnull align 8 dereferenceable(32)) #2

; Function Attrs: nounwind
declare i32 @memcmp(ptr noundef, ptr noundef, i64 noundef) #2

; Function Attrs: mustprogress nounwind uwtable
define linkonce_odr noundef ptr @_ZNKSt8__detail21_Hash_node_value_baseISt4pairIKNSt7__cxx1112basic_stringIcSt11char_traitsIcESaIcEEEN8facebook5velox4exec19VectorFunctionEntryEEE9_M_valptrEv(ptr noundef nonnull align 8 dereferenceable(96) %this) #1 comdat align 2 {
entry:
  %this.addr = alloca ptr, align 8
  store ptr %this, ptr %this.addr, align 8
  %this1 = load ptr, ptr %this.addr, align 8
  %_M_storage = getelementptr inbounds %"struct.std::__detail::_Hash_node_value_base", ptr %this1, i32 0, i32 0
  %call = call noundef ptr @_ZNK9__gnu_cxx16__aligned_bufferISt4pairIKNSt7__cxx1112basic_stringIcSt11char_traitsIcESaIcEEEN8facebook5velox4exec19VectorFunctionEntryEEE6_M_ptrEv(ptr noundef nonnull align 8 dereferenceable(96) %_M_storage) #12
  ret ptr %call
}

; Function Attrs: mustprogress nounwind uwtable
define linkonce_odr noundef ptr @_ZNK9__gnu_cxx16__aligned_bufferISt4pairIKNSt7__cxx1112basic_stringIcSt11char_traitsIcESaIcEEEN8facebook5velox4exec19VectorFunctionEntryEEE6_M_ptrEv(ptr noundef nonnull align 8 dereferenceable(96) %this) #1 comdat align 2 {
entry:
  %this.addr = alloca ptr, align 8
  store ptr %this, ptr %this.addr, align 8
  %this1 = load ptr, ptr %this.addr, align 8
  %call = call noundef ptr @_ZNK9__gnu_cxx16__aligned_bufferISt4pairIKNSt7__cxx1112basic_stringIcSt11char_traitsIcESaIcEEEN8facebook5velox4exec19VectorFunctionEntryEEE7_M_addrEv(ptr noundef nonnull align 8 dereferenceable(96) %this1) #12
  ret ptr %call
}

; Function Attrs: mustprogress nounwind uwtable
define linkonce_odr noundef ptr @_ZNK9__gnu_cxx16__aligned_bufferISt4pairIKNSt7__cxx1112basic_stringIcSt11char_traitsIcESaIcEEEN8facebook5velox4exec19VectorFunctionEntryEEE7_M_addrEv(ptr noundef nonnull align 8 dereferenceable(96) %this) #1 comdat align 2 {
entry:
  %this.addr = alloca ptr, align 8
  store ptr %this, ptr %this.addr, align 8
  %this1 = load ptr, ptr %this.addr, align 8
  %_M_storage = getelementptr inbounds %"struct.__gnu_cxx::__aligned_buffer", ptr %this1, i32 0, i32 0
  ret ptr %_M_storage
}

; Function Attrs: mustprogress nounwind uwtable
define linkonce_odr void @_ZNSt8__detail19_Node_iterator_baseISt4pairIKNSt7__cxx1112basic_stringIcSt11char_traitsIcESaIcEEEN8facebook5velox4exec19VectorFunctionEntryEELb1EE7_M_incrEv(ptr noundef nonnull align 8 dereferenceable(8) %this) #1 comdat align 2 {
entry:
  %this.addr = alloca ptr, align 8
  store ptr %this, ptr %this.addr, align 8
  %this1 = load ptr, ptr %this.addr, align 8
  %_M_cur = getelementptr inbounds %"struct.std::__detail::_Node_iterator_base", ptr %this1, i32 0, i32 0
  %0 = load ptr, ptr %_M_cur, align 8
  %call = call noundef ptr @_ZNKSt8__detail10_Hash_nodeISt4pairIKNSt7__cxx1112basic_stringIcSt11char_traitsIcESaIcEEEN8facebook5velox4exec19VectorFunctionEntryEELb1EE7_M_nextEv(ptr noundef nonnull align 8 dereferenceable(112) %0) #12
  %_M_cur2 = getelementptr inbounds %"struct.std::__detail::_Node_iterator_base", ptr %this1, i32 0, i32 0
  store ptr %call, ptr %_M_cur2, align 8
  ret void
}

; Function Attrs: mustprogress nounwind uwtable
define linkonce_odr noundef ptr @_ZNKSt8__detail10_Hash_nodeISt4pairIKNSt7__cxx1112basic_stringIcSt11char_traitsIcESaIcEEEN8facebook5velox4exec19VectorFunctionEntryEELb1EE7_M_nextEv(ptr noundef nonnull align 8 dereferenceable(112) %this) #1 comdat align 2 {
entry:
  %this.addr = alloca ptr, align 8
  store ptr %this, ptr %this.addr, align 8
  %this1 = load ptr, ptr %this.addr, align 8
  %_M_nxt = getelementptr inbounds %"struct.std::__detail::_Hash_node_base", ptr %this1, i32 0, i32 0
  %0 = load ptr, ptr %_M_nxt, align 8
  ret ptr %0
}

; Function Attrs: mustprogress uwtable
define linkonce_odr noundef nonnull align 1 dereferenceable(1) ptr @_ZNKSt8__detail15_Hash_code_baseINSt7__cxx1112basic_stringIcSt11char_traitsIcESaIcEEESt4pairIKS6_N8facebook5velox4exec19VectorFunctionEntryEENS_10_Select1stESt4hashIS6_ENS_18_Mod_range_hashingENS_20_Default_ranged_hashELb1EE7_M_hashEv(ptr noundef nonnull align 1 dereferenceable(1) %this) #0 comdat align 2 {
entry:
  %this.addr = alloca ptr, align 8
  store ptr %this, ptr %this.addr, align 8
  %this1 = load ptr, ptr %this.addr, align 8
  %call = call noundef nonnull align 1 dereferenceable(1) ptr @_ZNKSt8__detail21_Hashtable_ebo_helperILi1ESt4hashINSt7__cxx1112basic_stringIcSt11char_traitsIcESaIcEEEELb1EE7_M_cgetEv(ptr noundef nonnull align 1 dereferenceable(1) %this1)
  ret ptr %call
}

; Function Attrs: mustprogress nounwind uwtable
define linkonce_odr noundef i64 @_ZNKSt4hashINSt7__cxx1112basic_stringIcSt11char_traitsIcESaIcEEEEclERKS5_(ptr noundef nonnull align 1 dereferenceable(1) %this, ptr noundef nonnull align 8 dereferenceable(32) %__s) #1 comdat align 2 personality ptr @__gxx_personality_v0 {
entry:
  %this.addr = alloca ptr, align 8
  %__s.addr = alloca ptr, align 8
  store ptr %this, ptr %this.addr, align 8
  store ptr %__s, ptr %__s.addr, align 8
  %0 = load ptr, ptr %__s.addr, align 8
  %call = call noundef ptr @_ZNKSt7__cxx1112basic_stringIcSt11char_traitsIcESaIcEE4dataEv(ptr noundef nonnull align 8 dereferenceable(32) %0) #12
  %1 = load ptr, ptr %__s.addr, align 8
  %call2 = call noundef i64 @_ZNKSt7__cxx1112basic_stringIcSt11char_traitsIcESaIcEE6lengthEv(ptr noundef nonnull align 8 dereferenceable(32) %1) #12
  %call3 = invoke noundef i64 @_ZNSt10_Hash_impl4hashEPKvmm(ptr noundef %call, i64 noundef %call2, i64 noundef 3339675911)
          to label %invoke.cont unwind label %terminate.lpad

invoke.cont:                                      ; preds = %entry
  ret i64 %call3

terminate.lpad:                                   ; preds = %entry
  %2 = landingpad { ptr, i32 }
          catch ptr null
  %3 = extractvalue { ptr, i32 } %2, 0
  call void @__clang_call_terminate(ptr %3) #13
  unreachable
}

; Function Attrs: mustprogress nounwind uwtable
define linkonce_odr noundef nonnull align 1 dereferenceable(1) ptr @_ZNKSt8__detail21_Hashtable_ebo_helperILi1ESt4hashINSt7__cxx1112basic_stringIcSt11char_traitsIcESaIcEEEELb1EE7_M_cgetEv(ptr noundef nonnull align 1 dereferenceable(1) %this) #1 comdat align 2 {
entry:
  %this.addr = alloca ptr, align 8
  store ptr %this, ptr %this.addr, align 8
  %this1 = load ptr, ptr %this.addr, align 8
  ret ptr %this1
}

; Function Attrs: mustprogress uwtable
define linkonce_odr noundef i64 @_ZNSt10_Hash_impl4hashEPKvmm(ptr noundef %__ptr, i64 noundef %__clength, i64 noundef %__seed) #0 comdat align 2 {
entry:
  %__ptr.addr = alloca ptr, align 8
  %__clength.addr = alloca i64, align 8
  %__seed.addr = alloca i64, align 8
  store ptr %__ptr, ptr %__ptr.addr, align 8
  store i64 %__clength, ptr %__clength.addr, align 8
  store i64 %__seed, ptr %__seed.addr, align 8
  %0 = load ptr, ptr %__ptr.addr, align 8
  %1 = load i64, ptr %__clength.addr, align 8
  %2 = load i64, ptr %__seed.addr, align 8
  %call = call noundef i64 @_ZSt11_Hash_bytesPKvmm(ptr noundef %0, i64 noundef %1, i64 noundef %2)
  ret i64 %call
}

; Function Attrs: nounwind
declare noundef i64 @_ZNKSt7__cxx1112basic_stringIcSt11char_traitsIcESaIcEE6lengthEv(ptr noundef nonnull align 8 dereferenceable(32)) #2

declare noundef i64 @_ZSt11_Hash_bytesPKvmm(ptr noundef, i64 noundef, i64 noundef) #3

; Function Attrs: mustprogress nounwind uwtable
define linkonce_odr noundef i64 @_ZNKSt8__detail15_Hash_code_baseINSt7__cxx1112basic_stringIcSt11char_traitsIcESaIcEEESt4pairIKS6_N8facebook5velox4exec19VectorFunctionEntryEENS_10_Select1stESt4hashIS6_ENS_18_Mod_range_hashingENS_20_Default_ranged_hashELb1EE15_M_bucket_indexEmm(ptr noundef nonnull align 1 dereferenceable(1) %this, i64 noundef %__c, i64 noundef %__bkt_count) #1 comdat align 2 {
entry:
  %this.addr = alloca ptr, align 8
  %__c.addr = alloca i64, align 8
  %__bkt_count.addr = alloca i64, align 8
  %ref.tmp = alloca %"struct.std::__detail::_Mod_range_hashing", align 1
  store ptr %this, ptr %this.addr, align 8
  store i64 %__c, ptr %__c.addr, align 8
  store i64 %__bkt_count, ptr %__bkt_count.addr, align 8
  %0 = load i64, ptr %__c.addr, align 8
  %1 = load i64, ptr %__bkt_count.addr, align 8
  %call = call noundef i64 @_ZNKSt8__detail18_Mod_range_hashingclEmm(ptr noundef nonnull align 1 dereferenceable(1) %ref.tmp, i64 noundef %0, i64 noundef %1) #12
  ret i64 %call
}

; Function Attrs: mustprogress nounwind uwtable
define linkonce_odr noundef i64 @_ZNKSt8__detail18_Mod_range_hashingclEmm(ptr noundef nonnull align 1 dereferenceable(1) %this, i64 noundef %__num, i64 noundef %__den) #1 comdat align 2 {
entry:
  %this.addr = alloca ptr, align 8
  %__num.addr = alloca i64, align 8
  %__den.addr = alloca i64, align 8
  store ptr %this, ptr %this.addr, align 8
  store i64 %__num, ptr %__num.addr, align 8
  store i64 %__den, ptr %__den.addr, align 8
  %0 = load i64, ptr %__num.addr, align 8
  %1 = load i64, ptr %__den.addr, align 8
  %rem = urem i64 %0, %1
  ret i64 %rem
}

; Function Attrs: mustprogress uwtable
define linkonce_odr noundef ptr @_ZNKSt10_HashtableINSt7__cxx1112basic_stringIcSt11char_traitsIcESaIcEEESt4pairIKS5_N8facebook5velox4exec19VectorFunctionEntryEESaISC_ENSt8__detail10_Select1stESt8equal_toIS5_ESt4hashIS5_ENSE_18_Mod_range_hashingENSE_20_Default_ranged_hashENSE_20_Prime_rehash_policyENSE_17_Hashtable_traitsILb1ELb0ELb1EEEE19_M_find_before_nodeEmRS7_m(ptr noundef nonnull align 8 dereferenceable(56) %this, i64 noundef %__bkt, ptr noundef nonnull align 8 dereferenceable(32) %__k, i64 noundef %__code) #0 comdat align 2 {
entry:
  %retval = alloca ptr, align 8
  %this.addr = alloca ptr, align 8
  %__bkt.addr = alloca i64, align 8
  %__k.addr = alloca ptr, align 8
  %__code.addr = alloca i64, align 8
  %__prev_p = alloca ptr, align 8
  %__p = alloca ptr, align 8
  store ptr %this, ptr %this.addr, align 8
  store i64 %__bkt, ptr %__bkt.addr, align 8
  store ptr %__k, ptr %__k.addr, align 8
  store i64 %__code, ptr %__code.addr, align 8
  %this1 = load ptr, ptr %this.addr, align 8
  %_M_buckets = getelementptr inbounds %"class.std::_Hashtable", ptr %this1, i32 0, i32 0
  %0 = load ptr, ptr %_M_buckets, align 8
  %1 = load i64, ptr %__bkt.addr, align 8
  %arrayidx = getelementptr inbounds ptr, ptr %0, i64 %1
  %2 = load ptr, ptr %arrayidx, align 8
  store ptr %2, ptr %__prev_p, align 8
  %3 = load ptr, ptr %__prev_p, align 8
  %tobool = icmp ne ptr %3, null
  br i1 %tobool, label %if.end, label %if.then

if.then:                                          ; preds = %entry
  store ptr null, ptr %retval, align 8
  br label %return

if.end:                                           ; preds = %entry
  %4 = load ptr, ptr %__prev_p, align 8
  %_M_nxt = getelementptr inbounds %"struct.std::__detail::_Hash_node_base", ptr %4, i32 0, i32 0
  %5 = load ptr, ptr %_M_nxt, align 8
  store ptr %5, ptr %__p, align 8
  br label %for.cond

for.cond:                                         ; preds = %for.inc, %if.end
  %6 = load ptr, ptr %__k.addr, align 8
  %7 = load i64, ptr %__code.addr, align 8
  %8 = load ptr, ptr %__p, align 8
  %add.ptr = getelementptr inbounds i8, ptr %8, i64 8
  %call = call noundef zeroext i1 @_ZNKSt8__detail15_Hashtable_baseINSt7__cxx1112basic_stringIcSt11char_traitsIcESaIcEEESt4pairIKS6_N8facebook5velox4exec19VectorFunctionEntryEENS_10_Select1stESt8equal_toIS6_ESt4hashIS6_ENS_18_Mod_range_hashingENS_20_Default_ranged_hashENS_17_Hashtable_traitsILb1ELb0ELb1EEEE9_M_equalsERS8_mRKNS_16_Hash_node_valueISD_Lb1EEE(ptr noundef nonnull align 1 dereferenceable(1) %this1, ptr noundef nonnull align 8 dereferenceable(32) %6, i64 noundef %7, ptr noundef nonnull align 8 dereferenceable(104) %add.ptr)
  br i1 %call, label %if.then2, label %if.end3

if.then2:                                         ; preds = %for.cond
  %9 = load ptr, ptr %__prev_p, align 8
  store ptr %9, ptr %retval, align 8
  br label %return

if.end3:                                          ; preds = %for.cond
  %10 = load ptr, ptr %__p, align 8
  %_M_nxt4 = getelementptr inbounds %"struct.std::__detail::_Hash_node_base", ptr %10, i32 0, i32 0
  %11 = load ptr, ptr %_M_nxt4, align 8
  %tobool5 = icmp ne ptr %11, null
  br i1 %tobool5, label %lor.lhs.false, label %if.then9

lor.lhs.false:                                    ; preds = %if.end3
  %12 = load ptr, ptr %__p, align 8
  %call6 = call noundef ptr @_ZNKSt8__detail10_Hash_nodeISt4pairIKNSt7__cxx1112basic_stringIcSt11char_traitsIcESaIcEEEN8facebook5velox4exec19VectorFunctionEntryEELb1EE7_M_nextEv(ptr noundef nonnull align 8 dereferenceable(112) %12) #12
  %add.ptr7 = getelementptr inbounds i8, ptr %call6, i64 8
  %call8 = call noundef i64 @_ZNKSt10_HashtableINSt7__cxx1112basic_stringIcSt11char_traitsIcESaIcEEESt4pairIKS5_N8facebook5velox4exec19VectorFunctionEntryEESaISC_ENSt8__detail10_Select1stESt8equal_toIS5_ESt4hashIS5_ENSE_18_Mod_range_hashingENSE_20_Default_ranged_hashENSE_20_Prime_rehash_policyENSE_17_Hashtable_traitsILb1ELb0ELb1EEEE15_M_bucket_indexERKNSE_16_Hash_node_valueISC_Lb1EEE(ptr noundef nonnull align 8 dereferenceable(56) %this1, ptr noundef nonnull align 8 dereferenceable(104) %add.ptr7) #12
  %13 = load i64, ptr %__bkt.addr, align 8
  %cmp = icmp ne i64 %call8, %13
  br i1 %cmp, label %if.then9, label %if.end10

if.then9:                                         ; preds = %lor.lhs.false, %if.end3
  br label %for.end

if.end10:                                         ; preds = %lor.lhs.false
  %14 = load ptr, ptr %__p, align 8
  store ptr %14, ptr %__prev_p, align 8
  br label %for.inc

for.inc:                                          ; preds = %if.end10
  %15 = load ptr, ptr %__p, align 8
  %call11 = call noundef ptr @_ZNKSt8__detail10_Hash_nodeISt4pairIKNSt7__cxx1112basic_stringIcSt11char_traitsIcESaIcEEEN8facebook5velox4exec19VectorFunctionEntryEELb1EE7_M_nextEv(ptr noundef nonnull align 8 dereferenceable(112) %15) #12
  store ptr %call11, ptr %__p, align 8
  br label %for.cond, !llvm.loop !10

for.end:                                          ; preds = %if.then9
  store ptr null, ptr %retval, align 8
  br label %return

return:                                           ; preds = %for.end, %if.then2, %if.then
  %16 = load ptr, ptr %retval, align 8
  ret ptr %16
}

; Function Attrs: mustprogress uwtable
define linkonce_odr noundef zeroext i1 @_ZNKSt8__detail15_Hashtable_baseINSt7__cxx1112basic_stringIcSt11char_traitsIcESaIcEEESt4pairIKS6_N8facebook5velox4exec19VectorFunctionEntryEENS_10_Select1stESt8equal_toIS6_ESt4hashIS6_ENS_18_Mod_range_hashingENS_20_Default_ranged_hashENS_17_Hashtable_traitsILb1ELb0ELb1EEEE9_M_equalsERS8_mRKNS_16_Hash_node_valueISD_Lb1EEE(ptr noundef nonnull align 1 dereferenceable(1) %this, ptr noundef nonnull align 8 dereferenceable(32) %__k, i64 noundef %__c, ptr noundef nonnull align 8 dereferenceable(104) %__n) #0 comdat align 2 {
entry:
  %this.addr = alloca ptr, align 8
  %__k.addr = alloca ptr, align 8
  %__c.addr = alloca i64, align 8
  %__n.addr = alloca ptr, align 8
  store ptr %this, ptr %this.addr, align 8
  store ptr %__k, ptr %__k.addr, align 8
  store i64 %__c, ptr %__c.addr, align 8
  store ptr %__n, ptr %__n.addr, align 8
  %this1 = load ptr, ptr %this.addr, align 8
  %0 = load i64, ptr %__c.addr, align 8
  %1 = load ptr, ptr %__n.addr, align 8
  %add.ptr = getelementptr inbounds i8, ptr %1, i64 96
  %call = call noundef zeroext i1 @_ZNSt8__detail15_Hashtable_baseINSt7__cxx1112basic_stringIcSt11char_traitsIcESaIcEEESt4pairIKS6_N8facebook5velox4exec19VectorFunctionEntryEENS_10_Select1stESt8equal_toIS6_ESt4hashIS6_ENS_18_Mod_range_hashingENS_20_Default_ranged_hashENS_17_Hashtable_traitsILb1ELb0ELb1EEEE9_S_equalsEmRKNS_21_Hash_node_code_cacheILb1EEE(i64 noundef %0, ptr noundef nonnull align 8 dereferenceable(8) %add.ptr)
  br i1 %call, label %land.rhs, label %land.end

land.rhs:                                         ; preds = %entry
  %2 = load ptr, ptr %__k.addr, align 8
  %3 = load ptr, ptr %__n.addr, align 8
  %call2 = call noundef zeroext i1 @_ZNKSt8__detail15_Hashtable_baseINSt7__cxx1112basic_stringIcSt11char_traitsIcESaIcEEESt4pairIKS6_N8facebook5velox4exec19VectorFunctionEntryEENS_10_Select1stESt8equal_toIS6_ESt4hashIS6_ENS_18_Mod_range_hashingENS_20_Default_ranged_hashENS_17_Hashtable_traitsILb1ELb0ELb1EEEE13_M_key_equalsERS8_RKNS_16_Hash_node_valueISD_Lb1EEE(ptr noundef nonnull align 1 dereferenceable(1) %this1, ptr noundef nonnull align 8 dereferenceable(32) %2, ptr noundef nonnull align 8 dereferenceable(104) %3)
  br label %land.end

land.end:                                         ; preds = %land.rhs, %entry
  %4 = phi i1 [ false, %entry ], [ %call2, %land.rhs ]
  ret i1 %4
}

; Function Attrs: mustprogress nounwind uwtable
define linkonce_odr noundef i64 @_ZNKSt10_HashtableINSt7__cxx1112basic_stringIcSt11char_traitsIcESaIcEEESt4pairIKS5_N8facebook5velox4exec19VectorFunctionEntryEESaISC_ENSt8__detail10_Select1stESt8equal_toIS5_ESt4hashIS5_ENSE_18_Mod_range_hashingENSE_20_Default_ranged_hashENSE_20_Prime_rehash_policyENSE_17_Hashtable_traitsILb1ELb0ELb1EEEE15_M_bucket_indexERKNSE_16_Hash_node_valueISC_Lb1EEE(ptr noundef nonnull align 8 dereferenceable(56) %this, ptr noundef nonnull align 8 dereferenceable(104) %__n) #1 comdat align 2 {
entry:
  %this.addr = alloca ptr, align 8
  %__n.addr = alloca ptr, align 8
  store ptr %this, ptr %this.addr, align 8
  store ptr %__n, ptr %__n.addr, align 8
  %this1 = load ptr, ptr %this.addr, align 8
  %0 = load ptr, ptr %__n.addr, align 8
  %_M_bucket_count = getelementptr inbounds %"class.std::_Hashtable", ptr %this1, i32 0, i32 1
  %1 = load i64, ptr %_M_bucket_count, align 8
  %call = call noundef i64 @_ZNKSt8__detail15_Hash_code_baseINSt7__cxx1112basic_stringIcSt11char_traitsIcESaIcEEESt4pairIKS6_N8facebook5velox4exec19VectorFunctionEntryEENS_10_Select1stESt4hashIS6_ENS_18_Mod_range_hashingENS_20_Default_ranged_hashELb1EE15_M_bucket_indexERKNS_16_Hash_node_valueISD_Lb1EEEm(ptr noundef nonnull align 1 dereferenceable(1) %this1, ptr noundef nonnull align 8 dereferenceable(104) %0, i64 noundef %1) #12
  ret i64 %call
}

; Function Attrs: mustprogress nounwind uwtable
define linkonce_odr noundef zeroext i1 @_ZNSt8__detail15_Hashtable_baseINSt7__cxx1112basic_stringIcSt11char_traitsIcESaIcEEESt4pairIKS6_N8facebook5velox4exec19VectorFunctionEntryEENS_10_Select1stESt8equal_toIS6_ESt4hashIS6_ENS_18_Mod_range_hashingENS_20_Default_ranged_hashENS_17_Hashtable_traitsILb1ELb0ELb1EEEE9_S_equalsEmRKNS_21_Hash_node_code_cacheILb1EEE(i64 noundef %__c, ptr noundef nonnull align 8 dereferenceable(8) %__n) #1 comdat align 2 {
entry:
  %__c.addr = alloca i64, align 8
  %__n.addr = alloca ptr, align 8
  store i64 %__c, ptr %__c.addr, align 8
  store ptr %__n, ptr %__n.addr, align 8
  %0 = load i64, ptr %__c.addr, align 8
  %1 = load ptr, ptr %__n.addr, align 8
  %_M_hash_code = getelementptr inbounds %"struct.std::__detail::_Hash_node_code_cache", ptr %1, i32 0, i32 0
  %2 = load i64, ptr %_M_hash_code, align 8
  %cmp = icmp eq i64 %0, %2
  ret i1 %cmp
}

; Function Attrs: mustprogress nounwind uwtable
define linkonce_odr noundef i64 @_ZNKSt8__detail15_Hash_code_baseINSt7__cxx1112basic_stringIcSt11char_traitsIcESaIcEEESt4pairIKS6_N8facebook5velox4exec19VectorFunctionEntryEENS_10_Select1stESt4hashIS6_ENS_18_Mod_range_hashingENS_20_Default_ranged_hashELb1EE15_M_bucket_indexERKNS_16_Hash_node_valueISD_Lb1EEEm(ptr noundef nonnull align 1 dereferenceable(1) %this, ptr noundef nonnull align 8 dereferenceable(104) %__n, i64 noundef %__bkt_count) #1 comdat align 2 {
entry:
  %this.addr = alloca ptr, align 8
  %__n.addr = alloca ptr, align 8
  %__bkt_count.addr = alloca i64, align 8
  %ref.tmp = alloca %"struct.std::__detail::_Mod_range_hashing", align 1
  store ptr %this, ptr %this.addr, align 8
  store ptr %__n, ptr %__n.addr, align 8
  store i64 %__bkt_count, ptr %__bkt_count.addr, align 8
  %0 = load ptr, ptr %__n.addr, align 8
  %add.ptr = getelementptr inbounds i8, ptr %0, i64 96
  %_M_hash_code = getelementptr inbounds %"struct.std::__detail::_Hash_node_code_cache", ptr %add.ptr, i32 0, i32 0
  %1 = load i64, ptr %_M_hash_code, align 8
  %2 = load i64, ptr %__bkt_count.addr, align 8
  %call = call noundef i64 @_ZNKSt8__detail18_Mod_range_hashingclEmm(ptr noundef nonnull align 1 dereferenceable(1) %ref.tmp, i64 noundef %1, i64 noundef %2) #12
  ret i64 %call
}

; Function Attrs: mustprogress nounwind uwtable
define linkonce_odr void @_ZNSt8__detail19_Node_iterator_baseISt4pairIKNSt7__cxx1112basic_stringIcSt11char_traitsIcESaIcEEEN8facebook5velox4exec19VectorFunctionEntryEELb1EEC2EPNS_10_Hash_nodeISD_Lb1EEE(ptr noundef nonnull align 8 dereferenceable(8) %this, ptr noundef %__p) unnamed_addr #1 comdat align 2 {
entry:
  %this.addr = alloca ptr, align 8
  %__p.addr = alloca ptr, align 8
  store ptr %this, ptr %this.addr, align 8
  store ptr %__p, ptr %__p.addr, align 8
  %this1 = load ptr, ptr %this.addr, align 8
  %_M_cur = getelementptr inbounds %"struct.std::__detail::_Node_iterator_base", ptr %this1, i32 0, i32 0
  %0 = load ptr, ptr %__p.addr, align 8
  store ptr %0, ptr %_M_cur, align 8
  ret void
}

declare noundef ptr @_ZNSt7__cxx1112basic_stringIcSt11char_traitsIcESaIcEE13_M_local_dataEv(ptr noundef nonnull align 8 dereferenceable(32)) #3

declare void @_ZNSt7__cxx1112basic_stringIcSt11char_traitsIcESaIcEE12_Alloc_hiderC1EPcRKS3_(ptr noundef nonnull align 8 dereferenceable(8), ptr noundef, ptr noundef nonnull align 1 dereferenceable(1)) unnamed_addr #3

; Function Attrs: noreturn
declare void @_ZSt19__throw_logic_errorPKc(ptr noundef) #7

; Function Attrs: mustprogress nounwind uwtable
define linkonce_odr noundef i64 @_ZNSt11char_traitsIcE6lengthEPKc(ptr noundef %__s) #1 comdat align 2 {
entry:
  %__s.addr = alloca ptr, align 8
  store ptr %__s, ptr %__s.addr, align 8
  %0 = load ptr, ptr %__s.addr, align 8
  %call = call i64 @strlen(ptr noundef %0) #12
  ret i64 %call
}

; Function Attrs: mustprogress uwtable
define linkonce_odr void @_ZNSt7__cxx1112basic_stringIcSt11char_traitsIcESaIcEE12_M_constructIPKcEEvT_S8_St20forward_iterator_tag(ptr noundef nonnull align 8 dereferenceable(32) %this, ptr noundef %__beg, ptr noundef %__end) #0 comdat align 2 personality ptr @__gxx_personality_v0 {
entry:
  %this.addr.i = alloca ptr, align 8
  %this.addr = alloca ptr, align 8
  %__beg.addr = alloca ptr, align 8
  %__end.addr = alloca ptr, align 8
  %__dnew = alloca i64, align 8
  %__guard = alloca %struct._Guard, align 8
  %exn.slot = alloca ptr, align 8
  %ehselector.slot = alloca i32, align 4
  store ptr %this, ptr %this.addr, align 8
  store ptr %__beg, ptr %__beg.addr, align 8
  store ptr %__end, ptr %__end.addr, align 8
  %this1 = load ptr, ptr %this.addr, align 8
  %0 = load ptr, ptr %__beg.addr, align 8
  %1 = load ptr, ptr %__end.addr, align 8
  %call = call noundef i64 @_ZSt8distanceIPKcENSt15iterator_traitsIT_E15difference_typeES3_S3_(ptr noundef %0, ptr noundef %1)
  store i64 %call, ptr %__dnew, align 8
  %2 = load i64, ptr %__dnew, align 8
  %cmp = icmp ugt i64 %2, 15
  br i1 %cmp, label %if.then, label %if.else

if.then:                                          ; preds = %entry
  %call2 = call noundef ptr @_ZNSt7__cxx1112basic_stringIcSt11char_traitsIcESaIcEE9_M_createERmm(ptr noundef nonnull align 8 dereferenceable(32) %this1, ptr noundef nonnull align 8 dereferenceable(8) %__dnew, i64 noundef 0)
  call void @_ZNSt7__cxx1112basic_stringIcSt11char_traitsIcESaIcEE7_M_dataEPc(ptr noundef nonnull align 8 dereferenceable(32) %this1, ptr noundef %call2)
  %3 = load i64, ptr %__dnew, align 8
  call void @_ZNSt7__cxx1112basic_stringIcSt11char_traitsIcESaIcEE11_M_capacityEm(ptr noundef nonnull align 8 dereferenceable(32) %this1, i64 noundef %3)
  br label %if.end

if.else:                                          ; preds = %entry
  store ptr %this1, ptr %this.addr.i, align 8
  %this1.i = load ptr, ptr %this.addr.i, align 8
  %call.i = invoke noundef ptr @_ZNSt7__cxx1112basic_stringIcSt11char_traitsIcESaIcEE13_M_local_dataEv(ptr noundef nonnull align 8 dereferenceable(32) %this1.i)
          to label %_ZNSt7__cxx1112basic_stringIcSt11char_traitsIcESaIcEE17_M_use_local_dataEv.exit unwind label %terminate.lpad.i

terminate.lpad.i:                                 ; preds = %if.else
  %4 = landingpad { ptr, i32 }
          catch ptr null
  %5 = extractvalue { ptr, i32 } %4, 0
  call void @__clang_call_terminate(ptr %5) #13
  unreachable

_ZNSt7__cxx1112basic_stringIcSt11char_traitsIcESaIcEE17_M_use_local_dataEv.exit: ; preds = %if.else
  br label %if.end

if.end:                                           ; preds = %_ZNSt7__cxx1112basic_stringIcSt11char_traitsIcESaIcEE17_M_use_local_dataEv.exit, %if.then
  call void @_ZZNSt7__cxx1112basic_stringIcSt11char_traitsIcESaIcEE12_M_constructIPKcEEvT_S8_St20forward_iterator_tagEN6_GuardC2EPS4_(ptr noundef nonnull align 8 dereferenceable(8) %__guard, ptr noundef %this1)
  %call4 = invoke noundef ptr @_ZNKSt7__cxx1112basic_stringIcSt11char_traitsIcESaIcEE7_M_dataEv(ptr noundef nonnull align 8 dereferenceable(32) %this1)
          to label %invoke.cont unwind label %lpad

invoke.cont:                                      ; preds = %if.end
  %6 = load ptr, ptr %__beg.addr, align 8
  %7 = load ptr, ptr %__end.addr, align 8
  call void @_ZNSt7__cxx1112basic_stringIcSt11char_traitsIcESaIcEE13_S_copy_charsEPcPKcS7_(ptr noundef %call4, ptr noundef %6, ptr noundef %7) #12
  %_M_guarded = getelementptr inbounds %struct._Guard, ptr %__guard, i32 0, i32 0
  store ptr null, ptr %_M_guarded, align 8
  %8 = load i64, ptr %__dnew, align 8
  invoke void @_ZNSt7__cxx1112basic_stringIcSt11char_traitsIcESaIcEE13_M_set_lengthEm(ptr noundef nonnull align 8 dereferenceable(32) %this1, i64 noundef %8)
          to label %invoke.cont5 unwind label %lpad

invoke.cont5:                                     ; preds = %invoke.cont
  call void @_ZZNSt7__cxx1112basic_stringIcSt11char_traitsIcESaIcEE12_M_constructIPKcEEvT_S8_St20forward_iterator_tagEN6_GuardD2Ev(ptr noundef nonnull align 8 dereferenceable(8) %__guard) #12
  ret void

lpad:                                             ; preds = %invoke.cont, %if.end
  %9 = landingpad { ptr, i32 }
          cleanup
  %10 = extractvalue { ptr, i32 } %9, 0
  store ptr %10, ptr %exn.slot, align 8
  %11 = extractvalue { ptr, i32 } %9, 1
  store i32 %11, ptr %ehselector.slot, align 4
  call void @_ZZNSt7__cxx1112basic_stringIcSt11char_traitsIcESaIcEE12_M_constructIPKcEEvT_S8_St20forward_iterator_tagEN6_GuardD2Ev(ptr noundef nonnull align 8 dereferenceable(8) %__guard) #12
  br label %eh.resume

eh.resume:                                        ; preds = %lpad
  %exn = load ptr, ptr %exn.slot, align 8
  %sel = load i32, ptr %ehselector.slot, align 4
  %lpad.val = insertvalue { ptr, i32 } poison, ptr %exn, 0
  %lpad.val6 = insertvalue { ptr, i32 } %lpad.val, i32 %sel, 1
  resume { ptr, i32 } %lpad.val6
}

; Function Attrs: mustprogress nounwind uwtable
define linkonce_odr void @_ZNSt7__cxx1112basic_stringIcSt11char_traitsIcESaIcEE12_Alloc_hiderD2Ev(ptr noundef nonnull align 8 dereferenceable(8) %this) unnamed_addr #1 comdat align 2 {
entry:
  %this.addr = alloca ptr, align 8
  store ptr %this, ptr %this.addr, align 8
  %this1 = load ptr, ptr %this.addr, align 8
  call void @_ZNSaIcED2Ev(ptr noundef nonnull align 1 dereferenceable(1) %this1) #12
  ret void
}

; Function Attrs: nounwind
declare i64 @strlen(ptr noundef) #2

; Function Attrs: mustprogress uwtable
define linkonce_odr noundef i64 @_ZSt8distanceIPKcENSt15iterator_traitsIT_E15difference_typeES3_S3_(ptr noundef %__first, ptr noundef %__last) #0 comdat {
entry:
  %__first.addr = alloca ptr, align 8
  %__last.addr = alloca ptr, align 8
  store ptr %__first, ptr %__first.addr, align 8
  store ptr %__last, ptr %__last.addr, align 8
  %0 = load ptr, ptr %__first.addr, align 8
  %1 = load ptr, ptr %__last.addr, align 8
  call void @_ZSt19__iterator_categoryIPKcENSt15iterator_traitsIT_E17iterator_categoryERKS3_(ptr noundef nonnull align 8 dereferenceable(8) %__first.addr)
  %call = call noundef i64 @_ZSt10__distanceIPKcENSt15iterator_traitsIT_E15difference_typeES3_S3_St26random_access_iterator_tag(ptr noundef %0, ptr noundef %1)
  ret i64 %call
}

declare void @_ZNSt7__cxx1112basic_stringIcSt11char_traitsIcESaIcEE7_M_dataEPc(ptr noundef nonnull align 8 dereferenceable(32), ptr noundef) #3

declare noundef ptr @_ZNSt7__cxx1112basic_stringIcSt11char_traitsIcESaIcEE9_M_createERmm(ptr noundef nonnull align 8 dereferenceable(32), ptr noundef nonnull align 8 dereferenceable(8), i64 noundef) #3

declare void @_ZNSt7__cxx1112basic_stringIcSt11char_traitsIcESaIcEE11_M_capacityEm(ptr noundef nonnull align 8 dereferenceable(32), i64 noundef) #3

; Function Attrs: mustprogress nounwind uwtable
define linkonce_odr void @_ZZNSt7__cxx1112basic_stringIcSt11char_traitsIcESaIcEE12_M_constructIPKcEEvT_S8_St20forward_iterator_tagEN6_GuardC2EPS4_(ptr noundef nonnull align 8 dereferenceable(8) %this, ptr noundef %__s) unnamed_addr #1 comdat align 2 {
entry:
  %this.addr = alloca ptr, align 8
  %__s.addr = alloca ptr, align 8
  store ptr %this, ptr %this.addr, align 8
  store ptr %__s, ptr %__s.addr, align 8
  %this1 = load ptr, ptr %this.addr, align 8
  %_M_guarded = getelementptr inbounds %struct._Guard, ptr %this1, i32 0, i32 0
  %0 = load ptr, ptr %__s.addr, align 8
  store ptr %0, ptr %_M_guarded, align 8
  ret void
}

; Function Attrs: nounwind
declare void @_ZNSt7__cxx1112basic_stringIcSt11char_traitsIcESaIcEE13_S_copy_charsEPcPKcS7_(ptr noundef, ptr noundef, ptr noundef) #2

declare noundef ptr @_ZNKSt7__cxx1112basic_stringIcSt11char_traitsIcESaIcEE7_M_dataEv(ptr noundef nonnull align 8 dereferenceable(32)) #3

declare void @_ZNSt7__cxx1112basic_stringIcSt11char_traitsIcESaIcEE13_M_set_lengthEm(ptr noundef nonnull align 8 dereferenceable(32), i64 noundef) #3

; Function Attrs: mustprogress nounwind uwtable
define linkonce_odr void @_ZZNSt7__cxx1112basic_stringIcSt11char_traitsIcESaIcEE12_M_constructIPKcEEvT_S8_St20forward_iterator_tagEN6_GuardD2Ev(ptr noundef nonnull align 8 dereferenceable(8) %this) unnamed_addr #1 comdat align 2 personality ptr @__gxx_personality_v0 {
entry:
  %this.addr = alloca ptr, align 8
  store ptr %this, ptr %this.addr, align 8
  %this1 = load ptr, ptr %this.addr, align 8
  %_M_guarded = getelementptr inbounds %struct._Guard, ptr %this1, i32 0, i32 0
  %0 = load ptr, ptr %_M_guarded, align 8
  %tobool = icmp ne ptr %0, null
  br i1 %tobool, label %if.then, label %if.end

if.then:                                          ; preds = %entry
  %_M_guarded2 = getelementptr inbounds %struct._Guard, ptr %this1, i32 0, i32 0
  %1 = load ptr, ptr %_M_guarded2, align 8
  invoke void @_ZNSt7__cxx1112basic_stringIcSt11char_traitsIcESaIcEE10_M_disposeEv(ptr noundef nonnull align 8 dereferenceable(32) %1)
          to label %invoke.cont unwind label %terminate.lpad

invoke.cont:                                      ; preds = %if.then
  br label %if.end

if.end:                                           ; preds = %invoke.cont, %entry
  ret void

terminate.lpad:                                   ; preds = %if.then
  %2 = landingpad { ptr, i32 }
          catch ptr null
  %3 = extractvalue { ptr, i32 } %2, 0
  call void @__clang_call_terminate(ptr %3) #13
  unreachable
}

; Function Attrs: mustprogress nounwind uwtable
define linkonce_odr noundef i64 @_ZSt10__distanceIPKcENSt15iterator_traitsIT_E15difference_typeES3_S3_St26random_access_iterator_tag(ptr noundef %__first, ptr noundef %__last) #1 comdat {
entry:
  %__first.addr = alloca ptr, align 8
  %__last.addr = alloca ptr, align 8
  store ptr %__first, ptr %__first.addr, align 8
  store ptr %__last, ptr %__last.addr, align 8
  %0 = load ptr, ptr %__last.addr, align 8
  %1 = load ptr, ptr %__first.addr, align 8
  %sub.ptr.lhs.cast = ptrtoint ptr %0 to i64
  %sub.ptr.rhs.cast = ptrtoint ptr %1 to i64
  %sub.ptr.sub = sub i64 %sub.ptr.lhs.cast, %sub.ptr.rhs.cast
  ret i64 %sub.ptr.sub
}

; Function Attrs: mustprogress nounwind uwtable
define linkonce_odr void @_ZSt19__iterator_categoryIPKcENSt15iterator_traitsIT_E17iterator_categoryERKS3_(ptr noundef nonnull align 8 dereferenceable(8) %0) #1 comdat {
entry:
  %.addr = alloca ptr, align 8
  store ptr %0, ptr %.addr, align 8
  ret void
}

declare void @_ZNSt7__cxx1112basic_stringIcSt11char_traitsIcESaIcEE10_M_disposeEv(ptr noundef nonnull align 8 dereferenceable(32)) #3

; Function Attrs: nounwind
declare void @_ZNSaIcED2Ev(ptr noundef nonnull align 1 dereferenceable(1)) unnamed_addr #2

; Function Attrs: mustprogress nounwind uwtable
define linkonce_odr noundef ptr @_ZNSt8__detail21_Hash_node_value_baseISt4pairIKNSt7__cxx1112basic_stringIcSt11char_traitsIcESaIcEEEN8facebook5velox4exec19VectorFunctionEntryEEE9_M_valptrEv(ptr noundef nonnull align 8 dereferenceable(96) %this) #1 comdat align 2 {
entry:
  %this.addr = alloca ptr, align 8
  store ptr %this, ptr %this.addr, align 8
  %this1 = load ptr, ptr %this.addr, align 8
  %_M_storage = getelementptr inbounds %"struct.std::__detail::_Hash_node_value_base", ptr %this1, i32 0, i32 0
  %call = call noundef ptr @_ZN9__gnu_cxx16__aligned_bufferISt4pairIKNSt7__cxx1112basic_stringIcSt11char_traitsIcESaIcEEEN8facebook5velox4exec19VectorFunctionEntryEEE6_M_ptrEv(ptr noundef nonnull align 8 dereferenceable(96) %_M_storage) #12
  ret ptr %call
}

; Function Attrs: mustprogress nounwind uwtable
define linkonce_odr noundef ptr @_ZN9__gnu_cxx16__aligned_bufferISt4pairIKNSt7__cxx1112basic_stringIcSt11char_traitsIcESaIcEEEN8facebook5velox4exec19VectorFunctionEntryEEE6_M_ptrEv(ptr noundef nonnull align 8 dereferenceable(96) %this) #1 comdat align 2 {
entry:
  %this.addr = alloca ptr, align 8
  store ptr %this, ptr %this.addr, align 8
  %this1 = load ptr, ptr %this.addr, align 8
  %call = call noundef ptr @_ZN9__gnu_cxx16__aligned_bufferISt4pairIKNSt7__cxx1112basic_stringIcSt11char_traitsIcESaIcEEEN8facebook5velox4exec19VectorFunctionEntryEEE7_M_addrEv(ptr noundef nonnull align 8 dereferenceable(96) %this1) #12
  ret ptr %call
}

; Function Attrs: mustprogress nounwind uwtable
define linkonce_odr noundef ptr @_ZN9__gnu_cxx16__aligned_bufferISt4pairIKNSt7__cxx1112basic_stringIcSt11char_traitsIcESaIcEEEN8facebook5velox4exec19VectorFunctionEntryEEE7_M_addrEv(ptr noundef nonnull align 8 dereferenceable(96) %this) #1 comdat align 2 {
entry:
  %this.addr = alloca ptr, align 8
  store ptr %this, ptr %this.addr, align 8
  %this1 = load ptr, ptr %this.addr, align 8
  %_M_storage = getelementptr inbounds %"struct.__gnu_cxx::__aligned_buffer", ptr %this1, i32 0, i32 0
  ret ptr %_M_storage
}

; Function Attrs: mustprogress nounwind uwtable
define linkonce_odr noundef zeroext i1 @_ZNKSt14_Function_base8_M_emptyEv(ptr noundef nonnull align 8 dereferenceable(24) %this) #1 comdat align 2 {
entry:
  %this.addr = alloca ptr, align 8
  store ptr %this, ptr %this.addr, align 8
  %this1 = load ptr, ptr %this.addr, align 8
  %_M_manager = getelementptr inbounds %"class.std::_Function_base", ptr %this1, i32 0, i32 1
  %0 = load ptr, ptr %_M_manager, align 8
  %tobool = icmp ne ptr %0, null
  %lnot = xor i1 %tobool, true
  ret i1 %lnot
}

; Function Attrs: noreturn
declare void @_ZSt25__throw_bad_function_callv() #7

; Function Attrs: mustprogress nounwind uwtable
define linkonce_odr void @_ZNSt12_Vector_baseIN8facebook5velox4exec17VectorFunctionArgESaIS3_EEC2Ev(ptr noundef nonnull align 8 dereferenceable(24) %this) unnamed_addr #1 comdat align 2 {
entry:
  %this.addr = alloca ptr, align 8
  store ptr %this, ptr %this.addr, align 8
  %this1 = load ptr, ptr %this.addr, align 8
  %_M_impl = getelementptr inbounds %"struct.std::_Vector_base.36", ptr %this1, i32 0, i32 0
  call void @_ZNSt12_Vector_baseIN8facebook5velox4exec17VectorFunctionArgESaIS3_EE12_Vector_implC2Ev(ptr noundef nonnull align 8 dereferenceable(24) %_M_impl) #12
  ret void
}

; Function Attrs: mustprogress nounwind uwtable
define linkonce_odr void @_ZNSt12_Vector_baseIN8facebook5velox4exec17VectorFunctionArgESaIS3_EE12_Vector_implC2Ev(ptr noundef nonnull align 8 dereferenceable(24) %this) unnamed_addr #1 comdat align 2 {
entry:
  %this.addr = alloca ptr, align 8
  store ptr %this, ptr %this.addr, align 8
  %this1 = load ptr, ptr %this.addr, align 8
  call void @_ZNSaIN8facebook5velox4exec17VectorFunctionArgEEC2Ev(ptr noundef nonnull align 1 dereferenceable(1) %this1) #12
  call void @_ZNSt12_Vector_baseIN8facebook5velox4exec17VectorFunctionArgESaIS3_EE17_Vector_impl_dataC2Ev(ptr noundef nonnull align 8 dereferenceable(24) %this1) #12
  ret void
}

; Function Attrs: mustprogress nounwind uwtable
define linkonce_odr void @_ZNSaIN8facebook5velox4exec17VectorFunctionArgEEC2Ev(ptr noundef nonnull align 1 dereferenceable(1) %this) unnamed_addr #1 comdat align 2 {
entry:
  %this.addr = alloca ptr, align 8
  store ptr %this, ptr %this.addr, align 8
  %this1 = load ptr, ptr %this.addr, align 8
  call void @_ZNSt15__new_allocatorIN8facebook5velox4exec17VectorFunctionArgEEC2Ev(ptr noundef nonnull align 1 dereferenceable(1) %this1) #12
  ret void
}

; Function Attrs: mustprogress nounwind uwtable
define linkonce_odr void @_ZNSt12_Vector_baseIN8facebook5velox4exec17VectorFunctionArgESaIS3_EE17_Vector_impl_dataC2Ev(ptr noundef nonnull align 8 dereferenceable(24) %this) unnamed_addr #1 comdat align 2 {
entry:
  %this.addr = alloca ptr, align 8
  store ptr %this, ptr %this.addr, align 8
  %this1 = load ptr, ptr %this.addr, align 8
  %_M_start = getelementptr inbounds %"struct.std::_Vector_base<facebook::velox::exec::VectorFunctionArg, std::allocator<facebook::velox::exec::VectorFunctionArg>>::_Vector_impl_data", ptr %this1, i32 0, i32 0
  store ptr null, ptr %_M_start, align 8
  %_M_finish = getelementptr inbounds %"struct.std::_Vector_base<facebook::velox::exec::VectorFunctionArg, std::allocator<facebook::velox::exec::VectorFunctionArg>>::_Vector_impl_data", ptr %this1, i32 0, i32 1
  store ptr null, ptr %_M_finish, align 8
  %_M_end_of_storage = getelementptr inbounds %"struct.std::_Vector_base<facebook::velox::exec::VectorFunctionArg, std::allocator<facebook::velox::exec::VectorFunctionArg>>::_Vector_impl_data", ptr %this1, i32 0, i32 2
  store ptr null, ptr %_M_end_of_storage, align 8
  ret void
}

; Function Attrs: mustprogress nounwind uwtable
define linkonce_odr void @_ZNSt15__new_allocatorIN8facebook5velox4exec17VectorFunctionArgEEC2Ev(ptr noundef nonnull align 1 dereferenceable(1) %this) unnamed_addr #1 comdat align 2 {
entry:
  %this.addr = alloca ptr, align 8
  store ptr %this, ptr %this.addr, align 8
  ret void
}

; Function Attrs: mustprogress uwtable
define linkonce_odr void @_ZSt8_DestroyIPN8facebook5velox4exec17VectorFunctionArgES3_EvT_S5_RSaIT0_E(ptr noundef %__first, ptr noundef %__last, ptr noundef nonnull align 1 dereferenceable(1) %0) #0 comdat {
entry:
  %__first.addr = alloca ptr, align 8
  %__last.addr = alloca ptr, align 8
  %.addr = alloca ptr, align 8
  store ptr %__first, ptr %__first.addr, align 8
  store ptr %__last, ptr %__last.addr, align 8
  store ptr %0, ptr %.addr, align 8
  %1 = load ptr, ptr %__first.addr, align 8
  %2 = load ptr, ptr %__last.addr, align 8
  call void @_ZSt8_DestroyIPN8facebook5velox4exec17VectorFunctionArgEEvT_S5_(ptr noundef %1, ptr noundef %2)
  ret void
}

; Function Attrs: mustprogress nounwind uwtable
define linkonce_odr noundef nonnull align 1 dereferenceable(1) ptr @_ZNSt12_Vector_baseIN8facebook5velox4exec17VectorFunctionArgESaIS3_EE19_M_get_Tp_allocatorEv(ptr noundef nonnull align 8 dereferenceable(24) %this) #1 comdat align 2 {
entry:
  %this.addr = alloca ptr, align 8
  store ptr %this, ptr %this.addr, align 8
  %this1 = load ptr, ptr %this.addr, align 8
  %_M_impl = getelementptr inbounds %"struct.std::_Vector_base.36", ptr %this1, i32 0, i32 0
  ret ptr %_M_impl
}

; Function Attrs: mustprogress nounwind uwtable
define linkonce_odr void @_ZNSt12_Vector_baseIN8facebook5velox4exec17VectorFunctionArgESaIS3_EED2Ev(ptr noundef nonnull align 8 dereferenceable(24) %this) unnamed_addr #1 comdat align 2 personality ptr @__gxx_personality_v0 {
entry:
  %this.addr = alloca ptr, align 8
  store ptr %this, ptr %this.addr, align 8
  %this1 = load ptr, ptr %this.addr, align 8
  %_M_impl = getelementptr inbounds %"struct.std::_Vector_base.36", ptr %this1, i32 0, i32 0
  %_M_start = getelementptr inbounds %"struct.std::_Vector_base<facebook::velox::exec::VectorFunctionArg, std::allocator<facebook::velox::exec::VectorFunctionArg>>::_Vector_impl_data", ptr %_M_impl, i32 0, i32 0
  %0 = load ptr, ptr %_M_start, align 8
  %_M_impl2 = getelementptr inbounds %"struct.std::_Vector_base.36", ptr %this1, i32 0, i32 0
  %_M_end_of_storage = getelementptr inbounds %"struct.std::_Vector_base<facebook::velox::exec::VectorFunctionArg, std::allocator<facebook::velox::exec::VectorFunctionArg>>::_Vector_impl_data", ptr %_M_impl2, i32 0, i32 2
  %1 = load ptr, ptr %_M_end_of_storage, align 8
  %_M_impl3 = getelementptr inbounds %"struct.std::_Vector_base.36", ptr %this1, i32 0, i32 0
  %_M_start4 = getelementptr inbounds %"struct.std::_Vector_base<facebook::velox::exec::VectorFunctionArg, std::allocator<facebook::velox::exec::VectorFunctionArg>>::_Vector_impl_data", ptr %_M_impl3, i32 0, i32 0
  %2 = load ptr, ptr %_M_start4, align 8
  %sub.ptr.lhs.cast = ptrtoint ptr %1 to i64
  %sub.ptr.rhs.cast = ptrtoint ptr %2 to i64
  %sub.ptr.sub = sub i64 %sub.ptr.lhs.cast, %sub.ptr.rhs.cast
  %sub.ptr.div = sdiv exact i64 %sub.ptr.sub, 32
  invoke void @_ZNSt12_Vector_baseIN8facebook5velox4exec17VectorFunctionArgESaIS3_EE13_M_deallocateEPS3_m(ptr noundef nonnull align 8 dereferenceable(24) %this1, ptr noundef %0, i64 noundef %sub.ptr.div)
          to label %invoke.cont unwind label %terminate.lpad

invoke.cont:                                      ; preds = %entry
  %_M_impl5 = getelementptr inbounds %"struct.std::_Vector_base.36", ptr %this1, i32 0, i32 0
  call void @_ZNSt12_Vector_baseIN8facebook5velox4exec17VectorFunctionArgESaIS3_EE12_Vector_implD2Ev(ptr noundef nonnull align 8 dereferenceable(24) %_M_impl5) #12
  ret void

terminate.lpad:                                   ; preds = %entry
  %3 = landingpad { ptr, i32 }
          catch ptr null
  %4 = extractvalue { ptr, i32 } %3, 0
  call void @__clang_call_terminate(ptr %4) #13
  unreachable
}

; Function Attrs: mustprogress uwtable
define linkonce_odr void @_ZSt8_DestroyIPN8facebook5velox4exec17VectorFunctionArgEEvT_S5_(ptr noundef %__first, ptr noundef %__last) #0 comdat {
entry:
  %__first.addr = alloca ptr, align 8
  %__last.addr = alloca ptr, align 8
  store ptr %__first, ptr %__first.addr, align 8
  store ptr %__last, ptr %__last.addr, align 8
  %0 = load ptr, ptr %__first.addr, align 8
  %1 = load ptr, ptr %__last.addr, align 8
  call void @_ZNSt12_Destroy_auxILb0EE9__destroyIPN8facebook5velox4exec17VectorFunctionArgEEEvT_S7_(ptr noundef %0, ptr noundef %1)
  ret void
}

; Function Attrs: mustprogress uwtable
define linkonce_odr void @_ZNSt12_Destroy_auxILb0EE9__destroyIPN8facebook5velox4exec17VectorFunctionArgEEEvT_S7_(ptr noundef %__first, ptr noundef %__last) #0 comdat align 2 {
entry:
  %__first.addr = alloca ptr, align 8
  %__last.addr = alloca ptr, align 8
  store ptr %__first, ptr %__first.addr, align 8
  store ptr %__last, ptr %__last.addr, align 8
  br label %for.cond

for.cond:                                         ; preds = %for.inc, %entry
  %0 = load ptr, ptr %__first.addr, align 8
  %1 = load ptr, ptr %__last.addr, align 8
  %cmp = icmp ne ptr %0, %1
  br i1 %cmp, label %for.body, label %for.end

for.body:                                         ; preds = %for.cond
  %2 = load ptr, ptr %__first.addr, align 8
  call void @_ZSt8_DestroyIN8facebook5velox4exec17VectorFunctionArgEEvPT_(ptr noundef %2)
  br label %for.inc

for.inc:                                          ; preds = %for.body
  %3 = load ptr, ptr %__first.addr, align 8
  %incdec.ptr = getelementptr inbounds %"struct.facebook::velox::exec::VectorFunctionArg", ptr %3, i32 1
  store ptr %incdec.ptr, ptr %__first.addr, align 8
  br label %for.cond, !llvm.loop !11

for.end:                                          ; preds = %for.cond
  ret void
}

; Function Attrs: mustprogress nounwind uwtable
define linkonce_odr void @_ZSt8_DestroyIN8facebook5velox4exec17VectorFunctionArgEEvPT_(ptr noundef %__pointer) #1 comdat {
entry:
  %__pointer.addr = alloca ptr, align 8
  store ptr %__pointer, ptr %__pointer.addr, align 8
  %0 = load ptr, ptr %__pointer.addr, align 8
  call void @_ZN8facebook5velox4exec17VectorFunctionArgD2Ev(ptr noundef nonnull align 8 dereferenceable(32) %0) #12
  ret void
}

; Function Attrs: mustprogress nounwind uwtable
define linkonce_odr void @_ZN8facebook5velox4exec17VectorFunctionArgD2Ev(ptr noundef nonnull align 8 dereferenceable(32) %this) unnamed_addr #1 comdat align 2 {
entry:
  %this.addr = alloca ptr, align 8
  store ptr %this, ptr %this.addr, align 8
  %this1 = load ptr, ptr %this.addr, align 8
  %constantValue = getelementptr inbounds %"struct.facebook::velox::exec::VectorFunctionArg", ptr %this1, i32 0, i32 1
  call void @_ZNSt10shared_ptrIN8facebook5velox10BaseVectorEED2Ev(ptr noundef nonnull align 8 dereferenceable(16) %constantValue) #12
  %type = getelementptr inbounds %"struct.facebook::velox::exec::VectorFunctionArg", ptr %this1, i32 0, i32 0
  call void @_ZNSt10shared_ptrIKN8facebook5velox4TypeEED2Ev(ptr noundef nonnull align 8 dereferenceable(16) %type) #12
  ret void
}

; Function Attrs: mustprogress nounwind uwtable
define linkonce_odr void @_ZNSt10shared_ptrIN8facebook5velox10BaseVectorEED2Ev(ptr noundef nonnull align 8 dereferenceable(16) %this) unnamed_addr #1 comdat align 2 {
entry:
  %this.addr = alloca ptr, align 8
  store ptr %this, ptr %this.addr, align 8
  %this1 = load ptr, ptr %this.addr, align 8
  call void @_ZNSt12__shared_ptrIN8facebook5velox10BaseVectorELN9__gnu_cxx12_Lock_policyE2EED2Ev(ptr noundef nonnull align 8 dereferenceable(16) %this1) #12
  ret void
}

; Function Attrs: mustprogress nounwind uwtable
define linkonce_odr void @_ZNSt10shared_ptrIKN8facebook5velox4TypeEED2Ev(ptr noundef nonnull align 8 dereferenceable(16) %this) unnamed_addr #1 comdat align 2 {
entry:
  %this.addr = alloca ptr, align 8
  store ptr %this, ptr %this.addr, align 8
  %this1 = load ptr, ptr %this.addr, align 8
  call void @_ZNSt12__shared_ptrIKN8facebook5velox4TypeELN9__gnu_cxx12_Lock_policyE2EED2Ev(ptr noundef nonnull align 8 dereferenceable(16) %this1) #12
  ret void
}

; Function Attrs: mustprogress nounwind uwtable
define linkonce_odr void @_ZNSt12__shared_ptrIN8facebook5velox10BaseVectorELN9__gnu_cxx12_Lock_policyE2EED2Ev(ptr noundef nonnull align 8 dereferenceable(16) %this) unnamed_addr #1 comdat align 2 {
entry:
  %this.addr = alloca ptr, align 8
  store ptr %this, ptr %this.addr, align 8
  %this1 = load ptr, ptr %this.addr, align 8
  %_M_refcount = getelementptr inbounds %"class.std::__shared_ptr.41", ptr %this1, i32 0, i32 1
  call void @_ZNSt14__shared_countILN9__gnu_cxx12_Lock_policyE2EED2Ev(ptr noundef nonnull align 8 dereferenceable(8) %_M_refcount) #12
  ret void
}

; Function Attrs: mustprogress nounwind uwtable
define linkonce_odr void @_ZNSt12__shared_ptrIKN8facebook5velox4TypeELN9__gnu_cxx12_Lock_policyE2EED2Ev(ptr noundef nonnull align 8 dereferenceable(16) %this) unnamed_addr #1 comdat align 2 {
entry:
  %this.addr = alloca ptr, align 8
  store ptr %this, ptr %this.addr, align 8
  %this1 = load ptr, ptr %this.addr, align 8
  %_M_refcount = getelementptr inbounds %"class.std::__shared_ptr", ptr %this1, i32 0, i32 1
  call void @_ZNSt14__shared_countILN9__gnu_cxx12_Lock_policyE2EED2Ev(ptr noundef nonnull align 8 dereferenceable(8) %_M_refcount) #12
  ret void
}

; Function Attrs: mustprogress uwtable
define linkonce_odr void @_ZNSt12_Vector_baseIN8facebook5velox4exec17VectorFunctionArgESaIS3_EE13_M_deallocateEPS3_m(ptr noundef nonnull align 8 dereferenceable(24) %this, ptr noundef %__p, i64 noundef %__n) #0 comdat align 2 {
entry:
  %this.addr = alloca ptr, align 8
  %__p.addr = alloca ptr, align 8
  %__n.addr = alloca i64, align 8
  store ptr %this, ptr %this.addr, align 8
  store ptr %__p, ptr %__p.addr, align 8
  store i64 %__n, ptr %__n.addr, align 8
  %this1 = load ptr, ptr %this.addr, align 8
  %0 = load ptr, ptr %__p.addr, align 8
  %tobool = icmp ne ptr %0, null
  br i1 %tobool, label %if.then, label %if.end

if.then:                                          ; preds = %entry
  %_M_impl = getelementptr inbounds %"struct.std::_Vector_base.36", ptr %this1, i32 0, i32 0
  %1 = load ptr, ptr %__p.addr, align 8
  %2 = load i64, ptr %__n.addr, align 8
  call void @_ZNSt16allocator_traitsISaIN8facebook5velox4exec17VectorFunctionArgEEE10deallocateERS4_PS3_m(ptr noundef nonnull align 1 dereferenceable(1) %_M_impl, ptr noundef %1, i64 noundef %2)
  br label %if.end

if.end:                                           ; preds = %if.then, %entry
  ret void
}

; Function Attrs: mustprogress nounwind uwtable
define linkonce_odr void @_ZNSt12_Vector_baseIN8facebook5velox4exec17VectorFunctionArgESaIS3_EE12_Vector_implD2Ev(ptr noundef nonnull align 8 dereferenceable(24) %this) unnamed_addr #1 comdat align 2 {
entry:
  %this.addr = alloca ptr, align 8
  store ptr %this, ptr %this.addr, align 8
  %this1 = load ptr, ptr %this.addr, align 8
  call void @_ZNSaIN8facebook5velox4exec17VectorFunctionArgEED2Ev(ptr noundef nonnull align 1 dereferenceable(1) %this1) #12
  ret void
}

; Function Attrs: mustprogress uwtable
define linkonce_odr void @_ZNSt16allocator_traitsISaIN8facebook5velox4exec17VectorFunctionArgEEE10deallocateERS4_PS3_m(ptr noundef nonnull align 1 dereferenceable(1) %__a, ptr noundef %__p, i64 noundef %__n) #0 comdat align 2 {
entry:
  %__a.addr = alloca ptr, align 8
  %__p.addr = alloca ptr, align 8
  %__n.addr = alloca i64, align 8
  store ptr %__a, ptr %__a.addr, align 8
  store ptr %__p, ptr %__p.addr, align 8
  store i64 %__n, ptr %__n.addr, align 8
  %0 = load ptr, ptr %__a.addr, align 8
  %1 = load ptr, ptr %__p.addr, align 8
  %2 = load i64, ptr %__n.addr, align 8
  call void @_ZNSt15__new_allocatorIN8facebook5velox4exec17VectorFunctionArgEE10deallocateEPS3_m(ptr noundef nonnull align 1 dereferenceable(1) %0, ptr noundef %1, i64 noundef %2)
  ret void
}

; Function Attrs: mustprogress nounwind uwtable
define linkonce_odr void @_ZNSt15__new_allocatorIN8facebook5velox4exec17VectorFunctionArgEE10deallocateEPS3_m(ptr noundef nonnull align 1 dereferenceable(1) %this, ptr noundef %__p, i64 noundef %__n) #1 comdat align 2 {
entry:
  %this.addr = alloca ptr, align 8
  %__p.addr = alloca ptr, align 8
  %__n.addr = alloca i64, align 8
  store ptr %this, ptr %this.addr, align 8
  store ptr %__p, ptr %__p.addr, align 8
  store i64 %__n, ptr %__n.addr, align 8
  %0 = load ptr, ptr %__p.addr, align 8
  call void @_ZdlPv(ptr noundef %0) #14
  ret void
}

; Function Attrs: nobuiltin nounwind
declare void @_ZdlPv(ptr noundef) #8

; Function Attrs: mustprogress nounwind uwtable
define linkonce_odr void @_ZNSaIN8facebook5velox4exec17VectorFunctionArgEED2Ev(ptr noundef nonnull align 1 dereferenceable(1) %this) unnamed_addr #1 comdat align 2 {
entry:
  %this.addr = alloca ptr, align 8
  store ptr %this, ptr %this.addr, align 8
  %this1 = load ptr, ptr %this.addr, align 8
  call void @_ZNSt15__new_allocatorIN8facebook5velox4exec17VectorFunctionArgEED2Ev(ptr noundef nonnull align 1 dereferenceable(1) %this1) #12
  ret void
}

; Function Attrs: mustprogress nounwind uwtable
define linkonce_odr void @_ZNSt15__new_allocatorIN8facebook5velox4exec17VectorFunctionArgEED2Ev(ptr noundef nonnull align 1 dereferenceable(1) %this) unnamed_addr #1 comdat align 2 {
entry:
  %this.addr = alloca ptr, align 8
  store ptr %this, ptr %this.addr, align 8
  ret void
}

; Function Attrs: mustprogress uwtable
define linkonce_odr void @_ZN5folly9LockedPtrIKNS_12SynchronizedISt13unordered_mapINSt7__cxx1112basic_stringIcSt11char_traitsIcESaIcEEEN8facebook5velox4exec19VectorFunctionEntryESt4hashIS8_ESt8equal_toIS8_ESaISt4pairIKS8_SC_EEENS_15SharedMutexImplILb0EvSt6atomicNS_24SharedMutexPolicyDefaultEEEEENS_6detail22SynchronizedLockPolicyILNSS_22SynchronizedMutexLevelE2ELNSS_23SynchronizedMutexMethodE0EEEEC2EPSR_(ptr noundef nonnull align 8 dereferenceable(16) %this, ptr noundef %parent) unnamed_addr #0 comdat align 2 {
entry:
  %result.ptr.i = alloca ptr, align 8
  %mutex.addr.i = alloca ptr, align 8
  %this.addr = alloca ptr, align 8
  %parent.addr = alloca ptr, align 8
  store ptr %this, ptr %this.addr, align 8
  store ptr %parent, ptr %parent.addr, align 8
  %this1 = load ptr, ptr %this.addr, align 8
  %lock_ = getelementptr inbounds %"class.folly::LockedPtr", ptr %this1, i32 0, i32 0
  %0 = load ptr, ptr %parent.addr, align 8
  %tobool = icmp ne ptr %0, null
  br i1 %tobool, label %cond.false, label %cond.true

cond.true:                                        ; preds = %entry
  call void @_ZNSt11shared_lockIN5folly15SharedMutexImplILb0EvSt6atomicNS0_24SharedMutexPolicyDefaultEEEEC2Ev(ptr noundef nonnull align 8 dereferenceable(9) %lock_) #12
  br label %cond.end

cond.false:                                       ; preds = %entry
  %1 = load ptr, ptr %parent.addr, align 8
  %mutex_ = getelementptr inbounds %"struct.folly::Synchronized", ptr %1, i32 0, i32 1
  call void @llvm.experimental.noalias.scope.decl(metadata !12)
  store ptr %lock_, ptr %result.ptr.i, align 8, !noalias !12
  store ptr %mutex_, ptr %mutex.addr.i, align 8, !noalias !12
  %2 = load ptr, ptr %mutex.addr.i, align 8, !noalias !12
  call void @_ZNSt11shared_lockIN5folly15SharedMutexImplILb0EvSt6atomicNS0_24SharedMutexPolicyDefaultEEEEC2ERS4_(ptr noundef nonnull align 8 dereferenceable(9) %lock_, ptr noundef nonnull align 4 dereferenceable(4) %2)
  br label %cond.end

cond.end:                                         ; preds = %cond.false, %cond.true
  ret void
}

; Function Attrs: mustprogress nounwind uwtable
define linkonce_odr void @_ZNSt11shared_lockIN5folly15SharedMutexImplILb0EvSt6atomicNS0_24SharedMutexPolicyDefaultEEEEC2Ev(ptr noundef nonnull align 8 dereferenceable(9) %this) unnamed_addr #1 comdat align 2 {
entry:
  %this.addr = alloca ptr, align 8
  store ptr %this, ptr %this.addr, align 8
  %this1 = load ptr, ptr %this.addr, align 8
  %_M_pm = getelementptr inbounds %"class.std::shared_lock", ptr %this1, i32 0, i32 0
  store ptr null, ptr %_M_pm, align 8
  %_M_owns = getelementptr inbounds %"class.std::shared_lock", ptr %this1, i32 0, i32 1
  store i8 0, ptr %_M_owns, align 8
  ret void
}

; Function Attrs: mustprogress uwtable
define linkonce_odr void @_ZNSt11shared_lockIN5folly15SharedMutexImplILb0EvSt6atomicNS0_24SharedMutexPolicyDefaultEEEEC2ERS4_(ptr noundef nonnull align 8 dereferenceable(9) %this, ptr noundef nonnull align 4 dereferenceable(4) %__m) unnamed_addr #0 comdat align 2 {
entry:
  %this.addr = alloca ptr, align 8
  %__m.addr = alloca ptr, align 8
  store ptr %this, ptr %this.addr, align 8
  store ptr %__m, ptr %__m.addr, align 8
  %this1 = load ptr, ptr %this.addr, align 8
  %_M_pm = getelementptr inbounds %"class.std::shared_lock", ptr %this1, i32 0, i32 0
  %0 = load ptr, ptr %__m.addr, align 8
  store ptr %0, ptr %_M_pm, align 8
  %_M_owns = getelementptr inbounds %"class.std::shared_lock", ptr %this1, i32 0, i32 1
  store i8 1, ptr %_M_owns, align 8
  %1 = load ptr, ptr %__m.addr, align 8
  call void @_ZN5folly15SharedMutexImplILb0EvSt6atomicNS_24SharedMutexPolicyDefaultEE11lock_sharedEv(ptr noundef nonnull align 4 dereferenceable(4) %1)
  ret void
}

declare void @_ZN5folly15SharedMutexImplILb0EvSt6atomicNS_24SharedMutexPolicyDefaultEE11lock_sharedEv(ptr noundef nonnull align 4 dereferenceable(4)) #3

; Function Attrs: mustprogress nounwind uwtable
define linkonce_odr noundef ptr @_ZNK5folly9LockedPtrIKNS_12SynchronizedISt13unordered_mapINSt7__cxx1112basic_stringIcSt11char_traitsIcESaIcEEEN8facebook5velox4exec19VectorFunctionEntryESt4hashIS8_ESt8equal_toIS8_ESaISt4pairIKS8_SC_EEENS_15SharedMutexImplILb0EvSt6atomicNS_24SharedMutexPolicyDefaultEEEEENS_6detail22SynchronizedLockPolicyILNSS_22SynchronizedMutexLevelE2ELNSS_23SynchronizedMutexMethodE0EEEE6parentEv(ptr noundef nonnull align 8 dereferenceable(16) %this) #1 comdat align 2 {
entry:
  %this.addr = alloca ptr, align 8
  %off = alloca i64, align 8
  %raw = alloca ptr, align 8
  store ptr %this, ptr %this.addr, align 8
  %this1 = load ptr, ptr %this.addr, align 8
  store i64 56, ptr %off, align 8
  %lock_ = getelementptr inbounds %"class.folly::LockedPtr", ptr %this1, i32 0, i32 0
  %call = call noundef ptr @_ZNKSt11shared_lockIN5folly15SharedMutexImplILb0EvSt6atomicNS0_24SharedMutexPolicyDefaultEEEE5mutexEv(ptr noundef nonnull align 8 dereferenceable(9) %lock_) #12
  store ptr %call, ptr %raw, align 8
  %0 = load ptr, ptr %raw, align 8
  %1 = load ptr, ptr %raw, align 8
  %tobool = icmp ne ptr %1, null
  %cond = select i1 %tobool, i64 56, i64 0
  %idx.neg = sub i64 0, %cond
  %add.ptr = getelementptr inbounds i8, ptr %0, i64 %idx.neg
  ret ptr %add.ptr
}

; Function Attrs: mustprogress nounwind uwtable
define linkonce_odr noundef ptr @_ZNKSt11shared_lockIN5folly15SharedMutexImplILb0EvSt6atomicNS0_24SharedMutexPolicyDefaultEEEE5mutexEv(ptr noundef nonnull align 8 dereferenceable(9) %this) #1 comdat align 2 {
entry:
  %this.addr = alloca ptr, align 8
  store ptr %this, ptr %this.addr, align 8
  %this1 = load ptr, ptr %this.addr, align 8
  %_M_pm = getelementptr inbounds %"class.std::shared_lock", ptr %this1, i32 0, i32 0
  %0 = load ptr, ptr %_M_pm, align 8
  ret ptr %0
}

; Function Attrs: mustprogress nounwind uwtable
define linkonce_odr void @_ZNSt11shared_lockIN5folly15SharedMutexImplILb0EvSt6atomicNS0_24SharedMutexPolicyDefaultEEEED2Ev(ptr noundef nonnull align 8 dereferenceable(9) %this) unnamed_addr #1 comdat align 2 personality ptr @__gxx_personality_v0 {
entry:
  %this.addr = alloca ptr, align 8
  store ptr %this, ptr %this.addr, align 8
  %this1 = load ptr, ptr %this.addr, align 8
  %_M_owns = getelementptr inbounds %"class.std::shared_lock", ptr %this1, i32 0, i32 1
  %0 = load i8, ptr %_M_owns, align 8
  %tobool = trunc i8 %0 to i1
  br i1 %tobool, label %if.then, label %if.end

if.then:                                          ; preds = %entry
  %_M_pm = getelementptr inbounds %"class.std::shared_lock", ptr %this1, i32 0, i32 0
  %1 = load ptr, ptr %_M_pm, align 8
  invoke void @_ZN5folly15SharedMutexImplILb0EvSt6atomicNS_24SharedMutexPolicyDefaultEE13unlock_sharedEv(ptr noundef nonnull align 4 dereferenceable(4) %1)
          to label %invoke.cont unwind label %terminate.lpad

invoke.cont:                                      ; preds = %if.then
  br label %if.end

if.end:                                           ; preds = %invoke.cont, %entry
  ret void

terminate.lpad:                                   ; preds = %if.then
  %2 = landingpad { ptr, i32 }
          catch ptr null
  %3 = extractvalue { ptr, i32 } %2, 0
  call void @__clang_call_terminate(ptr %3) #13
  unreachable
}

declare void @_ZN5folly15SharedMutexImplILb0EvSt6atomicNS_24SharedMutexPolicyDefaultEE13unlock_sharedEv(ptr noundef nonnull align 4 dereferenceable(4)) #3

; Function Attrs: mustprogress nounwind uwtable
define linkonce_odr void @_ZNSt12__shared_ptrIN8facebook5velox4exec14VectorFunctionELN9__gnu_cxx12_Lock_policyE2EED2Ev(ptr noundef nonnull align 8 dereferenceable(16) %this) unnamed_addr #1 comdat align 2 {
entry:
  %this.addr = alloca ptr, align 8
  store ptr %this, ptr %this.addr, align 8
  %this1 = load ptr, ptr %this.addr, align 8
  %_M_refcount = getelementptr inbounds %"class.std::__shared_ptr.15", ptr %this1, i32 0, i32 1
  call void @_ZNSt14__shared_countILN9__gnu_cxx12_Lock_policyE2EED2Ev(ptr noundef nonnull align 8 dereferenceable(8) %_M_refcount) #12
  ret void
}

; Function Attrs: mustprogress nounwind uwtable
define linkonce_odr void @_ZN8facebook5velox4exec25FunctionCallToSpecialFormD2Ev(ptr noundef nonnull align 8 dereferenceable(8) %this) unnamed_addr #1 comdat align 2 {
entry:
  %this.addr = alloca ptr, align 8
  store ptr %this, ptr %this.addr, align 8
  ret void
}

; Function Attrs: mustprogress nounwind uwtable
define linkonce_odr void @_ZNSt15__new_allocatorISt10shared_ptrIKN8facebook5velox4TypeEEEC2Ev(ptr noundef nonnull align 1 dereferenceable(1) %this) unnamed_addr #1 comdat align 2 {
entry:
  %this.addr = alloca ptr, align 8
  store ptr %this, ptr %this.addr, align 8
  ret void
}

; Function Attrs: mustprogress nounwind uwtable
define linkonce_odr void @_ZNSt15__new_allocatorISt10shared_ptrIKN8facebook5velox4TypeEEED2Ev(ptr noundef nonnull align 1 dereferenceable(1) %this) unnamed_addr #1 comdat align 2 {
entry:
  %this.addr = alloca ptr, align 8
  store ptr %this, ptr %this.addr, align 8
  ret void
}

; Function Attrs: mustprogress nounwind uwtable
define linkonce_odr void @_ZNSt15__new_allocatorINSt7__cxx1112basic_stringIcSt11char_traitsIcESaIcEEEEC2Ev(ptr noundef nonnull align 1 dereferenceable(1) %this) unnamed_addr #1 comdat align 2 {
entry:
  %this.addr = alloca ptr, align 8
  store ptr %this, ptr %this.addr, align 8
  ret void
}

; Function Attrs: mustprogress nounwind uwtable
define linkonce_odr void @_ZNSt15__new_allocatorINSt7__cxx1112basic_stringIcSt11char_traitsIcESaIcEEEED2Ev(ptr noundef nonnull align 1 dereferenceable(1) %this) unnamed_addr #1 comdat align 2 {
entry:
  %this.addr = alloca ptr, align 8
  store ptr %this, ptr %this.addr, align 8
  ret void
}

; Function Attrs: mustprogress uwtable
define linkonce_odr void @_ZSt8_DestroyIPSt10shared_ptrIKN8facebook5velox4TypeEES5_EvT_S7_RSaIT0_E(ptr noundef %__first, ptr noundef %__last, ptr noundef nonnull align 1 dereferenceable(1) %0) #0 comdat {
entry:
  %__first.addr = alloca ptr, align 8
  %__last.addr = alloca ptr, align 8
  %.addr = alloca ptr, align 8
  store ptr %__first, ptr %__first.addr, align 8
  store ptr %__last, ptr %__last.addr, align 8
  store ptr %0, ptr %.addr, align 8
  %1 = load ptr, ptr %__first.addr, align 8
  %2 = load ptr, ptr %__last.addr, align 8
  call void @_ZSt8_DestroyIPSt10shared_ptrIKN8facebook5velox4TypeEEEvT_S7_(ptr noundef %1, ptr noundef %2)
  ret void
}

; Function Attrs: mustprogress nounwind uwtable
define linkonce_odr noundef nonnull align 1 dereferenceable(1) ptr @_ZNSt12_Vector_baseISt10shared_ptrIKN8facebook5velox4TypeEESaIS5_EE19_M_get_Tp_allocatorEv(ptr noundef nonnull align 8 dereferenceable(24) %this) #1 comdat align 2 {
entry:
  %this.addr = alloca ptr, align 8
  store ptr %this, ptr %this.addr, align 8
  %this1 = load ptr, ptr %this.addr, align 8
  %_M_impl = getelementptr inbounds %"struct.std::_Vector_base", ptr %this1, i32 0, i32 0
  ret ptr %_M_impl
}

; Function Attrs: mustprogress nounwind uwtable
define linkonce_odr void @_ZNSt12_Vector_baseISt10shared_ptrIKN8facebook5velox4TypeEESaIS5_EED2Ev(ptr noundef nonnull align 8 dereferenceable(24) %this) unnamed_addr #1 comdat align 2 personality ptr @__gxx_personality_v0 {
entry:
  %this.addr = alloca ptr, align 8
  store ptr %this, ptr %this.addr, align 8
  %this1 = load ptr, ptr %this.addr, align 8
  %_M_impl = getelementptr inbounds %"struct.std::_Vector_base", ptr %this1, i32 0, i32 0
  %_M_start = getelementptr inbounds %"struct.std::_Vector_base<std::shared_ptr<const facebook::velox::Type>, std::allocator<std::shared_ptr<const facebook::velox::Type>>>::_Vector_impl_data", ptr %_M_impl, i32 0, i32 0
  %0 = load ptr, ptr %_M_start, align 8
  %_M_impl2 = getelementptr inbounds %"struct.std::_Vector_base", ptr %this1, i32 0, i32 0
  %_M_end_of_storage = getelementptr inbounds %"struct.std::_Vector_base<std::shared_ptr<const facebook::velox::Type>, std::allocator<std::shared_ptr<const facebook::velox::Type>>>::_Vector_impl_data", ptr %_M_impl2, i32 0, i32 2
  %1 = load ptr, ptr %_M_end_of_storage, align 8
  %_M_impl3 = getelementptr inbounds %"struct.std::_Vector_base", ptr %this1, i32 0, i32 0
  %_M_start4 = getelementptr inbounds %"struct.std::_Vector_base<std::shared_ptr<const facebook::velox::Type>, std::allocator<std::shared_ptr<const facebook::velox::Type>>>::_Vector_impl_data", ptr %_M_impl3, i32 0, i32 0
  %2 = load ptr, ptr %_M_start4, align 8
  %sub.ptr.lhs.cast = ptrtoint ptr %1 to i64
  %sub.ptr.rhs.cast = ptrtoint ptr %2 to i64
  %sub.ptr.sub = sub i64 %sub.ptr.lhs.cast, %sub.ptr.rhs.cast
  %sub.ptr.div = sdiv exact i64 %sub.ptr.sub, 16
  invoke void @_ZNSt12_Vector_baseISt10shared_ptrIKN8facebook5velox4TypeEESaIS5_EE13_M_deallocateEPS5_m(ptr noundef nonnull align 8 dereferenceable(24) %this1, ptr noundef %0, i64 noundef %sub.ptr.div)
          to label %invoke.cont unwind label %terminate.lpad

invoke.cont:                                      ; preds = %entry
  %_M_impl5 = getelementptr inbounds %"struct.std::_Vector_base", ptr %this1, i32 0, i32 0
  call void @_ZNSt12_Vector_baseISt10shared_ptrIKN8facebook5velox4TypeEESaIS5_EE12_Vector_implD2Ev(ptr noundef nonnull align 8 dereferenceable(24) %_M_impl5) #12
  ret void

terminate.lpad:                                   ; preds = %entry
  %3 = landingpad { ptr, i32 }
          catch ptr null
  %4 = extractvalue { ptr, i32 } %3, 0
  call void @__clang_call_terminate(ptr %4) #13
  unreachable
}

; Function Attrs: mustprogress uwtable
define linkonce_odr void @_ZSt8_DestroyIPSt10shared_ptrIKN8facebook5velox4TypeEEEvT_S7_(ptr noundef %__first, ptr noundef %__last) #0 comdat {
entry:
  %__first.addr = alloca ptr, align 8
  %__last.addr = alloca ptr, align 8
  store ptr %__first, ptr %__first.addr, align 8
  store ptr %__last, ptr %__last.addr, align 8
  %0 = load ptr, ptr %__first.addr, align 8
  %1 = load ptr, ptr %__last.addr, align 8
  call void @_ZNSt12_Destroy_auxILb0EE9__destroyIPSt10shared_ptrIKN8facebook5velox4TypeEEEEvT_S9_(ptr noundef %0, ptr noundef %1)
  ret void
}

; Function Attrs: mustprogress uwtable
define linkonce_odr void @_ZNSt12_Destroy_auxILb0EE9__destroyIPSt10shared_ptrIKN8facebook5velox4TypeEEEEvT_S9_(ptr noundef %__first, ptr noundef %__last) #0 comdat align 2 {
entry:
  %__first.addr = alloca ptr, align 8
  %__last.addr = alloca ptr, align 8
  store ptr %__first, ptr %__first.addr, align 8
  store ptr %__last, ptr %__last.addr, align 8
  br label %for.cond

for.cond:                                         ; preds = %for.inc, %entry
  %0 = load ptr, ptr %__first.addr, align 8
  %1 = load ptr, ptr %__last.addr, align 8
  %cmp = icmp ne ptr %0, %1
  br i1 %cmp, label %for.body, label %for.end

for.body:                                         ; preds = %for.cond
  %2 = load ptr, ptr %__first.addr, align 8
  call void @_ZSt8_DestroyISt10shared_ptrIKN8facebook5velox4TypeEEEvPT_(ptr noundef %2)
  br label %for.inc

for.inc:                                          ; preds = %for.body
  %3 = load ptr, ptr %__first.addr, align 8
  %incdec.ptr = getelementptr inbounds %"class.std::shared_ptr", ptr %3, i32 1
  store ptr %incdec.ptr, ptr %__first.addr, align 8
  br label %for.cond, !llvm.loop !15

for.end:                                          ; preds = %for.cond
  ret void
}

; Function Attrs: mustprogress nounwind uwtable
define linkonce_odr void @_ZSt8_DestroyISt10shared_ptrIKN8facebook5velox4TypeEEEvPT_(ptr noundef %__pointer) #1 comdat {
entry:
  %__pointer.addr = alloca ptr, align 8
  store ptr %__pointer, ptr %__pointer.addr, align 8
  %0 = load ptr, ptr %__pointer.addr, align 8
  call void @_ZNSt10shared_ptrIKN8facebook5velox4TypeEED2Ev(ptr noundef nonnull align 8 dereferenceable(16) %0) #12
  ret void
}

; Function Attrs: mustprogress uwtable
define linkonce_odr void @_ZNSt12_Vector_baseISt10shared_ptrIKN8facebook5velox4TypeEESaIS5_EE13_M_deallocateEPS5_m(ptr noundef nonnull align 8 dereferenceable(24) %this, ptr noundef %__p, i64 noundef %__n) #0 comdat align 2 {
entry:
  %this.addr = alloca ptr, align 8
  %__p.addr = alloca ptr, align 8
  %__n.addr = alloca i64, align 8
  store ptr %this, ptr %this.addr, align 8
  store ptr %__p, ptr %__p.addr, align 8
  store i64 %__n, ptr %__n.addr, align 8
  %this1 = load ptr, ptr %this.addr, align 8
  %0 = load ptr, ptr %__p.addr, align 8
  %tobool = icmp ne ptr %0, null
  br i1 %tobool, label %if.then, label %if.end

if.then:                                          ; preds = %entry
  %_M_impl = getelementptr inbounds %"struct.std::_Vector_base", ptr %this1, i32 0, i32 0
  %1 = load ptr, ptr %__p.addr, align 8
  %2 = load i64, ptr %__n.addr, align 8
  call void @_ZNSt16allocator_traitsISaISt10shared_ptrIKN8facebook5velox4TypeEEEE10deallocateERS6_PS5_m(ptr noundef nonnull align 1 dereferenceable(1) %_M_impl, ptr noundef %1, i64 noundef %2)
  br label %if.end

if.end:                                           ; preds = %if.then, %entry
  ret void
}

; Function Attrs: mustprogress nounwind uwtable
define linkonce_odr void @_ZNSt12_Vector_baseISt10shared_ptrIKN8facebook5velox4TypeEESaIS5_EE12_Vector_implD2Ev(ptr noundef nonnull align 8 dereferenceable(24) %this) unnamed_addr #1 comdat align 2 {
entry:
  %this.addr = alloca ptr, align 8
  store ptr %this, ptr %this.addr, align 8
  %this1 = load ptr, ptr %this.addr, align 8
  call void @_ZNSaISt10shared_ptrIKN8facebook5velox4TypeEEED2Ev(ptr noundef nonnull align 1 dereferenceable(1) %this1) #12
  ret void
}

; Function Attrs: mustprogress uwtable
define linkonce_odr void @_ZNSt16allocator_traitsISaISt10shared_ptrIKN8facebook5velox4TypeEEEE10deallocateERS6_PS5_m(ptr noundef nonnull align 1 dereferenceable(1) %__a, ptr noundef %__p, i64 noundef %__n) #0 comdat align 2 {
entry:
  %__a.addr = alloca ptr, align 8
  %__p.addr = alloca ptr, align 8
  %__n.addr = alloca i64, align 8
  store ptr %__a, ptr %__a.addr, align 8
  store ptr %__p, ptr %__p.addr, align 8
  store i64 %__n, ptr %__n.addr, align 8
  %0 = load ptr, ptr %__a.addr, align 8
  %1 = load ptr, ptr %__p.addr, align 8
  %2 = load i64, ptr %__n.addr, align 8
  call void @_ZNSt15__new_allocatorISt10shared_ptrIKN8facebook5velox4TypeEEE10deallocateEPS5_m(ptr noundef nonnull align 1 dereferenceable(1) %0, ptr noundef %1, i64 noundef %2)
  ret void
}

; Function Attrs: mustprogress nounwind uwtable
define linkonce_odr void @_ZNSt15__new_allocatorISt10shared_ptrIKN8facebook5velox4TypeEEE10deallocateEPS5_m(ptr noundef nonnull align 1 dereferenceable(1) %this, ptr noundef %__p, i64 noundef %__n) #1 comdat align 2 {
entry:
  %this.addr = alloca ptr, align 8
  %__p.addr = alloca ptr, align 8
  %__n.addr = alloca i64, align 8
  store ptr %this, ptr %this.addr, align 8
  store ptr %__p, ptr %__p.addr, align 8
  store i64 %__n, ptr %__n.addr, align 8
  %0 = load ptr, ptr %__p.addr, align 8
  call void @_ZdlPv(ptr noundef %0) #14
  ret void
}

declare void @_ZN3fmt2v87vformatB5cxx11ENS0_17basic_string_viewIcEENS0_17basic_format_argsINS0_20basic_format_contextINS0_8appenderEcEEEE(ptr sret(%"class.std::__cxx11::basic_string") align 8, ptr, i64, i64, ptr) #3

; Function Attrs: mustprogress uwtable
define linkonce_odr { i64, i64 } @_ZN3fmt2v816make_format_argsINS0_20basic_format_contextINS0_8appenderEcEEJRiEEENS0_16format_arg_storeIT_JDpNSt9remove_cvINSt16remove_referenceIT0_E4typeEE4typeEEEEDpOSA_(ptr noundef nonnull align 4 dereferenceable(4) %args) #0 comdat {
entry:
  %this.addr.i11 = alloca ptr, align 8
  %val.addr.i12 = alloca i32, align 4
  %this.addr.i8 = alloca ptr, align 8
  %val.addr.i9 = alloca i32, align 4
  %this.addr.i6 = alloca ptr, align 8
  %.addr.i = alloca ptr, align 8
  %.addr1.i = alloca i32, align 4
  %.addr2.i = alloca i32, align 4
  %.addr3.i = alloca ptr, align 8
  %this.addr.i4 = alloca ptr, align 8
  %init.addr.i = alloca ptr, align 8
  %retval.i = alloca %"class.fmt::v8::detail::value", align 16
  %val.addr.i = alloca ptr, align 8
  %arg.i = alloca ptr, align 8
  %ref.tmp.i2 = alloca i32, align 4
  %ref.tmp1.i = alloca %"struct.fmt::v8::detail::arg_mapper", align 1
  %formattable_char.i = alloca i8, align 1
  %formattable_const.i = alloca i8, align 1
  %formattable_pointer.i = alloca i8, align 1
  %formattable.i = alloca i8, align 1
  %this.addr.i = alloca ptr, align 8
  %args.addr.i = alloca ptr, align 8
  %ref.tmp.i = alloca %"class.fmt::v8::detail::value", align 16
  %retval = alloca %"class.fmt::v8::format_arg_store", align 16
  %args.addr = alloca ptr, align 8
  store ptr %args, ptr %args.addr, align 8
  %0 = load ptr, ptr %args.addr, align 8
  store ptr %retval, ptr %this.addr.i, align 8
  store ptr %0, ptr %args.addr.i, align 8
  %this1.i = load ptr, ptr %this.addr.i, align 8
  %1 = load ptr, ptr %args.addr.i, align 8
  store ptr %1, ptr %val.addr.i, align 8
  %2 = load ptr, ptr %val.addr.i, align 8
  %3 = load i32, ptr %2, align 4
  store ptr %ref.tmp1.i, ptr %this.addr.i8, align 8
  store i32 %3, ptr %val.addr.i9, align 4
  %4 = load i32, ptr %val.addr.i9, align 4
  store i32 %4, ptr %ref.tmp.i2, align 4
  store ptr %ref.tmp.i2, ptr %arg.i, align 8
  store i8 1, ptr %formattable_char.i, align 1
  store i8 1, ptr %formattable_const.i, align 1
  store i8 1, ptr %formattable_pointer.i, align 1
  store i8 1, ptr %formattable.i, align 1
  %5 = load ptr, ptr %arg.i, align 8
  %6 = load i32, ptr %5, align 4
  store ptr %retval.i, ptr %this.addr.i11, align 8
  store i32 %6, ptr %val.addr.i12, align 4
  %this1.i13 = load ptr, ptr %this.addr.i11, align 8
  %7 = load i32, ptr %val.addr.i12, align 4
  store i32 %7, ptr %this1.i13, align 16
  %8 = load { i64, i64 }, ptr %retval.i, align 16
  %9 = extractvalue { i64, i64 } %8, 0
  store i64 %9, ptr %ref.tmp.i, align 16
  %10 = getelementptr inbounds { i64, i64 }, ptr %ref.tmp.i, i32 0, i32 1
  %11 = extractvalue { i64, i64 } %8, 1
  store i64 %11, ptr %10, align 8
  store ptr %this1.i, ptr %this.addr.i4, align 8
  store ptr %ref.tmp.i, ptr %init.addr.i, align 8
  %this1.i5 = load ptr, ptr %this.addr.i4, align 8
  %12 = load ptr, ptr %init.addr.i, align 8
  call void @llvm.memcpy.p0.p0.i64(ptr align 16 %this1.i5, ptr align 16 %12, i64 16, i1 false)
  store ptr %this1.i, ptr %this.addr.i6, align 8
  %13 = load ptr, ptr %args.addr.i, align 8
  store ptr null, ptr %.addr.i, align 8
  store i32 0, ptr %.addr1.i, align 4
  store i32 0, ptr %.addr2.i, align 4
  store ptr %13, ptr %.addr3.i, align 8
  %coerce.dive = getelementptr inbounds %"class.fmt::v8::format_arg_store", ptr %retval, i32 0, i32 0
  %coerce.dive1 = getelementptr inbounds %"struct.fmt::v8::detail::arg_data", ptr %coerce.dive, i32 0, i32 0
  %14 = load { i64, i64 }, ptr %coerce.dive1, align 16
  ret { i64, i64 } %14
}

; Function Attrs: nocallback nofree nounwind willreturn memory(argmem: readwrite)
declare void @llvm.memcpy.p0.p0.i64(ptr noalias nocapture writeonly, ptr noalias nocapture readonly, i64, i1 immarg) #9

; Function Attrs: mustprogress nounwind uwtable
define linkonce_odr void @_ZNSt12__shared_ptrIKN8facebook5velox4TypeELN9__gnu_cxx12_Lock_policyE2EEC2IKNS1_7RowTypeEvEEOS_IT_LS5_2EE(ptr noundef nonnull align 8 dereferenceable(16) %this, ptr noundef nonnull align 8 dereferenceable(16) %__r) unnamed_addr #1 comdat align 2 {
entry:
  %this.addr = alloca ptr, align 8
  %__r.addr = alloca ptr, align 8
  store ptr %this, ptr %this.addr, align 8
  store ptr %__r, ptr %__r.addr, align 8
  %this1 = load ptr, ptr %this.addr, align 8
  %_M_ptr = getelementptr inbounds %"class.std::__shared_ptr", ptr %this1, i32 0, i32 0
  %0 = load ptr, ptr %__r.addr, align 8
  %_M_ptr2 = getelementptr inbounds %"class.std::__shared_ptr.9", ptr %0, i32 0, i32 0
  %1 = load ptr, ptr %_M_ptr2, align 8
  store ptr %1, ptr %_M_ptr, align 8
  %_M_refcount = getelementptr inbounds %"class.std::__shared_ptr", ptr %this1, i32 0, i32 1
  call void @_ZNSt14__shared_countILN9__gnu_cxx12_Lock_policyE2EEC2Ev(ptr noundef nonnull align 8 dereferenceable(8) %_M_refcount) #12
  %_M_refcount3 = getelementptr inbounds %"class.std::__shared_ptr", ptr %this1, i32 0, i32 1
  %2 = load ptr, ptr %__r.addr, align 8
  %_M_refcount4 = getelementptr inbounds %"class.std::__shared_ptr.9", ptr %2, i32 0, i32 1
  call void @_ZNSt14__shared_countILN9__gnu_cxx12_Lock_policyE2EE7_M_swapERS2_(ptr noundef nonnull align 8 dereferenceable(8) %_M_refcount3, ptr noundef nonnull align 8 dereferenceable(8) %_M_refcount4) #12
  %3 = load ptr, ptr %__r.addr, align 8
  %_M_ptr5 = getelementptr inbounds %"class.std::__shared_ptr.9", ptr %3, i32 0, i32 0
  store ptr null, ptr %_M_ptr5, align 8
  ret void
}

; Function Attrs: mustprogress nounwind uwtable
define linkonce_odr void @_ZNSt14__shared_countILN9__gnu_cxx12_Lock_policyE2EEC2Ev(ptr noundef nonnull align 8 dereferenceable(8) %this) unnamed_addr #1 comdat align 2 {
entry:
  %this.addr = alloca ptr, align 8
  store ptr %this, ptr %this.addr, align 8
  %this1 = load ptr, ptr %this.addr, align 8
  %_M_pi = getelementptr inbounds %"class.std::__shared_count", ptr %this1, i32 0, i32 0
  store ptr null, ptr %_M_pi, align 8
  ret void
}

; Function Attrs: mustprogress nounwind uwtable
define linkonce_odr void @_ZNSt14__shared_countILN9__gnu_cxx12_Lock_policyE2EE7_M_swapERS2_(ptr noundef nonnull align 8 dereferenceable(8) %this, ptr noundef nonnull align 8 dereferenceable(8) %__r) #1 comdat align 2 {
entry:
  %this.addr = alloca ptr, align 8
  %__r.addr = alloca ptr, align 8
  %__tmp = alloca ptr, align 8
  store ptr %this, ptr %this.addr, align 8
  store ptr %__r, ptr %__r.addr, align 8
  %this1 = load ptr, ptr %this.addr, align 8
  %0 = load ptr, ptr %__r.addr, align 8
  %_M_pi = getelementptr inbounds %"class.std::__shared_count", ptr %0, i32 0, i32 0
  %1 = load ptr, ptr %_M_pi, align 8
  store ptr %1, ptr %__tmp, align 8
  %_M_pi2 = getelementptr inbounds %"class.std::__shared_count", ptr %this1, i32 0, i32 0
  %2 = load ptr, ptr %_M_pi2, align 8
  %3 = load ptr, ptr %__r.addr, align 8
  %_M_pi3 = getelementptr inbounds %"class.std::__shared_count", ptr %3, i32 0, i32 0
  store ptr %2, ptr %_M_pi3, align 8
  %4 = load ptr, ptr %__tmp, align 8
  %_M_pi4 = getelementptr inbounds %"class.std::__shared_count", ptr %this1, i32 0, i32 0
  store ptr %4, ptr %_M_pi4, align 8
  ret void
}

; Function Attrs: mustprogress uwtable
define linkonce_odr void @_ZSt8_DestroyIPNSt7__cxx1112basic_stringIcSt11char_traitsIcESaIcEEES5_EvT_S7_RSaIT0_E(ptr noundef %__first, ptr noundef %__last, ptr noundef nonnull align 1 dereferenceable(1) %0) #0 comdat {
entry:
  %__first.addr = alloca ptr, align 8
  %__last.addr = alloca ptr, align 8
  %.addr = alloca ptr, align 8
  store ptr %__first, ptr %__first.addr, align 8
  store ptr %__last, ptr %__last.addr, align 8
  store ptr %0, ptr %.addr, align 8
  %1 = load ptr, ptr %__first.addr, align 8
  %2 = load ptr, ptr %__last.addr, align 8
  call void @_ZSt8_DestroyIPNSt7__cxx1112basic_stringIcSt11char_traitsIcESaIcEEEEvT_S7_(ptr noundef %1, ptr noundef %2)
  ret void
}

; Function Attrs: mustprogress nounwind uwtable
define linkonce_odr noundef nonnull align 1 dereferenceable(1) ptr @_ZNSt12_Vector_baseINSt7__cxx1112basic_stringIcSt11char_traitsIcESaIcEEESaIS5_EE19_M_get_Tp_allocatorEv(ptr noundef nonnull align 8 dereferenceable(24) %this) #1 comdat align 2 {
entry:
  %this.addr = alloca ptr, align 8
  store ptr %this, ptr %this.addr, align 8
  %this1 = load ptr, ptr %this.addr, align 8
  %_M_impl = getelementptr inbounds %"struct.std::_Vector_base.1", ptr %this1, i32 0, i32 0
  ret ptr %_M_impl
}

; Function Attrs: mustprogress nounwind uwtable
define linkonce_odr void @_ZNSt12_Vector_baseINSt7__cxx1112basic_stringIcSt11char_traitsIcESaIcEEESaIS5_EED2Ev(ptr noundef nonnull align 8 dereferenceable(24) %this) unnamed_addr #1 comdat align 2 personality ptr @__gxx_personality_v0 {
entry:
  %this.addr = alloca ptr, align 8
  store ptr %this, ptr %this.addr, align 8
  %this1 = load ptr, ptr %this.addr, align 8
  %_M_impl = getelementptr inbounds %"struct.std::_Vector_base.1", ptr %this1, i32 0, i32 0
  %_M_start = getelementptr inbounds %"struct.std::_Vector_base<std::__cxx11::basic_string<char>, std::allocator<std::__cxx11::basic_string<char>>>::_Vector_impl_data", ptr %_M_impl, i32 0, i32 0
  %0 = load ptr, ptr %_M_start, align 8
  %_M_impl2 = getelementptr inbounds %"struct.std::_Vector_base.1", ptr %this1, i32 0, i32 0
  %_M_end_of_storage = getelementptr inbounds %"struct.std::_Vector_base<std::__cxx11::basic_string<char>, std::allocator<std::__cxx11::basic_string<char>>>::_Vector_impl_data", ptr %_M_impl2, i32 0, i32 2
  %1 = load ptr, ptr %_M_end_of_storage, align 8
  %_M_impl3 = getelementptr inbounds %"struct.std::_Vector_base.1", ptr %this1, i32 0, i32 0
  %_M_start4 = getelementptr inbounds %"struct.std::_Vector_base<std::__cxx11::basic_string<char>, std::allocator<std::__cxx11::basic_string<char>>>::_Vector_impl_data", ptr %_M_impl3, i32 0, i32 0
  %2 = load ptr, ptr %_M_start4, align 8
  %sub.ptr.lhs.cast = ptrtoint ptr %1 to i64
  %sub.ptr.rhs.cast = ptrtoint ptr %2 to i64
  %sub.ptr.sub = sub i64 %sub.ptr.lhs.cast, %sub.ptr.rhs.cast
  %sub.ptr.div = sdiv exact i64 %sub.ptr.sub, 32
  invoke void @_ZNSt12_Vector_baseINSt7__cxx1112basic_stringIcSt11char_traitsIcESaIcEEESaIS5_EE13_M_deallocateEPS5_m(ptr noundef nonnull align 8 dereferenceable(24) %this1, ptr noundef %0, i64 noundef %sub.ptr.div)
          to label %invoke.cont unwind label %terminate.lpad

invoke.cont:                                      ; preds = %entry
  %_M_impl5 = getelementptr inbounds %"struct.std::_Vector_base.1", ptr %this1, i32 0, i32 0
  call void @_ZNSt12_Vector_baseINSt7__cxx1112basic_stringIcSt11char_traitsIcESaIcEEESaIS5_EE12_Vector_implD2Ev(ptr noundef nonnull align 8 dereferenceable(24) %_M_impl5) #12
  ret void

terminate.lpad:                                   ; preds = %entry
  %3 = landingpad { ptr, i32 }
          catch ptr null
  %4 = extractvalue { ptr, i32 } %3, 0
  call void @__clang_call_terminate(ptr %4) #13
  unreachable
}

; Function Attrs: mustprogress uwtable
define linkonce_odr void @_ZSt8_DestroyIPNSt7__cxx1112basic_stringIcSt11char_traitsIcESaIcEEEEvT_S7_(ptr noundef %__first, ptr noundef %__last) #0 comdat {
entry:
  %__first.addr = alloca ptr, align 8
  %__last.addr = alloca ptr, align 8
  store ptr %__first, ptr %__first.addr, align 8
  store ptr %__last, ptr %__last.addr, align 8
  %0 = load ptr, ptr %__first.addr, align 8
  %1 = load ptr, ptr %__last.addr, align 8
  call void @_ZNSt12_Destroy_auxILb0EE9__destroyIPNSt7__cxx1112basic_stringIcSt11char_traitsIcESaIcEEEEEvT_S9_(ptr noundef %0, ptr noundef %1)
  ret void
}

; Function Attrs: mustprogress uwtable
define linkonce_odr void @_ZNSt12_Destroy_auxILb0EE9__destroyIPNSt7__cxx1112basic_stringIcSt11char_traitsIcESaIcEEEEEvT_S9_(ptr noundef %__first, ptr noundef %__last) #0 comdat align 2 {
entry:
  %__first.addr = alloca ptr, align 8
  %__last.addr = alloca ptr, align 8
  store ptr %__first, ptr %__first.addr, align 8
  store ptr %__last, ptr %__last.addr, align 8
  br label %for.cond

for.cond:                                         ; preds = %for.inc, %entry
  %0 = load ptr, ptr %__first.addr, align 8
  %1 = load ptr, ptr %__last.addr, align 8
  %cmp = icmp ne ptr %0, %1
  br i1 %cmp, label %for.body, label %for.end

for.body:                                         ; preds = %for.cond
  %2 = load ptr, ptr %__first.addr, align 8
  call void @_ZSt8_DestroyINSt7__cxx1112basic_stringIcSt11char_traitsIcESaIcEEEEvPT_(ptr noundef %2)
  br label %for.inc

for.inc:                                          ; preds = %for.body
  %3 = load ptr, ptr %__first.addr, align 8
  %incdec.ptr = getelementptr inbounds %"class.std::__cxx11::basic_string", ptr %3, i32 1
  store ptr %incdec.ptr, ptr %__first.addr, align 8
  br label %for.cond, !llvm.loop !16

for.end:                                          ; preds = %for.cond
  ret void
}

; Function Attrs: mustprogress nounwind uwtable
define linkonce_odr void @_ZSt8_DestroyINSt7__cxx1112basic_stringIcSt11char_traitsIcESaIcEEEEvPT_(ptr noundef %__pointer) #1 comdat {
entry:
  %__pointer.addr = alloca ptr, align 8
  store ptr %__pointer, ptr %__pointer.addr, align 8
  %0 = load ptr, ptr %__pointer.addr, align 8
  call void @_ZNSt7__cxx1112basic_stringIcSt11char_traitsIcESaIcEED1Ev(ptr noundef nonnull align 8 dereferenceable(32) %0) #12
  ret void
}

; Function Attrs: mustprogress uwtable
define linkonce_odr void @_ZNSt12_Vector_baseINSt7__cxx1112basic_stringIcSt11char_traitsIcESaIcEEESaIS5_EE13_M_deallocateEPS5_m(ptr noundef nonnull align 8 dereferenceable(24) %this, ptr noundef %__p, i64 noundef %__n) #0 comdat align 2 {
entry:
  %this.addr = alloca ptr, align 8
  %__p.addr = alloca ptr, align 8
  %__n.addr = alloca i64, align 8
  store ptr %this, ptr %this.addr, align 8
  store ptr %__p, ptr %__p.addr, align 8
  store i64 %__n, ptr %__n.addr, align 8
  %this1 = load ptr, ptr %this.addr, align 8
  %0 = load ptr, ptr %__p.addr, align 8
  %tobool = icmp ne ptr %0, null
  br i1 %tobool, label %if.then, label %if.end

if.then:                                          ; preds = %entry
  %_M_impl = getelementptr inbounds %"struct.std::_Vector_base.1", ptr %this1, i32 0, i32 0
  %1 = load ptr, ptr %__p.addr, align 8
  %2 = load i64, ptr %__n.addr, align 8
  call void @_ZNSt16allocator_traitsISaINSt7__cxx1112basic_stringIcSt11char_traitsIcESaIcEEEEE10deallocateERS6_PS5_m(ptr noundef nonnull align 1 dereferenceable(1) %_M_impl, ptr noundef %1, i64 noundef %2)
  br label %if.end

if.end:                                           ; preds = %if.then, %entry
  ret void
}

; Function Attrs: mustprogress nounwind uwtable
define linkonce_odr void @_ZNSt12_Vector_baseINSt7__cxx1112basic_stringIcSt11char_traitsIcESaIcEEESaIS5_EE12_Vector_implD2Ev(ptr noundef nonnull align 8 dereferenceable(24) %this) unnamed_addr #1 comdat align 2 {
entry:
  %this.addr = alloca ptr, align 8
  store ptr %this, ptr %this.addr, align 8
  %this1 = load ptr, ptr %this.addr, align 8
  call void @_ZNSaINSt7__cxx1112basic_stringIcSt11char_traitsIcESaIcEEEED2Ev(ptr noundef nonnull align 1 dereferenceable(1) %this1) #12
  ret void
}

; Function Attrs: mustprogress uwtable
define linkonce_odr void @_ZNSt16allocator_traitsISaINSt7__cxx1112basic_stringIcSt11char_traitsIcESaIcEEEEE10deallocateERS6_PS5_m(ptr noundef nonnull align 1 dereferenceable(1) %__a, ptr noundef %__p, i64 noundef %__n) #0 comdat align 2 {
entry:
  %__a.addr = alloca ptr, align 8
  %__p.addr = alloca ptr, align 8
  %__n.addr = alloca i64, align 8
  store ptr %__a, ptr %__a.addr, align 8
  store ptr %__p, ptr %__p.addr, align 8
  store i64 %__n, ptr %__n.addr, align 8
  %0 = load ptr, ptr %__a.addr, align 8
  %1 = load ptr, ptr %__p.addr, align 8
  %2 = load i64, ptr %__n.addr, align 8
  call void @_ZNSt15__new_allocatorINSt7__cxx1112basic_stringIcSt11char_traitsIcESaIcEEEE10deallocateEPS5_m(ptr noundef nonnull align 1 dereferenceable(1) %0, ptr noundef %1, i64 noundef %2)
  ret void
}

; Function Attrs: mustprogress nounwind uwtable
define linkonce_odr void @_ZNSt15__new_allocatorINSt7__cxx1112basic_stringIcSt11char_traitsIcESaIcEEEE10deallocateEPS5_m(ptr noundef nonnull align 1 dereferenceable(1) %this, ptr noundef %__p, i64 noundef %__n) #1 comdat align 2 {
entry:
  %this.addr = alloca ptr, align 8
  %__p.addr = alloca ptr, align 8
  %__n.addr = alloca i64, align 8
  store ptr %this, ptr %this.addr, align 8
  store ptr %__p, ptr %__p.addr, align 8
  store i64 %__n, ptr %__n.addr, align 8
  %0 = load ptr, ptr %__p.addr, align 8
  call void @_ZdlPv(ptr noundef %0) #14
  ret void
}

; Function Attrs: mustprogress uwtable
