target datalayout = "e-m:e-p270:32:32-p271:32:32-p272:64:64-i64:64-i128:128-f80:128-n8:16:32:64-S128"
target triple = "x86_64-unknown-linux-gnu"

%class.EASTLTest_Rand = type { i64 }
%"class.eastl::vector" = type { %"struct.eastl::VectorBase" }
%"struct.eastl::VectorBase" = type { ptr, ptr, %"class.eastl::compressed_pair" }
%"class.eastl::compressed_pair" = type { %"class.eastl::compressed_pair_imp" }
%"class.eastl::compressed_pair_imp" = type { ptr }
%"class.eastl::allocator" = type { i8 }
%"class.eastl::deque" = type { %"struct.eastl::DequeBase.base", [7 x i8] }
%"struct.eastl::DequeBase.base" = type <{ ptr, i64, %"struct.eastl::DequeIterator", %"struct.eastl::DequeIterator", %"class.eastl::allocator" }>
%"struct.eastl::DequeIterator" = type { ptr, ptr, ptr, ptr }
%"class.eastl::vector.0" = type { %"struct.eastl::VectorBase.1" }
%"struct.eastl::VectorBase.1" = type { ptr, ptr, %"class.eastl::compressed_pair.2" }
%"class.eastl::compressed_pair.2" = type { %"class.eastl::compressed_pair_imp.3" }
%"class.eastl::compressed_pair_imp.3" = type { ptr }
%struct.TestObject = type <{ i32, i8, [3 x i8], i64, i32, [4 x i8] }>
%"class.eastl::vector.4" = type { %"struct.eastl::VectorBase.5" }
%"struct.eastl::VectorBase.5" = type { ptr, ptr, %"class.eastl::compressed_pair.6" }
%"class.eastl::compressed_pair.6" = type { %"class.eastl::compressed_pair_imp.7" }
%"class.eastl::compressed_pair_imp.7" = type { ptr }
%struct.StableSortTestObj = type { i32, i64 }
%"class.eastl::vector.10" = type { %"struct.eastl::VectorBase.11" }
%"struct.eastl::VectorBase.11" = type { ptr, ptr, %"class.eastl::compressed_pair.12" }
%"class.eastl::compressed_pair.12" = type { %"class.eastl::compressed_pair_imp.13" }
%"class.eastl::compressed_pair_imp.13" = type { ptr }
%"class.eastl::vector.14" = type { %"struct.eastl::VectorBase.15" }
%"struct.eastl::VectorBase.15" = type { ptr, ptr, %"class.eastl::compressed_pair.16" }
%"class.eastl::compressed_pair.16" = type { %"class.eastl::compressed_pair_imp.17" }
%"class.eastl::compressed_pair_imp.17" = type { ptr }
%class.MallocAllocator = type { i32, i32, i64 }
%"struct.eastl::Internal::StatefulCompare" = type { i8 }
%"class.eastl::vector.18" = type { %"struct.eastl::VectorBase.19" }
%"struct.eastl::VectorBase.19" = type { ptr, ptr, %"class.eastl::compressed_pair.20" }
%"class.eastl::compressed_pair.20" = type { %"class.eastl::compressed_pair_imp.21" }
%"class.eastl::compressed_pair_imp.21" = type { ptr }
%"class.eastl::vector.22" = type { %"struct.eastl::VectorBase.23" }
%"struct.eastl::VectorBase.23" = type { ptr, ptr, %"class.eastl::compressed_pair.24" }
%"class.eastl::compressed_pair.24" = type { %"class.eastl::compressed_pair_imp.25" }
%"class.eastl::compressed_pair_imp.25" = type { ptr }
%"struct.eastl::Internal::TestObjectIndexCompare" = type { ptr }
%"class.eastl::vector.26" = type { %"struct.eastl::VectorBase.27" }
%"struct.eastl::VectorBase.27" = type { ptr, ptr, %"class.eastl::compressed_pair.28" }
%"class.eastl::compressed_pair.28" = type { %"class.eastl::compressed_pair_imp.29" }
%"class.eastl::compressed_pair_imp.29" = type { ptr }
%union.FloatInt32 = type { float }
%class.anon = type { ptr, ptr }
%"class.eastl::vector.30" = type { %"struct.eastl::VectorBase.31" }
%"struct.eastl::VectorBase.31" = type { ptr, ptr, %"class.eastl::compressed_pair.32" }
%"class.eastl::compressed_pair.32" = type { %"class.eastl::compressed_pair_imp.33" }
%"class.eastl::compressed_pair_imp.33" = type { ptr }
%"class.eastl::list" = type { %"class.eastl::ListBase" }
%"class.eastl::ListBase" = type { %"class.eastl::compressed_pair.34", i64 }
%"class.eastl::compressed_pair.34" = type { %"class.eastl::compressed_pair_imp.35" }
%"class.eastl::compressed_pair_imp.35" = type { %"struct.eastl::ListNodeBase" }
%"struct.eastl::ListNodeBase" = type { ptr, ptr }
%"struct.eastl::Internal::RadixSortElement" = type { i32, i16 }
%"struct.eastl::Internal::RadixSortElement.8" = type { i16, i16 }
%"struct.eastl::Internal::RadixSortElement.9" = type { i8, i16 }
%"struct.eastl::greater" = type { i8 }
%"struct.eastl::less" = type { i8 }
%"struct.eastl::DequeBase" = type <{ ptr, i64, %"struct.eastl::DequeIterator", %"struct.eastl::DequeIterator", %"class.eastl::allocator", [7 x i8] }>
%struct.StableSortCompareForStability = type { i8 }
%struct.StableSortCompare = type { i8 }
%"struct.eastl::Internal::tim_sort_run" = type { i64, i64 }
%"struct.eastl::hash_use_self" = type { i8 }
%"struct.eastl::DequeIterator.80" = type { ptr, ptr, ptr, ptr }
%"struct.eastl::Internal::TestObjectPtrCompare" = type { i8 }
%"struct.eastl::Internal::SafeFloatCompare" = type { i8 }
%"class.eastl::back_insert_iterator" = type { ptr }
%"struct.eastl::ListIterator" = type { ptr }
%class.anon.36 = type { i8 }
%class.anon.37 = type { i8 }
%"class.eastl::generic_iterator" = type { ptr }
%"struct.eastl::ListIterator.43" = type { ptr }
%class.anon.39 = type { i8 }
%class.anon.41 = type { i8 }
%"struct.eastl::ListNode" = type <{ %"struct.eastl::ListNodeBase", i16, [6 x i8] }>
%"class.eastl::generic_iterator.45" = type { ptr }
%"struct.eastl::less.48" = type { i8 }
%"class.eastl::generic_iterator.52" = type { ptr }
%"struct.eastl::less.54" = type { i8 }
%"class.eastl::generic_iterator.58" = type { ptr }
%"struct.eastl::Internal::extract_radix_key" = type { i8 }
%"struct.eastl::less.62" = type { i8 }
%"struct.eastl::Internal::extract_radix_key.63" = type { i8 }
%"struct.eastl::less.64" = type { i8 }
%"struct.eastl::Internal::extract_radix_key.65" = type { i8 }
%"struct.eastl::less.66" = type { i8 }
%"struct.eastl::Internal::identity_extract_radix_key" = type { i8 }
%"struct.eastl::less.67" = type { i8 }
%"struct.eastl::Internal::identity_extract_radix_key.68" = type { i8 }
%"struct.eastl::less.69" = type { i8 }
%"struct.eastl::Internal::identity_extract_radix_key.70" = type { i8 }
%"struct.eastl::less.71" = type { i8 }
%"class.eastl::generic_iterator.74" = type { ptr }
%"struct.eastl::Internal::IntArrayCompare" = type { i8 }
%"class.eastl::move_iterator" = type { %"struct.eastl::DequeIterator" }
%"class.eastl::generic_iterator.82" = type { ptr }
%"class.eastl::generic_iterator.85" = type { ptr }
%"class.eastl::generic_iterator.88" = type { ptr }
%"union.eastl::Internal::SafeFloatCompare::FloatInt32" = type { float }

$_ZN14EASTLTest_RandC2Em = comdat any

$_ZN5eastl9is_sortedIPiEEbT_S2_ = comdat any

$_ZN5eastl9is_sortedIPiNS_7greaterIiEEEEbT_S4_T0_ = comdat any

$_ZN5eastl15is_sorted_untilIPiEET_S2_S2_ = comdat any

$_ZN5eastl15is_sorted_untilIPiNS_4lessIiEEEET_S4_S4_T0_ = comdat any

$_ZN5eastl6vectorIlNS_9allocatorEEC2Ev = comdat any

$_ZN5eastl6vectorIlNS_9allocatorEE9push_backEOl = comdat any

$_ZN14EASTLTest_Rand9RandLimitEm = comdat any

$_ZN5eastl10accumulateIPllEET0_T_S3_S2_ = comdat any

$_ZN5eastl5beginINS_6vectorIlNS_9allocatorEEEEEDTcldtfp_5beginEERT_ = comdat any

$_ZN5eastl3endINS_6vectorIlNS_9allocatorEEEEEDTcldtfp_3endEERT_ = comdat any

$_ZN5eastl14random_shuffleIPlR14EASTLTest_RandEEvT_S4_OT0_ = comdat any

$_ZN5eastl6vectorIlNS_9allocatorEE5beginEv = comdat any

$_ZN5eastl6vectorIlNS_9allocatorEE3endEv = comdat any

$_ZN5eastl6vectorIlNS_9allocatorEEaSERKS2_ = comdat any

$_ZN5eastl11bubble_sortIPlEEvT_S2_ = comdat any

$_ZN5eastl9is_sortedIPlEEbT_S2_ = comdat any

$_ZN5eastl11shaker_sortIPlEEvT_S2_ = comdat any

$_ZN5eastl14insertion_sortIPlEEvT_S2_ = comdat any

$_ZN5eastl14selection_sortIPlEEvT_S2_ = comdat any

$_ZN5eastl10shell_sortIPlEEvT_S2_ = comdat any

$_ZN5eastl9comb_sortIPlEEvT_S2_ = comdat any

$_ZN5eastl9heap_sortIPlEEvT_S2_ = comdat any

$_ZN5eastl10merge_sortIPlNS_9allocatorEEEvT_S3_RT0_ = comdat any

$_ZN5eastl21get_default_allocatorEPKNS_9allocatorE = comdat any

$_ZNK5eastl6vectorIlNS_9allocatorEE4sizeEv = comdat any

$_ZN5eastl9allocatorC2EPKc = comdat any

$_ZN5eastl6vectorIlNS_9allocatorEEC2EmRKS1_ = comdat any

$_ZN5eastl17merge_sort_bufferIPllEEvT_S2_PT0_ = comdat any

$_ZN5eastl6vectorIlNS_9allocatorEE4dataEv = comdat any

$_ZN5eastl10quick_sortIPlEEvT_S2_ = comdat any

$_ZN5eastl6vectorIlNS_9allocatorEE6resizeEm = comdat any

$_ZN5eastl15tim_sort_bufferIPllEEvT_S2_PT0_ = comdat any

$_ZN5eastl6vectorIlNS_9allocatorEED2Ev = comdat any

$_ZN14EASTLTest_Rand4RandEv = comdat any

$_ZN5eastl5dequeIiNS_9allocatorELj64EEC2Ev = comdat any

$_ZN5eastl5dequeIiNS_9allocatorELj64EE9push_backEOi = comdat any

$_ZN5eastl14insertion_sortINS_13DequeIteratorIiPiRiLj64EEEEEvT_S5_ = comdat any

$_ZN5eastl5dequeIiNS_9allocatorELj64EE5beginEv = comdat any

$_ZN5eastl5dequeIiNS_9allocatorELj64EE3endEv = comdat any

$_ZN5eastl14insertion_sortINS_13DequeIteratorIiPiRiLj64EEENS_4lessIiEEEEvT_S7_T0_ = comdat any

$_ZN5eastl5dequeIiNS_9allocatorELj64EED2Ev = comdat any

$_ZN10TestObject5ResetEv = comdat any

$_ZN5eastl6vectorI10TestObjectNS_9allocatorEEC2Ev = comdat any

$_ZN5eastl6vectorI10TestObjectNS_9allocatorEE9push_backEOS1_ = comdat any

$_ZN10TestObjectC2Eib = comdat any

$_ZN10TestObjectD2Ev = comdat any

$_ZN5eastl14random_shuffleIP10TestObjectR14EASTLTest_RandEEvT_S5_OT0_ = comdat any

$_ZN5eastl6vectorI10TestObjectNS_9allocatorEE5beginEv = comdat any

$_ZN5eastl6vectorI10TestObjectNS_9allocatorEE3endEv = comdat any

$_ZN5eastl6vectorI10TestObjectNS_9allocatorEEaSERKS3_ = comdat any

$_ZN5eastl11bubble_sortIP10TestObjectEEvT_S3_ = comdat any

$_ZN5eastl9is_sortedIP10TestObjectEEbT_S3_ = comdat any

$_ZN5eastl11shaker_sortIP10TestObjectEEvT_S3_ = comdat any

$_ZN5eastl14insertion_sortIP10TestObjectEEvT_S3_ = comdat any

$_ZN5eastl14selection_sortIP10TestObjectEEvT_S3_ = comdat any

$_ZN5eastl10shell_sortIP10TestObjectEEvT_S3_ = comdat any

$_ZN5eastl9comb_sortIP10TestObjectEEvT_S3_ = comdat any

$_ZN5eastl9heap_sortIP10TestObjectEEvT_S3_ = comdat any

$_ZN5eastl10merge_sortIP10TestObjectNS_9allocatorEEEvT_S4_RT0_ = comdat any

$_ZN5eastl10quick_sortIP10TestObjectEEvT_S3_ = comdat any

$_ZNK5eastl6vectorI10TestObjectNS_9allocatorEE4sizeEv = comdat any

$_ZN5eastl6vectorI10TestObjectNS_9allocatorEEC2EmRKS2_ = comdat any

$_ZN5eastl15tim_sort_bufferIP10TestObjectS1_EEvT_S3_PT0_ = comdat any

$_ZN5eastl6vectorI10TestObjectNS_9allocatorEE4dataEv = comdat any

$_ZN5eastl6vectorI10TestObjectNS_9allocatorEED2Ev = comdat any

$_ZN5eastl4copyIPKiPiEET0_T_S5_S4_ = comdat any

$_ZN5eastl4sortIPiEEvT_S2_ = comdat any

$_ZN5eastl11nth_elementIPiEEvT_S2_S2_ = comdat any

$_ZN5eastl11nth_elementIPiNS_4lessIiEEEEvT_S4_S4_T0_ = comdat any

$_ZN5eastl10radix_sortIPNS_8Internal16RadixSortElementIjEENS1_17extract_radix_keyIS3_EELi8EEEvT_S7_S7_ = comdat any

$_ZN5eastl9is_sortedIPNS_8Internal16RadixSortElementIjEEEEbT_S5_ = comdat any

$_ZN5eastl10radix_sortIPNS_8Internal16RadixSortElementItEENS1_17extract_radix_keyIS3_EELi8EEEvT_S7_S7_ = comdat any

$_ZN5eastl9is_sortedIPNS_8Internal16RadixSortElementItEEEEbT_S5_ = comdat any

$_ZN5eastl10radix_sortIPNS_8Internal16RadixSortElementIhEENS1_17extract_radix_keyIS3_EELi8EEEvT_S7_S7_ = comdat any

$_ZN5eastl9is_sortedIPNS_8Internal16RadixSortElementIhEEEEbT_S5_ = comdat any

$_ZN5eastl10radix_sortIPjNS_8Internal26identity_extract_radix_keyIjEELi8EEEvT_S5_S5_ = comdat any

$_ZN5eastl5beginIjLm8EEEPT_RAT0__S1_ = comdat any

$_ZN5eastl3endIjLm8EEEPT_RAT0__S1_ = comdat any

$_ZN5eastl9is_sortedIPjEEbT_S2_ = comdat any

$_ZN5eastl5beginIjLm2EEEPT_RAT0__S1_ = comdat any

$_ZN5eastl3endIjLm2EEEPT_RAT0__S1_ = comdat any

$_ZN5eastl10radix_sortIPjNS_8Internal26identity_extract_radix_keyIjEELi1EEEvT_S5_S5_ = comdat any

$_ZN5eastl10radix_sortIPjNS_8Internal26identity_extract_radix_keyIjEELi3EEEvT_S5_S5_ = comdat any

$_ZN5eastl10radix_sortIPjNS_8Internal26identity_extract_radix_keyIjEELi6EEEvT_S5_S5_ = comdat any

$_ZN5eastl10radix_sortIPtNS_8Internal26identity_extract_radix_keyItEELi11EEEvT_S5_S5_ = comdat any

$_ZN5eastl5beginItLm8EEEPT_RAT0__S1_ = comdat any

$_ZN5eastl3endItLm8EEEPT_RAT0__S1_ = comdat any

$_ZN5eastl9is_sortedIPtEEbT_S2_ = comdat any

$_ZN5eastl10radix_sortIPhNS_8Internal26identity_extract_radix_keyIhEELi8EEEvT_S5_S5_ = comdat any

$_ZN5eastl5beginIhLm8EEEPT_RAT0__S1_ = comdat any

$_ZN5eastl3endIhLm8EEEPT_RAT0__S1_ = comdat any

$_ZN5eastl9is_sortedIPhEEbT_S2_ = comdat any

$_ZN5eastl6vectorIiNS_9allocatorEEC2EmRKS1_ = comdat any

$_ZN14EASTLTest_RandclEv = comdat any

$_ZN5eastl6vectorIiNS_9allocatorEEixEm = comdat any

$_ZN5eastl6vectorINS0_IiNS_9allocatorEEES1_EC2EmRKS1_ = comdat any

$_ZN5eastl11bucket_sortIPiNS_6vectorINS2_IiNS_9allocatorEEES3_EENS_13hash_use_selfIiEEEEvT_S8_RT0_T1_ = comdat any

$_ZN5eastl6vectorIiNS_9allocatorEE5beginEv = comdat any

$_ZN5eastl6vectorIiNS_9allocatorEE3endEv = comdat any

$_ZN5eastl6vectorINS0_IiNS_9allocatorEEES1_ED2Ev = comdat any

$_ZN5eastl6vectorIiNS_9allocatorEED2Ev = comdat any

$_ZN5eastl11stable_sortIPiEEvT_S2_ = comdat any

$_ZN5eastl11stable_sortIPiNS_4lessIiEEEEvT_S4_T0_ = comdat any

$_ZN15MallocAllocatorC2EPKc = comdat any

$_ZN5eastl11stable_sortIPi15MallocAllocatorNS_4lessIiEEEEvT_S5_RT0_T1_ = comdat any

$_ZN5eastl6vectorINS0_IiNS_9allocatorEEES1_EixEm = comdat any

$_ZN5eastl6vectorIiNS_9allocatorEE9push_backEOi = comdat any

$_ZN5eastl11stable_sortIPNS_6vectorIiNS_9allocatorEEENS_8Internal15IntArrayCompareEEEvT_S7_T0_ = comdat any

$_ZN5eastl6vectorINS0_IiNS_9allocatorEEES1_E5beginEv = comdat any

$_ZN5eastl6vectorINS0_IiNS_9allocatorEEES1_E3endEv = comdat any

$_ZN5eastl8Internal15StatefulCompareC2Ev = comdat any

$_ZN5eastl5dequeIiNS_9allocatorELj64EE9push_backERKi = comdat any

$_ZN5eastl14random_shuffleINS_13DequeIteratorIiPiRiLj64EEER14EASTLTest_RandEEvT_S7_OT0_ = comdat any

$_ZN5eastl8Internal15StatefulCompare5ResetEv = comdat any

$_ZN5eastl5dequeIiNS_9allocatorELj64EEaSERKS2_ = comdat any

$_ZN5eastl11bubble_sortINS_13DequeIteratorIiPiRiLj64EEERNS_8Internal15StatefulCompareEEEvT_S8_T0_ = comdat any

$_ZN5eastl11shaker_sortINS_13DequeIteratorIiPiRiLj64EEERNS_8Internal15StatefulCompareEEEvT_S8_T0_ = comdat any

$_ZN5eastl14insertion_sortINS_13DequeIteratorIiPiRiLj64EEERNS_8Internal15StatefulCompareEEEvT_S8_T0_ = comdat any

$_ZN5eastl14selection_sortINS_13DequeIteratorIiPiRiLj64EEERNS_8Internal15StatefulCompareEEEvT_S8_T0_ = comdat any

$_ZN5eastl10shell_sortINS_13DequeIteratorIiPiRiLj64EEERNS_8Internal15StatefulCompareEEEvT_S8_T0_ = comdat any

$_ZN5eastl9comb_sortINS_13DequeIteratorIiPiRiLj64EEERNS_8Internal15StatefulCompareEEEvT_S8_T0_ = comdat any

$_ZN5eastl9heap_sortINS_13DequeIteratorIiPiRiLj64EEERNS_8Internal15StatefulCompareEEEvT_S8_T0_ = comdat any

$_ZN5eastl10merge_sortINS_13DequeIteratorIiPiRiLj64EEENS_9allocatorERNS_8Internal15StatefulCompareEEEvT_S9_RT0_T1_ = comdat any

$_ZN5eastl10quick_sortINS_13DequeIteratorIiPiRiLj64EEERNS_8Internal15StatefulCompareEEEvT_S8_T0_ = comdat any

$_ZNK5eastl5dequeIiNS_9allocatorELj64EE4sizeEv = comdat any

$_ZN5eastl15tim_sort_bufferINS_13DequeIteratorIiPiRiLj64EEEiRNS_8Internal15StatefulCompareEEEvT_S8_PT0_T1_ = comdat any

$_ZN5eastl6vectorIiNS_9allocatorEE4dataEv = comdat any

$_ZN5eastl8Internal15StatefulCompareD2Ev = comdat any

$_ZN5eastl6vectorIiNS_9allocatorEEC2Ev = comdat any

$_ZN5eastl11stable_sortINS_13DequeIteratorIiPiRiLj64EEEEEvT_S5_ = comdat any

$_ZN5eastl6vectorIP10TestObjectNS_9allocatorEEC2Ev = comdat any

$_ZN5eastl6vectorIP10TestObjectNS_9allocatorEE9push_backEOS2_ = comdat any

$_ZN5eastl6vectorI10TestObjectNS_9allocatorEEixEm = comdat any

$_ZN5eastl10quick_sortIPP10TestObjectNS_8Internal20TestObjectPtrCompareEEEvT_S6_T0_ = comdat any

$_ZN5eastl6vectorIP10TestObjectNS_9allocatorEE5beginEv = comdat any

$_ZN5eastl6vectorIP10TestObjectNS_9allocatorEE3endEv = comdat any

$_ZN5eastl9is_sortedIPP10TestObjectNS_8Internal20TestObjectPtrCompareEEEbT_S6_T0_ = comdat any

$_ZN5eastl6vectorIP10TestObjectNS_9allocatorEED2Ev = comdat any

$_ZN5eastl6vectorImNS_9allocatorEEC2Ev = comdat any

$_ZN5eastl6vectorImNS_9allocatorEE9push_backERKm = comdat any

$_ZN5eastl10quick_sortIPmNS_8Internal22TestObjectIndexCompareEEEvT_S4_T0_ = comdat any

$_ZN5eastl6vectorImNS_9allocatorEE5beginEv = comdat any

$_ZN5eastl6vectorImNS_9allocatorEE3endEv = comdat any

$_ZN5eastl8Internal22TestObjectIndexCompareC2EPNS_6vectorI10TestObjectNS_9allocatorEEE = comdat any

$_ZN5eastl9is_sortedIPmNS_8Internal22TestObjectIndexCompareEEEbT_S4_T0_ = comdat any

$_ZN5eastl6vectorImNS_9allocatorEED2Ev = comdat any

$_ZN5eastl6vectorIfNS_9allocatorEEC2Ev = comdat any

$_ZN5eastl6vectorIfNS_9allocatorEE9push_backERKf = comdat any

$_ZN5eastl10quick_sortIPfNS_8Internal16SafeFloatCompareEEEvT_S4_T0_ = comdat any

$_ZN5eastl6vectorIfNS_9allocatorEE5beginEv = comdat any

$_ZN5eastl6vectorIfNS_9allocatorEE3endEv = comdat any

$_ZN5eastl9is_sortedIPfNS_8Internal16SafeFloatCompareEEEbT_S4_T0_ = comdat any

$_ZN5eastl6vectorIfNS_9allocatorEED2Ev = comdat any

$_ZN5eastl6vectorItNS_9allocatorEEC2Ev = comdat any

$_ZN5eastl6vectorItNS_9allocatorEED2Ev = comdat any

$_ZN5eastl4listItNS_9allocatorEEC2Ev = comdat any

$_ZN5eastl4listItNS_9allocatorEED2Ev = comdat any

$_ZN10TestObject7IsClearEv = comdat any

$_ZN5eastl6vectorItNS_9allocatorEE9push_backEOt = comdat any

$_ZN5eastl6vectorItNS_9allocatorEE5beginEv = comdat any

$_ZN5eastl6vectorItNS_9allocatorEE3endEv = comdat any

$_ZN5eastl13back_inserterINS_6vectorItNS_9allocatorEEEEENS_20back_insert_iteratorIT_EERS5_ = comdat any

$_ZN5eastl8distanceIPtEENS_15iterator_traitsIT_E15difference_typeES3_S3_ = comdat any

$_ZNK5eastl6vectorItNS_9allocatorEE4sizeEv = comdat any

$_ZN5eastl5equalIPtS1_EEbT_S2_T0_ = comdat any

$_ZN5eastl10VectorBaseItNS_9allocatorEE19internalCapacityPtrEv = comdat any

$_ZN5eastl4moveIRtEEONS_16remove_referenceIT_E4typeEOS3_ = comdat any

$_ZN5eastl6vectorItNS_9allocatorEE16DoInsertValueEndIJtEEEvDpOT_ = comdat any

$_ZN5eastl15compressed_pairIPtNS_9allocatorEE5firstEv = comdat any

$__clang_call_terminate = comdat any

$_ZN5eastl19compressed_pair_impIPtNS_9allocatorELi2EE5firstEv = comdat any

$_ZN5eastl10VectorBaseItNS_9allocatorEE14GetNewCapacityEm = comdat any

$_ZN5eastl10VectorBaseItNS_9allocatorEE10DoAllocateEm = comdat any

$_ZN5eastl34uninitialized_move_ptr_if_noexceptIPtS1_S1_EET1_T_T0_S2_ = comdat any

$_ZN5eastl7forwardItEEOT_RNS_16remove_referenceIS1_E4typeE = comdat any

$_ZN5eastl8destructIPtEEvT_S2_ = comdat any

$_ZN5eastl10VectorBaseItNS_9allocatorEE6DoFreeEPtm = comdat any

$_ZN5eastl15allocate_memoryINS_9allocatorEEEPvRT_mmm = comdat any

$_ZN5eastl10VectorBaseItNS_9allocatorEE17internalAllocatorEv = comdat any

$_ZN5eastl9allocator8allocateEmi = comdat any

$_ZN5eastl9allocator8allocateEmmmi = comdat any

$_ZN5eastl15compressed_pairIPtNS_9allocatorEE6secondEv = comdat any

$_ZN5eastl19compressed_pair_impIPtNS_9allocatorELi2EE6secondEv = comdat any

$_ZN5eastl22uninitialized_move_ptrIPtS1_S1_EET1_T_T0_S2_ = comdat any

$_ZN5eastl8Internal23uninitialized_move_implINS_16generic_iteratorIPtvEES4_EET0_T_S6_S5_NS_17integral_constantIbLb1EEE = comdat any

$_ZN5eastl16generic_iteratorIPtvEC2ERKS1_ = comdat any

$_ZNK5eastl16generic_iteratorIPtvE4baseEv = comdat any

$_ZN5eastl4copyINS_16generic_iteratorIPtvEES3_EET0_T_S5_S4_ = comdat any

$_ZN5eastl23move_and_copy_unwrapperILb0EPtNS_16generic_iteratorIS1_vEEEET1_T0_S5_S4_ = comdat any

$_ZN5eastl15unwrap_iteratorINS_16generic_iteratorIPtvEEEENS_26is_iterator_wrapper_helperIT_Xsr5eastl19is_iterator_wrapperIS5_EE5valueEE13iterator_typeES5_ = comdat any

$_ZN5eastl21move_and_copy_chooserILb0EPtS1_EET1_T0_S3_S2_ = comdat any

$_ZN5eastl15unwrap_iteratorIPtEENS_26is_iterator_wrapper_helperIT_Xsr5eastl19is_iterator_wrapperIS3_EE5valueEE13iterator_typeES3_ = comdat any

$_ZN5eastl20move_and_copy_helperINS_26random_access_iterator_tagELb0ELb1EE12move_or_copyItEEPT_PKS4_S7_S5_ = comdat any

$_ZN5eastl26is_iterator_wrapper_helperIPtLb0EE13get_unwrappedES1_ = comdat any

$_ZN5eastl26is_iterator_wrapper_helperINS_16generic_iteratorIPtvEELb1EE13get_unwrappedES3_ = comdat any

$_ZNK5eastl16generic_iteratorIPtvE6unwrapEv = comdat any

$_ZN5eastl13destruct_implIPtEEvT_S2_NS_17integral_constantIbLb1EEE = comdat any

$_ZN5eastl9allocator10deallocateEPvm = comdat any

$_ZN5eastl20back_insert_iteratorINS_6vectorItNS_9allocatorEEEEppEi = comdat any

$_ZN5eastl20back_insert_iteratorINS_6vectorItNS_9allocatorEEEEdeEv = comdat any

$_ZN5eastl20back_insert_iteratorINS_6vectorItNS_9allocatorEEEEaSERKt = comdat any

$_ZN5eastl6vectorItNS_9allocatorEE9push_backERKt = comdat any

$_ZN5eastl6vectorItNS_9allocatorEE16DoInsertValueEndIJRKtEEEvDpOT_ = comdat any

$_ZN5eastl7forwardIRKtEEOT_RNS_16remove_referenceIS3_E4typeE = comdat any

$_ZN5eastl20back_insert_iteratorINS_6vectorItNS_9allocatorEEEEC2ERS3_ = comdat any

$_ZN5eastl9allocatorC2ERKS0_ = comdat any

$_ZN5eastl18uninitialized_fillIPttEEvT_S2_RKT0_ = comdat any

$_ZN5eastl4copyIPtS1_EET0_T_S3_S2_ = comdat any

$_ZN5eastl8Internal23uninitialized_fill_implIPttEEvT_S3_RKT0_NS_17integral_constantIbLb1EEE = comdat any

$_ZN5eastl4fillItEEvPtS1_T_ = comdat any

$_ZN5eastl23move_and_copy_unwrapperILb0EPtS1_EET1_T0_S3_S2_ = comdat any

$_ZN5eastl13distance_implIPtEENS_15iterator_traitsIT_E15difference_typeES3_S3_NS_26random_access_iterator_tagE = comdat any

$_ZN5eastl4listItNS_9allocatorEE9push_backEOt = comdat any

$_ZN5eastl4listItNS_9allocatorEE5beginEv = comdat any

$_ZN5eastl4listItNS_9allocatorEE3endEv = comdat any

$_ZN5eastl8distanceINS_12ListIteratorItPtRtEEEENS_15iterator_traitsIT_E15difference_typeES6_S6_ = comdat any

$_ZN5eastl12ListIteratorItPtRtEC2ERKS3_ = comdat any

$_ZN5eastl5equalINS_12ListIteratorItPtRtEES2_EEbT_S5_T0_ = comdat any

$_ZN5eastl4listItNS_9allocatorEE7emplaceIJtEEENS_12ListIteratorItPtRtEENS4_ItPKtRS8_EEDpOT_ = comdat any

$_ZN5eastl12ListIteratorItPKtRS1_EC2ERKNS0_ItPtRtEE = comdat any

$_ZN5eastl4listItNS_9allocatorEE13DoInsertValueIJtEEEvPNS_12ListNodeBaseEDpOT_ = comdat any

$_ZN5eastl12ListIteratorItPtRtEC2EPKNS_12ListNodeBaseE = comdat any

$_ZN5eastl4listItNS_9allocatorEE12DoCreateNodeIJtEEEPNS_8ListNodeItEEDpOT_ = comdat any

$_ZN5eastl12ListNodeBase6insertEPS0_ = comdat any

$_ZN5eastl8ListBaseItNS_9allocatorEE14DoAllocateNodeEv = comdat any

$_ZN5eastl8ListBaseItNS_9allocatorEE17internalAllocatorEv = comdat any

$_ZN5eastl15compressed_pairINS_12ListNodeBaseENS_9allocatorEE6secondEv = comdat any

$_ZN5eastl19compressed_pair_impINS_12ListNodeBaseENS_9allocatorELi2EE6secondEv = comdat any

$_ZN5eastlneItPtRtEEbRKNS_12ListIteratorIT_T0_T1_EES9_ = comdat any

$_ZNK5eastl12ListIteratorItPtRtEdeEv = comdat any

$_ZN5eastl12ListIteratorItPtRtEppEv = comdat any

$_ZN5eastl8ListBaseItNS_9allocatorEE12internalNodeEv = comdat any

$_ZN5eastl15compressed_pairINS_12ListNodeBaseENS_9allocatorEE5firstEv = comdat any

$_ZN5eastl19compressed_pair_impINS_12ListNodeBaseENS_9allocatorELi2EE5firstEv = comdat any

$_ZN5eastleqItPtRtS1_S2_EEbRKNS_12ListIteratorIT_T0_T1_EERKNS3_IS4_T2_T3_EE = comdat any

$_ZN5eastl4copyIPtNS_12ListIteratorItS1_RtEEEET0_T_S6_S5_ = comdat any

$_ZN5eastl23move_and_copy_unwrapperILb0EPtNS_12ListIteratorItS1_RtEEEET1_T0_S6_S5_ = comdat any

$_ZN5eastl21move_and_copy_chooserILb0EPtNS_12ListIteratorItS1_RtEEEET1_T0_S6_S5_ = comdat any

$_ZN5eastl15unwrap_iteratorINS_12ListIteratorItPtRtEEEENS_26is_iterator_wrapper_helperIT_Xsr5eastl19is_iterator_wrapperIS6_EE5valueEE13iterator_typeES6_ = comdat any

$_ZN5eastl20move_and_copy_helperINS_26random_access_iterator_tagELb0ELb0EE12move_or_copyIPtNS_12ListIteratorItS4_RtEEEET0_T_S9_S8_ = comdat any

$_ZN5eastl26is_iterator_wrapper_helperINS_12ListIteratorItPtRtEELb0EE13get_unwrappedES4_ = comdat any

$_ZN5eastl13distance_implINS_12ListIteratorItPtRtEEEENS_15iterator_traitsIT_E15difference_typeES6_S6_NS_18input_iterator_tagE = comdat any

$_ZN5eastl8ListBaseItNS_9allocatorEED2Ev = comdat any

$_ZN5eastl8ListBaseItNS_9allocatorEE7DoClearEv = comdat any

$_ZN5eastl9is_sortedIPiNS_4lessIiEEEEbT_S4_T0_ = comdat any

$_ZNK5eastl4lessIiEclERKiS3_ = comdat any

$_ZNK5eastl7greaterIiEclERKiS3_ = comdat any

$_ZN5eastl10VectorBaseIlNS_9allocatorEEC2Ev = comdat any

$_ZN5eastl15compressed_pairIPlNS_9allocatorEEC2ES1_RKS2_ = comdat any

$_ZN5eastl19compressed_pair_impIPlNS_9allocatorELi2EEC2ES1_RKS2_ = comdat any

$_ZN5eastl8destructIPlEEvT_S2_ = comdat any

$_ZN5eastl10VectorBaseIlNS_9allocatorEED2Ev = comdat any

$_ZN5eastl13destruct_implIPlEEvT_S2_NS_17integral_constantIbLb1EEE = comdat any

$_ZN5eastl10VectorBaseIlNS_9allocatorEE17internalAllocatorEv = comdat any

$_ZN5eastl10VectorBaseIlNS_9allocatorEE19internalCapacityPtrEv = comdat any

$_ZN5eastl15compressed_pairIPlNS_9allocatorEE6secondEv = comdat any

$_ZN5eastl19compressed_pair_impIPlNS_9allocatorELi2EE6secondEv = comdat any

$_ZN5eastl15compressed_pairIPlNS_9allocatorEE5firstEv = comdat any

$_ZN5eastl19compressed_pair_impIPlNS_9allocatorELi2EE5firstEv = comdat any

$_ZN5eastl4moveIRlEEONS_16remove_referenceIT_E4typeEOS3_ = comdat any

$_ZN5eastl6vectorIlNS_9allocatorEE16DoInsertValueEndIJlEEEvDpOT_ = comdat any

$_ZN5eastl10VectorBaseIlNS_9allocatorEE14GetNewCapacityEm = comdat any

$_ZN5eastl10VectorBaseIlNS_9allocatorEE10DoAllocateEm = comdat any

$_ZN5eastl34uninitialized_move_ptr_if_noexceptIPlS1_S1_EET1_T_T0_S2_ = comdat any

$_ZN5eastl7forwardIlEEOT_RNS_16remove_referenceIS1_E4typeE = comdat any

$_ZN5eastl10VectorBaseIlNS_9allocatorEE6DoFreeEPlm = comdat any

$_ZN5eastl22uninitialized_move_ptrIPlS1_S1_EET1_T_T0_S2_ = comdat any

$_ZN5eastl8Internal23uninitialized_move_implINS_16generic_iteratorIPlvEES4_EET0_T_S6_S5_NS_17integral_constantIbLb1EEE = comdat any

$_ZN5eastl16generic_iteratorIPlvEC2ERKS1_ = comdat any

$_ZNK5eastl16generic_iteratorIPlvE4baseEv = comdat any

$_ZN5eastl4copyINS_16generic_iteratorIPlvEES3_EET0_T_S5_S4_ = comdat any

$_ZN5eastl23move_and_copy_unwrapperILb0EPlNS_16generic_iteratorIS1_vEEEET1_T0_S5_S4_ = comdat any

$_ZN5eastl15unwrap_iteratorINS_16generic_iteratorIPlvEEEENS_26is_iterator_wrapper_helperIT_Xsr5eastl19is_iterator_wrapperIS5_EE5valueEE13iterator_typeES5_ = comdat any

$_ZN5eastl21move_and_copy_chooserILb0EPlS1_EET1_T0_S3_S2_ = comdat any

$_ZN5eastl15unwrap_iteratorIPlEENS_26is_iterator_wrapper_helperIT_Xsr5eastl19is_iterator_wrapperIS3_EE5valueEE13iterator_typeES3_ = comdat any

$_ZN5eastl20move_and_copy_helperINS_26random_access_iterator_tagELb0ELb1EE12move_or_copyIlEEPT_PKS4_S7_S5_ = comdat any

$_ZN5eastl26is_iterator_wrapper_helperIPlLb0EE13get_unwrappedES1_ = comdat any

$_ZN5eastl26is_iterator_wrapper_helperINS_16generic_iteratorIPlvEELb1EE13get_unwrappedES3_ = comdat any

$_ZNK5eastl16generic_iteratorIPlvE6unwrapEv = comdat any

$_ZN5eastl8distanceIPlEENS_15iterator_traitsIT_E15difference_typeES3_S3_ = comdat any

$_ZN5eastl9iter_swapIPlS1_EEvT_T0_ = comdat any

$_ZN14EASTLTest_RandclEm = comdat any

$_ZN5eastl13distance_implIPlEENS_15iterator_traitsIT_E15difference_typeES3_S3_NS_26random_access_iterator_tagE = comdat any

$_ZN5eastl14iter_swap_implILb1EE9iter_swapIPlS3_EEvT_T0_ = comdat any

$_ZN5eastl4swapIlEEvRT_S2_ = comdat any

$_ZN5eastl6vectorIlNS_9allocatorEE15DoClearCapacityEv = comdat any

$_ZN5eastl6vectorIlNS_9allocatorEE8DoAssignIPKlLb0EEEvT_S6_NS_17integral_constantIbLb0EEE = comdat any

$_ZNK5eastl6vectorIlNS_9allocatorEE5beginEv = comdat any

$_ZNK5eastl6vectorIlNS_9allocatorEE3endEv = comdat any

$_ZN5eastl6vectorIlNS_9allocatorEE5clearEv = comdat any

$_ZN5eastl4moveIRNS_6vectorIlNS_9allocatorEEEEEONS_16remove_referenceIT_E4typeEOS6_ = comdat any

$_ZN5eastl6vectorIlNS_9allocatorEEC2EOS2_ = comdat any

$_ZN5eastl6vectorIlNS_9allocatorEE4swapERS2_ = comdat any

$_ZN5eastl4moveIRNS_9allocatorEEEONS_16remove_referenceIT_E4typeEOS4_ = comdat any

$_ZN5eastl10VectorBaseIlNS_9allocatorEEC2ERKS1_ = comdat any

$_ZN5eastl6vectorIlNS_9allocatorEE6DoSwapERS2_ = comdat any

$_ZN5eastl4swapIPlEEvRT_S3_ = comdat any

$_ZN5eastl4swapIPlNS_9allocatorEEEvRNS_15compressed_pairIT_T0_EES7_ = comdat any

$_ZN5eastl4moveIRPlEEONS_16remove_referenceIT_E4typeEOS4_ = comdat any

$_ZN5eastl15compressed_pairIPlNS_9allocatorEE4swapERS3_ = comdat any

$_ZN5eastl19compressed_pair_impIPlNS_9allocatorELi2EE4swapERNS_15compressed_pairIS1_S2_EE = comdat any

$_ZN5eastl7cp_swapIPlEEvRT_S3_ = comdat any

$_ZN5eastl6vectorIlNS_9allocatorEE20DoAssignFromIteratorIPKlLb0EEEvT_S6_NS_26random_access_iterator_tagE = comdat any

$_ZN5eastl8distanceIPKlEENS_15iterator_traitsIT_E15difference_typeES4_S4_ = comdat any

$_ZN5eastl6vectorIlNS_9allocatorEE9DoReallocIPKlEEPlmT_S7_NS2_23should_move_or_copy_tagILb0EEE = comdat any

$_ZN5eastl4copyIPKlPlEET0_T_S5_S4_ = comdat any

$_ZN5eastl22uninitialized_copy_ptrIPKlS2_PlEET1_T_T0_S4_ = comdat any

$_ZN5eastl13distance_implIPKlEENS_15iterator_traitsIT_E15difference_typeES4_S4_NS_26random_access_iterator_tagE = comdat any

$_ZN5eastl23move_and_copy_unwrapperILb0EPKlPlEET1_T0_S5_S4_ = comdat any

$_ZN5eastl15unwrap_iteratorIPKlEENS_26is_iterator_wrapper_helperIT_Xsr5eastl19is_iterator_wrapperIS4_EE5valueEE13iterator_typeES4_ = comdat any

$_ZN5eastl21move_and_copy_chooserILb0EPKlPlEET1_T0_S5_S4_ = comdat any

$_ZN5eastl26is_iterator_wrapper_helperIPKlLb0EE13get_unwrappedES2_ = comdat any

$_ZN5eastl18uninitialized_copyIPKlPlEET0_T_S5_S4_ = comdat any

$_ZN5eastl8Internal23uninitialized_copy_implILb1ELb1ELb1EE4implIPKlPlEET0_T_S8_S7_ = comdat any

$_ZN5eastl9addressofIlEEPT_RS1_ = comdat any

$_ZN5eastl9addressofIKlEEPT_RS2_ = comdat any

$_ZN5eastl8Internal16bubble_sort_implIPlNS_4lessIlEEEEvT_S5_T0_NS_26bidirectional_iterator_tagE = comdat any

$_ZNK5eastl4lessIlEclERKlS3_ = comdat any

$_ZN5eastl9is_sortedIPlNS_4lessIlEEEEbT_S4_T0_ = comdat any

$_ZN5eastl11shaker_sortIPlNS_4lessIlEEEEvT_S4_T0_ = comdat any

$_ZN5eastl14insertion_sortIPlNS_4lessIlEEEEvT_S4_T0_ = comdat any

$_ZN5eastl14selection_sortIPlNS_4lessIlEEEEvT_S4_T0_ = comdat any

$_ZN5eastl10shell_sortIPlNS_4lessIlEEEEvT_S4_T0_ = comdat any

$_ZN5eastl9comb_sortIPlNS_4lessIlEEEEvT_S4_T0_ = comdat any

$_ZN5eastl7advanceIPllEEvRT_T0_ = comdat any

$_ZN5eastl12advance_implIPllEEvRT_T0_NS_26random_access_iterator_tagE = comdat any

$_ZN5eastl9heap_sortIPlNS_4lessIlEEEEvT_S4_T0_ = comdat any

$_ZN5eastl9make_heapIPlNS_4lessIlEEEEvT_S4_T0_ = comdat any

$_ZN5eastl9sort_heapIPlNS_4lessIlEEEEvT_S4_T0_ = comdat any

$_ZN5eastl11adjust_heapIPlllNS_4lessIlEEEEvT_T0_S5_S5_OT1_T2_ = comdat any

$_ZN5eastl16adjust_heap_implIPllOlNS_4lessIlEElEEvT_T0_S6_S6_T1_T2_ = comdat any

$_ZN5eastl12promote_heapIPllOlNS_4lessIlEEEEvT_T0_S6_OT1_T2_ = comdat any

$_ZN5eastl17promote_heap_implIPllOlNS_4lessIlEElEEvT_T0_S6_T1_T2_ = comdat any

$_ZN5eastl7forwardIOlEEOT_RNS_16remove_referenceIS2_E4typeE = comdat any

$_ZN5eastl8pop_heapIPlNS_4lessIlEEEEvT_S4_T0_ = comdat any

$_ZN5eastl10merge_sortIPlNS_9allocatorENS_4lessIlEEEEvT_S5_RT0_T1_ = comdat any

$_ZN5eastl18uninitialized_fillIPllEEvT_S2_RKT0_ = comdat any

$_ZN5eastl17merge_sort_bufferIPllNS_4lessIlEEEEvT_S4_PT0_T1_ = comdat any

$_ZN5eastl8Internal23uninitialized_fill_implIPllEEvT_S3_RKT0_NS_17integral_constantIbLb1EEE = comdat any

$_ZN5eastl4fillIlEEvPlS1_T_ = comdat any

$_ZN5eastl11MergeSorterIPllNS_4lessIlEElLi16EE4sortES1_S1_S1_S3_ = comdat any

$_ZN5eastl11MergeSorterIPllNS_4lessIlEElLi16EE9sort_implES1_S1_S1_lS3_ = comdat any

$_ZN5eastl4copyIPlS1_EET0_T_S3_S2_ = comdat any

$_ZN5eastl15is_sorted_untilIPlNS_4lessIlEEEET_S4_S4_T0_ = comdat any

$_ZN5eastl8Internal30insertion_sort_already_startedIPlNS_4lessIlEEEEvT_S5_S5_T0_ = comdat any

$_ZN5eastl11MergeSorterIPllNS_4lessIlEElLi16EE12merge_halvesES1_S1_lS1_NS4_14ResultLocationES5_S3_ = comdat any

$_ZN5eastl5mergeIPlS1_S1_NS_4lessIlEEEET1_T_S5_T0_S6_S4_T2_ = comdat any

$_ZN5eastl23move_and_copy_unwrapperILb0EPlS1_EET1_T0_S3_S2_ = comdat any

$_ZN5eastl10VectorBaseIlNS_9allocatorEEC2EmRKS1_ = comdat any

$_ZN5eastl31uninitialized_value_construct_nIPlmEET_S2_T0_ = comdat any

$_ZN5eastl15compressed_pairIPlNS_9allocatorEEC2ERKS2_ = comdat any

$_ZN5eastl19compressed_pair_impIPlNS_9allocatorELi2EEC2ERKS2_ = comdat any

$_ZN5eastl8Internal15quick_sort_implIPllEEvT_S3_T0_PNS_9enable_ifIXsr5eastl21is_copy_constructibleINS_15iterator_traitsIS3_E10value_typeEEE5valueEvE4typeE = comdat any

$_ZN5eastl8Internal4Log2IlEET_S2_ = comdat any

$_ZN5eastl8Internal21insertion_sort_simpleIPlEEvT_S3_ = comdat any

$_ZN5eastl8Internal22quick_sort_impl_helperIPllKlEEvT_S4_T0_ = comdat any

$_ZN5eastl13get_partitionIPllEET_S2_S2_RKT0_ = comdat any

$_ZN5eastl7forwardIKlEEOT_ONS_16remove_referenceIS2_E4typeE = comdat any

$_ZN5eastl6medianIlEEOT_S2_S2_S2_ = comdat any

$_ZN5eastl12partial_sortIPlEEvT_S2_S2_ = comdat any

$_ZN5eastl18get_partition_implIPlRKlEET_S4_S4_OT0_ = comdat any

$_ZN5eastl7forwardIlEEOT_ONS_16remove_referenceIS1_E4typeE = comdat any

$_ZN5eastl11median_implIlEEOT_S2_S2_S2_ = comdat any

$_ZN5eastl9make_heapIPlEEvT_S2_ = comdat any

$_ZN5eastl11adjust_heapIPlllEEvT_T0_S3_S3_OT1_ = comdat any

$_ZN5eastl9sort_heapIPlEEvT_S2_ = comdat any

$_ZN5eastl16adjust_heap_implIPllOllEEvT_T0_S4_S4_T1_ = comdat any

$_ZN5eastl12promote_heapIPllOlEEvT_T0_S4_OT1_ = comdat any

$_ZN5eastl17promote_heap_implIPllOllEEvT_T0_S4_T1_ = comdat any

$_ZN5eastl8pop_heapIPlEEvT_S2_ = comdat any

$_ZN5eastl6vectorIlNS_9allocatorEE17DoInsertValuesEndEm = comdat any

$_ZN5eastl3maxImEENS_9enable_ifIXsr5eastl9is_scalarIT_EE5valueES2_E4typeES2_S2_ = comdat any

$_ZN5eastl15tim_sort_bufferIPllNS_4lessIlEEEEvT_S4_PT0_T1_ = comdat any

$_ZN5eastl8Internal16tim_sort_add_runIPllNS_4lessIlEEEEbPNS0_12tim_sort_runET_PT0_llRlSA_SA_SA_T1_ = comdat any

$_ZN5eastl8Internal17tim_sort_collapseIPllNS_4lessIlEEEElT_PNS0_12tim_sort_runElPT0_lT1_ = comdat any

$_ZN5eastl8Internal18tim_sort_count_runIPlNS_4lessIlEEEElT_llT0_ = comdat any

$_ZN5eastl8Internal14tim_sort_mergeIPllNS_4lessIlEEEEvT_PKNS0_12tim_sort_runElPT0_T1_ = comdat any

$_ZN5eastl8Internal16reverse_elementsIPlEEvT_ll = comdat any

$_ZN5eastl9DequeBaseIiNS_9allocatorELj64EEC2Em = comdat any

$_ZN5eastl13DequeIteratorIiPiRiLj64EEC2Ev = comdat any

$_ZN5eastl9DequeBaseIiNS_9allocatorELj64EE6DoInitEm = comdat any

$_ZN5eastl7max_altImEENS_9enable_ifIXsr5eastl9is_scalarIT_EE5valueES2_E4typeES2_S2_ = comdat any

$_ZN5eastl9DequeBaseIiNS_9allocatorELj64EE18DoAllocatePtrArrayEm = comdat any

$_ZN5eastl9DequeBaseIiNS_9allocatorELj64EE18DoAllocateSubarrayEv = comdat any

$_ZN5eastl13DequeIteratorIiPiRiLj64EE11SetSubarrayEPS1_ = comdat any

$_ZN5eastl13DequeIteratorIiPiRiLj64EEC2ERKS3_ = comdat any

$_ZN5eastlneIiPiRiLj64EEEbRKNS_13DequeIteratorIT_T0_T1_XT2_EEES9_ = comdat any

$_ZN5eastl13DequeIteratorIiPiRiLj64EEppEv = comdat any

$_ZN5eastl9DequeBaseIiNS_9allocatorELj64EED2Ev = comdat any

$_ZN5eastl9DequeBaseIiNS_9allocatorELj64EE15DoFreeSubarraysEPPiS4_ = comdat any

$_ZN5eastl9DequeBaseIiNS_9allocatorELj64EE14DoFreePtrArrayEPPim = comdat any

$_ZN5eastl9DequeBaseIiNS_9allocatorELj64EE14DoFreeSubarrayEPi = comdat any

$_ZN5eastl5dequeIiNS_9allocatorELj64EE12emplace_backIJiEEEvDpOT_ = comdat any

$_ZN5eastl4moveIRiEEONS_16remove_referenceIT_E4typeEOS3_ = comdat any

$_ZN5eastl7forwardIiEEOT_RNS_16remove_referenceIS1_E4typeE = comdat any

$_ZN5eastl9DequeBaseIiNS_9allocatorELj64EE17DoReallocPtrArrayEmNS2_4SideE = comdat any

$_ZNK5eastl13DequeIteratorIiPiRiLj64EEdeEv = comdat any

$_ZN5eastl13DequeIteratorIiPiRiLj64EEmmEv = comdat any

$_ZN5eastl10VectorBaseI10TestObjectNS_9allocatorEEC2Ev = comdat any

$_ZN5eastl15compressed_pairIP10TestObjectNS_9allocatorEEC2ES2_RKS3_ = comdat any

$_ZN5eastl19compressed_pair_impIP10TestObjectNS_9allocatorELi2EEC2ES2_RKS3_ = comdat any

$_ZN5eastl8destructIP10TestObjectEEvT_S3_ = comdat any

$_ZN5eastl10VectorBaseI10TestObjectNS_9allocatorEED2Ev = comdat any

$_ZN5eastl13destruct_implIP10TestObjectEEvT_S3_NS_17integral_constantIbLb0EEE = comdat any

$_ZN5eastl10VectorBaseI10TestObjectNS_9allocatorEE17internalAllocatorEv = comdat any

$_ZN5eastl10VectorBaseI10TestObjectNS_9allocatorEE19internalCapacityPtrEv = comdat any

$_ZN5eastl15compressed_pairIP10TestObjectNS_9allocatorEE6secondEv = comdat any

$_ZN5eastl19compressed_pair_impIP10TestObjectNS_9allocatorELi2EE6secondEv = comdat any

$_ZN5eastl15compressed_pairIP10TestObjectNS_9allocatorEE5firstEv = comdat any

$_ZN5eastl19compressed_pair_impIP10TestObjectNS_9allocatorELi2EE5firstEv = comdat any

$_ZN5eastl4moveIR10TestObjectEEONS_16remove_referenceIT_E4typeEOS4_ = comdat any

$_ZN10TestObjectC2EOS_ = comdat any

$_ZN5eastl6vectorI10TestObjectNS_9allocatorEE16DoInsertValueEndIJS1_EEEvDpOT_ = comdat any

$_ZN5eastl10VectorBaseI10TestObjectNS_9allocatorEE14GetNewCapacityEm = comdat any

$_ZN5eastl10VectorBaseI10TestObjectNS_9allocatorEE10DoAllocateEm = comdat any

$_ZN5eastl34uninitialized_move_ptr_if_noexceptIP10TestObjectS2_S2_EET1_T_T0_S3_ = comdat any

$_ZN5eastl7forwardI10TestObjectEEOT_RNS_16remove_referenceIS2_E4typeE = comdat any

$_ZN5eastl10VectorBaseI10TestObjectNS_9allocatorEE6DoFreeEPS1_m = comdat any

$_ZN5eastl22uninitialized_move_ptrIP10TestObjectS2_S2_EET1_T_T0_S3_ = comdat any

$_ZN5eastl8Internal23uninitialized_move_implINS_16generic_iteratorIP10TestObjectvEES5_EET0_T_S7_S6_NS_17integral_constantIbLb0EEE = comdat any

$_ZN5eastl16generic_iteratorIP10TestObjectvEC2ERKS2_ = comdat any

$_ZNK5eastl16generic_iteratorIP10TestObjectvE4baseEv = comdat any

$_ZN5eastlneIP10TestObjectvEEbRKNS_16generic_iteratorIT_T0_EES8_ = comdat any

$_ZN5eastl9addressofI10TestObjectEEPT_RS2_ = comdat any

$_ZNK5eastl16generic_iteratorIP10TestObjectvEdeEv = comdat any

$_ZN5eastl16generic_iteratorIP10TestObjectvEppEv = comdat any

$_ZN5eastl8distanceIP10TestObjectEENS_15iterator_traitsIT_E15difference_typeES4_S4_ = comdat any

$_ZN5eastl9iter_swapIP10TestObjectS2_EEvT_T0_ = comdat any

$_ZN5eastl13distance_implIP10TestObjectEENS_15iterator_traitsIT_E15difference_typeES4_S4_NS_26random_access_iterator_tagE = comdat any

$_ZN5eastl14iter_swap_implILb1EE9iter_swapIP10TestObjectS4_EEvT_T0_ = comdat any

$_ZN5eastl4swapI10TestObjectEEvRT_S3_ = comdat any

$_ZN10TestObjectaSEOS_ = comdat any

$_ZN5eastl4swapIiEEvRT_S2_ = comdat any

$_ZN5eastl4swapIjEEvRT_S2_ = comdat any

$_ZN5eastl4swapIbEEvRT_S2_ = comdat any

$_ZN5eastl4moveIRjEEONS_16remove_referenceIT_E4typeEOS3_ = comdat any

$_ZN5eastl4moveIRbEEONS_16remove_referenceIT_E4typeEOS3_ = comdat any

$_ZN5eastl6vectorI10TestObjectNS_9allocatorEE15DoClearCapacityEv = comdat any

$_ZN5eastl6vectorI10TestObjectNS_9allocatorEE8DoAssignIPKS1_Lb0EEEvT_S7_NS_17integral_constantIbLb0EEE = comdat any

$_ZNK5eastl6vectorI10TestObjectNS_9allocatorEE5beginEv = comdat any

$_ZNK5eastl6vectorI10TestObjectNS_9allocatorEE3endEv = comdat any

$_ZN5eastl6vectorI10TestObjectNS_9allocatorEE5clearEv = comdat any

$_ZN5eastl4moveIRNS_6vectorI10TestObjectNS_9allocatorEEEEEONS_16remove_referenceIT_E4typeEOS7_ = comdat any

$_ZN5eastl6vectorI10TestObjectNS_9allocatorEEC2EOS3_ = comdat any

$_ZN5eastl6vectorI10TestObjectNS_9allocatorEE4swapERS3_ = comdat any

$_ZN5eastl10VectorBaseI10TestObjectNS_9allocatorEEC2ERKS2_ = comdat any

$_ZN5eastl6vectorI10TestObjectNS_9allocatorEE6DoSwapERS3_ = comdat any

$_ZN5eastl4swapIP10TestObjectEEvRT_S4_ = comdat any

$_ZN5eastl4swapIP10TestObjectNS_9allocatorEEEvRNS_15compressed_pairIT_T0_EES8_ = comdat any

$_ZN5eastl4moveIRP10TestObjectEEONS_16remove_referenceIT_E4typeEOS5_ = comdat any

$_ZN5eastl15compressed_pairIP10TestObjectNS_9allocatorEE4swapERS4_ = comdat any

$_ZN5eastl19compressed_pair_impIP10TestObjectNS_9allocatorELi2EE4swapERNS_15compressed_pairIS2_S3_EE = comdat any

$_ZN5eastl7cp_swapIP10TestObjectEEvRT_S4_ = comdat any

$_ZN5eastl6vectorI10TestObjectNS_9allocatorEE20DoAssignFromIteratorIPKS1_Lb0EEEvT_S7_NS_26random_access_iterator_tagE = comdat any

$_ZN5eastl8distanceIPK10TestObjectEENS_15iterator_traitsIT_E15difference_typeES5_S5_ = comdat any

$_ZN5eastl6vectorI10TestObjectNS_9allocatorEE9DoReallocIPKS1_EEPS1_mT_S8_NS3_23should_move_or_copy_tagILb0EEE = comdat any

$_ZN5eastl4copyIPK10TestObjectPS1_EET0_T_S6_S5_ = comdat any

$_ZN5eastl22uninitialized_copy_ptrIPK10TestObjectS3_PS1_EET1_T_T0_S5_ = comdat any

$_ZN5eastl13distance_implIPK10TestObjectEENS_15iterator_traitsIT_E15difference_typeES5_S5_NS_26random_access_iterator_tagE = comdat any

$_ZN5eastl23move_and_copy_unwrapperILb0EPK10TestObjectPS1_EET1_T0_S6_S5_ = comdat any

$_ZN5eastl15unwrap_iteratorIPK10TestObjectEENS_26is_iterator_wrapper_helperIT_Xsr5eastl19is_iterator_wrapperIS5_EE5valueEE13iterator_typeES5_ = comdat any

$_ZN5eastl21move_and_copy_chooserILb0EPK10TestObjectPS1_EET1_T0_S6_S5_ = comdat any

$_ZN5eastl15unwrap_iteratorIP10TestObjectEENS_26is_iterator_wrapper_helperIT_Xsr5eastl19is_iterator_wrapperIS4_EE5valueEE13iterator_typeES4_ = comdat any

$_ZN5eastl20move_and_copy_helperINS_26random_access_iterator_tagELb0ELb0EE12move_or_copyIPK10TestObjectPS4_EET0_T_S9_S8_ = comdat any

$_ZN10TestObjectaSERKS_ = comdat any

$_ZN5eastl26is_iterator_wrapper_helperIP10TestObjectLb0EE13get_unwrappedES2_ = comdat any

$_ZN5eastl26is_iterator_wrapper_helperIPK10TestObjectLb0EE13get_unwrappedES3_ = comdat any

$_ZN5eastl18uninitialized_copyIPK10TestObjectPS1_EET0_T_S6_S5_ = comdat any

$_ZN5eastl8Internal23uninitialized_copy_implILb0ELb1ELb1EE4implIPK10TestObjectPS4_EET0_T_S9_S8_ = comdat any

$_ZN10TestObjectC2ERKS_ = comdat any

$_ZN5eastl8Internal16bubble_sort_implIP10TestObjectNS_4lessIS2_EEEEvT_S6_T0_NS_26bidirectional_iterator_tagE = comdat any

$_ZNK5eastl4lessI10TestObjectEclERKS1_S4_ = comdat any

$_ZltRK10TestObjectS1_ = comdat any

$_ZN5eastl9is_sortedIP10TestObjectNS_4lessIS1_EEEEbT_S5_T0_ = comdat any

$_ZN5eastl11shaker_sortIP10TestObjectNS_4lessIS1_EEEEvT_S5_T0_ = comdat any

$_ZN5eastl14insertion_sortIP10TestObjectNS_4lessIS1_EEEEvT_S5_T0_ = comdat any

$_ZN5eastl14selection_sortIP10TestObjectNS_4lessIS1_EEEEvT_S5_T0_ = comdat any

$_ZN5eastl10shell_sortIP10TestObjectNS_4lessIS1_EEEEvT_S5_T0_ = comdat any

$_ZN5eastl9comb_sortIP10TestObjectNS_4lessIS1_EEEEvT_S5_T0_ = comdat any

$_ZN5eastl7advanceIP10TestObjectlEEvRT_T0_ = comdat any

$_ZN5eastl12advance_implIP10TestObjectlEEvRT_T0_NS_26random_access_iterator_tagE = comdat any

$_ZN5eastl9heap_sortIP10TestObjectNS_4lessIS1_EEEEvT_S5_T0_ = comdat any

$_ZN5eastl9make_heapIP10TestObjectNS_4lessIS1_EEEEvT_S5_T0_ = comdat any

$_ZN5eastl9sort_heapIP10TestObjectNS_4lessIS1_EEEEvT_S5_T0_ = comdat any

$_ZN5eastl11adjust_heapIP10TestObjectlS1_NS_4lessIS1_EEEEvT_T0_S6_S6_OT1_T2_ = comdat any

$_ZN5eastl16adjust_heap_implIP10TestObjectlOS1_NS_4lessIS1_EES1_EEvT_T0_S7_S7_T1_T2_ = comdat any

$_ZN5eastl12promote_heapIP10TestObjectlOS1_NS_4lessIS1_EEEEvT_T0_S7_OT1_T2_ = comdat any

$_ZN5eastl17promote_heap_implIP10TestObjectlOS1_NS_4lessIS1_EES1_EEvT_T0_S7_T1_T2_ = comdat any

$_ZN5eastl7forwardIO10TestObjectEEOT_RNS_16remove_referenceIS3_E4typeE = comdat any

$_ZN5eastl8pop_heapIP10TestObjectNS_4lessIS1_EEEEvT_S5_T0_ = comdat any

$_ZN5eastl10merge_sortIP10TestObjectNS_9allocatorENS_4lessIS1_EEEEvT_S6_RT0_T1_ = comdat any

$_ZN5eastl18uninitialized_fillIP10TestObjectS1_EEvT_S3_RKT0_ = comdat any

$_ZN5eastl17merge_sort_bufferIP10TestObjectS1_NS_4lessIS1_EEEEvT_S5_PT0_T1_ = comdat any

$_ZN5eastl8Internal23uninitialized_fill_implIP10TestObjectS2_EEvT_S4_RKT0_NS_17integral_constantIbLb0EEE = comdat any

$_ZN5eastl11MergeSorterIP10TestObjectS1_NS_4lessIS1_EElLi16EE4sortES2_S2_S2_S4_ = comdat any

$_ZN5eastl11MergeSorterIP10TestObjectS1_NS_4lessIS1_EElLi16EE9sort_implES2_S2_S2_lS4_ = comdat any

$_ZN5eastl4copyIP10TestObjectS2_EET0_T_S4_S3_ = comdat any

$_ZN5eastl15is_sorted_untilIP10TestObjectNS_4lessIS1_EEEET_S5_S5_T0_ = comdat any

$_ZN5eastl8Internal30insertion_sort_already_startedIP10TestObjectNS_4lessIS2_EEEEvT_S6_S6_T0_ = comdat any

$_ZN5eastl11MergeSorterIP10TestObjectS1_NS_4lessIS1_EElLi16EE12merge_halvesES2_S2_lS2_NS5_14ResultLocationES6_S4_ = comdat any

$_ZN5eastl5mergeIP10TestObjectS2_S2_NS_4lessIS1_EEEET1_T_S6_T0_S7_S5_T2_ = comdat any

$_ZN5eastl23move_and_copy_unwrapperILb0EP10TestObjectS2_EET1_T0_S4_S3_ = comdat any

$_ZN5eastl21move_and_copy_chooserILb0EP10TestObjectS2_EET1_T0_S4_S3_ = comdat any

$_ZN5eastl20move_and_copy_helperINS_26random_access_iterator_tagELb0ELb0EE12move_or_copyIP10TestObjectS5_EET0_T_S7_S6_ = comdat any

$_ZN5eastl8Internal15quick_sort_implIP10TestObjectlEEvT_S4_T0_PNS_9enable_ifIXsr5eastl21is_copy_constructibleINS_15iterator_traitsIS4_E10value_typeEEE5valueEvE4typeE = comdat any

$_ZN5eastl8Internal21insertion_sort_simpleIP10TestObjectEEvT_S4_ = comdat any

$_ZN5eastl8Internal22quick_sort_impl_helperIP10TestObjectlKS2_EEvT_S5_T0_ = comdat any

$_ZN5eastl13get_partitionIP10TestObjectS1_EET_S3_S3_RKT0_ = comdat any

$_ZN5eastl7forwardIK10TestObjectEEOT_ONS_16remove_referenceIS3_E4typeE = comdat any

$_ZN5eastl6medianI10TestObjectEEOT_S3_S3_S3_ = comdat any

$_ZN5eastl12partial_sortIP10TestObjectEEvT_S3_S3_ = comdat any

$_ZN5eastl18get_partition_implIP10TestObjectRKS1_EET_S5_S5_OT0_ = comdat any

$_ZN5eastl7forwardI10TestObjectEEOT_ONS_16remove_referenceIS2_E4typeE = comdat any

$_ZN5eastl11median_implI10TestObjectEEOT_S3_S3_S3_ = comdat any

$_ZN5eastl9make_heapIP10TestObjectEEvT_S3_ = comdat any

$_ZN5eastl11adjust_heapIP10TestObjectlS1_EEvT_T0_S4_S4_OT1_ = comdat any

$_ZN5eastl9sort_heapIP10TestObjectEEvT_S3_ = comdat any

$_ZN5eastl16adjust_heap_implIP10TestObjectlOS1_S1_EEvT_T0_S5_S5_T1_ = comdat any

$_ZN5eastl12promote_heapIP10TestObjectlOS1_EEvT_T0_S5_OT1_ = comdat any

$_ZN5eastl17promote_heap_implIP10TestObjectlOS1_S1_EEvT_T0_S5_T1_ = comdat any

$_ZN5eastl8pop_heapIP10TestObjectEEvT_S3_ = comdat any

$_ZN5eastl10VectorBaseI10TestObjectNS_9allocatorEEC2EmRKS2_ = comdat any

$_ZN5eastl31uninitialized_value_construct_nIP10TestObjectmEET_S3_T0_ = comdat any

$_ZN5eastl15compressed_pairIP10TestObjectNS_9allocatorEEC2ERKS3_ = comdat any

$_ZN5eastl19compressed_pair_impIP10TestObjectNS_9allocatorELi2EEC2ERKS3_ = comdat any

$_ZN5eastl15tim_sort_bufferIP10TestObjectS1_NS_4lessIS1_EEEEvT_S5_PT0_T1_ = comdat any

$_ZN5eastl8Internal16tim_sort_add_runIP10TestObjectS2_NS_4lessIS2_EEEEbPNS0_12tim_sort_runET_PT0_llRlSB_SB_SB_T1_ = comdat any

$_ZN5eastl8Internal17tim_sort_collapseIP10TestObjectS2_NS_4lessIS2_EEEElT_PNS0_12tim_sort_runElPT0_lT1_ = comdat any

$_ZN5eastl8Internal18tim_sort_count_runIP10TestObjectNS_4lessIS2_EEEElT_llT0_ = comdat any

$_ZN5eastl8Internal14tim_sort_mergeIP10TestObjectS2_NS_4lessIS2_EEEEvT_PKNS0_12tim_sort_runElPT0_T1_ = comdat any

$_ZN5eastl8Internal16reverse_elementsIP10TestObjectEEvT_ll = comdat any

$_ZN5eastl23move_and_copy_unwrapperILb0EPKiPiEET1_T0_S5_S4_ = comdat any

$_ZN5eastl15unwrap_iteratorIPKiEENS_26is_iterator_wrapper_helperIT_Xsr5eastl19is_iterator_wrapperIS4_EE5valueEE13iterator_typeES4_ = comdat any

$_ZN5eastl21move_and_copy_chooserILb0EPKiPiEET1_T0_S5_S4_ = comdat any

$_ZN5eastl15unwrap_iteratorIPiEENS_26is_iterator_wrapper_helperIT_Xsr5eastl19is_iterator_wrapperIS3_EE5valueEE13iterator_typeES3_ = comdat any

$_ZN5eastl20move_and_copy_helperINS_26random_access_iterator_tagELb0ELb1EE12move_or_copyIiEEPT_PKS4_S7_S5_ = comdat any

$_ZN5eastl26is_iterator_wrapper_helperIPiLb0EE13get_unwrappedES1_ = comdat any

$_ZN5eastl26is_iterator_wrapper_helperIPKiLb0EE13get_unwrappedES2_ = comdat any

$_ZN5eastl10quick_sortIPiEEvT_S2_ = comdat any

$_ZN5eastl8Internal15quick_sort_implIPilEEvT_S3_T0_PNS_9enable_ifIXsr5eastl21is_copy_constructibleINS_15iterator_traitsIS3_E10value_typeEEE5valueEvE4typeE = comdat any

$_ZN5eastl14insertion_sortIPiEEvT_S2_ = comdat any

$_ZN5eastl8Internal21insertion_sort_simpleIPiEEvT_S3_ = comdat any

$_ZN5eastl8Internal22quick_sort_impl_helperIPilKiEEvT_S4_T0_ = comdat any

$_ZN5eastl13get_partitionIPiiEET_S2_S2_RKT0_ = comdat any

$_ZN5eastl7forwardIKiEEOT_ONS_16remove_referenceIS2_E4typeE = comdat any

$_ZN5eastl6medianIiEEOT_S2_S2_S2_ = comdat any

$_ZN5eastl12partial_sortIPiEEvT_S2_S2_ = comdat any

$_ZN5eastl18get_partition_implIPiRKiEET_S4_S4_OT0_ = comdat any

$_ZN5eastl9iter_swapIPiS1_EEvT_T0_ = comdat any

$_ZN5eastl14iter_swap_implILb1EE9iter_swapIPiS3_EEvT_T0_ = comdat any

$_ZN5eastl7forwardIiEEOT_ONS_16remove_referenceIS1_E4typeE = comdat any

$_ZN5eastl11median_implIiEEOT_S2_S2_S2_ = comdat any

$_ZN5eastl9make_heapIPiEEvT_S2_ = comdat any

$_ZN5eastl11adjust_heapIPiliEEvT_T0_S3_S3_OT1_ = comdat any

$_ZN5eastl9sort_heapIPiEEvT_S2_ = comdat any

$_ZN5eastl16adjust_heap_implIPilOiiEEvT_T0_S4_S4_T1_ = comdat any

$_ZN5eastl12promote_heapIPilOiEEvT_T0_S4_OT1_ = comdat any

$_ZN5eastl17promote_heap_implIPilOiiEEvT_T0_S4_T1_ = comdat any

$_ZN5eastl7forwardIOiEEOT_RNS_16remove_referenceIS2_E4typeE = comdat any

$_ZN5eastl8pop_heapIPiEEvT_S2_ = comdat any

$_ZN5eastl14insertion_sortIPiNS_4lessIiEEEEvT_S4_T0_ = comdat any

$_ZN5eastl6medianIiEERKT_S3_S3_S3_ = comdat any

$_ZN5eastl11median_implIRKiEEOT_S4_S4_S4_ = comdat any

$_ZN5eastl7forwardIRKiEEOT_RNS_16remove_referenceIS3_E4typeE = comdat any

$_ZN5eastl6medianIiNS_4lessIiEEEERKT_S5_S5_S5_T0_ = comdat any

$_ZN5eastl13get_partitionIPiiNS_4lessIiEEEET_S4_S4_RKT0_T1_ = comdat any

$_ZN5eastl11median_implIRKiNS_4lessIiEEEEOT_S6_S6_S6_T0_ = comdat any

$_ZN5eastl18get_partition_implIPiRKiNS_4lessIiEEEET_S6_S6_OT0_T1_ = comdat any

$_ZN5eastl8Internal15radix_sort_implIPNS0_16RadixSortElementIjEENS0_17extract_radix_keyIS3_EELi8EjEEvT_S7_S7_T0_T2_ = comdat any

$_ZNK5eastl8Internal17extract_radix_keyINS0_16RadixSortElementIjEEEclERKS3_ = comdat any

$_ZN5eastl9is_sortedIPNS_8Internal16RadixSortElementIjEENS_4lessIS3_EEEEbT_S7_T0_ = comdat any

$_ZNK5eastl4lessINS_8Internal16RadixSortElementIjEEEclERKS3_S6_ = comdat any

$_ZNK5eastl8Internal16RadixSortElementIjEltERKS2_ = comdat any

$_ZN5eastl8Internal15radix_sort_implIPNS0_16RadixSortElementItEENS0_17extract_radix_keyIS3_EELi8EtEEvT_S7_S7_T0_T2_ = comdat any

$_ZNK5eastl8Internal17extract_radix_keyINS0_16RadixSortElementItEEEclERKS3_ = comdat any

$_ZN5eastl9is_sortedIPNS_8Internal16RadixSortElementItEENS_4lessIS3_EEEEbT_S7_T0_ = comdat any

$_ZNK5eastl4lessINS_8Internal16RadixSortElementItEEEclERKS3_S6_ = comdat any

$_ZNK5eastl8Internal16RadixSortElementItEltERKS2_ = comdat any

$_ZN5eastl8Internal15radix_sort_implIPNS0_16RadixSortElementIhEENS0_17extract_radix_keyIS3_EELi8EhEEvT_S7_S7_T0_T2_ = comdat any

$_ZNK5eastl8Internal17extract_radix_keyINS0_16RadixSortElementIhEEEclERKS3_ = comdat any

$_ZN5eastl9is_sortedIPNS_8Internal16RadixSortElementIhEENS_4lessIS3_EEEEbT_S7_T0_ = comdat any

$_ZNK5eastl4lessINS_8Internal16RadixSortElementIhEEEclERKS3_S6_ = comdat any

$_ZNK5eastl8Internal16RadixSortElementIhEltERKS2_ = comdat any

$_ZN5eastl8Internal15radix_sort_implIPjNS0_26identity_extract_radix_keyIjEELi8EjEEvT_S5_S5_T0_T2_ = comdat any

$_ZNK5eastl8Internal26identity_extract_radix_keyIjEclERKj = comdat any

$_ZN5eastl9is_sortedIPjNS_4lessIjEEEEbT_S4_T0_ = comdat any

$_ZNK5eastl4lessIjEclERKjS3_ = comdat any

$_ZN5eastl8Internal15radix_sort_implIPjNS0_26identity_extract_radix_keyIjEELi1EjEEvT_S5_S5_T0_T2_ = comdat any

$_ZN5eastl8Internal15radix_sort_implIPjNS0_26identity_extract_radix_keyIjEELi3EjEEvT_S5_S5_T0_T2_ = comdat any

$_ZN5eastl8Internal15radix_sort_implIPjNS0_26identity_extract_radix_keyIjEELi6EjEEvT_S5_S5_T0_T2_ = comdat any

$_ZN5eastl8Internal15radix_sort_implIPtNS0_26identity_extract_radix_keyItEELi11EtEEvT_S5_S5_T0_T2_ = comdat any

$_ZNK5eastl8Internal26identity_extract_radix_keyItEclERKt = comdat any

$_ZN5eastl9is_sortedIPtNS_4lessItEEEEbT_S4_T0_ = comdat any

$_ZNK5eastl4lessItEclERKtS3_ = comdat any

$_ZN5eastl8Internal15radix_sort_implIPhNS0_26identity_extract_radix_keyIhEELi8EhEEvT_S5_S5_T0_T2_ = comdat any

$_ZNK5eastl8Internal26identity_extract_radix_keyIhEclERKh = comdat any

$_ZN5eastl9is_sortedIPhNS_4lessIhEEEEbT_S4_T0_ = comdat any

$_ZNK5eastl4lessIhEclERKhS3_ = comdat any

$_ZN5eastl10VectorBaseIiNS_9allocatorEEC2EmRKS1_ = comdat any

$_ZN5eastl31uninitialized_value_construct_nIPimEET_S2_T0_ = comdat any

$_ZN5eastl10VectorBaseIiNS_9allocatorEED2Ev = comdat any

$_ZN5eastl15compressed_pairIPiNS_9allocatorEEC2ERKS2_ = comdat any

$_ZN5eastl10VectorBaseIiNS_9allocatorEE10DoAllocateEm = comdat any

$_ZN5eastl10VectorBaseIiNS_9allocatorEE19internalCapacityPtrEv = comdat any

$_ZN5eastl19compressed_pair_impIPiNS_9allocatorELi2EEC2ERKS2_ = comdat any

$_ZN5eastl10VectorBaseIiNS_9allocatorEE17internalAllocatorEv = comdat any

$_ZN5eastl15compressed_pairIPiNS_9allocatorEE6secondEv = comdat any

$_ZN5eastl19compressed_pair_impIPiNS_9allocatorELi2EE6secondEv = comdat any

$_ZN5eastl15compressed_pairIPiNS_9allocatorEE5firstEv = comdat any

$_ZN5eastl19compressed_pair_impIPiNS_9allocatorELi2EE5firstEv = comdat any

$_ZN5eastl9addressofIiEEPT_RS1_ = comdat any

$_ZN5eastl8destructIPiEEvT_S2_ = comdat any

$_ZN5eastl13destruct_implIPiEEvT_S2_NS_17integral_constantIbLb1EEE = comdat any

$_ZN5eastl10VectorBaseINS_6vectorIiNS_9allocatorEEES2_EC2EmRKS2_ = comdat any

$_ZN5eastl31uninitialized_value_construct_nIPNS_6vectorIiNS_9allocatorEEEmEET_S5_T0_ = comdat any

$_ZN5eastl10VectorBaseINS_6vectorIiNS_9allocatorEEES2_ED2Ev = comdat any

$_ZN5eastl15compressed_pairIPNS_6vectorIiNS_9allocatorEEES2_EC2ERKS2_ = comdat any

$_ZN5eastl10VectorBaseINS_6vectorIiNS_9allocatorEEES2_E10DoAllocateEm = comdat any

$_ZN5eastl10VectorBaseINS_6vectorIiNS_9allocatorEEES2_E19internalCapacityPtrEv = comdat any

$_ZN5eastl19compressed_pair_impIPNS_6vectorIiNS_9allocatorEEES2_Li2EEC2ERKS2_ = comdat any

$_ZN5eastl10VectorBaseINS_6vectorIiNS_9allocatorEEES2_E17internalAllocatorEv = comdat any

$_ZN5eastl15compressed_pairIPNS_6vectorIiNS_9allocatorEEES2_E6secondEv = comdat any

$_ZN5eastl19compressed_pair_impIPNS_6vectorIiNS_9allocatorEEES2_Li2EE6secondEv = comdat any

$_ZN5eastl15compressed_pairIPNS_6vectorIiNS_9allocatorEEES2_E5firstEv = comdat any

$_ZN5eastl19compressed_pair_impIPNS_6vectorIiNS_9allocatorEEES2_Li2EE5firstEv = comdat any

$_ZN5eastl9addressofINS_6vectorIiNS_9allocatorEEEEEPT_RS4_ = comdat any

$_ZN5eastl8destructIPNS_6vectorIiNS_9allocatorEEEEEvT_S5_ = comdat any

$_ZN5eastl13destruct_implIPNS_6vectorIiNS_9allocatorEEEEEvT_S5_NS_17integral_constantIbLb0EEE = comdat any

$_ZNK5eastl13hash_use_selfIiEclERKi = comdat any

$_ZN5eastl6vectorIiNS_9allocatorEE9push_backERKi = comdat any

$_ZNK5eastl6vectorIiNS_9allocatorEE5beginEv = comdat any

$_ZNK5eastl6vectorIiNS_9allocatorEE3endEv = comdat any

$_ZN5eastl6vectorIiNS_9allocatorEE16DoInsertValueEndIJRKiEEEvDpOT_ = comdat any

$_ZN5eastl10VectorBaseIiNS_9allocatorEE14GetNewCapacityEm = comdat any

$_ZN5eastl34uninitialized_move_ptr_if_noexceptIPiS1_S1_EET1_T_T0_S2_ = comdat any

$_ZN5eastl10VectorBaseIiNS_9allocatorEE6DoFreeEPim = comdat any

$_ZN5eastl22uninitialized_move_ptrIPiS1_S1_EET1_T_T0_S2_ = comdat any

$_ZN5eastl8Internal23uninitialized_move_implINS_16generic_iteratorIPivEES4_EET0_T_S6_S5_NS_17integral_constantIbLb1EEE = comdat any

$_ZN5eastl16generic_iteratorIPivEC2ERKS1_ = comdat any

$_ZNK5eastl16generic_iteratorIPivE4baseEv = comdat any

$_ZN5eastl4copyINS_16generic_iteratorIPivEES3_EET0_T_S5_S4_ = comdat any

$_ZN5eastl23move_and_copy_unwrapperILb0EPiNS_16generic_iteratorIS1_vEEEET1_T0_S5_S4_ = comdat any

$_ZN5eastl15unwrap_iteratorINS_16generic_iteratorIPivEEEENS_26is_iterator_wrapper_helperIT_Xsr5eastl19is_iterator_wrapperIS5_EE5valueEE13iterator_typeES5_ = comdat any

$_ZN5eastl21move_and_copy_chooserILb0EPiS1_EET1_T0_S3_S2_ = comdat any

$_ZN5eastl26is_iterator_wrapper_helperINS_16generic_iteratorIPivEELb1EE13get_unwrappedES3_ = comdat any

$_ZNK5eastl16generic_iteratorIPivE6unwrapEv = comdat any

$_ZN5eastl10merge_sortIPiNS_9allocatorEEEvT_S3_RT0_ = comdat any

$_ZN5eastl10merge_sortIPiNS_9allocatorENS_4lessIiEEEEvT_S5_RT0_T1_ = comdat any

$_ZN5eastl18uninitialized_fillIPiiEEvT_S2_RKT0_ = comdat any

$_ZN5eastl17merge_sort_bufferIPiiNS_4lessIiEEEEvT_S4_PT0_T1_ = comdat any

$_ZN5eastl8Internal23uninitialized_fill_implIPiiEEvT_S3_RKT0_NS_17integral_constantIbLb1EEE = comdat any

$_ZN5eastl4fillIiEEvPiS1_T_ = comdat any

$_ZN5eastl11MergeSorterIPiiNS_4lessIiEElLi16EE4sortES1_S1_S1_S3_ = comdat any

$_ZN5eastl11MergeSorterIPiiNS_4lessIiEElLi16EE9sort_implES1_S1_S1_lS3_ = comdat any

$_ZN5eastl4copyIPiS1_EET0_T_S3_S2_ = comdat any

$_ZN5eastl8Internal30insertion_sort_already_startedIPiNS_4lessIiEEEEvT_S5_S5_T0_ = comdat any

$_ZN5eastl11MergeSorterIPiiNS_4lessIiEElLi16EE12merge_halvesES1_S1_lS1_NS4_14ResultLocationES5_S3_ = comdat any

$_ZN5eastl5mergeIPiS1_S1_NS_4lessIiEEEET1_T_S5_T0_S6_S4_T2_ = comdat any

$_ZN5eastl23move_and_copy_unwrapperILb0EPiS1_EET1_T0_S3_S2_ = comdat any

$_ZN5eastl10merge_sortIPi15MallocAllocatorNS_4lessIiEEEEvT_S5_RT0_T1_ = comdat any

$_ZN5eastl15allocate_memoryI15MallocAllocatorEEPvRT_mmm = comdat any

$_ZN5eastl6vectorIiNS_9allocatorEE16DoInsertValueEndIJiEEEvDpOT_ = comdat any

$_ZN5eastl10merge_sortIPNS_6vectorIiNS_9allocatorEEES2_NS_8Internal15IntArrayCompareEEEvT_S7_RT0_T1_ = comdat any

$_ZN5eastl18uninitialized_fillIPNS_6vectorIiNS_9allocatorEEES3_EEvT_S5_RKT0_ = comdat any

$_ZN5eastl17merge_sort_bufferIPNS_6vectorIiNS_9allocatorEEES3_NS_8Internal15IntArrayCompareEEEvT_S7_PT0_T1_ = comdat any

$_ZN5eastl8Internal23uninitialized_fill_implIPNS_6vectorIiNS_9allocatorEEES4_EEvT_S6_RKT0_NS_17integral_constantIbLb0EEE = comdat any

$_ZN5eastl6vectorIiNS_9allocatorEEC2ERKS2_ = comdat any

$_ZNK5eastl6vectorIiNS_9allocatorEE4sizeEv = comdat any

$_ZNK5eastl10VectorBaseIiNS_9allocatorEE17internalAllocatorEv = comdat any

$_ZN5eastl22uninitialized_copy_ptrIPiS1_S1_EET1_T_T0_S2_ = comdat any

$_ZNK5eastl15compressed_pairIPiNS_9allocatorEE6secondEv = comdat any

$_ZNK5eastl19compressed_pair_impIPiNS_9allocatorELi2EE6secondEv = comdat any

$_ZN5eastl18uninitialized_copyIPiS1_EET0_T_S3_S2_ = comdat any

$_ZN5eastl8Internal23uninitialized_copy_implILb1ELb1ELb1EE4implIPiS4_EET0_T_S6_S5_ = comdat any

$_ZN5eastl11MergeSorterIPNS_6vectorIiNS_9allocatorEEES3_NS_8Internal15IntArrayCompareElLi16EE4sortES4_S4_S4_S6_ = comdat any

$_ZN5eastl11MergeSorterIPNS_6vectorIiNS_9allocatorEEES3_NS_8Internal15IntArrayCompareElLi16EE9sort_implES4_S4_S4_lS6_ = comdat any

$_ZN5eastl4copyIPNS_6vectorIiNS_9allocatorEEES4_EET0_T_S6_S5_ = comdat any

$_ZN5eastl15is_sorted_untilIPNS_6vectorIiNS_9allocatorEEENS_8Internal15IntArrayCompareEEET_S7_S7_T0_ = comdat any

$_ZN5eastl8Internal30insertion_sort_already_startedIPNS_6vectorIiNS_9allocatorEEENS0_15IntArrayCompareEEEvT_S7_S7_T0_ = comdat any

$_ZN5eastl11MergeSorterIPNS_6vectorIiNS_9allocatorEEES3_NS_8Internal15IntArrayCompareElLi16EE12merge_halvesES4_S4_lS4_NS7_14ResultLocationES8_S6_ = comdat any

$_ZN5eastl8Internal15IntArrayCompareclERKNS_6vectorIiNS_9allocatorEEES6_ = comdat any

$_ZNK5eastl6vectorIiNS_9allocatorEE5frontEv = comdat any

$_ZN5eastl6vectorIiNS_9allocatorEEaSERKS2_ = comdat any

$_ZN5eastl6vectorIiNS_9allocatorEE15DoClearCapacityEv = comdat any

$_ZN5eastl6vectorIiNS_9allocatorEE8DoAssignIPKiLb0EEEvT_S6_NS_17integral_constantIbLb0EEE = comdat any

$_ZN5eastl6vectorIiNS_9allocatorEE5clearEv = comdat any

$_ZN5eastl4moveIRNS_6vectorIiNS_9allocatorEEEEEONS_16remove_referenceIT_E4typeEOS6_ = comdat any

$_ZN5eastl6vectorIiNS_9allocatorEEC2EOS2_ = comdat any

$_ZN5eastl6vectorIiNS_9allocatorEE4swapERS2_ = comdat any

$_ZN5eastl10VectorBaseIiNS_9allocatorEEC2ERKS1_ = comdat any

$_ZN5eastl6vectorIiNS_9allocatorEE6DoSwapERS2_ = comdat any

$_ZN5eastl15compressed_pairIPiNS_9allocatorEEC2ES1_RKS2_ = comdat any

$_ZN5eastl19compressed_pair_impIPiNS_9allocatorELi2EEC2ES1_RKS2_ = comdat any

$_ZN5eastl4swapIPiEEvRT_S3_ = comdat any

$_ZN5eastl4swapIPiNS_9allocatorEEEvRNS_15compressed_pairIT_T0_EES7_ = comdat any

$_ZN5eastl4moveIRPiEEONS_16remove_referenceIT_E4typeEOS4_ = comdat any

$_ZN5eastl15compressed_pairIPiNS_9allocatorEE4swapERS3_ = comdat any

$_ZN5eastl19compressed_pair_impIPiNS_9allocatorELi2EE4swapERNS_15compressed_pairIS1_S2_EE = comdat any

$_ZN5eastl7cp_swapIPiEEvRT_S3_ = comdat any

$_ZN5eastl6vectorIiNS_9allocatorEE20DoAssignFromIteratorIPKiLb0EEEvT_S6_NS_26random_access_iterator_tagE = comdat any

$_ZN5eastl8distanceIPKiEENS_15iterator_traitsIT_E15difference_typeES4_S4_ = comdat any

$_ZN5eastl6vectorIiNS_9allocatorEE9DoReallocIPKiEEPimT_S7_NS2_23should_move_or_copy_tagILb0EEE = comdat any

$_ZN5eastl22uninitialized_copy_ptrIPKiS2_PiEET1_T_T0_S4_ = comdat any

$_ZN5eastl13distance_implIPKiEENS_15iterator_traitsIT_E15difference_typeES4_S4_NS_26random_access_iterator_tagE = comdat any

$_ZN5eastl18uninitialized_copyIPKiPiEET0_T_S5_S4_ = comdat any

$_ZN5eastl8Internal23uninitialized_copy_implILb1ELb1ELb1EE4implIPKiPiEET0_T_S8_S7_ = comdat any

$_ZN5eastl9addressofIKiEEPT_RS2_ = comdat any

$_ZN5eastl5mergeIPNS_6vectorIiNS_9allocatorEEES4_S4_NS_8Internal15IntArrayCompareEEET1_T_S8_T0_S9_S7_T2_ = comdat any

$_ZN5eastl23move_and_copy_unwrapperILb0EPNS_6vectorIiNS_9allocatorEEES4_EET1_T0_S6_S5_ = comdat any

$_ZN5eastl15unwrap_iteratorIPNS_6vectorIiNS_9allocatorEEEEENS_26is_iterator_wrapper_helperIT_Xsr5eastl19is_iterator_wrapperIS6_EE5valueEE13iterator_typeES6_ = comdat any

$_ZN5eastl21move_and_copy_chooserILb0EPNS_6vectorIiNS_9allocatorEEES4_EET1_T0_S6_S5_ = comdat any

$_ZN5eastl20move_and_copy_helperINS_26random_access_iterator_tagELb0ELb0EE12move_or_copyIPNS_6vectorIiNS_9allocatorEEES7_EET0_T_S9_S8_ = comdat any

$_ZN5eastl26is_iterator_wrapper_helperIPNS_6vectorIiNS_9allocatorEEELb0EE13get_unwrappedES4_ = comdat any

$_ZN5eastl5dequeIiNS_9allocatorELj64EE12emplace_backIJRKiEEEvDpOT_ = comdat any

$_ZN5eastl8distanceINS_13DequeIteratorIiPiRiLj64EEEEENS_15iterator_traitsIT_E15difference_typeES6_S6_ = comdat any

$_ZNK5eastl13DequeIteratorIiPiRiLj64EEplEl = comdat any

$_ZN5eastl9iter_swapINS_13DequeIteratorIiPiRiLj64EEES4_EEvT_T0_ = comdat any

$_ZN5eastlmiIiPiRiS1_S2_Lj64EEENS_13DequeIteratorIT_T0_T1_XT4_EE15difference_typeERKS7_RKNS3_IS4_T2_T3_XT4_EEE = comdat any

$_ZN5eastl13distance_implINS_13DequeIteratorIiPiRiLj64EEEEENS_15iterator_traitsIT_E15difference_typeES6_S6_NS_26random_access_iterator_tagE = comdat any

$_ZN5eastl13DequeIteratorIiPiRiLj64EEpLEl = comdat any

$_ZN5eastl14iter_swap_implILb1EE9iter_swapINS_13DequeIteratorIiPiRiLj64EEES6_EEvT_T0_ = comdat any

$_ZN5eastl5dequeIiNS_9allocatorELj64EEC2ERKS1_ = comdat any

$_ZN5eastl5dequeIiNS_9allocatorELj64EE6DoSwapERS2_ = comdat any

$_ZN5eastl5dequeIiNS_9allocatorELj64EE8DoAssignINS_13DequeIteratorIiPKiRS5_Lj64EEEEEvT_S9_NS_17integral_constantIbLb0EEE = comdat any

$_ZNK5eastl5dequeIiNS_9allocatorELj64EE5beginEv = comdat any

$_ZNK5eastl5dequeIiNS_9allocatorELj64EE3endEv = comdat any

$_ZN5eastl9DequeBaseIiNS_9allocatorELj64EEC2EmRKS1_ = comdat any

$_ZN5eastl4swapIPPiEEvRT_S4_ = comdat any

$_ZN5eastl4swapImEEvRT_S2_ = comdat any

$_ZN5eastl4swapINS_13DequeIteratorIiPiRiLj64EEEEEvRT_S6_ = comdat any

$_ZN5eastl4swapINS_9allocatorEEEvRT_S3_ = comdat any

$_ZN5eastl4moveIRPPiEEONS_16remove_referenceIT_E4typeEOS5_ = comdat any

$_ZN5eastl4moveIRmEEONS_16remove_referenceIT_E4typeEOS3_ = comdat any

$_ZN5eastl4moveIRNS_13DequeIteratorIiPiRiLj64EEEEEONS_16remove_referenceIT_E4typeEOS7_ = comdat any

$_ZN5eastl9allocatoraSERKS0_ = comdat any

$_ZN5eastl8distanceINS_13DequeIteratorIiPKiRS2_Lj64EEEEENS_15iterator_traitsIT_E15difference_typeES7_S7_ = comdat any

$_ZN5eastl7advanceINS_13DequeIteratorIiPKiRS2_Lj64EEElEEvRT_T0_ = comdat any

$_ZN5eastl4copyINS_13DequeIteratorIiPKiRS2_Lj64EEENS1_IiPiRiLj64EEEEET0_T_SA_S9_ = comdat any

$_ZN5eastl5dequeIiNS_9allocatorELj64EE6insertINS_13DequeIteratorIiPKiRS5_Lj64EEEEENS4_IiPiRiLj64EEES8_T_SC_ = comdat any

$_ZN5eastl13DequeIteratorIiPKiRS1_Lj64EEC2ERKNS0_IiPiRiLj64EEE = comdat any

$_ZN5eastl5dequeIiNS_9allocatorELj64EE5eraseENS_13DequeIteratorIiPKiRS4_Lj64EEES7_ = comdat any

$_ZN5eastl13distance_implINS_13DequeIteratorIiPKiRS2_Lj64EEEEENS_15iterator_traitsIT_E15difference_typeES7_S7_NS_26random_access_iterator_tagE = comdat any

$_ZN5eastlmiIiPKiRS1_S2_S3_Lj64EEENS_13DequeIteratorIT_T0_T1_XT4_EE15difference_typeERKS8_RKNS4_IS5_T2_T3_XT4_EEE = comdat any

$_ZN5eastl12advance_implINS_13DequeIteratorIiPKiRS2_Lj64EEElEEvRT_T0_NS_26random_access_iterator_tagE = comdat any

$_ZN5eastl13DequeIteratorIiPKiRS1_Lj64EEpLEl = comdat any

$_ZN5eastl13DequeIteratorIiPKiRS1_Lj64EE11SetSubarrayEPPi = comdat any

$_ZN5eastl23move_and_copy_unwrapperILb0ENS_13DequeIteratorIiPKiRS2_Lj64EEENS1_IiPiRiLj64EEEEET1_T0_SA_S9_ = comdat any

$_ZN5eastl15unwrap_iteratorINS_13DequeIteratorIiPKiRS2_Lj64EEEEENS_26is_iterator_wrapper_helperIT_Xsr5eastl19is_iterator_wrapperIS7_EE5valueEE13iterator_typeES7_ = comdat any

$_ZN5eastl21move_and_copy_chooserILb0ENS_13DequeIteratorIiPKiRS2_Lj64EEENS1_IiPiRiLj64EEEEET1_T0_SA_S9_ = comdat any

$_ZN5eastl15unwrap_iteratorINS_13DequeIteratorIiPiRiLj64EEEEENS_26is_iterator_wrapper_helperIT_Xsr5eastl19is_iterator_wrapperIS6_EE5valueEE13iterator_typeES6_ = comdat any

$_ZN5eastl20move_and_copy_helperINS_26random_access_iterator_tagELb0ELb0EE12move_or_copyINS_13DequeIteratorIiPKiRS5_Lj64EEENS4_IiPiRiLj64EEEEET0_T_SD_SC_ = comdat any

$_ZNK5eastl13DequeIteratorIiPKiRS1_Lj64EEdeEv = comdat any

$_ZN5eastl13DequeIteratorIiPKiRS1_Lj64EEppEv = comdat any

$_ZN5eastl26is_iterator_wrapper_helperINS_13DequeIteratorIiPiRiLj64EEELb0EE13get_unwrappedES4_ = comdat any

$_ZN5eastl26is_iterator_wrapper_helperINS_13DequeIteratorIiPKiRS2_Lj64EEELb0EE13get_unwrappedES5_ = comdat any

$_ZN5eastl5dequeIiNS_9allocatorELj64EE8DoInsertINS_13DequeIteratorIiPKiRS5_Lj64EEEEENS4_IiPiRiLj64EEERKS8_RKT_SG_NS_17integral_constantIbLb0EEE = comdat any

$_ZN5eastl5dequeIiNS_9allocatorELj64EE20DoInsertFromIteratorINS_13DequeIteratorIiPKiRS5_Lj64EEEEENS4_IiPiRiLj64EEES8_RKT_SE_NS_20forward_iterator_tagE = comdat any

$_ZN5eastl9DequeBaseIiNS_9allocatorELj64EE17DoReallocSubarrayEmNS2_4SideE = comdat any

$_ZN5eastl18uninitialized_copyINS_13DequeIteratorIiPKiRS2_Lj64EEENS1_IiPiRiLj64EEEEET0_T_SA_S9_ = comdat any

$_ZN5eastlmiIiPKiRS1_PiRiLj64EEENS_13DequeIteratorIT_T0_T1_XT4_EE15difference_typeERKSA_RKNS6_IS7_T2_T3_XT4_EEE = comdat any

$_ZN5eastl18uninitialized_copyINS_13DequeIteratorIiPiRiLj64EEES4_EET0_T_S6_S5_ = comdat any

$_ZN5eastl4copyINS_13DequeIteratorIiPiRiLj64EEES4_EET0_T_S6_S5_ = comdat any

$_ZN5eastl23uninitialized_copy_copyINS_13DequeIteratorIiPiRiLj64EEENS1_IiPKiRS5_Lj64EEES4_EET1_T_SA_T0_SB_S9_ = comdat any

$_ZNK5eastl13DequeIteratorIiPiRiLj64EEmiEl = comdat any

$_ZN5eastl13copy_backwardINS_13DequeIteratorIiPiRiLj64EEES4_EET0_T_S6_S5_ = comdat any

$_ZN5eastl23uninitialized_copy_copyINS_13DequeIteratorIiPKiRS2_Lj64EEENS1_IiPiRiLj64EEES8_EET1_T_SA_T0_SB_S9_ = comdat any

$_ZN5eastl8Internal23uninitialized_copy_implILb1ELb1ELb0EE4implINS_13DequeIteratorIiPKiRS5_Lj64EEENS4_IiPiRiLj64EEEEET0_T_SD_SC_ = comdat any

$_ZN5eastlneIiPKiRS1_Lj64EEEbRKNS_13DequeIteratorIT_T0_T1_XT2_EEESA_ = comdat any

$_ZN5eastl8Internal23uninitialized_copy_implILb1ELb1ELb0EE4implINS_13DequeIteratorIiPiRiLj64EEES7_EET0_T_S9_S8_ = comdat any

$_ZN5eastl23move_and_copy_unwrapperILb0ENS_13DequeIteratorIiPiRiLj64EEES4_EET1_T0_S6_S5_ = comdat any

$_ZN5eastl21move_and_copy_chooserILb0ENS_13DequeIteratorIiPiRiLj64EEES4_EET1_T0_S6_S5_ = comdat any

$_ZN5eastl20move_and_copy_helperINS_26random_access_iterator_tagELb0ELb0EE12move_or_copyINS_13DequeIteratorIiPiRiLj64EEES7_EET0_T_S9_S8_ = comdat any

$_ZN5eastl32move_and_copy_backward_unwrapperILb0ENS_13DequeIteratorIiPiRiLj64EEES4_EET1_T0_S6_S5_ = comdat any

$_ZN5eastl30move_and_copy_backward_chooserILb0ENS_13DequeIteratorIiPiRiLj64EEES4_EET1_T0_S6_S5_ = comdat any

$_ZN5eastl29move_and_copy_backward_helperINS_26random_access_iterator_tagELb0ELb0EE21move_or_copy_backwardINS_13DequeIteratorIiPiRiLj64EEES7_EET0_T_S9_S8_ = comdat any

$_ZN5eastl13DequeIteratorIiPiRiLj64EEC2ERKNS0_IiPKiRS4_Lj64EEENS3_9FromConstE = comdat any

$_ZN5eastl13DequeIteratorIiPiRiLj64EE13copy_backwardERKS3_S5_NS_17integral_constantIbLb1EEE = comdat any

$_ZN5eastl13DequeIteratorIiPiRiLj64EE4copyERKS3_S5_NS_17integral_constantIbLb1EEE = comdat any

$_ZN5eastl5dequeIiNS_9allocatorELj64EE5clearEv = comdat any

$_ZN5eastl13copy_backwardINS_13move_iteratorINS_13DequeIteratorIiPiRiLj64EEEEES6_EET0_T_S8_S7_ = comdat any

$_ZN5eastl18make_move_iteratorINS_13DequeIteratorIiPiRiLj64EEEEENS_13move_iteratorIT_EES6_ = comdat any

$_ZN5eastl32move_and_copy_backward_unwrapperILb1ENS_13DequeIteratorIiPiRiLj64EEENS_13move_iteratorIS4_EEEET1_T0_S8_S7_ = comdat any

$_ZN5eastl15unwrap_iteratorINS_13move_iteratorINS_13DequeIteratorIiPiRiLj64EEEEEEENS_26is_iterator_wrapper_helperIT_Xsr5eastl19is_iterator_wrapperIS8_EE5valueEE13iterator_typeES8_ = comdat any

$_ZN5eastl13move_iteratorINS_13DequeIteratorIiPiRiLj64EEEEC2ERKS5_ = comdat any

$_ZN5eastl30move_and_copy_backward_chooserILb1ENS_13DequeIteratorIiPiRiLj64EEES4_EET1_T0_S6_S5_ = comdat any

$_ZN5eastl13move_iteratorINS_13DequeIteratorIiPiRiLj64EEEEC2ES4_ = comdat any

$_ZN5eastl29move_and_copy_backward_helperINS_26random_access_iterator_tagELb1ELb0EE21move_or_copy_backwardINS_13DequeIteratorIiPiRiLj64EEES7_EET0_T_S9_S8_ = comdat any

$_ZN5eastl26is_iterator_wrapper_helperINS_13move_iteratorINS_13DequeIteratorIiPiRiLj64EEEEELb1EE13get_unwrappedES6_ = comdat any

$_ZNK5eastl13move_iteratorINS_13DequeIteratorIiPiRiLj64EEEE6unwrapEv = comdat any

$_ZN5eastl4copyINS_13move_iteratorINS_13DequeIteratorIiPiRiLj64EEEEES6_EET0_T_S8_S7_ = comdat any

$_ZNK5eastl13move_iteratorINS_13DequeIteratorIiPiRiLj64EEEE4baseEv = comdat any

$_ZN5eastl23move_and_copy_unwrapperILb1ENS_13DequeIteratorIiPiRiLj64EEENS_13move_iteratorIS4_EEEET1_T0_S8_S7_ = comdat any

$_ZN5eastl21move_and_copy_chooserILb1ENS_13DequeIteratorIiPiRiLj64EEES4_EET1_T0_S6_S5_ = comdat any

$_ZN5eastl20move_and_copy_helperINS_26random_access_iterator_tagELb1ELb0EE12move_or_copyINS_13DequeIteratorIiPiRiLj64EEES7_EET0_T_S9_S8_ = comdat any

$_ZN5eastl8Internal16bubble_sort_implINS_13DequeIteratorIiPiRiLj64EEERNS0_15StatefulCompareEEEvT_S8_T0_NS_26bidirectional_iterator_tagE = comdat any

$_ZN5eastl13DequeIteratorIiPiRiLj64EEmmEi = comdat any

$_ZN5eastl8Internal15StatefulCompareclEii = comdat any

$_ZN5eastl13DequeIteratorIiPiRiLj64EEmIEl = comdat any

$_ZN5eastl7advanceINS_13DequeIteratorIiPiRiLj64EEElEEvRT_T0_ = comdat any

$_ZN5eastl13DequeIteratorIiPiRiLj64EEppEi = comdat any

$_ZN5eastl12advance_implINS_13DequeIteratorIiPiRiLj64EEElEEvRT_T0_NS_26random_access_iterator_tagE = comdat any

$_ZN5eastl9make_heapINS_13DequeIteratorIiPiRiLj64EEERNS_8Internal15StatefulCompareEEEvT_S8_T0_ = comdat any

$_ZN5eastl9sort_heapINS_13DequeIteratorIiPiRiLj64EEERNS_8Internal15StatefulCompareEEEvT_S8_T0_ = comdat any

$_ZN5eastl11adjust_heapINS_13DequeIteratorIiPiRiLj64EEEliRNS_8Internal15StatefulCompareEEEvT_T0_S9_S9_OT1_T2_ = comdat any

$_ZN5eastl16adjust_heap_implINS_13DequeIteratorIiPiRiLj64EEElOiRNS_8Internal15StatefulCompareEiEEvT_T0_SA_SA_T1_T2_ = comdat any

$_ZN5eastl12promote_heapINS_13DequeIteratorIiPiRiLj64EEElOiRNS_8Internal15StatefulCompareEEEvT_T0_SA_OT1_T2_ = comdat any

$_ZN5eastl17promote_heap_implINS_13DequeIteratorIiPiRiLj64EEElOiRNS_8Internal15StatefulCompareEiEEvT_T0_SA_T1_T2_ = comdat any

$_ZN5eastl8pop_heapINS_13DequeIteratorIiPiRiLj64EEERNS_8Internal15StatefulCompareEEEvT_S8_T0_ = comdat any

$_ZN5eastl17merge_sort_bufferINS_13DequeIteratorIiPiRiLj64EEEiRNS_8Internal15StatefulCompareEEEvT_S8_PT0_T1_ = comdat any

$_ZN5eastl11MergeSorterINS_13DequeIteratorIiPiRiLj64EEEiRNS_8Internal15StatefulCompareElLi16EE4sortES4_S4_S2_S7_ = comdat any

$_ZN5eastl11MergeSorterINS_13DequeIteratorIiPiRiLj64EEEiRNS_8Internal15StatefulCompareElLi16EE9sort_implES4_S4_S2_lS7_ = comdat any

$_ZN5eastl4copyIPiNS_13DequeIteratorIiS1_RiLj64EEEEET0_T_S6_S5_ = comdat any

$_ZN5eastl15is_sorted_untilINS_13DequeIteratorIiPiRiLj64EEERNS_8Internal15StatefulCompareEEET_S8_S8_T0_ = comdat any

$_ZN5eastl8Internal30insertion_sort_already_startedINS_13DequeIteratorIiPiRiLj64EEERNS0_15StatefulCompareEEEvT_S8_S8_T0_ = comdat any

$_ZN5eastl11MergeSorterINS_13DequeIteratorIiPiRiLj64EEEiRNS_8Internal15StatefulCompareElLi16EE12merge_halvesES4_S4_lS2_NS8_14ResultLocationES9_S7_ = comdat any

$_ZN5eastl5mergeINS_13DequeIteratorIiPiRiLj64EEES4_S2_RNS_8Internal15StatefulCompareEEET1_T_S9_T0_SA_S8_T2_ = comdat any

$_ZN5eastl4copyINS_13DequeIteratorIiPiRiLj64EEES2_EET0_T_S6_S5_ = comdat any

$_ZN5eastl5mergeIPiS1_NS_13DequeIteratorIiS1_RiLj64EEERNS_8Internal15StatefulCompareEEET1_T_S9_T0_SA_S8_T2_ = comdat any

$_ZN5eastleqIiPiRiS1_S2_Lj64EEEbRKNS_13DequeIteratorIT_T0_T1_XT4_EEERKNS3_IS4_T2_T3_XT4_EEE = comdat any

$_ZN5eastl23move_and_copy_unwrapperILb0ENS_13DequeIteratorIiPiRiLj64EEES2_EET1_T0_S6_S5_ = comdat any

$_ZN5eastl21move_and_copy_chooserILb0ENS_13DequeIteratorIiPiRiLj64EEES2_EET1_T0_S6_S5_ = comdat any

$_ZN5eastl20move_and_copy_helperINS_26random_access_iterator_tagELb0ELb0EE12move_or_copyINS_13DequeIteratorIiPiRiLj64EEES5_EET0_T_S9_S8_ = comdat any

$_ZN5eastl23move_and_copy_unwrapperILb0EPiNS_13DequeIteratorIiS1_RiLj64EEEEET1_T0_S6_S5_ = comdat any

$_ZN5eastl21move_and_copy_chooserILb0EPiNS_13DequeIteratorIiS1_RiLj64EEEEET1_T0_S6_S5_ = comdat any

$_ZN5eastl20move_and_copy_helperINS_26random_access_iterator_tagELb0ELb0EE12move_or_copyIPiNS_13DequeIteratorIiS4_RiLj64EEEEET0_T_S9_S8_ = comdat any

$_ZN5eastl8Internal15quick_sort_implINS_13DequeIteratorIiPiRiLj64EEElRNS0_15StatefulCompareEEEvT_S8_T0_T1_PNS_9enable_ifIXsr5eastl21is_copy_constructibleINS_15iterator_traitsIS8_E10value_typeEEE5valueEvE4typeE = comdat any

$_ZN5eastl8Internal21insertion_sort_simpleINS_13DequeIteratorIiPiRiLj64EEERNS0_15StatefulCompareEEEvT_S8_T0_ = comdat any

$_ZN5eastl8Internal22quick_sort_impl_helperINS_13DequeIteratorIiPiRiLj64EEElRNS0_15StatefulCompareEKiEEvT_S9_T0_T1_ = comdat any

$_ZN5eastl13get_partitionINS_13DequeIteratorIiPiRiLj64EEEiRNS_8Internal15StatefulCompareEEET_S8_S8_RKT0_T1_ = comdat any

$_ZN5eastl6medianIiRNS_8Internal15StatefulCompareEEEOT_S5_S5_S5_T0_ = comdat any

$_ZN5eastl12partial_sortINS_13DequeIteratorIiPiRiLj64EEERNS_8Internal15StatefulCompareEEEvT_S8_S8_T0_ = comdat any

$_ZN5eastl18get_partition_implINS_13DequeIteratorIiPiRiLj64EEERKiRNS_8Internal15StatefulCompareEEET_SA_SA_OT0_T1_ = comdat any

$_ZN5eastlgeIiPiRiS1_S2_Lj64EEEbRKNS_13DequeIteratorIT_T0_T1_XT4_EEERKNS3_IS4_T2_T3_XT4_EEE = comdat any

$_ZN5eastl11median_implIOiRNS_8Internal15StatefulCompareEEEOT_S6_S6_S6_T0_ = comdat any

$_ZN5eastlltIiPiRiS1_S2_Lj64EEEbRKNS_13DequeIteratorIT_T0_T1_XT4_EEERKNS3_IS4_T2_T3_XT4_EEE = comdat any

$_ZN5eastl8Internal30insertion_sort_already_startedINS_13DequeIteratorIiPiRiLj64EEENS0_15StatefulCompareEEEvT_S7_S7_T0_ = comdat any

$_ZN5eastl8Internal15StatefulCompareC2ERS1_ = comdat any

$_ZN5eastl8Internal16tim_sort_add_runINS_13DequeIteratorIiPiRiLj64EEEiRNS0_15StatefulCompareEEEbPNS0_12tim_sort_runET_PT0_llRlSD_SD_SD_T1_ = comdat any

$_ZN5eastl8Internal17tim_sort_collapseINS_13DequeIteratorIiPiRiLj64EEEiRNS0_15StatefulCompareEEElT_PNS0_12tim_sort_runElPT0_lT1_ = comdat any

$_ZN5eastl8Internal18tim_sort_count_runINS_13DequeIteratorIiPiRiLj64EEERNS0_15StatefulCompareEEElT_llT0_ = comdat any

$_ZN5eastl8Internal14tim_sort_mergeINS_13DequeIteratorIiPiRiLj64EEEiRNS0_15StatefulCompareEEEvT_PKNS0_12tim_sort_runElPT0_T1_ = comdat any

$_ZN5eastl8Internal16reverse_elementsINS_13DequeIteratorIiPiRiLj64EEEEEvT_ll = comdat any

$_ZN5eastl10VectorBaseIiNS_9allocatorEEC2Ev = comdat any

$_ZN5eastl10merge_sortINS_13DequeIteratorIiPiRiLj64EEENS_9allocatorEEEvT_S6_RT0_ = comdat any

$_ZN5eastl10merge_sortINS_13DequeIteratorIiPiRiLj64EEENS_9allocatorENS_4lessIiEEEEvT_S8_RT0_T1_ = comdat any

$_ZN5eastl17merge_sort_bufferINS_13DequeIteratorIiPiRiLj64EEEiNS_4lessIiEEEEvT_S7_PT0_T1_ = comdat any

$_ZN5eastl11MergeSorterINS_13DequeIteratorIiPiRiLj64EEEiNS_4lessIiEElLi16EE4sortES4_S4_S2_S6_ = comdat any

$_ZN5eastl11MergeSorterINS_13DequeIteratorIiPiRiLj64EEEiNS_4lessIiEElLi16EE9sort_implES4_S4_S2_lS6_ = comdat any

$_ZN5eastl15is_sorted_untilINS_13DequeIteratorIiPiRiLj64EEENS_4lessIiEEEET_S7_S7_T0_ = comdat any

$_ZN5eastl8Internal30insertion_sort_already_startedINS_13DequeIteratorIiPiRiLj64EEENS_4lessIiEEEEvT_S8_S8_T0_ = comdat any

$_ZN5eastl11MergeSorterINS_13DequeIteratorIiPiRiLj64EEEiNS_4lessIiEElLi16EE12merge_halvesES4_S4_lS2_NS7_14ResultLocationES8_S6_ = comdat any

$_ZN5eastl5mergeINS_13DequeIteratorIiPiRiLj64EEES4_S2_NS_4lessIiEEEET1_T_S8_T0_S9_S7_T2_ = comdat any

$_ZN5eastl5mergeIPiS1_NS_13DequeIteratorIiS1_RiLj64EEENS_4lessIiEEEET1_T_S8_T0_S9_S7_T2_ = comdat any

$_ZN5eastl10VectorBaseIP10TestObjectNS_9allocatorEEC2Ev = comdat any

$_ZN5eastl15compressed_pairIPP10TestObjectNS_9allocatorEEC2ES3_RKS4_ = comdat any

$_ZN5eastl19compressed_pair_impIPP10TestObjectNS_9allocatorELi2EEC2ES3_RKS4_ = comdat any

$_ZN5eastl8destructIPP10TestObjectEEvT_S4_ = comdat any

$_ZN5eastl10VectorBaseIP10TestObjectNS_9allocatorEED2Ev = comdat any

$_ZN5eastl13destruct_implIPP10TestObjectEEvT_S4_NS_17integral_constantIbLb1EEE = comdat any

$_ZN5eastl10VectorBaseIP10TestObjectNS_9allocatorEE17internalAllocatorEv = comdat any

$_ZN5eastl10VectorBaseIP10TestObjectNS_9allocatorEE19internalCapacityPtrEv = comdat any

$_ZN5eastl15compressed_pairIPP10TestObjectNS_9allocatorEE6secondEv = comdat any

$_ZN5eastl19compressed_pair_impIPP10TestObjectNS_9allocatorELi2EE6secondEv = comdat any

$_ZN5eastl15compressed_pairIPP10TestObjectNS_9allocatorEE5firstEv = comdat any

$_ZN5eastl19compressed_pair_impIPP10TestObjectNS_9allocatorELi2EE5firstEv = comdat any

$_ZN5eastl6vectorIP10TestObjectNS_9allocatorEE16DoInsertValueEndIJS2_EEEvDpOT_ = comdat any

$_ZN5eastl10VectorBaseIP10TestObjectNS_9allocatorEE14GetNewCapacityEm = comdat any

$_ZN5eastl10VectorBaseIP10TestObjectNS_9allocatorEE10DoAllocateEm = comdat any

$_ZN5eastl34uninitialized_move_ptr_if_noexceptIPP10TestObjectS3_S3_EET1_T_T0_S4_ = comdat any

$_ZN5eastl7forwardIP10TestObjectEEOT_RNS_16remove_referenceIS3_E4typeE = comdat any

$_ZN5eastl10VectorBaseIP10TestObjectNS_9allocatorEE6DoFreeEPS2_m = comdat any

$_ZN5eastl22uninitialized_move_ptrIPP10TestObjectS3_S3_EET1_T_T0_S4_ = comdat any

$_ZN5eastl8Internal23uninitialized_move_implINS_16generic_iteratorIPP10TestObjectvEES6_EET0_T_S8_S7_NS_17integral_constantIbLb1EEE = comdat any

$_ZN5eastl16generic_iteratorIPP10TestObjectvEC2ERKS3_ = comdat any

$_ZNK5eastl16generic_iteratorIPP10TestObjectvE4baseEv = comdat any

$_ZN5eastl4copyINS_16generic_iteratorIPP10TestObjectvEES5_EET0_T_S7_S6_ = comdat any

$_ZN5eastl23move_and_copy_unwrapperILb0EPP10TestObjectNS_16generic_iteratorIS3_vEEEET1_T0_S7_S6_ = comdat any

$_ZN5eastl15unwrap_iteratorINS_16generic_iteratorIPP10TestObjectvEEEENS_26is_iterator_wrapper_helperIT_Xsr5eastl19is_iterator_wrapperIS7_EE5valueEE13iterator_typeES7_ = comdat any

$_ZN5eastl21move_and_copy_chooserILb0EPP10TestObjectS3_EET1_T0_S5_S4_ = comdat any

$_ZN5eastl15unwrap_iteratorIPP10TestObjectEENS_26is_iterator_wrapper_helperIT_Xsr5eastl19is_iterator_wrapperIS5_EE5valueEE13iterator_typeES5_ = comdat any

$_ZN5eastl20move_and_copy_helperINS_26random_access_iterator_tagELb0ELb1EE12move_or_copyIP10TestObjectEEPT_PKS6_S9_S7_ = comdat any

$_ZN5eastl26is_iterator_wrapper_helperIPP10TestObjectLb0EE13get_unwrappedES3_ = comdat any

$_ZN5eastl26is_iterator_wrapper_helperINS_16generic_iteratorIPP10TestObjectvEELb1EE13get_unwrappedES5_ = comdat any

$_ZNK5eastl16generic_iteratorIPP10TestObjectvE6unwrapEv = comdat any

$_ZN5eastl8Internal15quick_sort_implIPP10TestObjectlNS0_20TestObjectPtrCompareEEEvT_S6_T0_T1_PNS_9enable_ifIXsr5eastl21is_copy_constructibleINS_15iterator_traitsIS6_E10value_typeEEE5valueEvE4typeE = comdat any

$_ZN5eastl14insertion_sortIPP10TestObjectNS_8Internal20TestObjectPtrCompareEEEvT_S6_T0_ = comdat any

$_ZN5eastl8Internal21insertion_sort_simpleIPP10TestObjectNS0_20TestObjectPtrCompareEEEvT_S6_T0_ = comdat any

$_ZN5eastl8Internal22quick_sort_impl_helperIPP10TestObjectlNS0_20TestObjectPtrCompareEKS3_EEvT_S7_T0_T1_ = comdat any

$_ZN5eastl13get_partitionIPP10TestObjectS2_NS_8Internal20TestObjectPtrCompareEEET_S6_S6_RKT0_T1_ = comdat any

$_ZN5eastl7forwardIKP10TestObjectEEOT_ONS_16remove_referenceIS4_E4typeE = comdat any

$_ZN5eastl6medianIP10TestObjectNS_8Internal20TestObjectPtrCompareEEEOT_S6_S6_S6_T0_ = comdat any

$_ZN5eastl12partial_sortIPP10TestObjectNS_8Internal20TestObjectPtrCompareEEEvT_S6_S6_T0_ = comdat any

$_ZN5eastl18get_partition_implIPP10TestObjectRKS2_NS_8Internal20TestObjectPtrCompareEEET_S8_S8_OT0_T1_ = comdat any

$_ZN5eastl8Internal20TestObjectPtrCompareclEP10TestObjectS3_ = comdat any

$_ZN5eastl9iter_swapIPP10TestObjectS3_EEvT_T0_ = comdat any

$_ZN5eastl14iter_swap_implILb1EE9iter_swapIPP10TestObjectS5_EEvT_T0_ = comdat any

$_ZN5eastl7forwardIP10TestObjectEEOT_ONS_16remove_referenceIS3_E4typeE = comdat any

$_ZN5eastl11median_implIOP10TestObjectNS_8Internal20TestObjectPtrCompareEEEOT_S7_S7_S7_T0_ = comdat any

$_ZN5eastl7forwardIOP10TestObjectEEOT_RNS_16remove_referenceIS4_E4typeE = comdat any

$_ZN5eastl9make_heapIPP10TestObjectNS_8Internal20TestObjectPtrCompareEEEvT_S6_T0_ = comdat any

$_ZN5eastl11adjust_heapIPP10TestObjectlS2_NS_8Internal20TestObjectPtrCompareEEEvT_T0_S7_S7_OT1_T2_ = comdat any

$_ZN5eastl9sort_heapIPP10TestObjectNS_8Internal20TestObjectPtrCompareEEEvT_S6_T0_ = comdat any

$_ZN5eastl16adjust_heap_implIPP10TestObjectlOS2_NS_8Internal20TestObjectPtrCompareES2_EEvT_T0_S8_S8_T1_T2_ = comdat any

$_ZN5eastl12promote_heapIPP10TestObjectlOS2_NS_8Internal20TestObjectPtrCompareEEEvT_T0_S8_OT1_T2_ = comdat any

$_ZN5eastl17promote_heap_implIPP10TestObjectlOS2_NS_8Internal20TestObjectPtrCompareES2_EEvT_T0_S8_T1_T2_ = comdat any

$_ZN5eastl8pop_heapIPP10TestObjectNS_8Internal20TestObjectPtrCompareEEEvT_S6_T0_ = comdat any

$_ZN5eastl10VectorBaseImNS_9allocatorEEC2Ev = comdat any

$_ZN5eastl15compressed_pairIPmNS_9allocatorEEC2ES1_RKS2_ = comdat any

$_ZN5eastl19compressed_pair_impIPmNS_9allocatorELi2EEC2ES1_RKS2_ = comdat any

$_ZN5eastl8destructIPmEEvT_S2_ = comdat any

$_ZN5eastl10VectorBaseImNS_9allocatorEED2Ev = comdat any

$_ZN5eastl13destruct_implIPmEEvT_S2_NS_17integral_constantIbLb1EEE = comdat any

$_ZN5eastl10VectorBaseImNS_9allocatorEE17internalAllocatorEv = comdat any

$_ZN5eastl10VectorBaseImNS_9allocatorEE19internalCapacityPtrEv = comdat any

$_ZN5eastl15compressed_pairIPmNS_9allocatorEE6secondEv = comdat any

$_ZN5eastl19compressed_pair_impIPmNS_9allocatorELi2EE6secondEv = comdat any

$_ZN5eastl15compressed_pairIPmNS_9allocatorEE5firstEv = comdat any

$_ZN5eastl19compressed_pair_impIPmNS_9allocatorELi2EE5firstEv = comdat any

$_ZN5eastl6vectorImNS_9allocatorEE16DoInsertValueEndIJRKmEEEvDpOT_ = comdat any

$_ZN5eastl10VectorBaseImNS_9allocatorEE14GetNewCapacityEm = comdat any

$_ZN5eastl10VectorBaseImNS_9allocatorEE10DoAllocateEm = comdat any

$_ZN5eastl34uninitialized_move_ptr_if_noexceptIPmS1_S1_EET1_T_T0_S2_ = comdat any

$_ZN5eastl7forwardIRKmEEOT_RNS_16remove_referenceIS3_E4typeE = comdat any

$_ZN5eastl10VectorBaseImNS_9allocatorEE6DoFreeEPmm = comdat any

$_ZN5eastl22uninitialized_move_ptrIPmS1_S1_EET1_T_T0_S2_ = comdat any

$_ZN5eastl8Internal23uninitialized_move_implINS_16generic_iteratorIPmvEES4_EET0_T_S6_S5_NS_17integral_constantIbLb1EEE = comdat any

$_ZN5eastl16generic_iteratorIPmvEC2ERKS1_ = comdat any

$_ZNK5eastl16generic_iteratorIPmvE4baseEv = comdat any

$_ZN5eastl4copyINS_16generic_iteratorIPmvEES3_EET0_T_S5_S4_ = comdat any

$_ZN5eastl23move_and_copy_unwrapperILb0EPmNS_16generic_iteratorIS1_vEEEET1_T0_S5_S4_ = comdat any

$_ZN5eastl15unwrap_iteratorINS_16generic_iteratorIPmvEEEENS_26is_iterator_wrapper_helperIT_Xsr5eastl19is_iterator_wrapperIS5_EE5valueEE13iterator_typeES5_ = comdat any

$_ZN5eastl21move_and_copy_chooserILb0EPmS1_EET1_T0_S3_S2_ = comdat any

$_ZN5eastl15unwrap_iteratorIPmEENS_26is_iterator_wrapper_helperIT_Xsr5eastl19is_iterator_wrapperIS3_EE5valueEE13iterator_typeES3_ = comdat any

$_ZN5eastl20move_and_copy_helperINS_26random_access_iterator_tagELb0ELb1EE12move_or_copyImEEPT_PKS4_S7_S5_ = comdat any

$_ZN5eastl26is_iterator_wrapper_helperIPmLb0EE13get_unwrappedES1_ = comdat any

$_ZN5eastl26is_iterator_wrapper_helperINS_16generic_iteratorIPmvEELb1EE13get_unwrappedES3_ = comdat any

$_ZNK5eastl16generic_iteratorIPmvE6unwrapEv = comdat any

$_ZN5eastl8Internal15quick_sort_implIPmlNS0_22TestObjectIndexCompareEEEvT_S4_T0_T1_PNS_9enable_ifIXsr5eastl21is_copy_constructibleINS_15iterator_traitsIS4_E10value_typeEEE5valueEvE4typeE = comdat any

$_ZN5eastl8Internal22TestObjectIndexCompareC2ERKS1_ = comdat any

$_ZN5eastl14insertion_sortIPmNS_8Internal22TestObjectIndexCompareEEEvT_S4_T0_ = comdat any

$_ZN5eastl8Internal21insertion_sort_simpleIPmNS0_22TestObjectIndexCompareEEEvT_S4_T0_ = comdat any

$_ZN5eastl8Internal22quick_sort_impl_helperIPmlNS0_22TestObjectIndexCompareEKmEEvT_S5_T0_T1_ = comdat any

$_ZN5eastl13get_partitionIPmmNS_8Internal22TestObjectIndexCompareEEET_S4_S4_RKT0_T1_ = comdat any

$_ZN5eastl7forwardIKmEEOT_ONS_16remove_referenceIS2_E4typeE = comdat any

$_ZN5eastl6medianImNS_8Internal22TestObjectIndexCompareEEEOT_S4_S4_S4_T0_ = comdat any

$_ZN5eastl7forwardImEEOT_RNS_16remove_referenceIS1_E4typeE = comdat any

$_ZN5eastl12partial_sortIPmNS_8Internal22TestObjectIndexCompareEEEvT_S4_S4_T0_ = comdat any

$_ZN5eastl18get_partition_implIPmRKmNS_8Internal22TestObjectIndexCompareEEET_S6_S6_OT0_T1_ = comdat any

$_ZN5eastl8Internal22TestObjectIndexCompareclEmm = comdat any

$_ZN5eastl9iter_swapIPmS1_EEvT_T0_ = comdat any

$_ZN5eastl14iter_swap_implILb1EE9iter_swapIPmS3_EEvT_T0_ = comdat any

$_ZN5eastl7forwardImEEOT_ONS_16remove_referenceIS1_E4typeE = comdat any

$_ZN5eastl11median_implIOmNS_8Internal22TestObjectIndexCompareEEEOT_S5_S5_S5_T0_ = comdat any

$_ZN5eastl7forwardIOmEEOT_RNS_16remove_referenceIS2_E4typeE = comdat any

$_ZN5eastl9make_heapIPmNS_8Internal22TestObjectIndexCompareEEEvT_S4_T0_ = comdat any

$_ZN5eastl11adjust_heapIPmlmNS_8Internal22TestObjectIndexCompareEEEvT_T0_S5_S5_OT1_T2_ = comdat any

$_ZN5eastl9sort_heapIPmNS_8Internal22TestObjectIndexCompareEEEvT_S4_T0_ = comdat any

$_ZN5eastl16adjust_heap_implIPmlOmNS_8Internal22TestObjectIndexCompareEmEEvT_T0_S6_S6_T1_T2_ = comdat any

$_ZN5eastl12promote_heapIPmlOmNS_8Internal22TestObjectIndexCompareEEEvT_T0_S6_OT1_T2_ = comdat any

$_ZN5eastl17promote_heap_implIPmlOmNS_8Internal22TestObjectIndexCompareEmEEvT_T0_S6_T1_T2_ = comdat any

$_ZN5eastl8pop_heapIPmNS_8Internal22TestObjectIndexCompareEEEvT_S4_T0_ = comdat any

$_ZN5eastl10VectorBaseIfNS_9allocatorEEC2Ev = comdat any

$_ZN5eastl15compressed_pairIPfNS_9allocatorEEC2ES1_RKS2_ = comdat any

$_ZN5eastl19compressed_pair_impIPfNS_9allocatorELi2EEC2ES1_RKS2_ = comdat any

$_ZN5eastl8destructIPfEEvT_S2_ = comdat any

$_ZN5eastl10VectorBaseIfNS_9allocatorEED2Ev = comdat any

$_ZN5eastl13destruct_implIPfEEvT_S2_NS_17integral_constantIbLb1EEE = comdat any

$_ZN5eastl10VectorBaseIfNS_9allocatorEE17internalAllocatorEv = comdat any

$_ZN5eastl10VectorBaseIfNS_9allocatorEE19internalCapacityPtrEv = comdat any

$_ZN5eastl15compressed_pairIPfNS_9allocatorEE6secondEv = comdat any

$_ZN5eastl19compressed_pair_impIPfNS_9allocatorELi2EE6secondEv = comdat any

$_ZN5eastl15compressed_pairIPfNS_9allocatorEE5firstEv = comdat any

$_ZN5eastl19compressed_pair_impIPfNS_9allocatorELi2EE5firstEv = comdat any

$_ZN5eastl6vectorIfNS_9allocatorEE16DoInsertValueEndIJRKfEEEvDpOT_ = comdat any

$_ZN5eastl10VectorBaseIfNS_9allocatorEE14GetNewCapacityEm = comdat any

$_ZN5eastl10VectorBaseIfNS_9allocatorEE10DoAllocateEm = comdat any

$_ZN5eastl34uninitialized_move_ptr_if_noexceptIPfS1_S1_EET1_T_T0_S2_ = comdat any

$_ZN5eastl7forwardIRKfEEOT_RNS_16remove_referenceIS3_E4typeE = comdat any

$_ZN5eastl10VectorBaseIfNS_9allocatorEE6DoFreeEPfm = comdat any

$_ZN5eastl22uninitialized_move_ptrIPfS1_S1_EET1_T_T0_S2_ = comdat any

$_ZN5eastl8Internal23uninitialized_move_implINS_16generic_iteratorIPfvEES4_EET0_T_S6_S5_NS_17integral_constantIbLb1EEE = comdat any

$_ZN5eastl16generic_iteratorIPfvEC2ERKS1_ = comdat any

$_ZNK5eastl16generic_iteratorIPfvE4baseEv = comdat any

$_ZN5eastl4copyINS_16generic_iteratorIPfvEES3_EET0_T_S5_S4_ = comdat any

$_ZN5eastl23move_and_copy_unwrapperILb0EPfNS_16generic_iteratorIS1_vEEEET1_T0_S5_S4_ = comdat any

$_ZN5eastl15unwrap_iteratorINS_16generic_iteratorIPfvEEEENS_26is_iterator_wrapper_helperIT_Xsr5eastl19is_iterator_wrapperIS5_EE5valueEE13iterator_typeES5_ = comdat any

$_ZN5eastl21move_and_copy_chooserILb0EPfS1_EET1_T0_S3_S2_ = comdat any

$_ZN5eastl15unwrap_iteratorIPfEENS_26is_iterator_wrapper_helperIT_Xsr5eastl19is_iterator_wrapperIS3_EE5valueEE13iterator_typeES3_ = comdat any

$_ZN5eastl20move_and_copy_helperINS_26random_access_iterator_tagELb0ELb1EE12move_or_copyIfEEPT_PKS4_S7_S5_ = comdat any

$_ZN5eastl26is_iterator_wrapper_helperIPfLb0EE13get_unwrappedES1_ = comdat any

$_ZN5eastl26is_iterator_wrapper_helperINS_16generic_iteratorIPfvEELb1EE13get_unwrappedES3_ = comdat any

$_ZNK5eastl16generic_iteratorIPfvE6unwrapEv = comdat any

$_ZN5eastl8Internal15quick_sort_implIPflNS0_16SafeFloatCompareEEEvT_S4_T0_T1_PNS_9enable_ifIXsr5eastl21is_copy_constructibleINS_15iterator_traitsIS4_E10value_typeEEE5valueEvE4typeE = comdat any

$_ZN5eastl14insertion_sortIPfNS_8Internal16SafeFloatCompareEEEvT_S4_T0_ = comdat any

$_ZN5eastl8Internal21insertion_sort_simpleIPfNS0_16SafeFloatCompareEEEvT_S4_T0_ = comdat any

$_ZN5eastl8Internal22quick_sort_impl_helperIPflNS0_16SafeFloatCompareEKfEEvT_S5_T0_T1_ = comdat any

$_ZN5eastl13get_partitionIPffNS_8Internal16SafeFloatCompareEEET_S4_S4_RKT0_T1_ = comdat any

$_ZN5eastl7forwardIKfEEOT_ONS_16remove_referenceIS2_E4typeE = comdat any

$_ZN5eastl6medianIfNS_8Internal16SafeFloatCompareEEEOT_S4_S4_S4_T0_ = comdat any

$_ZN5eastl7forwardIfEEOT_RNS_16remove_referenceIS1_E4typeE = comdat any

$_ZN5eastl12partial_sortIPfNS_8Internal16SafeFloatCompareEEEvT_S4_S4_T0_ = comdat any

$_ZN5eastl18get_partition_implIPfRKfNS_8Internal16SafeFloatCompareEEET_S6_S6_OT0_T1_ = comdat any

$_ZNK5eastl8Internal16SafeFloatCompareclEff = comdat any

$_ZN5eastl9iter_swapIPfS1_EEvT_T0_ = comdat any

$_ZSt5isnanf = comdat any

$_ZN5eastl14iter_swap_implILb1EE9iter_swapIPfS3_EEvT_T0_ = comdat any

$_ZN5eastl4swapIfEEvRT_S2_ = comdat any

$_ZN5eastl4moveIRfEEONS_16remove_referenceIT_E4typeEOS3_ = comdat any

$_ZN5eastl7forwardIfEEOT_ONS_16remove_referenceIS1_E4typeE = comdat any

$_ZN5eastl11median_implIOfNS_8Internal16SafeFloatCompareEEEOT_S5_S5_S5_T0_ = comdat any

$_ZN5eastl7forwardIOfEEOT_RNS_16remove_referenceIS2_E4typeE = comdat any

$_ZN5eastl9make_heapIPfNS_8Internal16SafeFloatCompareEEEvT_S4_T0_ = comdat any

$_ZN5eastl11adjust_heapIPflfNS_8Internal16SafeFloatCompareEEEvT_T0_S5_S5_OT1_T2_ = comdat any

$_ZN5eastl9sort_heapIPfNS_8Internal16SafeFloatCompareEEEvT_S4_T0_ = comdat any

$_ZN5eastl16adjust_heap_implIPflOfNS_8Internal16SafeFloatCompareEfEEvT_T0_S6_S6_T1_T2_ = comdat any

$_ZN5eastl12promote_heapIPflOfNS_8Internal16SafeFloatCompareEEEvT_T0_S6_OT1_T2_ = comdat any

$_ZN5eastl17promote_heap_implIPflOfNS_8Internal16SafeFloatCompareEfEEvT_T0_S6_T1_T2_ = comdat any

$_ZN5eastl8pop_heapIPfNS_8Internal16SafeFloatCompareEEEvT_S4_T0_ = comdat any

$_ZN5eastl10VectorBaseItNS_9allocatorEEC2Ev = comdat any

$_ZN5eastl15compressed_pairIPtNS_9allocatorEEC2ES1_RKS2_ = comdat any

$_ZN5eastl19compressed_pair_impIPtNS_9allocatorELi2EEC2ES1_RKS2_ = comdat any

$_ZN5eastl10VectorBaseItNS_9allocatorEED2Ev = comdat any

$_ZN5eastl8ListBaseItNS_9allocatorEEC2Ev = comdat any

$_ZN5eastl15compressed_pairINS_12ListNodeBaseENS_9allocatorEEC2ERKS1_RKS2_ = comdat any

$_ZN5eastl8ListBaseItNS_9allocatorEE6DoInitEv = comdat any

$_ZN5eastl19compressed_pair_impINS_12ListNodeBaseENS_9allocatorELi2EEC2ERKS1_RKS2_ = comdat any

@_ZN5eastl8Internal15StatefulCompare10nCtorCountE = dso_local global i32 0, align 4
@_ZN5eastl8Internal15StatefulCompare10nDtorCountE = dso_local global i32 0, align 4
@_ZN5eastl8Internal15StatefulCompare10nCopyCountE = dso_local global i32 0, align 4
@__const._Z8TestSortv.array = private unnamed_addr constant [24 x i32] [i32 0, i32 1, i32 2, i32 2, i32 2, i32 3, i32 4, i32 5, i32 6, i32 7, i32 8, i32 9, i32 9, i32 8, i32 7, i32 6, i32 5, i32 4, i32 3, i32 2, i32 2, i32 2, i32 1, i32 0], align 16
@.str = private unnamed_addr constant [114 x i8] c"generated/home/dtcxzyw/WorkSpace/Projects/compilers/llvm-opt-benchmark/bench/eastl/EASTL/test/source/TestSort.cpp\00", align 1
@.str.1 = private unnamed_addr constant [32 x i8] c"is_sorted(array + 0, array + 0)\00", align 1
@.str.2 = private unnamed_addr constant [32 x i8] c"is_sorted(array + 2, array + 4)\00", align 1
@.str.3 = private unnamed_addr constant [33 x i8] c"is_sorted(array + 0, array + 10)\00", align 1
@.str.4 = private unnamed_addr constant [34 x i8] c"!is_sorted(array + 0, array + 14)\00", align 1
@.str.5 = private unnamed_addr constant [57 x i8] c"is_sorted(array + 11, array + 23, eastl::greater<int>())\00", align 1
@__const._Z8TestSortv.sorted = private unnamed_addr constant [10 x i32] [i32 0, i32 1, i32 2, i32 3, i32 4, i32 5, i32 6, i32 7, i32 8, i32 9], align 16
@__const._Z8TestSortv.notsorted = private unnamed_addr constant [10 x i32] [i32 0, i32 1, i32 2, i32 3, i32 4, i32 42, i32 6, i32 7, i32 8, i32 9], align 16
@.str.6 = private unnamed_addr constant [111 x i8] c"is_sorted_until(sorted + EAArrayCount(sorted), sorted + EAArrayCount(sorted)) == sorted + EAArrayCount(sorted)\00", align 1
@.str.7 = private unnamed_addr constant [89 x i8] c"is_sorted_until(sorted , sorted + EAArrayCount(sorted)) == sorted + EAArrayCount(sorted)\00", align 1
@.str.8 = private unnamed_addr constant [50 x i8] c"is_sorted_until(sorted + 0, sorted + 0) == sorted\00", align 1
@.str.9 = private unnamed_addr constant [54 x i8] c"is_sorted_until(sorted + 2, sorted + 8) == sorted + 8\00", align 1
@.str.10 = private unnamed_addr constant [63 x i8] c"is_sorted_until(notsorted + 2, notsorted + 8) == notsorted + 6\00", align 1
@.str.11 = private unnamed_addr constant [131 x i8] c"is_sorted_until(sorted + EAArrayCount(sorted), sorted + EAArrayCount(sorted), eastl::less<int>()) == sorted + EAArrayCount(sorted)\00", align 1
@.str.12 = private unnamed_addr constant [83 x i8] c"is_sorted_until(notsorted + 2, notsorted + 8, eastl::less<int>()) == notsorted + 6\00", align 1
@gEASTL_TestLevel = external global i32, align 4
@.str.13 = private unnamed_addr constant [44 x i8] c"is_sorted(intArray.begin(), intArray.end())\00", align 1
@.str.14 = private unnamed_addr constant [87 x i8] c"eastl::accumulate(begin(intArraySaved), end(intArraySaved), int64_t(0)) == expectedSum\00", align 1
@.str.15 = private unnamed_addr constant [13 x i8] c"EASTL vector\00", align 1
@.str.16 = private unnamed_addr constant [42 x i8] c"is_sorted(toArray.begin(), toArray.end())\00", align 1
@.str.17 = private unnamed_addr constant [63 x i8] c"is_sorted(toArray.begin(), toArray.end(), compareForStability)\00", align 1
@__const._Z8TestSortv.intArrayInit = private unnamed_addr constant [16 x i32] [i32 4, i32 2, i32 8, i32 6, i32 9, i32 1, i32 1, i32 4, i32 0, i32 5, i32 5, i32 7, i32 8, i32 9, i32 3, i32 3], align 16
@.str.18 = private unnamed_addr constant [33 x i8] c"intArray[j] == intArraySorted[j]\00", align 1
@.str.19 = private unnamed_addr constant [71 x i8] c"is_sorted(pRadixSortElementArray32, pRadixSortElementArray32 + kCount)\00", align 1
@.str.20 = private unnamed_addr constant [71 x i8] c"is_sorted(pRadixSortElementArray16, pRadixSortElementArray16 + kCount)\00", align 1
@.str.21 = private unnamed_addr constant [69 x i8] c"is_sorted(pRadixSortElementArray8, pRadixSortElementArray8 + kCount)\00", align 1
@__const._Z8TestSortv.input = private unnamed_addr constant [8 x i32] [i32 123, i32 15, i32 76, i32 2, i32 74, i32 12, i32 62, i32 91], align 16
@.str.22 = private unnamed_addr constant [36 x i8] c"is_sorted(begin(input), end(input))\00", align 1
@__const._Z8TestSortv.input.23 = private unnamed_addr constant [8 x i32] [i32 1962934295, i32 1946157059, i32 1929379909, i32 1979711524, i32 2013265971, i32 1979711641, i32 2013265987, i32 1962934288], align 16
@__const._Z8TestSortv.input.24 = private unnamed_addr constant [8 x i32] [i32 7667735, i32 7602179, i32 7536709, i32 7733284, i32 7864371, i32 7733401, i32 7864387, i32 7667728], align 16
@__const._Z8TestSortv.input.25 = private unnamed_addr constant [8 x i32] [i32 23, i32 3, i32 69, i32 36, i32 51, i32 153, i32 67, i32 16], align 16
@__const._Z8TestSortv.input.26 = private unnamed_addr constant [2 x i32] [i32 65280, i32 255], align 4
@__const._Z8TestSortv.input.27 = private unnamed_addr constant [8 x i32] [i32 2514513, i32 6278225, i32 2726217, i32 963245656, i32 35667326, i32 -1669342734, i32 -732404734, i32 1556256252], align 16
@__const._Z8TestSortv.input.28 = private unnamed_addr constant [8 x i32] [i32 2514513, i32 6278225, i32 2726217, i32 963245656, i32 35667326, i32 -1669342734, i32 -732404734, i32 1556256252], align 16
@__const._Z8TestSortv.input.29 = private unnamed_addr constant [8 x i32] [i32 2514513, i32 6278225, i32 2726217, i32 963245656, i32 35667326, i32 -1669342734, i32 -732404734, i32 1556256252], align 16
@__const._Z8TestSortv.input.30 = private unnamed_addr constant [8 x i16] [i16 14513, i16 -7311, i16 26217, i16 -30880, i16 -2210, i16 24562, i16 -29974, i16 15652], align 16
@__const._Z8TestSortv.input.31 = private unnamed_addr constant [8 x i8] c"q\E1\D98\1A\A2>\98", align 1
@__const._Z8TestSortv.intArray = private unnamed_addr constant [2 x i32] [i32 0, i32 1], align 4
@.str.32 = private unnamed_addr constant [111 x i8] c"(StatefulCompare::nCtorCount == 0) && (StatefulCompare::nDtorCount == 0) && (StatefulCompare::nCopyCount == 0)\00", align 1
@.str.33 = private unnamed_addr constant [68 x i8] c"is_sorted(topArray.begin(), topArray.end(), TestObjectPtrCompare())\00", align 1
@.str.34 = private unnamed_addr constant [78 x i8] c"is_sorted(toiArray.begin(), toiArray.end(), TestObjectIndexCompare(&toArray))\00", align 1
@.str.35 = private unnamed_addr constant [68 x i8] c"is_sorted(floatArray.begin(), floatArray.end(), SafeFloatCompare())\00", align 1
@.str.36 = private unnamed_addr constant [22 x i8] c"TestObject::IsClear()\00", align 1
@_ZN10TestObject8sTOCountE = external global i64, align 8
@_ZN10TestObject12sTOCtorCountE = external global i64, align 8
@_ZN10TestObject12sTODtorCountE = external global i64, align 8
@_ZN10TestObject19sTODefaultCtorCountE = external global i64, align 8
@_ZN10TestObject15sTOArgCtorCountE = external global i64, align 8
@_ZN10TestObject16sTOCopyCtorCountE = external global i64, align 8
@_ZN10TestObject16sTOMoveCtorCountE = external global i64, align 8
@_ZN10TestObject18sTOCopyAssignCountE = external global i64, align 8
@_ZN10TestObject18sTOMoveAssignCountE = external global i64, align 8
@_ZN10TestObject16sMagicErrorCountE = external global i32, align 4
@.str.37 = private unnamed_addr constant [31 x i8] c"evenCount == evenExpectedCount\00", align 1
@.str.38 = private unnamed_addr constant [29 x i8] c"oddCount == oddExpectedCount\00", align 1
@.str.39 = private unnamed_addr constant [61 x i8] c"eastl::equal(testArray.begin(), boundary, evenArray.begin())\00", align 1
@.str.40 = private unnamed_addr constant [58 x i8] c"eastl::equal(boundary, testArray.end(), oddArray.begin())\00", align 1
@.str.41 = private unnamed_addr constant [12 x i8] c"EASTL deque\00", align 1
@.str.42 = private unnamed_addr constant [11 x i8] c"EASTL list\00", align 1

; Function Attrs: mustprogress uwtable
define dso_local noundef i32 @_Z8TestSortv() #0 personality ptr @__gxx_personality_v0 {
entry:
  %nErrorCount = alloca i32, align 4
  %rng = alloca %class.EASTLTest_Rand, align 8
  %array = alloca [24 x i32], align 16
  %sorted = alloca [10 x i32], align 16
  %notsorted = alloca [10 x i32], align 16
  %intArray = alloca %"class.eastl::vector", align 8
  %intArraySaved = alloca %"class.eastl::vector", align 8
  %exn.slot = alloca ptr, align 8
  %ehselector.slot = alloca i32, align 4
  %i = alloca i32, align 4
  %n = alloca i32, align 4
  %ref.tmp = alloca i64, align 8
  %ref.tmp101 = alloca i64, align 8
  %ref.tmp108 = alloca i64, align 8
  %expectedSum = alloca i64, align 8
  %j = alloca i32, align 4
  %buffer = alloca %"class.eastl::vector", align 8
  %ref.tmp291 = alloca %"class.eastl::allocator", align 1
  %intArray365 = alloca %"class.eastl::vector", align 8
  %i366 = alloca i32, align 4
  %testRng = alloca %class.EASTLTest_Rand, align 8
  %n369 = alloca i32, align 4
  %ref.tmp373 = alloca i64, align 8
  %buffer380 = alloca %"class.eastl::vector", align 8
  %ref.tmp383 = alloca %"class.eastl::allocator", align 1
  %deque = alloca %"class.eastl::deque", align 8
  %ref.tmp399 = alloca i32, align 4
  %agg.tmp402 = alloca %"struct.eastl::DequeIterator", align 8
  %agg.tmp403 = alloca %"struct.eastl::DequeIterator", align 8
  %agg.tmp405 = alloca %"struct.eastl::DequeIterator", align 8
  %agg.tmp406 = alloca %"struct.eastl::DequeIterator", align 8
  %toArray = alloca %"class.eastl::vector.0", align 8
  %toArraySaved = alloca %"class.eastl::vector.0", align 8
  %i412 = alloca i32, align 4
  %n418 = alloca i32, align 4
  %ref.tmp422 = alloca %struct.TestObject, align 8
  %ref.tmp432 = alloca %struct.TestObject, align 8
  %ref.tmp441 = alloca %struct.TestObject, align 8
  %j451 = alloca i32, align 4
  %buffer563 = alloca %"class.eastl::vector.0", align 8
  %ref.tmp566 = alloca %"class.eastl::allocator", align 1
  %toArray591 = alloca %"class.eastl::vector.4", align 8
  %toArraySaved592 = alloca %"class.eastl::vector.4", align 8
  %i595 = alloca i32, align 4
  %n601 = alloca i32, align 4
  %ref.tmp605 = alloca %struct.StableSortTestObj, align 8
  %ref.tmp613 = alloca %struct.StableSortTestObj, align 8
  %ref.tmp620 = alloca %struct.StableSortTestObj, align 8
  %tempBuffer = alloca %"class.eastl::vector.4", align 8
  %j632 = alloca i32, align 4
  %k = alloca i64, align 8
  %intArrayInit = alloca [16 x i32], align 16
  %intArraySorted = alloca [16 x i32], align 16
  %intArray743 = alloca [16 x i32], align 16
  %i744 = alloca i64, align 8
  %j745 = alloca i64, align 8
  %kCount = alloca i32, align 4
  %pRadixSortElementArray32 = alloca ptr, align 8
  %pRadixSortElementArrayTemp32 = alloca ptr, align 8
  %i816 = alloca i32, align 4
  %pRadixSortElementArray16 = alloca ptr, align 8
  %pRadixSortElementArrayTemp16 = alloca ptr, align 8
  %i838 = alloca i32, align 4
  %pRadixSortElementArray8 = alloca ptr, align 8
  %pRadixSortElementArrayTemp8 = alloca ptr, align 8
  %i866 = alloca i32, align 4
  %input = alloca [8 x i32], align 16
  %buffer893 = alloca [8 x i32], align 16
  %input901 = alloca [8 x i32], align 16
  %buffer902 = alloca [8 x i32], align 16
  %input910 = alloca [8 x i32], align 16
  %buffer911 = alloca [8 x i32], align 16
  %input919 = alloca [8 x i32], align 16
  %buffer920 = alloca [8 x i32], align 16
  %input928 = alloca [2 x i32], align 4
  %buffer929 = alloca [2 x i32], align 4
  %input937 = alloca [8 x i32], align 16
  %buffer938 = alloca [8 x i32], align 16
  %input946 = alloca [8 x i32], align 16
  %buffer947 = alloca [8 x i32], align 16
  %input955 = alloca [8 x i32], align 16
  %buffer956 = alloca [8 x i32], align 16
  %input964 = alloca [8 x i16], align 16
  %buffer965 = alloca [8 x i16], align 16
  %input973 = alloca [8 x i8], align 1
  %buffer974 = alloca [8 x i8], align 1
  %kElementRange = alloca i64, align 8
  %intArray982 = alloca %"class.eastl::vector.10", align 8
  %ref.tmp983 = alloca %"class.eastl::allocator", align 1
  %i984 = alloca i32, align 4
  %bucketArray = alloca %"class.eastl::vector.14", align 8
  %ref.tmp998 = alloca %"class.eastl::allocator", align 1
  %intArray1014 = alloca [2 x i32], align 4
  %mallocAllocator = alloca %class.MallocAllocator, align 8
  %intArrayArray = alloca %"class.eastl::vector.14", align 8
  %ref.tmp1037 = alloca %"class.eastl::allocator", align 1
  %ref.tmp1042 = alloca i32, align 4
  %ref.tmp1046 = alloca i32, align 4
  %intDeque = alloca %"class.eastl::deque", align 8
  %intDequeSaved = alloca %"class.eastl::deque", align 8
  %compare1055 = alloca %"struct.eastl::Internal::StatefulCompare", align 1
  %n1058 = alloca i32, align 4
  %agg.tmp1079 = alloca %"struct.eastl::DequeIterator", align 8
  %agg.tmp1080 = alloca %"struct.eastl::DequeIterator", align 8
  %agg.tmp1085 = alloca %"struct.eastl::DequeIterator", align 8
  %agg.tmp1086 = alloca %"struct.eastl::DequeIterator", align 8
  %agg.tmp1096 = alloca %"struct.eastl::DequeIterator", align 8
  %agg.tmp1097 = alloca %"struct.eastl::DequeIterator", align 8
  %agg.tmp1110 = alloca %"struct.eastl::DequeIterator", align 8
  %agg.tmp1111 = alloca %"struct.eastl::DequeIterator", align 8
  %agg.tmp1124 = alloca %"struct.eastl::DequeIterator", align 8
  %agg.tmp1125 = alloca %"struct.eastl::DequeIterator", align 8
  %agg.tmp1138 = alloca %"struct.eastl::DequeIterator", align 8
  %agg.tmp1139 = alloca %"struct.eastl::DequeIterator", align 8
  %agg.tmp1152 = alloca %"struct.eastl::DequeIterator", align 8
  %agg.tmp1153 = alloca %"struct.eastl::DequeIterator", align 8
  %agg.tmp1166 = alloca %"struct.eastl::DequeIterator", align 8
  %agg.tmp1167 = alloca %"struct.eastl::DequeIterator", align 8
  %agg.tmp1180 = alloca %"struct.eastl::DequeIterator", align 8
  %agg.tmp1181 = alloca %"struct.eastl::DequeIterator", align 8
  %agg.tmp1196 = alloca %"struct.eastl::DequeIterator", align 8
  %agg.tmp1197 = alloca %"struct.eastl::DequeIterator", align 8
  %buffer1208 = alloca %"class.eastl::vector.10", align 8
  %ref.tmp1211 = alloca %"class.eastl::allocator", align 1
  %agg.tmp1217 = alloca %"struct.eastl::DequeIterator", align 8
  %agg.tmp1218 = alloca %"struct.eastl::DequeIterator", align 8
  %intDeque1233 = alloca %"class.eastl::deque", align 8
  %intVector = alloca %"class.eastl::vector.10", align 8
  %agg.tmp1236 = alloca %"struct.eastl::DequeIterator", align 8
  %agg.tmp1237 = alloca %"struct.eastl::DequeIterator", align 8
  %toArray1245 = alloca %"class.eastl::vector.0", align 8
  %topArray = alloca %"class.eastl::vector.18", align 8
  %i1248 = alloca i64, align 8
  %ref.tmp1252 = alloca %struct.TestObject, align 8
  %i1264 = alloca i64, align 8
  %ref.tmp1268 = alloca ptr, align 8
  %toArray1288 = alloca %"class.eastl::vector.0", align 8
  %toiArray = alloca %"class.eastl::vector.22", align 8
  %i1291 = alloca i64, align 8
  %ref.tmp1295 = alloca %struct.TestObject, align 8
  %agg.tmp1310 = alloca %"struct.eastl::Internal::TestObjectIndexCompare", align 8
  %agg.tmp1315 = alloca %"struct.eastl::Internal::TestObjectIndexCompare", align 8
  %floatArray = alloca %"class.eastl::vector.26", align 8
  %fi = alloca %union.FloatInt32, align 4
  %i1323 = alloca i32, align 4
  %test_stable_sort = alloca %class.anon, align 8
  %agg.tmp1347 = alloca %"class.eastl::vector.30", align 8
  %agg.tmp1351 = alloca %"class.eastl::vector.30", align 8
  %agg.tmp1355 = alloca %"class.eastl::vector.30", align 8
  %agg.tmp1359 = alloca %"class.eastl::vector.30", align 8
  %agg.tmp1363 = alloca %"class.eastl::list", align 8
  store i32 0, ptr %nErrorCount, align 4
  %call = call noundef i32 @_ZN2EA8UnitTest11GetRandSeedEv()
  %conv = zext i32 %call to i64
  call void @_ZN14EASTLTest_RandC2Em(ptr noundef nonnull align 8 dereferenceable(8) %rng, i64 noundef %conv)
  call void @llvm.memcpy.p0.p0.i64(ptr align 16 %array, ptr align 16 @__const._Z8TestSortv.array, i64 96, i1 false)
  %arraydecay = getelementptr inbounds [24 x i32], ptr %array, i64 0, i64 0
  %add.ptr = getelementptr inbounds i32, ptr %arraydecay, i64 0
  %arraydecay1 = getelementptr inbounds [24 x i32], ptr %array, i64 0, i64 0
  %add.ptr2 = getelementptr inbounds i32, ptr %arraydecay1, i64 0
  %call3 = call noundef zeroext i1 @_ZN5eastl9is_sortedIPiEEbT_S2_(ptr noundef %add.ptr, ptr noundef %add.ptr2)
  %call4 = call noundef i32 @_ZN2EA8UnitTest12TestInternal17EATEST_VERIFY_IMPEbRiPKciS4_(i1 noundef zeroext %call3, ptr noundef nonnull align 4 dereferenceable(4) %nErrorCount, ptr noundef @.str, i32 noundef 197, ptr noundef @.str.1)
  %arraydecay5 = getelementptr inbounds [24 x i32], ptr %array, i64 0, i64 0
  %add.ptr6 = getelementptr inbounds i32, ptr %arraydecay5, i64 2
  %arraydecay7 = getelementptr inbounds [24 x i32], ptr %array, i64 0, i64 0
  %add.ptr8 = getelementptr inbounds i32, ptr %arraydecay7, i64 4
  %call9 = call noundef zeroext i1 @_ZN5eastl9is_sortedIPiEEbT_S2_(ptr noundef %add.ptr6, ptr noundef %add.ptr8)
  %call10 = call noundef i32 @_ZN2EA8UnitTest12TestInternal17EATEST_VERIFY_IMPEbRiPKciS4_(i1 noundef zeroext %call9, ptr noundef nonnull align 4 dereferenceable(4) %nErrorCount, ptr noundef @.str, i32 noundef 198, ptr noundef @.str.2)
  %arraydecay11 = getelementptr inbounds [24 x i32], ptr %array, i64 0, i64 0
  %add.ptr12 = getelementptr inbounds i32, ptr %arraydecay11, i64 0
  %arraydecay13 = getelementptr inbounds [24 x i32], ptr %array, i64 0, i64 0
  %add.ptr14 = getelementptr inbounds i32, ptr %arraydecay13, i64 10
  %call15 = call noundef zeroext i1 @_ZN5eastl9is_sortedIPiEEbT_S2_(ptr noundef %add.ptr12, ptr noundef %add.ptr14)
  %call16 = call noundef i32 @_ZN2EA8UnitTest12TestInternal17EATEST_VERIFY_IMPEbRiPKciS4_(i1 noundef zeroext %call15, ptr noundef nonnull align 4 dereferenceable(4) %nErrorCount, ptr noundef @.str, i32 noundef 199, ptr noundef @.str.3)
  %arraydecay17 = getelementptr inbounds [24 x i32], ptr %array, i64 0, i64 0
  %add.ptr18 = getelementptr inbounds i32, ptr %arraydecay17, i64 0
  %arraydecay19 = getelementptr inbounds [24 x i32], ptr %array, i64 0, i64 0
  %add.ptr20 = getelementptr inbounds i32, ptr %arraydecay19, i64 14
  %call21 = call noundef zeroext i1 @_ZN5eastl9is_sortedIPiEEbT_S2_(ptr noundef %add.ptr18, ptr noundef %add.ptr20)
  %lnot = xor i1 %call21, true
  %call22 = call noundef i32 @_ZN2EA8UnitTest12TestInternal17EATEST_VERIFY_IMPEbRiPKciS4_(i1 noundef zeroext %lnot, ptr noundef nonnull align 4 dereferenceable(4) %nErrorCount, ptr noundef @.str, i32 noundef 200, ptr noundef @.str.4)
  %arraydecay23 = getelementptr inbounds [24 x i32], ptr %array, i64 0, i64 0
  %add.ptr24 = getelementptr inbounds i32, ptr %arraydecay23, i64 11
  %arraydecay25 = getelementptr inbounds [24 x i32], ptr %array, i64 0, i64 0
  %add.ptr26 = getelementptr inbounds i32, ptr %arraydecay25, i64 23
  %call27 = call noundef zeroext i1 @_ZN5eastl9is_sortedIPiNS_7greaterIiEEEEbT_S4_T0_(ptr noundef %add.ptr24, ptr noundef %add.ptr26)
  %call28 = call noundef i32 @_ZN2EA8UnitTest12TestInternal17EATEST_VERIFY_IMPEbRiPKciS4_(i1 noundef zeroext %call27, ptr noundef nonnull align 4 dereferenceable(4) %nErrorCount, ptr noundef @.str, i32 noundef 201, ptr noundef @.str.5)
  call void @llvm.memcpy.p0.p0.i64(ptr align 16 %sorted, ptr align 16 @__const._Z8TestSortv.sorted, i64 40, i1 false)
  call void @llvm.memcpy.p0.p0.i64(ptr align 16 %notsorted, ptr align 16 @__const._Z8TestSortv.notsorted, i64 40, i1 false)
  %arraydecay29 = getelementptr inbounds [10 x i32], ptr %sorted, i64 0, i64 0
  %add.ptr30 = getelementptr inbounds i32, ptr %arraydecay29, i64 10
  %arraydecay31 = getelementptr inbounds [10 x i32], ptr %sorted, i64 0, i64 0
  %add.ptr32 = getelementptr inbounds i32, ptr %arraydecay31, i64 10
  %call33 = call noundef ptr @_ZN5eastl15is_sorted_untilIPiEET_S2_S2_(ptr noundef %add.ptr30, ptr noundef %add.ptr32)
  %arraydecay34 = getelementptr inbounds [10 x i32], ptr %sorted, i64 0, i64 0
  %add.ptr35 = getelementptr inbounds i32, ptr %arraydecay34, i64 10
  %cmp = icmp eq ptr %call33, %add.ptr35
  %call36 = call noundef i32 @_ZN2EA8UnitTest12TestInternal17EATEST_VERIFY_IMPEbRiPKciS4_(i1 noundef zeroext %cmp, ptr noundef nonnull align 4 dereferenceable(4) %nErrorCount, ptr noundef @.str, i32 noundef 209, ptr noundef @.str.6)
  %arraydecay37 = getelementptr inbounds [10 x i32], ptr %sorted, i64 0, i64 0
  %arraydecay38 = getelementptr inbounds [10 x i32], ptr %sorted, i64 0, i64 0
  %add.ptr39 = getelementptr inbounds i32, ptr %arraydecay38, i64 10
  %call40 = call noundef ptr @_ZN5eastl15is_sorted_untilIPiEET_S2_S2_(ptr noundef %arraydecay37, ptr noundef %add.ptr39)
  %arraydecay41 = getelementptr inbounds [10 x i32], ptr %sorted, i64 0, i64 0
  %add.ptr42 = getelementptr inbounds i32, ptr %arraydecay41, i64 10
  %cmp43 = icmp eq ptr %call40, %add.ptr42
  %call44 = call noundef i32 @_ZN2EA8UnitTest12TestInternal17EATEST_VERIFY_IMPEbRiPKciS4_(i1 noundef zeroext %cmp43, ptr noundef nonnull align 4 dereferenceable(4) %nErrorCount, ptr noundef @.str, i32 noundef 210, ptr noundef @.str.7)
  %arraydecay45 = getelementptr inbounds [10 x i32], ptr %sorted, i64 0, i64 0
  %add.ptr46 = getelementptr inbounds i32, ptr %arraydecay45, i64 0
  %arraydecay47 = getelementptr inbounds [10 x i32], ptr %sorted, i64 0, i64 0
  %add.ptr48 = getelementptr inbounds i32, ptr %arraydecay47, i64 0
  %call49 = call noundef ptr @_ZN5eastl15is_sorted_untilIPiEET_S2_S2_(ptr noundef %add.ptr46, ptr noundef %add.ptr48)
  %arraydecay50 = getelementptr inbounds [10 x i32], ptr %sorted, i64 0, i64 0
  %cmp51 = icmp eq ptr %call49, %arraydecay50
  %call52 = call noundef i32 @_ZN2EA8UnitTest12TestInternal17EATEST_VERIFY_IMPEbRiPKciS4_(i1 noundef zeroext %cmp51, ptr noundef nonnull align 4 dereferenceable(4) %nErrorCount, ptr noundef @.str, i32 noundef 212, ptr noundef @.str.8)
  %arraydecay53 = getelementptr inbounds [10 x i32], ptr %sorted, i64 0, i64 0
  %add.ptr54 = getelementptr inbounds i32, ptr %arraydecay53, i64 2
  %arraydecay55 = getelementptr inbounds [10 x i32], ptr %sorted, i64 0, i64 0
  %add.ptr56 = getelementptr inbounds i32, ptr %arraydecay55, i64 8
  %call57 = call noundef ptr @_ZN5eastl15is_sorted_untilIPiEET_S2_S2_(ptr noundef %add.ptr54, ptr noundef %add.ptr56)
  %arraydecay58 = getelementptr inbounds [10 x i32], ptr %sorted, i64 0, i64 0
  %add.ptr59 = getelementptr inbounds i32, ptr %arraydecay58, i64 8
  %cmp60 = icmp eq ptr %call57, %add.ptr59
  %call61 = call noundef i32 @_ZN2EA8UnitTest12TestInternal17EATEST_VERIFY_IMPEbRiPKciS4_(i1 noundef zeroext %cmp60, ptr noundef nonnull align 4 dereferenceable(4) %nErrorCount, ptr noundef @.str, i32 noundef 213, ptr noundef @.str.9)
  %arraydecay62 = getelementptr inbounds [10 x i32], ptr %notsorted, i64 0, i64 0
  %add.ptr63 = getelementptr inbounds i32, ptr %arraydecay62, i64 2
  %arraydecay64 = getelementptr inbounds [10 x i32], ptr %notsorted, i64 0, i64 0
  %add.ptr65 = getelementptr inbounds i32, ptr %arraydecay64, i64 8
  %call66 = call noundef ptr @_ZN5eastl15is_sorted_untilIPiEET_S2_S2_(ptr noundef %add.ptr63, ptr noundef %add.ptr65)
  %arraydecay67 = getelementptr inbounds [10 x i32], ptr %notsorted, i64 0, i64 0
  %add.ptr68 = getelementptr inbounds i32, ptr %arraydecay67, i64 6
  %cmp69 = icmp eq ptr %call66, %add.ptr68
  %call70 = call noundef i32 @_ZN2EA8UnitTest12TestInternal17EATEST_VERIFY_IMPEbRiPKciS4_(i1 noundef zeroext %cmp69, ptr noundef nonnull align 4 dereferenceable(4) %nErrorCount, ptr noundef @.str, i32 noundef 215, ptr noundef @.str.10)
  %arraydecay71 = getelementptr inbounds [10 x i32], ptr %sorted, i64 0, i64 0
  %add.ptr72 = getelementptr inbounds i32, ptr %arraydecay71, i64 10
  %arraydecay73 = getelementptr inbounds [10 x i32], ptr %sorted, i64 0, i64 0
  %add.ptr74 = getelementptr inbounds i32, ptr %arraydecay73, i64 10
  %call76 = call noundef ptr @_ZN5eastl15is_sorted_untilIPiNS_4lessIiEEEET_S4_S4_T0_(ptr noundef %add.ptr72, ptr noundef %add.ptr74)
  %arraydecay77 = getelementptr inbounds [10 x i32], ptr %sorted, i64 0, i64 0
  %add.ptr78 = getelementptr inbounds i32, ptr %arraydecay77, i64 10
  %cmp79 = icmp eq ptr %call76, %add.ptr78
  %call80 = call noundef i32 @_ZN2EA8UnitTest12TestInternal17EATEST_VERIFY_IMPEbRiPKciS4_(i1 noundef zeroext %cmp79, ptr noundef nonnull align 4 dereferenceable(4) %nErrorCount, ptr noundef @.str, i32 noundef 218, ptr noundef @.str.11)
  %arraydecay81 = getelementptr inbounds [10 x i32], ptr %notsorted, i64 0, i64 0
  %add.ptr82 = getelementptr inbounds i32, ptr %arraydecay81, i64 2
  %arraydecay83 = getelementptr inbounds [10 x i32], ptr %notsorted, i64 0, i64 0
  %add.ptr84 = getelementptr inbounds i32, ptr %arraydecay83, i64 8
  %call86 = call noundef ptr @_ZN5eastl15is_sorted_untilIPiNS_4lessIiEEEET_S4_S4_T0_(ptr noundef %add.ptr82, ptr noundef %add.ptr84)
  %arraydecay87 = getelementptr inbounds [10 x i32], ptr %notsorted, i64 0, i64 0
  %add.ptr88 = getelementptr inbounds i32, ptr %arraydecay87, i64 6
  %cmp89 = icmp eq ptr %call86, %add.ptr88
  %call90 = call noundef i32 @_ZN2EA8UnitTest12TestInternal17EATEST_VERIFY_IMPEbRiPKciS4_(i1 noundef zeroext %cmp89, ptr noundef nonnull align 4 dereferenceable(4) %nErrorCount, ptr noundef @.str, i32 noundef 219, ptr noundef @.str.12)
  call void @_ZN5eastl6vectorIlNS_9allocatorEEC2Ev(ptr noundef nonnull align 8 dereferenceable(24) %intArray)
  invoke void @_ZN5eastl6vectorIlNS_9allocatorEEC2Ev(ptr noundef nonnull align 8 dereferenceable(24) %intArraySaved)
          to label %invoke.cont unwind label %lpad

invoke.cont:                                      ; preds = %entry
  store i32 0, ptr %i, align 4
  br label %for.cond

for.cond:                                         ; preds = %for.inc360, %invoke.cont
  %0 = load i32, ptr %i, align 4
  %1 = load i32, ptr @gEASTL_TestLevel, align 4
  %mul = mul nsw i32 %1, 200
  %add = add nsw i32 150, %mul
  %cmp91 = icmp slt i32 %0, %add
  br i1 %cmp91, label %for.body, label %for.end363

for.body:                                         ; preds = %for.cond
  store i32 0, ptr %n, align 4
  br label %for.cond92

for.cond92:                                       ; preds = %for.inc, %for.body
  %2 = load i32, ptr %n, align 4
  %3 = load i32, ptr %i, align 4
  %cmp93 = icmp slt i32 %2, %3
  br i1 %cmp93, label %for.body94, label %for.end

for.body94:                                       ; preds = %for.cond92
  %4 = load i32, ptr %n, align 4
  %conv95 = sext i32 %4 to i64
  store i64 %conv95, ptr %ref.tmp, align 8
  invoke void @_ZN5eastl6vectorIlNS_9allocatorEE9push_backEOl(ptr noundef nonnull align 8 dereferenceable(24) %intArraySaved, ptr noundef nonnull align 8 dereferenceable(8) %ref.tmp)
          to label %invoke.cont97 unwind label %lpad96

invoke.cont97:                                    ; preds = %for.body94
  %call99 = invoke noundef i64 @_ZN14EASTLTest_Rand9RandLimitEm(ptr noundef nonnull align 8 dereferenceable(8) %rng, i64 noundef 10)
          to label %invoke.cont98 unwind label %lpad96

invoke.cont98:                                    ; preds = %invoke.cont97
  %cmp100 = icmp eq i64 %call99, 0
  br i1 %cmp100, label %if.then, label %if.end111

if.then:                                          ; preds = %invoke.cont98
  %5 = load i32, ptr %n, align 4
  %conv102 = sext i32 %5 to i64
  store i64 %conv102, ptr %ref.tmp101, align 8
  invoke void @_ZN5eastl6vectorIlNS_9allocatorEE9push_backEOl(ptr noundef nonnull align 8 dereferenceable(24) %intArraySaved, ptr noundef nonnull align 8 dereferenceable(8) %ref.tmp101)
          to label %invoke.cont103 unwind label %lpad96

invoke.cont103:                                   ; preds = %if.then
  %call105 = invoke noundef i64 @_ZN14EASTLTest_Rand9RandLimitEm(ptr noundef nonnull align 8 dereferenceable(8) %rng, i64 noundef 5)
          to label %invoke.cont104 unwind label %lpad96

invoke.cont104:                                   ; preds = %invoke.cont103
  %cmp106 = icmp eq i64 %call105, 0
  br i1 %cmp106, label %if.then107, label %if.end

if.then107:                                       ; preds = %invoke.cont104
  %6 = load i32, ptr %n, align 4
  %conv109 = sext i32 %6 to i64
  store i64 %conv109, ptr %ref.tmp108, align 8
  invoke void @_ZN5eastl6vectorIlNS_9allocatorEE9push_backEOl(ptr noundef nonnull align 8 dereferenceable(24) %intArraySaved, ptr noundef nonnull align 8 dereferenceable(8) %ref.tmp108)
          to label %invoke.cont110 unwind label %lpad96

invoke.cont110:                                   ; preds = %if.then107
  br label %if.end

lpad:                                             ; preds = %entry
  %7 = landingpad { ptr, i32 }
          cleanup
  %8 = extractvalue { ptr, i32 } %7, 0
  store ptr %8, ptr %exn.slot, align 8
  %9 = extractvalue { ptr, i32 } %7, 1
  store i32 %9, ptr %ehselector.slot, align 4
  br label %ehcleanup364

lpad96:                                           ; preds = %invoke.cont292, %invoke.cont288, %invoke.cont286, %invoke.cont283, %invoke.cont281, %invoke.cont279, %invoke.cont277, %invoke.cont275, %invoke.cont272, %invoke.cont270, %invoke.cont266, %invoke.cont264, %invoke.cont261, %invoke.cont259, %invoke.cont257, %invoke.cont255, %invoke.cont253, %invoke.cont250, %invoke.cont246, %invoke.cont244, %invoke.cont241, %invoke.cont239, %invoke.cont237, %invoke.cont235, %invoke.cont233, %invoke.cont230, %invoke.cont226, %invoke.cont224, %invoke.cont221, %invoke.cont219, %invoke.cont217, %invoke.cont215, %invoke.cont213, %invoke.cont210, %invoke.cont206, %invoke.cont204, %invoke.cont201, %invoke.cont199, %invoke.cont197, %invoke.cont195, %invoke.cont193, %invoke.cont190, %invoke.cont186, %invoke.cont184, %invoke.cont181, %invoke.cont179, %invoke.cont177, %invoke.cont175, %invoke.cont173, %invoke.cont170, %invoke.cont166, %invoke.cont164, %invoke.cont161, %invoke.cont159, %invoke.cont157, %invoke.cont155, %invoke.cont153, %invoke.cont150, %invoke.cont146, %invoke.cont144, %invoke.cont141, %invoke.cont139, %invoke.cont137, %invoke.cont135, %invoke.cont133, %invoke.cont130, %invoke.cont126, %invoke.cont125, %for.body122, %invoke.cont114, %invoke.cont112, %for.end, %if.then107, %invoke.cont103, %if.then, %invoke.cont97, %for.body94
  %10 = landingpad { ptr, i32 }
          cleanup
  %11 = extractvalue { ptr, i32 } %10, 0
  store ptr %11, ptr %exn.slot, align 8
  %12 = extractvalue { ptr, i32 } %10, 1
  store i32 %12, ptr %ehselector.slot, align 4
  br label %ehcleanup

if.end:                                           ; preds = %invoke.cont110, %invoke.cont104
  br label %if.end111

if.end111:                                        ; preds = %if.end, %invoke.cont98
  br label %for.inc

for.inc:                                          ; preds = %if.end111
  %13 = load i32, ptr %n, align 4
  %inc = add nsw i32 %13, 1
  store i32 %inc, ptr %n, align 4
  br label %for.cond92, !llvm.loop !5

for.end:                                          ; preds = %for.cond92
  %call113 = invoke noundef ptr @_ZN5eastl5beginINS_6vectorIlNS_9allocatorEEEEEDTcldtfp_5beginEERT_(ptr noundef nonnull align 8 dereferenceable(24) %intArraySaved)
          to label %invoke.cont112 unwind label %lpad96

invoke.cont112:                                   ; preds = %for.end
  %call115 = invoke noundef ptr @_ZN5eastl3endINS_6vectorIlNS_9allocatorEEEEEDTcldtfp_3endEERT_(ptr noundef nonnull align 8 dereferenceable(24) %intArraySaved)
          to label %invoke.cont114 unwind label %lpad96

invoke.cont114:                                   ; preds = %invoke.cont112
  %call117 = invoke noundef i64 @_ZN5eastl10accumulateIPllEET0_T_S3_S2_(ptr noundef %call113, ptr noundef %call115, i64 noundef 0)
          to label %invoke.cont116 unwind label %lpad96

invoke.cont116:                                   ; preds = %invoke.cont114
  store i64 %call117, ptr %expectedSum, align 8
  store i32 0, ptr %j, align 4
  br label %for.cond118

for.cond118:                                      ; preds = %for.inc357, %invoke.cont116
  %14 = load i32, ptr %j, align 4
  %15 = load i32, ptr @gEASTL_TestLevel, align 4
  %mul119 = mul nsw i32 %15, 50
  %add120 = add nsw i32 300, %mul119
  %cmp121 = icmp slt i32 %14, %add120
  br i1 %cmp121, label %for.body122, label %for.end359

for.body122:                                      ; preds = %for.cond118
  %call123 = call noundef ptr @_ZN5eastl6vectorIlNS_9allocatorEE5beginEv(ptr noundef nonnull align 8 dereferenceable(24) %intArraySaved) #9
  %call124 = call noundef ptr @_ZN5eastl6vectorIlNS_9allocatorEE3endEv(ptr noundef nonnull align 8 dereferenceable(24) %intArraySaved) #9
  invoke void @_ZN5eastl14random_shuffleIPlR14EASTLTest_RandEEvT_S4_OT0_(ptr noundef %call123, ptr noundef %call124, ptr noundef nonnull align 8 dereferenceable(8) %rng)
          to label %invoke.cont125 unwind label %lpad96

invoke.cont125:                                   ; preds = %for.body122
  %call127 = invoke noundef nonnull align 8 dereferenceable(24) ptr @_ZN5eastl6vectorIlNS_9allocatorEEaSERKS2_(ptr noundef nonnull align 8 dereferenceable(24) %intArray, ptr noundef nonnull align 8 dereferenceable(24) %intArraySaved)
          to label %invoke.cont126 unwind label %lpad96

invoke.cont126:                                   ; preds = %invoke.cont125
  %call128 = call noundef ptr @_ZN5eastl6vectorIlNS_9allocatorEE5beginEv(ptr noundef nonnull align 8 dereferenceable(24) %intArray) #9
  %call129 = call noundef ptr @_ZN5eastl6vectorIlNS_9allocatorEE3endEv(ptr noundef nonnull align 8 dereferenceable(24) %intArray) #9
  invoke void @_ZN5eastl11bubble_sortIPlEEvT_S2_(ptr noundef %call128, ptr noundef %call129)
          to label %invoke.cont130 unwind label %lpad96

invoke.cont130:                                   ; preds = %invoke.cont126
  %call131 = call noundef ptr @_ZN5eastl6vectorIlNS_9allocatorEE5beginEv(ptr noundef nonnull align 8 dereferenceable(24) %intArray) #9
  %call132 = call noundef ptr @_ZN5eastl6vectorIlNS_9allocatorEE3endEv(ptr noundef nonnull align 8 dereferenceable(24) %intArray) #9
  %call134 = invoke noundef zeroext i1 @_ZN5eastl9is_sortedIPlEEbT_S2_(ptr noundef %call131, ptr noundef %call132)
          to label %invoke.cont133 unwind label %lpad96

invoke.cont133:                                   ; preds = %invoke.cont130
  %call136 = invoke noundef i32 @_ZN2EA8UnitTest12TestInternal17EATEST_VERIFY_IMPEbRiPKciS4_(i1 noundef zeroext %call134, ptr noundef nonnull align 4 dereferenceable(4) %nErrorCount, ptr noundef @.str, i32 noundef 250, ptr noundef @.str.13)
          to label %invoke.cont135 unwind label %lpad96

invoke.cont135:                                   ; preds = %invoke.cont133
  %call138 = invoke noundef ptr @_ZN5eastl5beginINS_6vectorIlNS_9allocatorEEEEEDTcldtfp_5beginEERT_(ptr noundef nonnull align 8 dereferenceable(24) %intArraySaved)
          to label %invoke.cont137 unwind label %lpad96

invoke.cont137:                                   ; preds = %invoke.cont135
  %call140 = invoke noundef ptr @_ZN5eastl3endINS_6vectorIlNS_9allocatorEEEEEDTcldtfp_3endEERT_(ptr noundef nonnull align 8 dereferenceable(24) %intArraySaved)
          to label %invoke.cont139 unwind label %lpad96

invoke.cont139:                                   ; preds = %invoke.cont137
  %call142 = invoke noundef i64 @_ZN5eastl10accumulateIPllEET0_T_S3_S2_(ptr noundef %call138, ptr noundef %call140, i64 noundef 0)
          to label %invoke.cont141 unwind label %lpad96

invoke.cont141:                                   ; preds = %invoke.cont139
  %16 = load i64, ptr %expectedSum, align 8
  %cmp143 = icmp eq i64 %call142, %16
  %call145 = invoke noundef i32 @_ZN2EA8UnitTest12TestInternal17EATEST_VERIFY_IMPEbRiPKciS4_(i1 noundef zeroext %cmp143, ptr noundef nonnull align 4 dereferenceable(4) %nErrorCount, ptr noundef @.str, i32 noundef 251, ptr noundef @.str.14)
          to label %invoke.cont144 unwind label %lpad96

invoke.cont144:                                   ; preds = %invoke.cont141
  %call147 = invoke noundef nonnull align 8 dereferenceable(24) ptr @_ZN5eastl6vectorIlNS_9allocatorEEaSERKS2_(ptr noundef nonnull align 8 dereferenceable(24) %intArray, ptr noundef nonnull align 8 dereferenceable(24) %intArraySaved)
          to label %invoke.cont146 unwind label %lpad96

invoke.cont146:                                   ; preds = %invoke.cont144
  %call148 = call noundef ptr @_ZN5eastl6vectorIlNS_9allocatorEE5beginEv(ptr noundef nonnull align 8 dereferenceable(24) %intArray) #9
  %call149 = call noundef ptr @_ZN5eastl6vectorIlNS_9allocatorEE3endEv(ptr noundef nonnull align 8 dereferenceable(24) %intArray) #9
  invoke void @_ZN5eastl11shaker_sortIPlEEvT_S2_(ptr noundef %call148, ptr noundef %call149)
          to label %invoke.cont150 unwind label %lpad96

invoke.cont150:                                   ; preds = %invoke.cont146
  %call151 = call noundef ptr @_ZN5eastl6vectorIlNS_9allocatorEE5beginEv(ptr noundef nonnull align 8 dereferenceable(24) %intArray) #9
  %call152 = call noundef ptr @_ZN5eastl6vectorIlNS_9allocatorEE3endEv(ptr noundef nonnull align 8 dereferenceable(24) %intArray) #9
  %call154 = invoke noundef zeroext i1 @_ZN5eastl9is_sortedIPlEEbT_S2_(ptr noundef %call151, ptr noundef %call152)
          to label %invoke.cont153 unwind label %lpad96

invoke.cont153:                                   ; preds = %invoke.cont150
  %call156 = invoke noundef i32 @_ZN2EA8UnitTest12TestInternal17EATEST_VERIFY_IMPEbRiPKciS4_(i1 noundef zeroext %call154, ptr noundef nonnull align 4 dereferenceable(4) %nErrorCount, ptr noundef @.str, i32 noundef 255, ptr noundef @.str.13)
          to label %invoke.cont155 unwind label %lpad96

invoke.cont155:                                   ; preds = %invoke.cont153
  %call158 = invoke noundef ptr @_ZN5eastl5beginINS_6vectorIlNS_9allocatorEEEEEDTcldtfp_5beginEERT_(ptr noundef nonnull align 8 dereferenceable(24) %intArraySaved)
          to label %invoke.cont157 unwind label %lpad96

invoke.cont157:                                   ; preds = %invoke.cont155
  %call160 = invoke noundef ptr @_ZN5eastl3endINS_6vectorIlNS_9allocatorEEEEEDTcldtfp_3endEERT_(ptr noundef nonnull align 8 dereferenceable(24) %intArraySaved)
          to label %invoke.cont159 unwind label %lpad96

invoke.cont159:                                   ; preds = %invoke.cont157
  %call162 = invoke noundef i64 @_ZN5eastl10accumulateIPllEET0_T_S3_S2_(ptr noundef %call158, ptr noundef %call160, i64 noundef 0)
          to label %invoke.cont161 unwind label %lpad96

invoke.cont161:                                   ; preds = %invoke.cont159
  %17 = load i64, ptr %expectedSum, align 8
  %cmp163 = icmp eq i64 %call162, %17
  %call165 = invoke noundef i32 @_ZN2EA8UnitTest12TestInternal17EATEST_VERIFY_IMPEbRiPKciS4_(i1 noundef zeroext %cmp163, ptr noundef nonnull align 4 dereferenceable(4) %nErrorCount, ptr noundef @.str, i32 noundef 256, ptr noundef @.str.14)
          to label %invoke.cont164 unwind label %lpad96

invoke.cont164:                                   ; preds = %invoke.cont161
  %call167 = invoke noundef nonnull align 8 dereferenceable(24) ptr @_ZN5eastl6vectorIlNS_9allocatorEEaSERKS2_(ptr noundef nonnull align 8 dereferenceable(24) %intArray, ptr noundef nonnull align 8 dereferenceable(24) %intArraySaved)
          to label %invoke.cont166 unwind label %lpad96

invoke.cont166:                                   ; preds = %invoke.cont164
  %call168 = call noundef ptr @_ZN5eastl6vectorIlNS_9allocatorEE5beginEv(ptr noundef nonnull align 8 dereferenceable(24) %intArray) #9
  %call169 = call noundef ptr @_ZN5eastl6vectorIlNS_9allocatorEE3endEv(ptr noundef nonnull align 8 dereferenceable(24) %intArray) #9
  invoke void @_ZN5eastl14insertion_sortIPlEEvT_S2_(ptr noundef %call168, ptr noundef %call169)
          to label %invoke.cont170 unwind label %lpad96

invoke.cont170:                                   ; preds = %invoke.cont166
  %call171 = call noundef ptr @_ZN5eastl6vectorIlNS_9allocatorEE5beginEv(ptr noundef nonnull align 8 dereferenceable(24) %intArray) #9
  %call172 = call noundef ptr @_ZN5eastl6vectorIlNS_9allocatorEE3endEv(ptr noundef nonnull align 8 dereferenceable(24) %intArray) #9
  %call174 = invoke noundef zeroext i1 @_ZN5eastl9is_sortedIPlEEbT_S2_(ptr noundef %call171, ptr noundef %call172)
          to label %invoke.cont173 unwind label %lpad96

invoke.cont173:                                   ; preds = %invoke.cont170
  %call176 = invoke noundef i32 @_ZN2EA8UnitTest12TestInternal17EATEST_VERIFY_IMPEbRiPKciS4_(i1 noundef zeroext %call174, ptr noundef nonnull align 4 dereferenceable(4) %nErrorCount, ptr noundef @.str, i32 noundef 260, ptr noundef @.str.13)
          to label %invoke.cont175 unwind label %lpad96

invoke.cont175:                                   ; preds = %invoke.cont173
  %call178 = invoke noundef ptr @_ZN5eastl5beginINS_6vectorIlNS_9allocatorEEEEEDTcldtfp_5beginEERT_(ptr noundef nonnull align 8 dereferenceable(24) %intArraySaved)
          to label %invoke.cont177 unwind label %lpad96

invoke.cont177:                                   ; preds = %invoke.cont175
  %call180 = invoke noundef ptr @_ZN5eastl3endINS_6vectorIlNS_9allocatorEEEEEDTcldtfp_3endEERT_(ptr noundef nonnull align 8 dereferenceable(24) %intArraySaved)
          to label %invoke.cont179 unwind label %lpad96

invoke.cont179:                                   ; preds = %invoke.cont177
  %call182 = invoke noundef i64 @_ZN5eastl10accumulateIPllEET0_T_S3_S2_(ptr noundef %call178, ptr noundef %call180, i64 noundef 0)
          to label %invoke.cont181 unwind label %lpad96

invoke.cont181:                                   ; preds = %invoke.cont179
  %18 = load i64, ptr %expectedSum, align 8
  %cmp183 = icmp eq i64 %call182, %18
  %call185 = invoke noundef i32 @_ZN2EA8UnitTest12TestInternal17EATEST_VERIFY_IMPEbRiPKciS4_(i1 noundef zeroext %cmp183, ptr noundef nonnull align 4 dereferenceable(4) %nErrorCount, ptr noundef @.str, i32 noundef 261, ptr noundef @.str.14)
          to label %invoke.cont184 unwind label %lpad96

invoke.cont184:                                   ; preds = %invoke.cont181
  %call187 = invoke noundef nonnull align 8 dereferenceable(24) ptr @_ZN5eastl6vectorIlNS_9allocatorEEaSERKS2_(ptr noundef nonnull align 8 dereferenceable(24) %intArray, ptr noundef nonnull align 8 dereferenceable(24) %intArraySaved)
          to label %invoke.cont186 unwind label %lpad96

invoke.cont186:                                   ; preds = %invoke.cont184
  %call188 = call noundef ptr @_ZN5eastl6vectorIlNS_9allocatorEE5beginEv(ptr noundef nonnull align 8 dereferenceable(24) %intArray) #9
  %call189 = call noundef ptr @_ZN5eastl6vectorIlNS_9allocatorEE3endEv(ptr noundef nonnull align 8 dereferenceable(24) %intArray) #9
  invoke void @_ZN5eastl14selection_sortIPlEEvT_S2_(ptr noundef %call188, ptr noundef %call189)
          to label %invoke.cont190 unwind label %lpad96

invoke.cont190:                                   ; preds = %invoke.cont186
  %call191 = call noundef ptr @_ZN5eastl6vectorIlNS_9allocatorEE5beginEv(ptr noundef nonnull align 8 dereferenceable(24) %intArray) #9
  %call192 = call noundef ptr @_ZN5eastl6vectorIlNS_9allocatorEE3endEv(ptr noundef nonnull align 8 dereferenceable(24) %intArray) #9
  %call194 = invoke noundef zeroext i1 @_ZN5eastl9is_sortedIPlEEbT_S2_(ptr noundef %call191, ptr noundef %call192)
          to label %invoke.cont193 unwind label %lpad96

invoke.cont193:                                   ; preds = %invoke.cont190
  %call196 = invoke noundef i32 @_ZN2EA8UnitTest12TestInternal17EATEST_VERIFY_IMPEbRiPKciS4_(i1 noundef zeroext %call194, ptr noundef nonnull align 4 dereferenceable(4) %nErrorCount, ptr noundef @.str, i32 noundef 265, ptr noundef @.str.13)
          to label %invoke.cont195 unwind label %lpad96

invoke.cont195:                                   ; preds = %invoke.cont193
  %call198 = invoke noundef ptr @_ZN5eastl5beginINS_6vectorIlNS_9allocatorEEEEEDTcldtfp_5beginEERT_(ptr noundef nonnull align 8 dereferenceable(24) %intArraySaved)
          to label %invoke.cont197 unwind label %lpad96

invoke.cont197:                                   ; preds = %invoke.cont195
  %call200 = invoke noundef ptr @_ZN5eastl3endINS_6vectorIlNS_9allocatorEEEEEDTcldtfp_3endEERT_(ptr noundef nonnull align 8 dereferenceable(24) %intArraySaved)
          to label %invoke.cont199 unwind label %lpad96

invoke.cont199:                                   ; preds = %invoke.cont197
  %call202 = invoke noundef i64 @_ZN5eastl10accumulateIPllEET0_T_S3_S2_(ptr noundef %call198, ptr noundef %call200, i64 noundef 0)
          to label %invoke.cont201 unwind label %lpad96

invoke.cont201:                                   ; preds = %invoke.cont199
  %19 = load i64, ptr %expectedSum, align 8
  %cmp203 = icmp eq i64 %call202, %19
  %call205 = invoke noundef i32 @_ZN2EA8UnitTest12TestInternal17EATEST_VERIFY_IMPEbRiPKciS4_(i1 noundef zeroext %cmp203, ptr noundef nonnull align 4 dereferenceable(4) %nErrorCount, ptr noundef @.str, i32 noundef 266, ptr noundef @.str.14)
          to label %invoke.cont204 unwind label %lpad96

invoke.cont204:                                   ; preds = %invoke.cont201
  %call207 = invoke noundef nonnull align 8 dereferenceable(24) ptr @_ZN5eastl6vectorIlNS_9allocatorEEaSERKS2_(ptr noundef nonnull align 8 dereferenceable(24) %intArray, ptr noundef nonnull align 8 dereferenceable(24) %intArraySaved)
          to label %invoke.cont206 unwind label %lpad96

invoke.cont206:                                   ; preds = %invoke.cont204
  %call208 = call noundef ptr @_ZN5eastl6vectorIlNS_9allocatorEE5beginEv(ptr noundef nonnull align 8 dereferenceable(24) %intArray) #9
  %call209 = call noundef ptr @_ZN5eastl6vectorIlNS_9allocatorEE3endEv(ptr noundef nonnull align 8 dereferenceable(24) %intArray) #9
  invoke void @_ZN5eastl10shell_sortIPlEEvT_S2_(ptr noundef %call208, ptr noundef %call209)
          to label %invoke.cont210 unwind label %lpad96

invoke.cont210:                                   ; preds = %invoke.cont206
  %call211 = call noundef ptr @_ZN5eastl6vectorIlNS_9allocatorEE5beginEv(ptr noundef nonnull align 8 dereferenceable(24) %intArray) #9
  %call212 = call noundef ptr @_ZN5eastl6vectorIlNS_9allocatorEE3endEv(ptr noundef nonnull align 8 dereferenceable(24) %intArray) #9
  %call214 = invoke noundef zeroext i1 @_ZN5eastl9is_sortedIPlEEbT_S2_(ptr noundef %call211, ptr noundef %call212)
          to label %invoke.cont213 unwind label %lpad96

invoke.cont213:                                   ; preds = %invoke.cont210
  %call216 = invoke noundef i32 @_ZN2EA8UnitTest12TestInternal17EATEST_VERIFY_IMPEbRiPKciS4_(i1 noundef zeroext %call214, ptr noundef nonnull align 4 dereferenceable(4) %nErrorCount, ptr noundef @.str, i32 noundef 270, ptr noundef @.str.13)
          to label %invoke.cont215 unwind label %lpad96

invoke.cont215:                                   ; preds = %invoke.cont213
  %call218 = invoke noundef ptr @_ZN5eastl5beginINS_6vectorIlNS_9allocatorEEEEEDTcldtfp_5beginEERT_(ptr noundef nonnull align 8 dereferenceable(24) %intArraySaved)
          to label %invoke.cont217 unwind label %lpad96

invoke.cont217:                                   ; preds = %invoke.cont215
  %call220 = invoke noundef ptr @_ZN5eastl3endINS_6vectorIlNS_9allocatorEEEEEDTcldtfp_3endEERT_(ptr noundef nonnull align 8 dereferenceable(24) %intArraySaved)
          to label %invoke.cont219 unwind label %lpad96

invoke.cont219:                                   ; preds = %invoke.cont217
  %call222 = invoke noundef i64 @_ZN5eastl10accumulateIPllEET0_T_S3_S2_(ptr noundef %call218, ptr noundef %call220, i64 noundef 0)
          to label %invoke.cont221 unwind label %lpad96

invoke.cont221:                                   ; preds = %invoke.cont219
  %20 = load i64, ptr %expectedSum, align 8
  %cmp223 = icmp eq i64 %call222, %20
  %call225 = invoke noundef i32 @_ZN2EA8UnitTest12TestInternal17EATEST_VERIFY_IMPEbRiPKciS4_(i1 noundef zeroext %cmp223, ptr noundef nonnull align 4 dereferenceable(4) %nErrorCount, ptr noundef @.str, i32 noundef 271, ptr noundef @.str.14)
          to label %invoke.cont224 unwind label %lpad96

invoke.cont224:                                   ; preds = %invoke.cont221
  %call227 = invoke noundef nonnull align 8 dereferenceable(24) ptr @_ZN5eastl6vectorIlNS_9allocatorEEaSERKS2_(ptr noundef nonnull align 8 dereferenceable(24) %intArray, ptr noundef nonnull align 8 dereferenceable(24) %intArraySaved)
          to label %invoke.cont226 unwind label %lpad96

invoke.cont226:                                   ; preds = %invoke.cont224
  %call228 = call noundef ptr @_ZN5eastl6vectorIlNS_9allocatorEE5beginEv(ptr noundef nonnull align 8 dereferenceable(24) %intArray) #9
  %call229 = call noundef ptr @_ZN5eastl6vectorIlNS_9allocatorEE3endEv(ptr noundef nonnull align 8 dereferenceable(24) %intArray) #9
  invoke void @_ZN5eastl9comb_sortIPlEEvT_S2_(ptr noundef %call228, ptr noundef %call229)
          to label %invoke.cont230 unwind label %lpad96

invoke.cont230:                                   ; preds = %invoke.cont226
  %call231 = call noundef ptr @_ZN5eastl6vectorIlNS_9allocatorEE5beginEv(ptr noundef nonnull align 8 dereferenceable(24) %intArray) #9
  %call232 = call noundef ptr @_ZN5eastl6vectorIlNS_9allocatorEE3endEv(ptr noundef nonnull align 8 dereferenceable(24) %intArray) #9
  %call234 = invoke noundef zeroext i1 @_ZN5eastl9is_sortedIPlEEbT_S2_(ptr noundef %call231, ptr noundef %call232)
          to label %invoke.cont233 unwind label %lpad96

invoke.cont233:                                   ; preds = %invoke.cont230
  %call236 = invoke noundef i32 @_ZN2EA8UnitTest12TestInternal17EATEST_VERIFY_IMPEbRiPKciS4_(i1 noundef zeroext %call234, ptr noundef nonnull align 4 dereferenceable(4) %nErrorCount, ptr noundef @.str, i32 noundef 275, ptr noundef @.str.13)
          to label %invoke.cont235 unwind label %lpad96

invoke.cont235:                                   ; preds = %invoke.cont233
  %call238 = invoke noundef ptr @_ZN5eastl5beginINS_6vectorIlNS_9allocatorEEEEEDTcldtfp_5beginEERT_(ptr noundef nonnull align 8 dereferenceable(24) %intArraySaved)
          to label %invoke.cont237 unwind label %lpad96

invoke.cont237:                                   ; preds = %invoke.cont235
  %call240 = invoke noundef ptr @_ZN5eastl3endINS_6vectorIlNS_9allocatorEEEEEDTcldtfp_3endEERT_(ptr noundef nonnull align 8 dereferenceable(24) %intArraySaved)
          to label %invoke.cont239 unwind label %lpad96

invoke.cont239:                                   ; preds = %invoke.cont237
  %call242 = invoke noundef i64 @_ZN5eastl10accumulateIPllEET0_T_S3_S2_(ptr noundef %call238, ptr noundef %call240, i64 noundef 0)
          to label %invoke.cont241 unwind label %lpad96

invoke.cont241:                                   ; preds = %invoke.cont239
  %21 = load i64, ptr %expectedSum, align 8
  %cmp243 = icmp eq i64 %call242, %21
  %call245 = invoke noundef i32 @_ZN2EA8UnitTest12TestInternal17EATEST_VERIFY_IMPEbRiPKciS4_(i1 noundef zeroext %cmp243, ptr noundef nonnull align 4 dereferenceable(4) %nErrorCount, ptr noundef @.str, i32 noundef 276, ptr noundef @.str.14)
          to label %invoke.cont244 unwind label %lpad96

invoke.cont244:                                   ; preds = %invoke.cont241
  %call247 = invoke noundef nonnull align 8 dereferenceable(24) ptr @_ZN5eastl6vectorIlNS_9allocatorEEaSERKS2_(ptr noundef nonnull align 8 dereferenceable(24) %intArray, ptr noundef nonnull align 8 dereferenceable(24) %intArraySaved)
          to label %invoke.cont246 unwind label %lpad96

invoke.cont246:                                   ; preds = %invoke.cont244
  %call248 = call noundef ptr @_ZN5eastl6vectorIlNS_9allocatorEE5beginEv(ptr noundef nonnull align 8 dereferenceable(24) %intArray) #9
  %call249 = call noundef ptr @_ZN5eastl6vectorIlNS_9allocatorEE3endEv(ptr noundef nonnull align 8 dereferenceable(24) %intArray) #9
  invoke void @_ZN5eastl9heap_sortIPlEEvT_S2_(ptr noundef %call248, ptr noundef %call249)
          to label %invoke.cont250 unwind label %lpad96

invoke.cont250:                                   ; preds = %invoke.cont246
  %call251 = call noundef ptr @_ZN5eastl6vectorIlNS_9allocatorEE5beginEv(ptr noundef nonnull align 8 dereferenceable(24) %intArray) #9
  %call252 = call noundef ptr @_ZN5eastl6vectorIlNS_9allocatorEE3endEv(ptr noundef nonnull align 8 dereferenceable(24) %intArray) #9
  %call254 = invoke noundef zeroext i1 @_ZN5eastl9is_sortedIPlEEbT_S2_(ptr noundef %call251, ptr noundef %call252)
          to label %invoke.cont253 unwind label %lpad96

invoke.cont253:                                   ; preds = %invoke.cont250
  %call256 = invoke noundef i32 @_ZN2EA8UnitTest12TestInternal17EATEST_VERIFY_IMPEbRiPKciS4_(i1 noundef zeroext %call254, ptr noundef nonnull align 4 dereferenceable(4) %nErrorCount, ptr noundef @.str, i32 noundef 280, ptr noundef @.str.13)
          to label %invoke.cont255 unwind label %lpad96

invoke.cont255:                                   ; preds = %invoke.cont253
  %call258 = invoke noundef ptr @_ZN5eastl5beginINS_6vectorIlNS_9allocatorEEEEEDTcldtfp_5beginEERT_(ptr noundef nonnull align 8 dereferenceable(24) %intArraySaved)
          to label %invoke.cont257 unwind label %lpad96

invoke.cont257:                                   ; preds = %invoke.cont255
  %call260 = invoke noundef ptr @_ZN5eastl3endINS_6vectorIlNS_9allocatorEEEEEDTcldtfp_3endEERT_(ptr noundef nonnull align 8 dereferenceable(24) %intArraySaved)
          to label %invoke.cont259 unwind label %lpad96

invoke.cont259:                                   ; preds = %invoke.cont257
  %call262 = invoke noundef i64 @_ZN5eastl10accumulateIPllEET0_T_S3_S2_(ptr noundef %call258, ptr noundef %call260, i64 noundef 0)
          to label %invoke.cont261 unwind label %lpad96

invoke.cont261:                                   ; preds = %invoke.cont259
  %22 = load i64, ptr %expectedSum, align 8
  %cmp263 = icmp eq i64 %call262, %22
  %call265 = invoke noundef i32 @_ZN2EA8UnitTest12TestInternal17EATEST_VERIFY_IMPEbRiPKciS4_(i1 noundef zeroext %cmp263, ptr noundef nonnull align 4 dereferenceable(4) %nErrorCount, ptr noundef @.str, i32 noundef 281, ptr noundef @.str.14)
          to label %invoke.cont264 unwind label %lpad96

invoke.cont264:                                   ; preds = %invoke.cont261
  %call267 = invoke noundef nonnull align 8 dereferenceable(24) ptr @_ZN5eastl6vectorIlNS_9allocatorEEaSERKS2_(ptr noundef nonnull align 8 dereferenceable(24) %intArray, ptr noundef nonnull align 8 dereferenceable(24) %intArraySaved)
          to label %invoke.cont266 unwind label %lpad96

invoke.cont266:                                   ; preds = %invoke.cont264
  %call268 = call noundef ptr @_ZN5eastl6vectorIlNS_9allocatorEE5beginEv(ptr noundef nonnull align 8 dereferenceable(24) %intArray) #9
  %call269 = call noundef ptr @_ZN5eastl6vectorIlNS_9allocatorEE3endEv(ptr noundef nonnull align 8 dereferenceable(24) %intArray) #9
  %call271 = invoke noundef ptr @_ZN5eastl21get_default_allocatorEPKNS_9allocatorE(ptr noundef null)
          to label %invoke.cont270 unwind label %lpad96

invoke.cont270:                                   ; preds = %invoke.cont266
  invoke void @_ZN5eastl10merge_sortIPlNS_9allocatorEEEvT_S3_RT0_(ptr noundef %call268, ptr noundef %call269, ptr noundef nonnull align 1 dereferenceable(1) %call271)
          to label %invoke.cont272 unwind label %lpad96

invoke.cont272:                                   ; preds = %invoke.cont270
  %call273 = call noundef ptr @_ZN5eastl6vectorIlNS_9allocatorEE5beginEv(ptr noundef nonnull align 8 dereferenceable(24) %intArray) #9
  %call274 = call noundef ptr @_ZN5eastl6vectorIlNS_9allocatorEE3endEv(ptr noundef nonnull align 8 dereferenceable(24) %intArray) #9
  %call276 = invoke noundef zeroext i1 @_ZN5eastl9is_sortedIPlEEbT_S2_(ptr noundef %call273, ptr noundef %call274)
          to label %invoke.cont275 unwind label %lpad96

invoke.cont275:                                   ; preds = %invoke.cont272
  %call278 = invoke noundef i32 @_ZN2EA8UnitTest12TestInternal17EATEST_VERIFY_IMPEbRiPKciS4_(i1 noundef zeroext %call276, ptr noundef nonnull align 4 dereferenceable(4) %nErrorCount, ptr noundef @.str, i32 noundef 285, ptr noundef @.str.13)
          to label %invoke.cont277 unwind label %lpad96

invoke.cont277:                                   ; preds = %invoke.cont275
  %call280 = invoke noundef ptr @_ZN5eastl5beginINS_6vectorIlNS_9allocatorEEEEEDTcldtfp_5beginEERT_(ptr noundef nonnull align 8 dereferenceable(24) %intArraySaved)
          to label %invoke.cont279 unwind label %lpad96

invoke.cont279:                                   ; preds = %invoke.cont277
  %call282 = invoke noundef ptr @_ZN5eastl3endINS_6vectorIlNS_9allocatorEEEEEDTcldtfp_3endEERT_(ptr noundef nonnull align 8 dereferenceable(24) %intArraySaved)
          to label %invoke.cont281 unwind label %lpad96

invoke.cont281:                                   ; preds = %invoke.cont279
  %call284 = invoke noundef i64 @_ZN5eastl10accumulateIPllEET0_T_S3_S2_(ptr noundef %call280, ptr noundef %call282, i64 noundef 0)
          to label %invoke.cont283 unwind label %lpad96

invoke.cont283:                                   ; preds = %invoke.cont281
  %23 = load i64, ptr %expectedSum, align 8
  %cmp285 = icmp eq i64 %call284, %23
  %call287 = invoke noundef i32 @_ZN2EA8UnitTest12TestInternal17EATEST_VERIFY_IMPEbRiPKciS4_(i1 noundef zeroext %cmp285, ptr noundef nonnull align 4 dereferenceable(4) %nErrorCount, ptr noundef @.str, i32 noundef 286, ptr noundef @.str.14)
          to label %invoke.cont286 unwind label %lpad96

invoke.cont286:                                   ; preds = %invoke.cont283
  %call289 = invoke noundef nonnull align 8 dereferenceable(24) ptr @_ZN5eastl6vectorIlNS_9allocatorEEaSERKS2_(ptr noundef nonnull align 8 dereferenceable(24) %intArray, ptr noundef nonnull align 8 dereferenceable(24) %intArraySaved)
          to label %invoke.cont288 unwind label %lpad96

invoke.cont288:                                   ; preds = %invoke.cont286
  %call290 = call noundef i64 @_ZNK5eastl6vectorIlNS_9allocatorEE4sizeEv(ptr noundef nonnull align 8 dereferenceable(24) %intArray) #9
  invoke void @_ZN5eastl9allocatorC2EPKc(ptr noundef nonnull align 1 dereferenceable(1) %ref.tmp291, ptr noundef @.str.15)
          to label %invoke.cont292 unwind label %lpad96

invoke.cont292:                                   ; preds = %invoke.cont288
  invoke void @_ZN5eastl6vectorIlNS_9allocatorEEC2EmRKS1_(ptr noundef nonnull align 8 dereferenceable(24) %buffer, i64 noundef %call290, ptr noundef nonnull align 1 dereferenceable(1) %ref.tmp291)
          to label %invoke.cont293 unwind label %lpad96

invoke.cont293:                                   ; preds = %invoke.cont292
  %call294 = call noundef ptr @_ZN5eastl6vectorIlNS_9allocatorEE5beginEv(ptr noundef nonnull align 8 dereferenceable(24) %intArray) #9
  %call295 = call noundef ptr @_ZN5eastl6vectorIlNS_9allocatorEE3endEv(ptr noundef nonnull align 8 dereferenceable(24) %intArray) #9
  %call296 = call noundef ptr @_ZN5eastl6vectorIlNS_9allocatorEE4dataEv(ptr noundef nonnull align 8 dereferenceable(24) %buffer) #9
  invoke void @_ZN5eastl17merge_sort_bufferIPllEEvT_S2_PT0_(ptr noundef %call294, ptr noundef %call295, ptr noundef %call296)
          to label %invoke.cont298 unwind label %lpad297

invoke.cont298:                                   ; preds = %invoke.cont293
  %call299 = call noundef ptr @_ZN5eastl6vectorIlNS_9allocatorEE5beginEv(ptr noundef nonnull align 8 dereferenceable(24) %intArray) #9
  %call300 = call noundef ptr @_ZN5eastl6vectorIlNS_9allocatorEE3endEv(ptr noundef nonnull align 8 dereferenceable(24) %intArray) #9
  %call302 = invoke noundef zeroext i1 @_ZN5eastl9is_sortedIPlEEbT_S2_(ptr noundef %call299, ptr noundef %call300)
          to label %invoke.cont301 unwind label %lpad297

invoke.cont301:                                   ; preds = %invoke.cont298
  %call304 = invoke noundef i32 @_ZN2EA8UnitTest12TestInternal17EATEST_VERIFY_IMPEbRiPKciS4_(i1 noundef zeroext %call302, ptr noundef nonnull align 4 dereferenceable(4) %nErrorCount, ptr noundef @.str, i32 noundef 291, ptr noundef @.str.13)
          to label %invoke.cont303 unwind label %lpad297

invoke.cont303:                                   ; preds = %invoke.cont301
  %call306 = invoke noundef ptr @_ZN5eastl5beginINS_6vectorIlNS_9allocatorEEEEEDTcldtfp_5beginEERT_(ptr noundef nonnull align 8 dereferenceable(24) %intArraySaved)
          to label %invoke.cont305 unwind label %lpad297

invoke.cont305:                                   ; preds = %invoke.cont303
  %call308 = invoke noundef ptr @_ZN5eastl3endINS_6vectorIlNS_9allocatorEEEEEDTcldtfp_3endEERT_(ptr noundef nonnull align 8 dereferenceable(24) %intArraySaved)
          to label %invoke.cont307 unwind label %lpad297

invoke.cont307:                                   ; preds = %invoke.cont305
  %call310 = invoke noundef i64 @_ZN5eastl10accumulateIPllEET0_T_S3_S2_(ptr noundef %call306, ptr noundef %call308, i64 noundef 0)
          to label %invoke.cont309 unwind label %lpad297

invoke.cont309:                                   ; preds = %invoke.cont307
  %24 = load i64, ptr %expectedSum, align 8
  %cmp311 = icmp eq i64 %call310, %24
  %call313 = invoke noundef i32 @_ZN2EA8UnitTest12TestInternal17EATEST_VERIFY_IMPEbRiPKciS4_(i1 noundef zeroext %cmp311, ptr noundef nonnull align 4 dereferenceable(4) %nErrorCount, ptr noundef @.str, i32 noundef 292, ptr noundef @.str.14)
          to label %invoke.cont312 unwind label %lpad297

invoke.cont312:                                   ; preds = %invoke.cont309
  %call315 = invoke noundef nonnull align 8 dereferenceable(24) ptr @_ZN5eastl6vectorIlNS_9allocatorEEaSERKS2_(ptr noundef nonnull align 8 dereferenceable(24) %intArray, ptr noundef nonnull align 8 dereferenceable(24) %intArraySaved)
          to label %invoke.cont314 unwind label %lpad297

invoke.cont314:                                   ; preds = %invoke.cont312
  %call316 = call noundef ptr @_ZN5eastl6vectorIlNS_9allocatorEE5beginEv(ptr noundef nonnull align 8 dereferenceable(24) %intArray) #9
  %call317 = call noundef ptr @_ZN5eastl6vectorIlNS_9allocatorEE3endEv(ptr noundef nonnull align 8 dereferenceable(24) %intArray) #9
  invoke void @_ZN5eastl10quick_sortIPlEEvT_S2_(ptr noundef %call316, ptr noundef %call317)
          to label %invoke.cont318 unwind label %lpad297

invoke.cont318:                                   ; preds = %invoke.cont314
  %call319 = call noundef ptr @_ZN5eastl6vectorIlNS_9allocatorEE5beginEv(ptr noundef nonnull align 8 dereferenceable(24) %intArray) #9
  %call320 = call noundef ptr @_ZN5eastl6vectorIlNS_9allocatorEE3endEv(ptr noundef nonnull align 8 dereferenceable(24) %intArray) #9
  %call322 = invoke noundef zeroext i1 @_ZN5eastl9is_sortedIPlEEbT_S2_(ptr noundef %call319, ptr noundef %call320)
          to label %invoke.cont321 unwind label %lpad297

invoke.cont321:                                   ; preds = %invoke.cont318
  %call324 = invoke noundef i32 @_ZN2EA8UnitTest12TestInternal17EATEST_VERIFY_IMPEbRiPKciS4_(i1 noundef zeroext %call322, ptr noundef nonnull align 4 dereferenceable(4) %nErrorCount, ptr noundef @.str, i32 noundef 296, ptr noundef @.str.13)
          to label %invoke.cont323 unwind label %lpad297

invoke.cont323:                                   ; preds = %invoke.cont321
  %call326 = invoke noundef ptr @_ZN5eastl5beginINS_6vectorIlNS_9allocatorEEEEEDTcldtfp_5beginEERT_(ptr noundef nonnull align 8 dereferenceable(24) %intArraySaved)
          to label %invoke.cont325 unwind label %lpad297

invoke.cont325:                                   ; preds = %invoke.cont323
  %call328 = invoke noundef ptr @_ZN5eastl3endINS_6vectorIlNS_9allocatorEEEEEDTcldtfp_3endEERT_(ptr noundef nonnull align 8 dereferenceable(24) %intArraySaved)
          to label %invoke.cont327 unwind label %lpad297

invoke.cont327:                                   ; preds = %invoke.cont325
  %call330 = invoke noundef i64 @_ZN5eastl10accumulateIPllEET0_T_S3_S2_(ptr noundef %call326, ptr noundef %call328, i64 noundef 0)
          to label %invoke.cont329 unwind label %lpad297

invoke.cont329:                                   ; preds = %invoke.cont327
  %25 = load i64, ptr %expectedSum, align 8
  %cmp331 = icmp eq i64 %call330, %25
  %call333 = invoke noundef i32 @_ZN2EA8UnitTest12TestInternal17EATEST_VERIFY_IMPEbRiPKciS4_(i1 noundef zeroext %cmp331, ptr noundef nonnull align 4 dereferenceable(4) %nErrorCount, ptr noundef @.str, i32 noundef 297, ptr noundef @.str.14)
          to label %invoke.cont332 unwind label %lpad297

invoke.cont332:                                   ; preds = %invoke.cont329
  %call335 = invoke noundef nonnull align 8 dereferenceable(24) ptr @_ZN5eastl6vectorIlNS_9allocatorEEaSERKS2_(ptr noundef nonnull align 8 dereferenceable(24) %intArray, ptr noundef nonnull align 8 dereferenceable(24) %intArraySaved)
          to label %invoke.cont334 unwind label %lpad297

invoke.cont334:                                   ; preds = %invoke.cont332
  %call336 = call noundef i64 @_ZNK5eastl6vectorIlNS_9allocatorEE4sizeEv(ptr noundef nonnull align 8 dereferenceable(24) %intArray) #9
  %div = udiv i64 %call336, 2
  invoke void @_ZN5eastl6vectorIlNS_9allocatorEE6resizeEm(ptr noundef nonnull align 8 dereferenceable(24) %buffer, i64 noundef %div)
          to label %invoke.cont337 unwind label %lpad297

invoke.cont337:                                   ; preds = %invoke.cont334
  %call338 = call noundef ptr @_ZN5eastl6vectorIlNS_9allocatorEE5beginEv(ptr noundef nonnull align 8 dereferenceable(24) %intArray) #9
  %call339 = call noundef ptr @_ZN5eastl6vectorIlNS_9allocatorEE3endEv(ptr noundef nonnull align 8 dereferenceable(24) %intArray) #9
  %call340 = call noundef ptr @_ZN5eastl6vectorIlNS_9allocatorEE4dataEv(ptr noundef nonnull align 8 dereferenceable(24) %buffer) #9
  invoke void @_ZN5eastl15tim_sort_bufferIPllEEvT_S2_PT0_(ptr noundef %call338, ptr noundef %call339, ptr noundef %call340)
          to label %invoke.cont341 unwind label %lpad297

invoke.cont341:                                   ; preds = %invoke.cont337
  %call342 = call noundef ptr @_ZN5eastl6vectorIlNS_9allocatorEE5beginEv(ptr noundef nonnull align 8 dereferenceable(24) %intArray) #9
  %call343 = call noundef ptr @_ZN5eastl6vectorIlNS_9allocatorEE3endEv(ptr noundef nonnull align 8 dereferenceable(24) %intArray) #9
  %call345 = invoke noundef zeroext i1 @_ZN5eastl9is_sortedIPlEEbT_S2_(ptr noundef %call342, ptr noundef %call343)
          to label %invoke.cont344 unwind label %lpad297

invoke.cont344:                                   ; preds = %invoke.cont341
  %call347 = invoke noundef i32 @_ZN2EA8UnitTest12TestInternal17EATEST_VERIFY_IMPEbRiPKciS4_(i1 noundef zeroext %call345, ptr noundef nonnull align 4 dereferenceable(4) %nErrorCount, ptr noundef @.str, i32 noundef 302, ptr noundef @.str.13)
          to label %invoke.cont346 unwind label %lpad297

invoke.cont346:                                   ; preds = %invoke.cont344
  %call349 = invoke noundef ptr @_ZN5eastl5beginINS_6vectorIlNS_9allocatorEEEEEDTcldtfp_5beginEERT_(ptr noundef nonnull align 8 dereferenceable(24) %intArraySaved)
          to label %invoke.cont348 unwind label %lpad297

invoke.cont348:                                   ; preds = %invoke.cont346
  %call351 = invoke noundef ptr @_ZN5eastl3endINS_6vectorIlNS_9allocatorEEEEEDTcldtfp_3endEERT_(ptr noundef nonnull align 8 dereferenceable(24) %intArraySaved)
          to label %invoke.cont350 unwind label %lpad297

invoke.cont350:                                   ; preds = %invoke.cont348
  %call353 = invoke noundef i64 @_ZN5eastl10accumulateIPllEET0_T_S3_S2_(ptr noundef %call349, ptr noundef %call351, i64 noundef 0)
          to label %invoke.cont352 unwind label %lpad297

invoke.cont352:                                   ; preds = %invoke.cont350
  %26 = load i64, ptr %expectedSum, align 8
  %cmp354 = icmp eq i64 %call353, %26
  %call356 = invoke noundef i32 @_ZN2EA8UnitTest12TestInternal17EATEST_VERIFY_IMPEbRiPKciS4_(i1 noundef zeroext %cmp354, ptr noundef nonnull align 4 dereferenceable(4) %nErrorCount, ptr noundef @.str, i32 noundef 303, ptr noundef @.str.14)
          to label %invoke.cont355 unwind label %lpad297

invoke.cont355:                                   ; preds = %invoke.cont352
  call void @_ZN5eastl6vectorIlNS_9allocatorEED2Ev(ptr noundef nonnull align 8 dereferenceable(24) %buffer) #9
  br label %for.inc357

for.inc357:                                       ; preds = %invoke.cont355
  %27 = load i32, ptr %j, align 4
  %inc358 = add nsw i32 %27, 1
  store i32 %inc358, ptr %j, align 4
  br label %for.cond118, !llvm.loop !7

lpad297:                                          ; preds = %invoke.cont352, %invoke.cont350, %invoke.cont348, %invoke.cont346, %invoke.cont344, %invoke.cont341, %invoke.cont337, %invoke.cont334, %invoke.cont332, %invoke.cont329, %invoke.cont327, %invoke.cont325, %invoke.cont323, %invoke.cont321, %invoke.cont318, %invoke.cont314, %invoke.cont312, %invoke.cont309, %invoke.cont307, %invoke.cont305, %invoke.cont303, %invoke.cont301, %invoke.cont298, %invoke.cont293
  %28 = landingpad { ptr, i32 }
          cleanup
  %29 = extractvalue { ptr, i32 } %28, 0
  store ptr %29, ptr %exn.slot, align 8
  %30 = extractvalue { ptr, i32 } %28, 1
  store i32 %30, ptr %ehselector.slot, align 4
  call void @_ZN5eastl6vectorIlNS_9allocatorEED2Ev(ptr noundef nonnull align 8 dereferenceable(24) %buffer) #9
  br label %ehcleanup

for.end359:                                       ; preds = %for.cond118
  br label %for.inc360

for.inc360:                                       ; preds = %for.end359
  %31 = load i32, ptr %i, align 4
  %cmp361 = icmp slt i32 %31, 5
  %cond = select i1 %cmp361, i32 1, i32 37
  %32 = load i32, ptr %i, align 4
  %add362 = add nsw i32 %32, %cond
  store i32 %add362, ptr %i, align 4
  br label %for.cond, !llvm.loop !8

for.end363:                                       ; preds = %for.cond
  call void @_ZN5eastl6vectorIlNS_9allocatorEED2Ev(ptr noundef nonnull align 8 dereferenceable(24) %intArraySaved) #9
  call void @_ZN5eastl6vectorIlNS_9allocatorEED2Ev(ptr noundef nonnull align 8 dereferenceable(24) %intArray) #9
  call void @_ZN5eastl6vectorIlNS_9allocatorEEC2Ev(ptr noundef nonnull align 8 dereferenceable(24) %intArray365)
  store i32 1000000, ptr %i366, align 4
  invoke void @_ZN14EASTLTest_RandC2Em(ptr noundef nonnull align 8 dereferenceable(8) %testRng, i64 noundef 232526)
          to label %invoke.cont368 unwind label %lpad367

invoke.cont368:                                   ; preds = %for.end363
  store i32 0, ptr %n369, align 4
  br label %for.cond370

for.cond370:                                      ; preds = %for.inc377, %invoke.cont368
  %33 = load i32, ptr %n369, align 4
  %34 = load i32, ptr %i366, align 4
  %cmp371 = icmp slt i32 %33, %34
  br i1 %cmp371, label %for.body372, label %for.end379

for.body372:                                      ; preds = %for.cond370
  %call375 = invoke noundef i64 @_ZN14EASTLTest_Rand4RandEv(ptr noundef nonnull align 8 dereferenceable(8) %testRng)
          to label %invoke.cont374 unwind label %lpad367

invoke.cont374:                                   ; preds = %for.body372
  store i64 %call375, ptr %ref.tmp373, align 8
  invoke void @_ZN5eastl6vectorIlNS_9allocatorEE9push_backEOl(ptr noundef nonnull align 8 dereferenceable(24) %intArray365, ptr noundef nonnull align 8 dereferenceable(8) %ref.tmp373)
          to label %invoke.cont376 unwind label %lpad367

invoke.cont376:                                   ; preds = %invoke.cont374
  br label %for.inc377

for.inc377:                                       ; preds = %invoke.cont376
  %35 = load i32, ptr %n369, align 4
  %inc378 = add nsw i32 %35, 1
  store i32 %inc378, ptr %n369, align 4
  br label %for.cond370, !llvm.loop !9

ehcleanup:                                        ; preds = %lpad297, %lpad96
  call void @_ZN5eastl6vectorIlNS_9allocatorEED2Ev(ptr noundef nonnull align 8 dereferenceable(24) %intArraySaved) #9
  br label %ehcleanup364

ehcleanup364:                                     ; preds = %ehcleanup, %lpad
  call void @_ZN5eastl6vectorIlNS_9allocatorEED2Ev(ptr noundef nonnull align 8 dereferenceable(24) %intArray) #9
  br label %eh.resume

lpad367:                                          ; preds = %invoke.cont384, %for.end379, %invoke.cont374, %for.body372, %for.end363
  %36 = landingpad { ptr, i32 }
          cleanup
  %37 = extractvalue { ptr, i32 } %36, 0
  store ptr %37, ptr %exn.slot, align 8
  %38 = extractvalue { ptr, i32 } %36, 1
  store i32 %38, ptr %ehselector.slot, align 4
  br label %ehcleanup398

for.end379:                                       ; preds = %for.cond370
  %call381 = call noundef i64 @_ZNK5eastl6vectorIlNS_9allocatorEE4sizeEv(ptr noundef nonnull align 8 dereferenceable(24) %intArray365) #9
  %div382 = udiv i64 %call381, 2
  invoke void @_ZN5eastl9allocatorC2EPKc(ptr noundef nonnull align 1 dereferenceable(1) %ref.tmp383, ptr noundef @.str.15)
          to label %invoke.cont384 unwind label %lpad367

invoke.cont384:                                   ; preds = %for.end379
  invoke void @_ZN5eastl6vectorIlNS_9allocatorEEC2EmRKS1_(ptr noundef nonnull align 8 dereferenceable(24) %buffer380, i64 noundef %div382, ptr noundef nonnull align 1 dereferenceable(1) %ref.tmp383)
          to label %invoke.cont385 unwind label %lpad367

invoke.cont385:                                   ; preds = %invoke.cont384
  %call386 = call noundef ptr @_ZN5eastl6vectorIlNS_9allocatorEE5beginEv(ptr noundef nonnull align 8 dereferenceable(24) %intArray365) #9
  %call387 = call noundef ptr @_ZN5eastl6vectorIlNS_9allocatorEE3endEv(ptr noundef nonnull align 8 dereferenceable(24) %intArray365) #9
  %call388 = call noundef ptr @_ZN5eastl6vectorIlNS_9allocatorEE4dataEv(ptr noundef nonnull align 8 dereferenceable(24) %buffer380) #9
  invoke void @_ZN5eastl15tim_sort_bufferIPllEEvT_S2_PT0_(ptr noundef %call386, ptr noundef %call387, ptr noundef %call388)
          to label %invoke.cont390 unwind label %lpad389

invoke.cont390:                                   ; preds = %invoke.cont385
  %call391 = call noundef ptr @_ZN5eastl6vectorIlNS_9allocatorEE5beginEv(ptr noundef nonnull align 8 dereferenceable(24) %intArray365) #9
  %call392 = call noundef ptr @_ZN5eastl6vectorIlNS_9allocatorEE3endEv(ptr noundef nonnull align 8 dereferenceable(24) %intArray365) #9
  %call394 = invoke noundef zeroext i1 @_ZN5eastl9is_sortedIPlEEbT_S2_(ptr noundef %call391, ptr noundef %call392)
          to label %invoke.cont393 unwind label %lpad389

invoke.cont393:                                   ; preds = %invoke.cont390
  %call396 = invoke noundef i32 @_ZN2EA8UnitTest12TestInternal17EATEST_VERIFY_IMPEbRiPKciS4_(i1 noundef zeroext %call394, ptr noundef nonnull align 4 dereferenceable(4) %nErrorCount, ptr noundef @.str, i32 noundef 321, ptr noundef @.str.13)
          to label %invoke.cont395 unwind label %lpad389

invoke.cont395:                                   ; preds = %invoke.cont393
  call void @_ZN5eastl6vectorIlNS_9allocatorEED2Ev(ptr noundef nonnull align 8 dereferenceable(24) %buffer380) #9
  call void @_ZN5eastl6vectorIlNS_9allocatorEED2Ev(ptr noundef nonnull align 8 dereferenceable(24) %intArray365) #9
  call void @_ZN5eastl5dequeIiNS_9allocatorELj64EEC2Ev(ptr noundef nonnull align 8 dereferenceable(81) %deque)
  store i32 1, ptr %ref.tmp399, align 4
  invoke void @_ZN5eastl5dequeIiNS_9allocatorELj64EE9push_backEOi(ptr noundef nonnull align 8 dereferenceable(81) %deque, ptr noundef nonnull align 4 dereferenceable(4) %ref.tmp399)
          to label %invoke.cont401 unwind label %lpad400

invoke.cont401:                                   ; preds = %invoke.cont395
  call void @_ZN5eastl5dequeIiNS_9allocatorELj64EE5beginEv(ptr sret(%"struct.eastl::DequeIterator") align 8 %agg.tmp402, ptr noundef nonnull align 8 dereferenceable(81) %deque) #9
  call void @_ZN5eastl5dequeIiNS_9allocatorELj64EE3endEv(ptr sret(%"struct.eastl::DequeIterator") align 8 %agg.tmp403, ptr noundef nonnull align 8 dereferenceable(81) %deque) #9
  invoke void @_ZN5eastl14insertion_sortINS_13DequeIteratorIiPiRiLj64EEEEEvT_S5_(ptr noundef %agg.tmp402, ptr noundef %agg.tmp403)
          to label %invoke.cont404 unwind label %lpad400

invoke.cont404:                                   ; preds = %invoke.cont401
  call void @_ZN5eastl5dequeIiNS_9allocatorELj64EE5beginEv(ptr sret(%"struct.eastl::DequeIterator") align 8 %agg.tmp405, ptr noundef nonnull align 8 dereferenceable(81) %deque) #9
  call void @_ZN5eastl5dequeIiNS_9allocatorELj64EE3endEv(ptr sret(%"struct.eastl::DequeIterator") align 8 %agg.tmp406, ptr noundef nonnull align 8 dereferenceable(81) %deque) #9
  invoke void @_ZN5eastl14insertion_sortINS_13DequeIteratorIiPiRiLj64EEENS_4lessIiEEEEvT_S7_T0_(ptr noundef %agg.tmp405, ptr noundef %agg.tmp406)
          to label %invoke.cont408 unwind label %lpad400

invoke.cont408:                                   ; preds = %invoke.cont404
  call void @_ZN5eastl5dequeIiNS_9allocatorELj64EED2Ev(ptr noundef nonnull align 8 dereferenceable(81) %deque) #9
  call void @_ZN10TestObject5ResetEv()
  call void @_ZN5eastl6vectorI10TestObjectNS_9allocatorEEC2Ev(ptr noundef nonnull align 8 dereferenceable(24) %toArray)
  invoke void @_ZN5eastl6vectorI10TestObjectNS_9allocatorEEC2Ev(ptr noundef nonnull align 8 dereferenceable(24) %toArraySaved)
          to label %invoke.cont411 unwind label %lpad410

invoke.cont411:                                   ; preds = %invoke.cont408
  store i32 0, ptr %i412, align 4
  br label %for.cond413

for.cond413:                                      ; preds = %for.inc584, %invoke.cont411
  %39 = load i32, ptr %i412, align 4
  %40 = load i32, ptr @gEASTL_TestLevel, align 4
  %mul414 = mul nsw i32 %40, 200
  %add415 = add nsw i32 150, %mul414
  %cmp416 = icmp slt i32 %39, %add415
  br i1 %cmp416, label %for.body417, label %for.end588

for.body417:                                      ; preds = %for.cond413
  store i32 0, ptr %n418, align 4
  br label %for.cond419

for.cond419:                                      ; preds = %for.inc448, %for.body417
  %41 = load i32, ptr %n418, align 4
  %42 = load i32, ptr %i412, align 4
  %cmp420 = icmp slt i32 %41, %42
  br i1 %cmp420, label %for.body421, label %for.end450

for.body421:                                      ; preds = %for.cond419
  %43 = load i32, ptr %n418, align 4
  invoke void @_ZN10TestObjectC2Eib(ptr noundef nonnull align 8 dereferenceable(20) %ref.tmp422, i32 noundef %43, i1 noundef zeroext false)
          to label %invoke.cont424 unwind label %lpad423

invoke.cont424:                                   ; preds = %for.body421
  invoke void @_ZN5eastl6vectorI10TestObjectNS_9allocatorEE9push_backEOS1_(ptr noundef nonnull align 8 dereferenceable(24) %toArraySaved, ptr noundef nonnull align 8 dereferenceable(20) %ref.tmp422)
          to label %invoke.cont426 unwind label %lpad425

invoke.cont426:                                   ; preds = %invoke.cont424
  call void @_ZN10TestObjectD2Ev(ptr noundef nonnull align 8 dereferenceable(20) %ref.tmp422) #9
  %call429 = invoke noundef i64 @_ZN14EASTLTest_Rand9RandLimitEm(ptr noundef nonnull align 8 dereferenceable(8) %rng, i64 noundef 10)
          to label %invoke.cont428 unwind label %lpad423

invoke.cont428:                                   ; preds = %invoke.cont426
  %cmp430 = icmp eq i64 %call429, 0
  br i1 %cmp430, label %if.then431, label %if.end447

if.then431:                                       ; preds = %invoke.cont428
  %44 = load i32, ptr %n418, align 4
  invoke void @_ZN10TestObjectC2Eib(ptr noundef nonnull align 8 dereferenceable(20) %ref.tmp432, i32 noundef %44, i1 noundef zeroext false)
          to label %invoke.cont433 unwind label %lpad423

invoke.cont433:                                   ; preds = %if.then431
  invoke void @_ZN5eastl6vectorI10TestObjectNS_9allocatorEE9push_backEOS1_(ptr noundef nonnull align 8 dereferenceable(24) %toArraySaved, ptr noundef nonnull align 8 dereferenceable(20) %ref.tmp432)
          to label %invoke.cont435 unwind label %lpad434

invoke.cont435:                                   ; preds = %invoke.cont433
  call void @_ZN10TestObjectD2Ev(ptr noundef nonnull align 8 dereferenceable(20) %ref.tmp432) #9
  %call438 = invoke noundef i64 @_ZN14EASTLTest_Rand9RandLimitEm(ptr noundef nonnull align 8 dereferenceable(8) %rng, i64 noundef 5)
          to label %invoke.cont437 unwind label %lpad423

invoke.cont437:                                   ; preds = %invoke.cont435
  %cmp439 = icmp eq i64 %call438, 0
  br i1 %cmp439, label %if.then440, label %if.end446

if.then440:                                       ; preds = %invoke.cont437
  %45 = load i32, ptr %n418, align 4
  invoke void @_ZN10TestObjectC2Eib(ptr noundef nonnull align 8 dereferenceable(20) %ref.tmp441, i32 noundef %45, i1 noundef zeroext false)
          to label %invoke.cont442 unwind label %lpad423

invoke.cont442:                                   ; preds = %if.then440
  invoke void @_ZN5eastl6vectorI10TestObjectNS_9allocatorEE9push_backEOS1_(ptr noundef nonnull align 8 dereferenceable(24) %toArraySaved, ptr noundef nonnull align 8 dereferenceable(20) %ref.tmp441)
          to label %invoke.cont444 unwind label %lpad443

invoke.cont444:                                   ; preds = %invoke.cont442
  call void @_ZN10TestObjectD2Ev(ptr noundef nonnull align 8 dereferenceable(20) %ref.tmp441) #9
  br label %if.end446

lpad389:                                          ; preds = %invoke.cont393, %invoke.cont390, %invoke.cont385
  %46 = landingpad { ptr, i32 }
          cleanup
  %47 = extractvalue { ptr, i32 } %46, 0
  store ptr %47, ptr %exn.slot, align 8
  %48 = extractvalue { ptr, i32 } %46, 1
  store i32 %48, ptr %ehselector.slot, align 4
  call void @_ZN5eastl6vectorIlNS_9allocatorEED2Ev(ptr noundef nonnull align 8 dereferenceable(24) %buffer380) #9
  br label %ehcleanup398

ehcleanup398:                                     ; preds = %lpad389, %lpad367
  call void @_ZN5eastl6vectorIlNS_9allocatorEED2Ev(ptr noundef nonnull align 8 dereferenceable(24) %intArray365) #9
  br label %eh.resume

lpad400:                                          ; preds = %invoke.cont404, %invoke.cont401, %invoke.cont395
  %49 = landingpad { ptr, i32 }
          cleanup
  %50 = extractvalue { ptr, i32 } %49, 0
  store ptr %50, ptr %exn.slot, align 8
  %51 = extractvalue { ptr, i32 } %49, 1
  store i32 %51, ptr %ehselector.slot, align 4
  call void @_ZN5eastl5dequeIiNS_9allocatorELj64EED2Ev(ptr noundef nonnull align 8 dereferenceable(81) %deque) #9
  br label %eh.resume

lpad410:                                          ; preds = %invoke.cont408
  %52 = landingpad { ptr, i32 }
          cleanup
  %53 = extractvalue { ptr, i32 } %52, 0
  store ptr %53, ptr %exn.slot, align 8
  %54 = extractvalue { ptr, i32 } %52, 1
  store i32 %54, ptr %ehselector.slot, align 4
  br label %ehcleanup590

lpad423:                                          ; preds = %invoke.cont567, %invoke.cont561, %invoke.cont559, %invoke.cont557, %invoke.cont554, %invoke.cont550, %invoke.cont548, %invoke.cont546, %invoke.cont543, %invoke.cont541, %invoke.cont537, %invoke.cont535, %invoke.cont533, %invoke.cont530, %invoke.cont526, %invoke.cont524, %invoke.cont522, %invoke.cont519, %invoke.cont515, %invoke.cont513, %invoke.cont511, %invoke.cont508, %invoke.cont504, %invoke.cont502, %invoke.cont500, %invoke.cont497, %invoke.cont493, %invoke.cont491, %invoke.cont489, %invoke.cont486, %invoke.cont482, %invoke.cont480, %invoke.cont478, %invoke.cont475, %invoke.cont471, %invoke.cont469, %invoke.cont467, %invoke.cont464, %invoke.cont460, %invoke.cont459, %for.body456, %if.then440, %invoke.cont435, %if.then431, %invoke.cont426, %for.body421
  %55 = landingpad { ptr, i32 }
          cleanup
  %56 = extractvalue { ptr, i32 } %55, 0
  store ptr %56, ptr %exn.slot, align 8
  %57 = extractvalue { ptr, i32 } %55, 1
  store i32 %57, ptr %ehselector.slot, align 4
  br label %ehcleanup589

lpad425:                                          ; preds = %invoke.cont424
  %58 = landingpad { ptr, i32 }
          cleanup
  %59 = extractvalue { ptr, i32 } %58, 0
  store ptr %59, ptr %exn.slot, align 8
  %60 = extractvalue { ptr, i32 } %58, 1
  store i32 %60, ptr %ehselector.slot, align 4
  call void @_ZN10TestObjectD2Ev(ptr noundef nonnull align 8 dereferenceable(20) %ref.tmp422) #9
  br label %ehcleanup589

lpad434:                                          ; preds = %invoke.cont433
  %61 = landingpad { ptr, i32 }
          cleanup
  %62 = extractvalue { ptr, i32 } %61, 0
  store ptr %62, ptr %exn.slot, align 8
  %63 = extractvalue { ptr, i32 } %61, 1
  store i32 %63, ptr %ehselector.slot, align 4
  call void @_ZN10TestObjectD2Ev(ptr noundef nonnull align 8 dereferenceable(20) %ref.tmp432) #9
  br label %ehcleanup589

lpad443:                                          ; preds = %invoke.cont442
  %64 = landingpad { ptr, i32 }
          cleanup
  %65 = extractvalue { ptr, i32 } %64, 0
  store ptr %65, ptr %exn.slot, align 8
  %66 = extractvalue { ptr, i32 } %64, 1
  store i32 %66, ptr %ehselector.slot, align 4
  call void @_ZN10TestObjectD2Ev(ptr noundef nonnull align 8 dereferenceable(20) %ref.tmp441) #9
  br label %ehcleanup589

if.end446:                                        ; preds = %invoke.cont444, %invoke.cont437
  br label %if.end447

if.end447:                                        ; preds = %if.end446, %invoke.cont428
  br label %for.inc448

for.inc448:                                       ; preds = %if.end447
  %67 = load i32, ptr %n418, align 4
  %inc449 = add nsw i32 %67, 1
  store i32 %inc449, ptr %n418, align 4
  br label %for.cond419, !llvm.loop !10

for.end450:                                       ; preds = %for.cond419
  store i32 0, ptr %j451, align 4
  br label %for.cond452

for.cond452:                                      ; preds = %for.inc581, %for.end450
  %68 = load i32, ptr %j451, align 4
  %69 = load i32, ptr @gEASTL_TestLevel, align 4
  %mul453 = mul nsw i32 %69, 50
  %add454 = add nsw i32 300, %mul453
  %cmp455 = icmp slt i32 %68, %add454
  br i1 %cmp455, label %for.body456, label %for.end583

for.body456:                                      ; preds = %for.cond452
  %call457 = call noundef ptr @_ZN5eastl6vectorI10TestObjectNS_9allocatorEE5beginEv(ptr noundef nonnull align 8 dereferenceable(24) %toArraySaved) #9
  %call458 = call noundef ptr @_ZN5eastl6vectorI10TestObjectNS_9allocatorEE3endEv(ptr noundef nonnull align 8 dereferenceable(24) %toArraySaved) #9
  invoke void @_ZN5eastl14random_shuffleIP10TestObjectR14EASTLTest_RandEEvT_S5_OT0_(ptr noundef %call457, ptr noundef %call458, ptr noundef nonnull align 8 dereferenceable(8) %rng)
          to label %invoke.cont459 unwind label %lpad423

invoke.cont459:                                   ; preds = %for.body456
  %call461 = invoke noundef nonnull align 8 dereferenceable(24) ptr @_ZN5eastl6vectorI10TestObjectNS_9allocatorEEaSERKS3_(ptr noundef nonnull align 8 dereferenceable(24) %toArray, ptr noundef nonnull align 8 dereferenceable(24) %toArraySaved)
          to label %invoke.cont460 unwind label %lpad423

invoke.cont460:                                   ; preds = %invoke.cont459
  %call462 = call noundef ptr @_ZN5eastl6vectorI10TestObjectNS_9allocatorEE5beginEv(ptr noundef nonnull align 8 dereferenceable(24) %toArray) #9
  %call463 = call noundef ptr @_ZN5eastl6vectorI10TestObjectNS_9allocatorEE3endEv(ptr noundef nonnull align 8 dereferenceable(24) %toArray) #9
  invoke void @_ZN5eastl11bubble_sortIP10TestObjectEEvT_S3_(ptr noundef %call462, ptr noundef %call463)
          to label %invoke.cont464 unwind label %lpad423

invoke.cont464:                                   ; preds = %invoke.cont460
  %call465 = call noundef ptr @_ZN5eastl6vectorI10TestObjectNS_9allocatorEE5beginEv(ptr noundef nonnull align 8 dereferenceable(24) %toArray) #9
  %call466 = call noundef ptr @_ZN5eastl6vectorI10TestObjectNS_9allocatorEE3endEv(ptr noundef nonnull align 8 dereferenceable(24) %toArray) #9
  %call468 = invoke noundef zeroext i1 @_ZN5eastl9is_sortedIP10TestObjectEEbT_S3_(ptr noundef %call465, ptr noundef %call466)
          to label %invoke.cont467 unwind label %lpad423

invoke.cont467:                                   ; preds = %invoke.cont464
  %call470 = invoke noundef i32 @_ZN2EA8UnitTest12TestInternal17EATEST_VERIFY_IMPEbRiPKciS4_(i1 noundef zeroext %call468, ptr noundef nonnull align 4 dereferenceable(4) %nErrorCount, ptr noundef @.str, i32 noundef 363, ptr noundef @.str.16)
          to label %invoke.cont469 unwind label %lpad423

invoke.cont469:                                   ; preds = %invoke.cont467
  %call472 = invoke noundef nonnull align 8 dereferenceable(24) ptr @_ZN5eastl6vectorI10TestObjectNS_9allocatorEEaSERKS3_(ptr noundef nonnull align 8 dereferenceable(24) %toArray, ptr noundef nonnull align 8 dereferenceable(24) %toArraySaved)
          to label %invoke.cont471 unwind label %lpad423

invoke.cont471:                                   ; preds = %invoke.cont469
  %call473 = call noundef ptr @_ZN5eastl6vectorI10TestObjectNS_9allocatorEE5beginEv(ptr noundef nonnull align 8 dereferenceable(24) %toArray) #9
  %call474 = call noundef ptr @_ZN5eastl6vectorI10TestObjectNS_9allocatorEE3endEv(ptr noundef nonnull align 8 dereferenceable(24) %toArray) #9
  invoke void @_ZN5eastl11shaker_sortIP10TestObjectEEvT_S3_(ptr noundef %call473, ptr noundef %call474)
          to label %invoke.cont475 unwind label %lpad423

invoke.cont475:                                   ; preds = %invoke.cont471
  %call476 = call noundef ptr @_ZN5eastl6vectorI10TestObjectNS_9allocatorEE5beginEv(ptr noundef nonnull align 8 dereferenceable(24) %toArray) #9
  %call477 = call noundef ptr @_ZN5eastl6vectorI10TestObjectNS_9allocatorEE3endEv(ptr noundef nonnull align 8 dereferenceable(24) %toArray) #9
  %call479 = invoke noundef zeroext i1 @_ZN5eastl9is_sortedIP10TestObjectEEbT_S3_(ptr noundef %call476, ptr noundef %call477)
          to label %invoke.cont478 unwind label %lpad423

invoke.cont478:                                   ; preds = %invoke.cont475
  %call481 = invoke noundef i32 @_ZN2EA8UnitTest12TestInternal17EATEST_VERIFY_IMPEbRiPKciS4_(i1 noundef zeroext %call479, ptr noundef nonnull align 4 dereferenceable(4) %nErrorCount, ptr noundef @.str, i32 noundef 367, ptr noundef @.str.16)
          to label %invoke.cont480 unwind label %lpad423

invoke.cont480:                                   ; preds = %invoke.cont478
  %call483 = invoke noundef nonnull align 8 dereferenceable(24) ptr @_ZN5eastl6vectorI10TestObjectNS_9allocatorEEaSERKS3_(ptr noundef nonnull align 8 dereferenceable(24) %toArray, ptr noundef nonnull align 8 dereferenceable(24) %toArraySaved)
          to label %invoke.cont482 unwind label %lpad423

invoke.cont482:                                   ; preds = %invoke.cont480
  %call484 = call noundef ptr @_ZN5eastl6vectorI10TestObjectNS_9allocatorEE5beginEv(ptr noundef nonnull align 8 dereferenceable(24) %toArray) #9
  %call485 = call noundef ptr @_ZN5eastl6vectorI10TestObjectNS_9allocatorEE3endEv(ptr noundef nonnull align 8 dereferenceable(24) %toArray) #9
  invoke void @_ZN5eastl14insertion_sortIP10TestObjectEEvT_S3_(ptr noundef %call484, ptr noundef %call485)
          to label %invoke.cont486 unwind label %lpad423

invoke.cont486:                                   ; preds = %invoke.cont482
  %call487 = call noundef ptr @_ZN5eastl6vectorI10TestObjectNS_9allocatorEE5beginEv(ptr noundef nonnull align 8 dereferenceable(24) %toArray) #9
  %call488 = call noundef ptr @_ZN5eastl6vectorI10TestObjectNS_9allocatorEE3endEv(ptr noundef nonnull align 8 dereferenceable(24) %toArray) #9
  %call490 = invoke noundef zeroext i1 @_ZN5eastl9is_sortedIP10TestObjectEEbT_S3_(ptr noundef %call487, ptr noundef %call488)
          to label %invoke.cont489 unwind label %lpad423

invoke.cont489:                                   ; preds = %invoke.cont486
  %call492 = invoke noundef i32 @_ZN2EA8UnitTest12TestInternal17EATEST_VERIFY_IMPEbRiPKciS4_(i1 noundef zeroext %call490, ptr noundef nonnull align 4 dereferenceable(4) %nErrorCount, ptr noundef @.str, i32 noundef 371, ptr noundef @.str.16)
          to label %invoke.cont491 unwind label %lpad423

invoke.cont491:                                   ; preds = %invoke.cont489
  %call494 = invoke noundef nonnull align 8 dereferenceable(24) ptr @_ZN5eastl6vectorI10TestObjectNS_9allocatorEEaSERKS3_(ptr noundef nonnull align 8 dereferenceable(24) %toArray, ptr noundef nonnull align 8 dereferenceable(24) %toArraySaved)
          to label %invoke.cont493 unwind label %lpad423

invoke.cont493:                                   ; preds = %invoke.cont491
  %call495 = call noundef ptr @_ZN5eastl6vectorI10TestObjectNS_9allocatorEE5beginEv(ptr noundef nonnull align 8 dereferenceable(24) %toArray) #9
  %call496 = call noundef ptr @_ZN5eastl6vectorI10TestObjectNS_9allocatorEE3endEv(ptr noundef nonnull align 8 dereferenceable(24) %toArray) #9
  invoke void @_ZN5eastl14selection_sortIP10TestObjectEEvT_S3_(ptr noundef %call495, ptr noundef %call496)
          to label %invoke.cont497 unwind label %lpad423

invoke.cont497:                                   ; preds = %invoke.cont493
  %call498 = call noundef ptr @_ZN5eastl6vectorI10TestObjectNS_9allocatorEE5beginEv(ptr noundef nonnull align 8 dereferenceable(24) %toArray) #9
  %call499 = call noundef ptr @_ZN5eastl6vectorI10TestObjectNS_9allocatorEE3endEv(ptr noundef nonnull align 8 dereferenceable(24) %toArray) #9
  %call501 = invoke noundef zeroext i1 @_ZN5eastl9is_sortedIP10TestObjectEEbT_S3_(ptr noundef %call498, ptr noundef %call499)
          to label %invoke.cont500 unwind label %lpad423

invoke.cont500:                                   ; preds = %invoke.cont497
  %call503 = invoke noundef i32 @_ZN2EA8UnitTest12TestInternal17EATEST_VERIFY_IMPEbRiPKciS4_(i1 noundef zeroext %call501, ptr noundef nonnull align 4 dereferenceable(4) %nErrorCount, ptr noundef @.str, i32 noundef 375, ptr noundef @.str.16)
          to label %invoke.cont502 unwind label %lpad423

invoke.cont502:                                   ; preds = %invoke.cont500
  %call505 = invoke noundef nonnull align 8 dereferenceable(24) ptr @_ZN5eastl6vectorI10TestObjectNS_9allocatorEEaSERKS3_(ptr noundef nonnull align 8 dereferenceable(24) %toArray, ptr noundef nonnull align 8 dereferenceable(24) %toArraySaved)
          to label %invoke.cont504 unwind label %lpad423

invoke.cont504:                                   ; preds = %invoke.cont502
  %call506 = call noundef ptr @_ZN5eastl6vectorI10TestObjectNS_9allocatorEE5beginEv(ptr noundef nonnull align 8 dereferenceable(24) %toArray) #9
  %call507 = call noundef ptr @_ZN5eastl6vectorI10TestObjectNS_9allocatorEE3endEv(ptr noundef nonnull align 8 dereferenceable(24) %toArray) #9
  invoke void @_ZN5eastl10shell_sortIP10TestObjectEEvT_S3_(ptr noundef %call506, ptr noundef %call507)
          to label %invoke.cont508 unwind label %lpad423

invoke.cont508:                                   ; preds = %invoke.cont504
  %call509 = call noundef ptr @_ZN5eastl6vectorI10TestObjectNS_9allocatorEE5beginEv(ptr noundef nonnull align 8 dereferenceable(24) %toArray) #9
  %call510 = call noundef ptr @_ZN5eastl6vectorI10TestObjectNS_9allocatorEE3endEv(ptr noundef nonnull align 8 dereferenceable(24) %toArray) #9
  %call512 = invoke noundef zeroext i1 @_ZN5eastl9is_sortedIP10TestObjectEEbT_S3_(ptr noundef %call509, ptr noundef %call510)
          to label %invoke.cont511 unwind label %lpad423

invoke.cont511:                                   ; preds = %invoke.cont508
  %call514 = invoke noundef i32 @_ZN2EA8UnitTest12TestInternal17EATEST_VERIFY_IMPEbRiPKciS4_(i1 noundef zeroext %call512, ptr noundef nonnull align 4 dereferenceable(4) %nErrorCount, ptr noundef @.str, i32 noundef 379, ptr noundef @.str.16)
          to label %invoke.cont513 unwind label %lpad423

invoke.cont513:                                   ; preds = %invoke.cont511
  %call516 = invoke noundef nonnull align 8 dereferenceable(24) ptr @_ZN5eastl6vectorI10TestObjectNS_9allocatorEEaSERKS3_(ptr noundef nonnull align 8 dereferenceable(24) %toArray, ptr noundef nonnull align 8 dereferenceable(24) %toArraySaved)
          to label %invoke.cont515 unwind label %lpad423

invoke.cont515:                                   ; preds = %invoke.cont513
  %call517 = call noundef ptr @_ZN5eastl6vectorI10TestObjectNS_9allocatorEE5beginEv(ptr noundef nonnull align 8 dereferenceable(24) %toArray) #9
  %call518 = call noundef ptr @_ZN5eastl6vectorI10TestObjectNS_9allocatorEE3endEv(ptr noundef nonnull align 8 dereferenceable(24) %toArray) #9
  invoke void @_ZN5eastl9comb_sortIP10TestObjectEEvT_S3_(ptr noundef %call517, ptr noundef %call518)
          to label %invoke.cont519 unwind label %lpad423

invoke.cont519:                                   ; preds = %invoke.cont515
  %call520 = call noundef ptr @_ZN5eastl6vectorI10TestObjectNS_9allocatorEE5beginEv(ptr noundef nonnull align 8 dereferenceable(24) %toArray) #9
  %call521 = call noundef ptr @_ZN5eastl6vectorI10TestObjectNS_9allocatorEE3endEv(ptr noundef nonnull align 8 dereferenceable(24) %toArray) #9
  %call523 = invoke noundef zeroext i1 @_ZN5eastl9is_sortedIP10TestObjectEEbT_S3_(ptr noundef %call520, ptr noundef %call521)
          to label %invoke.cont522 unwind label %lpad423

invoke.cont522:                                   ; preds = %invoke.cont519
  %call525 = invoke noundef i32 @_ZN2EA8UnitTest12TestInternal17EATEST_VERIFY_IMPEbRiPKciS4_(i1 noundef zeroext %call523, ptr noundef nonnull align 4 dereferenceable(4) %nErrorCount, ptr noundef @.str, i32 noundef 383, ptr noundef @.str.16)
          to label %invoke.cont524 unwind label %lpad423

invoke.cont524:                                   ; preds = %invoke.cont522
  %call527 = invoke noundef nonnull align 8 dereferenceable(24) ptr @_ZN5eastl6vectorI10TestObjectNS_9allocatorEEaSERKS3_(ptr noundef nonnull align 8 dereferenceable(24) %toArray, ptr noundef nonnull align 8 dereferenceable(24) %toArraySaved)
          to label %invoke.cont526 unwind label %lpad423

invoke.cont526:                                   ; preds = %invoke.cont524
  %call528 = call noundef ptr @_ZN5eastl6vectorI10TestObjectNS_9allocatorEE5beginEv(ptr noundef nonnull align 8 dereferenceable(24) %toArray) #9
  %call529 = call noundef ptr @_ZN5eastl6vectorI10TestObjectNS_9allocatorEE3endEv(ptr noundef nonnull align 8 dereferenceable(24) %toArray) #9
  invoke void @_ZN5eastl9heap_sortIP10TestObjectEEvT_S3_(ptr noundef %call528, ptr noundef %call529)
          to label %invoke.cont530 unwind label %lpad423

invoke.cont530:                                   ; preds = %invoke.cont526
  %call531 = call noundef ptr @_ZN5eastl6vectorI10TestObjectNS_9allocatorEE5beginEv(ptr noundef nonnull align 8 dereferenceable(24) %toArray) #9
  %call532 = call noundef ptr @_ZN5eastl6vectorI10TestObjectNS_9allocatorEE3endEv(ptr noundef nonnull align 8 dereferenceable(24) %toArray) #9
  %call534 = invoke noundef zeroext i1 @_ZN5eastl9is_sortedIP10TestObjectEEbT_S3_(ptr noundef %call531, ptr noundef %call532)
          to label %invoke.cont533 unwind label %lpad423

invoke.cont533:                                   ; preds = %invoke.cont530
  %call536 = invoke noundef i32 @_ZN2EA8UnitTest12TestInternal17EATEST_VERIFY_IMPEbRiPKciS4_(i1 noundef zeroext %call534, ptr noundef nonnull align 4 dereferenceable(4) %nErrorCount, ptr noundef @.str, i32 noundef 387, ptr noundef @.str.16)
          to label %invoke.cont535 unwind label %lpad423

invoke.cont535:                                   ; preds = %invoke.cont533
  %call538 = invoke noundef nonnull align 8 dereferenceable(24) ptr @_ZN5eastl6vectorI10TestObjectNS_9allocatorEEaSERKS3_(ptr noundef nonnull align 8 dereferenceable(24) %toArray, ptr noundef nonnull align 8 dereferenceable(24) %toArraySaved)
          to label %invoke.cont537 unwind label %lpad423

invoke.cont537:                                   ; preds = %invoke.cont535
  %call539 = call noundef ptr @_ZN5eastl6vectorI10TestObjectNS_9allocatorEE5beginEv(ptr noundef nonnull align 8 dereferenceable(24) %toArray) #9
  %call540 = call noundef ptr @_ZN5eastl6vectorI10TestObjectNS_9allocatorEE3endEv(ptr noundef nonnull align 8 dereferenceable(24) %toArray) #9
  %call542 = invoke noundef ptr @_ZN5eastl21get_default_allocatorEPKNS_9allocatorE(ptr noundef null)
          to label %invoke.cont541 unwind label %lpad423

invoke.cont541:                                   ; preds = %invoke.cont537
  invoke void @_ZN5eastl10merge_sortIP10TestObjectNS_9allocatorEEEvT_S4_RT0_(ptr noundef %call539, ptr noundef %call540, ptr noundef nonnull align 1 dereferenceable(1) %call542)
          to label %invoke.cont543 unwind label %lpad423

invoke.cont543:                                   ; preds = %invoke.cont541
  %call544 = call noundef ptr @_ZN5eastl6vectorI10TestObjectNS_9allocatorEE5beginEv(ptr noundef nonnull align 8 dereferenceable(24) %toArray) #9
  %call545 = call noundef ptr @_ZN5eastl6vectorI10TestObjectNS_9allocatorEE3endEv(ptr noundef nonnull align 8 dereferenceable(24) %toArray) #9
  %call547 = invoke noundef zeroext i1 @_ZN5eastl9is_sortedIP10TestObjectEEbT_S3_(ptr noundef %call544, ptr noundef %call545)
          to label %invoke.cont546 unwind label %lpad423

invoke.cont546:                                   ; preds = %invoke.cont543
  %call549 = invoke noundef i32 @_ZN2EA8UnitTest12TestInternal17EATEST_VERIFY_IMPEbRiPKciS4_(i1 noundef zeroext %call547, ptr noundef nonnull align 4 dereferenceable(4) %nErrorCount, ptr noundef @.str, i32 noundef 392, ptr noundef @.str.16)
          to label %invoke.cont548 unwind label %lpad423

invoke.cont548:                                   ; preds = %invoke.cont546
  %call551 = invoke noundef nonnull align 8 dereferenceable(24) ptr @_ZN5eastl6vectorI10TestObjectNS_9allocatorEEaSERKS3_(ptr noundef nonnull align 8 dereferenceable(24) %toArray, ptr noundef nonnull align 8 dereferenceable(24) %toArraySaved)
          to label %invoke.cont550 unwind label %lpad423

invoke.cont550:                                   ; preds = %invoke.cont548
  %call552 = call noundef ptr @_ZN5eastl6vectorI10TestObjectNS_9allocatorEE5beginEv(ptr noundef nonnull align 8 dereferenceable(24) %toArray) #9
  %call553 = call noundef ptr @_ZN5eastl6vectorI10TestObjectNS_9allocatorEE3endEv(ptr noundef nonnull align 8 dereferenceable(24) %toArray) #9
  invoke void @_ZN5eastl10quick_sortIP10TestObjectEEvT_S3_(ptr noundef %call552, ptr noundef %call553)
          to label %invoke.cont554 unwind label %lpad423

invoke.cont554:                                   ; preds = %invoke.cont550
  %call555 = call noundef ptr @_ZN5eastl6vectorI10TestObjectNS_9allocatorEE5beginEv(ptr noundef nonnull align 8 dereferenceable(24) %toArray) #9
  %call556 = call noundef ptr @_ZN5eastl6vectorI10TestObjectNS_9allocatorEE3endEv(ptr noundef nonnull align 8 dereferenceable(24) %toArray) #9
  %call558 = invoke noundef zeroext i1 @_ZN5eastl9is_sortedIP10TestObjectEEbT_S3_(ptr noundef %call555, ptr noundef %call556)
          to label %invoke.cont557 unwind label %lpad423

invoke.cont557:                                   ; preds = %invoke.cont554
  %call560 = invoke noundef i32 @_ZN2EA8UnitTest12TestInternal17EATEST_VERIFY_IMPEbRiPKciS4_(i1 noundef zeroext %call558, ptr noundef nonnull align 4 dereferenceable(4) %nErrorCount, ptr noundef @.str, i32 noundef 396, ptr noundef @.str.16)
          to label %invoke.cont559 unwind label %lpad423

invoke.cont559:                                   ; preds = %invoke.cont557
  %call562 = invoke noundef nonnull align 8 dereferenceable(24) ptr @_ZN5eastl6vectorI10TestObjectNS_9allocatorEEaSERKS3_(ptr noundef nonnull align 8 dereferenceable(24) %toArray, ptr noundef nonnull align 8 dereferenceable(24) %toArraySaved)
          to label %invoke.cont561 unwind label %lpad423

invoke.cont561:                                   ; preds = %invoke.cont559
  %call564 = call noundef i64 @_ZNK5eastl6vectorI10TestObjectNS_9allocatorEE4sizeEv(ptr noundef nonnull align 8 dereferenceable(24) %toArray) #9
  %div565 = udiv i64 %call564, 2
  invoke void @_ZN5eastl9allocatorC2EPKc(ptr noundef nonnull align 1 dereferenceable(1) %ref.tmp566, ptr noundef @.str.15)
          to label %invoke.cont567 unwind label %lpad423

invoke.cont567:                                   ; preds = %invoke.cont561
  invoke void @_ZN5eastl6vectorI10TestObjectNS_9allocatorEEC2EmRKS2_(ptr noundef nonnull align 8 dereferenceable(24) %buffer563, i64 noundef %div565, ptr noundef nonnull align 1 dereferenceable(1) %ref.tmp566)
          to label %invoke.cont568 unwind label %lpad423

invoke.cont568:                                   ; preds = %invoke.cont567
  %call569 = call noundef ptr @_ZN5eastl6vectorI10TestObjectNS_9allocatorEE5beginEv(ptr noundef nonnull align 8 dereferenceable(24) %toArray) #9
  %call570 = call noundef ptr @_ZN5eastl6vectorI10TestObjectNS_9allocatorEE3endEv(ptr noundef nonnull align 8 dereferenceable(24) %toArray) #9
  %call571 = call noundef ptr @_ZN5eastl6vectorI10TestObjectNS_9allocatorEE4dataEv(ptr noundef nonnull align 8 dereferenceable(24) %buffer563) #9
  invoke void @_ZN5eastl15tim_sort_bufferIP10TestObjectS1_EEvT_S3_PT0_(ptr noundef %call569, ptr noundef %call570, ptr noundef %call571)
          to label %invoke.cont573 unwind label %lpad572

invoke.cont573:                                   ; preds = %invoke.cont568
  %call574 = call noundef ptr @_ZN5eastl6vectorI10TestObjectNS_9allocatorEE5beginEv(ptr noundef nonnull align 8 dereferenceable(24) %toArray) #9
  %call575 = call noundef ptr @_ZN5eastl6vectorI10TestObjectNS_9allocatorEE3endEv(ptr noundef nonnull align 8 dereferenceable(24) %toArray) #9
  %call577 = invoke noundef zeroext i1 @_ZN5eastl9is_sortedIP10TestObjectEEbT_S3_(ptr noundef %call574, ptr noundef %call575)
          to label %invoke.cont576 unwind label %lpad572

invoke.cont576:                                   ; preds = %invoke.cont573
  %call579 = invoke noundef i32 @_ZN2EA8UnitTest12TestInternal17EATEST_VERIFY_IMPEbRiPKciS4_(i1 noundef zeroext %call577, ptr noundef nonnull align 4 dereferenceable(4) %nErrorCount, ptr noundef @.str, i32 noundef 401, ptr noundef @.str.16)
          to label %invoke.cont578 unwind label %lpad572

invoke.cont578:                                   ; preds = %invoke.cont576
  call void @_ZN5eastl6vectorI10TestObjectNS_9allocatorEED2Ev(ptr noundef nonnull align 8 dereferenceable(24) %buffer563) #9
  br label %for.inc581

for.inc581:                                       ; preds = %invoke.cont578
  %70 = load i32, ptr %j451, align 4
  %inc582 = add nsw i32 %70, 1
  store i32 %inc582, ptr %j451, align 4
  br label %for.cond452, !llvm.loop !11

lpad572:                                          ; preds = %invoke.cont576, %invoke.cont573, %invoke.cont568
  %71 = landingpad { ptr, i32 }
          cleanup
  %72 = extractvalue { ptr, i32 } %71, 0
  store ptr %72, ptr %exn.slot, align 8
  %73 = extractvalue { ptr, i32 } %71, 1
  store i32 %73, ptr %ehselector.slot, align 4
  call void @_ZN5eastl6vectorI10TestObjectNS_9allocatorEED2Ev(ptr noundef nonnull align 8 dereferenceable(24) %buffer563) #9
  br label %ehcleanup589

for.end583:                                       ; preds = %for.cond452
  br label %for.inc584

for.inc584:                                       ; preds = %for.end583
  %74 = load i32, ptr %i412, align 4
  %cmp585 = icmp slt i32 %74, 5
  %cond586 = select i1 %cmp585, i32 1, i32 37
  %75 = load i32, ptr %i412, align 4
  %add587 = add nsw i32 %75, %cond586
  store i32 %add587, ptr %i412, align 4
  br label %for.cond413, !llvm.loop !12

for.end588:                                       ; preds = %for.cond413
  call void @_ZN5eastl6vectorI10TestObjectNS_9allocatorEED2Ev(ptr noundef nonnull align 8 dereferenceable(24) %toArraySaved) #9
  call void @_ZN5eastl6vectorI10TestObjectNS_9allocatorEED2Ev(ptr noundef nonnull align 8 dereferenceable(24) %toArray) #9
  call void @_ZN5eastl6vectorIZ8TestSortvE17StableSortTestObjNS_9allocatorEEC2Ev(ptr noundef nonnull align 8 dereferenceable(24) %toArray591)
  invoke void @_ZN5eastl6vectorIZ8TestSortvE17StableSortTestObjNS_9allocatorEEC2Ev(ptr noundef nonnull align 8 dereferenceable(24) %toArraySaved592)
          to label %invoke.cont594 unwind label %lpad593

invoke.cont594:                                   ; preds = %for.end588
  store i32 0, ptr %i595, align 4
  br label %for.cond596

for.cond596:                                      ; preds = %for.inc736, %invoke.cont594
  %76 = load i32, ptr %i595, align 4
  %77 = load i32, ptr @gEASTL_TestLevel, align 4
  %mul597 = mul nsw i32 %77, 200
  %add598 = add nsw i32 150, %mul597
  %cmp599 = icmp slt i32 %76, %add598
  br i1 %cmp599, label %for.body600, label %for.end740

for.body600:                                      ; preds = %for.cond596
  store i32 0, ptr %n601, align 4
  br label %for.cond602

for.cond602:                                      ; preds = %for.inc625, %for.body600
  %78 = load i32, ptr %n601, align 4
  %79 = load i32, ptr %i595, align 4
  %cmp603 = icmp slt i32 %78, %79
  br i1 %cmp603, label %for.body604, label %for.end627

for.body604:                                      ; preds = %for.cond602
  %80 = load i32, ptr %n601, align 4
  invoke void @_ZZ8TestSortvEN17StableSortTestObjC2Ei(ptr noundef nonnull align 8 dereferenceable(16) %ref.tmp605, i32 noundef %80)
          to label %invoke.cont607 unwind label %lpad606

invoke.cont607:                                   ; preds = %for.body604
  invoke void @_ZN5eastl6vectorIZ8TestSortvE17StableSortTestObjNS_9allocatorEE9push_backEOS1_(ptr noundef nonnull align 8 dereferenceable(24) %toArraySaved592, ptr noundef nonnull align 8 dereferenceable(16) %ref.tmp605)
          to label %invoke.cont608 unwind label %lpad606

invoke.cont608:                                   ; preds = %invoke.cont607
  %call610 = invoke noundef i64 @_ZN14EASTLTest_Rand9RandLimitEm(ptr noundef nonnull align 8 dereferenceable(8) %rng, i64 noundef 10)
          to label %invoke.cont609 unwind label %lpad606

invoke.cont609:                                   ; preds = %invoke.cont608
  %cmp611 = icmp eq i64 %call610, 0
  br i1 %cmp611, label %if.then612, label %if.end624

if.then612:                                       ; preds = %invoke.cont609
  %81 = load i32, ptr %n601, align 4
  invoke void @_ZZ8TestSortvEN17StableSortTestObjC2Ei(ptr noundef nonnull align 8 dereferenceable(16) %ref.tmp613, i32 noundef %81)
          to label %invoke.cont614 unwind label %lpad606

invoke.cont614:                                   ; preds = %if.then612
  invoke void @_ZN5eastl6vectorIZ8TestSortvE17StableSortTestObjNS_9allocatorEE9push_backEOS1_(ptr noundef nonnull align 8 dereferenceable(24) %toArraySaved592, ptr noundef nonnull align 8 dereferenceable(16) %ref.tmp613)
          to label %invoke.cont615 unwind label %lpad606

invoke.cont615:                                   ; preds = %invoke.cont614
  %call617 = invoke noundef i64 @_ZN14EASTLTest_Rand9RandLimitEm(ptr noundef nonnull align 8 dereferenceable(8) %rng, i64 noundef 5)
          to label %invoke.cont616 unwind label %lpad606

invoke.cont616:                                   ; preds = %invoke.cont615
  %cmp618 = icmp eq i64 %call617, 0
  br i1 %cmp618, label %if.then619, label %if.end623

if.then619:                                       ; preds = %invoke.cont616
  %82 = load i32, ptr %n601, align 4
  invoke void @_ZZ8TestSortvEN17StableSortTestObjC2Ei(ptr noundef nonnull align 8 dereferenceable(16) %ref.tmp620, i32 noundef %82)
          to label %invoke.cont621 unwind label %lpad606

invoke.cont621:                                   ; preds = %if.then619
  invoke void @_ZN5eastl6vectorIZ8TestSortvE17StableSortTestObjNS_9allocatorEE9push_backEOS1_(ptr noundef nonnull align 8 dereferenceable(24) %toArraySaved592, ptr noundef nonnull align 8 dereferenceable(16) %ref.tmp620)
          to label %invoke.cont622 unwind label %lpad606

invoke.cont622:                                   ; preds = %invoke.cont621
  br label %if.end623

ehcleanup589:                                     ; preds = %lpad572, %lpad443, %lpad434, %lpad425, %lpad423
  call void @_ZN5eastl6vectorI10TestObjectNS_9allocatorEED2Ev(ptr noundef nonnull align 8 dereferenceable(24) %toArraySaved) #9
  br label %ehcleanup590

ehcleanup590:                                     ; preds = %ehcleanup589, %lpad410
  call void @_ZN5eastl6vectorI10TestObjectNS_9allocatorEED2Ev(ptr noundef nonnull align 8 dereferenceable(24) %toArray) #9
  br label %eh.resume

lpad593:                                          ; preds = %for.end588
  %83 = landingpad { ptr, i32 }
          cleanup
  %84 = extractvalue { ptr, i32 } %83, 0
  store ptr %84, ptr %exn.slot, align 8
  %85 = extractvalue { ptr, i32 } %83, 1
  store i32 %85, ptr %ehselector.slot, align 4
  br label %ehcleanup742

lpad606:                                          ; preds = %for.end627, %invoke.cont621, %if.then619, %invoke.cont615, %invoke.cont614, %if.then612, %invoke.cont608, %invoke.cont607, %for.body604
  %86 = landingpad { ptr, i32 }
          cleanup
  %87 = extractvalue { ptr, i32 } %86, 0
  store ptr %87, ptr %exn.slot, align 8
  %88 = extractvalue { ptr, i32 } %86, 1
  store i32 %88, ptr %ehselector.slot, align 4
  br label %ehcleanup741

if.end623:                                        ; preds = %invoke.cont622, %invoke.cont616
  br label %if.end624

if.end624:                                        ; preds = %if.end623, %invoke.cont609
  br label %for.inc625

for.inc625:                                       ; preds = %if.end624
  %89 = load i32, ptr %n601, align 4
  %inc626 = add nsw i32 %89, 1
  store i32 %inc626, ptr %n601, align 4
  br label %for.cond602, !llvm.loop !13

for.end627:                                       ; preds = %for.cond602
  invoke void @_ZN5eastl6vectorIZ8TestSortvE17StableSortTestObjNS_9allocatorEEC2Ev(ptr noundef nonnull align 8 dereferenceable(24) %tempBuffer)
          to label %invoke.cont628 unwind label %lpad606

invoke.cont628:                                   ; preds = %for.end627
  %call629 = call noundef i64 @_ZNK5eastl6vectorIZ8TestSortvE17StableSortTestObjNS_9allocatorEE4sizeEv(ptr noundef nonnull align 8 dereferenceable(24) %toArraySaved592) #9
  invoke void @_ZN5eastl6vectorIZ8TestSortvE17StableSortTestObjNS_9allocatorEE6resizeEm(ptr noundef nonnull align 8 dereferenceable(24) %tempBuffer, i64 noundef %call629)
          to label %invoke.cont631 unwind label %lpad630

invoke.cont631:                                   ; preds = %invoke.cont628
  store i32 0, ptr %j632, align 4
  br label %for.cond633

for.cond633:                                      ; preds = %for.inc732, %invoke.cont631
  %90 = load i32, ptr %j632, align 4
  %91 = load i32, ptr @gEASTL_TestLevel, align 4
  %mul634 = mul nsw i32 %91, 50
  %add635 = add nsw i32 300, %mul634
  %cmp636 = icmp slt i32 %90, %add635
  br i1 %cmp636, label %for.body637, label %for.end734

for.body637:                                      ; preds = %for.cond633
  %call638 = call noundef ptr @_ZN5eastl6vectorIZ8TestSortvE17StableSortTestObjNS_9allocatorEE5beginEv(ptr noundef nonnull align 8 dereferenceable(24) %toArraySaved592) #9
  %call639 = call noundef ptr @_ZN5eastl6vectorIZ8TestSortvE17StableSortTestObjNS_9allocatorEE3endEv(ptr noundef nonnull align 8 dereferenceable(24) %toArraySaved592) #9
  invoke void @_ZN5eastl14random_shuffleIPZ8TestSortvE17StableSortTestObjR14EASTLTest_RandEEvT_S5_OT0_(ptr noundef %call638, ptr noundef %call639, ptr noundef nonnull align 8 dereferenceable(8) %rng)
          to label %invoke.cont640 unwind label %lpad630

invoke.cont640:                                   ; preds = %for.body637
  store i64 0, ptr %k, align 8
  br label %for.cond641

for.cond641:                                      ; preds = %for.inc647, %invoke.cont640
  %92 = load i64, ptr %k, align 8
  %call642 = call noundef i64 @_ZNK5eastl6vectorIZ8TestSortvE17StableSortTestObjNS_9allocatorEE4sizeEv(ptr noundef nonnull align 8 dereferenceable(24) %toArraySaved592) #9
  %cmp643 = icmp ult i64 %92, %call642
  br i1 %cmp643, label %for.body644, label %for.end649

for.body644:                                      ; preds = %for.cond641
  %93 = load i64, ptr %k, align 8
  %94 = load i64, ptr %k, align 8
  %call646 = invoke noundef nonnull align 8 dereferenceable(16) ptr @_ZN5eastl6vectorIZ8TestSortvE17StableSortTestObjNS_9allocatorEEixEm(ptr noundef nonnull align 8 dereferenceable(24) %toArraySaved592, i64 noundef %94)
          to label %invoke.cont645 unwind label %lpad630

invoke.cont645:                                   ; preds = %for.body644
  %initialPositionIndex = getelementptr inbounds %struct.StableSortTestObj, ptr %call646, i32 0, i32 1
  store i64 %93, ptr %initialPositionIndex, align 8
  br label %for.inc647

for.inc647:                                       ; preds = %invoke.cont645
  %95 = load i64, ptr %k, align 8
  %inc648 = add i64 %95, 1
  store i64 %inc648, ptr %k, align 8
  br label %for.cond641, !llvm.loop !14

lpad630:                                          ; preds = %invoke.cont728, %invoke.cont724, %invoke.cont718, %invoke.cont716, %invoke.cont714, %invoke.cont710, %invoke.cont707, %invoke.cont703, %invoke.cont701, %invoke.cont699, %invoke.cont695, %invoke.cont689, %invoke.cont687, %invoke.cont685, %invoke.cont681, %invoke.cont676, %invoke.cont674, %invoke.cont672, %invoke.cont668, %invoke.cont663, %invoke.cont661, %invoke.cont659, %invoke.cont655, %invoke.cont650, %for.end649, %for.body644, %for.body637, %invoke.cont628
  %96 = landingpad { ptr, i32 }
          cleanup
  %97 = extractvalue { ptr, i32 } %96, 0
  store ptr %97, ptr %exn.slot, align 8
  %98 = extractvalue { ptr, i32 } %96, 1
  store i32 %98, ptr %ehselector.slot, align 4
  call void @_ZN5eastl6vectorIZ8TestSortvE17StableSortTestObjNS_9allocatorEED2Ev(ptr noundef nonnull align 8 dereferenceable(24) %tempBuffer) #9
  br label %ehcleanup741

for.end649:                                       ; preds = %for.cond641
  %call651 = invoke noundef nonnull align 8 dereferenceable(24) ptr @_ZN5eastl6vectorIZ8TestSortvE17StableSortTestObjNS_9allocatorEEaSERKS3_(ptr noundef nonnull align 8 dereferenceable(24) %toArray591, ptr noundef nonnull align 8 dereferenceable(24) %toArraySaved592)
          to label %invoke.cont650 unwind label %lpad630

invoke.cont650:                                   ; preds = %for.end649
  %call652 = call noundef ptr @_ZN5eastl6vectorIZ8TestSortvE17StableSortTestObjNS_9allocatorEE5beginEv(ptr noundef nonnull align 8 dereferenceable(24) %toArray591) #9
  %call653 = call noundef ptr @_ZN5eastl6vectorIZ8TestSortvE17StableSortTestObjNS_9allocatorEE3endEv(ptr noundef nonnull align 8 dereferenceable(24) %toArray591) #9
  invoke void @_ZN5eastl11bubble_sortIPZ8TestSortvE17StableSortTestObjZ8TestSortvE17StableSortCompareEEvT_S4_T0_(ptr noundef %call652, ptr noundef %call653)
          to label %invoke.cont655 unwind label %lpad630

invoke.cont655:                                   ; preds = %invoke.cont650
  %call656 = call noundef ptr @_ZN5eastl6vectorIZ8TestSortvE17StableSortTestObjNS_9allocatorEE5beginEv(ptr noundef nonnull align 8 dereferenceable(24) %toArray591) #9
  %call657 = call noundef ptr @_ZN5eastl6vectorIZ8TestSortvE17StableSortTestObjNS_9allocatorEE3endEv(ptr noundef nonnull align 8 dereferenceable(24) %toArray591) #9
  %call660 = invoke noundef zeroext i1 @_ZN5eastl9is_sortedIPZ8TestSortvE17StableSortTestObjZ8TestSortvE29StableSortCompareForStabilityEEbT_S4_T0_(ptr noundef %call656, ptr noundef %call657)
          to label %invoke.cont659 unwind label %lpad630

invoke.cont659:                                   ; preds = %invoke.cont655
  %call662 = invoke noundef i32 @_ZN2EA8UnitTest12TestInternal17EATEST_VERIFY_IMPEbRiPKciS4_(i1 noundef zeroext %call660, ptr noundef nonnull align 4 dereferenceable(4) %nErrorCount, ptr noundef @.str, i32 noundef 482, ptr noundef @.str.17)
          to label %invoke.cont661 unwind label %lpad630

invoke.cont661:                                   ; preds = %invoke.cont659
  %call664 = invoke noundef nonnull align 8 dereferenceable(24) ptr @_ZN5eastl6vectorIZ8TestSortvE17StableSortTestObjNS_9allocatorEEaSERKS3_(ptr noundef nonnull align 8 dereferenceable(24) %toArray591, ptr noundef nonnull align 8 dereferenceable(24) %toArraySaved592)
          to label %invoke.cont663 unwind label %lpad630

invoke.cont663:                                   ; preds = %invoke.cont661
  %call665 = call noundef ptr @_ZN5eastl6vectorIZ8TestSortvE17StableSortTestObjNS_9allocatorEE5beginEv(ptr noundef nonnull align 8 dereferenceable(24) %toArray591) #9
  %call666 = call noundef ptr @_ZN5eastl6vectorIZ8TestSortvE17StableSortTestObjNS_9allocatorEE3endEv(ptr noundef nonnull align 8 dereferenceable(24) %toArray591) #9
  invoke void @_ZN5eastl11shaker_sortIPZ8TestSortvE17StableSortTestObjZ8TestSortvE17StableSortCompareEEvT_S4_T0_(ptr noundef %call665, ptr noundef %call666)
          to label %invoke.cont668 unwind label %lpad630

invoke.cont668:                                   ; preds = %invoke.cont663
  %call669 = call noundef ptr @_ZN5eastl6vectorIZ8TestSortvE17StableSortTestObjNS_9allocatorEE5beginEv(ptr noundef nonnull align 8 dereferenceable(24) %toArray591) #9
  %call670 = call noundef ptr @_ZN5eastl6vectorIZ8TestSortvE17StableSortTestObjNS_9allocatorEE3endEv(ptr noundef nonnull align 8 dereferenceable(24) %toArray591) #9
  %call673 = invoke noundef zeroext i1 @_ZN5eastl9is_sortedIPZ8TestSortvE17StableSortTestObjZ8TestSortvE29StableSortCompareForStabilityEEbT_S4_T0_(ptr noundef %call669, ptr noundef %call670)
          to label %invoke.cont672 unwind label %lpad630

invoke.cont672:                                   ; preds = %invoke.cont668
  %call675 = invoke noundef i32 @_ZN2EA8UnitTest12TestInternal17EATEST_VERIFY_IMPEbRiPKciS4_(i1 noundef zeroext %call673, ptr noundef nonnull align 4 dereferenceable(4) %nErrorCount, ptr noundef @.str, i32 noundef 486, ptr noundef @.str.17)
          to label %invoke.cont674 unwind label %lpad630

invoke.cont674:                                   ; preds = %invoke.cont672
  %call677 = invoke noundef nonnull align 8 dereferenceable(24) ptr @_ZN5eastl6vectorIZ8TestSortvE17StableSortTestObjNS_9allocatorEEaSERKS3_(ptr noundef nonnull align 8 dereferenceable(24) %toArray591, ptr noundef nonnull align 8 dereferenceable(24) %toArraySaved592)
          to label %invoke.cont676 unwind label %lpad630

invoke.cont676:                                   ; preds = %invoke.cont674
  %call678 = call noundef ptr @_ZN5eastl6vectorIZ8TestSortvE17StableSortTestObjNS_9allocatorEE5beginEv(ptr noundef nonnull align 8 dereferenceable(24) %toArray591) #9
  %call679 = call noundef ptr @_ZN5eastl6vectorIZ8TestSortvE17StableSortTestObjNS_9allocatorEE3endEv(ptr noundef nonnull align 8 dereferenceable(24) %toArray591) #9
  invoke void @_ZN5eastl14insertion_sortIPZ8TestSortvE17StableSortTestObjZ8TestSortvE17StableSortCompareEEvT_S4_T0_(ptr noundef %call678, ptr noundef %call679)
          to label %invoke.cont681 unwind label %lpad630

invoke.cont681:                                   ; preds = %invoke.cont676
  %call682 = call noundef ptr @_ZN5eastl6vectorIZ8TestSortvE17StableSortTestObjNS_9allocatorEE5beginEv(ptr noundef nonnull align 8 dereferenceable(24) %toArray591) #9
  %call683 = call noundef ptr @_ZN5eastl6vectorIZ8TestSortvE17StableSortTestObjNS_9allocatorEE3endEv(ptr noundef nonnull align 8 dereferenceable(24) %toArray591) #9
  %call686 = invoke noundef zeroext i1 @_ZN5eastl9is_sortedIPZ8TestSortvE17StableSortTestObjZ8TestSortvE29StableSortCompareForStabilityEEbT_S4_T0_(ptr noundef %call682, ptr noundef %call683)
          to label %invoke.cont685 unwind label %lpad630

invoke.cont685:                                   ; preds = %invoke.cont681
  %call688 = invoke noundef i32 @_ZN2EA8UnitTest12TestInternal17EATEST_VERIFY_IMPEbRiPKciS4_(i1 noundef zeroext %call686, ptr noundef nonnull align 4 dereferenceable(4) %nErrorCount, ptr noundef @.str, i32 noundef 490, ptr noundef @.str.17)
          to label %invoke.cont687 unwind label %lpad630

invoke.cont687:                                   ; preds = %invoke.cont685
  %call690 = invoke noundef nonnull align 8 dereferenceable(24) ptr @_ZN5eastl6vectorIZ8TestSortvE17StableSortTestObjNS_9allocatorEEaSERKS3_(ptr noundef nonnull align 8 dereferenceable(24) %toArray591, ptr noundef nonnull align 8 dereferenceable(24) %toArraySaved592)
          to label %invoke.cont689 unwind label %lpad630

invoke.cont689:                                   ; preds = %invoke.cont687
  %call691 = call noundef ptr @_ZN5eastl6vectorIZ8TestSortvE17StableSortTestObjNS_9allocatorEE5beginEv(ptr noundef nonnull align 8 dereferenceable(24) %toArray591) #9
  %call692 = call noundef ptr @_ZN5eastl6vectorIZ8TestSortvE17StableSortTestObjNS_9allocatorEE3endEv(ptr noundef nonnull align 8 dereferenceable(24) %toArray591) #9
  %call693 = call noundef ptr @_ZN5eastl6vectorIZ8TestSortvE17StableSortTestObjNS_9allocatorEE4dataEv(ptr noundef nonnull align 8 dereferenceable(24) %tempBuffer) #9
  invoke void @_ZN5eastl15tim_sort_bufferIPZ8TestSortvE17StableSortTestObjS1_Z8TestSortvE17StableSortCompareEEvT_S4_PT0_T1_(ptr noundef %call691, ptr noundef %call692, ptr noundef %call693)
          to label %invoke.cont695 unwind label %lpad630

invoke.cont695:                                   ; preds = %invoke.cont689
  %call696 = call noundef ptr @_ZN5eastl6vectorIZ8TestSortvE17StableSortTestObjNS_9allocatorEE5beginEv(ptr noundef nonnull align 8 dereferenceable(24) %toArray591) #9
  %call697 = call noundef ptr @_ZN5eastl6vectorIZ8TestSortvE17StableSortTestObjNS_9allocatorEE3endEv(ptr noundef nonnull align 8 dereferenceable(24) %toArray591) #9
  %call700 = invoke noundef zeroext i1 @_ZN5eastl9is_sortedIPZ8TestSortvE17StableSortTestObjZ8TestSortvE29StableSortCompareForStabilityEEbT_S4_T0_(ptr noundef %call696, ptr noundef %call697)
          to label %invoke.cont699 unwind label %lpad630

invoke.cont699:                                   ; preds = %invoke.cont695
  %call702 = invoke noundef i32 @_ZN2EA8UnitTest12TestInternal17EATEST_VERIFY_IMPEbRiPKciS4_(i1 noundef zeroext %call700, ptr noundef nonnull align 4 dereferenceable(4) %nErrorCount, ptr noundef @.str, i32 noundef 494, ptr noundef @.str.17)
          to label %invoke.cont701 unwind label %lpad630

invoke.cont701:                                   ; preds = %invoke.cont699
  %call704 = invoke noundef nonnull align 8 dereferenceable(24) ptr @_ZN5eastl6vectorIZ8TestSortvE17StableSortTestObjNS_9allocatorEEaSERKS3_(ptr noundef nonnull align 8 dereferenceable(24) %toArray591, ptr noundef nonnull align 8 dereferenceable(24) %toArraySaved592)
          to label %invoke.cont703 unwind label %lpad630

invoke.cont703:                                   ; preds = %invoke.cont701
  %call705 = call noundef ptr @_ZN5eastl6vectorIZ8TestSortvE17StableSortTestObjNS_9allocatorEE5beginEv(ptr noundef nonnull align 8 dereferenceable(24) %toArray591) #9
  %call706 = call noundef ptr @_ZN5eastl6vectorIZ8TestSortvE17StableSortTestObjNS_9allocatorEE3endEv(ptr noundef nonnull align 8 dereferenceable(24) %toArray591) #9
  %call708 = invoke noundef ptr @_ZN5eastl21get_default_allocatorEPKNS_9allocatorE(ptr noundef null)
          to label %invoke.cont707 unwind label %lpad630

invoke.cont707:                                   ; preds = %invoke.cont703
  invoke void @_ZN5eastl10merge_sortIPZ8TestSortvE17StableSortTestObjNS_9allocatorEZ8TestSortvE17StableSortCompareEEvT_S5_RT0_T1_(ptr noundef %call705, ptr noundef %call706, ptr noundef nonnull align 1 dereferenceable(1) %call708)
          to label %invoke.cont710 unwind label %lpad630

invoke.cont710:                                   ; preds = %invoke.cont707
  %call711 = call noundef ptr @_ZN5eastl6vectorIZ8TestSortvE17StableSortTestObjNS_9allocatorEE5beginEv(ptr noundef nonnull align 8 dereferenceable(24) %toArray591) #9
  %call712 = call noundef ptr @_ZN5eastl6vectorIZ8TestSortvE17StableSortTestObjNS_9allocatorEE3endEv(ptr noundef nonnull align 8 dereferenceable(24) %toArray591) #9
  %call715 = invoke noundef zeroext i1 @_ZN5eastl9is_sortedIPZ8TestSortvE17StableSortTestObjZ8TestSortvE29StableSortCompareForStabilityEEbT_S4_T0_(ptr noundef %call711, ptr noundef %call712)
          to label %invoke.cont714 unwind label %lpad630

invoke.cont714:                                   ; preds = %invoke.cont710
  %call717 = invoke noundef i32 @_ZN2EA8UnitTest12TestInternal17EATEST_VERIFY_IMPEbRiPKciS4_(i1 noundef zeroext %call715, ptr noundef nonnull align 4 dereferenceable(4) %nErrorCount, ptr noundef @.str, i32 noundef 498, ptr noundef @.str.17)
          to label %invoke.cont716 unwind label %lpad630

invoke.cont716:                                   ; preds = %invoke.cont714
  %call719 = invoke noundef nonnull align 8 dereferenceable(24) ptr @_ZN5eastl6vectorIZ8TestSortvE17StableSortTestObjNS_9allocatorEEaSERKS3_(ptr noundef nonnull align 8 dereferenceable(24) %toArray591, ptr noundef nonnull align 8 dereferenceable(24) %toArraySaved592)
          to label %invoke.cont718 unwind label %lpad630

invoke.cont718:                                   ; preds = %invoke.cont716
  %call720 = call noundef ptr @_ZN5eastl6vectorIZ8TestSortvE17StableSortTestObjNS_9allocatorEE5beginEv(ptr noundef nonnull align 8 dereferenceable(24) %toArray591) #9
  %call721 = call noundef ptr @_ZN5eastl6vectorIZ8TestSortvE17StableSortTestObjNS_9allocatorEE3endEv(ptr noundef nonnull align 8 dereferenceable(24) %toArray591) #9
  %call722 = call noundef ptr @_ZN5eastl6vectorIZ8TestSortvE17StableSortTestObjNS_9allocatorEE4dataEv(ptr noundef nonnull align 8 dereferenceable(24) %tempBuffer) #9
  invoke void @_ZN5eastl17merge_sort_bufferIPZ8TestSortvE17StableSortTestObjS1_Z8TestSortvE17StableSortCompareEEvT_S4_PT0_T1_(ptr noundef %call720, ptr noundef %call721, ptr noundef %call722)
          to label %invoke.cont724 unwind label %lpad630

invoke.cont724:                                   ; preds = %invoke.cont718
  %call725 = call noundef ptr @_ZN5eastl6vectorIZ8TestSortvE17StableSortTestObjNS_9allocatorEE5beginEv(ptr noundef nonnull align 8 dereferenceable(24) %toArray591) #9
  %call726 = call noundef ptr @_ZN5eastl6vectorIZ8TestSortvE17StableSortTestObjNS_9allocatorEE3endEv(ptr noundef nonnull align 8 dereferenceable(24) %toArray591) #9
  %call729 = invoke noundef zeroext i1 @_ZN5eastl9is_sortedIPZ8TestSortvE17StableSortTestObjZ8TestSortvE29StableSortCompareForStabilityEEbT_S4_T0_(ptr noundef %call725, ptr noundef %call726)
          to label %invoke.cont728 unwind label %lpad630

invoke.cont728:                                   ; preds = %invoke.cont724
  %call731 = invoke noundef i32 @_ZN2EA8UnitTest12TestInternal17EATEST_VERIFY_IMPEbRiPKciS4_(i1 noundef zeroext %call729, ptr noundef nonnull align 4 dereferenceable(4) %nErrorCount, ptr noundef @.str, i32 noundef 502, ptr noundef @.str.17)
          to label %invoke.cont730 unwind label %lpad630

invoke.cont730:                                   ; preds = %invoke.cont728
  br label %for.inc732

for.inc732:                                       ; preds = %invoke.cont730
  %99 = load i32, ptr %j632, align 4
  %inc733 = add nsw i32 %99, 1
  store i32 %inc733, ptr %j632, align 4
  br label %for.cond633, !llvm.loop !15

for.end734:                                       ; preds = %for.cond633
  call void @_ZN5eastl6vectorIZ8TestSortvE17StableSortTestObjNS_9allocatorEED2Ev(ptr noundef nonnull align 8 dereferenceable(24) %tempBuffer) #9
  br label %for.inc736

for.inc736:                                       ; preds = %for.end734
  %100 = load i32, ptr %i595, align 4
  %cmp737 = icmp slt i32 %100, 5
  %cond738 = select i1 %cmp737, i32 1, i32 37
  %101 = load i32, ptr %i595, align 4
  %add739 = add nsw i32 %101, %cond738
  store i32 %add739, ptr %i595, align 4
  br label %for.cond596, !llvm.loop !16

for.end740:                                       ; preds = %for.cond596
  call void @_ZN5eastl6vectorIZ8TestSortvE17StableSortTestObjNS_9allocatorEED2Ev(ptr noundef nonnull align 8 dereferenceable(24) %toArraySaved592) #9
  call void @_ZN5eastl6vectorIZ8TestSortvE17StableSortTestObjNS_9allocatorEED2Ev(ptr noundef nonnull align 8 dereferenceable(24) %toArray591) #9
  call void @llvm.memcpy.p0.p0.i64(ptr align 16 %intArrayInit, ptr align 16 @__const._Z8TestSortv.intArrayInit, i64 64, i1 false)
  store i64 1, ptr %i744, align 8
  br label %for.cond746

for.cond746:                                      ; preds = %for.inc776, %for.end740
  %102 = load i64, ptr %i744, align 8
  %cmp747 = icmp ult i64 %102, 16
  br i1 %cmp747, label %for.body748, label %for.end778

for.body748:                                      ; preds = %for.cond746
  store i64 0, ptr %j745, align 8
  br label %for.cond749

for.cond749:                                      ; preds = %for.inc773, %for.body748
  %103 = load i64, ptr %j745, align 8
  %104 = load i64, ptr %i744, align 8
  %cmp750 = icmp ult i64 %103, %104
  br i1 %cmp750, label %for.body751, label %for.end775

for.body751:                                      ; preds = %for.cond749
  %arraydecay752 = getelementptr inbounds [16 x i32], ptr %intArrayInit, i64 0, i64 0
  %arraydecay753 = getelementptr inbounds [16 x i32], ptr %intArrayInit, i64 0, i64 0
  %105 = load i64, ptr %i744, align 8
  %add.ptr754 = getelementptr inbounds i32, ptr %arraydecay753, i64 %105
  %arraydecay755 = getelementptr inbounds [16 x i32], ptr %intArraySorted, i64 0, i64 0
  %call756 = call noundef ptr @_ZN5eastl4copyIPKiPiEET0_T_S5_S4_(ptr noundef %arraydecay752, ptr noundef %add.ptr754, ptr noundef %arraydecay755)
  %arraydecay757 = getelementptr inbounds [16 x i32], ptr %intArraySorted, i64 0, i64 0
  %arraydecay758 = getelementptr inbounds [16 x i32], ptr %intArraySorted, i64 0, i64 0
  %106 = load i64, ptr %i744, align 8
  %add.ptr759 = getelementptr inbounds i32, ptr %arraydecay758, i64 %106
  call void @_ZN5eastl4sortIPiEEvT_S2_(ptr noundef %arraydecay757, ptr noundef %add.ptr759)
  %arraydecay760 = getelementptr inbounds [16 x i32], ptr %intArrayInit, i64 0, i64 0
  %arraydecay761 = getelementptr inbounds [16 x i32], ptr %intArrayInit, i64 0, i64 0
  %107 = load i64, ptr %i744, align 8
  %add.ptr762 = getelementptr inbounds i32, ptr %arraydecay761, i64 %107
  %arraydecay763 = getelementptr inbounds [16 x i32], ptr %intArray743, i64 0, i64 0
  %call764 = call noundef ptr @_ZN5eastl4copyIPKiPiEET0_T_S5_S4_(ptr noundef %arraydecay760, ptr noundef %add.ptr762, ptr noundef %arraydecay763)
  %arraydecay765 = getelementptr inbounds [16 x i32], ptr %intArray743, i64 0, i64 0
  %arraydecay766 = getelementptr inbounds [16 x i32], ptr %intArray743, i64 0, i64 0
  %108 = load i64, ptr %j745, align 8
  %add.ptr767 = getelementptr inbounds i32, ptr %arraydecay766, i64 %108
  %arraydecay768 = getelementptr inbounds [16 x i32], ptr %intArray743, i64 0, i64 0
  %109 = load i64, ptr %i744, align 8
  %add.ptr769 = getelementptr inbounds i32, ptr %arraydecay768, i64 %109
  call void @_ZN5eastl11nth_elementIPiEEvT_S2_S2_(ptr noundef %arraydecay765, ptr noundef %add.ptr767, ptr noundef %add.ptr769)
  %110 = load i64, ptr %j745, align 8
  %arrayidx = getelementptr inbounds [16 x i32], ptr %intArray743, i64 0, i64 %110
  %111 = load i32, ptr %arrayidx, align 4
  %112 = load i64, ptr %j745, align 8
  %arrayidx770 = getelementptr inbounds [16 x i32], ptr %intArraySorted, i64 0, i64 %112
  %113 = load i32, ptr %arrayidx770, align 4
  %cmp771 = icmp eq i32 %111, %113
  %call772 = call noundef i32 @_ZN2EA8UnitTest12TestInternal17EATEST_VERIFY_IMPEbRiPKciS4_(i1 noundef zeroext %cmp771, ptr noundef nonnull align 4 dereferenceable(4) %nErrorCount, ptr noundef @.str, i32 noundef 537, ptr noundef @.str.18)
  br label %for.inc773

for.inc773:                                       ; preds = %for.body751
  %114 = load i64, ptr %j745, align 8
  %inc774 = add i64 %114, 1
  store i64 %inc774, ptr %j745, align 8
  br label %for.cond749, !llvm.loop !17

ehcleanup741:                                     ; preds = %lpad630, %lpad606
  call void @_ZN5eastl6vectorIZ8TestSortvE17StableSortTestObjNS_9allocatorEED2Ev(ptr noundef nonnull align 8 dereferenceable(24) %toArraySaved592) #9
  br label %ehcleanup742

ehcleanup742:                                     ; preds = %ehcleanup741, %lpad593
  call void @_ZN5eastl6vectorIZ8TestSortvE17StableSortTestObjNS_9allocatorEED2Ev(ptr noundef nonnull align 8 dereferenceable(24) %toArray591) #9
  br label %eh.resume

for.end775:                                       ; preds = %for.cond749
  br label %for.inc776

for.inc776:                                       ; preds = %for.end775
  %115 = load i64, ptr %i744, align 8
  %inc777 = add i64 %115, 1
  store i64 %inc777, ptr %i744, align 8
  br label %for.cond746, !llvm.loop !18

for.end778:                                       ; preds = %for.cond746
  store i64 1, ptr %i744, align 8
  br label %for.cond779

for.cond779:                                      ; preds = %for.inc811, %for.end778
  %116 = load i64, ptr %i744, align 8
  %cmp780 = icmp ult i64 %116, 16
  br i1 %cmp780, label %for.body781, label %for.end813

for.body781:                                      ; preds = %for.cond779
  store i64 0, ptr %j745, align 8
  br label %for.cond782

for.cond782:                                      ; preds = %for.inc808, %for.body781
  %117 = load i64, ptr %j745, align 8
  %118 = load i64, ptr %i744, align 8
  %cmp783 = icmp ult i64 %117, %118
  br i1 %cmp783, label %for.body784, label %for.end810

for.body784:                                      ; preds = %for.cond782
  %arraydecay785 = getelementptr inbounds [16 x i32], ptr %intArrayInit, i64 0, i64 0
  %arraydecay786 = getelementptr inbounds [16 x i32], ptr %intArrayInit, i64 0, i64 0
  %119 = load i64, ptr %i744, align 8
  %add.ptr787 = getelementptr inbounds i32, ptr %arraydecay786, i64 %119
  %arraydecay788 = getelementptr inbounds [16 x i32], ptr %intArraySorted, i64 0, i64 0
  %call789 = call noundef ptr @_ZN5eastl4copyIPKiPiEET0_T_S5_S4_(ptr noundef %arraydecay785, ptr noundef %add.ptr787, ptr noundef %arraydecay788)
  %arraydecay790 = getelementptr inbounds [16 x i32], ptr %intArraySorted, i64 0, i64 0
  %arraydecay791 = getelementptr inbounds [16 x i32], ptr %intArraySorted, i64 0, i64 0
  %120 = load i64, ptr %i744, align 8
  %add.ptr792 = getelementptr inbounds i32, ptr %arraydecay791, i64 %120
  call void @_ZN5eastl4sortIPiEEvT_S2_(ptr noundef %arraydecay790, ptr noundef %add.ptr792)
  %arraydecay793 = getelementptr inbounds [16 x i32], ptr %intArrayInit, i64 0, i64 0
  %arraydecay794 = getelementptr inbounds [16 x i32], ptr %intArrayInit, i64 0, i64 0
  %add.ptr795 = getelementptr inbounds i32, ptr %arraydecay794, i64 16
  %arraydecay796 = getelementptr inbounds [16 x i32], ptr %intArray743, i64 0, i64 0
  %call797 = call noundef ptr @_ZN5eastl4copyIPKiPiEET0_T_S5_S4_(ptr noundef %arraydecay793, ptr noundef %add.ptr795, ptr noundef %arraydecay796)
  %arraydecay798 = getelementptr inbounds [16 x i32], ptr %intArray743, i64 0, i64 0
  %arraydecay799 = getelementptr inbounds [16 x i32], ptr %intArray743, i64 0, i64 0
  %121 = load i64, ptr %j745, align 8
  %add.ptr800 = getelementptr inbounds i32, ptr %arraydecay799, i64 %121
  %arraydecay801 = getelementptr inbounds [16 x i32], ptr %intArray743, i64 0, i64 0
  %122 = load i64, ptr %i744, align 8
  %add.ptr802 = getelementptr inbounds i32, ptr %arraydecay801, i64 %122
  call void @_ZN5eastl11nth_elementIPiNS_4lessIiEEEEvT_S4_S4_T0_(ptr noundef %arraydecay798, ptr noundef %add.ptr800, ptr noundef %add.ptr802)
  %123 = load i64, ptr %j745, align 8
  %arrayidx804 = getelementptr inbounds [16 x i32], ptr %intArray743, i64 0, i64 %123
  %124 = load i32, ptr %arrayidx804, align 4
  %125 = load i64, ptr %j745, align 8
  %arrayidx805 = getelementptr inbounds [16 x i32], ptr %intArraySorted, i64 0, i64 %125
  %126 = load i32, ptr %arrayidx805, align 4
  %cmp806 = icmp eq i32 %124, %126
  %call807 = call noundef i32 @_ZN2EA8UnitTest12TestInternal17EATEST_VERIFY_IMPEbRiPKciS4_(i1 noundef zeroext %cmp806, ptr noundef nonnull align 4 dereferenceable(4) %nErrorCount, ptr noundef @.str, i32 noundef 550, ptr noundef @.str.18)
  br label %for.inc808

for.inc808:                                       ; preds = %for.body784
  %127 = load i64, ptr %j745, align 8
  %inc809 = add i64 %127, 1
  store i64 %inc809, ptr %j745, align 8
  br label %for.cond782, !llvm.loop !19

for.end810:                                       ; preds = %for.cond782
  br label %for.inc811

for.inc811:                                       ; preds = %for.end810
  %128 = load i64, ptr %i744, align 8
  %inc812 = add i64 %128, 1
  store i64 %inc812, ptr %i744, align 8
  br label %for.cond779, !llvm.loop !20

for.end813:                                       ; preds = %for.cond779
  store i32 100, ptr %kCount, align 4
  %call814 = call noalias noundef nonnull ptr @_Znam(i64 noundef 800) #10
  store ptr %call814, ptr %pRadixSortElementArray32, align 8
  %call815 = call noalias noundef nonnull ptr @_Znam(i64 noundef 800) #10
  store ptr %call815, ptr %pRadixSortElementArrayTemp32, align 8
  store i32 0, ptr %i816, align 4
  br label %for.cond817

for.cond817:                                      ; preds = %for.inc826, %for.end813
  %129 = load i32, ptr %i816, align 4
  %cmp818 = icmp ult i32 %129, 100
  br i1 %cmp818, label %for.body819, label %for.end828

for.body819:                                      ; preds = %for.cond817
  %130 = load i32, ptr %i816, align 4
  %sub = sub i32 100, %130
  %conv820 = trunc i32 %sub to i16
  %conv821 = zext i16 %conv820 to i32
  %131 = load ptr, ptr %pRadixSortElementArray32, align 8
  %132 = load i32, ptr %i816, align 4
  %idxprom = zext i32 %132 to i64
  %arrayidx822 = getelementptr inbounds %"struct.eastl::Internal::RadixSortElement", ptr %131, i64 %idxprom
  %mKey = getelementptr inbounds %"struct.eastl::Internal::RadixSortElement", ptr %arrayidx822, i32 0, i32 0
  store i32 %conv821, ptr %mKey, align 4
  %133 = load i32, ptr %i816, align 4
  %conv823 = trunc i32 %133 to i16
  %134 = load ptr, ptr %pRadixSortElementArray32, align 8
  %135 = load i32, ptr %i816, align 4
  %idxprom824 = zext i32 %135 to i64
  %arrayidx825 = getelementptr inbounds %"struct.eastl::Internal::RadixSortElement", ptr %134, i64 %idxprom824
  %mData = getelementptr inbounds %"struct.eastl::Internal::RadixSortElement", ptr %arrayidx825, i32 0, i32 1
  store i16 %conv823, ptr %mData, align 4
  br label %for.inc826

for.inc826:                                       ; preds = %for.body819
  %136 = load i32, ptr %i816, align 4
  %inc827 = add i32 %136, 1
  store i32 %inc827, ptr %i816, align 4
  br label %for.cond817, !llvm.loop !21

for.end828:                                       ; preds = %for.cond817
  %137 = load ptr, ptr %pRadixSortElementArray32, align 8
  %138 = load ptr, ptr %pRadixSortElementArray32, align 8
  %add.ptr829 = getelementptr inbounds %"struct.eastl::Internal::RadixSortElement", ptr %138, i64 100
  %139 = load ptr, ptr %pRadixSortElementArrayTemp32, align 8
  call void @_ZN5eastl10radix_sortIPNS_8Internal16RadixSortElementIjEENS1_17extract_radix_keyIS3_EELi8EEEvT_S7_S7_(ptr noundef %137, ptr noundef %add.ptr829, ptr noundef %139)
  %140 = load ptr, ptr %pRadixSortElementArray32, align 8
  %141 = load ptr, ptr %pRadixSortElementArray32, align 8
  %add.ptr830 = getelementptr inbounds %"struct.eastl::Internal::RadixSortElement", ptr %141, i64 100
  %call831 = call noundef zeroext i1 @_ZN5eastl9is_sortedIPNS_8Internal16RadixSortElementIjEEEEbT_S5_(ptr noundef %140, ptr noundef %add.ptr830)
  %call832 = call noundef i32 @_ZN2EA8UnitTest12TestInternal17EATEST_VERIFY_IMPEbRiPKciS4_(i1 noundef zeroext %call831, ptr noundef nonnull align 4 dereferenceable(4) %nErrorCount, ptr noundef @.str, i32 noundef 569, ptr noundef @.str.19)
  %142 = load ptr, ptr %pRadixSortElementArray32, align 8
  %isnull = icmp eq ptr %142, null
  br i1 %isnull, label %delete.end, label %delete.notnull

delete.notnull:                                   ; preds = %for.end828
  call void @_ZdaPv(ptr noundef %142) #11
  br label %delete.end

delete.end:                                       ; preds = %delete.notnull, %for.end828
  %143 = load ptr, ptr %pRadixSortElementArrayTemp32, align 8
  %isnull833 = icmp eq ptr %143, null
  br i1 %isnull833, label %delete.end835, label %delete.notnull834

delete.notnull834:                                ; preds = %delete.end
  call void @_ZdaPv(ptr noundef %143) #11
  br label %delete.end835

delete.end835:                                    ; preds = %delete.notnull834, %delete.end
  %call836 = call noalias noundef nonnull ptr @_Znam(i64 noundef 400) #10
  store ptr %call836, ptr %pRadixSortElementArray16, align 8
  %call837 = call noalias noundef nonnull ptr @_Znam(i64 noundef 400) #10
  store ptr %call837, ptr %pRadixSortElementArrayTemp16, align 8
  store i32 0, ptr %i838, align 4
  br label %for.cond839

for.cond839:                                      ; preds = %for.inc851, %delete.end835
  %144 = load i32, ptr %i838, align 4
  %cmp840 = icmp ult i32 %144, 100
  br i1 %cmp840, label %for.body841, label %for.end853

for.body841:                                      ; preds = %for.cond839
  %145 = load i32, ptr %i838, align 4
  %sub842 = sub i32 100, %145
  %conv843 = trunc i32 %sub842 to i16
  %146 = load ptr, ptr %pRadixSortElementArray16, align 8
  %147 = load i32, ptr %i838, align 4
  %idxprom844 = zext i32 %147 to i64
  %arrayidx845 = getelementptr inbounds %"struct.eastl::Internal::RadixSortElement.8", ptr %146, i64 %idxprom844
  %mKey846 = getelementptr inbounds %"struct.eastl::Internal::RadixSortElement.8", ptr %arrayidx845, i32 0, i32 0
  store i16 %conv843, ptr %mKey846, align 2
  %148 = load i32, ptr %i838, align 4
  %conv847 = trunc i32 %148 to i16
  %149 = load ptr, ptr %pRadixSortElementArray16, align 8
  %150 = load i32, ptr %i838, align 4
  %idxprom848 = zext i32 %150 to i64
  %arrayidx849 = getelementptr inbounds %"struct.eastl::Internal::RadixSortElement.8", ptr %149, i64 %idxprom848
  %mData850 = getelementptr inbounds %"struct.eastl::Internal::RadixSortElement.8", ptr %arrayidx849, i32 0, i32 1
  store i16 %conv847, ptr %mData850, align 2
  br label %for.inc851

for.inc851:                                       ; preds = %for.body841
  %151 = load i32, ptr %i838, align 4
  %inc852 = add i32 %151, 1
  store i32 %inc852, ptr %i838, align 4
  br label %for.cond839, !llvm.loop !22

for.end853:                                       ; preds = %for.cond839
  %152 = load ptr, ptr %pRadixSortElementArray16, align 8
  %153 = load ptr, ptr %pRadixSortElementArray16, align 8
  %add.ptr854 = getelementptr inbounds %"struct.eastl::Internal::RadixSortElement.8", ptr %153, i64 100
  %154 = load ptr, ptr %pRadixSortElementArrayTemp16, align 8
  call void @_ZN5eastl10radix_sortIPNS_8Internal16RadixSortElementItEENS1_17extract_radix_keyIS3_EELi8EEEvT_S7_S7_(ptr noundef %152, ptr noundef %add.ptr854, ptr noundef %154)
  %155 = load ptr, ptr %pRadixSortElementArray16, align 8
  %156 = load ptr, ptr %pRadixSortElementArray16, align 8
  %add.ptr855 = getelementptr inbounds %"struct.eastl::Internal::RadixSortElement.8", ptr %156, i64 100
  %call856 = call noundef zeroext i1 @_ZN5eastl9is_sortedIPNS_8Internal16RadixSortElementItEEEEbT_S5_(ptr noundef %155, ptr noundef %add.ptr855)
  %call857 = call noundef i32 @_ZN2EA8UnitTest12TestInternal17EATEST_VERIFY_IMPEbRiPKciS4_(i1 noundef zeroext %call856, ptr noundef nonnull align 4 dereferenceable(4) %nErrorCount, ptr noundef @.str, i32 noundef 583, ptr noundef @.str.20)
  %157 = load ptr, ptr %pRadixSortElementArray16, align 8
  %isnull858 = icmp eq ptr %157, null
  br i1 %isnull858, label %delete.end860, label %delete.notnull859

delete.notnull859:                                ; preds = %for.end853
  call void @_ZdaPv(ptr noundef %157) #11
  br label %delete.end860

delete.end860:                                    ; preds = %delete.notnull859, %for.end853
  %158 = load ptr, ptr %pRadixSortElementArrayTemp16, align 8
  %isnull861 = icmp eq ptr %158, null
  br i1 %isnull861, label %delete.end863, label %delete.notnull862

delete.notnull862:                                ; preds = %delete.end860
  call void @_ZdaPv(ptr noundef %158) #11
  br label %delete.end863

delete.end863:                                    ; preds = %delete.notnull862, %delete.end860
  %call864 = call noalias noundef nonnull ptr @_Znam(i64 noundef 400) #10
  store ptr %call864, ptr %pRadixSortElementArray8, align 8
  %call865 = call noalias noundef nonnull ptr @_Znam(i64 noundef 400) #10
  store ptr %call865, ptr %pRadixSortElementArrayTemp8, align 8
  store i32 0, ptr %i866, align 4
  br label %for.cond867

for.cond867:                                      ; preds = %for.inc880, %delete.end863
  %159 = load i32, ptr %i866, align 4
  %cmp868 = icmp ult i32 %159, 100
  br i1 %cmp868, label %for.body869, label %for.end882

for.body869:                                      ; preds = %for.cond867
  %160 = load i32, ptr %i866, align 4
  %sub870 = sub i32 100, %160
  %conv871 = trunc i32 %sub870 to i8
  %161 = load ptr, ptr %pRadixSortElementArray8, align 8
  %162 = load i32, ptr %i866, align 4
  %idxprom872 = zext i32 %162 to i64
  %arrayidx873 = getelementptr inbounds %"struct.eastl::Internal::RadixSortElement.9", ptr %161, i64 %idxprom872
  %mKey874 = getelementptr inbounds %"struct.eastl::Internal::RadixSortElement.9", ptr %arrayidx873, i32 0, i32 0
  store i8 %conv871, ptr %mKey874, align 2
  %163 = load i32, ptr %i866, align 4
  %conv875 = trunc i32 %163 to i8
  %conv876 = zext i8 %conv875 to i16
  %164 = load ptr, ptr %pRadixSortElementArray8, align 8
  %165 = load i32, ptr %i866, align 4
  %idxprom877 = zext i32 %165 to i64
  %arrayidx878 = getelementptr inbounds %"struct.eastl::Internal::RadixSortElement.9", ptr %164, i64 %idxprom877
  %mData879 = getelementptr inbounds %"struct.eastl::Internal::RadixSortElement.9", ptr %arrayidx878, i32 0, i32 1
  store i16 %conv876, ptr %mData879, align 2
  br label %for.inc880

for.inc880:                                       ; preds = %for.body869
  %166 = load i32, ptr %i866, align 4
  %inc881 = add i32 %166, 1
  store i32 %inc881, ptr %i866, align 4
  br label %for.cond867, !llvm.loop !23

for.end882:                                       ; preds = %for.cond867
  %167 = load ptr, ptr %pRadixSortElementArray8, align 8
  %168 = load ptr, ptr %pRadixSortElementArray8, align 8
  %add.ptr883 = getelementptr inbounds %"struct.eastl::Internal::RadixSortElement.9", ptr %168, i64 100
  %169 = load ptr, ptr %pRadixSortElementArrayTemp8, align 8
  call void @_ZN5eastl10radix_sortIPNS_8Internal16RadixSortElementIhEENS1_17extract_radix_keyIS3_EELi8EEEvT_S7_S7_(ptr noundef %167, ptr noundef %add.ptr883, ptr noundef %169)
  %170 = load ptr, ptr %pRadixSortElementArray8, align 8
  %171 = load ptr, ptr %pRadixSortElementArray8, align 8
  %add.ptr884 = getelementptr inbounds %"struct.eastl::Internal::RadixSortElement.9", ptr %171, i64 100
  %call885 = call noundef zeroext i1 @_ZN5eastl9is_sortedIPNS_8Internal16RadixSortElementIhEEEEbT_S5_(ptr noundef %170, ptr noundef %add.ptr884)
  %call886 = call noundef i32 @_ZN2EA8UnitTest12TestInternal17EATEST_VERIFY_IMPEbRiPKciS4_(i1 noundef zeroext %call885, ptr noundef nonnull align 4 dereferenceable(4) %nErrorCount, ptr noundef @.str, i32 noundef 597, ptr noundef @.str.21)
  %172 = load ptr, ptr %pRadixSortElementArray8, align 8
  %isnull887 = icmp eq ptr %172, null
  br i1 %isnull887, label %delete.end889, label %delete.notnull888

delete.notnull888:                                ; preds = %for.end882
  call void @_ZdaPv(ptr noundef %172) #11
  br label %delete.end889

delete.end889:                                    ; preds = %delete.notnull888, %for.end882
  %173 = load ptr, ptr %pRadixSortElementArrayTemp8, align 8
  %isnull890 = icmp eq ptr %173, null
  br i1 %isnull890, label %delete.end892, label %delete.notnull891

delete.notnull891:                                ; preds = %delete.end889
  call void @_ZdaPv(ptr noundef %173) #11
  br label %delete.end892

delete.end892:                                    ; preds = %delete.notnull891, %delete.end889
  call void @llvm.memcpy.p0.p0.i64(ptr align 16 %input, ptr align 16 @__const._Z8TestSortv.input, i64 32, i1 false)
  %call894 = call noundef ptr @_ZN5eastl5beginIjLm8EEEPT_RAT0__S1_(ptr noundef nonnull align 4 dereferenceable(32) %input) #9
  %call895 = call noundef ptr @_ZN5eastl3endIjLm8EEEPT_RAT0__S1_(ptr noundef nonnull align 4 dereferenceable(32) %input) #9
  %arraydecay896 = getelementptr inbounds [8 x i32], ptr %buffer893, i64 0, i64 0
  call void @_ZN5eastl10radix_sortIPjNS_8Internal26identity_extract_radix_keyIjEELi8EEEvT_S5_S5_(ptr noundef %call894, ptr noundef %call895, ptr noundef %arraydecay896)
  %call897 = call noundef ptr @_ZN5eastl5beginIjLm8EEEPT_RAT0__S1_(ptr noundef nonnull align 4 dereferenceable(32) %input) #9
  %call898 = call noundef ptr @_ZN5eastl3endIjLm8EEEPT_RAT0__S1_(ptr noundef nonnull align 4 dereferenceable(32) %input) #9
  %call899 = call noundef zeroext i1 @_ZN5eastl9is_sortedIPjEEbT_S2_(ptr noundef %call897, ptr noundef %call898)
  %call900 = call noundef i32 @_ZN2EA8UnitTest12TestInternal17EATEST_VERIFY_IMPEbRiPKciS4_(i1 noundef zeroext %call899, ptr noundef nonnull align 4 dereferenceable(4) %nErrorCount, ptr noundef @.str, i32 noundef 610, ptr noundef @.str.22)
  call void @llvm.memcpy.p0.p0.i64(ptr align 16 %input901, ptr align 16 @__const._Z8TestSortv.input.23, i64 32, i1 false)
  %call903 = call noundef ptr @_ZN5eastl5beginIjLm8EEEPT_RAT0__S1_(ptr noundef nonnull align 4 dereferenceable(32) %input901) #9
  %call904 = call noundef ptr @_ZN5eastl3endIjLm8EEEPT_RAT0__S1_(ptr noundef nonnull align 4 dereferenceable(32) %input901) #9
  %arraydecay905 = getelementptr inbounds [8 x i32], ptr %buffer902, i64 0, i64 0
  call void @_ZN5eastl10radix_sortIPjNS_8Internal26identity_extract_radix_keyIjEELi8EEEvT_S5_S5_(ptr noundef %call903, ptr noundef %call904, ptr noundef %arraydecay905)
  %call906 = call noundef ptr @_ZN5eastl5beginIjLm8EEEPT_RAT0__S1_(ptr noundef nonnull align 4 dereferenceable(32) %input901) #9
  %call907 = call noundef ptr @_ZN5eastl3endIjLm8EEEPT_RAT0__S1_(ptr noundef nonnull align 4 dereferenceable(32) %input901) #9
  %call908 = call noundef zeroext i1 @_ZN5eastl9is_sortedIPjEEbT_S2_(ptr noundef %call906, ptr noundef %call907)
  %call909 = call noundef i32 @_ZN2EA8UnitTest12TestInternal17EATEST_VERIFY_IMPEbRiPKciS4_(i1 noundef zeroext %call908, ptr noundef nonnull align 4 dereferenceable(4) %nErrorCount, ptr noundef @.str, i32 noundef 617, ptr noundef @.str.22)
  call void @llvm.memcpy.p0.p0.i64(ptr align 16 %input910, ptr align 16 @__const._Z8TestSortv.input.24, i64 32, i1 false)
  %call912 = call noundef ptr @_ZN5eastl5beginIjLm8EEEPT_RAT0__S1_(ptr noundef nonnull align 4 dereferenceable(32) %input910) #9
  %call913 = call noundef ptr @_ZN5eastl3endIjLm8EEEPT_RAT0__S1_(ptr noundef nonnull align 4 dereferenceable(32) %input910) #9
  %arraydecay914 = getelementptr inbounds [8 x i32], ptr %buffer911, i64 0, i64 0
  call void @_ZN5eastl10radix_sortIPjNS_8Internal26identity_extract_radix_keyIjEELi8EEEvT_S5_S5_(ptr noundef %call912, ptr noundef %call913, ptr noundef %arraydecay914)
  %call915 = call noundef ptr @_ZN5eastl5beginIjLm8EEEPT_RAT0__S1_(ptr noundef nonnull align 4 dereferenceable(32) %input910) #9
  %call916 = call noundef ptr @_ZN5eastl3endIjLm8EEEPT_RAT0__S1_(ptr noundef nonnull align 4 dereferenceable(32) %input910) #9
  %call917 = call noundef zeroext i1 @_ZN5eastl9is_sortedIPjEEbT_S2_(ptr noundef %call915, ptr noundef %call916)
  %call918 = call noundef i32 @_ZN2EA8UnitTest12TestInternal17EATEST_VERIFY_IMPEbRiPKciS4_(i1 noundef zeroext %call917, ptr noundef nonnull align 4 dereferenceable(4) %nErrorCount, ptr noundef @.str, i32 noundef 624, ptr noundef @.str.22)
  call void @llvm.memcpy.p0.p0.i64(ptr align 16 %input919, ptr align 16 @__const._Z8TestSortv.input.25, i64 32, i1 false)
  %call921 = call noundef ptr @_ZN5eastl5beginIjLm8EEEPT_RAT0__S1_(ptr noundef nonnull align 4 dereferenceable(32) %input919) #9
  %call922 = call noundef ptr @_ZN5eastl3endIjLm8EEEPT_RAT0__S1_(ptr noundef nonnull align 4 dereferenceable(32) %input919) #9
  %arraydecay923 = getelementptr inbounds [8 x i32], ptr %buffer920, i64 0, i64 0
  call void @_ZN5eastl10radix_sortIPjNS_8Internal26identity_extract_radix_keyIjEELi8EEEvT_S5_S5_(ptr noundef %call921, ptr noundef %call922, ptr noundef %arraydecay923)
  %call924 = call noundef ptr @_ZN5eastl5beginIjLm8EEEPT_RAT0__S1_(ptr noundef nonnull align 4 dereferenceable(32) %input919) #9
  %call925 = call noundef ptr @_ZN5eastl3endIjLm8EEEPT_RAT0__S1_(ptr noundef nonnull align 4 dereferenceable(32) %input919) #9
  %call926 = call noundef zeroext i1 @_ZN5eastl9is_sortedIPjEEbT_S2_(ptr noundef %call924, ptr noundef %call925)
  %call927 = call noundef i32 @_ZN2EA8UnitTest12TestInternal17EATEST_VERIFY_IMPEbRiPKciS4_(i1 noundef zeroext %call926, ptr noundef nonnull align 4 dereferenceable(4) %nErrorCount, ptr noundef @.str, i32 noundef 631, ptr noundef @.str.22)
  call void @llvm.memcpy.p0.p0.i64(ptr align 4 %input928, ptr align 4 @__const._Z8TestSortv.input.26, i64 8, i1 false)
  %call930 = call noundef ptr @_ZN5eastl5beginIjLm2EEEPT_RAT0__S1_(ptr noundef nonnull align 4 dereferenceable(8) %input928) #9
  %call931 = call noundef ptr @_ZN5eastl3endIjLm2EEEPT_RAT0__S1_(ptr noundef nonnull align 4 dereferenceable(8) %input928) #9
  %arraydecay932 = getelementptr inbounds [2 x i32], ptr %buffer929, i64 0, i64 0
  call void @_ZN5eastl10radix_sortIPjNS_8Internal26identity_extract_radix_keyIjEELi8EEEvT_S5_S5_(ptr noundef %call930, ptr noundef %call931, ptr noundef %arraydecay932)
  %call933 = call noundef ptr @_ZN5eastl5beginIjLm2EEEPT_RAT0__S1_(ptr noundef nonnull align 4 dereferenceable(8) %input928) #9
  %call934 = call noundef ptr @_ZN5eastl3endIjLm2EEEPT_RAT0__S1_(ptr noundef nonnull align 4 dereferenceable(8) %input928) #9
  %call935 = call noundef zeroext i1 @_ZN5eastl9is_sortedIPjEEbT_S2_(ptr noundef %call933, ptr noundef %call934)
  %call936 = call noundef i32 @_ZN2EA8UnitTest12TestInternal17EATEST_VERIFY_IMPEbRiPKciS4_(i1 noundef zeroext %call935, ptr noundef nonnull align 4 dereferenceable(4) %nErrorCount, ptr noundef @.str, i32 noundef 638, ptr noundef @.str.22)
  call void @llvm.memcpy.p0.p0.i64(ptr align 16 %input937, ptr align 16 @__const._Z8TestSortv.input.27, i64 32, i1 false)
  %call939 = call noundef ptr @_ZN5eastl5beginIjLm8EEEPT_RAT0__S1_(ptr noundef nonnull align 4 dereferenceable(32) %input937) #9
  %call940 = call noundef ptr @_ZN5eastl3endIjLm8EEEPT_RAT0__S1_(ptr noundef nonnull align 4 dereferenceable(32) %input937) #9
  %arraydecay941 = getelementptr inbounds [8 x i32], ptr %buffer938, i64 0, i64 0
  call void @_ZN5eastl10radix_sortIPjNS_8Internal26identity_extract_radix_keyIjEELi1EEEvT_S5_S5_(ptr noundef %call939, ptr noundef %call940, ptr noundef %arraydecay941)
