; ModuleID = 'bench/arrow/original/bpacking_avx512.cc.ll'
source_filename = "bench/arrow/original/bpacking_avx512.cc.ll"
target datalayout = "e-m:e-p270:32:32-p271:32:32-p272:64:64-i64:64-i128:128-f80:128-n8:16:32:64-S128"
target triple = "x86_64-unknown-linux-gnu"

; Function Attrs: mustprogress nofree nosync nounwind memory(readwrite, inaccessiblemem: none) uwtable
define noundef i32 @_ZN5arrow8internal15unpack32_avx512EPKjPjii(ptr noundef readonly %in, ptr noundef writeonly %out, i32 noundef %batch_size, i32 noundef %num_bits) local_unnamed_addr #0 personality ptr @__gxx_personality_v0 {
entry:
  %self_buffer.i.i.i.i145.i.i = alloca [16 x i32], align 64
  %other_buffer.i.i.i.i146.i.i = alloca [16 x i32], align 64
  %self_buffer.i.i.i.i.i2237.i = alloca [16 x i32], align 64
  %other_buffer.i.i.i.i.i2238.i = alloca [16 x i32], align 64
  %self_buffer.i.i.i.i141.i2101.i = alloca [16 x i32], align 64
  %other_buffer.i.i.i.i142.i2102.i = alloca [16 x i32], align 64
  %self_buffer.i.i.i.i.i2103.i = alloca [16 x i32], align 64
  %other_buffer.i.i.i.i.i2104.i = alloca [16 x i32], align 64
  %self_buffer.i.i.i.i141.i.i = alloca [16 x i32], align 64
  %other_buffer.i.i.i.i142.i.i = alloca [16 x i32], align 64
  %self_buffer.i.i.i.i.i2005.i = alloca [16 x i32], align 64
  %other_buffer.i.i.i.i.i2006.i = alloca [16 x i32], align 64
  %self_buffer.i.i.i.i133.i1877.i = alloca [16 x i32], align 64
  %other_buffer.i.i.i.i134.i1878.i = alloca [16 x i32], align 64
  %self_buffer.i.i.i.i.i1879.i = alloca [16 x i32], align 64
  %other_buffer.i.i.i.i.i1880.i = alloca [16 x i32], align 64
  %self_buffer.i.i.i.i137.i.i = alloca [16 x i32], align 64
  %other_buffer.i.i.i.i138.i.i = alloca [16 x i32], align 64
  %self_buffer.i.i.i.i.i1786.i = alloca [16 x i32], align 64
  %other_buffer.i.i.i.i.i1787.i = alloca [16 x i32], align 64
  %self_buffer.i.i.i.i133.i1664.i = alloca [16 x i32], align 64
  %other_buffer.i.i.i.i134.i1665.i = alloca [16 x i32], align 64
  %self_buffer.i.i.i.i.i1666.i = alloca [16 x i32], align 64
  %other_buffer.i.i.i.i.i1667.i = alloca [16 x i32], align 64
  %self_buffer.i.i.i.i133.i.i = alloca [16 x i32], align 64
  %other_buffer.i.i.i.i134.i.i = alloca [16 x i32], align 64
  %self_buffer.i.i.i.i.i1589.i = alloca [16 x i32], align 64
  %other_buffer.i.i.i.i.i1590.i = alloca [16 x i32], align 64
  %self_buffer.i.i.i.i117.i1473.i = alloca [16 x i32], align 64
  %other_buffer.i.i.i.i118.i1474.i = alloca [16 x i32], align 64
  %self_buffer.i.i.i.i.i1475.i = alloca [16 x i32], align 64
  %other_buffer.i.i.i.i.i1476.i = alloca [16 x i32], align 64
  %self_buffer.i.i.i.i129.i.i = alloca [16 x i32], align 64
  %other_buffer.i.i.i.i130.i.i = alloca [16 x i32], align 64
  %self_buffer.i.i.i.i.i1392.i = alloca [16 x i32], align 64
  %other_buffer.i.i.i.i.i1393.i = alloca [16 x i32], align 64
  %self_buffer.i.i.i.i125.i1288.i = alloca [16 x i32], align 64
  %other_buffer.i.i.i.i126.i1289.i = alloca [16 x i32], align 64
  %self_buffer.i.i.i.i.i1290.i = alloca [16 x i32], align 64
  %other_buffer.i.i.i.i.i1291.i = alloca [16 x i32], align 64
  %self_buffer.i.i.i.i125.i.i = alloca [16 x i32], align 64
  %other_buffer.i.i.i.i126.i.i = alloca [16 x i32], align 64
  %self_buffer.i.i.i.i.i1220.i = alloca [16 x i32], align 64
  %other_buffer.i.i.i.i.i1221.i = alloca [16 x i32], align 64
  %self_buffer.i.i.i.i117.i1116.i = alloca [16 x i32], align 64
  %other_buffer.i.i.i.i118.i1117.i = alloca [16 x i32], align 64
  %self_buffer.i.i.i.i.i1118.i = alloca [16 x i32], align 64
  %other_buffer.i.i.i.i.i1119.i = alloca [16 x i32], align 64
  %self_buffer.i.i.i.i121.i.i = alloca [16 x i32], align 64
  %other_buffer.i.i.i.i122.i.i = alloca [16 x i32], align 64
  %self_buffer.i.i.i.i.i1058.i = alloca [16 x i32], align 64
  %other_buffer.i.i.i.i.i1059.i = alloca [16 x i32], align 64
  %self_buffer.i.i.i.i117.i962.i = alloca [16 x i32], align 64
  %other_buffer.i.i.i.i118.i963.i = alloca [16 x i32], align 64
  %self_buffer.i.i.i.i.i964.i = alloca [16 x i32], align 64
  %other_buffer.i.i.i.i.i965.i = alloca [16 x i32], align 64
  %self_buffer.i.i.i.i117.i.i = alloca [16 x i32], align 64
  %other_buffer.i.i.i.i118.i.i = alloca [16 x i32], align 64
  %self_buffer.i.i.i.i.i910.i = alloca [16 x i32], align 64
  %other_buffer.i.i.i.i.i911.i = alloca [16 x i32], align 64
  %self_buffer.i.i.i.i85.i833.i = alloca [16 x i32], align 64
  %other_buffer.i.i.i.i86.i834.i = alloca [16 x i32], align 64
  %self_buffer.i.i.i.i.i835.i = alloca [16 x i32], align 64
  %other_buffer.i.i.i.i.i836.i = alloca [16 x i32], align 64
  %self_buffer.i.i.i.i113.i.i = alloca [16 x i32], align 64
  %other_buffer.i.i.i.i114.i.i = alloca [16 x i32], align 64
  %self_buffer.i.i.i.i.i783.i = alloca [16 x i32], align 64
  %other_buffer.i.i.i.i.i784.i = alloca [16 x i32], align 64
  %self_buffer.i.i.i.i109.i701.i = alloca [16 x i32], align 64
  %other_buffer.i.i.i.i110.i702.i = alloca [16 x i32], align 64
  %self_buffer.i.i.i.i.i703.i = alloca [16 x i32], align 64
  %other_buffer.i.i.i.i.i704.i = alloca [16 x i32], align 64
  %self_buffer.i.i.i.i109.i.i = alloca [16 x i32], align 64
  %other_buffer.i.i.i.i110.i.i = alloca [16 x i32], align 64
  %self_buffer.i.i.i.i.i656.i = alloca [16 x i32], align 64
  %other_buffer.i.i.i.i.i657.i = alloca [16 x i32], align 64
  %self_buffer.i.i.i.i101.i580.i = alloca [16 x i32], align 64
  %other_buffer.i.i.i.i102.i581.i = alloca [16 x i32], align 64
  %self_buffer.i.i.i.i.i582.i = alloca [16 x i32], align 64
  %other_buffer.i.i.i.i.i583.i = alloca [16 x i32], align 64
  %self_buffer.i.i.i.i105.i.i = alloca [16 x i32], align 64
  %other_buffer.i.i.i.i106.i.i = alloca [16 x i32], align 64
  %self_buffer.i.i.i.i.i543.i = alloca [16 x i32], align 64
  %other_buffer.i.i.i.i.i544.i = alloca [16 x i32], align 64
  %self_buffer.i.i.i.i101.i477.i = alloca [16 x i32], align 64
  %other_buffer.i.i.i.i102.i478.i = alloca [16 x i32], align 64
  %self_buffer.i.i.i.i.i479.i = alloca [16 x i32], align 64
  %other_buffer.i.i.i.i.i480.i = alloca [16 x i32], align 64
  %self_buffer.i.i.i.i101.i.i = alloca [16 x i32], align 64
  %other_buffer.i.i.i.i102.i.i = alloca [16 x i32], align 64
  %self_buffer.i.i.i.i.i438.i = alloca [16 x i32], align 64
  %other_buffer.i.i.i.i.i439.i = alloca [16 x i32], align 64
  %self_buffer.i.i.i.i85.i375.i = alloca [16 x i32], align 64
  %other_buffer.i.i.i.i86.i376.i = alloca [16 x i32], align 64
  %self_buffer.i.i.i.i.i377.i = alloca [16 x i32], align 64
  %other_buffer.i.i.i.i.i378.i = alloca [16 x i32], align 64
  %self_buffer.i.i.i.i97.i.i = alloca [16 x i32], align 64
  %other_buffer.i.i.i.i98.i.i = alloca [16 x i32], align 64
  %self_buffer.i.i.i.i.i341.i = alloca [16 x i32], align 64
  %other_buffer.i.i.i.i.i342.i = alloca [16 x i32], align 64
  %self_buffer.i.i.i.i93.i283.i = alloca [16 x i32], align 64
  %other_buffer.i.i.i.i94.i284.i = alloca [16 x i32], align 64
  %self_buffer.i.i.i.i.i285.i = alloca [16 x i32], align 64
  %other_buffer.i.i.i.i.i286.i = alloca [16 x i32], align 64
  %self_buffer.i.i.i.i93.i.i = alloca [16 x i32], align 64
  %other_buffer.i.i.i.i94.i.i = alloca [16 x i32], align 64
  %self_buffer.i.i.i.i.i253.i = alloca [16 x i32], align 64
  %other_buffer.i.i.i.i.i254.i = alloca [16 x i32], align 64
  %self_buffer.i.i.i.i85.i209.i = alloca [16 x i32], align 64
  %other_buffer.i.i.i.i86.i210.i = alloca [16 x i32], align 64
  %self_buffer.i.i.i.i.i211.i = alloca [16 x i32], align 64
  %other_buffer.i.i.i.i.i212.i = alloca [16 x i32], align 64
  %self_buffer.i.i.i.i89.i.i = alloca [16 x i32], align 64
  %other_buffer.i.i.i.i90.i.i = alloca [16 x i32], align 64
  %self_buffer.i.i.i.i.i194.i = alloca [16 x i32], align 64
  %other_buffer.i.i.i.i.i195.i = alloca [16 x i32], align 64
  %self_buffer.i.i.i.i85.i165.i = alloca [16 x i32], align 64
  %other_buffer.i.i.i.i86.i166.i = alloca [16 x i32], align 64
  %self_buffer.i.i.i.i.i167.i = alloca [16 x i32], align 64
  %other_buffer.i.i.i.i.i168.i = alloca [16 x i32], align 64
  %self_buffer.i.i.i.i85.i.i = alloca [16 x i32], align 64
  %other_buffer.i.i.i.i86.i.i = alloca [16 x i32], align 64
  %self_buffer.i.i.i.i.i.i = alloca [16 x i32], align 64
  %other_buffer.i.i.i.i.i.i = alloca [16 x i32], align 64
  %div.i = sdiv i32 %batch_size, 32
  switch i32 %num_bits, label %_ZN5arrow8internalL20unpack32_specializedINS0_12_GLOBAL__N_113UnpackBits512ILNS0_13DispatchLevelE3EEEEEiPKjPjii.exit [
    i32 0, label %for.cond.preheader.i
    i32 1, label %for.cond5.preheader.i
    i32 2, label %for.cond17.preheader.i
    i32 3, label %for.cond29.preheader.i
    i32 4, label %for.cond41.preheader.i
    i32 5, label %for.cond53.preheader.i
    i32 6, label %for.cond65.preheader.i
    i32 7, label %for.cond77.preheader.i
    i32 8, label %for.cond89.preheader.i
    i32 9, label %for.cond101.preheader.i
    i32 10, label %for.cond113.preheader.i
    i32 11, label %for.cond125.preheader.i
    i32 12, label %for.cond137.preheader.i
    i32 13, label %for.cond149.preheader.i
    i32 14, label %for.cond161.preheader.i
    i32 15, label %for.cond173.preheader.i
    i32 16, label %for.cond185.preheader.i
    i32 17, label %for.cond197.preheader.i
    i32 18, label %for.cond209.preheader.i
    i32 19, label %for.cond221.preheader.i
    i32 20, label %for.cond233.preheader.i
    i32 21, label %for.cond245.preheader.i
    i32 22, label %for.cond257.preheader.i
    i32 23, label %for.cond269.preheader.i
    i32 24, label %for.cond281.preheader.i
    i32 25, label %for.cond293.preheader.i
    i32 26, label %for.cond305.preheader.i
    i32 27, label %for.cond317.preheader.i
    i32 28, label %for.cond329.preheader.i
    i32 29, label %for.cond341.preheader.i
    i32 30, label %for.cond353.preheader.i
    i32 31, label %for.cond365.preheader.i
    i32 32, label %for.cond377.preheader.i
  ]

for.cond377.preheader.i:                          ; preds = %entry
  %cmp3782370.i = icmp sgt i32 %batch_size, 31
  br i1 %cmp3782370.i, label %for.body379.preheader.i, label %_ZN5arrow8internalL20unpack32_specializedINS0_12_GLOBAL__N_113UnpackBits512ILNS0_13DispatchLevelE3EEEEEiPKjPjii.exit

for.body379.preheader.i:                          ; preds = %for.cond377.preheader.i
  %wide.trip.count.i = zext nneg i32 %div.i to i64
  br label %for.body379.i

for.cond365.preheader.i:                          ; preds = %entry
  %cmp3662373.i = icmp sgt i32 %batch_size, 31
  br i1 %cmp3662373.i, label %for.body367.preheader.i, label %_ZN5arrow8internalL20unpack32_specializedINS0_12_GLOBAL__N_113UnpackBits512ILNS0_13DispatchLevelE3EEEEEiPKjPjii.exit

for.body367.preheader.i:                          ; preds = %for.cond365.preheader.i
  %wide.trip.count2506.i = zext nneg i32 %div.i to i64
  br label %for.body367.i

for.cond353.preheader.i:                          ; preds = %entry
  %cmp3542376.i = icmp sgt i32 %batch_size, 31
  br i1 %cmp3542376.i, label %for.body355.preheader.i, label %_ZN5arrow8internalL20unpack32_specializedINS0_12_GLOBAL__N_113UnpackBits512ILNS0_13DispatchLevelE3EEEEEiPKjPjii.exit

for.body355.preheader.i:                          ; preds = %for.cond353.preheader.i
  %wide.trip.count2512.i = zext nneg i32 %div.i to i64
  br label %for.body355.i

for.cond341.preheader.i:                          ; preds = %entry
  %cmp3422379.i = icmp sgt i32 %batch_size, 31
  br i1 %cmp3422379.i, label %for.body343.preheader.i, label %_ZN5arrow8internalL20unpack32_specializedINS0_12_GLOBAL__N_113UnpackBits512ILNS0_13DispatchLevelE3EEEEEiPKjPjii.exit

for.body343.preheader.i:                          ; preds = %for.cond341.preheader.i
  %wide.trip.count2518.i = zext nneg i32 %div.i to i64
  br label %for.body343.i

for.cond329.preheader.i:                          ; preds = %entry
  %cmp3302382.i = icmp sgt i32 %batch_size, 31
  br i1 %cmp3302382.i, label %for.body331.preheader.i, label %_ZN5arrow8internalL20unpack32_specializedINS0_12_GLOBAL__N_113UnpackBits512ILNS0_13DispatchLevelE3EEEEEiPKjPjii.exit

for.body331.preheader.i:                          ; preds = %for.cond329.preheader.i
  %wide.trip.count2524.i = zext nneg i32 %div.i to i64
  br label %for.body331.i

for.cond317.preheader.i:                          ; preds = %entry
  %cmp3182385.i = icmp sgt i32 %batch_size, 31
  br i1 %cmp3182385.i, label %for.body319.preheader.i, label %_ZN5arrow8internalL20unpack32_specializedINS0_12_GLOBAL__N_113UnpackBits512ILNS0_13DispatchLevelE3EEEEEiPKjPjii.exit

for.body319.preheader.i:                          ; preds = %for.cond317.preheader.i
  %wide.trip.count2530.i = zext nneg i32 %div.i to i64
  br label %for.body319.i

for.cond305.preheader.i:                          ; preds = %entry
  %cmp3062388.i = icmp sgt i32 %batch_size, 31
  br i1 %cmp3062388.i, label %for.body307.preheader.i, label %_ZN5arrow8internalL20unpack32_specializedINS0_12_GLOBAL__N_113UnpackBits512ILNS0_13DispatchLevelE3EEEEEiPKjPjii.exit

for.body307.preheader.i:                          ; preds = %for.cond305.preheader.i
  %wide.trip.count2536.i = zext nneg i32 %div.i to i64
  br label %for.body307.i

for.cond293.preheader.i:                          ; preds = %entry
  %cmp2942391.i = icmp sgt i32 %batch_size, 31
  br i1 %cmp2942391.i, label %for.body295.preheader.i, label %_ZN5arrow8internalL20unpack32_specializedINS0_12_GLOBAL__N_113UnpackBits512ILNS0_13DispatchLevelE3EEEEEiPKjPjii.exit

for.body295.preheader.i:                          ; preds = %for.cond293.preheader.i
  %wide.trip.count2542.i = zext nneg i32 %div.i to i64
  br label %for.body295.i

for.cond281.preheader.i:                          ; preds = %entry
  %cmp2822394.i = icmp sgt i32 %batch_size, 31
  br i1 %cmp2822394.i, label %for.body283.preheader.i, label %_ZN5arrow8internalL20unpack32_specializedINS0_12_GLOBAL__N_113UnpackBits512ILNS0_13DispatchLevelE3EEEEEiPKjPjii.exit

for.body283.preheader.i:                          ; preds = %for.cond281.preheader.i
  %wide.trip.count2548.i = zext nneg i32 %div.i to i64
  br label %for.body283.i

for.cond269.preheader.i:                          ; preds = %entry
  %cmp2702397.i = icmp sgt i32 %batch_size, 31
  br i1 %cmp2702397.i, label %for.body271.preheader.i, label %_ZN5arrow8internalL20unpack32_specializedINS0_12_GLOBAL__N_113UnpackBits512ILNS0_13DispatchLevelE3EEEEEiPKjPjii.exit

for.body271.preheader.i:                          ; preds = %for.cond269.preheader.i
  %wide.trip.count2554.i = zext nneg i32 %div.i to i64
  br label %for.body271.i

for.cond257.preheader.i:                          ; preds = %entry
  %cmp2582400.i = icmp sgt i32 %batch_size, 31
  br i1 %cmp2582400.i, label %for.body259.preheader.i, label %_ZN5arrow8internalL20unpack32_specializedINS0_12_GLOBAL__N_113UnpackBits512ILNS0_13DispatchLevelE3EEEEEiPKjPjii.exit

for.body259.preheader.i:                          ; preds = %for.cond257.preheader.i
  %wide.trip.count2560.i = zext nneg i32 %div.i to i64
  br label %for.body259.i

for.cond245.preheader.i:                          ; preds = %entry
  %cmp2462403.i = icmp sgt i32 %batch_size, 31
  br i1 %cmp2462403.i, label %for.body247.preheader.i, label %_ZN5arrow8internalL20unpack32_specializedINS0_12_GLOBAL__N_113UnpackBits512ILNS0_13DispatchLevelE3EEEEEiPKjPjii.exit

for.body247.preheader.i:                          ; preds = %for.cond245.preheader.i
  %wide.trip.count2566.i = zext nneg i32 %div.i to i64
  br label %for.body247.i

for.cond233.preheader.i:                          ; preds = %entry
  %cmp2342406.i = icmp sgt i32 %batch_size, 31
  br i1 %cmp2342406.i, label %for.body235.preheader.i, label %_ZN5arrow8internalL20unpack32_specializedINS0_12_GLOBAL__N_113UnpackBits512ILNS0_13DispatchLevelE3EEEEEiPKjPjii.exit

for.body235.preheader.i:                          ; preds = %for.cond233.preheader.i
  %wide.trip.count2572.i = zext nneg i32 %div.i to i64
  br label %for.body235.i

for.cond221.preheader.i:                          ; preds = %entry
  %cmp2222409.i = icmp sgt i32 %batch_size, 31
  br i1 %cmp2222409.i, label %for.body223.preheader.i, label %_ZN5arrow8internalL20unpack32_specializedINS0_12_GLOBAL__N_113UnpackBits512ILNS0_13DispatchLevelE3EEEEEiPKjPjii.exit

for.body223.preheader.i:                          ; preds = %for.cond221.preheader.i
  %wide.trip.count2578.i = zext nneg i32 %div.i to i64
  br label %for.body223.i

for.cond209.preheader.i:                          ; preds = %entry
  %cmp2102412.i = icmp sgt i32 %batch_size, 31
  br i1 %cmp2102412.i, label %for.body211.preheader.i, label %_ZN5arrow8internalL20unpack32_specializedINS0_12_GLOBAL__N_113UnpackBits512ILNS0_13DispatchLevelE3EEEEEiPKjPjii.exit

for.body211.preheader.i:                          ; preds = %for.cond209.preheader.i
  %wide.trip.count2584.i = zext nneg i32 %div.i to i64
  br label %for.body211.i

for.cond197.preheader.i:                          ; preds = %entry
  %cmp1982415.i = icmp sgt i32 %batch_size, 31
  br i1 %cmp1982415.i, label %for.body199.preheader.i, label %_ZN5arrow8internalL20unpack32_specializedINS0_12_GLOBAL__N_113UnpackBits512ILNS0_13DispatchLevelE3EEEEEiPKjPjii.exit

for.body199.preheader.i:                          ; preds = %for.cond197.preheader.i
  %wide.trip.count2590.i = zext nneg i32 %div.i to i64
  br label %for.body199.i

for.cond185.preheader.i:                          ; preds = %entry
  %cmp1862418.i = icmp sgt i32 %batch_size, 31
  br i1 %cmp1862418.i, label %for.body187.preheader.i, label %_ZN5arrow8internalL20unpack32_specializedINS0_12_GLOBAL__N_113UnpackBits512ILNS0_13DispatchLevelE3EEEEEiPKjPjii.exit

for.body187.preheader.i:                          ; preds = %for.cond185.preheader.i
  %wide.trip.count2596.i = zext nneg i32 %div.i to i64
  br label %for.body187.i

for.cond173.preheader.i:                          ; preds = %entry
  %cmp1742421.i = icmp sgt i32 %batch_size, 31
  br i1 %cmp1742421.i, label %for.body175.preheader.i, label %_ZN5arrow8internalL20unpack32_specializedINS0_12_GLOBAL__N_113UnpackBits512ILNS0_13DispatchLevelE3EEEEEiPKjPjii.exit

for.body175.preheader.i:                          ; preds = %for.cond173.preheader.i
  %wide.trip.count2602.i = zext nneg i32 %div.i to i64
  br label %for.body175.i

for.cond161.preheader.i:                          ; preds = %entry
  %cmp1622424.i = icmp sgt i32 %batch_size, 31
  br i1 %cmp1622424.i, label %for.body163.preheader.i, label %_ZN5arrow8internalL20unpack32_specializedINS0_12_GLOBAL__N_113UnpackBits512ILNS0_13DispatchLevelE3EEEEEiPKjPjii.exit

for.body163.preheader.i:                          ; preds = %for.cond161.preheader.i
  %wide.trip.count2608.i = zext nneg i32 %div.i to i64
  br label %for.body163.i

for.cond149.preheader.i:                          ; preds = %entry
  %cmp1502427.i = icmp sgt i32 %batch_size, 31
  br i1 %cmp1502427.i, label %for.body151.preheader.i, label %_ZN5arrow8internalL20unpack32_specializedINS0_12_GLOBAL__N_113UnpackBits512ILNS0_13DispatchLevelE3EEEEEiPKjPjii.exit

for.body151.preheader.i:                          ; preds = %for.cond149.preheader.i
  %wide.trip.count2614.i = zext nneg i32 %div.i to i64
  br label %for.body151.i

for.cond137.preheader.i:                          ; preds = %entry
  %cmp1382430.i = icmp sgt i32 %batch_size, 31
  br i1 %cmp1382430.i, label %for.body139.preheader.i, label %_ZN5arrow8internalL20unpack32_specializedINS0_12_GLOBAL__N_113UnpackBits512ILNS0_13DispatchLevelE3EEEEEiPKjPjii.exit

for.body139.preheader.i:                          ; preds = %for.cond137.preheader.i
  %wide.trip.count2620.i = zext nneg i32 %div.i to i64
  br label %for.body139.i

for.cond125.preheader.i:                          ; preds = %entry
  %cmp1262433.i = icmp sgt i32 %batch_size, 31
  br i1 %cmp1262433.i, label %for.body127.preheader.i, label %_ZN5arrow8internalL20unpack32_specializedINS0_12_GLOBAL__N_113UnpackBits512ILNS0_13DispatchLevelE3EEEEEiPKjPjii.exit

for.body127.preheader.i:                          ; preds = %for.cond125.preheader.i
  %wide.trip.count2626.i = zext nneg i32 %div.i to i64
  br label %for.body127.i

for.cond113.preheader.i:                          ; preds = %entry
  %cmp1142436.i = icmp sgt i32 %batch_size, 31
  br i1 %cmp1142436.i, label %for.body115.preheader.i, label %_ZN5arrow8internalL20unpack32_specializedINS0_12_GLOBAL__N_113UnpackBits512ILNS0_13DispatchLevelE3EEEEEiPKjPjii.exit

for.body115.preheader.i:                          ; preds = %for.cond113.preheader.i
  %wide.trip.count2632.i = zext nneg i32 %div.i to i64
  br label %for.body115.i

for.cond101.preheader.i:                          ; preds = %entry
  %cmp1022439.i = icmp sgt i32 %batch_size, 31
  br i1 %cmp1022439.i, label %for.body103.preheader.i, label %_ZN5arrow8internalL20unpack32_specializedINS0_12_GLOBAL__N_113UnpackBits512ILNS0_13DispatchLevelE3EEEEEiPKjPjii.exit

for.body103.preheader.i:                          ; preds = %for.cond101.preheader.i
  %wide.trip.count2638.i = zext nneg i32 %div.i to i64
  br label %for.body103.i

for.cond89.preheader.i:                           ; preds = %entry
  %cmp902442.i = icmp sgt i32 %batch_size, 31
  br i1 %cmp902442.i, label %for.body91.preheader.i, label %_ZN5arrow8internalL20unpack32_specializedINS0_12_GLOBAL__N_113UnpackBits512ILNS0_13DispatchLevelE3EEEEEiPKjPjii.exit

for.body91.preheader.i:                           ; preds = %for.cond89.preheader.i
  %wide.trip.count2644.i = zext nneg i32 %div.i to i64
  br label %for.body91.i

for.cond77.preheader.i:                           ; preds = %entry
  %cmp782445.i = icmp sgt i32 %batch_size, 31
  br i1 %cmp782445.i, label %for.body79.preheader.i, label %_ZN5arrow8internalL20unpack32_specializedINS0_12_GLOBAL__N_113UnpackBits512ILNS0_13DispatchLevelE3EEEEEiPKjPjii.exit

for.body79.preheader.i:                           ; preds = %for.cond77.preheader.i
  %wide.trip.count2650.i = zext nneg i32 %div.i to i64
  br label %for.body79.i

for.cond65.preheader.i:                           ; preds = %entry
  %cmp662448.i = icmp sgt i32 %batch_size, 31
  br i1 %cmp662448.i, label %for.body67.preheader.i, label %_ZN5arrow8internalL20unpack32_specializedINS0_12_GLOBAL__N_113UnpackBits512ILNS0_13DispatchLevelE3EEEEEiPKjPjii.exit

for.body67.preheader.i:                           ; preds = %for.cond65.preheader.i
  %wide.trip.count2656.i = zext nneg i32 %div.i to i64
  br label %for.body67.i

for.cond53.preheader.i:                           ; preds = %entry
  %cmp542451.i = icmp sgt i32 %batch_size, 31
  br i1 %cmp542451.i, label %for.body55.preheader.i, label %_ZN5arrow8internalL20unpack32_specializedINS0_12_GLOBAL__N_113UnpackBits512ILNS0_13DispatchLevelE3EEEEEiPKjPjii.exit

for.body55.preheader.i:                           ; preds = %for.cond53.preheader.i
  %wide.trip.count2662.i = zext nneg i32 %div.i to i64
  br label %for.body55.i

for.cond41.preheader.i:                           ; preds = %entry
  %cmp422454.i = icmp sgt i32 %batch_size, 31
  br i1 %cmp422454.i, label %for.body43.preheader.i, label %_ZN5arrow8internalL20unpack32_specializedINS0_12_GLOBAL__N_113UnpackBits512ILNS0_13DispatchLevelE3EEEEEiPKjPjii.exit

for.body43.preheader.i:                           ; preds = %for.cond41.preheader.i
  %wide.trip.count2668.i = zext nneg i32 %div.i to i64
  br label %for.body43.i

for.cond29.preheader.i:                           ; preds = %entry
  %cmp302457.i = icmp sgt i32 %batch_size, 31
  br i1 %cmp302457.i, label %for.body31.preheader.i, label %_ZN5arrow8internalL20unpack32_specializedINS0_12_GLOBAL__N_113UnpackBits512ILNS0_13DispatchLevelE3EEEEEiPKjPjii.exit

for.body31.preheader.i:                           ; preds = %for.cond29.preheader.i
  %wide.trip.count2674.i = zext nneg i32 %div.i to i64
  br label %for.body31.i

for.cond17.preheader.i:                           ; preds = %entry
  %cmp182460.i = icmp sgt i32 %batch_size, 31
  br i1 %cmp182460.i, label %for.body19.preheader.i, label %_ZN5arrow8internalL20unpack32_specializedINS0_12_GLOBAL__N_113UnpackBits512ILNS0_13DispatchLevelE3EEEEEiPKjPjii.exit

for.body19.preheader.i:                           ; preds = %for.cond17.preheader.i
  %wide.trip.count2680.i = zext nneg i32 %div.i to i64
  br label %for.body19.i

for.cond5.preheader.i:                            ; preds = %entry
  %cmp62463.i = icmp sgt i32 %batch_size, 31
  br i1 %cmp62463.i, label %for.body7.preheader.i, label %_ZN5arrow8internalL20unpack32_specializedINS0_12_GLOBAL__N_113UnpackBits512ILNS0_13DispatchLevelE3EEEEEiPKjPjii.exit

for.body7.preheader.i:                            ; preds = %for.cond5.preheader.i
  %wide.trip.count2686.i = zext nneg i32 %div.i to i64
  br label %for.body7.i

for.cond.preheader.i:                             ; preds = %entry
  %cmp2466.i = icmp sgt i32 %batch_size, 31
  br i1 %cmp2466.i, label %for.body.preheader.i, label %_ZN5arrow8internalL20unpack32_specializedINS0_12_GLOBAL__N_113UnpackBits512ILNS0_13DispatchLevelE3EEEEEiPKjPjii.exit

for.body.preheader.i:                             ; preds = %for.cond.preheader.i
  %0 = add nsw i32 %div.i, -1
  %1 = zext i32 %0 to i64
  %2 = shl nuw nsw i64 %1, 7
  %3 = add nuw nsw i64 %2, 128
  tail call void @llvm.memset.p0.i64(ptr noundef nonnull align 4 dereferenceable(1) %out, i8 0, i64 %3, i1 false)
  br label %_ZN5arrow8internalL20unpack32_specializedINS0_12_GLOBAL__N_113UnpackBits512ILNS0_13DispatchLevelE3EEEEEiPKjPjii.exit

for.body7.i:                                      ; preds = %_ZN5arrow8internal12_GLOBAL__N_113UnpackBits512ILNS0_13DispatchLevelE3EE10unpack1_32EPKjPj.exit.i, %for.body7.preheader.i
  %indvars.iv2682.i = phi i64 [ 0, %for.body7.preheader.i ], [ %indvars.iv.next2683.i, %_ZN5arrow8internal12_GLOBAL__N_113UnpackBits512ILNS0_13DispatchLevelE3EE10unpack1_32EPKjPj.exit.i ]
  %in.addr.12464.i = phi ptr [ %in, %for.body7.preheader.i ], [ %add.ptr95.i.i, %_ZN5arrow8internal12_GLOBAL__N_113UnpackBits512ILNS0_13DispatchLevelE3EE10unpack1_32EPKjPj.exit.i ]
  %ret.0.copyload.i.i.i = load i32, ptr %in.addr.12464.i, align 4
  %vecinit.i.i.i.i.i = insertelement <16 x i32> undef, i32 %ret.0.copyload.i.i.i, i64 0
  %vecinit15.i.i.i.i.i = shufflevector <16 x i32> %vecinit.i.i.i.i.i, <16 x i32> poison, <16 x i32> zeroinitializer
  call void @llvm.lifetime.start.p0(i64 64, ptr nonnull %self_buffer.i.i.i.i.i.i)
  call void @llvm.lifetime.start.p0(i64 64, ptr nonnull %other_buffer.i.i.i.i.i.i)
  store <16 x i32> %vecinit15.i.i.i.i.i, ptr %self_buffer.i.i.i.i.i.i, align 64
  store <8 x i64> <i64 4294967296, i64 12884901890, i64 21474836484, i64 30064771078, i64 38654705672, i64 47244640266, i64 55834574860, i64 64424509454>, ptr %other_buffer.i.i.i.i.i.i, align 64
  br label %for.body.i.i.i.i.i.i

for.body.i.i.i.i.i.i:                             ; preds = %for.body.i.i.i.i.i.i, %for.body7.i
  %i.05.i.i.i.i.i.i = phi i64 [ 0, %for.body7.i ], [ %inc.i.i.i.i.i.i, %for.body.i.i.i.i.i.i ]
  %arrayidx2.i.i.i.i.i.i = getelementptr inbounds [16 x i32], ptr %self_buffer.i.i.i.i.i.i, i64 0, i64 %i.05.i.i.i.i.i.i
  %4 = load i32, ptr %arrayidx2.i.i.i.i.i.i, align 4
  %arrayidx3.i.i.i.i.i.i = getelementptr inbounds [16 x i32], ptr %other_buffer.i.i.i.i.i.i, i64 0, i64 %i.05.i.i.i.i.i.i
  %5 = load i32, ptr %arrayidx3.i.i.i.i.i.i, align 4
  %shr.i.i.i.i.i.i.i = lshr i32 %4, %5
  store i32 %shr.i.i.i.i.i.i.i, ptr %arrayidx2.i.i.i.i.i.i, align 4
  %inc.i.i.i.i.i.i = add nuw nsw i64 %i.05.i.i.i.i.i.i, 1
  %exitcond.not.i.i.i.i.i.i = icmp eq i64 %inc.i.i.i.i.i.i, 16
  br i1 %exitcond.not.i.i.i.i.i.i, label %_ZN5xsimdrsERKNS_5batchIjNS_8avx512bwEEES4_.exit.i.i, label %for.body.i.i.i.i.i.i, !llvm.loop !4

_ZN5xsimdrsERKNS_5batchIjNS_8avx512bwEEES4_.exit.i.i: ; preds = %for.body.i.i.i.i.i.i
  %6 = shl nsw i64 %indvars.iv2682.i, 5
  %add.ptr10.i = getelementptr inbounds i32, ptr %out, i64 %6
  %7 = load <8 x i64>, ptr %self_buffer.i.i.i.i.i.i, align 64
  call void @llvm.lifetime.end.p0(i64 64, ptr nonnull %self_buffer.i.i.i.i.i.i)
  call void @llvm.lifetime.end.p0(i64 64, ptr nonnull %other_buffer.i.i.i.i.i.i)
  %and.i.i.i.i.i.i = and <8 x i64> %7, <i64 4294967297, i64 4294967297, i64 4294967297, i64 4294967297, i64 4294967297, i64 4294967297, i64 4294967297, i64 4294967297>
  store <8 x i64> %and.i.i.i.i.i.i, ptr %add.ptr10.i, align 1
  %ret.0.copyload.i53.i.i = load i32, ptr %in.addr.12464.i, align 4
  %vecinit.i.i.i69.i.i = insertelement <16 x i32> undef, i32 %ret.0.copyload.i53.i.i, i64 0
  %vecinit15.i.i.i84.i.i = shufflevector <16 x i32> %vecinit.i.i.i69.i.i, <16 x i32> poison, <16 x i32> zeroinitializer
  call void @llvm.lifetime.start.p0(i64 64, ptr nonnull %self_buffer.i.i.i.i85.i.i)
  call void @llvm.lifetime.start.p0(i64 64, ptr nonnull %other_buffer.i.i.i.i86.i.i)
  store <16 x i32> %vecinit15.i.i.i84.i.i, ptr %self_buffer.i.i.i.i85.i.i, align 64
  store <8 x i64> <i64 73014444048, i64 81604378642, i64 90194313236, i64 98784247830, i64 107374182424, i64 115964117018, i64 124554051612, i64 133143986206>, ptr %other_buffer.i.i.i.i86.i.i, align 64
  br label %for.body.i.i.i.i88.i.i

for.body.i.i.i.i88.i.i:                           ; preds = %for.body.i.i.i.i88.i.i, %_ZN5xsimdrsERKNS_5batchIjNS_8avx512bwEEES4_.exit.i.i
  %i.05.i.i.i.i89.i.i = phi i64 [ 0, %_ZN5xsimdrsERKNS_5batchIjNS_8avx512bwEEES4_.exit.i.i ], [ %inc.i.i.i.i93.i.i, %for.body.i.i.i.i88.i.i ]
  %arrayidx2.i.i.i.i90.i.i = getelementptr inbounds [16 x i32], ptr %self_buffer.i.i.i.i85.i.i, i64 0, i64 %i.05.i.i.i.i89.i.i
  %8 = load i32, ptr %arrayidx2.i.i.i.i90.i.i, align 4
  %arrayidx3.i.i.i.i91.i.i = getelementptr inbounds [16 x i32], ptr %other_buffer.i.i.i.i86.i.i, i64 0, i64 %i.05.i.i.i.i89.i.i
  %9 = load i32, ptr %arrayidx3.i.i.i.i91.i.i, align 4
  %shr.i.i.i.i.i92.i.i = lshr i32 %8, %9
  store i32 %shr.i.i.i.i.i92.i.i, ptr %arrayidx2.i.i.i.i90.i.i, align 4
  %inc.i.i.i.i93.i.i = add nuw nsw i64 %i.05.i.i.i.i89.i.i, 1
  %exitcond.not.i.i.i.i94.i.i = icmp eq i64 %inc.i.i.i.i93.i.i, 16
  br i1 %exitcond.not.i.i.i.i94.i.i, label %_ZN5arrow8internal12_GLOBAL__N_113UnpackBits512ILNS0_13DispatchLevelE3EE10unpack1_32EPKjPj.exit.i, label %for.body.i.i.i.i88.i.i, !llvm.loop !4

_ZN5arrow8internal12_GLOBAL__N_113UnpackBits512ILNS0_13DispatchLevelE3EE10unpack1_32EPKjPj.exit.i: ; preds = %for.body.i.i.i.i88.i.i
  %add.ptr45.i.i = getelementptr inbounds i32, ptr %add.ptr10.i, i64 16
  %10 = load <8 x i64>, ptr %self_buffer.i.i.i.i85.i.i, align 64
  call void @llvm.lifetime.end.p0(i64 64, ptr nonnull %self_buffer.i.i.i.i85.i.i)
  call void @llvm.lifetime.end.p0(i64 64, ptr nonnull %other_buffer.i.i.i.i86.i.i)
  %and.i.i.i.i97.i.i = and <8 x i64> %10, <i64 4294967297, i64 4294967297, i64 4294967297, i64 4294967297, i64 4294967297, i64 4294967297, i64 4294967297, i64 4294967297>
  store <8 x i64> %and.i.i.i.i97.i.i, ptr %add.ptr45.i.i, align 1
  %add.ptr95.i.i = getelementptr inbounds i32, ptr %in.addr.12464.i, i64 1
  %indvars.iv.next2683.i = add nuw nsw i64 %indvars.iv2682.i, 1
  %exitcond2687.not.i = icmp eq i64 %indvars.iv.next2683.i, %wide.trip.count2686.i
  br i1 %exitcond2687.not.i, label %_ZN5arrow8internalL20unpack32_specializedINS0_12_GLOBAL__N_113UnpackBits512ILNS0_13DispatchLevelE3EEEEEiPKjPjii.exit, label %for.body7.i, !llvm.loop !6

for.body19.i:                                     ; preds = %_ZN5arrow8internal12_GLOBAL__N_113UnpackBits512ILNS0_13DispatchLevelE3EE10unpack2_32EPKjPj.exit.i, %for.body19.preheader.i
  %indvars.iv2676.i = phi i64 [ 0, %for.body19.preheader.i ], [ %indvars.iv.next2677.i, %_ZN5arrow8internal12_GLOBAL__N_113UnpackBits512ILNS0_13DispatchLevelE3EE10unpack2_32EPKjPj.exit.i ]
  %in.addr.22461.i = phi ptr [ %in, %for.body19.preheader.i ], [ %add.ptr95.i193.i, %_ZN5arrow8internal12_GLOBAL__N_113UnpackBits512ILNS0_13DispatchLevelE3EE10unpack2_32EPKjPj.exit.i ]
  %ret.0.copyload.i.i169.i = load i32, ptr %in.addr.22461.i, align 4
  %vecinit.i.i.i.i170.i = insertelement <16 x i32> undef, i32 %ret.0.copyload.i.i169.i, i64 0
  %vecinit15.i.i.i.i171.i = shufflevector <16 x i32> %vecinit.i.i.i.i170.i, <16 x i32> poison, <16 x i32> zeroinitializer
  call void @llvm.lifetime.start.p0(i64 64, ptr nonnull %self_buffer.i.i.i.i.i167.i)
  call void @llvm.lifetime.start.p0(i64 64, ptr nonnull %other_buffer.i.i.i.i.i168.i)
  store <16 x i32> %vecinit15.i.i.i.i171.i, ptr %self_buffer.i.i.i.i.i167.i, align 64
  store <8 x i64> <i64 8589934592, i64 25769803780, i64 42949672968, i64 60129542156, i64 77309411344, i64 94489280532, i64 111669149720, i64 128849018908>, ptr %other_buffer.i.i.i.i.i168.i, align 64
  br label %for.body.i.i.i.i.i172.i

for.body.i.i.i.i.i172.i:                          ; preds = %for.body.i.i.i.i.i172.i, %for.body19.i
  %i.05.i.i.i.i.i173.i = phi i64 [ 0, %for.body19.i ], [ %inc.i.i.i.i.i177.i, %for.body.i.i.i.i.i172.i ]
  %arrayidx2.i.i.i.i.i174.i = getelementptr inbounds [16 x i32], ptr %self_buffer.i.i.i.i.i167.i, i64 0, i64 %i.05.i.i.i.i.i173.i
  %11 = load i32, ptr %arrayidx2.i.i.i.i.i174.i, align 4
  %arrayidx3.i.i.i.i.i175.i = getelementptr inbounds [16 x i32], ptr %other_buffer.i.i.i.i.i168.i, i64 0, i64 %i.05.i.i.i.i.i173.i
  %12 = load i32, ptr %arrayidx3.i.i.i.i.i175.i, align 4
  %shr.i.i.i.i.i.i176.i = lshr i32 %11, %12
  store i32 %shr.i.i.i.i.i.i176.i, ptr %arrayidx2.i.i.i.i.i174.i, align 4
  %inc.i.i.i.i.i177.i = add nuw nsw i64 %i.05.i.i.i.i.i173.i, 1
  %exitcond.not.i.i.i.i.i178.i = icmp eq i64 %inc.i.i.i.i.i177.i, 16
  br i1 %exitcond.not.i.i.i.i.i178.i, label %_ZN5xsimdrsERKNS_5batchIjNS_8avx512bwEEES4_.exit.i179.i, label %for.body.i.i.i.i.i172.i, !llvm.loop !4

_ZN5xsimdrsERKNS_5batchIjNS_8avx512bwEEES4_.exit.i179.i: ; preds = %for.body.i.i.i.i.i172.i
  %13 = shl nsw i64 %indvars.iv2676.i, 5
  %add.ptr22.i = getelementptr inbounds i32, ptr %out, i64 %13
  %14 = load <8 x i64>, ptr %self_buffer.i.i.i.i.i167.i, align 64
  call void @llvm.lifetime.end.p0(i64 64, ptr nonnull %self_buffer.i.i.i.i.i167.i)
  call void @llvm.lifetime.end.p0(i64 64, ptr nonnull %other_buffer.i.i.i.i.i168.i)
  %and.i.i.i.i.i180.i = and <8 x i64> %14, <i64 12884901891, i64 12884901891, i64 12884901891, i64 12884901891, i64 12884901891, i64 12884901891, i64 12884901891, i64 12884901891>
  store <8 x i64> %and.i.i.i.i.i180.i, ptr %add.ptr22.i, align 1
  %add.ptr47.i.i = getelementptr inbounds i32, ptr %in.addr.22461.i, i64 1
  %ret.0.copyload.i53.i181.i = load i32, ptr %add.ptr47.i.i, align 4
  %vecinit.i.i.i69.i182.i = insertelement <16 x i32> undef, i32 %ret.0.copyload.i53.i181.i, i64 0
  %vecinit15.i.i.i84.i183.i = shufflevector <16 x i32> %vecinit.i.i.i69.i182.i, <16 x i32> poison, <16 x i32> zeroinitializer
  call void @llvm.lifetime.start.p0(i64 64, ptr nonnull %self_buffer.i.i.i.i85.i165.i)
  call void @llvm.lifetime.start.p0(i64 64, ptr nonnull %other_buffer.i.i.i.i86.i166.i)
  store <16 x i32> %vecinit15.i.i.i84.i183.i, ptr %self_buffer.i.i.i.i85.i165.i, align 64
  store <8 x i64> <i64 8589934592, i64 25769803780, i64 42949672968, i64 60129542156, i64 77309411344, i64 94489280532, i64 111669149720, i64 128849018908>, ptr %other_buffer.i.i.i.i86.i166.i, align 64
  br label %for.body.i.i.i.i88.i184.i

for.body.i.i.i.i88.i184.i:                        ; preds = %for.body.i.i.i.i88.i184.i, %_ZN5xsimdrsERKNS_5batchIjNS_8avx512bwEEES4_.exit.i179.i
  %i.05.i.i.i.i89.i185.i = phi i64 [ 0, %_ZN5xsimdrsERKNS_5batchIjNS_8avx512bwEEES4_.exit.i179.i ], [ %inc.i.i.i.i93.i189.i, %for.body.i.i.i.i88.i184.i ]
  %arrayidx2.i.i.i.i90.i186.i = getelementptr inbounds [16 x i32], ptr %self_buffer.i.i.i.i85.i165.i, i64 0, i64 %i.05.i.i.i.i89.i185.i
  %15 = load i32, ptr %arrayidx2.i.i.i.i90.i186.i, align 4
  %arrayidx3.i.i.i.i91.i187.i = getelementptr inbounds [16 x i32], ptr %other_buffer.i.i.i.i86.i166.i, i64 0, i64 %i.05.i.i.i.i89.i185.i
  %16 = load i32, ptr %arrayidx3.i.i.i.i91.i187.i, align 4
  %shr.i.i.i.i.i92.i188.i = lshr i32 %15, %16
  store i32 %shr.i.i.i.i.i92.i188.i, ptr %arrayidx2.i.i.i.i90.i186.i, align 4
  %inc.i.i.i.i93.i189.i = add nuw nsw i64 %i.05.i.i.i.i89.i185.i, 1
  %exitcond.not.i.i.i.i94.i190.i = icmp eq i64 %inc.i.i.i.i93.i189.i, 16
  br i1 %exitcond.not.i.i.i.i94.i190.i, label %_ZN5arrow8internal12_GLOBAL__N_113UnpackBits512ILNS0_13DispatchLevelE3EE10unpack2_32EPKjPj.exit.i, label %for.body.i.i.i.i88.i184.i, !llvm.loop !4

_ZN5arrow8internal12_GLOBAL__N_113UnpackBits512ILNS0_13DispatchLevelE3EE10unpack2_32EPKjPj.exit.i: ; preds = %for.body.i.i.i.i88.i184.i
  %add.ptr45.i191.i = getelementptr inbounds i32, ptr %add.ptr22.i, i64 16
  %17 = load <8 x i64>, ptr %self_buffer.i.i.i.i85.i165.i, align 64
  call void @llvm.lifetime.end.p0(i64 64, ptr nonnull %self_buffer.i.i.i.i85.i165.i)
  call void @llvm.lifetime.end.p0(i64 64, ptr nonnull %other_buffer.i.i.i.i86.i166.i)
  %and.i.i.i.i97.i192.i = and <8 x i64> %17, <i64 12884901891, i64 12884901891, i64 12884901891, i64 12884901891, i64 12884901891, i64 12884901891, i64 12884901891, i64 12884901891>
  store <8 x i64> %and.i.i.i.i97.i192.i, ptr %add.ptr45.i191.i, align 1
  %add.ptr95.i193.i = getelementptr inbounds i32, ptr %in.addr.22461.i, i64 2
  %indvars.iv.next2677.i = add nuw nsw i64 %indvars.iv2676.i, 1
  %exitcond2681.not.i = icmp eq i64 %indvars.iv.next2677.i, %wide.trip.count2680.i
  br i1 %exitcond2681.not.i, label %_ZN5arrow8internalL20unpack32_specializedINS0_12_GLOBAL__N_113UnpackBits512ILNS0_13DispatchLevelE3EEEEEiPKjPjii.exit, label %for.body19.i, !llvm.loop !7

for.body31.i:                                     ; preds = %_ZN5arrow8internal12_GLOBAL__N_113UnpackBits512ILNS0_13DispatchLevelE3EE10unpack3_32EPKjPj.exit.i, %for.body31.preheader.i
  %indvars.iv2670.i = phi i64 [ 0, %for.body31.preheader.i ], [ %indvars.iv.next2671.i, %_ZN5arrow8internal12_GLOBAL__N_113UnpackBits512ILNS0_13DispatchLevelE3EE10unpack3_32EPKjPj.exit.i ]
  %in.addr.32458.i = phi ptr [ %in, %for.body31.preheader.i ], [ %add.ptr102.i.i, %_ZN5arrow8internal12_GLOBAL__N_113UnpackBits512ILNS0_13DispatchLevelE3EE10unpack3_32EPKjPj.exit.i ]
  %ret.0.copyload.i.i196.i = load i32, ptr %in.addr.32458.i, align 4
  %add.ptr21.i.i = getelementptr inbounds i32, ptr %in.addr.32458.i, i64 1
  %ret.0.copyload.i49.i.i = load i32, ptr %add.ptr21.i.i, align 4
  %or.i.i = tail call i32 @llvm.fshl.i32(i32 %ret.0.copyload.i49.i.i, i32 %ret.0.copyload.i.i196.i, i32 2)
  %18 = insertelement <8 x i32> poison, i32 %ret.0.copyload.i.i196.i, i64 0
  %19 = shufflevector <8 x i32> %18, <8 x i32> poison, <16 x i32> <i32 0, i32 0, i32 0, i32 0, i32 0, i32 0, i32 0, i32 0, i32 poison, i32 poison, i32 poison, i32 poison, i32 poison, i32 poison, i32 poison, i32 poison>
  %vecinit8.i.i.i.i.i = insertelement <16 x i32> %19, i32 %ret.0.copyload.i.i196.i, i64 8
  %vecinit9.i.i.i.i.i = insertelement <16 x i32> %vecinit8.i.i.i.i.i, i32 %ret.0.copyload.i.i196.i, i64 9
  %vecinit10.i.i.i.i.i = insertelement <16 x i32> %vecinit9.i.i.i.i.i, i32 %or.i.i, i64 10
  %20 = insertelement <4 x i32> poison, i32 %ret.0.copyload.i49.i.i, i64 0
  %21 = shufflevector <4 x i32> %20, <4 x i32> poison, <16 x i32> <i32 0, i32 0, i32 0, i32 0, i32 poison, i32 poison, i32 poison, i32 poison, i32 poison, i32 poison, i32 poison, i32 poison, i32 poison, i32 poison, i32 poison, i32 poison>
  %vecinit14.i.i.i.i.i126 = shufflevector <16 x i32> %vecinit10.i.i.i.i.i, <16 x i32> %21, <16 x i32> <i32 0, i32 1, i32 2, i32 3, i32 4, i32 5, i32 6, i32 7, i32 8, i32 9, i32 10, i32 16, i32 17, i32 18, i32 19, i32 poison>
  %vecinit15.i.i.i.i198.i = insertelement <16 x i32> %vecinit14.i.i.i.i.i126, i32 %ret.0.copyload.i49.i.i, i64 15
  call void @llvm.lifetime.start.p0(i64 64, ptr nonnull %self_buffer.i.i.i.i.i194.i)
  call void @llvm.lifetime.start.p0(i64 64, ptr nonnull %other_buffer.i.i.i.i.i195.i)
  store <16 x i32> %vecinit15.i.i.i.i198.i, ptr %self_buffer.i.i.i.i.i194.i, align 64
  store <8 x i64> <i64 12884901888, i64 38654705670, i64 64424509452, i64 90194313234, i64 115964117016, i64 4294967296, i64 30064771076, i64 55834574858>, ptr %other_buffer.i.i.i.i.i195.i, align 64
  br label %for.body.i.i.i.i.i199.i

for.body.i.i.i.i.i199.i:                          ; preds = %for.body.i.i.i.i.i199.i, %for.body31.i
  %i.05.i.i.i.i.i200.i = phi i64 [ 0, %for.body31.i ], [ %inc.i.i.i.i.i204.i, %for.body.i.i.i.i.i199.i ]
  %arrayidx2.i.i.i.i.i201.i = getelementptr inbounds [16 x i32], ptr %self_buffer.i.i.i.i.i194.i, i64 0, i64 %i.05.i.i.i.i.i200.i
  %22 = load i32, ptr %arrayidx2.i.i.i.i.i201.i, align 4
  %arrayidx3.i.i.i.i.i202.i = getelementptr inbounds [16 x i32], ptr %other_buffer.i.i.i.i.i195.i, i64 0, i64 %i.05.i.i.i.i.i200.i
  %23 = load i32, ptr %arrayidx3.i.i.i.i.i202.i, align 4
  %shr.i.i.i.i.i.i203.i = lshr i32 %22, %23
  store i32 %shr.i.i.i.i.i.i203.i, ptr %arrayidx2.i.i.i.i.i201.i, align 4
  %inc.i.i.i.i.i204.i = add nuw nsw i64 %i.05.i.i.i.i.i200.i, 1
  %exitcond.not.i.i.i.i.i205.i = icmp eq i64 %inc.i.i.i.i.i204.i, 16
  br i1 %exitcond.not.i.i.i.i.i205.i, label %_ZN5xsimdrsERKNS_5batchIjNS_8avx512bwEEES4_.exit.i206.i, label %for.body.i.i.i.i.i199.i, !llvm.loop !4

_ZN5xsimdrsERKNS_5batchIjNS_8avx512bwEEES4_.exit.i206.i: ; preds = %for.body.i.i.i.i.i199.i
  %24 = shl nsw i64 %indvars.iv2670.i, 5
  %add.ptr34.i = getelementptr inbounds i32, ptr %out, i64 %24
  %25 = load <8 x i64>, ptr %self_buffer.i.i.i.i.i194.i, align 64
  call void @llvm.lifetime.end.p0(i64 64, ptr nonnull %self_buffer.i.i.i.i.i194.i)
  call void @llvm.lifetime.end.p0(i64 64, ptr nonnull %other_buffer.i.i.i.i.i195.i)
  %and.i.i.i.i.i207.i = and <8 x i64> %25, <i64 30064771079, i64 30064771079, i64 30064771079, i64 30064771079, i64 30064771079, i64 30064771079, i64 30064771079, i64 30064771079>
  store <8 x i64> %and.i.i.i.i.i207.i, ptr %add.ptr34.i, align 1
  %ret.0.copyload.i56.i.i = load i32, ptr %add.ptr21.i.i, align 4
  %add.ptr62.i.i = getelementptr inbounds i32, ptr %in.addr.32458.i, i64 2
  %ret.0.copyload.i62.i.i = load i32, ptr %add.ptr62.i.i, align 4
  %or65.i.i = tail call i32 @llvm.fshl.i32(i32 %ret.0.copyload.i62.i.i, i32 %ret.0.copyload.i56.i.i, i32 1)
  %26 = insertelement <4 x i32> poison, i32 %ret.0.copyload.i56.i.i, i64 0
  %27 = shufflevector <4 x i32> %26, <4 x i32> poison, <16 x i32> <i32 0, i32 0, i32 0, i32 0, i32 poison, i32 poison, i32 poison, i32 poison, i32 poison, i32 poison, i32 poison, i32 poison, i32 poison, i32 poison, i32 poison, i32 poison>
  %vecinit4.i.i.i77.i.i = insertelement <16 x i32> %27, i32 %ret.0.copyload.i56.i.i, i64 4
  %vecinit5.i.i.i78.i.i = insertelement <16 x i32> %vecinit4.i.i.i77.i.i, i32 %or65.i.i, i64 5
  %28 = insertelement <8 x i32> poison, i32 %ret.0.copyload.i62.i.i, i64 0
  %29 = shufflevector <8 x i32> %28, <8 x i32> poison, <16 x i32> <i32 0, i32 0, i32 0, i32 0, i32 0, i32 0, i32 0, i32 0, i32 poison, i32 poison, i32 poison, i32 poison, i32 poison, i32 poison, i32 poison, i32 poison>
  %vecinit13.i.i.i86.i.i125 = shufflevector <16 x i32> %vecinit5.i.i.i78.i.i, <16 x i32> %29, <16 x i32> <i32 0, i32 1, i32 2, i32 3, i32 4, i32 5, i32 16, i32 17, i32 18, i32 19, i32 20, i32 21, i32 22, i32 23, i32 poison, i32 poison>
  %vecinit14.i.i.i87.i.i = insertelement <16 x i32> %vecinit13.i.i.i86.i.i125, i32 %ret.0.copyload.i62.i.i, i64 14
  %vecinit15.i.i.i88.i.i = insertelement <16 x i32> %vecinit14.i.i.i87.i.i, i32 %ret.0.copyload.i62.i.i, i64 15
  call void @llvm.lifetime.start.p0(i64 64, ptr nonnull %self_buffer.i.i.i.i89.i.i)
  call void @llvm.lifetime.start.p0(i64 64, ptr nonnull %other_buffer.i.i.i.i90.i.i)
  store <16 x i32> %vecinit15.i.i.i88.i.i, ptr %self_buffer.i.i.i.i89.i.i, align 64
  store <8 x i64> <i64 81604378640, i64 107374182422, i64 28, i64 21474836482, i64 47244640264, i64 73014444046, i64 98784247828, i64 124554051610>, ptr %other_buffer.i.i.i.i90.i.i, align 64
  br label %for.body.i.i.i.i92.i.i

for.body.i.i.i.i92.i.i:                           ; preds = %for.body.i.i.i.i92.i.i, %_ZN5xsimdrsERKNS_5batchIjNS_8avx512bwEEES4_.exit.i206.i
  %i.05.i.i.i.i93.i.i = phi i64 [ 0, %_ZN5xsimdrsERKNS_5batchIjNS_8avx512bwEEES4_.exit.i206.i ], [ %inc.i.i.i.i97.i.i, %for.body.i.i.i.i92.i.i ]
  %arrayidx2.i.i.i.i94.i.i = getelementptr inbounds [16 x i32], ptr %self_buffer.i.i.i.i89.i.i, i64 0, i64 %i.05.i.i.i.i93.i.i
  %30 = load i32, ptr %arrayidx2.i.i.i.i94.i.i, align 4
  %arrayidx3.i.i.i.i95.i.i = getelementptr inbounds [16 x i32], ptr %other_buffer.i.i.i.i90.i.i, i64 0, i64 %i.05.i.i.i.i93.i.i
  %31 = load i32, ptr %arrayidx3.i.i.i.i95.i.i, align 4
  %shr.i.i.i.i.i96.i.i = lshr i32 %30, %31
  store i32 %shr.i.i.i.i.i96.i.i, ptr %arrayidx2.i.i.i.i94.i.i, align 4
  %inc.i.i.i.i97.i.i = add nuw nsw i64 %i.05.i.i.i.i93.i.i, 1
  %exitcond.not.i.i.i.i98.i.i = icmp eq i64 %inc.i.i.i.i97.i.i, 16
  br i1 %exitcond.not.i.i.i.i98.i.i, label %_ZN5arrow8internal12_GLOBAL__N_113UnpackBits512ILNS0_13DispatchLevelE3EE10unpack3_32EPKjPj.exit.i, label %for.body.i.i.i.i92.i.i, !llvm.loop !4

_ZN5arrow8internal12_GLOBAL__N_113UnpackBits512ILNS0_13DispatchLevelE3EE10unpack3_32EPKjPj.exit.i: ; preds = %for.body.i.i.i.i92.i.i
  %add.ptr47.i208.i = getelementptr inbounds i32, ptr %add.ptr34.i, i64 16
  %32 = load <8 x i64>, ptr %self_buffer.i.i.i.i89.i.i, align 64
  call void @llvm.lifetime.end.p0(i64 64, ptr nonnull %self_buffer.i.i.i.i89.i.i)
  call void @llvm.lifetime.end.p0(i64 64, ptr nonnull %other_buffer.i.i.i.i90.i.i)
  %and.i.i.i.i101.i.i = and <8 x i64> %32, <i64 30064771079, i64 30064771079, i64 30064771079, i64 30064771079, i64 30064771079, i64 30064771079, i64 30064771079, i64 30064771079>
  store <8 x i64> %and.i.i.i.i101.i.i, ptr %add.ptr47.i208.i, align 1
  %add.ptr102.i.i = getelementptr inbounds i32, ptr %in.addr.32458.i, i64 3
  %indvars.iv.next2671.i = add nuw nsw i64 %indvars.iv2670.i, 1
  %exitcond2675.not.i = icmp eq i64 %indvars.iv.next2671.i, %wide.trip.count2674.i
  br i1 %exitcond2675.not.i, label %_ZN5arrow8internalL20unpack32_specializedINS0_12_GLOBAL__N_113UnpackBits512ILNS0_13DispatchLevelE3EEEEEiPKjPjii.exit, label %for.body31.i, !llvm.loop !8

for.body43.i:                                     ; preds = %_ZN5arrow8internal12_GLOBAL__N_113UnpackBits512ILNS0_13DispatchLevelE3EE10unpack4_32EPKjPj.exit.i, %for.body43.preheader.i
  %indvars.iv2664.i = phi i64 [ 0, %for.body43.preheader.i ], [ %indvars.iv.next2665.i, %_ZN5arrow8internal12_GLOBAL__N_113UnpackBits512ILNS0_13DispatchLevelE3EE10unpack4_32EPKjPj.exit.i ]
  %in.addr.42455.i = phi ptr [ %in, %for.body43.preheader.i ], [ %add.ptr95.i252.i, %_ZN5arrow8internal12_GLOBAL__N_113UnpackBits512ILNS0_13DispatchLevelE3EE10unpack4_32EPKjPj.exit.i ]
  %33 = load <2 x i32>, ptr %in.addr.42455.i, align 4
  %34 = shufflevector <2 x i32> %33, <2 x i32> poison, <16 x i32> <i32 0, i32 0, i32 0, i32 0, i32 0, i32 0, i32 0, i32 0, i32 1, i32 1, i32 1, i32 1, i32 1, i32 1, i32 1, i32 1>
  call void @llvm.lifetime.start.p0(i64 64, ptr nonnull %self_buffer.i.i.i.i.i211.i)
  call void @llvm.lifetime.start.p0(i64 64, ptr nonnull %other_buffer.i.i.i.i.i212.i)
  store <16 x i32> %34, ptr %self_buffer.i.i.i.i.i211.i, align 64
  store <8 x i64> <i64 17179869184, i64 51539607560, i64 85899345936, i64 120259084312, i64 17179869184, i64 51539607560, i64 85899345936, i64 120259084312>, ptr %other_buffer.i.i.i.i.i212.i, align 64
  br label %for.body.i.i.i.i.i230.i

for.body.i.i.i.i.i230.i:                          ; preds = %for.body.i.i.i.i.i230.i, %for.body43.i
  %i.05.i.i.i.i.i231.i = phi i64 [ 0, %for.body43.i ], [ %inc.i.i.i.i.i235.i, %for.body.i.i.i.i.i230.i ]
  %arrayidx2.i.i.i.i.i232.i = getelementptr inbounds [16 x i32], ptr %self_buffer.i.i.i.i.i211.i, i64 0, i64 %i.05.i.i.i.i.i231.i
  %35 = load i32, ptr %arrayidx2.i.i.i.i.i232.i, align 4
  %arrayidx3.i.i.i.i.i233.i = getelementptr inbounds [16 x i32], ptr %other_buffer.i.i.i.i.i212.i, i64 0, i64 %i.05.i.i.i.i.i231.i
  %36 = load i32, ptr %arrayidx3.i.i.i.i.i233.i, align 4
  %shr.i.i.i.i.i.i234.i = lshr i32 %35, %36
  store i32 %shr.i.i.i.i.i.i234.i, ptr %arrayidx2.i.i.i.i.i232.i, align 4
  %inc.i.i.i.i.i235.i = add nuw nsw i64 %i.05.i.i.i.i.i231.i, 1
  %exitcond.not.i.i.i.i.i236.i = icmp eq i64 %inc.i.i.i.i.i235.i, 16
  br i1 %exitcond.not.i.i.i.i.i236.i, label %_ZN5xsimdrsERKNS_5batchIjNS_8avx512bwEEES4_.exit.i237.i, label %for.body.i.i.i.i.i230.i, !llvm.loop !4

_ZN5xsimdrsERKNS_5batchIjNS_8avx512bwEEES4_.exit.i237.i: ; preds = %for.body.i.i.i.i.i230.i
  %37 = shl nsw i64 %indvars.iv2664.i, 5
  %add.ptr46.i = getelementptr inbounds i32, ptr %out, i64 %37
  %38 = load <8 x i64>, ptr %self_buffer.i.i.i.i.i211.i, align 64
  call void @llvm.lifetime.end.p0(i64 64, ptr nonnull %self_buffer.i.i.i.i.i211.i)
  call void @llvm.lifetime.end.p0(i64 64, ptr nonnull %other_buffer.i.i.i.i.i212.i)
  %and.i.i.i.i.i238.i = and <8 x i64> %38, <i64 64424509455, i64 64424509455, i64 64424509455, i64 64424509455, i64 64424509455, i64 64424509455, i64 64424509455, i64 64424509455>
  store <8 x i64> %and.i.i.i.i.i238.i, ptr %add.ptr46.i, align 1
  %add.ptr47.i239.i = getelementptr inbounds i32, ptr %in.addr.42455.i, i64 2
  %39 = load <2 x i32>, ptr %add.ptr47.i239.i, align 4
  %40 = shufflevector <2 x i32> %39, <2 x i32> poison, <16 x i32> <i32 0, i32 0, i32 0, i32 0, i32 0, i32 0, i32 0, i32 0, i32 1, i32 1, i32 1, i32 1, i32 1, i32 1, i32 1, i32 1>
  call void @llvm.lifetime.start.p0(i64 64, ptr nonnull %self_buffer.i.i.i.i85.i209.i)
  call void @llvm.lifetime.start.p0(i64 64, ptr nonnull %other_buffer.i.i.i.i86.i210.i)
  store <16 x i32> %40, ptr %self_buffer.i.i.i.i85.i209.i, align 64
  store <8 x i64> <i64 17179869184, i64 51539607560, i64 85899345936, i64 120259084312, i64 17179869184, i64 51539607560, i64 85899345936, i64 120259084312>, ptr %other_buffer.i.i.i.i86.i210.i, align 64
  br label %for.body.i.i.i.i88.i243.i

for.body.i.i.i.i88.i243.i:                        ; preds = %for.body.i.i.i.i88.i243.i, %_ZN5xsimdrsERKNS_5batchIjNS_8avx512bwEEES4_.exit.i237.i
  %i.05.i.i.i.i89.i244.i = phi i64 [ 0, %_ZN5xsimdrsERKNS_5batchIjNS_8avx512bwEEES4_.exit.i237.i ], [ %inc.i.i.i.i93.i248.i, %for.body.i.i.i.i88.i243.i ]
  %arrayidx2.i.i.i.i90.i245.i = getelementptr inbounds [16 x i32], ptr %self_buffer.i.i.i.i85.i209.i, i64 0, i64 %i.05.i.i.i.i89.i244.i
  %41 = load i32, ptr %arrayidx2.i.i.i.i90.i245.i, align 4
  %arrayidx3.i.i.i.i91.i246.i = getelementptr inbounds [16 x i32], ptr %other_buffer.i.i.i.i86.i210.i, i64 0, i64 %i.05.i.i.i.i89.i244.i
  %42 = load i32, ptr %arrayidx3.i.i.i.i91.i246.i, align 4
  %shr.i.i.i.i.i92.i247.i = lshr i32 %41, %42
  store i32 %shr.i.i.i.i.i92.i247.i, ptr %arrayidx2.i.i.i.i90.i245.i, align 4
  %inc.i.i.i.i93.i248.i = add nuw nsw i64 %i.05.i.i.i.i89.i244.i, 1
  %exitcond.not.i.i.i.i94.i249.i = icmp eq i64 %inc.i.i.i.i93.i248.i, 16
  br i1 %exitcond.not.i.i.i.i94.i249.i, label %_ZN5arrow8internal12_GLOBAL__N_113UnpackBits512ILNS0_13DispatchLevelE3EE10unpack4_32EPKjPj.exit.i, label %for.body.i.i.i.i88.i243.i, !llvm.loop !4

_ZN5arrow8internal12_GLOBAL__N_113UnpackBits512ILNS0_13DispatchLevelE3EE10unpack4_32EPKjPj.exit.i: ; preds = %for.body.i.i.i.i88.i243.i
  %add.ptr45.i250.i = getelementptr inbounds i32, ptr %add.ptr46.i, i64 16
  %43 = load <8 x i64>, ptr %self_buffer.i.i.i.i85.i209.i, align 64
  call void @llvm.lifetime.end.p0(i64 64, ptr nonnull %self_buffer.i.i.i.i85.i209.i)
  call void @llvm.lifetime.end.p0(i64 64, ptr nonnull %other_buffer.i.i.i.i86.i210.i)
  %and.i.i.i.i97.i251.i = and <8 x i64> %43, <i64 64424509455, i64 64424509455, i64 64424509455, i64 64424509455, i64 64424509455, i64 64424509455, i64 64424509455, i64 64424509455>
  store <8 x i64> %and.i.i.i.i97.i251.i, ptr %add.ptr45.i250.i, align 1
  %add.ptr95.i252.i = getelementptr inbounds i32, ptr %in.addr.42455.i, i64 4
  %indvars.iv.next2665.i = add nuw nsw i64 %indvars.iv2664.i, 1
  %exitcond2669.not.i = icmp eq i64 %indvars.iv.next2665.i, %wide.trip.count2668.i
  br i1 %exitcond2669.not.i, label %_ZN5arrow8internalL20unpack32_specializedINS0_12_GLOBAL__N_113UnpackBits512ILNS0_13DispatchLevelE3EEEEEiPKjPjii.exit, label %for.body43.i, !llvm.loop !9

for.body55.i:                                     ; preds = %_ZN5arrow8internal12_GLOBAL__N_113UnpackBits512ILNS0_13DispatchLevelE3EE10unpack5_32EPKjPj.exit.i, %for.body55.preheader.i
  %indvars.iv2658.i = phi i64 [ 0, %for.body55.preheader.i ], [ %indvars.iv.next2659.i, %_ZN5arrow8internal12_GLOBAL__N_113UnpackBits512ILNS0_13DispatchLevelE3EE10unpack5_32EPKjPj.exit.i ]
  %in.addr.52452.i = phi ptr [ %in, %for.body55.preheader.i ], [ %add.ptr112.i.i, %_ZN5arrow8internal12_GLOBAL__N_113UnpackBits512ILNS0_13DispatchLevelE3EE10unpack5_32EPKjPj.exit.i ]
  %ret.0.copyload.i.i255.i = load i32, ptr %in.addr.52452.i, align 4
  %add.ptr13.i.i = getelementptr inbounds i32, ptr %in.addr.52452.i, i64 1
  %ret.0.copyload.i47.i.i = load i32, ptr %add.ptr13.i.i, align 4
  %or.i256.i = tail call i32 @llvm.fshl.i32(i32 %ret.0.copyload.i47.i.i, i32 %ret.0.copyload.i.i255.i, i32 2)
  %add.ptr28.i.i = getelementptr inbounds i32, ptr %in.addr.52452.i, i64 2
  %ret.0.copyload.i54.i.i = load i32, ptr %add.ptr28.i.i, align 4
  %or31.i.i = tail call i32 @llvm.fshl.i32(i32 %ret.0.copyload.i54.i.i, i32 %ret.0.copyload.i47.i.i, i32 4)
  %44 = insertelement <4 x i32> poison, i32 %ret.0.copyload.i.i255.i, i64 0
  %45 = shufflevector <4 x i32> %44, <4 x i32> poison, <16 x i32> <i32 0, i32 0, i32 0, i32 0, i32 poison, i32 poison, i32 poison, i32 poison, i32 poison, i32 poison, i32 poison, i32 poison, i32 poison, i32 poison, i32 poison, i32 poison>
  %vecinit4.i.i.i.i261.i = insertelement <16 x i32> %45, i32 %ret.0.copyload.i.i255.i, i64 4
  %vecinit5.i.i.i.i262.i = insertelement <16 x i32> %vecinit4.i.i.i.i261.i, i32 %ret.0.copyload.i.i255.i, i64 5
  %vecinit6.i.i.i.i263.i = insertelement <16 x i32> %vecinit5.i.i.i.i262.i, i32 %or.i256.i, i64 6
  %vecinit7.i.i.i.i264.i = insertelement <16 x i32> %vecinit6.i.i.i.i263.i, i32 %ret.0.copyload.i47.i.i, i64 7
  %46 = insertelement <4 x i32> poison, i32 %ret.0.copyload.i47.i.i, i64 0
  %47 = shufflevector <4 x i32> %46, <4 x i32> poison, <16 x i32> <i32 0, i32 0, i32 0, i32 0, i32 poison, i32 poison, i32 poison, i32 poison, i32 poison, i32 poison, i32 poison, i32 poison, i32 poison, i32 poison, i32 poison, i32 poison>
  %vecinit11.i.i.i.i268.i129 = shufflevector <16 x i32> %vecinit7.i.i.i.i264.i, <16 x i32> %47, <16 x i32> <i32 0, i32 1, i32 2, i32 3, i32 4, i32 5, i32 6, i32 7, i32 16, i32 17, i32 18, i32 19, i32 poison, i32 poison, i32 poison, i32 poison>
  %vecinit12.i.i.i.i269.i = insertelement <16 x i32> %vecinit11.i.i.i.i268.i129, i32 %or31.i.i, i64 12
  %vecinit13.i.i.i.i270.i = insertelement <16 x i32> %vecinit12.i.i.i.i269.i, i32 %ret.0.copyload.i54.i.i, i64 13
  %vecinit14.i.i.i.i271.i = insertelement <16 x i32> %vecinit13.i.i.i.i270.i, i32 %ret.0.copyload.i54.i.i, i64 14
  %vecinit15.i.i.i.i272.i = insertelement <16 x i32> %vecinit14.i.i.i.i271.i, i32 %ret.0.copyload.i54.i.i, i64 15
  call void @llvm.lifetime.start.p0(i64 64, ptr nonnull %self_buffer.i.i.i.i.i253.i)
  call void @llvm.lifetime.start.p0(i64 64, ptr nonnull %other_buffer.i.i.i.i.i254.i)
  store <16 x i32> %vecinit15.i.i.i.i272.i, ptr %self_buffer.i.i.i.i.i253.i, align 64
  store <8 x i64> <i64 21474836480, i64 64424509450, i64 107374182420, i64 12884901888, i64 55834574856, i64 98784247826, i64 4294967296, i64 47244640262>, ptr %other_buffer.i.i.i.i.i254.i, align 64
  br label %for.body.i.i.i.i.i273.i

for.body.i.i.i.i.i273.i:                          ; preds = %for.body.i.i.i.i.i273.i, %for.body55.i
  %i.05.i.i.i.i.i274.i = phi i64 [ 0, %for.body55.i ], [ %inc.i.i.i.i.i278.i, %for.body.i.i.i.i.i273.i ]
  %arrayidx2.i.i.i.i.i275.i = getelementptr inbounds [16 x i32], ptr %self_buffer.i.i.i.i.i253.i, i64 0, i64 %i.05.i.i.i.i.i274.i
  %48 = load i32, ptr %arrayidx2.i.i.i.i.i275.i, align 4
  %arrayidx3.i.i.i.i.i276.i = getelementptr inbounds [16 x i32], ptr %other_buffer.i.i.i.i.i254.i, i64 0, i64 %i.05.i.i.i.i.i274.i
  %49 = load i32, ptr %arrayidx3.i.i.i.i.i276.i, align 4
  %shr.i.i.i.i.i.i277.i = lshr i32 %48, %49
  store i32 %shr.i.i.i.i.i.i277.i, ptr %arrayidx2.i.i.i.i.i275.i, align 4
  %inc.i.i.i.i.i278.i = add nuw nsw i64 %i.05.i.i.i.i.i274.i, 1
  %exitcond.not.i.i.i.i.i279.i = icmp eq i64 %inc.i.i.i.i.i278.i, 16
  br i1 %exitcond.not.i.i.i.i.i279.i, label %_ZN5xsimdrsERKNS_5batchIjNS_8avx512bwEEES4_.exit.i280.i, label %for.body.i.i.i.i.i273.i, !llvm.loop !4

_ZN5xsimdrsERKNS_5batchIjNS_8avx512bwEEES4_.exit.i280.i: ; preds = %for.body.i.i.i.i.i273.i
  %50 = shl nsw i64 %indvars.iv2658.i, 5
  %add.ptr58.i = getelementptr inbounds i32, ptr %out, i64 %50
  %51 = load <8 x i64>, ptr %self_buffer.i.i.i.i.i253.i, align 64
  call void @llvm.lifetime.end.p0(i64 64, ptr nonnull %self_buffer.i.i.i.i.i253.i)
  call void @llvm.lifetime.end.p0(i64 64, ptr nonnull %other_buffer.i.i.i.i.i254.i)
  %and.i.i.i.i.i281.i = and <8 x i64> %51, <i64 133143986207, i64 133143986207, i64 133143986207, i64 133143986207, i64 133143986207, i64 133143986207, i64 133143986207, i64 133143986207>
  store <8 x i64> %and.i.i.i.i.i281.i, ptr %add.ptr58.i, align 1
  %ret.0.copyload.i59.i.i = load i32, ptr %add.ptr28.i.i, align 4
  %add.ptr63.i282.i = getelementptr inbounds i32, ptr %in.addr.52452.i, i64 3
  %ret.0.copyload.i63.i.i = load i32, ptr %add.ptr63.i282.i, align 4
  %or66.i.i = tail call i32 @llvm.fshl.i32(i32 %ret.0.copyload.i63.i.i, i32 %ret.0.copyload.i59.i.i, i32 1)
  %add.ptr80.i.i = getelementptr inbounds i32, ptr %in.addr.52452.i, i64 4
  %ret.0.copyload.i70.i.i = load i32, ptr %add.ptr80.i.i, align 4
  %or83.i.i = tail call i32 @llvm.fshl.i32(i32 %ret.0.copyload.i70.i.i, i32 %ret.0.copyload.i63.i.i, i32 3)
  %vecinit.i.i.i77.i.i = insertelement <16 x i32> undef, i32 %ret.0.copyload.i59.i.i, i64 0
  %vecinit1.i.i.i78.i.i = insertelement <16 x i32> %vecinit.i.i.i77.i.i, i32 %ret.0.copyload.i59.i.i, i64 1
  %vecinit2.i.i.i79.i.i = insertelement <16 x i32> %vecinit1.i.i.i78.i.i, i32 %ret.0.copyload.i59.i.i, i64 2
  %vecinit3.i.i.i80.i.i = insertelement <16 x i32> %vecinit2.i.i.i79.i.i, i32 %or66.i.i, i64 3
  %52 = insertelement <4 x i32> poison, i32 %ret.0.copyload.i63.i.i, i64 0
  %53 = shufflevector <4 x i32> %52, <4 x i32> poison, <16 x i32> <i32 0, i32 0, i32 0, i32 0, i32 poison, i32 poison, i32 poison, i32 poison, i32 poison, i32 poison, i32 poison, i32 poison, i32 poison, i32 poison, i32 poison, i32 poison>
  %vecinit7.i.i.i84.i.i127 = shufflevector <16 x i32> %vecinit3.i.i.i80.i.i, <16 x i32> %53, <16 x i32> <i32 0, i32 1, i32 2, i32 3, i32 16, i32 17, i32 18, i32 19, i32 poison, i32 poison, i32 poison, i32 poison, i32 poison, i32 poison, i32 poison, i32 poison>
  %vecinit8.i.i.i85.i.i = insertelement <16 x i32> %vecinit7.i.i.i84.i.i127, i32 %ret.0.copyload.i63.i.i, i64 8
  %vecinit9.i.i.i86.i.i = insertelement <16 x i32> %vecinit8.i.i.i85.i.i, i32 %or83.i.i, i64 9
  %54 = insertelement <4 x i32> poison, i32 %ret.0.copyload.i70.i.i, i64 0
  %55 = shufflevector <4 x i32> %54, <4 x i32> poison, <16 x i32> <i32 0, i32 0, i32 0, i32 0, i32 poison, i32 poison, i32 poison, i32 poison, i32 poison, i32 poison, i32 poison, i32 poison, i32 poison, i32 poison, i32 poison, i32 poison>
  %vecinit13.i.i.i90.i.i128 = shufflevector <16 x i32> %vecinit9.i.i.i86.i.i, <16 x i32> %55, <16 x i32> <i32 0, i32 1, i32 2, i32 3, i32 4, i32 5, i32 6, i32 7, i32 8, i32 9, i32 16, i32 17, i32 18, i32 19, i32 poison, i32 poison>
  %vecinit14.i.i.i91.i.i = insertelement <16 x i32> %vecinit13.i.i.i90.i.i128, i32 %ret.0.copyload.i70.i.i, i64 14
  %vecinit15.i.i.i92.i.i = insertelement <16 x i32> %vecinit14.i.i.i91.i.i, i32 %ret.0.copyload.i70.i.i, i64 15
  call void @llvm.lifetime.start.p0(i64 64, ptr nonnull %self_buffer.i.i.i.i93.i.i)
  call void @llvm.lifetime.start.p0(i64 64, ptr nonnull %other_buffer.i.i.i.i94.i.i)
  store <16 x i32> %vecinit15.i.i.i92.i.i, ptr %self_buffer.i.i.i.i93.i.i, align 64
  store <8 x i64> <i64 90194313232, i64 26, i64 38654705668, i64 81604378638, i64 24, i64 30064771074, i64 73014444044, i64 115964117014>, ptr %other_buffer.i.i.i.i94.i.i, align 64
  br label %for.body.i.i.i.i96.i.i

for.body.i.i.i.i96.i.i:                           ; preds = %for.body.i.i.i.i96.i.i, %_ZN5xsimdrsERKNS_5batchIjNS_8avx512bwEEES4_.exit.i280.i
  %i.05.i.i.i.i97.i.i = phi i64 [ 0, %_ZN5xsimdrsERKNS_5batchIjNS_8avx512bwEEES4_.exit.i280.i ], [ %inc.i.i.i.i101.i.i, %for.body.i.i.i.i96.i.i ]
  %arrayidx2.i.i.i.i98.i.i = getelementptr inbounds [16 x i32], ptr %self_buffer.i.i.i.i93.i.i, i64 0, i64 %i.05.i.i.i.i97.i.i
  %56 = load i32, ptr %arrayidx2.i.i.i.i98.i.i, align 4
  %arrayidx3.i.i.i.i99.i.i = getelementptr inbounds [16 x i32], ptr %other_buffer.i.i.i.i94.i.i, i64 0, i64 %i.05.i.i.i.i97.i.i
  %57 = load i32, ptr %arrayidx3.i.i.i.i99.i.i, align 4
  %shr.i.i.i.i.i100.i.i = lshr i32 %56, %57
  store i32 %shr.i.i.i.i.i100.i.i, ptr %arrayidx2.i.i.i.i98.i.i, align 4
  %inc.i.i.i.i101.i.i = add nuw nsw i64 %i.05.i.i.i.i97.i.i, 1
  %exitcond.not.i.i.i.i102.i.i = icmp eq i64 %inc.i.i.i.i101.i.i, 16
  br i1 %exitcond.not.i.i.i.i102.i.i, label %_ZN5arrow8internal12_GLOBAL__N_113UnpackBits512ILNS0_13DispatchLevelE3EE10unpack5_32EPKjPj.exit.i, label %for.body.i.i.i.i96.i.i, !llvm.loop !4

_ZN5arrow8internal12_GLOBAL__N_113UnpackBits512ILNS0_13DispatchLevelE3EE10unpack5_32EPKjPj.exit.i: ; preds = %for.body.i.i.i.i96.i.i
  %add.ptr52.i.i = getelementptr inbounds i32, ptr %add.ptr58.i, i64 16
  %58 = load <8 x i64>, ptr %self_buffer.i.i.i.i93.i.i, align 64
  call void @llvm.lifetime.end.p0(i64 64, ptr nonnull %self_buffer.i.i.i.i93.i.i)
  call void @llvm.lifetime.end.p0(i64 64, ptr nonnull %other_buffer.i.i.i.i94.i.i)
  %and.i.i.i.i105.i.i = and <8 x i64> %58, <i64 133143986207, i64 133143986207, i64 133143986207, i64 133143986207, i64 133143986207, i64 133143986207, i64 133143986207, i64 133143986207>
  store <8 x i64> %and.i.i.i.i105.i.i, ptr %add.ptr52.i.i, align 1
  %add.ptr112.i.i = getelementptr inbounds i32, ptr %in.addr.52452.i, i64 5
  %indvars.iv.next2659.i = add nuw nsw i64 %indvars.iv2658.i, 1
  %exitcond2663.not.i = icmp eq i64 %indvars.iv.next2659.i, %wide.trip.count2662.i
  br i1 %exitcond2663.not.i, label %_ZN5arrow8internalL20unpack32_specializedINS0_12_GLOBAL__N_113UnpackBits512ILNS0_13DispatchLevelE3EEEEEiPKjPjii.exit, label %for.body55.i, !llvm.loop !10

for.body67.i:                                     ; preds = %_ZN5arrow8internal12_GLOBAL__N_113UnpackBits512ILNS0_13DispatchLevelE3EE10unpack6_32EPKjPj.exit.i, %for.body67.preheader.i
  %indvars.iv2652.i = phi i64 [ 0, %for.body67.preheader.i ], [ %indvars.iv.next2653.i, %_ZN5arrow8internal12_GLOBAL__N_113UnpackBits512ILNS0_13DispatchLevelE3EE10unpack6_32EPKjPj.exit.i ]
  %in.addr.62449.i = phi ptr [ %in, %for.body67.preheader.i ], [ %add.ptr112.i340.i, %_ZN5arrow8internal12_GLOBAL__N_113UnpackBits512ILNS0_13DispatchLevelE3EE10unpack6_32EPKjPj.exit.i ]
  %ret.0.copyload.i.i287.i = load i32, ptr %in.addr.62449.i, align 4
  %add.ptr11.i.i = getelementptr inbounds i32, ptr %in.addr.62449.i, i64 1
  %ret.0.copyload.i46.i.i = load i32, ptr %add.ptr11.i.i, align 4
  %or.i288.i = tail call i32 @llvm.fshl.i32(i32 %ret.0.copyload.i46.i.i, i32 %ret.0.copyload.i.i287.i, i32 2)
  %add.ptr24.i.i = getelementptr inbounds i32, ptr %in.addr.62449.i, i64 2
  %ret.0.copyload.i52.i.i = load i32, ptr %add.ptr24.i.i, align 4
  %or27.i.i = tail call i32 @llvm.fshl.i32(i32 %ret.0.copyload.i52.i.i, i32 %ret.0.copyload.i46.i.i, i32 4)
  %59 = insertelement <4 x i32> poison, i32 %ret.0.copyload.i.i287.i, i64 0
  %60 = shufflevector <4 x i32> %59, <4 x i32> poison, <16 x i32> <i32 0, i32 0, i32 0, i32 0, i32 poison, i32 poison, i32 poison, i32 poison, i32 poison, i32 poison, i32 poison, i32 poison, i32 poison, i32 poison, i32 poison, i32 poison>
  %vecinit4.i.i.i.i293.i = insertelement <16 x i32> %60, i32 %ret.0.copyload.i.i287.i, i64 4
  %vecinit5.i.i.i.i294.i = insertelement <16 x i32> %vecinit4.i.i.i.i293.i, i32 %or.i288.i, i64 5
  %vecinit6.i.i.i.i295.i = insertelement <16 x i32> %vecinit5.i.i.i.i294.i, i32 %ret.0.copyload.i46.i.i, i64 6
  %vecinit7.i.i.i.i296.i = insertelement <16 x i32> %vecinit6.i.i.i.i295.i, i32 %ret.0.copyload.i46.i.i, i64 7
  %vecinit8.i.i.i.i297.i = insertelement <16 x i32> %vecinit7.i.i.i.i296.i, i32 %ret.0.copyload.i46.i.i, i64 8
  %vecinit9.i.i.i.i298.i = insertelement <16 x i32> %vecinit8.i.i.i.i297.i, i32 %ret.0.copyload.i46.i.i, i64 9
  %vecinit10.i.i.i.i299.i = insertelement <16 x i32> %vecinit9.i.i.i.i298.i, i32 %or27.i.i, i64 10
  %61 = insertelement <4 x i32> poison, i32 %ret.0.copyload.i52.i.i, i64 0
  %62 = shufflevector <4 x i32> %61, <4 x i32> poison, <16 x i32> <i32 0, i32 0, i32 0, i32 0, i32 poison, i32 poison, i32 poison, i32 poison, i32 poison, i32 poison, i32 poison, i32 poison, i32 poison, i32 poison, i32 poison, i32 poison>
  %vecinit14.i.i.i.i303.i131 = shufflevector <16 x i32> %vecinit10.i.i.i.i299.i, <16 x i32> %62, <16 x i32> <i32 0, i32 1, i32 2, i32 3, i32 4, i32 5, i32 6, i32 7, i32 8, i32 9, i32 10, i32 16, i32 17, i32 18, i32 19, i32 poison>
  %vecinit15.i.i.i.i304.i = insertelement <16 x i32> %vecinit14.i.i.i.i303.i131, i32 %ret.0.copyload.i52.i.i, i64 15
  call void @llvm.lifetime.start.p0(i64 64, ptr nonnull %self_buffer.i.i.i.i.i285.i)
  call void @llvm.lifetime.start.p0(i64 64, ptr nonnull %other_buffer.i.i.i.i.i286.i)
  store <16 x i32> %vecinit15.i.i.i.i304.i, ptr %self_buffer.i.i.i.i.i285.i, align 64
  store <8 x i64> <i64 25769803776, i64 77309411340, i64 24, i64 42949672964, i64 94489280528, i64 8589934592, i64 60129542152, i64 111669149716>, ptr %other_buffer.i.i.i.i.i286.i, align 64
  br label %for.body.i.i.i.i.i305.i

for.body.i.i.i.i.i305.i:                          ; preds = %for.body.i.i.i.i.i305.i, %for.body67.i
  %i.05.i.i.i.i.i306.i = phi i64 [ 0, %for.body67.i ], [ %inc.i.i.i.i.i310.i, %for.body.i.i.i.i.i305.i ]
  %arrayidx2.i.i.i.i.i307.i = getelementptr inbounds [16 x i32], ptr %self_buffer.i.i.i.i.i285.i, i64 0, i64 %i.05.i.i.i.i.i306.i
  %63 = load i32, ptr %arrayidx2.i.i.i.i.i307.i, align 4
  %arrayidx3.i.i.i.i.i308.i = getelementptr inbounds [16 x i32], ptr %other_buffer.i.i.i.i.i286.i, i64 0, i64 %i.05.i.i.i.i.i306.i
  %64 = load i32, ptr %arrayidx3.i.i.i.i.i308.i, align 4
  %shr.i.i.i.i.i.i309.i = lshr i32 %63, %64
  store i32 %shr.i.i.i.i.i.i309.i, ptr %arrayidx2.i.i.i.i.i307.i, align 4
  %inc.i.i.i.i.i310.i = add nuw nsw i64 %i.05.i.i.i.i.i306.i, 1
  %exitcond.not.i.i.i.i.i311.i = icmp eq i64 %inc.i.i.i.i.i310.i, 16
  br i1 %exitcond.not.i.i.i.i.i311.i, label %_ZN5xsimdrsERKNS_5batchIjNS_8avx512bwEEES4_.exit.i312.i, label %for.body.i.i.i.i.i305.i, !llvm.loop !4

_ZN5xsimdrsERKNS_5batchIjNS_8avx512bwEEES4_.exit.i312.i: ; preds = %for.body.i.i.i.i.i305.i
  %65 = shl nsw i64 %indvars.iv2652.i, 5
  %add.ptr70.i = getelementptr inbounds i32, ptr %out, i64 %65
  %66 = load <8 x i64>, ptr %self_buffer.i.i.i.i.i285.i, align 64
  call void @llvm.lifetime.end.p0(i64 64, ptr nonnull %self_buffer.i.i.i.i.i285.i)
  call void @llvm.lifetime.end.p0(i64 64, ptr nonnull %other_buffer.i.i.i.i.i286.i)
  %and.i.i.i.i.i313.i = and <8 x i64> %66, <i64 270582939711, i64 270582939711, i64 270582939711, i64 270582939711, i64 270582939711, i64 270582939711, i64 270582939711, i64 270582939711>
  store <8 x i64> %and.i.i.i.i.i313.i, ptr %add.ptr70.i, align 1
  %add.ptr54.i.i = getelementptr inbounds i32, ptr %in.addr.62449.i, i64 3
  %ret.0.copyload.i59.i314.i = load i32, ptr %add.ptr54.i.i, align 4
  %add.ptr67.i.i = getelementptr inbounds i32, ptr %in.addr.62449.i, i64 4
  %ret.0.copyload.i65.i.i = load i32, ptr %add.ptr67.i.i, align 4
  %or70.i.i = tail call i32 @llvm.fshl.i32(i32 %ret.0.copyload.i65.i.i, i32 %ret.0.copyload.i59.i314.i, i32 2)
  %add.ptr82.i.i = getelementptr inbounds i32, ptr %in.addr.62449.i, i64 5
  %ret.0.copyload.i71.i.i = load i32, ptr %add.ptr82.i.i, align 4
  %or85.i.i = tail call i32 @llvm.fshl.i32(i32 %ret.0.copyload.i71.i.i, i32 %ret.0.copyload.i65.i.i, i32 4)
  %67 = insertelement <4 x i32> poison, i32 %ret.0.copyload.i59.i314.i, i64 0
  %68 = shufflevector <4 x i32> %67, <4 x i32> poison, <16 x i32> <i32 0, i32 0, i32 0, i32 0, i32 poison, i32 poison, i32 poison, i32 poison, i32 poison, i32 poison, i32 poison, i32 poison, i32 poison, i32 poison, i32 poison, i32 poison>
  %vecinit4.i.i.i81.i319.i = insertelement <16 x i32> %68, i32 %ret.0.copyload.i59.i314.i, i64 4
  %vecinit5.i.i.i82.i320.i = insertelement <16 x i32> %vecinit4.i.i.i81.i319.i, i32 %or70.i.i, i64 5
  %vecinit6.i.i.i83.i321.i = insertelement <16 x i32> %vecinit5.i.i.i82.i320.i, i32 %ret.0.copyload.i65.i.i, i64 6
  %vecinit7.i.i.i84.i322.i = insertelement <16 x i32> %vecinit6.i.i.i83.i321.i, i32 %ret.0.copyload.i65.i.i, i64 7
  %vecinit8.i.i.i85.i323.i = insertelement <16 x i32> %vecinit7.i.i.i84.i322.i, i32 %ret.0.copyload.i65.i.i, i64 8
  %vecinit9.i.i.i86.i324.i = insertelement <16 x i32> %vecinit8.i.i.i85.i323.i, i32 %ret.0.copyload.i65.i.i, i64 9
  %vecinit10.i.i.i87.i325.i = insertelement <16 x i32> %vecinit9.i.i.i86.i324.i, i32 %or85.i.i, i64 10
  %69 = insertelement <4 x i32> poison, i32 %ret.0.copyload.i71.i.i, i64 0
  %70 = shufflevector <4 x i32> %69, <4 x i32> poison, <16 x i32> <i32 0, i32 0, i32 0, i32 0, i32 poison, i32 poison, i32 poison, i32 poison, i32 poison, i32 poison, i32 poison, i32 poison, i32 poison, i32 poison, i32 poison, i32 poison>
  %vecinit14.i.i.i91.i329.i130 = shufflevector <16 x i32> %vecinit10.i.i.i87.i325.i, <16 x i32> %70, <16 x i32> <i32 0, i32 1, i32 2, i32 3, i32 4, i32 5, i32 6, i32 7, i32 8, i32 9, i32 10, i32 16, i32 17, i32 18, i32 19, i32 poison>
  %vecinit15.i.i.i92.i330.i = insertelement <16 x i32> %vecinit14.i.i.i91.i329.i130, i32 %ret.0.copyload.i71.i.i, i64 15
  call void @llvm.lifetime.start.p0(i64 64, ptr nonnull %self_buffer.i.i.i.i93.i283.i)
  call void @llvm.lifetime.start.p0(i64 64, ptr nonnull %other_buffer.i.i.i.i94.i284.i)
  store <16 x i32> %vecinit15.i.i.i92.i330.i, ptr %self_buffer.i.i.i.i93.i283.i, align 64
  store <8 x i64> <i64 25769803776, i64 77309411340, i64 24, i64 42949672964, i64 94489280528, i64 8589934592, i64 60129542152, i64 111669149716>, ptr %other_buffer.i.i.i.i94.i284.i, align 64
  br label %for.body.i.i.i.i96.i331.i

for.body.i.i.i.i96.i331.i:                        ; preds = %for.body.i.i.i.i96.i331.i, %_ZN5xsimdrsERKNS_5batchIjNS_8avx512bwEEES4_.exit.i312.i
  %i.05.i.i.i.i97.i332.i = phi i64 [ 0, %_ZN5xsimdrsERKNS_5batchIjNS_8avx512bwEEES4_.exit.i312.i ], [ %inc.i.i.i.i101.i336.i, %for.body.i.i.i.i96.i331.i ]
  %arrayidx2.i.i.i.i98.i333.i = getelementptr inbounds [16 x i32], ptr %self_buffer.i.i.i.i93.i283.i, i64 0, i64 %i.05.i.i.i.i97.i332.i
  %71 = load i32, ptr %arrayidx2.i.i.i.i98.i333.i, align 4
  %arrayidx3.i.i.i.i99.i334.i = getelementptr inbounds [16 x i32], ptr %other_buffer.i.i.i.i94.i284.i, i64 0, i64 %i.05.i.i.i.i97.i332.i
  %72 = load i32, ptr %arrayidx3.i.i.i.i99.i334.i, align 4
  %shr.i.i.i.i.i100.i335.i = lshr i32 %71, %72
  store i32 %shr.i.i.i.i.i100.i335.i, ptr %arrayidx2.i.i.i.i98.i333.i, align 4
  %inc.i.i.i.i101.i336.i = add nuw nsw i64 %i.05.i.i.i.i97.i332.i, 1
  %exitcond.not.i.i.i.i102.i337.i = icmp eq i64 %inc.i.i.i.i101.i336.i, 16
  br i1 %exitcond.not.i.i.i.i102.i337.i, label %_ZN5arrow8internal12_GLOBAL__N_113UnpackBits512ILNS0_13DispatchLevelE3EE10unpack6_32EPKjPj.exit.i, label %for.body.i.i.i.i96.i331.i, !llvm.loop !4

_ZN5arrow8internal12_GLOBAL__N_113UnpackBits512ILNS0_13DispatchLevelE3EE10unpack6_32EPKjPj.exit.i: ; preds = %for.body.i.i.i.i96.i331.i
  %add.ptr52.i338.i = getelementptr inbounds i32, ptr %add.ptr70.i, i64 16
  %73 = load <8 x i64>, ptr %self_buffer.i.i.i.i93.i283.i, align 64
  call void @llvm.lifetime.end.p0(i64 64, ptr nonnull %self_buffer.i.i.i.i93.i283.i)
  call void @llvm.lifetime.end.p0(i64 64, ptr nonnull %other_buffer.i.i.i.i94.i284.i)
  %and.i.i.i.i105.i339.i = and <8 x i64> %73, <i64 270582939711, i64 270582939711, i64 270582939711, i64 270582939711, i64 270582939711, i64 270582939711, i64 270582939711, i64 270582939711>
  store <8 x i64> %and.i.i.i.i105.i339.i, ptr %add.ptr52.i338.i, align 1
  %add.ptr112.i340.i = getelementptr inbounds i32, ptr %in.addr.62449.i, i64 6
  %indvars.iv.next2653.i = add nuw nsw i64 %indvars.iv2652.i, 1
  %exitcond2657.not.i = icmp eq i64 %indvars.iv.next2653.i, %wide.trip.count2656.i
  br i1 %exitcond2657.not.i, label %_ZN5arrow8internalL20unpack32_specializedINS0_12_GLOBAL__N_113UnpackBits512ILNS0_13DispatchLevelE3EEEEEiPKjPjii.exit, label %for.body67.i, !llvm.loop !11

for.body79.i:                                     ; preds = %_ZN5arrow8internal12_GLOBAL__N_113UnpackBits512ILNS0_13DispatchLevelE3EE10unpack7_32EPKjPj.exit.i, %for.body79.preheader.i
  %indvars.iv2646.i = phi i64 [ 0, %for.body79.preheader.i ], [ %indvars.iv.next2647.i, %_ZN5arrow8internal12_GLOBAL__N_113UnpackBits512ILNS0_13DispatchLevelE3EE10unpack7_32EPKjPj.exit.i ]
  %in.addr.72446.i = phi ptr [ %in, %for.body79.preheader.i ], [ %add.ptr122.i.i, %_ZN5arrow8internal12_GLOBAL__N_113UnpackBits512ILNS0_13DispatchLevelE3EE10unpack7_32EPKjPj.exit.i ]
  %ret.0.copyload.i.i343.i = load i32, ptr %in.addr.72446.i, align 4
  %add.ptr9.i.i = getelementptr inbounds i32, ptr %in.addr.72446.i, i64 1
  %ret.0.copyload.i47.i344.i = load i32, ptr %add.ptr9.i.i, align 4
  %or.i345.i = tail call i32 @llvm.fshl.i32(i32 %ret.0.copyload.i47.i344.i, i32 %ret.0.copyload.i.i343.i, i32 4)
  %add.ptr22.i.i = getelementptr inbounds i32, ptr %in.addr.72446.i, i64 2
  %ret.0.copyload.i53.i346.i = load i32, ptr %add.ptr22.i.i, align 4
  %or25.i.i = tail call i32 @llvm.fshl.i32(i32 %ret.0.copyload.i53.i346.i, i32 %ret.0.copyload.i47.i344.i, i32 1)
  %add.ptr35.i.i = getelementptr inbounds i32, ptr %in.addr.72446.i, i64 3
  %ret.0.copyload.i58.i.i = load i32, ptr %add.ptr35.i.i, align 4
  %or38.i.i = tail call i32 @llvm.fshl.i32(i32 %ret.0.copyload.i58.i.i, i32 %ret.0.copyload.i53.i346.i, i32 5)
  %74 = insertelement <4 x i32> poison, i32 %ret.0.copyload.i.i343.i, i64 0
  %75 = shufflevector <4 x i32> %74, <4 x i32> poison, <16 x i32> <i32 0, i32 0, i32 0, i32 0, i32 poison, i32 poison, i32 poison, i32 poison, i32 poison, i32 poison, i32 poison, i32 poison, i32 poison, i32 poison, i32 poison, i32 poison>
  %vecinit4.i.i.i.i351.i = insertelement <16 x i32> %75, i32 %or.i345.i, i64 4
  %vecinit5.i.i.i.i352.i = insertelement <16 x i32> %vecinit4.i.i.i.i351.i, i32 %ret.0.copyload.i47.i344.i, i64 5
  %vecinit6.i.i.i.i353.i = insertelement <16 x i32> %vecinit5.i.i.i.i352.i, i32 %ret.0.copyload.i47.i344.i, i64 6
  %vecinit7.i.i.i.i354.i = insertelement <16 x i32> %vecinit6.i.i.i.i353.i, i32 %ret.0.copyload.i47.i344.i, i64 7
  %vecinit8.i.i.i.i355.i = insertelement <16 x i32> %vecinit7.i.i.i.i354.i, i32 %ret.0.copyload.i47.i344.i, i64 8
  %vecinit9.i.i.i.i356.i = insertelement <16 x i32> %vecinit8.i.i.i.i355.i, i32 %or25.i.i, i64 9
  %vecinit10.i.i.i.i357.i = insertelement <16 x i32> %vecinit9.i.i.i.i356.i, i32 %ret.0.copyload.i53.i346.i, i64 10
  %vecinit11.i.i.i.i358.i = insertelement <16 x i32> %vecinit10.i.i.i.i357.i, i32 %ret.0.copyload.i53.i346.i, i64 11
  %vecinit12.i.i.i.i359.i = insertelement <16 x i32> %vecinit11.i.i.i.i358.i, i32 %ret.0.copyload.i53.i346.i, i64 12
  %vecinit13.i.i.i.i360.i = insertelement <16 x i32> %vecinit12.i.i.i.i359.i, i32 %or38.i.i, i64 13
  %vecinit14.i.i.i.i361.i = insertelement <16 x i32> %vecinit13.i.i.i.i360.i, i32 %ret.0.copyload.i58.i.i, i64 14
  %vecinit15.i.i.i.i362.i = insertelement <16 x i32> %vecinit14.i.i.i.i361.i, i32 %ret.0.copyload.i58.i.i, i64 15
  call void @llvm.lifetime.start.p0(i64 64, ptr nonnull %self_buffer.i.i.i.i.i341.i)
  call void @llvm.lifetime.start.p0(i64 64, ptr nonnull %other_buffer.i.i.i.i.i342.i)
  store <16 x i32> %vecinit15.i.i.i.i362.i, ptr %self_buffer.i.i.i.i.i341.i, align 64
  store <8 x i64> <i64 30064771072, i64 90194313230, i64 12884901888, i64 73014444042, i64 24, i64 55834574854, i64 20, i64 38654705666>, ptr %other_buffer.i.i.i.i.i342.i, align 64
  br label %for.body.i.i.i.i.i363.i

for.body.i.i.i.i.i363.i:                          ; preds = %for.body.i.i.i.i.i363.i, %for.body79.i
  %i.05.i.i.i.i.i364.i = phi i64 [ 0, %for.body79.i ], [ %inc.i.i.i.i.i368.i, %for.body.i.i.i.i.i363.i ]
  %arrayidx2.i.i.i.i.i365.i = getelementptr inbounds [16 x i32], ptr %self_buffer.i.i.i.i.i341.i, i64 0, i64 %i.05.i.i.i.i.i364.i
  %76 = load i32, ptr %arrayidx2.i.i.i.i.i365.i, align 4
  %arrayidx3.i.i.i.i.i366.i = getelementptr inbounds [16 x i32], ptr %other_buffer.i.i.i.i.i342.i, i64 0, i64 %i.05.i.i.i.i.i364.i
  %77 = load i32, ptr %arrayidx3.i.i.i.i.i366.i, align 4
  %shr.i.i.i.i.i.i367.i = lshr i32 %76, %77
  store i32 %shr.i.i.i.i.i.i367.i, ptr %arrayidx2.i.i.i.i.i365.i, align 4
  %inc.i.i.i.i.i368.i = add nuw nsw i64 %i.05.i.i.i.i.i364.i, 1
  %exitcond.not.i.i.i.i.i369.i = icmp eq i64 %inc.i.i.i.i.i368.i, 16
  br i1 %exitcond.not.i.i.i.i.i369.i, label %_ZN5xsimdrsERKNS_5batchIjNS_8avx512bwEEES4_.exit.i370.i, label %for.body.i.i.i.i.i363.i, !llvm.loop !4

_ZN5xsimdrsERKNS_5batchIjNS_8avx512bwEEES4_.exit.i370.i: ; preds = %for.body.i.i.i.i.i363.i
  %78 = shl nsw i64 %indvars.iv2646.i, 5
  %add.ptr82.i = getelementptr inbounds i32, ptr %out, i64 %78
  %79 = load <8 x i64>, ptr %self_buffer.i.i.i.i.i341.i, align 64
  call void @llvm.lifetime.end.p0(i64 64, ptr nonnull %self_buffer.i.i.i.i.i341.i)
  call void @llvm.lifetime.end.p0(i64 64, ptr nonnull %other_buffer.i.i.i.i.i342.i)
  %and.i.i.i.i.i371.i = and <8 x i64> %79, <i64 545460846719, i64 545460846719, i64 545460846719, i64 545460846719, i64 545460846719, i64 545460846719, i64 545460846719, i64 545460846719>
  store <8 x i64> %and.i.i.i.i.i371.i, ptr %add.ptr82.i, align 1
  %ret.0.copyload.i62.i372.i = load i32, ptr %add.ptr35.i.i, align 4
  %add.ptr66.i.i = getelementptr inbounds i32, ptr %in.addr.72446.i, i64 4
  %ret.0.copyload.i65.i373.i = load i32, ptr %add.ptr66.i.i, align 4
  %or69.i.i = tail call i32 @llvm.fshl.i32(i32 %ret.0.copyload.i65.i373.i, i32 %ret.0.copyload.i62.i372.i, i32 2)
  %add.ptr79.i.i = getelementptr inbounds i32, ptr %in.addr.72446.i, i64 5
  %ret.0.copyload.i70.i374.i = load i32, ptr %add.ptr79.i.i, align 4
  %or82.i.i = tail call i32 @llvm.fshl.i32(i32 %ret.0.copyload.i70.i374.i, i32 %ret.0.copyload.i65.i373.i, i32 6)
  %add.ptr94.i.i = getelementptr inbounds i32, ptr %in.addr.72446.i, i64 6
  %ret.0.copyload.i76.i.i = load i32, ptr %add.ptr94.i.i, align 4
  %or97.i.i = tail call i32 @llvm.fshl.i32(i32 %ret.0.copyload.i76.i.i, i32 %ret.0.copyload.i70.i374.i, i32 3)
  %vecinit.i.i.i81.i.i = insertelement <16 x i32> undef, i32 %ret.0.copyload.i62.i372.i, i64 0
  %vecinit1.i.i.i82.i.i = insertelement <16 x i32> %vecinit.i.i.i81.i.i, i32 %ret.0.copyload.i62.i372.i, i64 1
  %vecinit2.i.i.i83.i.i = insertelement <16 x i32> %vecinit1.i.i.i82.i.i, i32 %or69.i.i, i64 2
  %vecinit3.i.i.i84.i.i = insertelement <16 x i32> %vecinit2.i.i.i83.i.i, i32 %ret.0.copyload.i65.i373.i, i64 3
  %vecinit4.i.i.i85.i.i = insertelement <16 x i32> %vecinit3.i.i.i84.i.i, i32 %ret.0.copyload.i65.i373.i, i64 4
  %vecinit5.i.i.i86.i.i = insertelement <16 x i32> %vecinit4.i.i.i85.i.i, i32 %ret.0.copyload.i65.i373.i, i64 5
  %vecinit6.i.i.i87.i.i = insertelement <16 x i32> %vecinit5.i.i.i86.i.i, i32 %or82.i.i, i64 6
  %vecinit7.i.i.i88.i.i = insertelement <16 x i32> %vecinit6.i.i.i87.i.i, i32 %ret.0.copyload.i70.i374.i, i64 7
  %vecinit8.i.i.i89.i.i = insertelement <16 x i32> %vecinit7.i.i.i88.i.i, i32 %ret.0.copyload.i70.i374.i, i64 8
  %vecinit9.i.i.i90.i.i = insertelement <16 x i32> %vecinit8.i.i.i89.i.i, i32 %ret.0.copyload.i70.i374.i, i64 9
  %vecinit10.i.i.i91.i.i = insertelement <16 x i32> %vecinit9.i.i.i90.i.i, i32 %ret.0.copyload.i70.i374.i, i64 10
  %vecinit11.i.i.i92.i.i = insertelement <16 x i32> %vecinit10.i.i.i91.i.i, i32 %or97.i.i, i64 11
  %80 = insertelement <4 x i32> poison, i32 %ret.0.copyload.i76.i.i, i64 0
  %81 = shufflevector <4 x i32> %80, <4 x i32> poison, <16 x i32> <i32 0, i32 0, i32 0, i32 0, i32 poison, i32 poison, i32 poison, i32 poison, i32 poison, i32 poison, i32 poison, i32 poison, i32 poison, i32 poison, i32 poison, i32 poison>
  %vecinit15.i.i.i96.i.i132 = shufflevector <16 x i32> %vecinit11.i.i.i92.i.i, <16 x i32> %81, <16 x i32> <i32 0, i32 1, i32 2, i32 3, i32 4, i32 5, i32 6, i32 7, i32 8, i32 9, i32 10, i32 11, i32 16, i32 17, i32 18, i32 19>
  call void @llvm.lifetime.start.p0(i64 64, ptr nonnull %self_buffer.i.i.i.i97.i.i)
  call void @llvm.lifetime.start.p0(i64 64, ptr nonnull %other_buffer.i.i.i.i98.i.i)
  store <16 x i32> %vecinit15.i.i.i96.i.i132, ptr %self_buffer.i.i.i.i97.i.i, align 64
  store <8 x i64> <i64 98784247824, i64 21474836480, i64 81604378636, i64 4294967296, i64 64424509448, i64 22, i64 47244640260, i64 107374182418>, ptr %other_buffer.i.i.i.i98.i.i, align 64
  br label %for.body.i.i.i.i100.i.i

for.body.i.i.i.i100.i.i:                          ; preds = %for.body.i.i.i.i100.i.i, %_ZN5xsimdrsERKNS_5batchIjNS_8avx512bwEEES4_.exit.i370.i
  %i.05.i.i.i.i101.i.i = phi i64 [ 0, %_ZN5xsimdrsERKNS_5batchIjNS_8avx512bwEEES4_.exit.i370.i ], [ %inc.i.i.i.i105.i.i, %for.body.i.i.i.i100.i.i ]
  %arrayidx2.i.i.i.i102.i.i = getelementptr inbounds [16 x i32], ptr %self_buffer.i.i.i.i97.i.i, i64 0, i64 %i.05.i.i.i.i101.i.i
  %82 = load i32, ptr %arrayidx2.i.i.i.i102.i.i, align 4
  %arrayidx3.i.i.i.i103.i.i = getelementptr inbounds [16 x i32], ptr %other_buffer.i.i.i.i98.i.i, i64 0, i64 %i.05.i.i.i.i101.i.i
  %83 = load i32, ptr %arrayidx3.i.i.i.i103.i.i, align 4
  %shr.i.i.i.i.i104.i.i = lshr i32 %82, %83
  store i32 %shr.i.i.i.i.i104.i.i, ptr %arrayidx2.i.i.i.i102.i.i, align 4
  %inc.i.i.i.i105.i.i = add nuw nsw i64 %i.05.i.i.i.i101.i.i, 1
  %exitcond.not.i.i.i.i106.i.i = icmp eq i64 %inc.i.i.i.i105.i.i, 16
  br i1 %exitcond.not.i.i.i.i106.i.i, label %_ZN5arrow8internal12_GLOBAL__N_113UnpackBits512ILNS0_13DispatchLevelE3EE10unpack7_32EPKjPj.exit.i, label %for.body.i.i.i.i100.i.i, !llvm.loop !4

_ZN5arrow8internal12_GLOBAL__N_113UnpackBits512ILNS0_13DispatchLevelE3EE10unpack7_32EPKjPj.exit.i: ; preds = %for.body.i.i.i.i100.i.i
  %add.ptr57.i.i = getelementptr inbounds i32, ptr %add.ptr82.i, i64 16
  %84 = load <8 x i64>, ptr %self_buffer.i.i.i.i97.i.i, align 64
  call void @llvm.lifetime.end.p0(i64 64, ptr nonnull %self_buffer.i.i.i.i97.i.i)
  call void @llvm.lifetime.end.p0(i64 64, ptr nonnull %other_buffer.i.i.i.i98.i.i)
  %and.i.i.i.i109.i.i = and <8 x i64> %84, <i64 545460846719, i64 545460846719, i64 545460846719, i64 545460846719, i64 545460846719, i64 545460846719, i64 545460846719, i64 545460846719>
  store <8 x i64> %and.i.i.i.i109.i.i, ptr %add.ptr57.i.i, align 1
  %add.ptr122.i.i = getelementptr inbounds i32, ptr %in.addr.72446.i, i64 7
  %indvars.iv.next2647.i = add nuw nsw i64 %indvars.iv2646.i, 1
  %exitcond2651.not.i = icmp eq i64 %indvars.iv.next2647.i, %wide.trip.count2650.i
  br i1 %exitcond2651.not.i, label %_ZN5arrow8internalL20unpack32_specializedINS0_12_GLOBAL__N_113UnpackBits512ILNS0_13DispatchLevelE3EEEEEiPKjPjii.exit, label %for.body79.i, !llvm.loop !12

for.body91.i:                                     ; preds = %_ZN5arrow8internal12_GLOBAL__N_113UnpackBits512ILNS0_13DispatchLevelE3EE10unpack8_32EPKjPj.exit.i, %for.body91.preheader.i
  %indvars.iv2640.i = phi i64 [ 0, %for.body91.preheader.i ], [ %indvars.iv.next2641.i, %_ZN5arrow8internal12_GLOBAL__N_113UnpackBits512ILNS0_13DispatchLevelE3EE10unpack8_32EPKjPj.exit.i ]
  %in.addr.82443.i = phi ptr [ %in, %for.body91.preheader.i ], [ %add.ptr95.i437.i, %_ZN5arrow8internal12_GLOBAL__N_113UnpackBits512ILNS0_13DispatchLevelE3EE10unpack8_32EPKjPj.exit.i ]
  %85 = load <4 x i32>, ptr %in.addr.82443.i, align 4
  %86 = shufflevector <4 x i32> %85, <4 x i32> poison, <16 x i32> <i32 0, i32 0, i32 0, i32 0, i32 1, i32 1, i32 1, i32 1, i32 2, i32 2, i32 2, i32 2, i32 3, i32 3, i32 3, i32 3>
  call void @llvm.lifetime.start.p0(i64 64, ptr nonnull %self_buffer.i.i.i.i.i377.i)
  call void @llvm.lifetime.start.p0(i64 64, ptr nonnull %other_buffer.i.i.i.i.i378.i)
  store <16 x i32> %86, ptr %self_buffer.i.i.i.i.i377.i, align 64
  store <8 x i64> <i64 34359738368, i64 103079215120, i64 34359738368, i64 103079215120, i64 34359738368, i64 103079215120, i64 34359738368, i64 103079215120>, ptr %other_buffer.i.i.i.i.i378.i, align 64
  br label %for.body.i.i.i.i.i398.i

for.body.i.i.i.i.i398.i:                          ; preds = %for.body.i.i.i.i.i398.i, %for.body91.i
  %i.05.i.i.i.i.i399.i = phi i64 [ 0, %for.body91.i ], [ %inc.i.i.i.i.i403.i, %for.body.i.i.i.i.i398.i ]
  %arrayidx2.i.i.i.i.i400.i = getelementptr inbounds [16 x i32], ptr %self_buffer.i.i.i.i.i377.i, i64 0, i64 %i.05.i.i.i.i.i399.i
  %87 = load i32, ptr %arrayidx2.i.i.i.i.i400.i, align 4
  %arrayidx3.i.i.i.i.i401.i = getelementptr inbounds [16 x i32], ptr %other_buffer.i.i.i.i.i378.i, i64 0, i64 %i.05.i.i.i.i.i399.i
  %88 = load i32, ptr %arrayidx3.i.i.i.i.i401.i, align 4
  %shr.i.i.i.i.i.i402.i = lshr i32 %87, %88
  store i32 %shr.i.i.i.i.i.i402.i, ptr %arrayidx2.i.i.i.i.i400.i, align 4
  %inc.i.i.i.i.i403.i = add nuw nsw i64 %i.05.i.i.i.i.i399.i, 1
  %exitcond.not.i.i.i.i.i404.i = icmp eq i64 %inc.i.i.i.i.i403.i, 16
  br i1 %exitcond.not.i.i.i.i.i404.i, label %_ZN5xsimdrsERKNS_5batchIjNS_8avx512bwEEES4_.exit.i405.i, label %for.body.i.i.i.i.i398.i, !llvm.loop !4

_ZN5xsimdrsERKNS_5batchIjNS_8avx512bwEEES4_.exit.i405.i: ; preds = %for.body.i.i.i.i.i398.i
  %89 = shl nsw i64 %indvars.iv2640.i, 5
  %add.ptr94.i = getelementptr inbounds i32, ptr %out, i64 %89
  %90 = load <8 x i64>, ptr %self_buffer.i.i.i.i.i377.i, align 64
  call void @llvm.lifetime.end.p0(i64 64, ptr nonnull %self_buffer.i.i.i.i.i377.i)
  call void @llvm.lifetime.end.p0(i64 64, ptr nonnull %other_buffer.i.i.i.i.i378.i)
  %and.i.i.i.i.i406.i = and <8 x i64> %90, <i64 1095216660735, i64 1095216660735, i64 1095216660735, i64 1095216660735, i64 1095216660735, i64 1095216660735, i64 1095216660735, i64 1095216660735>
  store <8 x i64> %and.i.i.i.i.i406.i, ptr %add.ptr94.i, align 1
  %add.ptr47.i407.i = getelementptr inbounds i32, ptr %in.addr.82443.i, i64 4
  %91 = load <4 x i32>, ptr %add.ptr47.i407.i, align 4
  %92 = shufflevector <4 x i32> %91, <4 x i32> poison, <16 x i32> <i32 0, i32 0, i32 0, i32 0, i32 1, i32 1, i32 1, i32 1, i32 2, i32 2, i32 2, i32 2, i32 3, i32 3, i32 3, i32 3>
  call void @llvm.lifetime.start.p0(i64 64, ptr nonnull %self_buffer.i.i.i.i85.i375.i)
  call void @llvm.lifetime.start.p0(i64 64, ptr nonnull %other_buffer.i.i.i.i86.i376.i)
  store <16 x i32> %92, ptr %self_buffer.i.i.i.i85.i375.i, align 64
  store <8 x i64> <i64 34359738368, i64 103079215120, i64 34359738368, i64 103079215120, i64 34359738368, i64 103079215120, i64 34359738368, i64 103079215120>, ptr %other_buffer.i.i.i.i86.i376.i, align 64
  br label %for.body.i.i.i.i88.i428.i

for.body.i.i.i.i88.i428.i:                        ; preds = %for.body.i.i.i.i88.i428.i, %_ZN5xsimdrsERKNS_5batchIjNS_8avx512bwEEES4_.exit.i405.i
  %i.05.i.i.i.i89.i429.i = phi i64 [ 0, %_ZN5xsimdrsERKNS_5batchIjNS_8avx512bwEEES4_.exit.i405.i ], [ %inc.i.i.i.i93.i433.i, %for.body.i.i.i.i88.i428.i ]
  %arrayidx2.i.i.i.i90.i430.i = getelementptr inbounds [16 x i32], ptr %self_buffer.i.i.i.i85.i375.i, i64 0, i64 %i.05.i.i.i.i89.i429.i
  %93 = load i32, ptr %arrayidx2.i.i.i.i90.i430.i, align 4
  %arrayidx3.i.i.i.i91.i431.i = getelementptr inbounds [16 x i32], ptr %other_buffer.i.i.i.i86.i376.i, i64 0, i64 %i.05.i.i.i.i89.i429.i
  %94 = load i32, ptr %arrayidx3.i.i.i.i91.i431.i, align 4
  %shr.i.i.i.i.i92.i432.i = lshr i32 %93, %94
  store i32 %shr.i.i.i.i.i92.i432.i, ptr %arrayidx2.i.i.i.i90.i430.i, align 4
  %inc.i.i.i.i93.i433.i = add nuw nsw i64 %i.05.i.i.i.i89.i429.i, 1
  %exitcond.not.i.i.i.i94.i434.i = icmp eq i64 %inc.i.i.i.i93.i433.i, 16
  br i1 %exitcond.not.i.i.i.i94.i434.i, label %_ZN5arrow8internal12_GLOBAL__N_113UnpackBits512ILNS0_13DispatchLevelE3EE10unpack8_32EPKjPj.exit.i, label %for.body.i.i.i.i88.i428.i, !llvm.loop !4

_ZN5arrow8internal12_GLOBAL__N_113UnpackBits512ILNS0_13DispatchLevelE3EE10unpack8_32EPKjPj.exit.i: ; preds = %for.body.i.i.i.i88.i428.i
  %add.ptr45.i435.i = getelementptr inbounds i32, ptr %add.ptr94.i, i64 16
  %95 = load <8 x i64>, ptr %self_buffer.i.i.i.i85.i375.i, align 64
  call void @llvm.lifetime.end.p0(i64 64, ptr nonnull %self_buffer.i.i.i.i85.i375.i)
  call void @llvm.lifetime.end.p0(i64 64, ptr nonnull %other_buffer.i.i.i.i86.i376.i)
  %and.i.i.i.i97.i436.i = and <8 x i64> %95, <i64 1095216660735, i64 1095216660735, i64 1095216660735, i64 1095216660735, i64 1095216660735, i64 1095216660735, i64 1095216660735, i64 1095216660735>
  store <8 x i64> %and.i.i.i.i97.i436.i, ptr %add.ptr45.i435.i, align 1
  %add.ptr95.i437.i = getelementptr inbounds i32, ptr %in.addr.82443.i, i64 8
  %indvars.iv.next2641.i = add nuw nsw i64 %indvars.iv2640.i, 1
  %exitcond2645.not.i = icmp eq i64 %indvars.iv.next2641.i, %wide.trip.count2644.i
  br i1 %exitcond2645.not.i, label %_ZN5arrow8internalL20unpack32_specializedINS0_12_GLOBAL__N_113UnpackBits512ILNS0_13DispatchLevelE3EEEEEiPKjPjii.exit, label %for.body91.i, !llvm.loop !13

for.body103.i:                                    ; preds = %_ZN5arrow8internal12_GLOBAL__N_113UnpackBits512ILNS0_13DispatchLevelE3EE10unpack9_32EPKjPj.exit.i, %for.body103.preheader.i
  %indvars.iv2634.i = phi i64 [ 0, %for.body103.preheader.i ], [ %indvars.iv.next2635.i, %_ZN5arrow8internal12_GLOBAL__N_113UnpackBits512ILNS0_13DispatchLevelE3EE10unpack9_32EPKjPj.exit.i ]
  %in.addr.92440.i = phi ptr [ %in, %for.body103.preheader.i ], [ %add.ptr132.i.i, %_ZN5arrow8internal12_GLOBAL__N_113UnpackBits512ILNS0_13DispatchLevelE3EE10unpack9_32EPKjPj.exit.i ]
  %ret.0.copyload.i.i440.i = load i32, ptr %in.addr.92440.i, align 4
  %add.ptr7.i441.i = getelementptr inbounds i32, ptr %in.addr.92440.i, i64 1
  %ret.0.copyload.i48.i442.i = load i32, ptr %add.ptr7.i441.i, align 4
  %or.i443.i = tail call i32 @llvm.fshl.i32(i32 %ret.0.copyload.i48.i442.i, i32 %ret.0.copyload.i.i440.i, i32 5)
  %add.ptr18.i.i = getelementptr inbounds i32, ptr %in.addr.92440.i, i64 2
  %ret.0.copyload.i53.i444.i = load i32, ptr %add.ptr18.i.i, align 4
  %or21.i.i = tail call i32 @llvm.fshl.i32(i32 %ret.0.copyload.i53.i444.i, i32 %ret.0.copyload.i48.i442.i, i32 1)
  %add.ptr29.i.i = getelementptr inbounds i32, ptr %in.addr.92440.i, i64 3
  %ret.0.copyload.i57.i445.i = load i32, ptr %add.ptr29.i.i, align 4
  %or32.i.i = tail call i32 @llvm.fshl.i32(i32 %ret.0.copyload.i57.i445.i, i32 %ret.0.copyload.i53.i444.i, i32 6)
  %add.ptr42.i.i = getelementptr inbounds i32, ptr %in.addr.92440.i, i64 4
  %ret.0.copyload.i62.i446.i = load i32, ptr %add.ptr42.i.i, align 4
  %or45.i.i = tail call i32 @llvm.fshl.i32(i32 %ret.0.copyload.i62.i446.i, i32 %ret.0.copyload.i57.i445.i, i32 2)
  %vecinit.i.i.i.i447.i = insertelement <16 x i32> undef, i32 %ret.0.copyload.i.i440.i, i64 0
  %vecinit1.i.i.i.i448.i = insertelement <16 x i32> %vecinit.i.i.i.i447.i, i32 %ret.0.copyload.i.i440.i, i64 1
  %vecinit2.i.i.i.i449.i = insertelement <16 x i32> %vecinit1.i.i.i.i448.i, i32 %ret.0.copyload.i.i440.i, i64 2
  %vecinit3.i.i.i.i450.i = insertelement <16 x i32> %vecinit2.i.i.i.i449.i, i32 %or.i443.i, i64 3
  %vecinit4.i.i.i.i451.i = insertelement <16 x i32> %vecinit3.i.i.i.i450.i, i32 %ret.0.copyload.i48.i442.i, i64 4
  %vecinit5.i.i.i.i452.i = insertelement <16 x i32> %vecinit4.i.i.i.i451.i, i32 %ret.0.copyload.i48.i442.i, i64 5
  %vecinit6.i.i.i.i453.i = insertelement <16 x i32> %vecinit5.i.i.i.i452.i, i32 %ret.0.copyload.i48.i442.i, i64 6
  %vecinit7.i.i.i.i454.i = insertelement <16 x i32> %vecinit6.i.i.i.i453.i, i32 %or21.i.i, i64 7
  %vecinit8.i.i.i.i455.i = insertelement <16 x i32> %vecinit7.i.i.i.i454.i, i32 %ret.0.copyload.i53.i444.i, i64 8
  %vecinit9.i.i.i.i456.i = insertelement <16 x i32> %vecinit8.i.i.i.i455.i, i32 %ret.0.copyload.i53.i444.i, i64 9
  %vecinit10.i.i.i.i457.i = insertelement <16 x i32> %vecinit9.i.i.i.i456.i, i32 %or32.i.i, i64 10
  %vecinit11.i.i.i.i458.i = insertelement <16 x i32> %vecinit10.i.i.i.i457.i, i32 %ret.0.copyload.i57.i445.i, i64 11
  %vecinit12.i.i.i.i459.i = insertelement <16 x i32> %vecinit11.i.i.i.i458.i, i32 %ret.0.copyload.i57.i445.i, i64 12
  %vecinit13.i.i.i.i460.i = insertelement <16 x i32> %vecinit12.i.i.i.i459.i, i32 %ret.0.copyload.i57.i445.i, i64 13
  %vecinit14.i.i.i.i461.i = insertelement <16 x i32> %vecinit13.i.i.i.i460.i, i32 %or45.i.i, i64 14
  %vecinit15.i.i.i.i462.i = insertelement <16 x i32> %vecinit14.i.i.i.i461.i, i32 %ret.0.copyload.i62.i446.i, i64 15
  call void @llvm.lifetime.start.p0(i64 64, ptr nonnull %self_buffer.i.i.i.i.i438.i)
  call void @llvm.lifetime.start.p0(i64 64, ptr nonnull %other_buffer.i.i.i.i.i439.i)
  store <16 x i32> %vecinit15.i.i.i.i462.i, ptr %self_buffer.i.i.i.i.i438.i, align 64
  store <8 x i64> <i64 38654705664, i64 18, i64 55834574852, i64 22, i64 73014444040, i64 12884901888, i64 90194313228, i64 30064771072>, ptr %other_buffer.i.i.i.i.i439.i, align 64
  br label %for.body.i.i.i.i.i463.i

for.body.i.i.i.i.i463.i:                          ; preds = %for.body.i.i.i.i.i463.i, %for.body103.i
  %i.05.i.i.i.i.i464.i = phi i64 [ 0, %for.body103.i ], [ %inc.i.i.i.i.i468.i, %for.body.i.i.i.i.i463.i ]
  %arrayidx2.i.i.i.i.i465.i = getelementptr inbounds [16 x i32], ptr %self_buffer.i.i.i.i.i438.i, i64 0, i64 %i.05.i.i.i.i.i464.i
  %96 = load i32, ptr %arrayidx2.i.i.i.i.i465.i, align 4
  %arrayidx3.i.i.i.i.i466.i = getelementptr inbounds [16 x i32], ptr %other_buffer.i.i.i.i.i439.i, i64 0, i64 %i.05.i.i.i.i.i464.i
  %97 = load i32, ptr %arrayidx3.i.i.i.i.i466.i, align 4
  %shr.i.i.i.i.i.i467.i = lshr i32 %96, %97
  store i32 %shr.i.i.i.i.i.i467.i, ptr %arrayidx2.i.i.i.i.i465.i, align 4
  %inc.i.i.i.i.i468.i = add nuw nsw i64 %i.05.i.i.i.i.i464.i, 1
  %exitcond.not.i.i.i.i.i469.i = icmp eq i64 %inc.i.i.i.i.i468.i, 16
  br i1 %exitcond.not.i.i.i.i.i469.i, label %_ZN5xsimdrsERKNS_5batchIjNS_8avx512bwEEES4_.exit.i470.i, label %for.body.i.i.i.i.i463.i, !llvm.loop !4

_ZN5xsimdrsERKNS_5batchIjNS_8avx512bwEEES4_.exit.i470.i: ; preds = %for.body.i.i.i.i.i463.i
  %98 = shl nsw i64 %indvars.iv2634.i, 5
  %add.ptr106.i = getelementptr inbounds i32, ptr %out, i64 %98
  %99 = load <8 x i64>, ptr %self_buffer.i.i.i.i.i438.i, align 64
  call void @llvm.lifetime.end.p0(i64 64, ptr nonnull %self_buffer.i.i.i.i.i438.i)
  call void @llvm.lifetime.end.p0(i64 64, ptr nonnull %other_buffer.i.i.i.i.i439.i)
  %and.i.i.i.i.i471.i = and <8 x i64> %99, <i64 2194728288767, i64 2194728288767, i64 2194728288767, i64 2194728288767, i64 2194728288767, i64 2194728288767, i64 2194728288767, i64 2194728288767>
  store <8 x i64> %and.i.i.i.i.i471.i, ptr %add.ptr106.i, align 1
  %ret.0.copyload.i65.i472.i = load i32, ptr %add.ptr42.i.i, align 4
  %add.ptr69.i.i = getelementptr inbounds i32, ptr %in.addr.92440.i, i64 5
  %ret.0.copyload.i67.i.i = load i32, ptr %add.ptr69.i.i, align 4
  %or72.i.i = tail call i32 @llvm.fshl.i32(i32 %ret.0.copyload.i67.i.i, i32 %ret.0.copyload.i65.i472.i, i32 7)
  %add.ptr82.i473.i = getelementptr inbounds i32, ptr %in.addr.92440.i, i64 6
  %ret.0.copyload.i72.i.i = load i32, ptr %add.ptr82.i473.i, align 4
  %or85.i474.i = tail call i32 @llvm.fshl.i32(i32 %ret.0.copyload.i72.i.i, i32 %ret.0.copyload.i67.i.i, i32 3)
  %add.ptr93.i.i = getelementptr inbounds i32, ptr %in.addr.92440.i, i64 7
  %ret.0.copyload.i76.i475.i = load i32, ptr %add.ptr93.i.i, align 4
  %or96.i.i = tail call i32 @llvm.fshl.i32(i32 %ret.0.copyload.i76.i475.i, i32 %ret.0.copyload.i72.i.i, i32 8)
  %add.ptr106.i.i = getelementptr inbounds i32, ptr %in.addr.92440.i, i64 8
  %ret.0.copyload.i81.i.i = load i32, ptr %add.ptr106.i.i, align 4
  %or109.i.i = tail call i32 @llvm.fshl.i32(i32 %ret.0.copyload.i81.i.i, i32 %ret.0.copyload.i76.i475.i, i32 4)
  %vecinit.i.i.i85.i.i = insertelement <16 x i32> undef, i32 %ret.0.copyload.i65.i472.i, i64 0
  %vecinit1.i.i.i86.i.i = insertelement <16 x i32> %vecinit.i.i.i85.i.i, i32 %or72.i.i, i64 1
  %vecinit2.i.i.i87.i.i = insertelement <16 x i32> %vecinit1.i.i.i86.i.i, i32 %ret.0.copyload.i67.i.i, i64 2
  %vecinit3.i.i.i88.i.i = insertelement <16 x i32> %vecinit2.i.i.i87.i.i, i32 %ret.0.copyload.i67.i.i, i64 3
  %vecinit4.i.i.i89.i.i = insertelement <16 x i32> %vecinit3.i.i.i88.i.i, i32 %ret.0.copyload.i67.i.i, i64 4
  %vecinit5.i.i.i90.i.i = insertelement <16 x i32> %vecinit4.i.i.i89.i.i, i32 %or85.i474.i, i64 5
  %vecinit6.i.i.i91.i.i = insertelement <16 x i32> %vecinit5.i.i.i90.i.i, i32 %ret.0.copyload.i72.i.i, i64 6
  %vecinit7.i.i.i92.i.i = insertelement <16 x i32> %vecinit6.i.i.i91.i.i, i32 %ret.0.copyload.i72.i.i, i64 7
  %vecinit8.i.i.i93.i.i = insertelement <16 x i32> %vecinit7.i.i.i92.i.i, i32 %or96.i.i, i64 8
  %vecinit9.i.i.i94.i.i = insertelement <16 x i32> %vecinit8.i.i.i93.i.i, i32 %ret.0.copyload.i76.i475.i, i64 9
  %vecinit10.i.i.i95.i.i = insertelement <16 x i32> %vecinit9.i.i.i94.i.i, i32 %ret.0.copyload.i76.i475.i, i64 10
  %vecinit11.i.i.i96.i.i = insertelement <16 x i32> %vecinit10.i.i.i95.i.i, i32 %ret.0.copyload.i76.i475.i, i64 11
  %vecinit12.i.i.i97.i.i = insertelement <16 x i32> %vecinit11.i.i.i96.i.i, i32 %or109.i.i, i64 12
  %vecinit13.i.i.i98.i.i = insertelement <16 x i32> %vecinit12.i.i.i97.i.i, i32 %ret.0.copyload.i81.i.i, i64 13
  %vecinit14.i.i.i99.i.i = insertelement <16 x i32> %vecinit13.i.i.i98.i.i, i32 %ret.0.copyload.i81.i.i, i64 14
  %vecinit15.i.i.i100.i.i = insertelement <16 x i32> %vecinit14.i.i.i99.i.i, i32 %ret.0.copyload.i81.i.i, i64 15
  call void @llvm.lifetime.start.p0(i64 64, ptr nonnull %self_buffer.i.i.i.i101.i.i)
  call void @llvm.lifetime.start.p0(i64 64, ptr nonnull %other_buffer.i.i.i.i102.i.i)
  store <16 x i32> %vecinit15.i.i.i100.i.i, ptr %self_buffer.i.i.i.i101.i.i, align 64
  store <8 x i64> <i64 16, i64 47244640258, i64 20, i64 64424509446, i64 4294967296, i64 81604378634, i64 21474836480, i64 98784247822>, ptr %other_buffer.i.i.i.i102.i.i, align 64
  br label %for.body.i.i.i.i104.i.i

for.body.i.i.i.i104.i.i:                          ; preds = %for.body.i.i.i.i104.i.i, %_ZN5xsimdrsERKNS_5batchIjNS_8avx512bwEEES4_.exit.i470.i
  %i.05.i.i.i.i105.i.i = phi i64 [ 0, %_ZN5xsimdrsERKNS_5batchIjNS_8avx512bwEEES4_.exit.i470.i ], [ %inc.i.i.i.i109.i.i, %for.body.i.i.i.i104.i.i ]
  %arrayidx2.i.i.i.i106.i.i = getelementptr inbounds [16 x i32], ptr %self_buffer.i.i.i.i101.i.i, i64 0, i64 %i.05.i.i.i.i105.i.i
  %100 = load i32, ptr %arrayidx2.i.i.i.i106.i.i, align 4
  %arrayidx3.i.i.i.i107.i.i = getelementptr inbounds [16 x i32], ptr %other_buffer.i.i.i.i102.i.i, i64 0, i64 %i.05.i.i.i.i105.i.i
  %101 = load i32, ptr %arrayidx3.i.i.i.i107.i.i, align 4
  %shr.i.i.i.i.i108.i.i = lshr i32 %100, %101
  store i32 %shr.i.i.i.i.i108.i.i, ptr %arrayidx2.i.i.i.i106.i.i, align 4
  %inc.i.i.i.i109.i.i = add nuw nsw i64 %i.05.i.i.i.i105.i.i, 1
  %exitcond.not.i.i.i.i110.i.i = icmp eq i64 %inc.i.i.i.i109.i.i, 16
  br i1 %exitcond.not.i.i.i.i110.i.i, label %_ZN5arrow8internal12_GLOBAL__N_113UnpackBits512ILNS0_13DispatchLevelE3EE10unpack9_32EPKjPj.exit.i, label %for.body.i.i.i.i104.i.i, !llvm.loop !4

_ZN5arrow8internal12_GLOBAL__N_113UnpackBits512ILNS0_13DispatchLevelE3EE10unpack9_32EPKjPj.exit.i: ; preds = %for.body.i.i.i.i104.i.i
  %add.ptr62.i476.i = getelementptr inbounds i32, ptr %add.ptr106.i, i64 16
  %102 = load <8 x i64>, ptr %self_buffer.i.i.i.i101.i.i, align 64
  call void @llvm.lifetime.end.p0(i64 64, ptr nonnull %self_buffer.i.i.i.i101.i.i)
  call void @llvm.lifetime.end.p0(i64 64, ptr nonnull %other_buffer.i.i.i.i102.i.i)
  %and.i.i.i.i113.i.i = and <8 x i64> %102, <i64 2194728288767, i64 2194728288767, i64 2194728288767, i64 2194728288767, i64 2194728288767, i64 2194728288767, i64 2194728288767, i64 2194728288767>
  store <8 x i64> %and.i.i.i.i113.i.i, ptr %add.ptr62.i476.i, align 1
  %add.ptr132.i.i = getelementptr inbounds i32, ptr %in.addr.92440.i, i64 9
  %indvars.iv.next2635.i = add nuw nsw i64 %indvars.iv2634.i, 1
  %exitcond2639.not.i = icmp eq i64 %indvars.iv.next2635.i, %wide.trip.count2638.i
  br i1 %exitcond2639.not.i, label %_ZN5arrow8internalL20unpack32_specializedINS0_12_GLOBAL__N_113UnpackBits512ILNS0_13DispatchLevelE3EEEEEiPKjPjii.exit, label %for.body103.i, !llvm.loop !14

for.body115.i:                                    ; preds = %_ZN5arrow8internal12_GLOBAL__N_113UnpackBits512ILNS0_13DispatchLevelE3EE11unpack10_32EPKjPj.exit.i, %for.body115.preheader.i
  %indvars.iv2628.i = phi i64 [ 0, %for.body115.preheader.i ], [ %indvars.iv.next2629.i, %_ZN5arrow8internal12_GLOBAL__N_113UnpackBits512ILNS0_13DispatchLevelE3EE11unpack10_32EPKjPj.exit.i ]
  %in.addr.102437.i = phi ptr [ %in, %for.body115.preheader.i ], [ %add.ptr132.i542.i, %_ZN5arrow8internal12_GLOBAL__N_113UnpackBits512ILNS0_13DispatchLevelE3EE11unpack10_32EPKjPj.exit.i ]
  %ret.0.copyload.i.i481.i = load i32, ptr %in.addr.102437.i, align 4
  %add.ptr7.i482.i = getelementptr inbounds i32, ptr %in.addr.102437.i, i64 1
  %ret.0.copyload.i48.i483.i = load i32, ptr %add.ptr7.i482.i, align 4
  %or.i484.i = tail call i32 @llvm.fshl.i32(i32 %ret.0.copyload.i48.i483.i, i32 %ret.0.copyload.i.i481.i, i32 2)
  %add.ptr16.i.i = getelementptr inbounds i32, ptr %in.addr.102437.i, i64 2
  %ret.0.copyload.i52.i485.i = load i32, ptr %add.ptr16.i.i, align 4
  %or19.i.i = tail call i32 @llvm.fshl.i32(i32 %ret.0.copyload.i52.i485.i, i32 %ret.0.copyload.i48.i483.i, i32 4)
  %add.ptr27.i.i = getelementptr inbounds i32, ptr %in.addr.102437.i, i64 3
  %ret.0.copyload.i56.i486.i = load i32, ptr %add.ptr27.i.i, align 4
  %or30.i.i = tail call i32 @llvm.fshl.i32(i32 %ret.0.copyload.i56.i486.i, i32 %ret.0.copyload.i52.i485.i, i32 6)
  %add.ptr38.i.i = getelementptr inbounds i32, ptr %in.addr.102437.i, i64 4
  %ret.0.copyload.i60.i.i = load i32, ptr %add.ptr38.i.i, align 4
  %or41.i.i = tail call i32 @llvm.fshl.i32(i32 %ret.0.copyload.i60.i.i, i32 %ret.0.copyload.i56.i486.i, i32 8)
  %vecinit.i.i.i.i487.i = insertelement <16 x i32> undef, i32 %ret.0.copyload.i.i481.i, i64 0
  %vecinit1.i.i.i.i488.i = insertelement <16 x i32> %vecinit.i.i.i.i487.i, i32 %ret.0.copyload.i.i481.i, i64 1
  %vecinit2.i.i.i.i489.i = insertelement <16 x i32> %vecinit1.i.i.i.i488.i, i32 %ret.0.copyload.i.i481.i, i64 2
  %vecinit3.i.i.i.i490.i = insertelement <16 x i32> %vecinit2.i.i.i.i489.i, i32 %or.i484.i, i64 3
  %vecinit4.i.i.i.i491.i = insertelement <16 x i32> %vecinit3.i.i.i.i490.i, i32 %ret.0.copyload.i48.i483.i, i64 4
  %vecinit5.i.i.i.i492.i = insertelement <16 x i32> %vecinit4.i.i.i.i491.i, i32 %ret.0.copyload.i48.i483.i, i64 5
  %vecinit6.i.i.i.i493.i = insertelement <16 x i32> %vecinit5.i.i.i.i492.i, i32 %or19.i.i, i64 6
  %vecinit7.i.i.i.i494.i = insertelement <16 x i32> %vecinit6.i.i.i.i493.i, i32 %ret.0.copyload.i52.i485.i, i64 7
  %vecinit8.i.i.i.i495.i = insertelement <16 x i32> %vecinit7.i.i.i.i494.i, i32 %ret.0.copyload.i52.i485.i, i64 8
  %vecinit9.i.i.i.i496.i = insertelement <16 x i32> %vecinit8.i.i.i.i495.i, i32 %or30.i.i, i64 9
  %vecinit10.i.i.i.i497.i = insertelement <16 x i32> %vecinit9.i.i.i.i496.i, i32 %ret.0.copyload.i56.i486.i, i64 10
  %vecinit11.i.i.i.i498.i = insertelement <16 x i32> %vecinit10.i.i.i.i497.i, i32 %ret.0.copyload.i56.i486.i, i64 11
  %vecinit12.i.i.i.i499.i = insertelement <16 x i32> %vecinit11.i.i.i.i498.i, i32 %or41.i.i, i64 12
  %vecinit13.i.i.i.i500.i = insertelement <16 x i32> %vecinit12.i.i.i.i499.i, i32 %ret.0.copyload.i60.i.i, i64 13
  %vecinit14.i.i.i.i501.i = insertelement <16 x i32> %vecinit13.i.i.i.i500.i, i32 %ret.0.copyload.i60.i.i, i64 14
  %vecinit15.i.i.i.i502.i = insertelement <16 x i32> %vecinit14.i.i.i.i501.i, i32 %ret.0.copyload.i60.i.i, i64 15
  call void @llvm.lifetime.start.p0(i64 64, ptr nonnull %self_buffer.i.i.i.i.i479.i)
  call void @llvm.lifetime.start.p0(i64 64, ptr nonnull %other_buffer.i.i.i.i.i480.i)
  store <16 x i32> %vecinit15.i.i.i.i502.i, ptr %self_buffer.i.i.i.i.i479.i, align 64
  store <8 x i64> <i64 42949672960, i64 20, i64 77309411336, i64 25769803776, i64 16, i64 60129542148, i64 8589934592, i64 94489280524>, ptr %other_buffer.i.i.i.i.i480.i, align 64
  br label %for.body.i.i.i.i.i503.i

for.body.i.i.i.i.i503.i:                          ; preds = %for.body.i.i.i.i.i503.i, %for.body115.i
  %i.05.i.i.i.i.i504.i = phi i64 [ 0, %for.body115.i ], [ %inc.i.i.i.i.i508.i, %for.body.i.i.i.i.i503.i ]
  %arrayidx2.i.i.i.i.i505.i = getelementptr inbounds [16 x i32], ptr %self_buffer.i.i.i.i.i479.i, i64 0, i64 %i.05.i.i.i.i.i504.i
  %103 = load i32, ptr %arrayidx2.i.i.i.i.i505.i, align 4
  %arrayidx3.i.i.i.i.i506.i = getelementptr inbounds [16 x i32], ptr %other_buffer.i.i.i.i.i480.i, i64 0, i64 %i.05.i.i.i.i.i504.i
  %104 = load i32, ptr %arrayidx3.i.i.i.i.i506.i, align 4
  %shr.i.i.i.i.i.i507.i = lshr i32 %103, %104
  store i32 %shr.i.i.i.i.i.i507.i, ptr %arrayidx2.i.i.i.i.i505.i, align 4
  %inc.i.i.i.i.i508.i = add nuw nsw i64 %i.05.i.i.i.i.i504.i, 1
  %exitcond.not.i.i.i.i.i509.i = icmp eq i64 %inc.i.i.i.i.i508.i, 16
  br i1 %exitcond.not.i.i.i.i.i509.i, label %_ZN5xsimdrsERKNS_5batchIjNS_8avx512bwEEES4_.exit.i510.i, label %for.body.i.i.i.i.i503.i, !llvm.loop !4

_ZN5xsimdrsERKNS_5batchIjNS_8avx512bwEEES4_.exit.i510.i: ; preds = %for.body.i.i.i.i.i503.i
  %105 = shl nsw i64 %indvars.iv2628.i, 5
  %add.ptr118.i = getelementptr inbounds i32, ptr %out, i64 %105
  %106 = load <8 x i64>, ptr %self_buffer.i.i.i.i.i479.i, align 64
  call void @llvm.lifetime.end.p0(i64 64, ptr nonnull %self_buffer.i.i.i.i.i479.i)
  call void @llvm.lifetime.end.p0(i64 64, ptr nonnull %other_buffer.i.i.i.i.i480.i)
  %and.i.i.i.i.i511.i = and <8 x i64> %106, <i64 4393751544831, i64 4393751544831, i64 4393751544831, i64 4393751544831, i64 4393751544831, i64 4393751544831, i64 4393751544831, i64 4393751544831>
  store <8 x i64> %and.i.i.i.i.i511.i, ptr %add.ptr118.i, align 1
  %add.ptr64.i.i = getelementptr inbounds i32, ptr %in.addr.102437.i, i64 5
  %ret.0.copyload.i65.i512.i = load i32, ptr %add.ptr64.i.i, align 4
  %add.ptr73.i.i = getelementptr inbounds i32, ptr %in.addr.102437.i, i64 6
  %ret.0.copyload.i69.i.i = load i32, ptr %add.ptr73.i.i, align 4
  %or76.i.i = tail call i32 @llvm.fshl.i32(i32 %ret.0.copyload.i69.i.i, i32 %ret.0.copyload.i65.i512.i, i32 2)
  %add.ptr84.i.i = getelementptr inbounds i32, ptr %in.addr.102437.i, i64 7
  %ret.0.copyload.i73.i.i = load i32, ptr %add.ptr84.i.i, align 4
  %or87.i.i = tail call i32 @llvm.fshl.i32(i32 %ret.0.copyload.i73.i.i, i32 %ret.0.copyload.i69.i.i, i32 4)
  %add.ptr95.i513.i = getelementptr inbounds i32, ptr %in.addr.102437.i, i64 8
  %ret.0.copyload.i77.i.i = load i32, ptr %add.ptr95.i513.i, align 4
  %or98.i.i = tail call i32 @llvm.fshl.i32(i32 %ret.0.copyload.i77.i.i, i32 %ret.0.copyload.i73.i.i, i32 6)
  %add.ptr106.i514.i = getelementptr inbounds i32, ptr %in.addr.102437.i, i64 9
  %ret.0.copyload.i81.i515.i = load i32, ptr %add.ptr106.i514.i, align 4
  %or109.i516.i = tail call i32 @llvm.fshl.i32(i32 %ret.0.copyload.i81.i515.i, i32 %ret.0.copyload.i77.i.i, i32 8)
  %vecinit.i.i.i85.i517.i = insertelement <16 x i32> undef, i32 %ret.0.copyload.i65.i512.i, i64 0
  %vecinit1.i.i.i86.i518.i = insertelement <16 x i32> %vecinit.i.i.i85.i517.i, i32 %ret.0.copyload.i65.i512.i, i64 1
  %vecinit2.i.i.i87.i519.i = insertelement <16 x i32> %vecinit1.i.i.i86.i518.i, i32 %ret.0.copyload.i65.i512.i, i64 2
  %vecinit3.i.i.i88.i520.i = insertelement <16 x i32> %vecinit2.i.i.i87.i519.i, i32 %or76.i.i, i64 3
  %vecinit4.i.i.i89.i521.i = insertelement <16 x i32> %vecinit3.i.i.i88.i520.i, i32 %ret.0.copyload.i69.i.i, i64 4
  %vecinit5.i.i.i90.i522.i = insertelement <16 x i32> %vecinit4.i.i.i89.i521.i, i32 %ret.0.copyload.i69.i.i, i64 5
  %vecinit6.i.i.i91.i523.i = insertelement <16 x i32> %vecinit5.i.i.i90.i522.i, i32 %or87.i.i, i64 6
  %vecinit7.i.i.i92.i524.i = insertelement <16 x i32> %vecinit6.i.i.i91.i523.i, i32 %ret.0.copyload.i73.i.i, i64 7
  %vecinit8.i.i.i93.i525.i = insertelement <16 x i32> %vecinit7.i.i.i92.i524.i, i32 %ret.0.copyload.i73.i.i, i64 8
  %vecinit9.i.i.i94.i526.i = insertelement <16 x i32> %vecinit8.i.i.i93.i525.i, i32 %or98.i.i, i64 9
  %vecinit10.i.i.i95.i527.i = insertelement <16 x i32> %vecinit9.i.i.i94.i526.i, i32 %ret.0.copyload.i77.i.i, i64 10
  %vecinit11.i.i.i96.i528.i = insertelement <16 x i32> %vecinit10.i.i.i95.i527.i, i32 %ret.0.copyload.i77.i.i, i64 11
  %vecinit12.i.i.i97.i529.i = insertelement <16 x i32> %vecinit11.i.i.i96.i528.i, i32 %or109.i516.i, i64 12
  %vecinit13.i.i.i98.i530.i = insertelement <16 x i32> %vecinit12.i.i.i97.i529.i, i32 %ret.0.copyload.i81.i515.i, i64 13
  %vecinit14.i.i.i99.i531.i = insertelement <16 x i32> %vecinit13.i.i.i98.i530.i, i32 %ret.0.copyload.i81.i515.i, i64 14
  %vecinit15.i.i.i100.i532.i = insertelement <16 x i32> %vecinit14.i.i.i99.i531.i, i32 %ret.0.copyload.i81.i515.i, i64 15
  call void @llvm.lifetime.start.p0(i64 64, ptr nonnull %self_buffer.i.i.i.i101.i477.i)
  call void @llvm.lifetime.start.p0(i64 64, ptr nonnull %other_buffer.i.i.i.i102.i478.i)
  store <16 x i32> %vecinit15.i.i.i100.i532.i, ptr %self_buffer.i.i.i.i101.i477.i, align 64
  store <8 x i64> <i64 42949672960, i64 20, i64 77309411336, i64 25769803776, i64 16, i64 60129542148, i64 8589934592, i64 94489280524>, ptr %other_buffer.i.i.i.i102.i478.i, align 64
  br label %for.body.i.i.i.i104.i533.i

for.body.i.i.i.i104.i533.i:                       ; preds = %for.body.i.i.i.i104.i533.i, %_ZN5xsimdrsERKNS_5batchIjNS_8avx512bwEEES4_.exit.i510.i
  %i.05.i.i.i.i105.i534.i = phi i64 [ 0, %_ZN5xsimdrsERKNS_5batchIjNS_8avx512bwEEES4_.exit.i510.i ], [ %inc.i.i.i.i109.i538.i, %for.body.i.i.i.i104.i533.i ]
  %arrayidx2.i.i.i.i106.i535.i = getelementptr inbounds [16 x i32], ptr %self_buffer.i.i.i.i101.i477.i, i64 0, i64 %i.05.i.i.i.i105.i534.i
  %107 = load i32, ptr %arrayidx2.i.i.i.i106.i535.i, align 4
  %arrayidx3.i.i.i.i107.i536.i = getelementptr inbounds [16 x i32], ptr %other_buffer.i.i.i.i102.i478.i, i64 0, i64 %i.05.i.i.i.i105.i534.i
  %108 = load i32, ptr %arrayidx3.i.i.i.i107.i536.i, align 4
  %shr.i.i.i.i.i108.i537.i = lshr i32 %107, %108
  store i32 %shr.i.i.i.i.i108.i537.i, ptr %arrayidx2.i.i.i.i106.i535.i, align 4
  %inc.i.i.i.i109.i538.i = add nuw nsw i64 %i.05.i.i.i.i105.i534.i, 1
  %exitcond.not.i.i.i.i110.i539.i = icmp eq i64 %inc.i.i.i.i109.i538.i, 16
  br i1 %exitcond.not.i.i.i.i110.i539.i, label %_ZN5arrow8internal12_GLOBAL__N_113UnpackBits512ILNS0_13DispatchLevelE3EE11unpack10_32EPKjPj.exit.i, label %for.body.i.i.i.i104.i533.i, !llvm.loop !4

_ZN5arrow8internal12_GLOBAL__N_113UnpackBits512ILNS0_13DispatchLevelE3EE11unpack10_32EPKjPj.exit.i: ; preds = %for.body.i.i.i.i104.i533.i
  %add.ptr62.i540.i = getelementptr inbounds i32, ptr %add.ptr118.i, i64 16
  %109 = load <8 x i64>, ptr %self_buffer.i.i.i.i101.i477.i, align 64
  call void @llvm.lifetime.end.p0(i64 64, ptr nonnull %self_buffer.i.i.i.i101.i477.i)
  call void @llvm.lifetime.end.p0(i64 64, ptr nonnull %other_buffer.i.i.i.i102.i478.i)
  %and.i.i.i.i113.i541.i = and <8 x i64> %109, <i64 4393751544831, i64 4393751544831, i64 4393751544831, i64 4393751544831, i64 4393751544831, i64 4393751544831, i64 4393751544831, i64 4393751544831>
  store <8 x i64> %and.i.i.i.i113.i541.i, ptr %add.ptr62.i540.i, align 1
  %add.ptr132.i542.i = getelementptr inbounds i32, ptr %in.addr.102437.i, i64 10
  %indvars.iv.next2629.i = add nuw nsw i64 %indvars.iv2628.i, 1
  %exitcond2633.not.i = icmp eq i64 %indvars.iv.next2629.i, %wide.trip.count2632.i
  br i1 %exitcond2633.not.i, label %_ZN5arrow8internalL20unpack32_specializedINS0_12_GLOBAL__N_113UnpackBits512ILNS0_13DispatchLevelE3EEEEEiPKjPjii.exit, label %for.body115.i, !llvm.loop !15

for.body127.i:                                    ; preds = %_ZN5arrow8internal12_GLOBAL__N_113UnpackBits512ILNS0_13DispatchLevelE3EE11unpack11_32EPKjPj.exit.i, %for.body127.preheader.i
  %indvars.iv2622.i = phi i64 [ 0, %for.body127.preheader.i ], [ %indvars.iv.next2623.i, %_ZN5arrow8internal12_GLOBAL__N_113UnpackBits512ILNS0_13DispatchLevelE3EE11unpack11_32EPKjPj.exit.i ]
  %in.addr.112434.i = phi ptr [ %in, %for.body127.preheader.i ], [ %add.ptr142.i.i, %_ZN5arrow8internal12_GLOBAL__N_113UnpackBits512ILNS0_13DispatchLevelE3EE11unpack11_32EPKjPj.exit.i ]
  %ret.0.copyload.i.i545.i = load i32, ptr %in.addr.112434.i, align 4
  %add.ptr5.i.i = getelementptr inbounds i32, ptr %in.addr.112434.i, i64 1
  %ret.0.copyload.i49.i546.i = load i32, ptr %add.ptr5.i.i, align 4
  %or.i547.i = tail call i32 @llvm.fshl.i32(i32 %ret.0.copyload.i49.i546.i, i32 %ret.0.copyload.i.i545.i, i32 10)
  %add.ptr14.i.i = getelementptr inbounds i32, ptr %in.addr.112434.i, i64 2
  %ret.0.copyload.i53.i548.i = load i32, ptr %add.ptr14.i.i, align 4
  %or17.i.i = tail call i32 @llvm.fshl.i32(i32 %ret.0.copyload.i53.i548.i, i32 %ret.0.copyload.i49.i546.i, i32 9)
  %add.ptr25.i.i = getelementptr inbounds i32, ptr %in.addr.112434.i, i64 3
  %ret.0.copyload.i57.i549.i = load i32, ptr %add.ptr25.i.i, align 4
  %or28.i.i = tail call i32 @llvm.fshl.i32(i32 %ret.0.copyload.i57.i549.i, i32 %ret.0.copyload.i53.i548.i, i32 8)
  %add.ptr36.i.i = getelementptr inbounds i32, ptr %in.addr.112434.i, i64 4
  %ret.0.copyload.i61.i550.i = load i32, ptr %add.ptr36.i.i, align 4
  %or39.i.i = tail call i32 @llvm.fshl.i32(i32 %ret.0.copyload.i61.i550.i, i32 %ret.0.copyload.i57.i549.i, i32 7)
  %add.ptr47.i551.i = getelementptr inbounds i32, ptr %in.addr.112434.i, i64 5
  %ret.0.copyload.i65.i552.i = load i32, ptr %add.ptr47.i551.i, align 4
  %or50.i.i = tail call i32 @llvm.fshl.i32(i32 %ret.0.copyload.i65.i552.i, i32 %ret.0.copyload.i61.i550.i, i32 6)
  %vecinit.i.i.i.i553.i = insertelement <16 x i32> undef, i32 %ret.0.copyload.i.i545.i, i64 0
  %vecinit1.i.i.i.i554.i = insertelement <16 x i32> %vecinit.i.i.i.i553.i, i32 %ret.0.copyload.i.i545.i, i64 1
  %vecinit2.i.i.i.i555.i = insertelement <16 x i32> %vecinit1.i.i.i.i554.i, i32 %or.i547.i, i64 2
  %vecinit3.i.i.i.i556.i = insertelement <16 x i32> %vecinit2.i.i.i.i555.i, i32 %ret.0.copyload.i49.i546.i, i64 3
  %vecinit4.i.i.i.i557.i = insertelement <16 x i32> %vecinit3.i.i.i.i556.i, i32 %ret.0.copyload.i49.i546.i, i64 4
  %vecinit5.i.i.i.i558.i = insertelement <16 x i32> %vecinit4.i.i.i.i557.i, i32 %or17.i.i, i64 5
  %vecinit6.i.i.i.i559.i = insertelement <16 x i32> %vecinit5.i.i.i.i558.i, i32 %ret.0.copyload.i53.i548.i, i64 6
  %vecinit7.i.i.i.i560.i = insertelement <16 x i32> %vecinit6.i.i.i.i559.i, i32 %ret.0.copyload.i53.i548.i, i64 7
  %vecinit8.i.i.i.i561.i = insertelement <16 x i32> %vecinit7.i.i.i.i560.i, i32 %or28.i.i, i64 8
  %vecinit9.i.i.i.i562.i = insertelement <16 x i32> %vecinit8.i.i.i.i561.i, i32 %ret.0.copyload.i57.i549.i, i64 9
  %vecinit10.i.i.i.i563.i = insertelement <16 x i32> %vecinit9.i.i.i.i562.i, i32 %ret.0.copyload.i57.i549.i, i64 10
  %vecinit11.i.i.i.i564.i = insertelement <16 x i32> %vecinit10.i.i.i.i563.i, i32 %or39.i.i, i64 11
  %vecinit12.i.i.i.i565.i = insertelement <16 x i32> %vecinit11.i.i.i.i564.i, i32 %ret.0.copyload.i61.i550.i, i64 12
  %vecinit13.i.i.i.i566.i = insertelement <16 x i32> %vecinit12.i.i.i.i565.i, i32 %ret.0.copyload.i61.i550.i, i64 13
  %vecinit14.i.i.i.i567.i = insertelement <16 x i32> %vecinit13.i.i.i.i566.i, i32 %or50.i.i, i64 14
  %vecinit15.i.i.i.i568.i = insertelement <16 x i32> %vecinit14.i.i.i.i567.i, i32 %ret.0.copyload.i65.i552.i, i64 15
  call void @llvm.lifetime.start.p0(i64 64, ptr nonnull %self_buffer.i.i.i.i.i543.i)
  call void @llvm.lifetime.start.p0(i64 64, ptr nonnull %other_buffer.i.i.i.i.i544.i)
  store <16 x i32> %vecinit15.i.i.i.i568.i, ptr %self_buffer.i.i.i.i.i543.i, align 64
  store <8 x i64> <i64 47244640256, i64 4294967296, i64 12, i64 55834574850, i64 12884901888, i64 14, i64 64424509444, i64 21474836480>, ptr %other_buffer.i.i.i.i.i544.i, align 64
  br label %for.body.i.i.i.i.i569.i

for.body.i.i.i.i.i569.i:                          ; preds = %for.body.i.i.i.i.i569.i, %for.body127.i
  %i.05.i.i.i.i.i570.i = phi i64 [ 0, %for.body127.i ], [ %inc.i.i.i.i.i574.i, %for.body.i.i.i.i.i569.i ]
  %arrayidx2.i.i.i.i.i571.i = getelementptr inbounds [16 x i32], ptr %self_buffer.i.i.i.i.i543.i, i64 0, i64 %i.05.i.i.i.i.i570.i
  %110 = load i32, ptr %arrayidx2.i.i.i.i.i571.i, align 4
  %arrayidx3.i.i.i.i.i572.i = getelementptr inbounds [16 x i32], ptr %other_buffer.i.i.i.i.i544.i, i64 0, i64 %i.05.i.i.i.i.i570.i
  %111 = load i32, ptr %arrayidx3.i.i.i.i.i572.i, align 4
  %shr.i.i.i.i.i.i573.i = lshr i32 %110, %111
  store i32 %shr.i.i.i.i.i.i573.i, ptr %arrayidx2.i.i.i.i.i571.i, align 4
  %inc.i.i.i.i.i574.i = add nuw nsw i64 %i.05.i.i.i.i.i570.i, 1
  %exitcond.not.i.i.i.i.i575.i = icmp eq i64 %inc.i.i.i.i.i574.i, 16
  br i1 %exitcond.not.i.i.i.i.i575.i, label %_ZN5xsimdrsERKNS_5batchIjNS_8avx512bwEEES4_.exit.i576.i, label %for.body.i.i.i.i.i569.i, !llvm.loop !4

_ZN5xsimdrsERKNS_5batchIjNS_8avx512bwEEES4_.exit.i576.i: ; preds = %for.body.i.i.i.i.i569.i
  %112 = shl nsw i64 %indvars.iv2622.i, 5
  %add.ptr130.i = getelementptr inbounds i32, ptr %out, i64 %112
  %113 = load <8 x i64>, ptr %self_buffer.i.i.i.i.i543.i, align 64
  call void @llvm.lifetime.end.p0(i64 64, ptr nonnull %self_buffer.i.i.i.i.i543.i)
  call void @llvm.lifetime.end.p0(i64 64, ptr nonnull %other_buffer.i.i.i.i.i544.i)
  %and.i.i.i.i.i577.i = and <8 x i64> %113, <i64 8791798056959, i64 8791798056959, i64 8791798056959, i64 8791798056959, i64 8791798056959, i64 8791798056959, i64 8791798056959, i64 8791798056959>
  store <8 x i64> %and.i.i.i.i.i577.i, ptr %add.ptr130.i, align 1
  %ret.0.copyload.i68.i.i = load i32, ptr %add.ptr47.i551.i, align 4
  %add.ptr74.i.i = getelementptr inbounds i32, ptr %in.addr.112434.i, i64 6
  %ret.0.copyload.i70.i578.i = load i32, ptr %add.ptr74.i.i, align 4
  %or77.i.i = tail call i32 @llvm.fshl.i32(i32 %ret.0.copyload.i70.i578.i, i32 %ret.0.copyload.i68.i.i, i32 5)
  %add.ptr85.i.i = getelementptr inbounds i32, ptr %in.addr.112434.i, i64 7
  %ret.0.copyload.i74.i.i = load i32, ptr %add.ptr85.i.i, align 4
  %or88.i.i = tail call i32 @llvm.fshl.i32(i32 %ret.0.copyload.i74.i.i, i32 %ret.0.copyload.i70.i578.i, i32 4)
  %add.ptr96.i.i = getelementptr inbounds i32, ptr %in.addr.112434.i, i64 8
  %ret.0.copyload.i78.i.i = load i32, ptr %add.ptr96.i.i, align 4
  %or99.i.i = tail call i32 @llvm.fshl.i32(i32 %ret.0.copyload.i78.i.i, i32 %ret.0.copyload.i74.i.i, i32 3)
  %add.ptr107.i.i = getelementptr inbounds i32, ptr %in.addr.112434.i, i64 9
  %ret.0.copyload.i82.i.i = load i32, ptr %add.ptr107.i.i, align 4
  %or110.i.i = tail call i32 @llvm.fshl.i32(i32 %ret.0.copyload.i82.i.i, i32 %ret.0.copyload.i78.i.i, i32 2)
  %add.ptr118.i.i = getelementptr inbounds i32, ptr %in.addr.112434.i, i64 10
  %ret.0.copyload.i86.i.i = load i32, ptr %add.ptr118.i.i, align 4
  %or121.i.i = tail call i32 @llvm.fshl.i32(i32 %ret.0.copyload.i86.i.i, i32 %ret.0.copyload.i82.i.i, i32 1)
  %vecinit.i.i.i89.i.i = insertelement <16 x i32> undef, i32 %ret.0.copyload.i68.i.i, i64 0
  %vecinit1.i.i.i90.i.i = insertelement <16 x i32> %vecinit.i.i.i89.i.i, i32 %or77.i.i, i64 1
  %vecinit2.i.i.i91.i.i = insertelement <16 x i32> %vecinit1.i.i.i90.i.i, i32 %ret.0.copyload.i70.i578.i, i64 2
  %vecinit3.i.i.i92.i.i = insertelement <16 x i32> %vecinit2.i.i.i91.i.i, i32 %ret.0.copyload.i70.i578.i, i64 3
  %vecinit4.i.i.i93.i.i = insertelement <16 x i32> %vecinit3.i.i.i92.i.i, i32 %or88.i.i, i64 4
  %vecinit5.i.i.i94.i.i = insertelement <16 x i32> %vecinit4.i.i.i93.i.i, i32 %ret.0.copyload.i74.i.i, i64 5
  %vecinit6.i.i.i95.i.i = insertelement <16 x i32> %vecinit5.i.i.i94.i.i, i32 %ret.0.copyload.i74.i.i, i64 6
  %vecinit7.i.i.i96.i.i = insertelement <16 x i32> %vecinit6.i.i.i95.i.i, i32 %or99.i.i, i64 7
  %vecinit8.i.i.i97.i.i = insertelement <16 x i32> %vecinit7.i.i.i96.i.i, i32 %ret.0.copyload.i78.i.i, i64 8
  %vecinit9.i.i.i98.i.i = insertelement <16 x i32> %vecinit8.i.i.i97.i.i, i32 %ret.0.copyload.i78.i.i, i64 9
  %vecinit10.i.i.i99.i.i = insertelement <16 x i32> %vecinit9.i.i.i98.i.i, i32 %or110.i.i, i64 10
  %vecinit11.i.i.i100.i.i = insertelement <16 x i32> %vecinit10.i.i.i99.i.i, i32 %ret.0.copyload.i82.i.i, i64 11
  %vecinit12.i.i.i101.i.i = insertelement <16 x i32> %vecinit11.i.i.i100.i.i, i32 %ret.0.copyload.i82.i.i, i64 12
  %vecinit13.i.i.i102.i.i = insertelement <16 x i32> %vecinit12.i.i.i101.i.i, i32 %or121.i.i, i64 13
  %vecinit14.i.i.i103.i.i = insertelement <16 x i32> %vecinit13.i.i.i102.i.i, i32 %ret.0.copyload.i86.i.i, i64 14
  %vecinit15.i.i.i104.i.i = insertelement <16 x i32> %vecinit14.i.i.i103.i.i, i32 %ret.0.copyload.i86.i.i, i64 15
  call void @llvm.lifetime.start.p0(i64 64, ptr nonnull %self_buffer.i.i.i.i105.i.i)
  call void @llvm.lifetime.start.p0(i64 64, ptr nonnull %other_buffer.i.i.i.i106.i.i)
  store <16 x i32> %vecinit15.i.i.i104.i.i, ptr %self_buffer.i.i.i.i105.i.i, align 64
  store <8 x i64> <i64 16, i64 73014444038, i64 30064771072, i64 18, i64 81604378632, i64 38654705664, i64 20, i64 90194313226>, ptr %other_buffer.i.i.i.i106.i.i, align 64
  br label %for.body.i.i.i.i108.i.i

for.body.i.i.i.i108.i.i:                          ; preds = %for.body.i.i.i.i108.i.i, %_ZN5xsimdrsERKNS_5batchIjNS_8avx512bwEEES4_.exit.i576.i
  %i.05.i.i.i.i109.i.i = phi i64 [ 0, %_ZN5xsimdrsERKNS_5batchIjNS_8avx512bwEEES4_.exit.i576.i ], [ %inc.i.i.i.i113.i.i, %for.body.i.i.i.i108.i.i ]
  %arrayidx2.i.i.i.i110.i.i = getelementptr inbounds [16 x i32], ptr %self_buffer.i.i.i.i105.i.i, i64 0, i64 %i.05.i.i.i.i109.i.i
  %114 = load i32, ptr %arrayidx2.i.i.i.i110.i.i, align 4
  %arrayidx3.i.i.i.i111.i.i = getelementptr inbounds [16 x i32], ptr %other_buffer.i.i.i.i106.i.i, i64 0, i64 %i.05.i.i.i.i109.i.i
  %115 = load i32, ptr %arrayidx3.i.i.i.i111.i.i, align 4
  %shr.i.i.i.i.i112.i.i = lshr i32 %114, %115
  store i32 %shr.i.i.i.i.i112.i.i, ptr %arrayidx2.i.i.i.i110.i.i, align 4
  %inc.i.i.i.i113.i.i = add nuw nsw i64 %i.05.i.i.i.i109.i.i, 1
  %exitcond.not.i.i.i.i114.i.i = icmp eq i64 %inc.i.i.i.i113.i.i, 16
  br i1 %exitcond.not.i.i.i.i114.i.i, label %_ZN5arrow8internal12_GLOBAL__N_113UnpackBits512ILNS0_13DispatchLevelE3EE11unpack11_32EPKjPj.exit.i, label %for.body.i.i.i.i108.i.i, !llvm.loop !4

_ZN5arrow8internal12_GLOBAL__N_113UnpackBits512ILNS0_13DispatchLevelE3EE11unpack11_32EPKjPj.exit.i: ; preds = %for.body.i.i.i.i108.i.i
  %add.ptr67.i579.i = getelementptr inbounds i32, ptr %add.ptr130.i, i64 16
  %116 = load <8 x i64>, ptr %self_buffer.i.i.i.i105.i.i, align 64
  call void @llvm.lifetime.end.p0(i64 64, ptr nonnull %self_buffer.i.i.i.i105.i.i)
  call void @llvm.lifetime.end.p0(i64 64, ptr nonnull %other_buffer.i.i.i.i106.i.i)
  %and.i.i.i.i117.i.i = and <8 x i64> %116, <i64 8791798056959, i64 8791798056959, i64 8791798056959, i64 8791798056959, i64 8791798056959, i64 8791798056959, i64 8791798056959, i64 8791798056959>
  store <8 x i64> %and.i.i.i.i117.i.i, ptr %add.ptr67.i579.i, align 1
  %add.ptr142.i.i = getelementptr inbounds i32, ptr %in.addr.112434.i, i64 11
  %indvars.iv.next2623.i = add nuw nsw i64 %indvars.iv2622.i, 1
  %exitcond2627.not.i = icmp eq i64 %indvars.iv.next2623.i, %wide.trip.count2626.i
  br i1 %exitcond2627.not.i, label %_ZN5arrow8internalL20unpack32_specializedINS0_12_GLOBAL__N_113UnpackBits512ILNS0_13DispatchLevelE3EEEEEiPKjPjii.exit, label %for.body127.i, !llvm.loop !16

for.body139.i:                                    ; preds = %_ZN5arrow8internal12_GLOBAL__N_113UnpackBits512ILNS0_13DispatchLevelE3EE11unpack12_32EPKjPj.exit.i, %for.body139.preheader.i
  %indvars.iv2616.i = phi i64 [ 0, %for.body139.preheader.i ], [ %indvars.iv.next2617.i, %_ZN5arrow8internal12_GLOBAL__N_113UnpackBits512ILNS0_13DispatchLevelE3EE11unpack12_32EPKjPj.exit.i ]
  %in.addr.122431.i = phi ptr [ %in, %for.body139.preheader.i ], [ %add.ptr132.i655.i, %_ZN5arrow8internal12_GLOBAL__N_113UnpackBits512ILNS0_13DispatchLevelE3EE11unpack12_32EPKjPj.exit.i ]
  %ret.0.copyload.i.i584.i = load i32, ptr %in.addr.122431.i, align 4
  %add.ptr5.i585.i = getelementptr inbounds i32, ptr %in.addr.122431.i, i64 1
  %ret.0.copyload.i47.i586.i = load i32, ptr %add.ptr5.i585.i, align 4
  %or.i587.i = tail call i32 @llvm.fshl.i32(i32 %ret.0.copyload.i47.i586.i, i32 %ret.0.copyload.i.i584.i, i32 8)
  %add.ptr14.i588.i = getelementptr inbounds i32, ptr %in.addr.122431.i, i64 2
  %ret.0.copyload.i51.i.i = load i32, ptr %add.ptr14.i588.i, align 4
  %or17.i589.i = tail call i32 @llvm.fshl.i32(i32 %ret.0.copyload.i51.i.i, i32 %ret.0.copyload.i47.i586.i, i32 4)
  %add.ptr22.i590.i = getelementptr inbounds i32, ptr %in.addr.122431.i, i64 3
  %ret.0.copyload.i54.i591.i = load i32, ptr %add.ptr22.i590.i, align 4
  %add.ptr29.i592.i = getelementptr inbounds i32, ptr %in.addr.122431.i, i64 4
  %ret.0.copyload.i57.i593.i = load i32, ptr %add.ptr29.i592.i, align 4
  %or32.i594.i = tail call i32 @llvm.fshl.i32(i32 %ret.0.copyload.i57.i593.i, i32 %ret.0.copyload.i54.i591.i, i32 8)
  %add.ptr40.i.i = getelementptr inbounds i32, ptr %in.addr.122431.i, i64 5
  %ret.0.copyload.i61.i595.i = load i32, ptr %add.ptr40.i.i, align 4
  %or43.i.i = tail call i32 @llvm.fshl.i32(i32 %ret.0.copyload.i61.i595.i, i32 %ret.0.copyload.i57.i593.i, i32 4)
  %vecinit.i.i.i.i596.i = insertelement <16 x i32> undef, i32 %ret.0.copyload.i.i584.i, i64 0
  %vecinit1.i.i.i.i597.i = insertelement <16 x i32> %vecinit.i.i.i.i596.i, i32 %ret.0.copyload.i.i584.i, i64 1
  %vecinit2.i.i.i.i598.i = insertelement <16 x i32> %vecinit1.i.i.i.i597.i, i32 %or.i587.i, i64 2
  %vecinit3.i.i.i.i599.i = insertelement <16 x i32> %vecinit2.i.i.i.i598.i, i32 %ret.0.copyload.i47.i586.i, i64 3
  %vecinit4.i.i.i.i600.i = insertelement <16 x i32> %vecinit3.i.i.i.i599.i, i32 %ret.0.copyload.i47.i586.i, i64 4
  %vecinit5.i.i.i.i601.i = insertelement <16 x i32> %vecinit4.i.i.i.i600.i, i32 %or17.i589.i, i64 5
  %vecinit6.i.i.i.i602.i = insertelement <16 x i32> %vecinit5.i.i.i.i601.i, i32 %ret.0.copyload.i51.i.i, i64 6
  %vecinit7.i.i.i.i603.i = insertelement <16 x i32> %vecinit6.i.i.i.i602.i, i32 %ret.0.copyload.i51.i.i, i64 7
  %vecinit8.i.i.i.i604.i = insertelement <16 x i32> %vecinit7.i.i.i.i603.i, i32 %ret.0.copyload.i54.i591.i, i64 8
  %vecinit9.i.i.i.i605.i = insertelement <16 x i32> %vecinit8.i.i.i.i604.i, i32 %ret.0.copyload.i54.i591.i, i64 9
  %vecinit10.i.i.i.i606.i = insertelement <16 x i32> %vecinit9.i.i.i.i605.i, i32 %or32.i594.i, i64 10
  %vecinit11.i.i.i.i607.i = insertelement <16 x i32> %vecinit10.i.i.i.i606.i, i32 %ret.0.copyload.i57.i593.i, i64 11
  %vecinit12.i.i.i.i608.i = insertelement <16 x i32> %vecinit11.i.i.i.i607.i, i32 %ret.0.copyload.i57.i593.i, i64 12
  %vecinit13.i.i.i.i609.i = insertelement <16 x i32> %vecinit12.i.i.i.i608.i, i32 %or43.i.i, i64 13
  %vecinit14.i.i.i.i610.i = insertelement <16 x i32> %vecinit13.i.i.i.i609.i, i32 %ret.0.copyload.i61.i595.i, i64 14
  %vecinit15.i.i.i.i611.i = insertelement <16 x i32> %vecinit14.i.i.i.i610.i, i32 %ret.0.copyload.i61.i595.i, i64 15
  call void @llvm.lifetime.start.p0(i64 64, ptr nonnull %self_buffer.i.i.i.i.i582.i)
  call void @llvm.lifetime.start.p0(i64 64, ptr nonnull %other_buffer.i.i.i.i.i583.i)
  store <16 x i32> %vecinit15.i.i.i.i611.i, ptr %self_buffer.i.i.i.i.i582.i, align 64
  store <8 x i64> <i64 51539607552, i64 17179869184, i64 16, i64 85899345928, i64 51539607552, i64 17179869184, i64 16, i64 85899345928>, ptr %other_buffer.i.i.i.i.i583.i, align 64
  br label %for.body.i.i.i.i.i612.i

for.body.i.i.i.i.i612.i:                          ; preds = %for.body.i.i.i.i.i612.i, %for.body139.i
  %i.05.i.i.i.i.i613.i = phi i64 [ 0, %for.body139.i ], [ %inc.i.i.i.i.i617.i, %for.body.i.i.i.i.i612.i ]
  %arrayidx2.i.i.i.i.i614.i = getelementptr inbounds [16 x i32], ptr %self_buffer.i.i.i.i.i582.i, i64 0, i64 %i.05.i.i.i.i.i613.i
  %117 = load i32, ptr %arrayidx2.i.i.i.i.i614.i, align 4
  %arrayidx3.i.i.i.i.i615.i = getelementptr inbounds [16 x i32], ptr %other_buffer.i.i.i.i.i583.i, i64 0, i64 %i.05.i.i.i.i.i613.i
  %118 = load i32, ptr %arrayidx3.i.i.i.i.i615.i, align 4
  %shr.i.i.i.i.i.i616.i = lshr i32 %117, %118
  store i32 %shr.i.i.i.i.i.i616.i, ptr %arrayidx2.i.i.i.i.i614.i, align 4
  %inc.i.i.i.i.i617.i = add nuw nsw i64 %i.05.i.i.i.i.i613.i, 1
  %exitcond.not.i.i.i.i.i618.i = icmp eq i64 %inc.i.i.i.i.i617.i, 16
  br i1 %exitcond.not.i.i.i.i.i618.i, label %_ZN5xsimdrsERKNS_5batchIjNS_8avx512bwEEES4_.exit.i619.i, label %for.body.i.i.i.i.i612.i, !llvm.loop !4

_ZN5xsimdrsERKNS_5batchIjNS_8avx512bwEEES4_.exit.i619.i: ; preds = %for.body.i.i.i.i.i612.i
  %119 = shl nsw i64 %indvars.iv2616.i, 5
  %add.ptr142.i = getelementptr inbounds i32, ptr %out, i64 %119
  %120 = load <8 x i64>, ptr %self_buffer.i.i.i.i.i582.i, align 64
  call void @llvm.lifetime.end.p0(i64 64, ptr nonnull %self_buffer.i.i.i.i.i582.i)
  call void @llvm.lifetime.end.p0(i64 64, ptr nonnull %other_buffer.i.i.i.i.i583.i)
  %and.i.i.i.i.i620.i = and <8 x i64> %120, <i64 17587891081215, i64 17587891081215, i64 17587891081215, i64 17587891081215, i64 17587891081215, i64 17587891081215, i64 17587891081215, i64 17587891081215>
  store <8 x i64> %and.i.i.i.i.i620.i, ptr %add.ptr142.i, align 1
  %add.ptr64.i621.i = getelementptr inbounds i32, ptr %in.addr.122431.i, i64 6
  %ret.0.copyload.i65.i622.i = load i32, ptr %add.ptr64.i621.i, align 4
  %add.ptr71.i623.i = getelementptr inbounds i32, ptr %in.addr.122431.i, i64 7
  %ret.0.copyload.i68.i624.i = load i32, ptr %add.ptr71.i623.i, align 4
  %or74.i.i = tail call i32 @llvm.fshl.i32(i32 %ret.0.copyload.i68.i624.i, i32 %ret.0.copyload.i65.i622.i, i32 8)
  %add.ptr82.i625.i = getelementptr inbounds i32, ptr %in.addr.122431.i, i64 8
  %ret.0.copyload.i72.i626.i = load i32, ptr %add.ptr82.i625.i, align 4
  %or85.i627.i = tail call i32 @llvm.fshl.i32(i32 %ret.0.copyload.i72.i626.i, i32 %ret.0.copyload.i68.i624.i, i32 4)
  %add.ptr90.i.i = getelementptr inbounds i32, ptr %in.addr.122431.i, i64 9
  %ret.0.copyload.i75.i.i = load i32, ptr %add.ptr90.i.i, align 4
  %add.ptr97.i.i = getelementptr inbounds i32, ptr %in.addr.122431.i, i64 10
  %ret.0.copyload.i78.i628.i = load i32, ptr %add.ptr97.i.i, align 4
  %or100.i.i = tail call i32 @llvm.fshl.i32(i32 %ret.0.copyload.i78.i628.i, i32 %ret.0.copyload.i75.i.i, i32 8)
  %add.ptr108.i.i = getelementptr inbounds i32, ptr %in.addr.122431.i, i64 11
  %ret.0.copyload.i82.i629.i = load i32, ptr %add.ptr108.i.i, align 4
  %or111.i.i = tail call i32 @llvm.fshl.i32(i32 %ret.0.copyload.i82.i629.i, i32 %ret.0.copyload.i78.i628.i, i32 4)
  %vecinit.i.i.i85.i630.i = insertelement <16 x i32> undef, i32 %ret.0.copyload.i65.i622.i, i64 0
  %vecinit1.i.i.i86.i631.i = insertelement <16 x i32> %vecinit.i.i.i85.i630.i, i32 %ret.0.copyload.i65.i622.i, i64 1
  %vecinit2.i.i.i87.i632.i = insertelement <16 x i32> %vecinit1.i.i.i86.i631.i, i32 %or74.i.i, i64 2
  %vecinit3.i.i.i88.i633.i = insertelement <16 x i32> %vecinit2.i.i.i87.i632.i, i32 %ret.0.copyload.i68.i624.i, i64 3
  %vecinit4.i.i.i89.i634.i = insertelement <16 x i32> %vecinit3.i.i.i88.i633.i, i32 %ret.0.copyload.i68.i624.i, i64 4
  %vecinit5.i.i.i90.i635.i = insertelement <16 x i32> %vecinit4.i.i.i89.i634.i, i32 %or85.i627.i, i64 5
  %vecinit6.i.i.i91.i636.i = insertelement <16 x i32> %vecinit5.i.i.i90.i635.i, i32 %ret.0.copyload.i72.i626.i, i64 6
  %vecinit7.i.i.i92.i637.i = insertelement <16 x i32> %vecinit6.i.i.i91.i636.i, i32 %ret.0.copyload.i72.i626.i, i64 7
  %vecinit8.i.i.i93.i638.i = insertelement <16 x i32> %vecinit7.i.i.i92.i637.i, i32 %ret.0.copyload.i75.i.i, i64 8
  %vecinit9.i.i.i94.i639.i = insertelement <16 x i32> %vecinit8.i.i.i93.i638.i, i32 %ret.0.copyload.i75.i.i, i64 9
  %vecinit10.i.i.i95.i640.i = insertelement <16 x i32> %vecinit9.i.i.i94.i639.i, i32 %or100.i.i, i64 10
  %vecinit11.i.i.i96.i641.i = insertelement <16 x i32> %vecinit10.i.i.i95.i640.i, i32 %ret.0.copyload.i78.i628.i, i64 11
  %vecinit12.i.i.i97.i642.i = insertelement <16 x i32> %vecinit11.i.i.i96.i641.i, i32 %ret.0.copyload.i78.i628.i, i64 12
  %vecinit13.i.i.i98.i643.i = insertelement <16 x i32> %vecinit12.i.i.i97.i642.i, i32 %or111.i.i, i64 13
  %vecinit14.i.i.i99.i644.i = insertelement <16 x i32> %vecinit13.i.i.i98.i643.i, i32 %ret.0.copyload.i82.i629.i, i64 14
  %vecinit15.i.i.i100.i645.i = insertelement <16 x i32> %vecinit14.i.i.i99.i644.i, i32 %ret.0.copyload.i82.i629.i, i64 15
  call void @llvm.lifetime.start.p0(i64 64, ptr nonnull %self_buffer.i.i.i.i101.i580.i)
  call void @llvm.lifetime.start.p0(i64 64, ptr nonnull %other_buffer.i.i.i.i102.i581.i)
  store <16 x i32> %vecinit15.i.i.i100.i645.i, ptr %self_buffer.i.i.i.i101.i580.i, align 64
  store <8 x i64> <i64 51539607552, i64 17179869184, i64 16, i64 85899345928, i64 51539607552, i64 17179869184, i64 16, i64 85899345928>, ptr %other_buffer.i.i.i.i102.i581.i, align 64
  br label %for.body.i.i.i.i104.i646.i

for.body.i.i.i.i104.i646.i:                       ; preds = %for.body.i.i.i.i104.i646.i, %_ZN5xsimdrsERKNS_5batchIjNS_8avx512bwEEES4_.exit.i619.i
  %i.05.i.i.i.i105.i647.i = phi i64 [ 0, %_ZN5xsimdrsERKNS_5batchIjNS_8avx512bwEEES4_.exit.i619.i ], [ %inc.i.i.i.i109.i651.i, %for.body.i.i.i.i104.i646.i ]
  %arrayidx2.i.i.i.i106.i648.i = getelementptr inbounds [16 x i32], ptr %self_buffer.i.i.i.i101.i580.i, i64 0, i64 %i.05.i.i.i.i105.i647.i
  %121 = load i32, ptr %arrayidx2.i.i.i.i106.i648.i, align 4
  %arrayidx3.i.i.i.i107.i649.i = getelementptr inbounds [16 x i32], ptr %other_buffer.i.i.i.i102.i581.i, i64 0, i64 %i.05.i.i.i.i105.i647.i
  %122 = load i32, ptr %arrayidx3.i.i.i.i107.i649.i, align 4
  %shr.i.i.i.i.i108.i650.i = lshr i32 %121, %122
  store i32 %shr.i.i.i.i.i108.i650.i, ptr %arrayidx2.i.i.i.i106.i648.i, align 4
  %inc.i.i.i.i109.i651.i = add nuw nsw i64 %i.05.i.i.i.i105.i647.i, 1
  %exitcond.not.i.i.i.i110.i652.i = icmp eq i64 %inc.i.i.i.i109.i651.i, 16
  br i1 %exitcond.not.i.i.i.i110.i652.i, label %_ZN5arrow8internal12_GLOBAL__N_113UnpackBits512ILNS0_13DispatchLevelE3EE11unpack12_32EPKjPj.exit.i, label %for.body.i.i.i.i104.i646.i, !llvm.loop !4

_ZN5arrow8internal12_GLOBAL__N_113UnpackBits512ILNS0_13DispatchLevelE3EE11unpack12_32EPKjPj.exit.i: ; preds = %for.body.i.i.i.i104.i646.i
  %add.ptr62.i653.i = getelementptr inbounds i32, ptr %add.ptr142.i, i64 16
  %123 = load <8 x i64>, ptr %self_buffer.i.i.i.i101.i580.i, align 64
  call void @llvm.lifetime.end.p0(i64 64, ptr nonnull %self_buffer.i.i.i.i101.i580.i)
  call void @llvm.lifetime.end.p0(i64 64, ptr nonnull %other_buffer.i.i.i.i102.i581.i)
  %and.i.i.i.i113.i654.i = and <8 x i64> %123, <i64 17587891081215, i64 17587891081215, i64 17587891081215, i64 17587891081215, i64 17587891081215, i64 17587891081215, i64 17587891081215, i64 17587891081215>
  store <8 x i64> %and.i.i.i.i113.i654.i, ptr %add.ptr62.i653.i, align 1
  %add.ptr132.i655.i = getelementptr inbounds i32, ptr %in.addr.122431.i, i64 12
  %indvars.iv.next2617.i = add nuw nsw i64 %indvars.iv2616.i, 1
  %exitcond2621.not.i = icmp eq i64 %indvars.iv.next2617.i, %wide.trip.count2620.i
  br i1 %exitcond2621.not.i, label %_ZN5arrow8internalL20unpack32_specializedINS0_12_GLOBAL__N_113UnpackBits512ILNS0_13DispatchLevelE3EEEEEiPKjPjii.exit, label %for.body139.i, !llvm.loop !17

for.body151.i:                                    ; preds = %_ZN5arrow8internal12_GLOBAL__N_113UnpackBits512ILNS0_13DispatchLevelE3EE11unpack13_32EPKjPj.exit.i, %for.body151.preheader.i
  %indvars.iv2610.i = phi i64 [ 0, %for.body151.preheader.i ], [ %indvars.iv.next2611.i, %_ZN5arrow8internal12_GLOBAL__N_113UnpackBits512ILNS0_13DispatchLevelE3EE11unpack13_32EPKjPj.exit.i ]
  %in.addr.132428.i = phi ptr [ %in, %for.body151.preheader.i ], [ %add.ptr152.i.i, %_ZN5arrow8internal12_GLOBAL__N_113UnpackBits512ILNS0_13DispatchLevelE3EE11unpack13_32EPKjPj.exit.i ]
  %ret.0.copyload.i.i658.i = load i32, ptr %in.addr.132428.i, align 4
  %add.ptr5.i659.i = getelementptr inbounds i32, ptr %in.addr.132428.i, i64 1
  %ret.0.copyload.i51.i660.i = load i32, ptr %add.ptr5.i659.i, align 4
  %or.i661.i = tail call i32 @llvm.fshl.i32(i32 %ret.0.copyload.i51.i660.i, i32 %ret.0.copyload.i.i658.i, i32 6)
  %add.ptr12.i.i = getelementptr inbounds i32, ptr %in.addr.132428.i, i64 2
  %ret.0.copyload.i54.i662.i = load i32, ptr %add.ptr12.i.i, align 4
  %or15.i.i = tail call i32 @llvm.fshl.i32(i32 %ret.0.copyload.i54.i662.i, i32 %ret.0.copyload.i51.i660.i, i32 12)
  %add.ptr23.i663.i = getelementptr inbounds i32, ptr %in.addr.132428.i, i64 3
  %ret.0.copyload.i58.i664.i = load i32, ptr %add.ptr23.i663.i, align 4
  %or26.i.i = tail call i32 @llvm.fshl.i32(i32 %ret.0.copyload.i58.i664.i, i32 %ret.0.copyload.i54.i662.i, i32 5)
  %add.ptr32.i.i = getelementptr inbounds i32, ptr %in.addr.132428.i, i64 4
  %ret.0.copyload.i61.i665.i = load i32, ptr %add.ptr32.i.i, align 4
  %or35.i.i = tail call i32 @llvm.fshl.i32(i32 %ret.0.copyload.i61.i665.i, i32 %ret.0.copyload.i58.i664.i, i32 11)
  %add.ptr43.i.i = getelementptr inbounds i32, ptr %in.addr.132428.i, i64 5
  %ret.0.copyload.i65.i666.i = load i32, ptr %add.ptr43.i.i, align 4
  %or46.i.i = tail call i32 @llvm.fshl.i32(i32 %ret.0.copyload.i65.i666.i, i32 %ret.0.copyload.i61.i665.i, i32 4)
  %add.ptr52.i667.i = getelementptr inbounds i32, ptr %in.addr.132428.i, i64 6
  %ret.0.copyload.i68.i668.i = load i32, ptr %add.ptr52.i667.i, align 4
  %or55.i.i = tail call i32 @llvm.fshl.i32(i32 %ret.0.copyload.i68.i668.i, i32 %ret.0.copyload.i65.i666.i, i32 10)
  %vecinit.i.i.i.i669.i = insertelement <16 x i32> undef, i32 %ret.0.copyload.i.i658.i, i64 0
  %vecinit1.i.i.i.i670.i = insertelement <16 x i32> %vecinit.i.i.i.i669.i, i32 %ret.0.copyload.i.i658.i, i64 1
  %vecinit2.i.i.i.i671.i = insertelement <16 x i32> %vecinit1.i.i.i.i670.i, i32 %or.i661.i, i64 2
  %vecinit3.i.i.i.i672.i = insertelement <16 x i32> %vecinit2.i.i.i.i671.i, i32 %ret.0.copyload.i51.i660.i, i64 3
  %vecinit4.i.i.i.i673.i = insertelement <16 x i32> %vecinit3.i.i.i.i672.i, i32 %or15.i.i, i64 4
  %vecinit5.i.i.i.i674.i = insertelement <16 x i32> %vecinit4.i.i.i.i673.i, i32 %ret.0.copyload.i54.i662.i, i64 5
  %vecinit6.i.i.i.i675.i = insertelement <16 x i32> %vecinit5.i.i.i.i674.i, i32 %ret.0.copyload.i54.i662.i, i64 6
  %vecinit7.i.i.i.i676.i = insertelement <16 x i32> %vecinit6.i.i.i.i675.i, i32 %or26.i.i, i64 7
  %vecinit8.i.i.i.i677.i = insertelement <16 x i32> %vecinit7.i.i.i.i676.i, i32 %ret.0.copyload.i58.i664.i, i64 8
  %vecinit9.i.i.i.i678.i = insertelement <16 x i32> %vecinit8.i.i.i.i677.i, i32 %or35.i.i, i64 9
  %vecinit10.i.i.i.i679.i = insertelement <16 x i32> %vecinit9.i.i.i.i678.i, i32 %ret.0.copyload.i61.i665.i, i64 10
  %vecinit11.i.i.i.i680.i = insertelement <16 x i32> %vecinit10.i.i.i.i679.i, i32 %ret.0.copyload.i61.i665.i, i64 11
  %vecinit12.i.i.i.i681.i = insertelement <16 x i32> %vecinit11.i.i.i.i680.i, i32 %or46.i.i, i64 12
  %vecinit13.i.i.i.i682.i = insertelement <16 x i32> %vecinit12.i.i.i.i681.i, i32 %ret.0.copyload.i65.i666.i, i64 13
  %vecinit14.i.i.i.i683.i = insertelement <16 x i32> %vecinit13.i.i.i.i682.i, i32 %or55.i.i, i64 14
  %vecinit15.i.i.i.i684.i = insertelement <16 x i32> %vecinit14.i.i.i.i683.i, i32 %ret.0.copyload.i68.i668.i, i64 15
  call void @llvm.lifetime.start.p0(i64 64, ptr nonnull %self_buffer.i.i.i.i.i656.i)
  call void @llvm.lifetime.start.p0(i64 64, ptr nonnull %other_buffer.i.i.i.i.i657.i)
  store <16 x i32> %vecinit15.i.i.i.i684.i, ptr %self_buffer.i.i.i.i.i656.i, align 64
  store <8 x i64> <i64 55834574848, i64 30064771072, i64 4294967296, i64 14, i64 8, i64 64424509442, i64 38654705664, i64 12884901888>, ptr %other_buffer.i.i.i.i.i657.i, align 64
  br label %for.body.i.i.i.i.i685.i

for.body.i.i.i.i.i685.i:                          ; preds = %for.body.i.i.i.i.i685.i, %for.body151.i
  %i.05.i.i.i.i.i686.i = phi i64 [ 0, %for.body151.i ], [ %inc.i.i.i.i.i690.i, %for.body.i.i.i.i.i685.i ]
  %arrayidx2.i.i.i.i.i687.i = getelementptr inbounds [16 x i32], ptr %self_buffer.i.i.i.i.i656.i, i64 0, i64 %i.05.i.i.i.i.i686.i
  %124 = load i32, ptr %arrayidx2.i.i.i.i.i687.i, align 4
  %arrayidx3.i.i.i.i.i688.i = getelementptr inbounds [16 x i32], ptr %other_buffer.i.i.i.i.i657.i, i64 0, i64 %i.05.i.i.i.i.i686.i
  %125 = load i32, ptr %arrayidx3.i.i.i.i.i688.i, align 4
  %shr.i.i.i.i.i.i689.i = lshr i32 %124, %125
  store i32 %shr.i.i.i.i.i.i689.i, ptr %arrayidx2.i.i.i.i.i687.i, align 4
  %inc.i.i.i.i.i690.i = add nuw nsw i64 %i.05.i.i.i.i.i686.i, 1
  %exitcond.not.i.i.i.i.i691.i = icmp eq i64 %inc.i.i.i.i.i690.i, 16
  br i1 %exitcond.not.i.i.i.i.i691.i, label %_ZN5xsimdrsERKNS_5batchIjNS_8avx512bwEEES4_.exit.i692.i, label %for.body.i.i.i.i.i685.i, !llvm.loop !4

_ZN5xsimdrsERKNS_5batchIjNS_8avx512bwEEES4_.exit.i692.i: ; preds = %for.body.i.i.i.i.i685.i
  %126 = shl nsw i64 %indvars.iv2610.i, 5
  %add.ptr154.i = getelementptr inbounds i32, ptr %out, i64 %126
  %127 = load <8 x i64>, ptr %self_buffer.i.i.i.i.i656.i, align 64
  call void @llvm.lifetime.end.p0(i64 64, ptr nonnull %self_buffer.i.i.i.i.i656.i)
  call void @llvm.lifetime.end.p0(i64 64, ptr nonnull %other_buffer.i.i.i.i.i657.i)
  %and.i.i.i.i.i693.i = and <8 x i64> %127, <i64 35180077129727, i64 35180077129727, i64 35180077129727, i64 35180077129727, i64 35180077129727, i64 35180077129727, i64 35180077129727, i64 35180077129727>
  store <8 x i64> %and.i.i.i.i.i693.i, ptr %add.ptr154.i, align 1
  %ret.0.copyload.i71.i694.i = load i32, ptr %add.ptr52.i667.i, align 4
  %add.ptr79.i695.i = getelementptr inbounds i32, ptr %in.addr.132428.i, i64 7
  %ret.0.copyload.i73.i696.i = load i32, ptr %add.ptr79.i695.i, align 4
  %or82.i697.i = tail call i32 @llvm.fshl.i32(i32 %ret.0.copyload.i73.i696.i, i32 %ret.0.copyload.i71.i694.i, i32 3)
  %add.ptr88.i.i = getelementptr inbounds i32, ptr %in.addr.132428.i, i64 8
  %ret.0.copyload.i76.i698.i = load i32, ptr %add.ptr88.i.i, align 4
  %or91.i.i = tail call i32 @llvm.fshl.i32(i32 %ret.0.copyload.i76.i698.i, i32 %ret.0.copyload.i73.i696.i, i32 9)
  %add.ptr99.i.i = getelementptr inbounds i32, ptr %in.addr.132428.i, i64 9
  %ret.0.copyload.i80.i.i = load i32, ptr %add.ptr99.i.i, align 4
  %or102.i.i = tail call i32 @llvm.fshl.i32(i32 %ret.0.copyload.i80.i.i, i32 %ret.0.copyload.i76.i698.i, i32 2)
  %add.ptr108.i699.i = getelementptr inbounds i32, ptr %in.addr.132428.i, i64 10
  %ret.0.copyload.i83.i.i = load i32, ptr %add.ptr108.i699.i, align 4
  %or111.i700.i = tail call i32 @llvm.fshl.i32(i32 %ret.0.copyload.i83.i.i, i32 %ret.0.copyload.i80.i.i, i32 8)
  %add.ptr119.i.i = getelementptr inbounds i32, ptr %in.addr.132428.i, i64 11
  %ret.0.copyload.i87.i.i = load i32, ptr %add.ptr119.i.i, align 4
  %or122.i.i = tail call i32 @llvm.fshl.i32(i32 %ret.0.copyload.i87.i.i, i32 %ret.0.copyload.i83.i.i, i32 1)
  %add.ptr128.i.i = getelementptr inbounds i32, ptr %in.addr.132428.i, i64 12
  %ret.0.copyload.i90.i.i = load i32, ptr %add.ptr128.i.i, align 4
  %or131.i.i = tail call i32 @llvm.fshl.i32(i32 %ret.0.copyload.i90.i.i, i32 %ret.0.copyload.i87.i.i, i32 7)
  %vecinit.i.i.i93.i.i = insertelement <16 x i32> undef, i32 %ret.0.copyload.i71.i694.i, i64 0
  %vecinit1.i.i.i94.i.i = insertelement <16 x i32> %vecinit.i.i.i93.i.i, i32 %or82.i697.i, i64 1
  %vecinit2.i.i.i95.i.i = insertelement <16 x i32> %vecinit1.i.i.i94.i.i, i32 %ret.0.copyload.i73.i696.i, i64 2
  %vecinit3.i.i.i96.i.i = insertelement <16 x i32> %vecinit2.i.i.i95.i.i, i32 %or91.i.i, i64 3
  %vecinit4.i.i.i97.i.i = insertelement <16 x i32> %vecinit3.i.i.i96.i.i, i32 %ret.0.copyload.i76.i698.i, i64 4
  %vecinit5.i.i.i98.i.i = insertelement <16 x i32> %vecinit4.i.i.i97.i.i, i32 %ret.0.copyload.i76.i698.i, i64 5
  %vecinit6.i.i.i99.i.i = insertelement <16 x i32> %vecinit5.i.i.i98.i.i, i32 %or102.i.i, i64 6
  %vecinit7.i.i.i100.i.i = insertelement <16 x i32> %vecinit6.i.i.i99.i.i, i32 %ret.0.copyload.i80.i.i, i64 7
  %vecinit8.i.i.i101.i.i = insertelement <16 x i32> %vecinit7.i.i.i100.i.i, i32 %or111.i700.i, i64 8
  %vecinit9.i.i.i102.i.i = insertelement <16 x i32> %vecinit8.i.i.i101.i.i, i32 %ret.0.copyload.i83.i.i, i64 9
  %vecinit10.i.i.i103.i.i = insertelement <16 x i32> %vecinit9.i.i.i102.i.i, i32 %ret.0.copyload.i83.i.i, i64 10
  %vecinit11.i.i.i104.i.i = insertelement <16 x i32> %vecinit10.i.i.i103.i.i, i32 %or122.i.i, i64 11
  %vecinit12.i.i.i105.i.i = insertelement <16 x i32> %vecinit11.i.i.i104.i.i, i32 %ret.0.copyload.i87.i.i, i64 12
  %vecinit13.i.i.i106.i.i = insertelement <16 x i32> %vecinit12.i.i.i105.i.i, i32 %or131.i.i, i64 13
  %vecinit14.i.i.i107.i.i = insertelement <16 x i32> %vecinit13.i.i.i106.i.i, i32 %ret.0.copyload.i90.i.i, i64 14
  %vecinit15.i.i.i108.i.i = insertelement <16 x i32> %vecinit14.i.i.i107.i.i, i32 %ret.0.copyload.i90.i.i, i64 15
  call void @llvm.lifetime.start.p0(i64 64, ptr nonnull %self_buffer.i.i.i.i109.i.i)
  call void @llvm.lifetime.start.p0(i64 64, ptr nonnull %other_buffer.i.i.i.i110.i.i)
  store <16 x i32> %vecinit15.i.i.i108.i.i, ptr %self_buffer.i.i.i.i109.i.i, align 64
  store <8 x i64> <i64 16, i64 10, i64 73014444036, i64 47244640256, i64 21474836480, i64 18, i64 12, i64 81604378630>, ptr %other_buffer.i.i.i.i110.i.i, align 64
  br label %for.body.i.i.i.i112.i.i

for.body.i.i.i.i112.i.i:                          ; preds = %for.body.i.i.i.i112.i.i, %_ZN5xsimdrsERKNS_5batchIjNS_8avx512bwEEES4_.exit.i692.i
  %i.05.i.i.i.i113.i.i = phi i64 [ 0, %_ZN5xsimdrsERKNS_5batchIjNS_8avx512bwEEES4_.exit.i692.i ], [ %inc.i.i.i.i117.i.i, %for.body.i.i.i.i112.i.i ]
  %arrayidx2.i.i.i.i114.i.i = getelementptr inbounds [16 x i32], ptr %self_buffer.i.i.i.i109.i.i, i64 0, i64 %i.05.i.i.i.i113.i.i
  %128 = load i32, ptr %arrayidx2.i.i.i.i114.i.i, align 4
  %arrayidx3.i.i.i.i115.i.i = getelementptr inbounds [16 x i32], ptr %other_buffer.i.i.i.i110.i.i, i64 0, i64 %i.05.i.i.i.i113.i.i
  %129 = load i32, ptr %arrayidx3.i.i.i.i115.i.i, align 4
  %shr.i.i.i.i.i116.i.i = lshr i32 %128, %129
  store i32 %shr.i.i.i.i.i116.i.i, ptr %arrayidx2.i.i.i.i114.i.i, align 4
  %inc.i.i.i.i117.i.i = add nuw nsw i64 %i.05.i.i.i.i113.i.i, 1
  %exitcond.not.i.i.i.i118.i.i = icmp eq i64 %inc.i.i.i.i117.i.i, 16
  br i1 %exitcond.not.i.i.i.i118.i.i, label %_ZN5arrow8internal12_GLOBAL__N_113UnpackBits512ILNS0_13DispatchLevelE3EE11unpack13_32EPKjPj.exit.i, label %for.body.i.i.i.i112.i.i, !llvm.loop !4

_ZN5arrow8internal12_GLOBAL__N_113UnpackBits512ILNS0_13DispatchLevelE3EE11unpack13_32EPKjPj.exit.i: ; preds = %for.body.i.i.i.i112.i.i
  %add.ptr72.i.i = getelementptr inbounds i32, ptr %add.ptr154.i, i64 16
  %130 = load <8 x i64>, ptr %self_buffer.i.i.i.i109.i.i, align 64
  call void @llvm.lifetime.end.p0(i64 64, ptr nonnull %self_buffer.i.i.i.i109.i.i)
  call void @llvm.lifetime.end.p0(i64 64, ptr nonnull %other_buffer.i.i.i.i110.i.i)
  %and.i.i.i.i121.i.i = and <8 x i64> %130, <i64 35180077129727, i64 35180077129727, i64 35180077129727, i64 35180077129727, i64 35180077129727, i64 35180077129727, i64 35180077129727, i64 35180077129727>
  store <8 x i64> %and.i.i.i.i121.i.i, ptr %add.ptr72.i.i, align 1
  %add.ptr152.i.i = getelementptr inbounds i32, ptr %in.addr.132428.i, i64 13
  %indvars.iv.next2611.i = add nuw nsw i64 %indvars.iv2610.i, 1
  %exitcond2615.not.i = icmp eq i64 %indvars.iv.next2611.i, %wide.trip.count2614.i
  br i1 %exitcond2615.not.i, label %_ZN5arrow8internalL20unpack32_specializedINS0_12_GLOBAL__N_113UnpackBits512ILNS0_13DispatchLevelE3EEEEEiPKjPjii.exit, label %for.body151.i, !llvm.loop !18

for.body163.i:                                    ; preds = %_ZN5arrow8internal12_GLOBAL__N_113UnpackBits512ILNS0_13DispatchLevelE3EE11unpack14_32EPKjPj.exit.i, %for.body163.preheader.i
  %indvars.iv2604.i = phi i64 [ 0, %for.body163.preheader.i ], [ %indvars.iv.next2605.i, %_ZN5arrow8internal12_GLOBAL__N_113UnpackBits512ILNS0_13DispatchLevelE3EE11unpack14_32EPKjPj.exit.i ]
  %in.addr.142425.i = phi ptr [ %in, %for.body163.preheader.i ], [ %add.ptr152.i782.i, %_ZN5arrow8internal12_GLOBAL__N_113UnpackBits512ILNS0_13DispatchLevelE3EE11unpack14_32EPKjPj.exit.i ]
  %ret.0.copyload.i.i705.i = load i32, ptr %in.addr.142425.i, align 4
  %add.ptr5.i706.i = getelementptr inbounds i32, ptr %in.addr.142425.i, i64 1
  %ret.0.copyload.i51.i707.i = load i32, ptr %add.ptr5.i706.i, align 4
  %or.i708.i = tail call i32 @llvm.fshl.i32(i32 %ret.0.copyload.i51.i707.i, i32 %ret.0.copyload.i.i705.i, i32 4)
  %add.ptr12.i709.i = getelementptr inbounds i32, ptr %in.addr.142425.i, i64 2
  %ret.0.copyload.i54.i710.i = load i32, ptr %add.ptr12.i709.i, align 4
  %or15.i711.i = tail call i32 @llvm.fshl.i32(i32 %ret.0.copyload.i54.i710.i, i32 %ret.0.copyload.i51.i707.i, i32 8)
  %add.ptr21.i712.i = getelementptr inbounds i32, ptr %in.addr.142425.i, i64 3
  %ret.0.copyload.i57.i713.i = load i32, ptr %add.ptr21.i712.i, align 4
  %or24.i.i = tail call i32 @llvm.fshl.i32(i32 %ret.0.copyload.i57.i713.i, i32 %ret.0.copyload.i54.i710.i, i32 12)
  %add.ptr32.i714.i = getelementptr inbounds i32, ptr %in.addr.142425.i, i64 4
  %ret.0.copyload.i61.i715.i = load i32, ptr %add.ptr32.i714.i, align 4
  %or35.i716.i = tail call i32 @llvm.fshl.i32(i32 %ret.0.copyload.i61.i715.i, i32 %ret.0.copyload.i57.i713.i, i32 2)
  %add.ptr41.i.i = getelementptr inbounds i32, ptr %in.addr.142425.i, i64 5
  %ret.0.copyload.i64.i.i = load i32, ptr %add.ptr41.i.i, align 4
  %or44.i.i = tail call i32 @llvm.fshl.i32(i32 %ret.0.copyload.i64.i.i, i32 %ret.0.copyload.i61.i715.i, i32 6)
  %add.ptr50.i.i = getelementptr inbounds i32, ptr %in.addr.142425.i, i64 6
  %ret.0.copyload.i67.i717.i = load i32, ptr %add.ptr50.i.i, align 4
  %or53.i.i = tail call i32 @llvm.fshl.i32(i32 %ret.0.copyload.i67.i717.i, i32 %ret.0.copyload.i64.i.i, i32 10)
  %vecinit.i.i.i.i718.i = insertelement <16 x i32> undef, i32 %ret.0.copyload.i.i705.i, i64 0
  %vecinit1.i.i.i.i719.i = insertelement <16 x i32> %vecinit.i.i.i.i718.i, i32 %ret.0.copyload.i.i705.i, i64 1
  %vecinit2.i.i.i.i720.i = insertelement <16 x i32> %vecinit1.i.i.i.i719.i, i32 %or.i708.i, i64 2
  %vecinit3.i.i.i.i721.i = insertelement <16 x i32> %vecinit2.i.i.i.i720.i, i32 %ret.0.copyload.i51.i707.i, i64 3
  %vecinit4.i.i.i.i722.i = insertelement <16 x i32> %vecinit3.i.i.i.i721.i, i32 %or15.i711.i, i64 4
  %vecinit5.i.i.i.i723.i = insertelement <16 x i32> %vecinit4.i.i.i.i722.i, i32 %ret.0.copyload.i54.i710.i, i64 5
  %vecinit6.i.i.i.i724.i = insertelement <16 x i32> %vecinit5.i.i.i.i723.i, i32 %or24.i.i, i64 6
  %vecinit7.i.i.i.i725.i = insertelement <16 x i32> %vecinit6.i.i.i.i724.i, i32 %ret.0.copyload.i57.i713.i, i64 7
  %vecinit8.i.i.i.i726.i = insertelement <16 x i32> %vecinit7.i.i.i.i725.i, i32 %ret.0.copyload.i57.i713.i, i64 8
  %vecinit9.i.i.i.i727.i = insertelement <16 x i32> %vecinit8.i.i.i.i726.i, i32 %or35.i716.i, i64 9
  %vecinit10.i.i.i.i728.i = insertelement <16 x i32> %vecinit9.i.i.i.i727.i, i32 %ret.0.copyload.i61.i715.i, i64 10
  %vecinit11.i.i.i.i729.i = insertelement <16 x i32> %vecinit10.i.i.i.i728.i, i32 %or44.i.i, i64 11
  %vecinit12.i.i.i.i730.i = insertelement <16 x i32> %vecinit11.i.i.i.i729.i, i32 %ret.0.copyload.i64.i.i, i64 12
  %vecinit13.i.i.i.i731.i = insertelement <16 x i32> %vecinit12.i.i.i.i730.i, i32 %or53.i.i, i64 13
  %vecinit14.i.i.i.i732.i = insertelement <16 x i32> %vecinit13.i.i.i.i731.i, i32 %ret.0.copyload.i67.i717.i, i64 14
  %vecinit15.i.i.i.i733.i = insertelement <16 x i32> %vecinit14.i.i.i.i732.i, i32 %ret.0.copyload.i67.i717.i, i64 15
  call void @llvm.lifetime.start.p0(i64 64, ptr nonnull %self_buffer.i.i.i.i.i703.i)
  call void @llvm.lifetime.start.p0(i64 64, ptr nonnull %other_buffer.i.i.i.i.i704.i)
  store <16 x i32> %vecinit15.i.i.i.i733.i, ptr %self_buffer.i.i.i.i.i703.i, align 64
  store <8 x i64> <i64 60129542144, i64 42949672960, i64 25769803776, i64 8589934592, i64 16, i64 12, i64 8, i64 77309411332>, ptr %other_buffer.i.i.i.i.i704.i, align 64
  br label %for.body.i.i.i.i.i734.i

for.body.i.i.i.i.i734.i:                          ; preds = %for.body.i.i.i.i.i734.i, %for.body163.i
  %i.05.i.i.i.i.i735.i = phi i64 [ 0, %for.body163.i ], [ %inc.i.i.i.i.i739.i, %for.body.i.i.i.i.i734.i ]
  %arrayidx2.i.i.i.i.i736.i = getelementptr inbounds [16 x i32], ptr %self_buffer.i.i.i.i.i703.i, i64 0, i64 %i.05.i.i.i.i.i735.i
  %131 = load i32, ptr %arrayidx2.i.i.i.i.i736.i, align 4
  %arrayidx3.i.i.i.i.i737.i = getelementptr inbounds [16 x i32], ptr %other_buffer.i.i.i.i.i704.i, i64 0, i64 %i.05.i.i.i.i.i735.i
  %132 = load i32, ptr %arrayidx3.i.i.i.i.i737.i, align 4
  %shr.i.i.i.i.i.i738.i = lshr i32 %131, %132
  store i32 %shr.i.i.i.i.i.i738.i, ptr %arrayidx2.i.i.i.i.i736.i, align 4
  %inc.i.i.i.i.i739.i = add nuw nsw i64 %i.05.i.i.i.i.i735.i, 1
  %exitcond.not.i.i.i.i.i740.i = icmp eq i64 %inc.i.i.i.i.i739.i, 16
  br i1 %exitcond.not.i.i.i.i.i740.i, label %_ZN5xsimdrsERKNS_5batchIjNS_8avx512bwEEES4_.exit.i741.i, label %for.body.i.i.i.i.i734.i, !llvm.loop !4

_ZN5xsimdrsERKNS_5batchIjNS_8avx512bwEEES4_.exit.i741.i: ; preds = %for.body.i.i.i.i.i734.i
  %133 = shl nsw i64 %indvars.iv2604.i, 5
  %add.ptr166.i = getelementptr inbounds i32, ptr %out, i64 %133
  %134 = load <8 x i64>, ptr %self_buffer.i.i.i.i.i703.i, align 64
  call void @llvm.lifetime.end.p0(i64 64, ptr nonnull %self_buffer.i.i.i.i.i703.i)
  call void @llvm.lifetime.end.p0(i64 64, ptr nonnull %other_buffer.i.i.i.i.i704.i)
  %and.i.i.i.i.i742.i = and <8 x i64> %134, <i64 70364449226751, i64 70364449226751, i64 70364449226751, i64 70364449226751, i64 70364449226751, i64 70364449226751, i64 70364449226751, i64 70364449226751>
  store <8 x i64> %and.i.i.i.i.i742.i, ptr %add.ptr166.i, align 1
  %add.ptr74.i743.i = getelementptr inbounds i32, ptr %in.addr.142425.i, i64 7
  %ret.0.copyload.i71.i744.i = load i32, ptr %add.ptr74.i743.i, align 4
  %add.ptr81.i.i = getelementptr inbounds i32, ptr %in.addr.142425.i, i64 8
  %ret.0.copyload.i74.i745.i = load i32, ptr %add.ptr81.i.i, align 4
  %or84.i.i = tail call i32 @llvm.fshl.i32(i32 %ret.0.copyload.i74.i745.i, i32 %ret.0.copyload.i71.i744.i, i32 4)
  %add.ptr90.i746.i = getelementptr inbounds i32, ptr %in.addr.142425.i, i64 9
  %ret.0.copyload.i77.i747.i = load i32, ptr %add.ptr90.i746.i, align 4
  %or93.i.i = tail call i32 @llvm.fshl.i32(i32 %ret.0.copyload.i77.i747.i, i32 %ret.0.copyload.i74.i745.i, i32 8)
  %add.ptr99.i748.i = getelementptr inbounds i32, ptr %in.addr.142425.i, i64 10
  %ret.0.copyload.i80.i749.i = load i32, ptr %add.ptr99.i748.i, align 4
  %or102.i750.i = tail call i32 @llvm.fshl.i32(i32 %ret.0.copyload.i80.i749.i, i32 %ret.0.copyload.i77.i747.i, i32 12)
  %add.ptr110.i.i = getelementptr inbounds i32, ptr %in.addr.142425.i, i64 11
  %ret.0.copyload.i84.i.i = load i32, ptr %add.ptr110.i.i, align 4
  %or113.i.i = tail call i32 @llvm.fshl.i32(i32 %ret.0.copyload.i84.i.i, i32 %ret.0.copyload.i80.i749.i, i32 2)
  %add.ptr119.i751.i = getelementptr inbounds i32, ptr %in.addr.142425.i, i64 12
  %ret.0.copyload.i87.i752.i = load i32, ptr %add.ptr119.i751.i, align 4
  %or122.i753.i = tail call i32 @llvm.fshl.i32(i32 %ret.0.copyload.i87.i752.i, i32 %ret.0.copyload.i84.i.i, i32 6)
  %add.ptr128.i754.i = getelementptr inbounds i32, ptr %in.addr.142425.i, i64 13
  %ret.0.copyload.i90.i755.i = load i32, ptr %add.ptr128.i754.i, align 4
  %or131.i756.i = tail call i32 @llvm.fshl.i32(i32 %ret.0.copyload.i90.i755.i, i32 %ret.0.copyload.i87.i752.i, i32 10)
  %vecinit.i.i.i93.i757.i = insertelement <16 x i32> undef, i32 %ret.0.copyload.i71.i744.i, i64 0
  %vecinit1.i.i.i94.i758.i = insertelement <16 x i32> %vecinit.i.i.i93.i757.i, i32 %ret.0.copyload.i71.i744.i, i64 1
  %vecinit2.i.i.i95.i759.i = insertelement <16 x i32> %vecinit1.i.i.i94.i758.i, i32 %or84.i.i, i64 2
  %vecinit3.i.i.i96.i760.i = insertelement <16 x i32> %vecinit2.i.i.i95.i759.i, i32 %ret.0.copyload.i74.i745.i, i64 3
  %vecinit4.i.i.i97.i761.i = insertelement <16 x i32> %vecinit3.i.i.i96.i760.i, i32 %or93.i.i, i64 4
  %vecinit5.i.i.i98.i762.i = insertelement <16 x i32> %vecinit4.i.i.i97.i761.i, i32 %ret.0.copyload.i77.i747.i, i64 5
  %vecinit6.i.i.i99.i763.i = insertelement <16 x i32> %vecinit5.i.i.i98.i762.i, i32 %or102.i750.i, i64 6
  %vecinit7.i.i.i100.i764.i = insertelement <16 x i32> %vecinit6.i.i.i99.i763.i, i32 %ret.0.copyload.i80.i749.i, i64 7
  %vecinit8.i.i.i101.i765.i = insertelement <16 x i32> %vecinit7.i.i.i100.i764.i, i32 %ret.0.copyload.i80.i749.i, i64 8
  %vecinit9.i.i.i102.i766.i = insertelement <16 x i32> %vecinit8.i.i.i101.i765.i, i32 %or113.i.i, i64 9
  %vecinit10.i.i.i103.i767.i = insertelement <16 x i32> %vecinit9.i.i.i102.i766.i, i32 %ret.0.copyload.i84.i.i, i64 10
  %vecinit11.i.i.i104.i768.i = insertelement <16 x i32> %vecinit10.i.i.i103.i767.i, i32 %or122.i753.i, i64 11
  %vecinit12.i.i.i105.i769.i = insertelement <16 x i32> %vecinit11.i.i.i104.i768.i, i32 %ret.0.copyload.i87.i752.i, i64 12
  %vecinit13.i.i.i106.i770.i = insertelement <16 x i32> %vecinit12.i.i.i105.i769.i, i32 %or131.i756.i, i64 13
  %vecinit14.i.i.i107.i771.i = insertelement <16 x i32> %vecinit13.i.i.i106.i770.i, i32 %ret.0.copyload.i90.i755.i, i64 14
  %vecinit15.i.i.i108.i772.i = insertelement <16 x i32> %vecinit14.i.i.i107.i771.i, i32 %ret.0.copyload.i90.i755.i, i64 15
  call void @llvm.lifetime.start.p0(i64 64, ptr nonnull %self_buffer.i.i.i.i109.i701.i)
  call void @llvm.lifetime.start.p0(i64 64, ptr nonnull %other_buffer.i.i.i.i110.i702.i)
  store <16 x i32> %vecinit15.i.i.i108.i772.i, ptr %self_buffer.i.i.i.i109.i701.i, align 64
  store <8 x i64> <i64 60129542144, i64 42949672960, i64 25769803776, i64 8589934592, i64 16, i64 12, i64 8, i64 77309411332>, ptr %other_buffer.i.i.i.i110.i702.i, align 64
  br label %for.body.i.i.i.i112.i773.i

for.body.i.i.i.i112.i773.i:                       ; preds = %for.body.i.i.i.i112.i773.i, %_ZN5xsimdrsERKNS_5batchIjNS_8avx512bwEEES4_.exit.i741.i
  %i.05.i.i.i.i113.i774.i = phi i64 [ 0, %_ZN5xsimdrsERKNS_5batchIjNS_8avx512bwEEES4_.exit.i741.i ], [ %inc.i.i.i.i117.i778.i, %for.body.i.i.i.i112.i773.i ]
  %arrayidx2.i.i.i.i114.i775.i = getelementptr inbounds [16 x i32], ptr %self_buffer.i.i.i.i109.i701.i, i64 0, i64 %i.05.i.i.i.i113.i774.i
  %135 = load i32, ptr %arrayidx2.i.i.i.i114.i775.i, align 4
  %arrayidx3.i.i.i.i115.i776.i = getelementptr inbounds [16 x i32], ptr %other_buffer.i.i.i.i110.i702.i, i64 0, i64 %i.05.i.i.i.i113.i774.i
  %136 = load i32, ptr %arrayidx3.i.i.i.i115.i776.i, align 4
  %shr.i.i.i.i.i116.i777.i = lshr i32 %135, %136
  store i32 %shr.i.i.i.i.i116.i777.i, ptr %arrayidx2.i.i.i.i114.i775.i, align 4
  %inc.i.i.i.i117.i778.i = add nuw nsw i64 %i.05.i.i.i.i113.i774.i, 1
  %exitcond.not.i.i.i.i118.i779.i = icmp eq i64 %inc.i.i.i.i117.i778.i, 16
  br i1 %exitcond.not.i.i.i.i118.i779.i, label %_ZN5arrow8internal12_GLOBAL__N_113UnpackBits512ILNS0_13DispatchLevelE3EE11unpack14_32EPKjPj.exit.i, label %for.body.i.i.i.i112.i773.i, !llvm.loop !4

_ZN5arrow8internal12_GLOBAL__N_113UnpackBits512ILNS0_13DispatchLevelE3EE11unpack14_32EPKjPj.exit.i: ; preds = %for.body.i.i.i.i112.i773.i
  %add.ptr72.i780.i = getelementptr inbounds i32, ptr %add.ptr166.i, i64 16
  %137 = load <8 x i64>, ptr %self_buffer.i.i.i.i109.i701.i, align 64
  call void @llvm.lifetime.end.p0(i64 64, ptr nonnull %self_buffer.i.i.i.i109.i701.i)
  call void @llvm.lifetime.end.p0(i64 64, ptr nonnull %other_buffer.i.i.i.i110.i702.i)
  %and.i.i.i.i121.i781.i = and <8 x i64> %137, <i64 70364449226751, i64 70364449226751, i64 70364449226751, i64 70364449226751, i64 70364449226751, i64 70364449226751, i64 70364449226751, i64 70364449226751>
  store <8 x i64> %and.i.i.i.i121.i781.i, ptr %add.ptr72.i780.i, align 1
  %add.ptr152.i782.i = getelementptr inbounds i32, ptr %in.addr.142425.i, i64 14
  %indvars.iv.next2605.i = add nuw nsw i64 %indvars.iv2604.i, 1
  %exitcond2609.not.i = icmp eq i64 %indvars.iv.next2605.i, %wide.trip.count2608.i
  br i1 %exitcond2609.not.i, label %_ZN5arrow8internalL20unpack32_specializedINS0_12_GLOBAL__N_113UnpackBits512ILNS0_13DispatchLevelE3EEEEEiPKjPjii.exit, label %for.body163.i, !llvm.loop !19

for.body175.i:                                    ; preds = %_ZN5arrow8internal12_GLOBAL__N_113UnpackBits512ILNS0_13DispatchLevelE3EE11unpack15_32EPKjPj.exit.i, %for.body175.preheader.i
  %indvars.iv2598.i = phi i64 [ 0, %for.body175.preheader.i ], [ %indvars.iv.next2599.i, %_ZN5arrow8internal12_GLOBAL__N_113UnpackBits512ILNS0_13DispatchLevelE3EE11unpack15_32EPKjPj.exit.i ]
  %in.addr.152422.i = phi ptr [ %in, %for.body175.preheader.i ], [ %add.ptr162.i.i, %_ZN5arrow8internal12_GLOBAL__N_113UnpackBits512ILNS0_13DispatchLevelE3EE11unpack15_32EPKjPj.exit.i ]
  %ret.0.copyload.i.i785.i = load i32, ptr %in.addr.152422.i, align 4
  %add.ptr5.i786.i = getelementptr inbounds i32, ptr %in.addr.152422.i, i64 1
  %ret.0.copyload.i53.i787.i = load i32, ptr %add.ptr5.i786.i, align 4
  %or.i788.i = tail call i32 @llvm.fshl.i32(i32 %ret.0.copyload.i53.i787.i, i32 %ret.0.copyload.i.i785.i, i32 2)
  %add.ptr12.i789.i = getelementptr inbounds i32, ptr %in.addr.152422.i, i64 2
  %ret.0.copyload.i56.i790.i = load i32, ptr %add.ptr12.i789.i, align 4
  %or15.i791.i = tail call i32 @llvm.fshl.i32(i32 %ret.0.copyload.i56.i790.i, i32 %ret.0.copyload.i53.i787.i, i32 4)
  %add.ptr21.i792.i = getelementptr inbounds i32, ptr %in.addr.152422.i, i64 3
  %ret.0.copyload.i59.i793.i = load i32, ptr %add.ptr21.i792.i, align 4
  %or24.i794.i = tail call i32 @llvm.fshl.i32(i32 %ret.0.copyload.i59.i793.i, i32 %ret.0.copyload.i56.i790.i, i32 6)
  %add.ptr30.i.i = getelementptr inbounds i32, ptr %in.addr.152422.i, i64 4
  %ret.0.copyload.i62.i795.i = load i32, ptr %add.ptr30.i.i, align 4
  %or33.i.i = tail call i32 @llvm.fshl.i32(i32 %ret.0.copyload.i62.i795.i, i32 %ret.0.copyload.i59.i793.i, i32 8)
  %add.ptr39.i.i = getelementptr inbounds i32, ptr %in.addr.152422.i, i64 5
  %ret.0.copyload.i65.i796.i = load i32, ptr %add.ptr39.i.i, align 4
  %or42.i.i = tail call i32 @llvm.fshl.i32(i32 %ret.0.copyload.i65.i796.i, i32 %ret.0.copyload.i62.i795.i, i32 10)
  %add.ptr48.i.i = getelementptr inbounds i32, ptr %in.addr.152422.i, i64 6
  %ret.0.copyload.i68.i797.i = load i32, ptr %add.ptr48.i.i, align 4
  %or51.i.i = tail call i32 @llvm.fshl.i32(i32 %ret.0.copyload.i68.i797.i, i32 %ret.0.copyload.i65.i796.i, i32 12)
  %add.ptr57.i798.i = getelementptr inbounds i32, ptr %in.addr.152422.i, i64 7
  %ret.0.copyload.i71.i799.i = load i32, ptr %add.ptr57.i798.i, align 4
  %or60.i.i = tail call i32 @llvm.fshl.i32(i32 %ret.0.copyload.i71.i799.i, i32 %ret.0.copyload.i68.i797.i, i32 14)
  %vecinit.i.i.i.i800.i = insertelement <16 x i32> undef, i32 %ret.0.copyload.i.i785.i, i64 0
  %vecinit1.i.i.i.i801.i = insertelement <16 x i32> %vecinit.i.i.i.i800.i, i32 %ret.0.copyload.i.i785.i, i64 1
  %vecinit2.i.i.i.i802.i = insertelement <16 x i32> %vecinit1.i.i.i.i801.i, i32 %or.i788.i, i64 2
  %vecinit3.i.i.i.i803.i = insertelement <16 x i32> %vecinit2.i.i.i.i802.i, i32 %ret.0.copyload.i53.i787.i, i64 3
  %vecinit4.i.i.i.i804.i = insertelement <16 x i32> %vecinit3.i.i.i.i803.i, i32 %or15.i791.i, i64 4
  %vecinit5.i.i.i.i805.i = insertelement <16 x i32> %vecinit4.i.i.i.i804.i, i32 %ret.0.copyload.i56.i790.i, i64 5
  %vecinit6.i.i.i.i806.i = insertelement <16 x i32> %vecinit5.i.i.i.i805.i, i32 %or24.i794.i, i64 6
  %vecinit7.i.i.i.i807.i = insertelement <16 x i32> %vecinit6.i.i.i.i806.i, i32 %ret.0.copyload.i59.i793.i, i64 7
  %vecinit8.i.i.i.i808.i = insertelement <16 x i32> %vecinit7.i.i.i.i807.i, i32 %or33.i.i, i64 8
  %vecinit9.i.i.i.i809.i = insertelement <16 x i32> %vecinit8.i.i.i.i808.i, i32 %ret.0.copyload.i62.i795.i, i64 9
  %vecinit10.i.i.i.i810.i = insertelement <16 x i32> %vecinit9.i.i.i.i809.i, i32 %or42.i.i, i64 10
  %vecinit11.i.i.i.i811.i = insertelement <16 x i32> %vecinit10.i.i.i.i810.i, i32 %ret.0.copyload.i65.i796.i, i64 11
  %vecinit12.i.i.i.i812.i = insertelement <16 x i32> %vecinit11.i.i.i.i811.i, i32 %or51.i.i, i64 12
  %vecinit13.i.i.i.i813.i = insertelement <16 x i32> %vecinit12.i.i.i.i812.i, i32 %ret.0.copyload.i68.i797.i, i64 13
  %vecinit14.i.i.i.i814.i = insertelement <16 x i32> %vecinit13.i.i.i.i813.i, i32 %or60.i.i, i64 14
  %vecinit15.i.i.i.i815.i = insertelement <16 x i32> %vecinit14.i.i.i.i814.i, i32 %ret.0.copyload.i71.i799.i, i64 15
  call void @llvm.lifetime.start.p0(i64 64, ptr nonnull %self_buffer.i.i.i.i.i783.i)
  call void @llvm.lifetime.start.p0(i64 64, ptr nonnull %other_buffer.i.i.i.i.i784.i)
  store <16 x i32> %vecinit15.i.i.i.i815.i, ptr %self_buffer.i.i.i.i.i783.i, align 64
  store <8 x i64> <i64 64424509440, i64 55834574848, i64 47244640256, i64 38654705664, i64 30064771072, i64 21474836480, i64 12884901888, i64 4294967296>, ptr %other_buffer.i.i.i.i.i784.i, align 64
  br label %for.body.i.i.i.i.i816.i

for.body.i.i.i.i.i816.i:                          ; preds = %for.body.i.i.i.i.i816.i, %for.body175.i
  %i.05.i.i.i.i.i817.i = phi i64 [ 0, %for.body175.i ], [ %inc.i.i.i.i.i821.i, %for.body.i.i.i.i.i816.i ]
  %arrayidx2.i.i.i.i.i818.i = getelementptr inbounds [16 x i32], ptr %self_buffer.i.i.i.i.i783.i, i64 0, i64 %i.05.i.i.i.i.i817.i
  %138 = load i32, ptr %arrayidx2.i.i.i.i.i818.i, align 4
  %arrayidx3.i.i.i.i.i819.i = getelementptr inbounds [16 x i32], ptr %other_buffer.i.i.i.i.i784.i, i64 0, i64 %i.05.i.i.i.i.i817.i
  %139 = load i32, ptr %arrayidx3.i.i.i.i.i819.i, align 4
  %shr.i.i.i.i.i.i820.i = lshr i32 %138, %139
  store i32 %shr.i.i.i.i.i.i820.i, ptr %arrayidx2.i.i.i.i.i818.i, align 4
  %inc.i.i.i.i.i821.i = add nuw nsw i64 %i.05.i.i.i.i.i817.i, 1
  %exitcond.not.i.i.i.i.i822.i = icmp eq i64 %inc.i.i.i.i.i821.i, 16
  br i1 %exitcond.not.i.i.i.i.i822.i, label %_ZN5xsimdrsERKNS_5batchIjNS_8avx512bwEEES4_.exit.i823.i, label %for.body.i.i.i.i.i816.i, !llvm.loop !4

_ZN5xsimdrsERKNS_5batchIjNS_8avx512bwEEES4_.exit.i823.i: ; preds = %for.body.i.i.i.i.i816.i
  %140 = shl nsw i64 %indvars.iv2598.i, 5
  %add.ptr178.i = getelementptr inbounds i32, ptr %out, i64 %140
  %141 = load <8 x i64>, ptr %self_buffer.i.i.i.i.i783.i, align 64
  call void @llvm.lifetime.end.p0(i64 64, ptr nonnull %self_buffer.i.i.i.i.i783.i)
  call void @llvm.lifetime.end.p0(i64 64, ptr nonnull %other_buffer.i.i.i.i.i784.i)
  %and.i.i.i.i.i824.i = and <8 x i64> %141, <i64 140733193420799, i64 140733193420799, i64 140733193420799, i64 140733193420799, i64 140733193420799, i64 140733193420799, i64 140733193420799, i64 140733193420799>
  store <8 x i64> %and.i.i.i.i.i824.i, ptr %add.ptr178.i, align 1
  %ret.0.copyload.i74.i825.i = load i32, ptr %add.ptr57.i798.i, align 4
  %add.ptr84.i826.i = getelementptr inbounds i32, ptr %in.addr.152422.i, i64 8
  %ret.0.copyload.i76.i827.i = load i32, ptr %add.ptr84.i826.i, align 4
  %or87.i828.i = tail call i32 @llvm.fshl.i32(i32 %ret.0.copyload.i76.i827.i, i32 %ret.0.copyload.i74.i825.i, i32 1)
  %add.ptr93.i829.i = getelementptr inbounds i32, ptr %in.addr.152422.i, i64 9
  %ret.0.copyload.i79.i.i = load i32, ptr %add.ptr93.i829.i, align 4
  %or96.i830.i = tail call i32 @llvm.fshl.i32(i32 %ret.0.copyload.i79.i.i, i32 %ret.0.copyload.i76.i827.i, i32 3)
  %add.ptr102.i831.i = getelementptr inbounds i32, ptr %in.addr.152422.i, i64 10
  %ret.0.copyload.i82.i832.i = load i32, ptr %add.ptr102.i831.i, align 4
  %or105.i.i = tail call i32 @llvm.fshl.i32(i32 %ret.0.copyload.i82.i832.i, i32 %ret.0.copyload.i79.i.i, i32 5)
  %add.ptr111.i.i = getelementptr inbounds i32, ptr %in.addr.152422.i, i64 11
  %ret.0.copyload.i85.i.i = load i32, ptr %add.ptr111.i.i, align 4
  %or114.i.i = tail call i32 @llvm.fshl.i32(i32 %ret.0.copyload.i85.i.i, i32 %ret.0.copyload.i82.i832.i, i32 7)
  %add.ptr120.i.i = getelementptr inbounds i32, ptr %in.addr.152422.i, i64 12
  %ret.0.copyload.i88.i.i = load i32, ptr %add.ptr120.i.i, align 4
  %or123.i.i = tail call i32 @llvm.fshl.i32(i32 %ret.0.copyload.i88.i.i, i32 %ret.0.copyload.i85.i.i, i32 9)
  %add.ptr129.i.i = getelementptr inbounds i32, ptr %in.addr.152422.i, i64 13
  %ret.0.copyload.i91.i.i = load i32, ptr %add.ptr129.i.i, align 4
  %or132.i.i = tail call i32 @llvm.fshl.i32(i32 %ret.0.copyload.i91.i.i, i32 %ret.0.copyload.i88.i.i, i32 11)
  %add.ptr138.i.i = getelementptr inbounds i32, ptr %in.addr.152422.i, i64 14
  %ret.0.copyload.i94.i.i = load i32, ptr %add.ptr138.i.i, align 4
  %or141.i.i = tail call i32 @llvm.fshl.i32(i32 %ret.0.copyload.i94.i.i, i32 %ret.0.copyload.i91.i.i, i32 13)
  %vecinit.i.i.i97.i.i = insertelement <16 x i32> undef, i32 %ret.0.copyload.i74.i825.i, i64 0
  %vecinit1.i.i.i98.i.i = insertelement <16 x i32> %vecinit.i.i.i97.i.i, i32 %or87.i828.i, i64 1
  %vecinit2.i.i.i99.i.i = insertelement <16 x i32> %vecinit1.i.i.i98.i.i, i32 %ret.0.copyload.i76.i827.i, i64 2
  %vecinit3.i.i.i100.i.i = insertelement <16 x i32> %vecinit2.i.i.i99.i.i, i32 %or96.i830.i, i64 3
  %vecinit4.i.i.i101.i.i = insertelement <16 x i32> %vecinit3.i.i.i100.i.i, i32 %ret.0.copyload.i79.i.i, i64 4
  %vecinit5.i.i.i102.i.i = insertelement <16 x i32> %vecinit4.i.i.i101.i.i, i32 %or105.i.i, i64 5
  %vecinit6.i.i.i103.i.i = insertelement <16 x i32> %vecinit5.i.i.i102.i.i, i32 %ret.0.copyload.i82.i832.i, i64 6
  %vecinit7.i.i.i104.i.i = insertelement <16 x i32> %vecinit6.i.i.i103.i.i, i32 %or114.i.i, i64 7
  %vecinit8.i.i.i105.i.i = insertelement <16 x i32> %vecinit7.i.i.i104.i.i, i32 %ret.0.copyload.i85.i.i, i64 8
  %vecinit9.i.i.i106.i.i = insertelement <16 x i32> %vecinit8.i.i.i105.i.i, i32 %or123.i.i, i64 9
  %vecinit10.i.i.i107.i.i = insertelement <16 x i32> %vecinit9.i.i.i106.i.i, i32 %ret.0.copyload.i88.i.i, i64 10
  %vecinit11.i.i.i108.i.i = insertelement <16 x i32> %vecinit10.i.i.i107.i.i, i32 %or132.i.i, i64 11
  %vecinit12.i.i.i109.i.i = insertelement <16 x i32> %vecinit11.i.i.i108.i.i, i32 %ret.0.copyload.i91.i.i, i64 12
  %vecinit13.i.i.i110.i.i = insertelement <16 x i32> %vecinit12.i.i.i109.i.i, i32 %or141.i.i, i64 13
  %vecinit14.i.i.i111.i.i = insertelement <16 x i32> %vecinit13.i.i.i110.i.i, i32 %ret.0.copyload.i94.i.i, i64 14
  %vecinit15.i.i.i112.i.i = insertelement <16 x i32> %vecinit14.i.i.i111.i.i, i32 %ret.0.copyload.i94.i.i, i64 15
  call void @llvm.lifetime.start.p0(i64 64, ptr nonnull %self_buffer.i.i.i.i113.i.i)
  call void @llvm.lifetime.start.p0(i64 64, ptr nonnull %other_buffer.i.i.i.i114.i.i)
  store <16 x i32> %vecinit15.i.i.i112.i.i, ptr %self_buffer.i.i.i.i113.i.i, align 64
  store <8 x i64> <i64 16, i64 14, i64 12, i64 10, i64 8, i64 6, i64 4, i64 73014444034>, ptr %other_buffer.i.i.i.i114.i.i, align 64
  br label %for.body.i.i.i.i116.i.i

for.body.i.i.i.i116.i.i:                          ; preds = %for.body.i.i.i.i116.i.i, %_ZN5xsimdrsERKNS_5batchIjNS_8avx512bwEEES4_.exit.i823.i
  %i.05.i.i.i.i117.i.i = phi i64 [ 0, %_ZN5xsimdrsERKNS_5batchIjNS_8avx512bwEEES4_.exit.i823.i ], [ %inc.i.i.i.i121.i.i, %for.body.i.i.i.i116.i.i ]
  %arrayidx2.i.i.i.i118.i.i = getelementptr inbounds [16 x i32], ptr %self_buffer.i.i.i.i113.i.i, i64 0, i64 %i.05.i.i.i.i117.i.i
  %142 = load i32, ptr %arrayidx2.i.i.i.i118.i.i, align 4
  %arrayidx3.i.i.i.i119.i.i = getelementptr inbounds [16 x i32], ptr %other_buffer.i.i.i.i114.i.i, i64 0, i64 %i.05.i.i.i.i117.i.i
  %143 = load i32, ptr %arrayidx3.i.i.i.i119.i.i, align 4
  %shr.i.i.i.i.i120.i.i = lshr i32 %142, %143
  store i32 %shr.i.i.i.i.i120.i.i, ptr %arrayidx2.i.i.i.i118.i.i, align 4
  %inc.i.i.i.i121.i.i = add nuw nsw i64 %i.05.i.i.i.i117.i.i, 1
  %exitcond.not.i.i.i.i122.i.i = icmp eq i64 %inc.i.i.i.i121.i.i, 16
  br i1 %exitcond.not.i.i.i.i122.i.i, label %_ZN5arrow8internal12_GLOBAL__N_113UnpackBits512ILNS0_13DispatchLevelE3EE11unpack15_32EPKjPj.exit.i, label %for.body.i.i.i.i116.i.i, !llvm.loop !4

_ZN5arrow8internal12_GLOBAL__N_113UnpackBits512ILNS0_13DispatchLevelE3EE11unpack15_32EPKjPj.exit.i: ; preds = %for.body.i.i.i.i116.i.i
  %add.ptr77.i.i = getelementptr inbounds i32, ptr %add.ptr178.i, i64 16
  %144 = load <8 x i64>, ptr %self_buffer.i.i.i.i113.i.i, align 64
  call void @llvm.lifetime.end.p0(i64 64, ptr nonnull %self_buffer.i.i.i.i113.i.i)
  call void @llvm.lifetime.end.p0(i64 64, ptr nonnull %other_buffer.i.i.i.i114.i.i)
  %and.i.i.i.i125.i.i = and <8 x i64> %144, <i64 140733193420799, i64 140733193420799, i64 140733193420799, i64 140733193420799, i64 140733193420799, i64 140733193420799, i64 140733193420799, i64 140733193420799>
  store <8 x i64> %and.i.i.i.i125.i.i, ptr %add.ptr77.i.i, align 1
  %add.ptr162.i.i = getelementptr inbounds i32, ptr %in.addr.152422.i, i64 15
  %indvars.iv.next2599.i = add nuw nsw i64 %indvars.iv2598.i, 1
  %exitcond2603.not.i = icmp eq i64 %indvars.iv.next2599.i, %wide.trip.count2602.i
  br i1 %exitcond2603.not.i, label %_ZN5arrow8internalL20unpack32_specializedINS0_12_GLOBAL__N_113UnpackBits512ILNS0_13DispatchLevelE3EEEEEiPKjPjii.exit, label %for.body175.i, !llvm.loop !20

for.body187.i:                                    ; preds = %_ZN5arrow8internal12_GLOBAL__N_113UnpackBits512ILNS0_13DispatchLevelE3EE11unpack16_32EPKjPj.exit.i, %for.body187.preheader.i
  %indvars.iv2592.i = phi i64 [ 0, %for.body187.preheader.i ], [ %indvars.iv.next2593.i, %_ZN5arrow8internal12_GLOBAL__N_113UnpackBits512ILNS0_13DispatchLevelE3EE11unpack16_32EPKjPj.exit.i ]
  %in.addr.162419.i = phi ptr [ %in, %for.body187.preheader.i ], [ %add.ptr95.i909.i, %_ZN5arrow8internal12_GLOBAL__N_113UnpackBits512ILNS0_13DispatchLevelE3EE11unpack16_32EPKjPj.exit.i ]
  %145 = load <8 x i32>, ptr %in.addr.162419.i, align 4
  %146 = shufflevector <8 x i32> %145, <8 x i32> poison, <16 x i32> <i32 0, i32 0, i32 1, i32 1, i32 2, i32 2, i32 3, i32 3, i32 4, i32 4, i32 5, i32 5, i32 6, i32 6, i32 7, i32 7>
  call void @llvm.lifetime.start.p0(i64 64, ptr nonnull %self_buffer.i.i.i.i.i835.i)
  call void @llvm.lifetime.start.p0(i64 64, ptr nonnull %other_buffer.i.i.i.i.i836.i)
  store <16 x i32> %146, ptr %self_buffer.i.i.i.i.i835.i, align 64
  store <8 x i64> <i64 68719476736, i64 68719476736, i64 68719476736, i64 68719476736, i64 68719476736, i64 68719476736, i64 68719476736, i64 68719476736>, ptr %other_buffer.i.i.i.i.i836.i, align 64
  br label %for.body.i.i.i.i.i863.i

for.body.i.i.i.i.i863.i:                          ; preds = %for.body.i.i.i.i.i863.i, %for.body187.i
  %i.05.i.i.i.i.i864.i = phi i64 [ 0, %for.body187.i ], [ %inc.i.i.i.i.i868.i, %for.body.i.i.i.i.i863.i ]
  %arrayidx2.i.i.i.i.i865.i = getelementptr inbounds [16 x i32], ptr %self_buffer.i.i.i.i.i835.i, i64 0, i64 %i.05.i.i.i.i.i864.i
  %147 = load i32, ptr %arrayidx2.i.i.i.i.i865.i, align 4
  %arrayidx3.i.i.i.i.i866.i = getelementptr inbounds [16 x i32], ptr %other_buffer.i.i.i.i.i836.i, i64 0, i64 %i.05.i.i.i.i.i864.i
  %148 = load i32, ptr %arrayidx3.i.i.i.i.i866.i, align 4
  %shr.i.i.i.i.i.i867.i = lshr i32 %147, %148
  store i32 %shr.i.i.i.i.i.i867.i, ptr %arrayidx2.i.i.i.i.i865.i, align 4
  %inc.i.i.i.i.i868.i = add nuw nsw i64 %i.05.i.i.i.i.i864.i, 1
  %exitcond.not.i.i.i.i.i869.i = icmp eq i64 %inc.i.i.i.i.i868.i, 16
  br i1 %exitcond.not.i.i.i.i.i869.i, label %_ZN5xsimdrsERKNS_5batchIjNS_8avx512bwEEES4_.exit.i870.i, label %for.body.i.i.i.i.i863.i, !llvm.loop !4

_ZN5xsimdrsERKNS_5batchIjNS_8avx512bwEEES4_.exit.i870.i: ; preds = %for.body.i.i.i.i.i863.i
  %149 = shl nsw i64 %indvars.iv2592.i, 5
  %add.ptr190.i = getelementptr inbounds i32, ptr %out, i64 %149
  %150 = load <8 x i64>, ptr %self_buffer.i.i.i.i.i835.i, align 64
  call void @llvm.lifetime.end.p0(i64 64, ptr nonnull %self_buffer.i.i.i.i.i835.i)
  call void @llvm.lifetime.end.p0(i64 64, ptr nonnull %other_buffer.i.i.i.i.i836.i)
  %and.i.i.i.i.i871.i = and <8 x i64> %150, <i64 281470681808895, i64 281470681808895, i64 281470681808895, i64 281470681808895, i64 281470681808895, i64 281470681808895, i64 281470681808895, i64 281470681808895>
  store <8 x i64> %and.i.i.i.i.i871.i, ptr %add.ptr190.i, align 1
  %add.ptr47.i872.i = getelementptr inbounds i32, ptr %in.addr.162419.i, i64 8
  %151 = load <8 x i32>, ptr %add.ptr47.i872.i, align 4
  %152 = shufflevector <8 x i32> %151, <8 x i32> poison, <16 x i32> <i32 0, i32 0, i32 1, i32 1, i32 2, i32 2, i32 3, i32 3, i32 4, i32 4, i32 5, i32 5, i32 6, i32 6, i32 7, i32 7>
  call void @llvm.lifetime.start.p0(i64 64, ptr nonnull %self_buffer.i.i.i.i85.i833.i)
  call void @llvm.lifetime.start.p0(i64 64, ptr nonnull %other_buffer.i.i.i.i86.i834.i)
  store <16 x i32> %152, ptr %self_buffer.i.i.i.i85.i833.i, align 64
  store <8 x i64> <i64 68719476736, i64 68719476736, i64 68719476736, i64 68719476736, i64 68719476736, i64 68719476736, i64 68719476736, i64 68719476736>, ptr %other_buffer.i.i.i.i86.i834.i, align 64
  br label %for.body.i.i.i.i88.i900.i

for.body.i.i.i.i88.i900.i:                        ; preds = %for.body.i.i.i.i88.i900.i, %_ZN5xsimdrsERKNS_5batchIjNS_8avx512bwEEES4_.exit.i870.i
  %i.05.i.i.i.i89.i901.i = phi i64 [ 0, %_ZN5xsimdrsERKNS_5batchIjNS_8avx512bwEEES4_.exit.i870.i ], [ %inc.i.i.i.i93.i905.i, %for.body.i.i.i.i88.i900.i ]
  %arrayidx2.i.i.i.i90.i902.i = getelementptr inbounds [16 x i32], ptr %self_buffer.i.i.i.i85.i833.i, i64 0, i64 %i.05.i.i.i.i89.i901.i
  %153 = load i32, ptr %arrayidx2.i.i.i.i90.i902.i, align 4
  %arrayidx3.i.i.i.i91.i903.i = getelementptr inbounds [16 x i32], ptr %other_buffer.i.i.i.i86.i834.i, i64 0, i64 %i.05.i.i.i.i89.i901.i
  %154 = load i32, ptr %arrayidx3.i.i.i.i91.i903.i, align 4
  %shr.i.i.i.i.i92.i904.i = lshr i32 %153, %154
  store i32 %shr.i.i.i.i.i92.i904.i, ptr %arrayidx2.i.i.i.i90.i902.i, align 4
  %inc.i.i.i.i93.i905.i = add nuw nsw i64 %i.05.i.i.i.i89.i901.i, 1
  %exitcond.not.i.i.i.i94.i906.i = icmp eq i64 %inc.i.i.i.i93.i905.i, 16
  br i1 %exitcond.not.i.i.i.i94.i906.i, label %_ZN5arrow8internal12_GLOBAL__N_113UnpackBits512ILNS0_13DispatchLevelE3EE11unpack16_32EPKjPj.exit.i, label %for.body.i.i.i.i88.i900.i, !llvm.loop !4

_ZN5arrow8internal12_GLOBAL__N_113UnpackBits512ILNS0_13DispatchLevelE3EE11unpack16_32EPKjPj.exit.i: ; preds = %for.body.i.i.i.i88.i900.i
  %add.ptr45.i907.i = getelementptr inbounds i32, ptr %add.ptr190.i, i64 16
  %155 = load <8 x i64>, ptr %self_buffer.i.i.i.i85.i833.i, align 64
  call void @llvm.lifetime.end.p0(i64 64, ptr nonnull %self_buffer.i.i.i.i85.i833.i)
  call void @llvm.lifetime.end.p0(i64 64, ptr nonnull %other_buffer.i.i.i.i86.i834.i)
  %and.i.i.i.i97.i908.i = and <8 x i64> %155, <i64 281470681808895, i64 281470681808895, i64 281470681808895, i64 281470681808895, i64 281470681808895, i64 281470681808895, i64 281470681808895, i64 281470681808895>
  store <8 x i64> %and.i.i.i.i97.i908.i, ptr %add.ptr45.i907.i, align 1
  %add.ptr95.i909.i = getelementptr inbounds i32, ptr %in.addr.162419.i, i64 16
  %indvars.iv.next2593.i = add nuw nsw i64 %indvars.iv2592.i, 1
  %exitcond2597.not.i = icmp eq i64 %indvars.iv.next2593.i, %wide.trip.count2596.i
  br i1 %exitcond2597.not.i, label %_ZN5arrow8internalL20unpack32_specializedINS0_12_GLOBAL__N_113UnpackBits512ILNS0_13DispatchLevelE3EEEEEiPKjPjii.exit, label %for.body187.i, !llvm.loop !21

for.body199.i:                                    ; preds = %_ZN5arrow8internal12_GLOBAL__N_113UnpackBits512ILNS0_13DispatchLevelE3EE11unpack17_32EPKjPj.exit.i, %for.body199.preheader.i
  %indvars.iv2586.i = phi i64 [ 0, %for.body199.preheader.i ], [ %indvars.iv.next2587.i, %_ZN5arrow8internal12_GLOBAL__N_113UnpackBits512ILNS0_13DispatchLevelE3EE11unpack17_32EPKjPj.exit.i ]
  %in.addr.172416.i = phi ptr [ %in, %for.body199.preheader.i ], [ %add.ptr172.i.i, %_ZN5arrow8internal12_GLOBAL__N_113UnpackBits512ILNS0_13DispatchLevelE3EE11unpack17_32EPKjPj.exit.i ]
  %ret.0.copyload.i.i912.i = load i32, ptr %in.addr.172416.i, align 4
  %add.ptr3.i913.i = getelementptr inbounds i32, ptr %in.addr.172416.i, i64 1
  %ret.0.copyload.i54.i914.i = load i32, ptr %add.ptr3.i913.i, align 4
  %or.i915.i = tail call i32 @llvm.fshl.i32(i32 %ret.0.copyload.i54.i914.i, i32 %ret.0.copyload.i.i912.i, i32 15)
  %add.ptr10.i.i = getelementptr inbounds i32, ptr %in.addr.172416.i, i64 2
  %ret.0.copyload.i57.i916.i = load i32, ptr %add.ptr10.i.i, align 4
  %or13.i.i = tail call i32 @llvm.fshl.i32(i32 %ret.0.copyload.i57.i916.i, i32 %ret.0.copyload.i54.i914.i, i32 13)
  %add.ptr19.i917.i = getelementptr inbounds i32, ptr %in.addr.172416.i, i64 3
  %ret.0.copyload.i60.i918.i = load i32, ptr %add.ptr19.i917.i, align 4
  %or22.i.i = tail call i32 @llvm.fshl.i32(i32 %ret.0.copyload.i60.i918.i, i32 %ret.0.copyload.i57.i916.i, i32 11)
  %add.ptr28.i919.i = getelementptr inbounds i32, ptr %in.addr.172416.i, i64 4
  %ret.0.copyload.i63.i920.i = load i32, ptr %add.ptr28.i919.i, align 4
  %or31.i921.i = tail call i32 @llvm.fshl.i32(i32 %ret.0.copyload.i63.i920.i, i32 %ret.0.copyload.i60.i918.i, i32 9)
  %add.ptr37.i.i = getelementptr inbounds i32, ptr %in.addr.172416.i, i64 5
  %ret.0.copyload.i66.i.i = load i32, ptr %add.ptr37.i.i, align 4
  %or40.i.i = tail call i32 @llvm.fshl.i32(i32 %ret.0.copyload.i66.i.i, i32 %ret.0.copyload.i63.i920.i, i32 7)
  %add.ptr46.i.i = getelementptr inbounds i32, ptr %in.addr.172416.i, i64 6
  %ret.0.copyload.i69.i922.i = load i32, ptr %add.ptr46.i.i, align 4
  %or49.i.i = tail call i32 @llvm.fshl.i32(i32 %ret.0.copyload.i69.i922.i, i32 %ret.0.copyload.i66.i.i, i32 5)
  %add.ptr55.i923.i = getelementptr inbounds i32, ptr %in.addr.172416.i, i64 7
  %ret.0.copyload.i72.i924.i = load i32, ptr %add.ptr55.i923.i, align 4
  %or58.i.i = tail call i32 @llvm.fshl.i32(i32 %ret.0.copyload.i72.i924.i, i32 %ret.0.copyload.i69.i922.i, i32 3)
  %add.ptr64.i925.i = getelementptr inbounds i32, ptr %in.addr.172416.i, i64 8
  %ret.0.copyload.i75.i926.i = load i32, ptr %add.ptr64.i925.i, align 4
  %or67.i.i = tail call i32 @llvm.fshl.i32(i32 %ret.0.copyload.i75.i926.i, i32 %ret.0.copyload.i72.i924.i, i32 1)
  %vecinit.i.i.i.i927.i = insertelement <16 x i32> undef, i32 %ret.0.copyload.i.i912.i, i64 0
  %vecinit1.i.i.i.i928.i = insertelement <16 x i32> %vecinit.i.i.i.i927.i, i32 %or.i915.i, i64 1
  %vecinit2.i.i.i.i929.i = insertelement <16 x i32> %vecinit1.i.i.i.i928.i, i32 %ret.0.copyload.i54.i914.i, i64 2
  %vecinit3.i.i.i.i930.i = insertelement <16 x i32> %vecinit2.i.i.i.i929.i, i32 %or13.i.i, i64 3
  %vecinit4.i.i.i.i931.i = insertelement <16 x i32> %vecinit3.i.i.i.i930.i, i32 %ret.0.copyload.i57.i916.i, i64 4
  %vecinit5.i.i.i.i932.i = insertelement <16 x i32> %vecinit4.i.i.i.i931.i, i32 %or22.i.i, i64 5
  %vecinit6.i.i.i.i933.i = insertelement <16 x i32> %vecinit5.i.i.i.i932.i, i32 %ret.0.copyload.i60.i918.i, i64 6
  %vecinit7.i.i.i.i934.i = insertelement <16 x i32> %vecinit6.i.i.i.i933.i, i32 %or31.i921.i, i64 7
  %vecinit8.i.i.i.i935.i = insertelement <16 x i32> %vecinit7.i.i.i.i934.i, i32 %ret.0.copyload.i63.i920.i, i64 8
  %vecinit9.i.i.i.i936.i = insertelement <16 x i32> %vecinit8.i.i.i.i935.i, i32 %or40.i.i, i64 9
  %vecinit10.i.i.i.i937.i = insertelement <16 x i32> %vecinit9.i.i.i.i936.i, i32 %ret.0.copyload.i66.i.i, i64 10
  %vecinit11.i.i.i.i938.i = insertelement <16 x i32> %vecinit10.i.i.i.i937.i, i32 %or49.i.i, i64 11
  %vecinit12.i.i.i.i939.i = insertelement <16 x i32> %vecinit11.i.i.i.i938.i, i32 %ret.0.copyload.i69.i922.i, i64 12
  %vecinit13.i.i.i.i940.i = insertelement <16 x i32> %vecinit12.i.i.i.i939.i, i32 %or58.i.i, i64 13
  %vecinit14.i.i.i.i941.i = insertelement <16 x i32> %vecinit13.i.i.i.i940.i, i32 %ret.0.copyload.i72.i924.i, i64 14
  %vecinit15.i.i.i.i942.i = insertelement <16 x i32> %vecinit14.i.i.i.i941.i, i32 %or67.i.i, i64 15
  call void @llvm.lifetime.start.p0(i64 64, ptr nonnull %self_buffer.i.i.i.i.i910.i)
  call void @llvm.lifetime.start.p0(i64 64, ptr nonnull %other_buffer.i.i.i.i.i911.i)
  store <16 x i32> %vecinit15.i.i.i.i942.i, ptr %self_buffer.i.i.i.i.i910.i, align 64
  store <8 x i64> <i64 0, i64 2, i64 4, i64 6, i64 8, i64 10, i64 12, i64 14>, ptr %other_buffer.i.i.i.i.i911.i, align 64
  br label %for.body.i.i.i.i.i943.i

for.body.i.i.i.i.i943.i:                          ; preds = %for.body.i.i.i.i.i943.i, %for.body199.i
  %i.05.i.i.i.i.i944.i = phi i64 [ 0, %for.body199.i ], [ %inc.i.i.i.i.i948.i, %for.body.i.i.i.i.i943.i ]
  %arrayidx2.i.i.i.i.i945.i = getelementptr inbounds [16 x i32], ptr %self_buffer.i.i.i.i.i910.i, i64 0, i64 %i.05.i.i.i.i.i944.i
  %156 = load i32, ptr %arrayidx2.i.i.i.i.i945.i, align 4
  %arrayidx3.i.i.i.i.i946.i = getelementptr inbounds [16 x i32], ptr %other_buffer.i.i.i.i.i911.i, i64 0, i64 %i.05.i.i.i.i.i944.i
  %157 = load i32, ptr %arrayidx3.i.i.i.i.i946.i, align 4
  %shr.i.i.i.i.i.i947.i = lshr i32 %156, %157
  store i32 %shr.i.i.i.i.i.i947.i, ptr %arrayidx2.i.i.i.i.i945.i, align 4
  %inc.i.i.i.i.i948.i = add nuw nsw i64 %i.05.i.i.i.i.i944.i, 1
  %exitcond.not.i.i.i.i.i949.i = icmp eq i64 %inc.i.i.i.i.i948.i, 16
  br i1 %exitcond.not.i.i.i.i.i949.i, label %_ZN5xsimdrsERKNS_5batchIjNS_8avx512bwEEES4_.exit.i950.i, label %for.body.i.i.i.i.i943.i, !llvm.loop !4

_ZN5xsimdrsERKNS_5batchIjNS_8avx512bwEEES4_.exit.i950.i: ; preds = %for.body.i.i.i.i.i943.i
  %158 = shl nsw i64 %indvars.iv2586.i, 5
  %add.ptr202.i = getelementptr inbounds i32, ptr %out, i64 %158
  %159 = load <8 x i64>, ptr %self_buffer.i.i.i.i.i910.i, align 64
  call void @llvm.lifetime.end.p0(i64 64, ptr nonnull %self_buffer.i.i.i.i.i910.i)
  call void @llvm.lifetime.end.p0(i64 64, ptr nonnull %other_buffer.i.i.i.i.i911.i)
  %and.i.i.i.i.i951.i = and <8 x i64> %159, <i64 562945658585087, i64 562945658585087, i64 562945658585087, i64 562945658585087, i64 562945658585087, i64 562945658585087, i64 562945658585087, i64 562945658585087>
  store <8 x i64> %and.i.i.i.i.i951.i, ptr %add.ptr202.i, align 1
  %ret.0.copyload.i77.i952.i = load i32, ptr %add.ptr64.i925.i, align 4
  %add.ptr87.i.i = getelementptr inbounds i32, ptr %in.addr.172416.i, i64 9
  %ret.0.copyload.i78.i953.i = load i32, ptr %add.ptr87.i.i, align 4
  %or90.i.i = tail call i32 @llvm.fshl.i32(i32 %ret.0.copyload.i78.i953.i, i32 %ret.0.copyload.i77.i952.i, i32 16)
  %add.ptr96.i954.i = getelementptr inbounds i32, ptr %in.addr.172416.i, i64 10
  %ret.0.copyload.i81.i955.i = load i32, ptr %add.ptr96.i954.i, align 4
  %or99.i956.i = tail call i32 @llvm.fshl.i32(i32 %ret.0.copyload.i81.i955.i, i32 %ret.0.copyload.i78.i953.i, i32 14)
  %add.ptr105.i.i = getelementptr inbounds i32, ptr %in.addr.172416.i, i64 11
  %ret.0.copyload.i84.i957.i = load i32, ptr %add.ptr105.i.i, align 4
  %or108.i.i = tail call i32 @llvm.fshl.i32(i32 %ret.0.copyload.i84.i957.i, i32 %ret.0.copyload.i81.i955.i, i32 12)
  %add.ptr114.i.i = getelementptr inbounds i32, ptr %in.addr.172416.i, i64 12
  %ret.0.copyload.i87.i958.i = load i32, ptr %add.ptr114.i.i, align 4
  %or117.i.i = tail call i32 @llvm.fshl.i32(i32 %ret.0.copyload.i87.i958.i, i32 %ret.0.copyload.i84.i957.i, i32 10)
  %add.ptr123.i.i = getelementptr inbounds i32, ptr %in.addr.172416.i, i64 13
  %ret.0.copyload.i90.i959.i = load i32, ptr %add.ptr123.i.i, align 4
  %or126.i.i = tail call i32 @llvm.fshl.i32(i32 %ret.0.copyload.i90.i959.i, i32 %ret.0.copyload.i87.i958.i, i32 8)
  %add.ptr132.i960.i = getelementptr inbounds i32, ptr %in.addr.172416.i, i64 14
  %ret.0.copyload.i93.i.i = load i32, ptr %add.ptr132.i960.i, align 4
  %or135.i.i = tail call i32 @llvm.fshl.i32(i32 %ret.0.copyload.i93.i.i, i32 %ret.0.copyload.i90.i959.i, i32 6)
  %add.ptr141.i.i = getelementptr inbounds i32, ptr %in.addr.172416.i, i64 15
  %ret.0.copyload.i96.i.i = load i32, ptr %add.ptr141.i.i, align 4
  %or144.i.i = tail call i32 @llvm.fshl.i32(i32 %ret.0.copyload.i96.i.i, i32 %ret.0.copyload.i93.i.i, i32 4)
  %add.ptr150.i.i = getelementptr inbounds i32, ptr %in.addr.172416.i, i64 16
  %ret.0.copyload.i99.i.i = load i32, ptr %add.ptr150.i.i, align 4
  %or153.i.i = tail call i32 @llvm.fshl.i32(i32 %ret.0.copyload.i99.i.i, i32 %ret.0.copyload.i96.i.i, i32 2)
  %vecinit.i.i.i101.i.i = insertelement <16 x i32> undef, i32 %or90.i.i, i64 0
  %vecinit1.i.i.i102.i.i = insertelement <16 x i32> %vecinit.i.i.i101.i.i, i32 %ret.0.copyload.i78.i953.i, i64 1
  %vecinit2.i.i.i103.i.i = insertelement <16 x i32> %vecinit1.i.i.i102.i.i, i32 %or99.i956.i, i64 2
  %vecinit3.i.i.i104.i.i = insertelement <16 x i32> %vecinit2.i.i.i103.i.i, i32 %ret.0.copyload.i81.i955.i, i64 3
  %vecinit4.i.i.i105.i.i = insertelement <16 x i32> %vecinit3.i.i.i104.i.i, i32 %or108.i.i, i64 4
  %vecinit5.i.i.i106.i.i = insertelement <16 x i32> %vecinit4.i.i.i105.i.i, i32 %ret.0.copyload.i84.i957.i, i64 5
  %vecinit6.i.i.i107.i.i = insertelement <16 x i32> %vecinit5.i.i.i106.i.i, i32 %or117.i.i, i64 6
  %vecinit7.i.i.i108.i.i = insertelement <16 x i32> %vecinit6.i.i.i107.i.i, i32 %ret.0.copyload.i87.i958.i, i64 7
  %vecinit8.i.i.i109.i.i = insertelement <16 x i32> %vecinit7.i.i.i108.i.i, i32 %or126.i.i, i64 8
  %vecinit9.i.i.i110.i.i = insertelement <16 x i32> %vecinit8.i.i.i109.i.i, i32 %ret.0.copyload.i90.i959.i, i64 9
  %vecinit10.i.i.i111.i.i = insertelement <16 x i32> %vecinit9.i.i.i110.i.i, i32 %or135.i.i, i64 10
  %vecinit11.i.i.i112.i.i = insertelement <16 x i32> %vecinit10.i.i.i111.i.i, i32 %ret.0.copyload.i93.i.i, i64 11
  %vecinit12.i.i.i113.i.i = insertelement <16 x i32> %vecinit11.i.i.i112.i.i, i32 %or144.i.i, i64 12
  %vecinit13.i.i.i114.i.i = insertelement <16 x i32> %vecinit12.i.i.i113.i.i, i32 %ret.0.copyload.i96.i.i, i64 13
  %vecinit14.i.i.i115.i.i = insertelement <16 x i32> %vecinit13.i.i.i114.i.i, i32 %or153.i.i, i64 14
  %vecinit15.i.i.i116.i.i = insertelement <16 x i32> %vecinit14.i.i.i115.i.i, i32 %ret.0.copyload.i99.i.i, i64 15
  call void @llvm.lifetime.start.p0(i64 64, ptr nonnull %self_buffer.i.i.i.i117.i.i)
  call void @llvm.lifetime.start.p0(i64 64, ptr nonnull %other_buffer.i.i.i.i118.i.i)
  store <16 x i32> %vecinit15.i.i.i116.i.i, ptr %self_buffer.i.i.i.i117.i.i, align 64
  store <8 x i64> <i64 4294967296, i64 12884901888, i64 21474836480, i64 30064771072, i64 38654705664, i64 47244640256, i64 55834574848, i64 64424509440>, ptr %other_buffer.i.i.i.i118.i.i, align 64
  br label %for.body.i.i.i.i120.i.i

for.body.i.i.i.i120.i.i:                          ; preds = %for.body.i.i.i.i120.i.i, %_ZN5xsimdrsERKNS_5batchIjNS_8avx512bwEEES4_.exit.i950.i
  %i.05.i.i.i.i121.i.i = phi i64 [ 0, %_ZN5xsimdrsERKNS_5batchIjNS_8avx512bwEEES4_.exit.i950.i ], [ %inc.i.i.i.i125.i.i, %for.body.i.i.i.i120.i.i ]
  %arrayidx2.i.i.i.i122.i.i = getelementptr inbounds [16 x i32], ptr %self_buffer.i.i.i.i117.i.i, i64 0, i64 %i.05.i.i.i.i121.i.i
  %160 = load i32, ptr %arrayidx2.i.i.i.i122.i.i, align 4
  %arrayidx3.i.i.i.i123.i.i = getelementptr inbounds [16 x i32], ptr %other_buffer.i.i.i.i118.i.i, i64 0, i64 %i.05.i.i.i.i121.i.i
  %161 = load i32, ptr %arrayidx3.i.i.i.i123.i.i, align 4
  %shr.i.i.i.i.i124.i.i = lshr i32 %160, %161
  store i32 %shr.i.i.i.i.i124.i.i, ptr %arrayidx2.i.i.i.i122.i.i, align 4
  %inc.i.i.i.i125.i.i = add nuw nsw i64 %i.05.i.i.i.i121.i.i, 1
  %exitcond.not.i.i.i.i126.i.i = icmp eq i64 %inc.i.i.i.i125.i.i, 16
  br i1 %exitcond.not.i.i.i.i126.i.i, label %_ZN5arrow8internal12_GLOBAL__N_113UnpackBits512ILNS0_13DispatchLevelE3EE11unpack17_32EPKjPj.exit.i, label %for.body.i.i.i.i120.i.i, !llvm.loop !4

_ZN5arrow8internal12_GLOBAL__N_113UnpackBits512ILNS0_13DispatchLevelE3EE11unpack17_32EPKjPj.exit.i: ; preds = %for.body.i.i.i.i120.i.i
  %add.ptr82.i961.i = getelementptr inbounds i32, ptr %add.ptr202.i, i64 16
  %162 = load <8 x i64>, ptr %self_buffer.i.i.i.i117.i.i, align 64
  call void @llvm.lifetime.end.p0(i64 64, ptr nonnull %self_buffer.i.i.i.i117.i.i)
  call void @llvm.lifetime.end.p0(i64 64, ptr nonnull %other_buffer.i.i.i.i118.i.i)
  %and.i.i.i.i129.i.i = and <8 x i64> %162, <i64 562945658585087, i64 562945658585087, i64 562945658585087, i64 562945658585087, i64 562945658585087, i64 562945658585087, i64 562945658585087, i64 562945658585087>
  store <8 x i64> %and.i.i.i.i129.i.i, ptr %add.ptr82.i961.i, align 1
  %add.ptr172.i.i = getelementptr inbounds i32, ptr %in.addr.172416.i, i64 17
  %indvars.iv.next2587.i = add nuw nsw i64 %indvars.iv2586.i, 1
  %exitcond2591.not.i = icmp eq i64 %indvars.iv.next2587.i, %wide.trip.count2590.i
  br i1 %exitcond2591.not.i, label %_ZN5arrow8internalL20unpack32_specializedINS0_12_GLOBAL__N_113UnpackBits512ILNS0_13DispatchLevelE3EEEEEiPKjPjii.exit, label %for.body199.i, !llvm.loop !22

for.body211.i:                                    ; preds = %_ZN5arrow8internal12_GLOBAL__N_113UnpackBits512ILNS0_13DispatchLevelE3EE11unpack18_32EPKjPj.exit.i, %for.body211.preheader.i
  %indvars.iv2580.i = phi i64 [ 0, %for.body211.preheader.i ], [ %indvars.iv.next2581.i, %_ZN5arrow8internal12_GLOBAL__N_113UnpackBits512ILNS0_13DispatchLevelE3EE11unpack18_32EPKjPj.exit.i ]
  %in.addr.182413.i = phi ptr [ %in, %for.body211.preheader.i ], [ %add.ptr172.i1057.i, %_ZN5arrow8internal12_GLOBAL__N_113UnpackBits512ILNS0_13DispatchLevelE3EE11unpack18_32EPKjPj.exit.i ]
  %ret.0.copyload.i.i966.i = load i32, ptr %in.addr.182413.i, align 4
  %add.ptr3.i967.i = getelementptr inbounds i32, ptr %in.addr.182413.i, i64 1
  %ret.0.copyload.i54.i968.i = load i32, ptr %add.ptr3.i967.i, align 4
  %or.i969.i = tail call i32 @llvm.fshl.i32(i32 %ret.0.copyload.i54.i968.i, i32 %ret.0.copyload.i.i966.i, i32 14)
  %add.ptr10.i970.i = getelementptr inbounds i32, ptr %in.addr.182413.i, i64 2
  %ret.0.copyload.i57.i971.i = load i32, ptr %add.ptr10.i970.i, align 4
  %or13.i972.i = tail call i32 @llvm.fshl.i32(i32 %ret.0.copyload.i57.i971.i, i32 %ret.0.copyload.i54.i968.i, i32 10)
  %add.ptr19.i973.i = getelementptr inbounds i32, ptr %in.addr.182413.i, i64 3
  %ret.0.copyload.i60.i974.i = load i32, ptr %add.ptr19.i973.i, align 4
  %or22.i975.i = tail call i32 @llvm.fshl.i32(i32 %ret.0.copyload.i60.i974.i, i32 %ret.0.copyload.i57.i971.i, i32 6)
  %add.ptr28.i976.i = getelementptr inbounds i32, ptr %in.addr.182413.i, i64 4
  %ret.0.copyload.i63.i977.i = load i32, ptr %add.ptr28.i976.i, align 4
  %or31.i978.i = tail call i32 @llvm.fshl.i32(i32 %ret.0.copyload.i63.i977.i, i32 %ret.0.copyload.i60.i974.i, i32 2)
  %add.ptr35.i979.i = getelementptr inbounds i32, ptr %in.addr.182413.i, i64 5
  %ret.0.copyload.i65.i980.i = load i32, ptr %add.ptr35.i979.i, align 4
  %or38.i981.i = tail call i32 @llvm.fshl.i32(i32 %ret.0.copyload.i65.i980.i, i32 %ret.0.copyload.i63.i977.i, i32 16)
  %add.ptr44.i.i = getelementptr inbounds i32, ptr %in.addr.182413.i, i64 6
  %ret.0.copyload.i68.i982.i = load i32, ptr %add.ptr44.i.i, align 4
  %or47.i.i = tail call i32 @llvm.fshl.i32(i32 %ret.0.copyload.i68.i982.i, i32 %ret.0.copyload.i65.i980.i, i32 12)
  %add.ptr53.i.i = getelementptr inbounds i32, ptr %in.addr.182413.i, i64 7
  %ret.0.copyload.i71.i983.i = load i32, ptr %add.ptr53.i.i, align 4
  %or56.i.i = tail call i32 @llvm.fshl.i32(i32 %ret.0.copyload.i71.i983.i, i32 %ret.0.copyload.i68.i982.i, i32 8)
  %add.ptr62.i984.i = getelementptr inbounds i32, ptr %in.addr.182413.i, i64 8
  %ret.0.copyload.i74.i985.i = load i32, ptr %add.ptr62.i984.i, align 4
  %or65.i986.i = tail call i32 @llvm.fshl.i32(i32 %ret.0.copyload.i74.i985.i, i32 %ret.0.copyload.i71.i983.i, i32 4)
  %vecinit.i.i.i.i987.i = insertelement <16 x i32> undef, i32 %ret.0.copyload.i.i966.i, i64 0
  %vecinit1.i.i.i.i988.i = insertelement <16 x i32> %vecinit.i.i.i.i987.i, i32 %or.i969.i, i64 1
  %vecinit2.i.i.i.i989.i = insertelement <16 x i32> %vecinit1.i.i.i.i988.i, i32 %ret.0.copyload.i54.i968.i, i64 2
  %vecinit3.i.i.i.i990.i = insertelement <16 x i32> %vecinit2.i.i.i.i989.i, i32 %or13.i972.i, i64 3
  %vecinit4.i.i.i.i991.i = insertelement <16 x i32> %vecinit3.i.i.i.i990.i, i32 %ret.0.copyload.i57.i971.i, i64 4
  %vecinit5.i.i.i.i992.i = insertelement <16 x i32> %vecinit4.i.i.i.i991.i, i32 %or22.i975.i, i64 5
  %vecinit6.i.i.i.i993.i = insertelement <16 x i32> %vecinit5.i.i.i.i992.i, i32 %ret.0.copyload.i60.i974.i, i64 6
  %vecinit7.i.i.i.i994.i = insertelement <16 x i32> %vecinit6.i.i.i.i993.i, i32 %or31.i978.i, i64 7
  %vecinit8.i.i.i.i995.i = insertelement <16 x i32> %vecinit7.i.i.i.i994.i, i32 %or38.i981.i, i64 8
  %vecinit9.i.i.i.i996.i = insertelement <16 x i32> %vecinit8.i.i.i.i995.i, i32 %ret.0.copyload.i65.i980.i, i64 9
  %vecinit10.i.i.i.i997.i = insertelement <16 x i32> %vecinit9.i.i.i.i996.i, i32 %or47.i.i, i64 10
  %vecinit11.i.i.i.i998.i = insertelement <16 x i32> %vecinit10.i.i.i.i997.i, i32 %ret.0.copyload.i68.i982.i, i64 11
  %vecinit12.i.i.i.i999.i = insertelement <16 x i32> %vecinit11.i.i.i.i998.i, i32 %or56.i.i, i64 12
  %vecinit13.i.i.i.i1000.i = insertelement <16 x i32> %vecinit12.i.i.i.i999.i, i32 %ret.0.copyload.i71.i983.i, i64 13
  %vecinit14.i.i.i.i1001.i = insertelement <16 x i32> %vecinit13.i.i.i.i1000.i, i32 %or65.i986.i, i64 14
  %vecinit15.i.i.i.i1002.i = insertelement <16 x i32> %vecinit14.i.i.i.i1001.i, i32 %ret.0.copyload.i74.i985.i, i64 15
  call void @llvm.lifetime.start.p0(i64 64, ptr nonnull %self_buffer.i.i.i.i.i964.i)
  call void @llvm.lifetime.start.p0(i64 64, ptr nonnull %other_buffer.i.i.i.i.i965.i)
  store <16 x i32> %vecinit15.i.i.i.i1002.i, ptr %self_buffer.i.i.i.i.i964.i, align 64
  store <8 x i64> <i64 0, i64 4, i64 8, i64 12, i64 8589934592, i64 25769803776, i64 42949672960, i64 60129542144>, ptr %other_buffer.i.i.i.i.i965.i, align 64
  br label %for.body.i.i.i.i.i1003.i

for.body.i.i.i.i.i1003.i:                         ; preds = %for.body.i.i.i.i.i1003.i, %for.body211.i
  %i.05.i.i.i.i.i1004.i = phi i64 [ 0, %for.body211.i ], [ %inc.i.i.i.i.i1008.i, %for.body.i.i.i.i.i1003.i ]
  %arrayidx2.i.i.i.i.i1005.i = getelementptr inbounds [16 x i32], ptr %self_buffer.i.i.i.i.i964.i, i64 0, i64 %i.05.i.i.i.i.i1004.i
  %163 = load i32, ptr %arrayidx2.i.i.i.i.i1005.i, align 4
  %arrayidx3.i.i.i.i.i1006.i = getelementptr inbounds [16 x i32], ptr %other_buffer.i.i.i.i.i965.i, i64 0, i64 %i.05.i.i.i.i.i1004.i
  %164 = load i32, ptr %arrayidx3.i.i.i.i.i1006.i, align 4
  %shr.i.i.i.i.i.i1007.i = lshr i32 %163, %164
  store i32 %shr.i.i.i.i.i.i1007.i, ptr %arrayidx2.i.i.i.i.i1005.i, align 4
  %inc.i.i.i.i.i1008.i = add nuw nsw i64 %i.05.i.i.i.i.i1004.i, 1
  %exitcond.not.i.i.i.i.i1009.i = icmp eq i64 %inc.i.i.i.i.i1008.i, 16
  br i1 %exitcond.not.i.i.i.i.i1009.i, label %_ZN5xsimdrsERKNS_5batchIjNS_8avx512bwEEES4_.exit.i1010.i, label %for.body.i.i.i.i.i1003.i, !llvm.loop !4

_ZN5xsimdrsERKNS_5batchIjNS_8avx512bwEEES4_.exit.i1010.i: ; preds = %for.body.i.i.i.i.i1003.i
  %165 = shl nsw i64 %indvars.iv2580.i, 5
  %add.ptr214.i = getelementptr inbounds i32, ptr %out, i64 %165
  %166 = load <8 x i64>, ptr %self_buffer.i.i.i.i.i964.i, align 64
  call void @llvm.lifetime.end.p0(i64 64, ptr nonnull %self_buffer.i.i.i.i.i964.i)
  call void @llvm.lifetime.end.p0(i64 64, ptr nonnull %other_buffer.i.i.i.i.i965.i)
  %and.i.i.i.i.i1011.i = and <8 x i64> %166, <i64 1125895612137471, i64 1125895612137471, i64 1125895612137471, i64 1125895612137471, i64 1125895612137471, i64 1125895612137471, i64 1125895612137471, i64 1125895612137471>
  store <8 x i64> %and.i.i.i.i.i1011.i, ptr %add.ptr214.i, align 1
  %add.ptr84.i1012.i = getelementptr inbounds i32, ptr %in.addr.182413.i, i64 9
  %ret.0.copyload.i77.i1013.i = load i32, ptr %add.ptr84.i1012.i, align 4
  %add.ptr89.i.i = getelementptr inbounds i32, ptr %in.addr.182413.i, i64 10
  %ret.0.copyload.i79.i1014.i = load i32, ptr %add.ptr89.i.i, align 4
  %or92.i.i = tail call i32 @llvm.fshl.i32(i32 %ret.0.copyload.i79.i1014.i, i32 %ret.0.copyload.i77.i1013.i, i32 14)
  %add.ptr98.i.i = getelementptr inbounds i32, ptr %in.addr.182413.i, i64 11
  %ret.0.copyload.i82.i1015.i = load i32, ptr %add.ptr98.i.i, align 4
  %or101.i.i = tail call i32 @llvm.fshl.i32(i32 %ret.0.copyload.i82.i1015.i, i32 %ret.0.copyload.i79.i1014.i, i32 10)
  %add.ptr107.i1016.i = getelementptr inbounds i32, ptr %in.addr.182413.i, i64 12
  %ret.0.copyload.i85.i1017.i = load i32, ptr %add.ptr107.i1016.i, align 4
  %or110.i1018.i = tail call i32 @llvm.fshl.i32(i32 %ret.0.copyload.i85.i1017.i, i32 %ret.0.copyload.i82.i1015.i, i32 6)
  %add.ptr116.i.i = getelementptr inbounds i32, ptr %in.addr.182413.i, i64 13
  %ret.0.copyload.i88.i1019.i = load i32, ptr %add.ptr116.i.i, align 4
  %or119.i.i = tail call i32 @llvm.fshl.i32(i32 %ret.0.copyload.i88.i1019.i, i32 %ret.0.copyload.i85.i1017.i, i32 2)
  %add.ptr123.i1020.i = getelementptr inbounds i32, ptr %in.addr.182413.i, i64 14
  %ret.0.copyload.i90.i1021.i = load i32, ptr %add.ptr123.i1020.i, align 4
  %or126.i1022.i = tail call i32 @llvm.fshl.i32(i32 %ret.0.copyload.i90.i1021.i, i32 %ret.0.copyload.i88.i1019.i, i32 16)
  %add.ptr132.i1023.i = getelementptr inbounds i32, ptr %in.addr.182413.i, i64 15
  %ret.0.copyload.i93.i1024.i = load i32, ptr %add.ptr132.i1023.i, align 4
  %or135.i1025.i = tail call i32 @llvm.fshl.i32(i32 %ret.0.copyload.i93.i1024.i, i32 %ret.0.copyload.i90.i1021.i, i32 12)
  %add.ptr141.i1026.i = getelementptr inbounds i32, ptr %in.addr.182413.i, i64 16
  %ret.0.copyload.i96.i1027.i = load i32, ptr %add.ptr141.i1026.i, align 4
  %or144.i1028.i = tail call i32 @llvm.fshl.i32(i32 %ret.0.copyload.i96.i1027.i, i32 %ret.0.copyload.i93.i1024.i, i32 8)
  %add.ptr150.i1029.i = getelementptr inbounds i32, ptr %in.addr.182413.i, i64 17
  %ret.0.copyload.i99.i1030.i = load i32, ptr %add.ptr150.i1029.i, align 4
  %or153.i1031.i = tail call i32 @llvm.fshl.i32(i32 %ret.0.copyload.i99.i1030.i, i32 %ret.0.copyload.i96.i1027.i, i32 4)
  %vecinit.i.i.i101.i1032.i = insertelement <16 x i32> undef, i32 %ret.0.copyload.i77.i1013.i, i64 0
  %vecinit1.i.i.i102.i1033.i = insertelement <16 x i32> %vecinit.i.i.i101.i1032.i, i32 %or92.i.i, i64 1
  %vecinit2.i.i.i103.i1034.i = insertelement <16 x i32> %vecinit1.i.i.i102.i1033.i, i32 %ret.0.copyload.i79.i1014.i, i64 2
  %vecinit3.i.i.i104.i1035.i = insertelement <16 x i32> %vecinit2.i.i.i103.i1034.i, i32 %or101.i.i, i64 3
  %vecinit4.i.i.i105.i1036.i = insertelement <16 x i32> %vecinit3.i.i.i104.i1035.i, i32 %ret.0.copyload.i82.i1015.i, i64 4
  %vecinit5.i.i.i106.i1037.i = insertelement <16 x i32> %vecinit4.i.i.i105.i1036.i, i32 %or110.i1018.i, i64 5
  %vecinit6.i.i.i107.i1038.i = insertelement <16 x i32> %vecinit5.i.i.i106.i1037.i, i32 %ret.0.copyload.i85.i1017.i, i64 6
  %vecinit7.i.i.i108.i1039.i = insertelement <16 x i32> %vecinit6.i.i.i107.i1038.i, i32 %or119.i.i, i64 7
  %vecinit8.i.i.i109.i1040.i = insertelement <16 x i32> %vecinit7.i.i.i108.i1039.i, i32 %or126.i1022.i, i64 8
  %vecinit9.i.i.i110.i1041.i = insertelement <16 x i32> %vecinit8.i.i.i109.i1040.i, i32 %ret.0.copyload.i90.i1021.i, i64 9
  %vecinit10.i.i.i111.i1042.i = insertelement <16 x i32> %vecinit9.i.i.i110.i1041.i, i32 %or135.i1025.i, i64 10
  %vecinit11.i.i.i112.i1043.i = insertelement <16 x i32> %vecinit10.i.i.i111.i1042.i, i32 %ret.0.copyload.i93.i1024.i, i64 11
  %vecinit12.i.i.i113.i1044.i = insertelement <16 x i32> %vecinit11.i.i.i112.i1043.i, i32 %or144.i1028.i, i64 12
  %vecinit13.i.i.i114.i1045.i = insertelement <16 x i32> %vecinit12.i.i.i113.i1044.i, i32 %ret.0.copyload.i96.i1027.i, i64 13
  %vecinit14.i.i.i115.i1046.i = insertelement <16 x i32> %vecinit13.i.i.i114.i1045.i, i32 %or153.i1031.i, i64 14
  %vecinit15.i.i.i116.i1047.i = insertelement <16 x i32> %vecinit14.i.i.i115.i1046.i, i32 %ret.0.copyload.i99.i1030.i, i64 15
  call void @llvm.lifetime.start.p0(i64 64, ptr nonnull %self_buffer.i.i.i.i117.i962.i)
  call void @llvm.lifetime.start.p0(i64 64, ptr nonnull %other_buffer.i.i.i.i118.i963.i)
  store <16 x i32> %vecinit15.i.i.i116.i1047.i, ptr %self_buffer.i.i.i.i117.i962.i, align 64
  store <8 x i64> <i64 0, i64 4, i64 8, i64 12, i64 8589934592, i64 25769803776, i64 42949672960, i64 60129542144>, ptr %other_buffer.i.i.i.i118.i963.i, align 64
  br label %for.body.i.i.i.i120.i1048.i

for.body.i.i.i.i120.i1048.i:                      ; preds = %for.body.i.i.i.i120.i1048.i, %_ZN5xsimdrsERKNS_5batchIjNS_8avx512bwEEES4_.exit.i1010.i
  %i.05.i.i.i.i121.i1049.i = phi i64 [ 0, %_ZN5xsimdrsERKNS_5batchIjNS_8avx512bwEEES4_.exit.i1010.i ], [ %inc.i.i.i.i125.i1053.i, %for.body.i.i.i.i120.i1048.i ]
  %arrayidx2.i.i.i.i122.i1050.i = getelementptr inbounds [16 x i32], ptr %self_buffer.i.i.i.i117.i962.i, i64 0, i64 %i.05.i.i.i.i121.i1049.i
  %167 = load i32, ptr %arrayidx2.i.i.i.i122.i1050.i, align 4
  %arrayidx3.i.i.i.i123.i1051.i = getelementptr inbounds [16 x i32], ptr %other_buffer.i.i.i.i118.i963.i, i64 0, i64 %i.05.i.i.i.i121.i1049.i
  %168 = load i32, ptr %arrayidx3.i.i.i.i123.i1051.i, align 4
  %shr.i.i.i.i.i124.i1052.i = lshr i32 %167, %168
  store i32 %shr.i.i.i.i.i124.i1052.i, ptr %arrayidx2.i.i.i.i122.i1050.i, align 4
  %inc.i.i.i.i125.i1053.i = add nuw nsw i64 %i.05.i.i.i.i121.i1049.i, 1
  %exitcond.not.i.i.i.i126.i1054.i = icmp eq i64 %inc.i.i.i.i125.i1053.i, 16
  br i1 %exitcond.not.i.i.i.i126.i1054.i, label %_ZN5arrow8internal12_GLOBAL__N_113UnpackBits512ILNS0_13DispatchLevelE3EE11unpack18_32EPKjPj.exit.i, label %for.body.i.i.i.i120.i1048.i, !llvm.loop !4

_ZN5arrow8internal12_GLOBAL__N_113UnpackBits512ILNS0_13DispatchLevelE3EE11unpack18_32EPKjPj.exit.i: ; preds = %for.body.i.i.i.i120.i1048.i
  %add.ptr82.i1055.i = getelementptr inbounds i32, ptr %add.ptr214.i, i64 16
  %169 = load <8 x i64>, ptr %self_buffer.i.i.i.i117.i962.i, align 64
  call void @llvm.lifetime.end.p0(i64 64, ptr nonnull %self_buffer.i.i.i.i117.i962.i)
  call void @llvm.lifetime.end.p0(i64 64, ptr nonnull %other_buffer.i.i.i.i118.i963.i)
  %and.i.i.i.i129.i1056.i = and <8 x i64> %169, <i64 1125895612137471, i64 1125895612137471, i64 1125895612137471, i64 1125895612137471, i64 1125895612137471, i64 1125895612137471, i64 1125895612137471, i64 1125895612137471>
  store <8 x i64> %and.i.i.i.i129.i1056.i, ptr %add.ptr82.i1055.i, align 1
  %add.ptr172.i1057.i = getelementptr inbounds i32, ptr %in.addr.182413.i, i64 18
  %indvars.iv.next2581.i = add nuw nsw i64 %indvars.iv2580.i, 1
  %exitcond2585.not.i = icmp eq i64 %indvars.iv.next2581.i, %wide.trip.count2584.i
  br i1 %exitcond2585.not.i, label %_ZN5arrow8internalL20unpack32_specializedINS0_12_GLOBAL__N_113UnpackBits512ILNS0_13DispatchLevelE3EEEEEiPKjPjii.exit, label %for.body211.i, !llvm.loop !23

for.body223.i:                                    ; preds = %_ZN5arrow8internal12_GLOBAL__N_113UnpackBits512ILNS0_13DispatchLevelE3EE11unpack19_32EPKjPj.exit.i, %for.body223.preheader.i
  %indvars.iv2574.i = phi i64 [ 0, %for.body223.preheader.i ], [ %indvars.iv.next2575.i, %_ZN5arrow8internal12_GLOBAL__N_113UnpackBits512ILNS0_13DispatchLevelE3EE11unpack19_32EPKjPj.exit.i ]
  %in.addr.192410.i = phi ptr [ %in, %for.body223.preheader.i ], [ %add.ptr182.i.i, %_ZN5arrow8internal12_GLOBAL__N_113UnpackBits512ILNS0_13DispatchLevelE3EE11unpack19_32EPKjPj.exit.i ]
  %ret.0.copyload.i.i1060.i = load i32, ptr %in.addr.192410.i, align 4
  %add.ptr3.i1061.i = getelementptr inbounds i32, ptr %in.addr.192410.i, i64 1
  %ret.0.copyload.i56.i1062.i = load i32, ptr %add.ptr3.i1061.i, align 4
  %or.i1063.i = tail call i32 @llvm.fshl.i32(i32 %ret.0.copyload.i56.i1062.i, i32 %ret.0.copyload.i.i1060.i, i32 13)
  %add.ptr10.i1064.i = getelementptr inbounds i32, ptr %in.addr.192410.i, i64 2
  %ret.0.copyload.i59.i1065.i = load i32, ptr %add.ptr10.i1064.i, align 4
  %or13.i1066.i = tail call i32 @llvm.fshl.i32(i32 %ret.0.copyload.i59.i1065.i, i32 %ret.0.copyload.i56.i1062.i, i32 7)
  %add.ptr19.i1067.i = getelementptr inbounds i32, ptr %in.addr.192410.i, i64 3
  %170 = load <2 x i32>, ptr %add.ptr19.i1067.i, align 4
  %171 = insertelement <2 x i32> poison, i32 %ret.0.copyload.i59.i1065.i, i64 0
  %172 = shufflevector <2 x i32> %171, <2 x i32> %170, <2 x i32> <i32 0, i32 2>
  %173 = tail call <2 x i32> @llvm.fshl.v2i32(<2 x i32> %170, <2 x i32> %172, <2 x i32> <i32 1, i32 14>)
  %add.ptr35.i1071.i = getelementptr inbounds i32, ptr %in.addr.192410.i, i64 5
  %ret.0.copyload.i67.i1072.i = load i32, ptr %add.ptr35.i1071.i, align 4
  %174 = extractelement <2 x i32> %170, i64 1
  %or38.i1073.i = tail call i32 @llvm.fshl.i32(i32 %ret.0.copyload.i67.i1072.i, i32 %174, i32 8)
  %add.ptr44.i1074.i = getelementptr inbounds i32, ptr %in.addr.192410.i, i64 6
  %175 = load <2 x i32>, ptr %add.ptr44.i1074.i, align 4
  %176 = insertelement <2 x i32> poison, i32 %ret.0.copyload.i67.i1072.i, i64 0
  %177 = shufflevector <2 x i32> %176, <2 x i32> %175, <2 x i32> <i32 0, i32 2>
  %178 = tail call <2 x i32> @llvm.fshl.v2i32(<2 x i32> %175, <2 x i32> %177, <2 x i32> <i32 2, i32 15>)
  %add.ptr60.i.i = getelementptr inbounds i32, ptr %in.addr.192410.i, i64 8
  %ret.0.copyload.i75.i1079.i = load i32, ptr %add.ptr60.i.i, align 4
  %179 = extractelement <2 x i32> %175, i64 1
  %or63.i.i = tail call i32 @llvm.fshl.i32(i32 %ret.0.copyload.i75.i1079.i, i32 %179, i32 9)
  %add.ptr69.i1080.i = getelementptr inbounds i32, ptr %in.addr.192410.i, i64 9
  %ret.0.copyload.i78.i1081.i = load i32, ptr %add.ptr69.i1080.i, align 4
  %or72.i1082.i = tail call i32 @llvm.fshl.i32(i32 %ret.0.copyload.i78.i1081.i, i32 %ret.0.copyload.i75.i1079.i, i32 3)
  %vecinit.i.i.i.i1083.i = insertelement <16 x i32> undef, i32 %ret.0.copyload.i.i1060.i, i64 0
  %vecinit1.i.i.i.i1084.i = insertelement <16 x i32> %vecinit.i.i.i.i1083.i, i32 %or.i1063.i, i64 1
  %vecinit2.i.i.i.i1085.i = insertelement <16 x i32> %vecinit1.i.i.i.i1084.i, i32 %ret.0.copyload.i56.i1062.i, i64 2
  %vecinit3.i.i.i.i1086.i = insertelement <16 x i32> %vecinit2.i.i.i.i1085.i, i32 %or13.i1066.i, i64 3
  %vecinit4.i.i.i.i1087.i = insertelement <16 x i32> %vecinit3.i.i.i.i1086.i, i32 %ret.0.copyload.i59.i1065.i, i64 4
  %180 = shufflevector <2 x i32> %173, <2 x i32> poison, <16 x i32> <i32 0, i32 1, i32 poison, i32 poison, i32 poison, i32 poison, i32 poison, i32 poison, i32 poison, i32 poison, i32 poison, i32 poison, i32 poison, i32 poison, i32 poison, i32 poison>
  %vecinit6.i.i.i.i1089.i135 = shufflevector <16 x i32> %vecinit4.i.i.i.i1087.i, <16 x i32> %180, <16 x i32> <i32 0, i32 1, i32 2, i32 3, i32 4, i32 16, i32 17, i32 poison, i32 poison, i32 poison, i32 poison, i32 poison, i32 poison, i32 poison, i32 poison, i32 poison>
  %181 = shufflevector <2 x i32> %170, <2 x i32> poison, <16 x i32> <i32 poison, i32 1, i32 poison, i32 poison, i32 poison, i32 poison, i32 poison, i32 poison, i32 poison, i32 poison, i32 poison, i32 poison, i32 poison, i32 poison, i32 poison, i32 poison>
  %182 = shufflevector <16 x i32> %vecinit6.i.i.i.i1089.i135, <16 x i32> %181, <16 x i32> <i32 0, i32 1, i32 2, i32 3, i32 4, i32 5, i32 6, i32 17, i32 poison, i32 poison, i32 poison, i32 poison, i32 poison, i32 poison, i32 poison, i32 poison>
  %vecinit8.i.i.i.i1091.i = insertelement <16 x i32> %182, i32 %or38.i1073.i, i64 8
  %vecinit9.i.i.i.i1092.i = insertelement <16 x i32> %vecinit8.i.i.i.i1091.i, i32 %ret.0.copyload.i67.i1072.i, i64 9
  %183 = shufflevector <2 x i32> %178, <2 x i32> poison, <16 x i32> <i32 0, i32 1, i32 poison, i32 poison, i32 poison, i32 poison, i32 poison, i32 poison, i32 poison, i32 poison, i32 poison, i32 poison, i32 poison, i32 poison, i32 poison, i32 poison>
  %vecinit11.i.i.i.i1094.i134 = shufflevector <16 x i32> %vecinit9.i.i.i.i1092.i, <16 x i32> %183, <16 x i32> <i32 0, i32 1, i32 2, i32 3, i32 4, i32 5, i32 6, i32 7, i32 8, i32 9, i32 16, i32 17, i32 poison, i32 poison, i32 poison, i32 poison>
  %184 = shufflevector <2 x i32> %175, <2 x i32> poison, <16 x i32> <i32 poison, i32 1, i32 poison, i32 poison, i32 poison, i32 poison, i32 poison, i32 poison, i32 poison, i32 poison, i32 poison, i32 poison, i32 poison, i32 poison, i32 poison, i32 poison>
  %185 = shufflevector <16 x i32> %vecinit11.i.i.i.i1094.i134, <16 x i32> %184, <16 x i32> <i32 0, i32 1, i32 2, i32 3, i32 4, i32 5, i32 6, i32 7, i32 8, i32 9, i32 10, i32 11, i32 17, i32 poison, i32 poison, i32 poison>
  %vecinit13.i.i.i.i1096.i = insertelement <16 x i32> %185, i32 %or63.i.i, i64 13
  %vecinit14.i.i.i.i1097.i = insertelement <16 x i32> %vecinit13.i.i.i.i1096.i, i32 %ret.0.copyload.i75.i1079.i, i64 14
  %vecinit15.i.i.i.i1098.i = insertelement <16 x i32> %vecinit14.i.i.i.i1097.i, i32 %or72.i1082.i, i64 15
  call void @llvm.lifetime.start.p0(i64 64, ptr nonnull %self_buffer.i.i.i.i.i1058.i)
  call void @llvm.lifetime.start.p0(i64 64, ptr nonnull %other_buffer.i.i.i.i.i1059.i)
  store <16 x i32> %vecinit15.i.i.i.i1098.i, ptr %self_buffer.i.i.i.i.i1058.i, align 64
  store <8 x i64> <i64 0, i64 6, i64 12, i64 21474836480, i64 47244640256, i64 0, i64 4, i64 10>, ptr %other_buffer.i.i.i.i.i1059.i, align 64
  br label %for.body.i.i.i.i.i1099.i

for.body.i.i.i.i.i1099.i:                         ; preds = %for.body.i.i.i.i.i1099.i, %for.body223.i
  %i.05.i.i.i.i.i1100.i = phi i64 [ 0, %for.body223.i ], [ %inc.i.i.i.i.i1104.i, %for.body.i.i.i.i.i1099.i ]
  %arrayidx2.i.i.i.i.i1101.i = getelementptr inbounds [16 x i32], ptr %self_buffer.i.i.i.i.i1058.i, i64 0, i64 %i.05.i.i.i.i.i1100.i
  %186 = load i32, ptr %arrayidx2.i.i.i.i.i1101.i, align 4
  %arrayidx3.i.i.i.i.i1102.i = getelementptr inbounds [16 x i32], ptr %other_buffer.i.i.i.i.i1059.i, i64 0, i64 %i.05.i.i.i.i.i1100.i
  %187 = load i32, ptr %arrayidx3.i.i.i.i.i1102.i, align 4
  %shr.i.i.i.i.i.i1103.i = lshr i32 %186, %187
  store i32 %shr.i.i.i.i.i.i1103.i, ptr %arrayidx2.i.i.i.i.i1101.i, align 4
  %inc.i.i.i.i.i1104.i = add nuw nsw i64 %i.05.i.i.i.i.i1100.i, 1
  %exitcond.not.i.i.i.i.i1105.i = icmp eq i64 %inc.i.i.i.i.i1104.i, 16
  br i1 %exitcond.not.i.i.i.i.i1105.i, label %_ZN5xsimdrsERKNS_5batchIjNS_8avx512bwEEES4_.exit.i1106.i, label %for.body.i.i.i.i.i1099.i, !llvm.loop !4

_ZN5xsimdrsERKNS_5batchIjNS_8avx512bwEEES4_.exit.i1106.i: ; preds = %for.body.i.i.i.i.i1099.i
  %188 = shl nsw i64 %indvars.iv2574.i, 5
  %add.ptr226.i = getelementptr inbounds i32, ptr %out, i64 %188
  %189 = load <8 x i64>, ptr %self_buffer.i.i.i.i.i1058.i, align 64
  call void @llvm.lifetime.end.p0(i64 64, ptr nonnull %self_buffer.i.i.i.i.i1058.i)
  call void @llvm.lifetime.end.p0(i64 64, ptr nonnull %other_buffer.i.i.i.i.i1059.i)
  %and.i.i.i.i.i1107.i = and <8 x i64> %189, <i64 2251795519242239, i64 2251795519242239, i64 2251795519242239, i64 2251795519242239, i64 2251795519242239, i64 2251795519242239, i64 2251795519242239, i64 2251795519242239>
  store <8 x i64> %and.i.i.i.i.i1107.i, ptr %add.ptr226.i, align 1
  %ret.0.copyload.i80.i1108.i = load i32, ptr %add.ptr69.i1080.i, align 4
  %add.ptr92.i.i = getelementptr inbounds i32, ptr %in.addr.192410.i, i64 10
  %ret.0.copyload.i81.i1109.i = load i32, ptr %add.ptr92.i.i, align 4
  %or95.i.i = tail call i32 @llvm.fshl.i32(i32 %ret.0.copyload.i81.i1109.i, i32 %ret.0.copyload.i80.i1108.i, i32 16)
  %add.ptr101.i.i = getelementptr inbounds i32, ptr %in.addr.192410.i, i64 11
  %ret.0.copyload.i84.i1110.i = load i32, ptr %add.ptr101.i.i, align 4
  %or104.i.i = tail call i32 @llvm.fshl.i32(i32 %ret.0.copyload.i84.i1110.i, i32 %ret.0.copyload.i81.i1109.i, i32 10)
  %add.ptr110.i1111.i = getelementptr inbounds i32, ptr %in.addr.192410.i, i64 12
  %190 = load <2 x i32>, ptr %add.ptr110.i1111.i, align 4
  %191 = insertelement <2 x i32> poison, i32 %ret.0.copyload.i84.i1110.i, i64 0
  %192 = shufflevector <2 x i32> %191, <2 x i32> %190, <2 x i32> <i32 0, i32 2>
  %193 = tail call <2 x i32> @llvm.fshl.v2i32(<2 x i32> %190, <2 x i32> %192, <2 x i32> <i32 4, i32 17>)
  %add.ptr126.i.i = getelementptr inbounds i32, ptr %in.addr.192410.i, i64 14
  %ret.0.copyload.i92.i.i = load i32, ptr %add.ptr126.i.i, align 4
  %194 = extractelement <2 x i32> %190, i64 1
  %or129.i.i = tail call i32 @llvm.fshl.i32(i32 %ret.0.copyload.i92.i.i, i32 %194, i32 11)
  %add.ptr135.i.i = getelementptr inbounds i32, ptr %in.addr.192410.i, i64 15
  %ret.0.copyload.i95.i.i = load i32, ptr %add.ptr135.i.i, align 4
  %or138.i.i = tail call i32 @llvm.fshl.i32(i32 %ret.0.copyload.i95.i.i, i32 %ret.0.copyload.i92.i.i, i32 5)
  %add.ptr142.i1114.i = getelementptr inbounds i32, ptr %in.addr.192410.i, i64 16
  %ret.0.copyload.i97.i.i = load i32, ptr %add.ptr142.i1114.i, align 4
  %or145.i.i = tail call i32 @llvm.fshl.i32(i32 %ret.0.copyload.i97.i.i, i32 %ret.0.copyload.i95.i.i, i32 18)
  %add.ptr151.i.i = getelementptr inbounds i32, ptr %in.addr.192410.i, i64 17
  %ret.0.copyload.i100.i.i = load i32, ptr %add.ptr151.i.i, align 4
  %or154.i.i = tail call i32 @llvm.fshl.i32(i32 %ret.0.copyload.i100.i.i, i32 %ret.0.copyload.i97.i.i, i32 12)
  %add.ptr160.i.i = getelementptr inbounds i32, ptr %in.addr.192410.i, i64 18
  %ret.0.copyload.i103.i.i = load i32, ptr %add.ptr160.i.i, align 4
  %or163.i.i = tail call i32 @llvm.fshl.i32(i32 %ret.0.copyload.i103.i.i, i32 %ret.0.copyload.i100.i.i, i32 6)
  %vecinit.i.i.i105.i.i = insertelement <16 x i32> undef, i32 %or95.i.i, i64 0
  %vecinit1.i.i.i106.i.i = insertelement <16 x i32> %vecinit.i.i.i105.i.i, i32 %ret.0.copyload.i81.i1109.i, i64 1
  %vecinit2.i.i.i107.i.i = insertelement <16 x i32> %vecinit1.i.i.i106.i.i, i32 %or104.i.i, i64 2
  %vecinit3.i.i.i108.i.i = insertelement <16 x i32> %vecinit2.i.i.i107.i.i, i32 %ret.0.copyload.i84.i1110.i, i64 3
  %195 = shufflevector <2 x i32> %193, <2 x i32> poison, <16 x i32> <i32 0, i32 1, i32 poison, i32 poison, i32 poison, i32 poison, i32 poison, i32 poison, i32 poison, i32 poison, i32 poison, i32 poison, i32 poison, i32 poison, i32 poison, i32 poison>
  %vecinit5.i.i.i110.i.i133 = shufflevector <16 x i32> %vecinit3.i.i.i108.i.i, <16 x i32> %195, <16 x i32> <i32 0, i32 1, i32 2, i32 3, i32 16, i32 17, i32 poison, i32 poison, i32 poison, i32 poison, i32 poison, i32 poison, i32 poison, i32 poison, i32 poison, i32 poison>
  %196 = shufflevector <2 x i32> %190, <2 x i32> poison, <16 x i32> <i32 poison, i32 1, i32 poison, i32 poison, i32 poison, i32 poison, i32 poison, i32 poison, i32 poison, i32 poison, i32 poison, i32 poison, i32 poison, i32 poison, i32 poison, i32 poison>
  %197 = shufflevector <16 x i32> %vecinit5.i.i.i110.i.i133, <16 x i32> %196, <16 x i32> <i32 0, i32 1, i32 2, i32 3, i32 4, i32 5, i32 17, i32 poison, i32 poison, i32 poison, i32 poison, i32 poison, i32 poison, i32 poison, i32 poison, i32 poison>
  %vecinit7.i.i.i112.i.i = insertelement <16 x i32> %197, i32 %or129.i.i, i64 7
  %vecinit8.i.i.i113.i.i = insertelement <16 x i32> %vecinit7.i.i.i112.i.i, i32 %ret.0.copyload.i92.i.i, i64 8
  %vecinit9.i.i.i114.i.i = insertelement <16 x i32> %vecinit8.i.i.i113.i.i, i32 %or138.i.i, i64 9
  %vecinit10.i.i.i115.i.i = insertelement <16 x i32> %vecinit9.i.i.i114.i.i, i32 %or145.i.i, i64 10
  %vecinit11.i.i.i116.i.i = insertelement <16 x i32> %vecinit10.i.i.i115.i.i, i32 %ret.0.copyload.i97.i.i, i64 11
  %vecinit12.i.i.i117.i.i = insertelement <16 x i32> %vecinit11.i.i.i116.i.i, i32 %or154.i.i, i64 12
  %vecinit13.i.i.i118.i.i = insertelement <16 x i32> %vecinit12.i.i.i117.i.i, i32 %ret.0.copyload.i100.i.i, i64 13
  %vecinit14.i.i.i119.i.i = insertelement <16 x i32> %vecinit13.i.i.i118.i.i, i32 %or163.i.i, i64 14
  %vecinit15.i.i.i120.i.i = insertelement <16 x i32> %vecinit14.i.i.i119.i.i, i32 %ret.0.copyload.i103.i.i, i64 15
  call void @llvm.lifetime.start.p0(i64 64, ptr nonnull %self_buffer.i.i.i.i121.i.i)
  call void @llvm.lifetime.start.p0(i64 64, ptr nonnull %other_buffer.i.i.i.i122.i.i)
  store <16 x i32> %vecinit15.i.i.i120.i.i, ptr %self_buffer.i.i.i.i121.i.i, align 64
  store <8 x i64> <i64 12884901888, i64 38654705664, i64 0, i64 2, i64 8, i64 4294967296, i64 30064771072, i64 55834574848>, ptr %other_buffer.i.i.i.i122.i.i, align 64
  br label %for.body.i.i.i.i124.i.i

for.body.i.i.i.i124.i.i:                          ; preds = %for.body.i.i.i.i124.i.i, %_ZN5xsimdrsERKNS_5batchIjNS_8avx512bwEEES4_.exit.i1106.i
  %i.05.i.i.i.i125.i.i = phi i64 [ 0, %_ZN5xsimdrsERKNS_5batchIjNS_8avx512bwEEES4_.exit.i1106.i ], [ %inc.i.i.i.i129.i.i, %for.body.i.i.i.i124.i.i ]
  %arrayidx2.i.i.i.i126.i.i = getelementptr inbounds [16 x i32], ptr %self_buffer.i.i.i.i121.i.i, i64 0, i64 %i.05.i.i.i.i125.i.i
  %198 = load i32, ptr %arrayidx2.i.i.i.i126.i.i, align 4
  %arrayidx3.i.i.i.i127.i.i = getelementptr inbounds [16 x i32], ptr %other_buffer.i.i.i.i122.i.i, i64 0, i64 %i.05.i.i.i.i125.i.i
  %199 = load i32, ptr %arrayidx3.i.i.i.i127.i.i, align 4
  %shr.i.i.i.i.i128.i.i = lshr i32 %198, %199
  store i32 %shr.i.i.i.i.i128.i.i, ptr %arrayidx2.i.i.i.i126.i.i, align 4
  %inc.i.i.i.i129.i.i = add nuw nsw i64 %i.05.i.i.i.i125.i.i, 1
  %exitcond.not.i.i.i.i130.i.i = icmp eq i64 %inc.i.i.i.i129.i.i, 16
  br i1 %exitcond.not.i.i.i.i130.i.i, label %_ZN5arrow8internal12_GLOBAL__N_113UnpackBits512ILNS0_13DispatchLevelE3EE11unpack19_32EPKjPj.exit.i, label %for.body.i.i.i.i124.i.i, !llvm.loop !4

_ZN5arrow8internal12_GLOBAL__N_113UnpackBits512ILNS0_13DispatchLevelE3EE11unpack19_32EPKjPj.exit.i: ; preds = %for.body.i.i.i.i124.i.i
  %add.ptr87.i1115.i = getelementptr inbounds i32, ptr %add.ptr226.i, i64 16
  %200 = load <8 x i64>, ptr %self_buffer.i.i.i.i121.i.i, align 64
  call void @llvm.lifetime.end.p0(i64 64, ptr nonnull %self_buffer.i.i.i.i121.i.i)
  call void @llvm.lifetime.end.p0(i64 64, ptr nonnull %other_buffer.i.i.i.i122.i.i)
  %and.i.i.i.i133.i.i = and <8 x i64> %200, <i64 2251795519242239, i64 2251795519242239, i64 2251795519242239, i64 2251795519242239, i64 2251795519242239, i64 2251795519242239, i64 2251795519242239, i64 2251795519242239>
  store <8 x i64> %and.i.i.i.i133.i.i, ptr %add.ptr87.i1115.i, align 1
  %add.ptr182.i.i = getelementptr inbounds i32, ptr %in.addr.192410.i, i64 19
  %indvars.iv.next2575.i = add nuw nsw i64 %indvars.iv2574.i, 1
  %exitcond2579.not.i = icmp eq i64 %indvars.iv.next2575.i, %wide.trip.count2578.i
  br i1 %exitcond2579.not.i, label %_ZN5arrow8internalL20unpack32_specializedINS0_12_GLOBAL__N_113UnpackBits512ILNS0_13DispatchLevelE3EEEEEiPKjPjii.exit, label %for.body223.i, !llvm.loop !24

for.body235.i:                                    ; preds = %_ZN5arrow8internal12_GLOBAL__N_113UnpackBits512ILNS0_13DispatchLevelE3EE11unpack20_32EPKjPj.exit.i, %for.body235.preheader.i
  %indvars.iv2568.i = phi i64 [ 0, %for.body235.preheader.i ], [ %indvars.iv.next2569.i, %_ZN5arrow8internal12_GLOBAL__N_113UnpackBits512ILNS0_13DispatchLevelE3EE11unpack20_32EPKjPj.exit.i ]
  %in.addr.202407.i = phi ptr [ %in, %for.body235.preheader.i ], [ %add.ptr172.i1219.i, %_ZN5arrow8internal12_GLOBAL__N_113UnpackBits512ILNS0_13DispatchLevelE3EE11unpack20_32EPKjPj.exit.i ]
  %ret.0.copyload.i.i1120.i = load i32, ptr %in.addr.202407.i, align 4
  %add.ptr3.i1121.i = getelementptr inbounds i32, ptr %in.addr.202407.i, i64 1
  %ret.0.copyload.i54.i1122.i = load i32, ptr %add.ptr3.i1121.i, align 4
  %or.i1123.i = tail call i32 @llvm.fshl.i32(i32 %ret.0.copyload.i54.i1122.i, i32 %ret.0.copyload.i.i1120.i, i32 12)
  %add.ptr10.i1124.i = getelementptr inbounds i32, ptr %in.addr.202407.i, i64 2
  %201 = load <2 x i32>, ptr %add.ptr10.i1124.i, align 4
  %202 = insertelement <2 x i32> poison, i32 %ret.0.copyload.i54.i1122.i, i64 0
  %203 = shufflevector <2 x i32> %202, <2 x i32> %201, <2 x i32> <i32 0, i32 2>
  %204 = tail call <2 x i32> @llvm.fshl.v2i32(<2 x i32> %201, <2 x i32> %203, <2 x i32> <i32 4, i32 16>)
  %add.ptr26.i1128.i = getelementptr inbounds i32, ptr %in.addr.202407.i, i64 4
  %ret.0.copyload.i62.i1129.i = load i32, ptr %add.ptr26.i1128.i, align 4
  %205 = extractelement <2 x i32> %201, i64 1
  %or29.i1130.i = tail call i32 @llvm.fshl.i32(i32 %ret.0.copyload.i62.i1129.i, i32 %205, i32 8)
  %add.ptr32.i1131.i = getelementptr inbounds i32, ptr %in.addr.202407.i, i64 5
  %ret.0.copyload.i64.i1132.i = load i32, ptr %add.ptr32.i1131.i, align 4
  %add.ptr37.i1133.i = getelementptr inbounds i32, ptr %in.addr.202407.i, i64 6
  %ret.0.copyload.i66.i1134.i = load i32, ptr %add.ptr37.i1133.i, align 4
  %or40.i1135.i = tail call i32 @llvm.fshl.i32(i32 %ret.0.copyload.i66.i1134.i, i32 %ret.0.copyload.i64.i1132.i, i32 12)
  %add.ptr46.i1136.i = getelementptr inbounds i32, ptr %in.addr.202407.i, i64 7
  %206 = load <2 x i32>, ptr %add.ptr46.i1136.i, align 4
  %207 = insertelement <2 x i32> poison, i32 %ret.0.copyload.i66.i1134.i, i64 0
  %208 = shufflevector <2 x i32> %207, <2 x i32> %206, <2 x i32> <i32 0, i32 2>
  %209 = tail call <2 x i32> @llvm.fshl.v2i32(<2 x i32> %206, <2 x i32> %208, <2 x i32> <i32 4, i32 16>)
  %add.ptr62.i1142.i = getelementptr inbounds i32, ptr %in.addr.202407.i, i64 9
  %ret.0.copyload.i74.i1143.i = load i32, ptr %add.ptr62.i1142.i, align 4
  %210 = extractelement <2 x i32> %206, i64 1
  %or65.i1144.i = tail call i32 @llvm.fshl.i32(i32 %ret.0.copyload.i74.i1143.i, i32 %210, i32 8)
  %vecinit.i.i.i.i1145.i = insertelement <16 x i32> undef, i32 %ret.0.copyload.i.i1120.i, i64 0
  %vecinit1.i.i.i.i1146.i = insertelement <16 x i32> %vecinit.i.i.i.i1145.i, i32 %or.i1123.i, i64 1
  %vecinit2.i.i.i.i1147.i = insertelement <16 x i32> %vecinit1.i.i.i.i1146.i, i32 %ret.0.copyload.i54.i1122.i, i64 2
  %211 = shufflevector <2 x i32> %204, <2 x i32> poison, <16 x i32> <i32 0, i32 1, i32 poison, i32 poison, i32 poison, i32 poison, i32 poison, i32 poison, i32 poison, i32 poison, i32 poison, i32 poison, i32 poison, i32 poison, i32 poison, i32 poison>
  %vecinit4.i.i.i.i1149.i139 = shufflevector <16 x i32> %vecinit2.i.i.i.i1147.i, <16 x i32> %211, <16 x i32> <i32 0, i32 1, i32 2, i32 16, i32 17, i32 poison, i32 poison, i32 poison, i32 poison, i32 poison, i32 poison, i32 poison, i32 poison, i32 poison, i32 poison, i32 poison>
  %212 = shufflevector <2 x i32> %201, <2 x i32> poison, <16 x i32> <i32 poison, i32 1, i32 poison, i32 poison, i32 poison, i32 poison, i32 poison, i32 poison, i32 poison, i32 poison, i32 poison, i32 poison, i32 poison, i32 poison, i32 poison, i32 poison>
  %213 = shufflevector <16 x i32> %vecinit4.i.i.i.i1149.i139, <16 x i32> %212, <16 x i32> <i32 0, i32 1, i32 2, i32 3, i32 4, i32 17, i32 poison, i32 poison, i32 poison, i32 poison, i32 poison, i32 poison, i32 poison, i32 poison, i32 poison, i32 poison>
  %vecinit6.i.i.i.i1151.i = insertelement <16 x i32> %213, i32 %or29.i1130.i, i64 6
  %vecinit7.i.i.i.i1152.i = insertelement <16 x i32> %vecinit6.i.i.i.i1151.i, i32 %ret.0.copyload.i62.i1129.i, i64 7
  %vecinit8.i.i.i.i1153.i = insertelement <16 x i32> %vecinit7.i.i.i.i1152.i, i32 %ret.0.copyload.i64.i1132.i, i64 8
  %vecinit9.i.i.i.i1154.i = insertelement <16 x i32> %vecinit8.i.i.i.i1153.i, i32 %or40.i1135.i, i64 9
  %vecinit10.i.i.i.i1155.i = insertelement <16 x i32> %vecinit9.i.i.i.i1154.i, i32 %ret.0.copyload.i66.i1134.i, i64 10
  %214 = shufflevector <2 x i32> %209, <2 x i32> poison, <16 x i32> <i32 0, i32 1, i32 poison, i32 poison, i32 poison, i32 poison, i32 poison, i32 poison, i32 poison, i32 poison, i32 poison, i32 poison, i32 poison, i32 poison, i32 poison, i32 poison>
  %vecinit12.i.i.i.i1157.i138 = shufflevector <16 x i32> %vecinit10.i.i.i.i1155.i, <16 x i32> %214, <16 x i32> <i32 0, i32 1, i32 2, i32 3, i32 4, i32 5, i32 6, i32 7, i32 8, i32 9, i32 10, i32 16, i32 17, i32 poison, i32 poison, i32 poison>
  %215 = shufflevector <2 x i32> %206, <2 x i32> poison, <16 x i32> <i32 poison, i32 1, i32 poison, i32 poison, i32 poison, i32 poison, i32 poison, i32 poison, i32 poison, i32 poison, i32 poison, i32 poison, i32 poison, i32 poison, i32 poison, i32 poison>
  %216 = shufflevector <16 x i32> %vecinit12.i.i.i.i1157.i138, <16 x i32> %215, <16 x i32> <i32 0, i32 1, i32 2, i32 3, i32 4, i32 5, i32 6, i32 7, i32 8, i32 9, i32 10, i32 11, i32 12, i32 17, i32 poison, i32 poison>
  %vecinit14.i.i.i.i1159.i = insertelement <16 x i32> %216, i32 %or65.i1144.i, i64 14
  %vecinit15.i.i.i.i1160.i = insertelement <16 x i32> %vecinit14.i.i.i.i1159.i, i32 %ret.0.copyload.i74.i1143.i, i64 15
  call void @llvm.lifetime.start.p0(i64 64, ptr nonnull %self_buffer.i.i.i.i.i1118.i)
  call void @llvm.lifetime.start.p0(i64 64, ptr nonnull %other_buffer.i.i.i.i.i1119.i)
  store <16 x i32> %vecinit15.i.i.i.i1160.i, ptr %self_buffer.i.i.i.i.i1118.i, align 64
  store <8 x i64> <i64 0, i64 8, i64 17179869184, i64 51539607552, i64 0, i64 8, i64 17179869184, i64 51539607552>, ptr %other_buffer.i.i.i.i.i1119.i, align 64
  br label %for.body.i.i.i.i.i1161.i

for.body.i.i.i.i.i1161.i:                         ; preds = %for.body.i.i.i.i.i1161.i, %for.body235.i
  %i.05.i.i.i.i.i1162.i = phi i64 [ 0, %for.body235.i ], [ %inc.i.i.i.i.i1166.i, %for.body.i.i.i.i.i1161.i ]
  %arrayidx2.i.i.i.i.i1163.i = getelementptr inbounds [16 x i32], ptr %self_buffer.i.i.i.i.i1118.i, i64 0, i64 %i.05.i.i.i.i.i1162.i
  %217 = load i32, ptr %arrayidx2.i.i.i.i.i1163.i, align 4
  %arrayidx3.i.i.i.i.i1164.i = getelementptr inbounds [16 x i32], ptr %other_buffer.i.i.i.i.i1119.i, i64 0, i64 %i.05.i.i.i.i.i1162.i
  %218 = load i32, ptr %arrayidx3.i.i.i.i.i1164.i, align 4
  %shr.i.i.i.i.i.i1165.i = lshr i32 %217, %218
  store i32 %shr.i.i.i.i.i.i1165.i, ptr %arrayidx2.i.i.i.i.i1163.i, align 4
  %inc.i.i.i.i.i1166.i = add nuw nsw i64 %i.05.i.i.i.i.i1162.i, 1
  %exitcond.not.i.i.i.i.i1167.i = icmp eq i64 %inc.i.i.i.i.i1166.i, 16
  br i1 %exitcond.not.i.i.i.i.i1167.i, label %_ZN5xsimdrsERKNS_5batchIjNS_8avx512bwEEES4_.exit.i1168.i, label %for.body.i.i.i.i.i1161.i, !llvm.loop !4

_ZN5xsimdrsERKNS_5batchIjNS_8avx512bwEEES4_.exit.i1168.i: ; preds = %for.body.i.i.i.i.i1161.i
  %219 = shl nsw i64 %indvars.iv2568.i, 5
  %add.ptr238.i = getelementptr inbounds i32, ptr %out, i64 %219
  %220 = load <8 x i64>, ptr %self_buffer.i.i.i.i.i1118.i, align 64
  call void @llvm.lifetime.end.p0(i64 64, ptr nonnull %self_buffer.i.i.i.i.i1118.i)
  call void @llvm.lifetime.end.p0(i64 64, ptr nonnull %other_buffer.i.i.i.i.i1119.i)
  %and.i.i.i.i.i1169.i = and <8 x i64> %220, <i64 4503595333451775, i64 4503595333451775, i64 4503595333451775, i64 4503595333451775, i64 4503595333451775, i64 4503595333451775, i64 4503595333451775, i64 4503595333451775>
  store <8 x i64> %and.i.i.i.i.i1169.i, ptr %add.ptr238.i, align 1
  %add.ptr84.i1170.i = getelementptr inbounds i32, ptr %in.addr.202407.i, i64 10
  %ret.0.copyload.i77.i1171.i = load i32, ptr %add.ptr84.i1170.i, align 4
  %add.ptr89.i1172.i = getelementptr inbounds i32, ptr %in.addr.202407.i, i64 11
  %ret.0.copyload.i79.i1173.i = load i32, ptr %add.ptr89.i1172.i, align 4
  %or92.i1174.i = tail call i32 @llvm.fshl.i32(i32 %ret.0.copyload.i79.i1173.i, i32 %ret.0.copyload.i77.i1171.i, i32 12)
  %add.ptr98.i1175.i = getelementptr inbounds i32, ptr %in.addr.202407.i, i64 12
  %221 = load <2 x i32>, ptr %add.ptr98.i1175.i, align 4
  %222 = insertelement <2 x i32> poison, i32 %ret.0.copyload.i79.i1173.i, i64 0
  %223 = shufflevector <2 x i32> %222, <2 x i32> %221, <2 x i32> <i32 0, i32 2>
  %224 = tail call <2 x i32> @llvm.fshl.v2i32(<2 x i32> %221, <2 x i32> %223, <2 x i32> <i32 4, i32 16>)
  %add.ptr114.i1181.i = getelementptr inbounds i32, ptr %in.addr.202407.i, i64 14
  %ret.0.copyload.i87.i1182.i = load i32, ptr %add.ptr114.i1181.i, align 4
  %225 = extractelement <2 x i32> %221, i64 1
  %or117.i1183.i = tail call i32 @llvm.fshl.i32(i32 %ret.0.copyload.i87.i1182.i, i32 %225, i32 8)
  %add.ptr120.i1184.i = getelementptr inbounds i32, ptr %in.addr.202407.i, i64 15
  %ret.0.copyload.i89.i1185.i = load i32, ptr %add.ptr120.i1184.i, align 4
  %add.ptr125.i.i = getelementptr inbounds i32, ptr %in.addr.202407.i, i64 16
  %ret.0.copyload.i91.i1186.i = load i32, ptr %add.ptr125.i.i, align 4
  %or128.i.i = tail call i32 @llvm.fshl.i32(i32 %ret.0.copyload.i91.i1186.i, i32 %ret.0.copyload.i89.i1185.i, i32 12)
  %add.ptr134.i.i = getelementptr inbounds i32, ptr %in.addr.202407.i, i64 17
  %226 = load <2 x i32>, ptr %add.ptr134.i.i, align 4
  %227 = insertelement <2 x i32> poison, i32 %ret.0.copyload.i91.i1186.i, i64 0
  %228 = shufflevector <2 x i32> %227, <2 x i32> %226, <2 x i32> <i32 0, i32 2>
  %229 = tail call <2 x i32> @llvm.fshl.v2i32(<2 x i32> %226, <2 x i32> %228, <2 x i32> <i32 4, i32 16>)
  %add.ptr150.i1191.i = getelementptr inbounds i32, ptr %in.addr.202407.i, i64 19
  %ret.0.copyload.i99.i1192.i = load i32, ptr %add.ptr150.i1191.i, align 4
  %230 = extractelement <2 x i32> %226, i64 1
  %or153.i1193.i = tail call i32 @llvm.fshl.i32(i32 %ret.0.copyload.i99.i1192.i, i32 %230, i32 8)
  %vecinit.i.i.i101.i1194.i = insertelement <16 x i32> undef, i32 %ret.0.copyload.i77.i1171.i, i64 0
  %vecinit1.i.i.i102.i1195.i = insertelement <16 x i32> %vecinit.i.i.i101.i1194.i, i32 %or92.i1174.i, i64 1
  %vecinit2.i.i.i103.i1196.i = insertelement <16 x i32> %vecinit1.i.i.i102.i1195.i, i32 %ret.0.copyload.i79.i1173.i, i64 2
  %231 = shufflevector <2 x i32> %224, <2 x i32> poison, <16 x i32> <i32 0, i32 1, i32 poison, i32 poison, i32 poison, i32 poison, i32 poison, i32 poison, i32 poison, i32 poison, i32 poison, i32 poison, i32 poison, i32 poison, i32 poison, i32 poison>
  %vecinit4.i.i.i105.i1198.i137 = shufflevector <16 x i32> %vecinit2.i.i.i103.i1196.i, <16 x i32> %231, <16 x i32> <i32 0, i32 1, i32 2, i32 16, i32 17, i32 poison, i32 poison, i32 poison, i32 poison, i32 poison, i32 poison, i32 poison, i32 poison, i32 poison, i32 poison, i32 poison>
  %232 = shufflevector <2 x i32> %221, <2 x i32> poison, <16 x i32> <i32 poison, i32 1, i32 poison, i32 poison, i32 poison, i32 poison, i32 poison, i32 poison, i32 poison, i32 poison, i32 poison, i32 poison, i32 poison, i32 poison, i32 poison, i32 poison>
  %233 = shufflevector <16 x i32> %vecinit4.i.i.i105.i1198.i137, <16 x i32> %232, <16 x i32> <i32 0, i32 1, i32 2, i32 3, i32 4, i32 17, i32 poison, i32 poison, i32 poison, i32 poison, i32 poison, i32 poison, i32 poison, i32 poison, i32 poison, i32 poison>
  %vecinit6.i.i.i107.i1200.i = insertelement <16 x i32> %233, i32 %or117.i1183.i, i64 6
  %vecinit7.i.i.i108.i1201.i = insertelement <16 x i32> %vecinit6.i.i.i107.i1200.i, i32 %ret.0.copyload.i87.i1182.i, i64 7
  %vecinit8.i.i.i109.i1202.i = insertelement <16 x i32> %vecinit7.i.i.i108.i1201.i, i32 %ret.0.copyload.i89.i1185.i, i64 8
  %vecinit9.i.i.i110.i1203.i = insertelement <16 x i32> %vecinit8.i.i.i109.i1202.i, i32 %or128.i.i, i64 9
  %vecinit10.i.i.i111.i1204.i = insertelement <16 x i32> %vecinit9.i.i.i110.i1203.i, i32 %ret.0.copyload.i91.i1186.i, i64 10
  %234 = shufflevector <2 x i32> %229, <2 x i32> poison, <16 x i32> <i32 0, i32 1, i32 poison, i32 poison, i32 poison, i32 poison, i32 poison, i32 poison, i32 poison, i32 poison, i32 poison, i32 poison, i32 poison, i32 poison, i32 poison, i32 poison>
  %vecinit12.i.i.i113.i1206.i136 = shufflevector <16 x i32> %vecinit10.i.i.i111.i1204.i, <16 x i32> %234, <16 x i32> <i32 0, i32 1, i32 2, i32 3, i32 4, i32 5, i32 6, i32 7, i32 8, i32 9, i32 10, i32 16, i32 17, i32 poison, i32 poison, i32 poison>
  %235 = shufflevector <2 x i32> %226, <2 x i32> poison, <16 x i32> <i32 poison, i32 1, i32 poison, i32 poison, i32 poison, i32 poison, i32 poison, i32 poison, i32 poison, i32 poison, i32 poison, i32 poison, i32 poison, i32 poison, i32 poison, i32 poison>
  %236 = shufflevector <16 x i32> %vecinit12.i.i.i113.i1206.i136, <16 x i32> %235, <16 x i32> <i32 0, i32 1, i32 2, i32 3, i32 4, i32 5, i32 6, i32 7, i32 8, i32 9, i32 10, i32 11, i32 12, i32 17, i32 poison, i32 poison>
  %vecinit14.i.i.i115.i1208.i = insertelement <16 x i32> %236, i32 %or153.i1193.i, i64 14
  %vecinit15.i.i.i116.i1209.i = insertelement <16 x i32> %vecinit14.i.i.i115.i1208.i, i32 %ret.0.copyload.i99.i1192.i, i64 15
  call void @llvm.lifetime.start.p0(i64 64, ptr nonnull %self_buffer.i.i.i.i117.i1116.i)
  call void @llvm.lifetime.start.p0(i64 64, ptr nonnull %other_buffer.i.i.i.i118.i1117.i)
  store <16 x i32> %vecinit15.i.i.i116.i1209.i, ptr %self_buffer.i.i.i.i117.i1116.i, align 64
  store <8 x i64> <i64 0, i64 8, i64 17179869184, i64 51539607552, i64 0, i64 8, i64 17179869184, i64 51539607552>, ptr %other_buffer.i.i.i.i118.i1117.i, align 64
  br label %for.body.i.i.i.i120.i1210.i

for.body.i.i.i.i120.i1210.i:                      ; preds = %for.body.i.i.i.i120.i1210.i, %_ZN5xsimdrsERKNS_5batchIjNS_8avx512bwEEES4_.exit.i1168.i
  %i.05.i.i.i.i121.i1211.i = phi i64 [ 0, %_ZN5xsimdrsERKNS_5batchIjNS_8avx512bwEEES4_.exit.i1168.i ], [ %inc.i.i.i.i125.i1215.i, %for.body.i.i.i.i120.i1210.i ]
  %arrayidx2.i.i.i.i122.i1212.i = getelementptr inbounds [16 x i32], ptr %self_buffer.i.i.i.i117.i1116.i, i64 0, i64 %i.05.i.i.i.i121.i1211.i
  %237 = load i32, ptr %arrayidx2.i.i.i.i122.i1212.i, align 4
  %arrayidx3.i.i.i.i123.i1213.i = getelementptr inbounds [16 x i32], ptr %other_buffer.i.i.i.i118.i1117.i, i64 0, i64 %i.05.i.i.i.i121.i1211.i
  %238 = load i32, ptr %arrayidx3.i.i.i.i123.i1213.i, align 4
  %shr.i.i.i.i.i124.i1214.i = lshr i32 %237, %238
  store i32 %shr.i.i.i.i.i124.i1214.i, ptr %arrayidx2.i.i.i.i122.i1212.i, align 4
  %inc.i.i.i.i125.i1215.i = add nuw nsw i64 %i.05.i.i.i.i121.i1211.i, 1
  %exitcond.not.i.i.i.i126.i1216.i = icmp eq i64 %inc.i.i.i.i125.i1215.i, 16
  br i1 %exitcond.not.i.i.i.i126.i1216.i, label %_ZN5arrow8internal12_GLOBAL__N_113UnpackBits512ILNS0_13DispatchLevelE3EE11unpack20_32EPKjPj.exit.i, label %for.body.i.i.i.i120.i1210.i, !llvm.loop !4

_ZN5arrow8internal12_GLOBAL__N_113UnpackBits512ILNS0_13DispatchLevelE3EE11unpack20_32EPKjPj.exit.i: ; preds = %for.body.i.i.i.i120.i1210.i
  %add.ptr82.i1217.i = getelementptr inbounds i32, ptr %add.ptr238.i, i64 16
  %239 = load <8 x i64>, ptr %self_buffer.i.i.i.i117.i1116.i, align 64
  call void @llvm.lifetime.end.p0(i64 64, ptr nonnull %self_buffer.i.i.i.i117.i1116.i)
  call void @llvm.lifetime.end.p0(i64 64, ptr nonnull %other_buffer.i.i.i.i118.i1117.i)
  %and.i.i.i.i129.i1218.i = and <8 x i64> %239, <i64 4503595333451775, i64 4503595333451775, i64 4503595333451775, i64 4503595333451775, i64 4503595333451775, i64 4503595333451775, i64 4503595333451775, i64 4503595333451775>
  store <8 x i64> %and.i.i.i.i129.i1218.i, ptr %add.ptr82.i1217.i, align 1
  %add.ptr172.i1219.i = getelementptr inbounds i32, ptr %in.addr.202407.i, i64 20
  %indvars.iv.next2569.i = add nuw nsw i64 %indvars.iv2568.i, 1
  %exitcond2573.not.i = icmp eq i64 %indvars.iv.next2569.i, %wide.trip.count2572.i
  br i1 %exitcond2573.not.i, label %_ZN5arrow8internalL20unpack32_specializedINS0_12_GLOBAL__N_113UnpackBits512ILNS0_13DispatchLevelE3EEEEEiPKjPjii.exit, label %for.body235.i, !llvm.loop !25

for.body247.i:                                    ; preds = %_ZN5arrow8internal12_GLOBAL__N_113UnpackBits512ILNS0_13DispatchLevelE3EE11unpack21_32EPKjPj.exit.i, %for.body247.preheader.i
  %indvars.iv2562.i = phi i64 [ 0, %for.body247.preheader.i ], [ %indvars.iv.next2563.i, %_ZN5arrow8internal12_GLOBAL__N_113UnpackBits512ILNS0_13DispatchLevelE3EE11unpack21_32EPKjPj.exit.i ]
  %in.addr.212404.i = phi ptr [ %in, %for.body247.preheader.i ], [ %add.ptr192.i.i, %_ZN5arrow8internal12_GLOBAL__N_113UnpackBits512ILNS0_13DispatchLevelE3EE11unpack21_32EPKjPj.exit.i ]
  %ret.0.copyload.i.i1222.i = load i32, ptr %in.addr.212404.i, align 4
  %add.ptr3.i1223.i = getelementptr inbounds i32, ptr %in.addr.212404.i, i64 1
  %ret.0.copyload.i58.i1224.i = load i32, ptr %add.ptr3.i1223.i, align 4
  %or.i1225.i = tail call i32 @llvm.fshl.i32(i32 %ret.0.copyload.i58.i1224.i, i32 %ret.0.copyload.i.i1222.i, i32 11)
  %add.ptr10.i1226.i = getelementptr inbounds i32, ptr %in.addr.212404.i, i64 2
  %240 = load <2 x i32>, ptr %add.ptr10.i1226.i, align 4
  %241 = insertelement <2 x i32> poison, i32 %ret.0.copyload.i58.i1224.i, i64 0
  %242 = shufflevector <2 x i32> %241, <2 x i32> %240, <2 x i32> <i32 0, i32 2>
  %243 = tail call <2 x i32> @llvm.fshl.v2i32(<2 x i32> %240, <2 x i32> %242, <2 x i32> <i32 1, i32 12>)
  %add.ptr26.i1232.i = getelementptr inbounds i32, ptr %in.addr.212404.i, i64 4
  %244 = load <2 x i32>, ptr %add.ptr26.i1232.i, align 4
  %245 = shufflevector <2 x i32> %240, <2 x i32> poison, <2 x i32> <i32 1, i32 poison>
  %246 = shufflevector <2 x i32> %245, <2 x i32> %244, <2 x i32> <i32 0, i32 2>
  %247 = tail call <2 x i32> @llvm.fshl.v2i32(<2 x i32> %244, <2 x i32> %246, <2 x i32> <i32 2, i32 13>)
  %add.ptr42.i1236.i = getelementptr inbounds i32, ptr %in.addr.212404.i, i64 6
  %248 = load <2 x i32>, ptr %add.ptr42.i1236.i, align 4
  %249 = shufflevector <2 x i32> %244, <2 x i32> poison, <2 x i32> <i32 1, i32 poison>
  %250 = shufflevector <2 x i32> %249, <2 x i32> %248, <2 x i32> <i32 0, i32 2>
  %251 = tail call <2 x i32> @llvm.fshl.v2i32(<2 x i32> %248, <2 x i32> %250, <2 x i32> <i32 3, i32 14>)
  %add.ptr58.i.i = getelementptr inbounds i32, ptr %in.addr.212404.i, i64 8
  %252 = load <2 x i32>, ptr %add.ptr58.i.i, align 4
  %253 = shufflevector <2 x i32> %248, <2 x i32> poison, <2 x i32> <i32 1, i32 poison>
  %254 = shufflevector <2 x i32> %253, <2 x i32> %252, <2 x i32> <i32 0, i32 2>
  %255 = tail call <2 x i32> @llvm.fshl.v2i32(<2 x i32> %252, <2 x i32> %254, <2 x i32> <i32 4, i32 15>)
  %add.ptr74.i1242.i = getelementptr inbounds i32, ptr %in.addr.212404.i, i64 10
  %ret.0.copyload.i81.i1243.i = load i32, ptr %add.ptr74.i1242.i, align 4
  %256 = extractelement <2 x i32> %252, i64 1
  %or77.i1244.i = tail call i32 @llvm.fshl.i32(i32 %ret.0.copyload.i81.i1243.i, i32 %256, i32 5)
  %vecinit.i.i.i.i1245.i = insertelement <16 x i32> undef, i32 %ret.0.copyload.i.i1222.i, i64 0
  %vecinit1.i.i.i.i1246.i = insertelement <16 x i32> %vecinit.i.i.i.i1245.i, i32 %or.i1225.i, i64 1
  %vecinit2.i.i.i.i1247.i = insertelement <16 x i32> %vecinit1.i.i.i.i1246.i, i32 %ret.0.copyload.i58.i1224.i, i64 2
  %257 = shufflevector <2 x i32> %243, <2 x i32> poison, <16 x i32> <i32 0, i32 1, i32 poison, i32 poison, i32 poison, i32 poison, i32 poison, i32 poison, i32 poison, i32 poison, i32 poison, i32 poison, i32 poison, i32 poison, i32 poison, i32 poison>
  %vecinit4.i.i.i.i1249.i147 = shufflevector <16 x i32> %vecinit2.i.i.i.i1247.i, <16 x i32> %257, <16 x i32> <i32 0, i32 1, i32 2, i32 16, i32 17, i32 poison, i32 poison, i32 poison, i32 poison, i32 poison, i32 poison, i32 poison, i32 poison, i32 poison, i32 poison, i32 poison>
  %258 = shufflevector <2 x i32> %240, <2 x i32> poison, <16 x i32> <i32 poison, i32 1, i32 poison, i32 poison, i32 poison, i32 poison, i32 poison, i32 poison, i32 poison, i32 poison, i32 poison, i32 poison, i32 poison, i32 poison, i32 poison, i32 poison>
  %259 = shufflevector <16 x i32> %vecinit4.i.i.i.i1249.i147, <16 x i32> %258, <16 x i32> <i32 0, i32 1, i32 2, i32 3, i32 4, i32 17, i32 poison, i32 poison, i32 poison, i32 poison, i32 poison, i32 poison, i32 poison, i32 poison, i32 poison, i32 poison>
  %260 = shufflevector <2 x i32> %247, <2 x i32> poison, <16 x i32> <i32 0, i32 1, i32 poison, i32 poison, i32 poison, i32 poison, i32 poison, i32 poison, i32 poison, i32 poison, i32 poison, i32 poison, i32 poison, i32 poison, i32 poison, i32 poison>
  %vecinit7.i.i.i.i1252.i146 = shufflevector <16 x i32> %259, <16 x i32> %260, <16 x i32> <i32 0, i32 1, i32 2, i32 3, i32 4, i32 5, i32 16, i32 17, i32 poison, i32 poison, i32 poison, i32 poison, i32 poison, i32 poison, i32 poison, i32 poison>
  %261 = shufflevector <2 x i32> %244, <2 x i32> poison, <16 x i32> <i32 poison, i32 1, i32 poison, i32 poison, i32 poison, i32 poison, i32 poison, i32 poison, i32 poison, i32 poison, i32 poison, i32 poison, i32 poison, i32 poison, i32 poison, i32 poison>
  %262 = shufflevector <16 x i32> %vecinit7.i.i.i.i1252.i146, <16 x i32> %261, <16 x i32> <i32 0, i32 1, i32 2, i32 3, i32 4, i32 5, i32 6, i32 7, i32 17, i32 poison, i32 poison, i32 poison, i32 poison, i32 poison, i32 poison, i32 poison>
  %263 = shufflevector <2 x i32> %251, <2 x i32> poison, <16 x i32> <i32 0, i32 1, i32 poison, i32 poison, i32 poison, i32 poison, i32 poison, i32 poison, i32 poison, i32 poison, i32 poison, i32 poison, i32 poison, i32 poison, i32 poison, i32 poison>
  %vecinit10.i.i.i.i1255.i145 = shufflevector <16 x i32> %262, <16 x i32> %263, <16 x i32> <i32 0, i32 1, i32 2, i32 3, i32 4, i32 5, i32 6, i32 7, i32 8, i32 16, i32 17, i32 poison, i32 poison, i32 poison, i32 poison, i32 poison>
  %264 = shufflevector <2 x i32> %248, <2 x i32> poison, <16 x i32> <i32 poison, i32 1, i32 poison, i32 poison, i32 poison, i32 poison, i32 poison, i32 poison, i32 poison, i32 poison, i32 poison, i32 poison, i32 poison, i32 poison, i32 poison, i32 poison>
  %265 = shufflevector <16 x i32> %vecinit10.i.i.i.i1255.i145, <16 x i32> %264, <16 x i32> <i32 0, i32 1, i32 2, i32 3, i32 4, i32 5, i32 6, i32 7, i32 8, i32 9, i32 10, i32 17, i32 poison, i32 poison, i32 poison, i32 poison>
  %266 = shufflevector <2 x i32> %255, <2 x i32> poison, <16 x i32> <i32 0, i32 1, i32 poison, i32 poison, i32 poison, i32 poison, i32 poison, i32 poison, i32 poison, i32 poison, i32 poison, i32 poison, i32 poison, i32 poison, i32 poison, i32 poison>
  %vecinit13.i.i.i.i1258.i144 = shufflevector <16 x i32> %265, <16 x i32> %266, <16 x i32> <i32 0, i32 1, i32 2, i32 3, i32 4, i32 5, i32 6, i32 7, i32 8, i32 9, i32 10, i32 11, i32 16, i32 17, i32 poison, i32 poison>
  %267 = shufflevector <2 x i32> %252, <2 x i32> poison, <16 x i32> <i32 poison, i32 1, i32 poison, i32 poison, i32 poison, i32 poison, i32 poison, i32 poison, i32 poison, i32 poison, i32 poison, i32 poison, i32 poison, i32 poison, i32 poison, i32 poison>
  %268 = shufflevector <16 x i32> %vecinit13.i.i.i.i1258.i144, <16 x i32> %267, <16 x i32> <i32 0, i32 1, i32 2, i32 3, i32 4, i32 5, i32 6, i32 7, i32 8, i32 9, i32 10, i32 11, i32 12, i32 13, i32 17, i32 poison>
  %vecinit15.i.i.i.i1260.i = insertelement <16 x i32> %268, i32 %or77.i1244.i, i64 15
  call void @llvm.lifetime.start.p0(i64 64, ptr nonnull %self_buffer.i.i.i.i.i1220.i)
  call void @llvm.lifetime.start.p0(i64 64, ptr nonnull %other_buffer.i.i.i.i.i1221.i)
  store <16 x i32> %vecinit15.i.i.i.i1260.i, ptr %self_buffer.i.i.i.i.i1220.i, align 64
  store <8 x i64> <i64 0, i64 10, i64 38654705664, i64 0, i64 8, i64 30064771072, i64 0, i64 6>, ptr %other_buffer.i.i.i.i.i1221.i, align 64
  br label %for.body.i.i.i.i.i1261.i

for.body.i.i.i.i.i1261.i:                         ; preds = %for.body.i.i.i.i.i1261.i, %for.body247.i
  %i.05.i.i.i.i.i1262.i = phi i64 [ 0, %for.body247.i ], [ %inc.i.i.i.i.i1266.i, %for.body.i.i.i.i.i1261.i ]
  %arrayidx2.i.i.i.i.i1263.i = getelementptr inbounds [16 x i32], ptr %self_buffer.i.i.i.i.i1220.i, i64 0, i64 %i.05.i.i.i.i.i1262.i
  %269 = load i32, ptr %arrayidx2.i.i.i.i.i1263.i, align 4
  %arrayidx3.i.i.i.i.i1264.i = getelementptr inbounds [16 x i32], ptr %other_buffer.i.i.i.i.i1221.i, i64 0, i64 %i.05.i.i.i.i.i1262.i
  %270 = load i32, ptr %arrayidx3.i.i.i.i.i1264.i, align 4
  %shr.i.i.i.i.i.i1265.i = lshr i32 %269, %270
  store i32 %shr.i.i.i.i.i.i1265.i, ptr %arrayidx2.i.i.i.i.i1263.i, align 4
  %inc.i.i.i.i.i1266.i = add nuw nsw i64 %i.05.i.i.i.i.i1262.i, 1
  %exitcond.not.i.i.i.i.i1267.i = icmp eq i64 %inc.i.i.i.i.i1266.i, 16
  br i1 %exitcond.not.i.i.i.i.i1267.i, label %_ZN5xsimdrsERKNS_5batchIjNS_8avx512bwEEES4_.exit.i1268.i, label %for.body.i.i.i.i.i1261.i, !llvm.loop !4

_ZN5xsimdrsERKNS_5batchIjNS_8avx512bwEEES4_.exit.i1268.i: ; preds = %for.body.i.i.i.i.i1261.i
  %271 = shl nsw i64 %indvars.iv2562.i, 5
  %add.ptr250.i = getelementptr inbounds i32, ptr %out, i64 %271
  %272 = load <8 x i64>, ptr %self_buffer.i.i.i.i.i1220.i, align 64
  call void @llvm.lifetime.end.p0(i64 64, ptr nonnull %self_buffer.i.i.i.i.i1220.i)
  call void @llvm.lifetime.end.p0(i64 64, ptr nonnull %other_buffer.i.i.i.i.i1221.i)
  %and.i.i.i.i.i1269.i = and <8 x i64> %272, <i64 9007194961870847, i64 9007194961870847, i64 9007194961870847, i64 9007194961870847, i64 9007194961870847, i64 9007194961870847, i64 9007194961870847, i64 9007194961870847>
  store <8 x i64> %and.i.i.i.i.i1269.i, ptr %add.ptr250.i, align 1
  %ret.0.copyload.i83.i1270.i = load i32, ptr %add.ptr74.i1242.i, align 4
  %add.ptr97.i1271.i = getelementptr inbounds i32, ptr %in.addr.212404.i, i64 11
  %ret.0.copyload.i84.i1272.i = load i32, ptr %add.ptr97.i1271.i, align 4
  %or100.i1273.i = tail call i32 @llvm.fshl.i32(i32 %ret.0.copyload.i84.i1272.i, i32 %ret.0.copyload.i83.i1270.i, i32 16)
  %add.ptr106.i1274.i = getelementptr inbounds i32, ptr %in.addr.212404.i, i64 12
  %273 = load <2 x i32>, ptr %add.ptr106.i1274.i, align 4
  %274 = insertelement <2 x i32> poison, i32 %ret.0.copyload.i84.i1272.i, i64 0
  %275 = shufflevector <2 x i32> %274, <2 x i32> %273, <2 x i32> <i32 0, i32 2>
  %276 = tail call <2 x i32> @llvm.fshl.v2i32(<2 x i32> %273, <2 x i32> %275, <2 x i32> <i32 6, i32 17>)
  %add.ptr122.i1278.i = getelementptr inbounds i32, ptr %in.addr.212404.i, i64 14
  %277 = load <2 x i32>, ptr %add.ptr122.i1278.i, align 4
  %278 = shufflevector <2 x i32> %273, <2 x i32> poison, <2 x i32> <i32 1, i32 poison>
  %279 = shufflevector <2 x i32> %278, <2 x i32> %277, <2 x i32> <i32 0, i32 2>
  %280 = tail call <2 x i32> @llvm.fshl.v2i32(<2 x i32> %277, <2 x i32> %279, <2 x i32> <i32 7, i32 18>)
  %add.ptr138.i1283.i = getelementptr inbounds i32, ptr %in.addr.212404.i, i64 16
  %281 = load <2 x i32>, ptr %add.ptr138.i1283.i, align 4
  %282 = shufflevector <2 x i32> %277, <2 x i32> poison, <2 x i32> <i32 1, i32 poison>
  %283 = shufflevector <2 x i32> %282, <2 x i32> %281, <2 x i32> <i32 0, i32 2>
  %284 = tail call <2 x i32> @llvm.fshl.v2i32(<2 x i32> %281, <2 x i32> %283, <2 x i32> <i32 8, i32 19>)
  %add.ptr154.i.i = getelementptr inbounds i32, ptr %in.addr.212404.i, i64 18
  %285 = load <2 x i32>, ptr %add.ptr154.i.i, align 4
  %286 = shufflevector <2 x i32> %281, <2 x i32> poison, <2 x i32> <i32 1, i32 poison>
  %287 = shufflevector <2 x i32> %286, <2 x i32> %285, <2 x i32> <i32 0, i32 2>
  %288 = tail call <2 x i32> @llvm.fshl.v2i32(<2 x i32> %285, <2 x i32> %287, <2 x i32> <i32 9, i32 20>)
  %add.ptr170.i.i = getelementptr inbounds i32, ptr %in.addr.212404.i, i64 20
  %ret.0.copyload.i107.i.i = load i32, ptr %add.ptr170.i.i, align 4
  %289 = extractelement <2 x i32> %285, i64 1
  %or173.i.i = tail call i32 @llvm.fshl.i32(i32 %ret.0.copyload.i107.i.i, i32 %289, i32 10)
  %vecinit.i.i.i109.i.i = insertelement <16 x i32> undef, i32 %or100.i1273.i, i64 0
  %vecinit1.i.i.i110.i.i = insertelement <16 x i32> %vecinit.i.i.i109.i.i, i32 %ret.0.copyload.i84.i1272.i, i64 1
  %290 = shufflevector <2 x i32> %276, <2 x i32> poison, <16 x i32> <i32 0, i32 1, i32 poison, i32 poison, i32 poison, i32 poison, i32 poison, i32 poison, i32 poison, i32 poison, i32 poison, i32 poison, i32 poison, i32 poison, i32 poison, i32 poison>
  %vecinit3.i.i.i112.i.i143 = shufflevector <16 x i32> %vecinit1.i.i.i110.i.i, <16 x i32> %290, <16 x i32> <i32 0, i32 1, i32 16, i32 17, i32 poison, i32 poison, i32 poison, i32 poison, i32 poison, i32 poison, i32 poison, i32 poison, i32 poison, i32 poison, i32 poison, i32 poison>
  %291 = shufflevector <2 x i32> %273, <2 x i32> poison, <16 x i32> <i32 poison, i32 1, i32 poison, i32 poison, i32 poison, i32 poison, i32 poison, i32 poison, i32 poison, i32 poison, i32 poison, i32 poison, i32 poison, i32 poison, i32 poison, i32 poison>
  %292 = shufflevector <16 x i32> %vecinit3.i.i.i112.i.i143, <16 x i32> %291, <16 x i32> <i32 0, i32 1, i32 2, i32 3, i32 17, i32 poison, i32 poison, i32 poison, i32 poison, i32 poison, i32 poison, i32 poison, i32 poison, i32 poison, i32 poison, i32 poison>
  %293 = shufflevector <2 x i32> %280, <2 x i32> poison, <16 x i32> <i32 0, i32 1, i32 poison, i32 poison, i32 poison, i32 poison, i32 poison, i32 poison, i32 poison, i32 poison, i32 poison, i32 poison, i32 poison, i32 poison, i32 poison, i32 poison>
  %vecinit6.i.i.i115.i.i142 = shufflevector <16 x i32> %292, <16 x i32> %293, <16 x i32> <i32 0, i32 1, i32 2, i32 3, i32 4, i32 16, i32 17, i32 poison, i32 poison, i32 poison, i32 poison, i32 poison, i32 poison, i32 poison, i32 poison, i32 poison>
  %294 = shufflevector <2 x i32> %277, <2 x i32> poison, <16 x i32> <i32 poison, i32 1, i32 poison, i32 poison, i32 poison, i32 poison, i32 poison, i32 poison, i32 poison, i32 poison, i32 poison, i32 poison, i32 poison, i32 poison, i32 poison, i32 poison>
  %295 = shufflevector <16 x i32> %vecinit6.i.i.i115.i.i142, <16 x i32> %294, <16 x i32> <i32 0, i32 1, i32 2, i32 3, i32 4, i32 5, i32 6, i32 17, i32 poison, i32 poison, i32 poison, i32 poison, i32 poison, i32 poison, i32 poison, i32 poison>
