; ModuleID = 'bench/duckdb/original/ub_duckdb_main_relation.cpp.ll'
source_filename = "bench/duckdb/original/ub_duckdb_main_relation.cpp.ll"
target datalayout = "e-m:e-p270:32:32-p271:32:32-p272:64:64-i64:64-i128:128-f80:128-n8:16:32:64-S128"
target triple = "x86_64-unknown-linux-gnu"

%"class.std::ios_base::Init" = type { i8 }
%"struct.std::piecewise_construct_t" = type { i8 }
%"class.std::shared_ptr.83" = type { %"class.std::__shared_ptr.84" }
%"class.std::__shared_ptr.84" = type { ptr, %"class.std::__shared_count" }
%"class.std::__shared_count" = type { ptr }
%"class.duckdb::Relation" = type { ptr, %"class.std::enable_shared_from_this", %"class.duckdb::ClientContextWrapper", i8, %"class.std::shared_ptr.2" }
%"class.std::enable_shared_from_this" = type { %"class.std::weak_ptr" }
%"class.std::weak_ptr" = type { %"class.std::__weak_ptr" }
%"class.std::__weak_ptr" = type { ptr, %"class.std::__weak_count" }
%"class.std::__weak_count" = type { ptr }
%"class.duckdb::ClientContextWrapper" = type { %"class.std::weak_ptr.0" }
%"class.std::weak_ptr.0" = type { %"class.std::__weak_ptr.1" }
%"class.std::__weak_ptr.1" = type { ptr, %"class.std::__weak_count" }
%"class.std::shared_ptr.2" = type { %"class.std::__shared_ptr.3" }
%"class.std::__shared_ptr.3" = type { ptr, %"class.std::__shared_count" }
%"class.duckdb::AggregateRelation" = type { %"class.duckdb::Relation", %"class.duckdb::vector", %"class.duckdb::GroupByNode", %"class.duckdb::vector.11", %"class.std::shared_ptr" }
%"class.duckdb::vector" = type { %"class.std::vector" }
%"class.std::vector" = type { %"struct.std::_Vector_base" }
%"struct.std::_Vector_base" = type { %"struct.std::_Vector_base<duckdb::unique_ptr<duckdb::ParsedExpression>, std::allocator<duckdb::unique_ptr<duckdb::ParsedExpression>>>::_Vector_impl" }
%"struct.std::_Vector_base<duckdb::unique_ptr<duckdb::ParsedExpression>, std::allocator<duckdb::unique_ptr<duckdb::ParsedExpression>>>::_Vector_impl" = type { %"struct.std::_Vector_base<duckdb::unique_ptr<duckdb::ParsedExpression>, std::allocator<duckdb::unique_ptr<duckdb::ParsedExpression>>>::_Vector_impl_data" }
%"struct.std::_Vector_base<duckdb::unique_ptr<duckdb::ParsedExpression>, std::allocator<duckdb::unique_ptr<duckdb::ParsedExpression>>>::_Vector_impl_data" = type { ptr, ptr, ptr }
%"class.duckdb::GroupByNode" = type { %"class.duckdb::vector", %"class.duckdb::vector.5" }
%"class.duckdb::vector.5" = type { %"class.std::vector.6" }
%"class.std::vector.6" = type { %"struct.std::_Vector_base.7" }
%"struct.std::_Vector_base.7" = type { %"struct.std::_Vector_base<std::set<unsigned long>, std::allocator<std::set<unsigned long>>>::_Vector_impl" }
%"struct.std::_Vector_base<std::set<unsigned long>, std::allocator<std::set<unsigned long>>>::_Vector_impl" = type { %"struct.std::_Vector_base<std::set<unsigned long>, std::allocator<std::set<unsigned long>>>::_Vector_impl_data" }
%"struct.std::_Vector_base<std::set<unsigned long>, std::allocator<std::set<unsigned long>>>::_Vector_impl_data" = type { ptr, ptr, ptr }
%"class.duckdb::vector.11" = type { %"class.std::vector.12" }
%"class.std::vector.12" = type { %"struct.std::_Vector_base.13" }
%"struct.std::_Vector_base.13" = type { %"struct.std::_Vector_base<duckdb::ColumnDefinition, std::allocator<duckdb::ColumnDefinition>>::_Vector_impl" }
%"struct.std::_Vector_base<duckdb::ColumnDefinition, std::allocator<duckdb::ColumnDefinition>>::_Vector_impl" = type { %"struct.std::_Vector_base<duckdb::ColumnDefinition, std::allocator<duckdb::ColumnDefinition>>::_Vector_impl_data" }
%"struct.std::_Vector_base<duckdb::ColumnDefinition, std::allocator<duckdb::ColumnDefinition>>::_Vector_impl_data" = type { ptr, ptr, ptr }
%"class.std::shared_ptr" = type { %"class.std::__shared_ptr" }
%"class.std::__shared_ptr" = type { ptr, %"class.std::__shared_count" }
%"class.std::_Sp_counted_base" = type { ptr, i32, i32 }
%"class.std::__cxx11::basic_string" = type { %"struct.std::__cxx11::basic_string<char>::_Alloc_hider", i64, %union.anon }
%"struct.std::__cxx11::basic_string<char>::_Alloc_hider" = type { ptr }
%union.anon = type { i64, [8 x i8] }
%"class.std::allocator.40" = type { i8 }
%"class.duckdb::ColumnDefinition" = type { %"class.std::__cxx11::basic_string", %"struct.duckdb::LogicalType", i8, i64, i64, i8, %"class.duckdb::unique_ptr.90" }
%"struct.duckdb::LogicalType" = type { i8, i8, %"class.std::shared_ptr.466" }
%"class.std::shared_ptr.466" = type { %"class.std::__shared_ptr.467" }
%"class.std::__shared_ptr.467" = type { ptr, %"class.std::__shared_count" }
%"class.duckdb::unique_ptr.90" = type { %"class.std::unique_ptr.91" }
%"class.std::unique_ptr.91" = type { %"struct.std::__uniq_ptr_data.92" }
%"struct.std::__uniq_ptr_data.92" = type { %"class.std::__uniq_ptr_impl.93" }
%"class.std::__uniq_ptr_impl.93" = type { %"class.std::tuple.94" }
%"class.std::tuple.94" = type { %"struct.std::_Tuple_impl.95" }
%"struct.std::_Tuple_impl.95" = type { %"struct.std::_Head_base.98" }
%"struct.std::_Head_base.98" = type { ptr }
%"class.std::set" = type { %"class.std::_Rb_tree" }
%"class.std::_Rb_tree" = type { %"struct.std::_Rb_tree<unsigned long, unsigned long, std::_Identity<unsigned long>, std::less<unsigned long>>::_Rb_tree_impl" }
%"struct.std::_Rb_tree<unsigned long, unsigned long, std::_Identity<unsigned long>, std::less<unsigned long>>::_Rb_tree_impl" = type { %"struct.std::_Rb_tree_key_compare", %"struct.std::_Rb_tree_header" }
%"struct.std::_Rb_tree_key_compare" = type { %"struct.std::less" }
%"struct.std::less" = type { i8 }
%"struct.std::_Rb_tree_header" = type { %"struct.std::_Rb_tree_node_base", i64 }
%"struct.std::_Rb_tree_node_base" = type { i32, ptr, ptr, ptr }
%"struct.std::_Rb_tree_node" = type { %"struct.std::_Rb_tree_node_base", %"struct.__gnu_cxx::__aligned_membuf" }
%"struct.__gnu_cxx::__aligned_membuf" = type { [8 x i8] }
%"class.duckdb::unique_ptr.99" = type { %"class.std::unique_ptr.100" }
%"class.std::unique_ptr.100" = type { %"struct.std::__uniq_ptr_data.101" }
%"struct.std::__uniq_ptr_data.101" = type { %"class.std::__uniq_ptr_impl.102" }
%"class.std::__uniq_ptr_impl.102" = type { %"class.std::tuple.103" }
%"class.std::tuple.103" = type { %"struct.std::_Tuple_impl.104" }
%"struct.std::_Tuple_impl.104" = type { %"struct.std::_Head_base.107" }
%"struct.std::_Head_base.107" = type { ptr }
%"class.duckdb::unique_ptr.108" = type { %"class.std::unique_ptr.109" }
%"class.std::unique_ptr.109" = type { %"struct.std::__uniq_ptr_data.110" }
%"struct.std::__uniq_ptr_data.110" = type { %"class.std::__uniq_ptr_impl.111" }
%"class.std::__uniq_ptr_impl.111" = type { %"class.std::tuple.112" }
%"class.std::tuple.112" = type { %"struct.std::_Tuple_impl.113" }
%"struct.std::_Tuple_impl.113" = type { %"struct.std::_Head_base.116" }
%"struct.std::_Head_base.116" = type { ptr }
%"class.duckdb::unique_ptr.117" = type { %"class.std::unique_ptr.118" }
%"class.std::unique_ptr.118" = type { %"struct.std::__uniq_ptr_data.119" }
%"struct.std::__uniq_ptr_data.119" = type { %"class.std::__uniq_ptr_impl.120" }
%"class.std::__uniq_ptr_impl.120" = type { %"class.std::tuple.121" }
%"class.std::tuple.121" = type { %"struct.std::_Tuple_impl.122" }
%"struct.std::_Tuple_impl.122" = type { %"struct.std::_Head_base.125" }
%"struct.std::_Head_base.125" = type { ptr }
%"class.duckdb::SelectNode" = type { %"class.duckdb::QueryNode", %"class.duckdb::vector", %"class.duckdb::unique_ptr.117", %"class.duckdb::unique_ptr.90", %"class.duckdb::GroupByNode", %"class.duckdb::unique_ptr.90", %"class.duckdb::unique_ptr.90", i8, %"class.duckdb::unique_ptr.146" }
%"class.duckdb::QueryNode" = type { ptr, i8, %"class.duckdb::vector.126", %"class.duckdb::CommonTableExpressionMap" }
%"class.duckdb::vector.126" = type { %"class.std::vector.127" }
%"class.std::vector.127" = type { %"struct.std::_Vector_base.128" }
%"struct.std::_Vector_base.128" = type { %"struct.std::_Vector_base<duckdb::unique_ptr<duckdb::ResultModifier>, std::allocator<duckdb::unique_ptr<duckdb::ResultModifier>>>::_Vector_impl" }
%"struct.std::_Vector_base<duckdb::unique_ptr<duckdb::ResultModifier>, std::allocator<duckdb::unique_ptr<duckdb::ResultModifier>>>::_Vector_impl" = type { %"struct.std::_Vector_base<duckdb::unique_ptr<duckdb::ResultModifier>, std::allocator<duckdb::unique_ptr<duckdb::ResultModifier>>>::_Vector_impl_data" }
%"struct.std::_Vector_base<duckdb::unique_ptr<duckdb::ResultModifier>, std::allocator<duckdb::unique_ptr<duckdb::ResultModifier>>>::_Vector_impl_data" = type { ptr, ptr, ptr }
%"class.duckdb::CommonTableExpressionMap" = type { %"class.std::unordered_map.132" }
%"class.std::unordered_map.132" = type { %"class.std::_Hashtable.133" }
%"class.std::_Hashtable.133" = type { ptr, i64, %"struct.std::__detail::_Hash_node_base", i64, %"struct.std::__detail::_Prime_rehash_policy", ptr }
%"struct.std::__detail::_Hash_node_base" = type { ptr }
%"struct.std::__detail::_Prime_rehash_policy" = type { float, i64 }
%"class.duckdb::unique_ptr.146" = type { %"class.std::unique_ptr.147" }
%"class.std::unique_ptr.147" = type { %"struct.std::__uniq_ptr_data.148" }
%"struct.std::__uniq_ptr_data.148" = type { %"class.std::__uniq_ptr_impl.149" }
%"class.std::__uniq_ptr_impl.149" = type { %"class.std::tuple.150" }
%"class.std::tuple.150" = type { %"struct.std::_Tuple_impl.151" }
%"struct.std::_Tuple_impl.151" = type { %"struct.std::_Head_base.154" }
%"struct.std::_Head_base.154" = type { ptr }
%"class.duckdb::CreateTableRelation" = type { %"class.duckdb::Relation", %"class.std::shared_ptr", %"class.std::__cxx11::basic_string", %"class.std::__cxx11::basic_string", %"class.duckdb::vector.11" }
%"struct.duckdb::BoundStatement" = type { %"class.duckdb::unique_ptr.155", %"class.duckdb::vector.164", %"class.duckdb::vector.170" }
%"class.duckdb::unique_ptr.155" = type { %"class.std::unique_ptr.156" }
%"class.std::unique_ptr.156" = type { %"struct.std::__uniq_ptr_data.157" }
%"struct.std::__uniq_ptr_data.157" = type { %"class.std::__uniq_ptr_impl.158" }
%"class.std::__uniq_ptr_impl.158" = type { %"class.std::tuple.159" }
%"class.std::tuple.159" = type { %"struct.std::_Tuple_impl.160" }
%"struct.std::_Tuple_impl.160" = type { %"struct.std::_Head_base.163" }
%"struct.std::_Head_base.163" = type { ptr }
%"class.duckdb::vector.164" = type { %"class.std::vector.165" }
%"class.std::vector.165" = type { %"struct.std::_Vector_base.166" }
%"struct.std::_Vector_base.166" = type { %"struct.std::_Vector_base<duckdb::LogicalType, std::allocator<duckdb::LogicalType>>::_Vector_impl" }
%"struct.std::_Vector_base<duckdb::LogicalType, std::allocator<duckdb::LogicalType>>::_Vector_impl" = type { %"struct.std::_Vector_base<duckdb::LogicalType, std::allocator<duckdb::LogicalType>>::_Vector_impl_data" }
%"struct.std::_Vector_base<duckdb::LogicalType, std::allocator<duckdb::LogicalType>>::_Vector_impl_data" = type { ptr, ptr, ptr }
%"class.duckdb::vector.170" = type { %"class.std::vector.171" }
%"class.std::vector.171" = type { %"struct.std::_Vector_base.172" }
%"struct.std::_Vector_base.172" = type { %"struct.std::_Vector_base<std::__cxx11::basic_string<char>, std::allocator<std::__cxx11::basic_string<char>>>::_Vector_impl" }
%"struct.std::_Vector_base<std::__cxx11::basic_string<char>, std::allocator<std::__cxx11::basic_string<char>>>::_Vector_impl" = type { %"struct.std::_Vector_base<std::__cxx11::basic_string<char>, std::allocator<std::__cxx11::basic_string<char>>>::_Vector_impl_data" }
%"struct.std::_Vector_base<std::__cxx11::basic_string<char>, std::allocator<std::__cxx11::basic_string<char>>>::_Vector_impl_data" = type { ptr, ptr, ptr }
%"class.duckdb::unique_ptr.176" = type { %"class.std::unique_ptr.177" }
%"class.std::unique_ptr.177" = type { %"struct.std::__uniq_ptr_data.178" }
%"struct.std::__uniq_ptr_data.178" = type { %"class.std::__uniq_ptr_impl.179" }
%"class.std::__uniq_ptr_impl.179" = type { %"class.std::tuple.180" }
%"class.std::tuple.180" = type { %"struct.std::_Tuple_impl.181" }
%"struct.std::_Tuple_impl.181" = type { %"struct.std::_Head_base.184" }
%"struct.std::_Head_base.184" = type { ptr }
%"class.duckdb::CreateStatement" = type { %"class.duckdb::SQLStatement", %"class.duckdb::unique_ptr.199" }
%"class.duckdb::SQLStatement" = type { ptr, i8, i64, i64, i64, %"class.std::unordered_map.185", %"class.std::__cxx11::basic_string" }
%"class.std::unordered_map.185" = type { %"class.std::_Hashtable.186" }
%"class.std::_Hashtable.186" = type { ptr, i64, %"struct.std::__detail::_Hash_node_base", i64, %"struct.std::__detail::_Prime_rehash_policy", ptr }
%"class.duckdb::unique_ptr.199" = type { %"class.std::unique_ptr.200" }
%"class.std::unique_ptr.200" = type { %"struct.std::__uniq_ptr_data.201" }
%"struct.std::__uniq_ptr_data.201" = type { %"class.std::__uniq_ptr_impl.202" }
%"class.std::__uniq_ptr_impl.202" = type { %"class.std::tuple.203" }
%"class.std::tuple.203" = type { %"struct.std::_Tuple_impl.204" }
%"struct.std::_Tuple_impl.204" = type { %"struct.std::_Head_base.207" }
%"struct.std::_Head_base.207" = type { ptr }
%"class.duckdb::unique_ptr.208" = type { %"class.std::unique_ptr.209" }
%"class.std::unique_ptr.209" = type { %"struct.std::__uniq_ptr_data.210" }
%"struct.std::__uniq_ptr_data.210" = type { %"class.std::__uniq_ptr_impl.211" }
%"class.std::__uniq_ptr_impl.211" = type { %"class.std::tuple.212" }
%"class.std::tuple.212" = type { %"struct.std::_Tuple_impl.213" }
%"struct.std::_Tuple_impl.213" = type { %"struct.std::_Head_base.216" }
%"struct.std::_Head_base.216" = type { ptr }
%"class.duckdb::SelectStatement" = type { %"class.duckdb::SQLStatement", %"class.duckdb::unique_ptr.99" }
%"struct.duckdb::CreateInfo" = type { %"struct.duckdb::ParseInfo.base", i8, %"class.std::__cxx11::basic_string", %"class.std::__cxx11::basic_string", i8, i8, i8, %"class.std::__cxx11::basic_string" }
%"struct.duckdb::ParseInfo.base" = type <{ ptr, i8 }>
%"struct.duckdb::CreateTableInfo" = type { %"struct.duckdb::CreateInfo", %"class.std::__cxx11::basic_string", %"class.duckdb::ColumnList", %"class.duckdb::vector.223", %"class.duckdb::unique_ptr.176" }
%"class.duckdb::ColumnList" = type <{ %"class.duckdb::vector.11", %"class.std::unordered_map.185", %"class.duckdb::vector.217", i8, [7 x i8] }>
%"class.duckdb::vector.217" = type { %"class.std::vector.218" }
%"class.std::vector.218" = type { %"struct.std::_Vector_base.219" }
%"struct.std::_Vector_base.219" = type { %"struct.std::_Vector_base<unsigned long, std::allocator<unsigned long>>::_Vector_impl" }
%"struct.std::_Vector_base<unsigned long, std::allocator<unsigned long>>::_Vector_impl" = type { %"struct.std::_Vector_base<unsigned long, std::allocator<unsigned long>>::_Vector_impl_data" }
%"struct.std::_Vector_base<unsigned long, std::allocator<unsigned long>>::_Vector_impl_data" = type { ptr, ptr, ptr }
%"class.duckdb::vector.223" = type { %"class.std::vector.224" }
%"class.std::vector.224" = type { %"struct.std::_Vector_base.225" }
%"struct.std::_Vector_base.225" = type { %"struct.std::_Vector_base<duckdb::unique_ptr<duckdb::Constraint>, std::allocator<duckdb::unique_ptr<duckdb::Constraint>>>::_Vector_impl" }
%"struct.std::_Vector_base<duckdb::unique_ptr<duckdb::Constraint>, std::allocator<duckdb::unique_ptr<duckdb::Constraint>>>::_Vector_impl" = type { %"struct.std::_Vector_base<duckdb::unique_ptr<duckdb::Constraint>, std::allocator<duckdb::unique_ptr<duckdb::Constraint>>>::_Vector_impl_data" }
%"struct.std::_Vector_base<duckdb::unique_ptr<duckdb::Constraint>, std::allocator<duckdb::unique_ptr<duckdb::Constraint>>>::_Vector_impl_data" = type { ptr, ptr, ptr }
%"class.duckdb::CreateViewRelation" = type { %"class.duckdb::Relation", %"class.std::shared_ptr", %"class.std::__cxx11::basic_string", %"class.std::__cxx11::basic_string", i8, i8, %"class.duckdb::vector.11" }
%"class.duckdb::unique_ptr.379" = type { %"class.std::unique_ptr.380" }
%"class.std::unique_ptr.380" = type { %"struct.std::__uniq_ptr_data.381" }
%"struct.std::__uniq_ptr_data.381" = type { %"class.std::__uniq_ptr_impl.382" }
%"class.std::__uniq_ptr_impl.382" = type { %"class.std::tuple.383" }
%"class.std::tuple.383" = type { %"struct.std::_Tuple_impl.384" }
%"struct.std::_Tuple_impl.384" = type { %"struct.std::_Head_base.387" }
%"struct.std::_Head_base.387" = type { ptr }
%"struct.duckdb::CreateViewInfo" = type { %"struct.duckdb::CreateInfo", %"class.std::__cxx11::basic_string", %"class.duckdb::vector.170", %"class.duckdb::vector.164", %"class.duckdb::unique_ptr.176" }
%"class.duckdb::CrossProductRelation" = type { %"class.duckdb::Relation", %"class.std::shared_ptr", %"class.std::shared_ptr", i8, %"class.duckdb::vector.11" }
%"class.duckdb::unique_ptr.397" = type { %"class.std::unique_ptr.398" }
%"class.std::unique_ptr.398" = type { %"struct.std::__uniq_ptr_data.399" }
%"struct.std::__uniq_ptr_data.399" = type { %"class.std::__uniq_ptr_impl.400" }
%"class.std::__uniq_ptr_impl.400" = type { %"class.std::tuple.401" }
%"class.std::tuple.401" = type { %"struct.std::_Tuple_impl.402" }
%"struct.std::_Tuple_impl.402" = type { %"struct.std::_Head_base.405" }
%"struct.std::_Head_base.405" = type { ptr }
%"class.duckdb::TableRef" = type { ptr, i8, %"class.std::__cxx11::basic_string", %"class.duckdb::unique_ptr.146", i64 }
%"class.duckdb::JoinRef" = type { %"class.duckdb::TableRef", %"class.duckdb::unique_ptr.117", %"class.duckdb::unique_ptr.117", %"class.duckdb::unique_ptr.90", i8, i8, %"class.duckdb::vector.170" }
%"class.duckdb::DeleteRelation" = type { %"class.duckdb::Relation", %"class.duckdb::vector.11", %"class.duckdb::unique_ptr.90", %"class.std::__cxx11::basic_string", %"class.std::__cxx11::basic_string" }
%"class.duckdb::unique_ptr.406" = type { %"class.std::unique_ptr.407" }
%"class.std::unique_ptr.407" = type { %"struct.std::__uniq_ptr_data.408" }
%"struct.std::__uniq_ptr_data.408" = type { %"class.std::__uniq_ptr_impl.409" }
%"class.std::__uniq_ptr_impl.409" = type { %"class.std::tuple.410" }
%"class.std::tuple.410" = type { %"struct.std::_Tuple_impl.411" }
%"struct.std::_Tuple_impl.411" = type { %"struct.std::_Head_base.414" }
%"struct.std::_Head_base.414" = type { ptr }
%"class.duckdb::DeleteStatement" = type { %"class.duckdb::SQLStatement", %"class.duckdb::unique_ptr.90", %"class.duckdb::unique_ptr.117", %"class.duckdb::vector.415", %"class.duckdb::vector", %"class.duckdb::CommonTableExpressionMap" }
%"class.duckdb::vector.415" = type { %"class.std::vector.416" }
%"class.std::vector.416" = type { %"struct.std::_Vector_base.417" }
%"struct.std::_Vector_base.417" = type { %"struct.std::_Vector_base<duckdb::unique_ptr<duckdb::TableRef>, std::allocator<duckdb::unique_ptr<duckdb::TableRef>>>::_Vector_impl" }
%"struct.std::_Vector_base<duckdb::unique_ptr<duckdb::TableRef>, std::allocator<duckdb::unique_ptr<duckdb::TableRef>>>::_Vector_impl" = type { %"struct.std::_Vector_base<duckdb::unique_ptr<duckdb::TableRef>, std::allocator<duckdb::unique_ptr<duckdb::TableRef>>>::_Vector_impl_data" }
%"struct.std::_Vector_base<duckdb::unique_ptr<duckdb::TableRef>, std::allocator<duckdb::unique_ptr<duckdb::TableRef>>>::_Vector_impl_data" = type { ptr, ptr, ptr }
%"class.duckdb::BaseTableRef" = type { %"class.duckdb::TableRef", %"class.std::__cxx11::basic_string", %"class.std::__cxx11::basic_string", %"class.std::__cxx11::basic_string", %"class.duckdb::vector.170" }
%"class.duckdb::DistinctRelation" = type { %"class.duckdb::Relation", %"class.std::shared_ptr" }
%"class.duckdb::ExplainRelation" = type <{ %"class.duckdb::Relation", %"class.std::shared_ptr", %"class.duckdb::vector.11", i8, [7 x i8] }>
%"class.duckdb::ExplainStatement" = type <{ %"class.duckdb::SQLStatement", %"class.duckdb::unique_ptr.421", i8, [7 x i8] }>
%"class.duckdb::unique_ptr.421" = type { %"class.std::unique_ptr.422" }
%"class.std::unique_ptr.422" = type { %"struct.std::__uniq_ptr_data.423" }
%"struct.std::__uniq_ptr_data.423" = type { %"class.std::__uniq_ptr_impl.424" }
%"class.std::__uniq_ptr_impl.424" = type { %"class.std::tuple.425" }
%"class.std::tuple.425" = type { %"struct.std::_Tuple_impl.426" }
%"struct.std::_Tuple_impl.426" = type { %"struct.std::_Head_base.429" }
%"struct.std::_Head_base.429" = type { ptr }
%"class.duckdb::FilterRelation" = type { %"class.duckdb::Relation", %"class.duckdb::unique_ptr.90", %"class.std::shared_ptr" }
%"class.duckdb::InsertRelation" = type { %"class.duckdb::Relation", %"class.std::shared_ptr", %"class.std::__cxx11::basic_string", %"class.std::__cxx11::basic_string", %"class.duckdb::vector.11" }
%"class.duckdb::InsertStatement" = type <{ %"class.duckdb::SQLStatement", %"class.duckdb::unique_ptr.176", %"class.duckdb::vector.170", %"class.std::__cxx11::basic_string", %"class.std::__cxx11::basic_string", %"class.std::__cxx11::basic_string", %"class.duckdb::vector", %"class.duckdb::unique_ptr.439", %"class.duckdb::unique_ptr.117", %"class.duckdb::CommonTableExpressionMap", i8, i8, [6 x i8] }>
%"class.duckdb::unique_ptr.439" = type { %"class.std::unique_ptr.440" }
%"class.std::unique_ptr.440" = type { %"struct.std::__uniq_ptr_data.441" }
%"struct.std::__uniq_ptr_data.441" = type { %"class.std::__uniq_ptr_impl.442" }
%"class.std::__uniq_ptr_impl.442" = type { %"class.std::tuple.443" }
%"class.std::tuple.443" = type { %"struct.std::_Tuple_impl.444" }
%"struct.std::_Tuple_impl.444" = type { %"struct.std::_Head_base.447" }
%"struct.std::_Head_base.447" = type { ptr }
%"class.duckdb::JoinRelation" = type { %"class.duckdb::Relation", %"class.std::shared_ptr", %"class.std::shared_ptr", %"class.duckdb::unique_ptr.90", %"class.duckdb::vector.170", i8, i8, %"class.duckdb::vector.11" }
%"class.duckdb::LimitRelation" = type { %"class.duckdb::Relation", i64, i64, %"class.std::shared_ptr" }
%"class.duckdb::Value" = type { %"struct.duckdb::LogicalType", i8, %"union.duckdb::Value::Val", %"class.std::shared_ptr.469" }
%"union.duckdb::Value::Val" = type { %"struct.duckdb::hugeint_t" }
%"struct.duckdb::hugeint_t" = type { i64, i64 }
%"class.std::shared_ptr.469" = type { %"class.std::__shared_ptr.470" }
%"class.std::__shared_ptr.470" = type { ptr, %"class.std::__shared_count" }
%"class.duckdb::unique_ptr.448" = type { %"class.std::unique_ptr.449" }
%"class.std::unique_ptr.449" = type { %"struct.std::__uniq_ptr_data.450" }
%"struct.std::__uniq_ptr_data.450" = type { %"class.std::__uniq_ptr_impl.451" }
%"class.std::__uniq_ptr_impl.451" = type { %"class.std::tuple.452" }
%"class.std::tuple.452" = type { %"struct.std::_Tuple_impl.453" }
%"struct.std::_Tuple_impl.453" = type { %"struct.std::_Head_base.456" }
%"struct.std::_Head_base.456" = type { ptr }
%"class.duckdb::ResultModifier" = type <{ ptr, i8, [7 x i8] }>
%"class.duckdb::LimitModifier" = type { %"class.duckdb::ResultModifier.base", %"class.duckdb::unique_ptr.90", %"class.duckdb::unique_ptr.90" }
%"class.duckdb::ResultModifier.base" = type <{ ptr, i8 }>
%"class.duckdb::unique_ptr.472" = type { %"class.std::unique_ptr.473" }
%"class.std::unique_ptr.473" = type { %"struct.std::__uniq_ptr_data.474" }
%"struct.std::__uniq_ptr_data.474" = type { %"class.std::__uniq_ptr_impl.475" }
%"class.std::__uniq_ptr_impl.475" = type { %"class.std::tuple.476" }
%"class.std::tuple.476" = type { %"struct.std::_Tuple_impl.477" }
%"struct.std::_Tuple_impl.477" = type { %"struct.std::_Head_base.480" }
%"struct.std::_Head_base.480" = type { ptr }
%"class.duckdb::OrderRelation" = type { %"class.duckdb::Relation", %"class.duckdb::vector.481", %"class.std::shared_ptr", %"class.duckdb::vector.11" }
%"class.duckdb::vector.481" = type { %"class.std::vector.482" }
%"class.std::vector.482" = type { %"struct.std::_Vector_base.483" }
%"struct.std::_Vector_base.483" = type { %"struct.std::_Vector_base<duckdb::OrderByNode, std::allocator<duckdb::OrderByNode>>::_Vector_impl" }
%"struct.std::_Vector_base<duckdb::OrderByNode, std::allocator<duckdb::OrderByNode>>::_Vector_impl" = type { %"struct.std::_Vector_base<duckdb::OrderByNode, std::allocator<duckdb::OrderByNode>>::_Vector_impl_data" }
%"struct.std::_Vector_base<duckdb::OrderByNode, std::allocator<duckdb::OrderByNode>>::_Vector_impl_data" = type { ptr, ptr, ptr }
%"struct.duckdb::OrderByNode" = type { i8, i8, %"class.duckdb::unique_ptr.90" }
%"class.duckdb::unique_ptr.487" = type { %"class.std::unique_ptr.488" }
%"class.std::unique_ptr.488" = type { %"struct.std::__uniq_ptr_data.489" }
%"struct.std::__uniq_ptr_data.489" = type { %"class.std::__uniq_ptr_impl.490" }
%"class.std::__uniq_ptr_impl.490" = type { %"class.std::tuple.491" }
%"class.std::tuple.491" = type { %"struct.std::_Tuple_impl.492" }
%"struct.std::_Tuple_impl.492" = type { %"struct.std::_Head_base.495" }
%"struct.std::_Head_base.495" = type { ptr }
%"class.duckdb::OrderModifier" = type { %"class.duckdb::ResultModifier.base", %"class.duckdb::vector.481" }
%"class.duckdb::UpdateRelation" = type { %"class.duckdb::Relation", %"class.duckdb::vector.11", %"class.duckdb::unique_ptr.90", %"class.std::__cxx11::basic_string", %"class.std::__cxx11::basic_string", %"class.duckdb::vector.170", %"class.duckdb::vector" }
%"class.duckdb::UpdateStatement" = type { %"class.duckdb::SQLStatement", %"class.duckdb::unique_ptr.117", %"class.duckdb::unique_ptr.117", %"class.duckdb::vector", %"class.duckdb::unique_ptr.496", %"class.duckdb::CommonTableExpressionMap" }
%"class.duckdb::unique_ptr.496" = type { %"class.std::unique_ptr.497" }
%"class.std::unique_ptr.497" = type { %"struct.std::__uniq_ptr_data.498" }
%"struct.std::__uniq_ptr_data.498" = type { %"class.std::__uniq_ptr_impl.499" }
%"class.std::__uniq_ptr_impl.499" = type { %"class.std::tuple.500" }
%"class.std::tuple.500" = type { %"struct.std::_Tuple_impl.501" }
%"struct.std::_Tuple_impl.501" = type { %"struct.std::_Head_base.504" }
%"struct.std::_Head_base.504" = type { ptr }
%"class.duckdb::UpdateSetInfo" = type { %"class.duckdb::unique_ptr.90", %"class.duckdb::vector.170", %"class.duckdb::vector" }
%"class.duckdb::ProjectionRelation" = type { %"class.duckdb::Relation", %"class.duckdb::vector", %"class.duckdb::vector.11", %"class.std::shared_ptr" }
%"class.duckdb::BaseExpression" = type { ptr, i8, i8, %"class.std::__cxx11::basic_string" }
%"class.duckdb::QueryRelation" = type { %"class.duckdb::Relation", %"class.duckdb::unique_ptr.176", %"class.std::__cxx11::basic_string", %"class.duckdb::vector.11" }
%"class.duckdb::Parser" = type { %"class.duckdb::vector.505", %"struct.duckdb::ParserOptions" }
%"class.duckdb::vector.505" = type { %"class.std::vector.506" }
%"class.std::vector.506" = type { %"struct.std::_Vector_base.507" }
%"struct.std::_Vector_base.507" = type { %"struct.std::_Vector_base<duckdb::unique_ptr<duckdb::SQLStatement>, std::allocator<duckdb::unique_ptr<duckdb::SQLStatement>>>::_Vector_impl" }
%"struct.std::_Vector_base<duckdb::unique_ptr<duckdb::SQLStatement>, std::allocator<duckdb::unique_ptr<duckdb::SQLStatement>>>::_Vector_impl" = type { %"struct.std::_Vector_base<duckdb::unique_ptr<duckdb::SQLStatement>, std::allocator<duckdb::unique_ptr<duckdb::SQLStatement>>>::_Vector_impl_data" }
%"struct.std::_Vector_base<duckdb::unique_ptr<duckdb::SQLStatement>, std::allocator<duckdb::unique_ptr<duckdb::SQLStatement>>>::_Vector_impl_data" = type { ptr, ptr, ptr }
%"struct.duckdb::ParserOptions" = type { i8, i8, i64, ptr }
%"class.duckdb::ReadCSVRelation" = type { %"class.duckdb::TableFunctionRelation.base", %"class.std::__cxx11::basic_string" }
%"class.duckdb::TableFunctionRelation.base" = type <{ %"class.duckdb::Relation", %"class.std::__cxx11::basic_string", %"class.duckdb::vector.520", %"class.std::unordered_map.43", %"class.duckdb::vector.11", %"class.std::shared_ptr", i8 }>
%"class.duckdb::vector.520" = type { %"class.std::vector.521" }
%"class.std::vector.521" = type { %"struct.std::_Vector_base.522" }
%"struct.std::_Vector_base.522" = type { %"struct.std::_Vector_base<duckdb::Value, std::allocator<duckdb::Value>>::_Vector_impl" }
%"struct.std::_Vector_base<duckdb::Value, std::allocator<duckdb::Value>>::_Vector_impl" = type { %"struct.std::_Vector_base<duckdb::Value, std::allocator<duckdb::Value>>::_Vector_impl_data" }
%"struct.std::_Vector_base<duckdb::Value, std::allocator<duckdb::Value>>::_Vector_impl_data" = type { ptr, ptr, ptr }
%"class.std::unordered_map.43" = type { %"class.std::_Hashtable.44" }
%"class.std::_Hashtable.44" = type { ptr, i64, %"struct.std::__detail::_Hash_node_base", i64, %"struct.std::__detail::_Prime_rehash_policy", ptr }
%"class.std::allocator.1094" = type { i8 }
%"struct.duckdb::CSVReaderOptions" = type { %"struct.duckdb::DialectOptions", i8, %"class.std::__cxx11::basic_string", i64, %"class.duckdb::vector.170", %"class.duckdb::vector.217", i64, %"class.std::__cxx11::basic_string", i8, i8, %"class.std::unordered_map.185", %"class.duckdb::vector.164", %"class.duckdb::vector.170", %"class.duckdb::vector.164", %"class.std::__cxx11::basic_string", i64, i8, %"class.duckdb::vector.536", i64, i8, i8, %"class.std::__cxx11::basic_string", %"struct.duckdb::MultiFileReaderOptions", i64, %"class.std::__cxx11::basic_string", i8, i32, %"class.std::__cxx11::basic_string", %"class.duckdb::vector.536", %"class.std::__cxx11::basic_string", %"class.std::__cxx11::basic_string", %"class.std::__cxx11::basic_string", %"class.std::map.552", %"class.std::map.557", %"class.std::map.562" }
%"struct.duckdb::DialectOptions" = type { %"struct.duckdb::CSVStateMachineOptions", %"struct.duckdb::CSVOption.526", i64, %"struct.duckdb::CSVOption.527", %"class.std::map", %"struct.duckdb::CSVOption.535", i64 }
%"struct.duckdb::CSVStateMachineOptions" = type { %"struct.duckdb::CSVOption", %"struct.duckdb::CSVOption", %"struct.duckdb::CSVOption" }
%"struct.duckdb::CSVOption" = type { i8, i8 }
%"struct.duckdb::CSVOption.526" = type { i8, i8 }
%"struct.duckdb::CSVOption.527" = type { i8, i8 }
%"class.std::map" = type { %"class.std::_Rb_tree.528" }
%"class.std::_Rb_tree.528" = type { %"struct.std::_Rb_tree<duckdb::LogicalTypeId, std::pair<const duckdb::LogicalTypeId, duckdb::CSVOption<duckdb::StrpTimeFormat>>, std::_Select1st<std::pair<const duckdb::LogicalTypeId, duckdb::CSVOption<duckdb::StrpTimeFormat>>>, std::less<duckdb::LogicalTypeId>>::_Rb_tree_impl" }
%"struct.std::_Rb_tree<duckdb::LogicalTypeId, std::pair<const duckdb::LogicalTypeId, duckdb::CSVOption<duckdb::StrpTimeFormat>>, std::_Select1st<std::pair<const duckdb::LogicalTypeId, duckdb::CSVOption<duckdb::StrpTimeFormat>>>, std::less<duckdb::LogicalTypeId>>::_Rb_tree_impl" = type { %"struct.std::_Rb_tree_key_compare.532", %"struct.std::_Rb_tree_header" }
%"struct.std::_Rb_tree_key_compare.532" = type { %"struct.std::less.533" }
%"struct.std::less.533" = type { i8 }
%"struct.duckdb::CSVOption.535" = type { i8, i64 }
%"struct.duckdb::MultiFileReaderOptions" = type { i8, i8, i8, i8, i8, %"class.std::unordered_map.538" }
%"class.std::unordered_map.538" = type { %"class.std::_Hashtable.539" }
%"class.std::_Hashtable.539" = type { ptr, i64, %"struct.std::__detail::_Hash_node_base", i64, %"struct.std::__detail::_Prime_rehash_policy", ptr }
%"class.duckdb::vector.536" = type { %"class.std::vector.537" }
%"class.std::vector.537" = type { %"struct.std::_Bvector_base" }
%"struct.std::_Bvector_base" = type { %"struct.std::_Bvector_base<std::allocator<bool>>::_Bvector_impl" }
%"struct.std::_Bvector_base<std::allocator<bool>>::_Bvector_impl" = type { %"struct.std::_Bvector_base<std::allocator<bool>>::_Bvector_impl_data" }
%"struct.std::_Bvector_base<std::allocator<bool>>::_Bvector_impl_data" = type { %"struct.std::_Bit_iterator", %"struct.std::_Bit_iterator", ptr }
%"struct.std::_Bit_iterator" = type { %"struct.std::_Bit_iterator_base.base", [4 x i8] }
%"struct.std::_Bit_iterator_base.base" = type <{ ptr, i32 }>
%"class.std::map.552" = type { %"class.std::_Rb_tree.553" }
%"class.std::_Rb_tree.553" = type { %"struct.std::_Rb_tree<duckdb::LogicalTypeId, std::pair<const duckdb::LogicalTypeId, duckdb::StrpTimeFormat>, std::_Select1st<std::pair<const duckdb::LogicalTypeId, duckdb::StrpTimeFormat>>, std::less<duckdb::LogicalTypeId>>::_Rb_tree_impl" }
%"struct.std::_Rb_tree<duckdb::LogicalTypeId, std::pair<const duckdb::LogicalTypeId, duckdb::StrpTimeFormat>, std::_Select1st<std::pair<const duckdb::LogicalTypeId, duckdb::StrpTimeFormat>>, std::less<duckdb::LogicalTypeId>>::_Rb_tree_impl" = type { %"struct.std::_Rb_tree_key_compare.532", %"struct.std::_Rb_tree_header" }
%"class.std::map.557" = type { %"class.std::_Rb_tree.558" }
%"class.std::_Rb_tree.558" = type { %"struct.std::_Rb_tree<duckdb::LogicalTypeId, std::pair<const duckdb::LogicalTypeId, duckdb::StrfTimeFormat>, std::_Select1st<std::pair<const duckdb::LogicalTypeId, duckdb::StrfTimeFormat>>, std::less<duckdb::LogicalTypeId>>::_Rb_tree_impl" }
%"struct.std::_Rb_tree<duckdb::LogicalTypeId, std::pair<const duckdb::LogicalTypeId, duckdb::StrfTimeFormat>, std::_Select1st<std::pair<const duckdb::LogicalTypeId, duckdb::StrfTimeFormat>>, std::less<duckdb::LogicalTypeId>>::_Rb_tree_impl" = type { %"struct.std::_Rb_tree_key_compare.532", %"struct.std::_Rb_tree_header" }
%"class.std::map.562" = type { %"class.std::_Rb_tree.563" }
%"class.std::_Rb_tree.563" = type { %"struct.std::_Rb_tree<duckdb::LogicalTypeId, std::pair<const duckdb::LogicalTypeId, bool>, std::_Select1st<std::pair<const duckdb::LogicalTypeId, bool>>, std::less<duckdb::LogicalTypeId>>::_Rb_tree_impl" }
%"struct.std::_Rb_tree<duckdb::LogicalTypeId, std::pair<const duckdb::LogicalTypeId, bool>, std::_Select1st<std::pair<const duckdb::LogicalTypeId, bool>>, std::less<duckdb::LogicalTypeId>>::_Rb_tree_impl" = type { %"struct.std::_Rb_tree_key_compare.532", %"struct.std::_Rb_tree_header" }
%"class.duckdb::unique_ptr.567" = type { %"class.std::unique_ptr.568" }
%"class.std::unique_ptr.568" = type { %"struct.std::__uniq_ptr_data.569" }
%"struct.std::__uniq_ptr_data.569" = type { %"class.std::__uniq_ptr_impl.570" }
%"class.std::__uniq_ptr_impl.570" = type { %"class.std::tuple.571" }
%"class.std::tuple.571" = type { %"struct.std::_Tuple_impl.572" }
%"struct.std::_Tuple_impl.572" = type { %"struct.std::_Head_base.575" }
%"struct.std::_Head_base.575" = type { ptr }
%"class.std::shared_ptr.576" = type { %"class.std::__shared_ptr.577" }
%"class.std::__shared_ptr.577" = type { ptr, %"class.std::__shared_count" }
%"class.duckdb::CSVStateMachineCache" = type { %"class.std::unordered_map.579", %"class.duckdb::vector.597", %"class.duckdb::vector.600", %"class.duckdb::vector.606", %"class.duckdb::vector.600" }
%"class.std::unordered_map.579" = type { %"class.std::_Hashtable.580" }
%"class.std::_Hashtable.580" = type { ptr, i64, %"struct.std::__detail::_Hash_node_base", i64, %"struct.std::__detail::_Prime_rehash_policy", ptr }
%"class.duckdb::vector.597" = type { %"class.std::vector.598" }
%"class.std::vector.598" = type { %"struct.std::_Vector_base.599" }
%"struct.std::_Vector_base.599" = type { %"struct.std::_Vector_base<char, std::allocator<char>>::_Vector_impl" }
%"struct.std::_Vector_base<char, std::allocator<char>>::_Vector_impl" = type { %"struct.std::_Vector_base<char, std::allocator<char>>::_Vector_impl_data" }
%"struct.std::_Vector_base<char, std::allocator<char>>::_Vector_impl_data" = type { ptr, ptr, ptr }
%"class.duckdb::vector.606" = type { %"class.std::vector.607" }
%"class.std::vector.607" = type { %"struct.std::_Vector_base.608" }
%"struct.std::_Vector_base.608" = type { %"struct.std::_Vector_base<duckdb::QuoteRule, std::allocator<duckdb::QuoteRule>>::_Vector_impl" }
%"struct.std::_Vector_base<duckdb::QuoteRule, std::allocator<duckdb::QuoteRule>>::_Vector_impl" = type { %"struct.std::_Vector_base<duckdb::QuoteRule, std::allocator<duckdb::QuoteRule>>::_Vector_impl_data" }
%"struct.std::_Vector_base<duckdb::QuoteRule, std::allocator<duckdb::QuoteRule>>::_Vector_impl_data" = type { ptr, ptr, ptr }
%"class.duckdb::vector.600" = type { %"class.std::vector.601" }
%"class.std::vector.601" = type { %"struct.std::_Vector_base.602" }
%"struct.std::_Vector_base.602" = type { %"struct.std::_Vector_base<duckdb::vector<char>, std::allocator<duckdb::vector<char>>>::_Vector_impl" }
%"struct.std::_Vector_base<duckdb::vector<char>, std::allocator<duckdb::vector<char>>>::_Vector_impl" = type { %"struct.std::_Vector_base<duckdb::vector<char>, std::allocator<duckdb::vector<char>>>::_Vector_impl_data" }
%"struct.std::_Vector_base<duckdb::vector<char>, std::allocator<duckdb::vector<char>>>::_Vector_impl_data" = type { ptr, ptr, ptr }
%"class.duckdb::CSVSniffer" = type { ptr, i64, %"class.duckdb::vector.612", ptr, %"class.std::shared_ptr.576", %"struct.duckdb::SetColumns", %"class.std::map.618", %"class.std::unordered_map.623", %"class.std::map.642", %"class.duckdb::unique_ptr.647", i64, i64, %"class.duckdb::vector.520", %"class.std::map.656", %"class.duckdb::vector.164", %"class.duckdb::vector.170" }
%"class.duckdb::vector.612" = type { %"class.std::vector.613" }
%"class.std::vector.613" = type { %"struct.std::_Vector_base.614" }
%"struct.std::_Vector_base.614" = type { %"struct.std::_Vector_base<duckdb::unique_ptr<duckdb::CSVStateMachine>, std::allocator<duckdb::unique_ptr<duckdb::CSVStateMachine>>>::_Vector_impl" }
%"struct.std::_Vector_base<duckdb::unique_ptr<duckdb::CSVStateMachine>, std::allocator<duckdb::unique_ptr<duckdb::CSVStateMachine>>>::_Vector_impl" = type { %"struct.std::_Vector_base<duckdb::unique_ptr<duckdb::CSVStateMachine>, std::allocator<duckdb::unique_ptr<duckdb::CSVStateMachine>>>::_Vector_impl_data" }
%"struct.std::_Vector_base<duckdb::unique_ptr<duckdb::CSVStateMachine>, std::allocator<duckdb::unique_ptr<duckdb::CSVStateMachine>>>::_Vector_impl_data" = type { ptr, ptr, ptr }
%"struct.duckdb::SetColumns" = type { ptr, ptr }
%"class.std::map.618" = type { %"class.std::_Rb_tree.619" }
%"class.std::_Rb_tree.619" = type { %"struct.std::_Rb_tree<duckdb::LogicalTypeId, std::pair<const duckdb::LogicalTypeId, duckdb::vector<const char *>>, std::_Select1st<std::pair<const duckdb::LogicalTypeId, duckdb::vector<const char *>>>, std::less<duckdb::LogicalTypeId>>::_Rb_tree_impl" }
%"struct.std::_Rb_tree<duckdb::LogicalTypeId, std::pair<const duckdb::LogicalTypeId, duckdb::vector<const char *>>, std::_Select1st<std::pair<const duckdb::LogicalTypeId, duckdb::vector<const char *>>>, std::less<duckdb::LogicalTypeId>>::_Rb_tree_impl" = type { %"struct.std::_Rb_tree_key_compare.532", %"struct.std::_Rb_tree_header" }
%"class.std::unordered_map.623" = type { %"class.std::_Hashtable.624" }
%"class.std::_Hashtable.624" = type { ptr, i64, %"struct.std::__detail::_Hash_node_base", i64, %"struct.std::__detail::_Prime_rehash_policy", ptr }
%"class.std::map.642" = type { %"class.std::_Rb_tree.643" }
%"class.std::_Rb_tree.643" = type { %"struct.std::_Rb_tree<duckdb::LogicalTypeId, std::pair<const duckdb::LogicalTypeId, duckdb::vector<std::__cxx11::basic_string<char>>>, std::_Select1st<std::pair<const duckdb::LogicalTypeId, duckdb::vector<std::__cxx11::basic_string<char>>>>, std::less<duckdb::LogicalTypeId>>::_Rb_tree_impl" }
%"struct.std::_Rb_tree<duckdb::LogicalTypeId, std::pair<const duckdb::LogicalTypeId, duckdb::vector<std::__cxx11::basic_string<char>>>, std::_Select1st<std::pair<const duckdb::LogicalTypeId, duckdb::vector<std::__cxx11::basic_string<char>>>>, std::less<duckdb::LogicalTypeId>>::_Rb_tree_impl" = type { %"struct.std::_Rb_tree_key_compare.532", %"struct.std::_Rb_tree_header" }
%"class.duckdb::unique_ptr.647" = type { %"class.std::unique_ptr.648" }
%"class.std::unique_ptr.648" = type { %"struct.std::__uniq_ptr_data.649" }
%"struct.std::__uniq_ptr_data.649" = type { %"class.std::__uniq_ptr_impl.650" }
%"class.std::__uniq_ptr_impl.650" = type { %"class.std::tuple.651" }
%"class.std::tuple.651" = type { %"struct.std::_Tuple_impl.652" }
%"struct.std::_Tuple_impl.652" = type { %"struct.std::_Head_base.655" }
%"struct.std::_Head_base.655" = type { ptr }
%"class.std::map.656" = type { %"class.std::_Rb_tree.657" }
%"class.std::_Rb_tree.657" = type { %"struct.std::_Rb_tree<duckdb::LogicalTypeId, std::pair<const duckdb::LogicalTypeId, duckdb::DateTimestampSniffing>, std::_Select1st<std::pair<const duckdb::LogicalTypeId, duckdb::DateTimestampSniffing>>, std::less<duckdb::LogicalTypeId>>::_Rb_tree_impl" }
%"struct.std::_Rb_tree<duckdb::LogicalTypeId, std::pair<const duckdb::LogicalTypeId, duckdb::DateTimestampSniffing>, std::_Select1st<std::pair<const duckdb::LogicalTypeId, duckdb::DateTimestampSniffing>>, std::less<duckdb::LogicalTypeId>>::_Rb_tree_impl" = type { %"struct.std::_Rb_tree_key_compare.532", %"struct.std::_Rb_tree_header" }
%"struct.duckdb::SnifferResult" = type { %"class.duckdb::vector.164", %"class.duckdb::vector.170" }
%"class.duckdb::vector.661" = type { %"class.std::vector.662" }
%"class.std::vector.662" = type { %"struct.std::_Vector_base.663" }
%"struct.std::_Vector_base.663" = type { %"struct.std::_Vector_base<std::pair<std::__cxx11::basic_string<char>, duckdb::Value>, std::allocator<std::pair<std::__cxx11::basic_string<char>, duckdb::Value>>>::_Vector_impl" }
%"struct.std::_Vector_base<std::pair<std::__cxx11::basic_string<char>, duckdb::Value>, std::allocator<std::pair<std::__cxx11::basic_string<char>, duckdb::Value>>>::_Vector_impl" = type { %"struct.std::_Vector_base<std::pair<std::__cxx11::basic_string<char>, duckdb::Value>, std::allocator<std::pair<std::__cxx11::basic_string<char>, duckdb::Value>>>::_Vector_impl_data" }
%"struct.std::_Vector_base<std::pair<std::__cxx11::basic_string<char>, duckdb::Value>, std::allocator<std::pair<std::__cxx11::basic_string<char>, duckdb::Value>>>::_Vector_impl_data" = type { ptr, ptr, ptr }
%"struct.std::pair.667" = type { %"class.std::__cxx11::basic_string", %"class.duckdb::Value" }
%"class.duckdb::TableFunctionRelation" = type <{ %"class.duckdb::Relation", %"class.std::__cxx11::basic_string", %"class.duckdb::vector.520", %"class.std::unordered_map.43", %"class.duckdb::vector.11", %"class.std::shared_ptr", i8, [7 x i8] }>
%"struct.duckdb::CSVFileHandle" = type <{ %"class.std::mutex", %"class.duckdb::unique_ptr.1033", %"class.std::__cxx11::basic_string", i8, i8, [6 x i8], i64, i64, i8, [7 x i8] }>
%"class.std::mutex" = type { %"class.std::__mutex_base" }
%"class.std::__mutex_base" = type { %union.pthread_mutex_t }
%union.pthread_mutex_t = type { %struct.__pthread_mutex_s }
%struct.__pthread_mutex_s = type { i32, i32, i32, i32, i32, i16, i16, %struct.__pthread_internal_list }
%struct.__pthread_internal_list = type { ptr, ptr }
%"class.duckdb::unique_ptr.1033" = type { %"class.std::unique_ptr.1034" }
%"class.std::unique_ptr.1034" = type { %"struct.std::__uniq_ptr_data.1035" }
%"struct.std::__uniq_ptr_data.1035" = type { %"class.std::__uniq_ptr_impl.1036" }
%"class.std::__uniq_ptr_impl.1036" = type { %"class.std::tuple.1037" }
%"class.std::tuple.1037" = type { %"struct.std::_Tuple_impl.1038" }
%"struct.std::_Tuple_impl.1038" = type { %"struct.std::_Head_base.1041" }
%"struct.std::_Head_base.1041" = type { ptr }
%"struct.std::pair.908" = type { i8, %"struct.duckdb::StrpTimeFormat" }
%"struct.duckdb::StrpTimeFormat" = type { %"struct.duckdb::StrTimeFormat" }
%"struct.duckdb::StrTimeFormat" = type { ptr, %"class.std::__cxx11::basic_string", %"class.duckdb::vector.910", %"class.duckdb::vector.170", i64, %"class.duckdb::vector.916" }
%"class.duckdb::vector.910" = type { %"class.std::vector.911" }
%"class.std::vector.911" = type { %"struct.std::_Vector_base.912" }
%"struct.std::_Vector_base.912" = type { %"struct.std::_Vector_base<duckdb::StrTimeSpecifier, std::allocator<duckdb::StrTimeSpecifier>>::_Vector_impl" }
%"struct.std::_Vector_base<duckdb::StrTimeSpecifier, std::allocator<duckdb::StrTimeSpecifier>>::_Vector_impl" = type { %"struct.std::_Vector_base<duckdb::StrTimeSpecifier, std::allocator<duckdb::StrTimeSpecifier>>::_Vector_impl_data" }
%"struct.std::_Vector_base<duckdb::StrTimeSpecifier, std::allocator<duckdb::StrTimeSpecifier>>::_Vector_impl_data" = type { ptr, ptr, ptr }
%"class.duckdb::vector.916" = type { %"class.std::vector.917" }
%"class.std::vector.917" = type { %"struct.std::_Vector_base.918" }
%"struct.std::_Vector_base.918" = type { %"struct.std::_Vector_base<int, std::allocator<int>>::_Vector_impl" }
%"struct.std::_Vector_base<int, std::allocator<int>>::_Vector_impl" = type { %"struct.std::_Vector_base<int, std::allocator<int>>::_Vector_impl_data" }
%"struct.std::_Vector_base<int, std::allocator<int>>::_Vector_impl_data" = type { ptr, ptr, ptr }
%"class.std::allocator.922" = type { i8 }
%"struct.std::pair.926" = type { i8, %"struct.duckdb::StrfTimeFormat" }
%"struct.duckdb::StrfTimeFormat" = type { %"struct.duckdb::StrTimeFormat", %"class.duckdb::vector.910", %"class.duckdb::vector.536" }
%"class.std::allocator.928" = type { i8 }
%"struct.std::pair.932" = type { i8, i8 }
%"class.std::allocator.934" = type { i8 }
%"class.duckdb::ReadJSONRelation" = type { %"class.duckdb::TableFunctionRelation.base", %"class.std::__cxx11::basic_string", %"class.std::__cxx11::basic_string" }
%"class.duckdb::SetOpRelation" = type <{ %"class.duckdb::Relation", %"class.std::shared_ptr", %"class.std::shared_ptr", i8, [7 x i8], %"class.duckdb::vector.11", i8, [7 x i8] }>
%"class.duckdb::unique_ptr.669" = type { %"class.std::unique_ptr.670" }
%"class.std::unique_ptr.670" = type { %"struct.std::__uniq_ptr_data.671" }
%"struct.std::__uniq_ptr_data.671" = type { %"class.std::__uniq_ptr_impl.672" }
%"class.std::__uniq_ptr_impl.672" = type { %"class.std::tuple.673" }
%"class.std::tuple.673" = type { %"struct.std::_Tuple_impl.674" }
%"struct.std::_Tuple_impl.674" = type { %"struct.std::_Head_base.677" }
%"struct.std::_Head_base.677" = type { ptr }
%"class.duckdb::SetOperationNode" = type { %"class.duckdb::QueryNode", i8, i8, %"class.duckdb::unique_ptr.99", %"class.duckdb::unique_ptr.99" }
%"class.duckdb::DistinctModifier" = type { %"class.duckdb::ResultModifier.base", %"class.duckdb::vector" }
%"class.duckdb::Exception" = type { %"class.std::exception", i32, %"class.std::__cxx11::basic_string", %"class.std::__cxx11::basic_string" }
%"class.std::exception" = type { ptr }
%"class.duckdb::SubqueryRelation" = type { %"class.duckdb::Relation", %"class.std::shared_ptr", %"class.std::__cxx11::basic_string" }
%"class.duckdb::unique_ptr.687" = type { %"class.std::unique_ptr.688" }
%"class.std::unique_ptr.688" = type { %"struct.std::__uniq_ptr_data.689" }
%"struct.std::__uniq_ptr_data.689" = type { %"class.std::__uniq_ptr_impl.690" }
%"class.std::__uniq_ptr_impl.690" = type { %"class.std::tuple.691" }
%"class.std::tuple.691" = type { %"struct.std::_Tuple_impl.692" }
%"struct.std::_Tuple_impl.692" = type { %"struct.std::_Head_base.695" }
%"struct.std::_Head_base.695" = type { ptr }
%"class.duckdb::unique_ptr.699" = type { %"class.std::unique_ptr.700" }
%"class.std::unique_ptr.700" = type { %"struct.std::__uniq_ptr_data.701" }
%"struct.std::__uniq_ptr_data.701" = type { %"class.std::__uniq_ptr_impl.702" }
%"class.std::__uniq_ptr_impl.702" = type { %"class.std::tuple.703" }
%"class.std::tuple.703" = type { %"struct.std::_Tuple_impl.704" }
%"struct.std::_Tuple_impl.704" = type { %"struct.std::_Head_base.707" }
%"struct.std::_Head_base.707" = type { ptr }
%"class.duckdb::unique_ptr.717" = type { %"class.std::unique_ptr.718" }
%"class.std::unique_ptr.718" = type { %"struct.std::__uniq_ptr_data.719" }
%"struct.std::__uniq_ptr_data.719" = type { %"class.std::__uniq_ptr_impl.720" }
%"class.std::__uniq_ptr_impl.720" = type { %"class.std::tuple.721" }
%"class.std::tuple.721" = type { %"struct.std::_Tuple_impl.722" }
%"struct.std::_Tuple_impl.722" = type { %"struct.std::_Head_base.725" }
%"struct.std::_Head_base.725" = type { ptr }
%"class.duckdb::unique_ptr.726" = type { %"class.std::unique_ptr.727" }
%"class.std::unique_ptr.727" = type { %"struct.std::__uniq_ptr_data.728" }
%"struct.std::__uniq_ptr_data.728" = type { %"class.std::__uniq_ptr_impl.729" }
%"class.std::__uniq_ptr_impl.729" = type { %"class.std::tuple.730" }
%"class.std::tuple.730" = type { %"struct.std::_Tuple_impl.731" }
%"struct.std::_Tuple_impl.731" = type { %"struct.std::_Head_base.734" }
%"struct.std::_Head_base.734" = type { ptr }
%"class.duckdb::SubqueryExpression" = type <{ %"class.duckdb::ParsedExpression", %"class.duckdb::unique_ptr.176", i8, [7 x i8], %"class.duckdb::unique_ptr.90", i8, [7 x i8] }>
%"class.duckdb::ParsedExpression" = type { %"class.duckdb::BaseExpression", i64 }
%"class.duckdb::TableFunctionRef" = type { %"class.duckdb::TableRef", %"class.duckdb::unique_ptr.90", %"class.duckdb::vector.170", %"class.duckdb::unique_ptr.176", %"class.duckdb::unique_ptr.735" }
%"class.duckdb::unique_ptr.735" = type { %"class.std::unique_ptr.736" }
%"class.std::unique_ptr.736" = type { %"struct.std::__uniq_ptr_data.737" }
%"struct.std::__uniq_ptr_data.737" = type { %"class.std::__uniq_ptr_impl.738" }
%"class.std::__uniq_ptr_impl.738" = type { %"class.std::tuple.739" }
%"class.std::tuple.739" = type { %"struct.std::_Tuple_impl.740" }
%"struct.std::_Tuple_impl.740" = type { %"struct.std::_Head_base.743" }
%"struct.std::_Head_base.743" = type { ptr }
%"class.duckdb::TableRelation" = type { %"class.duckdb::Relation", %"class.duckdb::unique_ptr.744" }
%"class.duckdb::unique_ptr.744" = type { %"class.std::unique_ptr.745" }
%"class.std::unique_ptr.745" = type { %"struct.std::__uniq_ptr_data.746" }
%"struct.std::__uniq_ptr_data.746" = type { %"class.std::__uniq_ptr_impl.747" }
%"class.std::__uniq_ptr_impl.747" = type { %"class.std::tuple.748" }
%"class.std::tuple.748" = type { %"struct.std::_Tuple_impl.749" }
%"struct.std::_Tuple_impl.749" = type { %"struct.std::_Head_base.752" }
%"struct.std::_Head_base.752" = type { ptr }
%"struct.duckdb::TableDescription" = type { %"class.std::__cxx11::basic_string", %"class.std::__cxx11::basic_string", %"class.duckdb::vector.11" }
%"class.std::shared_ptr.753" = type { %"class.std::__shared_ptr.754" }
%"class.std::__shared_ptr.754" = type { ptr, %"class.std::__shared_count" }
%"class.duckdb::unique_ptr.756" = type { %"class.std::unique_ptr.757" }
%"class.std::unique_ptr.757" = type { %"struct.std::__uniq_ptr_data.758" }
%"struct.std::__uniq_ptr_data.758" = type { %"class.std::__uniq_ptr_impl.759" }
%"class.std::__uniq_ptr_impl.759" = type { %"class.std::tuple.760" }
%"class.std::tuple.760" = type { %"struct.std::_Tuple_impl.761" }
%"struct.std::_Tuple_impl.761" = type { %"struct.std::_Head_base.764" }
%"struct.std::_Head_base.764" = type { ptr }
%"class.std::_Sp_counted_ptr_inplace.1126" = type { %"class.std::_Sp_counted_base", %"class.std::_Sp_counted_ptr_inplace<duckdb::UpdateRelation, std::allocator<void>, __gnu_cxx::_S_atomic>::_Impl" }
%"class.std::_Sp_counted_ptr_inplace<duckdb::UpdateRelation, std::allocator<void>, __gnu_cxx::_S_atomic>::_Impl" = type { %"struct.__gnu_cxx::__aligned_buffer.1127" }
%"struct.__gnu_cxx::__aligned_buffer.1127" = type { %"union.std::aligned_storage<208, 8>::type" }
%"union.std::aligned_storage<208, 8>::type" = type { [208 x i8] }
%"class.std::shared_ptr.765" = type { %"class.std::__shared_ptr.766" }
%"class.std::__shared_ptr.766" = type { ptr, %"class.std::__shared_count" }
%"class.std::_Sp_counted_ptr_inplace.1134" = type { %"class.std::_Sp_counted_base", %"class.std::_Sp_counted_ptr_inplace<duckdb::DeleteRelation, std::allocator<void>, __gnu_cxx::_S_atomic>::_Impl" }
%"class.std::_Sp_counted_ptr_inplace<duckdb::DeleteRelation, std::allocator<void>, __gnu_cxx::_S_atomic>::_Impl" = type { %"struct.__gnu_cxx::__aligned_buffer.1135" }
%"struct.__gnu_cxx::__aligned_buffer.1135" = type { %"union.std::aligned_storage<160, 8>::type" }
%"union.std::aligned_storage<160, 8>::type" = type { [160 x i8] }
%"class.duckdb::ValueRelation" = type { %"class.duckdb::Relation", %"class.duckdb::vector.768", %"class.duckdb::vector.170", %"class.duckdb::vector.11", %"class.std::__cxx11::basic_string" }
%"class.duckdb::vector.768" = type { %"class.std::vector.769" }
%"class.std::vector.769" = type { %"struct.std::_Vector_base.770" }
%"struct.std::_Vector_base.770" = type { %"struct.std::_Vector_base<duckdb::vector<duckdb::unique_ptr<duckdb::ParsedExpression>>, std::allocator<duckdb::vector<duckdb::unique_ptr<duckdb::ParsedExpression>>>>::_Vector_impl" }
%"struct.std::_Vector_base<duckdb::vector<duckdb::unique_ptr<duckdb::ParsedExpression>>, std::allocator<duckdb::vector<duckdb::unique_ptr<duckdb::ParsedExpression>>>>::_Vector_impl" = type { %"struct.std::_Vector_base<duckdb::vector<duckdb::unique_ptr<duckdb::ParsedExpression>>, std::allocator<duckdb::vector<duckdb::unique_ptr<duckdb::ParsedExpression>>>>::_Vector_impl_data" }
%"struct.std::_Vector_base<duckdb::vector<duckdb::unique_ptr<duckdb::ParsedExpression>>, std::allocator<duckdb::vector<duckdb::unique_ptr<duckdb::ParsedExpression>>>>::_Vector_impl_data" = type { ptr, ptr, ptr }
%"struct.std::_Vector_base<duckdb::vector<duckdb::Value>, std::allocator<duckdb::vector<duckdb::Value>>>::_Vector_impl_data" = type { ptr, ptr, ptr }
%"class.duckdb::unique_ptr.780" = type { %"class.std::unique_ptr.781" }
%"class.std::unique_ptr.781" = type { %"struct.std::__uniq_ptr_data.782" }
%"struct.std::__uniq_ptr_data.782" = type { %"class.std::__uniq_ptr_impl.783" }
%"class.std::__uniq_ptr_impl.783" = type { %"class.std::tuple.784" }
%"class.std::tuple.784" = type { %"struct.std::_Tuple_impl.785" }
%"struct.std::_Tuple_impl.785" = type { %"struct.std::_Head_base.788" }
%"struct.std::_Head_base.788" = type { ptr }
%"class.duckdb::ExpressionListRef" = type { %"class.duckdb::TableRef", %"class.duckdb::vector.768", %"class.duckdb::vector.164", %"class.duckdb::vector.170" }
%"class.duckdb::ViewRelation" = type { %"class.duckdb::Relation", %"class.std::__cxx11::basic_string", %"class.std::__cxx11::basic_string", %"class.duckdb::vector.11" }
%"class.duckdb::WriteParquetRelation" = type { %"class.duckdb::Relation", %"class.std::shared_ptr", %"class.std::__cxx11::basic_string", %"class.duckdb::vector.11", %"class.std::unordered_map.790" }
%"class.std::unordered_map.790" = type { %"class.std::_Hashtable.791" }
%"class.std::_Hashtable.791" = type { ptr, i64, %"struct.std::__detail::_Hash_node_base", i64, %"struct.std::__detail::_Prime_rehash_policy", ptr }
%"class.duckdb::CopyStatement" = type { %"class.duckdb::SQLStatement", %"class.duckdb::unique_ptr.804", %"class.duckdb::unique_ptr.99" }
%"class.duckdb::unique_ptr.804" = type { %"class.std::unique_ptr.805" }
%"class.std::unique_ptr.805" = type { %"struct.std::__uniq_ptr_data.806" }
%"struct.std::__uniq_ptr_data.806" = type { %"class.std::__uniq_ptr_impl.807" }
%"class.std::__uniq_ptr_impl.807" = type { %"class.std::tuple.808" }
%"class.std::tuple.808" = type { %"struct.std::_Tuple_impl.809" }
%"struct.std::_Tuple_impl.809" = type { %"struct.std::_Head_base.812" }
%"struct.std::_Head_base.812" = type { ptr }
%"struct.duckdb::ParseInfo" = type <{ ptr, i8, [7 x i8] }>
%"struct.duckdb::CopyInfo" = type { %"struct.duckdb::ParseInfo.base", %"class.std::__cxx11::basic_string", %"class.std::__cxx11::basic_string", %"class.std::__cxx11::basic_string", %"class.duckdb::vector.170", i8, %"class.std::__cxx11::basic_string", %"class.std::__cxx11::basic_string", %"class.std::unordered_map.790" }
%"class.duckdb::WriteCSVRelation" = type { %"class.duckdb::Relation", %"class.std::shared_ptr", %"class.std::__cxx11::basic_string", %"class.duckdb::vector.11", %"class.std::unordered_map.790" }
%"struct.std::_Rb_tree<unsigned long, unsigned long, std::_Identity<unsigned long>, std::less<unsigned long>>::_Alloc_node" = type { ptr }
%"struct.std::_Rb_tree<unsigned long, unsigned long, std::_Identity<unsigned long>, std::less<unsigned long>>::_Reuse_or_alloc_node" = type { ptr, ptr, ptr }
%"class.std::vector.832" = type { %"struct.std::_Vector_base.833" }
%"struct.std::_Vector_base.833" = type { %"struct.std::_Vector_base<duckdb::ExceptionFormatValue, std::allocator<duckdb::ExceptionFormatValue>>::_Vector_impl" }
%"struct.std::_Vector_base<duckdb::ExceptionFormatValue, std::allocator<duckdb::ExceptionFormatValue>>::_Vector_impl" = type { %"struct.std::_Vector_base<duckdb::ExceptionFormatValue, std::allocator<duckdb::ExceptionFormatValue>>::_Vector_impl_data" }
%"struct.std::_Vector_base<duckdb::ExceptionFormatValue, std::allocator<duckdb::ExceptionFormatValue>>::_Vector_impl_data" = type { ptr, ptr, ptr }
%"struct.duckdb::ExceptionFormatValue" = type { i8, double, i64, %"class.std::__cxx11::basic_string" }
%"struct.duckdb::CommonTableExpressionInfo" = type <{ %"class.duckdb::vector.170", %"class.duckdb::unique_ptr.176", i8, [7 x i8] }>
%"class.duckdb::OnConflictInfo" = type { i8, %"class.duckdb::vector.170", %"class.duckdb::unique_ptr.496", %"class.duckdb::unique_ptr.90" }
%"struct.std::pair.938" = type { i8, %"struct.duckdb::CSVOption.940" }
%"struct.duckdb::CSVOption.940" = type { i8, %"struct.duckdb::StrpTimeFormat" }
%"class.std::allocator.941" = type { i8 }
%"struct.std::_Rb_tree<duckdb::LogicalTypeId, std::pair<const duckdb::LogicalTypeId, duckdb::StrpTimeFormat>, std::_Select1st<std::pair<const duckdb::LogicalTypeId, duckdb::StrpTimeFormat>>, std::less<duckdb::LogicalTypeId>>::_Alloc_node" = type { ptr }
%"struct.std::_Rb_tree_node.955" = type { %"struct.std::_Rb_tree_node_base", %"struct.__gnu_cxx::__aligned_membuf.956" }
%"struct.__gnu_cxx::__aligned_membuf.956" = type { [128 x i8] }
%"struct.std::_Rb_tree<duckdb::LogicalTypeId, std::pair<const duckdb::LogicalTypeId, duckdb::StrfTimeFormat>, std::_Select1st<std::pair<const duckdb::LogicalTypeId, duckdb::StrfTimeFormat>>, std::less<duckdb::LogicalTypeId>>::_Alloc_node" = type { ptr }
%"struct.std::_Rb_tree_node.964" = type { %"struct.std::_Rb_tree_node_base", %"struct.__gnu_cxx::__aligned_membuf.965" }
%"struct.__gnu_cxx::__aligned_membuf.965" = type { [192 x i8] }
%"struct.std::_Rb_tree_node.970" = type <{ %"struct.std::_Rb_tree_node_base", %"struct.__gnu_cxx::__aligned_membuf.971", [6 x i8] }>
%"struct.__gnu_cxx::__aligned_membuf.971" = type { [2 x i8] }
%"struct.std::_Rb_tree<duckdb::LogicalTypeId, std::pair<const duckdb::LogicalTypeId, duckdb::CSVOption<duckdb::StrpTimeFormat>>, std::_Select1st<std::pair<const duckdb::LogicalTypeId, duckdb::CSVOption<duckdb::StrpTimeFormat>>>, std::less<duckdb::LogicalTypeId>>::_Alloc_node" = type { ptr }
%"struct.std::_Rb_tree_node.949" = type { %"struct.std::_Rb_tree_node_base", %"struct.__gnu_cxx::__aligned_membuf.950" }
%"struct.__gnu_cxx::__aligned_membuf.950" = type { [136 x i8] }
%"struct.std::_Bit_iterator_base" = type <{ ptr, i32, [4 x i8] }>
%"struct.std::_Rb_tree_node.980" = type { %"struct.std::_Rb_tree_node_base", %"struct.__gnu_cxx::__aligned_membuf.981" }
%"struct.__gnu_cxx::__aligned_membuf.981" = type { [40 x i8] }
%"class.duckdb::CSVStateMachine" = type { ptr, ptr, %"class.duckdb::CSVBufferIterator", i64, ptr, i8, i8, i8, i8, i8, i64, i64, %"class.std::__cxx11::basic_string", i64, i64, %"struct.duckdb::DialectOptions" }
%"class.duckdb::CSVBufferIterator" = type { i64, i64, %"class.std::shared_ptr.576", %"class.duckdb::unique_ptr.986" }
%"class.duckdb::unique_ptr.986" = type { %"class.std::unique_ptr.987" }
%"class.std::unique_ptr.987" = type { %"struct.std::__uniq_ptr_data.988" }
%"struct.std::__uniq_ptr_data.988" = type { %"class.std::__uniq_ptr_impl.989" }
%"class.std::__uniq_ptr_impl.989" = type { %"class.std::tuple.990" }
%"class.std::tuple.990" = type { %"struct.std::_Tuple_impl.991" }
%"struct.std::_Tuple_impl.991" = type { %"struct.std::_Head_base.994" }
%"struct.std::_Head_base.994" = type { ptr }
%"struct.std::_Rb_tree_node.1000" = type { %"struct.std::_Rb_tree_node_base", %"struct.__gnu_cxx::__aligned_membuf.1001" }
%"struct.__gnu_cxx::__aligned_membuf.1001" = type { [32 x i8] }
%"struct.std::_Rb_tree_node.1013" = type { %"struct.std::_Rb_tree_node_base", %"struct.__gnu_cxx::__aligned_membuf.1014" }
%"struct.__gnu_cxx::__aligned_membuf.1014" = type { [32 x i8] }
%"struct.std::__detail::_ReuseOrAllocNode" = type { ptr, ptr }
%"struct.std::pair.1075" = type { %"class.std::__cxx11::basic_string", %"class.duckdb::vector.520" }
%"class.std::_Sp_counted_ptr_inplace" = type { %"class.std::_Sp_counted_base", %"class.std::_Sp_counted_ptr_inplace<duckdb::CSVBufferManager, std::allocator<void>, __gnu_cxx::_S_atomic>::_Impl" }
%"class.std::_Sp_counted_ptr_inplace<duckdb::CSVBufferManager, std::allocator<void>, __gnu_cxx::_S_atomic>::_Impl" = type { %"struct.__gnu_cxx::__aligned_buffer.1098" }
%"struct.__gnu_cxx::__aligned_buffer.1098" = type { %"union.std::aligned_storage<104, 8>::type" }
%"union.std::aligned_storage<104, 8>::type" = type { [104 x i8] }
%"class.std::type_info" = type { ptr, ptr }
%"class.duckdb::CSVBufferManager" = type { %"class.duckdb::unique_ptr.567", ptr, i64, i64, i8, %"class.duckdb::vector.1101", %"class.std::shared_ptr.1107", i64, i64, i64 }
%"class.duckdb::vector.1101" = type { %"class.std::vector.1102" }
%"class.std::vector.1102" = type { %"struct.std::_Vector_base.1103" }
%"struct.std::_Vector_base.1103" = type { %"struct.std::_Vector_base<std::shared_ptr<duckdb::CSVBuffer>, std::allocator<std::shared_ptr<duckdb::CSVBuffer>>>::_Vector_impl" }
%"struct.std::_Vector_base<std::shared_ptr<duckdb::CSVBuffer>, std::allocator<std::shared_ptr<duckdb::CSVBuffer>>>::_Vector_impl" = type { %"struct.std::_Vector_base<std::shared_ptr<duckdb::CSVBuffer>, std::allocator<std::shared_ptr<duckdb::CSVBuffer>>>::_Vector_impl_data" }
%"struct.std::_Vector_base<std::shared_ptr<duckdb::CSVBuffer>, std::allocator<std::shared_ptr<duckdb::CSVBuffer>>>::_Vector_impl_data" = type { ptr, ptr, ptr }
%"class.std::shared_ptr.1107" = type { %"class.std::__shared_ptr.1108" }
%"class.std::__shared_ptr.1108" = type { ptr, %"class.std::__shared_count" }
%"struct.std::_Hashtable<std::__cxx11::basic_string<char>, std::pair<const std::__cxx11::basic_string<char>, duckdb::Value>, std::allocator<std::pair<const std::__cxx11::basic_string<char>, duckdb::Value>>, std::__detail::_Select1st, duckdb::CaseInsensitiveStringEquality, duckdb::CaseInsensitiveStringHashFunction, std::__detail::_Mod_range_hashing, std::__detail::_Default_ranged_hash, std::__detail::_Prime_rehash_policy, std::__detail::_Hashtable_traits<true, false, true>>::_Scoped_node" = type { ptr, ptr }
%"class.std::tuple.1111" = type { %"struct.std::_Tuple_impl.1112" }
%"struct.std::_Tuple_impl.1112" = type { %"struct.std::_Head_base.1113" }
%"struct.std::_Head_base.1113" = type { ptr }
%"class.std::tuple.1114" = type { i8 }
%"class.std::tuple.1119" = type { %"struct.std::_Tuple_impl.1120" }
%"struct.std::_Tuple_impl.1120" = type { %"struct.std::_Head_base.1121" }
%"struct.std::_Head_base.1121" = type { ptr }
%"struct.std::pair.697" = type { %"class.std::__cxx11::basic_string", %"class.duckdb::Value" }

$_ZN6duckdb8RelationC2ERNS_20ClientContextWrapperENS_12RelationTypeE = comdat any

$_ZN6duckdb20ClientContextWrapper10GetContextEv = comdat any

$_ZNSt12__shared_ptrIN6duckdb13ClientContextELN9__gnu_cxx12_Lock_policyE2EED2Ev = comdat any

$_ZNSt12__shared_ptrIN6duckdb8RelationELN9__gnu_cxx12_Lock_policyE2EED2Ev = comdat any

$_ZNSt6vectorIN6duckdb16ColumnDefinitionESaIS1_EED2Ev = comdat any

$_ZN6duckdb11GroupByNodeD2Ev = comdat any

$_ZN6duckdb8RelationD2Ev = comdat any

$_ZN6duckdb6vectorINS_10unique_ptrINS_16ParsedExpressionESt14default_deleteIS2_ELb1EEELb1EEixEm = comdat any

$_ZNSt3setImSt4lessImESaImEED2Ev = comdat any

$_ZNK6duckdb10unique_ptrINS_10SelectNodeESt14default_deleteIS1_ELb1EEptEv = comdat any

$_ZNK6duckdb10unique_ptrINS_9QueryNodeESt14default_deleteIS1_ELb1EEptEv = comdat any

$_ZN6duckdb9QueryNode4CastINS_10SelectNodeEEERT_v = comdat any

$_ZN6duckdb11GroupByNode4CopyEv = comdat any

$_ZNK6duckdb10unique_ptrINS_16ParsedExpressionESt14default_deleteIS1_ELb1EEptEv = comdat any

$_ZNK6duckdb10unique_ptrINS_15SelectStatementESt14default_deleteIS1_ELb1EEptEv = comdat any

$_ZNK6duckdb10unique_ptrINS_15CreateTableInfoESt14default_deleteIS1_ELb1EEptEv = comdat any

$_ZN6duckdb15CreateStatementD2Ev = comdat any

$_ZNK6duckdb10unique_ptrINS_14CreateViewInfoESt14default_deleteIS1_ELb1EEptEv = comdat any

$_ZNK6duckdb10unique_ptrINS_7JoinRefESt14default_deleteIS1_ELb1EEptEv = comdat any

$_ZStplIcSt11char_traitsIcESaIcEENSt7__cxx1112basic_stringIT_T0_T1_EEOS8_S9_ = comdat any

$_ZNK6duckdb10unique_ptrINS_12BaseTableRefESt14default_deleteIS1_ELb1EEptEv = comdat any

$_ZN6duckdb15DeleteStatementD2Ev = comdat any

$_ZN6duckdb16ExplainStatementD2Ev = comdat any

$_ZN6duckdb15InsertStatementD2Ev = comdat any

$_ZNSt6vectorINSt7__cxx1112basic_stringIcSt11char_traitsIcESaIcEEESaIS5_EED2Ev = comdat any

$_ZNK6duckdb10unique_ptrINS_13LimitModifierESt14default_deleteIS1_ELb1EEptEv = comdat any

$_ZNSt6vectorIN6duckdb11OrderByNodeESaIS1_EED2Ev = comdat any

$_ZNK6duckdb10unique_ptrINS_13OrderModifierESt14default_deleteIS1_ELb1EEptEv = comdat any

$_ZN6duckdb6vectorINS_11OrderByNodeELb1EEixEm = comdat any

$_ZNK6duckdb10unique_ptrINS_13UpdateSetInfoESt14default_deleteIS1_ELb1EEptEv = comdat any

$_ZN6duckdb15UpdateStatementD2Ev = comdat any

$_ZN6duckdb6vectorINSt7__cxx1112basic_stringIcSt11char_traitsIcESaIcEEELb1EEixEm = comdat any

$_ZN6duckdb6vectorINS_10unique_ptrINS_12SQLStatementESt14default_deleteIS2_ELb1EEELb1EEixEm = comdat any

$_ZNK6duckdb10unique_ptrINS_12SQLStatementESt14default_deleteIS1_ELb1EEptEv = comdat any

$_ZN6duckdb6ParserD2Ev = comdat any

$_ZNK6duckdb6vectorINSt7__cxx1112basic_stringIcSt11char_traitsIcESaIcEEELb1EEixEm = comdat any

$_ZNSt6vectorIN6duckdb5ValueESaIS1_EED2Ev = comdat any

$_ZN6duckdb16CSVReaderOptionsC2Ev = comdat any

$_ZNSt12__shared_ptrIN6duckdb16CSVBufferManagerELN9__gnu_cxx12_Lock_policyE2EED2Ev = comdat any

$_ZN6duckdb6vectorINS_11LogicalTypeELb1EEixEm = comdat any

$_ZN6duckdb6vectorINS_16ColumnDefinitionELb1EEixEm = comdat any

$_ZNSt4pairINSt7__cxx1112basic_stringIcSt11char_traitsIcESaIcEEEN6duckdb5ValueEED2Ev = comdat any

$_ZNSt6vectorISt4pairINSt7__cxx1112basic_stringIcSt11char_traitsIcESaIcEEEN6duckdb5ValueEESaIS9_EED2Ev = comdat any

$_ZN6duckdb13SnifferResultD2Ev = comdat any

$_ZN6duckdb10CSVSnifferD2Ev = comdat any

$_ZN6duckdb20CSVStateMachineCacheD2Ev = comdat any

$_ZNSt10unique_ptrIN6duckdb13CSVFileHandleESt14default_deleteIS1_EED2Ev = comdat any

$_ZNSt6vectorIN6duckdb11LogicalTypeESaIS1_EED2Ev = comdat any

$_ZN6duckdb16CSVReaderOptionsD2Ev = comdat any

$_ZNSt13unordered_mapINSt7__cxx1112basic_stringIcSt11char_traitsIcESaIcEEEN6duckdb5ValueENS6_33CaseInsensitiveStringHashFunctionENS6_29CaseInsensitiveStringEqualityESaISt4pairIKS5_S7_EEED2Ev = comdat any

$_ZNK6duckdb10unique_ptrINS_16SetOperationNodeESt14default_deleteIS1_ELb1EEptEv = comdat any

$_ZN6duckdb9ExceptionD2Ev = comdat any

$_ZNK6duckdb10unique_ptrINS_18SubqueryExpressionESt14default_deleteIS1_ELb1EEptEv = comdat any

$_ZN6duckdb9make_uniqINS_19ColumnRefExpressionEJRKNSt7__cxx1112basic_stringIcSt11char_traitsIcESaIcEEEEEENS_11__unique_ifIT_Lb1EE15__unique_singleEDpOT0_ = comdat any

$_ZN6duckdb9make_uniqINS_18FunctionExpressionEJRNSt7__cxx1112basic_stringIcSt11char_traitsIcESaIcEEENS_6vectorINS_10unique_ptrINS_16ParsedExpressionESt14default_deleteISB_ELb1EEELb1EEEEEENS_11__unique_ifIT_Lb1EE15__unique_singleEDpOT0_ = comdat any

$_ZNK6duckdb10unique_ptrINS_16TableFunctionRefESt14default_deleteIS1_ELb1EEptEv = comdat any

$_ZN6duckdb6vectorINS_5ValueELb1EEixEm = comdat any

$_ZNK6duckdb10unique_ptrINS_16TableDescriptionESt14default_deleteIS1_ELb1EEptEv = comdat any

$_ZNSt12__shared_ptrIN6duckdb14UpdateRelationELN9__gnu_cxx12_Lock_policyE2EED2Ev = comdat any

$_ZNSt12__shared_ptrIN6duckdb14DeleteRelationELN9__gnu_cxx12_Lock_policyE2EED2Ev = comdat any

$_ZNK6duckdb6vectorINS0_INS_5ValueELb1EEELb1EEixEm = comdat any

$_ZNK6duckdb10unique_ptrINS_17ExpressionListRefESt14default_deleteIS1_ELb1EEptEv = comdat any

$_ZN6duckdb6vectorINS0_INS_10unique_ptrINS_16ParsedExpressionESt14default_deleteIS2_ELb1EEELb1EEELb1EEixEm = comdat any

$_ZNK6duckdb10unique_ptrINS_8CopyInfoESt14default_deleteIS1_ELb1EEptEv = comdat any

$_ZN6duckdb13CopyStatementD2Ev = comdat any

$_ZN6duckdb17AggregateRelationD2Ev = comdat any

$_ZN6duckdb17AggregateRelationD0Ev = comdat any

$_ZN6duckdb8Relation10IsReadOnlyEv = comdat any

$_ZN6duckdb8Relation22InheritsColumnBindingsEv = comdat any

$_ZN6duckdb8Relation13ChildRelationEv = comdat any

$_ZN6duckdb19CreateTableRelationD2Ev = comdat any

$_ZN6duckdb19CreateTableRelationD0Ev = comdat any

$_ZN6duckdb19CreateTableRelation10IsReadOnlyEv = comdat any

$_ZN6duckdb18CreateViewRelationD2Ev = comdat any

$_ZN6duckdb18CreateViewRelationD0Ev = comdat any

$_ZN6duckdb18CreateViewRelation10IsReadOnlyEv = comdat any

$_ZN6duckdb20CrossProductRelationD2Ev = comdat any

$_ZN6duckdb20CrossProductRelationD0Ev = comdat any

$_ZN6duckdb14DeleteRelationD2Ev = comdat any

$_ZN6duckdb14DeleteRelationD0Ev = comdat any

$_ZN6duckdb14DeleteRelation10IsReadOnlyEv = comdat any

$_ZN6duckdb16DistinctRelationD2Ev = comdat any

$_ZN6duckdb16DistinctRelationD0Ev = comdat any

$_ZN6duckdb16DistinctRelation22InheritsColumnBindingsEv = comdat any

$_ZN6duckdb16DistinctRelation13ChildRelationEv = comdat any

$_ZN6duckdb15ExplainRelationD2Ev = comdat any

$_ZN6duckdb15ExplainRelationD0Ev = comdat any

$_ZN6duckdb15ExplainRelation10IsReadOnlyEv = comdat any

$_ZN6duckdb14FilterRelationD2Ev = comdat any

$_ZN6duckdb14FilterRelationD0Ev = comdat any

$_ZN6duckdb14FilterRelation22InheritsColumnBindingsEv = comdat any

$_ZN6duckdb14FilterRelation13ChildRelationEv = comdat any

$_ZN6duckdb14InsertRelationD2Ev = comdat any

$_ZN6duckdb14InsertRelationD0Ev = comdat any

$_ZN6duckdb14InsertRelation10IsReadOnlyEv = comdat any

$_ZN6duckdb12JoinRelationD2Ev = comdat any

$_ZN6duckdb12JoinRelationD0Ev = comdat any

$_ZN6duckdb13LimitRelationD2Ev = comdat any

$_ZN6duckdb13LimitRelationD0Ev = comdat any

$_ZN6duckdb13LimitRelation22InheritsColumnBindingsEv = comdat any

$_ZN6duckdb13LimitRelation13ChildRelationEv = comdat any

$_ZN6duckdb13OrderRelationD2Ev = comdat any

$_ZN6duckdb13OrderRelationD0Ev = comdat any

$_ZN6duckdb13OrderRelation22InheritsColumnBindingsEv = comdat any

$_ZN6duckdb13OrderRelation13ChildRelationEv = comdat any

$_ZN6duckdb14UpdateRelationD2Ev = comdat any

$_ZN6duckdb14UpdateRelationD0Ev = comdat any

$_ZN6duckdb14UpdateRelation10IsReadOnlyEv = comdat any

$_ZN6duckdb18ProjectionRelationD2Ev = comdat any

$_ZN6duckdb18ProjectionRelationD0Ev = comdat any

$_ZN6duckdb21TableFunctionRelationD2Ev = comdat any

$_ZN6duckdb21TableFunctionRelationD0Ev = comdat any

$_ZN6duckdb15ReadCSVRelationD2Ev = comdat any

$_ZN6duckdb15ReadCSVRelationD0Ev = comdat any

$_ZN6duckdb16ReadJSONRelationD2Ev = comdat any

$_ZN6duckdb16ReadJSONRelationD0Ev = comdat any

$_ZN6duckdb13SetOpRelationD2Ev = comdat any

$_ZN6duckdb13SetOpRelationD0Ev = comdat any

$_ZN6duckdb16SubqueryRelationD2Ev = comdat any

$_ZN6duckdb16SubqueryRelationD0Ev = comdat any

$_ZN6duckdb16SubqueryRelation22InheritsColumnBindingsEv = comdat any

$_ZN6duckdb16SubqueryRelation13ChildRelationEv = comdat any

$_ZN6duckdb13TableRelationD2Ev = comdat any

$_ZN6duckdb13TableRelationD0Ev = comdat any

$_ZN6duckdb13ValueRelationD2Ev = comdat any

$_ZN6duckdb13ValueRelationD0Ev = comdat any

$_ZN6duckdb12ViewRelationD2Ev = comdat any

$_ZN6duckdb12ViewRelationD0Ev = comdat any

$_ZN6duckdb20WriteParquetRelationD2Ev = comdat any

$_ZN6duckdb20WriteParquetRelationD0Ev = comdat any

$_ZN6duckdb20WriteParquetRelation10IsReadOnlyEv = comdat any

$_ZN6duckdb16WriteCSVRelationD2Ev = comdat any

$_ZN6duckdb16WriteCSVRelationD0Ev = comdat any

$_ZN6duckdb16WriteCSVRelation10IsReadOnlyEv = comdat any

$_ZNSt23enable_shared_from_thisIN6duckdb8RelationEED2Ev = comdat any

$__clang_call_terminate = comdat any

$_ZNSt16_Sp_counted_baseILN9__gnu_cxx12_Lock_policyE2EE24_M_release_last_use_coldEv = comdat any

$_ZSt8_DestroyIPSt3setImSt4lessImESaImEEEvT_S6_ = comdat any

$_ZNSt8_Rb_treeImmSt9_IdentityImESt4lessImESaImEE8_M_eraseEPSt13_Rb_tree_nodeImE = comdat any

$_ZNSt6vectorISt3setImSt4lessImESaImEESaIS4_EEaSERKS6_ = comdat any

$_ZNSt6vectorISt3setImSt4lessImESaImEESaIS4_EE20_M_allocate_and_copyIN9__gnu_cxx17__normal_iteratorIPKS4_S6_EEEEPS4_mT_SE_ = comdat any

$_ZSt16__do_uninit_copyIN9__gnu_cxx17__normal_iteratorIPKSt3setImSt4lessImESaImEESt6vectorIS6_SaIS6_EEEEPS6_ET0_T_SF_SE_ = comdat any

$_ZNSt8_Rb_treeImmSt9_IdentityImESt4lessImESaImEE7_M_copyILb0ENS5_11_Alloc_nodeEEEPSt13_Rb_tree_nodeImESA_PSt18_Rb_tree_node_baseRT0_ = comdat any

$_ZNSt8_Rb_treeImmSt9_IdentityImESt4lessImESaImEEaSERKS5_ = comdat any

$_ZNSt8_Rb_treeImmSt9_IdentityImESt4lessImESaImEE20_Reuse_or_alloc_nodeD2Ev = comdat any

$_ZNSt8_Rb_treeImmSt9_IdentityImESt4lessImESaImEE7_M_copyILb0ENS5_20_Reuse_or_alloc_nodeEEEPSt13_Rb_tree_nodeImESA_PSt18_Rb_tree_node_baseRT0_ = comdat any

$_ZSt16__do_uninit_copyIPSt3setImSt4lessImESaImEES5_ET0_T_S7_S6_ = comdat any

$_ZNSt6vectorIN6duckdb10unique_ptrINS0_16ParsedExpressionESt14default_deleteIS2_ELb1EEESaIS5_EED2Ev = comdat any

$_ZNSt13unordered_mapINSt7__cxx1112basic_stringIcSt11char_traitsIcESaIcEEEmN6duckdb33CaseInsensitiveStringHashFunctionENS6_29CaseInsensitiveStringEqualityESaISt4pairIKS5_mEEED2Ev = comdat any

$_ZN6duckdb12SQLStatementD2Ev = comdat any

$_ZN6duckdb12SQLStatementD0Ev = comdat any

$_ZNK6duckdb12SQLStatement8ToStringB5cxx11Ev = comdat any

$_ZN6duckdb17InternalExceptionC2IJNSt7__cxx1112basic_stringIcSt11char_traitsIcESaIcEEEEEERKS7_DpT_ = comdat any

$_ZN6duckdb9Exception16ConstructMessageIJNSt7__cxx1112basic_stringIcSt11char_traitsIcESaIcEEEEEES7_RKS7_DpT_ = comdat any

$_ZN6duckdb9Exception25ConstructMessageRecursiveINSt7__cxx1112basic_stringIcSt11char_traitsIcESaIcEEEJEEES7_RKS7_RSt6vectorINS_20ExceptionFormatValueESaISB_EET_DpT0_ = comdat any

$_ZNSt6vectorIN6duckdb20ExceptionFormatValueESaIS1_EED2Ev = comdat any

$_ZNSt6vectorIN6duckdb20ExceptionFormatValueESaIS1_EE17_M_realloc_insertIJS1_EEEvN9__gnu_cxx17__normal_iteratorIPS1_S3_EEDpOT_ = comdat any

$_ZNSt8__detail16_Hashtable_allocISaINS_10_Hash_nodeISt4pairIKNSt7__cxx1112basic_stringIcSt11char_traitsIcESaIcEEEN6duckdb10unique_ptrINSA_25CommonTableExpressionInfoESt14default_deleteISC_ELb1EEEELb1EEEEE18_M_deallocate_nodeEPSH_ = comdat any

$_ZNSt10unique_ptrIN6duckdb14OnConflictInfoESt14default_deleteIS1_EED2Ev = comdat any

$_ZNSt6vectorINSt7__cxx1112basic_stringIcSt11char_traitsIcESaIcEEESaIS5_EEaSERKS7_ = comdat any

$_ZNSt6vectorINSt7__cxx1112basic_stringIcSt11char_traitsIcESaIcEEESaIS5_EE20_M_allocate_and_copyIN9__gnu_cxx17__normal_iteratorIPKS5_S7_EEEEPS5_mT_SF_ = comdat any

$_ZSt16__do_uninit_copyIN9__gnu_cxx17__normal_iteratorIPKNSt7__cxx1112basic_stringIcSt11char_traitsIcESaIcEEESt6vectorIS7_SaIS7_EEEEPS7_ET0_T_SG_SF_ = comdat any

$_ZSt16__do_uninit_copyIPNSt7__cxx1112basic_stringIcSt11char_traitsIcESaIcEEES6_ET0_T_S8_S7_ = comdat any

$_ZNKSt14default_deleteIN6duckdb13UpdateSetInfoEEclEPS1_ = comdat any

$_ZNSt6vectorIN6duckdb5ValueESaIS1_EE17_M_realloc_insertIJS1_EEEvN9__gnu_cxx17__normal_iteratorIPS1_S3_EEDpOT_ = comdat any

$_ZN6duckdb14DialectOptionsC2Ev = comdat any

$_ZNSt3mapIN6duckdb13LogicalTypeIdENS0_14StrpTimeFormatESt4lessIS1_ESaISt4pairIKS1_S2_EEEC2ESt16initializer_listIS7_ERKS4_RKS8_ = comdat any

$_ZN6duckdb13StrTimeFormatD2Ev = comdat any

$_ZNSt4pairIKN6duckdb13LogicalTypeIdENS0_14StrfTimeFormatEEC2IS2_S3_TnNSt9enable_ifIXaaclsr5_PCCPE18_ConstructiblePairIT_T0_EEclsr5_PCCPE26_ImplicitlyConvertiblePairIS7_S8_EEEbE4typeELb1EEERS2_RKS3_ = comdat any

$_ZNSt3mapIN6duckdb13LogicalTypeIdENS0_14StrfTimeFormatESt4lessIS1_ESaISt4pairIKS1_S2_EEEC2ESt16initializer_listIS7_ERKS4_RKS8_ = comdat any

$_ZNSt4pairIKN6duckdb13LogicalTypeIdENS0_14StrfTimeFormatEED2Ev = comdat any

$_ZN6duckdb14StrfTimeFormatD2Ev = comdat any

$_ZNSt3mapIN6duckdb13LogicalTypeIdEbSt4lessIS1_ESaISt4pairIKS1_bEEEC2ESt16initializer_listIS6_ERKS3_RKS7_ = comdat any

$_ZNSt3mapIN6duckdb13LogicalTypeIdENS0_14StrfTimeFormatESt4lessIS1_ESaISt4pairIKS1_S2_EEED2Ev = comdat any

$_ZNSt3mapIN6duckdb13LogicalTypeIdENS0_14StrpTimeFormatESt4lessIS1_ESaISt4pairIKS1_S2_EEED2Ev = comdat any

$_ZNSt13_Bvector_baseISaIbEED2Ev = comdat any

$_ZN6duckdb22MultiFileReaderOptionsD2Ev = comdat any

$_ZN6duckdb14DialectOptionsD2Ev = comdat any

$_ZNSt3mapIN6duckdb13LogicalTypeIdENS0_9CSVOptionINS0_14StrpTimeFormatEEESt4lessIS1_ESaISt4pairIKS1_S4_EEEC2ESt16initializer_listIS9_ERKS6_RKSA_ = comdat any

$_ZN6duckdb13StrTimeFormatC2ERKS0_ = comdat any

$_ZNSt8_Rb_treeIN6duckdb13LogicalTypeIdESt4pairIKS1_NS0_9CSVOptionINS0_14StrpTimeFormatEEEESt10_Select1stIS7_ESt4lessIS1_ESaIS7_EED2Ev = comdat any

$_ZNSt8_Rb_treeIN6duckdb13LogicalTypeIdESt4pairIKS1_NS0_9CSVOptionINS0_14StrpTimeFormatEEEESt10_Select1stIS7_ESt4lessIS1_ESaIS7_EE10_M_insert_IRKS7_NSD_11_Alloc_nodeEEESt17_Rb_tree_iteratorIS7_EPSt18_Rb_tree_node_baseSL_OT_RT0_ = comdat any

$_ZNSt8_Rb_treeIN6duckdb13LogicalTypeIdESt4pairIKS1_NS0_9CSVOptionINS0_14StrpTimeFormatEEEESt10_Select1stIS7_ESt4lessIS1_ESaIS7_EE8_M_eraseEPSt13_Rb_tree_nodeIS7_E = comdat any

$_ZNSt6vectorIN6duckdb11LogicalTypeESaIS1_EE19_M_range_initializeIPKS1_EEvT_S7_St20forward_iterator_tag = comdat any

$_ZNSt8_Rb_treeIN6duckdb13LogicalTypeIdESt4pairIKS1_NS0_14StrpTimeFormatEESt10_Select1stIS5_ESt4lessIS1_ESaIS5_EED2Ev = comdat any

$_ZNSt8_Rb_treeIN6duckdb13LogicalTypeIdESt4pairIKS1_NS0_14StrpTimeFormatEESt10_Select1stIS5_ESt4lessIS1_ESaIS5_EE10_M_insert_IRKS5_NSB_11_Alloc_nodeEEESt17_Rb_tree_iteratorIS5_EPSt18_Rb_tree_node_baseSJ_OT_RT0_ = comdat any

$_ZNSt8_Rb_treeIN6duckdb13LogicalTypeIdESt4pairIKS1_NS0_14StrpTimeFormatEESt10_Select1stIS5_ESt4lessIS1_ESaIS5_EE8_M_eraseEPSt13_Rb_tree_nodeIS5_E = comdat any

$_ZNSt6vectorIbSaIbEEC2ERKS1_ = comdat any

$_ZNSt8_Rb_treeIN6duckdb13LogicalTypeIdESt4pairIKS1_NS0_14StrfTimeFormatEESt10_Select1stIS5_ESt4lessIS1_ESaIS5_EED2Ev = comdat any

$_ZNSt8_Rb_treeIN6duckdb13LogicalTypeIdESt4pairIKS1_NS0_14StrfTimeFormatEESt10_Select1stIS5_ESt4lessIS1_ESaIS5_EE10_M_insert_IRKS5_NSB_11_Alloc_nodeEEESt17_Rb_tree_iteratorIS5_EPSt18_Rb_tree_node_baseSJ_OT_RT0_ = comdat any

$_ZNSt4pairIKN6duckdb13LogicalTypeIdENS0_14StrfTimeFormatEEC2ERKS4_ = comdat any

$_ZNSt8_Rb_treeIN6duckdb13LogicalTypeIdESt4pairIKS1_NS0_14StrfTimeFormatEESt10_Select1stIS5_ESt4lessIS1_ESaIS5_EE8_M_eraseEPSt13_Rb_tree_nodeIS5_E = comdat any

$_ZNSt8_Rb_treeIN6duckdb13LogicalTypeIdESt4pairIKS1_bESt10_Select1stIS4_ESt4lessIS1_ESaIS4_EED2Ev = comdat any

$_ZNSt8_Rb_treeIN6duckdb13LogicalTypeIdESt4pairIKS1_bESt10_Select1stIS4_ESt4lessIS1_ESaIS4_EE8_M_eraseEPSt13_Rb_tree_nodeIS4_E = comdat any

$_ZNSt8_Rb_treeIN6duckdb13LogicalTypeIdESt4pairIKS1_NS0_21DateTimestampSniffingEESt10_Select1stIS5_ESt4lessIS1_ESaIS5_EE8_M_eraseEPSt13_Rb_tree_nodeIS5_E = comdat any

$_ZN6duckdb15CSVStateMachineD2Ev = comdat any

$_ZNSt8_Rb_treeIN6duckdb13LogicalTypeIdESt4pairIKS1_NS0_6vectorINSt7__cxx1112basic_stringIcSt11char_traitsIcESaIcEEELb1EEEESt10_Select1stISC_ESt4lessIS1_ESaISC_EE8_M_eraseEPSt13_Rb_tree_nodeISC_E = comdat any

$_ZNSt8_Rb_treeIN6duckdb13LogicalTypeIdESt4pairIKS1_NS0_6vectorIPKcLb1EEEESt10_Select1stIS8_ESt4lessIS1_ESaIS8_EE8_M_eraseEPSt13_Rb_tree_nodeIS8_E = comdat any

$_ZNSt10_HashtableINSt7__cxx1112basic_stringIcSt11char_traitsIcESaIcEEESt4pairIKS5_N6duckdb5ValueEESaISA_ENSt8__detail10_Select1stENS8_29CaseInsensitiveStringEqualityENS8_33CaseInsensitiveStringHashFunctionENSC_18_Mod_range_hashingENSC_20_Default_ranged_hashENSC_20_Prime_rehash_policyENSC_17_Hashtable_traitsILb1ELb0ELb1EEEE14_M_move_assignEOSL_St17integral_constantIbLb1EE = comdat any

$_ZNSt6vectorIN6duckdb6vectorINS0_10unique_ptrINS0_16ParsedExpressionESt14default_deleteIS3_ELb1EEELb1EEESaIS7_EED2Ev = comdat any

$_ZNSt10_HashtableINSt7__cxx1112basic_stringIcSt11char_traitsIcESaIcEEESt4pairIKS5_N6duckdb6vectorINS8_5ValueELb1EEEESaISC_ENSt8__detail10_Select1stENS8_29CaseInsensitiveStringEqualityENS8_33CaseInsensitiveStringHashFunctionENSE_18_Mod_range_hashingENSE_20_Default_ranged_hashENSE_20_Prime_rehash_policyENSE_17_Hashtable_traitsILb1ELb0ELb1EEEED2Ev = comdat any

$_ZNSt10_HashtableINSt7__cxx1112basic_stringIcSt11char_traitsIcESaIcEEESt4pairIKS5_N6duckdb6vectorINS8_5ValueELb1EEEESaISC_ENSt8__detail10_Select1stENS8_29CaseInsensitiveStringEqualityENS8_33CaseInsensitiveStringHashFunctionENSE_18_Mod_range_hashingENSE_20_Default_ranged_hashENSE_20_Prime_rehash_policyENSE_17_Hashtable_traitsILb1ELb0ELb1EEEE5clearEv = comdat any

$_ZNSt10_HashtableINSt7__cxx1112basic_stringIcSt11char_traitsIcESaIcEEESt4pairIKS5_N6duckdb6vectorINS8_5ValueELb1EEEESaISC_ENSt8__detail10_Select1stENS8_29CaseInsensitiveStringEqualityENS8_33CaseInsensitiveStringHashFunctionENSE_18_Mod_range_hashingENSE_20_Default_ranged_hashENSE_20_Prime_rehash_policyENSE_17_Hashtable_traitsILb1ELb0ELb1EEEE18_M_assign_elementsIRKSN_EEvOT_ = comdat any

$_ZNSt10_HashtableINSt7__cxx1112basic_stringIcSt11char_traitsIcESaIcEEESt4pairIKS5_N6duckdb6vectorINS8_5ValueELb1EEEESaISC_ENSt8__detail10_Select1stENS8_29CaseInsensitiveStringEqualityENS8_33CaseInsensitiveStringHashFunctionENSE_18_Mod_range_hashingENSE_20_Default_ranged_hashENSE_20_Prime_rehash_policyENSE_17_Hashtable_traitsILb1ELb0ELb1EEEE9_M_assignIRKSN_NSE_17_ReuseOrAllocNodeISaINSE_10_Hash_nodeISC_Lb1EEEEEEEEvOT_RKT0_ = comdat any

$_ZNSt8__detail17_ReuseOrAllocNodeISaINS_10_Hash_nodeISt4pairIKNSt7__cxx1112basic_stringIcSt11char_traitsIcESaIcEEEN6duckdb6vectorINSA_5ValueELb1EEEELb1EEEEED2Ev = comdat any

$_ZNKSt8__detail17_ReuseOrAllocNodeISaINS_10_Hash_nodeISt4pairIKNSt7__cxx1112basic_stringIcSt11char_traitsIcESaIcEEEN6duckdb6vectorINSA_5ValueELb1EEEELb1EEEEEclIJRKSE_EEEPSF_DpOT_ = comdat any

$_ZNSt8__detail16_Hashtable_allocISaINS_10_Hash_nodeISt4pairIKNSt7__cxx1112basic_stringIcSt11char_traitsIcESaIcEEEN6duckdb6vectorINSA_5ValueELb1EEEELb1EEEEE16_M_allocate_nodeIJRKSE_EEEPSF_DpOT_ = comdat any

$_ZNSt6vectorIN6duckdb5ValueESaIS1_EEC2ERKS3_ = comdat any

$_ZNKSt14default_deleteIN6duckdb16TableDescriptionEEclEPS1_ = comdat any

$_ZNSt6vectorINSt7__cxx1112basic_stringIcSt11char_traitsIcESaIcEEESaIS5_EE17_M_realloc_insertIJRKS5_EEEvN9__gnu_cxx17__normal_iteratorIPS5_S7_EEDpOT_ = comdat any

$_ZN6duckdb17InternalExceptionC2IJmmEEERKNSt7__cxx1112basic_stringIcSt11char_traitsIcESaIcEEEDpT_ = comdat any

$_ZN6duckdb9Exception25ConstructMessageRecursiveImJmEEENSt7__cxx1112basic_stringIcSt11char_traitsIcESaIcEEERKS7_RSt6vectorINS_20ExceptionFormatValueESaISB_EET_DpT0_ = comdat any

$_ZN6duckdb9Exception25ConstructMessageRecursiveImJEEENSt7__cxx1112basic_stringIcSt11char_traitsIcESaIcEEERKS7_RSt6vectorINS_20ExceptionFormatValueESaISB_EET_DpT0_ = comdat any

$_ZNSt6vectorIN6duckdb10unique_ptrINS0_16ParsedExpressionESt14default_deleteIS2_ELb1EEESaIS5_EE17_M_realloc_insertIJS5_EEEvN9__gnu_cxx17__normal_iteratorIPS5_S7_EEDpOT_ = comdat any

$_ZNSt6vectorISt3setImSt4lessImESaImEESaIS4_EE17_M_realloc_insertIJS4_EEEvN9__gnu_cxx17__normal_iteratorIPS4_S6_EEDpOT_ = comdat any

$_ZNSt6vectorIN6duckdb11OrderByNodeESaIS1_EE17_M_realloc_insertIJRNS0_9OrderTypeERNS0_15OrderByNullTypeENS0_10unique_ptrINS0_16ParsedExpressionESt14default_deleteISA_ELb1EEEEEEvN9__gnu_cxx17__normal_iteratorIPS1_S3_EEDpOT_ = comdat any

$_ZNSt14__shared_countILN9__gnu_cxx12_Lock_policyE2EEC2IN6duckdb16CSVBufferManagerESaIvEJRNS4_13ClientContextENS4_10unique_ptrINS4_13CSVFileHandleESt14default_deleteISA_ELb1EEERNS4_16CSVReaderOptionsEEEERPT_St20_Sp_alloc_shared_tagIT0_EDpOT1_ = comdat any

$_ZNSt23_Sp_counted_ptr_inplaceIN6duckdb16CSVBufferManagerESaIvELN9__gnu_cxx12_Lock_policyE2EED0Ev = comdat any

$_ZNSt23_Sp_counted_ptr_inplaceIN6duckdb16CSVBufferManagerESaIvELN9__gnu_cxx12_Lock_policyE2EE10_M_disposeEv = comdat any

$_ZNSt23_Sp_counted_ptr_inplaceIN6duckdb16CSVBufferManagerESaIvELN9__gnu_cxx12_Lock_policyE2EE10_M_destroyEv = comdat any

$_ZNSt23_Sp_counted_ptr_inplaceIN6duckdb16CSVBufferManagerESaIvELN9__gnu_cxx12_Lock_policyE2EE14_M_get_deleterERKSt9type_info = comdat any

$_ZN6duckdb16CSVBufferManagerD2Ev = comdat any

$_ZNSt6vectorIN6duckdb16ColumnDefinitionESaIS1_EE17_M_realloc_insertIJRNSt7__cxx1112basic_stringIcSt11char_traitsIcESaIcEEERNS0_11LogicalTypeEEEEvN9__gnu_cxx17__normal_iteratorIPS1_S3_EEDpOT_ = comdat any

$_ZNSt15__new_allocatorIN6duckdb16ColumnDefinitionEE9constructIS1_JRNSt7__cxx1112basic_stringIcSt11char_traitsIcESaIcEEERNS0_11LogicalTypeEEEEvPT_DpOT0_ = comdat any

$_ZNSt16allocator_traitsISaIN6duckdb16ColumnDefinitionEEE7destroyIS1_EEvRS2_PT_ = comdat any

$_ZNSt8__detail9_Map_baseINSt7__cxx1112basic_stringIcSt11char_traitsIcESaIcEEESt4pairIKS6_N6duckdb5ValueEESaISB_ENS_10_Select1stENS9_29CaseInsensitiveStringEqualityENS9_33CaseInsensitiveStringHashFunctionENS_18_Mod_range_hashingENS_20_Default_ranged_hashENS_20_Prime_rehash_policyENS_17_Hashtable_traitsILb1ELb0ELb1EEELb1EEixEOS6_ = comdat any

$_ZNSt10_HashtableINSt7__cxx1112basic_stringIcSt11char_traitsIcESaIcEEESt4pairIKS5_N6duckdb5ValueEESaISA_ENSt8__detail10_Select1stENS8_29CaseInsensitiveStringEqualityENS8_33CaseInsensitiveStringHashFunctionENSC_18_Mod_range_hashingENSC_20_Default_ranged_hashENSC_20_Prime_rehash_policyENSC_17_Hashtable_traitsILb1ELb0ELb1EEEE21_M_insert_unique_nodeEmmPNSC_10_Hash_nodeISA_Lb1EEEm = comdat any

$_ZNSt10_HashtableINSt7__cxx1112basic_stringIcSt11char_traitsIcESaIcEEESt4pairIKS5_N6duckdb5ValueEESaISA_ENSt8__detail10_Select1stENS8_29CaseInsensitiveStringEqualityENS8_33CaseInsensitiveStringHashFunctionENSC_18_Mod_range_hashingENSC_20_Default_ranged_hashENSC_20_Prime_rehash_policyENSC_17_Hashtable_traitsILb1ELb0ELb1EEEE12_Scoped_nodeD2Ev = comdat any

$_ZNSt8__detail16_Hashtable_allocISaINS_10_Hash_nodeISt4pairIKNSt7__cxx1112basic_stringIcSt11char_traitsIcESaIcEEEN6duckdb5ValueEELb1EEEEE16_M_allocate_nodeIJRKSt21piecewise_construct_tSt5tupleIJOS8_EESK_IJEEEEEPSD_DpOT_ = comdat any

$_ZNSt10_HashtableINSt7__cxx1112basic_stringIcSt11char_traitsIcESaIcEEESt4pairIKS5_N6duckdb5ValueEESaISA_ENSt8__detail10_Select1stENS8_29CaseInsensitiveStringEqualityENS8_33CaseInsensitiveStringHashFunctionENSC_18_Mod_range_hashingENSC_20_Default_ranged_hashENSC_20_Prime_rehash_policyENSC_17_Hashtable_traitsILb1ELb0ELb1EEEE13_M_rehash_auxEmSt17integral_constantIbLb1EE = comdat any

$_ZNSt6vectorISt4pairINSt7__cxx1112basic_stringIcSt11char_traitsIcESaIcEEEN6duckdb5ValueEESaIS9_EE17_M_realloc_insertIJS9_EEEvN9__gnu_cxx17__normal_iteratorIPS9_SB_EEDpOT_ = comdat any

$_ZNSt6vectorIN6duckdb10unique_ptrINS0_14ResultModifierESt14default_deleteIS2_ELb1EEESaIS5_EED2Ev = comdat any

$_ZNSt8__detail9_Map_baseINSt7__cxx1112basic_stringIcSt11char_traitsIcESaIcEEESt4pairIKS6_N6duckdb5ValueEESaISB_ENS_10_Select1stENS9_29CaseInsensitiveStringEqualityENS9_33CaseInsensitiveStringHashFunctionENS_18_Mod_range_hashingENS_20_Default_ranged_hashENS_20_Prime_rehash_policyENS_17_Hashtable_traitsILb1ELb0ELb1EEELb1EEixERS8_ = comdat any

$_ZNSt4pairIKNSt7__cxx1112basic_stringIcSt11char_traitsIcESaIcEEEN6duckdb5ValueEEC2IJRS6_EJLm0EEJETpTnmJEEERSt5tupleIJDpT_EERSC_IJDpT1_EESt12_Index_tupleIJXspT0_EEESL_IJXspT2_EEE = comdat any

$_ZNSt23_Sp_counted_ptr_inplaceIN6duckdb14UpdateRelationESaIvELN9__gnu_cxx12_Lock_policyE2EED0Ev = comdat any

$_ZNSt23_Sp_counted_ptr_inplaceIN6duckdb14UpdateRelationESaIvELN9__gnu_cxx12_Lock_policyE2EE10_M_disposeEv = comdat any

$_ZNSt23_Sp_counted_ptr_inplaceIN6duckdb14UpdateRelationESaIvELN9__gnu_cxx12_Lock_policyE2EE10_M_destroyEv = comdat any

$_ZNSt23_Sp_counted_ptr_inplaceIN6duckdb14UpdateRelationESaIvELN9__gnu_cxx12_Lock_policyE2EE14_M_get_deleterERKSt9type_info = comdat any

$_ZSt10_ConstructIN6duckdb14UpdateRelationEJRNS0_20ClientContextWrapperENS0_10unique_ptrINS0_16ParsedExpressionESt14default_deleteIS5_ELb1EEERNSt7__cxx1112basic_stringIcSt11char_traitsIcESaIcEEESF_NS0_6vectorISE_Lb1EEENSG_IS8_Lb1EEEEEvPT_DpOT0_ = comdat any

$_ZNSt16_Sp_counted_baseILN9__gnu_cxx12_Lock_policyE2EED2Ev = comdat any

$_ZNSt23_Sp_counted_ptr_inplaceIN6duckdb14DeleteRelationESaIvELN9__gnu_cxx12_Lock_policyE2EED0Ev = comdat any

$_ZNSt23_Sp_counted_ptr_inplaceIN6duckdb14DeleteRelationESaIvELN9__gnu_cxx12_Lock_policyE2EE10_M_disposeEv = comdat any

$_ZNSt23_Sp_counted_ptr_inplaceIN6duckdb14DeleteRelationESaIvELN9__gnu_cxx12_Lock_policyE2EE10_M_destroyEv = comdat any

$_ZNSt23_Sp_counted_ptr_inplaceIN6duckdb14DeleteRelationESaIvELN9__gnu_cxx12_Lock_policyE2EE14_M_get_deleterERKSt9type_info = comdat any

$_ZSt10_ConstructIN6duckdb14DeleteRelationEJRNS0_20ClientContextWrapperENS0_10unique_ptrINS0_16ParsedExpressionESt14default_deleteIS5_ELb1EEERNSt7__cxx1112basic_stringIcSt11char_traitsIcESaIcEEESF_EEvPT_DpOT0_ = comdat any

$_ZNSt6vectorIN6duckdb6vectorINS0_10unique_ptrINS0_16ParsedExpressionESt14default_deleteIS3_ELb1EEELb1EEESaIS7_EE17_M_realloc_insertIJS7_EEEvN9__gnu_cxx17__normal_iteratorIPS7_S9_EEDpOT_ = comdat any

$_ZNSt6vectorIN6duckdb11LogicalTypeESaIS1_EE17_M_realloc_insertIJRKS1_EEEvN9__gnu_cxx17__normal_iteratorIPS1_S3_EEDpOT_ = comdat any

$_ZTSN6duckdb15ParserExceptionE = comdat any

$_ZTSN6duckdb17StandardExceptionE = comdat any

$_ZTIN6duckdb17StandardExceptionE = comdat any

$_ZTIN6duckdb15ParserExceptionE = comdat any

$_ZTSN6duckdb17InternalExceptionE = comdat any

$_ZTSN6duckdb14FatalExceptionE = comdat any

$_ZTIN6duckdb14FatalExceptionE = comdat any

$_ZTIN6duckdb17InternalExceptionE = comdat any

$_ZTSN6duckdb19ConnectionExceptionE = comdat any

$_ZTIN6duckdb19ConnectionExceptionE = comdat any

$_ZTVN6duckdb12SQLStatementE = comdat any

$_ZTSN6duckdb12SQLStatementE = comdat any

$_ZTIN6duckdb12SQLStatementE = comdat any

$_ZZNSt8__detail18__to_chars_10_implImEEvPcjT_E8__digits = comdat any

$_ZTVSt23_Sp_counted_ptr_inplaceIN6duckdb16CSVBufferManagerESaIvELN9__gnu_cxx12_Lock_policyE2EE = comdat any

$_ZTSSt23_Sp_counted_ptr_inplaceIN6duckdb16CSVBufferManagerESaIvELN9__gnu_cxx12_Lock_policyE2EE = comdat any

$_ZTSSt16_Sp_counted_baseILN9__gnu_cxx12_Lock_policyE2EE = comdat any

$_ZTSSt11_Mutex_baseILN9__gnu_cxx12_Lock_policyE2EE = comdat any

$_ZTISt11_Mutex_baseILN9__gnu_cxx12_Lock_policyE2EE = comdat any

$_ZTISt16_Sp_counted_baseILN9__gnu_cxx12_Lock_policyE2EE = comdat any

$_ZTISt23_Sp_counted_ptr_inplaceIN6duckdb16CSVBufferManagerESaIvELN9__gnu_cxx12_Lock_policyE2EE = comdat any

$_ZTSSt19_Sp_make_shared_tag = comdat any

$_ZZNSt19_Sp_make_shared_tag5_S_tiEvE5__tag = comdat any

$_ZTVSt23_Sp_counted_ptr_inplaceIN6duckdb14UpdateRelationESaIvELN9__gnu_cxx12_Lock_policyE2EE = comdat any

$_ZTSSt23_Sp_counted_ptr_inplaceIN6duckdb14UpdateRelationESaIvELN9__gnu_cxx12_Lock_policyE2EE = comdat any

$_ZTISt23_Sp_counted_ptr_inplaceIN6duckdb14UpdateRelationESaIvELN9__gnu_cxx12_Lock_policyE2EE = comdat any

$_ZTVSt23_Sp_counted_ptr_inplaceIN6duckdb14DeleteRelationESaIvELN9__gnu_cxx12_Lock_policyE2EE = comdat any

$_ZTSSt23_Sp_counted_ptr_inplaceIN6duckdb14DeleteRelationESaIvELN9__gnu_cxx12_Lock_policyE2EE = comdat any

$_ZTISt23_Sp_counted_ptr_inplaceIN6duckdb14DeleteRelationESaIvELN9__gnu_cxx12_Lock_policyE2EE = comdat any

@_ZTVN6duckdb17AggregateRelationE = unnamed_addr constant { [15 x ptr] } { [15 x ptr] [ptr null, ptr @_ZTIN6duckdb17AggregateRelationE, ptr @_ZN6duckdb17AggregateRelationD2Ev, ptr @_ZN6duckdb17AggregateRelationD0Ev, ptr @_ZN6duckdb17AggregateRelation7ColumnsEv, ptr @_ZN6duckdb17AggregateRelation12GetQueryNodeEv, ptr @_ZN6duckdb8Relation4BindERNS_6BinderE, ptr @_ZN6duckdb17AggregateRelation8GetAliasB5cxx11Ev, ptr @_ZN6duckdb17AggregateRelation8ToStringB5cxx11Em, ptr @_ZN6duckdb8Relation11GetTableRefEv, ptr @_ZN6duckdb8Relation10IsReadOnlyEv, ptr @_ZN6duckdb8Relation6UpdateERKNSt7__cxx1112basic_stringIcSt11char_traitsIcESaIcEEES8_, ptr @_ZN6duckdb8Relation6DeleteERKNSt7__cxx1112basic_stringIcSt11char_traitsIcESaIcEEE, ptr @_ZN6duckdb8Relation22InheritsColumnBindingsEv, ptr @_ZN6duckdb8Relation13ChildRelationEv] }, align 8
@.str = private unnamed_addr constant [12 x i8] c"Aggregate [\00", align 1
@.str.1 = private unnamed_addr constant [3 x i8] c", \00", align 1
@.str.2 = private unnamed_addr constant [3 x i8] c"]\0A\00", align 1
@_ZTVN6duckdb19CreateTableRelationE = unnamed_addr constant { [15 x ptr] } { [15 x ptr] [ptr null, ptr @_ZTIN6duckdb19CreateTableRelationE, ptr @_ZN6duckdb19CreateTableRelationD2Ev, ptr @_ZN6duckdb19CreateTableRelationD0Ev, ptr @_ZN6duckdb19CreateTableRelation7ColumnsEv, ptr @_ZN6duckdb8Relation12GetQueryNodeEv, ptr @_ZN6duckdb19CreateTableRelation4BindERNS_6BinderE, ptr @_ZN6duckdb8Relation8GetAliasB5cxx11Ev, ptr @_ZN6duckdb19CreateTableRelation8ToStringB5cxx11Em, ptr @_ZN6duckdb8Relation11GetTableRefEv, ptr @_ZN6duckdb19CreateTableRelation10IsReadOnlyEv, ptr @_ZN6duckdb8Relation6UpdateERKNSt7__cxx1112basic_stringIcSt11char_traitsIcESaIcEEES8_, ptr @_ZN6duckdb8Relation6DeleteERKNSt7__cxx1112basic_stringIcSt11char_traitsIcESaIcEEE, ptr @_ZN6duckdb8Relation22InheritsColumnBindingsEv, ptr @_ZN6duckdb8Relation13ChildRelationEv] }, align 8
@.str.3 = private unnamed_addr constant [14 x i8] c"Create Table\0A\00", align 1
@_ZTVN6duckdb18CreateViewRelationE = unnamed_addr constant { [15 x ptr] } { [15 x ptr] [ptr null, ptr @_ZTIN6duckdb18CreateViewRelationE, ptr @_ZN6duckdb18CreateViewRelationD2Ev, ptr @_ZN6duckdb18CreateViewRelationD0Ev, ptr @_ZN6duckdb18CreateViewRelation7ColumnsEv, ptr @_ZN6duckdb8Relation12GetQueryNodeEv, ptr @_ZN6duckdb18CreateViewRelation4BindERNS_6BinderE, ptr @_ZN6duckdb8Relation8GetAliasB5cxx11Ev, ptr @_ZN6duckdb18CreateViewRelation8ToStringB5cxx11Em, ptr @_ZN6duckdb8Relation11GetTableRefEv, ptr @_ZN6duckdb18CreateViewRelation10IsReadOnlyEv, ptr @_ZN6duckdb8Relation6UpdateERKNSt7__cxx1112basic_stringIcSt11char_traitsIcESaIcEEES8_, ptr @_ZN6duckdb8Relation6DeleteERKNSt7__cxx1112basic_stringIcSt11char_traitsIcESaIcEEE, ptr @_ZN6duckdb8Relation22InheritsColumnBindingsEv, ptr @_ZN6duckdb8Relation13ChildRelationEv] }, align 8
@.str.4 = private unnamed_addr constant [13 x i8] c"Create View\0A\00", align 1
@_ZTVN6duckdb20CrossProductRelationE = unnamed_addr constant { [15 x ptr] } { [15 x ptr] [ptr null, ptr @_ZTIN6duckdb20CrossProductRelationE, ptr @_ZN6duckdb20CrossProductRelationD2Ev, ptr @_ZN6duckdb20CrossProductRelationD0Ev, ptr @_ZN6duckdb20CrossProductRelation7ColumnsEv, ptr @_ZN6duckdb20CrossProductRelation12GetQueryNodeEv, ptr @_ZN6duckdb8Relation4BindERNS_6BinderE, ptr @_ZN6duckdb8Relation8GetAliasB5cxx11Ev, ptr @_ZN6duckdb20CrossProductRelation8ToStringB5cxx11Em, ptr @_ZN6duckdb20CrossProductRelation11GetTableRefEv, ptr @_ZN6duckdb8Relation10IsReadOnlyEv, ptr @_ZN6duckdb8Relation6UpdateERKNSt7__cxx1112basic_stringIcSt11char_traitsIcESaIcEEES8_, ptr @_ZN6duckdb8Relation6DeleteERKNSt7__cxx1112basic_stringIcSt11char_traitsIcESaIcEEE, ptr @_ZN6duckdb8Relation22InheritsColumnBindingsEv, ptr @_ZN6duckdb8Relation13ChildRelationEv] }, align 8
@.str.5 = private unnamed_addr constant [66 x i8] c"Cannot combine LEFT and RIGHT relations of different connections!\00", align 1
@_ZTIN6duckdb9ExceptionE = external constant ptr
@.str.6 = private unnamed_addr constant [14 x i8] c"Cross Product\00", align 1
@.str.7 = private unnamed_addr constant [2 x i8] c"\0A\00", align 1
@_ZTVN6duckdb14DeleteRelationE = unnamed_addr constant { [15 x ptr] } { [15 x ptr] [ptr null, ptr @_ZTIN6duckdb14DeleteRelationE, ptr @_ZN6duckdb14DeleteRelationD2Ev, ptr @_ZN6duckdb14DeleteRelationD0Ev, ptr @_ZN6duckdb14DeleteRelation7ColumnsEv, ptr @_ZN6duckdb8Relation12GetQueryNodeEv, ptr @_ZN6duckdb14DeleteRelation4BindERNS_6BinderE, ptr @_ZN6duckdb8Relation8GetAliasB5cxx11Ev, ptr @_ZN6duckdb14DeleteRelation8ToStringB5cxx11Em, ptr @_ZN6duckdb8Relation11GetTableRefEv, ptr @_ZN6duckdb14DeleteRelation10IsReadOnlyEv, ptr @_ZN6duckdb8Relation6UpdateERKNSt7__cxx1112basic_stringIcSt11char_traitsIcESaIcEEES8_, ptr @_ZN6duckdb8Relation6DeleteERKNSt7__cxx1112basic_stringIcSt11char_traitsIcESaIcEEE, ptr @_ZN6duckdb8Relation22InheritsColumnBindingsEv, ptr @_ZN6duckdb8Relation13ChildRelationEv] }, align 8
@.str.8 = private unnamed_addr constant [13 x i8] c"DELETE FROM \00", align 1
@.str.9 = private unnamed_addr constant [8 x i8] c" WHERE \00", align 1
@_ZTVN6duckdb16DistinctRelationE = unnamed_addr constant { [15 x ptr] } { [15 x ptr] [ptr null, ptr @_ZTIN6duckdb16DistinctRelationE, ptr @_ZN6duckdb16DistinctRelationD2Ev, ptr @_ZN6duckdb16DistinctRelationD0Ev, ptr @_ZN6duckdb16DistinctRelation7ColumnsEv, ptr @_ZN6duckdb16DistinctRelation12GetQueryNodeEv, ptr @_ZN6duckdb8Relation4BindERNS_6BinderE, ptr @_ZN6duckdb16DistinctRelation8GetAliasB5cxx11Ev, ptr @_ZN6duckdb16DistinctRelation8ToStringB5cxx11Em, ptr @_ZN6duckdb8Relation11GetTableRefEv, ptr @_ZN6duckdb8Relation10IsReadOnlyEv, ptr @_ZN6duckdb8Relation6UpdateERKNSt7__cxx1112basic_stringIcSt11char_traitsIcESaIcEEES8_, ptr @_ZN6duckdb8Relation6DeleteERKNSt7__cxx1112basic_stringIcSt11char_traitsIcESaIcEEE, ptr @_ZN6duckdb16DistinctRelation22InheritsColumnBindingsEv, ptr @_ZN6duckdb16DistinctRelation13ChildRelationEv] }, align 8
@.str.10 = private unnamed_addr constant [10 x i8] c"Distinct\0A\00", align 1
@_ZTVN6duckdb15ExplainRelationE = unnamed_addr constant { [15 x ptr] } { [15 x ptr] [ptr null, ptr @_ZTIN6duckdb15ExplainRelationE, ptr @_ZN6duckdb15ExplainRelationD2Ev, ptr @_ZN6duckdb15ExplainRelationD0Ev, ptr @_ZN6duckdb15ExplainRelation7ColumnsEv, ptr @_ZN6duckdb8Relation12GetQueryNodeEv, ptr @_ZN6duckdb15ExplainRelation4BindERNS_6BinderE, ptr @_ZN6duckdb8Relation8GetAliasB5cxx11Ev, ptr @_ZN6duckdb15ExplainRelation8ToStringB5cxx11Em, ptr @_ZN6duckdb8Relation11GetTableRefEv, ptr @_ZN6duckdb15ExplainRelation10IsReadOnlyEv, ptr @_ZN6duckdb8Relation6UpdateERKNSt7__cxx1112basic_stringIcSt11char_traitsIcESaIcEEES8_, ptr @_ZN6duckdb8Relation6DeleteERKNSt7__cxx1112basic_stringIcSt11char_traitsIcESaIcEEE, ptr @_ZN6duckdb8Relation22InheritsColumnBindingsEv, ptr @_ZN6duckdb8Relation13ChildRelationEv] }, align 8
@.str.11 = private unnamed_addr constant [9 x i8] c"Explain\0A\00", align 1
@_ZTVN6duckdb14FilterRelationE = unnamed_addr constant { [15 x ptr] } { [15 x ptr] [ptr null, ptr @_ZTIN6duckdb14FilterRelationE, ptr @_ZN6duckdb14FilterRelationD2Ev, ptr @_ZN6duckdb14FilterRelationD0Ev, ptr @_ZN6duckdb14FilterRelation7ColumnsEv, ptr @_ZN6duckdb14FilterRelation12GetQueryNodeEv, ptr @_ZN6duckdb8Relation4BindERNS_6BinderE, ptr @_ZN6duckdb14FilterRelation8GetAliasB5cxx11Ev, ptr @_ZN6duckdb14FilterRelation8ToStringB5cxx11Em, ptr @_ZN6duckdb8Relation11GetTableRefEv, ptr @_ZN6duckdb8Relation10IsReadOnlyEv, ptr @_ZN6duckdb8Relation6UpdateERKNSt7__cxx1112basic_stringIcSt11char_traitsIcESaIcEEES8_, ptr @_ZN6duckdb8Relation6DeleteERKNSt7__cxx1112basic_stringIcSt11char_traitsIcESaIcEEE, ptr @_ZN6duckdb14FilterRelation22InheritsColumnBindingsEv, ptr @_ZN6duckdb14FilterRelation13ChildRelationEv] }, align 8
@.str.12 = private unnamed_addr constant [9 x i8] c"Filter [\00", align 1
@_ZTVN6duckdb14InsertRelationE = unnamed_addr constant { [15 x ptr] } { [15 x ptr] [ptr null, ptr @_ZTIN6duckdb14InsertRelationE, ptr @_ZN6duckdb14InsertRelationD2Ev, ptr @_ZN6duckdb14InsertRelationD0Ev, ptr @_ZN6duckdb14InsertRelation7ColumnsEv, ptr @_ZN6duckdb8Relation12GetQueryNodeEv, ptr @_ZN6duckdb14InsertRelation4BindERNS_6BinderE, ptr @_ZN6duckdb8Relation8GetAliasB5cxx11Ev, ptr @_ZN6duckdb14InsertRelation8ToStringB5cxx11Em, ptr @_ZN6duckdb8Relation11GetTableRefEv, ptr @_ZN6duckdb14InsertRelation10IsReadOnlyEv, ptr @_ZN6duckdb8Relation6UpdateERKNSt7__cxx1112basic_stringIcSt11char_traitsIcESaIcEEES8_, ptr @_ZN6duckdb8Relation6DeleteERKNSt7__cxx1112basic_stringIcSt11char_traitsIcESaIcEEE, ptr @_ZN6duckdb8Relation22InheritsColumnBindingsEv, ptr @_ZN6duckdb8Relation13ChildRelationEv] }, align 8
@.str.13 = private unnamed_addr constant [8 x i8] c"Insert\0A\00", align 1
@_ZTVN6duckdb12JoinRelationE = unnamed_addr constant { [15 x ptr] } { [15 x ptr] [ptr null, ptr @_ZTIN6duckdb12JoinRelationE, ptr @_ZN6duckdb12JoinRelationD2Ev, ptr @_ZN6duckdb12JoinRelationD0Ev, ptr @_ZN6duckdb12JoinRelation7ColumnsEv, ptr @_ZN6duckdb12JoinRelation12GetQueryNodeEv, ptr @_ZN6duckdb8Relation4BindERNS_6BinderE, ptr @_ZN6duckdb8Relation8GetAliasB5cxx11Ev, ptr @_ZN6duckdb12JoinRelation8ToStringB5cxx11Em, ptr @_ZN6duckdb12JoinRelation11GetTableRefEv, ptr @_ZN6duckdb8Relation10IsReadOnlyEv, ptr @_ZN6duckdb8Relation6UpdateERKNSt7__cxx1112basic_stringIcSt11char_traitsIcESaIcEEES8_, ptr @_ZN6duckdb8Relation6DeleteERKNSt7__cxx1112basic_stringIcSt11char_traitsIcESaIcEEE, ptr @_ZN6duckdb8Relation22InheritsColumnBindingsEv, ptr @_ZN6duckdb8Relation13ChildRelationEv] }, align 8
@.str.14 = private unnamed_addr constant [6 x i8] c"Join \00", align 1
@.str.15 = private unnamed_addr constant [2 x i8] c" \00", align 1
@_ZTVN6duckdb13LimitRelationE = unnamed_addr constant { [15 x ptr] } { [15 x ptr] [ptr null, ptr @_ZTIN6duckdb13LimitRelationE, ptr @_ZN6duckdb13LimitRelationD2Ev, ptr @_ZN6duckdb13LimitRelationD0Ev, ptr @_ZN6duckdb13LimitRelation7ColumnsEv, ptr @_ZN6duckdb13LimitRelation12GetQueryNodeEv, ptr @_ZN6duckdb8Relation4BindERNS_6BinderE, ptr @_ZN6duckdb13LimitRelation8GetAliasB5cxx11Ev, ptr @_ZN6duckdb13LimitRelation8ToStringB5cxx11Em, ptr @_ZN6duckdb8Relation11GetTableRefEv, ptr @_ZN6duckdb8Relation10IsReadOnlyEv, ptr @_ZN6duckdb8Relation6UpdateERKNSt7__cxx1112basic_stringIcSt11char_traitsIcESaIcEEES8_, ptr @_ZN6duckdb8Relation6DeleteERKNSt7__cxx1112basic_stringIcSt11char_traitsIcESaIcEEE, ptr @_ZN6duckdb13LimitRelation22InheritsColumnBindingsEv, ptr @_ZN6duckdb13LimitRelation13ChildRelationEv] }, align 8
@.str.16 = private unnamed_addr constant [7 x i8] c"Limit \00", align 1
@.str.17 = private unnamed_addr constant [9 x i8] c" Offset \00", align 1
@_ZTVN6duckdb13OrderRelationE = unnamed_addr constant { [15 x ptr] } { [15 x ptr] [ptr null, ptr @_ZTIN6duckdb13OrderRelationE, ptr @_ZN6duckdb13OrderRelationD2Ev, ptr @_ZN6duckdb13OrderRelationD0Ev, ptr @_ZN6duckdb13OrderRelation7ColumnsEv, ptr @_ZN6duckdb13OrderRelation12GetQueryNodeEv, ptr @_ZN6duckdb8Relation4BindERNS_6BinderE, ptr @_ZN6duckdb13OrderRelation8GetAliasB5cxx11Ev, ptr @_ZN6duckdb13OrderRelation8ToStringB5cxx11Em, ptr @_ZN6duckdb8Relation11GetTableRefEv, ptr @_ZN6duckdb8Relation10IsReadOnlyEv, ptr @_ZN6duckdb8Relation6UpdateERKNSt7__cxx1112basic_stringIcSt11char_traitsIcESaIcEEES8_, ptr @_ZN6duckdb8Relation6DeleteERKNSt7__cxx1112basic_stringIcSt11char_traitsIcESaIcEEE, ptr @_ZN6duckdb13OrderRelation22InheritsColumnBindingsEv, ptr @_ZN6duckdb13OrderRelation13ChildRelationEv] }, align 8
@.str.18 = private unnamed_addr constant [8 x i8] c"Order [\00", align 1
@.str.19 = private unnamed_addr constant [5 x i8] c" ASC\00", align 1
@.str.20 = private unnamed_addr constant [6 x i8] c" DESC\00", align 1
@_ZTVN6duckdb14UpdateRelationE = unnamed_addr constant { [15 x ptr] } { [15 x ptr] [ptr null, ptr @_ZTIN6duckdb14UpdateRelationE, ptr @_ZN6duckdb14UpdateRelationD2Ev, ptr @_ZN6duckdb14UpdateRelationD0Ev, ptr @_ZN6duckdb14UpdateRelation7ColumnsEv, ptr @_ZN6duckdb8Relation12GetQueryNodeEv, ptr @_ZN6duckdb14UpdateRelation4BindERNS_6BinderE, ptr @_ZN6duckdb8Relation8GetAliasB5cxx11Ev, ptr @_ZN6duckdb14UpdateRelation8ToStringB5cxx11Em, ptr @_ZN6duckdb8Relation11GetTableRefEv, ptr @_ZN6duckdb14UpdateRelation10IsReadOnlyEv, ptr @_ZN6duckdb8Relation6UpdateERKNSt7__cxx1112basic_stringIcSt11char_traitsIcESaIcEEES8_, ptr @_ZN6duckdb8Relation6DeleteERKNSt7__cxx1112basic_stringIcSt11char_traitsIcESaIcEEE, ptr @_ZN6duckdb8Relation22InheritsColumnBindingsEv, ptr @_ZN6duckdb8Relation13ChildRelationEv] }, align 8
@.str.21 = private unnamed_addr constant [8 x i8] c"UPDATE \00", align 1
@.str.22 = private unnamed_addr constant [6 x i8] c" SET\0A\00", align 1
@.str.23 = private unnamed_addr constant [4 x i8] c" = \00", align 1
@.str.24 = private unnamed_addr constant [7 x i8] c"WHERE \00", align 1
@_ZTVN6duckdb18ProjectionRelationE = unnamed_addr constant { [15 x ptr] } { [15 x ptr] [ptr null, ptr @_ZTIN6duckdb18ProjectionRelationE, ptr @_ZN6duckdb18ProjectionRelationD2Ev, ptr @_ZN6duckdb18ProjectionRelationD0Ev, ptr @_ZN6duckdb18ProjectionRelation7ColumnsEv, ptr @_ZN6duckdb18ProjectionRelation12GetQueryNodeEv, ptr @_ZN6duckdb8Relation4BindERNS_6BinderE, ptr @_ZN6duckdb18ProjectionRelation8GetAliasB5cxx11Ev, ptr @_ZN6duckdb18ProjectionRelation8ToStringB5cxx11Em, ptr @_ZN6duckdb8Relation11GetTableRefEv, ptr @_ZN6duckdb8Relation10IsReadOnlyEv, ptr @_ZN6duckdb8Relation6UpdateERKNSt7__cxx1112basic_stringIcSt11char_traitsIcESaIcEEES8_, ptr @_ZN6duckdb8Relation6DeleteERKNSt7__cxx1112basic_stringIcSt11char_traitsIcESaIcEEE, ptr @_ZN6duckdb8Relation22InheritsColumnBindingsEv, ptr @_ZN6duckdb8Relation13ChildRelationEv] }, align 8
@.str.25 = private unnamed_addr constant [55 x i8] c"Aliases list length must match expression list length!\00", align 1
@_ZTVN10__cxxabiv120__si_class_type_infoE = external global [0 x ptr]
@_ZTSN6duckdb15ParserExceptionE = linkonce_odr constant [27 x i8] c"N6duckdb15ParserExceptionE\00", comdat, align 1
@_ZTSN6duckdb17StandardExceptionE = linkonce_odr constant [29 x i8] c"N6duckdb17StandardExceptionE\00", comdat, align 1
@_ZTIN6duckdb17StandardExceptionE = linkonce_odr constant { ptr, ptr, ptr } { ptr getelementptr inbounds (ptr, ptr @_ZTVN10__cxxabiv120__si_class_type_infoE, i64 2), ptr @_ZTSN6duckdb17StandardExceptionE, ptr @_ZTIN6duckdb9ExceptionE }, comdat, align 8
@_ZTIN6duckdb15ParserExceptionE = linkonce_odr constant { ptr, ptr, ptr } { ptr getelementptr inbounds (ptr, ptr @_ZTVN10__cxxabiv120__si_class_type_infoE, i64 2), ptr @_ZTSN6duckdb15ParserExceptionE, ptr @_ZTIN6duckdb17StandardExceptionE }, comdat, align 8
@.str.26 = private unnamed_addr constant [13 x i8] c"Projection [\00", align 1
@.str.27 = private unnamed_addr constant [5 x i8] c" as \00", align 1
@_ZTVN6duckdb13QueryRelationE = unnamed_addr constant { [15 x ptr] } { [15 x ptr] [ptr null, ptr @_ZTIN6duckdb13QueryRelationE, ptr @_ZN6duckdb13QueryRelationD1Ev, ptr @_ZN6duckdb13QueryRelationD0Ev, ptr @_ZN6duckdb13QueryRelation7ColumnsEv, ptr @_ZN6duckdb13QueryRelation12GetQueryNodeEv, ptr @_ZN6duckdb8Relation4BindERNS_6BinderE, ptr @_ZN6duckdb13QueryRelation8GetAliasB5cxx11Ev, ptr @_ZN6duckdb13QueryRelation8ToStringB5cxx11Em, ptr @_ZN6duckdb13QueryRelation11GetTableRefEv, ptr @_ZN6duckdb8Relation10IsReadOnlyEv, ptr @_ZN6duckdb8Relation6UpdateERKNSt7__cxx1112basic_stringIcSt11char_traitsIcESaIcEEES8_, ptr @_ZN6duckdb8Relation6DeleteERKNSt7__cxx1112basic_stringIcSt11char_traitsIcESaIcEEE, ptr @_ZN6duckdb8Relation22InheritsColumnBindingsEv, ptr @_ZN6duckdb8Relation13ChildRelationEv] }, align 8
@.str.28 = private unnamed_addr constant [9 x i8] c"Subquery\00", align 1
@_ZStL8__ioinit = internal global %"class.std::ios_base::Init" zeroinitializer, align 1
@__dso_handle = external hidden global i8
@.str.30 = private unnamed_addr constant [14 x i8] c"read_csv_auto\00", align 1
@_ZTVN6duckdb15ReadCSVRelationE = unnamed_addr constant { [15 x ptr] } { [15 x ptr] [ptr null, ptr @_ZTIN6duckdb15ReadCSVRelationE, ptr @_ZN6duckdb15ReadCSVRelationD2Ev, ptr @_ZN6duckdb15ReadCSVRelationD0Ev, ptr @_ZN6duckdb21TableFunctionRelation7ColumnsEv, ptr @_ZN6duckdb21TableFunctionRelation12GetQueryNodeEv, ptr @_ZN6duckdb8Relation4BindERNS_6BinderE, ptr @_ZN6duckdb15ReadCSVRelation8GetAliasB5cxx11Ev, ptr @_ZN6duckdb21TableFunctionRelation8ToStringB5cxx11Em, ptr @_ZN6duckdb21TableFunctionRelation11GetTableRefEv, ptr @_ZN6duckdb8Relation10IsReadOnlyEv, ptr @_ZN6duckdb8Relation6UpdateERKNSt7__cxx1112basic_stringIcSt11char_traitsIcESaIcEEES8_, ptr @_ZN6duckdb8Relation6DeleteERKNSt7__cxx1112basic_stringIcSt11char_traitsIcESaIcEEE, ptr @_ZN6duckdb8Relation22InheritsColumnBindingsEv, ptr @_ZN6duckdb8Relation13ChildRelationEv] }, align 8
@.str.31 = private unnamed_addr constant [4 x i8] c"CSV\00", align 1
@.str.32 = private unnamed_addr constant [12 x i8] c"auto_detect\00", align 1
@.str.33 = private unnamed_addr constant [8 x i8] c"columns\00", align 1
@.str.34 = private unnamed_addr constant [15 x i8] c"read_json_auto\00", align 1
@.str.35 = private unnamed_addr constant [10 x i8] c"read_json\00", align 1
@_ZTVN6duckdb16ReadJSONRelationE = unnamed_addr constant { [15 x ptr] } { [15 x ptr] [ptr null, ptr @_ZTIN6duckdb16ReadJSONRelationE, ptr @_ZN6duckdb16ReadJSONRelationD2Ev, ptr @_ZN6duckdb16ReadJSONRelationD0Ev, ptr @_ZN6duckdb21TableFunctionRelation7ColumnsEv, ptr @_ZN6duckdb21TableFunctionRelation12GetQueryNodeEv, ptr @_ZN6duckdb8Relation4BindERNS_6BinderE, ptr @_ZN6duckdb16ReadJSONRelation8GetAliasB5cxx11Ev, ptr @_ZN6duckdb21TableFunctionRelation8ToStringB5cxx11Em, ptr @_ZN6duckdb21TableFunctionRelation11GetTableRefEv, ptr @_ZN6duckdb8Relation10IsReadOnlyEv, ptr @_ZN6duckdb8Relation6UpdateERKNSt7__cxx1112basic_stringIcSt11char_traitsIcESaIcEEES8_, ptr @_ZN6duckdb8Relation6DeleteERKNSt7__cxx1112basic_stringIcSt11char_traitsIcESaIcEEE, ptr @_ZN6duckdb8Relation22InheritsColumnBindingsEv, ptr @_ZN6duckdb8Relation13ChildRelationEv] }, align 8
@_ZTVN6duckdb13SetOpRelationE = unnamed_addr constant { [15 x ptr] } { [15 x ptr] [ptr null, ptr @_ZTIN6duckdb13SetOpRelationE, ptr @_ZN6duckdb13SetOpRelationD2Ev, ptr @_ZN6duckdb13SetOpRelationD0Ev, ptr @_ZN6duckdb13SetOpRelation7ColumnsEv, ptr @_ZN6duckdb13SetOpRelation12GetQueryNodeEv, ptr @_ZN6duckdb8Relation4BindERNS_6BinderE, ptr @_ZN6duckdb13SetOpRelation8GetAliasB5cxx11Ev, ptr @_ZN6duckdb13SetOpRelation8ToStringB5cxx11Em, ptr @_ZN6duckdb8Relation11GetTableRefEv, ptr @_ZN6duckdb8Relation10IsReadOnlyEv, ptr @_ZN6duckdb8Relation6UpdateERKNSt7__cxx1112basic_stringIcSt11char_traitsIcESaIcEEES8_, ptr @_ZN6duckdb8Relation6DeleteERKNSt7__cxx1112basic_stringIcSt11char_traitsIcESaIcEEE, ptr @_ZN6duckdb8Relation22InheritsColumnBindingsEv, ptr @_ZN6duckdb8Relation13ChildRelationEv] }, align 8
@.str.36 = private unnamed_addr constant [6 x i8] c"Union\00", align 1
@.str.37 = private unnamed_addr constant [7 x i8] c"Except\00", align 1
@.str.38 = private unnamed_addr constant [10 x i8] c"Intersect\00", align 1
@.str.39 = private unnamed_addr constant [19 x i8] c"Unknown setop type\00", align 1
@_ZTSN6duckdb17InternalExceptionE = linkonce_odr constant [29 x i8] c"N6duckdb17InternalExceptionE\00", comdat, align 1
@_ZTSN6duckdb14FatalExceptionE = linkonce_odr constant [26 x i8] c"N6duckdb14FatalExceptionE\00", comdat, align 1
@_ZTIN6duckdb14FatalExceptionE = linkonce_odr constant { ptr, ptr, ptr } { ptr getelementptr inbounds (ptr, ptr @_ZTVN10__cxxabiv120__si_class_type_infoE, i64 2), ptr @_ZTSN6duckdb14FatalExceptionE, ptr @_ZTIN6duckdb9ExceptionE }, comdat, align 8
@_ZTIN6duckdb17InternalExceptionE = linkonce_odr constant { ptr, ptr, ptr } { ptr getelementptr inbounds (ptr, ptr @_ZTVN10__cxxabiv120__si_class_type_infoE, i64 2), ptr @_ZTSN6duckdb17InternalExceptionE, ptr @_ZTIN6duckdb14FatalExceptionE }, comdat, align 8
@_ZTVN6duckdb16SubqueryRelationE = unnamed_addr constant { [15 x ptr] } { [15 x ptr] [ptr null, ptr @_ZTIN6duckdb16SubqueryRelationE, ptr @_ZN6duckdb16SubqueryRelationD2Ev, ptr @_ZN6duckdb16SubqueryRelationD0Ev, ptr @_ZN6duckdb16SubqueryRelation7ColumnsEv, ptr @_ZN6duckdb16SubqueryRelation12GetQueryNodeEv, ptr @_ZN6duckdb8Relation4BindERNS_6BinderE, ptr @_ZN6duckdb16SubqueryRelation8GetAliasB5cxx11Ev, ptr @_ZN6duckdb16SubqueryRelation8ToStringB5cxx11Em, ptr @_ZN6duckdb8Relation11GetTableRefEv, ptr @_ZN6duckdb8Relation10IsReadOnlyEv, ptr @_ZN6duckdb8Relation6UpdateERKNSt7__cxx1112basic_stringIcSt11char_traitsIcESaIcEEES8_, ptr @_ZN6duckdb8Relation6DeleteERKNSt7__cxx1112basic_stringIcSt11char_traitsIcESaIcEEE, ptr @_ZN6duckdb16SubqueryRelation22InheritsColumnBindingsEv, ptr @_ZN6duckdb16SubqueryRelation13ChildRelationEv] }, align 8
@_ZTVN6duckdb21TableFunctionRelationE = unnamed_addr constant { [15 x ptr] } { [15 x ptr] [ptr null, ptr @_ZTIN6duckdb21TableFunctionRelationE, ptr @_ZN6duckdb21TableFunctionRelationD2Ev, ptr @_ZN6duckdb21TableFunctionRelationD0Ev, ptr @_ZN6duckdb21TableFunctionRelation7ColumnsEv, ptr @_ZN6duckdb21TableFunctionRelation12GetQueryNodeEv, ptr @_ZN6duckdb8Relation4BindERNS_6BinderE, ptr @_ZN6duckdb21TableFunctionRelation8GetAliasB5cxx11Ev, ptr @_ZN6duckdb21TableFunctionRelation8ToStringB5cxx11Em, ptr @_ZN6duckdb21TableFunctionRelation11GetTableRefEv, ptr @_ZN6duckdb8Relation10IsReadOnlyEv, ptr @_ZN6duckdb8Relation6UpdateERKNSt7__cxx1112basic_stringIcSt11char_traitsIcESaIcEEES8_, ptr @_ZN6duckdb8Relation6DeleteERKNSt7__cxx1112basic_stringIcSt11char_traitsIcESaIcEEE, ptr @_ZN6duckdb8Relation22InheritsColumnBindingsEv, ptr @_ZN6duckdb8Relation13ChildRelationEv] }, align 8
@.str.40 = private unnamed_addr constant [2 x i8] c"(\00", align 1
@.str.41 = private unnamed_addr constant [2 x i8] c")\00", align 1
@_ZTVN6duckdb13TableRelationE = unnamed_addr constant { [15 x ptr] } { [15 x ptr] [ptr null, ptr @_ZTIN6duckdb13TableRelationE, ptr @_ZN6duckdb13TableRelationD2Ev, ptr @_ZN6duckdb13TableRelationD0Ev, ptr @_ZN6duckdb13TableRelation7ColumnsEv, ptr @_ZN6duckdb13TableRelation12GetQueryNodeEv, ptr @_ZN6duckdb8Relation4BindERNS_6BinderE, ptr @_ZN6duckdb13TableRelation8GetAliasB5cxx11Ev, ptr @_ZN6duckdb13TableRelation8ToStringB5cxx11Em, ptr @_ZN6duckdb13TableRelation11GetTableRefEv, ptr @_ZN6duckdb8Relation10IsReadOnlyEv, ptr @_ZN6duckdb13TableRelation6UpdateERKNSt7__cxx1112basic_stringIcSt11char_traitsIcESaIcEEES8_, ptr @_ZN6duckdb13TableRelation6DeleteERKNSt7__cxx1112basic_stringIcSt11char_traitsIcESaIcEEE, ptr @_ZN6duckdb8Relation22InheritsColumnBindingsEv, ptr @_ZN6duckdb8Relation13ChildRelationEv] }, align 8
@.str.42 = private unnamed_addr constant [13 x i8] c"Scan Table [\00", align 1
@.str.43 = private unnamed_addr constant [2 x i8] c"]\00", align 1
@_ZTVN6duckdb13ValueRelationE = unnamed_addr constant { [15 x ptr] } { [15 x ptr] [ptr null, ptr @_ZTIN6duckdb13ValueRelationE, ptr @_ZN6duckdb13ValueRelationD2Ev, ptr @_ZN6duckdb13ValueRelationD0Ev, ptr @_ZN6duckdb13ValueRelation7ColumnsEv, ptr @_ZN6duckdb13ValueRelation12GetQueryNodeEv, ptr @_ZN6duckdb8Relation4BindERNS_6BinderE, ptr @_ZN6duckdb13ValueRelation8GetAliasB5cxx11Ev, ptr @_ZN6duckdb13ValueRelation8ToStringB5cxx11Em, ptr @_ZN6duckdb13ValueRelation11GetTableRefEv, ptr @_ZN6duckdb8Relation10IsReadOnlyEv, ptr @_ZN6duckdb8Relation6UpdateERKNSt7__cxx1112basic_stringIcSt11char_traitsIcESaIcEEES8_, ptr @_ZN6duckdb8Relation6DeleteERKNSt7__cxx1112basic_stringIcSt11char_traitsIcESaIcEEE, ptr @_ZN6duckdb8Relation22InheritsColumnBindingsEv, ptr @_ZN6duckdb8Relation13ChildRelationEv] }, align 8
@.str.44 = private unnamed_addr constant [8 x i8] c"Values \00", align 1
@.str.45 = private unnamed_addr constant [4 x i8] c", (\00", align 1
@.str.46 = private unnamed_addr constant [1 x i8] zeroinitializer, align 1
@_ZTVN6duckdb12ViewRelationE = unnamed_addr constant { [15 x ptr] } { [15 x ptr] [ptr null, ptr @_ZTIN6duckdb12ViewRelationE, ptr @_ZN6duckdb12ViewRelationD2Ev, ptr @_ZN6duckdb12ViewRelationD0Ev, ptr @_ZN6duckdb12ViewRelation7ColumnsEv, ptr @_ZN6duckdb12ViewRelation12GetQueryNodeEv, ptr @_ZN6duckdb8Relation4BindERNS_6BinderE, ptr @_ZN6duckdb12ViewRelation8GetAliasB5cxx11Ev, ptr @_ZN6duckdb12ViewRelation8ToStringB5cxx11Em, ptr @_ZN6duckdb12ViewRelation11GetTableRefEv, ptr @_ZN6duckdb8Relation10IsReadOnlyEv, ptr @_ZN6duckdb8Relation6UpdateERKNSt7__cxx1112basic_stringIcSt11char_traitsIcESaIcEEES8_, ptr @_ZN6duckdb8Relation6DeleteERKNSt7__cxx1112basic_stringIcSt11char_traitsIcESaIcEEE, ptr @_ZN6duckdb8Relation22InheritsColumnBindingsEv, ptr @_ZN6duckdb8Relation13ChildRelationEv] }, align 8
@.str.47 = private unnamed_addr constant [7 x i8] c"View [\00", align 1
@_ZTVN6duckdb20WriteParquetRelationE = unnamed_addr constant { [15 x ptr] } { [15 x ptr] [ptr null, ptr @_ZTIN6duckdb20WriteParquetRelationE, ptr @_ZN6duckdb20WriteParquetRelationD2Ev, ptr @_ZN6duckdb20WriteParquetRelationD0Ev, ptr @_ZN6duckdb20WriteParquetRelation7ColumnsEv, ptr @_ZN6duckdb8Relation12GetQueryNodeEv, ptr @_ZN6duckdb20WriteParquetRelation4BindERNS_6BinderE, ptr @_ZN6duckdb8Relation8GetAliasB5cxx11Ev, ptr @_ZN6duckdb20WriteParquetRelation8ToStringB5cxx11Em, ptr @_ZN6duckdb8Relation11GetTableRefEv, ptr @_ZN6duckdb20WriteParquetRelation10IsReadOnlyEv, ptr @_ZN6duckdb8Relation6UpdateERKNSt7__cxx1112basic_stringIcSt11char_traitsIcESaIcEEES8_, ptr @_ZN6duckdb8Relation6DeleteERKNSt7__cxx1112basic_stringIcSt11char_traitsIcESaIcEEE, ptr @_ZN6duckdb8Relation22InheritsColumnBindingsEv, ptr @_ZN6duckdb8Relation13ChildRelationEv] }, align 8
@.str.48 = private unnamed_addr constant [8 x i8] c"parquet\00", align 1
@.str.49 = private unnamed_addr constant [19 x i8] c"Write To Parquet [\00", align 1
@_ZTVN6duckdb16WriteCSVRelationE = unnamed_addr constant { [15 x ptr] } { [15 x ptr] [ptr null, ptr @_ZTIN6duckdb16WriteCSVRelationE, ptr @_ZN6duckdb16WriteCSVRelationD2Ev, ptr @_ZN6duckdb16WriteCSVRelationD0Ev, ptr @_ZN6duckdb16WriteCSVRelation7ColumnsEv, ptr @_ZN6duckdb8Relation12GetQueryNodeEv, ptr @_ZN6duckdb16WriteCSVRelation4BindERNS_6BinderE, ptr @_ZN6duckdb8Relation8GetAliasB5cxx11Ev, ptr @_ZN6duckdb16WriteCSVRelation8ToStringB5cxx11Em, ptr @_ZN6duckdb8Relation11GetTableRefEv, ptr @_ZN6duckdb16WriteCSVRelation10IsReadOnlyEv, ptr @_ZN6duckdb8Relation6UpdateERKNSt7__cxx1112basic_stringIcSt11char_traitsIcESaIcEEES8_, ptr @_ZN6duckdb8Relation6DeleteERKNSt7__cxx1112basic_stringIcSt11char_traitsIcESaIcEEE, ptr @_ZN6duckdb8Relation22InheritsColumnBindingsEv, ptr @_ZN6duckdb8Relation13ChildRelationEv] }, align 8
@.str.50 = private unnamed_addr constant [4 x i8] c"csv\00", align 1
@.str.51 = private unnamed_addr constant [15 x i8] c"Write To CSV [\00", align 1
@_ZTSN6duckdb17AggregateRelationE = constant [29 x i8] c"N6duckdb17AggregateRelationE\00", align 1
@_ZTIN6duckdb8RelationE = external constant ptr
@_ZTIN6duckdb17AggregateRelationE = constant { ptr, ptr, ptr } { ptr getelementptr inbounds (ptr, ptr @_ZTVN10__cxxabiv120__si_class_type_infoE, i64 2), ptr @_ZTSN6duckdb17AggregateRelationE, ptr @_ZTIN6duckdb8RelationE }, align 8
@_ZTSN6duckdb19CreateTableRelationE = constant [31 x i8] c"N6duckdb19CreateTableRelationE\00", align 1
@_ZTIN6duckdb19CreateTableRelationE = constant { ptr, ptr, ptr } { ptr getelementptr inbounds (ptr, ptr @_ZTVN10__cxxabiv120__si_class_type_infoE, i64 2), ptr @_ZTSN6duckdb19CreateTableRelationE, ptr @_ZTIN6duckdb8RelationE }, align 8
@_ZTSN6duckdb18CreateViewRelationE = constant [30 x i8] c"N6duckdb18CreateViewRelationE\00", align 1
@_ZTIN6duckdb18CreateViewRelationE = constant { ptr, ptr, ptr } { ptr getelementptr inbounds (ptr, ptr @_ZTVN10__cxxabiv120__si_class_type_infoE, i64 2), ptr @_ZTSN6duckdb18CreateViewRelationE, ptr @_ZTIN6duckdb8RelationE }, align 8
@_ZTSN6duckdb20CrossProductRelationE = constant [32 x i8] c"N6duckdb20CrossProductRelationE\00", align 1
@_ZTIN6duckdb20CrossProductRelationE = constant { ptr, ptr, ptr } { ptr getelementptr inbounds (ptr, ptr @_ZTVN10__cxxabiv120__si_class_type_infoE, i64 2), ptr @_ZTSN6duckdb20CrossProductRelationE, ptr @_ZTIN6duckdb8RelationE }, align 8
@_ZTSN6duckdb14DeleteRelationE = constant [26 x i8] c"N6duckdb14DeleteRelationE\00", align 1
@_ZTIN6duckdb14DeleteRelationE = constant { ptr, ptr, ptr } { ptr getelementptr inbounds (ptr, ptr @_ZTVN10__cxxabiv120__si_class_type_infoE, i64 2), ptr @_ZTSN6duckdb14DeleteRelationE, ptr @_ZTIN6duckdb8RelationE }, align 8
@_ZTSN6duckdb16DistinctRelationE = constant [28 x i8] c"N6duckdb16DistinctRelationE\00", align 1
@_ZTIN6duckdb16DistinctRelationE = constant { ptr, ptr, ptr } { ptr getelementptr inbounds (ptr, ptr @_ZTVN10__cxxabiv120__si_class_type_infoE, i64 2), ptr @_ZTSN6duckdb16DistinctRelationE, ptr @_ZTIN6duckdb8RelationE }, align 8
@_ZTSN6duckdb15ExplainRelationE = constant [27 x i8] c"N6duckdb15ExplainRelationE\00", align 1
@_ZTIN6duckdb15ExplainRelationE = constant { ptr, ptr, ptr } { ptr getelementptr inbounds (ptr, ptr @_ZTVN10__cxxabiv120__si_class_type_infoE, i64 2), ptr @_ZTSN6duckdb15ExplainRelationE, ptr @_ZTIN6duckdb8RelationE }, align 8
@_ZTSN6duckdb14FilterRelationE = constant [26 x i8] c"N6duckdb14FilterRelationE\00", align 1
@_ZTIN6duckdb14FilterRelationE = constant { ptr, ptr, ptr } { ptr getelementptr inbounds (ptr, ptr @_ZTVN10__cxxabiv120__si_class_type_infoE, i64 2), ptr @_ZTSN6duckdb14FilterRelationE, ptr @_ZTIN6duckdb8RelationE }, align 8
@_ZTSN6duckdb14InsertRelationE = constant [26 x i8] c"N6duckdb14InsertRelationE\00", align 1
@_ZTIN6duckdb14InsertRelationE = constant { ptr, ptr, ptr } { ptr getelementptr inbounds (ptr, ptr @_ZTVN10__cxxabiv120__si_class_type_infoE, i64 2), ptr @_ZTSN6duckdb14InsertRelationE, ptr @_ZTIN6duckdb8RelationE }, align 8
@_ZTSN6duckdb12JoinRelationE = constant [24 x i8] c"N6duckdb12JoinRelationE\00", align 1
@_ZTIN6duckdb12JoinRelationE = constant { ptr, ptr, ptr } { ptr getelementptr inbounds (ptr, ptr @_ZTVN10__cxxabiv120__si_class_type_infoE, i64 2), ptr @_ZTSN6duckdb12JoinRelationE, ptr @_ZTIN6duckdb8RelationE }, align 8
@_ZTSN6duckdb13LimitRelationE = constant [25 x i8] c"N6duckdb13LimitRelationE\00", align 1
@_ZTIN6duckdb13LimitRelationE = constant { ptr, ptr, ptr } { ptr getelementptr inbounds (ptr, ptr @_ZTVN10__cxxabiv120__si_class_type_infoE, i64 2), ptr @_ZTSN6duckdb13LimitRelationE, ptr @_ZTIN6duckdb8RelationE }, align 8
@_ZTSN6duckdb13OrderRelationE = constant [25 x i8] c"N6duckdb13OrderRelationE\00", align 1
@_ZTIN6duckdb13OrderRelationE = constant { ptr, ptr, ptr } { ptr getelementptr inbounds (ptr, ptr @_ZTVN10__cxxabiv120__si_class_type_infoE, i64 2), ptr @_ZTSN6duckdb13OrderRelationE, ptr @_ZTIN6duckdb8RelationE }, align 8
@_ZTSN6duckdb14UpdateRelationE = constant [26 x i8] c"N6duckdb14UpdateRelationE\00", align 1
@_ZTIN6duckdb14UpdateRelationE = constant { ptr, ptr, ptr } { ptr getelementptr inbounds (ptr, ptr @_ZTVN10__cxxabiv120__si_class_type_infoE, i64 2), ptr @_ZTSN6duckdb14UpdateRelationE, ptr @_ZTIN6duckdb8RelationE }, align 8
@_ZTSN6duckdb18ProjectionRelationE = constant [30 x i8] c"N6duckdb18ProjectionRelationE\00", align 1
@_ZTIN6duckdb18ProjectionRelationE = constant { ptr, ptr, ptr } { ptr getelementptr inbounds (ptr, ptr @_ZTVN10__cxxabiv120__si_class_type_infoE, i64 2), ptr @_ZTSN6duckdb18ProjectionRelationE, ptr @_ZTIN6duckdb8RelationE }, align 8
@_ZTSN6duckdb13QueryRelationE = constant [25 x i8] c"N6duckdb13QueryRelationE\00", align 1
@_ZTIN6duckdb13QueryRelationE = constant { ptr, ptr, ptr } { ptr getelementptr inbounds (ptr, ptr @_ZTVN10__cxxabiv120__si_class_type_infoE, i64 2), ptr @_ZTSN6duckdb13QueryRelationE, ptr @_ZTIN6duckdb8RelationE }, align 8
@_ZTSN6duckdb21TableFunctionRelationE = constant [33 x i8] c"N6duckdb21TableFunctionRelationE\00", align 1
@_ZTIN6duckdb21TableFunctionRelationE = constant { ptr, ptr, ptr } { ptr getelementptr inbounds (ptr, ptr @_ZTVN10__cxxabiv120__si_class_type_infoE, i64 2), ptr @_ZTSN6duckdb21TableFunctionRelationE, ptr @_ZTIN6duckdb8RelationE }, align 8
@_ZTSN6duckdb15ReadCSVRelationE = constant [27 x i8] c"N6duckdb15ReadCSVRelationE\00", align 1
@_ZTIN6duckdb15ReadCSVRelationE = constant { ptr, ptr, ptr } { ptr getelementptr inbounds (ptr, ptr @_ZTVN10__cxxabiv120__si_class_type_infoE, i64 2), ptr @_ZTSN6duckdb15ReadCSVRelationE, ptr @_ZTIN6duckdb21TableFunctionRelationE }, align 8
@_ZTSN6duckdb16ReadJSONRelationE = constant [28 x i8] c"N6duckdb16ReadJSONRelationE\00", align 1
@_ZTIN6duckdb16ReadJSONRelationE = constant { ptr, ptr, ptr } { ptr getelementptr inbounds (ptr, ptr @_ZTVN10__cxxabiv120__si_class_type_infoE, i64 2), ptr @_ZTSN6duckdb16ReadJSONRelationE, ptr @_ZTIN6duckdb21TableFunctionRelationE }, align 8
@_ZTSN6duckdb13SetOpRelationE = constant [25 x i8] c"N6duckdb13SetOpRelationE\00", align 1
@_ZTIN6duckdb13SetOpRelationE = constant { ptr, ptr, ptr } { ptr getelementptr inbounds (ptr, ptr @_ZTVN10__cxxabiv120__si_class_type_infoE, i64 2), ptr @_ZTSN6duckdb13SetOpRelationE, ptr @_ZTIN6duckdb8RelationE }, align 8
@_ZTSN6duckdb16SubqueryRelationE = constant [28 x i8] c"N6duckdb16SubqueryRelationE\00", align 1
@_ZTIN6duckdb16SubqueryRelationE = constant { ptr, ptr, ptr } { ptr getelementptr inbounds (ptr, ptr @_ZTVN10__cxxabiv120__si_class_type_infoE, i64 2), ptr @_ZTSN6duckdb16SubqueryRelationE, ptr @_ZTIN6duckdb8RelationE }, align 8
@_ZTSN6duckdb13TableRelationE = constant [25 x i8] c"N6duckdb13TableRelationE\00", align 1
@_ZTIN6duckdb13TableRelationE = constant { ptr, ptr, ptr } { ptr getelementptr inbounds (ptr, ptr @_ZTVN10__cxxabiv120__si_class_type_infoE, i64 2), ptr @_ZTSN6duckdb13TableRelationE, ptr @_ZTIN6duckdb8RelationE }, align 8
@_ZTSN6duckdb13ValueRelationE = constant [25 x i8] c"N6duckdb13ValueRelationE\00", align 1
@_ZTIN6duckdb13ValueRelationE = constant { ptr, ptr, ptr } { ptr getelementptr inbounds (ptr, ptr @_ZTVN10__cxxabiv120__si_class_type_infoE, i64 2), ptr @_ZTSN6duckdb13ValueRelationE, ptr @_ZTIN6duckdb8RelationE }, align 8
@_ZTSN6duckdb12ViewRelationE = constant [24 x i8] c"N6duckdb12ViewRelationE\00", align 1
@_ZTIN6duckdb12ViewRelationE = constant { ptr, ptr, ptr } { ptr getelementptr inbounds (ptr, ptr @_ZTVN10__cxxabiv120__si_class_type_infoE, i64 2), ptr @_ZTSN6duckdb12ViewRelationE, ptr @_ZTIN6duckdb8RelationE }, align 8
@_ZTSN6duckdb20WriteParquetRelationE = constant [32 x i8] c"N6duckdb20WriteParquetRelationE\00", align 1
@_ZTIN6duckdb20WriteParquetRelationE = constant { ptr, ptr, ptr } { ptr getelementptr inbounds (ptr, ptr @_ZTVN10__cxxabiv120__si_class_type_infoE, i64 2), ptr @_ZTSN6duckdb20WriteParquetRelationE, ptr @_ZTIN6duckdb8RelationE }, align 8
@_ZTSN6duckdb16WriteCSVRelationE = constant [28 x i8] c"N6duckdb16WriteCSVRelationE\00", align 1
@_ZTIN6duckdb16WriteCSVRelationE = constant { ptr, ptr, ptr } { ptr getelementptr inbounds (ptr, ptr @_ZTVN10__cxxabiv120__si_class_type_infoE, i64 2), ptr @_ZTSN6duckdb16WriteCSVRelationE, ptr @_ZTIN6duckdb8RelationE }, align 8
@_ZTVN6duckdb8RelationE = external unnamed_addr constant { [15 x ptr] }, align 8
@__libc_single_threaded = external local_unnamed_addr global i8, align 1
@.str.52 = private unnamed_addr constant [35 x i8] c"Connection has already been closed\00", align 1
@_ZTSN6duckdb19ConnectionExceptionE = linkonce_odr constant [31 x i8] c"N6duckdb19ConnectionExceptionE\00", comdat, align 1
@_ZTIN6duckdb19ConnectionExceptionE = linkonce_odr constant { ptr, ptr, ptr } { ptr getelementptr inbounds (ptr, ptr @_ZTVN10__cxxabiv120__si_class_type_infoE, i64 2), ptr @_ZTSN6duckdb19ConnectionExceptionE, ptr @_ZTIN6duckdb17StandardExceptionE }, comdat, align 8
@_ZTVN6duckdb9ExceptionE = external unnamed_addr constant { [6 x ptr] }, align 8
@_ZTVN6duckdb15CreateStatementE = external unnamed_addr constant { [6 x ptr] }, align 8
@_ZTVN6duckdb12SQLStatementE = linkonce_odr unnamed_addr constant { [6 x ptr] } { [6 x ptr] [ptr null, ptr @_ZTIN6duckdb12SQLStatementE, ptr @_ZN6duckdb12SQLStatementD2Ev, ptr @_ZN6duckdb12SQLStatementD0Ev, ptr @_ZNK6duckdb12SQLStatement8ToStringB5cxx11Ev, ptr @__cxa_pure_virtual] }, comdat, align 8
@_ZTVN10__cxxabiv117__class_type_infoE = external global [0 x ptr]
@_ZTSN6duckdb12SQLStatementE = linkonce_odr constant [24 x i8] c"N6duckdb12SQLStatementE\00", comdat, align 1
@_ZTIN6duckdb12SQLStatementE = linkonce_odr constant { ptr, ptr } { ptr getelementptr inbounds (ptr, ptr @_ZTVN10__cxxabiv117__class_type_infoE, i64 2), ptr @_ZTSN6duckdb12SQLStatementE }, comdat, align 8
@.str.53 = private unnamed_addr constant [59 x i8] c"ToString not supported for this type of SQLStatement: '%s'\00", align 1
@.str.54 = private unnamed_addr constant [26 x i8] c"vector::_M_realloc_insert\00", align 1
@_ZTVN6duckdb15DeleteStatementE = external unnamed_addr constant { [6 x ptr] }, align 8
@_ZTVN6duckdb16ExplainStatementE = external unnamed_addr constant { [6 x ptr] }, align 8
@_ZTVN6duckdb15InsertStatementE = external unnamed_addr constant { [6 x ptr] }, align 8
@_ZZNSt8__detail18__to_chars_10_implImEEvPcjT_E8__digits = linkonce_odr local_unnamed_addr constant [201 x i8] c"00010203040506070809101112131415161718192021222324252627282930313233343536373839404142434445464748495051525354555657585960616263646566676869707172737475767778798081828384858687888990919293949596979899\00", comdat, align 16
@_ZTVN6duckdb15UpdateStatementE = external unnamed_addr constant { [6 x ptr] }, align 8
@.str.55 = private unnamed_addr constant [49 x i8] c"cannot create std::vector larger than max_size()\00", align 1
@_ZTVN6duckdb14StrpTimeFormatE = external unnamed_addr constant { [5 x ptr] }, align 8
@_ZTVN6duckdb13StrTimeFormatE = external unnamed_addr constant { [5 x ptr] }, align 8
@_ZTVN6duckdb14StrfTimeFormatE = external unnamed_addr constant { [5 x ptr] }, align 8
@.str.56 = private unnamed_addr constant [49 x i8] c"Expected a single expression as filter condition\00", align 1
@_ZTVN6duckdb13CopyStatementE = external unnamed_addr constant { [6 x ptr] }, align 8
@.str.57 = private unnamed_addr constant [21 x i8] c"basic_string::append\00", align 1
@.str.60 = private unnamed_addr constant [50 x i8] c"basic_string: construction from null is not valid\00", align 1
@.str.61 = private unnamed_addr constant [56 x i8] c"Attempted to access index %ld within vector of size %ld\00", align 1
@.str.62 = private unnamed_addr constant [16 x i8] c"vector::reserve\00", align 1
@.str.63 = private unnamed_addr constant [50 x i8] c"Attempted to dereference unique_ptr that is NULL!\00", align 1
@.str.64 = private unnamed_addr constant [61 x i8] c"Failed to cast query node to type - query node type mismatch\00", align 1
@_ZTVN6duckdb15SelectStatementE = external unnamed_addr constant { [6 x ptr] }, align 8
@_ZTVN6duckdb7JoinRefE = external unnamed_addr constant { [8 x ptr] }, align 8
@_ZTVN6duckdb12BaseTableRefE = external unnamed_addr constant { [8 x ptr] }, align 8
@_ZTVN6duckdb13LimitModifierE = external unnamed_addr constant { [7 x ptr] }, align 8
@_ZTVN6duckdb13OrderModifierE = external unnamed_addr constant { [7 x ptr] }, align 8
@_ZTVN6duckdb8CopyInfoE = external unnamed_addr constant { [5 x ptr] }, align 8
@_ZTVSt23_Sp_counted_ptr_inplaceIN6duckdb16CSVBufferManagerESaIvELN9__gnu_cxx12_Lock_policyE2EE = linkonce_odr unnamed_addr constant { [7 x ptr] } { [7 x ptr] [ptr null, ptr @_ZTISt23_Sp_counted_ptr_inplaceIN6duckdb16CSVBufferManagerESaIvELN9__gnu_cxx12_Lock_policyE2EE, ptr @_ZNSt16_Sp_counted_baseILN9__gnu_cxx12_Lock_policyE2EED2Ev, ptr @_ZNSt23_Sp_counted_ptr_inplaceIN6duckdb16CSVBufferManagerESaIvELN9__gnu_cxx12_Lock_policyE2EED0Ev, ptr @_ZNSt23_Sp_counted_ptr_inplaceIN6duckdb16CSVBufferManagerESaIvELN9__gnu_cxx12_Lock_policyE2EE10_M_disposeEv, ptr @_ZNSt23_Sp_counted_ptr_inplaceIN6duckdb16CSVBufferManagerESaIvELN9__gnu_cxx12_Lock_policyE2EE10_M_destroyEv, ptr @_ZNSt23_Sp_counted_ptr_inplaceIN6duckdb16CSVBufferManagerESaIvELN9__gnu_cxx12_Lock_policyE2EE14_M_get_deleterERKSt9type_info] }, comdat, align 8
@_ZTSSt23_Sp_counted_ptr_inplaceIN6duckdb16CSVBufferManagerESaIvELN9__gnu_cxx12_Lock_policyE2EE = linkonce_odr constant [91 x i8] c"St23_Sp_counted_ptr_inplaceIN6duckdb16CSVBufferManagerESaIvELN9__gnu_cxx12_Lock_policyE2EE\00", comdat, align 1
@_ZTSSt16_Sp_counted_baseILN9__gnu_cxx12_Lock_policyE2EE = linkonce_odr constant [52 x i8] c"St16_Sp_counted_baseILN9__gnu_cxx12_Lock_policyE2EE\00", comdat, align 1
@_ZTSSt11_Mutex_baseILN9__gnu_cxx12_Lock_policyE2EE = linkonce_odr constant [47 x i8] c"St11_Mutex_baseILN9__gnu_cxx12_Lock_policyE2EE\00", comdat, align 1
@_ZTISt11_Mutex_baseILN9__gnu_cxx12_Lock_policyE2EE = linkonce_odr constant { ptr, ptr } { ptr getelementptr inbounds (ptr, ptr @_ZTVN10__cxxabiv117__class_type_infoE, i64 2), ptr @_ZTSSt11_Mutex_baseILN9__gnu_cxx12_Lock_policyE2EE }, comdat, align 8
@_ZTISt16_Sp_counted_baseILN9__gnu_cxx12_Lock_policyE2EE = linkonce_odr constant { ptr, ptr, ptr } { ptr getelementptr inbounds (ptr, ptr @_ZTVN10__cxxabiv120__si_class_type_infoE, i64 2), ptr @_ZTSSt16_Sp_counted_baseILN9__gnu_cxx12_Lock_policyE2EE, ptr @_ZTISt11_Mutex_baseILN9__gnu_cxx12_Lock_policyE2EE }, comdat, align 8
@_ZTISt23_Sp_counted_ptr_inplaceIN6duckdb16CSVBufferManagerESaIvELN9__gnu_cxx12_Lock_policyE2EE = linkonce_odr constant { ptr, ptr, ptr } { ptr getelementptr inbounds (ptr, ptr @_ZTVN10__cxxabiv120__si_class_type_infoE, i64 2), ptr @_ZTSSt23_Sp_counted_ptr_inplaceIN6duckdb16CSVBufferManagerESaIvELN9__gnu_cxx12_Lock_policyE2EE, ptr @_ZTISt16_Sp_counted_baseILN9__gnu_cxx12_Lock_policyE2EE }, comdat, align 8
@_ZTSSt19_Sp_make_shared_tag = linkonce_odr constant [24 x i8] c"St19_Sp_make_shared_tag\00", comdat, align 1
@_ZZNSt19_Sp_make_shared_tag5_S_tiEvE5__tag = linkonce_odr constant [16 x i8] zeroinitializer, comdat, align 8
@_ZStL19piecewise_construct = internal constant %"struct.std::piecewise_construct_t" zeroinitializer, align 1
@_ZTVN6duckdb16SetOperationNodeE = external unnamed_addr constant { [9 x ptr] }, align 8
@_ZTVN6duckdb9QueryNodeE = external unnamed_addr constant { [9 x ptr] }, align 8
@_ZTVN6duckdb16DistinctModifierE = external unnamed_addr constant { [7 x ptr] }, align 8
@_ZTVSt23_Sp_counted_ptr_inplaceIN6duckdb14UpdateRelationESaIvELN9__gnu_cxx12_Lock_policyE2EE = linkonce_odr unnamed_addr constant { [7 x ptr] } { [7 x ptr] [ptr null, ptr @_ZTISt23_Sp_counted_ptr_inplaceIN6duckdb14UpdateRelationESaIvELN9__gnu_cxx12_Lock_policyE2EE, ptr @_ZNSt16_Sp_counted_baseILN9__gnu_cxx12_Lock_policyE2EED2Ev, ptr @_ZNSt23_Sp_counted_ptr_inplaceIN6duckdb14UpdateRelationESaIvELN9__gnu_cxx12_Lock_policyE2EED0Ev, ptr @_ZNSt23_Sp_counted_ptr_inplaceIN6duckdb14UpdateRelationESaIvELN9__gnu_cxx12_Lock_policyE2EE10_M_disposeEv, ptr @_ZNSt23_Sp_counted_ptr_inplaceIN6duckdb14UpdateRelationESaIvELN9__gnu_cxx12_Lock_policyE2EE10_M_destroyEv, ptr @_ZNSt23_Sp_counted_ptr_inplaceIN6duckdb14UpdateRelationESaIvELN9__gnu_cxx12_Lock_policyE2EE14_M_get_deleterERKSt9type_info] }, comdat, align 8
@_ZTSSt23_Sp_counted_ptr_inplaceIN6duckdb14UpdateRelationESaIvELN9__gnu_cxx12_Lock_policyE2EE = linkonce_odr constant [89 x i8] c"St23_Sp_counted_ptr_inplaceIN6duckdb14UpdateRelationESaIvELN9__gnu_cxx12_Lock_policyE2EE\00", comdat, align 1
@_ZTISt23_Sp_counted_ptr_inplaceIN6duckdb14UpdateRelationESaIvELN9__gnu_cxx12_Lock_policyE2EE = linkonce_odr constant { ptr, ptr, ptr } { ptr getelementptr inbounds (ptr, ptr @_ZTVN10__cxxabiv120__si_class_type_infoE, i64 2), ptr @_ZTSSt23_Sp_counted_ptr_inplaceIN6duckdb14UpdateRelationESaIvELN9__gnu_cxx12_Lock_policyE2EE, ptr @_ZTISt16_Sp_counted_baseILN9__gnu_cxx12_Lock_policyE2EE }, comdat, align 8
@_ZTVSt23_Sp_counted_ptr_inplaceIN6duckdb14DeleteRelationESaIvELN9__gnu_cxx12_Lock_policyE2EE = linkonce_odr unnamed_addr constant { [7 x ptr] } { [7 x ptr] [ptr null, ptr @_ZTISt23_Sp_counted_ptr_inplaceIN6duckdb14DeleteRelationESaIvELN9__gnu_cxx12_Lock_policyE2EE, ptr @_ZNSt16_Sp_counted_baseILN9__gnu_cxx12_Lock_policyE2EED2Ev, ptr @_ZNSt23_Sp_counted_ptr_inplaceIN6duckdb14DeleteRelationESaIvELN9__gnu_cxx12_Lock_policyE2EED0Ev, ptr @_ZNSt23_Sp_counted_ptr_inplaceIN6duckdb14DeleteRelationESaIvELN9__gnu_cxx12_Lock_policyE2EE10_M_disposeEv, ptr @_ZNSt23_Sp_counted_ptr_inplaceIN6duckdb14DeleteRelationESaIvELN9__gnu_cxx12_Lock_policyE2EE10_M_destroyEv, ptr @_ZNSt23_Sp_counted_ptr_inplaceIN6duckdb14DeleteRelationESaIvELN9__gnu_cxx12_Lock_policyE2EE14_M_get_deleterERKSt9type_info] }, comdat, align 8
@_ZTSSt23_Sp_counted_ptr_inplaceIN6duckdb14DeleteRelationESaIvELN9__gnu_cxx12_Lock_policyE2EE = linkonce_odr constant [89 x i8] c"St23_Sp_counted_ptr_inplaceIN6duckdb14DeleteRelationESaIvELN9__gnu_cxx12_Lock_policyE2EE\00", comdat, align 1
@_ZTISt23_Sp_counted_ptr_inplaceIN6duckdb14DeleteRelationESaIvELN9__gnu_cxx12_Lock_policyE2EE = linkonce_odr constant { ptr, ptr, ptr } { ptr getelementptr inbounds (ptr, ptr @_ZTVN10__cxxabiv120__si_class_type_infoE, i64 2), ptr @_ZTSSt23_Sp_counted_ptr_inplaceIN6duckdb14DeleteRelationESaIvELN9__gnu_cxx12_Lock_policyE2EE, ptr @_ZTISt16_Sp_counted_baseILN9__gnu_cxx12_Lock_policyE2EE }, comdat, align 8
@_ZTVN6duckdb17ExpressionListRefE = external unnamed_addr constant { [8 x ptr] }, align 8
@llvm.global_ctors = appending global [1 x { i32, ptr, ptr }] [{ i32, ptr, ptr } { i32 65535, ptr @_GLOBAL__sub_I_ub_duckdb_main_relation.cpp, ptr null }]

@_ZN6duckdb17AggregateRelationC1ESt10shared_ptrINS_8RelationEENS_6vectorINS_10unique_ptrINS_16ParsedExpressionESt14default_deleteIS6_ELb1EEELb1EEE = unnamed_addr alias void (ptr, ptr, ptr), ptr @_ZN6duckdb17AggregateRelationC2ESt10shared_ptrINS_8RelationEENS_6vectorINS_10unique_ptrINS_16ParsedExpressionESt14default_deleteIS6_ELb1EEELb1EEE
@_ZN6duckdb17AggregateRelationC1ESt10shared_ptrINS_8RelationEENS_6vectorINS_10unique_ptrINS_16ParsedExpressionESt14default_deleteIS6_ELb1EEELb1EEENS_11GroupByNodeE = unnamed_addr alias void (ptr, ptr, ptr, ptr), ptr @_ZN6duckdb17AggregateRelationC2ESt10shared_ptrINS_8RelationEENS_6vectorINS_10unique_ptrINS_16ParsedExpressionESt14default_deleteIS6_ELb1EEELb1EEENS_11GroupByNodeE
@_ZN6duckdb17AggregateRelationC1ESt10shared_ptrINS_8RelationEENS_6vectorINS_10unique_ptrINS_16ParsedExpressionESt14default_deleteIS6_ELb1EEELb1EEESA_ = unnamed_addr alias void (ptr, ptr, ptr, ptr), ptr @_ZN6duckdb17AggregateRelationC2ESt10shared_ptrINS_8RelationEENS_6vectorINS_10unique_ptrINS_16ParsedExpressionESt14default_deleteIS6_ELb1EEELb1EEESA_
@_ZN6duckdb19CreateTableRelationC1ESt10shared_ptrINS_8RelationEENSt7__cxx1112basic_stringIcSt11char_traitsIcESaIcEEES9_ = unnamed_addr alias void (ptr, ptr, ptr, ptr), ptr @_ZN6duckdb19CreateTableRelationC2ESt10shared_ptrINS_8RelationEENSt7__cxx1112basic_stringIcSt11char_traitsIcESaIcEEES9_
@_ZN6duckdb18CreateViewRelationC1ESt10shared_ptrINS_8RelationEENSt7__cxx1112basic_stringIcSt11char_traitsIcESaIcEEEbb = unnamed_addr alias void (ptr, ptr, ptr, i1, i1), ptr @_ZN6duckdb18CreateViewRelationC2ESt10shared_ptrINS_8RelationEENSt7__cxx1112basic_stringIcSt11char_traitsIcESaIcEEEbb
@_ZN6duckdb18CreateViewRelationC1ESt10shared_ptrINS_8RelationEENSt7__cxx1112basic_stringIcSt11char_traitsIcESaIcEEES9_bb = unnamed_addr alias void (ptr, ptr, ptr, ptr, i1, i1), ptr @_ZN6duckdb18CreateViewRelationC2ESt10shared_ptrINS_8RelationEENSt7__cxx1112basic_stringIcSt11char_traitsIcESaIcEEES9_bb
@_ZN6duckdb20CrossProductRelationC1ESt10shared_ptrINS_8RelationEES3_NS_11JoinRefTypeE = unnamed_addr alias void (ptr, ptr, ptr, i8), ptr @_ZN6duckdb20CrossProductRelationC2ESt10shared_ptrINS_8RelationEES3_NS_11JoinRefTypeE
@_ZN6duckdb14DeleteRelationC1ERNS_20ClientContextWrapperENS_10unique_ptrINS_16ParsedExpressionESt14default_deleteIS4_ELb1EEENSt7__cxx1112basic_stringIcSt11char_traitsIcESaIcEEESD_ = unnamed_addr alias void (ptr, ptr, ptr, ptr, ptr), ptr @_ZN6duckdb14DeleteRelationC2ERNS_20ClientContextWrapperENS_10unique_ptrINS_16ParsedExpressionESt14default_deleteIS4_ELb1EEENSt7__cxx1112basic_stringIcSt11char_traitsIcESaIcEEESD_
@_ZN6duckdb16DistinctRelationC1ESt10shared_ptrINS_8RelationEE = unnamed_addr alias void (ptr, ptr), ptr @_ZN6duckdb16DistinctRelationC2ESt10shared_ptrINS_8RelationEE
@_ZN6duckdb15ExplainRelationC1ESt10shared_ptrINS_8RelationEENS_11ExplainTypeE = unnamed_addr alias void (ptr, ptr, i8), ptr @_ZN6duckdb15ExplainRelationC2ESt10shared_ptrINS_8RelationEENS_11ExplainTypeE
@_ZN6duckdb14FilterRelationC1ESt10shared_ptrINS_8RelationEENS_10unique_ptrINS_16ParsedExpressionESt14default_deleteIS5_ELb1EEE = unnamed_addr alias void (ptr, ptr, ptr), ptr @_ZN6duckdb14FilterRelationC2ESt10shared_ptrINS_8RelationEENS_10unique_ptrINS_16ParsedExpressionESt14default_deleteIS5_ELb1EEE
@_ZN6duckdb14InsertRelationC1ESt10shared_ptrINS_8RelationEENSt7__cxx1112basic_stringIcSt11char_traitsIcESaIcEEES9_ = unnamed_addr alias void (ptr, ptr, ptr, ptr), ptr @_ZN6duckdb14InsertRelationC2ESt10shared_ptrINS_8RelationEENSt7__cxx1112basic_stringIcSt11char_traitsIcESaIcEEES9_
@_ZN6duckdb12JoinRelationC1ESt10shared_ptrINS_8RelationEES3_NS_10unique_ptrINS_16ParsedExpressionESt14default_deleteIS5_ELb1EEENS_8JoinTypeENS_11JoinRefTypeE = unnamed_addr alias void (ptr, ptr, ptr, ptr, i8, i8), ptr @_ZN6duckdb12JoinRelationC2ESt10shared_ptrINS_8RelationEES3_NS_10unique_ptrINS_16ParsedExpressionESt14default_deleteIS5_ELb1EEENS_8JoinTypeENS_11JoinRefTypeE
@_ZN6duckdb12JoinRelationC1ESt10shared_ptrINS_8RelationEES3_NS_6vectorINSt7__cxx1112basic_stringIcSt11char_traitsIcESaIcEEELb1EEENS_8JoinTypeENS_11JoinRefTypeE = unnamed_addr alias void (ptr, ptr, ptr, ptr, i8, i8), ptr @_ZN6duckdb12JoinRelationC2ESt10shared_ptrINS_8RelationEES3_NS_6vectorINSt7__cxx1112basic_stringIcSt11char_traitsIcESaIcEEELb1EEENS_8JoinTypeENS_11JoinRefTypeE
@_ZN6duckdb13LimitRelationC1ESt10shared_ptrINS_8RelationEEll = unnamed_addr alias void (ptr, ptr, i64, i64), ptr @_ZN6duckdb13LimitRelationC2ESt10shared_ptrINS_8RelationEEll
@_ZN6duckdb13OrderRelationC1ESt10shared_ptrINS_8RelationEENS_6vectorINS_11OrderByNodeELb1EEE = unnamed_addr alias void (ptr, ptr, ptr), ptr @_ZN6duckdb13OrderRelationC2ESt10shared_ptrINS_8RelationEENS_6vectorINS_11OrderByNodeELb1EEE
@_ZN6duckdb14UpdateRelationC1ERNS_20ClientContextWrapperENS_10unique_ptrINS_16ParsedExpressionESt14default_deleteIS4_ELb1EEENSt7__cxx1112basic_stringIcSt11char_traitsIcESaIcEEESD_NS_6vectorISD_Lb1EEENSE_IS7_Lb1EEE = unnamed_addr alias void (ptr, ptr, ptr, ptr, ptr, ptr, ptr), ptr @_ZN6duckdb14UpdateRelationC2ERNS_20ClientContextWrapperENS_10unique_ptrINS_16ParsedExpressionESt14default_deleteIS4_ELb1EEENSt7__cxx1112basic_stringIcSt11char_traitsIcESaIcEEESD_NS_6vectorISD_Lb1EEENSE_IS7_Lb1EEE
@_ZN6duckdb18ProjectionRelationC1ESt10shared_ptrINS_8RelationEENS_6vectorINS_10unique_ptrINS_16ParsedExpressionESt14default_deleteIS6_ELb1EEELb1EEENS4_INSt7__cxx1112basic_stringIcSt11char_traitsIcESaIcEEELb1EEE = unnamed_addr alias void (ptr, ptr, ptr, ptr), ptr @_ZN6duckdb18ProjectionRelationC2ESt10shared_ptrINS_8RelationEENS_6vectorINS_10unique_ptrINS_16ParsedExpressionESt14default_deleteIS6_ELb1EEELb1EEENS4_INSt7__cxx1112basic_stringIcSt11char_traitsIcESaIcEEELb1EEE
@_ZN6duckdb13QueryRelationC1ERKSt10shared_ptrINS_13ClientContextEENS_10unique_ptrINS_15SelectStatementESt14default_deleteIS7_ELb1EEENSt7__cxx1112basic_stringIcSt11char_traitsIcESaIcEEE = unnamed_addr alias void (ptr, ptr, ptr, ptr), ptr @_ZN6duckdb13QueryRelationC2ERKSt10shared_ptrINS_13ClientContextEENS_10unique_ptrINS_15SelectStatementESt14default_deleteIS7_ELb1EEENSt7__cxx1112basic_stringIcSt11char_traitsIcESaIcEEE
@_ZN6duckdb13QueryRelationD1Ev = unnamed_addr alias void (ptr), ptr @_ZN6duckdb13QueryRelationD2Ev
@_ZN6duckdb15ReadCSVRelationC1ERKSt10shared_ptrINS_13ClientContextEERKNS_6vectorINSt7__cxx1112basic_stringIcSt11char_traitsIcESaIcEEELb1EEEOSt13unordered_mapISC_NS_5ValueENS_33CaseInsensitiveStringHashFunctionENS_29CaseInsensitiveStringEqualityESaISt4pairIKSC_SH_EEESC_ = unnamed_addr alias void (ptr, ptr, ptr, ptr, ptr), ptr @_ZN6duckdb15ReadCSVRelationC2ERKSt10shared_ptrINS_13ClientContextEERKNS_6vectorINSt7__cxx1112basic_stringIcSt11char_traitsIcESaIcEEELb1EEEOSt13unordered_mapISC_NS_5ValueENS_33CaseInsensitiveStringHashFunctionENS_29CaseInsensitiveStringEqualityESaISt4pairIKSC_SH_EEESC_
@_ZN6duckdb16ReadJSONRelationC1ERKSt10shared_ptrINS_13ClientContextEENSt7__cxx1112basic_stringIcSt11char_traitsIcESaIcEEESt13unordered_mapISB_NS_5ValueENS_33CaseInsensitiveStringHashFunctionENS_29CaseInsensitiveStringEqualityESaISt4pairIKSB_SD_EEEbSB_ = unnamed_addr alias void (ptr, ptr, ptr, ptr, i1, ptr), ptr @_ZN6duckdb16ReadJSONRelationC2ERKSt10shared_ptrINS_13ClientContextEENSt7__cxx1112basic_stringIcSt11char_traitsIcESaIcEEESt13unordered_mapISB_NS_5ValueENS_33CaseInsensitiveStringHashFunctionENS_29CaseInsensitiveStringEqualityESaISt4pairIKSB_SD_EEEbSB_
@_ZN6duckdb13SetOpRelationC1ESt10shared_ptrINS_8RelationEES3_NS_16SetOperationTypeEb = unnamed_addr alias void (ptr, ptr, ptr, i8, i1), ptr @_ZN6duckdb13SetOpRelationC2ESt10shared_ptrINS_8RelationEES3_NS_16SetOperationTypeEb
@_ZN6duckdb16SubqueryRelationC1ESt10shared_ptrINS_8RelationEENSt7__cxx1112basic_stringIcSt11char_traitsIcESaIcEEE = unnamed_addr alias void (ptr, ptr, ptr), ptr @_ZN6duckdb16SubqueryRelationC2ESt10shared_ptrINS_8RelationEENSt7__cxx1112basic_stringIcSt11char_traitsIcESaIcEEE
@_ZN6duckdb21TableFunctionRelationC1ERKSt10shared_ptrINS_13ClientContextEENSt7__cxx1112basic_stringIcSt11char_traitsIcESaIcEEENS_6vectorINS_5ValueELb1EEESt13unordered_mapISB_SD_NS_33CaseInsensitiveStringHashFunctionENS_29CaseInsensitiveStringEqualityESaISt4pairIKSB_SD_EEES1_INS_8RelationEEb = unnamed_addr alias void (ptr, ptr, ptr, ptr, ptr, ptr, i1), ptr @_ZN6duckdb21TableFunctionRelationC2ERKSt10shared_ptrINS_13ClientContextEENSt7__cxx1112basic_stringIcSt11char_traitsIcESaIcEEENS_6vectorINS_5ValueELb1EEESt13unordered_mapISB_SD_NS_33CaseInsensitiveStringHashFunctionENS_29CaseInsensitiveStringEqualityESaISt4pairIKSB_SD_EEES1_INS_8RelationEEb
@_ZN6duckdb21TableFunctionRelationC1ERKSt10shared_ptrINS_13ClientContextEENSt7__cxx1112basic_stringIcSt11char_traitsIcESaIcEEENS_6vectorINS_5ValueELb1EEES1_INS_8RelationEEb = unnamed_addr alias void (ptr, ptr, ptr, ptr, ptr, i1), ptr @_ZN6duckdb21TableFunctionRelationC2ERKSt10shared_ptrINS_13ClientContextEENSt7__cxx1112basic_stringIcSt11char_traitsIcESaIcEEENS_6vectorINS_5ValueELb1EEES1_INS_8RelationEEb
@_ZN6duckdb13TableRelationC1ERKSt10shared_ptrINS_13ClientContextEENS_10unique_ptrINS_16TableDescriptionESt14default_deleteIS7_ELb1EEE = unnamed_addr alias void (ptr, ptr, ptr), ptr @_ZN6duckdb13TableRelationC2ERKSt10shared_ptrINS_13ClientContextEENS_10unique_ptrINS_16TableDescriptionESt14default_deleteIS7_ELb1EEE
@_ZN6duckdb13ValueRelationC1ERKSt10shared_ptrINS_13ClientContextEERKNS_6vectorINS6_INS_5ValueELb1EEELb1EEENS6_INSt7__cxx1112basic_stringIcSt11char_traitsIcESaIcEEELb1EEESH_ = unnamed_addr alias void (ptr, ptr, ptr, ptr, ptr), ptr @_ZN6duckdb13ValueRelationC2ERKSt10shared_ptrINS_13ClientContextEERKNS_6vectorINS6_INS_5ValueELb1EEELb1EEENS6_INSt7__cxx1112basic_stringIcSt11char_traitsIcESaIcEEELb1EEESH_
@_ZN6duckdb13ValueRelationC1ERKSt10shared_ptrINS_13ClientContextEERKNSt7__cxx1112basic_stringIcSt11char_traitsIcESaIcEEENS_6vectorISB_Lb1EEESB_ = unnamed_addr alias void (ptr, ptr, ptr, ptr, ptr), ptr @_ZN6duckdb13ValueRelationC2ERKSt10shared_ptrINS_13ClientContextEERKNSt7__cxx1112basic_stringIcSt11char_traitsIcESaIcEEENS_6vectorISB_Lb1EEESB_
@_ZN6duckdb12ViewRelationC1ERKSt10shared_ptrINS_13ClientContextEENSt7__cxx1112basic_stringIcSt11char_traitsIcESaIcEEESB_ = unnamed_addr alias void (ptr, ptr, ptr, ptr), ptr @_ZN6duckdb12ViewRelationC2ERKSt10shared_ptrINS_13ClientContextEENSt7__cxx1112basic_stringIcSt11char_traitsIcESaIcEEESB_
@_ZN6duckdb20WriteParquetRelationC1ESt10shared_ptrINS_8RelationEENSt7__cxx1112basic_stringIcSt11char_traitsIcESaIcEEESt13unordered_mapIS9_NS_6vectorINS_5ValueELb1EEENS_33CaseInsensitiveStringHashFunctionENS_29CaseInsensitiveStringEqualityESaISt4pairIKS9_SD_EEE = unnamed_addr alias void (ptr, ptr, ptr, ptr), ptr @_ZN6duckdb20WriteParquetRelationC2ESt10shared_ptrINS_8RelationEENSt7__cxx1112basic_stringIcSt11char_traitsIcESaIcEEESt13unordered_mapIS9_NS_6vectorINS_5ValueELb1EEENS_33CaseInsensitiveStringHashFunctionENS_29CaseInsensitiveStringEqualityESaISt4pairIKS9_SD_EEE
@_ZN6duckdb16WriteCSVRelationC1ESt10shared_ptrINS_8RelationEENSt7__cxx1112basic_stringIcSt11char_traitsIcESaIcEEESt13unordered_mapIS9_NS_6vectorINS_5ValueELb1EEENS_33CaseInsensitiveStringHashFunctionENS_29CaseInsensitiveStringEqualityESaISt4pairIKS9_SD_EEE = unnamed_addr alias void (ptr, ptr, ptr, ptr), ptr @_ZN6duckdb16WriteCSVRelationC2ESt10shared_ptrINS_8RelationEENSt7__cxx1112basic_stringIcSt11char_traitsIcESaIcEEESt13unordered_mapIS9_NS_6vectorINS_5ValueELb1EEENS_33CaseInsensitiveStringHashFunctionENS_29CaseInsensitiveStringEqualityESaISt4pairIKS9_SD_EEE

; Function Attrs: mustprogress uwtable
define void @_ZN6duckdb17AggregateRelationC2ESt10shared_ptrINS_8RelationEENS_6vectorINS_10unique_ptrINS_16ParsedExpressionESt14default_deleteIS6_ELb1EEELb1EEE(ptr noundef nonnull align 8 dereferenceable(176) %this, ptr nocapture noundef %child_p, ptr nocapture noundef %parsed_expressions) unnamed_addr #0 align 2 personality ptr @__gxx_personality_v0 {
entry:
  %ref.tmp = alloca %"class.std::shared_ptr.83", align 8
  %0 = load ptr, ptr %child_p, align 8, !tbaa !3
  %context = getelementptr inbounds %"class.duckdb::Relation", ptr %0, i64 0, i32 2
  tail call void @_ZN6duckdb8RelationC2ERNS_20ClientContextWrapperENS_12RelationTypeE(ptr noundef nonnull align 8 dereferenceable(64) %this, ptr noundef nonnull align 8 dereferenceable(16) %context, i8 noundef zeroext 7)
  store ptr getelementptr inbounds ({ [15 x ptr] }, ptr @_ZTVN6duckdb17AggregateRelationE, i64 0, inrange i32 0, i64 2), ptr %this, align 8, !tbaa !9
  %expressions = getelementptr inbounds %"class.duckdb::AggregateRelation", ptr %this, i64 0, i32 1
  %1 = load <2 x ptr>, ptr %parsed_expressions, align 8, !tbaa !11
  store <2 x ptr> %1, ptr %expressions, align 8, !tbaa !11
  %_M_end_of_storage.i.i.i.i.i = getelementptr inbounds %"class.duckdb::AggregateRelation", ptr %this, i64 0, i32 1, i32 0, i32 0, i32 0, i32 0, i32 2
  %_M_end_of_storage4.i.i.i.i.i = getelementptr inbounds %"struct.std::_Vector_base<duckdb::unique_ptr<duckdb::ParsedExpression>, std::allocator<duckdb::unique_ptr<duckdb::ParsedExpression>>>::_Vector_impl_data", ptr %parsed_expressions, i64 0, i32 2
  %2 = load ptr, ptr %_M_end_of_storage4.i.i.i.i.i, align 8, !tbaa !12
  store ptr %2, ptr %_M_end_of_storage.i.i.i.i.i, align 8, !tbaa !12
  tail call void @llvm.memset.p0.i64(ptr noundef nonnull align 8 dereferenceable(24) %parsed_expressions, i8 0, i64 24, i1 false)
  %groups = getelementptr inbounds %"class.duckdb::AggregateRelation", ptr %this, i64 0, i32 2
  %columns = getelementptr inbounds %"class.duckdb::AggregateRelation", ptr %this, i64 0, i32 3
  %child = getelementptr inbounds %"class.duckdb::AggregateRelation", ptr %this, i64 0, i32 4
  tail call void @llvm.memset.p0.i64(ptr noundef nonnull align 8 dereferenceable(72) %groups, i8 0, i64 72, i1 false)
  %_M_refcount.i.i = getelementptr inbounds %"class.duckdb::AggregateRelation", ptr %this, i64 0, i32 4, i32 0, i32 1
  store ptr null, ptr %_M_refcount.i.i, align 8, !tbaa !14
  %_M_refcount4.i.i = getelementptr inbounds %"class.std::__shared_ptr", ptr %child_p, i64 0, i32 1
  %3 = load <2 x ptr>, ptr %child_p, align 8, !tbaa !11
  store ptr null, ptr %_M_refcount4.i.i, align 8, !tbaa !14
  store <2 x ptr> %3, ptr %child, align 8, !tbaa !11
  store ptr null, ptr %child_p, align 8, !tbaa !3
  call void @llvm.lifetime.start.p0(i64 16, ptr nonnull %ref.tmp) #24
  %context2 = getelementptr inbounds %"class.duckdb::Relation", ptr %this, i64 0, i32 2
  invoke void @_ZN6duckdb20ClientContextWrapper10GetContextEv(ptr nonnull sret(%"class.std::shared_ptr.83") align 8 %ref.tmp, ptr noundef nonnull align 8 dereferenceable(16) %context2)
          to label %invoke.cont unwind label %lpad

invoke.cont:                                      ; preds = %entry
  %4 = load ptr, ptr %ref.tmp, align 8, !tbaa !15
  invoke void @_ZN6duckdb13ClientContext15TryBindRelationERNS_8RelationERNS_6vectorINS_16ColumnDefinitionELb1EEE(ptr noundef nonnull align 8 dereferenceable(592) %4, ptr noundef nonnull align 8 dereferenceable(64) %this, ptr noundef nonnull align 8 dereferenceable(24) %columns)
          to label %invoke.cont6 unwind label %lpad5

invoke.cont6:                                     ; preds = %invoke.cont
  %_M_refcount.i = getelementptr inbounds %"class.std::__shared_ptr.84", ptr %ref.tmp, i64 0, i32 1
  %5 = load ptr, ptr %_M_refcount.i, align 8, !tbaa !14
  %cmp.not.i.i = icmp eq ptr %5, null
  br i1 %cmp.not.i.i, label %_ZNSt12__shared_ptrIN6duckdb13ClientContextELN9__gnu_cxx12_Lock_policyE2EED2Ev.exit, label %if.then.i.i

if.then.i.i:                                      ; preds = %invoke.cont6
  %_M_use_count.i.i.i = getelementptr inbounds %"class.std::_Sp_counted_base", ptr %5, i64 0, i32 1
  %6 = load atomic i64, ptr %_M_use_count.i.i.i acquire, align 8
  %cmp.i.i.i = icmp eq i64 %6, 4294967297
  %7 = trunc i64 %6 to i32
  br i1 %cmp.i.i.i, label %if.then.i.i.i, label %if.end.i.i.i

if.then.i.i.i:                                    ; preds = %if.then.i.i
  store i32 0, ptr %_M_use_count.i.i.i, align 8, !tbaa !17
  %_M_weak_count.i.i.i = getelementptr inbounds %"class.std::_Sp_counted_base", ptr %5, i64 0, i32 2
  store i32 0, ptr %_M_weak_count.i.i.i, align 4, !tbaa !20
  %vtable.i.i.i = load ptr, ptr %5, align 8, !tbaa !9
  %vfn.i.i.i = getelementptr inbounds ptr, ptr %vtable.i.i.i, i64 2
  %8 = load ptr, ptr %vfn.i.i.i, align 8
  call void %8(ptr noundef nonnull align 8 dereferenceable(16) %5) #24
  %vtable3.i.i.i = load ptr, ptr %5, align 8, !tbaa !9
  %vfn4.i.i.i = getelementptr inbounds ptr, ptr %vtable3.i.i.i, i64 3
  %9 = load ptr, ptr %vfn4.i.i.i, align 8
  call void %9(ptr noundef nonnull align 8 dereferenceable(16) %5) #24
  br label %_ZNSt12__shared_ptrIN6duckdb13ClientContextELN9__gnu_cxx12_Lock_policyE2EED2Ev.exit

if.end.i.i.i:                                     ; preds = %if.then.i.i
  %10 = load i8, ptr @__libc_single_threaded, align 1, !tbaa !21
  %tobool.i.i.not.i.i.i = icmp eq i8 %10, 0
  br i1 %tobool.i.i.not.i.i.i, label %if.else.i.i.i.i, label %if.then.i.i.i.i

if.then.i.i.i.i:                                  ; preds = %if.end.i.i.i
  %add.i.i.i.i = add nsw i32 %7, -1
  store i32 %add.i.i.i.i, ptr %_M_use_count.i.i.i, align 4, !tbaa !22
  br label %invoke.cont.i.i.i

if.else.i.i.i.i:                                  ; preds = %if.end.i.i.i
  %11 = atomicrmw volatile add ptr %_M_use_count.i.i.i, i32 -1 acq_rel, align 4
  br label %invoke.cont.i.i.i

invoke.cont.i.i.i:                                ; preds = %if.else.i.i.i.i, %if.then.i.i.i.i
  %retval.0.i.i.i.i = phi i32 [ %7, %if.then.i.i.i.i ], [ %11, %if.else.i.i.i.i ]
  %cmp6.i.i.i = icmp eq i32 %retval.0.i.i.i.i, 1
  br i1 %cmp6.i.i.i, label %if.then7.i.i.i, label %_ZNSt12__shared_ptrIN6duckdb13ClientContextELN9__gnu_cxx12_Lock_policyE2EED2Ev.exit, !prof !23

if.then7.i.i.i:                                   ; preds = %invoke.cont.i.i.i
  call void @_ZNSt16_Sp_counted_baseILN9__gnu_cxx12_Lock_policyE2EE24_M_release_last_use_coldEv(ptr noundef nonnull align 8 dereferenceable(16) %5) #24
  br label %_ZNSt12__shared_ptrIN6duckdb13ClientContextELN9__gnu_cxx12_Lock_policyE2EED2Ev.exit

_ZNSt12__shared_ptrIN6duckdb13ClientContextELN9__gnu_cxx12_Lock_policyE2EED2Ev.exit: ; preds = %if.then7.i.i.i, %invoke.cont.i.i.i, %if.then.i.i.i, %invoke.cont6
  call void @llvm.lifetime.end.p0(i64 16, ptr nonnull %ref.tmp) #24
  ret void

lpad:                                             ; preds = %entry
  %12 = landingpad { ptr, i32 }
          cleanup
  br label %ehcleanup

lpad5:                                            ; preds = %invoke.cont
  %13 = landingpad { ptr, i32 }
          cleanup
  call void @_ZNSt12__shared_ptrIN6duckdb13ClientContextELN9__gnu_cxx12_Lock_policyE2EED2Ev(ptr noundef nonnull align 8 dereferenceable(16) %ref.tmp) #24
  br label %ehcleanup

ehcleanup:                                        ; preds = %lpad5, %lpad
  %.pn = phi { ptr, i32 } [ %13, %lpad5 ], [ %12, %lpad ]
  call void @llvm.lifetime.end.p0(i64 16, ptr nonnull %ref.tmp) #24
  call void @_ZNSt12__shared_ptrIN6duckdb8RelationELN9__gnu_cxx12_Lock_policyE2EED2Ev(ptr noundef nonnull align 8 dereferenceable(16) %child) #24
  call void @_ZNSt6vectorIN6duckdb16ColumnDefinitionESaIS1_EED2Ev(ptr noundef nonnull align 8 dereferenceable(24) %columns) #24
  call void @_ZN6duckdb11GroupByNodeD2Ev(ptr noundef nonnull align 8 dereferenceable(48) %groups) #24
  call void @_ZNSt6vectorIN6duckdb10unique_ptrINS0_16ParsedExpressionESt14default_deleteIS2_ELb1EEESaIS5_EED2Ev(ptr noundef nonnull align 8 dereferenceable(24) %expressions) #24
  call void @_ZN6duckdb8RelationD2Ev(ptr noundef nonnull align 8 dereferenceable(64) %this) #24
  resume { ptr, i32 } %.pn
}

; Function Attrs: mustprogress uwtable
define linkonce_odr void @_ZN6duckdb8RelationC2ERNS_20ClientContextWrapperENS_12RelationTypeE(ptr noundef nonnull align 8 dereferenceable(64) %this, ptr noundef nonnull align 8 dereferenceable(16) %context, i8 noundef zeroext %type) unnamed_addr #0 comdat align 2 personality ptr @__gxx_personality_v0 {
entry:
  %ref.tmp = alloca %"class.std::shared_ptr.83", align 8
  %0 = getelementptr inbounds i8, ptr %this, i64 8
  tail call void @llvm.memset.p0.i64(ptr noundef nonnull align 8 dereferenceable(16) %0, i8 0, i64 16, i1 false)
  store ptr getelementptr inbounds ({ [15 x ptr] }, ptr @_ZTVN6duckdb8RelationE, i64 0, inrange i32 0, i64 2), ptr %this, align 8, !tbaa !9
  call void @llvm.lifetime.start.p0(i64 16, ptr nonnull %ref.tmp) #24
  invoke void @_ZN6duckdb20ClientContextWrapper10GetContextEv(ptr nonnull sret(%"class.std::shared_ptr.83") align 8 %ref.tmp, ptr noundef nonnull align 8 dereferenceable(16) %context)
          to label %invoke.cont unwind label %lpad

invoke.cont:                                      ; preds = %entry
  %context2 = getelementptr inbounds %"class.duckdb::Relation", ptr %this, i64 0, i32 2
  %1 = load ptr, ptr %ref.tmp, align 8, !tbaa !15
  store ptr %1, ptr %context2, align 8, !tbaa !24
  %_M_refcount.i.i.i = getelementptr inbounds %"class.duckdb::Relation", ptr %this, i64 0, i32 2, i32 0, i32 0, i32 1
  %_M_refcount3.i.i.i = getelementptr inbounds %"class.std::__shared_ptr.84", ptr %ref.tmp, i64 0, i32 1
  %2 = load ptr, ptr %_M_refcount3.i.i.i, align 8, !tbaa !14
  store ptr %2, ptr %_M_refcount.i.i.i, align 8, !tbaa !27
  %cmp.not.i.i.i.i = icmp eq ptr %2, null
  br i1 %cmp.not.i.i.i.i, label %_ZNSt12__shared_ptrIN6duckdb13ClientContextELN9__gnu_cxx12_Lock_policyE2EED2Ev.exit, label %if.then.i.i.i.i

if.then.i.i.i.i:                                  ; preds = %invoke.cont
  %_M_weak_count.i.i.i.i.i = getelementptr inbounds %"class.std::_Sp_counted_base", ptr %2, i64 0, i32 2
  %3 = load i8, ptr @__libc_single_threaded, align 1, !tbaa !21
  %tobool.i.not.i.i.i.i.i = icmp eq i8 %3, 0
  br i1 %tobool.i.not.i.i.i.i.i, label %_ZN6duckdb20ClientContextWrapperC2ERKSt10shared_ptrINS_13ClientContextEE.exit, label %_ZN6duckdb20ClientContextWrapperC2ERKSt10shared_ptrINS_13ClientContextEE.exit.thread

_ZN6duckdb20ClientContextWrapperC2ERKSt10shared_ptrINS_13ClientContextEE.exit.thread: ; preds = %if.then.i.i.i.i
  %4 = load i32, ptr %_M_weak_count.i.i.i.i.i, align 4, !tbaa !22
  %add.i.i.i.i.i.i = add nsw i32 %4, 1
  store i32 %add.i.i.i.i.i.i, ptr %_M_weak_count.i.i.i.i.i, align 4, !tbaa !22
  br label %if.then.i.i

_ZN6duckdb20ClientContextWrapperC2ERKSt10shared_ptrINS_13ClientContextEE.exit: ; preds = %if.then.i.i.i.i
  %5 = atomicrmw volatile add ptr %_M_weak_count.i.i.i.i.i, i32 1 acq_rel, align 4
  %.pr.pre = load ptr, ptr %_M_refcount3.i.i.i, align 8, !tbaa !14
  %cmp.not.i.i = icmp eq ptr %.pr.pre, null
  br i1 %cmp.not.i.i, label %_ZNSt12__shared_ptrIN6duckdb13ClientContextELN9__gnu_cxx12_Lock_policyE2EED2Ev.exit, label %if.then.i.i

if.then.i.i:                                      ; preds = %_ZN6duckdb20ClientContextWrapperC2ERKSt10shared_ptrINS_13ClientContextEE.exit, %_ZN6duckdb20ClientContextWrapperC2ERKSt10shared_ptrINS_13ClientContextEE.exit.thread
  %.pr13 = phi ptr [ %2, %_ZN6duckdb20ClientContextWrapperC2ERKSt10shared_ptrINS_13ClientContextEE.exit.thread ], [ %.pr.pre, %_ZN6duckdb20ClientContextWrapperC2ERKSt10shared_ptrINS_13ClientContextEE.exit ]
  %_M_use_count.i.i.i = getelementptr inbounds %"class.std::_Sp_counted_base", ptr %.pr13, i64 0, i32 1
  %6 = load atomic i64, ptr %_M_use_count.i.i.i acquire, align 8
  %cmp.i.i.i = icmp eq i64 %6, 4294967297
  %7 = trunc i64 %6 to i32
  br i1 %cmp.i.i.i, label %if.then.i.i.i, label %if.end.i.i.i

if.then.i.i.i:                                    ; preds = %if.then.i.i
  store i32 0, ptr %_M_use_count.i.i.i, align 8, !tbaa !17
  %_M_weak_count.i.i.i = getelementptr inbounds %"class.std::_Sp_counted_base", ptr %.pr13, i64 0, i32 2
  store i32 0, ptr %_M_weak_count.i.i.i, align 4, !tbaa !20
  %vtable.i.i.i = load ptr, ptr %.pr13, align 8, !tbaa !9
  %vfn.i.i.i = getelementptr inbounds ptr, ptr %vtable.i.i.i, i64 2
  %8 = load ptr, ptr %vfn.i.i.i, align 8
  call void %8(ptr noundef nonnull align 8 dereferenceable(16) %.pr13) #24
  %vtable3.i.i.i = load ptr, ptr %.pr13, align 8, !tbaa !9
  %vfn4.i.i.i = getelementptr inbounds ptr, ptr %vtable3.i.i.i, i64 3
  %9 = load ptr, ptr %vfn4.i.i.i, align 8
  call void %9(ptr noundef nonnull align 8 dereferenceable(16) %.pr13) #24
  br label %_ZNSt12__shared_ptrIN6duckdb13ClientContextELN9__gnu_cxx12_Lock_policyE2EED2Ev.exit

if.end.i.i.i:                                     ; preds = %if.then.i.i
  %10 = load i8, ptr @__libc_single_threaded, align 1, !tbaa !21
  %tobool.i.i.not.i.i.i = icmp eq i8 %10, 0
  br i1 %tobool.i.i.not.i.i.i, label %if.else.i.i.i.i, label %if.then.i.i.i.i8

if.then.i.i.i.i8:                                 ; preds = %if.end.i.i.i
  %add.i.i.i.i = add nsw i32 %7, -1
  store i32 %add.i.i.i.i, ptr %_M_use_count.i.i.i, align 4, !tbaa !22
  br label %invoke.cont.i.i.i

if.else.i.i.i.i:                                  ; preds = %if.end.i.i.i
  %11 = atomicrmw volatile add ptr %_M_use_count.i.i.i, i32 -1 acq_rel, align 4
  br label %invoke.cont.i.i.i

invoke.cont.i.i.i:                                ; preds = %if.else.i.i.i.i, %if.then.i.i.i.i8
  %retval.0.i.i.i.i = phi i32 [ %7, %if.then.i.i.i.i8 ], [ %11, %if.else.i.i.i.i ]
  %cmp6.i.i.i = icmp eq i32 %retval.0.i.i.i.i, 1
  br i1 %cmp6.i.i.i, label %if.then7.i.i.i, label %_ZNSt12__shared_ptrIN6duckdb13ClientContextELN9__gnu_cxx12_Lock_policyE2EED2Ev.exit, !prof !23

if.then7.i.i.i:                                   ; preds = %invoke.cont.i.i.i
  call void @_ZNSt16_Sp_counted_baseILN9__gnu_cxx12_Lock_policyE2EE24_M_release_last_use_coldEv(ptr noundef nonnull align 8 dereferenceable(16) %.pr13) #24
  br label %_ZNSt12__shared_ptrIN6duckdb13ClientContextELN9__gnu_cxx12_Lock_policyE2EED2Ev.exit

_ZNSt12__shared_ptrIN6duckdb13ClientContextELN9__gnu_cxx12_Lock_policyE2EED2Ev.exit: ; preds = %if.then7.i.i.i, %invoke.cont.i.i.i, %if.then.i.i.i, %_ZN6duckdb20ClientContextWrapperC2ERKSt10shared_ptrINS_13ClientContextEE.exit, %invoke.cont
  call void @llvm.lifetime.end.p0(i64 16, ptr nonnull %ref.tmp) #24
  %type5 = getelementptr inbounds %"class.duckdb::Relation", ptr %this, i64 0, i32 3
  store i8 %type, ptr %type5, align 8, !tbaa !28
  %extra_dependencies = getelementptr inbounds %"class.duckdb::Relation", ptr %this, i64 0, i32 4
  call void @llvm.memset.p0.i64(ptr noundef nonnull align 8 dereferenceable(16) %extra_dependencies, i8 0, i64 16, i1 false)
  ret void

lpad:                                             ; preds = %entry
  %12 = landingpad { ptr, i32 }
          cleanup
  call void @llvm.lifetime.end.p0(i64 16, ptr nonnull %ref.tmp) #24
  call void @_ZNSt23enable_shared_from_thisIN6duckdb8RelationEED2Ev(ptr noundef nonnull align 8 dereferenceable(16) %0) #24
  resume { ptr, i32 } %12
}

; Function Attrs: mustprogress nocallback nofree nosync nounwind willreturn memory(argmem: readwrite)
declare void @llvm.lifetime.start.p0(i64 immarg, ptr nocapture) #1

; Function Attrs: mustprogress uwtable
define linkonce_odr void @_ZN6duckdb20ClientContextWrapper10GetContextEv(ptr noalias sret(%"class.std::shared_ptr.83") align 8 %agg.result, ptr noundef nonnull align 8 dereferenceable(16) %this) local_unnamed_addr #0 comdat align 2 personality ptr @__gxx_personality_v0 {
entry:
  %ref.tmp = alloca %"class.std::__cxx11::basic_string", align 8
  %ref.tmp2 = alloca %"class.std::allocator.40", align 1
  tail call void @llvm.experimental.noalias.scope.decl(metadata !38)
  %_M_refcount.i.i.i = getelementptr inbounds %"class.std::__shared_ptr.84", ptr %agg.result, i64 0, i32 1
  %_M_refcount2.i.i.i = getelementptr inbounds %"class.std::__weak_ptr.1", ptr %this, i64 0, i32 1
  %0 = load ptr, ptr %_M_refcount2.i.i.i, align 8, !tbaa !27, !noalias !38
  store ptr %0, ptr %_M_refcount.i.i.i, align 8, !tbaa !14, !alias.scope !38
  %tobool.not.i.i.i.i = icmp eq ptr %0, null
  br i1 %tobool.not.i.i.i.i, label %_ZNKSt8weak_ptrIN6duckdb13ClientContextEE4lockEv.exit.thread, label %land.lhs.true.i.i.i.i

land.lhs.true.i.i.i.i:                            ; preds = %entry
  %_M_use_count.i.i.i.i.i.i = getelementptr inbounds %"class.std::_Sp_counted_base", ptr %0, i64 0, i32 1
  %1 = load atomic i32, ptr %_M_use_count.i.i.i.i.i.i monotonic, align 8, !noalias !38
  br label %do.body.i.i.i.i.i

do.body.i.i.i.i.i:                                ; preds = %do.cond.i.i.i.i.i, %land.lhs.true.i.i.i.i
  %__count.0.i.i.i.i.i = phi i32 [ %1, %land.lhs.true.i.i.i.i ], [ %4, %do.cond.i.i.i.i.i ]
  %cmp.not.i.not.i.i.i.i = icmp eq i32 %__count.0.i.i.i.i.i, 0
  br i1 %cmp.not.i.not.i.i.i.i, label %if.then.i.i.i.i, label %do.cond.i.i.i.i.i

do.cond.i.i.i.i.i:                                ; preds = %do.body.i.i.i.i.i
  %add.i.i.i.i.i = add nsw i32 %__count.0.i.i.i.i.i, 1
  %2 = cmpxchg weak ptr %_M_use_count.i.i.i.i.i.i, i32 %__count.0.i.i.i.i.i, i32 %add.i.i.i.i.i acq_rel monotonic, align 8, !noalias !38
  %3 = extractvalue { i32, i1 } %2, 1
  %4 = extractvalue { i32, i1 } %2, 0
  br i1 %3, label %_ZNSt14__shared_countILN9__gnu_cxx12_Lock_policyE2EEC2ERKSt12__weak_countILS1_2EESt9nothrow_t.exit.i.i.i, label %do.body.i.i.i.i.i, !llvm.loop !41

if.then.i.i.i.i:                                  ; preds = %do.body.i.i.i.i.i
  store ptr null, ptr %_M_refcount.i.i.i, align 8, !tbaa !14, !alias.scope !38
  br label %_ZNKSt8weak_ptrIN6duckdb13ClientContextEE4lockEv.exit.thread

_ZNSt14__shared_countILN9__gnu_cxx12_Lock_policyE2EEC2ERKSt12__weak_countILS1_2EESt9nothrow_t.exit.i.i.i: ; preds = %do.cond.i.i.i.i.i
  %.pr.i.i.i = load ptr, ptr %_M_refcount.i.i.i, align 8, !tbaa !14, !alias.scope !38
  %tobool.not.i6.i.i.i = icmp eq ptr %.pr.i.i.i, null
  br i1 %tobool.not.i6.i.i.i, label %_ZNKSt8weak_ptrIN6duckdb13ClientContextEE4lockEv.exit.thread, label %_ZNKSt14__shared_countILN9__gnu_cxx12_Lock_policyE2EE16_M_get_use_countEv.exit.i.i.i

_ZNKSt14__shared_countILN9__gnu_cxx12_Lock_policyE2EE16_M_get_use_countEv.exit.i.i.i: ; preds = %_ZNSt14__shared_countILN9__gnu_cxx12_Lock_policyE2EEC2ERKSt12__weak_countILS1_2EESt9nothrow_t.exit.i.i.i
  %_M_use_count.i.i.i.i.i = getelementptr inbounds %"class.std::_Sp_counted_base", ptr %.pr.i.i.i, i64 0, i32 1
  %5 = load atomic i32, ptr %_M_use_count.i.i.i.i.i monotonic, align 8, !noalias !38
  %.fr.i.i.i = freeze i32 %5
  %tobool.not.i.i.i = icmp eq i32 %.fr.i.i.i, 0
  br i1 %tobool.not.i.i.i, label %_ZNKSt8weak_ptrIN6duckdb13ClientContextEE4lockEv.exit.thread, label %_ZNKSt8weak_ptrIN6duckdb13ClientContextEE4lockEv.exit

_ZNKSt8weak_ptrIN6duckdb13ClientContextEE4lockEv.exit.thread: ; preds = %_ZNKSt14__shared_countILN9__gnu_cxx12_Lock_policyE2EE16_M_get_use_countEv.exit.i.i.i, %_ZNSt14__shared_countILN9__gnu_cxx12_Lock_policyE2EEC2ERKSt12__weak_countILS1_2EESt9nothrow_t.exit.i.i.i, %if.then.i.i.i.i, %entry
  store ptr null, ptr %agg.result, align 8, !tbaa !15, !alias.scope !38
  br label %if.then

_ZNKSt8weak_ptrIN6duckdb13ClientContextEE4lockEv.exit: ; preds = %_ZNKSt14__shared_countILN9__gnu_cxx12_Lock_policyE2EE16_M_get_use_countEv.exit.i.i.i
  %6 = load ptr, ptr %this, align 8, !noalias !38
  store ptr %6, ptr %agg.result, align 8, !tbaa !15, !alias.scope !38
  %cmp.i.not = icmp eq ptr %6, null
  br i1 %cmp.i.not, label %if.then, label %nrvo.skipdtor

if.then:                                          ; preds = %_ZNKSt8weak_ptrIN6duckdb13ClientContextEE4lockEv.exit, %_ZNKSt8weak_ptrIN6duckdb13ClientContextEE4lockEv.exit.thread
  %exception = tail call ptr @__cxa_allocate_exception(i64 80) #24
  call void @llvm.lifetime.start.p0(i64 32, ptr nonnull %ref.tmp) #24
  call void @llvm.lifetime.start.p0(i64 1, ptr nonnull %ref.tmp2) #24
  invoke void @_ZNSt7__cxx1112basic_stringIcSt11char_traitsIcESaIcEEC2EPKcRKS3_(ptr noundef nonnull align 8 dereferenceable(32) %ref.tmp, ptr noundef nonnull @.str.52, ptr noundef nonnull align 1 dereferenceable(1) %ref.tmp2)
          to label %invoke.cont unwind label %ehcleanup.thread

invoke.cont:                                      ; preds = %if.then
  invoke void @_ZN6duckdb19ConnectionExceptionC1ERKNSt7__cxx1112basic_stringIcSt11char_traitsIcESaIcEEE(ptr noundef nonnull align 8 dereferenceable(80) %exception, ptr noundef nonnull align 8 dereferenceable(32) %ref.tmp)
          to label %invoke.cont4 unwind label %lpad3

invoke.cont4:                                     ; preds = %invoke.cont
  invoke void @__cxa_throw(ptr nonnull %exception, ptr nonnull @_ZTIN6duckdb19ConnectionExceptionE, ptr nonnull @_ZN6duckdb9ExceptionD2Ev) #25
          to label %unreachable unwind label %lpad3

ehcleanup.thread:                                 ; preds = %if.then
  %7 = landingpad { ptr, i32 }
          cleanup
  call void @llvm.lifetime.end.p0(i64 1, ptr nonnull %ref.tmp2) #24
  call void @llvm.lifetime.end.p0(i64 32, ptr nonnull %ref.tmp) #24
  br label %cleanup.action

lpad3:                                            ; preds = %invoke.cont4, %invoke.cont
  %cleanup.isactive.0 = phi i1 [ false, %invoke.cont4 ], [ true, %invoke.cont ]
  %8 = landingpad { ptr, i32 }
          cleanup
  %9 = load ptr, ptr %ref.tmp, align 8, !tbaa !43
  %10 = getelementptr inbounds %"class.std::__cxx11::basic_string", ptr %ref.tmp, i64 0, i32 2
  %cmp.i.i.i = icmp eq ptr %9, %10
  br i1 %cmp.i.i.i, label %_ZNKSt7__cxx1112basic_stringIcSt11char_traitsIcESaIcEE11_M_is_localEv.exit.thread.i.i, label %ehcleanup

_ZNKSt7__cxx1112basic_stringIcSt11char_traitsIcESaIcEE11_M_is_localEv.exit.thread.i.i: ; preds = %lpad3
  %_M_string_length.i.i.i = getelementptr inbounds %"class.std::__cxx11::basic_string", ptr %ref.tmp, i64 0, i32 1
  %11 = load i64, ptr %_M_string_length.i.i.i, align 8, !tbaa !47
  %cmp3.i.i.i = icmp ult i64 %11, 16
  call void @llvm.assume(i1 %cmp3.i.i.i)
  call void @llvm.lifetime.end.p0(i64 1, ptr nonnull %ref.tmp2) #24
  call void @llvm.lifetime.end.p0(i64 32, ptr nonnull %ref.tmp) #24
  br i1 %cleanup.isactive.0, label %cleanup.action, label %cleanup.done

ehcleanup:                                        ; preds = %lpad3
  call void @_ZdlPv(ptr noundef %9) #26
  call void @llvm.lifetime.end.p0(i64 1, ptr nonnull %ref.tmp2) #24
  call void @llvm.lifetime.end.p0(i64 32, ptr nonnull %ref.tmp) #24
  br i1 %cleanup.isactive.0, label %cleanup.action, label %cleanup.done

cleanup.action:                                   ; preds = %ehcleanup, %_ZNKSt7__cxx1112basic_stringIcSt11char_traitsIcESaIcEE11_M_is_localEv.exit.thread.i.i, %ehcleanup.thread
  %.pn15 = phi { ptr, i32 } [ %7, %ehcleanup.thread ], [ %8, %ehcleanup ], [ %8, %_ZNKSt7__cxx1112basic_stringIcSt11char_traitsIcESaIcEE11_M_is_localEv.exit.thread.i.i ]
  call void @__cxa_free_exception(ptr %exception) #24
  br label %cleanup.done

cleanup.done:                                     ; preds = %cleanup.action, %ehcleanup, %_ZNKSt7__cxx1112basic_stringIcSt11char_traitsIcESaIcEE11_M_is_localEv.exit.thread.i.i
  %.pn14 = phi { ptr, i32 } [ %.pn15, %cleanup.action ], [ %8, %ehcleanup ], [ %8, %_ZNKSt7__cxx1112basic_stringIcSt11char_traitsIcESaIcEE11_M_is_localEv.exit.thread.i.i ]
  call void @_ZNSt12__shared_ptrIN6duckdb13ClientContextELN9__gnu_cxx12_Lock_policyE2EED2Ev(ptr noundef nonnull align 8 dereferenceable(16) %agg.result) #24
  resume { ptr, i32 } %.pn14

nrvo.skipdtor:                                    ; preds = %_ZNKSt8weak_ptrIN6duckdb13ClientContextEE4lockEv.exit
  ret void

unreachable:                                      ; preds = %invoke.cont4
  unreachable
}

declare i32 @__gxx_personality_v0(...)

declare void @_ZN6duckdb13ClientContext15TryBindRelationERNS_8RelationERNS_6vectorINS_16ColumnDefinitionELb1EEE(ptr noundef nonnull align 8 dereferenceable(592), ptr noundef nonnull align 8 dereferenceable(64), ptr noundef nonnull align 8 dereferenceable(24)) local_unnamed_addr #2

; Function Attrs: mustprogress nounwind uwtable
define linkonce_odr void @_ZNSt12__shared_ptrIN6duckdb13ClientContextELN9__gnu_cxx12_Lock_policyE2EED2Ev(ptr noundef nonnull align 8 dereferenceable(16) %this) unnamed_addr #3 comdat align 2 personality ptr @__gxx_personality_v0 {
entry:
  %_M_refcount = getelementptr inbounds %"class.std::__shared_ptr.84", ptr %this, i64 0, i32 1
  %0 = load ptr, ptr %_M_refcount, align 8, !tbaa !14
  %cmp.not.i = icmp eq ptr %0, null
  br i1 %cmp.not.i, label %_ZNSt14__shared_countILN9__gnu_cxx12_Lock_policyE2EED2Ev.exit, label %if.then.i

if.then.i:                                        ; preds = %entry
  %_M_use_count.i.i = getelementptr inbounds %"class.std::_Sp_counted_base", ptr %0, i64 0, i32 1
  %1 = load atomic i64, ptr %_M_use_count.i.i acquire, align 8
  %cmp.i.i = icmp eq i64 %1, 4294967297
  %2 = trunc i64 %1 to i32
  br i1 %cmp.i.i, label %if.then.i.i, label %if.end.i.i

if.then.i.i:                                      ; preds = %if.then.i
  store i32 0, ptr %_M_use_count.i.i, align 8, !tbaa !17
  %_M_weak_count.i.i = getelementptr inbounds %"class.std::_Sp_counted_base", ptr %0, i64 0, i32 2
  store i32 0, ptr %_M_weak_count.i.i, align 4, !tbaa !20
  %vtable.i.i = load ptr, ptr %0, align 8, !tbaa !9
  %vfn.i.i = getelementptr inbounds ptr, ptr %vtable.i.i, i64 2
  %3 = load ptr, ptr %vfn.i.i, align 8
  tail call void %3(ptr noundef nonnull align 8 dereferenceable(16) %0) #24
  %vtable3.i.i = load ptr, ptr %0, align 8, !tbaa !9
  %vfn4.i.i = getelementptr inbounds ptr, ptr %vtable3.i.i, i64 3
  %4 = load ptr, ptr %vfn4.i.i, align 8
  tail call void %4(ptr noundef nonnull align 8 dereferenceable(16) %0) #24
  br label %_ZNSt14__shared_countILN9__gnu_cxx12_Lock_policyE2EED2Ev.exit

if.end.i.i:                                       ; preds = %if.then.i
  %5 = load i8, ptr @__libc_single_threaded, align 1, !tbaa !21
  %tobool.i.i.not.i.i = icmp eq i8 %5, 0
  br i1 %tobool.i.i.not.i.i, label %if.else.i.i.i, label %if.then.i.i.i

if.then.i.i.i:                                    ; preds = %if.end.i.i
  %add.i.i.i = add nsw i32 %2, -1
  store i32 %add.i.i.i, ptr %_M_use_count.i.i, align 4, !tbaa !22
  br label %invoke.cont.i.i

if.else.i.i.i:                                    ; preds = %if.end.i.i
  %6 = atomicrmw volatile add ptr %_M_use_count.i.i, i32 -1 acq_rel, align 4
  br label %invoke.cont.i.i

invoke.cont.i.i:                                  ; preds = %if.else.i.i.i, %if.then.i.i.i
  %retval.0.i.i.i = phi i32 [ %2, %if.then.i.i.i ], [ %6, %if.else.i.i.i ]
  %cmp6.i.i = icmp eq i32 %retval.0.i.i.i, 1
  br i1 %cmp6.i.i, label %if.then7.i.i, label %_ZNSt14__shared_countILN9__gnu_cxx12_Lock_policyE2EED2Ev.exit, !prof !23

if.then7.i.i:                                     ; preds = %invoke.cont.i.i
  tail call void @_ZNSt16_Sp_counted_baseILN9__gnu_cxx12_Lock_policyE2EE24_M_release_last_use_coldEv(ptr noundef nonnull align 8 dereferenceable(16) %0) #24
  br label %_ZNSt14__shared_countILN9__gnu_cxx12_Lock_policyE2EED2Ev.exit

_ZNSt14__shared_countILN9__gnu_cxx12_Lock_policyE2EED2Ev.exit: ; preds = %if.then7.i.i, %invoke.cont.i.i, %if.then.i.i, %entry
  ret void
}

; Function Attrs: mustprogress nocallback nofree nosync nounwind willreturn memory(argmem: readwrite)
declare void @llvm.lifetime.end.p0(i64 immarg, ptr nocapture) #1

; Function Attrs: mustprogress nounwind uwtable
define linkonce_odr void @_ZNSt12__shared_ptrIN6duckdb8RelationELN9__gnu_cxx12_Lock_policyE2EED2Ev(ptr noundef nonnull align 8 dereferenceable(16) %this) unnamed_addr #3 comdat align 2 personality ptr @__gxx_personality_v0 {
entry:
  %_M_refcount = getelementptr inbounds %"class.std::__shared_ptr", ptr %this, i64 0, i32 1
  %0 = load ptr, ptr %_M_refcount, align 8, !tbaa !14
  %cmp.not.i = icmp eq ptr %0, null
  br i1 %cmp.not.i, label %_ZNSt14__shared_countILN9__gnu_cxx12_Lock_policyE2EED2Ev.exit, label %if.then.i

if.then.i:                                        ; preds = %entry
  %_M_use_count.i.i = getelementptr inbounds %"class.std::_Sp_counted_base", ptr %0, i64 0, i32 1
  %1 = load atomic i64, ptr %_M_use_count.i.i acquire, align 8
  %cmp.i.i = icmp eq i64 %1, 4294967297
  %2 = trunc i64 %1 to i32
  br i1 %cmp.i.i, label %if.then.i.i, label %if.end.i.i

if.then.i.i:                                      ; preds = %if.then.i
  store i32 0, ptr %_M_use_count.i.i, align 8, !tbaa !17
  %_M_weak_count.i.i = getelementptr inbounds %"class.std::_Sp_counted_base", ptr %0, i64 0, i32 2
  store i32 0, ptr %_M_weak_count.i.i, align 4, !tbaa !20
  %vtable.i.i = load ptr, ptr %0, align 8, !tbaa !9
  %vfn.i.i = getelementptr inbounds ptr, ptr %vtable.i.i, i64 2
  %3 = load ptr, ptr %vfn.i.i, align 8
  tail call void %3(ptr noundef nonnull align 8 dereferenceable(16) %0) #24
  %vtable3.i.i = load ptr, ptr %0, align 8, !tbaa !9
  %vfn4.i.i = getelementptr inbounds ptr, ptr %vtable3.i.i, i64 3
  %4 = load ptr, ptr %vfn4.i.i, align 8
  tail call void %4(ptr noundef nonnull align 8 dereferenceable(16) %0) #24
  br label %_ZNSt14__shared_countILN9__gnu_cxx12_Lock_policyE2EED2Ev.exit

if.end.i.i:                                       ; preds = %if.then.i
  %5 = load i8, ptr @__libc_single_threaded, align 1, !tbaa !21
  %tobool.i.i.not.i.i = icmp eq i8 %5, 0
  br i1 %tobool.i.i.not.i.i, label %if.else.i.i.i, label %if.then.i.i.i

if.then.i.i.i:                                    ; preds = %if.end.i.i
  %add.i.i.i = add nsw i32 %2, -1
  store i32 %add.i.i.i, ptr %_M_use_count.i.i, align 4, !tbaa !22
  br label %invoke.cont.i.i

if.else.i.i.i:                                    ; preds = %if.end.i.i
  %6 = atomicrmw volatile add ptr %_M_use_count.i.i, i32 -1 acq_rel, align 4
  br label %invoke.cont.i.i

invoke.cont.i.i:                                  ; preds = %if.else.i.i.i, %if.then.i.i.i
  %retval.0.i.i.i = phi i32 [ %2, %if.then.i.i.i ], [ %6, %if.else.i.i.i ]
  %cmp6.i.i = icmp eq i32 %retval.0.i.i.i, 1
  br i1 %cmp6.i.i, label %if.then7.i.i, label %_ZNSt14__shared_countILN9__gnu_cxx12_Lock_policyE2EED2Ev.exit, !prof !23

if.then7.i.i:                                     ; preds = %invoke.cont.i.i
  tail call void @_ZNSt16_Sp_counted_baseILN9__gnu_cxx12_Lock_policyE2EE24_M_release_last_use_coldEv(ptr noundef nonnull align 8 dereferenceable(16) %0) #24
  br label %_ZNSt14__shared_countILN9__gnu_cxx12_Lock_policyE2EED2Ev.exit

_ZNSt14__shared_countILN9__gnu_cxx12_Lock_policyE2EED2Ev.exit: ; preds = %if.then7.i.i, %invoke.cont.i.i, %if.then.i.i, %entry
  ret void
}

; Function Attrs: mustprogress nounwind uwtable
define linkonce_odr void @_ZNSt6vectorIN6duckdb16ColumnDefinitionESaIS1_EED2Ev(ptr noundef nonnull align 8 dereferenceable(24) %this) unnamed_addr #3 comdat align 2 personality ptr @__gxx_personality_v0 {
entry:
  %0 = load ptr, ptr %this, align 8, !tbaa !48
  %_M_finish = getelementptr inbounds %"struct.std::_Vector_base<duckdb::ColumnDefinition, std::allocator<duckdb::ColumnDefinition>>::_Vector_impl_data", ptr %this, i64 0, i32 1
  %1 = load ptr, ptr %_M_finish, align 8, !tbaa !50
  %cmp.not3.i.i.i = icmp eq ptr %0, %1
  br i1 %cmp.not3.i.i.i, label %invoke.cont, label %for.body.i.i.i

for.body.i.i.i:                                   ; preds = %entry, %_ZSt8_DestroyIN6duckdb16ColumnDefinitionEEvPT_.exit.i.i.i
  %__first.addr.04.i.i.i = phi ptr [ %incdec.ptr.i.i.i, %_ZSt8_DestroyIN6duckdb16ColumnDefinitionEEvPT_.exit.i.i.i ], [ %0, %entry ]
  %expression.i.i.i.i.i = getelementptr inbounds %"class.duckdb::ColumnDefinition", ptr %__first.addr.04.i.i.i, i64 0, i32 6
  %2 = load ptr, ptr %expression.i.i.i.i.i, align 8, !tbaa !11
  %cmp.not.i.i.i.i.i.i = icmp eq ptr %2, null
  br i1 %cmp.not.i.i.i.i.i.i, label %_ZNSt10unique_ptrIN6duckdb16ParsedExpressionESt14default_deleteIS1_EED2Ev.exit.i.i.i.i.i, label %_ZNKSt14default_deleteIN6duckdb16ParsedExpressionEEclEPS1_.exit.i.i.i.i.i.i

_ZNKSt14default_deleteIN6duckdb16ParsedExpressionEEclEPS1_.exit.i.i.i.i.i.i: ; preds = %for.body.i.i.i
  %vtable.i.i.i.i.i.i.i = load ptr, ptr %2, align 8, !tbaa !9
  %vfn.i.i.i.i.i.i.i = getelementptr inbounds ptr, ptr %vtable.i.i.i.i.i.i.i, i64 1
  %3 = load ptr, ptr %vfn.i.i.i.i.i.i.i, align 8
  tail call void %3(ptr noundef nonnull align 8 dereferenceable(56) %2) #24
  br label %_ZNSt10unique_ptrIN6duckdb16ParsedExpressionESt14default_deleteIS1_EED2Ev.exit.i.i.i.i.i

_ZNSt10unique_ptrIN6duckdb16ParsedExpressionESt14default_deleteIS1_EED2Ev.exit.i.i.i.i.i: ; preds = %_ZNKSt14default_deleteIN6duckdb16ParsedExpressionEEclEPS1_.exit.i.i.i.i.i.i, %for.body.i.i.i
  store ptr null, ptr %expression.i.i.i.i.i, align 8, !tbaa !11
  %type.i.i.i.i.i = getelementptr inbounds %"class.duckdb::ColumnDefinition", ptr %__first.addr.04.i.i.i, i64 0, i32 1
  tail call void @_ZN6duckdb11LogicalTypeD1Ev(ptr noundef nonnull align 8 dereferenceable(24) %type.i.i.i.i.i) #24
  %4 = load ptr, ptr %__first.addr.04.i.i.i, align 8, !tbaa !43
  %5 = getelementptr inbounds %"class.std::__cxx11::basic_string", ptr %__first.addr.04.i.i.i, i64 0, i32 2
  %cmp.i.i.i.i.i.i.i.i = icmp eq ptr %4, %5
  br i1 %cmp.i.i.i.i.i.i.i.i, label %_ZNKSt7__cxx1112basic_stringIcSt11char_traitsIcESaIcEE11_M_is_localEv.exit.thread.i.i.i.i.i.i.i, label %if.then.i.i.i.i.i.i.i

_ZNKSt7__cxx1112basic_stringIcSt11char_traitsIcESaIcEE11_M_is_localEv.exit.thread.i.i.i.i.i.i.i: ; preds = %_ZNSt10unique_ptrIN6duckdb16ParsedExpressionESt14default_deleteIS1_EED2Ev.exit.i.i.i.i.i
  %_M_string_length.i.i.i.i.i.i.i.i = getelementptr inbounds %"class.std::__cxx11::basic_string", ptr %__first.addr.04.i.i.i, i64 0, i32 1
  %6 = load i64, ptr %_M_string_length.i.i.i.i.i.i.i.i, align 8, !tbaa !47
  %cmp3.i.i.i.i.i.i.i.i = icmp ult i64 %6, 16
  tail call void @llvm.assume(i1 %cmp3.i.i.i.i.i.i.i.i)
  br label %_ZSt8_DestroyIN6duckdb16ColumnDefinitionEEvPT_.exit.i.i.i

if.then.i.i.i.i.i.i.i:                            ; preds = %_ZNSt10unique_ptrIN6duckdb16ParsedExpressionESt14default_deleteIS1_EED2Ev.exit.i.i.i.i.i
  tail call void @_ZdlPv(ptr noundef %4) #26
  br label %_ZSt8_DestroyIN6duckdb16ColumnDefinitionEEvPT_.exit.i.i.i

_ZSt8_DestroyIN6duckdb16ColumnDefinitionEEvPT_.exit.i.i.i: ; preds = %if.then.i.i.i.i.i.i.i, %_ZNKSt7__cxx1112basic_stringIcSt11char_traitsIcESaIcEE11_M_is_localEv.exit.thread.i.i.i.i.i.i.i
  %incdec.ptr.i.i.i = getelementptr inbounds %"class.duckdb::ColumnDefinition", ptr %__first.addr.04.i.i.i, i64 1
  %cmp.not.i.i.i = icmp eq ptr %incdec.ptr.i.i.i, %1
  br i1 %cmp.not.i.i.i, label %invoke.contthread-pre-split, label %for.body.i.i.i, !llvm.loop !51

invoke.contthread-pre-split:                      ; preds = %_ZSt8_DestroyIN6duckdb16ColumnDefinitionEEvPT_.exit.i.i.i
  %.pr = load ptr, ptr %this, align 8, !tbaa !48
  br label %invoke.cont

invoke.cont:                                      ; preds = %invoke.contthread-pre-split, %entry
  %7 = phi ptr [ %.pr, %invoke.contthread-pre-split ], [ %0, %entry ]
  %tobool.not.i.i = icmp eq ptr %7, null
  br i1 %tobool.not.i.i, label %_ZNSt12_Vector_baseIN6duckdb16ColumnDefinitionESaIS1_EED2Ev.exit, label %if.then.i.i

if.then.i.i:                                      ; preds = %invoke.cont
  tail call void @_ZdlPv(ptr noundef nonnull %7) #26
  br label %_ZNSt12_Vector_baseIN6duckdb16ColumnDefinitionESaIS1_EED2Ev.exit

_ZNSt12_Vector_baseIN6duckdb16ColumnDefinitionESaIS1_EED2Ev.exit: ; preds = %if.then.i.i, %invoke.cont
  ret void
}

; Function Attrs: inlinehint mustprogress nounwind uwtable
define linkonce_odr void @_ZN6duckdb11GroupByNodeD2Ev(ptr noundef nonnull align 8 dereferenceable(48) %this) unnamed_addr #4 comdat align 2 personality ptr @__gxx_personality_v0 {
entry:
  %grouping_sets = getelementptr inbounds %"class.duckdb::GroupByNode", ptr %this, i64 0, i32 1
  %0 = load ptr, ptr %grouping_sets, align 8, !tbaa !52
  %_M_finish.i = getelementptr inbounds %"class.duckdb::GroupByNode", ptr %this, i64 0, i32 1, i32 0, i32 0, i32 0, i32 0, i32 1
  %1 = load ptr, ptr %_M_finish.i, align 8, !tbaa !54
  %cmp.not3.i.i.i.i = icmp eq ptr %0, %1
  br i1 %cmp.not3.i.i.i.i, label %invoke.cont.i, label %for.body.i.i.i.i

for.body.i.i.i.i:                                 ; preds = %entry, %_ZSt8_DestroyISt3setImSt4lessImESaImEEEvPT_.exit.i.i.i.i
  %__first.addr.04.i.i.i.i = phi ptr [ %incdec.ptr.i.i.i.i, %_ZSt8_DestroyISt3setImSt4lessImESaImEEEvPT_.exit.i.i.i.i ], [ %0, %entry ]
  %_M_parent.i.i.i.i.i.i.i.i.i = getelementptr inbounds i8, ptr %__first.addr.04.i.i.i.i, i64 16
  %2 = load ptr, ptr %_M_parent.i.i.i.i.i.i.i.i.i, align 8, !tbaa !55
  invoke void @_ZNSt8_Rb_treeImmSt9_IdentityImESt4lessImESaImEE8_M_eraseEPSt13_Rb_tree_nodeImE(ptr noundef nonnull align 8 dereferenceable(48) %__first.addr.04.i.i.i.i, ptr noundef %2)
          to label %_ZSt8_DestroyISt3setImSt4lessImESaImEEEvPT_.exit.i.i.i.i unwind label %terminate.lpad.i.i.i.i.i.i.i

terminate.lpad.i.i.i.i.i.i.i:                     ; preds = %for.body.i.i.i.i
  %3 = landingpad { ptr, i32 }
          catch ptr null
  %4 = extractvalue { ptr, i32 } %3, 0
  tail call void @__clang_call_terminate(ptr %4) #27
  unreachable

_ZSt8_DestroyISt3setImSt4lessImESaImEEEvPT_.exit.i.i.i.i: ; preds = %for.body.i.i.i.i
  %incdec.ptr.i.i.i.i = getelementptr inbounds %"class.std::set", ptr %__first.addr.04.i.i.i.i, i64 1
  %cmp.not.i.i.i.i = icmp eq ptr %incdec.ptr.i.i.i.i, %1
  br i1 %cmp.not.i.i.i.i, label %invoke.contthread-pre-split.i, label %for.body.i.i.i.i, !llvm.loop !59

invoke.contthread-pre-split.i:                    ; preds = %_ZSt8_DestroyISt3setImSt4lessImESaImEEEvPT_.exit.i.i.i.i
  %.pr.i = load ptr, ptr %grouping_sets, align 8, !tbaa !52
  br label %invoke.cont.i

invoke.cont.i:                                    ; preds = %invoke.contthread-pre-split.i, %entry
  %5 = phi ptr [ %.pr.i, %invoke.contthread-pre-split.i ], [ %0, %entry ]
  %tobool.not.i.i.i = icmp eq ptr %5, null
  br i1 %tobool.not.i.i.i, label %_ZNSt6vectorISt3setImSt4lessImESaImEESaIS4_EED2Ev.exit, label %if.then.i.i.i

if.then.i.i.i:                                    ; preds = %invoke.cont.i
  tail call void @_ZdlPv(ptr noundef nonnull %5) #26
  br label %_ZNSt6vectorISt3setImSt4lessImESaImEESaIS4_EED2Ev.exit

_ZNSt6vectorISt3setImSt4lessImESaImEESaIS4_EED2Ev.exit: ; preds = %if.then.i.i.i, %invoke.cont.i
  %6 = load ptr, ptr %this, align 8, !tbaa !60
  %_M_finish.i2 = getelementptr inbounds %"struct.std::_Vector_base<duckdb::unique_ptr<duckdb::ParsedExpression>, std::allocator<duckdb::unique_ptr<duckdb::ParsedExpression>>>::_Vector_impl_data", ptr %this, i64 0, i32 1
  %7 = load ptr, ptr %_M_finish.i2, align 8, !tbaa !61
  %cmp.not3.i.i.i.i3 = icmp eq ptr %6, %7
  br i1 %cmp.not3.i.i.i.i3, label %invoke.cont.i10, label %for.body.i.i.i.i4

for.body.i.i.i.i4:                                ; preds = %_ZNSt6vectorISt3setImSt4lessImESaImEESaIS4_EED2Ev.exit, %_ZSt8_DestroyIN6duckdb10unique_ptrINS0_16ParsedExpressionESt14default_deleteIS2_ELb1EEEEvPT_.exit.i.i.i.i
  %__first.addr.04.i.i.i.i5 = phi ptr [ %incdec.ptr.i.i.i.i6, %_ZSt8_DestroyIN6duckdb10unique_ptrINS0_16ParsedExpressionESt14default_deleteIS2_ELb1EEEEvPT_.exit.i.i.i.i ], [ %6, %_ZNSt6vectorISt3setImSt4lessImESaImEESaIS4_EED2Ev.exit ]
  %8 = load ptr, ptr %__first.addr.04.i.i.i.i5, align 8, !tbaa !11
  %cmp.not.i.i.i.i.i.i = icmp eq ptr %8, null
  br i1 %cmp.not.i.i.i.i.i.i, label %_ZSt8_DestroyIN6duckdb10unique_ptrINS0_16ParsedExpressionESt14default_deleteIS2_ELb1EEEEvPT_.exit.i.i.i.i, label %_ZNKSt14default_deleteIN6duckdb16ParsedExpressionEEclEPS1_.exit.i.i.i.i.i.i

_ZNKSt14default_deleteIN6duckdb16ParsedExpressionEEclEPS1_.exit.i.i.i.i.i.i: ; preds = %for.body.i.i.i.i4
  %vtable.i.i.i.i.i.i.i = load ptr, ptr %8, align 8, !tbaa !9
  %vfn.i.i.i.i.i.i.i = getelementptr inbounds ptr, ptr %vtable.i.i.i.i.i.i.i, i64 1
  %9 = load ptr, ptr %vfn.i.i.i.i.i.i.i, align 8
  tail call void %9(ptr noundef nonnull align 8 dereferenceable(56) %8) #24
  br label %_ZSt8_DestroyIN6duckdb10unique_ptrINS0_16ParsedExpressionESt14default_deleteIS2_ELb1EEEEvPT_.exit.i.i.i.i

_ZSt8_DestroyIN6duckdb10unique_ptrINS0_16ParsedExpressionESt14default_deleteIS2_ELb1EEEEvPT_.exit.i.i.i.i: ; preds = %_ZNKSt14default_deleteIN6duckdb16ParsedExpressionEEclEPS1_.exit.i.i.i.i.i.i, %for.body.i.i.i.i4
  store ptr null, ptr %__first.addr.04.i.i.i.i5, align 8, !tbaa !11
  %incdec.ptr.i.i.i.i6 = getelementptr inbounds %"class.duckdb::unique_ptr.90", ptr %__first.addr.04.i.i.i.i5, i64 1
  %cmp.not.i.i.i.i7 = icmp eq ptr %incdec.ptr.i.i.i.i6, %7
  br i1 %cmp.not.i.i.i.i7, label %invoke.contthread-pre-split.i8, label %for.body.i.i.i.i4, !llvm.loop !62

invoke.contthread-pre-split.i8:                   ; preds = %_ZSt8_DestroyIN6duckdb10unique_ptrINS0_16ParsedExpressionESt14default_deleteIS2_ELb1EEEEvPT_.exit.i.i.i.i
  %.pr.i9 = load ptr, ptr %this, align 8, !tbaa !60
  br label %invoke.cont.i10

invoke.cont.i10:                                  ; preds = %invoke.contthread-pre-split.i8, %_ZNSt6vectorISt3setImSt4lessImESaImEESaIS4_EED2Ev.exit
  %10 = phi ptr [ %.pr.i9, %invoke.contthread-pre-split.i8 ], [ %6, %_ZNSt6vectorISt3setImSt4lessImESaImEESaIS4_EED2Ev.exit ]
  %tobool.not.i.i.i11 = icmp eq ptr %10, null
  br i1 %tobool.not.i.i.i11, label %_ZNSt6vectorIN6duckdb10unique_ptrINS0_16ParsedExpressionESt14default_deleteIS2_ELb1EEESaIS5_EED2Ev.exit, label %if.then.i.i.i12

if.then.i.i.i12:                                  ; preds = %invoke.cont.i10
  tail call void @_ZdlPv(ptr noundef nonnull %10) #26
  br label %_ZNSt6vectorIN6duckdb10unique_ptrINS0_16ParsedExpressionESt14default_deleteIS2_ELb1EEESaIS5_EED2Ev.exit

_ZNSt6vectorIN6duckdb10unique_ptrINS0_16ParsedExpressionESt14default_deleteIS2_ELb1EEESaIS5_EED2Ev.exit: ; preds = %if.then.i.i.i12, %invoke.cont.i10
  ret void
}

; Function Attrs: mustprogress nounwind uwtable
define linkonce_odr void @_ZN6duckdb8RelationD2Ev(ptr noundef nonnull align 8 dereferenceable(64) %this) unnamed_addr #3 comdat align 2 personality ptr @__gxx_personality_v0 {
entry:
  store ptr getelementptr inbounds ({ [15 x ptr] }, ptr @_ZTVN6duckdb8RelationE, i64 0, inrange i32 0, i64 2), ptr %this, align 8, !tbaa !9
  %_M_refcount.i = getelementptr inbounds %"class.duckdb::Relation", ptr %this, i64 0, i32 4, i32 0, i32 1
  %0 = load ptr, ptr %_M_refcount.i, align 8, !tbaa !14
  %cmp.not.i.i = icmp eq ptr %0, null
  br i1 %cmp.not.i.i, label %_ZNSt12__shared_ptrIN6duckdb18ExternalDependencyELN9__gnu_cxx12_Lock_policyE2EED2Ev.exit, label %if.then.i.i

if.then.i.i:                                      ; preds = %entry
  %_M_use_count.i.i.i = getelementptr inbounds %"class.std::_Sp_counted_base", ptr %0, i64 0, i32 1
  %1 = load atomic i64, ptr %_M_use_count.i.i.i acquire, align 8
  %cmp.i.i.i = icmp eq i64 %1, 4294967297
  %2 = trunc i64 %1 to i32
  br i1 %cmp.i.i.i, label %if.then.i.i.i, label %if.end.i.i.i

if.then.i.i.i:                                    ; preds = %if.then.i.i
  store i32 0, ptr %_M_use_count.i.i.i, align 8, !tbaa !17
  %_M_weak_count.i.i.i = getelementptr inbounds %"class.std::_Sp_counted_base", ptr %0, i64 0, i32 2
  store i32 0, ptr %_M_weak_count.i.i.i, align 4, !tbaa !20
  %vtable.i.i.i = load ptr, ptr %0, align 8, !tbaa !9
  %vfn.i.i.i = getelementptr inbounds ptr, ptr %vtable.i.i.i, i64 2
  %3 = load ptr, ptr %vfn.i.i.i, align 8
  tail call void %3(ptr noundef nonnull align 8 dereferenceable(16) %0) #24
  %vtable3.i.i.i = load ptr, ptr %0, align 8, !tbaa !9
  %vfn4.i.i.i = getelementptr inbounds ptr, ptr %vtable3.i.i.i, i64 3
  %4 = load ptr, ptr %vfn4.i.i.i, align 8
  tail call void %4(ptr noundef nonnull align 8 dereferenceable(16) %0) #24
  br label %_ZNSt12__shared_ptrIN6duckdb18ExternalDependencyELN9__gnu_cxx12_Lock_policyE2EED2Ev.exit

if.end.i.i.i:                                     ; preds = %if.then.i.i
  %5 = load i8, ptr @__libc_single_threaded, align 1, !tbaa !21
  %tobool.i.i.not.i.i.i = icmp eq i8 %5, 0
  br i1 %tobool.i.i.not.i.i.i, label %if.else.i.i.i.i, label %if.then.i.i.i.i

if.then.i.i.i.i:                                  ; preds = %if.end.i.i.i
  %add.i.i.i.i = add nsw i32 %2, -1
  store i32 %add.i.i.i.i, ptr %_M_use_count.i.i.i, align 4, !tbaa !22
  br label %invoke.cont.i.i.i

if.else.i.i.i.i:                                  ; preds = %if.end.i.i.i
  %6 = atomicrmw volatile add ptr %_M_use_count.i.i.i, i32 -1 acq_rel, align 4
  br label %invoke.cont.i.i.i

invoke.cont.i.i.i:                                ; preds = %if.else.i.i.i.i, %if.then.i.i.i.i
  %retval.0.i.i.i.i = phi i32 [ %2, %if.then.i.i.i.i ], [ %6, %if.else.i.i.i.i ]
  %cmp6.i.i.i = icmp eq i32 %retval.0.i.i.i.i, 1
  br i1 %cmp6.i.i.i, label %if.then7.i.i.i, label %_ZNSt12__shared_ptrIN6duckdb18ExternalDependencyELN9__gnu_cxx12_Lock_policyE2EED2Ev.exit, !prof !23

if.then7.i.i.i:                                   ; preds = %invoke.cont.i.i.i
  tail call void @_ZNSt16_Sp_counted_baseILN9__gnu_cxx12_Lock_policyE2EE24_M_release_last_use_coldEv(ptr noundef nonnull align 8 dereferenceable(16) %0) #24
  br label %_ZNSt12__shared_ptrIN6duckdb18ExternalDependencyELN9__gnu_cxx12_Lock_policyE2EED2Ev.exit

_ZNSt12__shared_ptrIN6duckdb18ExternalDependencyELN9__gnu_cxx12_Lock_policyE2EED2Ev.exit: ; preds = %if.then7.i.i.i, %invoke.cont.i.i.i, %if.then.i.i.i, %entry
  %_M_refcount.i.i = getelementptr inbounds %"class.duckdb::Relation", ptr %this, i64 0, i32 2, i32 0, i32 0, i32 1
  %7 = load ptr, ptr %_M_refcount.i.i, align 8, !tbaa !27
  %cmp.not.i.i.i = icmp eq ptr %7, null
  br i1 %cmp.not.i.i.i, label %_ZN6duckdb20ClientContextWrapperD2Ev.exit, label %if.then.i.i.i2

if.then.i.i.i2:                                   ; preds = %_ZNSt12__shared_ptrIN6duckdb18ExternalDependencyELN9__gnu_cxx12_Lock_policyE2EED2Ev.exit
  %_M_weak_count.i.i.i.i = getelementptr inbounds %"class.std::_Sp_counted_base", ptr %7, i64 0, i32 2
  %8 = load i8, ptr @__libc_single_threaded, align 1, !tbaa !21
  %tobool.i.i.not.i.i.i.i = icmp eq i8 %8, 0
  br i1 %tobool.i.i.not.i.i.i.i, label %if.else.i.i.i.i.i, label %if.then.i.i.i.i.i

if.then.i.i.i.i.i:                                ; preds = %if.then.i.i.i2
  %9 = load i32, ptr %_M_weak_count.i.i.i.i, align 4, !tbaa !22
  %add.i.i.i.i.i = add nsw i32 %9, -1
  store i32 %add.i.i.i.i.i, ptr %_M_weak_count.i.i.i.i, align 4, !tbaa !22
  br label %invoke.cont.i.i.i.i

if.else.i.i.i.i.i:                                ; preds = %if.then.i.i.i2
  %10 = atomicrmw volatile add ptr %_M_weak_count.i.i.i.i, i32 -1 acq_rel, align 4
  br label %invoke.cont.i.i.i.i

invoke.cont.i.i.i.i:                              ; preds = %if.else.i.i.i.i.i, %if.then.i.i.i.i.i
  %retval.0.i.i.i.i.i = phi i32 [ %9, %if.then.i.i.i.i.i ], [ %10, %if.else.i.i.i.i.i ]
  %cmp.i.i.i.i = icmp eq i32 %retval.0.i.i.i.i.i, 1
  br i1 %cmp.i.i.i.i, label %if.then.i.i.i.i3, label %_ZN6duckdb20ClientContextWrapperD2Ev.exit

if.then.i.i.i.i3:                                 ; preds = %invoke.cont.i.i.i.i
  %vtable.i.i.i.i = load ptr, ptr %7, align 8, !tbaa !9
  %vfn.i.i.i.i = getelementptr inbounds ptr, ptr %vtable.i.i.i.i, i64 3
  %11 = load ptr, ptr %vfn.i.i.i.i, align 8
  tail call void %11(ptr noundef nonnull align 8 dereferenceable(16) %7) #24
  br label %_ZN6duckdb20ClientContextWrapperD2Ev.exit

_ZN6duckdb20ClientContextWrapperD2Ev.exit:        ; preds = %if.then.i.i.i.i3, %invoke.cont.i.i.i.i, %_ZNSt12__shared_ptrIN6duckdb18ExternalDependencyELN9__gnu_cxx12_Lock_policyE2EED2Ev.exit
  %_M_refcount.i.i4 = getelementptr inbounds i8, ptr %this, i64 16
  %12 = load ptr, ptr %_M_refcount.i.i4, align 8, !tbaa !27
  %cmp.not.i.i.i5 = icmp eq ptr %12, null
  br i1 %cmp.not.i.i.i5, label %_ZNSt23enable_shared_from_thisIN6duckdb8RelationEED2Ev.exit, label %if.then.i.i.i6

if.then.i.i.i6:                                   ; preds = %_ZN6duckdb20ClientContextWrapperD2Ev.exit
  %_M_weak_count.i.i.i.i7 = getelementptr inbounds %"class.std::_Sp_counted_base", ptr %12, i64 0, i32 2
  %13 = load i8, ptr @__libc_single_threaded, align 1, !tbaa !21
  %tobool.i.i.not.i.i.i.i8 = icmp eq i8 %13, 0
  br i1 %tobool.i.i.not.i.i.i.i8, label %if.else.i.i.i.i.i17, label %if.then.i.i.i.i.i9

if.then.i.i.i.i.i9:                               ; preds = %if.then.i.i.i6
  %14 = load i32, ptr %_M_weak_count.i.i.i.i7, align 4, !tbaa !22
  %add.i.i.i.i.i10 = add nsw i32 %14, -1
  store i32 %add.i.i.i.i.i10, ptr %_M_weak_count.i.i.i.i7, align 4, !tbaa !22
  br label %invoke.cont.i.i.i.i11

if.else.i.i.i.i.i17:                              ; preds = %if.then.i.i.i6
  %15 = atomicrmw volatile add ptr %_M_weak_count.i.i.i.i7, i32 -1 acq_rel, align 4
  br label %invoke.cont.i.i.i.i11

invoke.cont.i.i.i.i11:                            ; preds = %if.else.i.i.i.i.i17, %if.then.i.i.i.i.i9
  %retval.0.i.i.i.i.i12 = phi i32 [ %14, %if.then.i.i.i.i.i9 ], [ %15, %if.else.i.i.i.i.i17 ]
  %cmp.i.i.i.i13 = icmp eq i32 %retval.0.i.i.i.i.i12, 1
  br i1 %cmp.i.i.i.i13, label %if.then.i.i.i.i14, label %_ZNSt23enable_shared_from_thisIN6duckdb8RelationEED2Ev.exit

if.then.i.i.i.i14:                                ; preds = %invoke.cont.i.i.i.i11
  %vtable.i.i.i.i15 = load ptr, ptr %12, align 8, !tbaa !9
  %vfn.i.i.i.i16 = getelementptr inbounds ptr, ptr %vtable.i.i.i.i15, i64 3
  %16 = load ptr, ptr %vfn.i.i.i.i16, align 8
  tail call void %16(ptr noundef nonnull align 8 dereferenceable(16) %12) #24
  br label %_ZNSt23enable_shared_from_thisIN6duckdb8RelationEED2Ev.exit

_ZNSt23enable_shared_from_thisIN6duckdb8RelationEED2Ev.exit: ; preds = %if.then.i.i.i.i14, %invoke.cont.i.i.i.i11, %_ZN6duckdb20ClientContextWrapperD2Ev.exit
  ret void
}

; Function Attrs: mustprogress uwtable
define void @_ZN6duckdb17AggregateRelationC2ESt10shared_ptrINS_8RelationEENS_6vectorINS_10unique_ptrINS_16ParsedExpressionESt14default_deleteIS6_ELb1EEELb1EEENS_11GroupByNodeE(ptr noundef nonnull align 8 dereferenceable(176) %this, ptr nocapture noundef %child_p, ptr nocapture noundef %parsed_expressions, ptr nocapture noundef %groups_p) unnamed_addr #0 align 2 personality ptr @__gxx_personality_v0 {
entry:
  %ref.tmp = alloca %"class.std::shared_ptr.83", align 8
  %0 = load ptr, ptr %child_p, align 8, !tbaa !3
  %context = getelementptr inbounds %"class.duckdb::Relation", ptr %0, i64 0, i32 2
  tail call void @_ZN6duckdb8RelationC2ERNS_20ClientContextWrapperENS_12RelationTypeE(ptr noundef nonnull align 8 dereferenceable(64) %this, ptr noundef nonnull align 8 dereferenceable(16) %context, i8 noundef zeroext 7)
  store ptr getelementptr inbounds ({ [15 x ptr] }, ptr @_ZTVN6duckdb17AggregateRelationE, i64 0, inrange i32 0, i64 2), ptr %this, align 8, !tbaa !9
  %expressions = getelementptr inbounds %"class.duckdb::AggregateRelation", ptr %this, i64 0, i32 1
  %1 = load <2 x ptr>, ptr %parsed_expressions, align 8, !tbaa !11
  store <2 x ptr> %1, ptr %expressions, align 8, !tbaa !11
  %_M_end_of_storage.i.i.i.i.i = getelementptr inbounds %"class.duckdb::AggregateRelation", ptr %this, i64 0, i32 1, i32 0, i32 0, i32 0, i32 0, i32 2
  %_M_end_of_storage4.i.i.i.i.i = getelementptr inbounds %"struct.std::_Vector_base<duckdb::unique_ptr<duckdb::ParsedExpression>, std::allocator<duckdb::unique_ptr<duckdb::ParsedExpression>>>::_Vector_impl_data", ptr %parsed_expressions, i64 0, i32 2
  %2 = load ptr, ptr %_M_end_of_storage4.i.i.i.i.i, align 8, !tbaa !12
  store ptr %2, ptr %_M_end_of_storage.i.i.i.i.i, align 8, !tbaa !12
  tail call void @llvm.memset.p0.i64(ptr noundef nonnull align 8 dereferenceable(24) %parsed_expressions, i8 0, i64 24, i1 false)
  %groups = getelementptr inbounds %"class.duckdb::AggregateRelation", ptr %this, i64 0, i32 2
  %3 = load <2 x ptr>, ptr %groups_p, align 8, !tbaa !11
  store <2 x ptr> %3, ptr %groups, align 8, !tbaa !11
  %_M_end_of_storage.i.i.i.i.i.i = getelementptr inbounds %"class.duckdb::AggregateRelation", ptr %this, i64 0, i32 2, i32 0, i32 0, i32 0, i32 0, i32 0, i32 2
  %_M_end_of_storage4.i.i.i.i.i.i = getelementptr inbounds %"struct.std::_Vector_base<duckdb::unique_ptr<duckdb::ParsedExpression>, std::allocator<duckdb::unique_ptr<duckdb::ParsedExpression>>>::_Vector_impl_data", ptr %groups_p, i64 0, i32 2
  %4 = load ptr, ptr %_M_end_of_storage4.i.i.i.i.i.i, align 8, !tbaa !12
  store ptr %4, ptr %_M_end_of_storage.i.i.i.i.i.i, align 8, !tbaa !12
  tail call void @llvm.memset.p0.i64(ptr noundef nonnull align 8 dereferenceable(24) %groups_p, i8 0, i64 24, i1 false)
  %grouping_sets.i = getelementptr inbounds %"class.duckdb::AggregateRelation", ptr %this, i64 0, i32 2, i32 1
  %grouping_sets3.i = getelementptr inbounds %"class.duckdb::GroupByNode", ptr %groups_p, i64 0, i32 1
  %5 = load <2 x ptr>, ptr %grouping_sets3.i, align 8, !tbaa !11
  store <2 x ptr> %5, ptr %grouping_sets.i, align 8, !tbaa !11
  %_M_end_of_storage.i.i.i.i.i7.i = getelementptr inbounds %"class.duckdb::AggregateRelation", ptr %this, i64 0, i32 2, i32 1, i32 0, i32 0, i32 0, i32 0, i32 2
  %_M_end_of_storage4.i.i.i.i.i8.i = getelementptr inbounds %"class.duckdb::GroupByNode", ptr %groups_p, i64 0, i32 1, i32 0, i32 0, i32 0, i32 0, i32 2
  %6 = load ptr, ptr %_M_end_of_storage4.i.i.i.i.i8.i, align 8, !tbaa !63
  store ptr %6, ptr %_M_end_of_storage.i.i.i.i.i7.i, align 8, !tbaa !63
  tail call void @llvm.memset.p0.i64(ptr noundef nonnull align 8 dereferenceable(24) %grouping_sets3.i, i8 0, i64 24, i1 false)
  %columns = getelementptr inbounds %"class.duckdb::AggregateRelation", ptr %this, i64 0, i32 3
  tail call void @llvm.memset.p0.i64(ptr noundef nonnull align 8 dereferenceable(24) %columns, i8 0, i64 24, i1 false)
  %child = getelementptr inbounds %"class.duckdb::AggregateRelation", ptr %this, i64 0, i32 4
  %_M_refcount.i.i = getelementptr inbounds %"class.duckdb::AggregateRelation", ptr %this, i64 0, i32 4, i32 0, i32 1
  store ptr null, ptr %_M_refcount.i.i, align 8, !tbaa !14
  %_M_refcount4.i.i = getelementptr inbounds %"class.std::__shared_ptr", ptr %child_p, i64 0, i32 1
  %7 = load <2 x ptr>, ptr %child_p, align 8, !tbaa !11
  store ptr null, ptr %_M_refcount4.i.i, align 8, !tbaa !14
  store <2 x ptr> %7, ptr %child, align 8, !tbaa !11
  store ptr null, ptr %child_p, align 8, !tbaa !3
  call void @llvm.lifetime.start.p0(i64 16, ptr nonnull %ref.tmp) #24
  %context2 = getelementptr inbounds %"class.duckdb::Relation", ptr %this, i64 0, i32 2
  invoke void @_ZN6duckdb20ClientContextWrapper10GetContextEv(ptr nonnull sret(%"class.std::shared_ptr.83") align 8 %ref.tmp, ptr noundef nonnull align 8 dereferenceable(16) %context2)
          to label %invoke.cont unwind label %lpad

invoke.cont:                                      ; preds = %entry
  %8 = load ptr, ptr %ref.tmp, align 8, !tbaa !15
  invoke void @_ZN6duckdb13ClientContext15TryBindRelationERNS_8RelationERNS_6vectorINS_16ColumnDefinitionELb1EEE(ptr noundef nonnull align 8 dereferenceable(592) %8, ptr noundef nonnull align 8 dereferenceable(64) %this, ptr noundef nonnull align 8 dereferenceable(24) %columns)
          to label %invoke.cont6 unwind label %lpad5

invoke.cont6:                                     ; preds = %invoke.cont
  %_M_refcount.i = getelementptr inbounds %"class.std::__shared_ptr.84", ptr %ref.tmp, i64 0, i32 1
  %9 = load ptr, ptr %_M_refcount.i, align 8, !tbaa !14
  %cmp.not.i.i = icmp eq ptr %9, null
  br i1 %cmp.not.i.i, label %_ZNSt12__shared_ptrIN6duckdb13ClientContextELN9__gnu_cxx12_Lock_policyE2EED2Ev.exit, label %if.then.i.i

if.then.i.i:                                      ; preds = %invoke.cont6
  %_M_use_count.i.i.i = getelementptr inbounds %"class.std::_Sp_counted_base", ptr %9, i64 0, i32 1
  %10 = load atomic i64, ptr %_M_use_count.i.i.i acquire, align 8
  %cmp.i.i.i = icmp eq i64 %10, 4294967297
  %11 = trunc i64 %10 to i32
  br i1 %cmp.i.i.i, label %if.then.i.i.i, label %if.end.i.i.i

if.then.i.i.i:                                    ; preds = %if.then.i.i
  store i32 0, ptr %_M_use_count.i.i.i, align 8, !tbaa !17
  %_M_weak_count.i.i.i = getelementptr inbounds %"class.std::_Sp_counted_base", ptr %9, i64 0, i32 2
  store i32 0, ptr %_M_weak_count.i.i.i, align 4, !tbaa !20
  %vtable.i.i.i = load ptr, ptr %9, align 8, !tbaa !9
  %vfn.i.i.i = getelementptr inbounds ptr, ptr %vtable.i.i.i, i64 2
  %12 = load ptr, ptr %vfn.i.i.i, align 8
  call void %12(ptr noundef nonnull align 8 dereferenceable(16) %9) #24
  %vtable3.i.i.i = load ptr, ptr %9, align 8, !tbaa !9
  %vfn4.i.i.i = getelementptr inbounds ptr, ptr %vtable3.i.i.i, i64 3
  %13 = load ptr, ptr %vfn4.i.i.i, align 8
  call void %13(ptr noundef nonnull align 8 dereferenceable(16) %9) #24
  br label %_ZNSt12__shared_ptrIN6duckdb13ClientContextELN9__gnu_cxx12_Lock_policyE2EED2Ev.exit

if.end.i.i.i:                                     ; preds = %if.then.i.i
  %14 = load i8, ptr @__libc_single_threaded, align 1, !tbaa !21
  %tobool.i.i.not.i.i.i = icmp eq i8 %14, 0
  br i1 %tobool.i.i.not.i.i.i, label %if.else.i.i.i.i, label %if.then.i.i.i.i

if.then.i.i.i.i:                                  ; preds = %if.end.i.i.i
  %add.i.i.i.i = add nsw i32 %11, -1
  store i32 %add.i.i.i.i, ptr %_M_use_count.i.i.i, align 4, !tbaa !22
  br label %invoke.cont.i.i.i

if.else.i.i.i.i:                                  ; preds = %if.end.i.i.i
  %15 = atomicrmw volatile add ptr %_M_use_count.i.i.i, i32 -1 acq_rel, align 4
  br label %invoke.cont.i.i.i

invoke.cont.i.i.i:                                ; preds = %if.else.i.i.i.i, %if.then.i.i.i.i
  %retval.0.i.i.i.i = phi i32 [ %11, %if.then.i.i.i.i ], [ %15, %if.else.i.i.i.i ]
  %cmp6.i.i.i = icmp eq i32 %retval.0.i.i.i.i, 1
  br i1 %cmp6.i.i.i, label %if.then7.i.i.i, label %_ZNSt12__shared_ptrIN6duckdb13ClientContextELN9__gnu_cxx12_Lock_policyE2EED2Ev.exit, !prof !23

if.then7.i.i.i:                                   ; preds = %invoke.cont.i.i.i
  call void @_ZNSt16_Sp_counted_baseILN9__gnu_cxx12_Lock_policyE2EE24_M_release_last_use_coldEv(ptr noundef nonnull align 8 dereferenceable(16) %9) #24
  br label %_ZNSt12__shared_ptrIN6duckdb13ClientContextELN9__gnu_cxx12_Lock_policyE2EED2Ev.exit

_ZNSt12__shared_ptrIN6duckdb13ClientContextELN9__gnu_cxx12_Lock_policyE2EED2Ev.exit: ; preds = %if.then7.i.i.i, %invoke.cont.i.i.i, %if.then.i.i.i, %invoke.cont6
  call void @llvm.lifetime.end.p0(i64 16, ptr nonnull %ref.tmp) #24
  ret void

lpad:                                             ; preds = %entry
  %16 = landingpad { ptr, i32 }
          cleanup
  br label %ehcleanup

lpad5:                                            ; preds = %invoke.cont
  %17 = landingpad { ptr, i32 }
          cleanup
  call void @_ZNSt12__shared_ptrIN6duckdb13ClientContextELN9__gnu_cxx12_Lock_policyE2EED2Ev(ptr noundef nonnull align 8 dereferenceable(16) %ref.tmp) #24
  br label %ehcleanup

ehcleanup:                                        ; preds = %lpad5, %lpad
  %.pn = phi { ptr, i32 } [ %17, %lpad5 ], [ %16, %lpad ]
  call void @llvm.lifetime.end.p0(i64 16, ptr nonnull %ref.tmp) #24
  call void @_ZNSt12__shared_ptrIN6duckdb8RelationELN9__gnu_cxx12_Lock_policyE2EED2Ev(ptr noundef nonnull align 8 dereferenceable(16) %child) #24
  call void @_ZNSt6vectorIN6duckdb16ColumnDefinitionESaIS1_EED2Ev(ptr noundef nonnull align 8 dereferenceable(24) %columns) #24
  call void @_ZN6duckdb11GroupByNodeD2Ev(ptr noundef nonnull align 8 dereferenceable(48) %groups) #24
  call void @_ZNSt6vectorIN6duckdb10unique_ptrINS0_16ParsedExpressionESt14default_deleteIS2_ELb1EEESaIS5_EED2Ev(ptr noundef nonnull align 8 dereferenceable(24) %expressions) #24
  call void @_ZN6duckdb8RelationD2Ev(ptr noundef nonnull align 8 dereferenceable(64) %this) #24
  resume { ptr, i32 } %.pn
}

; Function Attrs: mustprogress uwtable
define void @_ZN6duckdb17AggregateRelationC2ESt10shared_ptrINS_8RelationEENS_6vectorINS_10unique_ptrINS_16ParsedExpressionESt14default_deleteIS6_ELb1EEELb1EEESA_(ptr noundef nonnull align 8 dereferenceable(176) %this, ptr nocapture noundef %child_p, ptr nocapture noundef %parsed_expressions, ptr noundef %groups_p) unnamed_addr #0 align 2 personality ptr @__gxx_personality_v0 {
entry:
  %grouping_set = alloca %"class.std::set", align 8
  %ref.tmp = alloca %"class.std::shared_ptr.83", align 8
  %0 = load ptr, ptr %child_p, align 8, !tbaa !3
  %context = getelementptr inbounds %"class.duckdb::Relation", ptr %0, i64 0, i32 2
  tail call void @_ZN6duckdb8RelationC2ERNS_20ClientContextWrapperENS_12RelationTypeE(ptr noundef nonnull align 8 dereferenceable(64) %this, ptr noundef nonnull align 8 dereferenceable(16) %context, i8 noundef zeroext 7)
  store ptr getelementptr inbounds ({ [15 x ptr] }, ptr @_ZTVN6duckdb17AggregateRelationE, i64 0, inrange i32 0, i64 2), ptr %this, align 8, !tbaa !9
  %expressions = getelementptr inbounds %"class.duckdb::AggregateRelation", ptr %this, i64 0, i32 1
  %1 = load <2 x ptr>, ptr %parsed_expressions, align 8, !tbaa !11
  store <2 x ptr> %1, ptr %expressions, align 8, !tbaa !11
  %_M_end_of_storage.i.i.i.i.i = getelementptr inbounds %"class.duckdb::AggregateRelation", ptr %this, i64 0, i32 1, i32 0, i32 0, i32 0, i32 0, i32 2
  %_M_end_of_storage4.i.i.i.i.i = getelementptr inbounds %"struct.std::_Vector_base<duckdb::unique_ptr<duckdb::ParsedExpression>, std::allocator<duckdb::unique_ptr<duckdb::ParsedExpression>>>::_Vector_impl_data", ptr %parsed_expressions, i64 0, i32 2
  %2 = load ptr, ptr %_M_end_of_storage4.i.i.i.i.i, align 8, !tbaa !12
  store ptr %2, ptr %_M_end_of_storage.i.i.i.i.i, align 8, !tbaa !12
  tail call void @llvm.memset.p0.i64(ptr noundef nonnull align 8 dereferenceable(24) %parsed_expressions, i8 0, i64 24, i1 false)
  %groups = getelementptr inbounds %"class.duckdb::AggregateRelation", ptr %this, i64 0, i32 2
  %columns = getelementptr inbounds %"class.duckdb::AggregateRelation", ptr %this, i64 0, i32 3
  %child = getelementptr inbounds %"class.duckdb::AggregateRelation", ptr %this, i64 0, i32 4
  tail call void @llvm.memset.p0.i64(ptr noundef nonnull align 8 dereferenceable(72) %groups, i8 0, i64 72, i1 false)
  %_M_refcount.i.i = getelementptr inbounds %"class.duckdb::AggregateRelation", ptr %this, i64 0, i32 4, i32 0, i32 1
  store ptr null, ptr %_M_refcount.i.i, align 8, !tbaa !14
  %_M_refcount4.i.i = getelementptr inbounds %"class.std::__shared_ptr", ptr %child_p, i64 0, i32 1
  %3 = load <2 x ptr>, ptr %child_p, align 8, !tbaa !11
  store ptr null, ptr %_M_refcount4.i.i, align 8, !tbaa !14
  store <2 x ptr> %3, ptr %child, align 8, !tbaa !11
  store ptr null, ptr %child_p, align 8, !tbaa !3
  %4 = load ptr, ptr %groups_p, align 8, !tbaa !11
  %_M_finish.i.i = getelementptr inbounds %"struct.std::_Vector_base<duckdb::unique_ptr<duckdb::ParsedExpression>, std::allocator<duckdb::unique_ptr<duckdb::ParsedExpression>>>::_Vector_impl_data", ptr %groups_p, i64 0, i32 1
  %5 = load ptr, ptr %_M_finish.i.i, align 8, !tbaa !11
  %cmp.i.i = icmp eq ptr %4, %5
  br i1 %cmp.i.i, label %if.end, label %for.body.lr.ph

for.body.lr.ph:                                   ; preds = %entry
  call void @llvm.lifetime.start.p0(i64 48, ptr nonnull %grouping_set) #24
  %6 = getelementptr inbounds i8, ptr %grouping_set, i64 8
  store i32 0, ptr %6, align 8, !tbaa !64
  %_M_parent.i.i.i.i.i = getelementptr inbounds i8, ptr %grouping_set, i64 16
  store ptr null, ptr %_M_parent.i.i.i.i.i, align 8, !tbaa !55
  %_M_left.i.i.i.i.i = getelementptr inbounds i8, ptr %grouping_set, i64 24
  store ptr %6, ptr %_M_left.i.i.i.i.i, align 8, !tbaa !65
  %_M_right.i.i.i.i.i = getelementptr inbounds i8, ptr %grouping_set, i64 32
  store ptr %6, ptr %_M_right.i.i.i.i.i, align 8, !tbaa !66
  %_M_node_count.i.i.i.i.i = getelementptr inbounds i8, ptr %grouping_set, i64 40
  store i64 0, ptr %_M_node_count.i.i.i.i.i, align 8, !tbaa !67
  %_M_finish.i.i33 = getelementptr inbounds %"class.duckdb::AggregateRelation", ptr %this, i64 0, i32 2, i32 0, i32 0, i32 0, i32 0, i32 0, i32 1
  %_M_end_of_storage.i.i34 = getelementptr inbounds %"class.duckdb::AggregateRelation", ptr %this, i64 0, i32 2, i32 0, i32 0, i32 0, i32 0, i32 0, i32 2
  br label %for.body

for.cond.cleanup:                                 ; preds = %invoke.cont7
  %_M_end_of_storage.i.i.phi.trans.insert = getelementptr inbounds %"class.duckdb::AggregateRelation", ptr %this, i64 0, i32 2, i32 1, i32 0, i32 0, i32 0, i32 0, i32 2
  %.pre = load ptr, ptr %_M_end_of_storage.i.i.phi.trans.insert, align 8, !tbaa !63
  %_M_finish.i.i32 = getelementptr inbounds %"class.duckdb::AggregateRelation", ptr %this, i64 0, i32 2, i32 1, i32 0, i32 0, i32 0, i32 0, i32 1
  %7 = load ptr, ptr %_M_finish.i.i32, align 8, !tbaa !11
  %cmp.not.i.i = icmp eq ptr %7, %.pre
  br i1 %cmp.not.i.i, label %if.else.i.i, label %if.then.i.i

if.then.i.i:                                      ; preds = %for.cond.cleanup
  %8 = getelementptr inbounds i8, ptr %7, i64 8
  %9 = load ptr, ptr %_M_parent.i.i.i.i.i, align 8, !tbaa !55
  %cmp.not.i.i.i.i.i.i.i.i = icmp eq ptr %9, null
  br i1 %cmp.not.i.i.i.i.i.i.i.i, label %if.else.i.i.i.i.i.i.i.i, label %if.then.i.i.i.i.i.i.i.i

if.then.i.i.i.i.i.i.i.i:                          ; preds = %if.then.i.i
  %10 = load i32, ptr %6, align 8, !tbaa !64
  %_M_parent6.i.i.i.i.i.i.i.i.i = getelementptr inbounds i8, ptr %7, i64 16
  store ptr %9, ptr %_M_parent6.i.i.i.i.i.i.i.i.i, align 8, !tbaa !55
  %_M_left9.i.i.i.i.i.i.i.i.i = getelementptr inbounds i8, ptr %7, i64 24
  %11 = load <2 x ptr>, ptr %_M_left.i.i.i.i.i, align 8, !tbaa !11
  store <2 x ptr> %11, ptr %_M_left9.i.i.i.i.i.i.i.i.i, align 8, !tbaa !11
  %_M_parent16.i.i.i.i.i.i.i.i.i = getelementptr inbounds %"struct.std::_Rb_tree_node_base", ptr %9, i64 0, i32 1
  store ptr %8, ptr %_M_parent16.i.i.i.i.i.i.i.i.i, align 8, !tbaa !68
  %12 = load i64, ptr %_M_node_count.i.i.i.i.i, align 8, !tbaa !67
  %_M_node_count17.i.i.i.i.i.i.i.i.i = getelementptr inbounds i8, ptr %7, i64 40
  store i64 %12, ptr %_M_node_count17.i.i.i.i.i.i.i.i.i, align 8, !tbaa !67
  store ptr null, ptr %_M_parent.i.i.i.i.i, align 8, !tbaa !55
  store ptr %6, ptr %_M_left.i.i.i.i.i, align 8, !tbaa !65
  store ptr %6, ptr %_M_right.i.i.i.i.i, align 8, !tbaa !66
  br label %_ZNSt16allocator_traitsISaISt3setImSt4lessImESaImEEEE9constructIS4_JS4_EEEvRS5_PT_DpOT0_.exit.i.i

if.else.i.i.i.i.i.i.i.i:                          ; preds = %if.then.i.i
  %_M_parent.i5.i.i.i.i.i.i.i.i = getelementptr inbounds i8, ptr %7, i64 16
  store ptr null, ptr %_M_parent.i5.i.i.i.i.i.i.i.i, align 8, !tbaa !55
  %_M_left.i6.i.i.i.i.i.i.i.i = getelementptr inbounds i8, ptr %7, i64 24
  store ptr %8, ptr %_M_left.i6.i.i.i.i.i.i.i.i, align 8, !tbaa !65
  %_M_right.i7.i.i.i.i.i.i.i.i = getelementptr inbounds i8, ptr %7, i64 32
  store ptr %8, ptr %_M_right.i7.i.i.i.i.i.i.i.i, align 8, !tbaa !66
  %_M_node_count.i8.i.i.i.i.i.i.i.i = getelementptr inbounds i8, ptr %7, i64 40
  br label %_ZNSt16allocator_traitsISaISt3setImSt4lessImESaImEEEE9constructIS4_JS4_EEEvRS5_PT_DpOT0_.exit.i.i

_ZNSt16allocator_traitsISaISt3setImSt4lessImESaImEEEE9constructIS4_JS4_EEEvRS5_PT_DpOT0_.exit.i.i: ; preds = %if.else.i.i.i.i.i.i.i.i, %if.then.i.i.i.i.i.i.i.i
  %_M_node_count.i8.sink.i.i.i.i.i.i.i.i = phi ptr [ %_M_node_count.i8.i.i.i.i.i.i.i.i, %if.else.i.i.i.i.i.i.i.i ], [ %_M_node_count.i.i.i.i.i, %if.then.i.i.i.i.i.i.i.i ]
  %.sink.i.i.i.i.i.i.i.i = phi i32 [ 0, %if.else.i.i.i.i.i.i.i.i ], [ %10, %if.then.i.i.i.i.i.i.i.i ]
  store i64 0, ptr %_M_node_count.i8.sink.i.i.i.i.i.i.i.i, align 8, !tbaa !67
  store i32 %.sink.i.i.i.i.i.i.i.i, ptr %8, align 8
  %13 = load ptr, ptr %_M_finish.i.i32, align 8, !tbaa !54
  %incdec.ptr.i.i = getelementptr inbounds %"class.std::set", ptr %13, i64 1
  store ptr %incdec.ptr.i.i, ptr %_M_finish.i.i32, align 8, !tbaa !54
  br label %invoke.cont11

if.else.i.i:                                      ; preds = %for.cond.cleanup
  %grouping_sets = getelementptr inbounds %"class.duckdb::AggregateRelation", ptr %this, i64 0, i32 2, i32 1
  invoke void @_ZNSt6vectorISt3setImSt4lessImESaImEESaIS4_EE17_M_realloc_insertIJS4_EEEvN9__gnu_cxx17__normal_iteratorIPS4_S6_EEDpOT_(ptr noundef nonnull align 8 dereferenceable(24) %grouping_sets, ptr %.pre, ptr noundef nonnull align 8 dereferenceable(48) %grouping_set)
          to label %invoke.cont11 unwind label %lpad10

for.body:                                         ; preds = %invoke.cont7, %for.body.lr.ph
  %storemerge53 = phi i64 [ 0, %for.body.lr.ph ], [ %inc, %invoke.cont7 ]
  %call5 = invoke noundef nonnull align 8 dereferenceable(8) ptr @_ZN6duckdb6vectorINS_10unique_ptrINS_16ParsedExpressionESt14default_deleteIS2_ELb1EEELb1EEixEm(ptr noundef nonnull align 8 dereferenceable(24) %groups_p, i64 noundef %storemerge53)
          to label %invoke.cont unwind label %lpad

invoke.cont:                                      ; preds = %for.body
  %14 = load ptr, ptr %_M_finish.i.i33, align 8, !tbaa !11
  %15 = load ptr, ptr %_M_end_of_storage.i.i34, align 8, !tbaa !12
  %cmp.not.i.i35 = icmp eq ptr %14, %15
  br i1 %cmp.not.i.i35, label %if.else.i.i38, label %if.then.i.i36

if.then.i.i36:                                    ; preds = %invoke.cont
  %16 = load i64, ptr %call5, align 8, !tbaa !11
  store i64 %16, ptr %14, align 8, !tbaa !11
  store ptr null, ptr %call5, align 8, !tbaa !11
  %17 = load ptr, ptr %_M_finish.i.i33, align 8, !tbaa !61
  %incdec.ptr.i.i37 = getelementptr inbounds %"class.duckdb::unique_ptr.90", ptr %17, i64 1
  store ptr %incdec.ptr.i.i37, ptr %_M_finish.i.i33, align 8, !tbaa !61
  br label %invoke.cont6

if.else.i.i38:                                    ; preds = %invoke.cont
  invoke void @_ZNSt6vectorIN6duckdb10unique_ptrINS0_16ParsedExpressionESt14default_deleteIS2_ELb1EEESaIS5_EE17_M_realloc_insertIJS5_EEEvN9__gnu_cxx17__normal_iteratorIPS5_S7_EEDpOT_(ptr noundef nonnull align 8 dereferenceable(24) %groups, ptr %14, ptr noundef nonnull align 8 dereferenceable(8) %call5)
          to label %invoke.cont6 unwind label %lpad

invoke.cont6:                                     ; preds = %if.else.i.i38, %if.then.i.i36
  %__x.042.i.i.i = load ptr, ptr %_M_parent.i.i.i.i.i, align 8, !tbaa !11
  %cmp.not43.i.i.i = icmp eq ptr %__x.042.i.i.i, null
  br i1 %cmp.not43.i.i.i, label %if.then.i.i.i, label %while.body.i.i.i

while.body.i.i.i:                                 ; preds = %invoke.cont6, %while.body.i.i.i
  %__x.044.i.i.i = phi ptr [ %__x.0.i.i.i, %while.body.i.i.i ], [ %__x.042.i.i.i, %invoke.cont6 ]
  %_M_storage.i.i.i.i.i = getelementptr inbounds %"struct.std::_Rb_tree_node", ptr %__x.044.i.i.i, i64 0, i32 1
  %18 = load i64, ptr %_M_storage.i.i.i.i.i, align 8, !tbaa !69
  %cmp.i.i.i.i = icmp ult i64 %storemerge53, %18
  %_M_left.i.i.i.i = getelementptr inbounds %"struct.std::_Rb_tree_node_base", ptr %__x.044.i.i.i, i64 0, i32 2
  %_M_right.i.i.i.i = getelementptr inbounds %"struct.std::_Rb_tree_node_base", ptr %__x.044.i.i.i, i64 0, i32 3
  %cond.in.i.i.i = select i1 %cmp.i.i.i.i, ptr %_M_left.i.i.i.i, ptr %_M_right.i.i.i.i
  %__x.0.i.i.i = load ptr, ptr %cond.in.i.i.i, align 8, !tbaa !11
  %cmp.not.i.i.i = icmp eq ptr %__x.0.i.i.i, null
  br i1 %cmp.not.i.i.i, label %while.end.i.i.i, label %while.body.i.i.i, !llvm.loop !70

while.end.i.i.i:                                  ; preds = %while.body.i.i.i
  br i1 %cmp.i.i.i.i, label %if.then.i.i.i, label %if.end12.i.i.i

if.then.i.i.i:                                    ; preds = %while.end.i.i.i, %invoke.cont6
  %__y.0.lcssa48.i.i.i = phi ptr [ %__x.044.i.i.i, %while.end.i.i.i ], [ %6, %invoke.cont6 ]
  %19 = load ptr, ptr %_M_left.i.i.i.i.i, align 8, !tbaa !65
  %cmp.i27.i.i.i = icmp eq ptr %__y.0.lcssa48.i.i.i, %19
  br i1 %cmp.i27.i.i.i, label %if.then.i.i41, label %if.else.i.i.i

if.else.i.i.i:                                    ; preds = %if.then.i.i.i
  %call.i.i.i.i = call noundef ptr @_ZSt18_Rb_tree_decrementPSt18_Rb_tree_node_base(ptr noundef nonnull %__y.0.lcssa48.i.i.i) #28
  %_M_storage.i.i.i.i.phi.trans.insert.i.i = getelementptr inbounds %"struct.std::_Rb_tree_node", ptr %call.i.i.i.i, i64 0, i32 1
  %.pre.i.i = load i64, ptr %_M_storage.i.i.i.i.phi.trans.insert.i.i, align 8, !tbaa !69
  br label %if.end12.i.i.i

if.end12.i.i.i:                                   ; preds = %if.else.i.i.i, %while.end.i.i.i
  %20 = phi i64 [ %.pre.i.i, %if.else.i.i.i ], [ %18, %while.end.i.i.i ]
  %__y.0.lcssa49.i.i.i = phi ptr [ %__y.0.lcssa48.i.i.i, %if.else.i.i.i ], [ %__x.044.i.i.i, %while.end.i.i.i ]
  %cmp.i28.i.i.i = icmp ult i64 %20, %storemerge53
  br i1 %cmp.i28.i.i.i, label %if.then.i.i41, label %invoke.cont7

if.then.i.i41:                                    ; preds = %if.end12.i.i.i, %if.then.i.i.i
  %retval.sroa.4.0.i.ph.i.i = phi ptr [ %__y.0.lcssa48.i.i.i, %if.then.i.i.i ], [ %__y.0.lcssa49.i.i.i, %if.end12.i.i.i ]
  %cmp2.i.i.i = icmp eq ptr %6, %retval.sroa.4.0.i.ph.i.i
  br i1 %cmp2.i.i.i, label %_ZNSt8_Rb_treeImmSt9_IdentityImESt4lessImESaImEE10_M_insert_IRKmNS5_11_Alloc_nodeEEESt17_Rb_tree_iteratorImEPSt18_Rb_tree_node_baseSD_OT_RT0_.exit.i.i, label %lor.rhs.i.i.i

lor.rhs.i.i.i:                                    ; preds = %if.then.i.i41
  %_M_storage.i.i.i.i15.i.i = getelementptr inbounds %"struct.std::_Rb_tree_node", ptr %retval.sroa.4.0.i.ph.i.i, i64 0, i32 1
  %21 = load i64, ptr %_M_storage.i.i.i.i15.i.i, align 8, !tbaa !69
  %cmp.i.i16.i.i = icmp ult i64 %storemerge53, %21
  br label %_ZNSt8_Rb_treeImmSt9_IdentityImESt4lessImESaImEE10_M_insert_IRKmNS5_11_Alloc_nodeEEESt17_Rb_tree_iteratorImEPSt18_Rb_tree_node_baseSD_OT_RT0_.exit.i.i

_ZNSt8_Rb_treeImmSt9_IdentityImESt4lessImESaImEE10_M_insert_IRKmNS5_11_Alloc_nodeEEESt17_Rb_tree_iteratorImEPSt18_Rb_tree_node_baseSD_OT_RT0_.exit.i.i: ; preds = %lor.rhs.i.i.i, %if.then.i.i41
  %22 = phi i1 [ true, %if.then.i.i41 ], [ %cmp.i.i16.i.i, %lor.rhs.i.i.i ]
  %call5.i.i.i.i.i.i.i.i42 = invoke noalias noundef nonnull dereferenceable(40) ptr @_Znwm(i64 noundef 40) #29
          to label %call5.i.i.i.i.i.i.i.i.noexc unwind label %lpad

call5.i.i.i.i.i.i.i.i.noexc:                      ; preds = %_ZNSt8_Rb_treeImmSt9_IdentityImESt4lessImESaImEE10_M_insert_IRKmNS5_11_Alloc_nodeEEESt17_Rb_tree_iteratorImEPSt18_Rb_tree_node_baseSD_OT_RT0_.exit.i.i
  %_M_storage.i.i.i.i.i.i.i = getelementptr inbounds %"struct.std::_Rb_tree_node", ptr %call5.i.i.i.i.i.i.i.i42, i64 0, i32 1
  store i64 %storemerge53, ptr %_M_storage.i.i.i.i.i.i.i, align 8, !tbaa !69
  call void @_ZSt29_Rb_tree_insert_and_rebalancebPSt18_Rb_tree_node_baseS0_RS_(i1 noundef zeroext %22, ptr noundef nonnull %call5.i.i.i.i.i.i.i.i42, ptr noundef nonnull %retval.sroa.4.0.i.ph.i.i, ptr noundef nonnull align 8 dereferenceable(32) %6) #24
  %23 = load i64, ptr %_M_node_count.i.i.i.i.i, align 8, !tbaa !67
  %inc.i.i.i = add i64 %23, 1
  store i64 %inc.i.i.i, ptr %_M_node_count.i.i.i.i.i, align 8, !tbaa !67
  br label %invoke.cont7

invoke.cont7:                                     ; preds = %call5.i.i.i.i.i.i.i.i.noexc, %if.end12.i.i.i
  %inc = add nuw i64 %storemerge53, 1
  %24 = load ptr, ptr %_M_finish.i.i, align 8, !tbaa !61
  %25 = load ptr, ptr %groups_p, align 8, !tbaa !60
  %sub.ptr.lhs.cast.i = ptrtoint ptr %24 to i64
  %sub.ptr.rhs.cast.i = ptrtoint ptr %25 to i64
  %sub.ptr.sub.i = sub i64 %sub.ptr.lhs.cast.i, %sub.ptr.rhs.cast.i
  %sub.ptr.div.i = ashr exact i64 %sub.ptr.sub.i, 3
  %cmp = icmp ult i64 %inc, %sub.ptr.div.i
  br i1 %cmp, label %for.body, label %for.cond.cleanup, !llvm.loop !71

lpad:                                             ; preds = %_ZNSt8_Rb_treeImmSt9_IdentityImESt4lessImESaImEE10_M_insert_IRKmNS5_11_Alloc_nodeEEESt17_Rb_tree_iteratorImEPSt18_Rb_tree_node_baseSD_OT_RT0_.exit.i.i, %if.else.i.i38, %for.body
  %26 = landingpad { ptr, i32 }
          cleanup
  br label %ehcleanup

invoke.cont11:                                    ; preds = %if.else.i.i, %_ZNSt16allocator_traitsISaISt3setImSt4lessImESaImEEEE9constructIS4_JS4_EEEvRS5_PT_DpOT0_.exit.i.i
  %27 = load ptr, ptr %_M_parent.i.i.i.i.i, align 8, !tbaa !55
  invoke void @_ZNSt8_Rb_treeImmSt9_IdentityImESt4lessImESaImEE8_M_eraseEPSt13_Rb_tree_nodeImE(ptr noundef nonnull align 8 dereferenceable(48) %grouping_set, ptr noundef %27)
          to label %_ZNSt3setImSt4lessImESaImEED2Ev.exit unwind label %terminate.lpad.i.i

terminate.lpad.i.i:                               ; preds = %invoke.cont11
  %28 = landingpad { ptr, i32 }
          catch ptr null
  %29 = extractvalue { ptr, i32 } %28, 0
  call void @__clang_call_terminate(ptr %29) #27
  unreachable

_ZNSt3setImSt4lessImESaImEED2Ev.exit:             ; preds = %invoke.cont11
  call void @llvm.lifetime.end.p0(i64 48, ptr nonnull %grouping_set) #24
  br label %if.end

lpad10:                                           ; preds = %if.else.i.i
  %30 = landingpad { ptr, i32 }
          cleanup
  br label %ehcleanup

ehcleanup:                                        ; preds = %lpad10, %lpad
  %.pn = phi { ptr, i32 } [ %26, %lpad ], [ %30, %lpad10 ]
  call void @_ZNSt3setImSt4lessImESaImEED2Ev(ptr noundef nonnull align 8 dereferenceable(48) %grouping_set) #24
  call void @llvm.lifetime.end.p0(i64 48, ptr nonnull %grouping_set) #24
  br label %ehcleanup22

if.end:                                           ; preds = %_ZNSt3setImSt4lessImESaImEED2Ev.exit, %entry
  call void @llvm.lifetime.start.p0(i64 16, ptr nonnull %ref.tmp) #24
  %context13 = getelementptr inbounds %"class.duckdb::Relation", ptr %this, i64 0, i32 2
  invoke void @_ZN6duckdb20ClientContextWrapper10GetContextEv(ptr nonnull sret(%"class.std::shared_ptr.83") align 8 %ref.tmp, ptr noundef nonnull align 8 dereferenceable(16) %context13)
          to label %invoke.cont15 unwind label %lpad14

invoke.cont15:                                    ; preds = %if.end
  %31 = load ptr, ptr %ref.tmp, align 8, !tbaa !15
  invoke void @_ZN6duckdb13ClientContext15TryBindRelationERNS_8RelationERNS_6vectorINS_16ColumnDefinitionELb1EEE(ptr noundef nonnull align 8 dereferenceable(592) %31, ptr noundef nonnull align 8 dereferenceable(64) %this, ptr noundef nonnull align 8 dereferenceable(24) %columns)
          to label %invoke.cont19 unwind label %lpad18

invoke.cont19:                                    ; preds = %invoke.cont15
  %_M_refcount.i = getelementptr inbounds %"class.std::__shared_ptr.84", ptr %ref.tmp, i64 0, i32 1
  %32 = load ptr, ptr %_M_refcount.i, align 8, !tbaa !14
  %cmp.not.i.i43 = icmp eq ptr %32, null
  br i1 %cmp.not.i.i43, label %_ZNSt12__shared_ptrIN6duckdb13ClientContextELN9__gnu_cxx12_Lock_policyE2EED2Ev.exit, label %if.then.i.i44

if.then.i.i44:                                    ; preds = %invoke.cont19
  %_M_use_count.i.i.i = getelementptr inbounds %"class.std::_Sp_counted_base", ptr %32, i64 0, i32 1
  %33 = load atomic i64, ptr %_M_use_count.i.i.i acquire, align 8
  %cmp.i.i.i = icmp eq i64 %33, 4294967297
  %34 = trunc i64 %33 to i32
  br i1 %cmp.i.i.i, label %if.then.i.i.i45, label %if.end.i.i.i

if.then.i.i.i45:                                  ; preds = %if.then.i.i44
  store i32 0, ptr %_M_use_count.i.i.i, align 8, !tbaa !17
  %_M_weak_count.i.i.i = getelementptr inbounds %"class.std::_Sp_counted_base", ptr %32, i64 0, i32 2
  store i32 0, ptr %_M_weak_count.i.i.i, align 4, !tbaa !20
  %vtable.i.i.i = load ptr, ptr %32, align 8, !tbaa !9
  %vfn.i.i.i = getelementptr inbounds ptr, ptr %vtable.i.i.i, i64 2
  %35 = load ptr, ptr %vfn.i.i.i, align 8
  call void %35(ptr noundef nonnull align 8 dereferenceable(16) %32) #24
  %vtable3.i.i.i = load ptr, ptr %32, align 8, !tbaa !9
  %vfn4.i.i.i = getelementptr inbounds ptr, ptr %vtable3.i.i.i, i64 3
  %36 = load ptr, ptr %vfn4.i.i.i, align 8
  call void %36(ptr noundef nonnull align 8 dereferenceable(16) %32) #24
  br label %_ZNSt12__shared_ptrIN6duckdb13ClientContextELN9__gnu_cxx12_Lock_policyE2EED2Ev.exit

if.end.i.i.i:                                     ; preds = %if.then.i.i44
  %37 = load i8, ptr @__libc_single_threaded, align 1, !tbaa !21
  %tobool.i.i.not.i.i.i = icmp eq i8 %37, 0
  br i1 %tobool.i.i.not.i.i.i, label %if.else.i.i.i.i, label %if.then.i.i.i.i

if.then.i.i.i.i:                                  ; preds = %if.end.i.i.i
  %add.i.i.i.i = add nsw i32 %34, -1
  store i32 %add.i.i.i.i, ptr %_M_use_count.i.i.i, align 4, !tbaa !22
  br label %invoke.cont.i.i.i

if.else.i.i.i.i:                                  ; preds = %if.end.i.i.i
  %38 = atomicrmw volatile add ptr %_M_use_count.i.i.i, i32 -1 acq_rel, align 4
  br label %invoke.cont.i.i.i

invoke.cont.i.i.i:                                ; preds = %if.else.i.i.i.i, %if.then.i.i.i.i
  %retval.0.i.i.i.i = phi i32 [ %34, %if.then.i.i.i.i ], [ %38, %if.else.i.i.i.i ]
  %cmp6.i.i.i = icmp eq i32 %retval.0.i.i.i.i, 1
  br i1 %cmp6.i.i.i, label %if.then7.i.i.i, label %_ZNSt12__shared_ptrIN6duckdb13ClientContextELN9__gnu_cxx12_Lock_policyE2EED2Ev.exit, !prof !23

if.then7.i.i.i:                                   ; preds = %invoke.cont.i.i.i
  call void @_ZNSt16_Sp_counted_baseILN9__gnu_cxx12_Lock_policyE2EE24_M_release_last_use_coldEv(ptr noundef nonnull align 8 dereferenceable(16) %32) #24
  br label %_ZNSt12__shared_ptrIN6duckdb13ClientContextELN9__gnu_cxx12_Lock_policyE2EED2Ev.exit

_ZNSt12__shared_ptrIN6duckdb13ClientContextELN9__gnu_cxx12_Lock_policyE2EED2Ev.exit: ; preds = %if.then7.i.i.i, %invoke.cont.i.i.i, %if.then.i.i.i45, %invoke.cont19
  call void @llvm.lifetime.end.p0(i64 16, ptr nonnull %ref.tmp) #24
  ret void

lpad14:                                           ; preds = %if.end
  %39 = landingpad { ptr, i32 }
          cleanup
  br label %ehcleanup21

lpad18:                                           ; preds = %invoke.cont15
  %40 = landingpad { ptr, i32 }
          cleanup
  call void @_ZNSt12__shared_ptrIN6duckdb13ClientContextELN9__gnu_cxx12_Lock_policyE2EED2Ev(ptr noundef nonnull align 8 dereferenceable(16) %ref.tmp) #24
  br label %ehcleanup21

ehcleanup21:                                      ; preds = %lpad18, %lpad14
  %.pn29 = phi { ptr, i32 } [ %40, %lpad18 ], [ %39, %lpad14 ]
  call void @llvm.lifetime.end.p0(i64 16, ptr nonnull %ref.tmp) #24
  br label %ehcleanup22

ehcleanup22:                                      ; preds = %ehcleanup21, %ehcleanup
  %.pn29.pn = phi { ptr, i32 } [ %.pn29, %ehcleanup21 ], [ %.pn, %ehcleanup ]
  call void @_ZNSt12__shared_ptrIN6duckdb8RelationELN9__gnu_cxx12_Lock_policyE2EED2Ev(ptr noundef nonnull align 8 dereferenceable(16) %child) #24
  call void @_ZNSt6vectorIN6duckdb16ColumnDefinitionESaIS1_EED2Ev(ptr noundef nonnull align 8 dereferenceable(24) %columns) #24
  call void @_ZN6duckdb11GroupByNodeD2Ev(ptr noundef nonnull align 8 dereferenceable(48) %groups) #24
  call void @_ZNSt6vectorIN6duckdb10unique_ptrINS0_16ParsedExpressionESt14default_deleteIS2_ELb1EEESaIS5_EED2Ev(ptr noundef nonnull align 8 dereferenceable(24) %expressions) #24
  call void @_ZN6duckdb8RelationD2Ev(ptr noundef nonnull align 8 dereferenceable(64) %this) #24
  resume { ptr, i32 } %.pn29.pn
}

; Function Attrs: mustprogress uwtable
define linkonce_odr noundef nonnull align 8 dereferenceable(8) ptr @_ZN6duckdb6vectorINS_10unique_ptrINS_16ParsedExpressionESt14default_deleteIS2_ELb1EEELb1EEixEm(ptr noundef nonnull align 8 dereferenceable(24) %this, i64 noundef %__n) local_unnamed_addr #0 comdat align 2 personality ptr @__gxx_personality_v0 {
entry:
  %ref.tmp.i.i = alloca %"class.std::__cxx11::basic_string", align 8
  %ref.tmp1.i.i = alloca %"class.std::allocator.40", align 1
  %_M_finish.i.i = getelementptr inbounds %"struct.std::_Vector_base<duckdb::unique_ptr<duckdb::ParsedExpression>, std::allocator<duckdb::unique_ptr<duckdb::ParsedExpression>>>::_Vector_impl_data", ptr %this, i64 0, i32 1
  %0 = load ptr, ptr %_M_finish.i.i, align 8, !tbaa !61
  %1 = load ptr, ptr %this, align 8, !tbaa !60
  %sub.ptr.lhs.cast.i.i = ptrtoint ptr %0 to i64
  %sub.ptr.rhs.cast.i.i = ptrtoint ptr %1 to i64
  %sub.ptr.sub.i.i = sub i64 %sub.ptr.lhs.cast.i.i, %sub.ptr.rhs.cast.i.i
  %sub.ptr.div.i.i = ashr exact i64 %sub.ptr.sub.i.i, 3
  %cmp.not.i.i = icmp ugt i64 %sub.ptr.div.i.i, %__n
  br i1 %cmp.not.i.i, label %_ZN6duckdb6vectorINS_10unique_ptrINS_16ParsedExpressionESt14default_deleteIS2_ELb1EEELb1EE3getILb1EEERS5_m.exit, label %if.then.i.i, !prof !72

if.then.i.i:                                      ; preds = %entry
  %exception.i.i = tail call ptr @__cxa_allocate_exception(i64 80) #24
  call void @llvm.lifetime.start.p0(i64 32, ptr nonnull %ref.tmp.i.i) #24
  call void @llvm.lifetime.start.p0(i64 1, ptr nonnull %ref.tmp1.i.i) #24
  invoke void @_ZNSt7__cxx1112basic_stringIcSt11char_traitsIcESaIcEEC2EPKcRKS3_(ptr noundef nonnull align 8 dereferenceable(32) %ref.tmp.i.i, ptr noundef nonnull @.str.61, ptr noundef nonnull align 1 dereferenceable(1) %ref.tmp1.i.i)
          to label %invoke.cont.i.i unwind label %ehcleanup.thread.i.i

invoke.cont.i.i:                                  ; preds = %if.then.i.i
  invoke void @_ZN6duckdb17InternalExceptionC2IJmmEEERKNSt7__cxx1112basic_stringIcSt11char_traitsIcESaIcEEEDpT_(ptr noundef nonnull align 8 dereferenceable(80) %exception.i.i, ptr noundef nonnull align 8 dereferenceable(32) %ref.tmp.i.i, i64 noundef %__n, i64 noundef %sub.ptr.div.i.i)
          to label %invoke.cont3.i.i unwind label %lpad2.i.i

invoke.cont3.i.i:                                 ; preds = %invoke.cont.i.i
  invoke void @__cxa_throw(ptr nonnull %exception.i.i, ptr nonnull @_ZTIN6duckdb17InternalExceptionE, ptr nonnull @_ZN6duckdb9ExceptionD2Ev) #25
          to label %unreachable.i.i unwind label %lpad2.i.i

ehcleanup.thread.i.i:                             ; preds = %if.then.i.i
  %2 = landingpad { ptr, i32 }
          cleanup
  call void @llvm.lifetime.end.p0(i64 1, ptr nonnull %ref.tmp1.i.i) #24
  call void @llvm.lifetime.end.p0(i64 32, ptr nonnull %ref.tmp.i.i) #24
  br label %cleanup.action.i.i

lpad2.i.i:                                        ; preds = %invoke.cont3.i.i, %invoke.cont.i.i
  %cleanup.isactive.0.i.i = phi i1 [ false, %invoke.cont3.i.i ], [ true, %invoke.cont.i.i ]
  %3 = landingpad { ptr, i32 }
          cleanup
  %4 = load ptr, ptr %ref.tmp.i.i, align 8, !tbaa !43
  %5 = getelementptr inbounds %"class.std::__cxx11::basic_string", ptr %ref.tmp.i.i, i64 0, i32 2
  %cmp.i.i.i.i.i = icmp eq ptr %4, %5
  br i1 %cmp.i.i.i.i.i, label %_ZNKSt7__cxx1112basic_stringIcSt11char_traitsIcESaIcEE11_M_is_localEv.exit.thread.i.i.i.i, label %ehcleanup.i.i

_ZNKSt7__cxx1112basic_stringIcSt11char_traitsIcESaIcEE11_M_is_localEv.exit.thread.i.i.i.i: ; preds = %lpad2.i.i
  %_M_string_length.i.i.i.i.i = getelementptr inbounds %"class.std::__cxx11::basic_string", ptr %ref.tmp.i.i, i64 0, i32 1
  %6 = load i64, ptr %_M_string_length.i.i.i.i.i, align 8, !tbaa !47
  %cmp3.i.i.i.i.i = icmp ult i64 %6, 16
  call void @llvm.assume(i1 %cmp3.i.i.i.i.i)
  call void @llvm.lifetime.end.p0(i64 1, ptr nonnull %ref.tmp1.i.i) #24
  call void @llvm.lifetime.end.p0(i64 32, ptr nonnull %ref.tmp.i.i) #24
  br i1 %cleanup.isactive.0.i.i, label %cleanup.action.i.i, label %eh.resume.i.i

ehcleanup.i.i:                                    ; preds = %lpad2.i.i
  call void @_ZdlPv(ptr noundef %4) #26
  call void @llvm.lifetime.end.p0(i64 1, ptr nonnull %ref.tmp1.i.i) #24
  call void @llvm.lifetime.end.p0(i64 32, ptr nonnull %ref.tmp.i.i) #24
  br i1 %cleanup.isactive.0.i.i, label %cleanup.action.i.i, label %eh.resume.i.i

cleanup.action.i.i:                               ; preds = %ehcleanup.i.i, %_ZNKSt7__cxx1112basic_stringIcSt11char_traitsIcESaIcEE11_M_is_localEv.exit.thread.i.i.i.i, %ehcleanup.thread.i.i
  %.pn14.i.i = phi { ptr, i32 } [ %2, %ehcleanup.thread.i.i ], [ %3, %ehcleanup.i.i ], [ %3, %_ZNKSt7__cxx1112basic_stringIcSt11char_traitsIcESaIcEE11_M_is_localEv.exit.thread.i.i.i.i ]
  call void @__cxa_free_exception(ptr %exception.i.i) #24
  br label %eh.resume.i.i

eh.resume.i.i:                                    ; preds = %cleanup.action.i.i, %ehcleanup.i.i, %_ZNKSt7__cxx1112basic_stringIcSt11char_traitsIcESaIcEE11_M_is_localEv.exit.thread.i.i.i.i
  %.pn13.i.i = phi { ptr, i32 } [ %3, %ehcleanup.i.i ], [ %.pn14.i.i, %cleanup.action.i.i ], [ %3, %_ZNKSt7__cxx1112basic_stringIcSt11char_traitsIcESaIcEE11_M_is_localEv.exit.thread.i.i.i.i ]
  resume { ptr, i32 } %.pn13.i.i

unreachable.i.i:                                  ; preds = %invoke.cont3.i.i
  unreachable

_ZN6duckdb6vectorINS_10unique_ptrINS_16ParsedExpressionESt14default_deleteIS2_ELb1EEELb1EE3getILb1EEERS5_m.exit: ; preds = %entry
  %add.ptr.i.i = getelementptr inbounds %"class.duckdb::unique_ptr.90", ptr %1, i64 %__n
  ret ptr %add.ptr.i.i
}

; Function Attrs: mustprogress nounwind uwtable
define linkonce_odr void @_ZNSt3setImSt4lessImESaImEED2Ev(ptr noundef nonnull align 8 dereferenceable(48) %this) unnamed_addr #3 comdat align 2 personality ptr @__gxx_personality_v0 {
entry:
  %_M_parent.i.i.i = getelementptr inbounds i8, ptr %this, i64 16
  %0 = load ptr, ptr %_M_parent.i.i.i, align 8, !tbaa !55
  invoke void @_ZNSt8_Rb_treeImmSt9_IdentityImESt4lessImESaImEE8_M_eraseEPSt13_Rb_tree_nodeImE(ptr noundef nonnull align 8 dereferenceable(48) %this, ptr noundef %0)
          to label %_ZNSt8_Rb_treeImmSt9_IdentityImESt4lessImESaImEED2Ev.exit unwind label %terminate.lpad.i

terminate.lpad.i:                                 ; preds = %entry
  %1 = landingpad { ptr, i32 }
          catch ptr null
  %2 = extractvalue { ptr, i32 } %1, 0
  tail call void @__clang_call_terminate(ptr %2) #27
  unreachable

_ZNSt8_Rb_treeImmSt9_IdentityImESt4lessImESaImEED2Ev.exit: ; preds = %entry
  ret void
}

; Function Attrs: mustprogress uwtable
define void @_ZN6duckdb17AggregateRelation12GetQueryNodeEv(ptr noalias sret(%"class.duckdb::unique_ptr.99") align 8 %agg.result, ptr noundef nonnull align 8 dereferenceable(176) %this) unnamed_addr #0 align 2 personality ptr @__gxx_personality_v0 {
entry:
  %ref.tmp = alloca %"class.duckdb::unique_ptr.99", align 8
  %select = alloca %"class.duckdb::unique_ptr.108", align 8
  %ref.tmp13 = alloca %"class.duckdb::unique_ptr.117", align 8
  %ref.tmp35 = alloca %"class.duckdb::GroupByNode", align 16
  %ref.tmp51 = alloca %"class.duckdb::unique_ptr.90", align 8
  %child = getelementptr inbounds %"class.duckdb::AggregateRelation", ptr %this, i64 0, i32 4
  %0 = load ptr, ptr %child, align 8, !tbaa !3
  %vtable151 = load ptr, ptr %0, align 8, !tbaa !9
  %vfn152 = getelementptr inbounds ptr, ptr %vtable151, i64 11
  %1 = load ptr, ptr %vfn152, align 8
  %call2153 = tail call noundef zeroext i1 %1(ptr noundef nonnull align 8 dereferenceable(64) %0)
  br i1 %call2153, label %while.body, label %while.end

while.body:                                       ; preds = %entry, %while.body
  %child_ptr.0154 = phi ptr [ %call5, %while.body ], [ %0, %entry ]
  %vtable3 = load ptr, ptr %child_ptr.0154, align 8, !tbaa !9
  %vfn4 = getelementptr inbounds ptr, ptr %vtable3, i64 12
  %2 = load ptr, ptr %vfn4, align 8
  %call5 = tail call noundef ptr %2(ptr noundef nonnull align 8 dereferenceable(64) %child_ptr.0154)
  %vtable = load ptr, ptr %call5, align 8, !tbaa !9
  %vfn = getelementptr inbounds ptr, ptr %vtable, i64 11
  %3 = load ptr, ptr %vfn, align 8
  %call2 = tail call noundef zeroext i1 %3(ptr noundef nonnull align 8 dereferenceable(64) %call5)
  br i1 %call2, label %while.body, label %while.end, !llvm.loop !73

while.end:                                        ; preds = %while.body, %entry
  %child_ptr.0.lcssa = phi ptr [ %0, %entry ], [ %call5, %while.body ]
  store ptr null, ptr %agg.result, align 8, !tbaa !74
  %type = getelementptr inbounds %"class.duckdb::Relation", ptr %child_ptr.0.lcssa, i64 0, i32 3
  %4 = load i8, ptr %type, align 8, !tbaa !28
  %cmp = icmp eq i8 %4, 6
  br i1 %cmp, label %if.then, label %if.else

if.then:                                          ; preds = %while.end
  call void @llvm.lifetime.start.p0(i64 8, ptr nonnull %ref.tmp) #24
  %5 = load ptr, ptr %child, align 8, !tbaa !3
  %vtable8 = load ptr, ptr %5, align 8, !tbaa !9
  %vfn9 = getelementptr inbounds ptr, ptr %vtable8, i64 3
  %6 = load ptr, ptr %vfn9, align 8
  invoke void %6(ptr nonnull sret(%"class.duckdb::unique_ptr.99") align 8 %ref.tmp, ptr noundef nonnull align 8 dereferenceable(64) %5)
          to label %invoke.cont unwind label %lpad

invoke.cont:                                      ; preds = %if.then
  %7 = load ptr, ptr %ref.tmp, align 8, !tbaa !11
  store ptr null, ptr %ref.tmp, align 8, !tbaa !11
  %8 = load ptr, ptr %agg.result, align 8, !tbaa !11
  store ptr %7, ptr %agg.result, align 8, !tbaa !11
  %tobool.not.i.i.i.i.i = icmp eq ptr %8, null
  br i1 %tobool.not.i.i.i.i.i, label %_ZNSt10unique_ptrIN6duckdb9QueryNodeESt14default_deleteIS1_EED2Ev.exit, label %_ZN6duckdb10unique_ptrINS_9QueryNodeESt14default_deleteIS1_ELb1EEaSEOS4_.exit

_ZN6duckdb10unique_ptrINS_9QueryNodeESt14default_deleteIS1_ELb1EEaSEOS4_.exit: ; preds = %invoke.cont
  %vtable.i.i.i.i.i.i = load ptr, ptr %8, align 8, !tbaa !9
  %vfn.i.i.i.i.i.i = getelementptr inbounds ptr, ptr %vtable.i.i.i.i.i.i, i64 1
  %9 = load ptr, ptr %vfn.i.i.i.i.i.i, align 8
  call void %9(ptr noundef nonnull align 8 dereferenceable(96) %8) #24
  %.pr = load ptr, ptr %ref.tmp, align 8, !tbaa !11
  %cmp.not.i = icmp eq ptr %.pr, null
  br i1 %cmp.not.i, label %_ZNSt10unique_ptrIN6duckdb9QueryNodeESt14default_deleteIS1_EED2Ev.exit, label %_ZNKSt14default_deleteIN6duckdb9QueryNodeEEclEPS1_.exit.i

_ZNKSt14default_deleteIN6duckdb9QueryNodeEEclEPS1_.exit.i: ; preds = %_ZN6duckdb10unique_ptrINS_9QueryNodeESt14default_deleteIS1_ELb1EEaSEOS4_.exit
  %vtable.i.i = load ptr, ptr %.pr, align 8, !tbaa !9
  %vfn.i.i = getelementptr inbounds ptr, ptr %vtable.i.i, i64 1
  %10 = load ptr, ptr %vfn.i.i, align 8
  call void %10(ptr noundef nonnull align 8 dereferenceable(96) %.pr) #24
  br label %_ZNSt10unique_ptrIN6duckdb9QueryNodeESt14default_deleteIS1_EED2Ev.exit

_ZNSt10unique_ptrIN6duckdb9QueryNodeESt14default_deleteIS1_EED2Ev.exit: ; preds = %_ZNKSt14default_deleteIN6duckdb9QueryNodeEEclEPS1_.exit.i, %_ZN6duckdb10unique_ptrINS_9QueryNodeESt14default_deleteIS1_ELb1EEaSEOS4_.exit, %invoke.cont
  call void @llvm.lifetime.end.p0(i64 8, ptr nonnull %ref.tmp) #24
  br label %if.end

lpad:                                             ; preds = %if.then
  %11 = landingpad { ptr, i32 }
          cleanup
  call void @llvm.lifetime.end.p0(i64 8, ptr nonnull %ref.tmp) #24
  br label %ehcleanup68

if.else:                                          ; preds = %while.end
  call void @llvm.lifetime.start.p0(i64 8, ptr nonnull %select) #24
  tail call void @llvm.experimental.noalias.scope.decl(metadata !76)
  %call.i84 = invoke noalias noundef nonnull dereferenceable(216) ptr @_Znwm(i64 noundef 216) #29
          to label %call.i.noexc unwind label %lpad11

call.i.noexc:                                     ; preds = %if.else
  invoke void @_ZN6duckdb10SelectNodeC1Ev(ptr noundef nonnull align 8 dereferenceable(216) %call.i84)
          to label %invoke.cont12 unwind label %lpad.i, !noalias !76

lpad.i:                                           ; preds = %call.i.noexc
  %12 = landingpad { ptr, i32 }
          cleanup
  tail call void @_ZdlPv(ptr noundef nonnull %call.i84) #26, !noalias !76
  br label %ehcleanup27

invoke.cont12:                                    ; preds = %call.i.noexc
  store ptr %call.i84, ptr %select, align 8, !tbaa !11, !alias.scope !76
  call void @llvm.lifetime.start.p0(i64 8, ptr nonnull %ref.tmp13) #24
  %13 = load ptr, ptr %child, align 8, !tbaa !3
  %vtable16 = load ptr, ptr %13, align 8, !tbaa !9
  %vfn17 = getelementptr inbounds ptr, ptr %vtable16, i64 7
  %14 = load ptr, ptr %vfn17, align 8
  invoke void %14(ptr nonnull sret(%"class.duckdb::unique_ptr.117") align 8 %ref.tmp13, ptr noundef nonnull align 8 dereferenceable(64) %13)
          to label %invoke.cont19 unwind label %lpad18

invoke.cont19:                                    ; preds = %invoke.cont12
  %call22 = invoke noundef ptr @_ZNK6duckdb10unique_ptrINS_10SelectNodeESt14default_deleteIS1_ELb1EEptEv(ptr noundef nonnull align 8 dereferenceable(8) %select)
          to label %invoke.cont21 unwind label %lpad20

invoke.cont21:                                    ; preds = %invoke.cont19
  %from_table = getelementptr inbounds %"class.duckdb::SelectNode", ptr %call22, i64 0, i32 2
  %15 = load ptr, ptr %ref.tmp13, align 8, !tbaa !11
  store ptr null, ptr %ref.tmp13, align 8, !tbaa !11
  %16 = load ptr, ptr %from_table, align 8, !tbaa !11
  store ptr %15, ptr %from_table, align 8, !tbaa !11
  %tobool.not.i.i.i.i.i85 = icmp eq ptr %16, null
  br i1 %tobool.not.i.i.i.i.i85, label %_ZNSt10unique_ptrIN6duckdb8TableRefESt14default_deleteIS1_EED2Ev.exit, label %_ZN6duckdb10unique_ptrINS_8TableRefESt14default_deleteIS1_ELb1EEaSEOS4_.exit

_ZN6duckdb10unique_ptrINS_8TableRefESt14default_deleteIS1_ELb1EEaSEOS4_.exit: ; preds = %invoke.cont21
  %vtable.i.i.i.i.i.i86 = load ptr, ptr %16, align 8, !tbaa !9
  %vfn.i.i.i.i.i.i87 = getelementptr inbounds ptr, ptr %vtable.i.i.i.i.i.i86, i64 1
  %17 = load ptr, ptr %vfn.i.i.i.i.i.i87, align 8
  call void %17(ptr noundef nonnull align 8 dereferenceable(64) %16) #24
  %.pr145 = load ptr, ptr %ref.tmp13, align 8, !tbaa !11
  %cmp.not.i88 = icmp eq ptr %.pr145, null
  br i1 %cmp.not.i88, label %_ZNSt10unique_ptrIN6duckdb8TableRefESt14default_deleteIS1_EED2Ev.exit, label %_ZNKSt14default_deleteIN6duckdb8TableRefEEclEPS1_.exit.i

_ZNKSt14default_deleteIN6duckdb8TableRefEEclEPS1_.exit.i: ; preds = %_ZN6duckdb10unique_ptrINS_8TableRefESt14default_deleteIS1_ELb1EEaSEOS4_.exit
  %vtable.i.i89 = load ptr, ptr %.pr145, align 8, !tbaa !9
  %vfn.i.i90 = getelementptr inbounds ptr, ptr %vtable.i.i89, i64 1
  %18 = load ptr, ptr %vfn.i.i90, align 8
  call void %18(ptr noundef nonnull align 8 dereferenceable(64) %.pr145) #24
  br label %_ZNSt10unique_ptrIN6duckdb8TableRefESt14default_deleteIS1_EED2Ev.exit

_ZNSt10unique_ptrIN6duckdb8TableRefESt14default_deleteIS1_EED2Ev.exit: ; preds = %_ZNKSt14default_deleteIN6duckdb8TableRefEEclEPS1_.exit.i, %_ZN6duckdb10unique_ptrINS_8TableRefESt14default_deleteIS1_ELb1EEaSEOS4_.exit, %invoke.cont21
  call void @llvm.lifetime.end.p0(i64 8, ptr nonnull %ref.tmp13) #24
  %19 = load ptr, ptr %select, align 8, !tbaa !11
  store ptr null, ptr %select, align 8, !tbaa !11
  %20 = load ptr, ptr %agg.result, align 8, !tbaa !11
  store ptr %19, ptr %agg.result, align 8, !tbaa !11
  %tobool.not.i.i.i.i.i91 = icmp eq ptr %20, null
  br i1 %tobool.not.i.i.i.i.i91, label %_ZNSt10unique_ptrIN6duckdb10SelectNodeESt14default_deleteIS1_EED2Ev.exit, label %_ZNSt10unique_ptrIN6duckdb9QueryNodeESt14default_deleteIS1_EED2Ev.exit100

_ZNSt10unique_ptrIN6duckdb9QueryNodeESt14default_deleteIS1_EED2Ev.exit100: ; preds = %_ZNSt10unique_ptrIN6duckdb8TableRefESt14default_deleteIS1_EED2Ev.exit
  %vtable.i.i.i.i.i.i93 = load ptr, ptr %20, align 8, !tbaa !9
  %vfn.i.i.i.i.i.i94 = getelementptr inbounds ptr, ptr %vtable.i.i.i.i.i.i93, i64 1
  %21 = load ptr, ptr %vfn.i.i.i.i.i.i94, align 8
  call void %21(ptr noundef nonnull align 8 dereferenceable(96) %20) #24
  %.pr147 = load ptr, ptr %select, align 8, !tbaa !11
  %cmp.not.i101 = icmp eq ptr %.pr147, null
  br i1 %cmp.not.i101, label %_ZNSt10unique_ptrIN6duckdb10SelectNodeESt14default_deleteIS1_EED2Ev.exit, label %_ZNKSt14default_deleteIN6duckdb10SelectNodeEEclEPS1_.exit.i

_ZNKSt14default_deleteIN6duckdb10SelectNodeEEclEPS1_.exit.i: ; preds = %_ZNSt10unique_ptrIN6duckdb9QueryNodeESt14default_deleteIS1_EED2Ev.exit100
  %vtable.i.i102 = load ptr, ptr %.pr147, align 8, !tbaa !9
  %vfn.i.i103 = getelementptr inbounds ptr, ptr %vtable.i.i102, i64 1
  %22 = load ptr, ptr %vfn.i.i103, align 8
  call void %22(ptr noundef nonnull align 8 dereferenceable(216) %.pr147) #24
  br label %_ZNSt10unique_ptrIN6duckdb10SelectNodeESt14default_deleteIS1_EED2Ev.exit

_ZNSt10unique_ptrIN6duckdb10SelectNodeESt14default_deleteIS1_EED2Ev.exit: ; preds = %_ZNKSt14default_deleteIN6duckdb10SelectNodeEEclEPS1_.exit.i, %_ZNSt10unique_ptrIN6duckdb9QueryNodeESt14default_deleteIS1_EED2Ev.exit100, %_ZNSt10unique_ptrIN6duckdb8TableRefESt14default_deleteIS1_EED2Ev.exit
  call void @llvm.lifetime.end.p0(i64 8, ptr nonnull %select) #24
  br label %if.end

lpad11:                                           ; preds = %if.else
  %23 = landingpad { ptr, i32 }
          cleanup
  br label %ehcleanup27

lpad18:                                           ; preds = %invoke.cont12
  %24 = landingpad { ptr, i32 }
          cleanup
  br label %ehcleanup

lpad20:                                           ; preds = %invoke.cont19
  %25 = landingpad { ptr, i32 }
          cleanup
  %26 = load ptr, ptr %ref.tmp13, align 8, !tbaa !11
  %cmp.not.i104 = icmp eq ptr %26, null
  br i1 %cmp.not.i104, label %ehcleanup, label %_ZNKSt14default_deleteIN6duckdb8TableRefEEclEPS1_.exit.i105

_ZNKSt14default_deleteIN6duckdb8TableRefEEclEPS1_.exit.i105: ; preds = %lpad20
  %vtable.i.i106 = load ptr, ptr %26, align 8, !tbaa !9
  %vfn.i.i107 = getelementptr inbounds ptr, ptr %vtable.i.i106, i64 1
  %27 = load ptr, ptr %vfn.i.i107, align 8
  call void %27(ptr noundef nonnull align 8 dereferenceable(64) %26) #24
  br label %ehcleanup

ehcleanup:                                        ; preds = %_ZNKSt14default_deleteIN6duckdb8TableRefEEclEPS1_.exit.i105, %lpad20, %lpad18
  %.pn = phi { ptr, i32 } [ %24, %lpad18 ], [ %25, %lpad20 ], [ %25, %_ZNKSt14default_deleteIN6duckdb8TableRefEEclEPS1_.exit.i105 ]
  call void @llvm.lifetime.end.p0(i64 8, ptr nonnull %ref.tmp13) #24
  %28 = load ptr, ptr %select, align 8, !tbaa !11
  %cmp.not.i109 = icmp eq ptr %28, null
  br i1 %cmp.not.i109, label %ehcleanup27, label %_ZNKSt14default_deleteIN6duckdb10SelectNodeEEclEPS1_.exit.i110

_ZNKSt14default_deleteIN6duckdb10SelectNodeEEclEPS1_.exit.i110: ; preds = %ehcleanup
  %vtable.i.i111 = load ptr, ptr %28, align 8, !tbaa !9
  %vfn.i.i112 = getelementptr inbounds ptr, ptr %vtable.i.i111, i64 1
  %29 = load ptr, ptr %vfn.i.i112, align 8
  call void %29(ptr noundef nonnull align 8 dereferenceable(216) %28) #24
  br label %ehcleanup27

ehcleanup27:                                      ; preds = %_ZNKSt14default_deleteIN6duckdb10SelectNodeEEclEPS1_.exit.i110, %ehcleanup, %lpad11, %lpad.i
  %.pn.pn = phi { ptr, i32 } [ %23, %lpad11 ], [ %12, %lpad.i ], [ %.pn, %ehcleanup ], [ %.pn, %_ZNKSt14default_deleteIN6duckdb10SelectNodeEEclEPS1_.exit.i110 ]
  call void @llvm.lifetime.end.p0(i64 8, ptr nonnull %select) #24
  br label %ehcleanup68

if.end:                                           ; preds = %_ZNSt10unique_ptrIN6duckdb10SelectNodeESt14default_deleteIS1_EED2Ev.exit, %_ZNSt10unique_ptrIN6duckdb9QueryNodeESt14default_deleteIS1_EED2Ev.exit
  %call30 = invoke noundef ptr @_ZNK6duckdb10unique_ptrINS_9QueryNodeESt14default_deleteIS1_ELb1EEptEv(ptr noundef nonnull align 8 dereferenceable(8) %agg.result)
          to label %invoke.cont29 unwind label %lpad28

invoke.cont29:                                    ; preds = %if.end
  %call32 = invoke noundef nonnull align 8 dereferenceable(216) ptr @_ZN6duckdb9QueryNode4CastINS_10SelectNodeEEERT_v(ptr noundef nonnull align 8 dereferenceable(96) %call30)
          to label %invoke.cont31 unwind label %lpad28

invoke.cont31:                                    ; preds = %invoke.cont29
  %groups = getelementptr inbounds %"class.duckdb::AggregateRelation", ptr %this, i64 0, i32 2
  %30 = load ptr, ptr %groups, align 8, !tbaa !11
  %_M_finish.i.i = getelementptr inbounds %"class.duckdb::AggregateRelation", ptr %this, i64 0, i32 2, i32 0, i32 0, i32 0, i32 0, i32 0, i32 1
  %31 = load ptr, ptr %_M_finish.i.i, align 8, !tbaa !11
  %cmp.i.i = icmp eq ptr %30, %31
  %aggregate_handling43 = getelementptr inbounds %"class.duckdb::SelectNode", ptr %call32, i64 0, i32 7
  br i1 %cmp.i.i, label %if.else42, label %if.then34

if.then34:                                        ; preds = %invoke.cont31
  store i8 0, ptr %aggregate_handling43, align 8, !tbaa !79
  call void @llvm.lifetime.start.p0(i64 48, ptr nonnull %ref.tmp35) #24
  invoke void @_ZN6duckdb11GroupByNode4CopyEv(ptr nonnull sret(%"class.duckdb::GroupByNode") align 8 %ref.tmp35, ptr noundef nonnull align 8 dereferenceable(48) %groups)
          to label %invoke.cont38 unwind label %lpad37

invoke.cont38:                                    ; preds = %if.then34
  %groups39 = getelementptr inbounds %"class.duckdb::SelectNode", ptr %call32, i64 0, i32 4
  %32 = load ptr, ptr %groups39, align 8, !tbaa !60
  %_M_finish.i.i.i.i.i.i = getelementptr inbounds %"class.duckdb::SelectNode", ptr %call32, i64 0, i32 4, i32 0, i32 0, i32 0, i32 0, i32 0, i32 1
  %33 = load ptr, ptr %_M_finish.i.i.i.i.i.i, align 8, !tbaa !61
  %_M_end_of_storage.i.i.i.i.i.i = getelementptr inbounds %"class.duckdb::SelectNode", ptr %call32, i64 0, i32 4, i32 0, i32 0, i32 0, i32 0, i32 0, i32 2
  %_M_finish.i3.i.i.i.i.i = getelementptr inbounds %"struct.std::_Vector_base<duckdb::unique_ptr<duckdb::ParsedExpression>, std::allocator<duckdb::unique_ptr<duckdb::ParsedExpression>>>::_Vector_impl_data", ptr %ref.tmp35, i64 0, i32 1
  %34 = load <2 x ptr>, ptr %ref.tmp35, align 16, !tbaa !11
  store <2 x ptr> %34, ptr %groups39, align 8, !tbaa !11
  %_M_end_of_storage.i5.i.i.i.i.i = getelementptr inbounds %"struct.std::_Vector_base<duckdb::unique_ptr<duckdb::ParsedExpression>, std::allocator<duckdb::unique_ptr<duckdb::ParsedExpression>>>::_Vector_impl_data", ptr %ref.tmp35, i64 0, i32 2
  %35 = load ptr, ptr %_M_end_of_storage.i5.i.i.i.i.i, align 16, !tbaa !12
  store ptr %35, ptr %_M_end_of_storage.i.i.i.i.i.i, align 8, !tbaa !12
  %cmp.not3.i.i.i.i.i.i.i.i = icmp eq ptr %32, %33
  call void @llvm.memset.p0.i64(ptr noundef nonnull align 16 dereferenceable(24) %ref.tmp35, i8 0, i64 24, i1 false)
  br i1 %cmp.not3.i.i.i.i.i.i.i.i, label %invoke.cont.i.i.i.i.i, label %for.body.i.i.i.i.i.i.i.i

for.body.i.i.i.i.i.i.i.i:                         ; preds = %invoke.cont38, %_ZSt8_DestroyIN6duckdb10unique_ptrINS0_16ParsedExpressionESt14default_deleteIS2_ELb1EEEEvPT_.exit.i.i.i.i.i.i.i.i
  %__first.addr.04.i.i.i.i.i.i.i.i = phi ptr [ %incdec.ptr.i.i.i.i.i.i.i.i, %_ZSt8_DestroyIN6duckdb10unique_ptrINS0_16ParsedExpressionESt14default_deleteIS2_ELb1EEEEvPT_.exit.i.i.i.i.i.i.i.i ], [ %32, %invoke.cont38 ]
  %36 = load ptr, ptr %__first.addr.04.i.i.i.i.i.i.i.i, align 8, !tbaa !11
  %cmp.not.i.i.i.i.i.i.i.i.i.i = icmp eq ptr %36, null
  br i1 %cmp.not.i.i.i.i.i.i.i.i.i.i, label %_ZSt8_DestroyIN6duckdb10unique_ptrINS0_16ParsedExpressionESt14default_deleteIS2_ELb1EEEEvPT_.exit.i.i.i.i.i.i.i.i, label %_ZNKSt14default_deleteIN6duckdb16ParsedExpressionEEclEPS1_.exit.i.i.i.i.i.i.i.i.i.i

_ZNKSt14default_deleteIN6duckdb16ParsedExpressionEEclEPS1_.exit.i.i.i.i.i.i.i.i.i.i: ; preds = %for.body.i.i.i.i.i.i.i.i
  %vtable.i.i.i.i.i.i.i.i.i.i.i = load ptr, ptr %36, align 8, !tbaa !9
  %vfn.i.i.i.i.i.i.i.i.i.i.i = getelementptr inbounds ptr, ptr %vtable.i.i.i.i.i.i.i.i.i.i.i, i64 1
  %37 = load ptr, ptr %vfn.i.i.i.i.i.i.i.i.i.i.i, align 8
  call void %37(ptr noundef nonnull align 8 dereferenceable(56) %36) #24
  br label %_ZSt8_DestroyIN6duckdb10unique_ptrINS0_16ParsedExpressionESt14default_deleteIS2_ELb1EEEEvPT_.exit.i.i.i.i.i.i.i.i

_ZSt8_DestroyIN6duckdb10unique_ptrINS0_16ParsedExpressionESt14default_deleteIS2_ELb1EEEEvPT_.exit.i.i.i.i.i.i.i.i: ; preds = %_ZNKSt14default_deleteIN6duckdb16ParsedExpressionEEclEPS1_.exit.i.i.i.i.i.i.i.i.i.i, %for.body.i.i.i.i.i.i.i.i
  store ptr null, ptr %__first.addr.04.i.i.i.i.i.i.i.i, align 8, !tbaa !11
  %incdec.ptr.i.i.i.i.i.i.i.i = getelementptr inbounds %"class.duckdb::unique_ptr.90", ptr %__first.addr.04.i.i.i.i.i.i.i.i, i64 1
  %cmp.not.i.i.i.i.i.i.i.i = icmp eq ptr %incdec.ptr.i.i.i.i.i.i.i.i, %33
  br i1 %cmp.not.i.i.i.i.i.i.i.i, label %invoke.cont.i.i.i.i.i, label %for.body.i.i.i.i.i.i.i.i, !llvm.loop !62

invoke.cont.i.i.i.i.i:                            ; preds = %_ZSt8_DestroyIN6duckdb10unique_ptrINS0_16ParsedExpressionESt14default_deleteIS2_ELb1EEEEvPT_.exit.i.i.i.i.i.i.i.i, %invoke.cont38
  %tobool.not.i.i.i.i.i.i.i = icmp eq ptr %32, null
  br i1 %tobool.not.i.i.i.i.i.i.i, label %_ZN6duckdb6vectorINS_10unique_ptrINS_16ParsedExpressionESt14default_deleteIS2_ELb1EEELb1EEaSEOS6_.exit.i, label %if.then.i.i.i.i.i.i.i

if.then.i.i.i.i.i.i.i:                            ; preds = %invoke.cont.i.i.i.i.i
  call void @_ZdlPv(ptr noundef nonnull %32) #26
  br label %_ZN6duckdb6vectorINS_10unique_ptrINS_16ParsedExpressionESt14default_deleteIS2_ELb1EEELb1EEaSEOS6_.exit.i

_ZN6duckdb6vectorINS_10unique_ptrINS_16ParsedExpressionESt14default_deleteIS2_ELb1EEELb1EEaSEOS6_.exit.i: ; preds = %if.then.i.i.i.i.i.i.i, %invoke.cont.i.i.i.i.i
  %grouping_sets.i = getelementptr inbounds %"class.duckdb::SelectNode", ptr %call32, i64 0, i32 4, i32 1
  %grouping_sets3.i = getelementptr inbounds %"class.duckdb::GroupByNode", ptr %ref.tmp35, i64 0, i32 1
  %38 = load ptr, ptr %grouping_sets.i, align 8, !tbaa !52
  %_M_finish.i.i.i.i.i6.i = getelementptr inbounds %"class.duckdb::SelectNode", ptr %call32, i64 0, i32 4, i32 1, i32 0, i32 0, i32 0, i32 0, i32 1
  %39 = load ptr, ptr %_M_finish.i.i.i.i.i6.i, align 8, !tbaa !54
  %_M_end_of_storage.i.i.i.i.i7.i = getelementptr inbounds %"class.duckdb::SelectNode", ptr %call32, i64 0, i32 4, i32 1, i32 0, i32 0, i32 0, i32 0, i32 2
  %_M_finish.i3.i.i.i.i8.i = getelementptr inbounds %"class.duckdb::GroupByNode", ptr %ref.tmp35, i64 0, i32 1, i32 0, i32 0, i32 0, i32 0, i32 1
  %40 = load <2 x ptr>, ptr %grouping_sets3.i, align 8, !tbaa !11
  store <2 x ptr> %40, ptr %grouping_sets.i, align 8, !tbaa !11
  %_M_end_of_storage.i5.i.i.i.i9.i = getelementptr inbounds %"class.duckdb::GroupByNode", ptr %ref.tmp35, i64 0, i32 1, i32 0, i32 0, i32 0, i32 0, i32 2
  %41 = load ptr, ptr %_M_end_of_storage.i5.i.i.i.i9.i, align 8, !tbaa !63
  store ptr %41, ptr %_M_end_of_storage.i.i.i.i.i7.i, align 8, !tbaa !63
  %cmp.not3.i.i.i.i.i.i.i10.i = icmp eq ptr %38, %39
  call void @llvm.memset.p0.i64(ptr noundef nonnull align 8 dereferenceable(24) %grouping_sets3.i, i8 0, i64 24, i1 false)
  br i1 %cmp.not3.i.i.i.i.i.i.i10.i, label %invoke.cont.i.i.i.i15.i, label %for.body.i.i.i.i.i.i.i11.i

for.body.i.i.i.i.i.i.i11.i:                       ; preds = %_ZN6duckdb6vectorINS_10unique_ptrINS_16ParsedExpressionESt14default_deleteIS2_ELb1EEELb1EEaSEOS6_.exit.i, %_ZSt8_DestroyISt3setImSt4lessImESaImEEEvPT_.exit.i.i.i.i.i.i.i.i
  %__first.addr.04.i.i.i.i.i.i.i12.i = phi ptr [ %incdec.ptr.i.i.i.i.i.i.i13.i, %_ZSt8_DestroyISt3setImSt4lessImESaImEEEvPT_.exit.i.i.i.i.i.i.i.i ], [ %38, %_ZN6duckdb6vectorINS_10unique_ptrINS_16ParsedExpressionESt14default_deleteIS2_ELb1EEELb1EEaSEOS6_.exit.i ]
  %_M_parent.i.i.i.i.i.i.i.i.i.i.i.i.i = getelementptr inbounds i8, ptr %__first.addr.04.i.i.i.i.i.i.i12.i, i64 16
  %42 = load ptr, ptr %_M_parent.i.i.i.i.i.i.i.i.i.i.i.i.i, align 8, !tbaa !55
  invoke void @_ZNSt8_Rb_treeImmSt9_IdentityImESt4lessImESaImEE8_M_eraseEPSt13_Rb_tree_nodeImE(ptr noundef nonnull align 8 dereferenceable(48) %__first.addr.04.i.i.i.i.i.i.i12.i, ptr noundef %42)
          to label %_ZSt8_DestroyISt3setImSt4lessImESaImEEEvPT_.exit.i.i.i.i.i.i.i.i unwind label %terminate.lpad.i.i.i.i.i.i.i.i.i.i.i

terminate.lpad.i.i.i.i.i.i.i.i.i.i.i:             ; preds = %for.body.i.i.i.i.i.i.i11.i
  %43 = landingpad { ptr, i32 }
          catch ptr null
  %44 = extractvalue { ptr, i32 } %43, 0
  call void @__clang_call_terminate(ptr %44) #27
  unreachable

_ZSt8_DestroyISt3setImSt4lessImESaImEEEvPT_.exit.i.i.i.i.i.i.i.i: ; preds = %for.body.i.i.i.i.i.i.i11.i
  %incdec.ptr.i.i.i.i.i.i.i13.i = getelementptr inbounds %"class.std::set", ptr %__first.addr.04.i.i.i.i.i.i.i12.i, i64 1
  %cmp.not.i.i.i.i.i.i.i14.i = icmp eq ptr %incdec.ptr.i.i.i.i.i.i.i13.i, %39
  br i1 %cmp.not.i.i.i.i.i.i.i14.i, label %invoke.cont.i.i.i.i15.i, label %for.body.i.i.i.i.i.i.i11.i, !llvm.loop !59

invoke.cont.i.i.i.i15.i:                          ; preds = %_ZSt8_DestroyISt3setImSt4lessImESaImEEEvPT_.exit.i.i.i.i.i.i.i.i, %_ZN6duckdb6vectorINS_10unique_ptrINS_16ParsedExpressionESt14default_deleteIS2_ELb1EEELb1EEaSEOS6_.exit.i
  %tobool.not.i.i.i.i.i.i16.i = icmp eq ptr %38, null
  br i1 %tobool.not.i.i.i.i.i.i16.i, label %_ZN6duckdb11GroupByNodeaSEOS0_.exit, label %if.then.i.i.i.i.i.i17.i

if.then.i.i.i.i.i.i17.i:                          ; preds = %invoke.cont.i.i.i.i15.i
  call void @_ZdlPv(ptr noundef nonnull %38) #26
  br label %_ZN6duckdb11GroupByNodeaSEOS0_.exit

_ZN6duckdb11GroupByNodeaSEOS0_.exit:              ; preds = %if.then.i.i.i.i.i.i17.i, %invoke.cont.i.i.i.i15.i
  %45 = load ptr, ptr %grouping_sets3.i, align 8, !tbaa !52
  %46 = load ptr, ptr %_M_finish.i3.i.i.i.i8.i, align 16, !tbaa !54
  %cmp.not3.i.i.i.i.i = icmp eq ptr %45, %46
  br i1 %cmp.not3.i.i.i.i.i, label %invoke.cont.i.i, label %for.body.i.i.i.i.i

for.body.i.i.i.i.i:                               ; preds = %_ZN6duckdb11GroupByNodeaSEOS0_.exit, %_ZSt8_DestroyISt3setImSt4lessImESaImEEEvPT_.exit.i.i.i.i.i
  %__first.addr.04.i.i.i.i.i = phi ptr [ %incdec.ptr.i.i.i.i.i, %_ZSt8_DestroyISt3setImSt4lessImESaImEEEvPT_.exit.i.i.i.i.i ], [ %45, %_ZN6duckdb11GroupByNodeaSEOS0_.exit ]
  %_M_parent.i.i.i.i.i.i.i.i.i.i = getelementptr inbounds i8, ptr %__first.addr.04.i.i.i.i.i, i64 16
  %47 = load ptr, ptr %_M_parent.i.i.i.i.i.i.i.i.i.i, align 8, !tbaa !55
  invoke void @_ZNSt8_Rb_treeImmSt9_IdentityImESt4lessImESaImEE8_M_eraseEPSt13_Rb_tree_nodeImE(ptr noundef nonnull align 8 dereferenceable(48) %__first.addr.04.i.i.i.i.i, ptr noundef %47)
          to label %_ZSt8_DestroyISt3setImSt4lessImESaImEEEvPT_.exit.i.i.i.i.i unwind label %terminate.lpad.i.i.i.i.i.i.i.i

terminate.lpad.i.i.i.i.i.i.i.i:                   ; preds = %for.body.i.i.i.i.i
  %48 = landingpad { ptr, i32 }
          catch ptr null
  %49 = extractvalue { ptr, i32 } %48, 0
  call void @__clang_call_terminate(ptr %49) #27
  unreachable

_ZSt8_DestroyISt3setImSt4lessImESaImEEEvPT_.exit.i.i.i.i.i: ; preds = %for.body.i.i.i.i.i
  %incdec.ptr.i.i.i.i.i = getelementptr inbounds %"class.std::set", ptr %__first.addr.04.i.i.i.i.i, i64 1
  %cmp.not.i.i.i.i.i = icmp eq ptr %incdec.ptr.i.i.i.i.i, %46
  br i1 %cmp.not.i.i.i.i.i, label %invoke.contthread-pre-split.i.i, label %for.body.i.i.i.i.i, !llvm.loop !59

invoke.contthread-pre-split.i.i:                  ; preds = %_ZSt8_DestroyISt3setImSt4lessImESaImEEEvPT_.exit.i.i.i.i.i
  %.pr.i.i = load ptr, ptr %grouping_sets3.i, align 8, !tbaa !52
  br label %invoke.cont.i.i

invoke.cont.i.i:                                  ; preds = %invoke.contthread-pre-split.i.i, %_ZN6duckdb11GroupByNodeaSEOS0_.exit
  %50 = phi ptr [ %.pr.i.i, %invoke.contthread-pre-split.i.i ], [ %45, %_ZN6duckdb11GroupByNodeaSEOS0_.exit ]
  %tobool.not.i.i.i.i = icmp eq ptr %50, null
  br i1 %tobool.not.i.i.i.i, label %_ZNSt6vectorISt3setImSt4lessImESaImEESaIS4_EED2Ev.exit.i, label %if.then.i.i.i.i

if.then.i.i.i.i:                                  ; preds = %invoke.cont.i.i
  call void @_ZdlPv(ptr noundef nonnull %50) #26
  br label %_ZNSt6vectorISt3setImSt4lessImESaImEESaIS4_EED2Ev.exit.i

_ZNSt6vectorISt3setImSt4lessImESaImEESaIS4_EED2Ev.exit.i: ; preds = %if.then.i.i.i.i, %invoke.cont.i.i
  %51 = load ptr, ptr %ref.tmp35, align 16, !tbaa !60
  %52 = load ptr, ptr %_M_finish.i3.i.i.i.i.i, align 8, !tbaa !61
  %cmp.not3.i.i.i.i3.i = icmp eq ptr %51, %52
  br i1 %cmp.not3.i.i.i.i3.i, label %invoke.cont.i10.i, label %for.body.i.i.i.i4.i

for.body.i.i.i.i4.i:                              ; preds = %_ZNSt6vectorISt3setImSt4lessImESaImEESaIS4_EED2Ev.exit.i, %_ZSt8_DestroyIN6duckdb10unique_ptrINS0_16ParsedExpressionESt14default_deleteIS2_ELb1EEEEvPT_.exit.i.i.i.i.i
  %__first.addr.04.i.i.i.i5.i = phi ptr [ %incdec.ptr.i.i.i.i6.i, %_ZSt8_DestroyIN6duckdb10unique_ptrINS0_16ParsedExpressionESt14default_deleteIS2_ELb1EEEEvPT_.exit.i.i.i.i.i ], [ %51, %_ZNSt6vectorISt3setImSt4lessImESaImEESaIS4_EED2Ev.exit.i ]
  %53 = load ptr, ptr %__first.addr.04.i.i.i.i5.i, align 8, !tbaa !11
  %cmp.not.i.i.i.i.i.i.i = icmp eq ptr %53, null
  br i1 %cmp.not.i.i.i.i.i.i.i, label %_ZSt8_DestroyIN6duckdb10unique_ptrINS0_16ParsedExpressionESt14default_deleteIS2_ELb1EEEEvPT_.exit.i.i.i.i.i, label %_ZNKSt14default_deleteIN6duckdb16ParsedExpressionEEclEPS1_.exit.i.i.i.i.i.i.i

_ZNKSt14default_deleteIN6duckdb16ParsedExpressionEEclEPS1_.exit.i.i.i.i.i.i.i: ; preds = %for.body.i.i.i.i4.i
  %vtable.i.i.i.i.i.i.i.i = load ptr, ptr %53, align 8, !tbaa !9
  %vfn.i.i.i.i.i.i.i.i = getelementptr inbounds ptr, ptr %vtable.i.i.i.i.i.i.i.i, i64 1
  %54 = load ptr, ptr %vfn.i.i.i.i.i.i.i.i, align 8
  call void %54(ptr noundef nonnull align 8 dereferenceable(56) %53) #24
  br label %_ZSt8_DestroyIN6duckdb10unique_ptrINS0_16ParsedExpressionESt14default_deleteIS2_ELb1EEEEvPT_.exit.i.i.i.i.i

_ZSt8_DestroyIN6duckdb10unique_ptrINS0_16ParsedExpressionESt14default_deleteIS2_ELb1EEEEvPT_.exit.i.i.i.i.i: ; preds = %_ZNKSt14default_deleteIN6duckdb16ParsedExpressionEEclEPS1_.exit.i.i.i.i.i.i.i, %for.body.i.i.i.i4.i
  store ptr null, ptr %__first.addr.04.i.i.i.i5.i, align 8, !tbaa !11
  %incdec.ptr.i.i.i.i6.i = getelementptr inbounds %"class.duckdb::unique_ptr.90", ptr %__first.addr.04.i.i.i.i5.i, i64 1
  %cmp.not.i.i.i.i7.i = icmp eq ptr %incdec.ptr.i.i.i.i6.i, %52
  br i1 %cmp.not.i.i.i.i7.i, label %invoke.contthread-pre-split.i8.i, label %for.body.i.i.i.i4.i, !llvm.loop !62

invoke.contthread-pre-split.i8.i:                 ; preds = %_ZSt8_DestroyIN6duckdb10unique_ptrINS0_16ParsedExpressionESt14default_deleteIS2_ELb1EEEEvPT_.exit.i.i.i.i.i
  %.pr.i9.i = load ptr, ptr %ref.tmp35, align 16, !tbaa !60
  br label %invoke.cont.i10.i

invoke.cont.i10.i:                                ; preds = %invoke.contthread-pre-split.i8.i, %_ZNSt6vectorISt3setImSt4lessImESaImEESaIS4_EED2Ev.exit.i
  %55 = phi ptr [ %.pr.i9.i, %invoke.contthread-pre-split.i8.i ], [ %51, %_ZNSt6vectorISt3setImSt4lessImESaImEESaIS4_EED2Ev.exit.i ]
  %tobool.not.i.i.i11.i = icmp eq ptr %55, null
  br i1 %tobool.not.i.i.i11.i, label %_ZN6duckdb11GroupByNodeD2Ev.exit, label %if.then.i.i.i12.i

if.then.i.i.i12.i:                                ; preds = %invoke.cont.i10.i
  call void @_ZdlPv(ptr noundef nonnull %55) #26
  br label %_ZN6duckdb11GroupByNodeD2Ev.exit

_ZN6duckdb11GroupByNodeD2Ev.exit:                 ; preds = %if.then.i.i.i12.i, %invoke.cont.i10.i
  call void @llvm.lifetime.end.p0(i64 48, ptr nonnull %ref.tmp35) #24
  br label %if.end44

lpad28:                                           ; preds = %invoke.cont29, %if.end
  %56 = landingpad { ptr, i32 }
          cleanup
  br label %ehcleanup68

lpad37:                                           ; preds = %if.then34
  %57 = landingpad { ptr, i32 }
          cleanup
  call void @llvm.lifetime.end.p0(i64 48, ptr nonnull %ref.tmp35) #24
  br label %ehcleanup68

if.else42:                                        ; preds = %invoke.cont31
  store i8 2, ptr %aggregate_handling43, align 8, !tbaa !79
  br label %if.end44

if.end44:                                         ; preds = %if.else42, %_ZN6duckdb11GroupByNodeD2Ev.exit
  %select_list = getelementptr inbounds %"class.duckdb::SelectNode", ptr %call32, i64 0, i32 1
  %58 = load ptr, ptr %select_list, align 8, !tbaa !60
  %_M_finish.i.i.i = getelementptr inbounds %"class.duckdb::SelectNode", ptr %call32, i64 0, i32 1, i32 0, i32 0, i32 0, i32 0, i32 1
  %59 = load ptr, ptr %_M_finish.i.i.i, align 8, !tbaa !61
  %tobool.not.i.i.i = icmp eq ptr %59, %58
  br i1 %tobool.not.i.i.i, label %_ZN6duckdb6vectorINS_10unique_ptrINS_16ParsedExpressionESt14default_deleteIS2_ELb1EEELb1EE5clearEv.exit, label %for.body.i.i.i.i.i.i

for.body.i.i.i.i.i.i:                             ; preds = %if.end44, %_ZSt8_DestroyIN6duckdb10unique_ptrINS0_16ParsedExpressionESt14default_deleteIS2_ELb1EEEEvPT_.exit.i.i.i.i.i.i
  %__first.addr.04.i.i.i.i.i.i = phi ptr [ %incdec.ptr.i.i.i.i.i.i, %_ZSt8_DestroyIN6duckdb10unique_ptrINS0_16ParsedExpressionESt14default_deleteIS2_ELb1EEEEvPT_.exit.i.i.i.i.i.i ], [ %58, %if.end44 ]
  %60 = load ptr, ptr %__first.addr.04.i.i.i.i.i.i, align 8, !tbaa !11
  %cmp.not.i.i.i.i.i.i.i.i116 = icmp eq ptr %60, null
  br i1 %cmp.not.i.i.i.i.i.i.i.i116, label %_ZSt8_DestroyIN6duckdb10unique_ptrINS0_16ParsedExpressionESt14default_deleteIS2_ELb1EEEEvPT_.exit.i.i.i.i.i.i, label %_ZNKSt14default_deleteIN6duckdb16ParsedExpressionEEclEPS1_.exit.i.i.i.i.i.i.i.i

_ZNKSt14default_deleteIN6duckdb16ParsedExpressionEEclEPS1_.exit.i.i.i.i.i.i.i.i: ; preds = %for.body.i.i.i.i.i.i
  %vtable.i.i.i.i.i.i.i.i.i = load ptr, ptr %60, align 8, !tbaa !9
  %vfn.i.i.i.i.i.i.i.i.i = getelementptr inbounds ptr, ptr %vtable.i.i.i.i.i.i.i.i.i, i64 1
  %61 = load ptr, ptr %vfn.i.i.i.i.i.i.i.i.i, align 8
  call void %61(ptr noundef nonnull align 8 dereferenceable(56) %60) #24
  br label %_ZSt8_DestroyIN6duckdb10unique_ptrINS0_16ParsedExpressionESt14default_deleteIS2_ELb1EEEEvPT_.exit.i.i.i.i.i.i

_ZSt8_DestroyIN6duckdb10unique_ptrINS0_16ParsedExpressionESt14default_deleteIS2_ELb1EEEEvPT_.exit.i.i.i.i.i.i: ; preds = %_ZNKSt14default_deleteIN6duckdb16ParsedExpressionEEclEPS1_.exit.i.i.i.i.i.i.i.i, %for.body.i.i.i.i.i.i
  store ptr null, ptr %__first.addr.04.i.i.i.i.i.i, align 8, !tbaa !11
  %incdec.ptr.i.i.i.i.i.i = getelementptr inbounds %"class.duckdb::unique_ptr.90", ptr %__first.addr.04.i.i.i.i.i.i, i64 1
  %cmp.not.i.i.i.i.i.i = icmp eq ptr %incdec.ptr.i.i.i.i.i.i, %59
  br i1 %cmp.not.i.i.i.i.i.i, label %invoke.cont.i.i.i, label %for.body.i.i.i.i.i.i, !llvm.loop !62

invoke.cont.i.i.i:                                ; preds = %_ZSt8_DestroyIN6duckdb10unique_ptrINS0_16ParsedExpressionESt14default_deleteIS2_ELb1EEEEvPT_.exit.i.i.i.i.i.i
  store ptr %58, ptr %_M_finish.i.i.i, align 8, !tbaa !61
  br label %_ZN6duckdb6vectorINS_10unique_ptrINS_16ParsedExpressionESt14default_deleteIS2_ELb1EEELb1EE5clearEv.exit

_ZN6duckdb6vectorINS_10unique_ptrINS_16ParsedExpressionESt14default_deleteIS2_ELb1EEELb1EE5clearEv.exit: ; preds = %invoke.cont.i.i.i, %if.end44
  %expressions = getelementptr inbounds %"class.duckdb::AggregateRelation", ptr %this, i64 0, i32 1
  %62 = load ptr, ptr %expressions, align 8, !tbaa !11
  %_M_finish.i = getelementptr inbounds %"class.duckdb::AggregateRelation", ptr %this, i64 0, i32 1, i32 0, i32 0, i32 0, i32 0, i32 1
  %63 = load ptr, ptr %_M_finish.i, align 8, !tbaa !11
  %cmp.i.not155 = icmp eq ptr %62, %63
  br i1 %cmp.i.not155, label %for.cond.cleanup, label %for.body.lr.ph

for.body.lr.ph:                                   ; preds = %_ZN6duckdb6vectorINS_10unique_ptrINS_16ParsedExpressionESt14default_deleteIS2_ELb1EEELb1EE5clearEv.exit
  %_M_end_of_storage.i.i = getelementptr inbounds %"class.duckdb::SelectNode", ptr %call32, i64 0, i32 1, i32 0, i32 0, i32 0, i32 0, i32 2
  br label %for.body

for.cond.cleanup:                                 ; preds = %_ZNSt10unique_ptrIN6duckdb16ParsedExpressionESt14default_deleteIS1_EED2Ev.exit, %_ZN6duckdb6vectorINS_10unique_ptrINS_16ParsedExpressionESt14default_deleteIS2_ELb1EEELb1EE5clearEv.exit
  ret void

for.body:                                         ; preds = %_ZNSt10unique_ptrIN6duckdb16ParsedExpressionESt14default_deleteIS1_EED2Ev.exit, %for.body.lr.ph
  %__begin1.sroa.0.0156 = phi ptr [ %62, %for.body.lr.ph ], [ %incdec.ptr.i, %_ZNSt10unique_ptrIN6duckdb16ParsedExpressionESt14default_deleteIS1_EED2Ev.exit ]
  call void @llvm.lifetime.start.p0(i64 8, ptr nonnull %ref.tmp51) #24
  %call54 = invoke noundef ptr @_ZNK6duckdb10unique_ptrINS_16ParsedExpressionESt14default_deleteIS1_ELb1EEptEv(ptr noundef nonnull align 8 dereferenceable(8) %__begin1.sroa.0.0156)
          to label %invoke.cont53 unwind label %lpad52

invoke.cont53:                                    ; preds = %for.body
  %vtable55 = load ptr, ptr %call54, align 8, !tbaa !9
  %vfn56 = getelementptr inbounds ptr, ptr %vtable55, i64 12
  %64 = load ptr, ptr %vfn56, align 8
  invoke void %64(ptr nonnull sret(%"class.duckdb::unique_ptr.90") align 8 %ref.tmp51, ptr noundef nonnull align 8 dereferenceable(56) %call54)
          to label %invoke.cont57 unwind label %lpad52

invoke.cont57:                                    ; preds = %invoke.cont53
  %65 = load ptr, ptr %_M_finish.i.i.i, align 8, !tbaa !11
  %66 = ptrtoint ptr %65 to i64
  %67 = load ptr, ptr %_M_end_of_storage.i.i, align 8, !tbaa !12
  %cmp.not.i.i = icmp eq ptr %65, %67
  br i1 %cmp.not.i.i, label %if.else.i.i, label %invoke.cont59.thread

invoke.cont59.thread:                             ; preds = %invoke.cont57
  %68 = load i64, ptr %ref.tmp51, align 8, !tbaa !11
  store i64 %68, ptr %65, align 8, !tbaa !11
  %69 = load ptr, ptr %_M_finish.i.i.i, align 8, !tbaa !61
  %incdec.ptr.i.i = getelementptr inbounds %"class.duckdb::unique_ptr.90", ptr %69, i64 1
  store ptr %incdec.ptr.i.i, ptr %_M_finish.i.i.i, align 8, !tbaa !61
  br label %_ZNSt10unique_ptrIN6duckdb16ParsedExpressionESt14default_deleteIS1_EED2Ev.exit

if.else.i.i:                                      ; preds = %invoke.cont57
  %70 = load ptr, ptr %select_list, align 8, !tbaa !11
  %71 = ptrtoint ptr %70 to i64
  %sub.ptr.sub.i.i.i = sub i64 %66, %71
  %cmp.i.i132 = icmp eq i64 %sub.ptr.sub.i.i.i, 9223372036854775800
  br i1 %cmp.i.i132, label %if.then.i.i138, label %_ZNKSt6vectorIN6duckdb10unique_ptrINS0_16ParsedExpressionESt14default_deleteIS2_ELb1EEESaIS5_EE12_M_check_lenEmPKc.exit.i

if.then.i.i138:                                   ; preds = %if.else.i.i
  invoke void @_ZSt20__throw_length_errorPKc(ptr noundef nonnull @.str.54) #25
          to label %.noexc139 unwind label %lpad58.loopexit.split-lp

.noexc139:                                        ; preds = %if.then.i.i138
  unreachable

_ZNKSt6vectorIN6duckdb10unique_ptrINS0_16ParsedExpressionESt14default_deleteIS2_ELb1EEESaIS5_EE12_M_check_lenEmPKc.exit.i: ; preds = %if.else.i.i
  %sub.ptr.div.i.i.i = ashr exact i64 %sub.ptr.sub.i.i.i, 3
  %.sroa.speculated.i.i = call i64 @llvm.umax.i64(i64 %sub.ptr.div.i.i.i, i64 1)
  %add.i.i = add i64 %.sroa.speculated.i.i, %sub.ptr.div.i.i.i
  %cmp7.i.i = icmp ult i64 %add.i.i, %sub.ptr.div.i.i.i
  %72 = call i64 @llvm.umin.i64(i64 %add.i.i, i64 1152921504606846975)
  %cond.i.i = select i1 %cmp7.i.i, i64 1152921504606846975, i64 %72
  %cmp.not.i.i133 = icmp eq i64 %cond.i.i, 0
  br i1 %cmp.not.i.i133, label %_ZNSt12_Vector_baseIN6duckdb10unique_ptrINS0_16ParsedExpressionESt14default_deleteIS2_ELb1EEESaIS5_EE11_M_allocateEm.exit.i, label %_ZNSt16allocator_traitsISaIN6duckdb10unique_ptrINS0_16ParsedExpressionESt14default_deleteIS2_ELb1EEEEE8allocateERS6_m.exit.i.i

_ZNSt16allocator_traitsISaIN6duckdb10unique_ptrINS0_16ParsedExpressionESt14default_deleteIS2_ELb1EEEEE8allocateERS6_m.exit.i.i: ; preds = %_ZNKSt6vectorIN6duckdb10unique_ptrINS0_16ParsedExpressionESt14default_deleteIS2_ELb1EEESaIS5_EE12_M_check_lenEmPKc.exit.i
  %mul.i.i.i.i = shl nuw nsw i64 %cond.i.i, 3
  %call5.i.i.i.i140 = invoke noalias noundef nonnull ptr @_Znwm(i64 noundef %mul.i.i.i.i) #29
          to label %_ZNSt12_Vector_baseIN6duckdb10unique_ptrINS0_16ParsedExpressionESt14default_deleteIS2_ELb1EEESaIS5_EE11_M_allocateEm.exit.i unwind label %lpad58.loopexit

_ZNSt12_Vector_baseIN6duckdb10unique_ptrINS0_16ParsedExpressionESt14default_deleteIS2_ELb1EEESaIS5_EE11_M_allocateEm.exit.i: ; preds = %_ZNSt16allocator_traitsISaIN6duckdb10unique_ptrINS0_16ParsedExpressionESt14default_deleteIS2_ELb1EEEEE8allocateERS6_m.exit.i.i, %_ZNKSt6vectorIN6duckdb10unique_ptrINS0_16ParsedExpressionESt14default_deleteIS2_ELb1EEESaIS5_EE12_M_check_lenEmPKc.exit.i
  %cond.i31.i = phi ptr [ null, %_ZNKSt6vectorIN6duckdb10unique_ptrINS0_16ParsedExpressionESt14default_deleteIS2_ELb1EEESaIS5_EE12_M_check_lenEmPKc.exit.i ], [ %call5.i.i.i.i140, %_ZNSt16allocator_traitsISaIN6duckdb10unique_ptrINS0_16ParsedExpressionESt14default_deleteIS2_ELb1EEEEE8allocateERS6_m.exit.i.i ]
  %add.ptr.i = getelementptr inbounds %"class.duckdb::unique_ptr.90", ptr %cond.i31.i, i64 %sub.ptr.div.i.i.i
  %73 = load i64, ptr %ref.tmp51, align 8, !tbaa !11
  store i64 %73, ptr %add.ptr.i, align 8, !tbaa !11
  store ptr null, ptr %ref.tmp51, align 8, !tbaa !11
  %cmp.not6.i.i.i.i.i = icmp eq ptr %70, %65
  br i1 %cmp.not6.i.i.i.i.i, label %_ZNSt6vectorIN6duckdb10unique_ptrINS0_16ParsedExpressionESt14default_deleteIS2_ELb1EEESaIS5_EE11_S_relocateEPS5_S8_S8_RS6_.exit40.i, label %for.body.i.i.i.i.i134.preheader

for.body.i.i.i.i.i134.preheader:                  ; preds = %_ZNSt12_Vector_baseIN6duckdb10unique_ptrINS0_16ParsedExpressionESt14default_deleteIS2_ELb1EEESaIS5_EE11_M_allocateEm.exit.i
  %74 = add i64 %66, -8
  %75 = sub i64 %74, %71
  %76 = lshr i64 %75, 3
  %77 = add nuw nsw i64 %76, 1
  %min.iters.check = icmp ult i64 %75, 24
  br i1 %min.iters.check, label %for.body.i.i.i.i.i134.preheader30, label %vector.ph

for.body.i.i.i.i.i134.preheader30:                ; preds = %middle.block, %for.body.i.i.i.i.i134.preheader
  %__cur.08.i.i.i.i.i.ph = phi ptr [ %ind.end, %middle.block ], [ %cond.i31.i, %for.body.i.i.i.i.i134.preheader ]
  %__first.addr.07.i.i.i.i.i.ph = phi ptr [ %ind.end157, %middle.block ], [ %70, %for.body.i.i.i.i.i134.preheader ]
  br label %for.body.i.i.i.i.i134

vector.ph:                                        ; preds = %for.body.i.i.i.i.i134.preheader
  %n.vec = and i64 %77, 4611686018427387900
  %78 = shl i64 %n.vec, 3
  %ind.end = getelementptr i8, ptr %cond.i31.i, i64 %78
  br label %vector.body

vector.body:                                      ; preds = %vector.body, %vector.ph
  %index = phi i64 [ 0, %vector.ph ], [ %index.next, %vector.body ]
  %79 = shl i64 %index, 3
  %next.gep = getelementptr i8, ptr %cond.i31.i, i64 %79
  %next.gep160 = getelementptr i8, ptr %70, i64 %79
  call void @llvm.experimental.noalias.scope.decl(metadata !125)
  call void @llvm.experimental.noalias.scope.decl(metadata !128)
  %wide.load = load <2 x i64>, ptr %next.gep160, align 8, !tbaa !11, !alias.scope !128, !noalias !125
  %80 = getelementptr i64, ptr %next.gep160, i64 2
  %wide.load162 = load <2 x i64>, ptr %80, align 8, !tbaa !11, !alias.scope !128, !noalias !125
  store <2 x i64> %wide.load, ptr %next.gep, align 8, !tbaa !11, !alias.scope !125, !noalias !128
  %81 = getelementptr i64, ptr %next.gep, i64 2
  store <2 x i64> %wide.load162, ptr %81, align 8, !tbaa !11, !alias.scope !125, !noalias !128
  %index.next = add nuw i64 %index, 4
  %82 = icmp eq i64 %index.next, %n.vec
  call void @llvm.memset.p0.i64(ptr noundef nonnull align 8 dereferenceable(32) %next.gep160, i8 0, i64 32, i1 false)
  br i1 %82, label %middle.block, label %vector.body, !llvm.loop !130

middle.block:                                     ; preds = %vector.body
  %ind.end157 = getelementptr i8, ptr %70, i64 %78
  %cmp.n = icmp eq i64 %77, %n.vec
  br i1 %cmp.n, label %_ZNSt6vectorIN6duckdb10unique_ptrINS0_16ParsedExpressionESt14default_deleteIS2_ELb1EEESaIS5_EE11_S_relocateEPS5_S8_S8_RS6_.exit40.i.thread, label %for.body.i.i.i.i.i134.preheader30

_ZNSt6vectorIN6duckdb10unique_ptrINS0_16ParsedExpressionESt14default_deleteIS2_ELb1EEESaIS5_EE11_S_relocateEPS5_S8_S8_RS6_.exit40.i.thread: ; preds = %middle.block
  %incdec.ptr.i13726 = getelementptr %"class.duckdb::unique_ptr.90", ptr %ind.end, i64 1
  br label %if.then.i41.i

for.body.i.i.i.i.i134:                            ; preds = %for.body.i.i.i.i.i134.preheader30, %for.body.i.i.i.i.i134
  %__cur.08.i.i.i.i.i = phi ptr [ %incdec.ptr1.i.i.i.i.i, %for.body.i.i.i.i.i134 ], [ %__cur.08.i.i.i.i.i.ph, %for.body.i.i.i.i.i134.preheader30 ]
  %__first.addr.07.i.i.i.i.i = phi ptr [ %incdec.ptr.i.i.i.i.i135, %for.body.i.i.i.i.i134 ], [ %__first.addr.07.i.i.i.i.i.ph, %for.body.i.i.i.i.i134.preheader30 ]
  call void @llvm.experimental.noalias.scope.decl(metadata !125)
  call void @llvm.experimental.noalias.scope.decl(metadata !128)
  %83 = load i64, ptr %__first.addr.07.i.i.i.i.i, align 8, !tbaa !11, !alias.scope !128, !noalias !125
  store i64 %83, ptr %__cur.08.i.i.i.i.i, align 8, !tbaa !11, !alias.scope !125, !noalias !128
  store ptr null, ptr %__first.addr.07.i.i.i.i.i, align 8, !tbaa !11, !alias.scope !128, !noalias !125
  %incdec.ptr.i.i.i.i.i135 = getelementptr inbounds %"class.duckdb::unique_ptr.90", ptr %__first.addr.07.i.i.i.i.i, i64 1
  %incdec.ptr1.i.i.i.i.i = getelementptr inbounds %"class.duckdb::unique_ptr.90", ptr %__cur.08.i.i.i.i.i, i64 1
  %cmp.not.i.i.i.i.i136 = icmp eq ptr %incdec.ptr.i.i.i.i.i135, %65
  br i1 %cmp.not.i.i.i.i.i136, label %_ZNSt6vectorIN6duckdb10unique_ptrINS0_16ParsedExpressionESt14default_deleteIS2_ELb1EEESaIS5_EE11_S_relocateEPS5_S8_S8_RS6_.exit40.i, label %for.body.i.i.i.i.i134, !llvm.loop !133

_ZNSt6vectorIN6duckdb10unique_ptrINS0_16ParsedExpressionESt14default_deleteIS2_ELb1EEESaIS5_EE11_S_relocateEPS5_S8_S8_RS6_.exit40.i: ; preds = %for.body.i.i.i.i.i134, %_ZNSt12_Vector_baseIN6duckdb10unique_ptrINS0_16ParsedExpressionESt14default_deleteIS2_ELb1EEESaIS5_EE11_M_allocateEm.exit.i
  %__cur.0.lcssa.i.i.i.i.i = phi ptr [ %cond.i31.i, %_ZNSt12_Vector_baseIN6duckdb10unique_ptrINS0_16ParsedExpressionESt14default_deleteIS2_ELb1EEESaIS5_EE11_M_allocateEm.exit.i ], [ %incdec.ptr1.i.i.i.i.i, %for.body.i.i.i.i.i134 ]
  %incdec.ptr.i137 = getelementptr %"class.duckdb::unique_ptr.90", ptr %__cur.0.lcssa.i.i.i.i.i, i64 1
  %tobool.not.i.i = icmp eq ptr %70, null
  br i1 %tobool.not.i.i, label %invoke.cont59, label %if.then.i41.i

if.then.i41.i:                                    ; preds = %_ZNSt6vectorIN6duckdb10unique_ptrINS0_16ParsedExpressionESt14default_deleteIS2_ELb1EEESaIS5_EE11_S_relocateEPS5_S8_S8_RS6_.exit40.i.thread, %_ZNSt6vectorIN6duckdb10unique_ptrINS0_16ParsedExpressionESt14default_deleteIS2_ELb1EEESaIS5_EE11_S_relocateEPS5_S8_S8_RS6_.exit40.i
  %incdec.ptr.i13728 = phi ptr [ %incdec.ptr.i13726, %_ZNSt6vectorIN6duckdb10unique_ptrINS0_16ParsedExpressionESt14default_deleteIS2_ELb1EEESaIS5_EE11_S_relocateEPS5_S8_S8_RS6_.exit40.i.thread ], [ %incdec.ptr.i137, %_ZNSt6vectorIN6duckdb10unique_ptrINS0_16ParsedExpressionESt14default_deleteIS2_ELb1EEESaIS5_EE11_S_relocateEPS5_S8_S8_RS6_.exit40.i ]
  call void @_ZdlPv(ptr noundef nonnull %70) #26
  br label %invoke.cont59

invoke.cont59:                                    ; preds = %if.then.i41.i, %_ZNSt6vectorIN6duckdb10unique_ptrINS0_16ParsedExpressionESt14default_deleteIS2_ELb1EEESaIS5_EE11_S_relocateEPS5_S8_S8_RS6_.exit40.i
  %incdec.ptr.i13729 = phi ptr [ %incdec.ptr.i13728, %if.then.i41.i ], [ %incdec.ptr.i137, %_ZNSt6vectorIN6duckdb10unique_ptrINS0_16ParsedExpressionESt14default_deleteIS2_ELb1EEESaIS5_EE11_S_relocateEPS5_S8_S8_RS6_.exit40.i ]
  store ptr %cond.i31.i, ptr %select_list, align 8, !tbaa !60
  store ptr %incdec.ptr.i13729, ptr %_M_finish.i.i.i, align 8, !tbaa !61
  %add.ptr19.i = getelementptr inbounds %"class.duckdb::unique_ptr.90", ptr %cond.i31.i, i64 %cond.i.i
  store ptr %add.ptr19.i, ptr %_M_end_of_storage.i.i, align 8, !tbaa !12
  %.pr149 = load ptr, ptr %ref.tmp51, align 8, !tbaa !11
  %cmp.not.i118 = icmp eq ptr %.pr149, null
  br i1 %cmp.not.i118, label %_ZNSt10unique_ptrIN6duckdb16ParsedExpressionESt14default_deleteIS1_EED2Ev.exit, label %_ZNKSt14default_deleteIN6duckdb16ParsedExpressionEEclEPS1_.exit.i

_ZNKSt14default_deleteIN6duckdb16ParsedExpressionEEclEPS1_.exit.i: ; preds = %invoke.cont59
  %vtable.i.i119 = load ptr, ptr %.pr149, align 8, !tbaa !9
  %vfn.i.i120 = getelementptr inbounds ptr, ptr %vtable.i.i119, i64 1
  %84 = load ptr, ptr %vfn.i.i120, align 8
  call void %84(ptr noundef nonnull align 8 dereferenceable(56) %.pr149) #24
  br label %_ZNSt10unique_ptrIN6duckdb16ParsedExpressionESt14default_deleteIS1_EED2Ev.exit

_ZNSt10unique_ptrIN6duckdb16ParsedExpressionESt14default_deleteIS1_EED2Ev.exit: ; preds = %_ZNKSt14default_deleteIN6duckdb16ParsedExpressionEEclEPS1_.exit.i, %invoke.cont59, %invoke.cont59.thread
  call void @llvm.lifetime.end.p0(i64 8, ptr nonnull %ref.tmp51) #24
  %incdec.ptr.i = getelementptr inbounds %"class.duckdb::unique_ptr.90", ptr %__begin1.sroa.0.0156, i64 1
  %cmp.i.not = icmp eq ptr %incdec.ptr.i, %63
  br i1 %cmp.i.not, label %for.cond.cleanup, label %for.body

lpad52:                                           ; preds = %invoke.cont53, %for.body
  %85 = landingpad { ptr, i32 }
          cleanup
  br label %ehcleanup61

lpad58.loopexit:                                  ; preds = %_ZNSt16allocator_traitsISaIN6duckdb10unique_ptrINS0_16ParsedExpressionESt14default_deleteIS2_ELb1EEEEE8allocateERS6_m.exit.i.i
  %lpad.loopexit = landingpad { ptr, i32 }
          cleanup
  br label %lpad58

lpad58.loopexit.split-lp:                         ; preds = %if.then.i.i138
  %lpad.loopexit.split-lp = landingpad { ptr, i32 }
          cleanup
  br label %lpad58

lpad58:                                           ; preds = %lpad58.loopexit.split-lp, %lpad58.loopexit
  %lpad.phi = phi { ptr, i32 } [ %lpad.loopexit, %lpad58.loopexit ], [ %lpad.loopexit.split-lp, %lpad58.loopexit.split-lp ]
  %86 = load ptr, ptr %ref.tmp51, align 8, !tbaa !11
  %cmp.not.i121 = icmp eq ptr %86, null
  br i1 %cmp.not.i121, label %ehcleanup61, label %_ZNKSt14default_deleteIN6duckdb16ParsedExpressionEEclEPS1_.exit.i122

_ZNKSt14default_deleteIN6duckdb16ParsedExpressionEEclEPS1_.exit.i122: ; preds = %lpad58
  %vtable.i.i123 = load ptr, ptr %86, align 8, !tbaa !9
  %vfn.i.i124 = getelementptr inbounds ptr, ptr %vtable.i.i123, i64 1
  %87 = load ptr, ptr %vfn.i.i124, align 8
  call void %87(ptr noundef nonnull align 8 dereferenceable(56) %86) #24
  br label %ehcleanup61

ehcleanup61:                                      ; preds = %_ZNKSt14default_deleteIN6duckdb16ParsedExpressionEEclEPS1_.exit.i122, %lpad58, %lpad52
  %.pn80 = phi { ptr, i32 } [ %85, %lpad52 ], [ %lpad.phi, %lpad58 ], [ %lpad.phi, %_ZNKSt14default_deleteIN6duckdb16ParsedExpressionEEclEPS1_.exit.i122 ]
  call void @llvm.lifetime.end.p0(i64 8, ptr nonnull %ref.tmp51) #24
  br label %ehcleanup68

ehcleanup68:                                      ; preds = %ehcleanup61, %lpad37, %lpad28, %ehcleanup27, %lpad
  %.pn80.pn.pn = phi { ptr, i32 } [ %11, %lpad ], [ %.pn.pn, %ehcleanup27 ], [ %.pn80, %ehcleanup61 ], [ %57, %lpad37 ], [ %56, %lpad28 ]
  %88 = load ptr, ptr %agg.result, align 8, !tbaa !11
  %cmp.not.i126 = icmp eq ptr %88, null
  br i1 %cmp.not.i126, label %_ZNSt10unique_ptrIN6duckdb9QueryNodeESt14default_deleteIS1_EED2Ev.exit130, label %_ZNKSt14default_deleteIN6duckdb9QueryNodeEEclEPS1_.exit.i127

_ZNKSt14default_deleteIN6duckdb9QueryNodeEEclEPS1_.exit.i127: ; preds = %ehcleanup68
  %vtable.i.i128 = load ptr, ptr %88, align 8, !tbaa !9
  %vfn.i.i129 = getelementptr inbounds ptr, ptr %vtable.i.i128, i64 1
  %89 = load ptr, ptr %vfn.i.i129, align 8
  call void %89(ptr noundef nonnull align 8 dereferenceable(96) %88) #24
  br label %_ZNSt10unique_ptrIN6duckdb9QueryNodeESt14default_deleteIS1_EED2Ev.exit130

_ZNSt10unique_ptrIN6duckdb9QueryNodeESt14default_deleteIS1_EED2Ev.exit130: ; preds = %_ZNKSt14default_deleteIN6duckdb9QueryNodeEEclEPS1_.exit.i127, %ehcleanup68
  store ptr null, ptr %agg.result, align 8, !tbaa !11
  resume { ptr, i32 } %.pn80.pn.pn
}

; Function Attrs: mustprogress uwtable
define linkonce_odr noundef ptr @_ZNK6duckdb10unique_ptrINS_10SelectNodeESt14default_deleteIS1_ELb1EEptEv(ptr noundef nonnull align 8 dereferenceable(8) %this) local_unnamed_addr #0 comdat align 2 personality ptr @__gxx_personality_v0 {
entry:
  %ref.tmp.i = alloca %"class.std::__cxx11::basic_string", align 8
  %ref.tmp2.i = alloca %"class.std::allocator.40", align 1
  %0 = load ptr, ptr %this, align 8, !tbaa !11
  %tobool.not = icmp eq ptr %0, null
  br i1 %tobool.not, label %if.then.i, label %_ZN6duckdb10unique_ptrINS_10SelectNodeESt14default_deleteIS1_ELb1EE13AssertNotNullEb.exit, !prof !23

if.then.i:                                        ; preds = %entry
  %exception.i = tail call ptr @__cxa_allocate_exception(i64 80) #24
  call void @llvm.lifetime.start.p0(i64 32, ptr nonnull %ref.tmp.i) #24
  call void @llvm.lifetime.start.p0(i64 1, ptr nonnull %ref.tmp2.i) #24
  invoke void @_ZNSt7__cxx1112basic_stringIcSt11char_traitsIcESaIcEEC2EPKcRKS3_(ptr noundef nonnull align 8 dereferenceable(32) %ref.tmp.i, ptr noundef nonnull @.str.63, ptr noundef nonnull align 1 dereferenceable(1) %ref.tmp2.i)
          to label %invoke.cont.i unwind label %ehcleanup.thread.i

invoke.cont.i:                                    ; preds = %if.then.i
  invoke void @_ZN6duckdb17InternalExceptionC1ERKNSt7__cxx1112basic_stringIcSt11char_traitsIcESaIcEEE(ptr noundef nonnull align 8 dereferenceable(80) %exception.i, ptr noundef nonnull align 8 dereferenceable(32) %ref.tmp.i)
          to label %invoke.cont4.i unwind label %lpad3.i

invoke.cont4.i:                                   ; preds = %invoke.cont.i
  invoke void @__cxa_throw(ptr nonnull %exception.i, ptr nonnull @_ZTIN6duckdb17InternalExceptionE, ptr nonnull @_ZN6duckdb9ExceptionD2Ev) #25
          to label %unreachable.i unwind label %lpad3.i

ehcleanup.thread.i:                               ; preds = %if.then.i
  %1 = landingpad { ptr, i32 }
          cleanup
  call void @llvm.lifetime.end.p0(i64 1, ptr nonnull %ref.tmp2.i) #24
  call void @llvm.lifetime.end.p0(i64 32, ptr nonnull %ref.tmp.i) #24
  br label %cleanup.action.i

lpad3.i:                                          ; preds = %invoke.cont4.i, %invoke.cont.i
  %cleanup.isactive.0.i = phi i1 [ false, %invoke.cont4.i ], [ true, %invoke.cont.i ]
  %2 = landingpad { ptr, i32 }
          cleanup
  %3 = load ptr, ptr %ref.tmp.i, align 8, !tbaa !43
  %4 = getelementptr inbounds %"class.std::__cxx11::basic_string", ptr %ref.tmp.i, i64 0, i32 2
  %cmp.i.i.i.i = icmp eq ptr %3, %4
  br i1 %cmp.i.i.i.i, label %_ZNKSt7__cxx1112basic_stringIcSt11char_traitsIcESaIcEE11_M_is_localEv.exit.thread.i.i.i, label %ehcleanup.i

_ZNKSt7__cxx1112basic_stringIcSt11char_traitsIcESaIcEE11_M_is_localEv.exit.thread.i.i.i: ; preds = %lpad3.i
  %_M_string_length.i.i.i.i = getelementptr inbounds %"class.std::__cxx11::basic_string", ptr %ref.tmp.i, i64 0, i32 1
  %5 = load i64, ptr %_M_string_length.i.i.i.i, align 8, !tbaa !47
  %cmp3.i.i.i.i = icmp ult i64 %5, 16
  call void @llvm.assume(i1 %cmp3.i.i.i.i)
  call void @llvm.lifetime.end.p0(i64 1, ptr nonnull %ref.tmp2.i) #24
  call void @llvm.lifetime.end.p0(i64 32, ptr nonnull %ref.tmp.i) #24
  br i1 %cleanup.isactive.0.i, label %cleanup.action.i, label %eh.resume.i

ehcleanup.i:                                      ; preds = %lpad3.i
  call void @_ZdlPv(ptr noundef %3) #26
  call void @llvm.lifetime.end.p0(i64 1, ptr nonnull %ref.tmp2.i) #24
  call void @llvm.lifetime.end.p0(i64 32, ptr nonnull %ref.tmp.i) #24
  br i1 %cleanup.isactive.0.i, label %cleanup.action.i, label %eh.resume.i

cleanup.action.i:                                 ; preds = %ehcleanup.i, %_ZNKSt7__cxx1112basic_stringIcSt11char_traitsIcESaIcEE11_M_is_localEv.exit.thread.i.i.i, %ehcleanup.thread.i
  %.pn13.i = phi { ptr, i32 } [ %1, %ehcleanup.thread.i ], [ %2, %ehcleanup.i ], [ %2, %_ZNKSt7__cxx1112basic_stringIcSt11char_traitsIcESaIcEE11_M_is_localEv.exit.thread.i.i.i ]
  call void @__cxa_free_exception(ptr %exception.i) #24
  br label %eh.resume.i

eh.resume.i:                                      ; preds = %cleanup.action.i, %ehcleanup.i, %_ZNKSt7__cxx1112basic_stringIcSt11char_traitsIcESaIcEE11_M_is_localEv.exit.thread.i.i.i
  %.pn12.i = phi { ptr, i32 } [ %2, %ehcleanup.i ], [ %.pn13.i, %cleanup.action.i ], [ %2, %_ZNKSt7__cxx1112basic_stringIcSt11char_traitsIcESaIcEE11_M_is_localEv.exit.thread.i.i.i ]
  resume { ptr, i32 } %.pn12.i

unreachable.i:                                    ; preds = %invoke.cont4.i
  unreachable

_ZN6duckdb10unique_ptrINS_10SelectNodeESt14default_deleteIS1_ELb1EE13AssertNotNullEb.exit: ; preds = %entry
  ret ptr %0
}

; Function Attrs: mustprogress uwtable
define linkonce_odr noundef ptr @_ZNK6duckdb10unique_ptrINS_9QueryNodeESt14default_deleteIS1_ELb1EEptEv(ptr noundef nonnull align 8 dereferenceable(8) %this) local_unnamed_addr #0 comdat align 2 personality ptr @__gxx_personality_v0 {
entry:
  %ref.tmp.i = alloca %"class.std::__cxx11::basic_string", align 8
  %ref.tmp2.i = alloca %"class.std::allocator.40", align 1
  %0 = load ptr, ptr %this, align 8, !tbaa !11
  %tobool.not = icmp eq ptr %0, null
  br i1 %tobool.not, label %if.then.i, label %_ZN6duckdb10unique_ptrINS_9QueryNodeESt14default_deleteIS1_ELb1EE13AssertNotNullEb.exit, !prof !23

if.then.i:                                        ; preds = %entry
  %exception.i = tail call ptr @__cxa_allocate_exception(i64 80) #24
  call void @llvm.lifetime.start.p0(i64 32, ptr nonnull %ref.tmp.i) #24
  call void @llvm.lifetime.start.p0(i64 1, ptr nonnull %ref.tmp2.i) #24
  invoke void @_ZNSt7__cxx1112basic_stringIcSt11char_traitsIcESaIcEEC2EPKcRKS3_(ptr noundef nonnull align 8 dereferenceable(32) %ref.tmp.i, ptr noundef nonnull @.str.63, ptr noundef nonnull align 1 dereferenceable(1) %ref.tmp2.i)
          to label %invoke.cont.i unwind label %ehcleanup.thread.i

invoke.cont.i:                                    ; preds = %if.then.i
  invoke void @_ZN6duckdb17InternalExceptionC1ERKNSt7__cxx1112basic_stringIcSt11char_traitsIcESaIcEEE(ptr noundef nonnull align 8 dereferenceable(80) %exception.i, ptr noundef nonnull align 8 dereferenceable(32) %ref.tmp.i)
          to label %invoke.cont4.i unwind label %lpad3.i

invoke.cont4.i:                                   ; preds = %invoke.cont.i
  invoke void @__cxa_throw(ptr nonnull %exception.i, ptr nonnull @_ZTIN6duckdb17InternalExceptionE, ptr nonnull @_ZN6duckdb9ExceptionD2Ev) #25
          to label %unreachable.i unwind label %lpad3.i

ehcleanup.thread.i:                               ; preds = %if.then.i
  %1 = landingpad { ptr, i32 }
          cleanup
  call void @llvm.lifetime.end.p0(i64 1, ptr nonnull %ref.tmp2.i) #24
  call void @llvm.lifetime.end.p0(i64 32, ptr nonnull %ref.tmp.i) #24
  br label %cleanup.action.i

lpad3.i:                                          ; preds = %invoke.cont4.i, %invoke.cont.i
  %cleanup.isactive.0.i = phi i1 [ false, %invoke.cont4.i ], [ true, %invoke.cont.i ]
  %2 = landingpad { ptr, i32 }
          cleanup
  %3 = load ptr, ptr %ref.tmp.i, align 8, !tbaa !43
  %4 = getelementptr inbounds %"class.std::__cxx11::basic_string", ptr %ref.tmp.i, i64 0, i32 2
  %cmp.i.i.i.i = icmp eq ptr %3, %4
  br i1 %cmp.i.i.i.i, label %_ZNKSt7__cxx1112basic_stringIcSt11char_traitsIcESaIcEE11_M_is_localEv.exit.thread.i.i.i, label %ehcleanup.i

_ZNKSt7__cxx1112basic_stringIcSt11char_traitsIcESaIcEE11_M_is_localEv.exit.thread.i.i.i: ; preds = %lpad3.i
  %_M_string_length.i.i.i.i = getelementptr inbounds %"class.std::__cxx11::basic_string", ptr %ref.tmp.i, i64 0, i32 1
  %5 = load i64, ptr %_M_string_length.i.i.i.i, align 8, !tbaa !47
  %cmp3.i.i.i.i = icmp ult i64 %5, 16
  call void @llvm.assume(i1 %cmp3.i.i.i.i)
  call void @llvm.lifetime.end.p0(i64 1, ptr nonnull %ref.tmp2.i) #24
  call void @llvm.lifetime.end.p0(i64 32, ptr nonnull %ref.tmp.i) #24
  br i1 %cleanup.isactive.0.i, label %cleanup.action.i, label %eh.resume.i

ehcleanup.i:                                      ; preds = %lpad3.i
  call void @_ZdlPv(ptr noundef %3) #26
  call void @llvm.lifetime.end.p0(i64 1, ptr nonnull %ref.tmp2.i) #24
  call void @llvm.lifetime.end.p0(i64 32, ptr nonnull %ref.tmp.i) #24
  br i1 %cleanup.isactive.0.i, label %cleanup.action.i, label %eh.resume.i

cleanup.action.i:                                 ; preds = %ehcleanup.i, %_ZNKSt7__cxx1112basic_stringIcSt11char_traitsIcESaIcEE11_M_is_localEv.exit.thread.i.i.i, %ehcleanup.thread.i
  %.pn13.i = phi { ptr, i32 } [ %1, %ehcleanup.thread.i ], [ %2, %ehcleanup.i ], [ %2, %_ZNKSt7__cxx1112basic_stringIcSt11char_traitsIcESaIcEE11_M_is_localEv.exit.thread.i.i.i ]
  call void @__cxa_free_exception(ptr %exception.i) #24
  br label %eh.resume.i

eh.resume.i:                                      ; preds = %cleanup.action.i, %ehcleanup.i, %_ZNKSt7__cxx1112basic_stringIcSt11char_traitsIcESaIcEE11_M_is_localEv.exit.thread.i.i.i
  %.pn12.i = phi { ptr, i32 } [ %2, %ehcleanup.i ], [ %.pn13.i, %cleanup.action.i ], [ %2, %_ZNKSt7__cxx1112basic_stringIcSt11char_traitsIcESaIcEE11_M_is_localEv.exit.thread.i.i.i ]
  resume { ptr, i32 } %.pn12.i

unreachable.i:                                    ; preds = %invoke.cont4.i
  unreachable

_ZN6duckdb10unique_ptrINS_9QueryNodeESt14default_deleteIS1_ELb1EE13AssertNotNullEb.exit: ; preds = %entry
  ret ptr %0
}

; Function Attrs: mustprogress uwtable
define linkonce_odr noundef nonnull align 8 dereferenceable(216) ptr @_ZN6duckdb9QueryNode4CastINS_10SelectNodeEEERT_v(ptr noundef nonnull align 8 dereferenceable(96) %this) local_unnamed_addr #0 comdat align 2 personality ptr @__gxx_personality_v0 {
entry:
  %ref.tmp = alloca %"class.std::__cxx11::basic_string", align 8
  %ref.tmp2 = alloca %"class.std::allocator.40", align 1
  %type = getelementptr inbounds %"class.duckdb::QueryNode", ptr %this, i64 0, i32 1
  %0 = load i8, ptr %type, align 8, !tbaa !134
  %cmp.not = icmp eq i8 %0, 1
  br i1 %cmp.not, label %if.end, label %if.then

if.then:                                          ; preds = %entry
  %exception = tail call ptr @__cxa_allocate_exception(i64 80) #24
  call void @llvm.lifetime.start.p0(i64 32, ptr nonnull %ref.tmp) #24
  call void @llvm.lifetime.start.p0(i64 1, ptr nonnull %ref.tmp2) #24
  invoke void @_ZNSt7__cxx1112basic_stringIcSt11char_traitsIcESaIcEEC2EPKcRKS3_(ptr noundef nonnull align 8 dereferenceable(32) %ref.tmp, ptr noundef nonnull @.str.64, ptr noundef nonnull align 1 dereferenceable(1) %ref.tmp2)
          to label %invoke.cont unwind label %ehcleanup.thread

invoke.cont:                                      ; preds = %if.then
  invoke void @_ZN6duckdb17InternalExceptionC1ERKNSt7__cxx1112basic_stringIcSt11char_traitsIcESaIcEEE(ptr noundef nonnull align 8 dereferenceable(80) %exception, ptr noundef nonnull align 8 dereferenceable(32) %ref.tmp)
          to label %invoke.cont4 unwind label %lpad3

invoke.cont4:                                     ; preds = %invoke.cont
  invoke void @__cxa_throw(ptr nonnull %exception, ptr nonnull @_ZTIN6duckdb17InternalExceptionE, ptr nonnull @_ZN6duckdb9ExceptionD2Ev) #25
          to label %unreachable unwind label %lpad3

ehcleanup.thread:                                 ; preds = %if.then
  %1 = landingpad { ptr, i32 }
          cleanup
  call void @llvm.lifetime.end.p0(i64 1, ptr nonnull %ref.tmp2) #24
  call void @llvm.lifetime.end.p0(i64 32, ptr nonnull %ref.tmp) #24
  br label %cleanup.action

lpad3:                                            ; preds = %invoke.cont4, %invoke.cont
  %cleanup.isactive.0 = phi i1 [ false, %invoke.cont4 ], [ true, %invoke.cont ]
  %2 = landingpad { ptr, i32 }
          cleanup
  %3 = load ptr, ptr %ref.tmp, align 8, !tbaa !43
  %4 = getelementptr inbounds %"class.std::__cxx11::basic_string", ptr %ref.tmp, i64 0, i32 2
  %cmp.i.i.i = icmp eq ptr %3, %4
  br i1 %cmp.i.i.i, label %_ZNKSt7__cxx1112basic_stringIcSt11char_traitsIcESaIcEE11_M_is_localEv.exit.thread.i.i, label %ehcleanup

_ZNKSt7__cxx1112basic_stringIcSt11char_traitsIcESaIcEE11_M_is_localEv.exit.thread.i.i: ; preds = %lpad3
  %_M_string_length.i.i.i = getelementptr inbounds %"class.std::__cxx11::basic_string", ptr %ref.tmp, i64 0, i32 1
  %5 = load i64, ptr %_M_string_length.i.i.i, align 8, !tbaa !47
  %cmp3.i.i.i = icmp ult i64 %5, 16
  call void @llvm.assume(i1 %cmp3.i.i.i)
  call void @llvm.lifetime.end.p0(i64 1, ptr nonnull %ref.tmp2) #24
  call void @llvm.lifetime.end.p0(i64 32, ptr nonnull %ref.tmp) #24
  br i1 %cleanup.isactive.0, label %cleanup.action, label %eh.resume

ehcleanup:                                        ; preds = %lpad3
  call void @_ZdlPv(ptr noundef %3) #26
  call void @llvm.lifetime.end.p0(i64 1, ptr nonnull %ref.tmp2) #24
  call void @llvm.lifetime.end.p0(i64 32, ptr nonnull %ref.tmp) #24
  br i1 %cleanup.isactive.0, label %cleanup.action, label %eh.resume

cleanup.action:                                   ; preds = %ehcleanup, %_ZNKSt7__cxx1112basic_stringIcSt11char_traitsIcESaIcEE11_M_is_localEv.exit.thread.i.i, %ehcleanup.thread
  %.pn13 = phi { ptr, i32 } [ %1, %ehcleanup.thread ], [ %2, %ehcleanup ], [ %2, %_ZNKSt7__cxx1112basic_stringIcSt11char_traitsIcESaIcEE11_M_is_localEv.exit.thread.i.i ]
  call void @__cxa_free_exception(ptr %exception) #24
  br label %eh.resume

if.end:                                           ; preds = %entry
  ret ptr %this

eh.resume:                                        ; preds = %cleanup.action, %ehcleanup, %_ZNKSt7__cxx1112basic_stringIcSt11char_traitsIcESaIcEE11_M_is_localEv.exit.thread.i.i
  %.pn12 = phi { ptr, i32 } [ %2, %ehcleanup ], [ %.pn13, %cleanup.action ], [ %2, %_ZNKSt7__cxx1112basic_stringIcSt11char_traitsIcESaIcEE11_M_is_localEv.exit.thread.i.i ]
  resume { ptr, i32 } %.pn12

unreachable:                                      ; preds = %invoke.cont4
  unreachable
}

; Function Attrs: mustprogress uwtable
define linkonce_odr void @_ZN6duckdb11GroupByNode4CopyEv(ptr noalias sret(%"class.duckdb::GroupByNode") align 8 %agg.result, ptr noundef nonnull align 8 dereferenceable(48) %this) local_unnamed_addr #0 comdat align 2 personality ptr @__gxx_personality_v0 {
entry:
  %ref.tmp = alloca %"class.duckdb::unique_ptr.90", align 8
  tail call void @llvm.memset.p0.i64(ptr noundef nonnull align 8 dereferenceable(48) %agg.result, i8 0, i64 48, i1 false)
  %_M_finish.i = getelementptr inbounds %"struct.std::_Vector_base<duckdb::unique_ptr<duckdb::ParsedExpression>, std::allocator<duckdb::unique_ptr<duckdb::ParsedExpression>>>::_Vector_impl_data", ptr %this, i64 0, i32 1
  %0 = load ptr, ptr %_M_finish.i, align 8, !tbaa !11
  %1 = load ptr, ptr %this, align 8, !tbaa !11
  %sub.ptr.lhs.cast.i = ptrtoint ptr %0 to i64
  %sub.ptr.rhs.cast.i = ptrtoint ptr %1 to i64
  %sub.ptr.sub.i = sub i64 %sub.ptr.lhs.cast.i, %sub.ptr.rhs.cast.i
  %cmp.i = icmp ugt i64 %sub.ptr.sub.i, 9223372036854775800
  br i1 %cmp.i, label %if.then.i, label %if.end.i

if.then.i:                                        ; preds = %entry
  invoke void @_ZSt20__throw_length_errorPKc(ptr noundef nonnull @.str.62) #25
          to label %.noexc unwind label %lpad

.noexc:                                           ; preds = %if.then.i
  unreachable

if.end.i:                                         ; preds = %entry
  %_M_end_of_storage.i.i = getelementptr inbounds %"struct.std::_Vector_base<duckdb::unique_ptr<duckdb::ParsedExpression>, std::allocator<duckdb::unique_ptr<duckdb::ParsedExpression>>>::_Vector_impl_data", ptr %agg.result, i64 0, i32 2
  %cmp3.i.not = icmp eq ptr %0, %1
  br i1 %cmp3.i.not, label %for.cond.cleanup, label %_ZNSt12_Vector_baseIN6duckdb10unique_ptrINS0_16ParsedExpressionESt14default_deleteIS2_ELb1EEESaIS5_EE11_M_allocateEm.exit.i

_ZNSt12_Vector_baseIN6duckdb10unique_ptrINS0_16ParsedExpressionESt14default_deleteIS2_ELb1EEESaIS5_EE11_M_allocateEm.exit.i: ; preds = %if.end.i
  %call5.i.i.i.i29 = invoke noalias noundef nonnull ptr @_Znwm(i64 noundef %sub.ptr.sub.i) #29
          to label %for.body.lr.ph unwind label %lpad

for.body.lr.ph:                                   ; preds = %_ZNSt12_Vector_baseIN6duckdb10unique_ptrINS0_16ParsedExpressionESt14default_deleteIS2_ELb1EEESaIS5_EE11_M_allocateEm.exit.i
  %_M_finish.i.i = getelementptr inbounds %"struct.std::_Vector_base<duckdb::unique_ptr<duckdb::ParsedExpression>, std::allocator<duckdb::unique_ptr<duckdb::ParsedExpression>>>::_Vector_impl_data", ptr %agg.result, i64 0, i32 1
  store ptr %call5.i.i.i.i29, ptr %agg.result, align 8, !tbaa !60
  store ptr %call5.i.i.i.i29, ptr %_M_finish.i.i, align 8, !tbaa !61
  %add.ptr21.i = getelementptr inbounds i8, ptr %call5.i.i.i.i29, i64 %sub.ptr.sub.i
  store ptr %add.ptr21.i, ptr %_M_end_of_storage.i.i, align 8, !tbaa !12
  br label %for.body

for.cond.cleanup:                                 ; preds = %_ZNSt10unique_ptrIN6duckdb16ParsedExpressionESt14default_deleteIS1_EED2Ev.exit, %if.end.i
  %grouping_sets = getelementptr inbounds %"class.duckdb::GroupByNode", ptr %this, i64 0, i32 1
  %grouping_sets21 = getelementptr inbounds %"class.duckdb::GroupByNode", ptr %agg.result, i64 0, i32 1
  %call.i32 = invoke noundef nonnull align 8 dereferenceable(24) ptr @_ZNSt6vectorISt3setImSt4lessImESaImEESaIS4_EEaSERKS6_(ptr noundef nonnull align 8 dereferenceable(24) %grouping_sets21, ptr noundef nonnull align 8 dereferenceable(24) %grouping_sets)
          to label %nrvo.skipdtor unwind label %lpad

lpad:                                             ; preds = %for.cond.cleanup, %_ZNSt12_Vector_baseIN6duckdb10unique_ptrINS0_16ParsedExpressionESt14default_deleteIS2_ELb1EEESaIS5_EE11_M_allocateEm.exit.i, %if.then.i
  %2 = landingpad { ptr, i32 }
          cleanup
  br label %ehcleanup24

for.body:                                         ; preds = %_ZNSt10unique_ptrIN6duckdb16ParsedExpressionESt14default_deleteIS1_EED2Ev.exit, %for.body.lr.ph
  %__begin2.sroa.0.069 = phi ptr [ %1, %for.body.lr.ph ], [ %incdec.ptr.i, %_ZNSt10unique_ptrIN6duckdb16ParsedExpressionESt14default_deleteIS1_EED2Ev.exit ]
  call void @llvm.lifetime.start.p0(i64 8, ptr nonnull %ref.tmp) #24
  %call12 = invoke noundef ptr @_ZNK6duckdb10unique_ptrINS_16ParsedExpressionESt14default_deleteIS1_ELb1EEptEv(ptr noundef nonnull align 8 dereferenceable(8) %__begin2.sroa.0.069)
          to label %invoke.cont11 unwind label %lpad10

invoke.cont11:                                    ; preds = %for.body
  %vtable = load ptr, ptr %call12, align 8, !tbaa !9
  %vfn = getelementptr inbounds ptr, ptr %vtable, i64 12
  %3 = load ptr, ptr %vfn, align 8
  invoke void %3(ptr nonnull sret(%"class.duckdb::unique_ptr.90") align 8 %ref.tmp, ptr noundef nonnull align 8 dereferenceable(56) %call12)
          to label %invoke.cont13 unwind label %lpad10

invoke.cont13:                                    ; preds = %invoke.cont11
  %4 = load ptr, ptr %_M_finish.i.i, align 8, !tbaa !11
  %5 = ptrtoint ptr %4 to i64
  %6 = load ptr, ptr %_M_end_of_storage.i.i, align 8, !tbaa !12
  %cmp.not.i.i = icmp eq ptr %4, %6
  br i1 %cmp.not.i.i, label %if.else.i.i, label %invoke.cont15.thread

invoke.cont15.thread:                             ; preds = %invoke.cont13
  %7 = load i64, ptr %ref.tmp, align 8, !tbaa !11
  store i64 %7, ptr %4, align 8, !tbaa !11
  %8 = load ptr, ptr %_M_finish.i.i, align 8, !tbaa !61
  %incdec.ptr.i.i = getelementptr inbounds %"class.duckdb::unique_ptr.90", ptr %8, i64 1
  store ptr %incdec.ptr.i.i, ptr %_M_finish.i.i, align 8, !tbaa !61
  br label %_ZNSt10unique_ptrIN6duckdb16ParsedExpressionESt14default_deleteIS1_EED2Ev.exit

if.else.i.i:                                      ; preds = %invoke.cont13
  %9 = load ptr, ptr %agg.result, align 8, !tbaa !11
  %10 = ptrtoint ptr %9 to i64
  %sub.ptr.sub.i.i.i = sub i64 %5, %10
  %cmp.i.i = icmp eq i64 %sub.ptr.sub.i.i.i, 9223372036854775800
  br i1 %cmp.i.i, label %if.then.i.i61, label %_ZNKSt6vectorIN6duckdb10unique_ptrINS0_16ParsedExpressionESt14default_deleteIS2_ELb1EEESaIS5_EE12_M_check_lenEmPKc.exit.i

if.then.i.i61:                                    ; preds = %if.else.i.i
  invoke void @_ZSt20__throw_length_errorPKc(ptr noundef nonnull @.str.54) #25
          to label %.noexc62 unwind label %lpad14.loopexit.split-lp

.noexc62:                                         ; preds = %if.then.i.i61
  unreachable

_ZNKSt6vectorIN6duckdb10unique_ptrINS0_16ParsedExpressionESt14default_deleteIS2_ELb1EEESaIS5_EE12_M_check_lenEmPKc.exit.i: ; preds = %if.else.i.i
  %sub.ptr.div.i.i.i = ashr exact i64 %sub.ptr.sub.i.i.i, 3
  %.sroa.speculated.i.i = call i64 @llvm.umax.i64(i64 %sub.ptr.div.i.i.i, i64 1)
  %add.i.i = add i64 %.sroa.speculated.i.i, %sub.ptr.div.i.i.i
  %cmp7.i.i = icmp ult i64 %add.i.i, %sub.ptr.div.i.i.i
  %11 = call i64 @llvm.umin.i64(i64 %add.i.i, i64 1152921504606846975)
  %cond.i.i = select i1 %cmp7.i.i, i64 1152921504606846975, i64 %11
  %cmp.not.i.i47 = icmp eq i64 %cond.i.i, 0
  br i1 %cmp.not.i.i47, label %_ZNSt12_Vector_baseIN6duckdb10unique_ptrINS0_16ParsedExpressionESt14default_deleteIS2_ELb1EEESaIS5_EE11_M_allocateEm.exit.i48, label %_ZNSt16allocator_traitsISaIN6duckdb10unique_ptrINS0_16ParsedExpressionESt14default_deleteIS2_ELb1EEEEE8allocateERS6_m.exit.i.i

_ZNSt16allocator_traitsISaIN6duckdb10unique_ptrINS0_16ParsedExpressionESt14default_deleteIS2_ELb1EEEEE8allocateERS6_m.exit.i.i: ; preds = %_ZNKSt6vectorIN6duckdb10unique_ptrINS0_16ParsedExpressionESt14default_deleteIS2_ELb1EEESaIS5_EE12_M_check_lenEmPKc.exit.i
  %mul.i.i.i.i = shl nuw nsw i64 %cond.i.i, 3
  %call5.i.i.i.i64 = invoke noalias noundef nonnull ptr @_Znwm(i64 noundef %mul.i.i.i.i) #29
          to label %_ZNSt12_Vector_baseIN6duckdb10unique_ptrINS0_16ParsedExpressionESt14default_deleteIS2_ELb1EEESaIS5_EE11_M_allocateEm.exit.i48 unwind label %lpad14.loopexit

_ZNSt12_Vector_baseIN6duckdb10unique_ptrINS0_16ParsedExpressionESt14default_deleteIS2_ELb1EEESaIS5_EE11_M_allocateEm.exit.i48: ; preds = %_ZNSt16allocator_traitsISaIN6duckdb10unique_ptrINS0_16ParsedExpressionESt14default_deleteIS2_ELb1EEEEE8allocateERS6_m.exit.i.i, %_ZNKSt6vectorIN6duckdb10unique_ptrINS0_16ParsedExpressionESt14default_deleteIS2_ELb1EEESaIS5_EE12_M_check_lenEmPKc.exit.i
  %cond.i31.i = phi ptr [ null, %_ZNKSt6vectorIN6duckdb10unique_ptrINS0_16ParsedExpressionESt14default_deleteIS2_ELb1EEESaIS5_EE12_M_check_lenEmPKc.exit.i ], [ %call5.i.i.i.i64, %_ZNSt16allocator_traitsISaIN6duckdb10unique_ptrINS0_16ParsedExpressionESt14default_deleteIS2_ELb1EEEEE8allocateERS6_m.exit.i.i ]
  %add.ptr.i49 = getelementptr inbounds %"class.duckdb::unique_ptr.90", ptr %cond.i31.i, i64 %sub.ptr.div.i.i.i
  %12 = load i64, ptr %ref.tmp, align 8, !tbaa !11
  store i64 %12, ptr %add.ptr.i49, align 8, !tbaa !11
  store ptr null, ptr %ref.tmp, align 8, !tbaa !11
  %cmp.not6.i.i.i.i.i50 = icmp eq ptr %9, %4
  br i1 %cmp.not6.i.i.i.i.i50, label %_ZNSt6vectorIN6duckdb10unique_ptrINS0_16ParsedExpressionESt14default_deleteIS2_ELb1EEESaIS5_EE11_S_relocateEPS5_S8_S8_RS6_.exit40.i, label %for.body.i.i.i.i.i51.preheader

for.body.i.i.i.i.i51.preheader:                   ; preds = %_ZNSt12_Vector_baseIN6duckdb10unique_ptrINS0_16ParsedExpressionESt14default_deleteIS2_ELb1EEESaIS5_EE11_M_allocateEm.exit.i48
  %13 = add i64 %5, -8
  %14 = sub i64 %13, %10
  %15 = lshr i64 %14, 3
  %16 = add nuw nsw i64 %15, 1
  %min.iters.check = icmp ult i64 %14, 24
  br i1 %min.iters.check, label %for.body.i.i.i.i.i51.preheader10, label %vector.ph

for.body.i.i.i.i.i51.preheader10:                 ; preds = %middle.block, %for.body.i.i.i.i.i51.preheader
  %__cur.08.i.i.i.i.i52.ph = phi ptr [ %ind.end, %middle.block ], [ %cond.i31.i, %for.body.i.i.i.i.i51.preheader ]
  %__first.addr.07.i.i.i.i.i53.ph = phi ptr [ %ind.end70, %middle.block ], [ %9, %for.body.i.i.i.i.i51.preheader ]
  br label %for.body.i.i.i.i.i51

vector.ph:                                        ; preds = %for.body.i.i.i.i.i51.preheader
  %n.vec = and i64 %16, 4611686018427387900
  %17 = shl i64 %n.vec, 3
  %ind.end = getelementptr i8, ptr %cond.i31.i, i64 %17
  br label %vector.body

vector.body:                                      ; preds = %vector.body, %vector.ph
  %index = phi i64 [ 0, %vector.ph ], [ %index.next, %vector.body ]
  %18 = shl i64 %index, 3
  %next.gep = getelementptr i8, ptr %cond.i31.i, i64 %18
  %next.gep73 = getelementptr i8, ptr %9, i64 %18
  call void @llvm.experimental.noalias.scope.decl(metadata !135)
  call void @llvm.experimental.noalias.scope.decl(metadata !138)
  %wide.load = load <2 x i64>, ptr %next.gep73, align 8, !tbaa !11, !alias.scope !138, !noalias !135
  %19 = getelementptr i64, ptr %next.gep73, i64 2
  %wide.load75 = load <2 x i64>, ptr %19, align 8, !tbaa !11, !alias.scope !138, !noalias !135
  store <2 x i64> %wide.load, ptr %next.gep, align 8, !tbaa !11, !alias.scope !135, !noalias !138
  %20 = getelementptr i64, ptr %next.gep, i64 2
  store <2 x i64> %wide.load75, ptr %20, align 8, !tbaa !11, !alias.scope !135, !noalias !138
  %index.next = add nuw i64 %index, 4
  %21 = icmp eq i64 %index.next, %n.vec
  call void @llvm.memset.p0.i64(ptr noundef nonnull align 8 dereferenceable(32) %next.gep73, i8 0, i64 32, i1 false)
  br i1 %21, label %middle.block, label %vector.body, !llvm.loop !140

middle.block:                                     ; preds = %vector.body
  %ind.end70 = getelementptr i8, ptr %9, i64 %17
  %cmp.n = icmp eq i64 %16, %n.vec
  br i1 %cmp.n, label %_ZNSt6vectorIN6duckdb10unique_ptrINS0_16ParsedExpressionESt14default_deleteIS2_ELb1EEESaIS5_EE11_S_relocateEPS5_S8_S8_RS6_.exit40.i.thread, label %for.body.i.i.i.i.i51.preheader10

_ZNSt6vectorIN6duckdb10unique_ptrINS0_16ParsedExpressionESt14default_deleteIS2_ELb1EEESaIS5_EE11_S_relocateEPS5_S8_S8_RS6_.exit40.i.thread: ; preds = %middle.block
  %incdec.ptr.i586 = getelementptr %"class.duckdb::unique_ptr.90", ptr %ind.end, i64 1
  br label %if.then.i41.i

for.body.i.i.i.i.i51:                             ; preds = %for.body.i.i.i.i.i51.preheader10, %for.body.i.i.i.i.i51
  %__cur.08.i.i.i.i.i52 = phi ptr [ %incdec.ptr1.i.i.i.i.i55, %for.body.i.i.i.i.i51 ], [ %__cur.08.i.i.i.i.i52.ph, %for.body.i.i.i.i.i51.preheader10 ]
  %__first.addr.07.i.i.i.i.i53 = phi ptr [ %incdec.ptr.i.i.i.i.i54, %for.body.i.i.i.i.i51 ], [ %__first.addr.07.i.i.i.i.i53.ph, %for.body.i.i.i.i.i51.preheader10 ]
  call void @llvm.experimental.noalias.scope.decl(metadata !135)
  call void @llvm.experimental.noalias.scope.decl(metadata !138)
  %22 = load i64, ptr %__first.addr.07.i.i.i.i.i53, align 8, !tbaa !11, !alias.scope !138, !noalias !135
  store i64 %22, ptr %__cur.08.i.i.i.i.i52, align 8, !tbaa !11, !alias.scope !135, !noalias !138
  store ptr null, ptr %__first.addr.07.i.i.i.i.i53, align 8, !tbaa !11, !alias.scope !138, !noalias !135
  %incdec.ptr.i.i.i.i.i54 = getelementptr inbounds %"class.duckdb::unique_ptr.90", ptr %__first.addr.07.i.i.i.i.i53, i64 1
  %incdec.ptr1.i.i.i.i.i55 = getelementptr inbounds %"class.duckdb::unique_ptr.90", ptr %__cur.08.i.i.i.i.i52, i64 1
  %cmp.not.i.i.i.i.i56 = icmp eq ptr %incdec.ptr.i.i.i.i.i54, %4
  br i1 %cmp.not.i.i.i.i.i56, label %_ZNSt6vectorIN6duckdb10unique_ptrINS0_16ParsedExpressionESt14default_deleteIS2_ELb1EEESaIS5_EE11_S_relocateEPS5_S8_S8_RS6_.exit40.i, label %for.body.i.i.i.i.i51, !llvm.loop !141

_ZNSt6vectorIN6duckdb10unique_ptrINS0_16ParsedExpressionESt14default_deleteIS2_ELb1EEESaIS5_EE11_S_relocateEPS5_S8_S8_RS6_.exit40.i: ; preds = %for.body.i.i.i.i.i51, %_ZNSt12_Vector_baseIN6duckdb10unique_ptrINS0_16ParsedExpressionESt14default_deleteIS2_ELb1EEESaIS5_EE11_M_allocateEm.exit.i48
  %__cur.0.lcssa.i.i.i.i.i = phi ptr [ %cond.i31.i, %_ZNSt12_Vector_baseIN6duckdb10unique_ptrINS0_16ParsedExpressionESt14default_deleteIS2_ELb1EEESaIS5_EE11_M_allocateEm.exit.i48 ], [ %incdec.ptr1.i.i.i.i.i55, %for.body.i.i.i.i.i51 ]
  %incdec.ptr.i58 = getelementptr %"class.duckdb::unique_ptr.90", ptr %__cur.0.lcssa.i.i.i.i.i, i64 1
  %tobool.not.i.i59 = icmp eq ptr %9, null
  br i1 %tobool.not.i.i59, label %invoke.cont15, label %if.then.i41.i

if.then.i41.i:                                    ; preds = %_ZNSt6vectorIN6duckdb10unique_ptrINS0_16ParsedExpressionESt14default_deleteIS2_ELb1EEESaIS5_EE11_S_relocateEPS5_S8_S8_RS6_.exit40.i.thread, %_ZNSt6vectorIN6duckdb10unique_ptrINS0_16ParsedExpressionESt14default_deleteIS2_ELb1EEESaIS5_EE11_S_relocateEPS5_S8_S8_RS6_.exit40.i
  %incdec.ptr.i588 = phi ptr [ %incdec.ptr.i586, %_ZNSt6vectorIN6duckdb10unique_ptrINS0_16ParsedExpressionESt14default_deleteIS2_ELb1EEESaIS5_EE11_S_relocateEPS5_S8_S8_RS6_.exit40.i.thread ], [ %incdec.ptr.i58, %_ZNSt6vectorIN6duckdb10unique_ptrINS0_16ParsedExpressionESt14default_deleteIS2_ELb1EEESaIS5_EE11_S_relocateEPS5_S8_S8_RS6_.exit40.i ]
  call void @_ZdlPv(ptr noundef nonnull %9) #26
  br label %invoke.cont15

invoke.cont15:                                    ; preds = %if.then.i41.i, %_ZNSt6vectorIN6duckdb10unique_ptrINS0_16ParsedExpressionESt14default_deleteIS2_ELb1EEESaIS5_EE11_S_relocateEPS5_S8_S8_RS6_.exit40.i
  %incdec.ptr.i589 = phi ptr [ %incdec.ptr.i588, %if.then.i41.i ], [ %incdec.ptr.i58, %_ZNSt6vectorIN6duckdb10unique_ptrINS0_16ParsedExpressionESt14default_deleteIS2_ELb1EEESaIS5_EE11_S_relocateEPS5_S8_S8_RS6_.exit40.i ]
  store ptr %cond.i31.i, ptr %agg.result, align 8, !tbaa !60
  store ptr %incdec.ptr.i589, ptr %_M_finish.i.i, align 8, !tbaa !61
  %add.ptr19.i = getelementptr inbounds %"class.duckdb::unique_ptr.90", ptr %cond.i31.i, i64 %cond.i.i
  store ptr %add.ptr19.i, ptr %_M_end_of_storage.i.i, align 8, !tbaa !12
  %.pr = load ptr, ptr %ref.tmp, align 8, !tbaa !11
  %cmp.not.i = icmp eq ptr %.pr, null
  br i1 %cmp.not.i, label %_ZNSt10unique_ptrIN6duckdb16ParsedExpressionESt14default_deleteIS1_EED2Ev.exit, label %_ZNKSt14default_deleteIN6duckdb16ParsedExpressionEEclEPS1_.exit.i

_ZNKSt14default_deleteIN6duckdb16ParsedExpressionEEclEPS1_.exit.i: ; preds = %invoke.cont15
  %vtable.i.i = load ptr, ptr %.pr, align 8, !tbaa !9
  %vfn.i.i = getelementptr inbounds ptr, ptr %vtable.i.i, i64 1
  %23 = load ptr, ptr %vfn.i.i, align 8
  call void %23(ptr noundef nonnull align 8 dereferenceable(56) %.pr) #24
  br label %_ZNSt10unique_ptrIN6duckdb16ParsedExpressionESt14default_deleteIS1_EED2Ev.exit

_ZNSt10unique_ptrIN6duckdb16ParsedExpressionESt14default_deleteIS1_EED2Ev.exit: ; preds = %_ZNKSt14default_deleteIN6duckdb16ParsedExpressionEEclEPS1_.exit.i, %invoke.cont15, %invoke.cont15.thread
  call void @llvm.lifetime.end.p0(i64 8, ptr nonnull %ref.tmp) #24
  %incdec.ptr.i = getelementptr inbounds %"class.duckdb::unique_ptr.90", ptr %__begin2.sroa.0.069, i64 1
  %cmp.i31.not = icmp eq ptr %incdec.ptr.i, %0
  br i1 %cmp.i31.not, label %for.cond.cleanup, label %for.body

lpad10:                                           ; preds = %invoke.cont11, %for.body
  %24 = landingpad { ptr, i32 }
          cleanup
  br label %ehcleanup

lpad14.loopexit:                                  ; preds = %_ZNSt16allocator_traitsISaIN6duckdb10unique_ptrINS0_16ParsedExpressionESt14default_deleteIS2_ELb1EEEEE8allocateERS6_m.exit.i.i
  %lpad.loopexit = landingpad { ptr, i32 }
          cleanup
  br label %lpad14

lpad14.loopexit.split-lp:                         ; preds = %if.then.i.i61
  %lpad.loopexit.split-lp = landingpad { ptr, i32 }
          cleanup
  br label %lpad14

lpad14:                                           ; preds = %lpad14.loopexit.split-lp, %lpad14.loopexit
  %lpad.phi = phi { ptr, i32 } [ %lpad.loopexit, %lpad14.loopexit ], [ %lpad.loopexit.split-lp, %lpad14.loopexit.split-lp ]
  %25 = load ptr, ptr %ref.tmp, align 8, !tbaa !11
  %cmp.not.i38 = icmp eq ptr %25, null
  br i1 %cmp.not.i38, label %ehcleanup, label %_ZNKSt14default_deleteIN6duckdb16ParsedExpressionEEclEPS1_.exit.i39

_ZNKSt14default_deleteIN6duckdb16ParsedExpressionEEclEPS1_.exit.i39: ; preds = %lpad14
  %vtable.i.i40 = load ptr, ptr %25, align 8, !tbaa !9
  %vfn.i.i41 = getelementptr inbounds ptr, ptr %vtable.i.i40, i64 1
  %26 = load ptr, ptr %vfn.i.i41, align 8
  call void %26(ptr noundef nonnull align 8 dereferenceable(56) %25) #24
  br label %ehcleanup

ehcleanup:                                        ; preds = %_ZNKSt14default_deleteIN6duckdb16ParsedExpressionEEclEPS1_.exit.i39, %lpad14, %lpad10
  %.pn = phi { ptr, i32 } [ %24, %lpad10 ], [ %lpad.phi, %lpad14 ], [ %lpad.phi, %_ZNKSt14default_deleteIN6duckdb16ParsedExpressionEEclEPS1_.exit.i39 ]
  call void @llvm.lifetime.end.p0(i64 8, ptr nonnull %ref.tmp) #24
  br label %ehcleanup24

nrvo.skipdtor:                                    ; preds = %for.cond.cleanup
  ret void

ehcleanup24:                                      ; preds = %ehcleanup, %lpad
  %.pn.pn = phi { ptr, i32 } [ %.pn, %ehcleanup ], [ %2, %lpad ]
  call void @_ZN6duckdb11GroupByNodeD2Ev(ptr noundef nonnull align 8 dereferenceable(48) %agg.result) #24
  resume { ptr, i32 } %.pn.pn
}

; Function Attrs: mustprogress uwtable
define linkonce_odr noundef ptr @_ZNK6duckdb10unique_ptrINS_16ParsedExpressionESt14default_deleteIS1_ELb1EEptEv(ptr noundef nonnull align 8 dereferenceable(8) %this) local_unnamed_addr #0 comdat align 2 personality ptr @__gxx_personality_v0 {
entry:
  %ref.tmp.i = alloca %"class.std::__cxx11::basic_string", align 8
  %ref.tmp2.i = alloca %"class.std::allocator.40", align 1
  %0 = load ptr, ptr %this, align 8, !tbaa !11
  %tobool.not = icmp eq ptr %0, null
  br i1 %tobool.not, label %if.then.i, label %_ZN6duckdb10unique_ptrINS_16ParsedExpressionESt14default_deleteIS1_ELb1EE13AssertNotNullEb.exit, !prof !23

if.then.i:                                        ; preds = %entry
  %exception.i = tail call ptr @__cxa_allocate_exception(i64 80) #24
  call void @llvm.lifetime.start.p0(i64 32, ptr nonnull %ref.tmp.i) #24
  call void @llvm.lifetime.start.p0(i64 1, ptr nonnull %ref.tmp2.i) #24
  invoke void @_ZNSt7__cxx1112basic_stringIcSt11char_traitsIcESaIcEEC2EPKcRKS3_(ptr noundef nonnull align 8 dereferenceable(32) %ref.tmp.i, ptr noundef nonnull @.str.63, ptr noundef nonnull align 1 dereferenceable(1) %ref.tmp2.i)
          to label %invoke.cont.i unwind label %ehcleanup.thread.i

invoke.cont.i:                                    ; preds = %if.then.i
  invoke void @_ZN6duckdb17InternalExceptionC1ERKNSt7__cxx1112basic_stringIcSt11char_traitsIcESaIcEEE(ptr noundef nonnull align 8 dereferenceable(80) %exception.i, ptr noundef nonnull align 8 dereferenceable(32) %ref.tmp.i)
          to label %invoke.cont4.i unwind label %lpad3.i

invoke.cont4.i:                                   ; preds = %invoke.cont.i
  invoke void @__cxa_throw(ptr nonnull %exception.i, ptr nonnull @_ZTIN6duckdb17InternalExceptionE, ptr nonnull @_ZN6duckdb9ExceptionD2Ev) #25
          to label %unreachable.i unwind label %lpad3.i

ehcleanup.thread.i:                               ; preds = %if.then.i
  %1 = landingpad { ptr, i32 }
          cleanup
  call void @llvm.lifetime.end.p0(i64 1, ptr nonnull %ref.tmp2.i) #24
  call void @llvm.lifetime.end.p0(i64 32, ptr nonnull %ref.tmp.i) #24
  br label %cleanup.action.i

lpad3.i:                                          ; preds = %invoke.cont4.i, %invoke.cont.i
  %cleanup.isactive.0.i = phi i1 [ false, %invoke.cont4.i ], [ true, %invoke.cont.i ]
  %2 = landingpad { ptr, i32 }
          cleanup
  %3 = load ptr, ptr %ref.tmp.i, align 8, !tbaa !43
  %4 = getelementptr inbounds %"class.std::__cxx11::basic_string", ptr %ref.tmp.i, i64 0, i32 2
  %cmp.i.i.i.i = icmp eq ptr %3, %4
  br i1 %cmp.i.i.i.i, label %_ZNKSt7__cxx1112basic_stringIcSt11char_traitsIcESaIcEE11_M_is_localEv.exit.thread.i.i.i, label %ehcleanup.i

_ZNKSt7__cxx1112basic_stringIcSt11char_traitsIcESaIcEE11_M_is_localEv.exit.thread.i.i.i: ; preds = %lpad3.i
  %_M_string_length.i.i.i.i = getelementptr inbounds %"class.std::__cxx11::basic_string", ptr %ref.tmp.i, i64 0, i32 1
  %5 = load i64, ptr %_M_string_length.i.i.i.i, align 8, !tbaa !47
  %cmp3.i.i.i.i = icmp ult i64 %5, 16
  call void @llvm.assume(i1 %cmp3.i.i.i.i)
  call void @llvm.lifetime.end.p0(i64 1, ptr nonnull %ref.tmp2.i) #24
  call void @llvm.lifetime.end.p0(i64 32, ptr nonnull %ref.tmp.i) #24
  br i1 %cleanup.isactive.0.i, label %cleanup.action.i, label %eh.resume.i

ehcleanup.i:                                      ; preds = %lpad3.i
  call void @_ZdlPv(ptr noundef %3) #26
  call void @llvm.lifetime.end.p0(i64 1, ptr nonnull %ref.tmp2.i) #24
  call void @llvm.lifetime.end.p0(i64 32, ptr nonnull %ref.tmp.i) #24
  br i1 %cleanup.isactive.0.i, label %cleanup.action.i, label %eh.resume.i

cleanup.action.i:                                 ; preds = %ehcleanup.i, %_ZNKSt7__cxx1112basic_stringIcSt11char_traitsIcESaIcEE11_M_is_localEv.exit.thread.i.i.i, %ehcleanup.thread.i
  %.pn13.i = phi { ptr, i32 } [ %1, %ehcleanup.thread.i ], [ %2, %ehcleanup.i ], [ %2, %_ZNKSt7__cxx1112basic_stringIcSt11char_traitsIcESaIcEE11_M_is_localEv.exit.thread.i.i.i ]
  call void @__cxa_free_exception(ptr %exception.i) #24
  br label %eh.resume.i

eh.resume.i:                                      ; preds = %cleanup.action.i, %ehcleanup.i, %_ZNKSt7__cxx1112basic_stringIcSt11char_traitsIcESaIcEE11_M_is_localEv.exit.thread.i.i.i
  %.pn12.i = phi { ptr, i32 } [ %2, %ehcleanup.i ], [ %.pn13.i, %cleanup.action.i ], [ %2, %_ZNKSt7__cxx1112basic_stringIcSt11char_traitsIcESaIcEE11_M_is_localEv.exit.thread.i.i.i ]
  resume { ptr, i32 } %.pn12.i

unreachable.i:                                    ; preds = %invoke.cont4.i
  unreachable

_ZN6duckdb10unique_ptrINS_16ParsedExpressionESt14default_deleteIS1_ELb1EE13AssertNotNullEb.exit: ; preds = %entry
  ret ptr %0
}

; Function Attrs: mustprogress uwtable
define void @_ZN6duckdb17AggregateRelation8GetAliasB5cxx11Ev(ptr noalias sret(%"class.std::__cxx11::basic_string") align 8 %agg.result, ptr nocapture noundef nonnull readonly align 8 dereferenceable(176) %this) unnamed_addr #0 align 2 {
entry:
  %child = getelementptr inbounds %"class.duckdb::AggregateRelation", ptr %this, i64 0, i32 4
  %0 = load ptr, ptr %child, align 8, !tbaa !3
  %vtable = load ptr, ptr %0, align 8, !tbaa !9
  %vfn = getelementptr inbounds ptr, ptr %vtable, i64 5
  %1 = load ptr, ptr %vfn, align 8
  tail call void %1(ptr sret(%"class.std::__cxx11::basic_string") align 8 %agg.result, ptr noundef nonnull align 8 dereferenceable(64) %0)
  ret void
}

; Function Attrs: mustprogress nofree norecurse nosync nounwind willreturn memory(none) uwtable
define noundef nonnull align 8 dereferenceable(24) ptr @_ZN6duckdb17AggregateRelation7ColumnsEv(ptr noundef nonnull readnone align 8 dereferenceable(176) %this) unnamed_addr #5 align 2 {
entry:
  %columns = getelementptr inbounds %"class.duckdb::AggregateRelation", ptr %this, i64 0, i32 3
  ret ptr %columns
}

; Function Attrs: mustprogress uwtable
define void @_ZN6duckdb17AggregateRelation8ToStringB5cxx11Em(ptr noalias sret(%"class.std::__cxx11::basic_string") align 8 %agg.result, ptr noundef nonnull align 8 dereferenceable(176) %this, i64 noundef %depth) unnamed_addr #0 align 2 personality ptr @__gxx_personality_v0 {
entry:
  %str = alloca %"class.std::__cxx11::basic_string", align 8
  %ref.tmp = alloca %"class.std::__cxx11::basic_string", align 8
  %ref.tmp6 = alloca %"class.std::__cxx11::basic_string", align 8
  %ref.tmp21 = alloca %"class.std::__cxx11::basic_string", align 8
  call void @llvm.lifetime.start.p0(i64 32, ptr nonnull %str) #24
  call void @llvm.lifetime.start.p0(i64 32, ptr nonnull %ref.tmp) #24
  call void @_ZN6duckdb8Relation16RenderWhitespaceB5cxx11Em(ptr nonnull sret(%"class.std::__cxx11::basic_string") align 8 %ref.tmp, ptr noundef nonnull align 8 dereferenceable(64) %this, i64 noundef %depth)
  call void @llvm.experimental.noalias.scope.decl(metadata !142)
  %_M_string_length.i.i.i.i = getelementptr inbounds %"class.std::__cxx11::basic_string", ptr %ref.tmp, i64 0, i32 1
  %0 = load i64, ptr %_M_string_length.i.i.i.i, align 8, !tbaa !47, !noalias !142
  %1 = add i64 %0, -4611686018427387893
  %cmp.i.i.i = icmp ult i64 %1, 11
  br i1 %cmp.i.i.i, label %if.then.i.i.i, label %_ZNSt7__cxx1112basic_stringIcSt11char_traitsIcESaIcEE6appendEPKc.exit.i

if.then.i.i.i:                                    ; preds = %entry
  invoke void @_ZSt20__throw_length_errorPKc(ptr noundef nonnull @.str.57) #25
          to label %.noexc unwind label %lpad

.noexc:                                           ; preds = %if.then.i.i.i
  unreachable

_ZNSt7__cxx1112basic_stringIcSt11char_traitsIcESaIcEE6appendEPKc.exit.i: ; preds = %entry
  %call2.i.i44 = invoke noundef nonnull align 8 dereferenceable(32) ptr @_ZNSt7__cxx1112basic_stringIcSt11char_traitsIcESaIcEE9_M_appendEPKcm(ptr noundef nonnull align 8 dereferenceable(32) %ref.tmp, ptr noundef nonnull @.str, i64 noundef 11)
          to label %call2.i.i.noexc unwind label %lpad

call2.i.i.noexc:                                  ; preds = %_ZNSt7__cxx1112basic_stringIcSt11char_traitsIcESaIcEE6appendEPKc.exit.i
  %2 = getelementptr inbounds %"class.std::__cxx11::basic_string", ptr %str, i64 0, i32 2
  store ptr %2, ptr %str, align 8, !tbaa !145, !alias.scope !142
  %3 = load ptr, ptr %call2.i.i44, align 8, !tbaa !43
  %4 = getelementptr inbounds %"class.std::__cxx11::basic_string", ptr %call2.i.i44, i64 0, i32 2
  %cmp.i.i1.i = icmp eq ptr %3, %4
  br i1 %cmp.i.i1.i, label %if.then.i.i, label %if.else.i.i

if.then.i.i:                                      ; preds = %call2.i.i.noexc
  %_M_string_length.i.i.i = getelementptr inbounds %"class.std::__cxx11::basic_string", ptr %call2.i.i44, i64 0, i32 1
  %5 = load i64, ptr %_M_string_length.i.i.i, align 8, !tbaa !47
  %cmp3.i.i.i = icmp ult i64 %5, 16
  call void @llvm.assume(i1 %cmp3.i.i.i)
  %add.i.i = add nuw nsw i64 %5, 1
  call void @llvm.memcpy.p0.p0.i64(ptr noundef nonnull align 8 dereferenceable(1) %2, ptr noundef nonnull align 8 dereferenceable(1) %3, i64 %add.i.i, i1 false)
  br label %invoke.cont

if.else.i.i:                                      ; preds = %call2.i.i.noexc
  store ptr %3, ptr %str, align 8, !tbaa !43, !alias.scope !142
  %6 = load i64, ptr %4, align 8, !tbaa !21
  store i64 %6, ptr %2, align 8, !tbaa !21, !alias.scope !142
  %_M_string_length.i28.i.phi.trans.insert.i = getelementptr inbounds %"class.std::__cxx11::basic_string", ptr %call2.i.i44, i64 0, i32 1
  %.pre.i = load i64, ptr %_M_string_length.i28.i.phi.trans.insert.i, align 8, !tbaa !47
  br label %invoke.cont

invoke.cont:                                      ; preds = %if.else.i.i, %if.then.i.i
  %7 = phi i64 [ %5, %if.then.i.i ], [ %.pre.i, %if.else.i.i ]
  %_M_string_length.i28.i.i = getelementptr inbounds %"class.std::__cxx11::basic_string", ptr %call2.i.i44, i64 0, i32 1
  %_M_string_length.i29.i.i = getelementptr inbounds %"class.std::__cxx11::basic_string", ptr %str, i64 0, i32 1
  store i64 %7, ptr %_M_string_length.i29.i.i, align 8, !tbaa !47, !alias.scope !142
  store ptr %4, ptr %call2.i.i44, align 8, !tbaa !43
  store i64 0, ptr %_M_string_length.i28.i.i, align 8, !tbaa !47
  store i8 0, ptr %4, align 8, !tbaa !21
  %8 = load ptr, ptr %ref.tmp, align 8, !tbaa !43
  %9 = getelementptr inbounds %"class.std::__cxx11::basic_string", ptr %ref.tmp, i64 0, i32 2
  %cmp.i.i.i45 = icmp eq ptr %8, %9
  br i1 %cmp.i.i.i45, label %_ZNKSt7__cxx1112basic_stringIcSt11char_traitsIcESaIcEE11_M_is_localEv.exit.thread.i.i, label %if.then.i.i46

_ZNKSt7__cxx1112basic_stringIcSt11char_traitsIcESaIcEE11_M_is_localEv.exit.thread.i.i: ; preds = %invoke.cont
  %10 = load i64, ptr %_M_string_length.i.i.i.i, align 8, !tbaa !47
  %cmp3.i.i.i48 = icmp ult i64 %10, 16
  call void @llvm.assume(i1 %cmp3.i.i.i48)
  br label %_ZNSt7__cxx1112basic_stringIcSt11char_traitsIcESaIcEED2Ev.exit

if.then.i.i46:                                    ; preds = %invoke.cont
  call void @_ZdlPv(ptr noundef %8) #26
  br label %_ZNSt7__cxx1112basic_stringIcSt11char_traitsIcESaIcEED2Ev.exit

_ZNSt7__cxx1112basic_stringIcSt11char_traitsIcESaIcEED2Ev.exit: ; preds = %if.then.i.i46, %_ZNKSt7__cxx1112basic_stringIcSt11char_traitsIcESaIcEE11_M_is_localEv.exit.thread.i.i
  call void @llvm.lifetime.end.p0(i64 32, ptr nonnull %ref.tmp) #24
  %expressions = getelementptr inbounds %"class.duckdb::AggregateRelation", ptr %this, i64 0, i32 1
  %_M_finish.i = getelementptr inbounds %"class.duckdb::AggregateRelation", ptr %this, i64 0, i32 1, i32 0, i32 0, i32 0, i32 0, i32 1
  %11 = load ptr, ptr %_M_finish.i, align 8, !tbaa !61
  %12 = load ptr, ptr %expressions, align 8, !tbaa !60
  %cmp134.not = icmp eq ptr %11, %12
  br i1 %cmp134.not, label %for.cond.cleanup, label %if.end.peel

if.end.peel:                                      ; preds = %_ZNSt7__cxx1112basic_stringIcSt11char_traitsIcESaIcEED2Ev.exit
  %_M_string_length.i.i.i74 = getelementptr inbounds %"class.std::__cxx11::basic_string", ptr %ref.tmp6, i64 0, i32 1
  %13 = getelementptr inbounds %"class.std::__cxx11::basic_string", ptr %ref.tmp6, i64 0, i32 2
  call void @llvm.lifetime.start.p0(i64 32, ptr nonnull %ref.tmp6) #24
  %call10.peel = invoke noundef nonnull align 8 dereferenceable(8) ptr @_ZN6duckdb6vectorINS_10unique_ptrINS_16ParsedExpressionESt14default_deleteIS2_ELb1EEELb1EEixEm(ptr noundef nonnull align 8 dereferenceable(24) %expressions, i64 noundef 0)
          to label %invoke.cont9.peel unwind label %lpad8.loopexit.split-lp

invoke.cont9.peel:                                ; preds = %if.end.peel
  %call12.peel = invoke noundef ptr @_ZNK6duckdb10unique_ptrINS_16ParsedExpressionESt14default_deleteIS1_ELb1EEptEv(ptr noundef nonnull align 8 dereferenceable(8) %call10.peel)
          to label %invoke.cont11.peel unwind label %lpad8.loopexit.split-lp

invoke.cont11.peel:                               ; preds = %invoke.cont9.peel
  %vtable.peel = load ptr, ptr %call12.peel, align 8, !tbaa !9
  %vfn.peel = getelementptr inbounds ptr, ptr %vtable.peel, i64 8
  %14 = load ptr, ptr %vfn.peel, align 8
  invoke void %14(ptr nonnull sret(%"class.std::__cxx11::basic_string") align 8 %ref.tmp6, ptr noundef nonnull align 8 dereferenceable(48) %call12.peel)
          to label %invoke.cont13.peel unwind label %lpad8.loopexit.split-lp

invoke.cont13.peel:                               ; preds = %invoke.cont11.peel
  %15 = load i64, ptr %_M_string_length.i.i.i74, align 8, !tbaa !47
  %16 = load i64, ptr %_M_string_length.i29.i.i, align 8, !tbaa !47
  %sub3.i.i.i.i.peel = sub i64 4611686018427387903, %16
  %cmp.i.i.i.i.peel = icmp ult i64 %sub3.i.i.i.i.peel, %15
  br i1 %cmp.i.i.i.i.peel, label %if.then.i.i.i.i, label %_ZNSt7__cxx1112basic_stringIcSt11char_traitsIcESaIcEE6appendERKS4_.exit.i.peel

_ZNSt7__cxx1112basic_stringIcSt11char_traitsIcESaIcEE6appendERKS4_.exit.i.peel: ; preds = %invoke.cont13.peel
  %17 = load ptr, ptr %ref.tmp6, align 8, !tbaa !43
  %call.i.i.i7577.peel = invoke noundef nonnull align 8 dereferenceable(32) ptr @_ZNSt7__cxx1112basic_stringIcSt11char_traitsIcESaIcEE9_M_appendEPKcm(ptr noundef nonnull align 8 dereferenceable(32) %str, ptr noundef %17, i64 noundef %15)
          to label %invoke.cont15.peel unwind label %lpad14.loopexit.loopexit.split-lp

invoke.cont15.peel:                               ; preds = %_ZNSt7__cxx1112basic_stringIcSt11char_traitsIcESaIcEE6appendERKS4_.exit.i.peel
  %18 = load ptr, ptr %ref.tmp6, align 8, !tbaa !43
  %cmp.i.i.i78.peel = icmp eq ptr %18, %13
  br i1 %cmp.i.i.i78.peel, label %_ZNKSt7__cxx1112basic_stringIcSt11char_traitsIcESaIcEE11_M_is_localEv.exit.thread.i.i80.peel, label %if.then.i.i79.peel

if.then.i.i79.peel:                               ; preds = %invoke.cont15.peel
  call void @_ZdlPv(ptr noundef %18) #26
  br label %_ZNSt7__cxx1112basic_stringIcSt11char_traitsIcESaIcEED2Ev.exit83.peel

_ZNKSt7__cxx1112basic_stringIcSt11char_traitsIcESaIcEE11_M_is_localEv.exit.thread.i.i80.peel: ; preds = %invoke.cont15.peel
  %19 = load i64, ptr %_M_string_length.i.i.i74, align 8, !tbaa !47
  %cmp3.i.i.i82.peel = icmp ult i64 %19, 16
  call void @llvm.assume(i1 %cmp3.i.i.i82.peel)
  br label %_ZNSt7__cxx1112basic_stringIcSt11char_traitsIcESaIcEED2Ev.exit83.peel

_ZNSt7__cxx1112basic_stringIcSt11char_traitsIcESaIcEED2Ev.exit83.peel: ; preds = %_ZNKSt7__cxx1112basic_stringIcSt11char_traitsIcESaIcEE11_M_is_localEv.exit.thread.i.i80.peel, %if.then.i.i79.peel
  call void @llvm.lifetime.end.p0(i64 32, ptr nonnull %ref.tmp6) #24
  %20 = load ptr, ptr %_M_finish.i, align 8, !tbaa !61
  %21 = load ptr, ptr %expressions, align 8, !tbaa !60
  %sub.ptr.lhs.cast.i.peel = ptrtoint ptr %20 to i64
  %sub.ptr.rhs.cast.i.peel = ptrtoint ptr %21 to i64
  %sub.ptr.sub.i.peel = sub i64 %sub.ptr.lhs.cast.i.peel, %sub.ptr.rhs.cast.i.peel
  %cmp.peel = icmp ugt i64 %sub.ptr.sub.i.peel, 8
  br i1 %cmp.peel, label %if.then, label %for.cond.cleanup

for.cond.cleanup:                                 ; preds = %_ZNSt7__cxx1112basic_stringIcSt11char_traitsIcESaIcEED2Ev.exit83, %_ZNSt7__cxx1112basic_stringIcSt11char_traitsIcESaIcEED2Ev.exit83.peel, %_ZNSt7__cxx1112basic_stringIcSt11char_traitsIcESaIcEED2Ev.exit
  %22 = load i64, ptr %_M_string_length.i29.i.i, align 8, !tbaa !47
  %23 = and i64 %22, -2
  %cmp.i.i.i52 = icmp eq i64 %23, 4611686018427387902
  br i1 %cmp.i.i.i52, label %if.then.i.i.i54, label %_ZNSt7__cxx1112basic_stringIcSt11char_traitsIcESaIcEE6appendEPKc.exit.i53

if.then.i.i.i54:                                  ; preds = %for.cond.cleanup
  invoke void @_ZSt20__throw_length_errorPKc(ptr noundef nonnull @.str.57) #25
          to label %.noexc55 unwind label %lpad18

.noexc55:                                         ; preds = %if.then.i.i.i54
  unreachable

_ZNSt7__cxx1112basic_stringIcSt11char_traitsIcESaIcEE6appendEPKc.exit.i53: ; preds = %for.cond.cleanup
  %call2.i.i57 = invoke noundef nonnull align 8 dereferenceable(32) ptr @_ZNSt7__cxx1112basic_stringIcSt11char_traitsIcESaIcEE9_M_appendEPKcm(ptr noundef nonnull align 8 dereferenceable(32) %str, ptr noundef nonnull @.str.2, i64 noundef 2)
          to label %invoke.cont19 unwind label %lpad18

lpad:                                             ; preds = %_ZNSt7__cxx1112basic_stringIcSt11char_traitsIcESaIcEE6appendEPKc.exit.i, %if.then.i.i.i
  %24 = landingpad { ptr, i32 }
          cleanup
  %25 = load ptr, ptr %ref.tmp, align 8, !tbaa !43
  %26 = getelementptr inbounds %"class.std::__cxx11::basic_string", ptr %ref.tmp, i64 0, i32 2
  %cmp.i.i.i58 = icmp eq ptr %25, %26
  br i1 %cmp.i.i.i58, label %_ZNKSt7__cxx1112basic_stringIcSt11char_traitsIcESaIcEE11_M_is_localEv.exit.thread.i.i60, label %if.then.i.i59

_ZNKSt7__cxx1112basic_stringIcSt11char_traitsIcESaIcEE11_M_is_localEv.exit.thread.i.i60: ; preds = %lpad
  %27 = load i64, ptr %_M_string_length.i.i.i.i, align 8, !tbaa !47
  %cmp3.i.i.i62 = icmp ult i64 %27, 16
  call void @llvm.assume(i1 %cmp3.i.i.i62)
  br label %_ZNSt7__cxx1112basic_stringIcSt11char_traitsIcESaIcEED2Ev.exit63

if.then.i.i59:                                    ; preds = %lpad
  call void @_ZdlPv(ptr noundef %25) #26
  br label %_ZNSt7__cxx1112basic_stringIcSt11char_traitsIcESaIcEED2Ev.exit63

_ZNSt7__cxx1112basic_stringIcSt11char_traitsIcESaIcEED2Ev.exit63: ; preds = %if.then.i.i59, %_ZNKSt7__cxx1112basic_stringIcSt11char_traitsIcESaIcEE11_M_is_localEv.exit.thread.i.i60
  call void @llvm.lifetime.end.p0(i64 32, ptr nonnull %ref.tmp) #24
  br label %ehcleanup32

if.then:                                          ; preds = %_ZNSt7__cxx1112basic_stringIcSt11char_traitsIcESaIcEED2Ev.exit83.peel, %_ZNSt7__cxx1112basic_stringIcSt11char_traitsIcESaIcEED2Ev.exit83
  %i.0135 = phi i64 [ %inc, %_ZNSt7__cxx1112basic_stringIcSt11char_traitsIcESaIcEED2Ev.exit83 ], [ 1, %_ZNSt7__cxx1112basic_stringIcSt11char_traitsIcESaIcEED2Ev.exit83.peel ]
  %28 = load i64, ptr %_M_string_length.i29.i.i, align 8, !tbaa !47
  %29 = and i64 %28, -2
  %cmp.i.i.i67 = icmp eq i64 %29, 4611686018427387902
  br i1 %cmp.i.i.i67, label %if.then.i.i.i69, label %_ZNSt7__cxx1112basic_stringIcSt11char_traitsIcESaIcEE6appendEPKc.exit.i68

if.then.i.i.i69:                                  ; preds = %if.then
  invoke void @_ZSt20__throw_length_errorPKc(ptr noundef nonnull @.str.57) #25
          to label %.noexc70 unwind label %lpad3.loopexit.split-lp

.noexc70:                                         ; preds = %if.then.i.i.i69
  unreachable

_ZNSt7__cxx1112basic_stringIcSt11char_traitsIcESaIcEE6appendEPKc.exit.i68: ; preds = %if.then
  %call2.i.i72 = invoke noundef nonnull align 8 dereferenceable(32) ptr @_ZNSt7__cxx1112basic_stringIcSt11char_traitsIcESaIcEE9_M_appendEPKcm(ptr noundef nonnull align 8 dereferenceable(32) %str, ptr noundef nonnull @.str.1, i64 noundef 2)
          to label %if.end unwind label %lpad3.loopexit

lpad3.loopexit:                                   ; preds = %_ZNSt7__cxx1112basic_stringIcSt11char_traitsIcESaIcEE6appendEPKc.exit.i68
  %lpad.loopexit137 = landingpad { ptr, i32 }
          cleanup
  br label %ehcleanup31

lpad3.loopexit.split-lp:                          ; preds = %if.then.i.i.i69
  %lpad.loopexit.split-lp = landingpad { ptr, i32 }
          cleanup
  br label %ehcleanup31

if.end:                                           ; preds = %_ZNSt7__cxx1112basic_stringIcSt11char_traitsIcESaIcEE6appendEPKc.exit.i68
  call void @llvm.lifetime.start.p0(i64 32, ptr nonnull %ref.tmp6) #24
  %call10 = invoke noundef nonnull align 8 dereferenceable(8) ptr @_ZN6duckdb6vectorINS_10unique_ptrINS_16ParsedExpressionESt14default_deleteIS2_ELb1EEELb1EEixEm(ptr noundef nonnull align 8 dereferenceable(24) %expressions, i64 noundef %i.0135)
          to label %invoke.cont9 unwind label %lpad8.loopexit

invoke.cont9:                                     ; preds = %if.end
  %call12 = invoke noundef ptr @_ZNK6duckdb10unique_ptrINS_16ParsedExpressionESt14default_deleteIS1_ELb1EEptEv(ptr noundef nonnull align 8 dereferenceable(8) %call10)
          to label %invoke.cont11 unwind label %lpad8.loopexit

invoke.cont11:                                    ; preds = %invoke.cont9
  %vtable = load ptr, ptr %call12, align 8, !tbaa !9
  %vfn = getelementptr inbounds ptr, ptr %vtable, i64 8
  %30 = load ptr, ptr %vfn, align 8
  invoke void %30(ptr nonnull sret(%"class.std::__cxx11::basic_string") align 8 %ref.tmp6, ptr noundef nonnull align 8 dereferenceable(48) %call12)
          to label %invoke.cont13 unwind label %lpad8.loopexit

invoke.cont13:                                    ; preds = %invoke.cont11
  %31 = load i64, ptr %_M_string_length.i.i.i74, align 8, !tbaa !47
  %32 = load i64, ptr %_M_string_length.i29.i.i, align 8, !tbaa !47
  %sub3.i.i.i.i = sub i64 4611686018427387903, %32
  %cmp.i.i.i.i = icmp ult i64 %sub3.i.i.i.i, %31
  br i1 %cmp.i.i.i.i, label %if.then.i.i.i.i, label %_ZNSt7__cxx1112basic_stringIcSt11char_traitsIcESaIcEE6appendERKS4_.exit.i

if.then.i.i.i.i:                                  ; preds = %invoke.cont13, %invoke.cont13.peel
  invoke void @_ZSt20__throw_length_errorPKc(ptr noundef nonnull @.str.57) #25
          to label %.noexc76 unwind label %lpad14.loopexit.split-lp

.noexc76:                                         ; preds = %if.then.i.i.i.i
  unreachable

_ZNSt7__cxx1112basic_stringIcSt11char_traitsIcESaIcEE6appendERKS4_.exit.i: ; preds = %invoke.cont13
  %33 = load ptr, ptr %ref.tmp6, align 8, !tbaa !43
  %call.i.i.i7577 = invoke noundef nonnull align 8 dereferenceable(32) ptr @_ZNSt7__cxx1112basic_stringIcSt11char_traitsIcESaIcEE9_M_appendEPKcm(ptr noundef nonnull align 8 dereferenceable(32) %str, ptr noundef %33, i64 noundef %31)
          to label %invoke.cont15 unwind label %lpad14.loopexit.loopexit

invoke.cont15:                                    ; preds = %_ZNSt7__cxx1112basic_stringIcSt11char_traitsIcESaIcEE6appendERKS4_.exit.i
  %34 = load ptr, ptr %ref.tmp6, align 8, !tbaa !43
  %cmp.i.i.i78 = icmp eq ptr %34, %13
  br i1 %cmp.i.i.i78, label %_ZNKSt7__cxx1112basic_stringIcSt11char_traitsIcESaIcEE11_M_is_localEv.exit.thread.i.i80, label %if.then.i.i79

_ZNKSt7__cxx1112basic_stringIcSt11char_traitsIcESaIcEE11_M_is_localEv.exit.thread.i.i80: ; preds = %invoke.cont15
  %35 = load i64, ptr %_M_string_length.i.i.i74, align 8, !tbaa !47
  %cmp3.i.i.i82 = icmp ult i64 %35, 16
  call void @llvm.assume(i1 %cmp3.i.i.i82)
  br label %_ZNSt7__cxx1112basic_stringIcSt11char_traitsIcESaIcEED2Ev.exit83

if.then.i.i79:                                    ; preds = %invoke.cont15
  call void @_ZdlPv(ptr noundef %34) #26
  br label %_ZNSt7__cxx1112basic_stringIcSt11char_traitsIcESaIcEED2Ev.exit83

_ZNSt7__cxx1112basic_stringIcSt11char_traitsIcESaIcEED2Ev.exit83: ; preds = %if.then.i.i79, %_ZNKSt7__cxx1112basic_stringIcSt11char_traitsIcESaIcEE11_M_is_localEv.exit.thread.i.i80
  call void @llvm.lifetime.end.p0(i64 32, ptr nonnull %ref.tmp6) #24
  %inc = add nuw i64 %i.0135, 1
  %36 = load ptr, ptr %_M_finish.i, align 8, !tbaa !61
  %37 = load ptr, ptr %expressions, align 8, !tbaa !60
  %sub.ptr.lhs.cast.i = ptrtoint ptr %36 to i64
  %sub.ptr.rhs.cast.i = ptrtoint ptr %37 to i64
  %sub.ptr.sub.i = sub i64 %sub.ptr.lhs.cast.i, %sub.ptr.rhs.cast.i
  %sub.ptr.div.i = ashr exact i64 %sub.ptr.sub.i, 3
  %cmp = icmp ult i64 %inc, %sub.ptr.div.i
  br i1 %cmp, label %if.then, label %for.cond.cleanup, !llvm.loop !146

lpad8.loopexit:                                   ; preds = %invoke.cont11, %invoke.cont9, %if.end
  %lpad.loopexit = landingpad { ptr, i32 }
          cleanup
  br label %ehcleanup

lpad8.loopexit.split-lp:                          ; preds = %invoke.cont11.peel, %invoke.cont9.peel, %if.end.peel
  %lpad.loopexit.split-lp139 = landingpad { ptr, i32 }
          cleanup
  br label %ehcleanup

lpad14.loopexit.loopexit:                         ; preds = %_ZNSt7__cxx1112basic_stringIcSt11char_traitsIcESaIcEE6appendERKS4_.exit.i
  %lpad.loopexit141 = landingpad { ptr, i32 }
          cleanup
  br label %lpad14

lpad14.loopexit.loopexit.split-lp:                ; preds = %_ZNSt7__cxx1112basic_stringIcSt11char_traitsIcESaIcEE6appendERKS4_.exit.i.peel
  %lpad.loopexit.split-lp142 = landingpad { ptr, i32 }
          cleanup
  br label %lpad14

lpad14.loopexit.split-lp:                         ; preds = %if.then.i.i.i.i
  %lpad.loopexit.split-lp126 = landingpad { ptr, i32 }
          cleanup
  br label %lpad14

lpad14:                                           ; preds = %lpad14.loopexit.split-lp, %lpad14.loopexit.loopexit.split-lp, %lpad14.loopexit.loopexit
  %lpad.phi127 = phi { ptr, i32 } [ %lpad.loopexit.split-lp126, %lpad14.loopexit.split-lp ], [ %lpad.loopexit141, %lpad14.loopexit.loopexit ], [ %lpad.loopexit.split-lp142, %lpad14.loopexit.loopexit.split-lp ]
  %38 = load ptr, ptr %ref.tmp6, align 8, !tbaa !43
  %cmp.i.i.i84 = icmp eq ptr %38, %13
  br i1 %cmp.i.i.i84, label %_ZNKSt7__cxx1112basic_stringIcSt11char_traitsIcESaIcEE11_M_is_localEv.exit.thread.i.i86, label %if.then.i.i85

_ZNKSt7__cxx1112basic_stringIcSt11char_traitsIcESaIcEE11_M_is_localEv.exit.thread.i.i86: ; preds = %lpad14
  %39 = load i64, ptr %_M_string_length.i.i.i74, align 8, !tbaa !47
  %cmp3.i.i.i88 = icmp ult i64 %39, 16
  call void @llvm.assume(i1 %cmp3.i.i.i88)
  br label %ehcleanup

if.then.i.i85:                                    ; preds = %lpad14
  call void @_ZdlPv(ptr noundef %38) #26
  br label %ehcleanup

ehcleanup:                                        ; preds = %if.then.i.i85, %_ZNKSt7__cxx1112basic_stringIcSt11char_traitsIcESaIcEE11_M_is_localEv.exit.thread.i.i86, %lpad8.loopexit.split-lp, %lpad8.loopexit
  %.pn39 = phi { ptr, i32 } [ %lpad.phi127, %_ZNKSt7__cxx1112basic_stringIcSt11char_traitsIcESaIcEE11_M_is_localEv.exit.thread.i.i86 ], [ %lpad.phi127, %if.then.i.i85 ], [ %lpad.loopexit, %lpad8.loopexit ], [ %lpad.loopexit.split-lp139, %lpad8.loopexit.split-lp ]
  call void @llvm.lifetime.end.p0(i64 32, ptr nonnull %ref.tmp6) #24
  br label %ehcleanup31

invoke.cont19:                                    ; preds = %_ZNSt7__cxx1112basic_stringIcSt11char_traitsIcESaIcEE6appendEPKc.exit.i53
  call void @llvm.lifetime.start.p0(i64 32, ptr nonnull %ref.tmp21) #24
  %child = getelementptr inbounds %"class.duckdb::AggregateRelation", ptr %this, i64 0, i32 4
  %40 = load ptr, ptr %child, align 8, !tbaa !3
  %add = add i64 %depth, 1
  %vtable23 = load ptr, ptr %40, align 8, !tbaa !9
  %vfn24 = getelementptr inbounds ptr, ptr %vtable23, i64 6
  %41 = load ptr, ptr %vfn24, align 8
  invoke void %41(ptr nonnull sret(%"class.std::__cxx11::basic_string") align 8 %ref.tmp21, ptr noundef nonnull align 8 dereferenceable(64) %40, i64 noundef %add)
          to label %invoke.cont26 unwind label %lpad25

invoke.cont26:                                    ; preds = %invoke.cont19
  call void @llvm.experimental.noalias.scope.decl(metadata !148)
  %42 = load i64, ptr %_M_string_length.i29.i.i, align 8, !tbaa !47, !noalias !148
  %43 = load ptr, ptr %str, align 8, !tbaa !43, !noalias !148
  %call3.i.i.i100 = invoke noundef nonnull align 8 dereferenceable(32) ptr @_ZNSt7__cxx1112basic_stringIcSt11char_traitsIcESaIcEE10_M_replaceEmmPKcm(ptr noundef nonnull align 8 dereferenceable(32) %ref.tmp21, i64 noundef 0, i64 noundef 0, ptr noundef %43, i64 noundef %42)
          to label %call3.i.i.i.noexc unwind label %lpad27

call3.i.i.i.noexc:                                ; preds = %invoke.cont26
  %44 = getelementptr inbounds %"class.std::__cxx11::basic_string", ptr %agg.result, i64 0, i32 2
  store ptr %44, ptr %agg.result, align 8, !tbaa !145, !alias.scope !148
  %45 = load ptr, ptr %call3.i.i.i100, align 8, !tbaa !43
  %46 = getelementptr inbounds %"class.std::__cxx11::basic_string", ptr %call3.i.i.i100, i64 0, i32 2
  %cmp.i.i.i91 = icmp eq ptr %45, %46
  br i1 %cmp.i.i.i91, label %if.then.i.i97, label %if.else.i.i92

if.then.i.i97:                                    ; preds = %call3.i.i.i.noexc
  %_M_string_length.i.i1.i = getelementptr inbounds %"class.std::__cxx11::basic_string", ptr %call3.i.i.i100, i64 0, i32 1
  %47 = load i64, ptr %_M_string_length.i.i1.i, align 8, !tbaa !47
  %cmp3.i.i.i98 = icmp ult i64 %47, 16
  call void @llvm.assume(i1 %cmp3.i.i.i98)
  %add.i.i99 = add nuw nsw i64 %47, 1
  call void @llvm.memcpy.p0.p0.i64(ptr noundef nonnull align 8 dereferenceable(1) %44, ptr noundef nonnull align 8 dereferenceable(1) %45, i64 %add.i.i99, i1 false)
  br label %invoke.cont28

if.else.i.i92:                                    ; preds = %call3.i.i.i.noexc
  store ptr %45, ptr %agg.result, align 8, !tbaa !43, !alias.scope !148
  %48 = load i64, ptr %46, align 8, !tbaa !21
  store i64 %48, ptr %44, align 8, !tbaa !21, !alias.scope !148
  %_M_string_length.i28.i.phi.trans.insert.i93 = getelementptr inbounds %"class.std::__cxx11::basic_string", ptr %call3.i.i.i100, i64 0, i32 1
  %.pre.i94 = load i64, ptr %_M_string_length.i28.i.phi.trans.insert.i93, align 8, !tbaa !47
  br label %invoke.cont28

invoke.cont28:                                    ; preds = %if.else.i.i92, %if.then.i.i97
  %49 = phi i64 [ %47, %if.then.i.i97 ], [ %.pre.i94, %if.else.i.i92 ]
  %_M_string_length.i28.i.i95 = getelementptr inbounds %"class.std::__cxx11::basic_string", ptr %call3.i.i.i100, i64 0, i32 1
  %_M_string_length.i29.i.i96 = getelementptr inbounds %"class.std::__cxx11::basic_string", ptr %agg.result, i64 0, i32 1
  store i64 %49, ptr %_M_string_length.i29.i.i96, align 8, !tbaa !47, !alias.scope !148
  store ptr %46, ptr %call3.i.i.i100, align 8, !tbaa !43
  store i64 0, ptr %_M_string_length.i28.i.i95, align 8, !tbaa !47
  store i8 0, ptr %46, align 8, !tbaa !21
  %50 = load ptr, ptr %ref.tmp21, align 8, !tbaa !43
  %51 = getelementptr inbounds %"class.std::__cxx11::basic_string", ptr %ref.tmp21, i64 0, i32 2
  %cmp.i.i.i101 = icmp eq ptr %50, %51
  br i1 %cmp.i.i.i101, label %_ZNKSt7__cxx1112basic_stringIcSt11char_traitsIcESaIcEE11_M_is_localEv.exit.thread.i.i103, label %if.then.i.i102

_ZNKSt7__cxx1112basic_stringIcSt11char_traitsIcESaIcEE11_M_is_localEv.exit.thread.i.i103: ; preds = %invoke.cont28
  %_M_string_length.i.i.i104 = getelementptr inbounds %"class.std::__cxx11::basic_string", ptr %ref.tmp21, i64 0, i32 1
  %52 = load i64, ptr %_M_string_length.i.i.i104, align 8, !tbaa !47
  %cmp3.i.i.i105 = icmp ult i64 %52, 16
  call void @llvm.assume(i1 %cmp3.i.i.i105)
  br label %_ZNSt7__cxx1112basic_stringIcSt11char_traitsIcESaIcEED2Ev.exit106

if.then.i.i102:                                   ; preds = %invoke.cont28
  call void @_ZdlPv(ptr noundef %50) #26
  br label %_ZNSt7__cxx1112basic_stringIcSt11char_traitsIcESaIcEED2Ev.exit106

_ZNSt7__cxx1112basic_stringIcSt11char_traitsIcESaIcEED2Ev.exit106: ; preds = %if.then.i.i102, %_ZNKSt7__cxx1112basic_stringIcSt11char_traitsIcESaIcEE11_M_is_localEv.exit.thread.i.i103
  call void @llvm.lifetime.end.p0(i64 32, ptr nonnull %ref.tmp21) #24
  %53 = load ptr, ptr %str, align 8, !tbaa !43
  %cmp.i.i.i107 = icmp eq ptr %53, %2
  br i1 %cmp.i.i.i107, label %_ZNKSt7__cxx1112basic_stringIcSt11char_traitsIcESaIcEE11_M_is_localEv.exit.thread.i.i109, label %if.then.i.i108

_ZNKSt7__cxx1112basic_stringIcSt11char_traitsIcESaIcEE11_M_is_localEv.exit.thread.i.i109: ; preds = %_ZNSt7__cxx1112basic_stringIcSt11char_traitsIcESaIcEED2Ev.exit106
  %54 = load i64, ptr %_M_string_length.i29.i.i, align 8, !tbaa !47
  %cmp3.i.i.i111 = icmp ult i64 %54, 16
  call void @llvm.assume(i1 %cmp3.i.i.i111)
  br label %_ZNSt7__cxx1112basic_stringIcSt11char_traitsIcESaIcEED2Ev.exit112

if.then.i.i108:                                   ; preds = %_ZNSt7__cxx1112basic_stringIcSt11char_traitsIcESaIcEED2Ev.exit106
  call void @_ZdlPv(ptr noundef %53) #26
  br label %_ZNSt7__cxx1112basic_stringIcSt11char_traitsIcESaIcEED2Ev.exit112

_ZNSt7__cxx1112basic_stringIcSt11char_traitsIcESaIcEED2Ev.exit112: ; preds = %if.then.i.i108, %_ZNKSt7__cxx1112basic_stringIcSt11char_traitsIcESaIcEE11_M_is_localEv.exit.thread.i.i109
  call void @llvm.lifetime.end.p0(i64 32, ptr nonnull %str) #24
  ret void

lpad18:                                           ; preds = %_ZNSt7__cxx1112basic_stringIcSt11char_traitsIcESaIcEE6appendEPKc.exit.i53, %if.then.i.i.i54
  %55 = landingpad { ptr, i32 }
          cleanup
  br label %ehcleanup31

lpad25:                                           ; preds = %invoke.cont19
  %56 = landingpad { ptr, i32 }
          cleanup
  br label %ehcleanup30

lpad27:                                           ; preds = %invoke.cont26
  %57 = landingpad { ptr, i32 }
          cleanup
  %58 = load ptr, ptr %ref.tmp21, align 8, !tbaa !43
  %59 = getelementptr inbounds %"class.std::__cxx11::basic_string", ptr %ref.tmp21, i64 0, i32 2
  %cmp.i.i.i113 = icmp eq ptr %58, %59
  br i1 %cmp.i.i.i113, label %_ZNKSt7__cxx1112basic_stringIcSt11char_traitsIcESaIcEE11_M_is_localEv.exit.thread.i.i115, label %if.then.i.i114

_ZNKSt7__cxx1112basic_stringIcSt11char_traitsIcESaIcEE11_M_is_localEv.exit.thread.i.i115: ; preds = %lpad27
  %_M_string_length.i.i.i116 = getelementptr inbounds %"class.std::__cxx11::basic_string", ptr %ref.tmp21, i64 0, i32 1
  %60 = load i64, ptr %_M_string_length.i.i.i116, align 8, !tbaa !47
  %cmp3.i.i.i117 = icmp ult i64 %60, 16
  call void @llvm.assume(i1 %cmp3.i.i.i117)
  br label %ehcleanup30

if.then.i.i114:                                   ; preds = %lpad27
  call void @_ZdlPv(ptr noundef %58) #26
  br label %ehcleanup30

ehcleanup30:                                      ; preds = %if.then.i.i114, %_ZNKSt7__cxx1112basic_stringIcSt11char_traitsIcESaIcEE11_M_is_localEv.exit.thread.i.i115, %lpad25
  %.pn = phi { ptr, i32 } [ %56, %lpad25 ], [ %57, %_ZNKSt7__cxx1112basic_stringIcSt11char_traitsIcESaIcEE11_M_is_localEv.exit.thread.i.i115 ], [ %57, %if.then.i.i114 ]
  call void @llvm.lifetime.end.p0(i64 32, ptr nonnull %ref.tmp21) #24
  br label %ehcleanup31

ehcleanup31:                                      ; preds = %ehcleanup30, %lpad18, %ehcleanup, %lpad3.loopexit.split-lp, %lpad3.loopexit
  %.pn39.pn.pn = phi { ptr, i32 } [ %.pn, %ehcleanup30 ], [ %55, %lpad18 ], [ %.pn39, %ehcleanup ], [ %lpad.loopexit137, %lpad3.loopexit ], [ %lpad.loopexit.split-lp, %lpad3.loopexit.split-lp ]
  %61 = load ptr, ptr %str, align 8, !tbaa !43
  %cmp.i.i.i119 = icmp eq ptr %61, %2
  br i1 %cmp.i.i.i119, label %_ZNKSt7__cxx1112basic_stringIcSt11char_traitsIcESaIcEE11_M_is_localEv.exit.thread.i.i121, label %if.then.i.i120

_ZNKSt7__cxx1112basic_stringIcSt11char_traitsIcESaIcEE11_M_is_localEv.exit.thread.i.i121: ; preds = %ehcleanup31
  %62 = load i64, ptr %_M_string_length.i29.i.i, align 8, !tbaa !47
  %cmp3.i.i.i123 = icmp ult i64 %62, 16
  call void @llvm.assume(i1 %cmp3.i.i.i123)
  br label %ehcleanup32

if.then.i.i120:                                   ; preds = %ehcleanup31
  call void @_ZdlPv(ptr noundef %61) #26
  br label %ehcleanup32

ehcleanup32:                                      ; preds = %if.then.i.i120, %_ZNKSt7__cxx1112basic_stringIcSt11char_traitsIcESaIcEE11_M_is_localEv.exit.thread.i.i121, %_ZNSt7__cxx1112basic_stringIcSt11char_traitsIcESaIcEED2Ev.exit63
  %.pn39.pn.pn.pn = phi { ptr, i32 } [ %24, %_ZNSt7__cxx1112basic_stringIcSt11char_traitsIcESaIcEED2Ev.exit63 ], [ %.pn39.pn.pn, %_ZNKSt7__cxx1112basic_stringIcSt11char_traitsIcESaIcEE11_M_is_localEv.exit.thread.i.i121 ], [ %.pn39.pn.pn, %if.then.i.i120 ]
  call void @llvm.lifetime.end.p0(i64 32, ptr nonnull %str) #24
  resume { ptr, i32 } %.pn39.pn.pn.pn
}

declare void @_ZN6duckdb8Relation16RenderWhitespaceB5cxx11Em(ptr sret(%"class.std::__cxx11::basic_string") align 8, ptr noundef nonnull align 8 dereferenceable(64), i64 noundef) local_unnamed_addr #2

; Function Attrs: mustprogress uwtable
define void @_ZN6duckdb19CreateTableRelationC2ESt10shared_ptrINS_8RelationEENSt7__cxx1112basic_stringIcSt11char_traitsIcESaIcEEES9_(ptr noundef nonnull align 8 dereferenceable(168) %this, ptr nocapture noundef %child_p, ptr noundef %schema_name, ptr noundef %table_name) unnamed_addr #0 align 2 personality ptr @__gxx_personality_v0 {
entry:
  %ref.tmp = alloca %"class.std::shared_ptr.83", align 8
  %0 = load ptr, ptr %child_p, align 8, !tbaa !3
  %context = getelementptr inbounds %"class.duckdb::Relation", ptr %0, i64 0, i32 2
  tail call void @_ZN6duckdb8RelationC2ERNS_20ClientContextWrapperENS_12RelationTypeE(ptr noundef nonnull align 8 dereferenceable(64) %this, ptr noundef nonnull align 8 dereferenceable(16) %context, i8 noundef zeroext 13)
  store ptr getelementptr inbounds ({ [15 x ptr] }, ptr @_ZTVN6duckdb19CreateTableRelationE, i64 0, inrange i32 0, i64 2), ptr %this, align 8, !tbaa !9
  %child = getelementptr inbounds %"class.duckdb::CreateTableRelation", ptr %this, i64 0, i32 1
  %_M_refcount.i.i = getelementptr inbounds %"class.duckdb::CreateTableRelation", ptr %this, i64 0, i32 1, i32 0, i32 1
  store ptr null, ptr %_M_refcount.i.i, align 8, !tbaa !14
  %_M_refcount4.i.i = getelementptr inbounds %"class.std::__shared_ptr", ptr %child_p, i64 0, i32 1
  %1 = load <2 x ptr>, ptr %child_p, align 8, !tbaa !11
  store ptr null, ptr %_M_refcount4.i.i, align 8, !tbaa !14
  store <2 x ptr> %1, ptr %child, align 8, !tbaa !11
  store ptr null, ptr %child_p, align 8, !tbaa !3
  %schema_name2 = getelementptr inbounds %"class.duckdb::CreateTableRelation", ptr %this, i64 0, i32 2
  %2 = getelementptr inbounds %"class.duckdb::CreateTableRelation", ptr %this, i64 0, i32 2, i32 2
  store ptr %2, ptr %schema_name2, align 8, !tbaa !145
  %3 = load ptr, ptr %schema_name, align 8, !tbaa !43
  %4 = getelementptr inbounds %"class.std::__cxx11::basic_string", ptr %schema_name, i64 0, i32 2
  %cmp.i.i = icmp eq ptr %3, %4
  br i1 %cmp.i.i, label %if.then.i, label %if.else.i

if.then.i:                                        ; preds = %entry
  %_M_string_length.i.i = getelementptr inbounds %"class.std::__cxx11::basic_string", ptr %schema_name, i64 0, i32 1
  %5 = load i64, ptr %_M_string_length.i.i, align 8, !tbaa !47
  %cmp3.i.i = icmp ult i64 %5, 16
  tail call void @llvm.assume(i1 %cmp3.i.i)
  %add.i = add nuw nsw i64 %5, 1
  tail call void @llvm.memcpy.p0.p0.i64(ptr noundef nonnull align 8 dereferenceable(1) %2, ptr noundef nonnull align 8 dereferenceable(1) %3, i64 %add.i, i1 false)
  br label %_ZNSt7__cxx1112basic_stringIcSt11char_traitsIcESaIcEEC2EOS4_.exit

if.else.i:                                        ; preds = %entry
  store ptr %3, ptr %schema_name2, align 8, !tbaa !43
  %6 = load i64, ptr %4, align 8, !tbaa !21
  store i64 %6, ptr %2, align 8, !tbaa !21
  br label %_ZNSt7__cxx1112basic_stringIcSt11char_traitsIcESaIcEEC2EOS4_.exit

_ZNSt7__cxx1112basic_stringIcSt11char_traitsIcESaIcEEC2EOS4_.exit: ; preds = %if.else.i, %if.then.i
  %_M_string_length.i28.i = getelementptr inbounds %"class.std::__cxx11::basic_string", ptr %schema_name, i64 0, i32 1
  %7 = load i64, ptr %_M_string_length.i28.i, align 8, !tbaa !47
  %_M_string_length.i29.i = getelementptr inbounds %"class.duckdb::CreateTableRelation", ptr %this, i64 0, i32 2, i32 1
  store i64 %7, ptr %_M_string_length.i29.i, align 8, !tbaa !47
  store ptr %4, ptr %schema_name, align 8, !tbaa !43
  store i64 0, ptr %_M_string_length.i28.i, align 8, !tbaa !47
  store i8 0, ptr %4, align 1, !tbaa !21
  %table_name3 = getelementptr inbounds %"class.duckdb::CreateTableRelation", ptr %this, i64 0, i32 3
  %8 = getelementptr inbounds %"class.duckdb::CreateTableRelation", ptr %this, i64 0, i32 3, i32 2
  store ptr %8, ptr %table_name3, align 8, !tbaa !145
  %9 = load ptr, ptr %table_name, align 8, !tbaa !43
  %10 = getelementptr inbounds %"class.std::__cxx11::basic_string", ptr %table_name, i64 0, i32 2
  %cmp.i.i16 = icmp eq ptr %9, %10
  br i1 %cmp.i.i16, label %if.then.i20, label %if.else.i17

if.then.i20:                                      ; preds = %_ZNSt7__cxx1112basic_stringIcSt11char_traitsIcESaIcEEC2EOS4_.exit
  %_M_string_length.i.i21 = getelementptr inbounds %"class.std::__cxx11::basic_string", ptr %table_name, i64 0, i32 1
  %11 = load i64, ptr %_M_string_length.i.i21, align 8, !tbaa !47
  %cmp3.i.i22 = icmp ult i64 %11, 16
  tail call void @llvm.assume(i1 %cmp3.i.i22)
  %add.i23 = add nuw nsw i64 %11, 1
  tail call void @llvm.memcpy.p0.p0.i64(ptr noundef nonnull align 8 dereferenceable(1) %8, ptr noundef nonnull align 8 dereferenceable(1) %9, i64 %add.i23, i1 false)
  br label %_ZNSt7__cxx1112basic_stringIcSt11char_traitsIcESaIcEEC2EOS4_.exit24

if.else.i17:                                      ; preds = %_ZNSt7__cxx1112basic_stringIcSt11char_traitsIcESaIcEEC2EOS4_.exit
  store ptr %9, ptr %table_name3, align 8, !tbaa !43
  %12 = load i64, ptr %10, align 8, !tbaa !21
  store i64 %12, ptr %8, align 8, !tbaa !21
  br label %_ZNSt7__cxx1112basic_stringIcSt11char_traitsIcESaIcEEC2EOS4_.exit24

_ZNSt7__cxx1112basic_stringIcSt11char_traitsIcESaIcEEC2EOS4_.exit24: ; preds = %if.else.i17, %if.then.i20
  %_M_string_length.i28.i18 = getelementptr inbounds %"class.std::__cxx11::basic_string", ptr %table_name, i64 0, i32 1
  %13 = load i64, ptr %_M_string_length.i28.i18, align 8, !tbaa !47
  %_M_string_length.i29.i19 = getelementptr inbounds %"class.duckdb::CreateTableRelation", ptr %this, i64 0, i32 3, i32 1
  store i64 %13, ptr %_M_string_length.i29.i19, align 8, !tbaa !47
  store ptr %10, ptr %table_name, align 8, !tbaa !43
  store i64 0, ptr %_M_string_length.i28.i18, align 8, !tbaa !47
  store i8 0, ptr %10, align 1, !tbaa !21
  %columns = getelementptr inbounds %"class.duckdb::CreateTableRelation", ptr %this, i64 0, i32 4
  tail call void @llvm.memset.p0.i64(ptr noundef nonnull align 8 dereferenceable(24) %columns, i8 0, i64 24, i1 false)
  call void @llvm.lifetime.start.p0(i64 16, ptr nonnull %ref.tmp) #24
  %context4 = getelementptr inbounds %"class.duckdb::Relation", ptr %this, i64 0, i32 2
  invoke void @_ZN6duckdb20ClientContextWrapper10GetContextEv(ptr nonnull sret(%"class.std::shared_ptr.83") align 8 %ref.tmp, ptr noundef nonnull align 8 dereferenceable(16) %context4)
          to label %invoke.cont unwind label %lpad

invoke.cont:                                      ; preds = %_ZNSt7__cxx1112basic_stringIcSt11char_traitsIcESaIcEEC2EOS4_.exit24
  %14 = load ptr, ptr %ref.tmp, align 8, !tbaa !15
  invoke void @_ZN6duckdb13ClientContext15TryBindRelationERNS_8RelationERNS_6vectorINS_16ColumnDefinitionELb1EEE(ptr noundef nonnull align 8 dereferenceable(592) %14, ptr noundef nonnull align 8 dereferenceable(64) %this, ptr noundef nonnull align 8 dereferenceable(24) %columns)
          to label %invoke.cont8 unwind label %lpad7

invoke.cont8:                                     ; preds = %invoke.cont
  %_M_refcount.i = getelementptr inbounds %"class.std::__shared_ptr.84", ptr %ref.tmp, i64 0, i32 1
  %15 = load ptr, ptr %_M_refcount.i, align 8, !tbaa !14
  %cmp.not.i.i = icmp eq ptr %15, null
  br i1 %cmp.not.i.i, label %_ZNSt12__shared_ptrIN6duckdb13ClientContextELN9__gnu_cxx12_Lock_policyE2EED2Ev.exit, label %if.then.i.i

if.then.i.i:                                      ; preds = %invoke.cont8
  %_M_use_count.i.i.i = getelementptr inbounds %"class.std::_Sp_counted_base", ptr %15, i64 0, i32 1
  %16 = load atomic i64, ptr %_M_use_count.i.i.i acquire, align 8
  %cmp.i.i.i = icmp eq i64 %16, 4294967297
  %17 = trunc i64 %16 to i32
  br i1 %cmp.i.i.i, label %if.then.i.i.i, label %if.end.i.i.i

if.then.i.i.i:                                    ; preds = %if.then.i.i
  store i32 0, ptr %_M_use_count.i.i.i, align 8, !tbaa !17
  %_M_weak_count.i.i.i = getelementptr inbounds %"class.std::_Sp_counted_base", ptr %15, i64 0, i32 2
  store i32 0, ptr %_M_weak_count.i.i.i, align 4, !tbaa !20
  %vtable.i.i.i = load ptr, ptr %15, align 8, !tbaa !9
  %vfn.i.i.i = getelementptr inbounds ptr, ptr %vtable.i.i.i, i64 2
  %18 = load ptr, ptr %vfn.i.i.i, align 8
  call void %18(ptr noundef nonnull align 8 dereferenceable(16) %15) #24
  %vtable3.i.i.i = load ptr, ptr %15, align 8, !tbaa !9
  %vfn4.i.i.i = getelementptr inbounds ptr, ptr %vtable3.i.i.i, i64 3
  %19 = load ptr, ptr %vfn4.i.i.i, align 8
  call void %19(ptr noundef nonnull align 8 dereferenceable(16) %15) #24
  br label %_ZNSt12__shared_ptrIN6duckdb13ClientContextELN9__gnu_cxx12_Lock_policyE2EED2Ev.exit

if.end.i.i.i:                                     ; preds = %if.then.i.i
  %20 = load i8, ptr @__libc_single_threaded, align 1, !tbaa !21
  %tobool.i.i.not.i.i.i = icmp eq i8 %20, 0
  br i1 %tobool.i.i.not.i.i.i, label %if.else.i.i.i.i, label %if.then.i.i.i.i

if.then.i.i.i.i:                                  ; preds = %if.end.i.i.i
  %add.i.i.i.i = add nsw i32 %17, -1
  store i32 %add.i.i.i.i, ptr %_M_use_count.i.i.i, align 4, !tbaa !22
  br label %invoke.cont.i.i.i

if.else.i.i.i.i:                                  ; preds = %if.end.i.i.i
  %21 = atomicrmw volatile add ptr %_M_use_count.i.i.i, i32 -1 acq_rel, align 4
  br label %invoke.cont.i.i.i

invoke.cont.i.i.i:                                ; preds = %if.else.i.i.i.i, %if.then.i.i.i.i
  %retval.0.i.i.i.i = phi i32 [ %17, %if.then.i.i.i.i ], [ %21, %if.else.i.i.i.i ]
  %cmp6.i.i.i = icmp eq i32 %retval.0.i.i.i.i, 1
  br i1 %cmp6.i.i.i, label %if.then7.i.i.i, label %_ZNSt12__shared_ptrIN6duckdb13ClientContextELN9__gnu_cxx12_Lock_policyE2EED2Ev.exit, !prof !23

if.then7.i.i.i:                                   ; preds = %invoke.cont.i.i.i
  call void @_ZNSt16_Sp_counted_baseILN9__gnu_cxx12_Lock_policyE2EE24_M_release_last_use_coldEv(ptr noundef nonnull align 8 dereferenceable(16) %15) #24
  br label %_ZNSt12__shared_ptrIN6duckdb13ClientContextELN9__gnu_cxx12_Lock_policyE2EED2Ev.exit

_ZNSt12__shared_ptrIN6duckdb13ClientContextELN9__gnu_cxx12_Lock_policyE2EED2Ev.exit: ; preds = %if.then7.i.i.i, %invoke.cont.i.i.i, %if.then.i.i.i, %invoke.cont8
  call void @llvm.lifetime.end.p0(i64 16, ptr nonnull %ref.tmp) #24
  ret void

lpad:                                             ; preds = %_ZNSt7__cxx1112basic_stringIcSt11char_traitsIcESaIcEEC2EOS4_.exit24
  %22 = landingpad { ptr, i32 }
          cleanup
  br label %ehcleanup

lpad7:                                            ; preds = %invoke.cont
  %23 = landingpad { ptr, i32 }
          cleanup
  call void @_ZNSt12__shared_ptrIN6duckdb13ClientContextELN9__gnu_cxx12_Lock_policyE2EED2Ev(ptr noundef nonnull align 8 dereferenceable(16) %ref.tmp) #24
  br label %ehcleanup

ehcleanup:                                        ; preds = %lpad7, %lpad
  %.pn = phi { ptr, i32 } [ %23, %lpad7 ], [ %22, %lpad ]
  call void @llvm.lifetime.end.p0(i64 16, ptr nonnull %ref.tmp) #24
  call void @_ZNSt6vectorIN6duckdb16ColumnDefinitionESaIS1_EED2Ev(ptr noundef nonnull align 8 dereferenceable(24) %columns) #24
  %24 = load ptr, ptr %table_name3, align 8, !tbaa !43
  %cmp.i.i.i25 = icmp eq ptr %24, %8
  br i1 %cmp.i.i.i25, label %_ZNKSt7__cxx1112basic_stringIcSt11char_traitsIcESaIcEE11_M_is_localEv.exit.thread.i.i, label %if.then.i.i26

_ZNKSt7__cxx1112basic_stringIcSt11char_traitsIcESaIcEE11_M_is_localEv.exit.thread.i.i: ; preds = %ehcleanup
  %25 = load i64, ptr %_M_string_length.i29.i19, align 8, !tbaa !47
  %cmp3.i.i.i = icmp ult i64 %25, 16
  call void @llvm.assume(i1 %cmp3.i.i.i)
  br label %_ZNSt7__cxx1112basic_stringIcSt11char_traitsIcESaIcEED2Ev.exit

if.then.i.i26:                                    ; preds = %ehcleanup
  call void @_ZdlPv(ptr noundef %24) #26
  br label %_ZNSt7__cxx1112basic_stringIcSt11char_traitsIcESaIcEED2Ev.exit

_ZNSt7__cxx1112basic_stringIcSt11char_traitsIcESaIcEED2Ev.exit: ; preds = %if.then.i.i26, %_ZNKSt7__cxx1112basic_stringIcSt11char_traitsIcESaIcEE11_M_is_localEv.exit.thread.i.i
  %26 = load ptr, ptr %schema_name2, align 8, !tbaa !43
  %cmp.i.i.i27 = icmp eq ptr %26, %2
  br i1 %cmp.i.i.i27, label %_ZNKSt7__cxx1112basic_stringIcSt11char_traitsIcESaIcEE11_M_is_localEv.exit.thread.i.i29, label %if.then.i.i28

_ZNKSt7__cxx1112basic_stringIcSt11char_traitsIcESaIcEE11_M_is_localEv.exit.thread.i.i29: ; preds = %_ZNSt7__cxx1112basic_stringIcSt11char_traitsIcESaIcEED2Ev.exit
  %27 = load i64, ptr %_M_string_length.i29.i, align 8, !tbaa !47
  %cmp3.i.i.i31 = icmp ult i64 %27, 16
  call void @llvm.assume(i1 %cmp3.i.i.i31)
  br label %_ZNSt7__cxx1112basic_stringIcSt11char_traitsIcESaIcEED2Ev.exit32

if.then.i.i28:                                    ; preds = %_ZNSt7__cxx1112basic_stringIcSt11char_traitsIcESaIcEED2Ev.exit
  call void @_ZdlPv(ptr noundef %26) #26
  br label %_ZNSt7__cxx1112basic_stringIcSt11char_traitsIcESaIcEED2Ev.exit32

_ZNSt7__cxx1112basic_stringIcSt11char_traitsIcESaIcEED2Ev.exit32: ; preds = %if.then.i.i28, %_ZNKSt7__cxx1112basic_stringIcSt11char_traitsIcESaIcEE11_M_is_localEv.exit.thread.i.i29
  call void @_ZNSt12__shared_ptrIN6duckdb8RelationELN9__gnu_cxx12_Lock_policyE2EED2Ev(ptr noundef nonnull align 8 dereferenceable(16) %child) #24
  call void @_ZN6duckdb8RelationD2Ev(ptr noundef nonnull align 8 dereferenceable(64) %this) #24
  resume { ptr, i32 } %.pn
}

; Function Attrs: mustprogress uwtable
define void @_ZN6duckdb19CreateTableRelation4BindERNS_6BinderE(ptr noalias sret(%"struct.duckdb::BoundStatement") align 8 %agg.result, ptr noundef nonnull align 8 dereferenceable(168) %this, ptr noundef nonnull align 8 dereferenceable(752) %binder) unnamed_addr #0 align 2 personality ptr @__gxx_personality_v0 {
entry:
  %select = alloca %"class.duckdb::unique_ptr.176", align 8
  %ref.tmp = alloca %"class.duckdb::unique_ptr.99", align 8
  %stmt = alloca %"class.duckdb::CreateStatement", align 8
  %info = alloca %"class.duckdb::unique_ptr.208", align 8
  call void @llvm.lifetime.start.p0(i64 8, ptr nonnull %select) #24
  tail call void @llvm.experimental.noalias.scope.decl(metadata !151)
  %call.i = tail call noalias noundef nonnull dereferenceable(136) ptr @_Znwm(i64 noundef 136) #29, !noalias !151
  %type2.i.i.i = getelementptr inbounds %"class.duckdb::SQLStatement", ptr %call.i, i64 0, i32 1
  store i8 1, ptr %type2.i.i.i, align 8, !tbaa !154, !noalias !151
  %stmt_location.i.i.i = getelementptr inbounds %"class.duckdb::SQLStatement", ptr %call.i, i64 0, i32 2
  %named_param_map.i.i.i = getelementptr inbounds %"class.duckdb::SQLStatement", ptr %call.i, i64 0, i32 5
  %_M_single_bucket.i.i.i.i.i = getelementptr inbounds %"class.duckdb::SQLStatement", ptr %call.i, i64 0, i32 5, i32 0, i32 5
  tail call void @llvm.memset.p0.i64(ptr noundef nonnull align 8 dereferenceable(24) %stmt_location.i.i.i, i8 0, i64 24, i1 false), !noalias !151
  store ptr %_M_single_bucket.i.i.i.i.i, ptr %named_param_map.i.i.i, align 8, !tbaa !159, !noalias !151
  %_M_bucket_count.i.i.i.i.i = getelementptr inbounds %"class.duckdb::SQLStatement", ptr %call.i, i64 0, i32 5, i32 0, i32 1
  store i64 1, ptr %_M_bucket_count.i.i.i.i.i, align 8, !tbaa !160, !noalias !151
  %_M_before_begin.i.i.i.i.i = getelementptr inbounds %"class.duckdb::SQLStatement", ptr %call.i, i64 0, i32 5, i32 0, i32 2
  %_M_rehash_policy.i.i.i.i.i = getelementptr inbounds %"class.duckdb::SQLStatement", ptr %call.i, i64 0, i32 5, i32 0, i32 4
  tail call void @llvm.memset.p0.i64(ptr noundef nonnull align 8 dereferenceable(16) %_M_before_begin.i.i.i.i.i, i8 0, i64 16, i1 false), !noalias !151
  store float 1.000000e+00, ptr %_M_rehash_policy.i.i.i.i.i, align 8, !tbaa !161, !noalias !151
  %_M_next_resize.i.i.i.i.i.i = getelementptr inbounds %"class.duckdb::SQLStatement", ptr %call.i, i64 0, i32 5, i32 0, i32 4, i32 1
  tail call void @llvm.memset.p0.i64(ptr noundef nonnull align 8 dereferenceable(16) %_M_next_resize.i.i.i.i.i.i, i8 0, i64 16, i1 false), !noalias !151
  %query.i.i.i = getelementptr inbounds %"class.duckdb::SQLStatement", ptr %call.i, i64 0, i32 6
  %0 = getelementptr inbounds %"class.duckdb::SQLStatement", ptr %call.i, i64 0, i32 6, i32 2
  store ptr %0, ptr %query.i.i.i, align 8, !tbaa !145, !noalias !151
  %_M_string_length.i.i.i.i.i.i = getelementptr inbounds %"class.duckdb::SQLStatement", ptr %call.i, i64 0, i32 6, i32 1
  store i64 0, ptr %_M_string_length.i.i.i.i.i.i, align 8, !tbaa !47, !noalias !151
  store i8 0, ptr %0, align 1, !tbaa !21, !noalias !151
  store ptr getelementptr inbounds ({ [6 x ptr] }, ptr @_ZTVN6duckdb15SelectStatementE, i64 0, inrange i32 0, i64 2), ptr %call.i, align 8, !tbaa !9, !noalias !151
  %node.i.i = getelementptr inbounds %"class.duckdb::SelectStatement", ptr %call.i, i64 0, i32 1
  store ptr null, ptr %node.i.i, align 8, !tbaa !74, !noalias !151
  store ptr %call.i, ptr %select, align 8, !tbaa !11, !alias.scope !151
  call void @llvm.lifetime.start.p0(i64 8, ptr nonnull %ref.tmp) #24
  %child = getelementptr inbounds %"class.duckdb::CreateTableRelation", ptr %this, i64 0, i32 1
  %1 = load ptr, ptr %child, align 8, !tbaa !3
  %vtable = load ptr, ptr %1, align 8, !tbaa !9
  %vfn = getelementptr inbounds ptr, ptr %vtable, i64 3
  %2 = load ptr, ptr %vfn, align 8
  invoke void %2(ptr nonnull sret(%"class.duckdb::unique_ptr.99") align 8 %ref.tmp, ptr noundef nonnull align 8 dereferenceable(64) %1)
          to label %invoke.cont unwind label %lpad

invoke.cont:                                      ; preds = %entry
  %call4 = invoke noundef ptr @_ZNK6duckdb10unique_ptrINS_15SelectStatementESt14default_deleteIS1_ELb1EEptEv(ptr noundef nonnull align 8 dereferenceable(8) %select)
          to label %invoke.cont3 unwind label %lpad2

invoke.cont3:                                     ; preds = %invoke.cont
  %node = getelementptr inbounds %"class.duckdb::SelectStatement", ptr %call4, i64 0, i32 1
  %3 = load ptr, ptr %ref.tmp, align 8, !tbaa !11
  store ptr null, ptr %ref.tmp, align 8, !tbaa !11
  %4 = load ptr, ptr %node, align 8, !tbaa !11
  store ptr %3, ptr %node, align 8, !tbaa !11
  %tobool.not.i.i.i.i.i = icmp eq ptr %4, null
  br i1 %tobool.not.i.i.i.i.i, label %_ZNSt10unique_ptrIN6duckdb9QueryNodeESt14default_deleteIS1_EED2Ev.exit, label %_ZN6duckdb10unique_ptrINS_9QueryNodeESt14default_deleteIS1_ELb1EEaSEOS4_.exit

_ZN6duckdb10unique_ptrINS_9QueryNodeESt14default_deleteIS1_ELb1EEaSEOS4_.exit: ; preds = %invoke.cont3
  %vtable.i.i.i.i.i.i = load ptr, ptr %4, align 8, !tbaa !9
  %vfn.i.i.i.i.i.i = getelementptr inbounds ptr, ptr %vtable.i.i.i.i.i.i, i64 1
  %5 = load ptr, ptr %vfn.i.i.i.i.i.i, align 8
  call void %5(ptr noundef nonnull align 8 dereferenceable(96) %4) #24
  %.pr = load ptr, ptr %ref.tmp, align 8, !tbaa !11
  %cmp.not.i = icmp eq ptr %.pr, null
  br i1 %cmp.not.i, label %_ZNSt10unique_ptrIN6duckdb9QueryNodeESt14default_deleteIS1_EED2Ev.exit, label %_ZNKSt14default_deleteIN6duckdb9QueryNodeEEclEPS1_.exit.i

_ZNKSt14default_deleteIN6duckdb9QueryNodeEEclEPS1_.exit.i: ; preds = %_ZN6duckdb10unique_ptrINS_9QueryNodeESt14default_deleteIS1_ELb1EEaSEOS4_.exit
  %vtable.i.i = load ptr, ptr %.pr, align 8, !tbaa !9
  %vfn.i.i = getelementptr inbounds ptr, ptr %vtable.i.i, i64 1
  %6 = load ptr, ptr %vfn.i.i, align 8
  call void %6(ptr noundef nonnull align 8 dereferenceable(96) %.pr) #24
  br label %_ZNSt10unique_ptrIN6duckdb9QueryNodeESt14default_deleteIS1_EED2Ev.exit

_ZNSt10unique_ptrIN6duckdb9QueryNodeESt14default_deleteIS1_EED2Ev.exit: ; preds = %_ZNKSt14default_deleteIN6duckdb9QueryNodeEEclEPS1_.exit.i, %_ZN6duckdb10unique_ptrINS_9QueryNodeESt14default_deleteIS1_ELb1EEaSEOS4_.exit, %invoke.cont3
  call void @llvm.lifetime.end.p0(i64 8, ptr nonnull %ref.tmp) #24
  call void @llvm.lifetime.start.p0(i64 136, ptr nonnull %stmt) #24
  invoke void @_ZN6duckdb15CreateStatementC1Ev(ptr noundef nonnull align 8 dereferenceable(136) %stmt)
          to label %invoke.cont7 unwind label %lpad6

invoke.cont7:                                     ; preds = %_ZNSt10unique_ptrIN6duckdb9QueryNodeESt14default_deleteIS1_EED2Ev.exit
  call void @llvm.lifetime.start.p0(i64 8, ptr nonnull %info) #24
  call void @llvm.experimental.noalias.scope.decl(metadata !162)
  %call.i4243 = invoke noalias noundef nonnull dereferenceable(296) ptr @_Znwm(i64 noundef 296) #29
          to label %call.i42.noexc unwind label %lpad8

call.i42.noexc:                                   ; preds = %invoke.cont7
  invoke void @_ZN6duckdb15CreateTableInfoC1Ev(ptr noundef nonnull align 8 dereferenceable(296) %call.i4243)
          to label %invoke.cont9 unwind label %lpad.i, !noalias !162

lpad.i:                                           ; preds = %call.i42.noexc
  %7 = landingpad { ptr, i32 }
          cleanup
  call void @_ZdlPv(ptr noundef nonnull %call.i4243) #26, !noalias !162
  br label %ehcleanup31

invoke.cont9:                                     ; preds = %call.i42.noexc
  store ptr %call.i4243, ptr %info, align 8, !tbaa !11, !alias.scope !162
  %call12 = invoke noundef ptr @_ZNK6duckdb10unique_ptrINS_15CreateTableInfoESt14default_deleteIS1_ELb1EEptEv(ptr noundef nonnull align 8 dereferenceable(8) %info)
          to label %invoke.cont11 unwind label %lpad10

invoke.cont11:                                    ; preds = %invoke.cont9
  %schema_name = getelementptr inbounds %"class.duckdb::CreateTableRelation", ptr %this, i64 0, i32 2
  %schema = getelementptr inbounds %"struct.duckdb::CreateInfo", ptr %call12, i64 0, i32 3
  invoke void @_ZNSt7__cxx1112basic_stringIcSt11char_traitsIcESaIcEE9_M_assignERKS4_(ptr noundef nonnull align 8 dereferenceable(32) %schema, ptr noundef nonnull align 8 dereferenceable(32) %schema_name)
          to label %invoke.cont13 unwind label %lpad10

invoke.cont13:                                    ; preds = %invoke.cont11
  %call16 = invoke noundef ptr @_ZNK6duckdb10unique_ptrINS_15CreateTableInfoESt14default_deleteIS1_ELb1EEptEv(ptr noundef nonnull align 8 dereferenceable(8) %info)
          to label %invoke.cont15 unwind label %lpad10

invoke.cont15:                                    ; preds = %invoke.cont13
  %table_name = getelementptr inbounds %"class.duckdb::CreateTableRelation", ptr %this, i64 0, i32 3
  %table = getelementptr inbounds %"struct.duckdb::CreateTableInfo", ptr %call16, i64 0, i32 1
  invoke void @_ZNSt7__cxx1112basic_stringIcSt11char_traitsIcESaIcEE9_M_assignERKS4_(ptr noundef nonnull align 8 dereferenceable(32) %table, ptr noundef nonnull align 8 dereferenceable(32) %table_name)
          to label %invoke.cont17 unwind label %lpad10

invoke.cont17:                                    ; preds = %invoke.cont15
  %call20 = invoke noundef ptr @_ZNK6duckdb10unique_ptrINS_15CreateTableInfoESt14default_deleteIS1_ELb1EEptEv(ptr noundef nonnull align 8 dereferenceable(8) %info)
          to label %invoke.cont19 unwind label %lpad10

invoke.cont19:                                    ; preds = %invoke.cont17
  %query = getelementptr inbounds %"struct.duckdb::CreateTableInfo", ptr %call20, i64 0, i32 4
  %8 = load ptr, ptr %select, align 8, !tbaa !11
  store ptr null, ptr %select, align 8, !tbaa !11
  %9 = load ptr, ptr %query, align 8, !tbaa !11
  store ptr %8, ptr %query, align 8, !tbaa !11
  %tobool.not.i.i.i.i.i45 = icmp eq ptr %9, null
  br i1 %tobool.not.i.i.i.i.i45, label %_ZN6duckdb10unique_ptrINS_15SelectStatementESt14default_deleteIS1_ELb1EEaSEOS4_.exit, label %_ZNKSt14default_deleteIN6duckdb15SelectStatementEEclEPS1_.exit.i.i.i.i.i

_ZNKSt14default_deleteIN6duckdb15SelectStatementEEclEPS1_.exit.i.i.i.i.i: ; preds = %invoke.cont19
  %vtable.i.i.i.i.i.i46 = load ptr, ptr %9, align 8, !tbaa !9
  %vfn.i.i.i.i.i.i47 = getelementptr inbounds ptr, ptr %vtable.i.i.i.i.i.i46, i64 1
  %10 = load ptr, ptr %vfn.i.i.i.i.i.i47, align 8
  call void %10(ptr noundef nonnull align 8 dereferenceable(136) %9) #24
  br label %_ZN6duckdb10unique_ptrINS_15SelectStatementESt14default_deleteIS1_ELb1EEaSEOS4_.exit

_ZN6duckdb10unique_ptrINS_15SelectStatementESt14default_deleteIS1_ELb1EEaSEOS4_.exit: ; preds = %_ZNKSt14default_deleteIN6duckdb15SelectStatementEEclEPS1_.exit.i.i.i.i.i, %invoke.cont19
  %call23 = invoke noundef ptr @_ZNK6duckdb10unique_ptrINS_15CreateTableInfoESt14default_deleteIS1_ELb1EEptEv(ptr noundef nonnull align 8 dereferenceable(8) %info)
          to label %invoke.cont22 unwind label %lpad10

invoke.cont22:                                    ; preds = %_ZN6duckdb10unique_ptrINS_15SelectStatementESt14default_deleteIS1_ELb1EEaSEOS4_.exit
  %on_conflict = getelementptr inbounds %"struct.duckdb::CreateInfo", ptr %call23, i64 0, i32 4
  store i8 0, ptr %on_conflict, align 8, !tbaa !165
  %11 = load ptr, ptr %info, align 8, !tbaa !11
  store ptr null, ptr %info, align 8, !tbaa !11
  %info25 = getelementptr inbounds %"class.duckdb::CreateStatement", ptr %stmt, i64 0, i32 1
  %12 = load ptr, ptr %info25, align 8, !tbaa !11
  store ptr %11, ptr %info25, align 8, !tbaa !11
  %tobool.not.i.i.i.i.i48 = icmp eq ptr %12, null
  br i1 %tobool.not.i.i.i.i.i48, label %invoke.cont27, label %_ZNKSt14default_deleteIN6duckdb10CreateInfoEEclEPS1_.exit.i.i.i.i.i

_ZNKSt14default_deleteIN6duckdb10CreateInfoEEclEPS1_.exit.i.i.i.i.i: ; preds = %invoke.cont22
  %vtable.i.i.i.i.i.i49 = load ptr, ptr %12, align 8, !tbaa !9
  %vfn.i.i.i.i.i.i50 = getelementptr inbounds ptr, ptr %vtable.i.i.i.i.i.i49, i64 1
  %13 = load ptr, ptr %vfn.i.i.i.i.i.i50, align 8
  call void %13(ptr noundef nonnull align 8 dereferenceable(120) %12) #24
  br label %invoke.cont27

invoke.cont27:                                    ; preds = %_ZNKSt14default_deleteIN6duckdb10CreateInfoEEclEPS1_.exit.i.i.i.i.i, %invoke.cont22
  invoke void @_ZN6duckdb6Binder4BindERNS_12SQLStatementE(ptr sret(%"struct.duckdb::BoundStatement") align 8 %agg.result, ptr noundef nonnull align 8 dereferenceable(752) %binder, ptr noundef nonnull align 8 dereferenceable(128) %stmt)
          to label %invoke.cont29 unwind label %lpad10

invoke.cont29:                                    ; preds = %invoke.cont27
  %14 = load ptr, ptr %info, align 8, !tbaa !11
  %cmp.not.i54 = icmp eq ptr %14, null
  br i1 %cmp.not.i54, label %_ZNSt10unique_ptrIN6duckdb15CreateTableInfoESt14default_deleteIS1_EED2Ev.exit, label %_ZNKSt14default_deleteIN6duckdb15CreateTableInfoEEclEPS1_.exit.i

_ZNKSt14default_deleteIN6duckdb15CreateTableInfoEEclEPS1_.exit.i: ; preds = %invoke.cont29
  %vtable.i.i55 = load ptr, ptr %14, align 8, !tbaa !9
  %vfn.i.i56 = getelementptr inbounds ptr, ptr %vtable.i.i55, i64 1
  %15 = load ptr, ptr %vfn.i.i56, align 8
  call void %15(ptr noundef nonnull align 8 dereferenceable(296) %14) #24
  br label %_ZNSt10unique_ptrIN6duckdb15CreateTableInfoESt14default_deleteIS1_EED2Ev.exit

_ZNSt10unique_ptrIN6duckdb15CreateTableInfoESt14default_deleteIS1_EED2Ev.exit: ; preds = %_ZNKSt14default_deleteIN6duckdb15CreateTableInfoEEclEPS1_.exit.i, %invoke.cont29
  call void @llvm.lifetime.end.p0(i64 8, ptr nonnull %info) #24
  store ptr getelementptr inbounds ({ [6 x ptr] }, ptr @_ZTVN6duckdb15CreateStatementE, i64 0, inrange i32 0, i64 2), ptr %stmt, align 8, !tbaa !9
  %16 = load ptr, ptr %info25, align 8, !tbaa !11
  %cmp.not.i.i = icmp eq ptr %16, null
  br i1 %cmp.not.i.i, label %_ZNSt10unique_ptrIN6duckdb10CreateInfoESt14default_deleteIS1_EED2Ev.exit.i, label %_ZNKSt14default_deleteIN6duckdb10CreateInfoEEclEPS1_.exit.i.i

_ZNKSt14default_deleteIN6duckdb10CreateInfoEEclEPS1_.exit.i.i: ; preds = %_ZNSt10unique_ptrIN6duckdb15CreateTableInfoESt14default_deleteIS1_EED2Ev.exit
  %vtable.i.i.i = load ptr, ptr %16, align 8, !tbaa !9
  %vfn.i.i.i = getelementptr inbounds ptr, ptr %vtable.i.i.i, i64 1
  %17 = load ptr, ptr %vfn.i.i.i, align 8
  call void %17(ptr noundef nonnull align 8 dereferenceable(120) %16) #24
  br label %_ZNSt10unique_ptrIN6duckdb10CreateInfoESt14default_deleteIS1_EED2Ev.exit.i

_ZNSt10unique_ptrIN6duckdb10CreateInfoESt14default_deleteIS1_EED2Ev.exit.i: ; preds = %_ZNKSt14default_deleteIN6duckdb10CreateInfoEEclEPS1_.exit.i.i, %_ZNSt10unique_ptrIN6duckdb15CreateTableInfoESt14default_deleteIS1_EED2Ev.exit
  store ptr null, ptr %info25, align 8, !tbaa !11
  store ptr getelementptr inbounds ({ [6 x ptr] }, ptr @_ZTVN6duckdb12SQLStatementE, i64 0, inrange i32 0, i64 2), ptr %stmt, align 8, !tbaa !9
  %query.i.i = getelementptr inbounds %"class.duckdb::SQLStatement", ptr %stmt, i64 0, i32 6
  %18 = load ptr, ptr %query.i.i, align 8, !tbaa !43
  %19 = getelementptr inbounds %"class.duckdb::SQLStatement", ptr %stmt, i64 0, i32 6, i32 2
  %cmp.i.i.i.i.i = icmp eq ptr %18, %19
  br i1 %cmp.i.i.i.i.i, label %_ZNKSt7__cxx1112basic_stringIcSt11char_traitsIcESaIcEE11_M_is_localEv.exit.thread.i.i.i.i, label %if.then.i.i.i.i

_ZNKSt7__cxx1112basic_stringIcSt11char_traitsIcESaIcEE11_M_is_localEv.exit.thread.i.i.i.i: ; preds = %_ZNSt10unique_ptrIN6duckdb10CreateInfoESt14default_deleteIS1_EED2Ev.exit.i
  %_M_string_length.i.i.i.i.i = getelementptr inbounds %"class.duckdb::SQLStatement", ptr %stmt, i64 0, i32 6, i32 1
  %20 = load i64, ptr %_M_string_length.i.i.i.i.i, align 8, !tbaa !47
  %cmp3.i.i.i.i.i = icmp ult i64 %20, 16
  call void @llvm.assume(i1 %cmp3.i.i.i.i.i)
  br label %_ZNSt7__cxx1112basic_stringIcSt11char_traitsIcESaIcEED2Ev.exit.i.i

if.then.i.i.i.i:                                  ; preds = %_ZNSt10unique_ptrIN6duckdb10CreateInfoESt14default_deleteIS1_EED2Ev.exit.i
  call void @_ZdlPv(ptr noundef %18) #26
  br label %_ZNSt7__cxx1112basic_stringIcSt11char_traitsIcESaIcEED2Ev.exit.i.i

_ZNSt7__cxx1112basic_stringIcSt11char_traitsIcESaIcEED2Ev.exit.i.i: ; preds = %if.then.i.i.i.i, %_ZNKSt7__cxx1112basic_stringIcSt11char_traitsIcESaIcEE11_M_is_localEv.exit.thread.i.i.i.i
  %named_param_map.i.i = getelementptr inbounds %"class.duckdb::SQLStatement", ptr %stmt, i64 0, i32 5
  %_M_before_begin.i.i.i.i.i.i = getelementptr inbounds %"class.duckdb::SQLStatement", ptr %stmt, i64 0, i32 5, i32 0, i32 2
  %21 = load ptr, ptr %_M_before_begin.i.i.i.i.i.i, align 8, !tbaa !172
  %tobool.not4.i.i.i.i.i.i = icmp eq ptr %21, null
  br i1 %tobool.not4.i.i.i.i.i.i, label %_ZNSt10_HashtableINSt7__cxx1112basic_stringIcSt11char_traitsIcESaIcEEESt4pairIKS5_mESaIS8_ENSt8__detail10_Select1stEN6duckdb29CaseInsensitiveStringEqualityENSC_33CaseInsensitiveStringHashFunctionENSA_18_Mod_range_hashingENSA_20_Default_ranged_hashENSA_20_Prime_rehash_policyENSA_17_Hashtable_traitsILb1ELb0ELb1EEEE5clearEv.exit.i.i.i.i, label %while.body.i.i.i.i.i.i

while.body.i.i.i.i.i.i:                           ; preds = %_ZNSt7__cxx1112basic_stringIcSt11char_traitsIcESaIcEED2Ev.exit.i.i, %_ZNSt8__detail16_Hashtable_allocISaINS_10_Hash_nodeISt4pairIKNSt7__cxx1112basic_stringIcSt11char_traitsIcESaIcEEEmELb1EEEEE18_M_deallocate_nodeEPSB_.exit.i.i.i.i.i.i
  %__n.addr.05.i.i.i.i.i.i = phi ptr [ %22, %_ZNSt8__detail16_Hashtable_allocISaINS_10_Hash_nodeISt4pairIKNSt7__cxx1112basic_stringIcSt11char_traitsIcESaIcEEEmELb1EEEEE18_M_deallocate_nodeEPSB_.exit.i.i.i.i.i.i ], [ %21, %_ZNSt7__cxx1112basic_stringIcSt11char_traitsIcESaIcEED2Ev.exit.i.i ]
  %22 = load ptr, ptr %__n.addr.05.i.i.i.i.i.i, align 8, !tbaa !173
  %add.ptr.i.i.i.i.i.i.i = getelementptr inbounds i8, ptr %__n.addr.05.i.i.i.i.i.i, i64 8
  %23 = load ptr, ptr %add.ptr.i.i.i.i.i.i.i, align 8, !tbaa !43
  %24 = getelementptr inbounds i8, ptr %__n.addr.05.i.i.i.i.i.i, i64 24
  %cmp.i.i.i.i.i.i.i.i.i.i.i.i.i = icmp eq ptr %23, %24
  br i1 %cmp.i.i.i.i.i.i.i.i.i.i.i.i.i, label %_ZNKSt7__cxx1112basic_stringIcSt11char_traitsIcESaIcEE11_M_is_localEv.exit.thread.i.i.i.i.i.i.i.i.i.i.i.i, label %if.then.i.i.i.i.i.i.i.i.i.i.i.i

_ZNKSt7__cxx1112basic_stringIcSt11char_traitsIcESaIcEE11_M_is_localEv.exit.thread.i.i.i.i.i.i.i.i.i.i.i.i: ; preds = %while.body.i.i.i.i.i.i
  %_M_string_length.i.i.i.i.i.i.i.i.i.i.i.i.i = getelementptr inbounds i8, ptr %__n.addr.05.i.i.i.i.i.i, i64 16
  %25 = load i64, ptr %_M_string_length.i.i.i.i.i.i.i.i.i.i.i.i.i, align 8, !tbaa !47
  %cmp3.i.i.i.i.i.i.i.i.i.i.i.i.i = icmp ult i64 %25, 16
  call void @llvm.assume(i1 %cmp3.i.i.i.i.i.i.i.i.i.i.i.i.i)
  br label %_ZNSt8__detail16_Hashtable_allocISaINS_10_Hash_nodeISt4pairIKNSt7__cxx1112basic_stringIcSt11char_traitsIcESaIcEEEmELb1EEEEE18_M_deallocate_nodeEPSB_.exit.i.i.i.i.i.i

if.then.i.i.i.i.i.i.i.i.i.i.i.i:                  ; preds = %while.body.i.i.i.i.i.i
  call void @_ZdlPv(ptr noundef %23) #26
  br label %_ZNSt8__detail16_Hashtable_allocISaINS_10_Hash_nodeISt4pairIKNSt7__cxx1112basic_stringIcSt11char_traitsIcESaIcEEEmELb1EEEEE18_M_deallocate_nodeEPSB_.exit.i.i.i.i.i.i

_ZNSt8__detail16_Hashtable_allocISaINS_10_Hash_nodeISt4pairIKNSt7__cxx1112basic_stringIcSt11char_traitsIcESaIcEEEmELb1EEEEE18_M_deallocate_nodeEPSB_.exit.i.i.i.i.i.i: ; preds = %if.then.i.i.i.i.i.i.i.i.i.i.i.i, %_ZNKSt7__cxx1112basic_stringIcSt11char_traitsIcESaIcEE11_M_is_localEv.exit.thread.i.i.i.i.i.i.i.i.i.i.i.i
  call void @_ZdlPv(ptr noundef nonnull %__n.addr.05.i.i.i.i.i.i) #26
  %tobool.not.i.i.i.i.i.i = icmp eq ptr %22, null
  br i1 %tobool.not.i.i.i.i.i.i, label %_ZNSt10_HashtableINSt7__cxx1112basic_stringIcSt11char_traitsIcESaIcEEESt4pairIKS5_mESaIS8_ENSt8__detail10_Select1stEN6duckdb29CaseInsensitiveStringEqualityENSC_33CaseInsensitiveStringHashFunctionENSA_18_Mod_range_hashingENSA_20_Default_ranged_hashENSA_20_Prime_rehash_policyENSA_17_Hashtable_traitsILb1ELb0ELb1EEEE5clearEv.exit.i.i.i.i, label %while.body.i.i.i.i.i.i, !llvm.loop !174

_ZNSt10_HashtableINSt7__cxx1112basic_stringIcSt11char_traitsIcESaIcEEESt4pairIKS5_mESaIS8_ENSt8__detail10_Select1stEN6duckdb29CaseInsensitiveStringEqualityENSC_33CaseInsensitiveStringHashFunctionENSA_18_Mod_range_hashingENSA_20_Default_ranged_hashENSA_20_Prime_rehash_policyENSA_17_Hashtable_traitsILb1ELb0ELb1EEEE5clearEv.exit.i.i.i.i: ; preds = %_ZNSt8__detail16_Hashtable_allocISaINS_10_Hash_nodeISt4pairIKNSt7__cxx1112basic_stringIcSt11char_traitsIcESaIcEEEmELb1EEEEE18_M_deallocate_nodeEPSB_.exit.i.i.i.i.i.i, %_ZNSt7__cxx1112basic_stringIcSt11char_traitsIcESaIcEED2Ev.exit.i.i
  %26 = load ptr, ptr %named_param_map.i.i, align 8, !tbaa !159
  %_M_bucket_count.i.i.i.i.i57 = getelementptr inbounds %"class.duckdb::SQLStatement", ptr %stmt, i64 0, i32 5, i32 0, i32 1
  %27 = load i64, ptr %_M_bucket_count.i.i.i.i.i57, align 8, !tbaa !160
  %mul.i.i.i.i.i = shl i64 %27, 3
  call void @llvm.memset.p0.i64(ptr align 8 %26, i8 0, i64 %mul.i.i.i.i.i, i1 false)
  call void @llvm.memset.p0.i64(ptr noundef nonnull align 8 dereferenceable(16) %_M_before_begin.i.i.i.i.i.i, i8 0, i64 16, i1 false)
  %28 = load ptr, ptr %named_param_map.i.i, align 8, !tbaa !159
  %_M_single_bucket.i.i.i.i.i.i.i = getelementptr inbounds %"class.duckdb::SQLStatement", ptr %stmt, i64 0, i32 5, i32 0, i32 5
  %cmp.i.i.i.i.i.i.i = icmp eq ptr %_M_single_bucket.i.i.i.i.i.i.i, %28
  br i1 %cmp.i.i.i.i.i.i.i, label %_ZN6duckdb15CreateStatementD2Ev.exit, label %if.end.i.i.i.i.i.i

if.end.i.i.i.i.i.i:                               ; preds = %_ZNSt10_HashtableINSt7__cxx1112basic_stringIcSt11char_traitsIcESaIcEEESt4pairIKS5_mESaIS8_ENSt8__detail10_Select1stEN6duckdb29CaseInsensitiveStringEqualityENSC_33CaseInsensitiveStringHashFunctionENSA_18_Mod_range_hashingENSA_20_Default_ranged_hashENSA_20_Prime_rehash_policyENSA_17_Hashtable_traitsILb1ELb0ELb1EEEE5clearEv.exit.i.i.i.i
  call void @_ZdlPv(ptr noundef %28) #26
  br label %_ZN6duckdb15CreateStatementD2Ev.exit

_ZN6duckdb15CreateStatementD2Ev.exit:             ; preds = %if.end.i.i.i.i.i.i, %_ZNSt10_HashtableINSt7__cxx1112basic_stringIcSt11char_traitsIcESaIcEEESt4pairIKS5_mESaIS8_ENSt8__detail10_Select1stEN6duckdb29CaseInsensitiveStringEqualityENSC_33CaseInsensitiveStringHashFunctionENSA_18_Mod_range_hashingENSA_20_Default_ranged_hashENSA_20_Prime_rehash_policyENSA_17_Hashtable_traitsILb1ELb0ELb1EEEE5clearEv.exit.i.i.i.i
  call void @llvm.lifetime.end.p0(i64 136, ptr nonnull %stmt) #24
  %29 = load ptr, ptr %select, align 8, !tbaa !11
  %cmp.not.i58 = icmp eq ptr %29, null
  br i1 %cmp.not.i58, label %_ZNSt10unique_ptrIN6duckdb15SelectStatementESt14default_deleteIS1_EED2Ev.exit, label %_ZNKSt14default_deleteIN6duckdb15SelectStatementEEclEPS1_.exit.i

_ZNKSt14default_deleteIN6duckdb15SelectStatementEEclEPS1_.exit.i: ; preds = %_ZN6duckdb15CreateStatementD2Ev.exit
  %vtable.i.i59 = load ptr, ptr %29, align 8, !tbaa !9
  %vfn.i.i60 = getelementptr inbounds ptr, ptr %vtable.i.i59, i64 1
  %30 = load ptr, ptr %vfn.i.i60, align 8
  call void %30(ptr noundef nonnull align 8 dereferenceable(136) %29) #24
  br label %_ZNSt10unique_ptrIN6duckdb15SelectStatementESt14default_deleteIS1_EED2Ev.exit

_ZNSt10unique_ptrIN6duckdb15SelectStatementESt14default_deleteIS1_EED2Ev.exit: ; preds = %_ZNKSt14default_deleteIN6duckdb15SelectStatementEEclEPS1_.exit.i, %_ZN6duckdb15CreateStatementD2Ev.exit
  call void @llvm.lifetime.end.p0(i64 8, ptr nonnull %select) #24
  ret void

lpad:                                             ; preds = %entry
  %31 = landingpad { ptr, i32 }
          cleanup
  br label %ehcleanup

lpad2:                                            ; preds = %invoke.cont
  %32 = landingpad { ptr, i32 }
          cleanup
  %33 = load ptr, ptr %ref.tmp, align 8, !tbaa !11
  %cmp.not.i61 = icmp eq ptr %33, null
  br i1 %cmp.not.i61, label %ehcleanup, label %_ZNKSt14default_deleteIN6duckdb9QueryNodeEEclEPS1_.exit.i62

_ZNKSt14default_deleteIN6duckdb9QueryNodeEEclEPS1_.exit.i62: ; preds = %lpad2
  %vtable.i.i63 = load ptr, ptr %33, align 8, !tbaa !9
  %vfn.i.i64 = getelementptr inbounds ptr, ptr %vtable.i.i63, i64 1
  %34 = load ptr, ptr %vfn.i.i64, align 8
  call void %34(ptr noundef nonnull align 8 dereferenceable(96) %33) #24
  br label %ehcleanup

ehcleanup:                                        ; preds = %_ZNKSt14default_deleteIN6duckdb9QueryNodeEEclEPS1_.exit.i62, %lpad2, %lpad
  %.pn = phi { ptr, i32 } [ %31, %lpad ], [ %32, %lpad2 ], [ %32, %_ZNKSt14default_deleteIN6duckdb9QueryNodeEEclEPS1_.exit.i62 ]
  call void @llvm.lifetime.end.p0(i64 8, ptr nonnull %ref.tmp) #24
  br label %ehcleanup34

lpad6:                                            ; preds = %_ZNSt10unique_ptrIN6duckdb9QueryNodeESt14default_deleteIS1_EED2Ev.exit
  %35 = landingpad { ptr, i32 }
          cleanup
  br label %ehcleanup33

lpad8:                                            ; preds = %invoke.cont7
  %36 = landingpad { ptr, i32 }
          cleanup
  br label %ehcleanup31

lpad10:                                           ; preds = %invoke.cont27, %_ZN6duckdb10unique_ptrINS_15SelectStatementESt14default_deleteIS1_ELb1EEaSEOS4_.exit, %invoke.cont17, %invoke.cont15, %invoke.cont13, %invoke.cont11, %invoke.cont9
  %37 = landingpad { ptr, i32 }
          cleanup
  %38 = load ptr, ptr %info, align 8, !tbaa !11
  %cmp.not.i66 = icmp eq ptr %38, null
  br i1 %cmp.not.i66, label %ehcleanup31, label %_ZNKSt14default_deleteIN6duckdb15CreateTableInfoEEclEPS1_.exit.i67

_ZNKSt14default_deleteIN6duckdb15CreateTableInfoEEclEPS1_.exit.i67: ; preds = %lpad10
  %vtable.i.i68 = load ptr, ptr %38, align 8, !tbaa !9
  %vfn.i.i69 = getelementptr inbounds ptr, ptr %vtable.i.i68, i64 1
  %39 = load ptr, ptr %vfn.i.i69, align 8
  call void %39(ptr noundef nonnull align 8 dereferenceable(296) %38) #24
  br label %ehcleanup31

ehcleanup31:                                      ; preds = %_ZNKSt14default_deleteIN6duckdb15CreateTableInfoEEclEPS1_.exit.i67, %lpad10, %lpad8, %lpad.i
  %.pn38 = phi { ptr, i32 } [ %36, %lpad8 ], [ %7, %lpad.i ], [ %37, %lpad10 ], [ %37, %_ZNKSt14default_deleteIN6duckdb15CreateTableInfoEEclEPS1_.exit.i67 ]
  call void @llvm.lifetime.end.p0(i64 8, ptr nonnull %info) #24
  call void @_ZN6duckdb15CreateStatementD2Ev(ptr noundef nonnull align 8 dereferenceable(136) %stmt) #24
  br label %ehcleanup33

ehcleanup33:                                      ; preds = %ehcleanup31, %lpad6
  %.pn38.pn = phi { ptr, i32 } [ %.pn38, %ehcleanup31 ], [ %35, %lpad6 ]
  call void @llvm.lifetime.end.p0(i64 136, ptr nonnull %stmt) #24
  br label %ehcleanup34

ehcleanup34:                                      ; preds = %ehcleanup33, %ehcleanup
  %.pn38.pn.pn = phi { ptr, i32 } [ %.pn38.pn, %ehcleanup33 ], [ %.pn, %ehcleanup ]
  %40 = load ptr, ptr %select, align 8, !tbaa !11
  %cmp.not.i71 = icmp eq ptr %40, null
  br i1 %cmp.not.i71, label %_ZNSt10unique_ptrIN6duckdb15SelectStatementESt14default_deleteIS1_EED2Ev.exit75, label %_ZNKSt14default_deleteIN6duckdb15SelectStatementEEclEPS1_.exit.i72

_ZNKSt14default_deleteIN6duckdb15SelectStatementEEclEPS1_.exit.i72: ; preds = %ehcleanup34
  %vtable.i.i73 = load ptr, ptr %40, align 8, !tbaa !9
  %vfn.i.i74 = getelementptr inbounds ptr, ptr %vtable.i.i73, i64 1
  %41 = load ptr, ptr %vfn.i.i74, align 8
  call void %41(ptr noundef nonnull align 8 dereferenceable(136) %40) #24
  br label %_ZNSt10unique_ptrIN6duckdb15SelectStatementESt14default_deleteIS1_EED2Ev.exit75

_ZNSt10unique_ptrIN6duckdb15SelectStatementESt14default_deleteIS1_EED2Ev.exit75: ; preds = %_ZNKSt14default_deleteIN6duckdb15SelectStatementEEclEPS1_.exit.i72, %ehcleanup34
  call void @llvm.lifetime.end.p0(i64 8, ptr nonnull %select) #24
  resume { ptr, i32 } %.pn38.pn.pn
}

; Function Attrs: mustprogress uwtable
define linkonce_odr noundef ptr @_ZNK6duckdb10unique_ptrINS_15SelectStatementESt14default_deleteIS1_ELb1EEptEv(ptr noundef nonnull align 8 dereferenceable(8) %this) local_unnamed_addr #0 comdat align 2 personality ptr @__gxx_personality_v0 {
entry:
  %ref.tmp.i = alloca %"class.std::__cxx11::basic_string", align 8
  %ref.tmp2.i = alloca %"class.std::allocator.40", align 1
  %0 = load ptr, ptr %this, align 8, !tbaa !11
  %tobool.not = icmp eq ptr %0, null
  br i1 %tobool.not, label %if.then.i, label %_ZN6duckdb10unique_ptrINS_15SelectStatementESt14default_deleteIS1_ELb1EE13AssertNotNullEb.exit, !prof !23

if.then.i:                                        ; preds = %entry
  %exception.i = tail call ptr @__cxa_allocate_exception(i64 80) #24
  call void @llvm.lifetime.start.p0(i64 32, ptr nonnull %ref.tmp.i) #24
  call void @llvm.lifetime.start.p0(i64 1, ptr nonnull %ref.tmp2.i) #24
  invoke void @_ZNSt7__cxx1112basic_stringIcSt11char_traitsIcESaIcEEC2EPKcRKS3_(ptr noundef nonnull align 8 dereferenceable(32) %ref.tmp.i, ptr noundef nonnull @.str.63, ptr noundef nonnull align 1 dereferenceable(1) %ref.tmp2.i)
          to label %invoke.cont.i unwind label %ehcleanup.thread.i

invoke.cont.i:                                    ; preds = %if.then.i
  invoke void @_ZN6duckdb17InternalExceptionC1ERKNSt7__cxx1112basic_stringIcSt11char_traitsIcESaIcEEE(ptr noundef nonnull align 8 dereferenceable(80) %exception.i, ptr noundef nonnull align 8 dereferenceable(32) %ref.tmp.i)
          to label %invoke.cont4.i unwind label %lpad3.i

invoke.cont4.i:                                   ; preds = %invoke.cont.i
  invoke void @__cxa_throw(ptr nonnull %exception.i, ptr nonnull @_ZTIN6duckdb17InternalExceptionE, ptr nonnull @_ZN6duckdb9ExceptionD2Ev) #25
          to label %unreachable.i unwind label %lpad3.i

ehcleanup.thread.i:                               ; preds = %if.then.i
  %1 = landingpad { ptr, i32 }
          cleanup
  call void @llvm.lifetime.end.p0(i64 1, ptr nonnull %ref.tmp2.i) #24
  call void @llvm.lifetime.end.p0(i64 32, ptr nonnull %ref.tmp.i) #24
  br label %cleanup.action.i

lpad3.i:                                          ; preds = %invoke.cont4.i, %invoke.cont.i
  %cleanup.isactive.0.i = phi i1 [ false, %invoke.cont4.i ], [ true, %invoke.cont.i ]
  %2 = landingpad { ptr, i32 }
          cleanup
  %3 = load ptr, ptr %ref.tmp.i, align 8, !tbaa !43
  %4 = getelementptr inbounds %"class.std::__cxx11::basic_string", ptr %ref.tmp.i, i64 0, i32 2
  %cmp.i.i.i.i = icmp eq ptr %3, %4
  br i1 %cmp.i.i.i.i, label %_ZNKSt7__cxx1112basic_stringIcSt11char_traitsIcESaIcEE11_M_is_localEv.exit.thread.i.i.i, label %ehcleanup.i

_ZNKSt7__cxx1112basic_stringIcSt11char_traitsIcESaIcEE11_M_is_localEv.exit.thread.i.i.i: ; preds = %lpad3.i
  %_M_string_length.i.i.i.i = getelementptr inbounds %"class.std::__cxx11::basic_string", ptr %ref.tmp.i, i64 0, i32 1
  %5 = load i64, ptr %_M_string_length.i.i.i.i, align 8, !tbaa !47
  %cmp3.i.i.i.i = icmp ult i64 %5, 16
  call void @llvm.assume(i1 %cmp3.i.i.i.i)
  call void @llvm.lifetime.end.p0(i64 1, ptr nonnull %ref.tmp2.i) #24
  call void @llvm.lifetime.end.p0(i64 32, ptr nonnull %ref.tmp.i) #24
  br i1 %cleanup.isactive.0.i, label %cleanup.action.i, label %eh.resume.i

ehcleanup.i:                                      ; preds = %lpad3.i
  call void @_ZdlPv(ptr noundef %3) #26
  call void @llvm.lifetime.end.p0(i64 1, ptr nonnull %ref.tmp2.i) #24
  call void @llvm.lifetime.end.p0(i64 32, ptr nonnull %ref.tmp.i) #24
  br i1 %cleanup.isactive.0.i, label %cleanup.action.i, label %eh.resume.i

cleanup.action.i:                                 ; preds = %ehcleanup.i, %_ZNKSt7__cxx1112basic_stringIcSt11char_traitsIcESaIcEE11_M_is_localEv.exit.thread.i.i.i, %ehcleanup.thread.i
  %.pn13.i = phi { ptr, i32 } [ %1, %ehcleanup.thread.i ], [ %2, %ehcleanup.i ], [ %2, %_ZNKSt7__cxx1112basic_stringIcSt11char_traitsIcESaIcEE11_M_is_localEv.exit.thread.i.i.i ]
  call void @__cxa_free_exception(ptr %exception.i) #24
  br label %eh.resume.i

eh.resume.i:                                      ; preds = %cleanup.action.i, %ehcleanup.i, %_ZNKSt7__cxx1112basic_stringIcSt11char_traitsIcESaIcEE11_M_is_localEv.exit.thread.i.i.i
  %.pn12.i = phi { ptr, i32 } [ %2, %ehcleanup.i ], [ %.pn13.i, %cleanup.action.i ], [ %2, %_ZNKSt7__cxx1112basic_stringIcSt11char_traitsIcESaIcEE11_M_is_localEv.exit.thread.i.i.i ]
  resume { ptr, i32 } %.pn12.i

unreachable.i:                                    ; preds = %invoke.cont4.i
  unreachable

_ZN6duckdb10unique_ptrINS_15SelectStatementESt14default_deleteIS1_ELb1EE13AssertNotNullEb.exit: ; preds = %entry
  ret ptr %0
}

declare void @_ZN6duckdb15CreateStatementC1Ev(ptr noundef nonnull align 8 dereferenceable(136)) unnamed_addr #2

; Function Attrs: mustprogress uwtable
define linkonce_odr noundef ptr @_ZNK6duckdb10unique_ptrINS_15CreateTableInfoESt14default_deleteIS1_ELb1EEptEv(ptr noundef nonnull align 8 dereferenceable(8) %this) local_unnamed_addr #0 comdat align 2 personality ptr @__gxx_personality_v0 {
entry:
  %ref.tmp.i = alloca %"class.std::__cxx11::basic_string", align 8
  %ref.tmp2.i = alloca %"class.std::allocator.40", align 1
  %0 = load ptr, ptr %this, align 8, !tbaa !11
  %tobool.not = icmp eq ptr %0, null
  br i1 %tobool.not, label %if.then.i, label %_ZN6duckdb10unique_ptrINS_15CreateTableInfoESt14default_deleteIS1_ELb1EE13AssertNotNullEb.exit, !prof !23

if.then.i:                                        ; preds = %entry
  %exception.i = tail call ptr @__cxa_allocate_exception(i64 80) #24
  call void @llvm.lifetime.start.p0(i64 32, ptr nonnull %ref.tmp.i) #24
  call void @llvm.lifetime.start.p0(i64 1, ptr nonnull %ref.tmp2.i) #24
  invoke void @_ZNSt7__cxx1112basic_stringIcSt11char_traitsIcESaIcEEC2EPKcRKS3_(ptr noundef nonnull align 8 dereferenceable(32) %ref.tmp.i, ptr noundef nonnull @.str.63, ptr noundef nonnull align 1 dereferenceable(1) %ref.tmp2.i)
          to label %invoke.cont.i unwind label %ehcleanup.thread.i

invoke.cont.i:                                    ; preds = %if.then.i
  invoke void @_ZN6duckdb17InternalExceptionC1ERKNSt7__cxx1112basic_stringIcSt11char_traitsIcESaIcEEE(ptr noundef nonnull align 8 dereferenceable(80) %exception.i, ptr noundef nonnull align 8 dereferenceable(32) %ref.tmp.i)
          to label %invoke.cont4.i unwind label %lpad3.i

invoke.cont4.i:                                   ; preds = %invoke.cont.i
  invoke void @__cxa_throw(ptr nonnull %exception.i, ptr nonnull @_ZTIN6duckdb17InternalExceptionE, ptr nonnull @_ZN6duckdb9ExceptionD2Ev) #25
          to label %unreachable.i unwind label %lpad3.i

ehcleanup.thread.i:                               ; preds = %if.then.i
  %1 = landingpad { ptr, i32 }
          cleanup
  call void @llvm.lifetime.end.p0(i64 1, ptr nonnull %ref.tmp2.i) #24
  call void @llvm.lifetime.end.p0(i64 32, ptr nonnull %ref.tmp.i) #24
  br label %cleanup.action.i

lpad3.i:                                          ; preds = %invoke.cont4.i, %invoke.cont.i
  %cleanup.isactive.0.i = phi i1 [ false, %invoke.cont4.i ], [ true, %invoke.cont.i ]
  %2 = landingpad { ptr, i32 }
          cleanup
  %3 = load ptr, ptr %ref.tmp.i, align 8, !tbaa !43
  %4 = getelementptr inbounds %"class.std::__cxx11::basic_string", ptr %ref.tmp.i, i64 0, i32 2
  %cmp.i.i.i.i = icmp eq ptr %3, %4
  br i1 %cmp.i.i.i.i, label %_ZNKSt7__cxx1112basic_stringIcSt11char_traitsIcESaIcEE11_M_is_localEv.exit.thread.i.i.i, label %ehcleanup.i

_ZNKSt7__cxx1112basic_stringIcSt11char_traitsIcESaIcEE11_M_is_localEv.exit.thread.i.i.i: ; preds = %lpad3.i
  %_M_string_length.i.i.i.i = getelementptr inbounds %"class.std::__cxx11::basic_string", ptr %ref.tmp.i, i64 0, i32 1
  %5 = load i64, ptr %_M_string_length.i.i.i.i, align 8, !tbaa !47
  %cmp3.i.i.i.i = icmp ult i64 %5, 16
  call void @llvm.assume(i1 %cmp3.i.i.i.i)
  call void @llvm.lifetime.end.p0(i64 1, ptr nonnull %ref.tmp2.i) #24
  call void @llvm.lifetime.end.p0(i64 32, ptr nonnull %ref.tmp.i) #24
  br i1 %cleanup.isactive.0.i, label %cleanup.action.i, label %eh.resume.i

ehcleanup.i:                                      ; preds = %lpad3.i
  call void @_ZdlPv(ptr noundef %3) #26
  call void @llvm.lifetime.end.p0(i64 1, ptr nonnull %ref.tmp2.i) #24
  call void @llvm.lifetime.end.p0(i64 32, ptr nonnull %ref.tmp.i) #24
  br i1 %cleanup.isactive.0.i, label %cleanup.action.i, label %eh.resume.i

cleanup.action.i:                                 ; preds = %ehcleanup.i, %_ZNKSt7__cxx1112basic_stringIcSt11char_traitsIcESaIcEE11_M_is_localEv.exit.thread.i.i.i, %ehcleanup.thread.i
  %.pn13.i = phi { ptr, i32 } [ %1, %ehcleanup.thread.i ], [ %2, %ehcleanup.i ], [ %2, %_ZNKSt7__cxx1112basic_stringIcSt11char_traitsIcESaIcEE11_M_is_localEv.exit.thread.i.i.i ]
  call void @__cxa_free_exception(ptr %exception.i) #24
  br label %eh.resume.i

eh.resume.i:                                      ; preds = %cleanup.action.i, %ehcleanup.i, %_ZNKSt7__cxx1112basic_stringIcSt11char_traitsIcESaIcEE11_M_is_localEv.exit.thread.i.i.i
  %.pn12.i = phi { ptr, i32 } [ %2, %ehcleanup.i ], [ %.pn13.i, %cleanup.action.i ], [ %2, %_ZNKSt7__cxx1112basic_stringIcSt11char_traitsIcESaIcEE11_M_is_localEv.exit.thread.i.i.i ]
  resume { ptr, i32 } %.pn12.i

unreachable.i:                                    ; preds = %invoke.cont4.i
  unreachable

_ZN6duckdb10unique_ptrINS_15CreateTableInfoESt14default_deleteIS1_ELb1EE13AssertNotNullEb.exit: ; preds = %entry
  ret ptr %0
}

declare void @_ZN6duckdb6Binder4BindERNS_12SQLStatementE(ptr sret(%"struct.duckdb::BoundStatement") align 8, ptr noundef nonnull align 8 dereferenceable(752), ptr noundef nonnull align 8 dereferenceable(128)) local_unnamed_addr #2

; Function Attrs: inlinehint mustprogress nounwind uwtable
define linkonce_odr void @_ZN6duckdb15CreateStatementD2Ev(ptr noundef nonnull align 8 dereferenceable(136) %this) unnamed_addr #4 comdat align 2 personality ptr @__gxx_personality_v0 {
entry:
  store ptr getelementptr inbounds ({ [6 x ptr] }, ptr @_ZTVN6duckdb15CreateStatementE, i64 0, inrange i32 0, i64 2), ptr %this, align 8, !tbaa !9
  %info = getelementptr inbounds %"class.duckdb::CreateStatement", ptr %this, i64 0, i32 1
  %0 = load ptr, ptr %info, align 8, !tbaa !11
  %cmp.not.i = icmp eq ptr %0, null
  br i1 %cmp.not.i, label %_ZNSt10unique_ptrIN6duckdb10CreateInfoESt14default_deleteIS1_EED2Ev.exit, label %_ZNKSt14default_deleteIN6duckdb10CreateInfoEEclEPS1_.exit.i

_ZNKSt14default_deleteIN6duckdb10CreateInfoEEclEPS1_.exit.i: ; preds = %entry
  %vtable.i.i = load ptr, ptr %0, align 8, !tbaa !9
  %vfn.i.i = getelementptr inbounds ptr, ptr %vtable.i.i, i64 1
  %1 = load ptr, ptr %vfn.i.i, align 8
  tail call void %1(ptr noundef nonnull align 8 dereferenceable(120) %0) #24
  br label %_ZNSt10unique_ptrIN6duckdb10CreateInfoESt14default_deleteIS1_EED2Ev.exit

_ZNSt10unique_ptrIN6duckdb10CreateInfoESt14default_deleteIS1_EED2Ev.exit: ; preds = %_ZNKSt14default_deleteIN6duckdb10CreateInfoEEclEPS1_.exit.i, %entry
  store ptr null, ptr %info, align 8, !tbaa !11
  store ptr getelementptr inbounds ({ [6 x ptr] }, ptr @_ZTVN6duckdb12SQLStatementE, i64 0, inrange i32 0, i64 2), ptr %this, align 8, !tbaa !9
  %query.i = getelementptr inbounds %"class.duckdb::SQLStatement", ptr %this, i64 0, i32 6
  %2 = load ptr, ptr %query.i, align 8, !tbaa !43
  %3 = getelementptr inbounds %"class.duckdb::SQLStatement", ptr %this, i64 0, i32 6, i32 2
  %cmp.i.i.i.i = icmp eq ptr %2, %3
  br i1 %cmp.i.i.i.i, label %_ZNKSt7__cxx1112basic_stringIcSt11char_traitsIcESaIcEE11_M_is_localEv.exit.thread.i.i.i, label %if.then.i.i.i

_ZNKSt7__cxx1112basic_stringIcSt11char_traitsIcESaIcEE11_M_is_localEv.exit.thread.i.i.i: ; preds = %_ZNSt10unique_ptrIN6duckdb10CreateInfoESt14default_deleteIS1_EED2Ev.exit
  %_M_string_length.i.i.i.i = getelementptr inbounds %"class.duckdb::SQLStatement", ptr %this, i64 0, i32 6, i32 1
  %4 = load i64, ptr %_M_string_length.i.i.i.i, align 8, !tbaa !47
  %cmp3.i.i.i.i = icmp ult i64 %4, 16
  tail call void @llvm.assume(i1 %cmp3.i.i.i.i)
  br label %_ZNSt7__cxx1112basic_stringIcSt11char_traitsIcESaIcEED2Ev.exit.i

if.then.i.i.i:                                    ; preds = %_ZNSt10unique_ptrIN6duckdb10CreateInfoESt14default_deleteIS1_EED2Ev.exit
  tail call void @_ZdlPv(ptr noundef %2) #26
  br label %_ZNSt7__cxx1112basic_stringIcSt11char_traitsIcESaIcEED2Ev.exit.i

_ZNSt7__cxx1112basic_stringIcSt11char_traitsIcESaIcEED2Ev.exit.i: ; preds = %if.then.i.i.i, %_ZNKSt7__cxx1112basic_stringIcSt11char_traitsIcESaIcEE11_M_is_localEv.exit.thread.i.i.i
  %named_param_map.i = getelementptr inbounds %"class.duckdb::SQLStatement", ptr %this, i64 0, i32 5
  %_M_before_begin.i.i.i.i.i = getelementptr inbounds %"class.duckdb::SQLStatement", ptr %this, i64 0, i32 5, i32 0, i32 2
  %5 = load ptr, ptr %_M_before_begin.i.i.i.i.i, align 8, !tbaa !172
  %tobool.not4.i.i.i.i.i = icmp eq ptr %5, null
  br i1 %tobool.not4.i.i.i.i.i, label %_ZNSt10_HashtableINSt7__cxx1112basic_stringIcSt11char_traitsIcESaIcEEESt4pairIKS5_mESaIS8_ENSt8__detail10_Select1stEN6duckdb29CaseInsensitiveStringEqualityENSC_33CaseInsensitiveStringHashFunctionENSA_18_Mod_range_hashingENSA_20_Default_ranged_hashENSA_20_Prime_rehash_policyENSA_17_Hashtable_traitsILb1ELb0ELb1EEEE5clearEv.exit.i.i.i, label %while.body.i.i.i.i.i

while.body.i.i.i.i.i:                             ; preds = %_ZNSt7__cxx1112basic_stringIcSt11char_traitsIcESaIcEED2Ev.exit.i, %_ZNSt8__detail16_Hashtable_allocISaINS_10_Hash_nodeISt4pairIKNSt7__cxx1112basic_stringIcSt11char_traitsIcESaIcEEEmELb1EEEEE18_M_deallocate_nodeEPSB_.exit.i.i.i.i.i
  %__n.addr.05.i.i.i.i.i = phi ptr [ %6, %_ZNSt8__detail16_Hashtable_allocISaINS_10_Hash_nodeISt4pairIKNSt7__cxx1112basic_stringIcSt11char_traitsIcESaIcEEEmELb1EEEEE18_M_deallocate_nodeEPSB_.exit.i.i.i.i.i ], [ %5, %_ZNSt7__cxx1112basic_stringIcSt11char_traitsIcESaIcEED2Ev.exit.i ]
  %6 = load ptr, ptr %__n.addr.05.i.i.i.i.i, align 8, !tbaa !173
  %add.ptr.i.i.i.i.i.i = getelementptr inbounds i8, ptr %__n.addr.05.i.i.i.i.i, i64 8
  %7 = load ptr, ptr %add.ptr.i.i.i.i.i.i, align 8, !tbaa !43
  %8 = getelementptr inbounds i8, ptr %__n.addr.05.i.i.i.i.i, i64 24
  %cmp.i.i.i.i.i.i.i.i.i.i.i.i = icmp eq ptr %7, %8
  br i1 %cmp.i.i.i.i.i.i.i.i.i.i.i.i, label %_ZNKSt7__cxx1112basic_stringIcSt11char_traitsIcESaIcEE11_M_is_localEv.exit.thread.i.i.i.i.i.i.i.i.i.i.i, label %if.then.i.i.i.i.i.i.i.i.i.i.i

_ZNKSt7__cxx1112basic_stringIcSt11char_traitsIcESaIcEE11_M_is_localEv.exit.thread.i.i.i.i.i.i.i.i.i.i.i: ; preds = %while.body.i.i.i.i.i
  %_M_string_length.i.i.i.i.i.i.i.i.i.i.i.i = getelementptr inbounds i8, ptr %__n.addr.05.i.i.i.i.i, i64 16
  %9 = load i64, ptr %_M_string_length.i.i.i.i.i.i.i.i.i.i.i.i, align 8, !tbaa !47
  %cmp3.i.i.i.i.i.i.i.i.i.i.i.i = icmp ult i64 %9, 16
  tail call void @llvm.assume(i1 %cmp3.i.i.i.i.i.i.i.i.i.i.i.i)
  br label %_ZNSt8__detail16_Hashtable_allocISaINS_10_Hash_nodeISt4pairIKNSt7__cxx1112basic_stringIcSt11char_traitsIcESaIcEEEmELb1EEEEE18_M_deallocate_nodeEPSB_.exit.i.i.i.i.i

if.then.i.i.i.i.i.i.i.i.i.i.i:                    ; preds = %while.body.i.i.i.i.i
  tail call void @_ZdlPv(ptr noundef %7) #26
  br label %_ZNSt8__detail16_Hashtable_allocISaINS_10_Hash_nodeISt4pairIKNSt7__cxx1112basic_stringIcSt11char_traitsIcESaIcEEEmELb1EEEEE18_M_deallocate_nodeEPSB_.exit.i.i.i.i.i

_ZNSt8__detail16_Hashtable_allocISaINS_10_Hash_nodeISt4pairIKNSt7__cxx1112basic_stringIcSt11char_traitsIcESaIcEEEmELb1EEEEE18_M_deallocate_nodeEPSB_.exit.i.i.i.i.i: ; preds = %if.then.i.i.i.i.i.i.i.i.i.i.i, %_ZNKSt7__cxx1112basic_stringIcSt11char_traitsIcESaIcEE11_M_is_localEv.exit.thread.i.i.i.i.i.i.i.i.i.i.i
  tail call void @_ZdlPv(ptr noundef nonnull %__n.addr.05.i.i.i.i.i) #26
  %tobool.not.i.i.i.i.i = icmp eq ptr %6, null
  br i1 %tobool.not.i.i.i.i.i, label %_ZNSt10_HashtableINSt7__cxx1112basic_stringIcSt11char_traitsIcESaIcEEESt4pairIKS5_mESaIS8_ENSt8__detail10_Select1stEN6duckdb29CaseInsensitiveStringEqualityENSC_33CaseInsensitiveStringHashFunctionENSA_18_Mod_range_hashingENSA_20_Default_ranged_hashENSA_20_Prime_rehash_policyENSA_17_Hashtable_traitsILb1ELb0ELb1EEEE5clearEv.exit.i.i.i, label %while.body.i.i.i.i.i, !llvm.loop !174

_ZNSt10_HashtableINSt7__cxx1112basic_stringIcSt11char_traitsIcESaIcEEESt4pairIKS5_mESaIS8_ENSt8__detail10_Select1stEN6duckdb29CaseInsensitiveStringEqualityENSC_33CaseInsensitiveStringHashFunctionENSA_18_Mod_range_hashingENSA_20_Default_ranged_hashENSA_20_Prime_rehash_policyENSA_17_Hashtable_traitsILb1ELb0ELb1EEEE5clearEv.exit.i.i.i: ; preds = %_ZNSt8__detail16_Hashtable_allocISaINS_10_Hash_nodeISt4pairIKNSt7__cxx1112basic_stringIcSt11char_traitsIcESaIcEEEmELb1EEEEE18_M_deallocate_nodeEPSB_.exit.i.i.i.i.i, %_ZNSt7__cxx1112basic_stringIcSt11char_traitsIcESaIcEED2Ev.exit.i
  %10 = load ptr, ptr %named_param_map.i, align 8, !tbaa !159
  %_M_bucket_count.i.i.i.i = getelementptr inbounds %"class.duckdb::SQLStatement", ptr %this, i64 0, i32 5, i32 0, i32 1
  %11 = load i64, ptr %_M_bucket_count.i.i.i.i, align 8, !tbaa !160
  %mul.i.i.i.i = shl i64 %11, 3
  tail call void @llvm.memset.p0.i64(ptr align 8 %10, i8 0, i64 %mul.i.i.i.i, i1 false)
  tail call void @llvm.memset.p0.i64(ptr noundef nonnull align 8 dereferenceable(16) %_M_before_begin.i.i.i.i.i, i8 0, i64 16, i1 false)
  %12 = load ptr, ptr %named_param_map.i, align 8, !tbaa !159
  %_M_single_bucket.i.i.i.i.i.i = getelementptr inbounds %"class.duckdb::SQLStatement", ptr %this, i64 0, i32 5, i32 0, i32 5
  %cmp.i.i.i.i.i.i = icmp eq ptr %_M_single_bucket.i.i.i.i.i.i, %12
  br i1 %cmp.i.i.i.i.i.i, label %_ZN6duckdb12SQLStatementD2Ev.exit, label %if.end.i.i.i.i.i

if.end.i.i.i.i.i:                                 ; preds = %_ZNSt10_HashtableINSt7__cxx1112basic_stringIcSt11char_traitsIcESaIcEEESt4pairIKS5_mESaIS8_ENSt8__detail10_Select1stEN6duckdb29CaseInsensitiveStringEqualityENSC_33CaseInsensitiveStringHashFunctionENSA_18_Mod_range_hashingENSA_20_Default_ranged_hashENSA_20_Prime_rehash_policyENSA_17_Hashtable_traitsILb1ELb0ELb1EEEE5clearEv.exit.i.i.i
  tail call void @_ZdlPv(ptr noundef %12) #26
  br label %_ZN6duckdb12SQLStatementD2Ev.exit

_ZN6duckdb12SQLStatementD2Ev.exit:                ; preds = %if.end.i.i.i.i.i, %_ZNSt10_HashtableINSt7__cxx1112basic_stringIcSt11char_traitsIcESaIcEEESt4pairIKS5_mESaIS8_ENSt8__detail10_Select1stEN6duckdb29CaseInsensitiveStringEqualityENSC_33CaseInsensitiveStringHashFunctionENSA_18_Mod_range_hashingENSA_20_Default_ranged_hashENSA_20_Prime_rehash_policyENSA_17_Hashtable_traitsILb1ELb0ELb1EEEE5clearEv.exit.i.i.i
  ret void
}

; Function Attrs: mustprogress nofree norecurse nosync nounwind willreturn memory(none) uwtable
define noundef nonnull align 8 dereferenceable(24) ptr @_ZN6duckdb19CreateTableRelation7ColumnsEv(ptr noundef nonnull readnone align 8 dereferenceable(168) %this) unnamed_addr #5 align 2 {
entry:
  %columns = getelementptr inbounds %"class.duckdb::CreateTableRelation", ptr %this, i64 0, i32 4
  ret ptr %columns
}

; Function Attrs: mustprogress uwtable
define void @_ZN6duckdb19CreateTableRelation8ToStringB5cxx11Em(ptr noalias sret(%"class.std::__cxx11::basic_string") align 8 %agg.result, ptr noundef nonnull align 8 dereferenceable(168) %this, i64 noundef %depth) unnamed_addr #0 align 2 personality ptr @__gxx_personality_v0 {
entry:
  %str = alloca %"class.std::__cxx11::basic_string", align 8
  %ref.tmp = alloca %"class.std::__cxx11::basic_string", align 8
  %ref.tmp2 = alloca %"class.std::__cxx11::basic_string", align 8
  call void @llvm.lifetime.start.p0(i64 32, ptr nonnull %str) #24
  call void @llvm.lifetime.start.p0(i64 32, ptr nonnull %ref.tmp) #24
  call void @_ZN6duckdb8Relation16RenderWhitespaceB5cxx11Em(ptr nonnull sret(%"class.std::__cxx11::basic_string") align 8 %ref.tmp, ptr noundef nonnull align 8 dereferenceable(64) %this, i64 noundef %depth)
  call void @llvm.experimental.noalias.scope.decl(metadata !175)
  %_M_string_length.i.i.i.i = getelementptr inbounds %"class.std::__cxx11::basic_string", ptr %ref.tmp, i64 0, i32 1
  %0 = load i64, ptr %_M_string_length.i.i.i.i, align 8, !tbaa !47, !noalias !175
  %1 = add i64 %0, -4611686018427387891
  %cmp.i.i.i = icmp ult i64 %1, 13
  br i1 %cmp.i.i.i, label %if.then.i.i.i, label %_ZNSt7__cxx1112basic_stringIcSt11char_traitsIcESaIcEE6appendEPKc.exit.i

if.then.i.i.i:                                    ; preds = %entry
  invoke void @_ZSt20__throw_length_errorPKc(ptr noundef nonnull @.str.57) #25
          to label %.noexc unwind label %lpad

.noexc:                                           ; preds = %if.then.i.i.i
  unreachable

_ZNSt7__cxx1112basic_stringIcSt11char_traitsIcESaIcEE6appendEPKc.exit.i: ; preds = %entry
  %call2.i.i13 = invoke noundef nonnull align 8 dereferenceable(32) ptr @_ZNSt7__cxx1112basic_stringIcSt11char_traitsIcESaIcEE9_M_appendEPKcm(ptr noundef nonnull align 8 dereferenceable(32) %ref.tmp, ptr noundef nonnull @.str.3, i64 noundef 13)
          to label %call2.i.i.noexc unwind label %lpad

call2.i.i.noexc:                                  ; preds = %_ZNSt7__cxx1112basic_stringIcSt11char_traitsIcESaIcEE6appendEPKc.exit.i
  %2 = getelementptr inbounds %"class.std::__cxx11::basic_string", ptr %str, i64 0, i32 2
  store ptr %2, ptr %str, align 8, !tbaa !145, !alias.scope !175
  %3 = load ptr, ptr %call2.i.i13, align 8, !tbaa !43
  %4 = getelementptr inbounds %"class.std::__cxx11::basic_string", ptr %call2.i.i13, i64 0, i32 2
  %cmp.i.i1.i = icmp eq ptr %3, %4
  br i1 %cmp.i.i1.i, label %if.then.i.i, label %if.else.i.i

if.then.i.i:                                      ; preds = %call2.i.i.noexc
  %_M_string_length.i.i.i = getelementptr inbounds %"class.std::__cxx11::basic_string", ptr %call2.i.i13, i64 0, i32 1
  %5 = load i64, ptr %_M_string_length.i.i.i, align 8, !tbaa !47
  %cmp3.i.i.i = icmp ult i64 %5, 16
  call void @llvm.assume(i1 %cmp3.i.i.i)
  %add.i.i = add nuw nsw i64 %5, 1
  call void @llvm.memcpy.p0.p0.i64(ptr noundef nonnull align 8 dereferenceable(1) %2, ptr noundef nonnull align 8 dereferenceable(1) %3, i64 %add.i.i, i1 false)
  br label %invoke.cont

if.else.i.i:                                      ; preds = %call2.i.i.noexc
  store ptr %3, ptr %str, align 8, !tbaa !43, !alias.scope !175
  %6 = load i64, ptr %4, align 8, !tbaa !21
  store i64 %6, ptr %2, align 8, !tbaa !21, !alias.scope !175
  %_M_string_length.i28.i.phi.trans.insert.i = getelementptr inbounds %"class.std::__cxx11::basic_string", ptr %call2.i.i13, i64 0, i32 1
  %.pre.i = load i64, ptr %_M_string_length.i28.i.phi.trans.insert.i, align 8, !tbaa !47
  br label %invoke.cont

invoke.cont:                                      ; preds = %if.else.i.i, %if.then.i.i
  %7 = phi i64 [ %5, %if.then.i.i ], [ %.pre.i, %if.else.i.i ]
  %_M_string_length.i28.i.i = getelementptr inbounds %"class.std::__cxx11::basic_string", ptr %call2.i.i13, i64 0, i32 1
  %_M_string_length.i29.i.i = getelementptr inbounds %"class.std::__cxx11::basic_string", ptr %str, i64 0, i32 1
  store i64 %7, ptr %_M_string_length.i29.i.i, align 8, !tbaa !47, !alias.scope !175
  store ptr %4, ptr %call2.i.i13, align 8, !tbaa !43
  store i64 0, ptr %_M_string_length.i28.i.i, align 8, !tbaa !47
  store i8 0, ptr %4, align 8, !tbaa !21
  %8 = load ptr, ptr %ref.tmp, align 8, !tbaa !43
  %9 = getelementptr inbounds %"class.std::__cxx11::basic_string", ptr %ref.tmp, i64 0, i32 2
  %cmp.i.i.i14 = icmp eq ptr %8, %9
  br i1 %cmp.i.i.i14, label %_ZNKSt7__cxx1112basic_stringIcSt11char_traitsIcESaIcEE11_M_is_localEv.exit.thread.i.i, label %if.then.i.i15

_ZNKSt7__cxx1112basic_stringIcSt11char_traitsIcESaIcEE11_M_is_localEv.exit.thread.i.i: ; preds = %invoke.cont
  %10 = load i64, ptr %_M_string_length.i.i.i.i, align 8, !tbaa !47
  %cmp3.i.i.i17 = icmp ult i64 %10, 16
  call void @llvm.assume(i1 %cmp3.i.i.i17)
  br label %_ZNSt7__cxx1112basic_stringIcSt11char_traitsIcESaIcEED2Ev.exit

if.then.i.i15:                                    ; preds = %invoke.cont
  call void @_ZdlPv(ptr noundef %8) #26
  br label %_ZNSt7__cxx1112basic_stringIcSt11char_traitsIcESaIcEED2Ev.exit

_ZNSt7__cxx1112basic_stringIcSt11char_traitsIcESaIcEED2Ev.exit: ; preds = %if.then.i.i15, %_ZNKSt7__cxx1112basic_stringIcSt11char_traitsIcESaIcEE11_M_is_localEv.exit.thread.i.i
  call void @llvm.lifetime.end.p0(i64 32, ptr nonnull %ref.tmp) #24
  call void @llvm.lifetime.start.p0(i64 32, ptr nonnull %ref.tmp2) #24
  %child = getelementptr inbounds %"class.duckdb::CreateTableRelation", ptr %this, i64 0, i32 1
  %11 = load ptr, ptr %child, align 8, !tbaa !3
  %add = add i64 %depth, 1
  %vtable = load ptr, ptr %11, align 8, !tbaa !9
  %vfn = getelementptr inbounds ptr, ptr %vtable, i64 6
  %12 = load ptr, ptr %vfn, align 8
  invoke void %12(ptr nonnull sret(%"class.std::__cxx11::basic_string") align 8 %ref.tmp2, ptr noundef nonnull align 8 dereferenceable(64) %11, i64 noundef %add)
          to label %invoke.cont4 unwind label %lpad3

invoke.cont4:                                     ; preds = %_ZNSt7__cxx1112basic_stringIcSt11char_traitsIcESaIcEED2Ev.exit
  call void @llvm.experimental.noalias.scope.decl(metadata !178)
  %13 = load i64, ptr %_M_string_length.i29.i.i, align 8, !tbaa !47, !noalias !178
  %14 = load ptr, ptr %str, align 8, !tbaa !43, !noalias !178
  %call3.i.i.i28 = invoke noundef nonnull align 8 dereferenceable(32) ptr @_ZNSt7__cxx1112basic_stringIcSt11char_traitsIcESaIcEE10_M_replaceEmmPKcm(ptr noundef nonnull align 8 dereferenceable(32) %ref.tmp2, i64 noundef 0, i64 noundef 0, ptr noundef %14, i64 noundef %13)
          to label %call3.i.i.i.noexc unwind label %lpad5

call3.i.i.i.noexc:                                ; preds = %invoke.cont4
  %15 = getelementptr inbounds %"class.std::__cxx11::basic_string", ptr %agg.result, i64 0, i32 2
  store ptr %15, ptr %agg.result, align 8, !tbaa !145, !alias.scope !178
  %16 = load ptr, ptr %call3.i.i.i28, align 8, !tbaa !43
  %17 = getelementptr inbounds %"class.std::__cxx11::basic_string", ptr %call3.i.i.i28, i64 0, i32 2
  %cmp.i.i.i19 = icmp eq ptr %16, %17
  br i1 %cmp.i.i.i19, label %if.then.i.i25, label %if.else.i.i20

if.then.i.i25:                                    ; preds = %call3.i.i.i.noexc
  %_M_string_length.i.i1.i = getelementptr inbounds %"class.std::__cxx11::basic_string", ptr %call3.i.i.i28, i64 0, i32 1
  %18 = load i64, ptr %_M_string_length.i.i1.i, align 8, !tbaa !47
  %cmp3.i.i.i26 = icmp ult i64 %18, 16
  call void @llvm.assume(i1 %cmp3.i.i.i26)
  %add.i.i27 = add nuw nsw i64 %18, 1
  call void @llvm.memcpy.p0.p0.i64(ptr noundef nonnull align 8 dereferenceable(1) %15, ptr noundef nonnull align 8 dereferenceable(1) %16, i64 %add.i.i27, i1 false)
  br label %invoke.cont6

if.else.i.i20:                                    ; preds = %call3.i.i.i.noexc
  store ptr %16, ptr %agg.result, align 8, !tbaa !43, !alias.scope !178
  %19 = load i64, ptr %17, align 8, !tbaa !21
  store i64 %19, ptr %15, align 8, !tbaa !21, !alias.scope !178
  %_M_string_length.i28.i.phi.trans.insert.i21 = getelementptr inbounds %"class.std::__cxx11::basic_string", ptr %call3.i.i.i28, i64 0, i32 1
  %.pre.i22 = load i64, ptr %_M_string_length.i28.i.phi.trans.insert.i21, align 8, !tbaa !47
  br label %invoke.cont6

invoke.cont6:                                     ; preds = %if.else.i.i20, %if.then.i.i25
  %20 = phi i64 [ %18, %if.then.i.i25 ], [ %.pre.i22, %if.else.i.i20 ]
  %_M_string_length.i28.i.i23 = getelementptr inbounds %"class.std::__cxx11::basic_string", ptr %call3.i.i.i28, i64 0, i32 1
  %_M_string_length.i29.i.i24 = getelementptr inbounds %"class.std::__cxx11::basic_string", ptr %agg.result, i64 0, i32 1
  store i64 %20, ptr %_M_string_length.i29.i.i24, align 8, !tbaa !47, !alias.scope !178
  store ptr %17, ptr %call3.i.i.i28, align 8, !tbaa !43
  store i64 0, ptr %_M_string_length.i28.i.i23, align 8, !tbaa !47
  store i8 0, ptr %17, align 8, !tbaa !21
  %21 = load ptr, ptr %ref.tmp2, align 8, !tbaa !43
  %22 = getelementptr inbounds %"class.std::__cxx11::basic_string", ptr %ref.tmp2, i64 0, i32 2
  %cmp.i.i.i29 = icmp eq ptr %21, %22
  br i1 %cmp.i.i.i29, label %_ZNKSt7__cxx1112basic_stringIcSt11char_traitsIcESaIcEE11_M_is_localEv.exit.thread.i.i31, label %if.then.i.i30

_ZNKSt7__cxx1112basic_stringIcSt11char_traitsIcESaIcEE11_M_is_localEv.exit.thread.i.i31: ; preds = %invoke.cont6
  %_M_string_length.i.i.i32 = getelementptr inbounds %"class.std::__cxx11::basic_string", ptr %ref.tmp2, i64 0, i32 1
  %23 = load i64, ptr %_M_string_length.i.i.i32, align 8, !tbaa !47
  %cmp3.i.i.i33 = icmp ult i64 %23, 16
  call void @llvm.assume(i1 %cmp3.i.i.i33)
  br label %_ZNSt7__cxx1112basic_stringIcSt11char_traitsIcESaIcEED2Ev.exit34

if.then.i.i30:                                    ; preds = %invoke.cont6
  call void @_ZdlPv(ptr noundef %21) #26
  br label %_ZNSt7__cxx1112basic_stringIcSt11char_traitsIcESaIcEED2Ev.exit34

_ZNSt7__cxx1112basic_stringIcSt11char_traitsIcESaIcEED2Ev.exit34: ; preds = %if.then.i.i30, %_ZNKSt7__cxx1112basic_stringIcSt11char_traitsIcESaIcEE11_M_is_localEv.exit.thread.i.i31
  call void @llvm.lifetime.end.p0(i64 32, ptr nonnull %ref.tmp2) #24
  %24 = load ptr, ptr %str, align 8, !tbaa !43
  %cmp.i.i.i35 = icmp eq ptr %24, %2
  br i1 %cmp.i.i.i35, label %_ZNKSt7__cxx1112basic_stringIcSt11char_traitsIcESaIcEE11_M_is_localEv.exit.thread.i.i37, label %if.then.i.i36

_ZNKSt7__cxx1112basic_stringIcSt11char_traitsIcESaIcEE11_M_is_localEv.exit.thread.i.i37: ; preds = %_ZNSt7__cxx1112basic_stringIcSt11char_traitsIcESaIcEED2Ev.exit34
  %25 = load i64, ptr %_M_string_length.i29.i.i, align 8, !tbaa !47
  %cmp3.i.i.i39 = icmp ult i64 %25, 16
  call void @llvm.assume(i1 %cmp3.i.i.i39)
  br label %_ZNSt7__cxx1112basic_stringIcSt11char_traitsIcESaIcEED2Ev.exit40

if.then.i.i36:                                    ; preds = %_ZNSt7__cxx1112basic_stringIcSt11char_traitsIcESaIcEED2Ev.exit34
  call void @_ZdlPv(ptr noundef %24) #26
  br label %_ZNSt7__cxx1112basic_stringIcSt11char_traitsIcESaIcEED2Ev.exit40

_ZNSt7__cxx1112basic_stringIcSt11char_traitsIcESaIcEED2Ev.exit40: ; preds = %if.then.i.i36, %_ZNKSt7__cxx1112basic_stringIcSt11char_traitsIcESaIcEE11_M_is_localEv.exit.thread.i.i37
  call void @llvm.lifetime.end.p0(i64 32, ptr nonnull %str) #24
  ret void

lpad:                                             ; preds = %_ZNSt7__cxx1112basic_stringIcSt11char_traitsIcESaIcEE6appendEPKc.exit.i, %if.then.i.i.i
  %26 = landingpad { ptr, i32 }
          cleanup
  %27 = load ptr, ptr %ref.tmp, align 8, !tbaa !43
  %28 = getelementptr inbounds %"class.std::__cxx11::basic_string", ptr %ref.tmp, i64 0, i32 2
  %cmp.i.i.i41 = icmp eq ptr %27, %28
  br i1 %cmp.i.i.i41, label %_ZNKSt7__cxx1112basic_stringIcSt11char_traitsIcESaIcEE11_M_is_localEv.exit.thread.i.i43, label %if.then.i.i42

_ZNKSt7__cxx1112basic_stringIcSt11char_traitsIcESaIcEE11_M_is_localEv.exit.thread.i.i43: ; preds = %lpad
  %29 = load i64, ptr %_M_string_length.i.i.i.i, align 8, !tbaa !47
  %cmp3.i.i.i45 = icmp ult i64 %29, 16
  call void @llvm.assume(i1 %cmp3.i.i.i45)
  br label %_ZNSt7__cxx1112basic_stringIcSt11char_traitsIcESaIcEED2Ev.exit46

if.then.i.i42:                                    ; preds = %lpad
  call void @_ZdlPv(ptr noundef %27) #26
  br label %_ZNSt7__cxx1112basic_stringIcSt11char_traitsIcESaIcEED2Ev.exit46

_ZNSt7__cxx1112basic_stringIcSt11char_traitsIcESaIcEED2Ev.exit46: ; preds = %if.then.i.i42, %_ZNKSt7__cxx1112basic_stringIcSt11char_traitsIcESaIcEE11_M_is_localEv.exit.thread.i.i43
  call void @llvm.lifetime.end.p0(i64 32, ptr nonnull %ref.tmp) #24
  br label %ehcleanup8

lpad3:                                            ; preds = %_ZNSt7__cxx1112basic_stringIcSt11char_traitsIcESaIcEED2Ev.exit
  %30 = landingpad { ptr, i32 }
          cleanup
  br label %ehcleanup

lpad5:                                            ; preds = %invoke.cont4
  %31 = landingpad { ptr, i32 }
          cleanup
  %32 = load ptr, ptr %ref.tmp2, align 8, !tbaa !43
  %33 = getelementptr inbounds %"class.std::__cxx11::basic_string", ptr %ref.tmp2, i64 0, i32 2
  %cmp.i.i.i47 = icmp eq ptr %32, %33
  br i1 %cmp.i.i.i47, label %_ZNKSt7__cxx1112basic_stringIcSt11char_traitsIcESaIcEE11_M_is_localEv.exit.thread.i.i49, label %if.then.i.i48

_ZNKSt7__cxx1112basic_stringIcSt11char_traitsIcESaIcEE11_M_is_localEv.exit.thread.i.i49: ; preds = %lpad5
  %_M_string_length.i.i.i50 = getelementptr inbounds %"class.std::__cxx11::basic_string", ptr %ref.tmp2, i64 0, i32 1
  %34 = load i64, ptr %_M_string_length.i.i.i50, align 8, !tbaa !47
  %cmp3.i.i.i51 = icmp ult i64 %34, 16
  call void @llvm.assume(i1 %cmp3.i.i.i51)
  br label %ehcleanup

if.then.i.i48:                                    ; preds = %lpad5
  call void @_ZdlPv(ptr noundef %32) #26
  br label %ehcleanup

ehcleanup:                                        ; preds = %if.then.i.i48, %_ZNKSt7__cxx1112basic_stringIcSt11char_traitsIcESaIcEE11_M_is_localEv.exit.thread.i.i49, %lpad3
  %.pn = phi { ptr, i32 } [ %30, %lpad3 ], [ %31, %_ZNKSt7__cxx1112basic_stringIcSt11char_traitsIcESaIcEE11_M_is_localEv.exit.thread.i.i49 ], [ %31, %if.then.i.i48 ]
  call void @llvm.lifetime.end.p0(i64 32, ptr nonnull %ref.tmp2) #24
  %35 = load ptr, ptr %str, align 8, !tbaa !43
  %cmp.i.i.i53 = icmp eq ptr %35, %2
  br i1 %cmp.i.i.i53, label %_ZNKSt7__cxx1112basic_stringIcSt11char_traitsIcESaIcEE11_M_is_localEv.exit.thread.i.i55, label %if.then.i.i54

_ZNKSt7__cxx1112basic_stringIcSt11char_traitsIcESaIcEE11_M_is_localEv.exit.thread.i.i55: ; preds = %ehcleanup
  %36 = load i64, ptr %_M_string_length.i29.i.i, align 8, !tbaa !47
  %cmp3.i.i.i57 = icmp ult i64 %36, 16
  call void @llvm.assume(i1 %cmp3.i.i.i57)
  br label %ehcleanup8

if.then.i.i54:                                    ; preds = %ehcleanup
  call void @_ZdlPv(ptr noundef %35) #26
  br label %ehcleanup8

ehcleanup8:                                       ; preds = %if.then.i.i54, %_ZNKSt7__cxx1112basic_stringIcSt11char_traitsIcESaIcEE11_M_is_localEv.exit.thread.i.i55, %_ZNSt7__cxx1112basic_stringIcSt11char_traitsIcESaIcEED2Ev.exit46
  %.pn.pn = phi { ptr, i32 } [ %26, %_ZNSt7__cxx1112basic_stringIcSt11char_traitsIcESaIcEED2Ev.exit46 ], [ %.pn, %_ZNKSt7__cxx1112basic_stringIcSt11char_traitsIcESaIcEE11_M_is_localEv.exit.thread.i.i55 ], [ %.pn, %if.then.i.i54 ]
  call void @llvm.lifetime.end.p0(i64 32, ptr nonnull %str) #24
  resume { ptr, i32 } %.pn.pn
}

; Function Attrs: mustprogress uwtable
define void @_ZN6duckdb18CreateViewRelationC2ESt10shared_ptrINS_8RelationEENSt7__cxx1112basic_stringIcSt11char_traitsIcESaIcEEEbb(ptr noundef nonnull align 8 dereferenceable(176) %this, ptr nocapture noundef %child_p, ptr noundef %view_name_p, i1 noundef zeroext %replace_p, i1 noundef zeroext %temporary_p) unnamed_addr #0 align 2 personality ptr @__gxx_personality_v0 {
entry:
  %ref.tmp = alloca %"class.std::shared_ptr.83", align 8
  %frombool = zext i1 %replace_p to i8
  %frombool1 = zext i1 %temporary_p to i8
  %0 = load ptr, ptr %child_p, align 8, !tbaa !3
  %context = getelementptr inbounds %"class.duckdb::Relation", ptr %0, i64 0, i32 2
  tail call void @_ZN6duckdb8RelationC2ERNS_20ClientContextWrapperENS_12RelationTypeE(ptr noundef nonnull align 8 dereferenceable(64) %this, ptr noundef nonnull align 8 dereferenceable(16) %context, i8 noundef zeroext 12)
  store ptr getelementptr inbounds ({ [15 x ptr] }, ptr @_ZTVN6duckdb18CreateViewRelationE, i64 0, inrange i32 0, i64 2), ptr %this, align 8, !tbaa !9
  %child = getelementptr inbounds %"class.duckdb::CreateViewRelation", ptr %this, i64 0, i32 1
  %_M_refcount.i.i = getelementptr inbounds %"class.duckdb::CreateViewRelation", ptr %this, i64 0, i32 1, i32 0, i32 1
  store ptr null, ptr %_M_refcount.i.i, align 8, !tbaa !14
  %_M_refcount4.i.i = getelementptr inbounds %"class.std::__shared_ptr", ptr %child_p, i64 0, i32 1
  %1 = load <2 x ptr>, ptr %child_p, align 8, !tbaa !11
  store ptr null, ptr %_M_refcount4.i.i, align 8, !tbaa !14
  store <2 x ptr> %1, ptr %child, align 8, !tbaa !11
  store ptr null, ptr %child_p, align 8, !tbaa !3
  %schema_name = getelementptr inbounds %"class.duckdb::CreateViewRelation", ptr %this, i64 0, i32 2
  %2 = getelementptr inbounds %"class.duckdb::CreateViewRelation", ptr %this, i64 0, i32 2, i32 2
  store ptr %2, ptr %schema_name, align 8, !tbaa !145
  %_M_string_length.i.i.i = getelementptr inbounds %"class.duckdb::CreateViewRelation", ptr %this, i64 0, i32 2, i32 1
  store i64 0, ptr %_M_string_length.i.i.i, align 8, !tbaa !47
  store i8 0, ptr %2, align 8, !tbaa !21
  %view_name = getelementptr inbounds %"class.duckdb::CreateViewRelation", ptr %this, i64 0, i32 3
  %3 = getelementptr inbounds %"class.duckdb::CreateViewRelation", ptr %this, i64 0, i32 3, i32 2
  store ptr %3, ptr %view_name, align 8, !tbaa !145
  %4 = load ptr, ptr %view_name_p, align 8, !tbaa !43
  %5 = getelementptr inbounds %"class.std::__cxx11::basic_string", ptr %view_name_p, i64 0, i32 2
  %cmp.i.i = icmp eq ptr %4, %5
  br i1 %cmp.i.i, label %if.then.i, label %if.else.i

if.then.i:                                        ; preds = %entry
  %_M_string_length.i.i = getelementptr inbounds %"class.std::__cxx11::basic_string", ptr %view_name_p, i64 0, i32 1
  %6 = load i64, ptr %_M_string_length.i.i, align 8, !tbaa !47
  %cmp3.i.i = icmp ult i64 %6, 16
  tail call void @llvm.assume(i1 %cmp3.i.i)
  %add.i = add nuw nsw i64 %6, 1
  tail call void @llvm.memcpy.p0.p0.i64(ptr noundef nonnull align 8 dereferenceable(1) %3, ptr noundef nonnull align 8 dereferenceable(1) %4, i64 %add.i, i1 false)
  br label %_ZNSt7__cxx1112basic_stringIcSt11char_traitsIcESaIcEEC2EOS4_.exit

if.else.i:                                        ; preds = %entry
  store ptr %4, ptr %view_name, align 8, !tbaa !43
  %7 = load i64, ptr %5, align 8, !tbaa !21
  store i64 %7, ptr %3, align 8, !tbaa !21
  br label %_ZNSt7__cxx1112basic_stringIcSt11char_traitsIcESaIcEEC2EOS4_.exit

_ZNSt7__cxx1112basic_stringIcSt11char_traitsIcESaIcEEC2EOS4_.exit: ; preds = %if.else.i, %if.then.i
  %_M_string_length.i28.i = getelementptr inbounds %"class.std::__cxx11::basic_string", ptr %view_name_p, i64 0, i32 1
  %8 = load i64, ptr %_M_string_length.i28.i, align 8, !tbaa !47
  %_M_string_length.i29.i = getelementptr inbounds %"class.duckdb::CreateViewRelation", ptr %this, i64 0, i32 3, i32 1
  store i64 %8, ptr %_M_string_length.i29.i, align 8, !tbaa !47
  store ptr %5, ptr %view_name_p, align 8, !tbaa !43
  store i64 0, ptr %_M_string_length.i28.i, align 8, !tbaa !47
  store i8 0, ptr %5, align 1, !tbaa !21
  %replace = getelementptr inbounds %"class.duckdb::CreateViewRelation", ptr %this, i64 0, i32 4
  store i8 %frombool, ptr %replace, align 8, !tbaa !181
  %temporary = getelementptr inbounds %"class.duckdb::CreateViewRelation", ptr %this, i64 0, i32 5
  store i8 %frombool1, ptr %temporary, align 1, !tbaa !188
  %columns = getelementptr inbounds %"class.duckdb::CreateViewRelation", ptr %this, i64 0, i32 6
  tail call void @llvm.memset.p0.i64(ptr noundef nonnull align 8 dereferenceable(24) %columns, i8 0, i64 24, i1 false)
  call void @llvm.lifetime.start.p0(i64 16, ptr nonnull %ref.tmp) #24
  %context6 = getelementptr inbounds %"class.duckdb::Relation", ptr %this, i64 0, i32 2
  invoke void @_ZN6duckdb20ClientContextWrapper10GetContextEv(ptr nonnull sret(%"class.std::shared_ptr.83") align 8 %ref.tmp, ptr noundef nonnull align 8 dereferenceable(16) %context6)
          to label %invoke.cont unwind label %lpad

invoke.cont:                                      ; preds = %_ZNSt7__cxx1112basic_stringIcSt11char_traitsIcESaIcEEC2EOS4_.exit
  %9 = load ptr, ptr %ref.tmp, align 8, !tbaa !15
  invoke void @_ZN6duckdb13ClientContext15TryBindRelationERNS_8RelationERNS_6vectorINS_16ColumnDefinitionELb1EEE(ptr noundef nonnull align 8 dereferenceable(592) %9, ptr noundef nonnull align 8 dereferenceable(64) %this, ptr noundef nonnull align 8 dereferenceable(24) %columns)
          to label %invoke.cont10 unwind label %lpad9

invoke.cont10:                                    ; preds = %invoke.cont
  %_M_refcount.i = getelementptr inbounds %"class.std::__shared_ptr.84", ptr %ref.tmp, i64 0, i32 1
  %10 = load ptr, ptr %_M_refcount.i, align 8, !tbaa !14
  %cmp.not.i.i = icmp eq ptr %10, null
  br i1 %cmp.not.i.i, label %_ZNSt12__shared_ptrIN6duckdb13ClientContextELN9__gnu_cxx12_Lock_policyE2EED2Ev.exit, label %if.then.i.i

if.then.i.i:                                      ; preds = %invoke.cont10
  %_M_use_count.i.i.i = getelementptr inbounds %"class.std::_Sp_counted_base", ptr %10, i64 0, i32 1
  %11 = load atomic i64, ptr %_M_use_count.i.i.i acquire, align 8
  %cmp.i.i.i = icmp eq i64 %11, 4294967297
  %12 = trunc i64 %11 to i32
  br i1 %cmp.i.i.i, label %if.then.i.i.i, label %if.end.i.i.i

if.then.i.i.i:                                    ; preds = %if.then.i.i
  store i32 0, ptr %_M_use_count.i.i.i, align 8, !tbaa !17
  %_M_weak_count.i.i.i = getelementptr inbounds %"class.std::_Sp_counted_base", ptr %10, i64 0, i32 2
  store i32 0, ptr %_M_weak_count.i.i.i, align 4, !tbaa !20
  %vtable.i.i.i = load ptr, ptr %10, align 8, !tbaa !9
  %vfn.i.i.i = getelementptr inbounds ptr, ptr %vtable.i.i.i, i64 2
  %13 = load ptr, ptr %vfn.i.i.i, align 8
  call void %13(ptr noundef nonnull align 8 dereferenceable(16) %10) #24
  %vtable3.i.i.i = load ptr, ptr %10, align 8, !tbaa !9
  %vfn4.i.i.i = getelementptr inbounds ptr, ptr %vtable3.i.i.i, i64 3
  %14 = load ptr, ptr %vfn4.i.i.i, align 8
  call void %14(ptr noundef nonnull align 8 dereferenceable(16) %10) #24
  br label %_ZNSt12__shared_ptrIN6duckdb13ClientContextELN9__gnu_cxx12_Lock_policyE2EED2Ev.exit

if.end.i.i.i:                                     ; preds = %if.then.i.i
  %15 = load i8, ptr @__libc_single_threaded, align 1, !tbaa !21
  %tobool.i.i.not.i.i.i = icmp eq i8 %15, 0
  br i1 %tobool.i.i.not.i.i.i, label %if.else.i.i.i.i, label %if.then.i.i.i.i

if.then.i.i.i.i:                                  ; preds = %if.end.i.i.i
  %add.i.i.i.i = add nsw i32 %12, -1
  store i32 %add.i.i.i.i, ptr %_M_use_count.i.i.i, align 4, !tbaa !22
  br label %invoke.cont.i.i.i

if.else.i.i.i.i:                                  ; preds = %if.end.i.i.i
  %16 = atomicrmw volatile add ptr %_M_use_count.i.i.i, i32 -1 acq_rel, align 4
  br label %invoke.cont.i.i.i

invoke.cont.i.i.i:                                ; preds = %if.else.i.i.i.i, %if.then.i.i.i.i
  %retval.0.i.i.i.i = phi i32 [ %12, %if.then.i.i.i.i ], [ %16, %if.else.i.i.i.i ]
  %cmp6.i.i.i = icmp eq i32 %retval.0.i.i.i.i, 1
  br i1 %cmp6.i.i.i, label %if.then7.i.i.i, label %_ZNSt12__shared_ptrIN6duckdb13ClientContextELN9__gnu_cxx12_Lock_policyE2EED2Ev.exit, !prof !23

if.then7.i.i.i:                                   ; preds = %invoke.cont.i.i.i
  call void @_ZNSt16_Sp_counted_baseILN9__gnu_cxx12_Lock_policyE2EE24_M_release_last_use_coldEv(ptr noundef nonnull align 8 dereferenceable(16) %10) #24
  br label %_ZNSt12__shared_ptrIN6duckdb13ClientContextELN9__gnu_cxx12_Lock_policyE2EED2Ev.exit

_ZNSt12__shared_ptrIN6duckdb13ClientContextELN9__gnu_cxx12_Lock_policyE2EED2Ev.exit: ; preds = %if.then7.i.i.i, %invoke.cont.i.i.i, %if.then.i.i.i, %invoke.cont10
  call void @llvm.lifetime.end.p0(i64 16, ptr nonnull %ref.tmp) #24
  ret void

lpad:                                             ; preds = %_ZNSt7__cxx1112basic_stringIcSt11char_traitsIcESaIcEEC2EOS4_.exit
  %17 = landingpad { ptr, i32 }
          cleanup
  br label %ehcleanup

lpad9:                                            ; preds = %invoke.cont
  %18 = landingpad { ptr, i32 }
          cleanup
  call void @_ZNSt12__shared_ptrIN6duckdb13ClientContextELN9__gnu_cxx12_Lock_policyE2EED2Ev(ptr noundef nonnull align 8 dereferenceable(16) %ref.tmp) #24
  br label %ehcleanup

ehcleanup:                                        ; preds = %lpad9, %lpad
  %.pn = phi { ptr, i32 } [ %18, %lpad9 ], [ %17, %lpad ]
  call void @llvm.lifetime.end.p0(i64 16, ptr nonnull %ref.tmp) #24
  call void @_ZNSt6vectorIN6duckdb16ColumnDefinitionESaIS1_EED2Ev(ptr noundef nonnull align 8 dereferenceable(24) %columns) #24
  %19 = load ptr, ptr %view_name, align 8, !tbaa !43
  %cmp.i.i.i18 = icmp eq ptr %19, %3
  br i1 %cmp.i.i.i18, label %_ZNKSt7__cxx1112basic_stringIcSt11char_traitsIcESaIcEE11_M_is_localEv.exit.thread.i.i, label %if.then.i.i19

_ZNKSt7__cxx1112basic_stringIcSt11char_traitsIcESaIcEE11_M_is_localEv.exit.thread.i.i: ; preds = %ehcleanup
  %20 = load i64, ptr %_M_string_length.i29.i, align 8, !tbaa !47
  %cmp3.i.i.i = icmp ult i64 %20, 16
  call void @llvm.assume(i1 %cmp3.i.i.i)
  br label %_ZNSt7__cxx1112basic_stringIcSt11char_traitsIcESaIcEED2Ev.exit

if.then.i.i19:                                    ; preds = %ehcleanup
  call void @_ZdlPv(ptr noundef %19) #26
  br label %_ZNSt7__cxx1112basic_stringIcSt11char_traitsIcESaIcEED2Ev.exit

_ZNSt7__cxx1112basic_stringIcSt11char_traitsIcESaIcEED2Ev.exit: ; preds = %if.then.i.i19, %_ZNKSt7__cxx1112basic_stringIcSt11char_traitsIcESaIcEE11_M_is_localEv.exit.thread.i.i
  %21 = load ptr, ptr %schema_name, align 8, !tbaa !43
  %cmp.i.i.i21 = icmp eq ptr %21, %2
  br i1 %cmp.i.i.i21, label %_ZNKSt7__cxx1112basic_stringIcSt11char_traitsIcESaIcEE11_M_is_localEv.exit.thread.i.i23, label %if.then.i.i22

_ZNKSt7__cxx1112basic_stringIcSt11char_traitsIcESaIcEE11_M_is_localEv.exit.thread.i.i23: ; preds = %_ZNSt7__cxx1112basic_stringIcSt11char_traitsIcESaIcEED2Ev.exit
  %22 = load i64, ptr %_M_string_length.i.i.i, align 8, !tbaa !47
  %cmp3.i.i.i25 = icmp ult i64 %22, 16
  call void @llvm.assume(i1 %cmp3.i.i.i25)
  br label %_ZNSt7__cxx1112basic_stringIcSt11char_traitsIcESaIcEED2Ev.exit26

if.then.i.i22:                                    ; preds = %_ZNSt7__cxx1112basic_stringIcSt11char_traitsIcESaIcEED2Ev.exit
  call void @_ZdlPv(ptr noundef %21) #26
  br label %_ZNSt7__cxx1112basic_stringIcSt11char_traitsIcESaIcEED2Ev.exit26

_ZNSt7__cxx1112basic_stringIcSt11char_traitsIcESaIcEED2Ev.exit26: ; preds = %if.then.i.i22, %_ZNKSt7__cxx1112basic_stringIcSt11char_traitsIcESaIcEE11_M_is_localEv.exit.thread.i.i23
  call void @_ZNSt12__shared_ptrIN6duckdb8RelationELN9__gnu_cxx12_Lock_policyE2EED2Ev(ptr noundef nonnull align 8 dereferenceable(16) %child) #24
  call void @_ZN6duckdb8RelationD2Ev(ptr noundef nonnull align 8 dereferenceable(64) %this) #24
  resume { ptr, i32 } %.pn
}

; Function Attrs: mustprogress uwtable
define void @_ZN6duckdb18CreateViewRelationC2ESt10shared_ptrINS_8RelationEENSt7__cxx1112basic_stringIcSt11char_traitsIcESaIcEEES9_bb(ptr noundef nonnull align 8 dereferenceable(176) %this, ptr nocapture noundef %child_p, ptr noundef %schema_name_p, ptr noundef %view_name_p, i1 noundef zeroext %replace_p, i1 noundef zeroext %temporary_p) unnamed_addr #0 align 2 personality ptr @__gxx_personality_v0 {
entry:
  %ref.tmp = alloca %"class.std::shared_ptr.83", align 8
  %frombool = zext i1 %replace_p to i8
  %frombool1 = zext i1 %temporary_p to i8
  %0 = load ptr, ptr %child_p, align 8, !tbaa !3
  %context = getelementptr inbounds %"class.duckdb::Relation", ptr %0, i64 0, i32 2
  tail call void @_ZN6duckdb8RelationC2ERNS_20ClientContextWrapperENS_12RelationTypeE(ptr noundef nonnull align 8 dereferenceable(64) %this, ptr noundef nonnull align 8 dereferenceable(16) %context, i8 noundef zeroext 12)
  store ptr getelementptr inbounds ({ [15 x ptr] }, ptr @_ZTVN6duckdb18CreateViewRelationE, i64 0, inrange i32 0, i64 2), ptr %this, align 8, !tbaa !9
  %child = getelementptr inbounds %"class.duckdb::CreateViewRelation", ptr %this, i64 0, i32 1
  %_M_refcount.i.i = getelementptr inbounds %"class.duckdb::CreateViewRelation", ptr %this, i64 0, i32 1, i32 0, i32 1
  store ptr null, ptr %_M_refcount.i.i, align 8, !tbaa !14
  %_M_refcount4.i.i = getelementptr inbounds %"class.std::__shared_ptr", ptr %child_p, i64 0, i32 1
  %1 = load <2 x ptr>, ptr %child_p, align 8, !tbaa !11
  store ptr null, ptr %_M_refcount4.i.i, align 8, !tbaa !14
  store <2 x ptr> %1, ptr %child, align 8, !tbaa !11
  store ptr null, ptr %child_p, align 8, !tbaa !3
  %schema_name = getelementptr inbounds %"class.duckdb::CreateViewRelation", ptr %this, i64 0, i32 2
  %2 = getelementptr inbounds %"class.duckdb::CreateViewRelation", ptr %this, i64 0, i32 2, i32 2
  store ptr %2, ptr %schema_name, align 8, !tbaa !145
  %3 = load ptr, ptr %schema_name_p, align 8, !tbaa !43
  %4 = getelementptr inbounds %"class.std::__cxx11::basic_string", ptr %schema_name_p, i64 0, i32 2
  %cmp.i.i = icmp eq ptr %3, %4
  br i1 %cmp.i.i, label %if.then.i, label %if.else.i

if.then.i:                                        ; preds = %entry
  %_M_string_length.i.i = getelementptr inbounds %"class.std::__cxx11::basic_string", ptr %schema_name_p, i64 0, i32 1
  %5 = load i64, ptr %_M_string_length.i.i, align 8, !tbaa !47
  %cmp3.i.i = icmp ult i64 %5, 16
  tail call void @llvm.assume(i1 %cmp3.i.i)
  %add.i = add nuw nsw i64 %5, 1
  tail call void @llvm.memcpy.p0.p0.i64(ptr noundef nonnull align 8 dereferenceable(1) %2, ptr noundef nonnull align 8 dereferenceable(1) %3, i64 %add.i, i1 false)
  br label %_ZNSt7__cxx1112basic_stringIcSt11char_traitsIcESaIcEEC2EOS4_.exit

if.else.i:                                        ; preds = %entry
  store ptr %3, ptr %schema_name, align 8, !tbaa !43
  %6 = load i64, ptr %4, align 8, !tbaa !21
  store i64 %6, ptr %2, align 8, !tbaa !21
  br label %_ZNSt7__cxx1112basic_stringIcSt11char_traitsIcESaIcEEC2EOS4_.exit

_ZNSt7__cxx1112basic_stringIcSt11char_traitsIcESaIcEEC2EOS4_.exit: ; preds = %if.else.i, %if.then.i
  %_M_string_length.i28.i = getelementptr inbounds %"class.std::__cxx11::basic_string", ptr %schema_name_p, i64 0, i32 1
  %7 = load i64, ptr %_M_string_length.i28.i, align 8, !tbaa !47
  %_M_string_length.i29.i = getelementptr inbounds %"class.duckdb::CreateViewRelation", ptr %this, i64 0, i32 2, i32 1
  store i64 %7, ptr %_M_string_length.i29.i, align 8, !tbaa !47
  store ptr %4, ptr %schema_name_p, align 8, !tbaa !43
  store i64 0, ptr %_M_string_length.i28.i, align 8, !tbaa !47
  store i8 0, ptr %4, align 1, !tbaa !21
  %view_name = getelementptr inbounds %"class.duckdb::CreateViewRelation", ptr %this, i64 0, i32 3
  %8 = getelementptr inbounds %"class.duckdb::CreateViewRelation", ptr %this, i64 0, i32 3, i32 2
  store ptr %8, ptr %view_name, align 8, !tbaa !145
  %9 = load ptr, ptr %view_name_p, align 8, !tbaa !43
  %10 = getelementptr inbounds %"class.std::__cxx11::basic_string", ptr %view_name_p, i64 0, i32 2
  %cmp.i.i18 = icmp eq ptr %9, %10
  br i1 %cmp.i.i18, label %if.then.i22, label %if.else.i19

if.then.i22:                                      ; preds = %_ZNSt7__cxx1112basic_stringIcSt11char_traitsIcESaIcEEC2EOS4_.exit
  %_M_string_length.i.i23 = getelementptr inbounds %"class.std::__cxx11::basic_string", ptr %view_name_p, i64 0, i32 1
  %11 = load i64, ptr %_M_string_length.i.i23, align 8, !tbaa !47
  %cmp3.i.i24 = icmp ult i64 %11, 16
  tail call void @llvm.assume(i1 %cmp3.i.i24)
  %add.i25 = add nuw nsw i64 %11, 1
  tail call void @llvm.memcpy.p0.p0.i64(ptr noundef nonnull align 8 dereferenceable(1) %8, ptr noundef nonnull align 8 dereferenceable(1) %9, i64 %add.i25, i1 false)
  br label %_ZNSt7__cxx1112basic_stringIcSt11char_traitsIcESaIcEEC2EOS4_.exit26

if.else.i19:                                      ; preds = %_ZNSt7__cxx1112basic_stringIcSt11char_traitsIcESaIcEEC2EOS4_.exit
  store ptr %9, ptr %view_name, align 8, !tbaa !43
  %12 = load i64, ptr %10, align 8, !tbaa !21
  store i64 %12, ptr %8, align 8, !tbaa !21
  br label %_ZNSt7__cxx1112basic_stringIcSt11char_traitsIcESaIcEEC2EOS4_.exit26

_ZNSt7__cxx1112basic_stringIcSt11char_traitsIcESaIcEEC2EOS4_.exit26: ; preds = %if.else.i19, %if.then.i22
  %_M_string_length.i28.i20 = getelementptr inbounds %"class.std::__cxx11::basic_string", ptr %view_name_p, i64 0, i32 1
  %13 = load i64, ptr %_M_string_length.i28.i20, align 8, !tbaa !47
  %_M_string_length.i29.i21 = getelementptr inbounds %"class.duckdb::CreateViewRelation", ptr %this, i64 0, i32 3, i32 1
  store i64 %13, ptr %_M_string_length.i29.i21, align 8, !tbaa !47
  store ptr %10, ptr %view_name_p, align 8, !tbaa !43
  store i64 0, ptr %_M_string_length.i28.i20, align 8, !tbaa !47
  store i8 0, ptr %10, align 1, !tbaa !21
  %replace = getelementptr inbounds %"class.duckdb::CreateViewRelation", ptr %this, i64 0, i32 4
  store i8 %frombool, ptr %replace, align 8, !tbaa !181
  %temporary = getelementptr inbounds %"class.duckdb::CreateViewRelation", ptr %this, i64 0, i32 5
  store i8 %frombool1, ptr %temporary, align 1, !tbaa !188
  %columns = getelementptr inbounds %"class.duckdb::CreateViewRelation", ptr %this, i64 0, i32 6
  tail call void @llvm.memset.p0.i64(ptr noundef nonnull align 8 dereferenceable(24) %columns, i8 0, i64 24, i1 false)
  call void @llvm.lifetime.start.p0(i64 16, ptr nonnull %ref.tmp) #24
  %context6 = getelementptr inbounds %"class.duckdb::Relation", ptr %this, i64 0, i32 2
  invoke void @_ZN6duckdb20ClientContextWrapper10GetContextEv(ptr nonnull sret(%"class.std::shared_ptr.83") align 8 %ref.tmp, ptr noundef nonnull align 8 dereferenceable(16) %context6)
          to label %invoke.cont unwind label %lpad

invoke.cont:                                      ; preds = %_ZNSt7__cxx1112basic_stringIcSt11char_traitsIcESaIcEEC2EOS4_.exit26
  %14 = load ptr, ptr %ref.tmp, align 8, !tbaa !15
  invoke void @_ZN6duckdb13ClientContext15TryBindRelationERNS_8RelationERNS_6vectorINS_16ColumnDefinitionELb1EEE(ptr noundef nonnull align 8 dereferenceable(592) %14, ptr noundef nonnull align 8 dereferenceable(64) %this, ptr noundef nonnull align 8 dereferenceable(24) %columns)
          to label %invoke.cont10 unwind label %lpad9

invoke.cont10:                                    ; preds = %invoke.cont
  %_M_refcount.i = getelementptr inbounds %"class.std::__shared_ptr.84", ptr %ref.tmp, i64 0, i32 1
  %15 = load ptr, ptr %_M_refcount.i, align 8, !tbaa !14
  %cmp.not.i.i = icmp eq ptr %15, null
  br i1 %cmp.not.i.i, label %_ZNSt12__shared_ptrIN6duckdb13ClientContextELN9__gnu_cxx12_Lock_policyE2EED2Ev.exit, label %if.then.i.i

if.then.i.i:                                      ; preds = %invoke.cont10
  %_M_use_count.i.i.i = getelementptr inbounds %"class.std::_Sp_counted_base", ptr %15, i64 0, i32 1
  %16 = load atomic i64, ptr %_M_use_count.i.i.i acquire, align 8
  %cmp.i.i.i = icmp eq i64 %16, 4294967297
  %17 = trunc i64 %16 to i32
  br i1 %cmp.i.i.i, label %if.then.i.i.i, label %if.end.i.i.i

if.then.i.i.i:                                    ; preds = %if.then.i.i
  store i32 0, ptr %_M_use_count.i.i.i, align 8, !tbaa !17
  %_M_weak_count.i.i.i = getelementptr inbounds %"class.std::_Sp_counted_base", ptr %15, i64 0, i32 2
  store i32 0, ptr %_M_weak_count.i.i.i, align 4, !tbaa !20
  %vtable.i.i.i = load ptr, ptr %15, align 8, !tbaa !9
  %vfn.i.i.i = getelementptr inbounds ptr, ptr %vtable.i.i.i, i64 2
  %18 = load ptr, ptr %vfn.i.i.i, align 8
  call void %18(ptr noundef nonnull align 8 dereferenceable(16) %15) #24
  %vtable3.i.i.i = load ptr, ptr %15, align 8, !tbaa !9
  %vfn4.i.i.i = getelementptr inbounds ptr, ptr %vtable3.i.i.i, i64 3
  %19 = load ptr, ptr %vfn4.i.i.i, align 8
  call void %19(ptr noundef nonnull align 8 dereferenceable(16) %15) #24
  br label %_ZNSt12__shared_ptrIN6duckdb13ClientContextELN9__gnu_cxx12_Lock_policyE2EED2Ev.exit

if.end.i.i.i:                                     ; preds = %if.then.i.i
  %20 = load i8, ptr @__libc_single_threaded, align 1, !tbaa !21
  %tobool.i.i.not.i.i.i = icmp eq i8 %20, 0
  br i1 %tobool.i.i.not.i.i.i, label %if.else.i.i.i.i, label %if.then.i.i.i.i

if.then.i.i.i.i:                                  ; preds = %if.end.i.i.i
  %add.i.i.i.i = add nsw i32 %17, -1
  store i32 %add.i.i.i.i, ptr %_M_use_count.i.i.i, align 4, !tbaa !22
  br label %invoke.cont.i.i.i

if.else.i.i.i.i:                                  ; preds = %if.end.i.i.i
  %21 = atomicrmw volatile add ptr %_M_use_count.i.i.i, i32 -1 acq_rel, align 4
  br label %invoke.cont.i.i.i

invoke.cont.i.i.i:                                ; preds = %if.else.i.i.i.i, %if.then.i.i.i.i
  %retval.0.i.i.i.i = phi i32 [ %17, %if.then.i.i.i.i ], [ %21, %if.else.i.i.i.i ]
  %cmp6.i.i.i = icmp eq i32 %retval.0.i.i.i.i, 1
  br i1 %cmp6.i.i.i, label %if.then7.i.i.i, label %_ZNSt12__shared_ptrIN6duckdb13ClientContextELN9__gnu_cxx12_Lock_policyE2EED2Ev.exit, !prof !23

if.then7.i.i.i:                                   ; preds = %invoke.cont.i.i.i
  call void @_ZNSt16_Sp_counted_baseILN9__gnu_cxx12_Lock_policyE2EE24_M_release_last_use_coldEv(ptr noundef nonnull align 8 dereferenceable(16) %15) #24
  br label %_ZNSt12__shared_ptrIN6duckdb13ClientContextELN9__gnu_cxx12_Lock_policyE2EED2Ev.exit

_ZNSt12__shared_ptrIN6duckdb13ClientContextELN9__gnu_cxx12_Lock_policyE2EED2Ev.exit: ; preds = %if.then7.i.i.i, %invoke.cont.i.i.i, %if.then.i.i.i, %invoke.cont10
  call void @llvm.lifetime.end.p0(i64 16, ptr nonnull %ref.tmp) #24
  ret void

lpad:                                             ; preds = %_ZNSt7__cxx1112basic_stringIcSt11char_traitsIcESaIcEEC2EOS4_.exit26
  %22 = landingpad { ptr, i32 }
          cleanup
  br label %ehcleanup

lpad9:                                            ; preds = %invoke.cont
  %23 = landingpad { ptr, i32 }
          cleanup
  call void @_ZNSt12__shared_ptrIN6duckdb13ClientContextELN9__gnu_cxx12_Lock_policyE2EED2Ev(ptr noundef nonnull align 8 dereferenceable(16) %ref.tmp) #24
  br label %ehcleanup

ehcleanup:                                        ; preds = %lpad9, %lpad
  %.pn = phi { ptr, i32 } [ %23, %lpad9 ], [ %22, %lpad ]
  call void @llvm.lifetime.end.p0(i64 16, ptr nonnull %ref.tmp) #24
  call void @_ZNSt6vectorIN6duckdb16ColumnDefinitionESaIS1_EED2Ev(ptr noundef nonnull align 8 dereferenceable(24) %columns) #24
  %24 = load ptr, ptr %view_name, align 8, !tbaa !43
  %cmp.i.i.i27 = icmp eq ptr %24, %8
  br i1 %cmp.i.i.i27, label %_ZNKSt7__cxx1112basic_stringIcSt11char_traitsIcESaIcEE11_M_is_localEv.exit.thread.i.i, label %if.then.i.i28

_ZNKSt7__cxx1112basic_stringIcSt11char_traitsIcESaIcEE11_M_is_localEv.exit.thread.i.i: ; preds = %ehcleanup
  %25 = load i64, ptr %_M_string_length.i29.i21, align 8, !tbaa !47
  %cmp3.i.i.i = icmp ult i64 %25, 16
  call void @llvm.assume(i1 %cmp3.i.i.i)
  br label %_ZNSt7__cxx1112basic_stringIcSt11char_traitsIcESaIcEED2Ev.exit

if.then.i.i28:                                    ; preds = %ehcleanup
  call void @_ZdlPv(ptr noundef %24) #26
  br label %_ZNSt7__cxx1112basic_stringIcSt11char_traitsIcESaIcEED2Ev.exit

_ZNSt7__cxx1112basic_stringIcSt11char_traitsIcESaIcEED2Ev.exit: ; preds = %if.then.i.i28, %_ZNKSt7__cxx1112basic_stringIcSt11char_traitsIcESaIcEE11_M_is_localEv.exit.thread.i.i
  %26 = load ptr, ptr %schema_name, align 8, !tbaa !43
  %cmp.i.i.i29 = icmp eq ptr %26, %2
  br i1 %cmp.i.i.i29, label %_ZNKSt7__cxx1112basic_stringIcSt11char_traitsIcESaIcEE11_M_is_localEv.exit.thread.i.i31, label %if.then.i.i30

_ZNKSt7__cxx1112basic_stringIcSt11char_traitsIcESaIcEE11_M_is_localEv.exit.thread.i.i31: ; preds = %_ZNSt7__cxx1112basic_stringIcSt11char_traitsIcESaIcEED2Ev.exit
  %27 = load i64, ptr %_M_string_length.i29.i, align 8, !tbaa !47
  %cmp3.i.i.i33 = icmp ult i64 %27, 16
  call void @llvm.assume(i1 %cmp3.i.i.i33)
  br label %_ZNSt7__cxx1112basic_stringIcSt11char_traitsIcESaIcEED2Ev.exit34

if.then.i.i30:                                    ; preds = %_ZNSt7__cxx1112basic_stringIcSt11char_traitsIcESaIcEED2Ev.exit
  call void @_ZdlPv(ptr noundef %26) #26
  br label %_ZNSt7__cxx1112basic_stringIcSt11char_traitsIcESaIcEED2Ev.exit34

_ZNSt7__cxx1112basic_stringIcSt11char_traitsIcESaIcEED2Ev.exit34: ; preds = %if.then.i.i30, %_ZNKSt7__cxx1112basic_stringIcSt11char_traitsIcESaIcEE11_M_is_localEv.exit.thread.i.i31
  call void @_ZNSt12__shared_ptrIN6duckdb8RelationELN9__gnu_cxx12_Lock_policyE2EED2Ev(ptr noundef nonnull align 8 dereferenceable(16) %child) #24
  call void @_ZN6duckdb8RelationD2Ev(ptr noundef nonnull align 8 dereferenceable(64) %this) #24
  resume { ptr, i32 } %.pn
}

; Function Attrs: mustprogress uwtable
define void @_ZN6duckdb18CreateViewRelation4BindERNS_6BinderE(ptr noalias sret(%"struct.duckdb::BoundStatement") align 8 %agg.result, ptr noundef nonnull align 8 dereferenceable(176) %this, ptr noundef nonnull align 8 dereferenceable(752) %binder) unnamed_addr #0 align 2 personality ptr @__gxx_personality_v0 {
entry:
  %select = alloca %"class.duckdb::unique_ptr.176", align 8
  %ref.tmp = alloca %"class.duckdb::unique_ptr.99", align 8
  %stmt = alloca %"class.duckdb::CreateStatement", align 8
  %info = alloca %"class.duckdb::unique_ptr.379", align 8
  call void @llvm.lifetime.start.p0(i64 8, ptr nonnull %select) #24
  tail call void @llvm.experimental.noalias.scope.decl(metadata !189)
  %call.i = tail call noalias noundef nonnull dereferenceable(136) ptr @_Znwm(i64 noundef 136) #29, !noalias !189
  %type2.i.i.i = getelementptr inbounds %"class.duckdb::SQLStatement", ptr %call.i, i64 0, i32 1
  store i8 1, ptr %type2.i.i.i, align 8, !tbaa !154, !noalias !189
  %stmt_location.i.i.i = getelementptr inbounds %"class.duckdb::SQLStatement", ptr %call.i, i64 0, i32 2
  %named_param_map.i.i.i = getelementptr inbounds %"class.duckdb::SQLStatement", ptr %call.i, i64 0, i32 5
  %_M_single_bucket.i.i.i.i.i = getelementptr inbounds %"class.duckdb::SQLStatement", ptr %call.i, i64 0, i32 5, i32 0, i32 5
  tail call void @llvm.memset.p0.i64(ptr noundef nonnull align 8 dereferenceable(24) %stmt_location.i.i.i, i8 0, i64 24, i1 false), !noalias !189
  store ptr %_M_single_bucket.i.i.i.i.i, ptr %named_param_map.i.i.i, align 8, !tbaa !159, !noalias !189
  %_M_bucket_count.i.i.i.i.i = getelementptr inbounds %"class.duckdb::SQLStatement", ptr %call.i, i64 0, i32 5, i32 0, i32 1
  store i64 1, ptr %_M_bucket_count.i.i.i.i.i, align 8, !tbaa !160, !noalias !189
  %_M_before_begin.i.i.i.i.i = getelementptr inbounds %"class.duckdb::SQLStatement", ptr %call.i, i64 0, i32 5, i32 0, i32 2
  %_M_rehash_policy.i.i.i.i.i = getelementptr inbounds %"class.duckdb::SQLStatement", ptr %call.i, i64 0, i32 5, i32 0, i32 4
  tail call void @llvm.memset.p0.i64(ptr noundef nonnull align 8 dereferenceable(16) %_M_before_begin.i.i.i.i.i, i8 0, i64 16, i1 false), !noalias !189
  store float 1.000000e+00, ptr %_M_rehash_policy.i.i.i.i.i, align 8, !tbaa !161, !noalias !189
  %_M_next_resize.i.i.i.i.i.i = getelementptr inbounds %"class.duckdb::SQLStatement", ptr %call.i, i64 0, i32 5, i32 0, i32 4, i32 1
  tail call void @llvm.memset.p0.i64(ptr noundef nonnull align 8 dereferenceable(16) %_M_next_resize.i.i.i.i.i.i, i8 0, i64 16, i1 false), !noalias !189
  %query.i.i.i = getelementptr inbounds %"class.duckdb::SQLStatement", ptr %call.i, i64 0, i32 6
  %0 = getelementptr inbounds %"class.duckdb::SQLStatement", ptr %call.i, i64 0, i32 6, i32 2
  store ptr %0, ptr %query.i.i.i, align 8, !tbaa !145, !noalias !189
  %_M_string_length.i.i.i.i.i.i = getelementptr inbounds %"class.duckdb::SQLStatement", ptr %call.i, i64 0, i32 6, i32 1
  store i64 0, ptr %_M_string_length.i.i.i.i.i.i, align 8, !tbaa !47, !noalias !189
  store i8 0, ptr %0, align 1, !tbaa !21, !noalias !189
  store ptr getelementptr inbounds ({ [6 x ptr] }, ptr @_ZTVN6duckdb15SelectStatementE, i64 0, inrange i32 0, i64 2), ptr %call.i, align 8, !tbaa !9, !noalias !189
  %node.i.i = getelementptr inbounds %"class.duckdb::SelectStatement", ptr %call.i, i64 0, i32 1
  store ptr null, ptr %node.i.i, align 8, !tbaa !74, !noalias !189
  store ptr %call.i, ptr %select, align 8, !tbaa !11, !alias.scope !189
  call void @llvm.lifetime.start.p0(i64 8, ptr nonnull %ref.tmp) #24
  %child = getelementptr inbounds %"class.duckdb::CreateViewRelation", ptr %this, i64 0, i32 1
  %1 = load ptr, ptr %child, align 8, !tbaa !3
  %vtable = load ptr, ptr %1, align 8, !tbaa !9
  %vfn = getelementptr inbounds ptr, ptr %vtable, i64 3
  %2 = load ptr, ptr %vfn, align 8
  invoke void %2(ptr nonnull sret(%"class.duckdb::unique_ptr.99") align 8 %ref.tmp, ptr noundef nonnull align 8 dereferenceable(64) %1)
          to label %invoke.cont unwind label %lpad

invoke.cont:                                      ; preds = %entry
  %call4 = invoke noundef ptr @_ZNK6duckdb10unique_ptrINS_15SelectStatementESt14default_deleteIS1_ELb1EEptEv(ptr noundef nonnull align 8 dereferenceable(8) %select)
          to label %invoke.cont3 unwind label %lpad2

invoke.cont3:                                     ; preds = %invoke.cont
  %node = getelementptr inbounds %"class.duckdb::SelectStatement", ptr %call4, i64 0, i32 1
  %3 = load ptr, ptr %ref.tmp, align 8, !tbaa !11
  store ptr null, ptr %ref.tmp, align 8, !tbaa !11
  %4 = load ptr, ptr %node, align 8, !tbaa !11
  store ptr %3, ptr %node, align 8, !tbaa !11
  %tobool.not.i.i.i.i.i = icmp eq ptr %4, null
  br i1 %tobool.not.i.i.i.i.i, label %_ZNSt10unique_ptrIN6duckdb9QueryNodeESt14default_deleteIS1_EED2Ev.exit, label %_ZN6duckdb10unique_ptrINS_9QueryNodeESt14default_deleteIS1_ELb1EEaSEOS4_.exit

_ZN6duckdb10unique_ptrINS_9QueryNodeESt14default_deleteIS1_ELb1EEaSEOS4_.exit: ; preds = %invoke.cont3
  %vtable.i.i.i.i.i.i = load ptr, ptr %4, align 8, !tbaa !9
  %vfn.i.i.i.i.i.i = getelementptr inbounds ptr, ptr %vtable.i.i.i.i.i.i, i64 1
  %5 = load ptr, ptr %vfn.i.i.i.i.i.i, align 8
  call void %5(ptr noundef nonnull align 8 dereferenceable(96) %4) #24
  %.pr = load ptr, ptr %ref.tmp, align 8, !tbaa !11
  %cmp.not.i = icmp eq ptr %.pr, null
  br i1 %cmp.not.i, label %_ZNSt10unique_ptrIN6duckdb9QueryNodeESt14default_deleteIS1_EED2Ev.exit, label %_ZNKSt14default_deleteIN6duckdb9QueryNodeEEclEPS1_.exit.i

_ZNKSt14default_deleteIN6duckdb9QueryNodeEEclEPS1_.exit.i: ; preds = %_ZN6duckdb10unique_ptrINS_9QueryNodeESt14default_deleteIS1_ELb1EEaSEOS4_.exit
  %vtable.i.i = load ptr, ptr %.pr, align 8, !tbaa !9
  %vfn.i.i = getelementptr inbounds ptr, ptr %vtable.i.i, i64 1
  %6 = load ptr, ptr %vfn.i.i, align 8
  call void %6(ptr noundef nonnull align 8 dereferenceable(96) %.pr) #24
  br label %_ZNSt10unique_ptrIN6duckdb9QueryNodeESt14default_deleteIS1_EED2Ev.exit

_ZNSt10unique_ptrIN6duckdb9QueryNodeESt14default_deleteIS1_EED2Ev.exit: ; preds = %_ZNKSt14default_deleteIN6duckdb9QueryNodeEEclEPS1_.exit.i, %_ZN6duckdb10unique_ptrINS_9QueryNodeESt14default_deleteIS1_ELb1EEaSEOS4_.exit, %invoke.cont3
  call void @llvm.lifetime.end.p0(i64 8, ptr nonnull %ref.tmp) #24
  call void @llvm.lifetime.start.p0(i64 136, ptr nonnull %stmt) #24
  invoke void @_ZN6duckdb15CreateStatementC1Ev(ptr noundef nonnull align 8 dereferenceable(136) %stmt)
          to label %invoke.cont7 unwind label %lpad6

invoke.cont7:                                     ; preds = %_ZNSt10unique_ptrIN6duckdb9QueryNodeESt14default_deleteIS1_EED2Ev.exit
  call void @llvm.lifetime.start.p0(i64 8, ptr nonnull %info) #24
  call void @llvm.experimental.noalias.scope.decl(metadata !192)
  %call.i4748 = invoke noalias noundef nonnull dereferenceable(208) ptr @_Znwm(i64 noundef 208) #29
          to label %call.i47.noexc unwind label %lpad8

call.i47.noexc:                                   ; preds = %invoke.cont7
  invoke void @_ZN6duckdb14CreateViewInfoC1Ev(ptr noundef nonnull align 8 dereferenceable(208) %call.i4748)
          to label %invoke.cont9 unwind label %lpad.i, !noalias !192

lpad.i:                                           ; preds = %call.i47.noexc
  %7 = landingpad { ptr, i32 }
          cleanup
  call void @_ZdlPv(ptr noundef nonnull %call.i4748) #26, !noalias !192
  br label %ehcleanup36

invoke.cont9:                                     ; preds = %call.i47.noexc
  store ptr %call.i4748, ptr %info, align 8, !tbaa !11, !alias.scope !192
  %call12 = invoke noundef ptr @_ZNK6duckdb10unique_ptrINS_14CreateViewInfoESt14default_deleteIS1_ELb1EEptEv(ptr noundef nonnull align 8 dereferenceable(8) %info)
          to label %invoke.cont11 unwind label %lpad10

invoke.cont11:                                    ; preds = %invoke.cont9
  %query = getelementptr inbounds %"struct.duckdb::CreateViewInfo", ptr %call12, i64 0, i32 4
  %8 = load ptr, ptr %select, align 8, !tbaa !11
  store ptr null, ptr %select, align 8, !tbaa !11
  %9 = load ptr, ptr %query, align 8, !tbaa !11
  store ptr %8, ptr %query, align 8, !tbaa !11
  %tobool.not.i.i.i.i.i49 = icmp eq ptr %9, null
  br i1 %tobool.not.i.i.i.i.i49, label %_ZN6duckdb10unique_ptrINS_15SelectStatementESt14default_deleteIS1_ELb1EEaSEOS4_.exit, label %_ZNKSt14default_deleteIN6duckdb15SelectStatementEEclEPS1_.exit.i.i.i.i.i

_ZNKSt14default_deleteIN6duckdb15SelectStatementEEclEPS1_.exit.i.i.i.i.i: ; preds = %invoke.cont11
  %vtable.i.i.i.i.i.i50 = load ptr, ptr %9, align 8, !tbaa !9
  %vfn.i.i.i.i.i.i51 = getelementptr inbounds ptr, ptr %vtable.i.i.i.i.i.i50, i64 1
  %10 = load ptr, ptr %vfn.i.i.i.i.i.i51, align 8
  call void %10(ptr noundef nonnull align 8 dereferenceable(136) %9) #24
  br label %_ZN6duckdb10unique_ptrINS_15SelectStatementESt14default_deleteIS1_ELb1EEaSEOS4_.exit

_ZN6duckdb10unique_ptrINS_15SelectStatementESt14default_deleteIS1_ELb1EEaSEOS4_.exit: ; preds = %_ZNKSt14default_deleteIN6duckdb15SelectStatementEEclEPS1_.exit.i.i.i.i.i, %invoke.cont11
  %call15 = invoke noundef ptr @_ZNK6duckdb10unique_ptrINS_14CreateViewInfoESt14default_deleteIS1_ELb1EEptEv(ptr noundef nonnull align 8 dereferenceable(8) %info)
          to label %invoke.cont14 unwind label %lpad10

invoke.cont14:                                    ; preds = %_ZN6duckdb10unique_ptrINS_15SelectStatementESt14default_deleteIS1_ELb1EEaSEOS4_.exit
  %view_name = getelementptr inbounds %"class.duckdb::CreateViewRelation", ptr %this, i64 0, i32 3
  %view_name16 = getelementptr inbounds %"struct.duckdb::CreateViewInfo", ptr %call15, i64 0, i32 1
  invoke void @_ZNSt7__cxx1112basic_stringIcSt11char_traitsIcESaIcEE9_M_assignERKS4_(ptr noundef nonnull align 8 dereferenceable(32) %view_name16, ptr noundef nonnull align 8 dereferenceable(32) %view_name)
          to label %invoke.cont17 unwind label %lpad10

invoke.cont17:                                    ; preds = %invoke.cont14
  %temporary = getelementptr inbounds %"class.duckdb::CreateViewRelation", ptr %this, i64 0, i32 5
  %11 = load i8, ptr %temporary, align 1, !tbaa !188, !range !195, !noundef !196
  %call20 = invoke noundef ptr @_ZNK6duckdb10unique_ptrINS_14CreateViewInfoESt14default_deleteIS1_ELb1EEptEv(ptr noundef nonnull align 8 dereferenceable(8) %info)
          to label %invoke.cont19 unwind label %lpad10

invoke.cont19:                                    ; preds = %invoke.cont17
  %temporary21 = getelementptr inbounds %"struct.duckdb::CreateInfo", ptr %call20, i64 0, i32 5
  store i8 %11, ptr %temporary21, align 1, !tbaa !197
  %call23 = invoke noundef ptr @_ZNK6duckdb10unique_ptrINS_14CreateViewInfoESt14default_deleteIS1_ELb1EEptEv(ptr noundef nonnull align 8 dereferenceable(8) %info)
          to label %invoke.cont22 unwind label %lpad10

invoke.cont22:                                    ; preds = %invoke.cont19
  %schema_name = getelementptr inbounds %"class.duckdb::CreateViewRelation", ptr %this, i64 0, i32 2
  %schema = getelementptr inbounds %"struct.duckdb::CreateInfo", ptr %call23, i64 0, i32 3
  invoke void @_ZNSt7__cxx1112basic_stringIcSt11char_traitsIcESaIcEE9_M_assignERKS4_(ptr noundef nonnull align 8 dereferenceable(32) %schema, ptr noundef nonnull align 8 dereferenceable(32) %schema_name)
          to label %invoke.cont24 unwind label %lpad10

invoke.cont24:                                    ; preds = %invoke.cont22
  %replace = getelementptr inbounds %"class.duckdb::CreateViewRelation", ptr %this, i64 0, i32 4
  %12 = load i8, ptr %replace, align 8, !tbaa !181, !range !195, !noundef !196
  %call28 = invoke noundef ptr @_ZNK6duckdb10unique_ptrINS_14CreateViewInfoESt14default_deleteIS1_ELb1EEptEv(ptr noundef nonnull align 8 dereferenceable(8) %info)
          to label %invoke.cont27 unwind label %lpad10

invoke.cont27:                                    ; preds = %invoke.cont24
  %tobool26.not = icmp eq i8 %12, 0
  %cond = select i1 %tobool26.not, i8 0, i8 2
  %on_conflict = getelementptr inbounds %"struct.duckdb::CreateInfo", ptr %call28, i64 0, i32 4
  store i8 %cond, ptr %on_conflict, align 8, !tbaa !165
  %13 = load ptr, ptr %info, align 8, !tbaa !11
  store ptr null, ptr %info, align 8, !tbaa !11
  %info30 = getelementptr inbounds %"class.duckdb::CreateStatement", ptr %stmt, i64 0, i32 1
  %14 = load ptr, ptr %info30, align 8, !tbaa !11
  store ptr %13, ptr %info30, align 8, !tbaa !11
  %tobool.not.i.i.i.i.i53 = icmp eq ptr %14, null
  br i1 %tobool.not.i.i.i.i.i53, label %invoke.cont32, label %_ZNKSt14default_deleteIN6duckdb10CreateInfoEEclEPS1_.exit.i.i.i.i.i

_ZNKSt14default_deleteIN6duckdb10CreateInfoEEclEPS1_.exit.i.i.i.i.i: ; preds = %invoke.cont27
  %vtable.i.i.i.i.i.i54 = load ptr, ptr %14, align 8, !tbaa !9
  %vfn.i.i.i.i.i.i55 = getelementptr inbounds ptr, ptr %vtable.i.i.i.i.i.i54, i64 1
  %15 = load ptr, ptr %vfn.i.i.i.i.i.i55, align 8
  call void %15(ptr noundef nonnull align 8 dereferenceable(120) %14) #24
  br label %invoke.cont32

invoke.cont32:                                    ; preds = %_ZNKSt14default_deleteIN6duckdb10CreateInfoEEclEPS1_.exit.i.i.i.i.i, %invoke.cont27
  invoke void @_ZN6duckdb6Binder4BindERNS_12SQLStatementE(ptr sret(%"struct.duckdb::BoundStatement") align 8 %agg.result, ptr noundef nonnull align 8 dereferenceable(752) %binder, ptr noundef nonnull align 8 dereferenceable(128) %stmt)
          to label %invoke.cont34 unwind label %lpad10

invoke.cont34:                                    ; preds = %invoke.cont32
  %16 = load ptr, ptr %info, align 8, !tbaa !11
  %cmp.not.i59 = icmp eq ptr %16, null
  br i1 %cmp.not.i59, label %_ZNSt10unique_ptrIN6duckdb14CreateViewInfoESt14default_deleteIS1_EED2Ev.exit, label %_ZNKSt14default_deleteIN6duckdb14CreateViewInfoEEclEPS1_.exit.i

_ZNKSt14default_deleteIN6duckdb14CreateViewInfoEEclEPS1_.exit.i: ; preds = %invoke.cont34
  %vtable.i.i60 = load ptr, ptr %16, align 8, !tbaa !9
  %vfn.i.i61 = getelementptr inbounds ptr, ptr %vtable.i.i60, i64 1
  %17 = load ptr, ptr %vfn.i.i61, align 8
  call void %17(ptr noundef nonnull align 8 dereferenceable(208) %16) #24
  br label %_ZNSt10unique_ptrIN6duckdb14CreateViewInfoESt14default_deleteIS1_EED2Ev.exit

_ZNSt10unique_ptrIN6duckdb14CreateViewInfoESt14default_deleteIS1_EED2Ev.exit: ; preds = %_ZNKSt14default_deleteIN6duckdb14CreateViewInfoEEclEPS1_.exit.i, %invoke.cont34
  call void @llvm.lifetime.end.p0(i64 8, ptr nonnull %info) #24
  store ptr getelementptr inbounds ({ [6 x ptr] }, ptr @_ZTVN6duckdb15CreateStatementE, i64 0, inrange i32 0, i64 2), ptr %stmt, align 8, !tbaa !9
  %18 = load ptr, ptr %info30, align 8, !tbaa !11
  %cmp.not.i.i = icmp eq ptr %18, null
  br i1 %cmp.not.i.i, label %_ZNSt10unique_ptrIN6duckdb10CreateInfoESt14default_deleteIS1_EED2Ev.exit.i, label %_ZNKSt14default_deleteIN6duckdb10CreateInfoEEclEPS1_.exit.i.i

_ZNKSt14default_deleteIN6duckdb10CreateInfoEEclEPS1_.exit.i.i: ; preds = %_ZNSt10unique_ptrIN6duckdb14CreateViewInfoESt14default_deleteIS1_EED2Ev.exit
  %vtable.i.i.i = load ptr, ptr %18, align 8, !tbaa !9
  %vfn.i.i.i = getelementptr inbounds ptr, ptr %vtable.i.i.i, i64 1
  %19 = load ptr, ptr %vfn.i.i.i, align 8
  call void %19(ptr noundef nonnull align 8 dereferenceable(120) %18) #24
  br label %_ZNSt10unique_ptrIN6duckdb10CreateInfoESt14default_deleteIS1_EED2Ev.exit.i

_ZNSt10unique_ptrIN6duckdb10CreateInfoESt14default_deleteIS1_EED2Ev.exit.i: ; preds = %_ZNKSt14default_deleteIN6duckdb10CreateInfoEEclEPS1_.exit.i.i, %_ZNSt10unique_ptrIN6duckdb14CreateViewInfoESt14default_deleteIS1_EED2Ev.exit
  store ptr null, ptr %info30, align 8, !tbaa !11
  store ptr getelementptr inbounds ({ [6 x ptr] }, ptr @_ZTVN6duckdb12SQLStatementE, i64 0, inrange i32 0, i64 2), ptr %stmt, align 8, !tbaa !9
  %query.i.i = getelementptr inbounds %"class.duckdb::SQLStatement", ptr %stmt, i64 0, i32 6
  %20 = load ptr, ptr %query.i.i, align 8, !tbaa !43
  %21 = getelementptr inbounds %"class.duckdb::SQLStatement", ptr %stmt, i64 0, i32 6, i32 2
  %cmp.i.i.i.i.i = icmp eq ptr %20, %21
  br i1 %cmp.i.i.i.i.i, label %_ZNKSt7__cxx1112basic_stringIcSt11char_traitsIcESaIcEE11_M_is_localEv.exit.thread.i.i.i.i, label %if.then.i.i.i.i

_ZNKSt7__cxx1112basic_stringIcSt11char_traitsIcESaIcEE11_M_is_localEv.exit.thread.i.i.i.i: ; preds = %_ZNSt10unique_ptrIN6duckdb10CreateInfoESt14default_deleteIS1_EED2Ev.exit.i
  %_M_string_length.i.i.i.i.i = getelementptr inbounds %"class.duckdb::SQLStatement", ptr %stmt, i64 0, i32 6, i32 1
  %22 = load i64, ptr %_M_string_length.i.i.i.i.i, align 8, !tbaa !47
  %cmp3.i.i.i.i.i = icmp ult i64 %22, 16
  call void @llvm.assume(i1 %cmp3.i.i.i.i.i)
  br label %_ZNSt7__cxx1112basic_stringIcSt11char_traitsIcESaIcEED2Ev.exit.i.i

if.then.i.i.i.i:                                  ; preds = %_ZNSt10unique_ptrIN6duckdb10CreateInfoESt14default_deleteIS1_EED2Ev.exit.i
  call void @_ZdlPv(ptr noundef %20) #26
  br label %_ZNSt7__cxx1112basic_stringIcSt11char_traitsIcESaIcEED2Ev.exit.i.i

_ZNSt7__cxx1112basic_stringIcSt11char_traitsIcESaIcEED2Ev.exit.i.i: ; preds = %if.then.i.i.i.i, %_ZNKSt7__cxx1112basic_stringIcSt11char_traitsIcESaIcEE11_M_is_localEv.exit.thread.i.i.i.i
  %named_param_map.i.i = getelementptr inbounds %"class.duckdb::SQLStatement", ptr %stmt, i64 0, i32 5
  %_M_before_begin.i.i.i.i.i.i = getelementptr inbounds %"class.duckdb::SQLStatement", ptr %stmt, i64 0, i32 5, i32 0, i32 2
  %23 = load ptr, ptr %_M_before_begin.i.i.i.i.i.i, align 8, !tbaa !172
  %tobool.not4.i.i.i.i.i.i = icmp eq ptr %23, null
  br i1 %tobool.not4.i.i.i.i.i.i, label %_ZNSt10_HashtableINSt7__cxx1112basic_stringIcSt11char_traitsIcESaIcEEESt4pairIKS5_mESaIS8_ENSt8__detail10_Select1stEN6duckdb29CaseInsensitiveStringEqualityENSC_33CaseInsensitiveStringHashFunctionENSA_18_Mod_range_hashingENSA_20_Default_ranged_hashENSA_20_Prime_rehash_policyENSA_17_Hashtable_traitsILb1ELb0ELb1EEEE5clearEv.exit.i.i.i.i, label %while.body.i.i.i.i.i.i

while.body.i.i.i.i.i.i:                           ; preds = %_ZNSt7__cxx1112basic_stringIcSt11char_traitsIcESaIcEED2Ev.exit.i.i, %_ZNSt8__detail16_Hashtable_allocISaINS_10_Hash_nodeISt4pairIKNSt7__cxx1112basic_stringIcSt11char_traitsIcESaIcEEEmELb1EEEEE18_M_deallocate_nodeEPSB_.exit.i.i.i.i.i.i
  %__n.addr.05.i.i.i.i.i.i = phi ptr [ %24, %_ZNSt8__detail16_Hashtable_allocISaINS_10_Hash_nodeISt4pairIKNSt7__cxx1112basic_stringIcSt11char_traitsIcESaIcEEEmELb1EEEEE18_M_deallocate_nodeEPSB_.exit.i.i.i.i.i.i ], [ %23, %_ZNSt7__cxx1112basic_stringIcSt11char_traitsIcESaIcEED2Ev.exit.i.i ]
  %24 = load ptr, ptr %__n.addr.05.i.i.i.i.i.i, align 8, !tbaa !173
  %add.ptr.i.i.i.i.i.i.i = getelementptr inbounds i8, ptr %__n.addr.05.i.i.i.i.i.i, i64 8
  %25 = load ptr, ptr %add.ptr.i.i.i.i.i.i.i, align 8, !tbaa !43
  %26 = getelementptr inbounds i8, ptr %__n.addr.05.i.i.i.i.i.i, i64 24
  %cmp.i.i.i.i.i.i.i.i.i.i.i.i.i = icmp eq ptr %25, %26
  br i1 %cmp.i.i.i.i.i.i.i.i.i.i.i.i.i, label %_ZNKSt7__cxx1112basic_stringIcSt11char_traitsIcESaIcEE11_M_is_localEv.exit.thread.i.i.i.i.i.i.i.i.i.i.i.i, label %if.then.i.i.i.i.i.i.i.i.i.i.i.i

_ZNKSt7__cxx1112basic_stringIcSt11char_traitsIcESaIcEE11_M_is_localEv.exit.thread.i.i.i.i.i.i.i.i.i.i.i.i: ; preds = %while.body.i.i.i.i.i.i
  %_M_string_length.i.i.i.i.i.i.i.i.i.i.i.i.i = getelementptr inbounds i8, ptr %__n.addr.05.i.i.i.i.i.i, i64 16
  %27 = load i64, ptr %_M_string_length.i.i.i.i.i.i.i.i.i.i.i.i.i, align 8, !tbaa !47
  %cmp3.i.i.i.i.i.i.i.i.i.i.i.i.i = icmp ult i64 %27, 16
  call void @llvm.assume(i1 %cmp3.i.i.i.i.i.i.i.i.i.i.i.i.i)
  br label %_ZNSt8__detail16_Hashtable_allocISaINS_10_Hash_nodeISt4pairIKNSt7__cxx1112basic_stringIcSt11char_traitsIcESaIcEEEmELb1EEEEE18_M_deallocate_nodeEPSB_.exit.i.i.i.i.i.i

if.then.i.i.i.i.i.i.i.i.i.i.i.i:                  ; preds = %while.body.i.i.i.i.i.i
  call void @_ZdlPv(ptr noundef %25) #26
  br label %_ZNSt8__detail16_Hashtable_allocISaINS_10_Hash_nodeISt4pairIKNSt7__cxx1112basic_stringIcSt11char_traitsIcESaIcEEEmELb1EEEEE18_M_deallocate_nodeEPSB_.exit.i.i.i.i.i.i

_ZNSt8__detail16_Hashtable_allocISaINS_10_Hash_nodeISt4pairIKNSt7__cxx1112basic_stringIcSt11char_traitsIcESaIcEEEmELb1EEEEE18_M_deallocate_nodeEPSB_.exit.i.i.i.i.i.i: ; preds = %if.then.i.i.i.i.i.i.i.i.i.i.i.i, %_ZNKSt7__cxx1112basic_stringIcSt11char_traitsIcESaIcEE11_M_is_localEv.exit.thread.i.i.i.i.i.i.i.i.i.i.i.i
  call void @_ZdlPv(ptr noundef nonnull %__n.addr.05.i.i.i.i.i.i) #26
  %tobool.not.i.i.i.i.i.i = icmp eq ptr %24, null
  br i1 %tobool.not.i.i.i.i.i.i, label %_ZNSt10_HashtableINSt7__cxx1112basic_stringIcSt11char_traitsIcESaIcEEESt4pairIKS5_mESaIS8_ENSt8__detail10_Select1stEN6duckdb29CaseInsensitiveStringEqualityENSC_33CaseInsensitiveStringHashFunctionENSA_18_Mod_range_hashingENSA_20_Default_ranged_hashENSA_20_Prime_rehash_policyENSA_17_Hashtable_traitsILb1ELb0ELb1EEEE5clearEv.exit.i.i.i.i, label %while.body.i.i.i.i.i.i, !llvm.loop !174

_ZNSt10_HashtableINSt7__cxx1112basic_stringIcSt11char_traitsIcESaIcEEESt4pairIKS5_mESaIS8_ENSt8__detail10_Select1stEN6duckdb29CaseInsensitiveStringEqualityENSC_33CaseInsensitiveStringHashFunctionENSA_18_Mod_range_hashingENSA_20_Default_ranged_hashENSA_20_Prime_rehash_policyENSA_17_Hashtable_traitsILb1ELb0ELb1EEEE5clearEv.exit.i.i.i.i: ; preds = %_ZNSt8__detail16_Hashtable_allocISaINS_10_Hash_nodeISt4pairIKNSt7__cxx1112basic_stringIcSt11char_traitsIcESaIcEEEmELb1EEEEE18_M_deallocate_nodeEPSB_.exit.i.i.i.i.i.i, %_ZNSt7__cxx1112basic_stringIcSt11char_traitsIcESaIcEED2Ev.exit.i.i
  %28 = load ptr, ptr %named_param_map.i.i, align 8, !tbaa !159
  %_M_bucket_count.i.i.i.i.i62 = getelementptr inbounds %"class.duckdb::SQLStatement", ptr %stmt, i64 0, i32 5, i32 0, i32 1
  %29 = load i64, ptr %_M_bucket_count.i.i.i.i.i62, align 8, !tbaa !160
  %mul.i.i.i.i.i = shl i64 %29, 3
  call void @llvm.memset.p0.i64(ptr align 8 %28, i8 0, i64 %mul.i.i.i.i.i, i1 false)
  call void @llvm.memset.p0.i64(ptr noundef nonnull align 8 dereferenceable(16) %_M_before_begin.i.i.i.i.i.i, i8 0, i64 16, i1 false)
  %30 = load ptr, ptr %named_param_map.i.i, align 8, !tbaa !159
  %_M_single_bucket.i.i.i.i.i.i.i = getelementptr inbounds %"class.duckdb::SQLStatement", ptr %stmt, i64 0, i32 5, i32 0, i32 5
  %cmp.i.i.i.i.i.i.i = icmp eq ptr %_M_single_bucket.i.i.i.i.i.i.i, %30
  br i1 %cmp.i.i.i.i.i.i.i, label %_ZN6duckdb15CreateStatementD2Ev.exit, label %if.end.i.i.i.i.i.i

if.end.i.i.i.i.i.i:                               ; preds = %_ZNSt10_HashtableINSt7__cxx1112basic_stringIcSt11char_traitsIcESaIcEEESt4pairIKS5_mESaIS8_ENSt8__detail10_Select1stEN6duckdb29CaseInsensitiveStringEqualityENSC_33CaseInsensitiveStringHashFunctionENSA_18_Mod_range_hashingENSA_20_Default_ranged_hashENSA_20_Prime_rehash_policyENSA_17_Hashtable_traitsILb1ELb0ELb1EEEE5clearEv.exit.i.i.i.i
  call void @_ZdlPv(ptr noundef %30) #26
  br label %_ZN6duckdb15CreateStatementD2Ev.exit

_ZN6duckdb15CreateStatementD2Ev.exit:             ; preds = %if.end.i.i.i.i.i.i, %_ZNSt10_HashtableINSt7__cxx1112basic_stringIcSt11char_traitsIcESaIcEEESt4pairIKS5_mESaIS8_ENSt8__detail10_Select1stEN6duckdb29CaseInsensitiveStringEqualityENSC_33CaseInsensitiveStringHashFunctionENSA_18_Mod_range_hashingENSA_20_Default_ranged_hashENSA_20_Prime_rehash_policyENSA_17_Hashtable_traitsILb1ELb0ELb1EEEE5clearEv.exit.i.i.i.i
  call void @llvm.lifetime.end.p0(i64 136, ptr nonnull %stmt) #24
  %31 = load ptr, ptr %select, align 8, !tbaa !11
  %cmp.not.i63 = icmp eq ptr %31, null
  br i1 %cmp.not.i63, label %_ZNSt10unique_ptrIN6duckdb15SelectStatementESt14default_deleteIS1_EED2Ev.exit, label %_ZNKSt14default_deleteIN6duckdb15SelectStatementEEclEPS1_.exit.i

_ZNKSt14default_deleteIN6duckdb15SelectStatementEEclEPS1_.exit.i: ; preds = %_ZN6duckdb15CreateStatementD2Ev.exit
  %vtable.i.i64 = load ptr, ptr %31, align 8, !tbaa !9
  %vfn.i.i65 = getelementptr inbounds ptr, ptr %vtable.i.i64, i64 1
  %32 = load ptr, ptr %vfn.i.i65, align 8
  call void %32(ptr noundef nonnull align 8 dereferenceable(136) %31) #24
  br label %_ZNSt10unique_ptrIN6duckdb15SelectStatementESt14default_deleteIS1_EED2Ev.exit

_ZNSt10unique_ptrIN6duckdb15SelectStatementESt14default_deleteIS1_EED2Ev.exit: ; preds = %_ZNKSt14default_deleteIN6duckdb15SelectStatementEEclEPS1_.exit.i, %_ZN6duckdb15CreateStatementD2Ev.exit
  call void @llvm.lifetime.end.p0(i64 8, ptr nonnull %select) #24
  ret void

lpad:                                             ; preds = %entry
  %33 = landingpad { ptr, i32 }
          cleanup
  br label %ehcleanup

lpad2:                                            ; preds = %invoke.cont
  %34 = landingpad { ptr, i32 }
          cleanup
  %35 = load ptr, ptr %ref.tmp, align 8, !tbaa !11
  %cmp.not.i66 = icmp eq ptr %35, null
  br i1 %cmp.not.i66, label %ehcleanup, label %_ZNKSt14default_deleteIN6duckdb9QueryNodeEEclEPS1_.exit.i67

_ZNKSt14default_deleteIN6duckdb9QueryNodeEEclEPS1_.exit.i67: ; preds = %lpad2
  %vtable.i.i68 = load ptr, ptr %35, align 8, !tbaa !9
  %vfn.i.i69 = getelementptr inbounds ptr, ptr %vtable.i.i68, i64 1
  %36 = load ptr, ptr %vfn.i.i69, align 8
  call void %36(ptr noundef nonnull align 8 dereferenceable(96) %35) #24
  br label %ehcleanup

ehcleanup:                                        ; preds = %_ZNKSt14default_deleteIN6duckdb9QueryNodeEEclEPS1_.exit.i67, %lpad2, %lpad
  %.pn = phi { ptr, i32 } [ %33, %lpad ], [ %34, %lpad2 ], [ %34, %_ZNKSt14default_deleteIN6duckdb9QueryNodeEEclEPS1_.exit.i67 ]
  call void @llvm.lifetime.end.p0(i64 8, ptr nonnull %ref.tmp) #24
  br label %ehcleanup39

lpad6:                                            ; preds = %_ZNSt10unique_ptrIN6duckdb9QueryNodeESt14default_deleteIS1_EED2Ev.exit
  %37 = landingpad { ptr, i32 }
          cleanup
  br label %ehcleanup38

lpad8:                                            ; preds = %invoke.cont7
  %38 = landingpad { ptr, i32 }
          cleanup
  br label %ehcleanup36

lpad10:                                           ; preds = %invoke.cont32, %invoke.cont24, %invoke.cont22, %invoke.cont19, %invoke.cont17, %invoke.cont14, %_ZN6duckdb10unique_ptrINS_15SelectStatementESt14default_deleteIS1_ELb1EEaSEOS4_.exit, %invoke.cont9
  %39 = landingpad { ptr, i32 }
          cleanup
  %40 = load ptr, ptr %info, align 8, !tbaa !11
  %cmp.not.i71 = icmp eq ptr %40, null
  br i1 %cmp.not.i71, label %ehcleanup36, label %_ZNKSt14default_deleteIN6duckdb14CreateViewInfoEEclEPS1_.exit.i72

_ZNKSt14default_deleteIN6duckdb14CreateViewInfoEEclEPS1_.exit.i72: ; preds = %lpad10
  %vtable.i.i73 = load ptr, ptr %40, align 8, !tbaa !9
  %vfn.i.i74 = getelementptr inbounds ptr, ptr %vtable.i.i73, i64 1
  %41 = load ptr, ptr %vfn.i.i74, align 8
  call void %41(ptr noundef nonnull align 8 dereferenceable(208) %40) #24
  br label %ehcleanup36

ehcleanup36:                                      ; preds = %_ZNKSt14default_deleteIN6duckdb14CreateViewInfoEEclEPS1_.exit.i72, %lpad10, %lpad8, %lpad.i
  %.pn43 = phi { ptr, i32 } [ %38, %lpad8 ], [ %7, %lpad.i ], [ %39, %lpad10 ], [ %39, %_ZNKSt14default_deleteIN6duckdb14CreateViewInfoEEclEPS1_.exit.i72 ]
  call void @llvm.lifetime.end.p0(i64 8, ptr nonnull %info) #24
  call void @_ZN6duckdb15CreateStatementD2Ev(ptr noundef nonnull align 8 dereferenceable(136) %stmt) #24
  br label %ehcleanup38

ehcleanup38:                                      ; preds = %ehcleanup36, %lpad6
  %.pn43.pn = phi { ptr, i32 } [ %.pn43, %ehcleanup36 ], [ %37, %lpad6 ]
  call void @llvm.lifetime.end.p0(i64 136, ptr nonnull %stmt) #24
  br label %ehcleanup39

ehcleanup39:                                      ; preds = %ehcleanup38, %ehcleanup
  %.pn43.pn.pn = phi { ptr, i32 } [ %.pn43.pn, %ehcleanup38 ], [ %.pn, %ehcleanup ]
  %42 = load ptr, ptr %select, align 8, !tbaa !11
  %cmp.not.i76 = icmp eq ptr %42, null
  br i1 %cmp.not.i76, label %_ZNSt10unique_ptrIN6duckdb15SelectStatementESt14default_deleteIS1_EED2Ev.exit80, label %_ZNKSt14default_deleteIN6duckdb15SelectStatementEEclEPS1_.exit.i77

_ZNKSt14default_deleteIN6duckdb15SelectStatementEEclEPS1_.exit.i77: ; preds = %ehcleanup39
  %vtable.i.i78 = load ptr, ptr %42, align 8, !tbaa !9
  %vfn.i.i79 = getelementptr inbounds ptr, ptr %vtable.i.i78, i64 1
  %43 = load ptr, ptr %vfn.i.i79, align 8
  call void %43(ptr noundef nonnull align 8 dereferenceable(136) %42) #24
  br label %_ZNSt10unique_ptrIN6duckdb15SelectStatementESt14default_deleteIS1_EED2Ev.exit80

_ZNSt10unique_ptrIN6duckdb15SelectStatementESt14default_deleteIS1_EED2Ev.exit80: ; preds = %_ZNKSt14default_deleteIN6duckdb15SelectStatementEEclEPS1_.exit.i77, %ehcleanup39
  call void @llvm.lifetime.end.p0(i64 8, ptr nonnull %select) #24
  resume { ptr, i32 } %.pn43.pn.pn
}

; Function Attrs: mustprogress uwtable
define linkonce_odr noundef ptr @_ZNK6duckdb10unique_ptrINS_14CreateViewInfoESt14default_deleteIS1_ELb1EEptEv(ptr noundef nonnull align 8 dereferenceable(8) %this) local_unnamed_addr #0 comdat align 2 personality ptr @__gxx_personality_v0 {
entry:
  %ref.tmp.i = alloca %"class.std::__cxx11::basic_string", align 8
  %ref.tmp2.i = alloca %"class.std::allocator.40", align 1
  %0 = load ptr, ptr %this, align 8, !tbaa !11
  %tobool.not = icmp eq ptr %0, null
  br i1 %tobool.not, label %if.then.i, label %_ZN6duckdb10unique_ptrINS_14CreateViewInfoESt14default_deleteIS1_ELb1EE13AssertNotNullEb.exit, !prof !23

if.then.i:                                        ; preds = %entry
  %exception.i = tail call ptr @__cxa_allocate_exception(i64 80) #24
  call void @llvm.lifetime.start.p0(i64 32, ptr nonnull %ref.tmp.i) #24
  call void @llvm.lifetime.start.p0(i64 1, ptr nonnull %ref.tmp2.i) #24
  invoke void @_ZNSt7__cxx1112basic_stringIcSt11char_traitsIcESaIcEEC2EPKcRKS3_(ptr noundef nonnull align 8 dereferenceable(32) %ref.tmp.i, ptr noundef nonnull @.str.63, ptr noundef nonnull align 1 dereferenceable(1) %ref.tmp2.i)
          to label %invoke.cont.i unwind label %ehcleanup.thread.i

invoke.cont.i:                                    ; preds = %if.then.i
  invoke void @_ZN6duckdb17InternalExceptionC1ERKNSt7__cxx1112basic_stringIcSt11char_traitsIcESaIcEEE(ptr noundef nonnull align 8 dereferenceable(80) %exception.i, ptr noundef nonnull align 8 dereferenceable(32) %ref.tmp.i)
          to label %invoke.cont4.i unwind label %lpad3.i

invoke.cont4.i:                                   ; preds = %invoke.cont.i
  invoke void @__cxa_throw(ptr nonnull %exception.i, ptr nonnull @_ZTIN6duckdb17InternalExceptionE, ptr nonnull @_ZN6duckdb9ExceptionD2Ev) #25
          to label %unreachable.i unwind label %lpad3.i

ehcleanup.thread.i:                               ; preds = %if.then.i
  %1 = landingpad { ptr, i32 }
          cleanup
  call void @llvm.lifetime.end.p0(i64 1, ptr nonnull %ref.tmp2.i) #24
  call void @llvm.lifetime.end.p0(i64 32, ptr nonnull %ref.tmp.i) #24
  br label %cleanup.action.i

lpad3.i:                                          ; preds = %invoke.cont4.i, %invoke.cont.i
  %cleanup.isactive.0.i = phi i1 [ false, %invoke.cont4.i ], [ true, %invoke.cont.i ]
  %2 = landingpad { ptr, i32 }
          cleanup
  %3 = load ptr, ptr %ref.tmp.i, align 8, !tbaa !43
  %4 = getelementptr inbounds %"class.std::__cxx11::basic_string", ptr %ref.tmp.i, i64 0, i32 2
  %cmp.i.i.i.i = icmp eq ptr %3, %4
  br i1 %cmp.i.i.i.i, label %_ZNKSt7__cxx1112basic_stringIcSt11char_traitsIcESaIcEE11_M_is_localEv.exit.thread.i.i.i, label %ehcleanup.i

_ZNKSt7__cxx1112basic_stringIcSt11char_traitsIcESaIcEE11_M_is_localEv.exit.thread.i.i.i: ; preds = %lpad3.i
  %_M_string_length.i.i.i.i = getelementptr inbounds %"class.std::__cxx11::basic_string", ptr %ref.tmp.i, i64 0, i32 1
  %5 = load i64, ptr %_M_string_length.i.i.i.i, align 8, !tbaa !47
  %cmp3.i.i.i.i = icmp ult i64 %5, 16
  call void @llvm.assume(i1 %cmp3.i.i.i.i)
  call void @llvm.lifetime.end.p0(i64 1, ptr nonnull %ref.tmp2.i) #24
  call void @llvm.lifetime.end.p0(i64 32, ptr nonnull %ref.tmp.i) #24
  br i1 %cleanup.isactive.0.i, label %cleanup.action.i, label %eh.resume.i

ehcleanup.i:                                      ; preds = %lpad3.i
  call void @_ZdlPv(ptr noundef %3) #26
  call void @llvm.lifetime.end.p0(i64 1, ptr nonnull %ref.tmp2.i) #24
  call void @llvm.lifetime.end.p0(i64 32, ptr nonnull %ref.tmp.i) #24
  br i1 %cleanup.isactive.0.i, label %cleanup.action.i, label %eh.resume.i

cleanup.action.i:                                 ; preds = %ehcleanup.i, %_ZNKSt7__cxx1112basic_stringIcSt11char_traitsIcESaIcEE11_M_is_localEv.exit.thread.i.i.i, %ehcleanup.thread.i
  %.pn13.i = phi { ptr, i32 } [ %1, %ehcleanup.thread.i ], [ %2, %ehcleanup.i ], [ %2, %_ZNKSt7__cxx1112basic_stringIcSt11char_traitsIcESaIcEE11_M_is_localEv.exit.thread.i.i.i ]
  call void @__cxa_free_exception(ptr %exception.i) #24
  br label %eh.resume.i

eh.resume.i:                                      ; preds = %cleanup.action.i, %ehcleanup.i, %_ZNKSt7__cxx1112basic_stringIcSt11char_traitsIcESaIcEE11_M_is_localEv.exit.thread.i.i.i
  %.pn12.i = phi { ptr, i32 } [ %2, %ehcleanup.i ], [ %.pn13.i, %cleanup.action.i ], [ %2, %_ZNKSt7__cxx1112basic_stringIcSt11char_traitsIcESaIcEE11_M_is_localEv.exit.thread.i.i.i ]
  resume { ptr, i32 } %.pn12.i

unreachable.i:                                    ; preds = %invoke.cont4.i
  unreachable

_ZN6duckdb10unique_ptrINS_14CreateViewInfoESt14default_deleteIS1_ELb1EE13AssertNotNullEb.exit: ; preds = %entry
  ret ptr %0
}

; Function Attrs: mustprogress nofree norecurse nosync nounwind willreturn memory(none) uwtable
define noundef nonnull align 8 dereferenceable(24) ptr @_ZN6duckdb18CreateViewRelation7ColumnsEv(ptr noundef nonnull readnone align 8 dereferenceable(176) %this) unnamed_addr #5 align 2 {
entry:
  %columns = getelementptr inbounds %"class.duckdb::CreateViewRelation", ptr %this, i64 0, i32 6
  ret ptr %columns
}

; Function Attrs: mustprogress uwtable
define void @_ZN6duckdb18CreateViewRelation8ToStringB5cxx11Em(ptr noalias sret(%"class.std::__cxx11::basic_string") align 8 %agg.result, ptr noundef nonnull align 8 dereferenceable(176) %this, i64 noundef %depth) unnamed_addr #0 align 2 personality ptr @__gxx_personality_v0 {
entry:
  %str = alloca %"class.std::__cxx11::basic_string", align 8
  %ref.tmp = alloca %"class.std::__cxx11::basic_string", align 8
  %ref.tmp2 = alloca %"class.std::__cxx11::basic_string", align 8
  call void @llvm.lifetime.start.p0(i64 32, ptr nonnull %str) #24
  call void @llvm.lifetime.start.p0(i64 32, ptr nonnull %ref.tmp) #24
  call void @_ZN6duckdb8Relation16RenderWhitespaceB5cxx11Em(ptr nonnull sret(%"class.std::__cxx11::basic_string") align 8 %ref.tmp, ptr noundef nonnull align 8 dereferenceable(64) %this, i64 noundef %depth)
  call void @llvm.experimental.noalias.scope.decl(metadata !198)
  %_M_string_length.i.i.i.i = getelementptr inbounds %"class.std::__cxx11::basic_string", ptr %ref.tmp, i64 0, i32 1
  %0 = load i64, ptr %_M_string_length.i.i.i.i, align 8, !tbaa !47, !noalias !198
  %1 = add i64 %0, -4611686018427387892
  %cmp.i.i.i = icmp ult i64 %1, 12
  br i1 %cmp.i.i.i, label %if.then.i.i.i, label %_ZNSt7__cxx1112basic_stringIcSt11char_traitsIcESaIcEE6appendEPKc.exit.i

if.then.i.i.i:                                    ; preds = %entry
  invoke void @_ZSt20__throw_length_errorPKc(ptr noundef nonnull @.str.57) #25
          to label %.noexc unwind label %lpad

.noexc:                                           ; preds = %if.then.i.i.i
  unreachable

_ZNSt7__cxx1112basic_stringIcSt11char_traitsIcESaIcEE6appendEPKc.exit.i: ; preds = %entry
  %call2.i.i13 = invoke noundef nonnull align 8 dereferenceable(32) ptr @_ZNSt7__cxx1112basic_stringIcSt11char_traitsIcESaIcEE9_M_appendEPKcm(ptr noundef nonnull align 8 dereferenceable(32) %ref.tmp, ptr noundef nonnull @.str.4, i64 noundef 12)
          to label %call2.i.i.noexc unwind label %lpad

call2.i.i.noexc:                                  ; preds = %_ZNSt7__cxx1112basic_stringIcSt11char_traitsIcESaIcEE6appendEPKc.exit.i
  %2 = getelementptr inbounds %"class.std::__cxx11::basic_string", ptr %str, i64 0, i32 2
  store ptr %2, ptr %str, align 8, !tbaa !145, !alias.scope !198
  %3 = load ptr, ptr %call2.i.i13, align 8, !tbaa !43
  %4 = getelementptr inbounds %"class.std::__cxx11::basic_string", ptr %call2.i.i13, i64 0, i32 2
  %cmp.i.i1.i = icmp eq ptr %3, %4
  br i1 %cmp.i.i1.i, label %if.then.i.i, label %if.else.i.i

if.then.i.i:                                      ; preds = %call2.i.i.noexc
  %_M_string_length.i.i.i = getelementptr inbounds %"class.std::__cxx11::basic_string", ptr %call2.i.i13, i64 0, i32 1
  %5 = load i64, ptr %_M_string_length.i.i.i, align 8, !tbaa !47
  %cmp3.i.i.i = icmp ult i64 %5, 16
  call void @llvm.assume(i1 %cmp3.i.i.i)
  %add.i.i = add nuw nsw i64 %5, 1
  call void @llvm.memcpy.p0.p0.i64(ptr noundef nonnull align 8 dereferenceable(1) %2, ptr noundef nonnull align 8 dereferenceable(1) %3, i64 %add.i.i, i1 false)
  br label %invoke.cont

if.else.i.i:                                      ; preds = %call2.i.i.noexc
  store ptr %3, ptr %str, align 8, !tbaa !43, !alias.scope !198
  %6 = load i64, ptr %4, align 8, !tbaa !21
  store i64 %6, ptr %2, align 8, !tbaa !21, !alias.scope !198
  %_M_string_length.i28.i.phi.trans.insert.i = getelementptr inbounds %"class.std::__cxx11::basic_string", ptr %call2.i.i13, i64 0, i32 1
  %.pre.i = load i64, ptr %_M_string_length.i28.i.phi.trans.insert.i, align 8, !tbaa !47
  br label %invoke.cont

invoke.cont:                                      ; preds = %if.else.i.i, %if.then.i.i
  %7 = phi i64 [ %5, %if.then.i.i ], [ %.pre.i, %if.else.i.i ]
  %_M_string_length.i28.i.i = getelementptr inbounds %"class.std::__cxx11::basic_string", ptr %call2.i.i13, i64 0, i32 1
  %_M_string_length.i29.i.i = getelementptr inbounds %"class.std::__cxx11::basic_string", ptr %str, i64 0, i32 1
  store i64 %7, ptr %_M_string_length.i29.i.i, align 8, !tbaa !47, !alias.scope !198
  store ptr %4, ptr %call2.i.i13, align 8, !tbaa !43
  store i64 0, ptr %_M_string_length.i28.i.i, align 8, !tbaa !47
  store i8 0, ptr %4, align 8, !tbaa !21
  %8 = load ptr, ptr %ref.tmp, align 8, !tbaa !43
  %9 = getelementptr inbounds %"class.std::__cxx11::basic_string", ptr %ref.tmp, i64 0, i32 2
  %cmp.i.i.i14 = icmp eq ptr %8, %9
  br i1 %cmp.i.i.i14, label %_ZNKSt7__cxx1112basic_stringIcSt11char_traitsIcESaIcEE11_M_is_localEv.exit.thread.i.i, label %if.then.i.i15

_ZNKSt7__cxx1112basic_stringIcSt11char_traitsIcESaIcEE11_M_is_localEv.exit.thread.i.i: ; preds = %invoke.cont
  %10 = load i64, ptr %_M_string_length.i.i.i.i, align 8, !tbaa !47
  %cmp3.i.i.i17 = icmp ult i64 %10, 16
  call void @llvm.assume(i1 %cmp3.i.i.i17)
  br label %_ZNSt7__cxx1112basic_stringIcSt11char_traitsIcESaIcEED2Ev.exit

if.then.i.i15:                                    ; preds = %invoke.cont
  call void @_ZdlPv(ptr noundef %8) #26
  br label %_ZNSt7__cxx1112basic_stringIcSt11char_traitsIcESaIcEED2Ev.exit

_ZNSt7__cxx1112basic_stringIcSt11char_traitsIcESaIcEED2Ev.exit: ; preds = %if.then.i.i15, %_ZNKSt7__cxx1112basic_stringIcSt11char_traitsIcESaIcEE11_M_is_localEv.exit.thread.i.i
  call void @llvm.lifetime.end.p0(i64 32, ptr nonnull %ref.tmp) #24
  call void @llvm.lifetime.start.p0(i64 32, ptr nonnull %ref.tmp2) #24
  %child = getelementptr inbounds %"class.duckdb::CreateViewRelation", ptr %this, i64 0, i32 1
  %11 = load ptr, ptr %child, align 8, !tbaa !3
  %add = add i64 %depth, 1
  %vtable = load ptr, ptr %11, align 8, !tbaa !9
  %vfn = getelementptr inbounds ptr, ptr %vtable, i64 6
  %12 = load ptr, ptr %vfn, align 8
  invoke void %12(ptr nonnull sret(%"class.std::__cxx11::basic_string") align 8 %ref.tmp2, ptr noundef nonnull align 8 dereferenceable(64) %11, i64 noundef %add)
          to label %invoke.cont4 unwind label %lpad3

invoke.cont4:                                     ; preds = %_ZNSt7__cxx1112basic_stringIcSt11char_traitsIcESaIcEED2Ev.exit
  call void @llvm.experimental.noalias.scope.decl(metadata !201)
  %13 = load i64, ptr %_M_string_length.i29.i.i, align 8, !tbaa !47, !noalias !201
  %14 = load ptr, ptr %str, align 8, !tbaa !43, !noalias !201
  %call3.i.i.i28 = invoke noundef nonnull align 8 dereferenceable(32) ptr @_ZNSt7__cxx1112basic_stringIcSt11char_traitsIcESaIcEE10_M_replaceEmmPKcm(ptr noundef nonnull align 8 dereferenceable(32) %ref.tmp2, i64 noundef 0, i64 noundef 0, ptr noundef %14, i64 noundef %13)
          to label %call3.i.i.i.noexc unwind label %lpad5

call3.i.i.i.noexc:                                ; preds = %invoke.cont4
  %15 = getelementptr inbounds %"class.std::__cxx11::basic_string", ptr %agg.result, i64 0, i32 2
  store ptr %15, ptr %agg.result, align 8, !tbaa !145, !alias.scope !201
  %16 = load ptr, ptr %call3.i.i.i28, align 8, !tbaa !43
  %17 = getelementptr inbounds %"class.std::__cxx11::basic_string", ptr %call3.i.i.i28, i64 0, i32 2
  %cmp.i.i.i19 = icmp eq ptr %16, %17
  br i1 %cmp.i.i.i19, label %if.then.i.i25, label %if.else.i.i20

if.then.i.i25:                                    ; preds = %call3.i.i.i.noexc
  %_M_string_length.i.i1.i = getelementptr inbounds %"class.std::__cxx11::basic_string", ptr %call3.i.i.i28, i64 0, i32 1
  %18 = load i64, ptr %_M_string_length.i.i1.i, align 8, !tbaa !47
  %cmp3.i.i.i26 = icmp ult i64 %18, 16
  call void @llvm.assume(i1 %cmp3.i.i.i26)
  %add.i.i27 = add nuw nsw i64 %18, 1
  call void @llvm.memcpy.p0.p0.i64(ptr noundef nonnull align 8 dereferenceable(1) %15, ptr noundef nonnull align 8 dereferenceable(1) %16, i64 %add.i.i27, i1 false)
  br label %invoke.cont6

if.else.i.i20:                                    ; preds = %call3.i.i.i.noexc
  store ptr %16, ptr %agg.result, align 8, !tbaa !43, !alias.scope !201
  %19 = load i64, ptr %17, align 8, !tbaa !21
  store i64 %19, ptr %15, align 8, !tbaa !21, !alias.scope !201
  %_M_string_length.i28.i.phi.trans.insert.i21 = getelementptr inbounds %"class.std::__cxx11::basic_string", ptr %call3.i.i.i28, i64 0, i32 1
  %.pre.i22 = load i64, ptr %_M_string_length.i28.i.phi.trans.insert.i21, align 8, !tbaa !47
  br label %invoke.cont6

invoke.cont6:                                     ; preds = %if.else.i.i20, %if.then.i.i25
  %20 = phi i64 [ %18, %if.then.i.i25 ], [ %.pre.i22, %if.else.i.i20 ]
  %_M_string_length.i28.i.i23 = getelementptr inbounds %"class.std::__cxx11::basic_string", ptr %call3.i.i.i28, i64 0, i32 1
  %_M_string_length.i29.i.i24 = getelementptr inbounds %"class.std::__cxx11::basic_string", ptr %agg.result, i64 0, i32 1
  store i64 %20, ptr %_M_string_length.i29.i.i24, align 8, !tbaa !47, !alias.scope !201
  store ptr %17, ptr %call3.i.i.i28, align 8, !tbaa !43
  store i64 0, ptr %_M_string_length.i28.i.i23, align 8, !tbaa !47
  store i8 0, ptr %17, align 8, !tbaa !21
  %21 = load ptr, ptr %ref.tmp2, align 8, !tbaa !43
  %22 = getelementptr inbounds %"class.std::__cxx11::basic_string", ptr %ref.tmp2, i64 0, i32 2
  %cmp.i.i.i29 = icmp eq ptr %21, %22
  br i1 %cmp.i.i.i29, label %_ZNKSt7__cxx1112basic_stringIcSt11char_traitsIcESaIcEE11_M_is_localEv.exit.thread.i.i31, label %if.then.i.i30

_ZNKSt7__cxx1112basic_stringIcSt11char_traitsIcESaIcEE11_M_is_localEv.exit.thread.i.i31: ; preds = %invoke.cont6
  %_M_string_length.i.i.i32 = getelementptr inbounds %"class.std::__cxx11::basic_string", ptr %ref.tmp2, i64 0, i32 1
  %23 = load i64, ptr %_M_string_length.i.i.i32, align 8, !tbaa !47
  %cmp3.i.i.i33 = icmp ult i64 %23, 16
  call void @llvm.assume(i1 %cmp3.i.i.i33)
  br label %_ZNSt7__cxx1112basic_stringIcSt11char_traitsIcESaIcEED2Ev.exit34

if.then.i.i30:                                    ; preds = %invoke.cont6
  call void @_ZdlPv(ptr noundef %21) #26
  br label %_ZNSt7__cxx1112basic_stringIcSt11char_traitsIcESaIcEED2Ev.exit34

_ZNSt7__cxx1112basic_stringIcSt11char_traitsIcESaIcEED2Ev.exit34: ; preds = %if.then.i.i30, %_ZNKSt7__cxx1112basic_stringIcSt11char_traitsIcESaIcEE11_M_is_localEv.exit.thread.i.i31
  call void @llvm.lifetime.end.p0(i64 32, ptr nonnull %ref.tmp2) #24
  %24 = load ptr, ptr %str, align 8, !tbaa !43
  %cmp.i.i.i35 = icmp eq ptr %24, %2
  br i1 %cmp.i.i.i35, label %_ZNKSt7__cxx1112basic_stringIcSt11char_traitsIcESaIcEE11_M_is_localEv.exit.thread.i.i37, label %if.then.i.i36

_ZNKSt7__cxx1112basic_stringIcSt11char_traitsIcESaIcEE11_M_is_localEv.exit.thread.i.i37: ; preds = %_ZNSt7__cxx1112basic_stringIcSt11char_traitsIcESaIcEED2Ev.exit34
  %25 = load i64, ptr %_M_string_length.i29.i.i, align 8, !tbaa !47
  %cmp3.i.i.i39 = icmp ult i64 %25, 16
  call void @llvm.assume(i1 %cmp3.i.i.i39)
  br label %_ZNSt7__cxx1112basic_stringIcSt11char_traitsIcESaIcEED2Ev.exit40

if.then.i.i36:                                    ; preds = %_ZNSt7__cxx1112basic_stringIcSt11char_traitsIcESaIcEED2Ev.exit34
  call void @_ZdlPv(ptr noundef %24) #26
  br label %_ZNSt7__cxx1112basic_stringIcSt11char_traitsIcESaIcEED2Ev.exit40

_ZNSt7__cxx1112basic_stringIcSt11char_traitsIcESaIcEED2Ev.exit40: ; preds = %if.then.i.i36, %_ZNKSt7__cxx1112basic_stringIcSt11char_traitsIcESaIcEE11_M_is_localEv.exit.thread.i.i37
  call void @llvm.lifetime.end.p0(i64 32, ptr nonnull %str) #24
  ret void

lpad:                                             ; preds = %_ZNSt7__cxx1112basic_stringIcSt11char_traitsIcESaIcEE6appendEPKc.exit.i, %if.then.i.i.i
  %26 = landingpad { ptr, i32 }
          cleanup
  %27 = load ptr, ptr %ref.tmp, align 8, !tbaa !43
  %28 = getelementptr inbounds %"class.std::__cxx11::basic_string", ptr %ref.tmp, i64 0, i32 2
  %cmp.i.i.i41 = icmp eq ptr %27, %28
  br i1 %cmp.i.i.i41, label %_ZNKSt7__cxx1112basic_stringIcSt11char_traitsIcESaIcEE11_M_is_localEv.exit.thread.i.i43, label %if.then.i.i42

_ZNKSt7__cxx1112basic_stringIcSt11char_traitsIcESaIcEE11_M_is_localEv.exit.thread.i.i43: ; preds = %lpad
  %29 = load i64, ptr %_M_string_length.i.i.i.i, align 8, !tbaa !47
  %cmp3.i.i.i45 = icmp ult i64 %29, 16
  call void @llvm.assume(i1 %cmp3.i.i.i45)
  br label %_ZNSt7__cxx1112basic_stringIcSt11char_traitsIcESaIcEED2Ev.exit46

