; ModuleID = 'bench/duckdb/original/ub_duckdb_main_settings.cpp.ll'
source_filename = "bench/duckdb/original/ub_duckdb_main_settings.cpp.ll"
target datalayout = "e-m:e-p270:32:32-p271:32:32-p272:64:64-i64:64-i128:128-f80:128-n8:16:32:64-S128"
target triple = "x86_64-unknown-linux-gnu"

%"class.std::ios_base::Init" = type { i8 }
%"class.std::__cxx11::basic_string" = type { %"struct.std::__cxx11::basic_string<char>::_Alloc_hider", i64, %union.anon }
%"struct.std::__cxx11::basic_string<char>::_Alloc_hider" = type { ptr }
%union.anon = type { i64, [8 x i8] }
%"class.std::allocator" = type { i8 }
%"struct.duckdb::DBConfig" = type { %"class.std::mutex", %"class.duckdb::vector", %"class.std::unordered_map", %"class.duckdb::unique_ptr", %"class.duckdb::unique_ptr.13", %"struct.duckdb::DBConfigOptions", %"class.duckdb::vector.51", %"class.duckdb::vector.57", %"class.duckdb::unique_ptr.63", %"class.std::shared_ptr.72", %"class.duckdb::vector.75", %"class.std::unordered_map.81", %"class.std::shared_ptr.95", %"class.duckdb::vector.98", %"class.duckdb::unique_ptr.104", %"class.duckdb::unique_ptr.113" }
%"class.std::mutex" = type { %"class.std::__mutex_base" }
%"class.std::__mutex_base" = type { %union.pthread_mutex_t }
%union.pthread_mutex_t = type { %struct.__pthread_mutex_s }
%struct.__pthread_mutex_s = type { i32, i32, i32, i32, i32, i16, i16, %struct.__pthread_internal_list }
%struct.__pthread_internal_list = type { ptr, ptr }
%"class.duckdb::vector" = type { %"class.std::vector" }
%"class.std::vector" = type { %"struct.std::_Vector_base" }
%"struct.std::_Vector_base" = type { %"struct.std::_Vector_base<duckdb::ReplacementScan, std::allocator<duckdb::ReplacementScan>>::_Vector_impl" }
%"struct.std::_Vector_base<duckdb::ReplacementScan, std::allocator<duckdb::ReplacementScan>>::_Vector_impl" = type { %"struct.std::_Vector_base<duckdb::ReplacementScan, std::allocator<duckdb::ReplacementScan>>::_Vector_impl_data" }
%"struct.std::_Vector_base<duckdb::ReplacementScan, std::allocator<duckdb::ReplacementScan>>::_Vector_impl_data" = type { ptr, ptr, ptr }
%"class.std::unordered_map" = type { %"class.std::_Hashtable" }
%"class.std::_Hashtable" = type { ptr, i64, %"struct.std::__detail::_Hash_node_base", i64, %"struct.std::__detail::_Prime_rehash_policy", ptr }
%"struct.std::__detail::_Hash_node_base" = type { ptr }
%"struct.std::__detail::_Prime_rehash_policy" = type { float, i64 }
%"class.duckdb::unique_ptr" = type { %"class.std::unique_ptr" }
%"class.std::unique_ptr" = type { %"struct.std::__uniq_ptr_data" }
%"struct.std::__uniq_ptr_data" = type { %"class.std::__uniq_ptr_impl" }
%"class.std::__uniq_ptr_impl" = type { %"class.std::tuple" }
%"class.std::tuple" = type { %"struct.std::_Tuple_impl" }
%"struct.std::_Tuple_impl" = type { %"struct.std::_Head_base.12" }
%"struct.std::_Head_base.12" = type { ptr }
%"class.duckdb::unique_ptr.13" = type { %"class.std::unique_ptr.14" }
%"class.std::unique_ptr.14" = type { %"struct.std::__uniq_ptr_data.15" }
%"struct.std::__uniq_ptr_data.15" = type { %"class.std::__uniq_ptr_impl.16" }
%"class.std::__uniq_ptr_impl.16" = type { %"class.std::tuple.17" }
%"class.std::tuple.17" = type { %"struct.std::_Tuple_impl.18" }
%"struct.std::_Tuple_impl.18" = type { %"struct.std::_Head_base.21" }
%"struct.std::_Head_base.21" = type { ptr }
%"struct.duckdb::DBConfigOptions" = type { %"class.std::__cxx11::basic_string", %"class.std::__cxx11::basic_string", i8, i64, i8, i8, i8, i8, i64, i64, i64, i8, %"class.std::__cxx11::basic_string", %"class.std::__cxx11::basic_string", i8, i8, i8, i8, i8, i8, i8, i8, i8, %"class.std::set", i8, i8, i32, i8, i32, %"class.std::unordered_map.25", %"class.std::unordered_map.25", %"class.std::__cxx11::basic_string", i8, i8, i8, i8, %"class.std::unordered_map.39", i8, i64, %"class.std::__cxx11::basic_string", %"class.std::__cxx11::basic_string" }
%"class.std::set" = type { %"class.std::_Rb_tree" }
%"class.std::_Rb_tree" = type { %"struct.std::_Rb_tree<duckdb::OptimizerType, duckdb::OptimizerType, std::_Identity<duckdb::OptimizerType>, std::less<duckdb::OptimizerType>>::_Rb_tree_impl" }
%"struct.std::_Rb_tree<duckdb::OptimizerType, duckdb::OptimizerType, std::_Identity<duckdb::OptimizerType>, std::less<duckdb::OptimizerType>>::_Rb_tree_impl" = type { %"struct.std::_Rb_tree_key_compare", %"struct.std::_Rb_tree_header" }
%"struct.std::_Rb_tree_key_compare" = type { %"struct.std::less" }
%"struct.std::less" = type { i8 }
%"struct.std::_Rb_tree_header" = type { %"struct.std::_Rb_tree_node_base", i64 }
%"struct.std::_Rb_tree_node_base" = type { i32, ptr, ptr, ptr }
%"class.std::unordered_map.25" = type { %"class.std::_Hashtable.26" }
%"class.std::_Hashtable.26" = type { ptr, i64, %"struct.std::__detail::_Hash_node_base", i64, %"struct.std::__detail::_Prime_rehash_policy", ptr }
%"class.std::unordered_map.39" = type { %"class.std::_Hashtable.40" }
%"class.std::_Hashtable.40" = type { ptr, i64, %"struct.std::__detail::_Hash_node_base", i64, %"struct.std::__detail::_Prime_rehash_policy", ptr }
%"class.duckdb::vector.51" = type { %"class.std::vector.52" }
%"class.std::vector.52" = type { %"struct.std::_Vector_base.53" }
%"struct.std::_Vector_base.53" = type { %"struct.std::_Vector_base<duckdb::ParserExtension, std::allocator<duckdb::ParserExtension>>::_Vector_impl" }
%"struct.std::_Vector_base<duckdb::ParserExtension, std::allocator<duckdb::ParserExtension>>::_Vector_impl" = type { %"struct.std::_Vector_base<duckdb::ParserExtension, std::allocator<duckdb::ParserExtension>>::_Vector_impl_data" }
%"struct.std::_Vector_base<duckdb::ParserExtension, std::allocator<duckdb::ParserExtension>>::_Vector_impl_data" = type { ptr, ptr, ptr }
%"class.duckdb::vector.57" = type { %"class.std::vector.58" }
%"class.std::vector.58" = type { %"struct.std::_Vector_base.59" }
%"struct.std::_Vector_base.59" = type { %"struct.std::_Vector_base<duckdb::OptimizerExtension, std::allocator<duckdb::OptimizerExtension>>::_Vector_impl" }
%"struct.std::_Vector_base<duckdb::OptimizerExtension, std::allocator<duckdb::OptimizerExtension>>::_Vector_impl" = type { %"struct.std::_Vector_base<duckdb::OptimizerExtension, std::allocator<duckdb::OptimizerExtension>>::_Vector_impl_data" }
%"struct.std::_Vector_base<duckdb::OptimizerExtension, std::allocator<duckdb::OptimizerExtension>>::_Vector_impl_data" = type { ptr, ptr, ptr }
%"class.duckdb::unique_ptr.63" = type { %"class.std::unique_ptr.64" }
%"class.std::unique_ptr.64" = type { %"struct.std::__uniq_ptr_data.65" }
%"struct.std::__uniq_ptr_data.65" = type { %"class.std::__uniq_ptr_impl.66" }
%"class.std::__uniq_ptr_impl.66" = type { %"class.std::tuple.67" }
%"class.std::tuple.67" = type { %"struct.std::_Tuple_impl.68" }
%"struct.std::_Tuple_impl.68" = type { %"struct.std::_Head_base.71" }
%"struct.std::_Head_base.71" = type { ptr }
%"class.std::shared_ptr.72" = type { %"class.std::__shared_ptr.73" }
%"class.std::__shared_ptr.73" = type { ptr, %"class.std::__shared_count" }
%"class.std::__shared_count" = type { ptr }
%"class.duckdb::vector.75" = type { %"class.std::vector.76" }
%"class.std::vector.76" = type { %"struct.std::_Vector_base.77" }
%"struct.std::_Vector_base.77" = type { %"struct.std::_Vector_base<duckdb::unique_ptr<duckdb::OperatorExtension>, std::allocator<duckdb::unique_ptr<duckdb::OperatorExtension>>>::_Vector_impl" }
%"struct.std::_Vector_base<duckdb::unique_ptr<duckdb::OperatorExtension>, std::allocator<duckdb::unique_ptr<duckdb::OperatorExtension>>>::_Vector_impl" = type { %"struct.std::_Vector_base<duckdb::unique_ptr<duckdb::OperatorExtension>, std::allocator<duckdb::unique_ptr<duckdb::OperatorExtension>>>::_Vector_impl_data" }
%"struct.std::_Vector_base<duckdb::unique_ptr<duckdb::OperatorExtension>, std::allocator<duckdb::unique_ptr<duckdb::OperatorExtension>>>::_Vector_impl_data" = type { ptr, ptr, ptr }
%"class.std::unordered_map.81" = type { %"class.std::_Hashtable.82" }
%"class.std::_Hashtable.82" = type { ptr, i64, %"struct.std::__detail::_Hash_node_base", i64, %"struct.std::__detail::_Prime_rehash_policy", ptr }
%"class.std::shared_ptr.95" = type { %"class.std::__shared_ptr.96" }
%"class.std::__shared_ptr.96" = type { ptr, %"class.std::__shared_count" }
%"class.duckdb::vector.98" = type { %"class.std::vector.99" }
%"class.std::vector.99" = type { %"struct.std::_Vector_base.100" }
%"struct.std::_Vector_base.100" = type { %"struct.std::_Vector_base<duckdb::unique_ptr<duckdb::ExtensionCallback>, std::allocator<duckdb::unique_ptr<duckdb::ExtensionCallback>>>::_Vector_impl" }
%"struct.std::_Vector_base<duckdb::unique_ptr<duckdb::ExtensionCallback>, std::allocator<duckdb::unique_ptr<duckdb::ExtensionCallback>>>::_Vector_impl" = type { %"struct.std::_Vector_base<duckdb::unique_ptr<duckdb::ExtensionCallback>, std::allocator<duckdb::unique_ptr<duckdb::ExtensionCallback>>>::_Vector_impl_data" }
%"struct.std::_Vector_base<duckdb::unique_ptr<duckdb::ExtensionCallback>, std::allocator<duckdb::unique_ptr<duckdb::ExtensionCallback>>>::_Vector_impl_data" = type { ptr, ptr, ptr }
%"class.duckdb::unique_ptr.104" = type { %"class.std::unique_ptr.105" }
%"class.std::unique_ptr.105" = type { %"struct.std::__uniq_ptr_data.106" }
%"struct.std::__uniq_ptr_data.106" = type { %"class.std::__uniq_ptr_impl.107" }
%"class.std::__uniq_ptr_impl.107" = type { %"class.std::tuple.108" }
%"class.std::tuple.108" = type { %"struct.std::_Tuple_impl.109" }
%"struct.std::_Tuple_impl.109" = type { %"struct.std::_Head_base.112" }
%"struct.std::_Head_base.112" = type { ptr }
%"class.duckdb::unique_ptr.113" = type { %"class.std::unique_ptr.114" }
%"class.std::unique_ptr.114" = type { %"struct.std::__uniq_ptr_data.115" }
%"struct.std::__uniq_ptr_data.115" = type { %"class.std::__uniq_ptr_impl.116" }
%"class.std::__uniq_ptr_impl.116" = type { %"class.std::tuple.117" }
%"class.std::tuple.117" = type { %"struct.std::_Tuple_impl.118" }
%"struct.std::_Tuple_impl.118" = type { %"struct.std::_Head_base.121" }
%"struct.std::_Head_base.121" = type { ptr }
%"class.duckdb::Value" = type { %"struct.duckdb::LogicalType", i8, %"union.duckdb::Value::Val", %"class.std::shared_ptr.0" }
%"struct.duckdb::LogicalType" = type { i8, i8, %"class.std::shared_ptr" }
%"class.std::shared_ptr" = type { %"class.std::__shared_ptr" }
%"class.std::__shared_ptr" = type { ptr, %"class.std::__shared_count" }
%"union.duckdb::Value::Val" = type { %"struct.duckdb::hugeint_t" }
%"struct.duckdb::hugeint_t" = type { i64, i64 }
%"class.std::shared_ptr.0" = type { %"class.std::__shared_ptr.1" }
%"class.std::__shared_ptr.1" = type { ptr, %"class.std::__shared_count" }
%"class.duckdb::Exception" = type { %"class.std::exception", i32, %"class.std::__cxx11::basic_string", %"class.std::__cxx11::basic_string" }
%"class.std::exception" = type { ptr }
%"class.duckdb::ClientContext" = type { %"class.std::enable_shared_from_this", %"class.std::shared_ptr.122", %"struct.std::atomic", %"class.std::unordered_map.125", %"class.std::unordered_map.139", %"struct.duckdb::ClientConfig", %"class.duckdb::unique_ptr.154", %"class.duckdb::TransactionContext", %"class.std::mutex", %"class.duckdb::unique_ptr.172", %"struct.duckdb::QueryProgress" }
%"class.std::enable_shared_from_this" = type { %"class.std::weak_ptr" }
%"class.std::weak_ptr" = type { %"class.std::__weak_ptr" }
%"class.std::__weak_ptr" = type { ptr, %"class.std::__weak_count" }
%"class.std::__weak_count" = type { ptr }
%"class.std::shared_ptr.122" = type { %"class.std::__shared_ptr.123" }
%"class.std::__shared_ptr.123" = type { ptr, %"class.std::__shared_count" }
%"struct.std::atomic" = type { %"struct.std::__atomic_base" }
%"struct.std::__atomic_base" = type { i8 }
%"class.std::unordered_map.125" = type { %"class.std::_Hashtable.126" }
%"class.std::_Hashtable.126" = type { ptr, i64, %"struct.std::__detail::_Hash_node_base", i64, %"struct.std::__detail::_Prime_rehash_policy", ptr }
%"class.std::unordered_map.139" = type { %"class.std::_Hashtable.140" }
%"class.std::_Hashtable.140" = type { ptr, i64, %"struct.std::__detail::_Hash_node_base", i64, %"struct.std::__detail::_Prime_rehash_policy", ptr }
%"struct.duckdb::ClientConfig" = type { %"class.std::__cxx11::basic_string", i8, i8, i8, %"class.std::__cxx11::basic_string", i8, ptr, i8, i8, i32, i8, i64, i8, i8, i8, i8, i8, i8, i8, i8, i8, i8, i8, i64, i64, ptr, %"class.std::__cxx11::basic_string", %"class.std::__cxx11::basic_string", i8, i64, i64, i8, %"class.std::unordered_map.25", %"class.std::function" }
%"class.std::function" = type { %"class.std::_Function_base", ptr }
%"class.std::_Function_base" = type { %"union.std::_Any_data", ptr }
%"union.std::_Any_data" = type { %"union.std::_Nocopy_types" }
%"union.std::_Nocopy_types" = type { { i64, i64 } }
%"class.duckdb::unique_ptr.154" = type { %"class.std::unique_ptr.155" }
%"class.std::unique_ptr.155" = type { %"struct.std::__uniq_ptr_data.156" }
%"struct.std::__uniq_ptr_data.156" = type { %"class.std::__uniq_ptr_impl.157" }
%"class.std::__uniq_ptr_impl.157" = type { %"class.std::tuple.158" }
%"class.std::tuple.158" = type { %"struct.std::_Tuple_impl.159" }
%"struct.std::_Tuple_impl.159" = type { %"struct.std::_Head_base.162" }
%"struct.std::_Head_base.162" = type { ptr }
%"class.duckdb::TransactionContext" = type { ptr, i8, %"class.duckdb::unique_ptr.163" }
%"class.duckdb::unique_ptr.163" = type { %"class.std::unique_ptr.164" }
%"class.std::unique_ptr.164" = type { %"struct.std::__uniq_ptr_data.165" }
%"struct.std::__uniq_ptr_data.165" = type { %"class.std::__uniq_ptr_impl.166" }
%"class.std::__uniq_ptr_impl.166" = type { %"class.std::tuple.167" }
%"class.std::tuple.167" = type { %"struct.std::_Tuple_impl.168" }
%"struct.std::_Tuple_impl.168" = type { %"struct.std::_Head_base.171" }
%"struct.std::_Head_base.171" = type { ptr }
%"class.duckdb::unique_ptr.172" = type { %"class.std::unique_ptr.173" }
%"class.std::unique_ptr.173" = type { %"struct.std::__uniq_ptr_data.174" }
%"struct.std::__uniq_ptr_data.174" = type { %"class.std::__uniq_ptr_impl.175" }
%"class.std::__uniq_ptr_impl.175" = type { %"class.std::tuple.176" }
%"class.std::tuple.176" = type { %"struct.std::_Tuple_impl.177" }
%"struct.std::_Tuple_impl.177" = type { %"struct.std::_Head_base.180" }
%"struct.std::_Head_base.180" = type { ptr }
%"struct.duckdb::QueryProgress" = type { %"struct.std::atomic.181", %"struct.std::atomic.182", %"struct.std::atomic.182" }
%"struct.std::atomic.181" = type { double }
%"struct.std::atomic.182" = type { %"struct.std::__atomic_base.183" }
%"struct.std::__atomic_base.183" = type { i64 }
%"class.duckdb::vector.245" = type { %"class.std::vector.246" }
%"class.std::vector.246" = type { %"struct.std::_Vector_base.247" }
%"struct.std::_Vector_base.247" = type { %"struct.std::_Vector_base<std::__cxx11::basic_string<char>, std::allocator<std::__cxx11::basic_string<char>>>::_Vector_impl" }
%"struct.std::_Vector_base<std::__cxx11::basic_string<char>, std::allocator<std::__cxx11::basic_string<char>>>::_Vector_impl" = type { %"struct.std::_Vector_base<std::__cxx11::basic_string<char>, std::allocator<std::__cxx11::basic_string<char>>>::_Vector_impl_data" }
%"struct.std::_Vector_base<std::__cxx11::basic_string<char>, std::allocator<std::__cxx11::basic_string<char>>>::_Vector_impl_data" = type { ptr, ptr, ptr }
%"struct.std::_Rb_tree_node" = type <{ %"struct.std::_Rb_tree_node_base", %"struct.__gnu_cxx::__aligned_membuf", [4 x i8] }>
%"struct.__gnu_cxx::__aligned_membuf" = type { [4 x i8] }
%"struct.duckdb::ClientData" = type { %"class.std::shared_ptr.251", %"class.duckdb::unique_ptr.254", %"class.std::shared_ptr.263", %"class.std::unordered_map.266", %"class.duckdb::unique_ptr.280", %"class.duckdb::unique_ptr.289", %"class.duckdb::unique_ptr.298", %"class.duckdb::unique_ptr.307", %"class.std::shared_ptr.316", %"class.duckdb::unique_ptr", %"class.std::__cxx11::basic_string", i8, i64 }
%"class.std::shared_ptr.251" = type { %"class.std::__shared_ptr.252" }
%"class.std::__shared_ptr.252" = type { ptr, %"class.std::__shared_count" }
%"class.duckdb::unique_ptr.254" = type { %"class.std::unique_ptr.255" }
%"class.std::unique_ptr.255" = type { %"struct.std::__uniq_ptr_data.256" }
%"struct.std::__uniq_ptr_data.256" = type { %"class.std::__uniq_ptr_impl.257" }
%"class.std::__uniq_ptr_impl.257" = type { %"class.std::tuple.258" }
%"class.std::tuple.258" = type { %"struct.std::_Tuple_impl.259" }
%"struct.std::_Tuple_impl.259" = type { %"struct.std::_Head_base.262" }
%"struct.std::_Head_base.262" = type { ptr }
%"class.std::shared_ptr.263" = type { %"class.std::__shared_ptr.264" }
%"class.std::__shared_ptr.264" = type { ptr, %"class.std::__shared_count" }
%"class.std::unordered_map.266" = type { %"class.std::_Hashtable.267" }
%"class.std::_Hashtable.267" = type { ptr, i64, %"struct.std::__detail::_Hash_node_base", i64, %"struct.std::__detail::_Prime_rehash_policy", ptr }
%"class.duckdb::unique_ptr.280" = type { %"class.std::unique_ptr.281" }
%"class.std::unique_ptr.281" = type { %"struct.std::__uniq_ptr_data.282" }
%"struct.std::__uniq_ptr_data.282" = type { %"class.std::__uniq_ptr_impl.283" }
%"class.std::__uniq_ptr_impl.283" = type { %"class.std::tuple.284" }
%"class.std::tuple.284" = type { %"struct.std::_Tuple_impl.285" }
%"struct.std::_Tuple_impl.285" = type { %"struct.std::_Head_base.288" }
%"struct.std::_Head_base.288" = type { ptr }
%"class.duckdb::unique_ptr.289" = type { %"class.std::unique_ptr.290" }
%"class.std::unique_ptr.290" = type { %"struct.std::__uniq_ptr_data.291" }
%"struct.std::__uniq_ptr_data.291" = type { %"class.std::__uniq_ptr_impl.292" }
%"class.std::__uniq_ptr_impl.292" = type { %"class.std::tuple.293" }
%"class.std::tuple.293" = type { %"struct.std::_Tuple_impl.294" }
%"struct.std::_Tuple_impl.294" = type { %"struct.std::_Head_base.297" }
%"struct.std::_Head_base.297" = type { ptr }
%"class.duckdb::unique_ptr.298" = type { %"class.std::unique_ptr.299" }
%"class.std::unique_ptr.299" = type { %"struct.std::__uniq_ptr_data.300" }
%"struct.std::__uniq_ptr_data.300" = type { %"class.std::__uniq_ptr_impl.301" }
%"class.std::__uniq_ptr_impl.301" = type { %"class.std::tuple.302" }
%"class.std::tuple.302" = type { %"struct.std::_Tuple_impl.303" }
%"struct.std::_Tuple_impl.303" = type { %"struct.std::_Head_base.306" }
%"struct.std::_Head_base.306" = type { ptr }
%"class.duckdb::unique_ptr.307" = type { %"class.std::unique_ptr.308" }
%"class.std::unique_ptr.308" = type { %"struct.std::__uniq_ptr_data.309" }
%"struct.std::__uniq_ptr_data.309" = type { %"class.std::__uniq_ptr_impl.310" }
%"class.std::__uniq_ptr_impl.310" = type { %"class.std::tuple.311" }
%"class.std::tuple.311" = type { %"struct.std::_Tuple_impl.312" }
%"struct.std::_Tuple_impl.312" = type { %"struct.std::_Head_base.315" }
%"struct.std::_Head_base.315" = type { ptr }
%"class.std::shared_ptr.316" = type { %"class.std::__shared_ptr.317" }
%"class.std::__shared_ptr.317" = type { ptr, %"class.std::__shared_count" }
%"class.duckdb::DatabaseInstance" = type { %"class.std::enable_shared_from_this.184", %"struct.duckdb::DBConfig", %"class.duckdb::unique_ptr.187", %"class.duckdb::unique_ptr.196", %"class.duckdb::unique_ptr.205", %"class.duckdb::unique_ptr.214", %"class.duckdb::unique_ptr.223", %"class.std::unordered_set", %"class.duckdb::ValidChecker" }
%"class.std::enable_shared_from_this.184" = type { %"class.std::weak_ptr.185" }
%"class.std::weak_ptr.185" = type { %"class.std::__weak_ptr.186" }
%"class.std::__weak_ptr.186" = type { ptr, %"class.std::__weak_count" }
%"class.duckdb::unique_ptr.187" = type { %"class.std::unique_ptr.188" }
%"class.std::unique_ptr.188" = type { %"struct.std::__uniq_ptr_data.189" }
%"struct.std::__uniq_ptr_data.189" = type { %"class.std::__uniq_ptr_impl.190" }
%"class.std::__uniq_ptr_impl.190" = type { %"class.std::tuple.191" }
%"class.std::tuple.191" = type { %"struct.std::_Tuple_impl.192" }
%"struct.std::_Tuple_impl.192" = type { %"struct.std::_Head_base.195" }
%"struct.std::_Head_base.195" = type { ptr }
%"class.duckdb::unique_ptr.196" = type { %"class.std::unique_ptr.197" }
%"class.std::unique_ptr.197" = type { %"struct.std::__uniq_ptr_data.198" }
%"struct.std::__uniq_ptr_data.198" = type { %"class.std::__uniq_ptr_impl.199" }
%"class.std::__uniq_ptr_impl.199" = type { %"class.std::tuple.200" }
%"class.std::tuple.200" = type { %"struct.std::_Tuple_impl.201" }
%"struct.std::_Tuple_impl.201" = type { %"struct.std::_Head_base.204" }
%"struct.std::_Head_base.204" = type { ptr }
%"class.duckdb::unique_ptr.205" = type { %"class.std::unique_ptr.206" }
%"class.std::unique_ptr.206" = type { %"struct.std::__uniq_ptr_data.207" }
%"struct.std::__uniq_ptr_data.207" = type { %"class.std::__uniq_ptr_impl.208" }
%"class.std::__uniq_ptr_impl.208" = type { %"class.std::tuple.209" }
%"class.std::tuple.209" = type { %"struct.std::_Tuple_impl.210" }
%"struct.std::_Tuple_impl.210" = type { %"struct.std::_Head_base.213" }
%"struct.std::_Head_base.213" = type { ptr }
%"class.duckdb::unique_ptr.214" = type { %"class.std::unique_ptr.215" }
%"class.std::unique_ptr.215" = type { %"struct.std::__uniq_ptr_data.216" }
%"struct.std::__uniq_ptr_data.216" = type { %"class.std::__uniq_ptr_impl.217" }
%"class.std::__uniq_ptr_impl.217" = type { %"class.std::tuple.218" }
%"class.std::tuple.218" = type { %"struct.std::_Tuple_impl.219" }
%"struct.std::_Tuple_impl.219" = type { %"struct.std::_Head_base.222" }
%"struct.std::_Head_base.222" = type { ptr }
%"class.duckdb::unique_ptr.223" = type { %"class.std::unique_ptr.224" }
%"class.std::unique_ptr.224" = type { %"struct.std::__uniq_ptr_data.225" }
%"struct.std::__uniq_ptr_data.225" = type { %"class.std::__uniq_ptr_impl.226" }
%"class.std::__uniq_ptr_impl.226" = type { %"class.std::tuple.227" }
%"class.std::tuple.227" = type { %"struct.std::_Tuple_impl.228" }
%"struct.std::_Tuple_impl.228" = type { %"struct.std::_Head_base.231" }
%"struct.std::_Head_base.231" = type { ptr }
%"class.std::unordered_set" = type { %"class.std::_Hashtable.232" }
%"class.std::_Hashtable.232" = type { ptr, i64, %"struct.std::__detail::_Hash_node_base", i64, %"struct.std::__detail::_Prime_rehash_policy", ptr }
%"class.duckdb::ValidChecker" = type { %"class.std::mutex", %"struct.std::atomic", %"class.std::__cxx11::basic_string" }
%"class.duckdb::BufferedFileWriter" = type { %"class.duckdb::WriteStream", ptr, %"class.std::__cxx11::basic_string", %"class.duckdb::unique_ptr.319", i64, i64, %"class.duckdb::unique_ptr.328" }
%"class.duckdb::WriteStream" = type { ptr }
%"class.duckdb::unique_ptr.319" = type { %"class.std::unique_ptr.320" }
%"class.std::unique_ptr.320" = type { %"struct.std::__uniq_ptr_data.321" }
%"struct.std::__uniq_ptr_data.321" = type { %"class.std::__uniq_ptr_impl.322" }
%"class.std::__uniq_ptr_impl.322" = type { %"class.std::tuple.323" }
%"class.std::tuple.323" = type { %"struct.std::_Tuple_impl.324" }
%"struct.std::_Tuple_impl.324" = type { %"struct.std::_Head_base.327" }
%"struct.std::_Head_base.327" = type { ptr }
%"class.duckdb::unique_ptr.328" = type { %"class.std::unique_ptr.329" }
%"class.std::unique_ptr.329" = type { %"struct.std::__uniq_ptr_data.330" }
%"struct.std::__uniq_ptr_data.330" = type { %"class.std::__uniq_ptr_impl.331" }
%"class.std::__uniq_ptr_impl.331" = type { %"class.std::tuple.332" }
%"class.std::tuple.332" = type { %"struct.std::_Tuple_impl.333" }
%"struct.std::_Tuple_impl.333" = type { %"struct.std::_Head_base.336" }
%"struct.std::_Head_base.336" = type { ptr }
%"class.duckdb::QueryProfilerHistory" = type { %"class.std::deque", i64 }
%"class.std::deque" = type { %"class.std::_Deque_base" }
%"class.std::_Deque_base" = type { %"struct.std::_Deque_base<std::pair<unsigned long, std::shared_ptr<duckdb::QueryProfiler>>, std::allocator<std::pair<unsigned long, std::shared_ptr<duckdb::QueryProfiler>>>>::_Deque_impl" }
%"struct.std::_Deque_base<std::pair<unsigned long, std::shared_ptr<duckdb::QueryProfiler>>, std::allocator<std::pair<unsigned long, std::shared_ptr<duckdb::QueryProfiler>>>>::_Deque_impl" = type { %"struct.std::_Deque_base<std::pair<unsigned long, std::shared_ptr<duckdb::QueryProfiler>>, std::allocator<std::pair<unsigned long, std::shared_ptr<duckdb::QueryProfiler>>>>::_Deque_impl_data" }
%"struct.std::_Deque_base<std::pair<unsigned long, std::shared_ptr<duckdb::QueryProfiler>>, std::allocator<std::pair<unsigned long, std::shared_ptr<duckdb::QueryProfiler>>>>::_Deque_impl_data" = type { ptr, i64, %"struct.std::_Deque_iterator", %"struct.std::_Deque_iterator" }
%"struct.std::_Deque_iterator" = type { ptr, ptr, ptr, ptr }
%"struct.duckdb::CatalogSearchEntry" = type { %"class.std::__cxx11::basic_string", %"class.std::__cxx11::basic_string" }
%"class.duckdb::vector.340" = type { %"class.std::vector.341" }
%"class.std::vector.341" = type { %"struct.std::_Vector_base.342" }
%"struct.std::_Vector_base.342" = type { %"struct.std::_Vector_base<duckdb::CatalogSearchEntry, std::allocator<duckdb::CatalogSearchEntry>>::_Vector_impl" }
%"struct.std::_Vector_base<duckdb::CatalogSearchEntry, std::allocator<duckdb::CatalogSearchEntry>>::_Vector_impl" = type { %"struct.std::_Vector_base<duckdb::CatalogSearchEntry, std::allocator<duckdb::CatalogSearchEntry>>::_Vector_impl_data" }
%"struct.std::_Vector_base<duckdb::CatalogSearchEntry, std::allocator<duckdb::CatalogSearchEntry>>::_Vector_impl_data" = type { ptr, ptr, ptr }
%"class.duckdb::CatalogSearchPath" = type { ptr, %"class.duckdb::vector.340", %"class.duckdb::vector.340" }
%"class.std::vector.373" = type { %"struct.std::_Vector_base.374" }
%"struct.std::_Vector_base.374" = type { %"struct.std::_Vector_base<duckdb::ExceptionFormatValue, std::allocator<duckdb::ExceptionFormatValue>>::_Vector_impl" }
%"struct.std::_Vector_base<duckdb::ExceptionFormatValue, std::allocator<duckdb::ExceptionFormatValue>>::_Vector_impl" = type { %"struct.std::_Vector_base<duckdb::ExceptionFormatValue, std::allocator<duckdb::ExceptionFormatValue>>::_Vector_impl_data" }
%"struct.std::_Vector_base<duckdb::ExceptionFormatValue, std::allocator<duckdb::ExceptionFormatValue>>::_Vector_impl_data" = type { ptr, ptr, ptr }
%"struct.duckdb::ExceptionFormatValue" = type { i8, double, i64, %"class.std::__cxx11::basic_string" }

$_ZN6duckdb21InvalidInputExceptionC2IJNSt7__cxx1112basic_stringIcSt11char_traitsIcESaIcEEEEEERKS7_DpT_ = comdat any

$_ZN6duckdb9ExceptionD2Ev = comdat any

$_ZN6duckdb12ClientConfigD2Ev = comdat any

$_ZN6duckdb15ParserExceptionC2IJNSt7__cxx1112basic_stringIcSt11char_traitsIcESaIcEEEEEERKS7_DpT_ = comdat any

$_ZNSt6vectorINSt7__cxx1112basic_stringIcSt11char_traitsIcESaIcEEESaIS5_EED2Ev = comdat any

$_ZNSt3setIN6duckdb13OptimizerTypeESt4lessIS1_ESaIS1_EED2Ev = comdat any

$_ZNK6duckdb10unique_ptrINS_18BufferedFileWriterESt14default_deleteIS1_ELb1EEptEv = comdat any

$_ZNK6duckdb10unique_ptrINS_20QueryProfilerHistoryESt14default_deleteIS1_ELb1EEptEv = comdat any

$_ZNK6duckdb10unique_ptrINS_17CatalogSearchPathESt14default_deleteIS1_ELb1EEptEv = comdat any

$_ZN6duckdb18CatalogSearchEntryD2Ev = comdat any

$_ZNSt6vectorIN6duckdb18CatalogSearchEntryESaIS1_EED2Ev = comdat any

$_ZStplIcSt11char_traitsIcESaIcEENSt7__cxx1112basic_stringIT_T0_T1_EEPKS5_RKS8_ = comdat any

$__clang_call_terminate = comdat any

$_ZNSt8_Rb_treeIN6duckdb13OptimizerTypeES1_St9_IdentityIS1_ESt4lessIS1_ESaIS1_EE8_M_eraseEPSt13_Rb_tree_nodeIS1_E = comdat any

$_ZN6duckdb9Exception16ConstructMessageIJNSt7__cxx1112basic_stringIcSt11char_traitsIcESaIcEEEEEES7_RKS7_DpT_ = comdat any

$_ZN6duckdb9Exception25ConstructMessageRecursiveINSt7__cxx1112basic_stringIcSt11char_traitsIcESaIcEEEJEEES7_RKS7_RSt6vectorINS_20ExceptionFormatValueESaISB_EET_DpT0_ = comdat any

$_ZNSt6vectorIN6duckdb20ExceptionFormatValueESaIS1_EED2Ev = comdat any

$_ZNSt6vectorIN6duckdb20ExceptionFormatValueESaIS1_EE17_M_realloc_insertIJS1_EEEvN9__gnu_cxx17__normal_iteratorIPS1_S3_EEDpOT_ = comdat any

$_ZTSN6duckdb21InvalidInputExceptionE = comdat any

$_ZTIN6duckdb21InvalidInputExceptionE = comdat any

$_ZTSN6duckdb17InternalExceptionE = comdat any

$_ZTSN6duckdb14FatalExceptionE = comdat any

$_ZTIN6duckdb14FatalExceptionE = comdat any

$_ZTIN6duckdb17InternalExceptionE = comdat any

$_ZTSN6duckdb15ParserExceptionE = comdat any

$_ZTSN6duckdb17StandardExceptionE = comdat any

$_ZTIN6duckdb17StandardExceptionE = comdat any

$_ZTIN6duckdb15ParserExceptionE = comdat any

@_ZStL8__ioinit = internal global %"class.std::ios_base::Init" zeroinitializer, align 1
@__dso_handle = external hidden global i8
@.str = private unnamed_addr constant [116 x i8] c"Cannot change access_mode setting while database is running - it must be set when opening or attaching the database\00", align 1
@_ZTVN10__cxxabiv120__si_class_type_infoE = external global [0 x ptr]
@_ZTSN6duckdb21InvalidInputExceptionE = linkonce_odr constant [33 x i8] c"N6duckdb21InvalidInputExceptionE\00", comdat, align 1
@_ZTIN6duckdb9ExceptionE = external constant ptr
@_ZTIN6duckdb21InvalidInputExceptionE = linkonce_odr constant { ptr, ptr, ptr } { ptr getelementptr inbounds (ptr, ptr @_ZTVN10__cxxabiv120__si_class_type_infoE, i64 2), ptr @_ZTSN6duckdb21InvalidInputExceptionE, ptr @_ZTIN6duckdb9ExceptionE }, comdat, align 8
@.str.1 = private unnamed_addr constant [10 x i8] c"automatic\00", align 1
@.str.2 = private unnamed_addr constant [10 x i8] c"read_only\00", align 1
@.str.3 = private unnamed_addr constant [11 x i8] c"read_write\00", align 1
@.str.4 = private unnamed_addr constant [86 x i8] c"Unrecognized parameter for option ACCESS_MODE \22%s\22. Expected READ_ONLY or READ_WRITE.\00", align 1
@.str.5 = private unnamed_addr constant [28 x i8] c"Unknown access mode setting\00", align 1
@_ZTSN6duckdb17InternalExceptionE = linkonce_odr constant [29 x i8] c"N6duckdb17InternalExceptionE\00", comdat, align 1
@_ZTSN6duckdb14FatalExceptionE = linkonce_odr constant [26 x i8] c"N6duckdb14FatalExceptionE\00", comdat, align 1
@_ZTIN6duckdb14FatalExceptionE = linkonce_odr constant { ptr, ptr, ptr } { ptr getelementptr inbounds (ptr, ptr @_ZTVN10__cxxabiv120__si_class_type_infoE, i64 2), ptr @_ZTSN6duckdb14FatalExceptionE, ptr @_ZTIN6duckdb9ExceptionE }, comdat, align 8
@_ZTIN6duckdb17InternalExceptionE = linkonce_odr constant { ptr, ptr, ptr } { ptr getelementptr inbounds (ptr, ptr @_ZTVN10__cxxabiv120__si_class_type_infoE, i64 2), ptr @_ZTSN6duckdb17InternalExceptionE, ptr @_ZTIN6duckdb14FatalExceptionE }, comdat, align 8
@.str.6 = private unnamed_addr constant [5 x i8] c"none\00", align 1
@.str.7 = private unnamed_addr constant [16 x i8] c"before_truncate\00", align 1
@.str.8 = private unnamed_addr constant [14 x i8] c"before_header\00", align 1
@.str.9 = private unnamed_addr constant [22 x i8] c"after_free_list_write\00", align 1
@.str.10 = private unnamed_addr constant [103 x i8] c"Unrecognized option for PRAGMA debug_checkpoint_abort, expected none, before_truncate or before_header\00", align 1
@_ZTSN6duckdb15ParserExceptionE = linkonce_odr constant [27 x i8] c"N6duckdb15ParserExceptionE\00", comdat, align 1
@_ZTSN6duckdb17StandardExceptionE = linkonce_odr constant [29 x i8] c"N6duckdb17StandardExceptionE\00", comdat, align 1
@_ZTIN6duckdb17StandardExceptionE = linkonce_odr constant { ptr, ptr, ptr } { ptr getelementptr inbounds (ptr, ptr @_ZTVN10__cxxabiv120__si_class_type_infoE, i64 2), ptr @_ZTSN6duckdb17StandardExceptionE, ptr @_ZTIN6duckdb9ExceptionE }, comdat, align 8
@_ZTIN6duckdb15ParserExceptionE = linkonce_odr constant { ptr, ptr, ptr } { ptr getelementptr inbounds (ptr, ptr @_ZTVN10__cxxabiv120__si_class_type_infoE, i64 2), ptr @_ZTSN6duckdb15ParserExceptionE, ptr @_ZTIN6duckdb17StandardExceptionE }, comdat, align 8
@.str.11 = private unnamed_addr constant [41 x i8] c"Type not implemented for CheckpointAbort\00", align 1
@.str.12 = private unnamed_addr constant [78 x i8] c"Invalid option for PRAGMA ordered_aggregate_threshold, value must be positive\00", align 1
@.str.13 = private unnamed_addr constant [7 x i8] c"window\00", align 1
@.str.14 = private unnamed_addr constant [8 x i8] c"combine\00", align 1
@.str.15 = private unnamed_addr constant [9 x i8] c"separate\00", align 1
@.str.16 = private unnamed_addr constant [87 x i8] c"Unrecognized option for PRAGMA debug_window_mode, expected window, combine or separate\00", align 1
@.str.17 = private unnamed_addr constant [10 x i8] c"ascending\00", align 1
@.str.18 = private unnamed_addr constant [4 x i8] c"asc\00", align 1
@.str.19 = private unnamed_addr constant [11 x i8] c"descending\00", align 1
@.str.20 = private unnamed_addr constant [5 x i8] c"desc\00", align 1
@.str.21 = private unnamed_addr constant [76 x i8] c"Unrecognized parameter for option DEFAULT_ORDER \22%s\22. Expected ASC or DESC.\00", align 1
@.str.22 = private unnamed_addr constant [27 x i8] c"Unknown order type setting\00", align 1
@.str.23 = private unnamed_addr constant [12 x i8] c"nulls_first\00", align 1
@.str.24 = private unnamed_addr constant [12 x i8] c"nulls first\00", align 1
@.str.25 = private unnamed_addr constant [11 x i8] c"null first\00", align 1
@.str.26 = private unnamed_addr constant [6 x i8] c"first\00", align 1
@.str.27 = private unnamed_addr constant [11 x i8] c"nulls_last\00", align 1
@.str.28 = private unnamed_addr constant [11 x i8] c"nulls last\00", align 1
@.str.29 = private unnamed_addr constant [10 x i8] c"null last\00", align 1
@.str.30 = private unnamed_addr constant [5 x i8] c"last\00", align 1
@.str.31 = private unnamed_addr constant [32 x i8] c"nulls_first_on_asc_last_on_desc\00", align 1
@.str.32 = private unnamed_addr constant [7 x i8] c"sqlite\00", align 1
@.str.33 = private unnamed_addr constant [6 x i8] c"mysql\00", align 1
@.str.34 = private unnamed_addr constant [32 x i8] c"nulls_last_on_asc_first_on_desc\00", align 1
@.str.35 = private unnamed_addr constant [9 x i8] c"postgres\00", align 1
@.str.36 = private unnamed_addr constant [118 x i8] c"Unrecognized parameter for option NULL_ORDER \22%s\22, expected either NULLS FIRST, NULLS LAST, SQLite, MySQL or Postgres\00", align 1
@.str.37 = private unnamed_addr constant [27 x i8] c"Unknown null order setting\00", align 1
@.str.38 = private unnamed_addr constant [59 x i8] c"disabled_filesystems can only be set in an active database\00", align 1
@.str.39 = private unnamed_addr constant [2 x i8] c",\00", align 1
@.str.40 = private unnamed_addr constant [1 x i8] zeroinitializer, align 1
@.str.41 = private unnamed_addr constant [71 x i8] c"Cannot change enable_external_access setting while database is running\00", align 1
@.str.42 = private unnamed_addr constant [74 x i8] c"Cannot change allow_unsigned_extensions setting while database is running\00", align 1
@.str.43 = private unnamed_addr constant [5 x i8] c"json\00", align 1
@.str.44 = private unnamed_addr constant [11 x i8] c"query_tree\00", align 1
@.str.45 = private unnamed_addr constant [21 x i8] c"query_tree_optimizer\00", align 1
@.str.46 = private unnamed_addr constant [90 x i8] c"Unrecognized print format %s, supported formats: [json, query_tree, query_tree_optimizer]\00", align 1
@.str.47 = private unnamed_addr constant [34 x i8] c"Unsupported profiler print format\00", align 1
@.str.48 = private unnamed_addr constant [4 x i8] c"all\00", align 1
@.str.49 = private unnamed_addr constant [15 x i8] c"optimized_only\00", align 1
@.str.50 = private unnamed_addr constant [14 x i8] c"physical_only\00", align 1
@.str.51 = private unnamed_addr constant [84 x i8] c"Unrecognized output type \22%s\22, expected either ALL, OPTIMIZED_ONLY or PHYSICAL_ONLY\00", align 1
@.str.52 = private unnamed_addr constant [33 x i8] c"Unrecognized explain output type\00", align 1
@.str.53 = private unnamed_addr constant [5 x i8] c"auto\00", align 1
@.str.54 = private unnamed_addr constant [3 x i8] c", \00", align 1
@.str.55 = private unnamed_addr constant [62 x i8] c"Unrecognized option for PRAGMA force_compression, expected %s\00", align 1
@.str.56 = private unnamed_addr constant [106 x i8] c"Unrecognized option for force_bitpacking_mode, expected none, constant, constant_delta, delta_for, or for\00", align 1
@.str.57 = private unnamed_addr constant [65 x i8] c"Perfect HT threshold out of range: should be within range 0 - 32\00", align 1
@.str.58 = private unnamed_addr constant [20 x i8] c"Size should be >= 0\00", align 1
@.str.59 = private unnamed_addr constant [9 x i8] c"standard\00", align 1
@.str.60 = private unnamed_addr constant [9 x i8] c"detailed\00", align 1
@.str.61 = private unnamed_addr constant [74 x i8] c"Unrecognized profiling mode \22%s\22, supported formats: [standard, detailed]\00", align 1
@.str.62 = private unnamed_addr constant [59 x i8] c"Cannot change duckdb_api setting while database is running\00", align 1
@.str.63 = private unnamed_addr constant [2 x i8] c" \00", align 1
@.str.64 = private unnamed_addr constant [66 x i8] c"Cannot change custom_user_agent setting while database is running\00", align 1
@_ZTVN6duckdb9ExceptionE = external unnamed_addr constant { [6 x ptr] }, align 8
@.str.65 = private unnamed_addr constant [21 x i8] c"basic_string::append\00", align 1
@.str.67 = private unnamed_addr constant [26 x i8] c"vector::_M_realloc_insert\00", align 1
@.str.68 = private unnamed_addr constant [50 x i8] c"Attempted to dereference unique_ptr that is NULL!\00", align 1
@llvm.global_ctors = appending global [1 x { i32, ptr, ptr }] [{ i32, ptr, ptr } { i32 65535, ptr @_GLOBAL__sub_I_ub_duckdb_main_settings.cpp, ptr null }]
@reltable._ZN6duckdb17AccessModeSetting10GetSettingERNS_13ClientContextE = private unnamed_addr constant [3 x i32] [i32 trunc (i64 sub (i64 ptrtoint (ptr @.str.1 to i64), i64 ptrtoint (ptr @reltable._ZN6duckdb17AccessModeSetting10GetSettingERNS_13ClientContextE to i64)) to i32), i32 trunc (i64 sub (i64 ptrtoint (ptr @.str.2 to i64), i64 ptrtoint (ptr @reltable._ZN6duckdb17AccessModeSetting10GetSettingERNS_13ClientContextE to i64)) to i32), i32 trunc (i64 sub (i64 ptrtoint (ptr @.str.3 to i64), i64 ptrtoint (ptr @reltable._ZN6duckdb17AccessModeSetting10GetSettingERNS_13ClientContextE to i64)) to i32)], align 4
@reltable._ZN6duckdb20DebugCheckpointAbort10GetSettingERNS_13ClientContextE = private unnamed_addr constant [4 x i32] [i32 trunc (i64 sub (i64 ptrtoint (ptr @.str.6 to i64), i64 ptrtoint (ptr @reltable._ZN6duckdb20DebugCheckpointAbort10GetSettingERNS_13ClientContextE to i64)) to i32), i32 trunc (i64 sub (i64 ptrtoint (ptr @.str.7 to i64), i64 ptrtoint (ptr @reltable._ZN6duckdb20DebugCheckpointAbort10GetSettingERNS_13ClientContextE to i64)) to i32), i32 trunc (i64 sub (i64 ptrtoint (ptr @.str.8 to i64), i64 ptrtoint (ptr @reltable._ZN6duckdb20DebugCheckpointAbort10GetSettingERNS_13ClientContextE to i64)) to i32), i32 trunc (i64 sub (i64 ptrtoint (ptr @.str.9 to i64), i64 ptrtoint (ptr @reltable._ZN6duckdb20DebugCheckpointAbort10GetSettingERNS_13ClientContextE to i64)) to i32)], align 4
@reltable._ZN6duckdb23DefaultNullOrderSetting10GetSettingERNS_13ClientContextE = private unnamed_addr constant [4 x i32] [i32 trunc (i64 sub (i64 ptrtoint (ptr @.str.23 to i64), i64 ptrtoint (ptr @reltable._ZN6duckdb23DefaultNullOrderSetting10GetSettingERNS_13ClientContextE to i64)) to i32), i32 trunc (i64 sub (i64 ptrtoint (ptr @.str.27 to i64), i64 ptrtoint (ptr @reltable._ZN6duckdb23DefaultNullOrderSetting10GetSettingERNS_13ClientContextE to i64)) to i32), i32 trunc (i64 sub (i64 ptrtoint (ptr @.str.31 to i64), i64 ptrtoint (ptr @reltable._ZN6duckdb23DefaultNullOrderSetting10GetSettingERNS_13ClientContextE to i64)) to i32), i32 trunc (i64 sub (i64 ptrtoint (ptr @.str.34 to i64), i64 ptrtoint (ptr @reltable._ZN6duckdb23DefaultNullOrderSetting10GetSettingERNS_13ClientContextE to i64)) to i32)], align 4
@reltable._ZN6duckdb20ExplainOutputSetting10GetSettingERNS_13ClientContextE = private unnamed_addr constant [3 x i32] [i32 trunc (i64 sub (i64 ptrtoint (ptr @.str.48 to i64), i64 ptrtoint (ptr @reltable._ZN6duckdb20ExplainOutputSetting10GetSettingERNS_13ClientContextE to i64)) to i32), i32 trunc (i64 sub (i64 ptrtoint (ptr @.str.49 to i64), i64 ptrtoint (ptr @reltable._ZN6duckdb20ExplainOutputSetting10GetSettingERNS_13ClientContextE to i64)) to i32), i32 trunc (i64 sub (i64 ptrtoint (ptr @.str.50 to i64), i64 ptrtoint (ptr @reltable._ZN6duckdb20ExplainOutputSetting10GetSettingERNS_13ClientContextE to i64)) to i32)], align 4

declare void @_ZNSt8ios_base4InitC1Ev(ptr noundef nonnull align 1 dereferenceable(1)) unnamed_addr #0

; Function Attrs: nounwind
declare void @_ZNSt8ios_base4InitD1Ev(ptr noundef nonnull align 1 dereferenceable(1)) unnamed_addr #1

; Function Attrs: nofree nounwind
declare i32 @__cxa_atexit(ptr, ptr, ptr) local_unnamed_addr #2

; Function Attrs: mustprogress uwtable
define void @_ZN6duckdb17AccessModeSetting9SetGlobalEPNS_16DatabaseInstanceERNS_8DBConfigERKNS_5ValueE(ptr noundef readnone %db, ptr nocapture noundef nonnull writeonly align 8 dereferenceable(896) %config, ptr noundef nonnull align 8 dereferenceable(64) %input) local_unnamed_addr #3 align 2 personality ptr @__gxx_personality_v0 {
entry:
  %ref.tmp = alloca %"class.std::__cxx11::basic_string", align 8
  %ref.tmp1 = alloca %"class.std::allocator", align 1
  %parameter = alloca %"class.std::__cxx11::basic_string", align 8
  %ref.tmp7 = alloca %"class.std::__cxx11::basic_string", align 8
  %ref.tmp28 = alloca %"class.std::__cxx11::basic_string", align 8
  %ref.tmp29 = alloca %"class.std::allocator", align 1
  %agg.tmp = alloca %"class.std::__cxx11::basic_string", align 8
  %tobool.not = icmp eq ptr %db, null
  br i1 %tobool.not, label %if.end, label %if.then

if.then:                                          ; preds = %entry
  %exception = tail call ptr @__cxa_allocate_exception(i64 80) #22
  call void @llvm.lifetime.start.p0(i64 32, ptr nonnull %ref.tmp) #22
  call void @llvm.lifetime.start.p0(i64 1, ptr nonnull %ref.tmp1) #22
  invoke void @_ZNSt7__cxx1112basic_stringIcSt11char_traitsIcESaIcEEC2EPKcRKS3_(ptr noundef nonnull align 8 dereferenceable(32) %ref.tmp, ptr noundef nonnull @.str, ptr noundef nonnull align 1 dereferenceable(1) %ref.tmp1)
          to label %invoke.cont unwind label %ehcleanup.thread

invoke.cont:                                      ; preds = %if.then
  invoke void @_ZN6duckdb21InvalidInputExceptionC1ERKNSt7__cxx1112basic_stringIcSt11char_traitsIcESaIcEEE(ptr noundef nonnull align 8 dereferenceable(80) %exception, ptr noundef nonnull align 8 dereferenceable(32) %ref.tmp)
          to label %invoke.cont3 unwind label %lpad2

invoke.cont3:                                     ; preds = %invoke.cont
  invoke void @__cxa_throw(ptr nonnull %exception, ptr nonnull @_ZTIN6duckdb21InvalidInputExceptionE, ptr nonnull @_ZN6duckdb9ExceptionD2Ev) #23
          to label %unreachable unwind label %lpad2

ehcleanup.thread:                                 ; preds = %if.then
  %0 = landingpad { ptr, i32 }
          cleanup
  call void @llvm.lifetime.end.p0(i64 1, ptr nonnull %ref.tmp1) #22
  call void @llvm.lifetime.end.p0(i64 32, ptr nonnull %ref.tmp) #22
  br label %cleanup.action

lpad2:                                            ; preds = %invoke.cont3, %invoke.cont
  %cleanup.isactive.0 = phi i1 [ false, %invoke.cont3 ], [ true, %invoke.cont ]
  %1 = landingpad { ptr, i32 }
          cleanup
  %2 = load ptr, ptr %ref.tmp, align 8, !tbaa !3
  %3 = getelementptr inbounds %"class.std::__cxx11::basic_string", ptr %ref.tmp, i64 0, i32 2
  %cmp.i.i.i = icmp eq ptr %2, %3
  br i1 %cmp.i.i.i, label %_ZNKSt7__cxx1112basic_stringIcSt11char_traitsIcESaIcEE11_M_is_localEv.exit.thread.i.i, label %ehcleanup

_ZNKSt7__cxx1112basic_stringIcSt11char_traitsIcESaIcEE11_M_is_localEv.exit.thread.i.i: ; preds = %lpad2
  %_M_string_length.i.i.i = getelementptr inbounds %"class.std::__cxx11::basic_string", ptr %ref.tmp, i64 0, i32 1
  %4 = load i64, ptr %_M_string_length.i.i.i, align 8, !tbaa !10
  %cmp3.i.i.i = icmp ult i64 %4, 16
  call void @llvm.assume(i1 %cmp3.i.i.i)
  call void @llvm.lifetime.end.p0(i64 1, ptr nonnull %ref.tmp1) #22
  call void @llvm.lifetime.end.p0(i64 32, ptr nonnull %ref.tmp) #22
  br i1 %cleanup.isactive.0, label %cleanup.action, label %eh.resume

ehcleanup:                                        ; preds = %lpad2
  call void @_ZdlPv(ptr noundef %2) #24
  call void @llvm.lifetime.end.p0(i64 1, ptr nonnull %ref.tmp1) #22
  call void @llvm.lifetime.end.p0(i64 32, ptr nonnull %ref.tmp) #22
  br i1 %cleanup.isactive.0, label %cleanup.action, label %eh.resume

cleanup.action:                                   ; preds = %ehcleanup, %_ZNKSt7__cxx1112basic_stringIcSt11char_traitsIcESaIcEE11_M_is_localEv.exit.thread.i.i, %ehcleanup.thread
  %.pn57102 = phi { ptr, i32 } [ %0, %ehcleanup.thread ], [ %1, %ehcleanup ], [ %1, %_ZNKSt7__cxx1112basic_stringIcSt11char_traitsIcESaIcEE11_M_is_localEv.exit.thread.i.i ]
  call void @__cxa_free_exception(ptr %exception) #22
  br label %eh.resume

if.end:                                           ; preds = %entry
  call void @llvm.lifetime.start.p0(i64 32, ptr nonnull %parameter) #22
  call void @llvm.lifetime.start.p0(i64 32, ptr nonnull %ref.tmp7) #22
  call void @_ZNK6duckdb5Value8ToStringB5cxx11Ev(ptr nonnull sret(%"class.std::__cxx11::basic_string") align 8 %ref.tmp7, ptr noundef nonnull align 8 dereferenceable(64) %input)
  invoke void @_ZN6duckdb10StringUtil5LowerERKNSt7__cxx1112basic_stringIcSt11char_traitsIcESaIcEEE(ptr nonnull sret(%"class.std::__cxx11::basic_string") align 8 %parameter, ptr noundef nonnull align 8 dereferenceable(32) %ref.tmp7)
          to label %invoke.cont9 unwind label %lpad8

invoke.cont9:                                     ; preds = %if.end
  %5 = load ptr, ptr %ref.tmp7, align 8, !tbaa !3
  %6 = getelementptr inbounds %"class.std::__cxx11::basic_string", ptr %ref.tmp7, i64 0, i32 2
  %cmp.i.i.i60 = icmp eq ptr %5, %6
  br i1 %cmp.i.i.i60, label %_ZNKSt7__cxx1112basic_stringIcSt11char_traitsIcESaIcEE11_M_is_localEv.exit.thread.i.i62, label %if.then.i.i61

_ZNKSt7__cxx1112basic_stringIcSt11char_traitsIcESaIcEE11_M_is_localEv.exit.thread.i.i62: ; preds = %invoke.cont9
  %_M_string_length.i.i.i63 = getelementptr inbounds %"class.std::__cxx11::basic_string", ptr %ref.tmp7, i64 0, i32 1
  %7 = load i64, ptr %_M_string_length.i.i.i63, align 8, !tbaa !10
  %cmp3.i.i.i64 = icmp ult i64 %7, 16
  call void @llvm.assume(i1 %cmp3.i.i.i64)
  br label %_ZNSt7__cxx1112basic_stringIcSt11char_traitsIcESaIcEED2Ev.exit65

if.then.i.i61:                                    ; preds = %invoke.cont9
  call void @_ZdlPv(ptr noundef %5) #24
  br label %_ZNSt7__cxx1112basic_stringIcSt11char_traitsIcESaIcEED2Ev.exit65

_ZNSt7__cxx1112basic_stringIcSt11char_traitsIcESaIcEED2Ev.exit65: ; preds = %if.then.i.i61, %_ZNKSt7__cxx1112basic_stringIcSt11char_traitsIcESaIcEE11_M_is_localEv.exit.thread.i.i62
  call void @llvm.lifetime.end.p0(i64 32, ptr nonnull %ref.tmp7) #22
  %call.i = call noundef i32 @_ZNKSt7__cxx1112basic_stringIcSt11char_traitsIcESaIcEE7compareEPKc(ptr noundef nonnull align 8 dereferenceable(32) %parameter, ptr noundef nonnull @.str.1) #22
  %cmp.i = icmp eq i32 %call.i, 0
  br i1 %cmp.i, label %if.end48, label %if.else

lpad8:                                            ; preds = %if.end
  %8 = landingpad { ptr, i32 }
          cleanup
  %9 = load ptr, ptr %ref.tmp7, align 8, !tbaa !3
  %10 = getelementptr inbounds %"class.std::__cxx11::basic_string", ptr %ref.tmp7, i64 0, i32 2
  %cmp.i.i.i66 = icmp eq ptr %9, %10
  br i1 %cmp.i.i.i66, label %_ZNKSt7__cxx1112basic_stringIcSt11char_traitsIcESaIcEE11_M_is_localEv.exit.thread.i.i68, label %if.then.i.i67

_ZNKSt7__cxx1112basic_stringIcSt11char_traitsIcESaIcEE11_M_is_localEv.exit.thread.i.i68: ; preds = %lpad8
  %_M_string_length.i.i.i69 = getelementptr inbounds %"class.std::__cxx11::basic_string", ptr %ref.tmp7, i64 0, i32 1
  %11 = load i64, ptr %_M_string_length.i.i.i69, align 8, !tbaa !10
  %cmp3.i.i.i70 = icmp ult i64 %11, 16
  call void @llvm.assume(i1 %cmp3.i.i.i70)
  br label %_ZNSt7__cxx1112basic_stringIcSt11char_traitsIcESaIcEED2Ev.exit71

if.then.i.i67:                                    ; preds = %lpad8
  call void @_ZdlPv(ptr noundef %9) #24
  br label %_ZNSt7__cxx1112basic_stringIcSt11char_traitsIcESaIcEED2Ev.exit71

_ZNSt7__cxx1112basic_stringIcSt11char_traitsIcESaIcEED2Ev.exit71: ; preds = %if.then.i.i67, %_ZNKSt7__cxx1112basic_stringIcSt11char_traitsIcESaIcEE11_M_is_localEv.exit.thread.i.i68
  call void @llvm.lifetime.end.p0(i64 32, ptr nonnull %ref.tmp7) #22
  br label %ehcleanup50

if.else:                                          ; preds = %_ZNSt7__cxx1112basic_stringIcSt11char_traitsIcESaIcEED2Ev.exit65
  %call.i72 = call noundef i32 @_ZNKSt7__cxx1112basic_stringIcSt11char_traitsIcESaIcEE7compareEPKc(ptr noundef nonnull align 8 dereferenceable(32) %parameter, ptr noundef nonnull @.str.2) #22
  %cmp.i73 = icmp eq i32 %call.i72, 0
  br i1 %cmp.i73, label %if.end48, label %if.else20

if.else20:                                        ; preds = %if.else
  %call.i74 = call noundef i32 @_ZNKSt7__cxx1112basic_stringIcSt11char_traitsIcESaIcEE7compareEPKc(ptr noundef nonnull align 8 dereferenceable(32) %parameter, ptr noundef nonnull @.str.3) #22
  %cmp.i75 = icmp eq i32 %call.i74, 0
  br i1 %cmp.i75, label %if.end48, label %if.else26

if.else26:                                        ; preds = %if.else20
  %exception27 = call ptr @__cxa_allocate_exception(i64 80) #22
  call void @llvm.lifetime.start.p0(i64 32, ptr nonnull %ref.tmp28) #22
  call void @llvm.lifetime.start.p0(i64 1, ptr nonnull %ref.tmp29) #22
  invoke void @_ZNSt7__cxx1112basic_stringIcSt11char_traitsIcESaIcEEC2EPKcRKS3_(ptr noundef nonnull align 8 dereferenceable(32) %ref.tmp28, ptr noundef nonnull @.str.4, ptr noundef nonnull align 1 dereferenceable(1) %ref.tmp29)
          to label %invoke.cont31 unwind label %ehcleanup39.thread

invoke.cont31:                                    ; preds = %if.else26
  invoke void @_ZNSt7__cxx1112basic_stringIcSt11char_traitsIcESaIcEEC2ERKS4_(ptr noundef nonnull align 8 dereferenceable(32) %agg.tmp, ptr noundef nonnull align 8 dereferenceable(32) %parameter)
          to label %invoke.cont33 unwind label %ehcleanup38.thread

invoke.cont33:                                    ; preds = %invoke.cont31
  invoke void @_ZN6duckdb21InvalidInputExceptionC2IJNSt7__cxx1112basic_stringIcSt11char_traitsIcESaIcEEEEEERKS7_DpT_(ptr noundef nonnull align 8 dereferenceable(80) %exception27, ptr noundef nonnull align 8 dereferenceable(32) %ref.tmp28, ptr noundef nonnull %agg.tmp)
          to label %invoke.cont35 unwind label %lpad34

invoke.cont35:                                    ; preds = %invoke.cont33
  invoke void @__cxa_throw(ptr nonnull %exception27, ptr nonnull @_ZTIN6duckdb21InvalidInputExceptionE, ptr nonnull @_ZN6duckdb9ExceptionD2Ev) #23
          to label %unreachable unwind label %lpad34

ehcleanup39.thread:                               ; preds = %if.else26
  %12 = landingpad { ptr, i32 }
          cleanup
  call void @llvm.lifetime.end.p0(i64 1, ptr nonnull %ref.tmp29) #22
  call void @llvm.lifetime.end.p0(i64 32, ptr nonnull %ref.tmp28) #22
  br label %cleanup.action44

lpad34:                                           ; preds = %invoke.cont35, %invoke.cont33
  %cleanup.isactive36.0 = phi i1 [ false, %invoke.cont35 ], [ true, %invoke.cont33 ]
  %13 = landingpad { ptr, i32 }
          cleanup
  %14 = load ptr, ptr %agg.tmp, align 8, !tbaa !3
  %15 = getelementptr inbounds %"class.std::__cxx11::basic_string", ptr %agg.tmp, i64 0, i32 2
  %cmp.i.i.i76 = icmp eq ptr %14, %15
  br i1 %cmp.i.i.i76, label %_ZNKSt7__cxx1112basic_stringIcSt11char_traitsIcESaIcEE11_M_is_localEv.exit.thread.i.i78, label %if.then.i.i77

_ZNKSt7__cxx1112basic_stringIcSt11char_traitsIcESaIcEE11_M_is_localEv.exit.thread.i.i78: ; preds = %lpad34
  %_M_string_length.i.i.i79 = getelementptr inbounds %"class.std::__cxx11::basic_string", ptr %agg.tmp, i64 0, i32 1
  %16 = load i64, ptr %_M_string_length.i.i.i79, align 8, !tbaa !10
  %cmp3.i.i.i80 = icmp ult i64 %16, 16
  call void @llvm.assume(i1 %cmp3.i.i.i80)
  br label %ehcleanup38

if.then.i.i77:                                    ; preds = %lpad34
  call void @_ZdlPv(ptr noundef %14) #24
  br label %ehcleanup38

ehcleanup38:                                      ; preds = %if.then.i.i77, %_ZNKSt7__cxx1112basic_stringIcSt11char_traitsIcESaIcEE11_M_is_localEv.exit.thread.i.i78
  %17 = load ptr, ptr %ref.tmp28, align 8, !tbaa !3
  %18 = getelementptr inbounds %"class.std::__cxx11::basic_string", ptr %ref.tmp28, i64 0, i32 2
  %cmp.i.i.i82 = icmp eq ptr %17, %18
  br i1 %cmp.i.i.i82, label %_ZNKSt7__cxx1112basic_stringIcSt11char_traitsIcESaIcEE11_M_is_localEv.exit.thread.i.i84, label %ehcleanup39

ehcleanup38.thread:                               ; preds = %invoke.cont31
  %19 = landingpad { ptr, i32 }
          cleanup
  %20 = load ptr, ptr %ref.tmp28, align 8, !tbaa !3
  %21 = getelementptr inbounds %"class.std::__cxx11::basic_string", ptr %ref.tmp28, i64 0, i32 2
  %cmp.i.i.i82109 = icmp eq ptr %20, %21
  br i1 %cmp.i.i.i82109, label %_ZNKSt7__cxx1112basic_stringIcSt11char_traitsIcESaIcEE11_M_is_localEv.exit.thread.i.i84.thread, label %ehcleanup39.thread114

_ZNKSt7__cxx1112basic_stringIcSt11char_traitsIcESaIcEE11_M_is_localEv.exit.thread.i.i84.thread: ; preds = %ehcleanup38.thread
  %_M_string_length.i.i.i85119 = getelementptr inbounds %"class.std::__cxx11::basic_string", ptr %ref.tmp28, i64 0, i32 1
  %22 = load i64, ptr %_M_string_length.i.i.i85119, align 8, !tbaa !10
  %cmp3.i.i.i86120 = icmp ult i64 %22, 16
  call void @llvm.assume(i1 %cmp3.i.i.i86120)
  call void @llvm.lifetime.end.p0(i64 1, ptr nonnull %ref.tmp29) #22
  call void @llvm.lifetime.end.p0(i64 32, ptr nonnull %ref.tmp28) #22
  br label %cleanup.action44

ehcleanup39.thread114:                            ; preds = %ehcleanup38.thread
  call void @_ZdlPv(ptr noundef %20) #24
  call void @llvm.lifetime.end.p0(i64 1, ptr nonnull %ref.tmp29) #22
  call void @llvm.lifetime.end.p0(i64 32, ptr nonnull %ref.tmp28) #22
  br label %cleanup.action44

_ZNKSt7__cxx1112basic_stringIcSt11char_traitsIcESaIcEE11_M_is_localEv.exit.thread.i.i84: ; preds = %ehcleanup38
  %_M_string_length.i.i.i85 = getelementptr inbounds %"class.std::__cxx11::basic_string", ptr %ref.tmp28, i64 0, i32 1
  %23 = load i64, ptr %_M_string_length.i.i.i85, align 8, !tbaa !10
  %cmp3.i.i.i86 = icmp ult i64 %23, 16
  call void @llvm.assume(i1 %cmp3.i.i.i86)
  call void @llvm.lifetime.end.p0(i64 1, ptr nonnull %ref.tmp29) #22
  call void @llvm.lifetime.end.p0(i64 32, ptr nonnull %ref.tmp28) #22
  br i1 %cleanup.isactive36.0, label %cleanup.action44, label %ehcleanup49

ehcleanup39:                                      ; preds = %ehcleanup38
  call void @_ZdlPv(ptr noundef %17) #24
  call void @llvm.lifetime.end.p0(i64 1, ptr nonnull %ref.tmp29) #22
  call void @llvm.lifetime.end.p0(i64 32, ptr nonnull %ref.tmp28) #22
  br i1 %cleanup.isactive36.0, label %cleanup.action44, label %ehcleanup49

cleanup.action44:                                 ; preds = %ehcleanup39, %_ZNKSt7__cxx1112basic_stringIcSt11char_traitsIcESaIcEE11_M_is_localEv.exit.thread.i.i84, %ehcleanup39.thread114, %_ZNKSt7__cxx1112basic_stringIcSt11char_traitsIcESaIcEE11_M_is_localEv.exit.thread.i.i84.thread, %ehcleanup39.thread
  %.pn.pn106 = phi { ptr, i32 } [ %12, %ehcleanup39.thread ], [ %13, %ehcleanup39 ], [ %13, %_ZNKSt7__cxx1112basic_stringIcSt11char_traitsIcESaIcEE11_M_is_localEv.exit.thread.i.i84 ], [ %19, %ehcleanup39.thread114 ], [ %19, %_ZNKSt7__cxx1112basic_stringIcSt11char_traitsIcESaIcEE11_M_is_localEv.exit.thread.i.i84.thread ]
  call void @__cxa_free_exception(ptr %exception27) #22
  br label %ehcleanup49

if.end48:                                         ; preds = %if.else20, %if.else, %_ZNSt7__cxx1112basic_stringIcSt11char_traitsIcESaIcEED2Ev.exit65
  %.sink = phi i8 [ 1, %_ZNSt7__cxx1112basic_stringIcSt11char_traitsIcESaIcEED2Ev.exit65 ], [ 2, %if.else ], [ 3, %if.else20 ]
  %access_mode19 = getelementptr inbounds %"struct.duckdb::DBConfig", ptr %config, i64 0, i32 5, i32 2
  store i8 %.sink, ptr %access_mode19, align 8, !tbaa !11
  %24 = load ptr, ptr %parameter, align 8, !tbaa !3
  %25 = getelementptr inbounds %"class.std::__cxx11::basic_string", ptr %parameter, i64 0, i32 2
  %cmp.i.i.i88 = icmp eq ptr %24, %25
  br i1 %cmp.i.i.i88, label %_ZNKSt7__cxx1112basic_stringIcSt11char_traitsIcESaIcEE11_M_is_localEv.exit.thread.i.i90, label %if.then.i.i89

_ZNKSt7__cxx1112basic_stringIcSt11char_traitsIcESaIcEE11_M_is_localEv.exit.thread.i.i90: ; preds = %if.end48
  %_M_string_length.i.i.i91 = getelementptr inbounds %"class.std::__cxx11::basic_string", ptr %parameter, i64 0, i32 1
  %26 = load i64, ptr %_M_string_length.i.i.i91, align 8, !tbaa !10
  %cmp3.i.i.i92 = icmp ult i64 %26, 16
  call void @llvm.assume(i1 %cmp3.i.i.i92)
  br label %_ZNSt7__cxx1112basic_stringIcSt11char_traitsIcESaIcEED2Ev.exit93

if.then.i.i89:                                    ; preds = %if.end48
  call void @_ZdlPv(ptr noundef %24) #24
  br label %_ZNSt7__cxx1112basic_stringIcSt11char_traitsIcESaIcEED2Ev.exit93

_ZNSt7__cxx1112basic_stringIcSt11char_traitsIcESaIcEED2Ev.exit93: ; preds = %if.then.i.i89, %_ZNKSt7__cxx1112basic_stringIcSt11char_traitsIcESaIcEE11_M_is_localEv.exit.thread.i.i90
  call void @llvm.lifetime.end.p0(i64 32, ptr nonnull %parameter) #22
  ret void

ehcleanup49:                                      ; preds = %cleanup.action44, %ehcleanup39, %_ZNKSt7__cxx1112basic_stringIcSt11char_traitsIcESaIcEE11_M_is_localEv.exit.thread.i.i84
  %.pn.pn105 = phi { ptr, i32 } [ %13, %ehcleanup39 ], [ %.pn.pn106, %cleanup.action44 ], [ %13, %_ZNKSt7__cxx1112basic_stringIcSt11char_traitsIcESaIcEE11_M_is_localEv.exit.thread.i.i84 ]
  %27 = load ptr, ptr %parameter, align 8, !tbaa !3
  %28 = getelementptr inbounds %"class.std::__cxx11::basic_string", ptr %parameter, i64 0, i32 2
  %cmp.i.i.i94 = icmp eq ptr %27, %28
  br i1 %cmp.i.i.i94, label %_ZNKSt7__cxx1112basic_stringIcSt11char_traitsIcESaIcEE11_M_is_localEv.exit.thread.i.i96, label %if.then.i.i95

_ZNKSt7__cxx1112basic_stringIcSt11char_traitsIcESaIcEE11_M_is_localEv.exit.thread.i.i96: ; preds = %ehcleanup49
  %_M_string_length.i.i.i97 = getelementptr inbounds %"class.std::__cxx11::basic_string", ptr %parameter, i64 0, i32 1
  %29 = load i64, ptr %_M_string_length.i.i.i97, align 8, !tbaa !10
  %cmp3.i.i.i98 = icmp ult i64 %29, 16
  call void @llvm.assume(i1 %cmp3.i.i.i98)
  br label %ehcleanup50

if.then.i.i95:                                    ; preds = %ehcleanup49
  call void @_ZdlPv(ptr noundef %27) #24
  br label %ehcleanup50

ehcleanup50:                                      ; preds = %if.then.i.i95, %_ZNKSt7__cxx1112basic_stringIcSt11char_traitsIcESaIcEE11_M_is_localEv.exit.thread.i.i96, %_ZNSt7__cxx1112basic_stringIcSt11char_traitsIcESaIcEED2Ev.exit71
  %.pn.pn.pn = phi { ptr, i32 } [ %8, %_ZNSt7__cxx1112basic_stringIcSt11char_traitsIcESaIcEED2Ev.exit71 ], [ %.pn.pn105, %_ZNKSt7__cxx1112basic_stringIcSt11char_traitsIcESaIcEE11_M_is_localEv.exit.thread.i.i96 ], [ %.pn.pn105, %if.then.i.i95 ]
  call void @llvm.lifetime.end.p0(i64 32, ptr nonnull %parameter) #22
  br label %eh.resume

eh.resume:                                        ; preds = %ehcleanup50, %cleanup.action, %ehcleanup, %_ZNKSt7__cxx1112basic_stringIcSt11char_traitsIcESaIcEE11_M_is_localEv.exit.thread.i.i
  %.pn57.pn = phi { ptr, i32 } [ %.pn57102, %cleanup.action ], [ %1, %ehcleanup ], [ %.pn.pn.pn, %ehcleanup50 ], [ %1, %_ZNKSt7__cxx1112basic_stringIcSt11char_traitsIcESaIcEE11_M_is_localEv.exit.thread.i.i ]
  resume { ptr, i32 } %.pn57.pn

unreachable:                                      ; preds = %invoke.cont35, %invoke.cont3
  unreachable
}

declare ptr @__cxa_allocate_exception(i64) local_unnamed_addr

; Function Attrs: mustprogress nocallback nofree nosync nounwind willreturn memory(argmem: readwrite)
declare void @llvm.lifetime.start.p0(i64 immarg, ptr nocapture) #4

; Function Attrs: mustprogress uwtable
declare void @_ZNSt7__cxx1112basic_stringIcSt11char_traitsIcESaIcEEC2EPKcRKS3_(ptr noundef nonnull align 8 dereferenceable(32), ptr noundef, ptr noundef nonnull align 1 dereferenceable(1)) unnamed_addr #3 align 2

declare i32 @__gxx_personality_v0(...)

declare void @_ZN6duckdb21InvalidInputExceptionC1ERKNSt7__cxx1112basic_stringIcSt11char_traitsIcESaIcEEE(ptr noundef nonnull align 8 dereferenceable(80), ptr noundef nonnull align 8 dereferenceable(32)) unnamed_addr #0

declare void @__cxa_throw(ptr, ptr, ptr) local_unnamed_addr

; Function Attrs: mustprogress nocallback nofree nosync nounwind willreturn memory(argmem: readwrite)
declare void @llvm.lifetime.end.p0(i64 immarg, ptr nocapture) #4

declare void @__cxa_free_exception(ptr) local_unnamed_addr

declare void @_ZN6duckdb10StringUtil5LowerERKNSt7__cxx1112basic_stringIcSt11char_traitsIcESaIcEEE(ptr sret(%"class.std::__cxx11::basic_string") align 8, ptr noundef nonnull align 8 dereferenceable(32)) local_unnamed_addr #0

declare void @_ZNK6duckdb5Value8ToStringB5cxx11Ev(ptr sret(%"class.std::__cxx11::basic_string") align 8, ptr noundef nonnull align 8 dereferenceable(64)) local_unnamed_addr #0

; Function Attrs: mustprogress uwtable
declare void @_ZNSt7__cxx1112basic_stringIcSt11char_traitsIcESaIcEEC2ERKS4_(ptr noundef nonnull align 8 dereferenceable(32), ptr noundef nonnull align 8 dereferenceable(32)) unnamed_addr #3 align 2

; Function Attrs: mustprogress uwtable
define linkonce_odr void @_ZN6duckdb21InvalidInputExceptionC2IJNSt7__cxx1112basic_stringIcSt11char_traitsIcESaIcEEEEEERKS7_DpT_(ptr noundef nonnull align 8 dereferenceable(80) %this, ptr noundef nonnull align 8 dereferenceable(32) %msg, ptr noundef %params) unnamed_addr #3 comdat align 2 personality ptr @__gxx_personality_v0 {
entry:
  %__dnew.i.i = alloca i64, align 8
  %ref.tmp = alloca %"class.std::__cxx11::basic_string", align 8
  %agg.tmp = alloca %"class.std::__cxx11::basic_string", align 8
  call void @llvm.lifetime.start.p0(i64 32, ptr nonnull %ref.tmp) #22
  %0 = getelementptr inbounds %"class.std::__cxx11::basic_string", ptr %agg.tmp, i64 0, i32 2
  store ptr %0, ptr %agg.tmp, align 8, !tbaa !110
  %1 = load ptr, ptr %params, align 8, !tbaa !3
  %_M_string_length.i.i = getelementptr inbounds %"class.std::__cxx11::basic_string", ptr %params, i64 0, i32 1
  %2 = load i64, ptr %_M_string_length.i.i, align 8, !tbaa !10
  call void @llvm.lifetime.start.p0(i64 8, ptr nonnull %__dnew.i.i) #22
  store i64 %2, ptr %__dnew.i.i, align 8, !tbaa !111
  %cmp.i.i = icmp ugt i64 %2, 15
  br i1 %cmp.i.i, label %if.then.i.i, label %if.end.i.i

if.then.i.i:                                      ; preds = %entry
  %call2.i12.i = call noundef ptr @_ZNSt7__cxx1112basic_stringIcSt11char_traitsIcESaIcEE9_M_createERmm(ptr noundef nonnull align 8 dereferenceable(32) %agg.tmp, ptr noundef nonnull align 8 dereferenceable(8) %__dnew.i.i, i64 noundef 0)
  store ptr %call2.i12.i, ptr %agg.tmp, align 8, !tbaa !3
  %3 = load i64, ptr %__dnew.i.i, align 8, !tbaa !111
  store i64 %3, ptr %0, align 8, !tbaa !112
  br label %if.end.i.i

if.end.i.i:                                       ; preds = %if.then.i.i, %entry
  %4 = phi ptr [ %call2.i12.i, %if.then.i.i ], [ %0, %entry ]
  switch i64 %2, label %if.end.i.i.i.i.i [
    i64 1, label %if.then.i.i.i.i
    i64 0, label %_ZNSt7__cxx1112basic_stringIcSt11char_traitsIcESaIcEEC2ERKS4_.exit
  ]

if.then.i.i.i.i:                                  ; preds = %if.end.i.i
  %5 = load i8, ptr %1, align 1, !tbaa !112
  store i8 %5, ptr %4, align 1, !tbaa !112
  br label %_ZNSt7__cxx1112basic_stringIcSt11char_traitsIcESaIcEEC2ERKS4_.exit

if.end.i.i.i.i.i:                                 ; preds = %if.end.i.i
  call void @llvm.memcpy.p0.p0.i64(ptr align 1 %4, ptr align 1 %1, i64 %2, i1 false)
  br label %_ZNSt7__cxx1112basic_stringIcSt11char_traitsIcESaIcEEC2ERKS4_.exit

_ZNSt7__cxx1112basic_stringIcSt11char_traitsIcESaIcEEC2ERKS4_.exit: ; preds = %if.end.i.i.i.i.i, %if.then.i.i.i.i, %if.end.i.i
  %6 = load i64, ptr %__dnew.i.i, align 8, !tbaa !111
  %_M_string_length.i.i.i.i = getelementptr inbounds %"class.std::__cxx11::basic_string", ptr %agg.tmp, i64 0, i32 1
  store i64 %6, ptr %_M_string_length.i.i.i.i, align 8, !tbaa !10
  %7 = load ptr, ptr %agg.tmp, align 8, !tbaa !3
  %arrayidx.i.i.i = getelementptr inbounds i8, ptr %7, i64 %6
  store i8 0, ptr %arrayidx.i.i.i, align 1, !tbaa !112
  call void @llvm.lifetime.end.p0(i64 8, ptr nonnull %__dnew.i.i) #22
  invoke void @_ZN6duckdb9Exception16ConstructMessageIJNSt7__cxx1112basic_stringIcSt11char_traitsIcESaIcEEEEEES7_RKS7_DpT_(ptr nonnull sret(%"class.std::__cxx11::basic_string") align 8 %ref.tmp, ptr noundef nonnull align 8 dereferenceable(32) %msg, ptr noundef nonnull %agg.tmp)
          to label %invoke.cont unwind label %lpad

invoke.cont:                                      ; preds = %_ZNSt7__cxx1112basic_stringIcSt11char_traitsIcESaIcEEC2ERKS4_.exit
  invoke void @_ZN6duckdb21InvalidInputExceptionC2ERKNSt7__cxx1112basic_stringIcSt11char_traitsIcESaIcEEE(ptr noundef nonnull align 8 dereferenceable(80) %this, ptr noundef nonnull align 8 dereferenceable(32) %ref.tmp)
          to label %invoke.cont3 unwind label %lpad2

invoke.cont3:                                     ; preds = %invoke.cont
  %8 = load ptr, ptr %ref.tmp, align 8, !tbaa !3
  %9 = getelementptr inbounds %"class.std::__cxx11::basic_string", ptr %ref.tmp, i64 0, i32 2
  %cmp.i.i.i = icmp eq ptr %8, %9
  br i1 %cmp.i.i.i, label %_ZNKSt7__cxx1112basic_stringIcSt11char_traitsIcESaIcEE11_M_is_localEv.exit.thread.i.i, label %if.then.i.i7

_ZNKSt7__cxx1112basic_stringIcSt11char_traitsIcESaIcEE11_M_is_localEv.exit.thread.i.i: ; preds = %invoke.cont3
  %_M_string_length.i.i.i = getelementptr inbounds %"class.std::__cxx11::basic_string", ptr %ref.tmp, i64 0, i32 1
  %10 = load i64, ptr %_M_string_length.i.i.i, align 8, !tbaa !10
  %cmp3.i.i.i = icmp ult i64 %10, 16
  call void @llvm.assume(i1 %cmp3.i.i.i)
  br label %_ZNSt7__cxx1112basic_stringIcSt11char_traitsIcESaIcEED2Ev.exit

if.then.i.i7:                                     ; preds = %invoke.cont3
  call void @_ZdlPv(ptr noundef %8) #24
  br label %_ZNSt7__cxx1112basic_stringIcSt11char_traitsIcESaIcEED2Ev.exit

_ZNSt7__cxx1112basic_stringIcSt11char_traitsIcESaIcEED2Ev.exit: ; preds = %if.then.i.i7, %_ZNKSt7__cxx1112basic_stringIcSt11char_traitsIcESaIcEE11_M_is_localEv.exit.thread.i.i
  %11 = load ptr, ptr %agg.tmp, align 8, !tbaa !3
  %cmp.i.i.i8 = icmp eq ptr %11, %0
  br i1 %cmp.i.i.i8, label %_ZNKSt7__cxx1112basic_stringIcSt11char_traitsIcESaIcEE11_M_is_localEv.exit.thread.i.i10, label %if.then.i.i9

_ZNKSt7__cxx1112basic_stringIcSt11char_traitsIcESaIcEE11_M_is_localEv.exit.thread.i.i10: ; preds = %_ZNSt7__cxx1112basic_stringIcSt11char_traitsIcESaIcEED2Ev.exit
  %12 = load i64, ptr %_M_string_length.i.i.i.i, align 8, !tbaa !10
  %cmp3.i.i.i12 = icmp ult i64 %12, 16
  call void @llvm.assume(i1 %cmp3.i.i.i12)
  br label %_ZNSt7__cxx1112basic_stringIcSt11char_traitsIcESaIcEED2Ev.exit13

if.then.i.i9:                                     ; preds = %_ZNSt7__cxx1112basic_stringIcSt11char_traitsIcESaIcEED2Ev.exit
  call void @_ZdlPv(ptr noundef %11) #24
  br label %_ZNSt7__cxx1112basic_stringIcSt11char_traitsIcESaIcEED2Ev.exit13

_ZNSt7__cxx1112basic_stringIcSt11char_traitsIcESaIcEED2Ev.exit13: ; preds = %if.then.i.i9, %_ZNKSt7__cxx1112basic_stringIcSt11char_traitsIcESaIcEE11_M_is_localEv.exit.thread.i.i10
  call void @llvm.lifetime.end.p0(i64 32, ptr nonnull %ref.tmp) #22
  ret void

lpad:                                             ; preds = %_ZNSt7__cxx1112basic_stringIcSt11char_traitsIcESaIcEEC2ERKS4_.exit
  %13 = landingpad { ptr, i32 }
          cleanup
  br label %ehcleanup

lpad2:                                            ; preds = %invoke.cont
  %14 = landingpad { ptr, i32 }
          cleanup
  %15 = load ptr, ptr %ref.tmp, align 8, !tbaa !3
  %16 = getelementptr inbounds %"class.std::__cxx11::basic_string", ptr %ref.tmp, i64 0, i32 2
  %cmp.i.i.i14 = icmp eq ptr %15, %16
  br i1 %cmp.i.i.i14, label %_ZNKSt7__cxx1112basic_stringIcSt11char_traitsIcESaIcEE11_M_is_localEv.exit.thread.i.i16, label %if.then.i.i15

_ZNKSt7__cxx1112basic_stringIcSt11char_traitsIcESaIcEE11_M_is_localEv.exit.thread.i.i16: ; preds = %lpad2
  %_M_string_length.i.i.i17 = getelementptr inbounds %"class.std::__cxx11::basic_string", ptr %ref.tmp, i64 0, i32 1
  %17 = load i64, ptr %_M_string_length.i.i.i17, align 8, !tbaa !10
  %cmp3.i.i.i18 = icmp ult i64 %17, 16
  call void @llvm.assume(i1 %cmp3.i.i.i18)
  br label %ehcleanup

if.then.i.i15:                                    ; preds = %lpad2
  call void @_ZdlPv(ptr noundef %15) #24
  br label %ehcleanup

ehcleanup:                                        ; preds = %if.then.i.i15, %_ZNKSt7__cxx1112basic_stringIcSt11char_traitsIcESaIcEE11_M_is_localEv.exit.thread.i.i16, %lpad
  %.pn = phi { ptr, i32 } [ %13, %lpad ], [ %14, %_ZNKSt7__cxx1112basic_stringIcSt11char_traitsIcESaIcEE11_M_is_localEv.exit.thread.i.i16 ], [ %14, %if.then.i.i15 ]
  %18 = load ptr, ptr %agg.tmp, align 8, !tbaa !3
  %cmp.i.i.i20 = icmp eq ptr %18, %0
  br i1 %cmp.i.i.i20, label %_ZNKSt7__cxx1112basic_stringIcSt11char_traitsIcESaIcEE11_M_is_localEv.exit.thread.i.i22, label %if.then.i.i21

_ZNKSt7__cxx1112basic_stringIcSt11char_traitsIcESaIcEE11_M_is_localEv.exit.thread.i.i22: ; preds = %ehcleanup
  %19 = load i64, ptr %_M_string_length.i.i.i.i, align 8, !tbaa !10
  %cmp3.i.i.i24 = icmp ult i64 %19, 16
  call void @llvm.assume(i1 %cmp3.i.i.i24)
  br label %_ZNSt7__cxx1112basic_stringIcSt11char_traitsIcESaIcEED2Ev.exit25

if.then.i.i21:                                    ; preds = %ehcleanup
  call void @_ZdlPv(ptr noundef %18) #24
  br label %_ZNSt7__cxx1112basic_stringIcSt11char_traitsIcESaIcEED2Ev.exit25

_ZNSt7__cxx1112basic_stringIcSt11char_traitsIcESaIcEED2Ev.exit25: ; preds = %if.then.i.i21, %_ZNKSt7__cxx1112basic_stringIcSt11char_traitsIcESaIcEE11_M_is_localEv.exit.thread.i.i22
  call void @llvm.lifetime.end.p0(i64 32, ptr nonnull %ref.tmp) #22
  resume { ptr, i32 } %.pn
}

; Function Attrs: mustprogress uwtable
define void @_ZN6duckdb17AccessModeSetting11ResetGlobalEPNS_16DatabaseInstanceERNS_8DBConfigE(ptr nocapture noundef readnone %db, ptr nocapture noundef nonnull writeonly align 8 dereferenceable(896) %config) local_unnamed_addr #3 align 2 {
entry:
  %ref.tmp = alloca %"struct.duckdb::DBConfig", align 8
  call void @llvm.lifetime.start.p0(i64 896, ptr nonnull %ref.tmp) #22
  call void @_ZN6duckdb8DBConfigC1Ev(ptr noundef nonnull align 8 dereferenceable(896) %ref.tmp)
  %access_mode = getelementptr inbounds %"struct.duckdb::DBConfig", ptr %ref.tmp, i64 0, i32 5, i32 2
  %0 = load i8, ptr %access_mode, align 8, !tbaa !11
  %access_mode2 = getelementptr inbounds %"struct.duckdb::DBConfig", ptr %config, i64 0, i32 5, i32 2
  store i8 %0, ptr %access_mode2, align 8, !tbaa !11
  call void @_ZN6duckdb8DBConfigD1Ev(ptr noundef nonnull align 8 dereferenceable(896) %ref.tmp) #22
  call void @llvm.lifetime.end.p0(i64 896, ptr nonnull %ref.tmp) #22
  ret void
}

declare void @_ZN6duckdb8DBConfigC1Ev(ptr noundef nonnull align 8 dereferenceable(896)) unnamed_addr #0

; Function Attrs: nounwind
declare void @_ZN6duckdb8DBConfigD1Ev(ptr noundef nonnull align 8 dereferenceable(896)) unnamed_addr #1

; Function Attrs: mustprogress uwtable
define void @_ZN6duckdb17AccessModeSetting10GetSettingERNS_13ClientContextE(ptr noalias sret(%"class.duckdb::Value") align 8 %agg.result, ptr noundef nonnull align 8 dereferenceable(592) %context) local_unnamed_addr #3 align 2 personality ptr @__gxx_personality_v0 {
entry:
  %ref.tmp = alloca %"class.std::__cxx11::basic_string", align 8
  %ref.tmp3 = alloca %"class.std::allocator", align 1
  %call = tail call noundef nonnull align 8 dereferenceable(896) ptr @_ZN6duckdb8DBConfig9GetConfigERNS_13ClientContextE(ptr noundef nonnull align 8 dereferenceable(592) %context)
  %access_mode = getelementptr inbounds %"struct.duckdb::DBConfig", ptr %call, i64 0, i32 5, i32 2
  %0 = load i8, ptr %access_mode, align 8, !tbaa !11
  %switch.tableidx = add i8 %0, -1
  %1 = icmp ult i8 %switch.tableidx, 3
  br i1 %1, label %switch.lookup, label %sw.default

sw.default:                                       ; preds = %entry
  %exception = tail call ptr @__cxa_allocate_exception(i64 80) #22
  call void @llvm.lifetime.start.p0(i64 32, ptr nonnull %ref.tmp) #22
  call void @llvm.lifetime.start.p0(i64 1, ptr nonnull %ref.tmp3) #22
  invoke void @_ZNSt7__cxx1112basic_stringIcSt11char_traitsIcESaIcEEC2EPKcRKS3_(ptr noundef nonnull align 8 dereferenceable(32) %ref.tmp, ptr noundef nonnull @.str.5, ptr noundef nonnull align 1 dereferenceable(1) %ref.tmp3)
          to label %invoke.cont unwind label %ehcleanup.thread

invoke.cont:                                      ; preds = %sw.default
  invoke void @_ZN6duckdb17InternalExceptionC1ERKNSt7__cxx1112basic_stringIcSt11char_traitsIcESaIcEEE(ptr noundef nonnull align 8 dereferenceable(80) %exception, ptr noundef nonnull align 8 dereferenceable(32) %ref.tmp)
          to label %invoke.cont5 unwind label %lpad4

invoke.cont5:                                     ; preds = %invoke.cont
  invoke void @__cxa_throw(ptr nonnull %exception, ptr nonnull @_ZTIN6duckdb17InternalExceptionE, ptr nonnull @_ZN6duckdb9ExceptionD2Ev) #23
          to label %unreachable unwind label %lpad4

ehcleanup.thread:                                 ; preds = %sw.default
  %2 = landingpad { ptr, i32 }
          cleanup
  call void @llvm.lifetime.end.p0(i64 1, ptr nonnull %ref.tmp3) #22
  call void @llvm.lifetime.end.p0(i64 32, ptr nonnull %ref.tmp) #22
  br label %cleanup.action

lpad4:                                            ; preds = %invoke.cont5, %invoke.cont
  %cleanup.isactive.0 = phi i1 [ false, %invoke.cont5 ], [ true, %invoke.cont ]
  %3 = landingpad { ptr, i32 }
          cleanup
  %4 = load ptr, ptr %ref.tmp, align 8, !tbaa !3
  %5 = getelementptr inbounds %"class.std::__cxx11::basic_string", ptr %ref.tmp, i64 0, i32 2
  %cmp.i.i.i = icmp eq ptr %4, %5
  br i1 %cmp.i.i.i, label %_ZNKSt7__cxx1112basic_stringIcSt11char_traitsIcESaIcEE11_M_is_localEv.exit.thread.i.i, label %ehcleanup

_ZNKSt7__cxx1112basic_stringIcSt11char_traitsIcESaIcEE11_M_is_localEv.exit.thread.i.i: ; preds = %lpad4
  %_M_string_length.i.i.i = getelementptr inbounds %"class.std::__cxx11::basic_string", ptr %ref.tmp, i64 0, i32 1
  %6 = load i64, ptr %_M_string_length.i.i.i, align 8, !tbaa !10
  %cmp3.i.i.i = icmp ult i64 %6, 16
  call void @llvm.assume(i1 %cmp3.i.i.i)
  call void @llvm.lifetime.end.p0(i64 1, ptr nonnull %ref.tmp3) #22
  call void @llvm.lifetime.end.p0(i64 32, ptr nonnull %ref.tmp) #22
  br i1 %cleanup.isactive.0, label %cleanup.action, label %cleanup.done

ehcleanup:                                        ; preds = %lpad4
  call void @_ZdlPv(ptr noundef %4) #24
  call void @llvm.lifetime.end.p0(i64 1, ptr nonnull %ref.tmp3) #22
  call void @llvm.lifetime.end.p0(i64 32, ptr nonnull %ref.tmp) #22
  br i1 %cleanup.isactive.0, label %cleanup.action, label %cleanup.done

cleanup.action:                                   ; preds = %ehcleanup, %_ZNKSt7__cxx1112basic_stringIcSt11char_traitsIcESaIcEE11_M_is_localEv.exit.thread.i.i, %ehcleanup.thread
  %.pn15 = phi { ptr, i32 } [ %2, %ehcleanup.thread ], [ %3, %ehcleanup ], [ %3, %_ZNKSt7__cxx1112basic_stringIcSt11char_traitsIcESaIcEE11_M_is_localEv.exit.thread.i.i ]
  call void @__cxa_free_exception(ptr %exception) #22
  br label %cleanup.done

cleanup.done:                                     ; preds = %cleanup.action, %ehcleanup, %_ZNKSt7__cxx1112basic_stringIcSt11char_traitsIcESaIcEE11_M_is_localEv.exit.thread.i.i
  %.pn14 = phi { ptr, i32 } [ %.pn15, %cleanup.action ], [ %3, %ehcleanup ], [ %3, %_ZNKSt7__cxx1112basic_stringIcSt11char_traitsIcESaIcEE11_M_is_localEv.exit.thread.i.i ]
  resume { ptr, i32 } %.pn14

switch.lookup:                                    ; preds = %entry
  %7 = shl nuw nsw i8 %switch.tableidx, 2
  %reltable.shift = zext nneg i8 %7 to i64
  %reltable.intrinsic = tail call ptr @llvm.load.relative.i64(ptr nonnull @reltable._ZN6duckdb17AccessModeSetting10GetSettingERNS_13ClientContextE, i64 %reltable.shift)
  tail call void @_ZN6duckdb5ValueC1EPKc(ptr noundef nonnull align 8 dereferenceable(64) %agg.result, ptr noundef nonnull %reltable.intrinsic)
  ret void

unreachable:                                      ; preds = %invoke.cont5
  unreachable
}

declare noundef nonnull align 8 dereferenceable(896) ptr @_ZN6duckdb8DBConfig9GetConfigERNS_13ClientContextE(ptr noundef nonnull align 8 dereferenceable(592)) local_unnamed_addr #0

declare void @_ZN6duckdb5ValueC1EPKc(ptr noundef nonnull align 8 dereferenceable(64), ptr noundef) unnamed_addr #0

declare void @_ZN6duckdb17InternalExceptionC1ERKNSt7__cxx1112basic_stringIcSt11char_traitsIcESaIcEEE(ptr noundef nonnull align 8 dereferenceable(80), ptr noundef nonnull align 8 dereferenceable(32)) unnamed_addr #0

; Function Attrs: mustprogress uwtable
define void @_ZN6duckdb26CheckpointThresholdSetting9SetGlobalEPNS_16DatabaseInstanceERNS_8DBConfigERKNS_5ValueE(ptr nocapture noundef readnone %db, ptr nocapture noundef nonnull writeonly align 8 dereferenceable(896) %config, ptr noundef nonnull align 8 dereferenceable(64) %input) local_unnamed_addr #3 align 2 personality ptr @__gxx_personality_v0 {
entry:
  %ref.tmp = alloca %"class.std::__cxx11::basic_string", align 8
  call void @llvm.lifetime.start.p0(i64 32, ptr nonnull %ref.tmp) #22
  call void @_ZNK6duckdb5Value8ToStringB5cxx11Ev(ptr nonnull sret(%"class.std::__cxx11::basic_string") align 8 %ref.tmp, ptr noundef nonnull align 8 dereferenceable(64) %input)
  %call = invoke noundef i64 @_ZN6duckdb8DBConfig16ParseMemoryLimitERKNSt7__cxx1112basic_stringIcSt11char_traitsIcESaIcEEE(ptr noundef nonnull align 8 dereferenceable(32) %ref.tmp)
          to label %invoke.cont unwind label %lpad

invoke.cont:                                      ; preds = %entry
  %0 = load ptr, ptr %ref.tmp, align 8, !tbaa !3
  %1 = getelementptr inbounds %"class.std::__cxx11::basic_string", ptr %ref.tmp, i64 0, i32 2
  %cmp.i.i.i = icmp eq ptr %0, %1
  br i1 %cmp.i.i.i, label %_ZNKSt7__cxx1112basic_stringIcSt11char_traitsIcESaIcEE11_M_is_localEv.exit.thread.i.i, label %if.then.i.i

_ZNKSt7__cxx1112basic_stringIcSt11char_traitsIcESaIcEE11_M_is_localEv.exit.thread.i.i: ; preds = %invoke.cont
  %_M_string_length.i.i.i = getelementptr inbounds %"class.std::__cxx11::basic_string", ptr %ref.tmp, i64 0, i32 1
  %2 = load i64, ptr %_M_string_length.i.i.i, align 8, !tbaa !10
  %cmp3.i.i.i = icmp ult i64 %2, 16
  call void @llvm.assume(i1 %cmp3.i.i.i)
  br label %_ZNSt7__cxx1112basic_stringIcSt11char_traitsIcESaIcEED2Ev.exit

if.then.i.i:                                      ; preds = %invoke.cont
  call void @_ZdlPv(ptr noundef %0) #24
  br label %_ZNSt7__cxx1112basic_stringIcSt11char_traitsIcESaIcEED2Ev.exit

_ZNSt7__cxx1112basic_stringIcSt11char_traitsIcESaIcEED2Ev.exit: ; preds = %if.then.i.i, %_ZNKSt7__cxx1112basic_stringIcSt11char_traitsIcESaIcEE11_M_is_localEv.exit.thread.i.i
  call void @llvm.lifetime.end.p0(i64 32, ptr nonnull %ref.tmp) #22
  %checkpoint_wal_size = getelementptr inbounds %"struct.duckdb::DBConfig", ptr %config, i64 0, i32 5, i32 3
  store i64 %call, ptr %checkpoint_wal_size, align 8, !tbaa !113
  ret void

lpad:                                             ; preds = %entry
  %3 = landingpad { ptr, i32 }
          cleanup
  %4 = load ptr, ptr %ref.tmp, align 8, !tbaa !3
  %5 = getelementptr inbounds %"class.std::__cxx11::basic_string", ptr %ref.tmp, i64 0, i32 2
  %cmp.i.i.i2 = icmp eq ptr %4, %5
  br i1 %cmp.i.i.i2, label %_ZNKSt7__cxx1112basic_stringIcSt11char_traitsIcESaIcEE11_M_is_localEv.exit.thread.i.i4, label %if.then.i.i3

_ZNKSt7__cxx1112basic_stringIcSt11char_traitsIcESaIcEE11_M_is_localEv.exit.thread.i.i4: ; preds = %lpad
  %_M_string_length.i.i.i5 = getelementptr inbounds %"class.std::__cxx11::basic_string", ptr %ref.tmp, i64 0, i32 1
  %6 = load i64, ptr %_M_string_length.i.i.i5, align 8, !tbaa !10
  %cmp3.i.i.i6 = icmp ult i64 %6, 16
  call void @llvm.assume(i1 %cmp3.i.i.i6)
  br label %_ZNSt7__cxx1112basic_stringIcSt11char_traitsIcESaIcEED2Ev.exit7

if.then.i.i3:                                     ; preds = %lpad
  call void @_ZdlPv(ptr noundef %4) #24
  br label %_ZNSt7__cxx1112basic_stringIcSt11char_traitsIcESaIcEED2Ev.exit7

_ZNSt7__cxx1112basic_stringIcSt11char_traitsIcESaIcEED2Ev.exit7: ; preds = %if.then.i.i3, %_ZNKSt7__cxx1112basic_stringIcSt11char_traitsIcESaIcEE11_M_is_localEv.exit.thread.i.i4
  call void @llvm.lifetime.end.p0(i64 32, ptr nonnull %ref.tmp) #22
  resume { ptr, i32 } %3
}

declare noundef i64 @_ZN6duckdb8DBConfig16ParseMemoryLimitERKNSt7__cxx1112basic_stringIcSt11char_traitsIcESaIcEEE(ptr noundef nonnull align 8 dereferenceable(32)) local_unnamed_addr #0

; Function Attrs: mustprogress uwtable
define void @_ZN6duckdb26CheckpointThresholdSetting11ResetGlobalEPNS_16DatabaseInstanceERNS_8DBConfigE(ptr nocapture noundef readnone %db, ptr nocapture noundef nonnull writeonly align 8 dereferenceable(896) %config) local_unnamed_addr #3 align 2 {
entry:
  %ref.tmp = alloca %"struct.duckdb::DBConfig", align 8
  call void @llvm.lifetime.start.p0(i64 896, ptr nonnull %ref.tmp) #22
  call void @_ZN6duckdb8DBConfigC1Ev(ptr noundef nonnull align 8 dereferenceable(896) %ref.tmp)
  %checkpoint_wal_size = getelementptr inbounds %"struct.duckdb::DBConfig", ptr %ref.tmp, i64 0, i32 5, i32 3
  %0 = load i64, ptr %checkpoint_wal_size, align 8, !tbaa !113
  %checkpoint_wal_size2 = getelementptr inbounds %"struct.duckdb::DBConfig", ptr %config, i64 0, i32 5, i32 3
  store i64 %0, ptr %checkpoint_wal_size2, align 8, !tbaa !113
  call void @_ZN6duckdb8DBConfigD1Ev(ptr noundef nonnull align 8 dereferenceable(896) %ref.tmp) #22
  call void @llvm.lifetime.end.p0(i64 896, ptr nonnull %ref.tmp) #22
  ret void
}

; Function Attrs: mustprogress uwtable
define void @_ZN6duckdb26CheckpointThresholdSetting10GetSettingERNS_13ClientContextE(ptr noalias sret(%"class.duckdb::Value") align 8 %agg.result, ptr noundef nonnull align 8 dereferenceable(592) %context) local_unnamed_addr #3 align 2 personality ptr @__gxx_personality_v0 {
entry:
  %agg.tmp = alloca %"class.std::__cxx11::basic_string", align 8
  %call = tail call noundef nonnull align 8 dereferenceable(896) ptr @_ZN6duckdb8DBConfig9GetConfigERNS_13ClientContextE(ptr noundef nonnull align 8 dereferenceable(592) %context)
  %checkpoint_wal_size = getelementptr inbounds %"struct.duckdb::DBConfig", ptr %call, i64 0, i32 5, i32 3
  %0 = load i64, ptr %checkpoint_wal_size, align 8, !tbaa !113
  call void @_ZN6duckdb10StringUtil26BytesToHumanReadableStringB5cxx11Emm(ptr nonnull sret(%"class.std::__cxx11::basic_string") align 8 %agg.tmp, i64 noundef %0, i64 noundef 1024)
  invoke void @_ZN6duckdb5ValueC1ENSt7__cxx1112basic_stringIcSt11char_traitsIcESaIcEEE(ptr noundef nonnull align 8 dereferenceable(64) %agg.result, ptr noundef nonnull %agg.tmp)
          to label %invoke.cont unwind label %lpad

invoke.cont:                                      ; preds = %entry
  %1 = load ptr, ptr %agg.tmp, align 8, !tbaa !3
  %2 = getelementptr inbounds %"class.std::__cxx11::basic_string", ptr %agg.tmp, i64 0, i32 2
  %cmp.i.i.i = icmp eq ptr %1, %2
  br i1 %cmp.i.i.i, label %_ZNKSt7__cxx1112basic_stringIcSt11char_traitsIcESaIcEE11_M_is_localEv.exit.thread.i.i, label %if.then.i.i

_ZNKSt7__cxx1112basic_stringIcSt11char_traitsIcESaIcEE11_M_is_localEv.exit.thread.i.i: ; preds = %invoke.cont
  %_M_string_length.i.i.i = getelementptr inbounds %"class.std::__cxx11::basic_string", ptr %agg.tmp, i64 0, i32 1
  %3 = load i64, ptr %_M_string_length.i.i.i, align 8, !tbaa !10
  %cmp3.i.i.i = icmp ult i64 %3, 16
  call void @llvm.assume(i1 %cmp3.i.i.i)
  br label %_ZNSt7__cxx1112basic_stringIcSt11char_traitsIcESaIcEED2Ev.exit

if.then.i.i:                                      ; preds = %invoke.cont
  call void @_ZdlPv(ptr noundef %1) #24
  br label %_ZNSt7__cxx1112basic_stringIcSt11char_traitsIcESaIcEED2Ev.exit

_ZNSt7__cxx1112basic_stringIcSt11char_traitsIcESaIcEED2Ev.exit: ; preds = %if.then.i.i, %_ZNKSt7__cxx1112basic_stringIcSt11char_traitsIcESaIcEE11_M_is_localEv.exit.thread.i.i
  ret void

lpad:                                             ; preds = %entry
  %4 = landingpad { ptr, i32 }
          cleanup
  %5 = load ptr, ptr %agg.tmp, align 8, !tbaa !3
  %6 = getelementptr inbounds %"class.std::__cxx11::basic_string", ptr %agg.tmp, i64 0, i32 2
  %cmp.i.i.i2 = icmp eq ptr %5, %6
  br i1 %cmp.i.i.i2, label %_ZNKSt7__cxx1112basic_stringIcSt11char_traitsIcESaIcEE11_M_is_localEv.exit.thread.i.i4, label %if.then.i.i3

_ZNKSt7__cxx1112basic_stringIcSt11char_traitsIcESaIcEE11_M_is_localEv.exit.thread.i.i4: ; preds = %lpad
  %_M_string_length.i.i.i5 = getelementptr inbounds %"class.std::__cxx11::basic_string", ptr %agg.tmp, i64 0, i32 1
  %7 = load i64, ptr %_M_string_length.i.i.i5, align 8, !tbaa !10
  %cmp3.i.i.i6 = icmp ult i64 %7, 16
  call void @llvm.assume(i1 %cmp3.i.i.i6)
  br label %_ZNSt7__cxx1112basic_stringIcSt11char_traitsIcESaIcEED2Ev.exit7

if.then.i.i3:                                     ; preds = %lpad
  call void @_ZdlPv(ptr noundef %5) #24
  br label %_ZNSt7__cxx1112basic_stringIcSt11char_traitsIcESaIcEED2Ev.exit7

_ZNSt7__cxx1112basic_stringIcSt11char_traitsIcESaIcEED2Ev.exit7: ; preds = %if.then.i.i3, %_ZNKSt7__cxx1112basic_stringIcSt11char_traitsIcESaIcEE11_M_is_localEv.exit.thread.i.i4
  resume { ptr, i32 } %4
}

declare void @_ZN6duckdb10StringUtil26BytesToHumanReadableStringB5cxx11Emm(ptr sret(%"class.std::__cxx11::basic_string") align 8, i64 noundef, i64 noundef) local_unnamed_addr #0

declare void @_ZN6duckdb5ValueC1ENSt7__cxx1112basic_stringIcSt11char_traitsIcESaIcEEE(ptr noundef nonnull align 8 dereferenceable(64), ptr noundef) unnamed_addr #0

; Function Attrs: mustprogress uwtable
define void @_ZN6duckdb20DebugCheckpointAbort9SetGlobalEPNS_16DatabaseInstanceERNS_8DBConfigERKNS_5ValueE(ptr nocapture noundef readnone %db, ptr nocapture noundef nonnull writeonly align 8 dereferenceable(896) %config, ptr noundef nonnull align 8 dereferenceable(64) %input) local_unnamed_addr #3 align 2 personality ptr @__gxx_personality_v0 {
entry:
  %checkpoint_abort = alloca %"class.std::__cxx11::basic_string", align 8
  %ref.tmp = alloca %"class.std::__cxx11::basic_string", align 8
  %ref.tmp22 = alloca %"class.std::__cxx11::basic_string", align 8
  %ref.tmp23 = alloca %"class.std::allocator", align 1
  call void @llvm.lifetime.start.p0(i64 32, ptr nonnull %checkpoint_abort) #22
  call void @llvm.lifetime.start.p0(i64 32, ptr nonnull %ref.tmp) #22
  call void @_ZNK6duckdb5Value8ToStringB5cxx11Ev(ptr nonnull sret(%"class.std::__cxx11::basic_string") align 8 %ref.tmp, ptr noundef nonnull align 8 dereferenceable(64) %input)
  invoke void @_ZN6duckdb10StringUtil5LowerERKNSt7__cxx1112basic_stringIcSt11char_traitsIcESaIcEEE(ptr nonnull sret(%"class.std::__cxx11::basic_string") align 8 %checkpoint_abort, ptr noundef nonnull align 8 dereferenceable(32) %ref.tmp)
          to label %invoke.cont unwind label %lpad

invoke.cont:                                      ; preds = %entry
  %0 = load ptr, ptr %ref.tmp, align 8, !tbaa !3
  %1 = getelementptr inbounds %"class.std::__cxx11::basic_string", ptr %ref.tmp, i64 0, i32 2
  %cmp.i.i.i = icmp eq ptr %0, %1
  br i1 %cmp.i.i.i, label %_ZNKSt7__cxx1112basic_stringIcSt11char_traitsIcESaIcEE11_M_is_localEv.exit.thread.i.i, label %if.then.i.i

_ZNKSt7__cxx1112basic_stringIcSt11char_traitsIcESaIcEE11_M_is_localEv.exit.thread.i.i: ; preds = %invoke.cont
  %_M_string_length.i.i.i = getelementptr inbounds %"class.std::__cxx11::basic_string", ptr %ref.tmp, i64 0, i32 1
  %2 = load i64, ptr %_M_string_length.i.i.i, align 8, !tbaa !10
  %cmp3.i.i.i = icmp ult i64 %2, 16
  call void @llvm.assume(i1 %cmp3.i.i.i)
  br label %_ZNSt7__cxx1112basic_stringIcSt11char_traitsIcESaIcEED2Ev.exit

if.then.i.i:                                      ; preds = %invoke.cont
  call void @_ZdlPv(ptr noundef %0) #24
  br label %_ZNSt7__cxx1112basic_stringIcSt11char_traitsIcESaIcEED2Ev.exit

_ZNSt7__cxx1112basic_stringIcSt11char_traitsIcESaIcEED2Ev.exit: ; preds = %if.then.i.i, %_ZNKSt7__cxx1112basic_stringIcSt11char_traitsIcESaIcEE11_M_is_localEv.exit.thread.i.i
  call void @llvm.lifetime.end.p0(i64 32, ptr nonnull %ref.tmp) #22
  %call.i = call noundef i32 @_ZNKSt7__cxx1112basic_stringIcSt11char_traitsIcESaIcEE7compareEPKc(ptr noundef nonnull align 8 dereferenceable(32) %checkpoint_abort, ptr noundef nonnull @.str.6) #22
  %cmp.i = icmp eq i32 %call.i, 0
  br i1 %cmp.i, label %if.end33, label %if.else

lpad:                                             ; preds = %entry
  %3 = landingpad { ptr, i32 }
          cleanup
  %4 = load ptr, ptr %ref.tmp, align 8, !tbaa !3
  %5 = getelementptr inbounds %"class.std::__cxx11::basic_string", ptr %ref.tmp, i64 0, i32 2
  %cmp.i.i.i42 = icmp eq ptr %4, %5
  br i1 %cmp.i.i.i42, label %_ZNKSt7__cxx1112basic_stringIcSt11char_traitsIcESaIcEE11_M_is_localEv.exit.thread.i.i44, label %if.then.i.i43

_ZNKSt7__cxx1112basic_stringIcSt11char_traitsIcESaIcEE11_M_is_localEv.exit.thread.i.i44: ; preds = %lpad
  %_M_string_length.i.i.i45 = getelementptr inbounds %"class.std::__cxx11::basic_string", ptr %ref.tmp, i64 0, i32 1
  %6 = load i64, ptr %_M_string_length.i.i.i45, align 8, !tbaa !10
  %cmp3.i.i.i46 = icmp ult i64 %6, 16
  call void @llvm.assume(i1 %cmp3.i.i.i46)
  br label %_ZNSt7__cxx1112basic_stringIcSt11char_traitsIcESaIcEED2Ev.exit47

if.then.i.i43:                                    ; preds = %lpad
  call void @_ZdlPv(ptr noundef %4) #24
  br label %_ZNSt7__cxx1112basic_stringIcSt11char_traitsIcESaIcEED2Ev.exit47

_ZNSt7__cxx1112basic_stringIcSt11char_traitsIcESaIcEED2Ev.exit47: ; preds = %if.then.i.i43, %_ZNKSt7__cxx1112basic_stringIcSt11char_traitsIcESaIcEE11_M_is_localEv.exit.thread.i.i44
  call void @llvm.lifetime.end.p0(i64 32, ptr nonnull %ref.tmp) #22
  br label %ehcleanup35

if.else:                                          ; preds = %_ZNSt7__cxx1112basic_stringIcSt11char_traitsIcESaIcEED2Ev.exit
  %call.i48 = call noundef i32 @_ZNKSt7__cxx1112basic_stringIcSt11char_traitsIcESaIcEE7compareEPKc(ptr noundef nonnull align 8 dereferenceable(32) %checkpoint_abort, ptr noundef nonnull @.str.7) #22
  %cmp.i49 = icmp eq i32 %call.i48, 0
  br i1 %cmp.i49, label %if.end33, label %if.else9

if.else9:                                         ; preds = %if.else
  %call.i50 = call noundef i32 @_ZNKSt7__cxx1112basic_stringIcSt11char_traitsIcESaIcEE7compareEPKc(ptr noundef nonnull align 8 dereferenceable(32) %checkpoint_abort, ptr noundef nonnull @.str.8) #22
  %cmp.i51 = icmp eq i32 %call.i50, 0
  br i1 %cmp.i51, label %if.end33, label %if.else15

if.else15:                                        ; preds = %if.else9
  %call.i52 = call noundef i32 @_ZNKSt7__cxx1112basic_stringIcSt11char_traitsIcESaIcEE7compareEPKc(ptr noundef nonnull align 8 dereferenceable(32) %checkpoint_abort, ptr noundef nonnull @.str.9) #22
  %cmp.i53 = icmp eq i32 %call.i52, 0
  br i1 %cmp.i53, label %if.end33, label %if.else21

if.else21:                                        ; preds = %if.else15
  %exception = call ptr @__cxa_allocate_exception(i64 80) #22
  call void @llvm.lifetime.start.p0(i64 32, ptr nonnull %ref.tmp22) #22
  call void @llvm.lifetime.start.p0(i64 1, ptr nonnull %ref.tmp23) #22
  invoke void @_ZNSt7__cxx1112basic_stringIcSt11char_traitsIcESaIcEEC2EPKcRKS3_(ptr noundef nonnull align 8 dereferenceable(32) %ref.tmp22, ptr noundef nonnull @.str.10, ptr noundef nonnull align 1 dereferenceable(1) %ref.tmp23)
          to label %invoke.cont25 unwind label %ehcleanup.thread

invoke.cont25:                                    ; preds = %if.else21
  invoke void @_ZN6duckdb15ParserExceptionC1ERKNSt7__cxx1112basic_stringIcSt11char_traitsIcESaIcEEE(ptr noundef nonnull align 8 dereferenceable(80) %exception, ptr noundef nonnull align 8 dereferenceable(32) %ref.tmp22)
          to label %invoke.cont27 unwind label %lpad26

invoke.cont27:                                    ; preds = %invoke.cont25
  invoke void @__cxa_throw(ptr nonnull %exception, ptr nonnull @_ZTIN6duckdb15ParserExceptionE, ptr nonnull @_ZN6duckdb9ExceptionD2Ev) #23
          to label %unreachable unwind label %lpad26

ehcleanup.thread:                                 ; preds = %if.else21
  %7 = landingpad { ptr, i32 }
          cleanup
  call void @llvm.lifetime.end.p0(i64 1, ptr nonnull %ref.tmp23) #22
  call void @llvm.lifetime.end.p0(i64 32, ptr nonnull %ref.tmp22) #22
  br label %cleanup.action

lpad26:                                           ; preds = %invoke.cont27, %invoke.cont25
  %cleanup.isactive.0 = phi i1 [ false, %invoke.cont27 ], [ true, %invoke.cont25 ]
  %8 = landingpad { ptr, i32 }
          cleanup
  %9 = load ptr, ptr %ref.tmp22, align 8, !tbaa !3
  %10 = getelementptr inbounds %"class.std::__cxx11::basic_string", ptr %ref.tmp22, i64 0, i32 2
  %cmp.i.i.i54 = icmp eq ptr %9, %10
  br i1 %cmp.i.i.i54, label %_ZNKSt7__cxx1112basic_stringIcSt11char_traitsIcESaIcEE11_M_is_localEv.exit.thread.i.i56, label %ehcleanup

_ZNKSt7__cxx1112basic_stringIcSt11char_traitsIcESaIcEE11_M_is_localEv.exit.thread.i.i56: ; preds = %lpad26
  %_M_string_length.i.i.i57 = getelementptr inbounds %"class.std::__cxx11::basic_string", ptr %ref.tmp22, i64 0, i32 1
  %11 = load i64, ptr %_M_string_length.i.i.i57, align 8, !tbaa !10
  %cmp3.i.i.i58 = icmp ult i64 %11, 16
  call void @llvm.assume(i1 %cmp3.i.i.i58)
  call void @llvm.lifetime.end.p0(i64 1, ptr nonnull %ref.tmp23) #22
  call void @llvm.lifetime.end.p0(i64 32, ptr nonnull %ref.tmp22) #22
  br i1 %cleanup.isactive.0, label %cleanup.action, label %ehcleanup34

ehcleanup:                                        ; preds = %lpad26
  call void @_ZdlPv(ptr noundef %9) #24
  call void @llvm.lifetime.end.p0(i64 1, ptr nonnull %ref.tmp23) #22
  call void @llvm.lifetime.end.p0(i64 32, ptr nonnull %ref.tmp22) #22
  br i1 %cleanup.isactive.0, label %cleanup.action, label %ehcleanup34

cleanup.action:                                   ; preds = %ehcleanup, %_ZNKSt7__cxx1112basic_stringIcSt11char_traitsIcESaIcEE11_M_is_localEv.exit.thread.i.i56, %ehcleanup.thread
  %.pn75 = phi { ptr, i32 } [ %7, %ehcleanup.thread ], [ %8, %ehcleanup ], [ %8, %_ZNKSt7__cxx1112basic_stringIcSt11char_traitsIcESaIcEE11_M_is_localEv.exit.thread.i.i56 ]
  call void @__cxa_free_exception(ptr %exception) #22
  br label %ehcleanup34

if.end33:                                         ; preds = %if.else15, %if.else9, %if.else, %_ZNSt7__cxx1112basic_stringIcSt11char_traitsIcESaIcEED2Ev.exit
  %.sink = phi i8 [ 0, %_ZNSt7__cxx1112basic_stringIcSt11char_traitsIcESaIcEED2Ev.exit ], [ 1, %if.else ], [ 2, %if.else9 ], [ 3, %if.else15 ]
  %checkpoint_abort8 = getelementptr inbounds %"struct.duckdb::DBConfig", ptr %config, i64 0, i32 5, i32 21
  store i8 %.sink, ptr %checkpoint_abort8, align 1, !tbaa !114
  %12 = load ptr, ptr %checkpoint_abort, align 8, !tbaa !3
  %13 = getelementptr inbounds %"class.std::__cxx11::basic_string", ptr %checkpoint_abort, i64 0, i32 2
  %cmp.i.i.i60 = icmp eq ptr %12, %13
  br i1 %cmp.i.i.i60, label %_ZNKSt7__cxx1112basic_stringIcSt11char_traitsIcESaIcEE11_M_is_localEv.exit.thread.i.i62, label %if.then.i.i61

_ZNKSt7__cxx1112basic_stringIcSt11char_traitsIcESaIcEE11_M_is_localEv.exit.thread.i.i62: ; preds = %if.end33
  %_M_string_length.i.i.i63 = getelementptr inbounds %"class.std::__cxx11::basic_string", ptr %checkpoint_abort, i64 0, i32 1
  %14 = load i64, ptr %_M_string_length.i.i.i63, align 8, !tbaa !10
  %cmp3.i.i.i64 = icmp ult i64 %14, 16
  call void @llvm.assume(i1 %cmp3.i.i.i64)
  br label %_ZNSt7__cxx1112basic_stringIcSt11char_traitsIcESaIcEED2Ev.exit65

if.then.i.i61:                                    ; preds = %if.end33
  call void @_ZdlPv(ptr noundef %12) #24
  br label %_ZNSt7__cxx1112basic_stringIcSt11char_traitsIcESaIcEED2Ev.exit65

_ZNSt7__cxx1112basic_stringIcSt11char_traitsIcESaIcEED2Ev.exit65: ; preds = %if.then.i.i61, %_ZNKSt7__cxx1112basic_stringIcSt11char_traitsIcESaIcEE11_M_is_localEv.exit.thread.i.i62
  call void @llvm.lifetime.end.p0(i64 32, ptr nonnull %checkpoint_abort) #22
  ret void

ehcleanup34:                                      ; preds = %cleanup.action, %ehcleanup, %_ZNKSt7__cxx1112basic_stringIcSt11char_traitsIcESaIcEE11_M_is_localEv.exit.thread.i.i56
  %.pn74 = phi { ptr, i32 } [ %8, %ehcleanup ], [ %.pn75, %cleanup.action ], [ %8, %_ZNKSt7__cxx1112basic_stringIcSt11char_traitsIcESaIcEE11_M_is_localEv.exit.thread.i.i56 ]
  %15 = load ptr, ptr %checkpoint_abort, align 8, !tbaa !3
  %16 = getelementptr inbounds %"class.std::__cxx11::basic_string", ptr %checkpoint_abort, i64 0, i32 2
  %cmp.i.i.i66 = icmp eq ptr %15, %16
  br i1 %cmp.i.i.i66, label %_ZNKSt7__cxx1112basic_stringIcSt11char_traitsIcESaIcEE11_M_is_localEv.exit.thread.i.i68, label %if.then.i.i67

_ZNKSt7__cxx1112basic_stringIcSt11char_traitsIcESaIcEE11_M_is_localEv.exit.thread.i.i68: ; preds = %ehcleanup34
  %_M_string_length.i.i.i69 = getelementptr inbounds %"class.std::__cxx11::basic_string", ptr %checkpoint_abort, i64 0, i32 1
  %17 = load i64, ptr %_M_string_length.i.i.i69, align 8, !tbaa !10
  %cmp3.i.i.i70 = icmp ult i64 %17, 16
  call void @llvm.assume(i1 %cmp3.i.i.i70)
  br label %ehcleanup35

if.then.i.i67:                                    ; preds = %ehcleanup34
  call void @_ZdlPv(ptr noundef %15) #24
  br label %ehcleanup35

ehcleanup35:                                      ; preds = %if.then.i.i67, %_ZNKSt7__cxx1112basic_stringIcSt11char_traitsIcESaIcEE11_M_is_localEv.exit.thread.i.i68, %_ZNSt7__cxx1112basic_stringIcSt11char_traitsIcESaIcEED2Ev.exit47
  %.pn.pn = phi { ptr, i32 } [ %3, %_ZNSt7__cxx1112basic_stringIcSt11char_traitsIcESaIcEED2Ev.exit47 ], [ %.pn74, %_ZNKSt7__cxx1112basic_stringIcSt11char_traitsIcESaIcEE11_M_is_localEv.exit.thread.i.i68 ], [ %.pn74, %if.then.i.i67 ]
  call void @llvm.lifetime.end.p0(i64 32, ptr nonnull %checkpoint_abort) #22
  resume { ptr, i32 } %.pn.pn

unreachable:                                      ; preds = %invoke.cont27
  unreachable
}

declare void @_ZN6duckdb15ParserExceptionC1ERKNSt7__cxx1112basic_stringIcSt11char_traitsIcESaIcEEE(ptr noundef nonnull align 8 dereferenceable(80), ptr noundef nonnull align 8 dereferenceable(32)) unnamed_addr #0

; Function Attrs: inlinehint mustprogress nounwind uwtable
define linkonce_odr void @_ZN6duckdb9ExceptionD2Ev(ptr noundef nonnull align 8 dereferenceable(80) %this) unnamed_addr #5 comdat align 2 personality ptr @__gxx_personality_v0 {
entry:
  store ptr getelementptr inbounds ({ [6 x ptr] }, ptr @_ZTVN6duckdb9ExceptionE, i64 0, inrange i32 0, i64 2), ptr %this, align 8, !tbaa !115
  %raw_message_ = getelementptr inbounds %"class.duckdb::Exception", ptr %this, i64 0, i32 3
  %0 = load ptr, ptr %raw_message_, align 8, !tbaa !3
  %1 = getelementptr inbounds %"class.duckdb::Exception", ptr %this, i64 0, i32 3, i32 2
  %cmp.i.i.i = icmp eq ptr %0, %1
  br i1 %cmp.i.i.i, label %_ZNKSt7__cxx1112basic_stringIcSt11char_traitsIcESaIcEE11_M_is_localEv.exit.thread.i.i, label %if.then.i.i

_ZNKSt7__cxx1112basic_stringIcSt11char_traitsIcESaIcEE11_M_is_localEv.exit.thread.i.i: ; preds = %entry
  %_M_string_length.i.i.i = getelementptr inbounds %"class.duckdb::Exception", ptr %this, i64 0, i32 3, i32 1
  %2 = load i64, ptr %_M_string_length.i.i.i, align 8, !tbaa !10
  %cmp3.i.i.i = icmp ult i64 %2, 16
  tail call void @llvm.assume(i1 %cmp3.i.i.i)
  br label %_ZNSt7__cxx1112basic_stringIcSt11char_traitsIcESaIcEED2Ev.exit

if.then.i.i:                                      ; preds = %entry
  tail call void @_ZdlPv(ptr noundef %0) #24
  br label %_ZNSt7__cxx1112basic_stringIcSt11char_traitsIcESaIcEED2Ev.exit

_ZNSt7__cxx1112basic_stringIcSt11char_traitsIcESaIcEED2Ev.exit: ; preds = %if.then.i.i, %_ZNKSt7__cxx1112basic_stringIcSt11char_traitsIcESaIcEE11_M_is_localEv.exit.thread.i.i
  %exception_message_ = getelementptr inbounds %"class.duckdb::Exception", ptr %this, i64 0, i32 2
  %3 = load ptr, ptr %exception_message_, align 8, !tbaa !3
  %4 = getelementptr inbounds %"class.duckdb::Exception", ptr %this, i64 0, i32 2, i32 2
  %cmp.i.i.i2 = icmp eq ptr %3, %4
  br i1 %cmp.i.i.i2, label %_ZNKSt7__cxx1112basic_stringIcSt11char_traitsIcESaIcEE11_M_is_localEv.exit.thread.i.i4, label %if.then.i.i3

_ZNKSt7__cxx1112basic_stringIcSt11char_traitsIcESaIcEE11_M_is_localEv.exit.thread.i.i4: ; preds = %_ZNSt7__cxx1112basic_stringIcSt11char_traitsIcESaIcEED2Ev.exit
  %_M_string_length.i.i.i5 = getelementptr inbounds %"class.duckdb::Exception", ptr %this, i64 0, i32 2, i32 1
  %5 = load i64, ptr %_M_string_length.i.i.i5, align 8, !tbaa !10
  %cmp3.i.i.i6 = icmp ult i64 %5, 16
  tail call void @llvm.assume(i1 %cmp3.i.i.i6)
  br label %_ZNSt7__cxx1112basic_stringIcSt11char_traitsIcESaIcEED2Ev.exit7

if.then.i.i3:                                     ; preds = %_ZNSt7__cxx1112basic_stringIcSt11char_traitsIcESaIcEED2Ev.exit
  tail call void @_ZdlPv(ptr noundef %3) #24
  br label %_ZNSt7__cxx1112basic_stringIcSt11char_traitsIcESaIcEED2Ev.exit7

_ZNSt7__cxx1112basic_stringIcSt11char_traitsIcESaIcEED2Ev.exit7: ; preds = %if.then.i.i3, %_ZNKSt7__cxx1112basic_stringIcSt11char_traitsIcESaIcEE11_M_is_localEv.exit.thread.i.i4
  tail call void @_ZNSt9exceptionD2Ev(ptr noundef nonnull align 8 dereferenceable(8) %this) #22
  ret void
}

; Function Attrs: mustprogress uwtable
define void @_ZN6duckdb20DebugCheckpointAbort11ResetGlobalEPNS_16DatabaseInstanceERNS_8DBConfigE(ptr nocapture noundef readnone %db, ptr nocapture noundef nonnull writeonly align 8 dereferenceable(896) %config) local_unnamed_addr #3 align 2 {
entry:
  %ref.tmp = alloca %"struct.duckdb::DBConfig", align 8
  call void @llvm.lifetime.start.p0(i64 896, ptr nonnull %ref.tmp) #22
  call void @_ZN6duckdb8DBConfigC1Ev(ptr noundef nonnull align 8 dereferenceable(896) %ref.tmp)
  %checkpoint_abort = getelementptr inbounds %"struct.duckdb::DBConfig", ptr %ref.tmp, i64 0, i32 5, i32 21
  %0 = load i8, ptr %checkpoint_abort, align 1, !tbaa !114
  %checkpoint_abort2 = getelementptr inbounds %"struct.duckdb::DBConfig", ptr %config, i64 0, i32 5, i32 21
  store i8 %0, ptr %checkpoint_abort2, align 1, !tbaa !114
  call void @_ZN6duckdb8DBConfigD1Ev(ptr noundef nonnull align 8 dereferenceable(896) %ref.tmp) #22
  call void @llvm.lifetime.end.p0(i64 896, ptr nonnull %ref.tmp) #22
  ret void
}

; Function Attrs: mustprogress uwtable
define void @_ZN6duckdb20DebugCheckpointAbort10GetSettingERNS_13ClientContextE(ptr noalias sret(%"class.duckdb::Value") align 8 %agg.result, ptr nocapture noundef nonnull readonly align 8 dereferenceable(592) %context) local_unnamed_addr #3 align 2 personality ptr @__gxx_personality_v0 {
entry:
  %ref.tmp = alloca %"class.std::__cxx11::basic_string", align 8
  %ref.tmp5 = alloca %"class.std::allocator", align 1
  %db = getelementptr inbounds %"class.duckdb::ClientContext", ptr %context, i64 0, i32 1
  %0 = load ptr, ptr %db, align 8, !tbaa !117
  %call1 = tail call noundef nonnull align 8 dereferenceable(896) ptr @_ZN6duckdb8DBConfig9GetConfigERNS_16DatabaseInstanceE(ptr noundef nonnull align 8 dereferenceable(1088) %0)
  %checkpoint_abort = getelementptr inbounds %"struct.duckdb::DBConfig", ptr %call1, i64 0, i32 5, i32 21
  %1 = load i8, ptr %checkpoint_abort, align 1, !tbaa !114
  %2 = icmp ult i8 %1, 4
  br i1 %2, label %switch.lookup, label %sw.default

sw.default:                                       ; preds = %entry
  %exception = tail call ptr @__cxa_allocate_exception(i64 80) #22
  call void @llvm.lifetime.start.p0(i64 32, ptr nonnull %ref.tmp) #22
  call void @llvm.lifetime.start.p0(i64 1, ptr nonnull %ref.tmp5) #22
  invoke void @_ZNSt7__cxx1112basic_stringIcSt11char_traitsIcESaIcEEC2EPKcRKS3_(ptr noundef nonnull align 8 dereferenceable(32) %ref.tmp, ptr noundef nonnull @.str.11, ptr noundef nonnull align 1 dereferenceable(1) %ref.tmp5)
          to label %invoke.cont unwind label %ehcleanup.thread

invoke.cont:                                      ; preds = %sw.default
  invoke void @_ZN6duckdb17InternalExceptionC1ERKNSt7__cxx1112basic_stringIcSt11char_traitsIcESaIcEEE(ptr noundef nonnull align 8 dereferenceable(80) %exception, ptr noundef nonnull align 8 dereferenceable(32) %ref.tmp)
          to label %invoke.cont7 unwind label %lpad6

invoke.cont7:                                     ; preds = %invoke.cont
  invoke void @__cxa_throw(ptr nonnull %exception, ptr nonnull @_ZTIN6duckdb17InternalExceptionE, ptr nonnull @_ZN6duckdb9ExceptionD2Ev) #23
          to label %unreachable unwind label %lpad6

ehcleanup.thread:                                 ; preds = %sw.default
  %3 = landingpad { ptr, i32 }
          cleanup
  call void @llvm.lifetime.end.p0(i64 1, ptr nonnull %ref.tmp5) #22
  call void @llvm.lifetime.end.p0(i64 32, ptr nonnull %ref.tmp) #22
  br label %cleanup.action

lpad6:                                            ; preds = %invoke.cont7, %invoke.cont
  %cleanup.isactive.0 = phi i1 [ false, %invoke.cont7 ], [ true, %invoke.cont ]
  %4 = landingpad { ptr, i32 }
          cleanup
  %5 = load ptr, ptr %ref.tmp, align 8, !tbaa !3
  %6 = getelementptr inbounds %"class.std::__cxx11::basic_string", ptr %ref.tmp, i64 0, i32 2
  %cmp.i.i.i = icmp eq ptr %5, %6
  br i1 %cmp.i.i.i, label %_ZNKSt7__cxx1112basic_stringIcSt11char_traitsIcESaIcEE11_M_is_localEv.exit.thread.i.i, label %ehcleanup

_ZNKSt7__cxx1112basic_stringIcSt11char_traitsIcESaIcEE11_M_is_localEv.exit.thread.i.i: ; preds = %lpad6
  %_M_string_length.i.i.i = getelementptr inbounds %"class.std::__cxx11::basic_string", ptr %ref.tmp, i64 0, i32 1
  %7 = load i64, ptr %_M_string_length.i.i.i, align 8, !tbaa !10
  %cmp3.i.i.i = icmp ult i64 %7, 16
  call void @llvm.assume(i1 %cmp3.i.i.i)
  call void @llvm.lifetime.end.p0(i64 1, ptr nonnull %ref.tmp5) #22
  call void @llvm.lifetime.end.p0(i64 32, ptr nonnull %ref.tmp) #22
  br i1 %cleanup.isactive.0, label %cleanup.action, label %cleanup.done

ehcleanup:                                        ; preds = %lpad6
  call void @_ZdlPv(ptr noundef %5) #24
  call void @llvm.lifetime.end.p0(i64 1, ptr nonnull %ref.tmp5) #22
  call void @llvm.lifetime.end.p0(i64 32, ptr nonnull %ref.tmp) #22
  br i1 %cleanup.isactive.0, label %cleanup.action, label %cleanup.done

cleanup.action:                                   ; preds = %ehcleanup, %_ZNKSt7__cxx1112basic_stringIcSt11char_traitsIcESaIcEE11_M_is_localEv.exit.thread.i.i, %ehcleanup.thread
  %.pn19 = phi { ptr, i32 } [ %3, %ehcleanup.thread ], [ %4, %ehcleanup ], [ %4, %_ZNKSt7__cxx1112basic_stringIcSt11char_traitsIcESaIcEE11_M_is_localEv.exit.thread.i.i ]
  call void @__cxa_free_exception(ptr %exception) #22
  br label %cleanup.done

cleanup.done:                                     ; preds = %cleanup.action, %ehcleanup, %_ZNKSt7__cxx1112basic_stringIcSt11char_traitsIcESaIcEE11_M_is_localEv.exit.thread.i.i
  %.pn18 = phi { ptr, i32 } [ %.pn19, %cleanup.action ], [ %4, %ehcleanup ], [ %4, %_ZNKSt7__cxx1112basic_stringIcSt11char_traitsIcESaIcEE11_M_is_localEv.exit.thread.i.i ]
  resume { ptr, i32 } %.pn18

switch.lookup:                                    ; preds = %entry
  %8 = shl nuw nsw i8 %1, 2
  %reltable.shift = zext nneg i8 %8 to i64
  %reltable.intrinsic = tail call ptr @llvm.load.relative.i64(ptr nonnull @reltable._ZN6duckdb20DebugCheckpointAbort10GetSettingERNS_13ClientContextE, i64 %reltable.shift)
  tail call void @_ZN6duckdb5ValueC1EPKc(ptr noundef nonnull align 8 dereferenceable(64) %agg.result, ptr noundef nonnull %reltable.intrinsic)
  ret void

unreachable:                                      ; preds = %invoke.cont7
  unreachable
}

declare noundef nonnull align 8 dereferenceable(896) ptr @_ZN6duckdb8DBConfig9GetConfigERNS_16DatabaseInstanceE(ptr noundef nonnull align 8 dereferenceable(1088)) local_unnamed_addr #0

; Function Attrs: mustprogress uwtable
define void @_ZN6duckdb18DebugForceExternal10ResetLocalERNS_13ClientContextE(ptr noundef nonnull align 8 dereferenceable(592) %context) local_unnamed_addr #3 align 2 personality ptr @__gxx_personality_v0 {
entry:
  %ref.tmp = alloca %"struct.duckdb::ClientConfig", align 8
  call void @llvm.lifetime.start.p0(i64 336, ptr nonnull %ref.tmp) #22
  %0 = getelementptr inbounds i8, ptr %ref.tmp, i64 16
  call void @llvm.memset.p0.i64(ptr noundef nonnull align 8 dereferenceable(336) %0, i8 0, i64 272, i1 false)
  store ptr %0, ptr %ref.tmp, align 8, !tbaa !110
  %_M_string_length.i.i.i.i = getelementptr inbounds %"class.std::__cxx11::basic_string", ptr %ref.tmp, i64 0, i32 1
  store i64 0, ptr %_M_string_length.i.i.i.i, align 8, !tbaa !10
  %profiler_print_format.i = getelementptr inbounds %"struct.duckdb::ClientConfig", ptr %ref.tmp, i64 0, i32 3
  store i8 0, ptr %profiler_print_format.i, align 2, !tbaa !119
  %profiler_save_location.i = getelementptr inbounds %"struct.duckdb::ClientConfig", ptr %ref.tmp, i64 0, i32 4
  %1 = getelementptr inbounds %"struct.duckdb::ClientConfig", ptr %ref.tmp, i64 0, i32 4, i32 2
  store ptr %1, ptr %profiler_save_location.i, align 8, !tbaa !110
  %emit_profiler_output.i = getelementptr inbounds %"struct.duckdb::ClientConfig", ptr %ref.tmp, i64 0, i32 5
  store i8 1, ptr %emit_profiler_output.i, align 8, !tbaa !126
  %print_progress_bar.i = getelementptr inbounds %"struct.duckdb::ClientConfig", ptr %ref.tmp, i64 0, i32 8
  store i8 1, ptr %print_progress_bar.i, align 1, !tbaa !127
  %wait_time.i = getelementptr inbounds %"struct.duckdb::ClientConfig", ptr %ref.tmp, i64 0, i32 9
  store i32 2000, ptr %wait_time.i, align 4, !tbaa !128
  %preserve_identifier_case.i = getelementptr inbounds %"struct.duckdb::ClientConfig", ptr %ref.tmp, i64 0, i32 10
  store i8 1, ptr %preserve_identifier_case.i, align 8, !tbaa !129
  %max_expression_depth.i = getelementptr inbounds %"struct.duckdb::ClientConfig", ptr %ref.tmp, i64 0, i32 11
  store i64 1000, ptr %max_expression_depth.i, align 8, !tbaa !130
  %enable_optimizer.i = getelementptr inbounds %"struct.duckdb::ClientConfig", ptr %ref.tmp, i64 0, i32 15
  store i8 1, ptr %enable_optimizer.i, align 1, !tbaa !131
  %enable_caching_operators.i = getelementptr inbounds %"struct.duckdb::ClientConfig", ptr %ref.tmp, i64 0, i32 16
  store i8 1, ptr %enable_caching_operators.i, align 4, !tbaa !132
  %verify_parallelism.i = getelementptr inbounds %"struct.duckdb::ClientConfig", ptr %ref.tmp, i64 0, i32 17
  %use_replacement_scans.i = getelementptr inbounds %"struct.duckdb::ClientConfig", ptr %ref.tmp, i64 0, i32 22
  call void @llvm.memset.p0.i64(ptr noundef nonnull align 1 dereferenceable(5) %verify_parallelism.i, i8 0, i64 5, i1 false)
  store i8 1, ptr %use_replacement_scans.i, align 2, !tbaa !133
  %perfect_ht_threshold.i = getelementptr inbounds %"struct.duckdb::ClientConfig", ptr %ref.tmp, i64 0, i32 23
  store i64 12, ptr %perfect_ht_threshold.i, align 8, !tbaa !134
  %ordered_aggregate_threshold.i = getelementptr inbounds %"struct.duckdb::ClientConfig", ptr %ref.tmp, i64 0, i32 24
  store i64 262144, ptr %ordered_aggregate_threshold.i, align 8, !tbaa !135
  %custom_extension_repo.i = getelementptr inbounds %"struct.duckdb::ClientConfig", ptr %ref.tmp, i64 0, i32 26
  %2 = getelementptr inbounds %"struct.duckdb::ClientConfig", ptr %ref.tmp, i64 0, i32 26, i32 2
  store ptr %2, ptr %custom_extension_repo.i, align 8, !tbaa !110
  %autoinstall_extension_repo.i = getelementptr inbounds %"struct.duckdb::ClientConfig", ptr %ref.tmp, i64 0, i32 27
  %3 = getelementptr inbounds %"struct.duckdb::ClientConfig", ptr %ref.tmp, i64 0, i32 27, i32 2
  store ptr %3, ptr %autoinstall_extension_repo.i, align 8, !tbaa !110
  %explain_output_type.i = getelementptr inbounds %"struct.duckdb::ClientConfig", ptr %ref.tmp, i64 0, i32 28
  store i8 2, ptr %explain_output_type.i, align 8, !tbaa !136
  %pivot_limit.i = getelementptr inbounds %"struct.duckdb::ClientConfig", ptr %ref.tmp, i64 0, i32 29
  store i64 100000, ptr %pivot_limit.i, align 8, !tbaa !137
  %pivot_filter_threshold.i = getelementptr inbounds %"struct.duckdb::ClientConfig", ptr %ref.tmp, i64 0, i32 30
  store i64 10, ptr %pivot_filter_threshold.i, align 8, !tbaa !138
  %set_variables.i = getelementptr inbounds %"struct.duckdb::ClientConfig", ptr %ref.tmp, i64 0, i32 32
  %_M_single_bucket.i.i.i = getelementptr inbounds %"struct.duckdb::ClientConfig", ptr %ref.tmp, i64 0, i32 32, i32 0, i32 5
  store ptr %_M_single_bucket.i.i.i, ptr %set_variables.i, align 8, !tbaa !139
  %_M_bucket_count.i.i.i = getelementptr inbounds %"struct.duckdb::ClientConfig", ptr %ref.tmp, i64 0, i32 32, i32 0, i32 1
  store i64 1, ptr %_M_bucket_count.i.i.i, align 8, !tbaa !140
  %_M_before_begin.i.i.i = getelementptr inbounds %"struct.duckdb::ClientConfig", ptr %ref.tmp, i64 0, i32 32, i32 0, i32 2
  %_M_rehash_policy.i.i.i = getelementptr inbounds %"struct.duckdb::ClientConfig", ptr %ref.tmp, i64 0, i32 32, i32 0, i32 4
  call void @llvm.memset.p0.i64(ptr noundef nonnull align 8 dereferenceable(16) %_M_before_begin.i.i.i, i8 0, i64 16, i1 false)
  store float 1.000000e+00, ptr %_M_rehash_policy.i.i.i, align 8, !tbaa !141
  %_M_next_resize.i.i.i.i = getelementptr inbounds %"struct.duckdb::ClientConfig", ptr %ref.tmp, i64 0, i32 32, i32 0, i32 4, i32 1
  call void @llvm.memset.p0.i64(ptr noundef nonnull align 8 dereferenceable(48) %_M_next_resize.i.i.i.i, i8 0, i64 48, i1 false)
  %call = invoke noundef nonnull align 8 dereferenceable(336) ptr @_ZN6duckdb12ClientConfig9GetConfigERNS_13ClientContextE(ptr noundef nonnull align 8 dereferenceable(592) %context)
          to label %invoke.cont unwind label %lpad

invoke.cont:                                      ; preds = %entry
  %force_external1 = getelementptr inbounds %"struct.duckdb::ClientConfig", ptr %call, i64 0, i32 18
  store i8 0, ptr %force_external1, align 2, !tbaa !142
  call void @_ZN6duckdb12ClientConfigD2Ev(ptr noundef nonnull align 8 dereferenceable(336) %ref.tmp) #22
  call void @llvm.lifetime.end.p0(i64 336, ptr nonnull %ref.tmp) #22
  ret void

lpad:                                             ; preds = %entry
  %4 = landingpad { ptr, i32 }
          cleanup
  call void @_ZN6duckdb12ClientConfigD2Ev(ptr noundef nonnull align 8 dereferenceable(336) %ref.tmp) #22
  call void @llvm.lifetime.end.p0(i64 336, ptr nonnull %ref.tmp) #22
  resume { ptr, i32 } %4
}

; Function Attrs: mustprogress nocallback nofree nounwind willreturn memory(argmem: write)
declare void @llvm.memset.p0.i64(ptr nocapture writeonly, i8, i64, i1 immarg) #6

declare noundef nonnull align 8 dereferenceable(336) ptr @_ZN6duckdb12ClientConfig9GetConfigERNS_13ClientContextE(ptr noundef nonnull align 8 dereferenceable(592)) local_unnamed_addr #0

; Function Attrs: inlinehint mustprogress nounwind uwtable
define linkonce_odr void @_ZN6duckdb12ClientConfigD2Ev(ptr noundef nonnull align 8 dereferenceable(336) %this) unnamed_addr #5 comdat align 2 personality ptr @__gxx_personality_v0 {
entry:
  %_M_manager.i = getelementptr inbounds %"struct.duckdb::ClientConfig", ptr %this, i64 0, i32 33, i32 0, i32 1
  %0 = load ptr, ptr %_M_manager.i, align 8, !tbaa !143
  %tobool.not.i = icmp eq ptr %0, null
  br i1 %tobool.not.i, label %_ZNSt14_Function_baseD2Ev.exit, label %if.then.i

if.then.i:                                        ; preds = %entry
  %result_collector = getelementptr inbounds %"struct.duckdb::ClientConfig", ptr %this, i64 0, i32 33
  %call.i = invoke noundef zeroext i1 %0(ptr noundef nonnull align 8 dereferenceable(16) %result_collector, ptr noundef nonnull align 8 dereferenceable(16) %result_collector, i32 noundef 3)
          to label %_ZNSt14_Function_baseD2Ev.exit unwind label %terminate.lpad.i

terminate.lpad.i:                                 ; preds = %if.then.i
  %1 = landingpad { ptr, i32 }
          catch ptr null
  %2 = extractvalue { ptr, i32 } %1, 0
  tail call void @__clang_call_terminate(ptr %2) #25
  unreachable

_ZNSt14_Function_baseD2Ev.exit:                   ; preds = %if.then.i, %entry
  %set_variables = getelementptr inbounds %"struct.duckdb::ClientConfig", ptr %this, i64 0, i32 32
  %_M_before_begin.i.i.i.i = getelementptr inbounds %"struct.duckdb::ClientConfig", ptr %this, i64 0, i32 32, i32 0, i32 2
  %3 = load ptr, ptr %_M_before_begin.i.i.i.i, align 8, !tbaa !144
  %tobool.not4.i.i.i.i = icmp eq ptr %3, null
  br i1 %tobool.not4.i.i.i.i, label %_ZNSt10_HashtableINSt7__cxx1112basic_stringIcSt11char_traitsIcESaIcEEESt4pairIKS5_N6duckdb5ValueEESaISA_ENSt8__detail10_Select1stENS8_29CaseInsensitiveStringEqualityENS8_33CaseInsensitiveStringHashFunctionENSC_18_Mod_range_hashingENSC_20_Default_ranged_hashENSC_20_Prime_rehash_policyENSC_17_Hashtable_traitsILb1ELb0ELb1EEEE5clearEv.exit.i.i, label %while.body.i.i.i.i

while.body.i.i.i.i:                               ; preds = %_ZNSt14_Function_baseD2Ev.exit, %_ZNSt8__detail16_Hashtable_allocISaINS_10_Hash_nodeISt4pairIKNSt7__cxx1112basic_stringIcSt11char_traitsIcESaIcEEEN6duckdb5ValueEELb1EEEEE18_M_deallocate_nodeEPSD_.exit.i.i.i.i
  %__n.addr.05.i.i.i.i = phi ptr [ %4, %_ZNSt8__detail16_Hashtable_allocISaINS_10_Hash_nodeISt4pairIKNSt7__cxx1112basic_stringIcSt11char_traitsIcESaIcEEEN6duckdb5ValueEELb1EEEEE18_M_deallocate_nodeEPSD_.exit.i.i.i.i ], [ %3, %_ZNSt14_Function_baseD2Ev.exit ]
  %4 = load ptr, ptr %__n.addr.05.i.i.i.i, align 8, !tbaa !145
  %add.ptr.i.i.i.i.i = getelementptr inbounds i8, ptr %__n.addr.05.i.i.i.i, i64 8
  %second.i.i.i.i.i.i.i.i = getelementptr inbounds i8, ptr %__n.addr.05.i.i.i.i, i64 40
  tail call void @_ZN6duckdb5ValueD1Ev(ptr noundef nonnull align 8 dereferenceable(64) %second.i.i.i.i.i.i.i.i) #22
  %5 = load ptr, ptr %add.ptr.i.i.i.i.i, align 8, !tbaa !3
  %6 = getelementptr inbounds i8, ptr %__n.addr.05.i.i.i.i, i64 24
  %cmp.i.i.i.i.i.i.i.i.i.i.i = icmp eq ptr %5, %6
  br i1 %cmp.i.i.i.i.i.i.i.i.i.i.i, label %_ZNKSt7__cxx1112basic_stringIcSt11char_traitsIcESaIcEE11_M_is_localEv.exit.thread.i.i.i.i.i.i.i.i.i.i, label %if.then.i.i.i.i.i.i.i.i.i.i

_ZNKSt7__cxx1112basic_stringIcSt11char_traitsIcESaIcEE11_M_is_localEv.exit.thread.i.i.i.i.i.i.i.i.i.i: ; preds = %while.body.i.i.i.i
  %_M_string_length.i.i.i.i.i.i.i.i.i.i.i = getelementptr inbounds i8, ptr %__n.addr.05.i.i.i.i, i64 16
  %7 = load i64, ptr %_M_string_length.i.i.i.i.i.i.i.i.i.i.i, align 8, !tbaa !10
  %cmp3.i.i.i.i.i.i.i.i.i.i.i = icmp ult i64 %7, 16
  tail call void @llvm.assume(i1 %cmp3.i.i.i.i.i.i.i.i.i.i.i)
  br label %_ZNSt8__detail16_Hashtable_allocISaINS_10_Hash_nodeISt4pairIKNSt7__cxx1112basic_stringIcSt11char_traitsIcESaIcEEEN6duckdb5ValueEELb1EEEEE18_M_deallocate_nodeEPSD_.exit.i.i.i.i

if.then.i.i.i.i.i.i.i.i.i.i:                      ; preds = %while.body.i.i.i.i
  tail call void @_ZdlPv(ptr noundef %5) #24
  br label %_ZNSt8__detail16_Hashtable_allocISaINS_10_Hash_nodeISt4pairIKNSt7__cxx1112basic_stringIcSt11char_traitsIcESaIcEEEN6duckdb5ValueEELb1EEEEE18_M_deallocate_nodeEPSD_.exit.i.i.i.i

_ZNSt8__detail16_Hashtable_allocISaINS_10_Hash_nodeISt4pairIKNSt7__cxx1112basic_stringIcSt11char_traitsIcESaIcEEEN6duckdb5ValueEELb1EEEEE18_M_deallocate_nodeEPSD_.exit.i.i.i.i: ; preds = %if.then.i.i.i.i.i.i.i.i.i.i, %_ZNKSt7__cxx1112basic_stringIcSt11char_traitsIcESaIcEE11_M_is_localEv.exit.thread.i.i.i.i.i.i.i.i.i.i
  tail call void @_ZdlPv(ptr noundef nonnull %__n.addr.05.i.i.i.i) #24
  %tobool.not.i.i.i.i = icmp eq ptr %4, null
  br i1 %tobool.not.i.i.i.i, label %_ZNSt10_HashtableINSt7__cxx1112basic_stringIcSt11char_traitsIcESaIcEEESt4pairIKS5_N6duckdb5ValueEESaISA_ENSt8__detail10_Select1stENS8_29CaseInsensitiveStringEqualityENS8_33CaseInsensitiveStringHashFunctionENSC_18_Mod_range_hashingENSC_20_Default_ranged_hashENSC_20_Prime_rehash_policyENSC_17_Hashtable_traitsILb1ELb0ELb1EEEE5clearEv.exit.i.i, label %while.body.i.i.i.i, !llvm.loop !146

_ZNSt10_HashtableINSt7__cxx1112basic_stringIcSt11char_traitsIcESaIcEEESt4pairIKS5_N6duckdb5ValueEESaISA_ENSt8__detail10_Select1stENS8_29CaseInsensitiveStringEqualityENS8_33CaseInsensitiveStringHashFunctionENSC_18_Mod_range_hashingENSC_20_Default_ranged_hashENSC_20_Prime_rehash_policyENSC_17_Hashtable_traitsILb1ELb0ELb1EEEE5clearEv.exit.i.i: ; preds = %_ZNSt8__detail16_Hashtable_allocISaINS_10_Hash_nodeISt4pairIKNSt7__cxx1112basic_stringIcSt11char_traitsIcESaIcEEEN6duckdb5ValueEELb1EEEEE18_M_deallocate_nodeEPSD_.exit.i.i.i.i, %_ZNSt14_Function_baseD2Ev.exit
  %8 = load ptr, ptr %set_variables, align 8, !tbaa !139
  %_M_bucket_count.i.i.i = getelementptr inbounds %"struct.duckdb::ClientConfig", ptr %this, i64 0, i32 32, i32 0, i32 1
  %9 = load i64, ptr %_M_bucket_count.i.i.i, align 8, !tbaa !140
  %mul.i.i.i = shl i64 %9, 3
  tail call void @llvm.memset.p0.i64(ptr align 8 %8, i8 0, i64 %mul.i.i.i, i1 false)
  tail call void @llvm.memset.p0.i64(ptr noundef nonnull align 8 dereferenceable(16) %_M_before_begin.i.i.i.i, i8 0, i64 16, i1 false)
  %10 = load ptr, ptr %set_variables, align 8, !tbaa !139
  %_M_single_bucket.i.i.i.i.i = getelementptr inbounds %"struct.duckdb::ClientConfig", ptr %this, i64 0, i32 32, i32 0, i32 5
  %cmp.i.i.i.i.i = icmp eq ptr %_M_single_bucket.i.i.i.i.i, %10
  br i1 %cmp.i.i.i.i.i, label %_ZNSt13unordered_mapINSt7__cxx1112basic_stringIcSt11char_traitsIcESaIcEEEN6duckdb5ValueENS6_33CaseInsensitiveStringHashFunctionENS6_29CaseInsensitiveStringEqualityESaISt4pairIKS5_S7_EEED2Ev.exit, label %if.end.i.i.i.i

if.end.i.i.i.i:                                   ; preds = %_ZNSt10_HashtableINSt7__cxx1112basic_stringIcSt11char_traitsIcESaIcEEESt4pairIKS5_N6duckdb5ValueEESaISA_ENSt8__detail10_Select1stENS8_29CaseInsensitiveStringEqualityENS8_33CaseInsensitiveStringHashFunctionENSC_18_Mod_range_hashingENSC_20_Default_ranged_hashENSC_20_Prime_rehash_policyENSC_17_Hashtable_traitsILb1ELb0ELb1EEEE5clearEv.exit.i.i
  tail call void @_ZdlPv(ptr noundef %10) #24
  br label %_ZNSt13unordered_mapINSt7__cxx1112basic_stringIcSt11char_traitsIcESaIcEEEN6duckdb5ValueENS6_33CaseInsensitiveStringHashFunctionENS6_29CaseInsensitiveStringEqualityESaISt4pairIKS5_S7_EEED2Ev.exit

_ZNSt13unordered_mapINSt7__cxx1112basic_stringIcSt11char_traitsIcESaIcEEEN6duckdb5ValueENS6_33CaseInsensitiveStringHashFunctionENS6_29CaseInsensitiveStringEqualityESaISt4pairIKS5_S7_EEED2Ev.exit: ; preds = %if.end.i.i.i.i, %_ZNSt10_HashtableINSt7__cxx1112basic_stringIcSt11char_traitsIcESaIcEEESt4pairIKS5_N6duckdb5ValueEESaISA_ENSt8__detail10_Select1stENS8_29CaseInsensitiveStringEqualityENS8_33CaseInsensitiveStringHashFunctionENSC_18_Mod_range_hashingENSC_20_Default_ranged_hashENSC_20_Prime_rehash_policyENSC_17_Hashtable_traitsILb1ELb0ELb1EEEE5clearEv.exit.i.i
  %autoinstall_extension_repo = getelementptr inbounds %"struct.duckdb::ClientConfig", ptr %this, i64 0, i32 27
  %11 = load ptr, ptr %autoinstall_extension_repo, align 8, !tbaa !3
  %12 = getelementptr inbounds %"struct.duckdb::ClientConfig", ptr %this, i64 0, i32 27, i32 2
  %cmp.i.i.i = icmp eq ptr %11, %12
  br i1 %cmp.i.i.i, label %_ZNKSt7__cxx1112basic_stringIcSt11char_traitsIcESaIcEE11_M_is_localEv.exit.thread.i.i, label %if.then.i.i

_ZNKSt7__cxx1112basic_stringIcSt11char_traitsIcESaIcEE11_M_is_localEv.exit.thread.i.i: ; preds = %_ZNSt13unordered_mapINSt7__cxx1112basic_stringIcSt11char_traitsIcESaIcEEEN6duckdb5ValueENS6_33CaseInsensitiveStringHashFunctionENS6_29CaseInsensitiveStringEqualityESaISt4pairIKS5_S7_EEED2Ev.exit
  %_M_string_length.i.i.i = getelementptr inbounds %"struct.duckdb::ClientConfig", ptr %this, i64 0, i32 27, i32 1
  %13 = load i64, ptr %_M_string_length.i.i.i, align 8, !tbaa !10
  %cmp3.i.i.i = icmp ult i64 %13, 16
  tail call void @llvm.assume(i1 %cmp3.i.i.i)
  br label %_ZNSt7__cxx1112basic_stringIcSt11char_traitsIcESaIcEED2Ev.exit

if.then.i.i:                                      ; preds = %_ZNSt13unordered_mapINSt7__cxx1112basic_stringIcSt11char_traitsIcESaIcEEEN6duckdb5ValueENS6_33CaseInsensitiveStringHashFunctionENS6_29CaseInsensitiveStringEqualityESaISt4pairIKS5_S7_EEED2Ev.exit
  tail call void @_ZdlPv(ptr noundef %11) #24
  br label %_ZNSt7__cxx1112basic_stringIcSt11char_traitsIcESaIcEED2Ev.exit

_ZNSt7__cxx1112basic_stringIcSt11char_traitsIcESaIcEED2Ev.exit: ; preds = %if.then.i.i, %_ZNKSt7__cxx1112basic_stringIcSt11char_traitsIcESaIcEE11_M_is_localEv.exit.thread.i.i
  %custom_extension_repo = getelementptr inbounds %"struct.duckdb::ClientConfig", ptr %this, i64 0, i32 26
  %14 = load ptr, ptr %custom_extension_repo, align 8, !tbaa !3
  %15 = getelementptr inbounds %"struct.duckdb::ClientConfig", ptr %this, i64 0, i32 26, i32 2
  %cmp.i.i.i2 = icmp eq ptr %14, %15
  br i1 %cmp.i.i.i2, label %_ZNKSt7__cxx1112basic_stringIcSt11char_traitsIcESaIcEE11_M_is_localEv.exit.thread.i.i4, label %if.then.i.i3

_ZNKSt7__cxx1112basic_stringIcSt11char_traitsIcESaIcEE11_M_is_localEv.exit.thread.i.i4: ; preds = %_ZNSt7__cxx1112basic_stringIcSt11char_traitsIcESaIcEED2Ev.exit
  %_M_string_length.i.i.i5 = getelementptr inbounds %"struct.duckdb::ClientConfig", ptr %this, i64 0, i32 26, i32 1
  %16 = load i64, ptr %_M_string_length.i.i.i5, align 8, !tbaa !10
  %cmp3.i.i.i6 = icmp ult i64 %16, 16
  tail call void @llvm.assume(i1 %cmp3.i.i.i6)
  br label %_ZNSt7__cxx1112basic_stringIcSt11char_traitsIcESaIcEED2Ev.exit7

if.then.i.i3:                                     ; preds = %_ZNSt7__cxx1112basic_stringIcSt11char_traitsIcESaIcEED2Ev.exit
  tail call void @_ZdlPv(ptr noundef %14) #24
  br label %_ZNSt7__cxx1112basic_stringIcSt11char_traitsIcESaIcEED2Ev.exit7

_ZNSt7__cxx1112basic_stringIcSt11char_traitsIcESaIcEED2Ev.exit7: ; preds = %if.then.i.i3, %_ZNKSt7__cxx1112basic_stringIcSt11char_traitsIcESaIcEE11_M_is_localEv.exit.thread.i.i4
  %profiler_save_location = getelementptr inbounds %"struct.duckdb::ClientConfig", ptr %this, i64 0, i32 4
  %17 = load ptr, ptr %profiler_save_location, align 8, !tbaa !3
  %18 = getelementptr inbounds %"struct.duckdb::ClientConfig", ptr %this, i64 0, i32 4, i32 2
  %cmp.i.i.i8 = icmp eq ptr %17, %18
  br i1 %cmp.i.i.i8, label %_ZNKSt7__cxx1112basic_stringIcSt11char_traitsIcESaIcEE11_M_is_localEv.exit.thread.i.i10, label %if.then.i.i9

_ZNKSt7__cxx1112basic_stringIcSt11char_traitsIcESaIcEE11_M_is_localEv.exit.thread.i.i10: ; preds = %_ZNSt7__cxx1112basic_stringIcSt11char_traitsIcESaIcEED2Ev.exit7
  %_M_string_length.i.i.i11 = getelementptr inbounds %"struct.duckdb::ClientConfig", ptr %this, i64 0, i32 4, i32 1
  %19 = load i64, ptr %_M_string_length.i.i.i11, align 8, !tbaa !10
  %cmp3.i.i.i12 = icmp ult i64 %19, 16
  tail call void @llvm.assume(i1 %cmp3.i.i.i12)
  br label %_ZNSt7__cxx1112basic_stringIcSt11char_traitsIcESaIcEED2Ev.exit13

if.then.i.i9:                                     ; preds = %_ZNSt7__cxx1112basic_stringIcSt11char_traitsIcESaIcEED2Ev.exit7
  tail call void @_ZdlPv(ptr noundef %17) #24
  br label %_ZNSt7__cxx1112basic_stringIcSt11char_traitsIcESaIcEED2Ev.exit13

_ZNSt7__cxx1112basic_stringIcSt11char_traitsIcESaIcEED2Ev.exit13: ; preds = %if.then.i.i9, %_ZNKSt7__cxx1112basic_stringIcSt11char_traitsIcESaIcEE11_M_is_localEv.exit.thread.i.i10
  %20 = load ptr, ptr %this, align 8, !tbaa !3
  %21 = getelementptr inbounds %"class.std::__cxx11::basic_string", ptr %this, i64 0, i32 2
  %cmp.i.i.i14 = icmp eq ptr %20, %21
  br i1 %cmp.i.i.i14, label %_ZNKSt7__cxx1112basic_stringIcSt11char_traitsIcESaIcEE11_M_is_localEv.exit.thread.i.i16, label %if.then.i.i15

_ZNKSt7__cxx1112basic_stringIcSt11char_traitsIcESaIcEE11_M_is_localEv.exit.thread.i.i16: ; preds = %_ZNSt7__cxx1112basic_stringIcSt11char_traitsIcESaIcEED2Ev.exit13
  %_M_string_length.i.i.i17 = getelementptr inbounds %"class.std::__cxx11::basic_string", ptr %this, i64 0, i32 1
  %22 = load i64, ptr %_M_string_length.i.i.i17, align 8, !tbaa !10
  %cmp3.i.i.i18 = icmp ult i64 %22, 16
  tail call void @llvm.assume(i1 %cmp3.i.i.i18)
  br label %_ZNSt7__cxx1112basic_stringIcSt11char_traitsIcESaIcEED2Ev.exit19

if.then.i.i15:                                    ; preds = %_ZNSt7__cxx1112basic_stringIcSt11char_traitsIcESaIcEED2Ev.exit13
  tail call void @_ZdlPv(ptr noundef %20) #24
  br label %_ZNSt7__cxx1112basic_stringIcSt11char_traitsIcESaIcEED2Ev.exit19

_ZNSt7__cxx1112basic_stringIcSt11char_traitsIcESaIcEED2Ev.exit19: ; preds = %if.then.i.i15, %_ZNKSt7__cxx1112basic_stringIcSt11char_traitsIcESaIcEE11_M_is_localEv.exit.thread.i.i16
  ret void
}

; Function Attrs: mustprogress uwtable
define void @_ZN6duckdb18DebugForceExternal8SetLocalERNS_13ClientContextERKNS_5ValueE(ptr noundef nonnull align 8 dereferenceable(592) %context, ptr noundef nonnull align 8 dereferenceable(64) %input) local_unnamed_addr #3 align 2 {
entry:
  %call = tail call noundef zeroext i1 @_ZNK6duckdb5Value8GetValueIbEET_v(ptr noundef nonnull align 8 dereferenceable(64) %input)
  %call1 = tail call noundef nonnull align 8 dereferenceable(336) ptr @_ZN6duckdb12ClientConfig9GetConfigERNS_13ClientContextE(ptr noundef nonnull align 8 dereferenceable(592) %context)
  %force_external = getelementptr inbounds %"struct.duckdb::ClientConfig", ptr %call1, i64 0, i32 18
  %frombool = zext i1 %call to i8
  store i8 %frombool, ptr %force_external, align 2, !tbaa !142
  ret void
}

declare noundef zeroext i1 @_ZNK6duckdb5Value8GetValueIbEET_v(ptr noundef nonnull align 8 dereferenceable(64)) local_unnamed_addr #0

; Function Attrs: mustprogress uwtable
define void @_ZN6duckdb18DebugForceExternal10GetSettingERNS_13ClientContextE(ptr noalias sret(%"class.duckdb::Value") align 8 %agg.result, ptr noundef nonnull align 8 dereferenceable(592) %context) local_unnamed_addr #3 align 2 {
entry:
  %call = tail call noundef nonnull align 8 dereferenceable(336) ptr @_ZN6duckdb12ClientConfig9GetConfigERNS_13ClientContextE(ptr noundef nonnull align 8 dereferenceable(592) %context)
  %force_external = getelementptr inbounds %"struct.duckdb::ClientConfig", ptr %call, i64 0, i32 18
  %0 = load i8, ptr %force_external, align 2, !tbaa !142, !range !148, !noundef !149
  tail call void @_ZN6duckdb5Value7BOOLEANEa(ptr sret(%"class.duckdb::Value") align 8 %agg.result, i8 noundef signext %0)
  ret void
}

declare void @_ZN6duckdb5Value7BOOLEANEa(ptr sret(%"class.duckdb::Value") align 8, i8 noundef signext) local_unnamed_addr #0

; Function Attrs: mustprogress uwtable
define void @_ZN6duckdb24DebugForceNoCrossProduct10ResetLocalERNS_13ClientContextE(ptr noundef nonnull align 8 dereferenceable(592) %context) local_unnamed_addr #3 align 2 personality ptr @__gxx_personality_v0 {
entry:
  %ref.tmp = alloca %"struct.duckdb::ClientConfig", align 8
  call void @llvm.lifetime.start.p0(i64 336, ptr nonnull %ref.tmp) #22
  %0 = getelementptr inbounds i8, ptr %ref.tmp, i64 16
  call void @llvm.memset.p0.i64(ptr noundef nonnull align 8 dereferenceable(336) %0, i8 0, i64 272, i1 false)
  store ptr %0, ptr %ref.tmp, align 8, !tbaa !110
  %_M_string_length.i.i.i.i = getelementptr inbounds %"class.std::__cxx11::basic_string", ptr %ref.tmp, i64 0, i32 1
  store i64 0, ptr %_M_string_length.i.i.i.i, align 8, !tbaa !10
  %profiler_print_format.i = getelementptr inbounds %"struct.duckdb::ClientConfig", ptr %ref.tmp, i64 0, i32 3
  store i8 0, ptr %profiler_print_format.i, align 2, !tbaa !119
  %profiler_save_location.i = getelementptr inbounds %"struct.duckdb::ClientConfig", ptr %ref.tmp, i64 0, i32 4
  %1 = getelementptr inbounds %"struct.duckdb::ClientConfig", ptr %ref.tmp, i64 0, i32 4, i32 2
  store ptr %1, ptr %profiler_save_location.i, align 8, !tbaa !110
  %emit_profiler_output.i = getelementptr inbounds %"struct.duckdb::ClientConfig", ptr %ref.tmp, i64 0, i32 5
  store i8 1, ptr %emit_profiler_output.i, align 8, !tbaa !126
  %print_progress_bar.i = getelementptr inbounds %"struct.duckdb::ClientConfig", ptr %ref.tmp, i64 0, i32 8
  store i8 1, ptr %print_progress_bar.i, align 1, !tbaa !127
  %wait_time.i = getelementptr inbounds %"struct.duckdb::ClientConfig", ptr %ref.tmp, i64 0, i32 9
  store i32 2000, ptr %wait_time.i, align 4, !tbaa !128
  %preserve_identifier_case.i = getelementptr inbounds %"struct.duckdb::ClientConfig", ptr %ref.tmp, i64 0, i32 10
  store i8 1, ptr %preserve_identifier_case.i, align 8, !tbaa !129
  %max_expression_depth.i = getelementptr inbounds %"struct.duckdb::ClientConfig", ptr %ref.tmp, i64 0, i32 11
  store i64 1000, ptr %max_expression_depth.i, align 8, !tbaa !130
  %enable_optimizer.i = getelementptr inbounds %"struct.duckdb::ClientConfig", ptr %ref.tmp, i64 0, i32 15
  store i8 1, ptr %enable_optimizer.i, align 1, !tbaa !131
  %enable_caching_operators.i = getelementptr inbounds %"struct.duckdb::ClientConfig", ptr %ref.tmp, i64 0, i32 16
  store i8 1, ptr %enable_caching_operators.i, align 4, !tbaa !132
  %verify_parallelism.i = getelementptr inbounds %"struct.duckdb::ClientConfig", ptr %ref.tmp, i64 0, i32 17
  %use_replacement_scans.i = getelementptr inbounds %"struct.duckdb::ClientConfig", ptr %ref.tmp, i64 0, i32 22
  call void @llvm.memset.p0.i64(ptr noundef nonnull align 1 dereferenceable(5) %verify_parallelism.i, i8 0, i64 5, i1 false)
  store i8 1, ptr %use_replacement_scans.i, align 2, !tbaa !133
  %perfect_ht_threshold.i = getelementptr inbounds %"struct.duckdb::ClientConfig", ptr %ref.tmp, i64 0, i32 23
  store i64 12, ptr %perfect_ht_threshold.i, align 8, !tbaa !134
  %ordered_aggregate_threshold.i = getelementptr inbounds %"struct.duckdb::ClientConfig", ptr %ref.tmp, i64 0, i32 24
  store i64 262144, ptr %ordered_aggregate_threshold.i, align 8, !tbaa !135
  %custom_extension_repo.i = getelementptr inbounds %"struct.duckdb::ClientConfig", ptr %ref.tmp, i64 0, i32 26
  %2 = getelementptr inbounds %"struct.duckdb::ClientConfig", ptr %ref.tmp, i64 0, i32 26, i32 2
  store ptr %2, ptr %custom_extension_repo.i, align 8, !tbaa !110
  %autoinstall_extension_repo.i = getelementptr inbounds %"struct.duckdb::ClientConfig", ptr %ref.tmp, i64 0, i32 27
  %3 = getelementptr inbounds %"struct.duckdb::ClientConfig", ptr %ref.tmp, i64 0, i32 27, i32 2
  store ptr %3, ptr %autoinstall_extension_repo.i, align 8, !tbaa !110
  %explain_output_type.i = getelementptr inbounds %"struct.duckdb::ClientConfig", ptr %ref.tmp, i64 0, i32 28
  store i8 2, ptr %explain_output_type.i, align 8, !tbaa !136
  %pivot_limit.i = getelementptr inbounds %"struct.duckdb::ClientConfig", ptr %ref.tmp, i64 0, i32 29
  store i64 100000, ptr %pivot_limit.i, align 8, !tbaa !137
  %pivot_filter_threshold.i = getelementptr inbounds %"struct.duckdb::ClientConfig", ptr %ref.tmp, i64 0, i32 30
  store i64 10, ptr %pivot_filter_threshold.i, align 8, !tbaa !138
  %set_variables.i = getelementptr inbounds %"struct.duckdb::ClientConfig", ptr %ref.tmp, i64 0, i32 32
  %_M_single_bucket.i.i.i = getelementptr inbounds %"struct.duckdb::ClientConfig", ptr %ref.tmp, i64 0, i32 32, i32 0, i32 5
  store ptr %_M_single_bucket.i.i.i, ptr %set_variables.i, align 8, !tbaa !139
  %_M_bucket_count.i.i.i = getelementptr inbounds %"struct.duckdb::ClientConfig", ptr %ref.tmp, i64 0, i32 32, i32 0, i32 1
  store i64 1, ptr %_M_bucket_count.i.i.i, align 8, !tbaa !140
  %_M_before_begin.i.i.i = getelementptr inbounds %"struct.duckdb::ClientConfig", ptr %ref.tmp, i64 0, i32 32, i32 0, i32 2
  %_M_rehash_policy.i.i.i = getelementptr inbounds %"struct.duckdb::ClientConfig", ptr %ref.tmp, i64 0, i32 32, i32 0, i32 4
  call void @llvm.memset.p0.i64(ptr noundef nonnull align 8 dereferenceable(16) %_M_before_begin.i.i.i, i8 0, i64 16, i1 false)
  store float 1.000000e+00, ptr %_M_rehash_policy.i.i.i, align 8, !tbaa !141
  %_M_next_resize.i.i.i.i = getelementptr inbounds %"struct.duckdb::ClientConfig", ptr %ref.tmp, i64 0, i32 32, i32 0, i32 4, i32 1
  call void @llvm.memset.p0.i64(ptr noundef nonnull align 8 dereferenceable(48) %_M_next_resize.i.i.i.i, i8 0, i64 48, i1 false)
  %call = invoke noundef nonnull align 8 dereferenceable(336) ptr @_ZN6duckdb12ClientConfig9GetConfigERNS_13ClientContextE(ptr noundef nonnull align 8 dereferenceable(592) %context)
          to label %invoke.cont unwind label %lpad

invoke.cont:                                      ; preds = %entry
  %force_no_cross_product1 = getelementptr inbounds %"struct.duckdb::ClientConfig", ptr %call, i64 0, i32 19
  store i8 0, ptr %force_no_cross_product1, align 1, !tbaa !150
  call void @_ZN6duckdb12ClientConfigD2Ev(ptr noundef nonnull align 8 dereferenceable(336) %ref.tmp) #22
  call void @llvm.lifetime.end.p0(i64 336, ptr nonnull %ref.tmp) #22
  ret void

lpad:                                             ; preds = %entry
  %4 = landingpad { ptr, i32 }
          cleanup
  call void @_ZN6duckdb12ClientConfigD2Ev(ptr noundef nonnull align 8 dereferenceable(336) %ref.tmp) #22
  call void @llvm.lifetime.end.p0(i64 336, ptr nonnull %ref.tmp) #22
  resume { ptr, i32 } %4
}

; Function Attrs: mustprogress uwtable
define void @_ZN6duckdb24DebugForceNoCrossProduct8SetLocalERNS_13ClientContextERKNS_5ValueE(ptr noundef nonnull align 8 dereferenceable(592) %context, ptr noundef nonnull align 8 dereferenceable(64) %input) local_unnamed_addr #3 align 2 {
entry:
  %call = tail call noundef zeroext i1 @_ZNK6duckdb5Value8GetValueIbEET_v(ptr noundef nonnull align 8 dereferenceable(64) %input)
  %call1 = tail call noundef nonnull align 8 dereferenceable(336) ptr @_ZN6duckdb12ClientConfig9GetConfigERNS_13ClientContextE(ptr noundef nonnull align 8 dereferenceable(592) %context)
  %force_no_cross_product = getelementptr inbounds %"struct.duckdb::ClientConfig", ptr %call1, i64 0, i32 19
  %frombool = zext i1 %call to i8
  store i8 %frombool, ptr %force_no_cross_product, align 1, !tbaa !150
  ret void
}

; Function Attrs: mustprogress uwtable
define void @_ZN6duckdb24DebugForceNoCrossProduct10GetSettingERNS_13ClientContextE(ptr noalias sret(%"class.duckdb::Value") align 8 %agg.result, ptr noundef nonnull align 8 dereferenceable(592) %context) local_unnamed_addr #3 align 2 {
entry:
  %call = tail call noundef nonnull align 8 dereferenceable(336) ptr @_ZN6duckdb12ClientConfig9GetConfigERNS_13ClientContextE(ptr noundef nonnull align 8 dereferenceable(592) %context)
  %force_no_cross_product = getelementptr inbounds %"struct.duckdb::ClientConfig", ptr %call, i64 0, i32 19
  %0 = load i8, ptr %force_no_cross_product, align 1, !tbaa !150, !range !148, !noundef !149
  tail call void @_ZN6duckdb5Value7BOOLEANEa(ptr sret(%"class.duckdb::Value") align 8 %agg.result, i8 noundef signext %0)
  ret void
}

; Function Attrs: mustprogress uwtable
define void @_ZN6duckdb25OrderedAggregateThreshold10ResetLocalERNS_13ClientContextE(ptr noundef nonnull align 8 dereferenceable(592) %context) local_unnamed_addr #3 align 2 personality ptr @__gxx_personality_v0 {
entry:
  %ref.tmp = alloca %"struct.duckdb::ClientConfig", align 8
  call void @llvm.lifetime.start.p0(i64 336, ptr nonnull %ref.tmp) #22
  %0 = getelementptr inbounds i8, ptr %ref.tmp, i64 16
  call void @llvm.memset.p0.i64(ptr noundef nonnull align 8 dereferenceable(336) %0, i8 0, i64 272, i1 false)
  store ptr %0, ptr %ref.tmp, align 8, !tbaa !110
  %_M_string_length.i.i.i.i = getelementptr inbounds %"class.std::__cxx11::basic_string", ptr %ref.tmp, i64 0, i32 1
  store i64 0, ptr %_M_string_length.i.i.i.i, align 8, !tbaa !10
  %profiler_print_format.i = getelementptr inbounds %"struct.duckdb::ClientConfig", ptr %ref.tmp, i64 0, i32 3
  store i8 0, ptr %profiler_print_format.i, align 2, !tbaa !119
  %profiler_save_location.i = getelementptr inbounds %"struct.duckdb::ClientConfig", ptr %ref.tmp, i64 0, i32 4
  %1 = getelementptr inbounds %"struct.duckdb::ClientConfig", ptr %ref.tmp, i64 0, i32 4, i32 2
  store ptr %1, ptr %profiler_save_location.i, align 8, !tbaa !110
  %emit_profiler_output.i = getelementptr inbounds %"struct.duckdb::ClientConfig", ptr %ref.tmp, i64 0, i32 5
  store i8 1, ptr %emit_profiler_output.i, align 8, !tbaa !126
  %print_progress_bar.i = getelementptr inbounds %"struct.duckdb::ClientConfig", ptr %ref.tmp, i64 0, i32 8
  store i8 1, ptr %print_progress_bar.i, align 1, !tbaa !127
  %wait_time.i = getelementptr inbounds %"struct.duckdb::ClientConfig", ptr %ref.tmp, i64 0, i32 9
  store i32 2000, ptr %wait_time.i, align 4, !tbaa !128
  %preserve_identifier_case.i = getelementptr inbounds %"struct.duckdb::ClientConfig", ptr %ref.tmp, i64 0, i32 10
  store i8 1, ptr %preserve_identifier_case.i, align 8, !tbaa !129
  %max_expression_depth.i = getelementptr inbounds %"struct.duckdb::ClientConfig", ptr %ref.tmp, i64 0, i32 11
  store i64 1000, ptr %max_expression_depth.i, align 8, !tbaa !130
  %enable_optimizer.i = getelementptr inbounds %"struct.duckdb::ClientConfig", ptr %ref.tmp, i64 0, i32 15
  store i8 1, ptr %enable_optimizer.i, align 1, !tbaa !131
  %enable_caching_operators.i = getelementptr inbounds %"struct.duckdb::ClientConfig", ptr %ref.tmp, i64 0, i32 16
  store i8 1, ptr %enable_caching_operators.i, align 4, !tbaa !132
  %verify_parallelism.i = getelementptr inbounds %"struct.duckdb::ClientConfig", ptr %ref.tmp, i64 0, i32 17
  %use_replacement_scans.i = getelementptr inbounds %"struct.duckdb::ClientConfig", ptr %ref.tmp, i64 0, i32 22
  call void @llvm.memset.p0.i64(ptr noundef nonnull align 1 dereferenceable(5) %verify_parallelism.i, i8 0, i64 5, i1 false)
  store i8 1, ptr %use_replacement_scans.i, align 2, !tbaa !133
  %perfect_ht_threshold.i = getelementptr inbounds %"struct.duckdb::ClientConfig", ptr %ref.tmp, i64 0, i32 23
  store i64 12, ptr %perfect_ht_threshold.i, align 8, !tbaa !134
  %ordered_aggregate_threshold.i = getelementptr inbounds %"struct.duckdb::ClientConfig", ptr %ref.tmp, i64 0, i32 24
  store i64 262144, ptr %ordered_aggregate_threshold.i, align 8, !tbaa !135
  %custom_extension_repo.i = getelementptr inbounds %"struct.duckdb::ClientConfig", ptr %ref.tmp, i64 0, i32 26
  %2 = getelementptr inbounds %"struct.duckdb::ClientConfig", ptr %ref.tmp, i64 0, i32 26, i32 2
  store ptr %2, ptr %custom_extension_repo.i, align 8, !tbaa !110
  %autoinstall_extension_repo.i = getelementptr inbounds %"struct.duckdb::ClientConfig", ptr %ref.tmp, i64 0, i32 27
  %3 = getelementptr inbounds %"struct.duckdb::ClientConfig", ptr %ref.tmp, i64 0, i32 27, i32 2
  store ptr %3, ptr %autoinstall_extension_repo.i, align 8, !tbaa !110
  %explain_output_type.i = getelementptr inbounds %"struct.duckdb::ClientConfig", ptr %ref.tmp, i64 0, i32 28
  store i8 2, ptr %explain_output_type.i, align 8, !tbaa !136
  %pivot_limit.i = getelementptr inbounds %"struct.duckdb::ClientConfig", ptr %ref.tmp, i64 0, i32 29
  store i64 100000, ptr %pivot_limit.i, align 8, !tbaa !137
  %pivot_filter_threshold.i = getelementptr inbounds %"struct.duckdb::ClientConfig", ptr %ref.tmp, i64 0, i32 30
  store i64 10, ptr %pivot_filter_threshold.i, align 8, !tbaa !138
  %set_variables.i = getelementptr inbounds %"struct.duckdb::ClientConfig", ptr %ref.tmp, i64 0, i32 32
  %_M_single_bucket.i.i.i = getelementptr inbounds %"struct.duckdb::ClientConfig", ptr %ref.tmp, i64 0, i32 32, i32 0, i32 5
  store ptr %_M_single_bucket.i.i.i, ptr %set_variables.i, align 8, !tbaa !139
  %_M_bucket_count.i.i.i = getelementptr inbounds %"struct.duckdb::ClientConfig", ptr %ref.tmp, i64 0, i32 32, i32 0, i32 1
  store i64 1, ptr %_M_bucket_count.i.i.i, align 8, !tbaa !140
  %_M_before_begin.i.i.i = getelementptr inbounds %"struct.duckdb::ClientConfig", ptr %ref.tmp, i64 0, i32 32, i32 0, i32 2
  %_M_rehash_policy.i.i.i = getelementptr inbounds %"struct.duckdb::ClientConfig", ptr %ref.tmp, i64 0, i32 32, i32 0, i32 4
  call void @llvm.memset.p0.i64(ptr noundef nonnull align 8 dereferenceable(16) %_M_before_begin.i.i.i, i8 0, i64 16, i1 false)
  store float 1.000000e+00, ptr %_M_rehash_policy.i.i.i, align 8, !tbaa !141
  %_M_next_resize.i.i.i.i = getelementptr inbounds %"struct.duckdb::ClientConfig", ptr %ref.tmp, i64 0, i32 32, i32 0, i32 4, i32 1
  call void @llvm.memset.p0.i64(ptr noundef nonnull align 8 dereferenceable(48) %_M_next_resize.i.i.i.i, i8 0, i64 48, i1 false)
  %call = invoke noundef nonnull align 8 dereferenceable(336) ptr @_ZN6duckdb12ClientConfig9GetConfigERNS_13ClientContextE(ptr noundef nonnull align 8 dereferenceable(592) %context)
          to label %invoke.cont unwind label %lpad

invoke.cont:                                      ; preds = %entry
  %ordered_aggregate_threshold1 = getelementptr inbounds %"struct.duckdb::ClientConfig", ptr %call, i64 0, i32 24
  store i64 262144, ptr %ordered_aggregate_threshold1, align 8, !tbaa !135
  call void @_ZN6duckdb12ClientConfigD2Ev(ptr noundef nonnull align 8 dereferenceable(336) %ref.tmp) #22
  call void @llvm.lifetime.end.p0(i64 336, ptr nonnull %ref.tmp) #22
  ret void

lpad:                                             ; preds = %entry
  %4 = landingpad { ptr, i32 }
          cleanup
  call void @_ZN6duckdb12ClientConfigD2Ev(ptr noundef nonnull align 8 dereferenceable(336) %ref.tmp) #22
  call void @llvm.lifetime.end.p0(i64 336, ptr nonnull %ref.tmp) #22
  resume { ptr, i32 } %4
}

; Function Attrs: mustprogress uwtable
define void @_ZN6duckdb25OrderedAggregateThreshold8SetLocalERNS_13ClientContextERKNS_5ValueE(ptr noundef nonnull align 8 dereferenceable(592) %context, ptr noundef nonnull align 8 dereferenceable(64) %input) local_unnamed_addr #3 align 2 personality ptr @__gxx_personality_v0 {
entry:
  %ref.tmp = alloca %"class.std::__cxx11::basic_string", align 8
  %ref.tmp1 = alloca %"class.std::allocator", align 1
  %call = tail call noundef i64 @_ZNK6duckdb5Value8GetValueImEET_v(ptr noundef nonnull align 8 dereferenceable(64) %input)
  %cmp = icmp eq i64 %call, 0
  br i1 %cmp, label %if.then, label %if.end

if.then:                                          ; preds = %entry
  %exception = tail call ptr @__cxa_allocate_exception(i64 80) #22
  call void @llvm.lifetime.start.p0(i64 32, ptr nonnull %ref.tmp) #22
  call void @llvm.lifetime.start.p0(i64 1, ptr nonnull %ref.tmp1) #22
  invoke void @_ZNSt7__cxx1112basic_stringIcSt11char_traitsIcESaIcEEC2EPKcRKS3_(ptr noundef nonnull align 8 dereferenceable(32) %ref.tmp, ptr noundef nonnull @.str.12, ptr noundef nonnull align 1 dereferenceable(1) %ref.tmp1)
          to label %invoke.cont unwind label %ehcleanup.thread

invoke.cont:                                      ; preds = %if.then
  invoke void @_ZN6duckdb15ParserExceptionC1ERKNSt7__cxx1112basic_stringIcSt11char_traitsIcESaIcEEE(ptr noundef nonnull align 8 dereferenceable(80) %exception, ptr noundef nonnull align 8 dereferenceable(32) %ref.tmp)
          to label %invoke.cont3 unwind label %lpad2

invoke.cont3:                                     ; preds = %invoke.cont
  invoke void @__cxa_throw(ptr nonnull %exception, ptr nonnull @_ZTIN6duckdb15ParserExceptionE, ptr nonnull @_ZN6duckdb9ExceptionD2Ev) #23
          to label %unreachable unwind label %lpad2

ehcleanup.thread:                                 ; preds = %if.then
  %0 = landingpad { ptr, i32 }
          cleanup
  call void @llvm.lifetime.end.p0(i64 1, ptr nonnull %ref.tmp1) #22
  call void @llvm.lifetime.end.p0(i64 32, ptr nonnull %ref.tmp) #22
  br label %cleanup.action

lpad2:                                            ; preds = %invoke.cont3, %invoke.cont
  %cleanup.isactive.0 = phi i1 [ false, %invoke.cont3 ], [ true, %invoke.cont ]
  %1 = landingpad { ptr, i32 }
          cleanup
  %2 = load ptr, ptr %ref.tmp, align 8, !tbaa !3
  %3 = getelementptr inbounds %"class.std::__cxx11::basic_string", ptr %ref.tmp, i64 0, i32 2
  %cmp.i.i.i = icmp eq ptr %2, %3
  br i1 %cmp.i.i.i, label %_ZNKSt7__cxx1112basic_stringIcSt11char_traitsIcESaIcEE11_M_is_localEv.exit.thread.i.i, label %ehcleanup

_ZNKSt7__cxx1112basic_stringIcSt11char_traitsIcESaIcEE11_M_is_localEv.exit.thread.i.i: ; preds = %lpad2
  %_M_string_length.i.i.i = getelementptr inbounds %"class.std::__cxx11::basic_string", ptr %ref.tmp, i64 0, i32 1
  %4 = load i64, ptr %_M_string_length.i.i.i, align 8, !tbaa !10
  %cmp3.i.i.i = icmp ult i64 %4, 16
  call void @llvm.assume(i1 %cmp3.i.i.i)
  call void @llvm.lifetime.end.p0(i64 1, ptr nonnull %ref.tmp1) #22
  call void @llvm.lifetime.end.p0(i64 32, ptr nonnull %ref.tmp) #22
  br i1 %cleanup.isactive.0, label %cleanup.action, label %cleanup.done

ehcleanup:                                        ; preds = %lpad2
  call void @_ZdlPv(ptr noundef %2) #24
  call void @llvm.lifetime.end.p0(i64 1, ptr nonnull %ref.tmp1) #22
  call void @llvm.lifetime.end.p0(i64 32, ptr nonnull %ref.tmp) #22
  br i1 %cleanup.isactive.0, label %cleanup.action, label %cleanup.done

cleanup.action:                                   ; preds = %ehcleanup, %_ZNKSt7__cxx1112basic_stringIcSt11char_traitsIcESaIcEE11_M_is_localEv.exit.thread.i.i, %ehcleanup.thread
  %.pn15 = phi { ptr, i32 } [ %0, %ehcleanup.thread ], [ %1, %ehcleanup ], [ %1, %_ZNKSt7__cxx1112basic_stringIcSt11char_traitsIcESaIcEE11_M_is_localEv.exit.thread.i.i ]
  call void @__cxa_free_exception(ptr %exception) #22
  br label %cleanup.done

cleanup.done:                                     ; preds = %cleanup.action, %ehcleanup, %_ZNKSt7__cxx1112basic_stringIcSt11char_traitsIcESaIcEE11_M_is_localEv.exit.thread.i.i
  %.pn14 = phi { ptr, i32 } [ %.pn15, %cleanup.action ], [ %1, %ehcleanup ], [ %1, %_ZNKSt7__cxx1112basic_stringIcSt11char_traitsIcESaIcEE11_M_is_localEv.exit.thread.i.i ]
  resume { ptr, i32 } %.pn14

if.end:                                           ; preds = %entry
  %call7 = tail call noundef nonnull align 8 dereferenceable(336) ptr @_ZN6duckdb12ClientConfig9GetConfigERNS_13ClientContextE(ptr noundef nonnull align 8 dereferenceable(592) %context)
  %ordered_aggregate_threshold = getelementptr inbounds %"struct.duckdb::ClientConfig", ptr %call7, i64 0, i32 24
  store i64 %call, ptr %ordered_aggregate_threshold, align 8, !tbaa !135
  ret void

unreachable:                                      ; preds = %invoke.cont3
  unreachable
}

declare noundef i64 @_ZNK6duckdb5Value8GetValueImEET_v(ptr noundef nonnull align 8 dereferenceable(64)) local_unnamed_addr #0

; Function Attrs: mustprogress uwtable
define void @_ZN6duckdb25OrderedAggregateThreshold10GetSettingERNS_13ClientContextE(ptr noalias sret(%"class.duckdb::Value") align 8 %agg.result, ptr noundef nonnull align 8 dereferenceable(592) %context) local_unnamed_addr #3 align 2 {
entry:
  %call = tail call noundef nonnull align 8 dereferenceable(336) ptr @_ZN6duckdb12ClientConfig9GetConfigERNS_13ClientContextE(ptr noundef nonnull align 8 dereferenceable(592) %context)
  %ordered_aggregate_threshold = getelementptr inbounds %"struct.duckdb::ClientConfig", ptr %call, i64 0, i32 24
  %0 = load i64, ptr %ordered_aggregate_threshold, align 8, !tbaa !135
  tail call void @_ZN6duckdb5Value7UBIGINTEm(ptr sret(%"class.duckdb::Value") align 8 %agg.result, i64 noundef %0)
  ret void
}

declare void @_ZN6duckdb5Value7UBIGINTEm(ptr sret(%"class.duckdb::Value") align 8, i64 noundef) local_unnamed_addr #0

; Function Attrs: mustprogress uwtable
define void @_ZN6duckdb15DebugWindowMode9SetGlobalEPNS_16DatabaseInstanceERNS_8DBConfigERKNS_5ValueE(ptr nocapture noundef readnone %db, ptr nocapture noundef nonnull writeonly align 8 dereferenceable(896) %config, ptr noundef nonnull align 8 dereferenceable(64) %input) local_unnamed_addr #3 align 2 personality ptr @__gxx_personality_v0 {
entry:
  %param = alloca %"class.std::__cxx11::basic_string", align 8
  %ref.tmp = alloca %"class.std::__cxx11::basic_string", align 8
  %ref.tmp15 = alloca %"class.std::__cxx11::basic_string", align 8
  %ref.tmp16 = alloca %"class.std::allocator", align 1
  call void @llvm.lifetime.start.p0(i64 32, ptr nonnull %param) #22
  call void @llvm.lifetime.start.p0(i64 32, ptr nonnull %ref.tmp) #22
  call void @_ZNK6duckdb5Value8ToStringB5cxx11Ev(ptr nonnull sret(%"class.std::__cxx11::basic_string") align 8 %ref.tmp, ptr noundef nonnull align 8 dereferenceable(64) %input)
  invoke void @_ZN6duckdb10StringUtil5LowerERKNSt7__cxx1112basic_stringIcSt11char_traitsIcESaIcEEE(ptr nonnull sret(%"class.std::__cxx11::basic_string") align 8 %param, ptr noundef nonnull align 8 dereferenceable(32) %ref.tmp)
          to label %invoke.cont unwind label %lpad

invoke.cont:                                      ; preds = %entry
  %0 = load ptr, ptr %ref.tmp, align 8, !tbaa !3
  %1 = getelementptr inbounds %"class.std::__cxx11::basic_string", ptr %ref.tmp, i64 0, i32 2
  %cmp.i.i.i = icmp eq ptr %0, %1
  br i1 %cmp.i.i.i, label %_ZNKSt7__cxx1112basic_stringIcSt11char_traitsIcESaIcEE11_M_is_localEv.exit.thread.i.i, label %if.then.i.i

_ZNKSt7__cxx1112basic_stringIcSt11char_traitsIcESaIcEE11_M_is_localEv.exit.thread.i.i: ; preds = %invoke.cont
  %_M_string_length.i.i.i = getelementptr inbounds %"class.std::__cxx11::basic_string", ptr %ref.tmp, i64 0, i32 1
  %2 = load i64, ptr %_M_string_length.i.i.i, align 8, !tbaa !10
  %cmp3.i.i.i = icmp ult i64 %2, 16
  call void @llvm.assume(i1 %cmp3.i.i.i)
  br label %_ZNSt7__cxx1112basic_stringIcSt11char_traitsIcESaIcEED2Ev.exit

if.then.i.i:                                      ; preds = %invoke.cont
  call void @_ZdlPv(ptr noundef %0) #24
  br label %_ZNSt7__cxx1112basic_stringIcSt11char_traitsIcESaIcEED2Ev.exit

_ZNSt7__cxx1112basic_stringIcSt11char_traitsIcESaIcEED2Ev.exit: ; preds = %if.then.i.i, %_ZNKSt7__cxx1112basic_stringIcSt11char_traitsIcESaIcEE11_M_is_localEv.exit.thread.i.i
  call void @llvm.lifetime.end.p0(i64 32, ptr nonnull %ref.tmp) #22
  %call.i = call noundef i32 @_ZNKSt7__cxx1112basic_stringIcSt11char_traitsIcESaIcEE7compareEPKc(ptr noundef nonnull align 8 dereferenceable(32) %param, ptr noundef nonnull @.str.13) #22
  %cmp.i = icmp eq i32 %call.i, 0
  br i1 %cmp.i, label %if.end25, label %if.else

lpad:                                             ; preds = %entry
  %3 = landingpad { ptr, i32 }
          cleanup
  %4 = load ptr, ptr %ref.tmp, align 8, !tbaa !3
  %5 = getelementptr inbounds %"class.std::__cxx11::basic_string", ptr %ref.tmp, i64 0, i32 2
  %cmp.i.i.i33 = icmp eq ptr %4, %5
  br i1 %cmp.i.i.i33, label %_ZNKSt7__cxx1112basic_stringIcSt11char_traitsIcESaIcEE11_M_is_localEv.exit.thread.i.i35, label %if.then.i.i34

_ZNKSt7__cxx1112basic_stringIcSt11char_traitsIcESaIcEE11_M_is_localEv.exit.thread.i.i35: ; preds = %lpad
  %_M_string_length.i.i.i36 = getelementptr inbounds %"class.std::__cxx11::basic_string", ptr %ref.tmp, i64 0, i32 1
  %6 = load i64, ptr %_M_string_length.i.i.i36, align 8, !tbaa !10
  %cmp3.i.i.i37 = icmp ult i64 %6, 16
  call void @llvm.assume(i1 %cmp3.i.i.i37)
  br label %_ZNSt7__cxx1112basic_stringIcSt11char_traitsIcESaIcEED2Ev.exit38

if.then.i.i34:                                    ; preds = %lpad
  call void @_ZdlPv(ptr noundef %4) #24
  br label %_ZNSt7__cxx1112basic_stringIcSt11char_traitsIcESaIcEED2Ev.exit38

_ZNSt7__cxx1112basic_stringIcSt11char_traitsIcESaIcEED2Ev.exit38: ; preds = %if.then.i.i34, %_ZNKSt7__cxx1112basic_stringIcSt11char_traitsIcESaIcEE11_M_is_localEv.exit.thread.i.i35
  call void @llvm.lifetime.end.p0(i64 32, ptr nonnull %ref.tmp) #22
  br label %ehcleanup27

if.else:                                          ; preds = %_ZNSt7__cxx1112basic_stringIcSt11char_traitsIcESaIcEED2Ev.exit
  %call.i39 = call noundef i32 @_ZNKSt7__cxx1112basic_stringIcSt11char_traitsIcESaIcEE7compareEPKc(ptr noundef nonnull align 8 dereferenceable(32) %param, ptr noundef nonnull @.str.14) #22
  %cmp.i40 = icmp eq i32 %call.i39, 0
  br i1 %cmp.i40, label %if.end25, label %if.else8

if.else8:                                         ; preds = %if.else
  %call.i41 = call noundef i32 @_ZNKSt7__cxx1112basic_stringIcSt11char_traitsIcESaIcEE7compareEPKc(ptr noundef nonnull align 8 dereferenceable(32) %param, ptr noundef nonnull @.str.15) #22
  %cmp.i42 = icmp eq i32 %call.i41, 0
  br i1 %cmp.i42, label %if.end25, label %if.else14

if.else14:                                        ; preds = %if.else8
  %exception = call ptr @__cxa_allocate_exception(i64 80) #22
  call void @llvm.lifetime.start.p0(i64 32, ptr nonnull %ref.tmp15) #22
  call void @llvm.lifetime.start.p0(i64 1, ptr nonnull %ref.tmp16) #22
  invoke void @_ZNSt7__cxx1112basic_stringIcSt11char_traitsIcESaIcEEC2EPKcRKS3_(ptr noundef nonnull align 8 dereferenceable(32) %ref.tmp15, ptr noundef nonnull @.str.16, ptr noundef nonnull align 1 dereferenceable(1) %ref.tmp16)
          to label %invoke.cont18 unwind label %ehcleanup.thread

invoke.cont18:                                    ; preds = %if.else14
  invoke void @_ZN6duckdb15ParserExceptionC1ERKNSt7__cxx1112basic_stringIcSt11char_traitsIcESaIcEEE(ptr noundef nonnull align 8 dereferenceable(80) %exception, ptr noundef nonnull align 8 dereferenceable(32) %ref.tmp15)
          to label %invoke.cont20 unwind label %lpad19

invoke.cont20:                                    ; preds = %invoke.cont18
  invoke void @__cxa_throw(ptr nonnull %exception, ptr nonnull @_ZTIN6duckdb15ParserExceptionE, ptr nonnull @_ZN6duckdb9ExceptionD2Ev) #23
          to label %unreachable unwind label %lpad19

ehcleanup.thread:                                 ; preds = %if.else14
  %7 = landingpad { ptr, i32 }
          cleanup
  call void @llvm.lifetime.end.p0(i64 1, ptr nonnull %ref.tmp16) #22
  call void @llvm.lifetime.end.p0(i64 32, ptr nonnull %ref.tmp15) #22
  br label %cleanup.action

lpad19:                                           ; preds = %invoke.cont20, %invoke.cont18
  %cleanup.isactive.0 = phi i1 [ false, %invoke.cont20 ], [ true, %invoke.cont18 ]
  %8 = landingpad { ptr, i32 }
          cleanup
  %9 = load ptr, ptr %ref.tmp15, align 8, !tbaa !3
  %10 = getelementptr inbounds %"class.std::__cxx11::basic_string", ptr %ref.tmp15, i64 0, i32 2
  %cmp.i.i.i43 = icmp eq ptr %9, %10
  br i1 %cmp.i.i.i43, label %_ZNKSt7__cxx1112basic_stringIcSt11char_traitsIcESaIcEE11_M_is_localEv.exit.thread.i.i45, label %ehcleanup

_ZNKSt7__cxx1112basic_stringIcSt11char_traitsIcESaIcEE11_M_is_localEv.exit.thread.i.i45: ; preds = %lpad19
  %_M_string_length.i.i.i46 = getelementptr inbounds %"class.std::__cxx11::basic_string", ptr %ref.tmp15, i64 0, i32 1
  %11 = load i64, ptr %_M_string_length.i.i.i46, align 8, !tbaa !10
  %cmp3.i.i.i47 = icmp ult i64 %11, 16
  call void @llvm.assume(i1 %cmp3.i.i.i47)
  call void @llvm.lifetime.end.p0(i64 1, ptr nonnull %ref.tmp16) #22
  call void @llvm.lifetime.end.p0(i64 32, ptr nonnull %ref.tmp15) #22
  br i1 %cleanup.isactive.0, label %cleanup.action, label %ehcleanup26

ehcleanup:                                        ; preds = %lpad19
  call void @_ZdlPv(ptr noundef %9) #24
  call void @llvm.lifetime.end.p0(i64 1, ptr nonnull %ref.tmp16) #22
  call void @llvm.lifetime.end.p0(i64 32, ptr nonnull %ref.tmp15) #22
  br i1 %cleanup.isactive.0, label %cleanup.action, label %ehcleanup26

cleanup.action:                                   ; preds = %ehcleanup, %_ZNKSt7__cxx1112basic_stringIcSt11char_traitsIcESaIcEE11_M_is_localEv.exit.thread.i.i45, %ehcleanup.thread
  %.pn64 = phi { ptr, i32 } [ %7, %ehcleanup.thread ], [ %8, %ehcleanup ], [ %8, %_ZNKSt7__cxx1112basic_stringIcSt11char_traitsIcESaIcEE11_M_is_localEv.exit.thread.i.i45 ]
  call void @__cxa_free_exception(ptr %exception) #22
  br label %ehcleanup26

if.end25:                                         ; preds = %if.else8, %if.else, %_ZNSt7__cxx1112basic_stringIcSt11char_traitsIcESaIcEED2Ev.exit
  %.sink = phi i32 [ 0, %_ZNSt7__cxx1112basic_stringIcSt11char_traitsIcESaIcEED2Ev.exit ], [ 1, %if.else ], [ 2, %if.else8 ]
  %window_mode7 = getelementptr inbounds %"struct.duckdb::DBConfig", ptr %config, i64 0, i32 5, i32 26
  store i32 %.sink, ptr %window_mode7, align 4, !tbaa !151
  %12 = load ptr, ptr %param, align 8, !tbaa !3
  %13 = getelementptr inbounds %"class.std::__cxx11::basic_string", ptr %param, i64 0, i32 2
  %cmp.i.i.i49 = icmp eq ptr %12, %13
  br i1 %cmp.i.i.i49, label %_ZNKSt7__cxx1112basic_stringIcSt11char_traitsIcESaIcEE11_M_is_localEv.exit.thread.i.i51, label %if.then.i.i50

_ZNKSt7__cxx1112basic_stringIcSt11char_traitsIcESaIcEE11_M_is_localEv.exit.thread.i.i51: ; preds = %if.end25
  %_M_string_length.i.i.i52 = getelementptr inbounds %"class.std::__cxx11::basic_string", ptr %param, i64 0, i32 1
  %14 = load i64, ptr %_M_string_length.i.i.i52, align 8, !tbaa !10
  %cmp3.i.i.i53 = icmp ult i64 %14, 16
  call void @llvm.assume(i1 %cmp3.i.i.i53)
  br label %_ZNSt7__cxx1112basic_stringIcSt11char_traitsIcESaIcEED2Ev.exit54

if.then.i.i50:                                    ; preds = %if.end25
  call void @_ZdlPv(ptr noundef %12) #24
  br label %_ZNSt7__cxx1112basic_stringIcSt11char_traitsIcESaIcEED2Ev.exit54

_ZNSt7__cxx1112basic_stringIcSt11char_traitsIcESaIcEED2Ev.exit54: ; preds = %if.then.i.i50, %_ZNKSt7__cxx1112basic_stringIcSt11char_traitsIcESaIcEE11_M_is_localEv.exit.thread.i.i51
  call void @llvm.lifetime.end.p0(i64 32, ptr nonnull %param) #22
  ret void

ehcleanup26:                                      ; preds = %cleanup.action, %ehcleanup, %_ZNKSt7__cxx1112basic_stringIcSt11char_traitsIcESaIcEE11_M_is_localEv.exit.thread.i.i45
  %.pn63 = phi { ptr, i32 } [ %8, %ehcleanup ], [ %.pn64, %cleanup.action ], [ %8, %_ZNKSt7__cxx1112basic_stringIcSt11char_traitsIcESaIcEE11_M_is_localEv.exit.thread.i.i45 ]
  %15 = load ptr, ptr %param, align 8, !tbaa !3
  %16 = getelementptr inbounds %"class.std::__cxx11::basic_string", ptr %param, i64 0, i32 2
  %cmp.i.i.i55 = icmp eq ptr %15, %16
  br i1 %cmp.i.i.i55, label %_ZNKSt7__cxx1112basic_stringIcSt11char_traitsIcESaIcEE11_M_is_localEv.exit.thread.i.i57, label %if.then.i.i56

_ZNKSt7__cxx1112basic_stringIcSt11char_traitsIcESaIcEE11_M_is_localEv.exit.thread.i.i57: ; preds = %ehcleanup26
  %_M_string_length.i.i.i58 = getelementptr inbounds %"class.std::__cxx11::basic_string", ptr %param, i64 0, i32 1
  %17 = load i64, ptr %_M_string_length.i.i.i58, align 8, !tbaa !10
  %cmp3.i.i.i59 = icmp ult i64 %17, 16
  call void @llvm.assume(i1 %cmp3.i.i.i59)
  br label %ehcleanup27

if.then.i.i56:                                    ; preds = %ehcleanup26
  call void @_ZdlPv(ptr noundef %15) #24
  br label %ehcleanup27

ehcleanup27:                                      ; preds = %if.then.i.i56, %_ZNKSt7__cxx1112basic_stringIcSt11char_traitsIcESaIcEE11_M_is_localEv.exit.thread.i.i57, %_ZNSt7__cxx1112basic_stringIcSt11char_traitsIcESaIcEED2Ev.exit38
  %.pn.pn = phi { ptr, i32 } [ %3, %_ZNSt7__cxx1112basic_stringIcSt11char_traitsIcESaIcEED2Ev.exit38 ], [ %.pn63, %_ZNKSt7__cxx1112basic_stringIcSt11char_traitsIcESaIcEE11_M_is_localEv.exit.thread.i.i57 ], [ %.pn63, %if.then.i.i56 ]
  call void @llvm.lifetime.end.p0(i64 32, ptr nonnull %param) #22
  resume { ptr, i32 } %.pn.pn

unreachable:                                      ; preds = %invoke.cont20
  unreachable
}

; Function Attrs: mustprogress uwtable
define void @_ZN6duckdb15DebugWindowMode11ResetGlobalEPNS_16DatabaseInstanceERNS_8DBConfigE(ptr nocapture noundef readnone %db, ptr nocapture noundef nonnull writeonly align 8 dereferenceable(896) %config) local_unnamed_addr #3 align 2 {
entry:
  %ref.tmp = alloca %"struct.duckdb::DBConfig", align 8
  call void @llvm.lifetime.start.p0(i64 896, ptr nonnull %ref.tmp) #22
  call void @_ZN6duckdb8DBConfigC1Ev(ptr noundef nonnull align 8 dereferenceable(896) %ref.tmp)
  %window_mode = getelementptr inbounds %"struct.duckdb::DBConfig", ptr %ref.tmp, i64 0, i32 5, i32 26
  %0 = load i32, ptr %window_mode, align 4, !tbaa !151
  %window_mode2 = getelementptr inbounds %"struct.duckdb::DBConfig", ptr %config, i64 0, i32 5, i32 26
  store i32 %0, ptr %window_mode2, align 4, !tbaa !151
  call void @_ZN6duckdb8DBConfigD1Ev(ptr noundef nonnull align 8 dereferenceable(896) %ref.tmp) #22
  call void @llvm.lifetime.end.p0(i64 896, ptr nonnull %ref.tmp) #22
  ret void
}

; Function Attrs: mustprogress uwtable
define void @_ZN6duckdb15DebugWindowMode10GetSettingERNS_13ClientContextE(ptr noalias sret(%"class.duckdb::Value") align 8 %agg.result, ptr nocapture noundef nonnull readnone align 8 dereferenceable(592) %context) local_unnamed_addr #3 align 2 personality ptr @__gxx_personality_v0 {
entry:
  %agg.tmp = alloca %"struct.duckdb::LogicalType", align 8
  call void @_ZN6duckdb11LogicalTypeC1ENS_13LogicalTypeIdE(ptr noundef nonnull align 8 dereferenceable(24) %agg.tmp, i8 noundef zeroext 1)
  invoke void @_ZN6duckdb5ValueC1ENS_11LogicalTypeE(ptr noundef nonnull align 8 dereferenceable(64) %agg.result, ptr noundef nonnull %agg.tmp)
          to label %invoke.cont unwind label %lpad

invoke.cont:                                      ; preds = %entry
  call void @_ZN6duckdb11LogicalTypeD1Ev(ptr noundef nonnull align 8 dereferenceable(24) %agg.tmp) #22
  ret void

lpad:                                             ; preds = %entry
  %0 = landingpad { ptr, i32 }
          cleanup
  call void @_ZN6duckdb11LogicalTypeD1Ev(ptr noundef nonnull align 8 dereferenceable(24) %agg.tmp) #22
  resume { ptr, i32 } %0
}

declare void @_ZN6duckdb11LogicalTypeC1ENS_13LogicalTypeIdE(ptr noundef nonnull align 8 dereferenceable(24), i8 noundef zeroext) unnamed_addr #0

declare void @_ZN6duckdb5ValueC1ENS_11LogicalTypeE(ptr noundef nonnull align 8 dereferenceable(64), ptr noundef) unnamed_addr #0

; Function Attrs: nounwind
declare void @_ZN6duckdb11LogicalTypeD1Ev(ptr noundef nonnull align 8 dereferenceable(24)) unnamed_addr #1

; Function Attrs: mustprogress uwtable
define void @_ZN6duckdb15DebugAsOfIEJoin10ResetLocalERNS_13ClientContextE(ptr noundef nonnull align 8 dereferenceable(592) %context) local_unnamed_addr #3 align 2 personality ptr @__gxx_personality_v0 {
entry:
  %ref.tmp = alloca %"struct.duckdb::ClientConfig", align 8
  call void @llvm.lifetime.start.p0(i64 336, ptr nonnull %ref.tmp) #22
  %0 = getelementptr inbounds i8, ptr %ref.tmp, i64 16
  call void @llvm.memset.p0.i64(ptr noundef nonnull align 8 dereferenceable(336) %0, i8 0, i64 272, i1 false)
  store ptr %0, ptr %ref.tmp, align 8, !tbaa !110
  %_M_string_length.i.i.i.i = getelementptr inbounds %"class.std::__cxx11::basic_string", ptr %ref.tmp, i64 0, i32 1
  store i64 0, ptr %_M_string_length.i.i.i.i, align 8, !tbaa !10
  %profiler_print_format.i = getelementptr inbounds %"struct.duckdb::ClientConfig", ptr %ref.tmp, i64 0, i32 3
  store i8 0, ptr %profiler_print_format.i, align 2, !tbaa !119
  %profiler_save_location.i = getelementptr inbounds %"struct.duckdb::ClientConfig", ptr %ref.tmp, i64 0, i32 4
  %1 = getelementptr inbounds %"struct.duckdb::ClientConfig", ptr %ref.tmp, i64 0, i32 4, i32 2
  store ptr %1, ptr %profiler_save_location.i, align 8, !tbaa !110
  %emit_profiler_output.i = getelementptr inbounds %"struct.duckdb::ClientConfig", ptr %ref.tmp, i64 0, i32 5
  store i8 1, ptr %emit_profiler_output.i, align 8, !tbaa !126
  %print_progress_bar.i = getelementptr inbounds %"struct.duckdb::ClientConfig", ptr %ref.tmp, i64 0, i32 8
  store i8 1, ptr %print_progress_bar.i, align 1, !tbaa !127
  %wait_time.i = getelementptr inbounds %"struct.duckdb::ClientConfig", ptr %ref.tmp, i64 0, i32 9
  store i32 2000, ptr %wait_time.i, align 4, !tbaa !128
  %preserve_identifier_case.i = getelementptr inbounds %"struct.duckdb::ClientConfig", ptr %ref.tmp, i64 0, i32 10
  store i8 1, ptr %preserve_identifier_case.i, align 8, !tbaa !129
  %max_expression_depth.i = getelementptr inbounds %"struct.duckdb::ClientConfig", ptr %ref.tmp, i64 0, i32 11
  store i64 1000, ptr %max_expression_depth.i, align 8, !tbaa !130
  %enable_optimizer.i = getelementptr inbounds %"struct.duckdb::ClientConfig", ptr %ref.tmp, i64 0, i32 15
  store i8 1, ptr %enable_optimizer.i, align 1, !tbaa !131
  %enable_caching_operators.i = getelementptr inbounds %"struct.duckdb::ClientConfig", ptr %ref.tmp, i64 0, i32 16
  store i8 1, ptr %enable_caching_operators.i, align 4, !tbaa !132
  %verify_parallelism.i = getelementptr inbounds %"struct.duckdb::ClientConfig", ptr %ref.tmp, i64 0, i32 17
  %use_replacement_scans.i = getelementptr inbounds %"struct.duckdb::ClientConfig", ptr %ref.tmp, i64 0, i32 22
  call void @llvm.memset.p0.i64(ptr noundef nonnull align 1 dereferenceable(5) %verify_parallelism.i, i8 0, i64 5, i1 false)
  store i8 1, ptr %use_replacement_scans.i, align 2, !tbaa !133
  %perfect_ht_threshold.i = getelementptr inbounds %"struct.duckdb::ClientConfig", ptr %ref.tmp, i64 0, i32 23
  store i64 12, ptr %perfect_ht_threshold.i, align 8, !tbaa !134
  %ordered_aggregate_threshold.i = getelementptr inbounds %"struct.duckdb::ClientConfig", ptr %ref.tmp, i64 0, i32 24
  store i64 262144, ptr %ordered_aggregate_threshold.i, align 8, !tbaa !135
  %custom_extension_repo.i = getelementptr inbounds %"struct.duckdb::ClientConfig", ptr %ref.tmp, i64 0, i32 26
  %2 = getelementptr inbounds %"struct.duckdb::ClientConfig", ptr %ref.tmp, i64 0, i32 26, i32 2
  store ptr %2, ptr %custom_extension_repo.i, align 8, !tbaa !110
  %autoinstall_extension_repo.i = getelementptr inbounds %"struct.duckdb::ClientConfig", ptr %ref.tmp, i64 0, i32 27
  %3 = getelementptr inbounds %"struct.duckdb::ClientConfig", ptr %ref.tmp, i64 0, i32 27, i32 2
  store ptr %3, ptr %autoinstall_extension_repo.i, align 8, !tbaa !110
  %explain_output_type.i = getelementptr inbounds %"struct.duckdb::ClientConfig", ptr %ref.tmp, i64 0, i32 28
  store i8 2, ptr %explain_output_type.i, align 8, !tbaa !136
  %pivot_limit.i = getelementptr inbounds %"struct.duckdb::ClientConfig", ptr %ref.tmp, i64 0, i32 29
  store i64 100000, ptr %pivot_limit.i, align 8, !tbaa !137
  %pivot_filter_threshold.i = getelementptr inbounds %"struct.duckdb::ClientConfig", ptr %ref.tmp, i64 0, i32 30
  store i64 10, ptr %pivot_filter_threshold.i, align 8, !tbaa !138
  %set_variables.i = getelementptr inbounds %"struct.duckdb::ClientConfig", ptr %ref.tmp, i64 0, i32 32
  %_M_single_bucket.i.i.i = getelementptr inbounds %"struct.duckdb::ClientConfig", ptr %ref.tmp, i64 0, i32 32, i32 0, i32 5
  store ptr %_M_single_bucket.i.i.i, ptr %set_variables.i, align 8, !tbaa !139
  %_M_bucket_count.i.i.i = getelementptr inbounds %"struct.duckdb::ClientConfig", ptr %ref.tmp, i64 0, i32 32, i32 0, i32 1
  store i64 1, ptr %_M_bucket_count.i.i.i, align 8, !tbaa !140
  %_M_before_begin.i.i.i = getelementptr inbounds %"struct.duckdb::ClientConfig", ptr %ref.tmp, i64 0, i32 32, i32 0, i32 2
  %_M_rehash_policy.i.i.i = getelementptr inbounds %"struct.duckdb::ClientConfig", ptr %ref.tmp, i64 0, i32 32, i32 0, i32 4
  call void @llvm.memset.p0.i64(ptr noundef nonnull align 8 dereferenceable(16) %_M_before_begin.i.i.i, i8 0, i64 16, i1 false)
  store float 1.000000e+00, ptr %_M_rehash_policy.i.i.i, align 8, !tbaa !141
  %_M_next_resize.i.i.i.i = getelementptr inbounds %"struct.duckdb::ClientConfig", ptr %ref.tmp, i64 0, i32 32, i32 0, i32 4, i32 1
  call void @llvm.memset.p0.i64(ptr noundef nonnull align 8 dereferenceable(48) %_M_next_resize.i.i.i.i, i8 0, i64 48, i1 false)
  %call = invoke noundef nonnull align 8 dereferenceable(336) ptr @_ZN6duckdb12ClientConfig9GetConfigERNS_13ClientContextE(ptr noundef nonnull align 8 dereferenceable(592) %context)
          to label %invoke.cont unwind label %lpad

invoke.cont:                                      ; preds = %entry
  %force_asof_iejoin1 = getelementptr inbounds %"struct.duckdb::ClientConfig", ptr %call, i64 0, i32 20
  store i8 0, ptr %force_asof_iejoin1, align 8, !tbaa !152
  call void @_ZN6duckdb12ClientConfigD2Ev(ptr noundef nonnull align 8 dereferenceable(336) %ref.tmp) #22
  call void @llvm.lifetime.end.p0(i64 336, ptr nonnull %ref.tmp) #22
  ret void

lpad:                                             ; preds = %entry
  %4 = landingpad { ptr, i32 }
          cleanup
  call void @_ZN6duckdb12ClientConfigD2Ev(ptr noundef nonnull align 8 dereferenceable(336) %ref.tmp) #22
  call void @llvm.lifetime.end.p0(i64 336, ptr nonnull %ref.tmp) #22
  resume { ptr, i32 } %4
}

; Function Attrs: mustprogress uwtable
define void @_ZN6duckdb15DebugAsOfIEJoin8SetLocalERNS_13ClientContextERKNS_5ValueE(ptr noundef nonnull align 8 dereferenceable(592) %context, ptr noundef nonnull align 8 dereferenceable(64) %input) local_unnamed_addr #3 align 2 {
entry:
  %call = tail call noundef zeroext i1 @_ZNK6duckdb5Value8GetValueIbEET_v(ptr noundef nonnull align 8 dereferenceable(64) %input)
  %call1 = tail call noundef nonnull align 8 dereferenceable(336) ptr @_ZN6duckdb12ClientConfig9GetConfigERNS_13ClientContextE(ptr noundef nonnull align 8 dereferenceable(592) %context)
  %force_asof_iejoin = getelementptr inbounds %"struct.duckdb::ClientConfig", ptr %call1, i64 0, i32 20
  %frombool = zext i1 %call to i8
  store i8 %frombool, ptr %force_asof_iejoin, align 8, !tbaa !152
  ret void
}

; Function Attrs: mustprogress uwtable
define void @_ZN6duckdb15DebugAsOfIEJoin10GetSettingERNS_13ClientContextE(ptr noalias sret(%"class.duckdb::Value") align 8 %agg.result, ptr noundef nonnull align 8 dereferenceable(592) %context) local_unnamed_addr #3 align 2 {
entry:
  %call = tail call noundef nonnull align 8 dereferenceable(336) ptr @_ZN6duckdb12ClientConfig9GetConfigERNS_13ClientContextE(ptr noundef nonnull align 8 dereferenceable(592) %context)
  %force_asof_iejoin = getelementptr inbounds %"struct.duckdb::ClientConfig", ptr %call, i64 0, i32 20
  %0 = load i8, ptr %force_asof_iejoin, align 8, !tbaa !152, !range !148, !noundef !149
  tail call void @_ZN6duckdb5Value7BOOLEANEa(ptr sret(%"class.duckdb::Value") align 8 %agg.result, i8 noundef signext %0)
  ret void
}

; Function Attrs: mustprogress uwtable
define void @_ZN6duckdb16PreferRangeJoins10ResetLocalERNS_13ClientContextE(ptr noundef nonnull align 8 dereferenceable(592) %context) local_unnamed_addr #3 align 2 personality ptr @__gxx_personality_v0 {
entry:
  %ref.tmp = alloca %"struct.duckdb::ClientConfig", align 8
  call void @llvm.lifetime.start.p0(i64 336, ptr nonnull %ref.tmp) #22
  %0 = getelementptr inbounds i8, ptr %ref.tmp, i64 16
  call void @llvm.memset.p0.i64(ptr noundef nonnull align 8 dereferenceable(336) %0, i8 0, i64 272, i1 false)
  store ptr %0, ptr %ref.tmp, align 8, !tbaa !110
  %_M_string_length.i.i.i.i = getelementptr inbounds %"class.std::__cxx11::basic_string", ptr %ref.tmp, i64 0, i32 1
  store i64 0, ptr %_M_string_length.i.i.i.i, align 8, !tbaa !10
  %profiler_print_format.i = getelementptr inbounds %"struct.duckdb::ClientConfig", ptr %ref.tmp, i64 0, i32 3
  store i8 0, ptr %profiler_print_format.i, align 2, !tbaa !119
  %profiler_save_location.i = getelementptr inbounds %"struct.duckdb::ClientConfig", ptr %ref.tmp, i64 0, i32 4
  %1 = getelementptr inbounds %"struct.duckdb::ClientConfig", ptr %ref.tmp, i64 0, i32 4, i32 2
  store ptr %1, ptr %profiler_save_location.i, align 8, !tbaa !110
  %emit_profiler_output.i = getelementptr inbounds %"struct.duckdb::ClientConfig", ptr %ref.tmp, i64 0, i32 5
  store i8 1, ptr %emit_profiler_output.i, align 8, !tbaa !126
  %print_progress_bar.i = getelementptr inbounds %"struct.duckdb::ClientConfig", ptr %ref.tmp, i64 0, i32 8
  store i8 1, ptr %print_progress_bar.i, align 1, !tbaa !127
  %wait_time.i = getelementptr inbounds %"struct.duckdb::ClientConfig", ptr %ref.tmp, i64 0, i32 9
  store i32 2000, ptr %wait_time.i, align 4, !tbaa !128
  %preserve_identifier_case.i = getelementptr inbounds %"struct.duckdb::ClientConfig", ptr %ref.tmp, i64 0, i32 10
  store i8 1, ptr %preserve_identifier_case.i, align 8, !tbaa !129
  %max_expression_depth.i = getelementptr inbounds %"struct.duckdb::ClientConfig", ptr %ref.tmp, i64 0, i32 11
  store i64 1000, ptr %max_expression_depth.i, align 8, !tbaa !130
  %enable_optimizer.i = getelementptr inbounds %"struct.duckdb::ClientConfig", ptr %ref.tmp, i64 0, i32 15
  store i8 1, ptr %enable_optimizer.i, align 1, !tbaa !131
  %enable_caching_operators.i = getelementptr inbounds %"struct.duckdb::ClientConfig", ptr %ref.tmp, i64 0, i32 16
  store i8 1, ptr %enable_caching_operators.i, align 4, !tbaa !132
  %verify_parallelism.i = getelementptr inbounds %"struct.duckdb::ClientConfig", ptr %ref.tmp, i64 0, i32 17
  %use_replacement_scans.i = getelementptr inbounds %"struct.duckdb::ClientConfig", ptr %ref.tmp, i64 0, i32 22
  call void @llvm.memset.p0.i64(ptr noundef nonnull align 1 dereferenceable(5) %verify_parallelism.i, i8 0, i64 5, i1 false)
  store i8 1, ptr %use_replacement_scans.i, align 2, !tbaa !133
  %perfect_ht_threshold.i = getelementptr inbounds %"struct.duckdb::ClientConfig", ptr %ref.tmp, i64 0, i32 23
  store i64 12, ptr %perfect_ht_threshold.i, align 8, !tbaa !134
  %ordered_aggregate_threshold.i = getelementptr inbounds %"struct.duckdb::ClientConfig", ptr %ref.tmp, i64 0, i32 24
  store i64 262144, ptr %ordered_aggregate_threshold.i, align 8, !tbaa !135
  %custom_extension_repo.i = getelementptr inbounds %"struct.duckdb::ClientConfig", ptr %ref.tmp, i64 0, i32 26
  %2 = getelementptr inbounds %"struct.duckdb::ClientConfig", ptr %ref.tmp, i64 0, i32 26, i32 2
  store ptr %2, ptr %custom_extension_repo.i, align 8, !tbaa !110
  %autoinstall_extension_repo.i = getelementptr inbounds %"struct.duckdb::ClientConfig", ptr %ref.tmp, i64 0, i32 27
  %3 = getelementptr inbounds %"struct.duckdb::ClientConfig", ptr %ref.tmp, i64 0, i32 27, i32 2
  store ptr %3, ptr %autoinstall_extension_repo.i, align 8, !tbaa !110
  %explain_output_type.i = getelementptr inbounds %"struct.duckdb::ClientConfig", ptr %ref.tmp, i64 0, i32 28
  store i8 2, ptr %explain_output_type.i, align 8, !tbaa !136
  %pivot_limit.i = getelementptr inbounds %"struct.duckdb::ClientConfig", ptr %ref.tmp, i64 0, i32 29
  store i64 100000, ptr %pivot_limit.i, align 8, !tbaa !137
  %pivot_filter_threshold.i = getelementptr inbounds %"struct.duckdb::ClientConfig", ptr %ref.tmp, i64 0, i32 30
  store i64 10, ptr %pivot_filter_threshold.i, align 8, !tbaa !138
  %set_variables.i = getelementptr inbounds %"struct.duckdb::ClientConfig", ptr %ref.tmp, i64 0, i32 32
  %_M_single_bucket.i.i.i = getelementptr inbounds %"struct.duckdb::ClientConfig", ptr %ref.tmp, i64 0, i32 32, i32 0, i32 5
  store ptr %_M_single_bucket.i.i.i, ptr %set_variables.i, align 8, !tbaa !139
  %_M_bucket_count.i.i.i = getelementptr inbounds %"struct.duckdb::ClientConfig", ptr %ref.tmp, i64 0, i32 32, i32 0, i32 1
  store i64 1, ptr %_M_bucket_count.i.i.i, align 8, !tbaa !140
  %_M_before_begin.i.i.i = getelementptr inbounds %"struct.duckdb::ClientConfig", ptr %ref.tmp, i64 0, i32 32, i32 0, i32 2
  %_M_rehash_policy.i.i.i = getelementptr inbounds %"struct.duckdb::ClientConfig", ptr %ref.tmp, i64 0, i32 32, i32 0, i32 4
  call void @llvm.memset.p0.i64(ptr noundef nonnull align 8 dereferenceable(16) %_M_before_begin.i.i.i, i8 0, i64 16, i1 false)
  store float 1.000000e+00, ptr %_M_rehash_policy.i.i.i, align 8, !tbaa !141
  %_M_next_resize.i.i.i.i = getelementptr inbounds %"struct.duckdb::ClientConfig", ptr %ref.tmp, i64 0, i32 32, i32 0, i32 4, i32 1
  call void @llvm.memset.p0.i64(ptr noundef nonnull align 8 dereferenceable(48) %_M_next_resize.i.i.i.i, i8 0, i64 48, i1 false)
  %call = invoke noundef nonnull align 8 dereferenceable(336) ptr @_ZN6duckdb12ClientConfig9GetConfigERNS_13ClientContextE(ptr noundef nonnull align 8 dereferenceable(592) %context)
          to label %invoke.cont unwind label %lpad

invoke.cont:                                      ; preds = %entry
  %prefer_range_joins1 = getelementptr inbounds %"struct.duckdb::ClientConfig", ptr %call, i64 0, i32 21
  store i8 0, ptr %prefer_range_joins1, align 1, !tbaa !153
  call void @_ZN6duckdb12ClientConfigD2Ev(ptr noundef nonnull align 8 dereferenceable(336) %ref.tmp) #22
  call void @llvm.lifetime.end.p0(i64 336, ptr nonnull %ref.tmp) #22
  ret void

lpad:                                             ; preds = %entry
  %4 = landingpad { ptr, i32 }
          cleanup
  call void @_ZN6duckdb12ClientConfigD2Ev(ptr noundef nonnull align 8 dereferenceable(336) %ref.tmp) #22
  call void @llvm.lifetime.end.p0(i64 336, ptr nonnull %ref.tmp) #22
  resume { ptr, i32 } %4
}

; Function Attrs: mustprogress uwtable
define void @_ZN6duckdb16PreferRangeJoins8SetLocalERNS_13ClientContextERKNS_5ValueE(ptr noundef nonnull align 8 dereferenceable(592) %context, ptr noundef nonnull align 8 dereferenceable(64) %input) local_unnamed_addr #3 align 2 {
entry:
  %call = tail call noundef zeroext i1 @_ZNK6duckdb5Value8GetValueIbEET_v(ptr noundef nonnull align 8 dereferenceable(64) %input)
  %call1 = tail call noundef nonnull align 8 dereferenceable(336) ptr @_ZN6duckdb12ClientConfig9GetConfigERNS_13ClientContextE(ptr noundef nonnull align 8 dereferenceable(592) %context)
  %prefer_range_joins = getelementptr inbounds %"struct.duckdb::ClientConfig", ptr %call1, i64 0, i32 21
  %frombool = zext i1 %call to i8
  store i8 %frombool, ptr %prefer_range_joins, align 1, !tbaa !153
  ret void
}

; Function Attrs: mustprogress uwtable
define void @_ZN6duckdb16PreferRangeJoins10GetSettingERNS_13ClientContextE(ptr noalias sret(%"class.duckdb::Value") align 8 %agg.result, ptr noundef nonnull align 8 dereferenceable(592) %context) local_unnamed_addr #3 align 2 {
entry:
  %call = tail call noundef nonnull align 8 dereferenceable(336) ptr @_ZN6duckdb12ClientConfig9GetConfigERNS_13ClientContextE(ptr noundef nonnull align 8 dereferenceable(592) %context)
  %prefer_range_joins = getelementptr inbounds %"struct.duckdb::ClientConfig", ptr %call, i64 0, i32 21
  %0 = load i8, ptr %prefer_range_joins, align 1, !tbaa !153, !range !148, !noundef !149
  tail call void @_ZN6duckdb5Value7BOOLEANEa(ptr sret(%"class.duckdb::Value") align 8 %agg.result, i8 noundef signext %0)
  ret void
}

; Function Attrs: mustprogress uwtable
define void @_ZN6duckdb23DefaultCollationSetting9SetGlobalEPNS_16DatabaseInstanceERNS_8DBConfigERKNS_5ValueE(ptr nocapture noundef readnone %db, ptr noundef nonnull align 8 dereferenceable(896) %config, ptr noundef nonnull align 8 dereferenceable(64) %input) local_unnamed_addr #3 align 2 personality ptr @__gxx_personality_v0 {
entry:
  %parameter = alloca %"class.std::__cxx11::basic_string", align 8
  %ref.tmp = alloca %"class.std::__cxx11::basic_string", align 8
  call void @llvm.lifetime.start.p0(i64 32, ptr nonnull %parameter) #22
  call void @llvm.lifetime.start.p0(i64 32, ptr nonnull %ref.tmp) #22
  call void @_ZNK6duckdb5Value8ToStringB5cxx11Ev(ptr nonnull sret(%"class.std::__cxx11::basic_string") align 8 %ref.tmp, ptr noundef nonnull align 8 dereferenceable(64) %input)
  invoke void @_ZN6duckdb10StringUtil5LowerERKNSt7__cxx1112basic_stringIcSt11char_traitsIcESaIcEEE(ptr nonnull sret(%"class.std::__cxx11::basic_string") align 8 %parameter, ptr noundef nonnull align 8 dereferenceable(32) %ref.tmp)
          to label %invoke.cont unwind label %lpad

invoke.cont:                                      ; preds = %entry
  %0 = load ptr, ptr %ref.tmp, align 8, !tbaa !3
  %1 = getelementptr inbounds %"class.std::__cxx11::basic_string", ptr %ref.tmp, i64 0, i32 2
  %cmp.i.i.i = icmp eq ptr %0, %1
  br i1 %cmp.i.i.i, label %_ZNKSt7__cxx1112basic_stringIcSt11char_traitsIcESaIcEE11_M_is_localEv.exit.thread.i.i, label %if.then.i.i

_ZNKSt7__cxx1112basic_stringIcSt11char_traitsIcESaIcEE11_M_is_localEv.exit.thread.i.i: ; preds = %invoke.cont
  %_M_string_length.i.i.i = getelementptr inbounds %"class.std::__cxx11::basic_string", ptr %ref.tmp, i64 0, i32 1
  %2 = load i64, ptr %_M_string_length.i.i.i, align 8, !tbaa !10
  %cmp3.i.i.i = icmp ult i64 %2, 16
  call void @llvm.assume(i1 %cmp3.i.i.i)
  br label %_ZNSt7__cxx1112basic_stringIcSt11char_traitsIcESaIcEED2Ev.exit

if.then.i.i:                                      ; preds = %invoke.cont
  call void @_ZdlPv(ptr noundef %0) #24
  br label %_ZNSt7__cxx1112basic_stringIcSt11char_traitsIcESaIcEED2Ev.exit

_ZNSt7__cxx1112basic_stringIcSt11char_traitsIcESaIcEED2Ev.exit: ; preds = %if.then.i.i, %_ZNKSt7__cxx1112basic_stringIcSt11char_traitsIcESaIcEE11_M_is_localEv.exit.thread.i.i
  call void @llvm.lifetime.end.p0(i64 32, ptr nonnull %ref.tmp) #22
  %collation = getelementptr inbounds %"struct.duckdb::DBConfig", ptr %config, i64 0, i32 5, i32 13
  invoke void @_ZNSt7__cxx1112basic_stringIcSt11char_traitsIcESaIcEE9_M_assignERKS4_(ptr noundef nonnull align 8 dereferenceable(32) %collation, ptr noundef nonnull align 8 dereferenceable(32) %parameter)
          to label %invoke.cont2 unwind label %lpad1

invoke.cont2:                                     ; preds = %_ZNSt7__cxx1112basic_stringIcSt11char_traitsIcESaIcEED2Ev.exit
  %3 = load ptr, ptr %parameter, align 8, !tbaa !3
  %4 = getelementptr inbounds %"class.std::__cxx11::basic_string", ptr %parameter, i64 0, i32 2
  %cmp.i.i.i5 = icmp eq ptr %3, %4
  br i1 %cmp.i.i.i5, label %_ZNKSt7__cxx1112basic_stringIcSt11char_traitsIcESaIcEE11_M_is_localEv.exit.thread.i.i7, label %if.then.i.i6

_ZNKSt7__cxx1112basic_stringIcSt11char_traitsIcESaIcEE11_M_is_localEv.exit.thread.i.i7: ; preds = %invoke.cont2
  %_M_string_length.i.i.i8 = getelementptr inbounds %"class.std::__cxx11::basic_string", ptr %parameter, i64 0, i32 1
  %5 = load i64, ptr %_M_string_length.i.i.i8, align 8, !tbaa !10
  %cmp3.i.i.i9 = icmp ult i64 %5, 16
  call void @llvm.assume(i1 %cmp3.i.i.i9)
  br label %_ZNSt7__cxx1112basic_stringIcSt11char_traitsIcESaIcEED2Ev.exit10

if.then.i.i6:                                     ; preds = %invoke.cont2
  call void @_ZdlPv(ptr noundef %3) #24
  br label %_ZNSt7__cxx1112basic_stringIcSt11char_traitsIcESaIcEED2Ev.exit10

_ZNSt7__cxx1112basic_stringIcSt11char_traitsIcESaIcEED2Ev.exit10: ; preds = %if.then.i.i6, %_ZNKSt7__cxx1112basic_stringIcSt11char_traitsIcESaIcEE11_M_is_localEv.exit.thread.i.i7
  call void @llvm.lifetime.end.p0(i64 32, ptr nonnull %parameter) #22
  ret void

lpad:                                             ; preds = %entry
  %6 = landingpad { ptr, i32 }
          cleanup
  %7 = load ptr, ptr %ref.tmp, align 8, !tbaa !3
  %8 = getelementptr inbounds %"class.std::__cxx11::basic_string", ptr %ref.tmp, i64 0, i32 2
  %cmp.i.i.i11 = icmp eq ptr %7, %8
  br i1 %cmp.i.i.i11, label %_ZNKSt7__cxx1112basic_stringIcSt11char_traitsIcESaIcEE11_M_is_localEv.exit.thread.i.i13, label %if.then.i.i12

_ZNKSt7__cxx1112basic_stringIcSt11char_traitsIcESaIcEE11_M_is_localEv.exit.thread.i.i13: ; preds = %lpad
  %_M_string_length.i.i.i14 = getelementptr inbounds %"class.std::__cxx11::basic_string", ptr %ref.tmp, i64 0, i32 1
  %9 = load i64, ptr %_M_string_length.i.i.i14, align 8, !tbaa !10
  %cmp3.i.i.i15 = icmp ult i64 %9, 16
  call void @llvm.assume(i1 %cmp3.i.i.i15)
  br label %_ZNSt7__cxx1112basic_stringIcSt11char_traitsIcESaIcEED2Ev.exit16

if.then.i.i12:                                    ; preds = %lpad
  call void @_ZdlPv(ptr noundef %7) #24
  br label %_ZNSt7__cxx1112basic_stringIcSt11char_traitsIcESaIcEED2Ev.exit16

_ZNSt7__cxx1112basic_stringIcSt11char_traitsIcESaIcEED2Ev.exit16: ; preds = %if.then.i.i12, %_ZNKSt7__cxx1112basic_stringIcSt11char_traitsIcESaIcEE11_M_is_localEv.exit.thread.i.i13
  call void @llvm.lifetime.end.p0(i64 32, ptr nonnull %ref.tmp) #22
  br label %ehcleanup

lpad1:                                            ; preds = %_ZNSt7__cxx1112basic_stringIcSt11char_traitsIcESaIcEED2Ev.exit
  %10 = landingpad { ptr, i32 }
          cleanup
  %11 = load ptr, ptr %parameter, align 8, !tbaa !3
  %12 = getelementptr inbounds %"class.std::__cxx11::basic_string", ptr %parameter, i64 0, i32 2
  %cmp.i.i.i17 = icmp eq ptr %11, %12
  br i1 %cmp.i.i.i17, label %_ZNKSt7__cxx1112basic_stringIcSt11char_traitsIcESaIcEE11_M_is_localEv.exit.thread.i.i19, label %if.then.i.i18

_ZNKSt7__cxx1112basic_stringIcSt11char_traitsIcESaIcEE11_M_is_localEv.exit.thread.i.i19: ; preds = %lpad1
  %_M_string_length.i.i.i20 = getelementptr inbounds %"class.std::__cxx11::basic_string", ptr %parameter, i64 0, i32 1
  %13 = load i64, ptr %_M_string_length.i.i.i20, align 8, !tbaa !10
  %cmp3.i.i.i21 = icmp ult i64 %13, 16
  call void @llvm.assume(i1 %cmp3.i.i.i21)
  br label %ehcleanup

if.then.i.i18:                                    ; preds = %lpad1
  call void @_ZdlPv(ptr noundef %11) #24
  br label %ehcleanup

ehcleanup:                                        ; preds = %if.then.i.i18, %_ZNKSt7__cxx1112basic_stringIcSt11char_traitsIcESaIcEE11_M_is_localEv.exit.thread.i.i19, %_ZNSt7__cxx1112basic_stringIcSt11char_traitsIcESaIcEED2Ev.exit16
  %.pn = phi { ptr, i32 } [ %6, %_ZNSt7__cxx1112basic_stringIcSt11char_traitsIcESaIcEED2Ev.exit16 ], [ %10, %_ZNKSt7__cxx1112basic_stringIcSt11char_traitsIcESaIcEE11_M_is_localEv.exit.thread.i.i19 ], [ %10, %if.then.i.i18 ]
  call void @llvm.lifetime.end.p0(i64 32, ptr nonnull %parameter) #22
  resume { ptr, i32 } %.pn
}

; Function Attrs: mustprogress uwtable
define void @_ZN6duckdb23DefaultCollationSetting11ResetGlobalEPNS_16DatabaseInstanceERNS_8DBConfigE(ptr nocapture noundef readnone %db, ptr noundef nonnull align 8 dereferenceable(896) %config) local_unnamed_addr #3 align 2 personality ptr @__gxx_personality_v0 {
entry:
  %ref.tmp = alloca %"struct.duckdb::DBConfig", align 8
  call void @llvm.lifetime.start.p0(i64 896, ptr nonnull %ref.tmp) #22
  call void @_ZN6duckdb8DBConfigC1Ev(ptr noundef nonnull align 8 dereferenceable(896) %ref.tmp)
  %collation = getelementptr inbounds %"struct.duckdb::DBConfig", ptr %ref.tmp, i64 0, i32 5, i32 13
  %collation2 = getelementptr inbounds %"struct.duckdb::DBConfig", ptr %config, i64 0, i32 5, i32 13
  %0 = load ptr, ptr %collation2, align 8, !tbaa !3
  %1 = getelementptr inbounds %"struct.duckdb::DBConfig", ptr %config, i64 0, i32 5, i32 13, i32 2
  %cmp.i.i = icmp eq ptr %0, %1
  br i1 %cmp.i.i, label %invoke.cont12.i, label %invoke.cont12.thread.i

invoke.cont12.i:                                  ; preds = %entry
  %_M_string_length.i.i = getelementptr inbounds %"struct.duckdb::DBConfig", ptr %config, i64 0, i32 5, i32 13, i32 1
  %2 = load i64, ptr %_M_string_length.i.i, align 8, !tbaa !10
  %cmp3.i.i = icmp ult i64 %2, 16
  call void @llvm.assume(i1 %cmp3.i.i)
  %3 = load ptr, ptr %collation, align 8, !tbaa !3
  %4 = getelementptr inbounds %"struct.duckdb::DBConfig", ptr %ref.tmp, i64 0, i32 5, i32 13, i32 2
  %cmp.i56.i = icmp eq ptr %3, %4
  br i1 %cmp.i56.i, label %if.then15.i, label %if.end32.thread.i

invoke.cont12.thread.i:                           ; preds = %entry
  %5 = load ptr, ptr %collation, align 8, !tbaa !3
  %6 = getelementptr inbounds %"struct.duckdb::DBConfig", ptr %ref.tmp, i64 0, i32 5, i32 13, i32 2
  %cmp.i5678.i = icmp eq ptr %5, %6
  br i1 %cmp.i5678.i, label %if.then15.i, label %if.end32.i

if.then15.i:                                      ; preds = %invoke.cont12.thread.i, %invoke.cont12.i
  %7 = phi ptr [ %5, %invoke.cont12.thread.i ], [ %4, %invoke.cont12.i ]
  %_M_string_length.i58.i = getelementptr inbounds %"struct.duckdb::DBConfig", ptr %ref.tmp, i64 0, i32 5, i32 13, i32 1
  %8 = load i64, ptr %_M_string_length.i58.i, align 8, !tbaa !10
  %cmp3.i59.i = icmp ult i64 %8, 16
  call void @llvm.assume(i1 %cmp3.i59.i)
  %cmp.not.i = icmp eq ptr %ref.tmp, %config
  br i1 %cmp.not.i, label %_ZNSt7__cxx1112basic_stringIcSt11char_traitsIcESaIcEEaSEOS4_.exit, label %if.then16.i, !prof !154

if.then16.i:                                      ; preds = %if.then15.i
  switch i64 %8, label %if.end.i.i.i [
    i64 0, label %if.end24.i
    i64 1, label %if.then.i63.i
  ]

if.then.i63.i:                                    ; preds = %if.then16.i
  %9 = load i8, ptr %7, align 1, !tbaa !112
  store i8 %9, ptr %0, align 1, !tbaa !112
  br label %if.end24.i

if.end.i.i.i:                                     ; preds = %if.then16.i
  call void @llvm.memcpy.p0.p0.i64(ptr align 1 %0, ptr align 1 %7, i64 %8, i1 false)
  br label %if.end24.i

if.end24.i:                                       ; preds = %if.end.i.i.i, %if.then.i63.i, %if.then16.i
  %10 = load i64, ptr %_M_string_length.i58.i, align 8, !tbaa !10
  %_M_string_length.i.i65.i = getelementptr inbounds %"struct.duckdb::DBConfig", ptr %config, i64 0, i32 5, i32 13, i32 1
  store i64 %10, ptr %_M_string_length.i.i65.i, align 8, !tbaa !10
  %11 = load ptr, ptr %collation2, align 8, !tbaa !3
  %arrayidx.i.i = getelementptr inbounds i8, ptr %11, i64 %10
  store i8 0, ptr %arrayidx.i.i, align 1, !tbaa !112
  %.pre.i = load ptr, ptr %collation, align 8, !tbaa !3
  br label %_ZNSt7__cxx1112basic_stringIcSt11char_traitsIcESaIcEEaSEOS4_.exit

if.end32.thread.i:                                ; preds = %invoke.cont12.i
  store ptr %3, ptr %collation2, align 8, !tbaa !3
  %_M_string_length.i7175.i = getelementptr inbounds %"struct.duckdb::DBConfig", ptr %ref.tmp, i64 0, i32 5, i32 13, i32 1
  %12 = load i64, ptr %_M_string_length.i7175.i, align 8, !tbaa !10
  store i64 %12, ptr %_M_string_length.i.i, align 8, !tbaa !10
  %13 = load i64, ptr %4, align 8, !tbaa !112
  store i64 %13, ptr %0, align 8, !tbaa !112
  br label %if.else37.i

if.end32.i:                                       ; preds = %invoke.cont12.thread.i
  %14 = load i64, ptr %1, align 8, !tbaa !112
  store ptr %5, ptr %collation2, align 8, !tbaa !3
  %_M_string_length.i71.i = getelementptr inbounds %"struct.duckdb::DBConfig", ptr %ref.tmp, i64 0, i32 5, i32 13, i32 1
  %_M_string_length.i72.i = getelementptr inbounds %"struct.duckdb::DBConfig", ptr %config, i64 0, i32 5, i32 13, i32 1
  %15 = load <2 x i64>, ptr %_M_string_length.i71.i, align 8, !tbaa !112
  store <2 x i64> %15, ptr %_M_string_length.i72.i, align 8, !tbaa !112
  %tobool35.not.i = icmp eq ptr %0, null
  br i1 %tobool35.not.i, label %if.else37.i, label %if.then36.i

if.then36.i:                                      ; preds = %if.end32.i
  store ptr %0, ptr %collation, align 8, !tbaa !3
  store i64 %14, ptr %6, align 8, !tbaa !112
  br label %_ZNSt7__cxx1112basic_stringIcSt11char_traitsIcESaIcEEaSEOS4_.exit

if.else37.i:                                      ; preds = %if.end32.i, %if.end32.thread.i
  %16 = phi ptr [ %4, %if.end32.thread.i ], [ %6, %if.end32.i ]
  store ptr %16, ptr %collation, align 8, !tbaa !3
  br label %_ZNSt7__cxx1112basic_stringIcSt11char_traitsIcESaIcEEaSEOS4_.exit

_ZNSt7__cxx1112basic_stringIcSt11char_traitsIcESaIcEEaSEOS4_.exit: ; preds = %if.else37.i, %if.then36.i, %if.end24.i, %if.then15.i
  %17 = phi ptr [ %.pre.i, %if.end24.i ], [ %0, %if.then36.i ], [ %16, %if.else37.i ], [ %7, %if.then15.i ]
  %_M_string_length.i.i.i.i = getelementptr inbounds %"struct.duckdb::DBConfig", ptr %ref.tmp, i64 0, i32 5, i32 13, i32 1
  store i64 0, ptr %_M_string_length.i.i.i.i, align 8, !tbaa !10
  store i8 0, ptr %17, align 1, !tbaa !112
  call void @_ZN6duckdb8DBConfigD1Ev(ptr noundef nonnull align 8 dereferenceable(896) %ref.tmp) #22
  call void @llvm.lifetime.end.p0(i64 896, ptr nonnull %ref.tmp) #22
  ret void
}

; Function Attrs: mustprogress uwtable
define void @_ZN6duckdb23DefaultCollationSetting10ResetLocalERNS_13ClientContextE(ptr noundef nonnull align 8 dereferenceable(592) %context) local_unnamed_addr #3 align 2 personality ptr @__gxx_personality_v0 {
entry:
  %ref.tmp = alloca %"struct.duckdb::DBConfig", align 8
  %call = tail call noundef nonnull align 8 dereferenceable(896) ptr @_ZN6duckdb8DBConfig9GetConfigERNS_13ClientContextE(ptr noundef nonnull align 8 dereferenceable(592) %context)
  call void @llvm.lifetime.start.p0(i64 896, ptr nonnull %ref.tmp) #22
  call void @_ZN6duckdb8DBConfigC1Ev(ptr noundef nonnull align 8 dereferenceable(896) %ref.tmp)
  %collation = getelementptr inbounds %"struct.duckdb::DBConfig", ptr %ref.tmp, i64 0, i32 5, i32 13
  %collation2 = getelementptr inbounds %"struct.duckdb::DBConfig", ptr %call, i64 0, i32 5, i32 13
  %0 = load ptr, ptr %collation2, align 8, !tbaa !3
  %1 = getelementptr inbounds %"struct.duckdb::DBConfig", ptr %call, i64 0, i32 5, i32 13, i32 2
  %cmp.i.i = icmp eq ptr %0, %1
  br i1 %cmp.i.i, label %invoke.cont12.i, label %invoke.cont12.thread.i

invoke.cont12.i:                                  ; preds = %entry
  %_M_string_length.i.i = getelementptr inbounds %"struct.duckdb::DBConfig", ptr %call, i64 0, i32 5, i32 13, i32 1
  %2 = load i64, ptr %_M_string_length.i.i, align 8, !tbaa !10
  %cmp3.i.i = icmp ult i64 %2, 16
  call void @llvm.assume(i1 %cmp3.i.i)
  %3 = load ptr, ptr %collation, align 8, !tbaa !3
  %4 = getelementptr inbounds %"struct.duckdb::DBConfig", ptr %ref.tmp, i64 0, i32 5, i32 13, i32 2
  %cmp.i56.i = icmp eq ptr %3, %4
  br i1 %cmp.i56.i, label %if.then15.i, label %if.end32.thread.i

invoke.cont12.thread.i:                           ; preds = %entry
  %5 = load ptr, ptr %collation, align 8, !tbaa !3
  %6 = getelementptr inbounds %"struct.duckdb::DBConfig", ptr %ref.tmp, i64 0, i32 5, i32 13, i32 2
  %cmp.i5678.i = icmp eq ptr %5, %6
  br i1 %cmp.i5678.i, label %if.then15.i, label %if.end32.i

if.then15.i:                                      ; preds = %invoke.cont12.thread.i, %invoke.cont12.i
  %7 = phi ptr [ %5, %invoke.cont12.thread.i ], [ %4, %invoke.cont12.i ]
  %_M_string_length.i58.i = getelementptr inbounds %"struct.duckdb::DBConfig", ptr %ref.tmp, i64 0, i32 5, i32 13, i32 1
  %8 = load i64, ptr %_M_string_length.i58.i, align 8, !tbaa !10
  %cmp3.i59.i = icmp ult i64 %8, 16
  call void @llvm.assume(i1 %cmp3.i59.i)
  %cmp.not.i = icmp eq ptr %ref.tmp, %call
  br i1 %cmp.not.i, label %_ZNSt7__cxx1112basic_stringIcSt11char_traitsIcESaIcEEaSEOS4_.exit, label %if.then16.i, !prof !154

if.then16.i:                                      ; preds = %if.then15.i
  switch i64 %8, label %if.end.i.i.i [
    i64 0, label %if.end24.i
    i64 1, label %if.then.i63.i
  ]

if.then.i63.i:                                    ; preds = %if.then16.i
  %9 = load i8, ptr %7, align 1, !tbaa !112
  store i8 %9, ptr %0, align 1, !tbaa !112
  br label %if.end24.i

if.end.i.i.i:                                     ; preds = %if.then16.i
  call void @llvm.memcpy.p0.p0.i64(ptr align 1 %0, ptr align 1 %7, i64 %8, i1 false)
  br label %if.end24.i

if.end24.i:                                       ; preds = %if.end.i.i.i, %if.then.i63.i, %if.then16.i
  %10 = load i64, ptr %_M_string_length.i58.i, align 8, !tbaa !10
  %_M_string_length.i.i65.i = getelementptr inbounds %"struct.duckdb::DBConfig", ptr %call, i64 0, i32 5, i32 13, i32 1
  store i64 %10, ptr %_M_string_length.i.i65.i, align 8, !tbaa !10
  %11 = load ptr, ptr %collation2, align 8, !tbaa !3
  %arrayidx.i.i = getelementptr inbounds i8, ptr %11, i64 %10
  store i8 0, ptr %arrayidx.i.i, align 1, !tbaa !112
  %.pre.i = load ptr, ptr %collation, align 8, !tbaa !3
  br label %_ZNSt7__cxx1112basic_stringIcSt11char_traitsIcESaIcEEaSEOS4_.exit

if.end32.thread.i:                                ; preds = %invoke.cont12.i
  store ptr %3, ptr %collation2, align 8, !tbaa !3
  %_M_string_length.i7175.i = getelementptr inbounds %"struct.duckdb::DBConfig", ptr %ref.tmp, i64 0, i32 5, i32 13, i32 1
  %12 = load i64, ptr %_M_string_length.i7175.i, align 8, !tbaa !10
  store i64 %12, ptr %_M_string_length.i.i, align 8, !tbaa !10
  %13 = load i64, ptr %4, align 8, !tbaa !112
  store i64 %13, ptr %0, align 8, !tbaa !112
  br label %if.else37.i

if.end32.i:                                       ; preds = %invoke.cont12.thread.i
  %14 = load i64, ptr %1, align 8, !tbaa !112
  store ptr %5, ptr %collation2, align 8, !tbaa !3
  %_M_string_length.i71.i = getelementptr inbounds %"struct.duckdb::DBConfig", ptr %ref.tmp, i64 0, i32 5, i32 13, i32 1
  %15 = load i64, ptr %_M_string_length.i71.i, align 8, !tbaa !10
  %_M_string_length.i72.i = getelementptr inbounds %"struct.duckdb::DBConfig", ptr %call, i64 0, i32 5, i32 13, i32 1
  store i64 %15, ptr %_M_string_length.i72.i, align 8, !tbaa !10
  %16 = load i64, ptr %6, align 8, !tbaa !112
  store i64 %16, ptr %1, align 8, !tbaa !112
  %tobool35.not.i = icmp eq ptr %0, null
  br i1 %tobool35.not.i, label %if.else37.i, label %if.then36.i

if.then36.i:                                      ; preds = %if.end32.i
  store ptr %0, ptr %collation, align 8, !tbaa !3
  store i64 %14, ptr %6, align 8, !tbaa !112
  br label %_ZNSt7__cxx1112basic_stringIcSt11char_traitsIcESaIcEEaSEOS4_.exit

if.else37.i:                                      ; preds = %if.end32.i, %if.end32.thread.i
  %17 = phi ptr [ %4, %if.end32.thread.i ], [ %6, %if.end32.i ]
  store ptr %17, ptr %collation, align 8, !tbaa !3
  br label %_ZNSt7__cxx1112basic_stringIcSt11char_traitsIcESaIcEEaSEOS4_.exit

_ZNSt7__cxx1112basic_stringIcSt11char_traitsIcESaIcEEaSEOS4_.exit: ; preds = %if.else37.i, %if.then36.i, %if.end24.i, %if.then15.i
  %18 = phi ptr [ %.pre.i, %if.end24.i ], [ %0, %if.then36.i ], [ %17, %if.else37.i ], [ %7, %if.then15.i ]
  %_M_string_length.i.i.i.i = getelementptr inbounds %"struct.duckdb::DBConfig", ptr %ref.tmp, i64 0, i32 5, i32 13, i32 1
  store i64 0, ptr %_M_string_length.i.i.i.i, align 8, !tbaa !10
  store i8 0, ptr %18, align 1, !tbaa !112
  call void @_ZN6duckdb8DBConfigD1Ev(ptr noundef nonnull align 8 dereferenceable(896) %ref.tmp) #22
  call void @llvm.lifetime.end.p0(i64 896, ptr nonnull %ref.tmp) #22
  ret void
}

; Function Attrs: mustprogress uwtable
define void @_ZN6duckdb23DefaultCollationSetting8SetLocalERNS_13ClientContextERKNS_5ValueE(ptr noundef nonnull align 8 dereferenceable(592) %context, ptr noundef nonnull align 8 dereferenceable(64) %input) local_unnamed_addr #3 align 2 personality ptr @__gxx_personality_v0 {
entry:
  %parameter = alloca %"class.std::__cxx11::basic_string", align 8
  call void @llvm.lifetime.start.p0(i64 32, ptr nonnull %parameter) #22
  call void @_ZNK6duckdb5Value8ToStringB5cxx11Ev(ptr nonnull sret(%"class.std::__cxx11::basic_string") align 8 %parameter, ptr noundef nonnull align 8 dereferenceable(64) %input)
  invoke void @_ZN6duckdb16ExpressionBinder13TestCollationERNS_13ClientContextERKNSt7__cxx1112basic_stringIcSt11char_traitsIcESaIcEEE(ptr noundef nonnull align 8 dereferenceable(592) %context, ptr noundef nonnull align 8 dereferenceable(32) %parameter)
          to label %invoke.cont unwind label %lpad

invoke.cont:                                      ; preds = %entry
  %call = invoke noundef nonnull align 8 dereferenceable(896) ptr @_ZN6duckdb8DBConfig9GetConfigERNS_13ClientContextE(ptr noundef nonnull align 8 dereferenceable(592) %context)
          to label %invoke.cont2 unwind label %lpad1

invoke.cont2:                                     ; preds = %invoke.cont
  %collation = getelementptr inbounds %"struct.duckdb::DBConfig", ptr %call, i64 0, i32 5, i32 13
  invoke void @_ZNSt7__cxx1112basic_stringIcSt11char_traitsIcESaIcEE9_M_assignERKS4_(ptr noundef nonnull align 8 dereferenceable(32) %collation, ptr noundef nonnull align 8 dereferenceable(32) %parameter)
          to label %invoke.cont3 unwind label %lpad1

invoke.cont3:                                     ; preds = %invoke.cont2
  %0 = load ptr, ptr %parameter, align 8, !tbaa !3
  %1 = getelementptr inbounds %"class.std::__cxx11::basic_string", ptr %parameter, i64 0, i32 2
  %cmp.i.i.i = icmp eq ptr %0, %1
  br i1 %cmp.i.i.i, label %_ZNKSt7__cxx1112basic_stringIcSt11char_traitsIcESaIcEE11_M_is_localEv.exit.thread.i.i, label %if.then.i.i

_ZNKSt7__cxx1112basic_stringIcSt11char_traitsIcESaIcEE11_M_is_localEv.exit.thread.i.i: ; preds = %invoke.cont3
  %_M_string_length.i.i.i = getelementptr inbounds %"class.std::__cxx11::basic_string", ptr %parameter, i64 0, i32 1
  %2 = load i64, ptr %_M_string_length.i.i.i, align 8, !tbaa !10
  %cmp3.i.i.i = icmp ult i64 %2, 16
  call void @llvm.assume(i1 %cmp3.i.i.i)
  br label %_ZNSt7__cxx1112basic_stringIcSt11char_traitsIcESaIcEED2Ev.exit

if.then.i.i:                                      ; preds = %invoke.cont3
  call void @_ZdlPv(ptr noundef %0) #24
  br label %_ZNSt7__cxx1112basic_stringIcSt11char_traitsIcESaIcEED2Ev.exit

_ZNSt7__cxx1112basic_stringIcSt11char_traitsIcESaIcEED2Ev.exit: ; preds = %if.then.i.i, %_ZNKSt7__cxx1112basic_stringIcSt11char_traitsIcESaIcEE11_M_is_localEv.exit.thread.i.i
  call void @llvm.lifetime.end.p0(i64 32, ptr nonnull %parameter) #22
  ret void

lpad:                                             ; preds = %entry
  %3 = landingpad { ptr, i32 }
          cleanup
  br label %ehcleanup

lpad1:                                            ; preds = %invoke.cont2, %invoke.cont
  %4 = landingpad { ptr, i32 }
          cleanup
  br label %ehcleanup

ehcleanup:                                        ; preds = %lpad1, %lpad
  %.pn = phi { ptr, i32 } [ %4, %lpad1 ], [ %3, %lpad ]
  %5 = load ptr, ptr %parameter, align 8, !tbaa !3
  %6 = getelementptr inbounds %"class.std::__cxx11::basic_string", ptr %parameter, i64 0, i32 2
  %cmp.i.i.i9 = icmp eq ptr %5, %6
  br i1 %cmp.i.i.i9, label %_ZNKSt7__cxx1112basic_stringIcSt11char_traitsIcESaIcEE11_M_is_localEv.exit.thread.i.i11, label %if.then.i.i10

_ZNKSt7__cxx1112basic_stringIcSt11char_traitsIcESaIcEE11_M_is_localEv.exit.thread.i.i11: ; preds = %ehcleanup
  %_M_string_length.i.i.i12 = getelementptr inbounds %"class.std::__cxx11::basic_string", ptr %parameter, i64 0, i32 1
  %7 = load i64, ptr %_M_string_length.i.i.i12, align 8, !tbaa !10
  %cmp3.i.i.i13 = icmp ult i64 %7, 16
  call void @llvm.assume(i1 %cmp3.i.i.i13)
  br label %_ZNSt7__cxx1112basic_stringIcSt11char_traitsIcESaIcEED2Ev.exit14

if.then.i.i10:                                    ; preds = %ehcleanup
  call void @_ZdlPv(ptr noundef %5) #24
  br label %_ZNSt7__cxx1112basic_stringIcSt11char_traitsIcESaIcEED2Ev.exit14

_ZNSt7__cxx1112basic_stringIcSt11char_traitsIcESaIcEED2Ev.exit14: ; preds = %if.then.i.i10, %_ZNKSt7__cxx1112basic_stringIcSt11char_traitsIcESaIcEE11_M_is_localEv.exit.thread.i.i11
  call void @llvm.lifetime.end.p0(i64 32, ptr nonnull %parameter) #22
  resume { ptr, i32 } %.pn
}

declare void @_ZN6duckdb16ExpressionBinder13TestCollationERNS_13ClientContextERKNSt7__cxx1112basic_stringIcSt11char_traitsIcESaIcEEE(ptr noundef nonnull align 8 dereferenceable(592), ptr noundef nonnull align 8 dereferenceable(32)) local_unnamed_addr #0

; Function Attrs: mustprogress uwtable
define void @_ZN6duckdb23DefaultCollationSetting10GetSettingERNS_13ClientContextE(ptr noalias sret(%"class.duckdb::Value") align 8 %agg.result, ptr noundef nonnull align 8 dereferenceable(592) %context) local_unnamed_addr #3 align 2 personality ptr @__gxx_personality_v0 {
entry:
  %__dnew.i.i = alloca i64, align 8
  %agg.tmp = alloca %"class.std::__cxx11::basic_string", align 8
  %call = tail call noundef nonnull align 8 dereferenceable(896) ptr @_ZN6duckdb8DBConfig9GetConfigERNS_13ClientContextE(ptr noundef nonnull align 8 dereferenceable(592) %context)
  %collation = getelementptr inbounds %"struct.duckdb::DBConfig", ptr %call, i64 0, i32 5, i32 13
  %0 = getelementptr inbounds %"class.std::__cxx11::basic_string", ptr %agg.tmp, i64 0, i32 2
  store ptr %0, ptr %agg.tmp, align 8, !tbaa !110
  %1 = load ptr, ptr %collation, align 8, !tbaa !3
  %_M_string_length.i.i = getelementptr inbounds %"struct.duckdb::DBConfig", ptr %call, i64 0, i32 5, i32 13, i32 1
  %2 = load i64, ptr %_M_string_length.i.i, align 8, !tbaa !10
  call void @llvm.lifetime.start.p0(i64 8, ptr nonnull %__dnew.i.i) #22
  store i64 %2, ptr %__dnew.i.i, align 8, !tbaa !111
  %cmp.i.i = icmp ugt i64 %2, 15
  br i1 %cmp.i.i, label %if.then.i.i, label %if.end.i.i

if.then.i.i:                                      ; preds = %entry
  %call2.i12.i = call noundef ptr @_ZNSt7__cxx1112basic_stringIcSt11char_traitsIcESaIcEE9_M_createERmm(ptr noundef nonnull align 8 dereferenceable(32) %agg.tmp, ptr noundef nonnull align 8 dereferenceable(8) %__dnew.i.i, i64 noundef 0)
  store ptr %call2.i12.i, ptr %agg.tmp, align 8, !tbaa !3
  %3 = load i64, ptr %__dnew.i.i, align 8, !tbaa !111
  store i64 %3, ptr %0, align 8, !tbaa !112
  br label %if.end.i.i

if.end.i.i:                                       ; preds = %if.then.i.i, %entry
  %4 = phi ptr [ %call2.i12.i, %if.then.i.i ], [ %0, %entry ]
  switch i64 %2, label %if.end.i.i.i.i.i [
    i64 1, label %if.then.i.i.i.i
    i64 0, label %_ZNSt7__cxx1112basic_stringIcSt11char_traitsIcESaIcEEC2ERKS4_.exit
  ]

if.then.i.i.i.i:                                  ; preds = %if.end.i.i
  %5 = load i8, ptr %1, align 1, !tbaa !112
  store i8 %5, ptr %4, align 1, !tbaa !112
  br label %_ZNSt7__cxx1112basic_stringIcSt11char_traitsIcESaIcEEC2ERKS4_.exit

if.end.i.i.i.i.i:                                 ; preds = %if.end.i.i
  call void @llvm.memcpy.p0.p0.i64(ptr align 1 %4, ptr align 1 %1, i64 %2, i1 false)
  br label %_ZNSt7__cxx1112basic_stringIcSt11char_traitsIcESaIcEEC2ERKS4_.exit

_ZNSt7__cxx1112basic_stringIcSt11char_traitsIcESaIcEEC2ERKS4_.exit: ; preds = %if.end.i.i.i.i.i, %if.then.i.i.i.i, %if.end.i.i
  %6 = load i64, ptr %__dnew.i.i, align 8, !tbaa !111
  %_M_string_length.i.i.i.i = getelementptr inbounds %"class.std::__cxx11::basic_string", ptr %agg.tmp, i64 0, i32 1
  store i64 %6, ptr %_M_string_length.i.i.i.i, align 8, !tbaa !10
  %7 = load ptr, ptr %agg.tmp, align 8, !tbaa !3
  %arrayidx.i.i.i = getelementptr inbounds i8, ptr %7, i64 %6
  store i8 0, ptr %arrayidx.i.i.i, align 1, !tbaa !112
  call void @llvm.lifetime.end.p0(i64 8, ptr nonnull %__dnew.i.i) #22
  invoke void @_ZN6duckdb5ValueC1ENSt7__cxx1112basic_stringIcSt11char_traitsIcESaIcEEE(ptr noundef nonnull align 8 dereferenceable(64) %agg.result, ptr noundef nonnull %agg.tmp)
          to label %invoke.cont unwind label %lpad

invoke.cont:                                      ; preds = %_ZNSt7__cxx1112basic_stringIcSt11char_traitsIcESaIcEEC2ERKS4_.exit
  %8 = load ptr, ptr %agg.tmp, align 8, !tbaa !3
  %cmp.i.i.i = icmp eq ptr %8, %0
  br i1 %cmp.i.i.i, label %_ZNKSt7__cxx1112basic_stringIcSt11char_traitsIcESaIcEE11_M_is_localEv.exit.thread.i.i, label %if.then.i.i2

_ZNKSt7__cxx1112basic_stringIcSt11char_traitsIcESaIcEE11_M_is_localEv.exit.thread.i.i: ; preds = %invoke.cont
  %9 = load i64, ptr %_M_string_length.i.i.i.i, align 8, !tbaa !10
  %cmp3.i.i.i = icmp ult i64 %9, 16
  call void @llvm.assume(i1 %cmp3.i.i.i)
  br label %_ZNSt7__cxx1112basic_stringIcSt11char_traitsIcESaIcEED2Ev.exit

if.then.i.i2:                                     ; preds = %invoke.cont
  call void @_ZdlPv(ptr noundef %8) #24
  br label %_ZNSt7__cxx1112basic_stringIcSt11char_traitsIcESaIcEED2Ev.exit

_ZNSt7__cxx1112basic_stringIcSt11char_traitsIcESaIcEED2Ev.exit: ; preds = %if.then.i.i2, %_ZNKSt7__cxx1112basic_stringIcSt11char_traitsIcESaIcEE11_M_is_localEv.exit.thread.i.i
  ret void

lpad:                                             ; preds = %_ZNSt7__cxx1112basic_stringIcSt11char_traitsIcESaIcEEC2ERKS4_.exit
  %10 = landingpad { ptr, i32 }
          cleanup
  %11 = load ptr, ptr %agg.tmp, align 8, !tbaa !3
  %cmp.i.i.i3 = icmp eq ptr %11, %0
  br i1 %cmp.i.i.i3, label %_ZNKSt7__cxx1112basic_stringIcSt11char_traitsIcESaIcEE11_M_is_localEv.exit.thread.i.i5, label %if.then.i.i4

_ZNKSt7__cxx1112basic_stringIcSt11char_traitsIcESaIcEE11_M_is_localEv.exit.thread.i.i5: ; preds = %lpad
  %12 = load i64, ptr %_M_string_length.i.i.i.i, align 8, !tbaa !10
  %cmp3.i.i.i7 = icmp ult i64 %12, 16
  call void @llvm.assume(i1 %cmp3.i.i.i7)
  br label %_ZNSt7__cxx1112basic_stringIcSt11char_traitsIcESaIcEED2Ev.exit8

if.then.i.i4:                                     ; preds = %lpad
  call void @_ZdlPv(ptr noundef %11) #24
  br label %_ZNSt7__cxx1112basic_stringIcSt11char_traitsIcESaIcEED2Ev.exit8

_ZNSt7__cxx1112basic_stringIcSt11char_traitsIcESaIcEED2Ev.exit8: ; preds = %if.then.i.i4, %_ZNKSt7__cxx1112basic_stringIcSt11char_traitsIcESaIcEE11_M_is_localEv.exit.thread.i.i5
  resume { ptr, i32 } %10
}

; Function Attrs: mustprogress uwtable
define void @_ZN6duckdb19DefaultOrderSetting9SetGlobalEPNS_16DatabaseInstanceERNS_8DBConfigERKNS_5ValueE(ptr nocapture noundef readnone %db, ptr nocapture noundef nonnull writeonly align 8 dereferenceable(896) %config, ptr noundef nonnull align 8 dereferenceable(64) %input) local_unnamed_addr #3 align 2 personality ptr @__gxx_personality_v0 {
entry:
  %parameter = alloca %"class.std::__cxx11::basic_string", align 8
  %ref.tmp = alloca %"class.std::__cxx11::basic_string", align 8
  %ref.tmp14 = alloca %"class.std::__cxx11::basic_string", align 8
  %ref.tmp15 = alloca %"class.std::allocator", align 1
  %agg.tmp = alloca %"class.std::__cxx11::basic_string", align 8
  call void @llvm.lifetime.start.p0(i64 32, ptr nonnull %parameter) #22
  call void @llvm.lifetime.start.p0(i64 32, ptr nonnull %ref.tmp) #22
  call void @_ZNK6duckdb5Value8ToStringB5cxx11Ev(ptr nonnull sret(%"class.std::__cxx11::basic_string") align 8 %ref.tmp, ptr noundef nonnull align 8 dereferenceable(64) %input)
  invoke void @_ZN6duckdb10StringUtil5LowerERKNSt7__cxx1112basic_stringIcSt11char_traitsIcESaIcEEE(ptr nonnull sret(%"class.std::__cxx11::basic_string") align 8 %parameter, ptr noundef nonnull align 8 dereferenceable(32) %ref.tmp)
          to label %invoke.cont unwind label %lpad

invoke.cont:                                      ; preds = %entry
  %0 = load ptr, ptr %ref.tmp, align 8, !tbaa !3
  %1 = getelementptr inbounds %"class.std::__cxx11::basic_string", ptr %ref.tmp, i64 0, i32 2
  %cmp.i.i.i = icmp eq ptr %0, %1
  br i1 %cmp.i.i.i, label %_ZNKSt7__cxx1112basic_stringIcSt11char_traitsIcESaIcEE11_M_is_localEv.exit.thread.i.i, label %if.then.i.i

_ZNKSt7__cxx1112basic_stringIcSt11char_traitsIcESaIcEE11_M_is_localEv.exit.thread.i.i: ; preds = %invoke.cont
  %_M_string_length.i.i.i = getelementptr inbounds %"class.std::__cxx11::basic_string", ptr %ref.tmp, i64 0, i32 1
  %2 = load i64, ptr %_M_string_length.i.i.i, align 8, !tbaa !10
  %cmp3.i.i.i = icmp ult i64 %2, 16
  call void @llvm.assume(i1 %cmp3.i.i.i)
  br label %_ZNSt7__cxx1112basic_stringIcSt11char_traitsIcESaIcEED2Ev.exit

if.then.i.i:                                      ; preds = %invoke.cont
  call void @_ZdlPv(ptr noundef %0) #24
  br label %_ZNSt7__cxx1112basic_stringIcSt11char_traitsIcESaIcEED2Ev.exit

_ZNSt7__cxx1112basic_stringIcSt11char_traitsIcESaIcEED2Ev.exit: ; preds = %if.then.i.i, %_ZNKSt7__cxx1112basic_stringIcSt11char_traitsIcESaIcEE11_M_is_localEv.exit.thread.i.i
  call void @llvm.lifetime.end.p0(i64 32, ptr nonnull %ref.tmp) #22
  %call.i = call noundef i32 @_ZNKSt7__cxx1112basic_stringIcSt11char_traitsIcESaIcEE7compareEPKc(ptr noundef nonnull align 8 dereferenceable(32) %parameter, ptr noundef nonnull @.str.17) #22
  %cmp.i = icmp eq i32 %call.i, 0
  br i1 %cmp.i, label %if.end26, label %lor.lhs.false

lor.lhs.false:                                    ; preds = %_ZNSt7__cxx1112basic_stringIcSt11char_traitsIcESaIcEED2Ev.exit
  %call.i34 = call noundef i32 @_ZNKSt7__cxx1112basic_stringIcSt11char_traitsIcESaIcEE7compareEPKc(ptr noundef nonnull align 8 dereferenceable(32) %parameter, ptr noundef nonnull @.str.18) #22
  %cmp.i35 = icmp eq i32 %call.i34, 0
  br i1 %cmp.i35, label %if.end26, label %if.else

lpad:                                             ; preds = %entry
  %3 = landingpad { ptr, i32 }
          cleanup
  %4 = load ptr, ptr %ref.tmp, align 8, !tbaa !3
  %5 = getelementptr inbounds %"class.std::__cxx11::basic_string", ptr %ref.tmp, i64 0, i32 2
  %cmp.i.i.i36 = icmp eq ptr %4, %5
  br i1 %cmp.i.i.i36, label %_ZNKSt7__cxx1112basic_stringIcSt11char_traitsIcESaIcEE11_M_is_localEv.exit.thread.i.i38, label %if.then.i.i37

_ZNKSt7__cxx1112basic_stringIcSt11char_traitsIcESaIcEE11_M_is_localEv.exit.thread.i.i38: ; preds = %lpad
  %_M_string_length.i.i.i39 = getelementptr inbounds %"class.std::__cxx11::basic_string", ptr %ref.tmp, i64 0, i32 1
  %6 = load i64, ptr %_M_string_length.i.i.i39, align 8, !tbaa !10
  %cmp3.i.i.i40 = icmp ult i64 %6, 16
  call void @llvm.assume(i1 %cmp3.i.i.i40)
  br label %_ZNSt7__cxx1112basic_stringIcSt11char_traitsIcESaIcEED2Ev.exit41

if.then.i.i37:                                    ; preds = %lpad
  call void @_ZdlPv(ptr noundef %4) #24
  br label %_ZNSt7__cxx1112basic_stringIcSt11char_traitsIcESaIcEED2Ev.exit41

_ZNSt7__cxx1112basic_stringIcSt11char_traitsIcESaIcEED2Ev.exit41: ; preds = %if.then.i.i37, %_ZNKSt7__cxx1112basic_stringIcSt11char_traitsIcESaIcEE11_M_is_localEv.exit.thread.i.i38
  call void @llvm.lifetime.end.p0(i64 32, ptr nonnull %ref.tmp) #22
  br label %ehcleanup28

if.else:                                          ; preds = %lor.lhs.false
  %call.i42 = call noundef i32 @_ZNKSt7__cxx1112basic_stringIcSt11char_traitsIcESaIcEE7compareEPKc(ptr noundef nonnull align 8 dereferenceable(32) %parameter, ptr noundef nonnull @.str.19) #22
  %cmp.i43 = icmp eq i32 %call.i42, 0
  br i1 %cmp.i43, label %if.end26, label %lor.lhs.false7

lor.lhs.false7:                                   ; preds = %if.else
  %call.i44 = call noundef i32 @_ZNKSt7__cxx1112basic_stringIcSt11char_traitsIcESaIcEE7compareEPKc(ptr noundef nonnull align 8 dereferenceable(32) %parameter, ptr noundef nonnull @.str.20) #22
  %cmp.i45 = icmp eq i32 %call.i44, 0
  br i1 %cmp.i45, label %if.end26, label %if.else13

if.else13:                                        ; preds = %lor.lhs.false7
  %exception = call ptr @__cxa_allocate_exception(i64 80) #22
  call void @llvm.lifetime.start.p0(i64 32, ptr nonnull %ref.tmp14) #22
  call void @llvm.lifetime.start.p0(i64 1, ptr nonnull %ref.tmp15) #22
  invoke void @_ZNSt7__cxx1112basic_stringIcSt11char_traitsIcESaIcEEC2EPKcRKS3_(ptr noundef nonnull align 8 dereferenceable(32) %ref.tmp14, ptr noundef nonnull @.str.21, ptr noundef nonnull align 1 dereferenceable(1) %ref.tmp15)
          to label %invoke.cont17 unwind label %ehcleanup22.thread

invoke.cont17:                                    ; preds = %if.else13
  invoke void @_ZNSt7__cxx1112basic_stringIcSt11char_traitsIcESaIcEEC2ERKS4_(ptr noundef nonnull align 8 dereferenceable(32) %agg.tmp, ptr noundef nonnull align 8 dereferenceable(32) %parameter)
          to label %invoke.cont19 unwind label %ehcleanup.thread

invoke.cont19:                                    ; preds = %invoke.cont17
  invoke void @_ZN6duckdb21InvalidInputExceptionC2IJNSt7__cxx1112basic_stringIcSt11char_traitsIcESaIcEEEEEERKS7_DpT_(ptr noundef nonnull align 8 dereferenceable(80) %exception, ptr noundef nonnull align 8 dereferenceable(32) %ref.tmp14, ptr noundef nonnull %agg.tmp)
          to label %invoke.cont21 unwind label %lpad20

invoke.cont21:                                    ; preds = %invoke.cont19
  invoke void @__cxa_throw(ptr nonnull %exception, ptr nonnull @_ZTIN6duckdb21InvalidInputExceptionE, ptr nonnull @_ZN6duckdb9ExceptionD2Ev) #23
          to label %unreachable unwind label %lpad20

ehcleanup22.thread:                               ; preds = %if.else13
  %7 = landingpad { ptr, i32 }
          cleanup
  call void @llvm.lifetime.end.p0(i64 1, ptr nonnull %ref.tmp15) #22
  call void @llvm.lifetime.end.p0(i64 32, ptr nonnull %ref.tmp14) #22
  br label %cleanup.action

lpad20:                                           ; preds = %invoke.cont21, %invoke.cont19
  %cleanup.isactive.0 = phi i1 [ false, %invoke.cont21 ], [ true, %invoke.cont19 ]
  %8 = landingpad { ptr, i32 }
          cleanup
  %9 = load ptr, ptr %agg.tmp, align 8, !tbaa !3
  %10 = getelementptr inbounds %"class.std::__cxx11::basic_string", ptr %agg.tmp, i64 0, i32 2
  %cmp.i.i.i46 = icmp eq ptr %9, %10
  br i1 %cmp.i.i.i46, label %_ZNKSt7__cxx1112basic_stringIcSt11char_traitsIcESaIcEE11_M_is_localEv.exit.thread.i.i48, label %if.then.i.i47

_ZNKSt7__cxx1112basic_stringIcSt11char_traitsIcESaIcEE11_M_is_localEv.exit.thread.i.i48: ; preds = %lpad20
  %_M_string_length.i.i.i49 = getelementptr inbounds %"class.std::__cxx11::basic_string", ptr %agg.tmp, i64 0, i32 1
  %11 = load i64, ptr %_M_string_length.i.i.i49, align 8, !tbaa !10
  %cmp3.i.i.i50 = icmp ult i64 %11, 16
  call void @llvm.assume(i1 %cmp3.i.i.i50)
  br label %ehcleanup

if.then.i.i47:                                    ; preds = %lpad20
  call void @_ZdlPv(ptr noundef %9) #24
  br label %ehcleanup

ehcleanup:                                        ; preds = %if.then.i.i47, %_ZNKSt7__cxx1112basic_stringIcSt11char_traitsIcESaIcEE11_M_is_localEv.exit.thread.i.i48
  %12 = load ptr, ptr %ref.tmp14, align 8, !tbaa !3
  %13 = getelementptr inbounds %"class.std::__cxx11::basic_string", ptr %ref.tmp14, i64 0, i32 2
  %cmp.i.i.i52 = icmp eq ptr %12, %13
  br i1 %cmp.i.i.i52, label %_ZNKSt7__cxx1112basic_stringIcSt11char_traitsIcESaIcEE11_M_is_localEv.exit.thread.i.i54, label %ehcleanup22

ehcleanup.thread:                                 ; preds = %invoke.cont17
  %14 = landingpad { ptr, i32 }
          cleanup
  %15 = load ptr, ptr %ref.tmp14, align 8, !tbaa !3
  %16 = getelementptr inbounds %"class.std::__cxx11::basic_string", ptr %ref.tmp14, i64 0, i32 2
  %cmp.i.i.i5276 = icmp eq ptr %15, %16
  br i1 %cmp.i.i.i5276, label %_ZNKSt7__cxx1112basic_stringIcSt11char_traitsIcESaIcEE11_M_is_localEv.exit.thread.i.i54.thread, label %ehcleanup22.thread81

_ZNKSt7__cxx1112basic_stringIcSt11char_traitsIcESaIcEE11_M_is_localEv.exit.thread.i.i54.thread: ; preds = %ehcleanup.thread
  %_M_string_length.i.i.i5586 = getelementptr inbounds %"class.std::__cxx11::basic_string", ptr %ref.tmp14, i64 0, i32 1
  %17 = load i64, ptr %_M_string_length.i.i.i5586, align 8, !tbaa !10
  %cmp3.i.i.i5687 = icmp ult i64 %17, 16
  call void @llvm.assume(i1 %cmp3.i.i.i5687)
  call void @llvm.lifetime.end.p0(i64 1, ptr nonnull %ref.tmp15) #22
  call void @llvm.lifetime.end.p0(i64 32, ptr nonnull %ref.tmp14) #22
  br label %cleanup.action

ehcleanup22.thread81:                             ; preds = %ehcleanup.thread
  call void @_ZdlPv(ptr noundef %15) #24
  call void @llvm.lifetime.end.p0(i64 1, ptr nonnull %ref.tmp15) #22
  call void @llvm.lifetime.end.p0(i64 32, ptr nonnull %ref.tmp14) #22
  br label %cleanup.action

_ZNKSt7__cxx1112basic_stringIcSt11char_traitsIcESaIcEE11_M_is_localEv.exit.thread.i.i54: ; preds = %ehcleanup
  %_M_string_length.i.i.i55 = getelementptr inbounds %"class.std::__cxx11::basic_string", ptr %ref.tmp14, i64 0, i32 1
  %18 = load i64, ptr %_M_string_length.i.i.i55, align 8, !tbaa !10
  %cmp3.i.i.i56 = icmp ult i64 %18, 16
  call void @llvm.assume(i1 %cmp3.i.i.i56)
  call void @llvm.lifetime.end.p0(i64 1, ptr nonnull %ref.tmp15) #22
  call void @llvm.lifetime.end.p0(i64 32, ptr nonnull %ref.tmp14) #22
  br i1 %cleanup.isactive.0, label %cleanup.action, label %ehcleanup27

ehcleanup22:                                      ; preds = %ehcleanup
  call void @_ZdlPv(ptr noundef %12) #24
  call void @llvm.lifetime.end.p0(i64 1, ptr nonnull %ref.tmp15) #22
  call void @llvm.lifetime.end.p0(i64 32, ptr nonnull %ref.tmp14) #22
  br i1 %cleanup.isactive.0, label %cleanup.action, label %ehcleanup27

cleanup.action:                                   ; preds = %ehcleanup22, %_ZNKSt7__cxx1112basic_stringIcSt11char_traitsIcESaIcEE11_M_is_localEv.exit.thread.i.i54, %ehcleanup22.thread81, %_ZNKSt7__cxx1112basic_stringIcSt11char_traitsIcESaIcEE11_M_is_localEv.exit.thread.i.i54.thread, %ehcleanup22.thread
  %.pn.pn73 = phi { ptr, i32 } [ %7, %ehcleanup22.thread ], [ %8, %ehcleanup22 ], [ %8, %_ZNKSt7__cxx1112basic_stringIcSt11char_traitsIcESaIcEE11_M_is_localEv.exit.thread.i.i54 ], [ %14, %ehcleanup22.thread81 ], [ %14, %_ZNKSt7__cxx1112basic_stringIcSt11char_traitsIcESaIcEE11_M_is_localEv.exit.thread.i.i54.thread ]
  call void @__cxa_free_exception(ptr %exception) #22
  br label %ehcleanup27

if.end26:                                         ; preds = %lor.lhs.false7, %if.else, %lor.lhs.false, %_ZNSt7__cxx1112basic_stringIcSt11char_traitsIcESaIcEED2Ev.exit
  %.sink = phi i8 [ 2, %lor.lhs.false ], [ 2, %_ZNSt7__cxx1112basic_stringIcSt11char_traitsIcESaIcEED2Ev.exit ], [ 3, %lor.lhs.false7 ], [ 3, %if.else ]
  %default_order_type12 = getelementptr inbounds %"struct.duckdb::DBConfig", ptr %config, i64 0, i32 5, i32 14
  store i8 %.sink, ptr %default_order_type12, align 8, !tbaa !155
  %19 = load ptr, ptr %parameter, align 8, !tbaa !3
  %20 = getelementptr inbounds %"class.std::__cxx11::basic_string", ptr %parameter, i64 0, i32 2
  %cmp.i.i.i58 = icmp eq ptr %19, %20
  br i1 %cmp.i.i.i58, label %_ZNKSt7__cxx1112basic_stringIcSt11char_traitsIcESaIcEE11_M_is_localEv.exit.thread.i.i60, label %if.then.i.i59

_ZNKSt7__cxx1112basic_stringIcSt11char_traitsIcESaIcEE11_M_is_localEv.exit.thread.i.i60: ; preds = %if.end26
  %_M_string_length.i.i.i61 = getelementptr inbounds %"class.std::__cxx11::basic_string", ptr %parameter, i64 0, i32 1
  %21 = load i64, ptr %_M_string_length.i.i.i61, align 8, !tbaa !10
  %cmp3.i.i.i62 = icmp ult i64 %21, 16
  call void @llvm.assume(i1 %cmp3.i.i.i62)
  br label %_ZNSt7__cxx1112basic_stringIcSt11char_traitsIcESaIcEED2Ev.exit63

if.then.i.i59:                                    ; preds = %if.end26
  call void @_ZdlPv(ptr noundef %19) #24
  br label %_ZNSt7__cxx1112basic_stringIcSt11char_traitsIcESaIcEED2Ev.exit63

_ZNSt7__cxx1112basic_stringIcSt11char_traitsIcESaIcEED2Ev.exit63: ; preds = %if.then.i.i59, %_ZNKSt7__cxx1112basic_stringIcSt11char_traitsIcESaIcEE11_M_is_localEv.exit.thread.i.i60
  call void @llvm.lifetime.end.p0(i64 32, ptr nonnull %parameter) #22
  ret void

ehcleanup27:                                      ; preds = %cleanup.action, %ehcleanup22, %_ZNKSt7__cxx1112basic_stringIcSt11char_traitsIcESaIcEE11_M_is_localEv.exit.thread.i.i54
  %.pn.pn72 = phi { ptr, i32 } [ %8, %ehcleanup22 ], [ %.pn.pn73, %cleanup.action ], [ %8, %_ZNKSt7__cxx1112basic_stringIcSt11char_traitsIcESaIcEE11_M_is_localEv.exit.thread.i.i54 ]
  %22 = load ptr, ptr %parameter, align 8, !tbaa !3
  %23 = getelementptr inbounds %"class.std::__cxx11::basic_string", ptr %parameter, i64 0, i32 2
  %cmp.i.i.i64 = icmp eq ptr %22, %23
  br i1 %cmp.i.i.i64, label %_ZNKSt7__cxx1112basic_stringIcSt11char_traitsIcESaIcEE11_M_is_localEv.exit.thread.i.i66, label %if.then.i.i65

_ZNKSt7__cxx1112basic_stringIcSt11char_traitsIcESaIcEE11_M_is_localEv.exit.thread.i.i66: ; preds = %ehcleanup27
  %_M_string_length.i.i.i67 = getelementptr inbounds %"class.std::__cxx11::basic_string", ptr %parameter, i64 0, i32 1
  %24 = load i64, ptr %_M_string_length.i.i.i67, align 8, !tbaa !10
  %cmp3.i.i.i68 = icmp ult i64 %24, 16
  call void @llvm.assume(i1 %cmp3.i.i.i68)
  br label %ehcleanup28

if.then.i.i65:                                    ; preds = %ehcleanup27
  call void @_ZdlPv(ptr noundef %22) #24
  br label %ehcleanup28

ehcleanup28:                                      ; preds = %if.then.i.i65, %_ZNKSt7__cxx1112basic_stringIcSt11char_traitsIcESaIcEE11_M_is_localEv.exit.thread.i.i66, %_ZNSt7__cxx1112basic_stringIcSt11char_traitsIcESaIcEED2Ev.exit41
  %.pn.pn.pn = phi { ptr, i32 } [ %3, %_ZNSt7__cxx1112basic_stringIcSt11char_traitsIcESaIcEED2Ev.exit41 ], [ %.pn.pn72, %_ZNKSt7__cxx1112basic_stringIcSt11char_traitsIcESaIcEE11_M_is_localEv.exit.thread.i.i66 ], [ %.pn.pn72, %if.then.i.i65 ]
  call void @llvm.lifetime.end.p0(i64 32, ptr nonnull %parameter) #22
  resume { ptr, i32 } %.pn.pn.pn

unreachable:                                      ; preds = %invoke.cont21
  unreachable
}

; Function Attrs: mustprogress uwtable
define void @_ZN6duckdb19DefaultOrderSetting11ResetGlobalEPNS_16DatabaseInstanceERNS_8DBConfigE(ptr nocapture noundef readnone %db, ptr nocapture noundef nonnull writeonly align 8 dereferenceable(896) %config) local_unnamed_addr #3 align 2 {
entry:
  %ref.tmp = alloca %"struct.duckdb::DBConfig", align 8
  call void @llvm.lifetime.start.p0(i64 896, ptr nonnull %ref.tmp) #22
  call void @_ZN6duckdb8DBConfigC1Ev(ptr noundef nonnull align 8 dereferenceable(896) %ref.tmp)
  %default_order_type = getelementptr inbounds %"struct.duckdb::DBConfig", ptr %ref.tmp, i64 0, i32 5, i32 14
  %0 = load i8, ptr %default_order_type, align 8, !tbaa !155
  %default_order_type2 = getelementptr inbounds %"struct.duckdb::DBConfig", ptr %config, i64 0, i32 5, i32 14
  store i8 %0, ptr %default_order_type2, align 8, !tbaa !155
  call void @_ZN6duckdb8DBConfigD1Ev(ptr noundef nonnull align 8 dereferenceable(896) %ref.tmp) #22
  call void @llvm.lifetime.end.p0(i64 896, ptr nonnull %ref.tmp) #22
  ret void
}

; Function Attrs: mustprogress uwtable
define void @_ZN6duckdb19DefaultOrderSetting10GetSettingERNS_13ClientContextE(ptr noalias sret(%"class.duckdb::Value") align 8 %agg.result, ptr noundef nonnull align 8 dereferenceable(592) %context) local_unnamed_addr #3 align 2 personality ptr @__gxx_personality_v0 {
entry:
  %ref.tmp = alloca %"class.std::__cxx11::basic_string", align 8
  %ref.tmp2 = alloca %"class.std::allocator", align 1
  %call = tail call noundef nonnull align 8 dereferenceable(896) ptr @_ZN6duckdb8DBConfig9GetConfigERNS_13ClientContextE(ptr noundef nonnull align 8 dereferenceable(592) %context)
  %default_order_type = getelementptr inbounds %"struct.duckdb::DBConfig", ptr %call, i64 0, i32 5, i32 14
  %0 = load i8, ptr %default_order_type, align 8, !tbaa !155
  switch i8 %0, label %sw.default [
    i8 2, label %cleanup
    i8 3, label %sw.bb1
  ]

sw.bb1:                                           ; preds = %entry
  br label %cleanup

sw.default:                                       ; preds = %entry
  %exception = tail call ptr @__cxa_allocate_exception(i64 80) #22
  call void @llvm.lifetime.start.p0(i64 32, ptr nonnull %ref.tmp) #22
  call void @llvm.lifetime.start.p0(i64 1, ptr nonnull %ref.tmp2) #22
  invoke void @_ZNSt7__cxx1112basic_stringIcSt11char_traitsIcESaIcEEC2EPKcRKS3_(ptr noundef nonnull align 8 dereferenceable(32) %ref.tmp, ptr noundef nonnull @.str.22, ptr noundef nonnull align 1 dereferenceable(1) %ref.tmp2)
          to label %invoke.cont unwind label %ehcleanup.thread

invoke.cont:                                      ; preds = %sw.default
  invoke void @_ZN6duckdb17InternalExceptionC1ERKNSt7__cxx1112basic_stringIcSt11char_traitsIcESaIcEEE(ptr noundef nonnull align 8 dereferenceable(80) %exception, ptr noundef nonnull align 8 dereferenceable(32) %ref.tmp)
          to label %invoke.cont4 unwind label %lpad3

invoke.cont4:                                     ; preds = %invoke.cont
  invoke void @__cxa_throw(ptr nonnull %exception, ptr nonnull @_ZTIN6duckdb17InternalExceptionE, ptr nonnull @_ZN6duckdb9ExceptionD2Ev) #23
          to label %unreachable unwind label %lpad3

ehcleanup.thread:                                 ; preds = %sw.default
  %1 = landingpad { ptr, i32 }
          cleanup
  call void @llvm.lifetime.end.p0(i64 1, ptr nonnull %ref.tmp2) #22
  call void @llvm.lifetime.end.p0(i64 32, ptr nonnull %ref.tmp) #22
  br label %cleanup.action

lpad3:                                            ; preds = %invoke.cont4, %invoke.cont
  %cleanup.isactive.0 = phi i1 [ false, %invoke.cont4 ], [ true, %invoke.cont ]
  %2 = landingpad { ptr, i32 }
          cleanup
  %3 = load ptr, ptr %ref.tmp, align 8, !tbaa !3
  %4 = getelementptr inbounds %"class.std::__cxx11::basic_string", ptr %ref.tmp, i64 0, i32 2
  %cmp.i.i.i = icmp eq ptr %3, %4
  br i1 %cmp.i.i.i, label %_ZNKSt7__cxx1112basic_stringIcSt11char_traitsIcESaIcEE11_M_is_localEv.exit.thread.i.i, label %ehcleanup

_ZNKSt7__cxx1112basic_stringIcSt11char_traitsIcESaIcEE11_M_is_localEv.exit.thread.i.i: ; preds = %lpad3
  %_M_string_length.i.i.i = getelementptr inbounds %"class.std::__cxx11::basic_string", ptr %ref.tmp, i64 0, i32 1
  %5 = load i64, ptr %_M_string_length.i.i.i, align 8, !tbaa !10
  %cmp3.i.i.i = icmp ult i64 %5, 16
  call void @llvm.assume(i1 %cmp3.i.i.i)
  call void @llvm.lifetime.end.p0(i64 1, ptr nonnull %ref.tmp2) #22
  call void @llvm.lifetime.end.p0(i64 32, ptr nonnull %ref.tmp) #22
  br i1 %cleanup.isactive.0, label %cleanup.action, label %cleanup.done

ehcleanup:                                        ; preds = %lpad3
  call void @_ZdlPv(ptr noundef %3) #24
  call void @llvm.lifetime.end.p0(i64 1, ptr nonnull %ref.tmp2) #22
  call void @llvm.lifetime.end.p0(i64 32, ptr nonnull %ref.tmp) #22
  br i1 %cleanup.isactive.0, label %cleanup.action, label %cleanup.done

cleanup.action:                                   ; preds = %ehcleanup, %_ZNKSt7__cxx1112basic_stringIcSt11char_traitsIcESaIcEE11_M_is_localEv.exit.thread.i.i, %ehcleanup.thread
  %.pn14 = phi { ptr, i32 } [ %1, %ehcleanup.thread ], [ %2, %ehcleanup ], [ %2, %_ZNKSt7__cxx1112basic_stringIcSt11char_traitsIcESaIcEE11_M_is_localEv.exit.thread.i.i ]
  call void @__cxa_free_exception(ptr %exception) #22
  br label %cleanup.done

cleanup.done:                                     ; preds = %cleanup.action, %ehcleanup, %_ZNKSt7__cxx1112basic_stringIcSt11char_traitsIcESaIcEE11_M_is_localEv.exit.thread.i.i
  %.pn13 = phi { ptr, i32 } [ %.pn14, %cleanup.action ], [ %2, %ehcleanup ], [ %2, %_ZNKSt7__cxx1112basic_stringIcSt11char_traitsIcESaIcEE11_M_is_localEv.exit.thread.i.i ]
  resume { ptr, i32 } %.pn13

cleanup:                                          ; preds = %sw.bb1, %entry
  %.str.20.sink = phi ptr [ @.str.20, %sw.bb1 ], [ @.str.18, %entry ]
  tail call void @_ZN6duckdb5ValueC1EPKc(ptr noundef nonnull align 8 dereferenceable(64) %agg.result, ptr noundef nonnull %.str.20.sink)
  ret void

unreachable:                                      ; preds = %invoke.cont4
  unreachable
}

; Function Attrs: mustprogress uwtable
define void @_ZN6duckdb23DefaultNullOrderSetting9SetGlobalEPNS_16DatabaseInstanceERNS_8DBConfigERKNS_5ValueE(ptr nocapture noundef readnone %db, ptr nocapture noundef nonnull writeonly align 8 dereferenceable(896) %config, ptr noundef nonnull align 8 dereferenceable(64) %input) local_unnamed_addr #3 align 2 personality ptr @__gxx_personality_v0 {
entry:
  %parameter = alloca %"class.std::__cxx11::basic_string", align 8
  %ref.tmp = alloca %"class.std::__cxx11::basic_string", align 8
  %ref.tmp47 = alloca %"class.std::__cxx11::basic_string", align 8
  %ref.tmp48 = alloca %"class.std::allocator", align 1
  %agg.tmp = alloca %"class.std::__cxx11::basic_string", align 8
  call void @llvm.lifetime.start.p0(i64 32, ptr nonnull %parameter) #22
  call void @llvm.lifetime.start.p0(i64 32, ptr nonnull %ref.tmp) #22
  call void @_ZNK6duckdb5Value8ToStringB5cxx11Ev(ptr nonnull sret(%"class.std::__cxx11::basic_string") align 8 %ref.tmp, ptr noundef nonnull align 8 dereferenceable(64) %input)
  invoke void @_ZN6duckdb10StringUtil5LowerERKNSt7__cxx1112basic_stringIcSt11char_traitsIcESaIcEEE(ptr nonnull sret(%"class.std::__cxx11::basic_string") align 8 %parameter, ptr noundef nonnull align 8 dereferenceable(32) %ref.tmp)
          to label %invoke.cont unwind label %lpad

invoke.cont:                                      ; preds = %entry
  %0 = load ptr, ptr %ref.tmp, align 8, !tbaa !3
  %1 = getelementptr inbounds %"class.std::__cxx11::basic_string", ptr %ref.tmp, i64 0, i32 2
  %cmp.i.i.i = icmp eq ptr %0, %1
  br i1 %cmp.i.i.i, label %_ZNKSt7__cxx1112basic_stringIcSt11char_traitsIcESaIcEE11_M_is_localEv.exit.thread.i.i, label %if.then.i.i

_ZNKSt7__cxx1112basic_stringIcSt11char_traitsIcESaIcEE11_M_is_localEv.exit.thread.i.i: ; preds = %invoke.cont
  %_M_string_length.i.i.i = getelementptr inbounds %"class.std::__cxx11::basic_string", ptr %ref.tmp, i64 0, i32 1
  %2 = load i64, ptr %_M_string_length.i.i.i, align 8, !tbaa !10
  %cmp3.i.i.i = icmp ult i64 %2, 16
  call void @llvm.assume(i1 %cmp3.i.i.i)
  br label %_ZNSt7__cxx1112basic_stringIcSt11char_traitsIcESaIcEED2Ev.exit

if.then.i.i:                                      ; preds = %invoke.cont
  call void @_ZdlPv(ptr noundef %0) #24
  br label %_ZNSt7__cxx1112basic_stringIcSt11char_traitsIcESaIcEED2Ev.exit

_ZNSt7__cxx1112basic_stringIcSt11char_traitsIcESaIcEED2Ev.exit: ; preds = %if.then.i.i, %_ZNKSt7__cxx1112basic_stringIcSt11char_traitsIcESaIcEE11_M_is_localEv.exit.thread.i.i
  call void @llvm.lifetime.end.p0(i64 32, ptr nonnull %ref.tmp) #22
  %call.i = call noundef i32 @_ZNKSt7__cxx1112basic_stringIcSt11char_traitsIcESaIcEE7compareEPKc(ptr noundef nonnull align 8 dereferenceable(32) %parameter, ptr noundef nonnull @.str.23) #22
  %cmp.i = icmp eq i32 %call.i, 0
  br i1 %cmp.i, label %if.end61, label %lor.lhs.false

lor.lhs.false:                                    ; preds = %_ZNSt7__cxx1112basic_stringIcSt11char_traitsIcESaIcEED2Ev.exit
  %call.i71 = call noundef i32 @_ZNKSt7__cxx1112basic_stringIcSt11char_traitsIcESaIcEE7compareEPKc(ptr noundef nonnull align 8 dereferenceable(32) %parameter, ptr noundef nonnull @.str.24) #22
  %cmp.i72 = icmp eq i32 %call.i71, 0
  br i1 %cmp.i72, label %if.end61, label %lor.lhs.false5

lor.lhs.false5:                                   ; preds = %lor.lhs.false
  %call.i73 = call noundef i32 @_ZNKSt7__cxx1112basic_stringIcSt11char_traitsIcESaIcEE7compareEPKc(ptr noundef nonnull align 8 dereferenceable(32) %parameter, ptr noundef nonnull @.str.25) #22
  %cmp.i74 = icmp eq i32 %call.i73, 0
  br i1 %cmp.i74, label %if.end61, label %lor.lhs.false8

lor.lhs.false8:                                   ; preds = %lor.lhs.false5
  %call.i75 = call noundef i32 @_ZNKSt7__cxx1112basic_stringIcSt11char_traitsIcESaIcEE7compareEPKc(ptr noundef nonnull align 8 dereferenceable(32) %parameter, ptr noundef nonnull @.str.26) #22
  %cmp.i76 = icmp eq i32 %call.i75, 0
  br i1 %cmp.i76, label %if.end61, label %if.else

lpad:                                             ; preds = %entry
  %3 = landingpad { ptr, i32 }
          cleanup
  %4 = load ptr, ptr %ref.tmp, align 8, !tbaa !3
  %5 = getelementptr inbounds %"class.std::__cxx11::basic_string", ptr %ref.tmp, i64 0, i32 2
  %cmp.i.i.i77 = icmp eq ptr %4, %5
  br i1 %cmp.i.i.i77, label %_ZNKSt7__cxx1112basic_stringIcSt11char_traitsIcESaIcEE11_M_is_localEv.exit.thread.i.i79, label %if.then.i.i78

_ZNKSt7__cxx1112basic_stringIcSt11char_traitsIcESaIcEE11_M_is_localEv.exit.thread.i.i79: ; preds = %lpad
  %_M_string_length.i.i.i80 = getelementptr inbounds %"class.std::__cxx11::basic_string", ptr %ref.tmp, i64 0, i32 1
  %6 = load i64, ptr %_M_string_length.i.i.i80, align 8, !tbaa !10
  %cmp3.i.i.i81 = icmp ult i64 %6, 16
  call void @llvm.assume(i1 %cmp3.i.i.i81)
  br label %_ZNSt7__cxx1112basic_stringIcSt11char_traitsIcESaIcEED2Ev.exit82

if.then.i.i78:                                    ; preds = %lpad
  call void @_ZdlPv(ptr noundef %4) #24
  br label %_ZNSt7__cxx1112basic_stringIcSt11char_traitsIcESaIcEED2Ev.exit82

_ZNSt7__cxx1112basic_stringIcSt11char_traitsIcESaIcEED2Ev.exit82: ; preds = %if.then.i.i78, %_ZNKSt7__cxx1112basic_stringIcSt11char_traitsIcESaIcEE11_M_is_localEv.exit.thread.i.i79
  call void @llvm.lifetime.end.p0(i64 32, ptr nonnull %ref.tmp) #22
  br label %ehcleanup63

if.else:                                          ; preds = %lor.lhs.false8
  %call.i83 = call noundef i32 @_ZNKSt7__cxx1112basic_stringIcSt11char_traitsIcESaIcEE7compareEPKc(ptr noundef nonnull align 8 dereferenceable(32) %parameter, ptr noundef nonnull @.str.27) #22
  %cmp.i84 = icmp eq i32 %call.i83, 0
  br i1 %cmp.i84, label %if.end61, label %lor.lhs.false13

lor.lhs.false13:                                  ; preds = %if.else
  %call.i85 = call noundef i32 @_ZNKSt7__cxx1112basic_stringIcSt11char_traitsIcESaIcEE7compareEPKc(ptr noundef nonnull align 8 dereferenceable(32) %parameter, ptr noundef nonnull @.str.28) #22
  %cmp.i86 = icmp eq i32 %call.i85, 0
  br i1 %cmp.i86, label %if.end61, label %lor.lhs.false16

lor.lhs.false16:                                  ; preds = %lor.lhs.false13
  %call.i87 = call noundef i32 @_ZNKSt7__cxx1112basic_stringIcSt11char_traitsIcESaIcEE7compareEPKc(ptr noundef nonnull align 8 dereferenceable(32) %parameter, ptr noundef nonnull @.str.29) #22
  %cmp.i88 = icmp eq i32 %call.i87, 0
  br i1 %cmp.i88, label %if.end61, label %lor.lhs.false19

lor.lhs.false19:                                  ; preds = %lor.lhs.false16
  %call.i89 = call noundef i32 @_ZNKSt7__cxx1112basic_stringIcSt11char_traitsIcESaIcEE7compareEPKc(ptr noundef nonnull align 8 dereferenceable(32) %parameter, ptr noundef nonnull @.str.30) #22
  %cmp.i90 = icmp eq i32 %call.i89, 0
  br i1 %cmp.i90, label %if.end61, label %if.else25

if.else25:                                        ; preds = %lor.lhs.false19
  %call.i91 = call noundef i32 @_ZNKSt7__cxx1112basic_stringIcSt11char_traitsIcESaIcEE7compareEPKc(ptr noundef nonnull align 8 dereferenceable(32) %parameter, ptr noundef nonnull @.str.31) #22
  %cmp.i92 = icmp eq i32 %call.i91, 0
  br i1 %cmp.i92, label %if.end61, label %lor.lhs.false28

lor.lhs.false28:                                  ; preds = %if.else25
  %call.i93 = call noundef i32 @_ZNKSt7__cxx1112basic_stringIcSt11char_traitsIcESaIcEE7compareEPKc(ptr noundef nonnull align 8 dereferenceable(32) %parameter, ptr noundef nonnull @.str.32) #22
  %cmp.i94 = icmp eq i32 %call.i93, 0
  br i1 %cmp.i94, label %if.end61, label %lor.lhs.false31

lor.lhs.false31:                                  ; preds = %lor.lhs.false28
  %call.i95 = call noundef i32 @_ZNKSt7__cxx1112basic_stringIcSt11char_traitsIcESaIcEE7compareEPKc(ptr noundef nonnull align 8 dereferenceable(32) %parameter, ptr noundef nonnull @.str.33) #22
  %cmp.i96 = icmp eq i32 %call.i95, 0
  br i1 %cmp.i96, label %if.end61, label %if.else37

if.else37:                                        ; preds = %lor.lhs.false31
  %call.i97 = call noundef i32 @_ZNKSt7__cxx1112basic_stringIcSt11char_traitsIcESaIcEE7compareEPKc(ptr noundef nonnull align 8 dereferenceable(32) %parameter, ptr noundef nonnull @.str.34) #22
  %cmp.i98 = icmp eq i32 %call.i97, 0
  br i1 %cmp.i98, label %if.end61, label %lor.lhs.false40

lor.lhs.false40:                                  ; preds = %if.else37
  %call.i99 = call noundef i32 @_ZNKSt7__cxx1112basic_stringIcSt11char_traitsIcESaIcEE7compareEPKc(ptr noundef nonnull align 8 dereferenceable(32) %parameter, ptr noundef nonnull @.str.35) #22
  %cmp.i100 = icmp eq i32 %call.i99, 0
  br i1 %cmp.i100, label %if.end61, label %if.else46

if.else46:                                        ; preds = %lor.lhs.false40
  %exception = call ptr @__cxa_allocate_exception(i64 80) #22
  call void @llvm.lifetime.start.p0(i64 32, ptr nonnull %ref.tmp47) #22
  call void @llvm.lifetime.start.p0(i64 1, ptr nonnull %ref.tmp48) #22
  invoke void @_ZNSt7__cxx1112basic_stringIcSt11char_traitsIcESaIcEEC2EPKcRKS3_(ptr noundef nonnull align 8 dereferenceable(32) %ref.tmp47, ptr noundef nonnull @.str.36, ptr noundef nonnull align 1 dereferenceable(1) %ref.tmp48)
          to label %invoke.cont50 unwind label %ehcleanup55.thread

invoke.cont50:                                    ; preds = %if.else46
  invoke void @_ZNSt7__cxx1112basic_stringIcSt11char_traitsIcESaIcEEC2ERKS4_(ptr noundef nonnull align 8 dereferenceable(32) %agg.tmp, ptr noundef nonnull align 8 dereferenceable(32) %parameter)
          to label %invoke.cont52 unwind label %ehcleanup.thread

invoke.cont52:                                    ; preds = %invoke.cont50
  invoke void @_ZN6duckdb15ParserExceptionC2IJNSt7__cxx1112basic_stringIcSt11char_traitsIcESaIcEEEEEERKS7_DpT_(ptr noundef nonnull align 8 dereferenceable(80) %exception, ptr noundef nonnull align 8 dereferenceable(32) %ref.tmp47, ptr noundef nonnull %agg.tmp)
          to label %invoke.cont54 unwind label %lpad53

invoke.cont54:                                    ; preds = %invoke.cont52
  invoke void @__cxa_throw(ptr nonnull %exception, ptr nonnull @_ZTIN6duckdb15ParserExceptionE, ptr nonnull @_ZN6duckdb9ExceptionD2Ev) #23
          to label %unreachable unwind label %lpad53

ehcleanup55.thread:                               ; preds = %if.else46
  %7 = landingpad { ptr, i32 }
          cleanup
  call void @llvm.lifetime.end.p0(i64 1, ptr nonnull %ref.tmp48) #22
  call void @llvm.lifetime.end.p0(i64 32, ptr nonnull %ref.tmp47) #22
  br label %cleanup.action

lpad53:                                           ; preds = %invoke.cont54, %invoke.cont52
  %cleanup.isactive.0 = phi i1 [ false, %invoke.cont54 ], [ true, %invoke.cont52 ]
  %8 = landingpad { ptr, i32 }
          cleanup
  %9 = load ptr, ptr %agg.tmp, align 8, !tbaa !3
  %10 = getelementptr inbounds %"class.std::__cxx11::basic_string", ptr %agg.tmp, i64 0, i32 2
  %cmp.i.i.i101 = icmp eq ptr %9, %10
  br i1 %cmp.i.i.i101, label %_ZNKSt7__cxx1112basic_stringIcSt11char_traitsIcESaIcEE11_M_is_localEv.exit.thread.i.i103, label %if.then.i.i102

_ZNKSt7__cxx1112basic_stringIcSt11char_traitsIcESaIcEE11_M_is_localEv.exit.thread.i.i103: ; preds = %lpad53
  %_M_string_length.i.i.i104 = getelementptr inbounds %"class.std::__cxx11::basic_string", ptr %agg.tmp, i64 0, i32 1
  %11 = load i64, ptr %_M_string_length.i.i.i104, align 8, !tbaa !10
  %cmp3.i.i.i105 = icmp ult i64 %11, 16
  call void @llvm.assume(i1 %cmp3.i.i.i105)
  br label %ehcleanup

if.then.i.i102:                                   ; preds = %lpad53
  call void @_ZdlPv(ptr noundef %9) #24
  br label %ehcleanup

ehcleanup:                                        ; preds = %if.then.i.i102, %_ZNKSt7__cxx1112basic_stringIcSt11char_traitsIcESaIcEE11_M_is_localEv.exit.thread.i.i103
  %12 = load ptr, ptr %ref.tmp47, align 8, !tbaa !3
  %13 = getelementptr inbounds %"class.std::__cxx11::basic_string", ptr %ref.tmp47, i64 0, i32 2
  %cmp.i.i.i107 = icmp eq ptr %12, %13
  br i1 %cmp.i.i.i107, label %_ZNKSt7__cxx1112basic_stringIcSt11char_traitsIcESaIcEE11_M_is_localEv.exit.thread.i.i109, label %ehcleanup55

ehcleanup.thread:                                 ; preds = %invoke.cont50
  %14 = landingpad { ptr, i32 }
          cleanup
  %15 = load ptr, ptr %ref.tmp47, align 8, !tbaa !3
  %16 = getelementptr inbounds %"class.std::__cxx11::basic_string", ptr %ref.tmp47, i64 0, i32 2
  %cmp.i.i.i107131 = icmp eq ptr %15, %16
  br i1 %cmp.i.i.i107131, label %_ZNKSt7__cxx1112basic_stringIcSt11char_traitsIcESaIcEE11_M_is_localEv.exit.thread.i.i109.thread, label %ehcleanup55.thread136

_ZNKSt7__cxx1112basic_stringIcSt11char_traitsIcESaIcEE11_M_is_localEv.exit.thread.i.i109.thread: ; preds = %ehcleanup.thread
  %_M_string_length.i.i.i110141 = getelementptr inbounds %"class.std::__cxx11::basic_string", ptr %ref.tmp47, i64 0, i32 1
  %17 = load i64, ptr %_M_string_length.i.i.i110141, align 8, !tbaa !10
  %cmp3.i.i.i111142 = icmp ult i64 %17, 16
  call void @llvm.assume(i1 %cmp3.i.i.i111142)
  call void @llvm.lifetime.end.p0(i64 1, ptr nonnull %ref.tmp48) #22
  call void @llvm.lifetime.end.p0(i64 32, ptr nonnull %ref.tmp47) #22
  br label %cleanup.action

ehcleanup55.thread136:                            ; preds = %ehcleanup.thread
  call void @_ZdlPv(ptr noundef %15) #24
  call void @llvm.lifetime.end.p0(i64 1, ptr nonnull %ref.tmp48) #22
  call void @llvm.lifetime.end.p0(i64 32, ptr nonnull %ref.tmp47) #22
  br label %cleanup.action

_ZNKSt7__cxx1112basic_stringIcSt11char_traitsIcESaIcEE11_M_is_localEv.exit.thread.i.i109: ; preds = %ehcleanup
  %_M_string_length.i.i.i110 = getelementptr inbounds %"class.std::__cxx11::basic_string", ptr %ref.tmp47, i64 0, i32 1
  %18 = load i64, ptr %_M_string_length.i.i.i110, align 8, !tbaa !10
  %cmp3.i.i.i111 = icmp ult i64 %18, 16
  call void @llvm.assume(i1 %cmp3.i.i.i111)
  call void @llvm.lifetime.end.p0(i64 1, ptr nonnull %ref.tmp48) #22
  call void @llvm.lifetime.end.p0(i64 32, ptr nonnull %ref.tmp47) #22
  br i1 %cleanup.isactive.0, label %cleanup.action, label %ehcleanup62

ehcleanup55:                                      ; preds = %ehcleanup
  call void @_ZdlPv(ptr noundef %12) #24
  call void @llvm.lifetime.end.p0(i64 1, ptr nonnull %ref.tmp48) #22
  call void @llvm.lifetime.end.p0(i64 32, ptr nonnull %ref.tmp47) #22
  br i1 %cleanup.isactive.0, label %cleanup.action, label %ehcleanup62

cleanup.action:                                   ; preds = %ehcleanup55, %_ZNKSt7__cxx1112basic_stringIcSt11char_traitsIcESaIcEE11_M_is_localEv.exit.thread.i.i109, %ehcleanup55.thread136, %_ZNKSt7__cxx1112basic_stringIcSt11char_traitsIcESaIcEE11_M_is_localEv.exit.thread.i.i109.thread, %ehcleanup55.thread
  %.pn.pn128 = phi { ptr, i32 } [ %7, %ehcleanup55.thread ], [ %8, %ehcleanup55 ], [ %8, %_ZNKSt7__cxx1112basic_stringIcSt11char_traitsIcESaIcEE11_M_is_localEv.exit.thread.i.i109 ], [ %14, %ehcleanup55.thread136 ], [ %14, %_ZNKSt7__cxx1112basic_stringIcSt11char_traitsIcESaIcEE11_M_is_localEv.exit.thread.i.i109.thread ]
  call void @__cxa_free_exception(ptr %exception) #22
  br label %ehcleanup62

if.end61:                                         ; preds = %lor.lhs.false40, %if.else37, %lor.lhs.false31, %lor.lhs.false28, %if.else25, %lor.lhs.false19, %lor.lhs.false16, %lor.lhs.false13, %if.else, %lor.lhs.false8, %lor.lhs.false5, %lor.lhs.false, %_ZNSt7__cxx1112basic_stringIcSt11char_traitsIcESaIcEED2Ev.exit
  %.sink = phi i8 [ 2, %lor.lhs.false8 ], [ 2, %lor.lhs.false5 ], [ 2, %lor.lhs.false ], [ 2, %_ZNSt7__cxx1112basic_stringIcSt11char_traitsIcESaIcEED2Ev.exit ], [ 3, %lor.lhs.false19 ], [ 3, %lor.lhs.false16 ], [ 3, %lor.lhs.false13 ], [ 3, %if.else ], [ 4, %lor.lhs.false31 ], [ 4, %lor.lhs.false28 ], [ 4, %if.else25 ], [ 5, %lor.lhs.false40 ], [ 5, %if.else37 ]
  %default_null_order24 = getelementptr inbounds %"struct.duckdb::DBConfig", ptr %config, i64 0, i32 5, i32 15
  store i8 %.sink, ptr %default_null_order24, align 1, !tbaa !156
  %19 = load ptr, ptr %parameter, align 8, !tbaa !3
  %20 = getelementptr inbounds %"class.std::__cxx11::basic_string", ptr %parameter, i64 0, i32 2
  %cmp.i.i.i113 = icmp eq ptr %19, %20
  br i1 %cmp.i.i.i113, label %_ZNKSt7__cxx1112basic_stringIcSt11char_traitsIcESaIcEE11_M_is_localEv.exit.thread.i.i115, label %if.then.i.i114

_ZNKSt7__cxx1112basic_stringIcSt11char_traitsIcESaIcEE11_M_is_localEv.exit.thread.i.i115: ; preds = %if.end61
  %_M_string_length.i.i.i116 = getelementptr inbounds %"class.std::__cxx11::basic_string", ptr %parameter, i64 0, i32 1
  %21 = load i64, ptr %_M_string_length.i.i.i116, align 8, !tbaa !10
  %cmp3.i.i.i117 = icmp ult i64 %21, 16
  call void @llvm.assume(i1 %cmp3.i.i.i117)
  br label %_ZNSt7__cxx1112basic_stringIcSt11char_traitsIcESaIcEED2Ev.exit118

if.then.i.i114:                                   ; preds = %if.end61
  call void @_ZdlPv(ptr noundef %19) #24
  br label %_ZNSt7__cxx1112basic_stringIcSt11char_traitsIcESaIcEED2Ev.exit118

_ZNSt7__cxx1112basic_stringIcSt11char_traitsIcESaIcEED2Ev.exit118: ; preds = %if.then.i.i114, %_ZNKSt7__cxx1112basic_stringIcSt11char_traitsIcESaIcEE11_M_is_localEv.exit.thread.i.i115
  call void @llvm.lifetime.end.p0(i64 32, ptr nonnull %parameter) #22
  ret void

ehcleanup62:                                      ; preds = %cleanup.action, %ehcleanup55, %_ZNKSt7__cxx1112basic_stringIcSt11char_traitsIcESaIcEE11_M_is_localEv.exit.thread.i.i109
  %.pn.pn127 = phi { ptr, i32 } [ %8, %ehcleanup55 ], [ %.pn.pn128, %cleanup.action ], [ %8, %_ZNKSt7__cxx1112basic_stringIcSt11char_traitsIcESaIcEE11_M_is_localEv.exit.thread.i.i109 ]
  %22 = load ptr, ptr %parameter, align 8, !tbaa !3
  %23 = getelementptr inbounds %"class.std::__cxx11::basic_string", ptr %parameter, i64 0, i32 2
  %cmp.i.i.i119 = icmp eq ptr %22, %23
  br i1 %cmp.i.i.i119, label %_ZNKSt7__cxx1112basic_stringIcSt11char_traitsIcESaIcEE11_M_is_localEv.exit.thread.i.i121, label %if.then.i.i120

_ZNKSt7__cxx1112basic_stringIcSt11char_traitsIcESaIcEE11_M_is_localEv.exit.thread.i.i121: ; preds = %ehcleanup62
  %_M_string_length.i.i.i122 = getelementptr inbounds %"class.std::__cxx11::basic_string", ptr %parameter, i64 0, i32 1
  %24 = load i64, ptr %_M_string_length.i.i.i122, align 8, !tbaa !10
  %cmp3.i.i.i123 = icmp ult i64 %24, 16
  call void @llvm.assume(i1 %cmp3.i.i.i123)
  br label %ehcleanup63

if.then.i.i120:                                   ; preds = %ehcleanup62
