; ModuleID = 'bench/entt/original/adjacency_matrix.cpp.ll'
source_filename = "bench/entt/original/adjacency_matrix.cpp.ll"
target datalayout = "e-m:e-p270:32:32-p271:32:32-p272:64:64-i64:64-i128:128-f80:128-n8:16:32:64-S128"
target triple = "x86_64-unknown-linux-gnu"

%"class.std::ios_base::Init" = type { i8 }
%"class.std::basic_ostream" = type { ptr, %"class.std::basic_ios" }
%"class.std::basic_ios" = type { %"class.std::ios_base", ptr, i8, i8, ptr, ptr, ptr, ptr }
%"class.std::ios_base" = type { ptr, i64, i64, i32, i32, i32, ptr, %"struct.std::ios_base::_Words", [8 x %"struct.std::ios_base::_Words"], i32, ptr, %"class.std::locale" }
%"struct.std::ios_base::_Words" = type { ptr, i64 }
%"class.std::locale" = type { ptr }
%"struct.entt::type_info" = type { i32, i32, %"class.std::basic_string_view" }
%"class.std::basic_string_view" = type { i64, ptr }
%"class.testing::internal::GTestLog" = type { i32 }
%"class.testing::AssertionResult" = type { i8, %"class.std::unique_ptr" }
%"class.std::unique_ptr" = type { %"struct.std::__uniq_ptr_data" }
%"struct.std::__uniq_ptr_data" = type { %"class.std::__uniq_ptr_impl" }
%"class.std::__uniq_ptr_impl" = type { %"class.std::tuple" }
%"class.std::tuple" = type { %"struct.std::_Tuple_impl" }
%"struct.std::_Tuple_impl" = type { %"struct.std::_Head_base.4" }
%"struct.std::_Head_base.4" = type { ptr }
%"class.testing::Message" = type { %"class.std::unique_ptr.5" }
%"class.std::unique_ptr.5" = type { %"struct.std::__uniq_ptr_data.6" }
%"struct.std::__uniq_ptr_data.6" = type { %"class.std::__uniq_ptr_impl.7" }
%"class.std::__uniq_ptr_impl.7" = type { %"class.std::tuple.8" }
%"class.std::tuple.8" = type { %"struct.std::_Tuple_impl.9" }
%"struct.std::_Tuple_impl.9" = type { %"struct.std::_Head_base.12" }
%"struct.std::_Head_base.12" = type { ptr }
%"class.testing::internal::AssertHelper" = type { ptr }
%"class.std::__cxx11::basic_string" = type { %"struct.std::__cxx11::basic_string<char>::_Alloc_hider", i64, %union.anon }
%"struct.std::__cxx11::basic_string<char>::_Alloc_hider" = type { ptr }
%union.anon = type { i64, [8 x i8] }
%"struct.std::pair" = type <{ %"class.entt::internal::edge_iterator", i8, [7 x i8] }>
%"class.entt::internal::edge_iterator" = type { %"class.__gnu_cxx::__normal_iterator", i64, i64, i64, i64 }
%"class.__gnu_cxx::__normal_iterator" = type { ptr }
%"struct.std::pair.21" = type { i64, i64 }
%"class.entt::iota_iterator" = type { i64 }
%"struct.entt::input_iterator_pointer" = type { %"struct.std::pair.21" }
%"class.entt::adjacency_matrix.45" = type { %"class.std::vector.46", i64 }
%"class.std::vector.46" = type { %"struct.std::_Vector_base.47" }
%"struct.std::_Vector_base.47" = type { %"struct.std::_Vector_base<unsigned long, test::throwing_allocator<unsigned long>>::_Vector_impl" }
%"struct.std::_Vector_base<unsigned long, test::throwing_allocator<unsigned long>>::_Vector_impl" = type { %"class.test::throwing_allocator", %"struct.std::_Vector_base<unsigned long, test::throwing_allocator<unsigned long>>::_Vector_impl_data" }
%"class.test::throwing_allocator" = type { %"class.std::allocator.0", %"class.std::shared_ptr" }
%"class.std::allocator.0" = type { i8 }
%"class.std::shared_ptr" = type { %"class.std::__shared_ptr" }
%"class.std::__shared_ptr" = type { ptr, %"class.std::__shared_count" }
%"class.std::__shared_count" = type { ptr }
%"struct.std::_Vector_base<unsigned long, test::throwing_allocator<unsigned long>>::_Vector_impl_data" = type { ptr, ptr, ptr }
%"struct.testing::internal::TrueWithString" = type { %"class.std::__cxx11::basic_string" }
%"class.std::_Sp_counted_base" = type { ptr, i32, i32 }
%"class.std::_Sp_counted_ptr_inplace" = type { %"class.std::_Sp_counted_base", %"class.std::_Sp_counted_ptr_inplace<entt::dense_map<unsigned int, unsigned long>, std::allocator<unsigned long>, __gnu_cxx::_S_atomic>::_Impl" }
%"class.std::_Sp_counted_ptr_inplace<entt::dense_map<unsigned int, unsigned long>, std::allocator<unsigned long>, __gnu_cxx::_S_atomic>::_Impl" = type { %"struct.__gnu_cxx::__aligned_buffer" }
%"struct.__gnu_cxx::__aligned_buffer" = type { %"union.std::aligned_storage<56, 8>::type" }
%"union.std::aligned_storage<56, 8>::type" = type { [56 x i8] }
%"struct.entt::internal::dense_map_node" = type { i64, %"struct.std::pair.82" }
%"struct.std::pair.82" = type { i32, i64 }
%"class.std::type_info" = type { ptr, ptr }
%"class.std::__cxx11::basic_stringstream" = type { %"class.std::basic_iostream.base", %"class.std::__cxx11::basic_stringbuf", %"class.std::basic_ios" }
%"class.std::basic_iostream.base" = type { %"class.std::basic_istream.base", %"class.std::basic_ostream.base" }
%"class.std::basic_istream.base" = type { ptr, i64 }
%"class.std::basic_ostream.base" = type { ptr }
%"class.std::__cxx11::basic_stringbuf" = type { %"class.std::basic_streambuf", i32, %"class.std::__cxx11::basic_string" }
%"class.std::basic_streambuf" = type { ptr, ptr, ptr, ptr, ptr, ptr, ptr, %"class.std::locale" }
%"class.std::basic_istream" = type { ptr, i64, %"class.std::basic_ios" }
%"class.entt::dense_map" = type <{ %"class.entt::compressed_pair", %"class.entt::compressed_pair.71", float, [4 x i8] }>
%"class.entt::compressed_pair" = type { %"struct.entt::internal::compressed_pair_element" }
%"struct.entt::internal::compressed_pair_element" = type { %"class.std::vector" }
%"class.std::vector" = type { %"struct.std::_Vector_base" }
%"struct.std::_Vector_base" = type { %"struct.std::_Vector_base<unsigned long, std::allocator<unsigned long>>::_Vector_impl" }
%"struct.std::_Vector_base<unsigned long, std::allocator<unsigned long>>::_Vector_impl" = type { %"struct.std::_Vector_base<unsigned long, std::allocator<unsigned long>>::_Vector_impl_data" }
%"struct.std::_Vector_base<unsigned long, std::allocator<unsigned long>>::_Vector_impl_data" = type { ptr, ptr, ptr }
%"class.entt::compressed_pair.71" = type { %"struct.entt::internal::compressed_pair_element.72" }
%"struct.entt::internal::compressed_pair_element.72" = type { %"class.std::vector.73" }
%"class.std::vector.73" = type { %"struct.std::_Vector_base.74" }
%"struct.std::_Vector_base.74" = type { %"struct.std::_Vector_base<entt::internal::dense_map_node<unsigned int, unsigned long>, std::allocator<entt::internal::dense_map_node<unsigned int, unsigned long>>>::_Vector_impl" }
%"struct.std::_Vector_base<entt::internal::dense_map_node<unsigned int, unsigned long>, std::allocator<entt::internal::dense_map_node<unsigned int, unsigned long>>>::_Vector_impl" = type { %"struct.std::_Vector_base<entt::internal::dense_map_node<unsigned int, unsigned long>, std::allocator<entt::internal::dense_map_node<unsigned int, unsigned long>>>::_Vector_impl_data" }
%"struct.std::_Vector_base<entt::internal::dense_map_node<unsigned int, unsigned long>, std::allocator<entt::internal::dense_map_node<unsigned int, unsigned long>>>::_Vector_impl_data" = type { ptr, ptr, ptr }
%"struct.testing::internal::CodeLocation" = type <{ %"class.std::__cxx11::basic_string", i32, [4 x i8] }>

$_ZN7testing8internal16SuiteApiResolverINS_4TestEE19GetSetUpCaseOrSuiteEPKci = comdat any

$_ZN7testing8internal16SuiteApiResolverINS_4TestEE22GetTearDownCaseOrSuiteEPKci = comdat any

$_ZN7testing15AssertionResultD2Ev = comdat any

$_ZN4entt16adjacency_matrixINS_12directed_tagEN4test18throwing_allocatorImEEE6resizeEm = comdat any

$__clang_call_terminate = comdat any

$_ZN7testing8internal11GetTypeNameB5cxx11ERKSt9type_info = comdat any

$_ZN4entt16adjacency_matrixINS_12directed_tagEN4test18throwing_allocatorImEEED2Ev = comdat any

$_ZN27AdjacencyMatrix_Resize_TestD0Ev = comdat any

$_ZN7testing4Test5SetupEv = comdat any

$_ZN33AdjacencyMatrix_Constructors_TestD0Ev = comdat any

$_ZN25AdjacencyMatrix_Copy_TestD0Ev = comdat any

$_ZN25AdjacencyMatrix_Move_TestD0Ev = comdat any

$_ZN25AdjacencyMatrix_Swap_TestD0Ev = comdat any

$_ZN35AdjacencyMatrix_InsertDirected_TestD0Ev = comdat any

$_ZN37AdjacencyMatrix_InsertUndirected_TestD0Ev = comdat any

$_ZN34AdjacencyMatrix_EraseDirected_TestD0Ev = comdat any

$_ZN36AdjacencyMatrix_EraseUndirected_TestD0Ev = comdat any

$_ZN26AdjacencyMatrix_Clear_TestD0Ev = comdat any

$_ZN35AdjacencyMatrix_VertexIterator_TestD0Ev = comdat any

$_ZN33AdjacencyMatrix_EdgeIterator_TestD0Ev = comdat any

$_ZN29AdjacencyMatrix_Vertices_TestD0Ev = comdat any

$_ZN34AdjacencyMatrix_EdgesDirected_TestD0Ev = comdat any

$_ZN46AdjacencyMatrix_EdgesBackwardOnlyDirected_TestD0Ev = comdat any

$_ZN36AdjacencyMatrix_EdgesUndirected_TestD0Ev = comdat any

$_ZN48AdjacencyMatrix_EdgesBackwardOnlyUndirected_TestD0Ev = comdat any

$_ZN37AdjacencyMatrix_OutEdgesDirected_TestD0Ev = comdat any

$_ZN49AdjacencyMatrix_OutEdgesBackwardOnlyDirected_TestD0Ev = comdat any

$_ZN39AdjacencyMatrix_OutEdgesUndirected_TestD0Ev = comdat any

$_ZN51AdjacencyMatrix_OutEdgesBackwardOnlyUndirected_TestD0Ev = comdat any

$_ZN36AdjacencyMatrix_InEdgesDirected_TestD0Ev = comdat any

$_ZN48AdjacencyMatrix_InEdgesBackwardOnlyDirected_TestD0Ev = comdat any

$_ZN38AdjacencyMatrix_InEdgesUndirected_TestD0Ev = comdat any

$_ZN50AdjacencyMatrix_InEdgesBackwardOnlyUndirected_TestD0Ev = comdat any

$_ZN38AdjacencyMatrix_ThrowingAllocator_TestD0Ev = comdat any

$_ZN7testing8internal15TestFactoryImplI27AdjacencyMatrix_Resize_TestED0Ev = comdat any

$_ZN7testing8internal15TestFactoryImplI27AdjacencyMatrix_Resize_TestE10CreateTestEv = comdat any

$_ZN7testing8internal15TestFactoryImplI33AdjacencyMatrix_Constructors_TestED0Ev = comdat any

$_ZN7testing8internal15TestFactoryImplI33AdjacencyMatrix_Constructors_TestE10CreateTestEv = comdat any

$_ZN7testing8internal15TestFactoryImplI25AdjacencyMatrix_Copy_TestED0Ev = comdat any

$_ZN7testing8internal15TestFactoryImplI25AdjacencyMatrix_Copy_TestE10CreateTestEv = comdat any

$_ZN7testing8internal15TestFactoryImplI25AdjacencyMatrix_Move_TestED0Ev = comdat any

$_ZN7testing8internal15TestFactoryImplI25AdjacencyMatrix_Move_TestE10CreateTestEv = comdat any

$_ZN7testing8internal15TestFactoryImplI25AdjacencyMatrix_Swap_TestED0Ev = comdat any

$_ZN7testing8internal15TestFactoryImplI25AdjacencyMatrix_Swap_TestE10CreateTestEv = comdat any

$_ZN7testing8internal15TestFactoryImplI35AdjacencyMatrix_InsertDirected_TestED0Ev = comdat any

$_ZN7testing8internal15TestFactoryImplI35AdjacencyMatrix_InsertDirected_TestE10CreateTestEv = comdat any

$_ZN7testing8internal15TestFactoryImplI37AdjacencyMatrix_InsertUndirected_TestED0Ev = comdat any

$_ZN7testing8internal15TestFactoryImplI37AdjacencyMatrix_InsertUndirected_TestE10CreateTestEv = comdat any

$_ZN7testing8internal15TestFactoryImplI34AdjacencyMatrix_EraseDirected_TestED0Ev = comdat any

$_ZN7testing8internal15TestFactoryImplI34AdjacencyMatrix_EraseDirected_TestE10CreateTestEv = comdat any

$_ZN7testing8internal15TestFactoryImplI36AdjacencyMatrix_EraseUndirected_TestED0Ev = comdat any

$_ZN7testing8internal15TestFactoryImplI36AdjacencyMatrix_EraseUndirected_TestE10CreateTestEv = comdat any

$_ZN7testing8internal15TestFactoryImplI26AdjacencyMatrix_Clear_TestED0Ev = comdat any

$_ZN7testing8internal15TestFactoryImplI26AdjacencyMatrix_Clear_TestE10CreateTestEv = comdat any

$_ZN7testing8internal15TestFactoryImplI35AdjacencyMatrix_VertexIterator_TestED0Ev = comdat any

$_ZN7testing8internal15TestFactoryImplI35AdjacencyMatrix_VertexIterator_TestE10CreateTestEv = comdat any

$_ZN7testing8internal15TestFactoryImplI33AdjacencyMatrix_EdgeIterator_TestED0Ev = comdat any

$_ZN7testing8internal15TestFactoryImplI33AdjacencyMatrix_EdgeIterator_TestE10CreateTestEv = comdat any

$_ZN7testing8internal15TestFactoryImplI29AdjacencyMatrix_Vertices_TestED0Ev = comdat any

$_ZN7testing8internal15TestFactoryImplI29AdjacencyMatrix_Vertices_TestE10CreateTestEv = comdat any

$_ZN7testing8internal15TestFactoryImplI34AdjacencyMatrix_EdgesDirected_TestED0Ev = comdat any

$_ZN7testing8internal15TestFactoryImplI34AdjacencyMatrix_EdgesDirected_TestE10CreateTestEv = comdat any

$_ZN7testing8internal15TestFactoryImplI46AdjacencyMatrix_EdgesBackwardOnlyDirected_TestED0Ev = comdat any

$_ZN7testing8internal15TestFactoryImplI46AdjacencyMatrix_EdgesBackwardOnlyDirected_TestE10CreateTestEv = comdat any

$_ZN7testing8internal15TestFactoryImplI36AdjacencyMatrix_EdgesUndirected_TestED0Ev = comdat any

$_ZN7testing8internal15TestFactoryImplI36AdjacencyMatrix_EdgesUndirected_TestE10CreateTestEv = comdat any

$_ZN7testing8internal15TestFactoryImplI48AdjacencyMatrix_EdgesBackwardOnlyUndirected_TestED0Ev = comdat any

$_ZN7testing8internal15TestFactoryImplI48AdjacencyMatrix_EdgesBackwardOnlyUndirected_TestE10CreateTestEv = comdat any

$_ZN7testing8internal15TestFactoryImplI37AdjacencyMatrix_OutEdgesDirected_TestED0Ev = comdat any

$_ZN7testing8internal15TestFactoryImplI37AdjacencyMatrix_OutEdgesDirected_TestE10CreateTestEv = comdat any

$_ZN7testing8internal15TestFactoryImplI49AdjacencyMatrix_OutEdgesBackwardOnlyDirected_TestED0Ev = comdat any

$_ZN7testing8internal15TestFactoryImplI49AdjacencyMatrix_OutEdgesBackwardOnlyDirected_TestE10CreateTestEv = comdat any

$_ZN7testing8internal15TestFactoryImplI39AdjacencyMatrix_OutEdgesUndirected_TestED0Ev = comdat any

$_ZN7testing8internal15TestFactoryImplI39AdjacencyMatrix_OutEdgesUndirected_TestE10CreateTestEv = comdat any

$_ZN7testing8internal15TestFactoryImplI51AdjacencyMatrix_OutEdgesBackwardOnlyUndirected_TestED0Ev = comdat any

$_ZN7testing8internal15TestFactoryImplI51AdjacencyMatrix_OutEdgesBackwardOnlyUndirected_TestE10CreateTestEv = comdat any

$_ZN7testing8internal15TestFactoryImplI36AdjacencyMatrix_InEdgesDirected_TestED0Ev = comdat any

$_ZN7testing8internal15TestFactoryImplI36AdjacencyMatrix_InEdgesDirected_TestE10CreateTestEv = comdat any

$_ZN7testing8internal15TestFactoryImplI48AdjacencyMatrix_InEdgesBackwardOnlyDirected_TestED0Ev = comdat any

$_ZN7testing8internal15TestFactoryImplI48AdjacencyMatrix_InEdgesBackwardOnlyDirected_TestE10CreateTestEv = comdat any

$_ZN7testing8internal15TestFactoryImplI38AdjacencyMatrix_InEdgesUndirected_TestED0Ev = comdat any

$_ZN7testing8internal15TestFactoryImplI38AdjacencyMatrix_InEdgesUndirected_TestE10CreateTestEv = comdat any

$_ZN7testing8internal15TestFactoryImplI50AdjacencyMatrix_InEdgesBackwardOnlyUndirected_TestED0Ev = comdat any

$_ZN7testing8internal15TestFactoryImplI50AdjacencyMatrix_InEdgesBackwardOnlyUndirected_TestE10CreateTestEv = comdat any

$_ZN7testing8internal15TestFactoryBaseD2Ev = comdat any

$_ZN7testing8internal15TestFactoryImplI38AdjacencyMatrix_ThrowingAllocator_TestED0Ev = comdat any

$_ZN7testing8internal15TestFactoryImplI38AdjacencyMatrix_ThrowingAllocator_TestE10CreateTestEv = comdat any

$_ZNSt16_Sp_counted_baseILN9__gnu_cxx12_Lock_policyE2EE24_M_release_last_use_coldEv = comdat any

$_ZN4test18throwing_allocatorImED2Ev = comdat any

$_ZN7testing8internal18CmpHelperEQFailureImjEENS_15AssertionResultEPKcS4_RKT_RKT0_ = comdat any

$_ZN7testing13PrintToStringImEENSt7__cxx1112basic_stringIcSt11char_traitsIcESaIcEEERKT_ = comdat any

$_ZN7testing13PrintToStringIjEENSt7__cxx1112basic_stringIcSt11char_traitsIcESaIcEEERKT_ = comdat any

$_ZN7testing8internal18CmpHelperOpFailureIN4entt8internal13edge_iteratorIN9__gnu_cxx17__normal_iteratorIPKmSt6vectorImSaImEEEEEESD_EENS_15AssertionResultEPKcSG_RKT_RKT0_SG_ = comdat any

$_ZN7testing15AssertionResult13AppendMessageERKNS_7MessageE = comdat any

$_ZN7testing13PrintToStringIN4entt8internal13edge_iteratorIN9__gnu_cxx17__normal_iteratorIPKmSt6vectorImSaImEEEEEEEENSt7__cxx1112basic_stringIcSt11char_traitsIcESaIcEEERKT_ = comdat any

$_ZN7testing8internal18CmpHelperEQFailureIN4entt8internal13edge_iteratorIN9__gnu_cxx17__normal_iteratorIPKmSt6vectorImSaImEEEEEESD_EENS_15AssertionResultEPKcSG_RKT_RKT0_ = comdat any

$_ZN7testing8internal18CmpHelperEQFailureISt4pairImmES3_EENS_15AssertionResultEPKcS6_RKT_RKT0_ = comdat any

$_ZN7testing13PrintToStringISt4pairImmEEENSt7__cxx1112basic_stringIcSt11char_traitsIcESaIcEEERKT_ = comdat any

$_ZN7testing8internal7PrintToImmEEvRKSt4pairIT_T0_EPSo = comdat any

$_ZN7testing8internal18CmpHelperEQFailureIN4entt13iota_iteratorImEES4_EENS_15AssertionResultEPKcS7_RKT_RKT0_ = comdat any

$_ZN7testing13PrintToStringIN4entt13iota_iteratorImEEEENSt7__cxx1112basic_stringIcSt11char_traitsIcESaIcEEERKT_ = comdat any

$_ZN7testing8internal18CmpHelperOpFailureIN4entt13iota_iteratorImEES4_EENS_15AssertionResultEPKcS7_RKT_RKT0_S7_ = comdat any

$_ZNSt23_Sp_counted_ptr_inplaceIN4entt9dense_mapIjmSt4hashIjESt8equal_toIjESaISt4pairIKjmEEEESaImELN9__gnu_cxx12_Lock_policyE2EED2Ev = comdat any

$_ZNSt23_Sp_counted_ptr_inplaceIN4entt9dense_mapIjmSt4hashIjESt8equal_toIjESaISt4pairIKjmEEEESaImELN9__gnu_cxx12_Lock_policyE2EED0Ev = comdat any

$_ZNSt23_Sp_counted_ptr_inplaceIN4entt9dense_mapIjmSt4hashIjESt8equal_toIjESaISt4pairIKjmEEEESaImELN9__gnu_cxx12_Lock_policyE2EE10_M_disposeEv = comdat any

$_ZNSt23_Sp_counted_ptr_inplaceIN4entt9dense_mapIjmSt4hashIjESt8equal_toIjESaISt4pairIKjmEEEESaImELN9__gnu_cxx12_Lock_policyE2EE10_M_destroyEv = comdat any

$_ZNSt23_Sp_counted_ptr_inplaceIN4entt9dense_mapIjmSt4hashIjESt8equal_toIjESaISt4pairIKjmEEEESaImELN9__gnu_cxx12_Lock_policyE2EE14_M_get_deleterERKSt9type_info = comdat any

$_ZN4entt9dense_mapIjmSt4hashIjESt8equal_toIjESaISt4pairIKjmEEE6rehashEm = comdat any

$_ZNSt6vectorImSaImEE17_M_default_appendEm = comdat any

$_ZNSt6vectorImN4test18throwing_allocatorImEEEC2EmRKS2_ = comdat any

$_ZN4test18throwing_allocatorImE8allocateEm = comdat any

$_ZN4entt9dense_mapIjmSt4hashIjESt8equal_toIjESaISt4pairIKjmEEE5eraseERS6_ = comdat any

$_ZN4entt9type_infoC2ImEESt15in_place_type_tIT_E = comdat any

$_ZN4entt9dense_mapIjmSt4hashIjESt8equal_toIjESaISt4pairIKjmEEE20insert_or_do_nothingIRS6_JEEEDaOT_DpOT0_ = comdat any

$_ZN4entt9dense_mapIjmSt4hashIjESt8equal_toIjESaISt4pairIKjmEEE20insert_or_do_nothingIjJEEEDaOT_DpOT0_ = comdat any

$_ZN9__gnu_cxx14__alloc_traitsIN4test18throwing_allocatorImEEmE10_S_on_swapERS3_S5_ = comdat any

$_ZTSN4test28throwing_allocator_exceptionE = comdat any

$_ZTIN4test28throwing_allocator_exceptionE = comdat any

$_ZTVN7testing8internal15TestFactoryImplI27AdjacencyMatrix_Resize_TestEE = comdat any

$_ZTSN7testing8internal15TestFactoryImplI27AdjacencyMatrix_Resize_TestEE = comdat any

$_ZTSN7testing8internal15TestFactoryBaseE = comdat any

$_ZTIN7testing8internal15TestFactoryBaseE = comdat any

$_ZTIN7testing8internal15TestFactoryImplI27AdjacencyMatrix_Resize_TestEE = comdat any

$_ZTVN7testing8internal15TestFactoryImplI33AdjacencyMatrix_Constructors_TestEE = comdat any

$_ZTSN7testing8internal15TestFactoryImplI33AdjacencyMatrix_Constructors_TestEE = comdat any

$_ZTIN7testing8internal15TestFactoryImplI33AdjacencyMatrix_Constructors_TestEE = comdat any

$_ZTVN7testing8internal15TestFactoryImplI25AdjacencyMatrix_Copy_TestEE = comdat any

$_ZTSN7testing8internal15TestFactoryImplI25AdjacencyMatrix_Copy_TestEE = comdat any

$_ZTIN7testing8internal15TestFactoryImplI25AdjacencyMatrix_Copy_TestEE = comdat any

$_ZTVN7testing8internal15TestFactoryImplI25AdjacencyMatrix_Move_TestEE = comdat any

$_ZTSN7testing8internal15TestFactoryImplI25AdjacencyMatrix_Move_TestEE = comdat any

$_ZTIN7testing8internal15TestFactoryImplI25AdjacencyMatrix_Move_TestEE = comdat any

$_ZTVN7testing8internal15TestFactoryImplI25AdjacencyMatrix_Swap_TestEE = comdat any

$_ZTSN7testing8internal15TestFactoryImplI25AdjacencyMatrix_Swap_TestEE = comdat any

$_ZTIN7testing8internal15TestFactoryImplI25AdjacencyMatrix_Swap_TestEE = comdat any

$_ZTVN7testing8internal15TestFactoryImplI35AdjacencyMatrix_InsertDirected_TestEE = comdat any

$_ZTSN7testing8internal15TestFactoryImplI35AdjacencyMatrix_InsertDirected_TestEE = comdat any

$_ZTIN7testing8internal15TestFactoryImplI35AdjacencyMatrix_InsertDirected_TestEE = comdat any

$_ZTVN7testing8internal15TestFactoryImplI37AdjacencyMatrix_InsertUndirected_TestEE = comdat any

$_ZTSN7testing8internal15TestFactoryImplI37AdjacencyMatrix_InsertUndirected_TestEE = comdat any

$_ZTIN7testing8internal15TestFactoryImplI37AdjacencyMatrix_InsertUndirected_TestEE = comdat any

$_ZTVN7testing8internal15TestFactoryImplI34AdjacencyMatrix_EraseDirected_TestEE = comdat any

$_ZTSN7testing8internal15TestFactoryImplI34AdjacencyMatrix_EraseDirected_TestEE = comdat any

$_ZTIN7testing8internal15TestFactoryImplI34AdjacencyMatrix_EraseDirected_TestEE = comdat any

$_ZTVN7testing8internal15TestFactoryImplI36AdjacencyMatrix_EraseUndirected_TestEE = comdat any

$_ZTSN7testing8internal15TestFactoryImplI36AdjacencyMatrix_EraseUndirected_TestEE = comdat any

$_ZTIN7testing8internal15TestFactoryImplI36AdjacencyMatrix_EraseUndirected_TestEE = comdat any

$_ZTVN7testing8internal15TestFactoryImplI26AdjacencyMatrix_Clear_TestEE = comdat any

$_ZTSN7testing8internal15TestFactoryImplI26AdjacencyMatrix_Clear_TestEE = comdat any

$_ZTIN7testing8internal15TestFactoryImplI26AdjacencyMatrix_Clear_TestEE = comdat any

$_ZTVN7testing8internal15TestFactoryImplI35AdjacencyMatrix_VertexIterator_TestEE = comdat any

$_ZTSN7testing8internal15TestFactoryImplI35AdjacencyMatrix_VertexIterator_TestEE = comdat any

$_ZTIN7testing8internal15TestFactoryImplI35AdjacencyMatrix_VertexIterator_TestEE = comdat any

$_ZTVN7testing8internal15TestFactoryImplI33AdjacencyMatrix_EdgeIterator_TestEE = comdat any

$_ZTSN7testing8internal15TestFactoryImplI33AdjacencyMatrix_EdgeIterator_TestEE = comdat any

$_ZTIN7testing8internal15TestFactoryImplI33AdjacencyMatrix_EdgeIterator_TestEE = comdat any

$_ZTVN7testing8internal15TestFactoryImplI29AdjacencyMatrix_Vertices_TestEE = comdat any

$_ZTSN7testing8internal15TestFactoryImplI29AdjacencyMatrix_Vertices_TestEE = comdat any

$_ZTIN7testing8internal15TestFactoryImplI29AdjacencyMatrix_Vertices_TestEE = comdat any

$_ZTVN7testing8internal15TestFactoryImplI34AdjacencyMatrix_EdgesDirected_TestEE = comdat any

$_ZTSN7testing8internal15TestFactoryImplI34AdjacencyMatrix_EdgesDirected_TestEE = comdat any

$_ZTIN7testing8internal15TestFactoryImplI34AdjacencyMatrix_EdgesDirected_TestEE = comdat any

$_ZTVN7testing8internal15TestFactoryImplI46AdjacencyMatrix_EdgesBackwardOnlyDirected_TestEE = comdat any

$_ZTSN7testing8internal15TestFactoryImplI46AdjacencyMatrix_EdgesBackwardOnlyDirected_TestEE = comdat any

$_ZTIN7testing8internal15TestFactoryImplI46AdjacencyMatrix_EdgesBackwardOnlyDirected_TestEE = comdat any

$_ZTVN7testing8internal15TestFactoryImplI36AdjacencyMatrix_EdgesUndirected_TestEE = comdat any

$_ZTSN7testing8internal15TestFactoryImplI36AdjacencyMatrix_EdgesUndirected_TestEE = comdat any

$_ZTIN7testing8internal15TestFactoryImplI36AdjacencyMatrix_EdgesUndirected_TestEE = comdat any

$_ZTVN7testing8internal15TestFactoryImplI48AdjacencyMatrix_EdgesBackwardOnlyUndirected_TestEE = comdat any

$_ZTSN7testing8internal15TestFactoryImplI48AdjacencyMatrix_EdgesBackwardOnlyUndirected_TestEE = comdat any

$_ZTIN7testing8internal15TestFactoryImplI48AdjacencyMatrix_EdgesBackwardOnlyUndirected_TestEE = comdat any

$_ZTVN7testing8internal15TestFactoryImplI37AdjacencyMatrix_OutEdgesDirected_TestEE = comdat any

$_ZTSN7testing8internal15TestFactoryImplI37AdjacencyMatrix_OutEdgesDirected_TestEE = comdat any

$_ZTIN7testing8internal15TestFactoryImplI37AdjacencyMatrix_OutEdgesDirected_TestEE = comdat any

$_ZTVN7testing8internal15TestFactoryImplI49AdjacencyMatrix_OutEdgesBackwardOnlyDirected_TestEE = comdat any

$_ZTSN7testing8internal15TestFactoryImplI49AdjacencyMatrix_OutEdgesBackwardOnlyDirected_TestEE = comdat any

$_ZTIN7testing8internal15TestFactoryImplI49AdjacencyMatrix_OutEdgesBackwardOnlyDirected_TestEE = comdat any

$_ZTVN7testing8internal15TestFactoryImplI39AdjacencyMatrix_OutEdgesUndirected_TestEE = comdat any

$_ZTSN7testing8internal15TestFactoryImplI39AdjacencyMatrix_OutEdgesUndirected_TestEE = comdat any

$_ZTIN7testing8internal15TestFactoryImplI39AdjacencyMatrix_OutEdgesUndirected_TestEE = comdat any

$_ZTVN7testing8internal15TestFactoryImplI51AdjacencyMatrix_OutEdgesBackwardOnlyUndirected_TestEE = comdat any

$_ZTSN7testing8internal15TestFactoryImplI51AdjacencyMatrix_OutEdgesBackwardOnlyUndirected_TestEE = comdat any

$_ZTIN7testing8internal15TestFactoryImplI51AdjacencyMatrix_OutEdgesBackwardOnlyUndirected_TestEE = comdat any

$_ZTVN7testing8internal15TestFactoryImplI36AdjacencyMatrix_InEdgesDirected_TestEE = comdat any

$_ZTSN7testing8internal15TestFactoryImplI36AdjacencyMatrix_InEdgesDirected_TestEE = comdat any

$_ZTIN7testing8internal15TestFactoryImplI36AdjacencyMatrix_InEdgesDirected_TestEE = comdat any

$_ZTVN7testing8internal15TestFactoryImplI48AdjacencyMatrix_InEdgesBackwardOnlyDirected_TestEE = comdat any

$_ZTSN7testing8internal15TestFactoryImplI48AdjacencyMatrix_InEdgesBackwardOnlyDirected_TestEE = comdat any

$_ZTIN7testing8internal15TestFactoryImplI48AdjacencyMatrix_InEdgesBackwardOnlyDirected_TestEE = comdat any

$_ZTVN7testing8internal15TestFactoryImplI38AdjacencyMatrix_InEdgesUndirected_TestEE = comdat any

$_ZTSN7testing8internal15TestFactoryImplI38AdjacencyMatrix_InEdgesUndirected_TestEE = comdat any

$_ZTIN7testing8internal15TestFactoryImplI38AdjacencyMatrix_InEdgesUndirected_TestEE = comdat any

$_ZTVN7testing8internal15TestFactoryImplI50AdjacencyMatrix_InEdgesBackwardOnlyUndirected_TestEE = comdat any

$_ZTSN7testing8internal15TestFactoryImplI50AdjacencyMatrix_InEdgesBackwardOnlyUndirected_TestEE = comdat any

$_ZTIN7testing8internal15TestFactoryImplI50AdjacencyMatrix_InEdgesBackwardOnlyUndirected_TestEE = comdat any

$_ZTVN7testing8internal15TestFactoryImplI38AdjacencyMatrix_ThrowingAllocator_TestEE = comdat any

$_ZTSN7testing8internal15TestFactoryImplI38AdjacencyMatrix_ThrowingAllocator_TestEE = comdat any

$_ZTIN7testing8internal15TestFactoryImplI38AdjacencyMatrix_ThrowingAllocator_TestEE = comdat any

$_ZZN7testing8internal31CanonicalizeForStdLibVersioningENSt7__cxx1112basic_stringIcSt11char_traitsIcESaIcEEEE6prefix = comdat any

$_ZTVSt23_Sp_counted_ptr_inplaceIN4entt9dense_mapIjmSt4hashIjESt8equal_toIjESaISt4pairIKjmEEEESaImELN9__gnu_cxx12_Lock_policyE2EE = comdat any

$_ZTSSt23_Sp_counted_ptr_inplaceIN4entt9dense_mapIjmSt4hashIjESt8equal_toIjESaISt4pairIKjmEEEESaImELN9__gnu_cxx12_Lock_policyE2EE = comdat any

$_ZTSSt16_Sp_counted_baseILN9__gnu_cxx12_Lock_policyE2EE = comdat any

$_ZTSSt11_Mutex_baseILN9__gnu_cxx12_Lock_policyE2EE = comdat any

$_ZTISt11_Mutex_baseILN9__gnu_cxx12_Lock_policyE2EE = comdat any

$_ZTISt16_Sp_counted_baseILN9__gnu_cxx12_Lock_policyE2EE = comdat any

$_ZTISt23_Sp_counted_ptr_inplaceIN4entt9dense_mapIjmSt4hashIjESt8equal_toIjESaISt4pairIKjmEEEESaImELN9__gnu_cxx12_Lock_policyE2EE = comdat any

$_ZTSSt19_Sp_make_shared_tag = comdat any

$_ZZNSt19_Sp_make_shared_tag5_S_tiEvE5__tag = comdat any

$_ZZN4entt7type_idImEERKNS_9type_infoEvE8instance = comdat any

$_ZGVZN4entt7type_idImEERKNS_9type_infoEvE8instance = comdat any

$_ZZN4entt10type_indexImvE5valueEvE5value = comdat any

$_ZGVZN4entt10type_indexImvE5valueEvE5value = comdat any

$_ZZN4entt8internal10type_index4nextEvE5value = comdat any

@_ZStL8__ioinit = internal global %"class.std::ios_base::Init" zeroinitializer, align 1
@__dso_handle = external hidden global i8
@_ZN27AdjacencyMatrix_Resize_Test10test_info_E = hidden global ptr null, align 8
@.str = private unnamed_addr constant [16 x i8] c"AdjacencyMatrix\00", align 1
@.str.2 = private unnamed_addr constant [7 x i8] c"Resize\00", align 1
@.str.3 = private unnamed_addr constant [124 x i8] c"generated/home/dtcxzyw/WorkSpace/Projects/compilers/llvm-opt-benchmark/bench/entt/entt/test/entt/graph/adjacency_matrix.cpp\00", align 1
@.str.4 = private unnamed_addr constant [24 x i8] c"adjacency_matrix.size()\00", align 1
@.str.5 = private unnamed_addr constant [3 x i8] c"2u\00", align 1
@.str.6 = private unnamed_addr constant [34 x i8] c"adjacency_matrix.contains(1u, 0u)\00", align 1
@.str.7 = private unnamed_addr constant [6 x i8] c"false\00", align 1
@.str.8 = private unnamed_addr constant [5 x i8] c"true\00", align 1
@_ZN33AdjacencyMatrix_Constructors_Test10test_info_E = hidden global ptr null, align 8
@.str.11 = private unnamed_addr constant [13 x i8] c"Constructors\00", align 1
@.str.12 = private unnamed_addr constant [3 x i8] c"0u\00", align 1
@.str.14 = private unnamed_addr constant [34 x i8] c"adjacency_matrix.contains(0u, 1u)\00", align 1
@.str.15 = private unnamed_addr constant [23 x i8] c"other.contains(0u, 1u)\00", align 1
@_ZN25AdjacencyMatrix_Copy_Test10test_info_E = hidden global ptr null, align 8
@.str.17 = private unnamed_addr constant [5 x i8] c"Copy\00", align 1
@.str.19 = private unnamed_addr constant [23 x i8] c"other.contains(1u, 2u)\00", align 1
@.str.20 = private unnamed_addr constant [23 x i8] c"other.contains(0u, 2u)\00", align 1
@_ZN25AdjacencyMatrix_Move_Test10test_info_E = hidden global ptr null, align 8
@.str.22 = private unnamed_addr constant [5 x i8] c"Move\00", align 1
@_ZN25AdjacencyMatrix_Swap_Test10test_info_E = hidden global ptr null, align 8
@.str.24 = private unnamed_addr constant [5 x i8] c"Swap\00", align 1
@_ZN35AdjacencyMatrix_InsertDirected_Test10test_info_E = hidden global ptr null, align 8
@.str.26 = private unnamed_addr constant [15 x i8] c"InsertDirected\00", align 1
@.str.30 = private unnamed_addr constant [12 x i8] c"first.first\00", align 1
@.str.32 = private unnamed_addr constant [12 x i8] c"other.first\00", align 1
@.str.33 = private unnamed_addr constant [13 x i8] c"*first.first\00", align 1
@.str.34 = private unnamed_addr constant [49 x i8] c"std::make_pair(std::size_t{0u}, std::size_t{1u})\00", align 1
@.str.36 = private unnamed_addr constant [49 x i8] c"std::make_pair(std::size_t{0u}, std::size_t{2u})\00", align 1
@.str.37 = private unnamed_addr constant [34 x i8] c"adjacency_matrix.contains(2u, 0u)\00", align 1
@_ZN37AdjacencyMatrix_InsertUndirected_Test10test_info_E = hidden global ptr null, align 8
@.str.39 = private unnamed_addr constant [17 x i8] c"InsertUndirected\00", align 1
@_ZN34AdjacencyMatrix_EraseDirected_Test10test_info_E = hidden global ptr null, align 8
@.str.41 = private unnamed_addr constant [14 x i8] c"EraseDirected\00", align 1
@.str.42 = private unnamed_addr constant [31 x i8] c"adjacency_matrix.erase(0u, 1u)\00", align 1
@.str.43 = private unnamed_addr constant [3 x i8] c"1u\00", align 1
@_ZN36AdjacencyMatrix_EraseUndirected_Test10test_info_E = hidden global ptr null, align 8
@.str.45 = private unnamed_addr constant [16 x i8] c"EraseUndirected\00", align 1
@_ZN26AdjacencyMatrix_Clear_Test10test_info_E = hidden global ptr null, align 8
@.str.47 = private unnamed_addr constant [6 x i8] c"Clear\00", align 1
@_ZN35AdjacencyMatrix_VertexIterator_Test10test_info_E = hidden global ptr null, align 8
@.str.50 = private unnamed_addr constant [15 x i8] c"VertexIterator\00", align 1
@.str.51 = private unnamed_addr constant [6 x i8] c"begin\00", align 1
@.str.52 = private unnamed_addr constant [17 x i8] c"iterable.begin()\00", align 1
@.str.53 = private unnamed_addr constant [4 x i8] c"end\00", align 1
@.str.54 = private unnamed_addr constant [15 x i8] c"iterable.end()\00", align 1
@.str.55 = private unnamed_addr constant [7 x i8] c"*begin\00", align 1
@.str.56 = private unnamed_addr constant [8 x i8] c"begin++\00", align 1
@.str.57 = private unnamed_addr constant [8 x i8] c"++begin\00", align 1
@_ZN33AdjacencyMatrix_EdgeIterator_Test10test_info_E = hidden global ptr null, align 8
@.str.59 = private unnamed_addr constant [13 x i8] c"EdgeIterator\00", align 1
@.str.60 = private unnamed_addr constant [20 x i8] c"*begin.operator->()\00", align 1
@_ZN29AdjacencyMatrix_Vertices_Test10test_info_E = hidden global ptr null, align 8
@.str.62 = private unnamed_addr constant [9 x i8] c"Vertices\00", align 1
@.str.63 = private unnamed_addr constant [6 x i8] c"*it++\00", align 1
@.str.65 = private unnamed_addr constant [5 x i8] c"++it\00", align 1
@_ZN34AdjacencyMatrix_EdgesDirected_Test10test_info_E = hidden global ptr null, align 8
@.str.67 = private unnamed_addr constant [14 x i8] c"EdgesDirected\00", align 1
@.str.68 = private unnamed_addr constant [17 x i8] c"*it.operator->()\00", align 1
@.str.69 = private unnamed_addr constant [49 x i8] c"std::make_pair(std::size_t{1u}, std::size_t{2u})\00", align 1
@_ZN46AdjacencyMatrix_EdgesBackwardOnlyDirected_Test10test_info_E = hidden global ptr null, align 8
@.str.71 = private unnamed_addr constant [26 x i8] c"EdgesBackwardOnlyDirected\00", align 1
@.str.72 = private unnamed_addr constant [49 x i8] c"std::make_pair(std::size_t{1u}, std::size_t{0u})\00", align 1
@.str.73 = private unnamed_addr constant [3 x i8] c"it\00", align 1
@_ZN36AdjacencyMatrix_EdgesUndirected_Test10test_info_E = hidden global ptr null, align 8
@.str.75 = private unnamed_addr constant [16 x i8] c"EdgesUndirected\00", align 1
@.str.76 = private unnamed_addr constant [21 x i8] c"*(++it).operator->()\00", align 1
@.str.77 = private unnamed_addr constant [6 x i8] c"*++it\00", align 1
@.str.78 = private unnamed_addr constant [49 x i8] c"std::make_pair(std::size_t{2u}, std::size_t{1u})\00", align 1
@_ZN48AdjacencyMatrix_EdgesBackwardOnlyUndirected_Test10test_info_E = hidden global ptr null, align 8
@.str.80 = private unnamed_addr constant [28 x i8] c"EdgesBackwardOnlyUndirected\00", align 1
@_ZN37AdjacencyMatrix_OutEdgesDirected_Test10test_info_E = hidden global ptr null, align 8
@.str.82 = private unnamed_addr constant [17 x i8] c"OutEdgesDirected\00", align 1
@.str.83 = private unnamed_addr constant [16 x i8] c"iterable.cend()\00", align 1
@_ZN49AdjacencyMatrix_OutEdgesBackwardOnlyDirected_Test10test_info_E = hidden global ptr null, align 8
@.str.85 = private unnamed_addr constant [29 x i8] c"OutEdgesBackwardOnlyDirected\00", align 1
@_ZN39AdjacencyMatrix_OutEdgesUndirected_Test10test_info_E = hidden global ptr null, align 8
@.str.87 = private unnamed_addr constant [19 x i8] c"OutEdgesUndirected\00", align 1
@_ZN51AdjacencyMatrix_OutEdgesBackwardOnlyUndirected_Test10test_info_E = hidden global ptr null, align 8
@.str.89 = private unnamed_addr constant [31 x i8] c"OutEdgesBackwardOnlyUndirected\00", align 1
@_ZN36AdjacencyMatrix_InEdgesDirected_Test10test_info_E = hidden global ptr null, align 8
@.str.91 = private unnamed_addr constant [16 x i8] c"InEdgesDirected\00", align 1
@_ZN48AdjacencyMatrix_InEdgesBackwardOnlyDirected_Test10test_info_E = hidden global ptr null, align 8
@.str.93 = private unnamed_addr constant [28 x i8] c"InEdgesBackwardOnlyDirected\00", align 1
@_ZN38AdjacencyMatrix_InEdgesUndirected_Test10test_info_E = hidden global ptr null, align 8
@.str.95 = private unnamed_addr constant [18 x i8] c"InEdgesUndirected\00", align 1
@_ZN50AdjacencyMatrix_InEdgesBackwardOnlyUndirected_Test10test_info_E = hidden global ptr null, align 8
@.str.97 = private unnamed_addr constant [30 x i8] c"InEdgesBackwardOnlyUndirected\00", align 1
@_ZN38AdjacencyMatrix_ThrowingAllocator_Test10test_info_E = hidden global ptr null, align 8
@.str.99 = private unnamed_addr constant [18 x i8] c"ThrowingAllocator\00", align 1
@_ZTVN10__cxxabiv117__class_type_infoE = external global [0 x ptr]
@_ZTSN4test28throwing_allocator_exceptionE = linkonce_odr hidden constant [38 x i8] c"N4test28throwing_allocator_exceptionE\00", comdat, align 1
@_ZTIN4test28throwing_allocator_exceptionE = linkonce_odr hidden constant { ptr, ptr } { ptr getelementptr inbounds (ptr, ptr @_ZTVN10__cxxabiv117__class_type_infoE, i64 2), ptr @_ZTSN4test28throwing_allocator_exceptionE }, comdat, align 8
@_ZTISt9exception = external constant ptr
@.str.100 = private unnamed_addr constant [140 x i8] c"Expected: adjacency_matrix.resize(4u) throws an exception of type test::throwing_allocator_exception.\0A  Actual: it throws a different type.\00", align 1
@.str.101 = private unnamed_addr constant [123 x i8] c"Expected: adjacency_matrix.resize(4u) throws an exception of type test::throwing_allocator_exception.\0A  Actual: it throws \00", align 1
@.str.102 = private unnamed_addr constant [20 x i8] c" with description \22\00", align 1
@.str.103 = private unnamed_addr constant [3 x i8] c"\22.\00", align 1
@.str.104 = private unnamed_addr constant [131 x i8] c"Expected: adjacency_matrix.resize(4u) throws an exception of type test::throwing_allocator_exception.\0A  Actual: it throws nothing.\00", align 1
@_ZTV27AdjacencyMatrix_Resize_Test = hidden unnamed_addr constant { [8 x ptr] } { [8 x ptr] [ptr null, ptr @_ZTI27AdjacencyMatrix_Resize_Test, ptr @_ZN7testing4TestD2Ev, ptr @_ZN27AdjacencyMatrix_Resize_TestD0Ev, ptr @_ZN7testing4Test5SetUpEv, ptr @_ZN7testing4Test8TearDownEv, ptr @_ZN27AdjacencyMatrix_Resize_Test8TestBodyEv, ptr @_ZN7testing4Test5SetupEv] }, align 8
@_ZTVN10__cxxabiv120__si_class_type_infoE = external global [0 x ptr]
@_ZTS27AdjacencyMatrix_Resize_Test = hidden constant [30 x i8] c"27AdjacencyMatrix_Resize_Test\00", align 1
@_ZTIN7testing4TestE = external constant ptr
@_ZTI27AdjacencyMatrix_Resize_Test = hidden constant { ptr, ptr, ptr } { ptr getelementptr inbounds (ptr, ptr @_ZTVN10__cxxabiv120__si_class_type_infoE, i64 2), ptr @_ZTS27AdjacencyMatrix_Resize_Test, ptr @_ZTIN7testing4TestE }, align 8
@_ZTV33AdjacencyMatrix_Constructors_Test = hidden unnamed_addr constant { [8 x ptr] } { [8 x ptr] [ptr null, ptr @_ZTI33AdjacencyMatrix_Constructors_Test, ptr @_ZN7testing4TestD2Ev, ptr @_ZN33AdjacencyMatrix_Constructors_TestD0Ev, ptr @_ZN7testing4Test5SetUpEv, ptr @_ZN7testing4Test8TearDownEv, ptr @_ZN33AdjacencyMatrix_Constructors_Test8TestBodyEv, ptr @_ZN7testing4Test5SetupEv] }, align 8
@_ZTS33AdjacencyMatrix_Constructors_Test = hidden constant [36 x i8] c"33AdjacencyMatrix_Constructors_Test\00", align 1
@_ZTI33AdjacencyMatrix_Constructors_Test = hidden constant { ptr, ptr, ptr } { ptr getelementptr inbounds (ptr, ptr @_ZTVN10__cxxabiv120__si_class_type_infoE, i64 2), ptr @_ZTS33AdjacencyMatrix_Constructors_Test, ptr @_ZTIN7testing4TestE }, align 8
@_ZTV25AdjacencyMatrix_Copy_Test = hidden unnamed_addr constant { [8 x ptr] } { [8 x ptr] [ptr null, ptr @_ZTI25AdjacencyMatrix_Copy_Test, ptr @_ZN7testing4TestD2Ev, ptr @_ZN25AdjacencyMatrix_Copy_TestD0Ev, ptr @_ZN7testing4Test5SetUpEv, ptr @_ZN7testing4Test8TearDownEv, ptr @_ZN25AdjacencyMatrix_Copy_Test8TestBodyEv, ptr @_ZN7testing4Test5SetupEv] }, align 8
@_ZTS25AdjacencyMatrix_Copy_Test = hidden constant [28 x i8] c"25AdjacencyMatrix_Copy_Test\00", align 1
@_ZTI25AdjacencyMatrix_Copy_Test = hidden constant { ptr, ptr, ptr } { ptr getelementptr inbounds (ptr, ptr @_ZTVN10__cxxabiv120__si_class_type_infoE, i64 2), ptr @_ZTS25AdjacencyMatrix_Copy_Test, ptr @_ZTIN7testing4TestE }, align 8
@_ZTV25AdjacencyMatrix_Move_Test = hidden unnamed_addr constant { [8 x ptr] } { [8 x ptr] [ptr null, ptr @_ZTI25AdjacencyMatrix_Move_Test, ptr @_ZN7testing4TestD2Ev, ptr @_ZN25AdjacencyMatrix_Move_TestD0Ev, ptr @_ZN7testing4Test5SetUpEv, ptr @_ZN7testing4Test8TearDownEv, ptr @_ZN25AdjacencyMatrix_Move_Test8TestBodyEv, ptr @_ZN7testing4Test5SetupEv] }, align 8
@_ZTS25AdjacencyMatrix_Move_Test = hidden constant [28 x i8] c"25AdjacencyMatrix_Move_Test\00", align 1
@_ZTI25AdjacencyMatrix_Move_Test = hidden constant { ptr, ptr, ptr } { ptr getelementptr inbounds (ptr, ptr @_ZTVN10__cxxabiv120__si_class_type_infoE, i64 2), ptr @_ZTS25AdjacencyMatrix_Move_Test, ptr @_ZTIN7testing4TestE }, align 8
@_ZTV25AdjacencyMatrix_Swap_Test = hidden unnamed_addr constant { [8 x ptr] } { [8 x ptr] [ptr null, ptr @_ZTI25AdjacencyMatrix_Swap_Test, ptr @_ZN7testing4TestD2Ev, ptr @_ZN25AdjacencyMatrix_Swap_TestD0Ev, ptr @_ZN7testing4Test5SetUpEv, ptr @_ZN7testing4Test8TearDownEv, ptr @_ZN25AdjacencyMatrix_Swap_Test8TestBodyEv, ptr @_ZN7testing4Test5SetupEv] }, align 8
@_ZTS25AdjacencyMatrix_Swap_Test = hidden constant [28 x i8] c"25AdjacencyMatrix_Swap_Test\00", align 1
@_ZTI25AdjacencyMatrix_Swap_Test = hidden constant { ptr, ptr, ptr } { ptr getelementptr inbounds (ptr, ptr @_ZTVN10__cxxabiv120__si_class_type_infoE, i64 2), ptr @_ZTS25AdjacencyMatrix_Swap_Test, ptr @_ZTIN7testing4TestE }, align 8
@_ZTV35AdjacencyMatrix_InsertDirected_Test = hidden unnamed_addr constant { [8 x ptr] } { [8 x ptr] [ptr null, ptr @_ZTI35AdjacencyMatrix_InsertDirected_Test, ptr @_ZN7testing4TestD2Ev, ptr @_ZN35AdjacencyMatrix_InsertDirected_TestD0Ev, ptr @_ZN7testing4Test5SetUpEv, ptr @_ZN7testing4Test8TearDownEv, ptr @_ZN35AdjacencyMatrix_InsertDirected_Test8TestBodyEv, ptr @_ZN7testing4Test5SetupEv] }, align 8
@_ZTS35AdjacencyMatrix_InsertDirected_Test = hidden constant [38 x i8] c"35AdjacencyMatrix_InsertDirected_Test\00", align 1
@_ZTI35AdjacencyMatrix_InsertDirected_Test = hidden constant { ptr, ptr, ptr } { ptr getelementptr inbounds (ptr, ptr @_ZTVN10__cxxabiv120__si_class_type_infoE, i64 2), ptr @_ZTS35AdjacencyMatrix_InsertDirected_Test, ptr @_ZTIN7testing4TestE }, align 8
@_ZTV37AdjacencyMatrix_InsertUndirected_Test = hidden unnamed_addr constant { [8 x ptr] } { [8 x ptr] [ptr null, ptr @_ZTI37AdjacencyMatrix_InsertUndirected_Test, ptr @_ZN7testing4TestD2Ev, ptr @_ZN37AdjacencyMatrix_InsertUndirected_TestD0Ev, ptr @_ZN7testing4Test5SetUpEv, ptr @_ZN7testing4Test8TearDownEv, ptr @_ZN37AdjacencyMatrix_InsertUndirected_Test8TestBodyEv, ptr @_ZN7testing4Test5SetupEv] }, align 8
@_ZTS37AdjacencyMatrix_InsertUndirected_Test = hidden constant [40 x i8] c"37AdjacencyMatrix_InsertUndirected_Test\00", align 1
@_ZTI37AdjacencyMatrix_InsertUndirected_Test = hidden constant { ptr, ptr, ptr } { ptr getelementptr inbounds (ptr, ptr @_ZTVN10__cxxabiv120__si_class_type_infoE, i64 2), ptr @_ZTS37AdjacencyMatrix_InsertUndirected_Test, ptr @_ZTIN7testing4TestE }, align 8
@_ZTV34AdjacencyMatrix_EraseDirected_Test = hidden unnamed_addr constant { [8 x ptr] } { [8 x ptr] [ptr null, ptr @_ZTI34AdjacencyMatrix_EraseDirected_Test, ptr @_ZN7testing4TestD2Ev, ptr @_ZN34AdjacencyMatrix_EraseDirected_TestD0Ev, ptr @_ZN7testing4Test5SetUpEv, ptr @_ZN7testing4Test8TearDownEv, ptr @_ZN34AdjacencyMatrix_EraseDirected_Test8TestBodyEv, ptr @_ZN7testing4Test5SetupEv] }, align 8
@_ZTS34AdjacencyMatrix_EraseDirected_Test = hidden constant [37 x i8] c"34AdjacencyMatrix_EraseDirected_Test\00", align 1
@_ZTI34AdjacencyMatrix_EraseDirected_Test = hidden constant { ptr, ptr, ptr } { ptr getelementptr inbounds (ptr, ptr @_ZTVN10__cxxabiv120__si_class_type_infoE, i64 2), ptr @_ZTS34AdjacencyMatrix_EraseDirected_Test, ptr @_ZTIN7testing4TestE }, align 8
@_ZTV36AdjacencyMatrix_EraseUndirected_Test = hidden unnamed_addr constant { [8 x ptr] } { [8 x ptr] [ptr null, ptr @_ZTI36AdjacencyMatrix_EraseUndirected_Test, ptr @_ZN7testing4TestD2Ev, ptr @_ZN36AdjacencyMatrix_EraseUndirected_TestD0Ev, ptr @_ZN7testing4Test5SetUpEv, ptr @_ZN7testing4Test8TearDownEv, ptr @_ZN36AdjacencyMatrix_EraseUndirected_Test8TestBodyEv, ptr @_ZN7testing4Test5SetupEv] }, align 8
@_ZTS36AdjacencyMatrix_EraseUndirected_Test = hidden constant [39 x i8] c"36AdjacencyMatrix_EraseUndirected_Test\00", align 1
@_ZTI36AdjacencyMatrix_EraseUndirected_Test = hidden constant { ptr, ptr, ptr } { ptr getelementptr inbounds (ptr, ptr @_ZTVN10__cxxabiv120__si_class_type_infoE, i64 2), ptr @_ZTS36AdjacencyMatrix_EraseUndirected_Test, ptr @_ZTIN7testing4TestE }, align 8
@_ZTV26AdjacencyMatrix_Clear_Test = hidden unnamed_addr constant { [8 x ptr] } { [8 x ptr] [ptr null, ptr @_ZTI26AdjacencyMatrix_Clear_Test, ptr @_ZN7testing4TestD2Ev, ptr @_ZN26AdjacencyMatrix_Clear_TestD0Ev, ptr @_ZN7testing4Test5SetUpEv, ptr @_ZN7testing4Test8TearDownEv, ptr @_ZN26AdjacencyMatrix_Clear_Test8TestBodyEv, ptr @_ZN7testing4Test5SetupEv] }, align 8
@_ZTS26AdjacencyMatrix_Clear_Test = hidden constant [29 x i8] c"26AdjacencyMatrix_Clear_Test\00", align 1
@_ZTI26AdjacencyMatrix_Clear_Test = hidden constant { ptr, ptr, ptr } { ptr getelementptr inbounds (ptr, ptr @_ZTVN10__cxxabiv120__si_class_type_infoE, i64 2), ptr @_ZTS26AdjacencyMatrix_Clear_Test, ptr @_ZTIN7testing4TestE }, align 8
@_ZTV35AdjacencyMatrix_VertexIterator_Test = hidden unnamed_addr constant { [8 x ptr] } { [8 x ptr] [ptr null, ptr @_ZTI35AdjacencyMatrix_VertexIterator_Test, ptr @_ZN7testing4TestD2Ev, ptr @_ZN35AdjacencyMatrix_VertexIterator_TestD0Ev, ptr @_ZN7testing4Test5SetUpEv, ptr @_ZN7testing4Test8TearDownEv, ptr @_ZN35AdjacencyMatrix_VertexIterator_Test8TestBodyEv, ptr @_ZN7testing4Test5SetupEv] }, align 8
@_ZTS35AdjacencyMatrix_VertexIterator_Test = hidden constant [38 x i8] c"35AdjacencyMatrix_VertexIterator_Test\00", align 1
@_ZTI35AdjacencyMatrix_VertexIterator_Test = hidden constant { ptr, ptr, ptr } { ptr getelementptr inbounds (ptr, ptr @_ZTVN10__cxxabiv120__si_class_type_infoE, i64 2), ptr @_ZTS35AdjacencyMatrix_VertexIterator_Test, ptr @_ZTIN7testing4TestE }, align 8
@_ZTV33AdjacencyMatrix_EdgeIterator_Test = hidden unnamed_addr constant { [8 x ptr] } { [8 x ptr] [ptr null, ptr @_ZTI33AdjacencyMatrix_EdgeIterator_Test, ptr @_ZN7testing4TestD2Ev, ptr @_ZN33AdjacencyMatrix_EdgeIterator_TestD0Ev, ptr @_ZN7testing4Test5SetUpEv, ptr @_ZN7testing4Test8TearDownEv, ptr @_ZN33AdjacencyMatrix_EdgeIterator_Test8TestBodyEv, ptr @_ZN7testing4Test5SetupEv] }, align 8
@_ZTS33AdjacencyMatrix_EdgeIterator_Test = hidden constant [36 x i8] c"33AdjacencyMatrix_EdgeIterator_Test\00", align 1
@_ZTI33AdjacencyMatrix_EdgeIterator_Test = hidden constant { ptr, ptr, ptr } { ptr getelementptr inbounds (ptr, ptr @_ZTVN10__cxxabiv120__si_class_type_infoE, i64 2), ptr @_ZTS33AdjacencyMatrix_EdgeIterator_Test, ptr @_ZTIN7testing4TestE }, align 8
@_ZTV29AdjacencyMatrix_Vertices_Test = hidden unnamed_addr constant { [8 x ptr] } { [8 x ptr] [ptr null, ptr @_ZTI29AdjacencyMatrix_Vertices_Test, ptr @_ZN7testing4TestD2Ev, ptr @_ZN29AdjacencyMatrix_Vertices_TestD0Ev, ptr @_ZN7testing4Test5SetUpEv, ptr @_ZN7testing4Test8TearDownEv, ptr @_ZN29AdjacencyMatrix_Vertices_Test8TestBodyEv, ptr @_ZN7testing4Test5SetupEv] }, align 8
@_ZTS29AdjacencyMatrix_Vertices_Test = hidden constant [32 x i8] c"29AdjacencyMatrix_Vertices_Test\00", align 1
@_ZTI29AdjacencyMatrix_Vertices_Test = hidden constant { ptr, ptr, ptr } { ptr getelementptr inbounds (ptr, ptr @_ZTVN10__cxxabiv120__si_class_type_infoE, i64 2), ptr @_ZTS29AdjacencyMatrix_Vertices_Test, ptr @_ZTIN7testing4TestE }, align 8
@_ZTV34AdjacencyMatrix_EdgesDirected_Test = hidden unnamed_addr constant { [8 x ptr] } { [8 x ptr] [ptr null, ptr @_ZTI34AdjacencyMatrix_EdgesDirected_Test, ptr @_ZN7testing4TestD2Ev, ptr @_ZN34AdjacencyMatrix_EdgesDirected_TestD0Ev, ptr @_ZN7testing4Test5SetUpEv, ptr @_ZN7testing4Test8TearDownEv, ptr @_ZN34AdjacencyMatrix_EdgesDirected_Test8TestBodyEv, ptr @_ZN7testing4Test5SetupEv] }, align 8
@_ZTS34AdjacencyMatrix_EdgesDirected_Test = hidden constant [37 x i8] c"34AdjacencyMatrix_EdgesDirected_Test\00", align 1
@_ZTI34AdjacencyMatrix_EdgesDirected_Test = hidden constant { ptr, ptr, ptr } { ptr getelementptr inbounds (ptr, ptr @_ZTVN10__cxxabiv120__si_class_type_infoE, i64 2), ptr @_ZTS34AdjacencyMatrix_EdgesDirected_Test, ptr @_ZTIN7testing4TestE }, align 8
@_ZTV46AdjacencyMatrix_EdgesBackwardOnlyDirected_Test = hidden unnamed_addr constant { [8 x ptr] } { [8 x ptr] [ptr null, ptr @_ZTI46AdjacencyMatrix_EdgesBackwardOnlyDirected_Test, ptr @_ZN7testing4TestD2Ev, ptr @_ZN46AdjacencyMatrix_EdgesBackwardOnlyDirected_TestD0Ev, ptr @_ZN7testing4Test5SetUpEv, ptr @_ZN7testing4Test8TearDownEv, ptr @_ZN46AdjacencyMatrix_EdgesBackwardOnlyDirected_Test8TestBodyEv, ptr @_ZN7testing4Test5SetupEv] }, align 8
@_ZTS46AdjacencyMatrix_EdgesBackwardOnlyDirected_Test = hidden constant [49 x i8] c"46AdjacencyMatrix_EdgesBackwardOnlyDirected_Test\00", align 1
@_ZTI46AdjacencyMatrix_EdgesBackwardOnlyDirected_Test = hidden constant { ptr, ptr, ptr } { ptr getelementptr inbounds (ptr, ptr @_ZTVN10__cxxabiv120__si_class_type_infoE, i64 2), ptr @_ZTS46AdjacencyMatrix_EdgesBackwardOnlyDirected_Test, ptr @_ZTIN7testing4TestE }, align 8
@_ZTV36AdjacencyMatrix_EdgesUndirected_Test = hidden unnamed_addr constant { [8 x ptr] } { [8 x ptr] [ptr null, ptr @_ZTI36AdjacencyMatrix_EdgesUndirected_Test, ptr @_ZN7testing4TestD2Ev, ptr @_ZN36AdjacencyMatrix_EdgesUndirected_TestD0Ev, ptr @_ZN7testing4Test5SetUpEv, ptr @_ZN7testing4Test8TearDownEv, ptr @_ZN36AdjacencyMatrix_EdgesUndirected_Test8TestBodyEv, ptr @_ZN7testing4Test5SetupEv] }, align 8
@_ZTS36AdjacencyMatrix_EdgesUndirected_Test = hidden constant [39 x i8] c"36AdjacencyMatrix_EdgesUndirected_Test\00", align 1
@_ZTI36AdjacencyMatrix_EdgesUndirected_Test = hidden constant { ptr, ptr, ptr } { ptr getelementptr inbounds (ptr, ptr @_ZTVN10__cxxabiv120__si_class_type_infoE, i64 2), ptr @_ZTS36AdjacencyMatrix_EdgesUndirected_Test, ptr @_ZTIN7testing4TestE }, align 8
@_ZTV48AdjacencyMatrix_EdgesBackwardOnlyUndirected_Test = hidden unnamed_addr constant { [8 x ptr] } { [8 x ptr] [ptr null, ptr @_ZTI48AdjacencyMatrix_EdgesBackwardOnlyUndirected_Test, ptr @_ZN7testing4TestD2Ev, ptr @_ZN48AdjacencyMatrix_EdgesBackwardOnlyUndirected_TestD0Ev, ptr @_ZN7testing4Test5SetUpEv, ptr @_ZN7testing4Test8TearDownEv, ptr @_ZN48AdjacencyMatrix_EdgesBackwardOnlyUndirected_Test8TestBodyEv, ptr @_ZN7testing4Test5SetupEv] }, align 8
@_ZTS48AdjacencyMatrix_EdgesBackwardOnlyUndirected_Test = hidden constant [51 x i8] c"48AdjacencyMatrix_EdgesBackwardOnlyUndirected_Test\00", align 1
@_ZTI48AdjacencyMatrix_EdgesBackwardOnlyUndirected_Test = hidden constant { ptr, ptr, ptr } { ptr getelementptr inbounds (ptr, ptr @_ZTVN10__cxxabiv120__si_class_type_infoE, i64 2), ptr @_ZTS48AdjacencyMatrix_EdgesBackwardOnlyUndirected_Test, ptr @_ZTIN7testing4TestE }, align 8
@_ZTV37AdjacencyMatrix_OutEdgesDirected_Test = hidden unnamed_addr constant { [8 x ptr] } { [8 x ptr] [ptr null, ptr @_ZTI37AdjacencyMatrix_OutEdgesDirected_Test, ptr @_ZN7testing4TestD2Ev, ptr @_ZN37AdjacencyMatrix_OutEdgesDirected_TestD0Ev, ptr @_ZN7testing4Test5SetUpEv, ptr @_ZN7testing4Test8TearDownEv, ptr @_ZN37AdjacencyMatrix_OutEdgesDirected_Test8TestBodyEv, ptr @_ZN7testing4Test5SetupEv] }, align 8
@_ZTS37AdjacencyMatrix_OutEdgesDirected_Test = hidden constant [40 x i8] c"37AdjacencyMatrix_OutEdgesDirected_Test\00", align 1
@_ZTI37AdjacencyMatrix_OutEdgesDirected_Test = hidden constant { ptr, ptr, ptr } { ptr getelementptr inbounds (ptr, ptr @_ZTVN10__cxxabiv120__si_class_type_infoE, i64 2), ptr @_ZTS37AdjacencyMatrix_OutEdgesDirected_Test, ptr @_ZTIN7testing4TestE }, align 8
@_ZTV49AdjacencyMatrix_OutEdgesBackwardOnlyDirected_Test = hidden unnamed_addr constant { [8 x ptr] } { [8 x ptr] [ptr null, ptr @_ZTI49AdjacencyMatrix_OutEdgesBackwardOnlyDirected_Test, ptr @_ZN7testing4TestD2Ev, ptr @_ZN49AdjacencyMatrix_OutEdgesBackwardOnlyDirected_TestD0Ev, ptr @_ZN7testing4Test5SetUpEv, ptr @_ZN7testing4Test8TearDownEv, ptr @_ZN49AdjacencyMatrix_OutEdgesBackwardOnlyDirected_Test8TestBodyEv, ptr @_ZN7testing4Test5SetupEv] }, align 8
@_ZTS49AdjacencyMatrix_OutEdgesBackwardOnlyDirected_Test = hidden constant [52 x i8] c"49AdjacencyMatrix_OutEdgesBackwardOnlyDirected_Test\00", align 1
@_ZTI49AdjacencyMatrix_OutEdgesBackwardOnlyDirected_Test = hidden constant { ptr, ptr, ptr } { ptr getelementptr inbounds (ptr, ptr @_ZTVN10__cxxabiv120__si_class_type_infoE, i64 2), ptr @_ZTS49AdjacencyMatrix_OutEdgesBackwardOnlyDirected_Test, ptr @_ZTIN7testing4TestE }, align 8
@_ZTV39AdjacencyMatrix_OutEdgesUndirected_Test = hidden unnamed_addr constant { [8 x ptr] } { [8 x ptr] [ptr null, ptr @_ZTI39AdjacencyMatrix_OutEdgesUndirected_Test, ptr @_ZN7testing4TestD2Ev, ptr @_ZN39AdjacencyMatrix_OutEdgesUndirected_TestD0Ev, ptr @_ZN7testing4Test5SetUpEv, ptr @_ZN7testing4Test8TearDownEv, ptr @_ZN39AdjacencyMatrix_OutEdgesUndirected_Test8TestBodyEv, ptr @_ZN7testing4Test5SetupEv] }, align 8
@_ZTS39AdjacencyMatrix_OutEdgesUndirected_Test = hidden constant [42 x i8] c"39AdjacencyMatrix_OutEdgesUndirected_Test\00", align 1
@_ZTI39AdjacencyMatrix_OutEdgesUndirected_Test = hidden constant { ptr, ptr, ptr } { ptr getelementptr inbounds (ptr, ptr @_ZTVN10__cxxabiv120__si_class_type_infoE, i64 2), ptr @_ZTS39AdjacencyMatrix_OutEdgesUndirected_Test, ptr @_ZTIN7testing4TestE }, align 8
@_ZTV51AdjacencyMatrix_OutEdgesBackwardOnlyUndirected_Test = hidden unnamed_addr constant { [8 x ptr] } { [8 x ptr] [ptr null, ptr @_ZTI51AdjacencyMatrix_OutEdgesBackwardOnlyUndirected_Test, ptr @_ZN7testing4TestD2Ev, ptr @_ZN51AdjacencyMatrix_OutEdgesBackwardOnlyUndirected_TestD0Ev, ptr @_ZN7testing4Test5SetUpEv, ptr @_ZN7testing4Test8TearDownEv, ptr @_ZN51AdjacencyMatrix_OutEdgesBackwardOnlyUndirected_Test8TestBodyEv, ptr @_ZN7testing4Test5SetupEv] }, align 8
@_ZTS51AdjacencyMatrix_OutEdgesBackwardOnlyUndirected_Test = hidden constant [54 x i8] c"51AdjacencyMatrix_OutEdgesBackwardOnlyUndirected_Test\00", align 1
@_ZTI51AdjacencyMatrix_OutEdgesBackwardOnlyUndirected_Test = hidden constant { ptr, ptr, ptr } { ptr getelementptr inbounds (ptr, ptr @_ZTVN10__cxxabiv120__si_class_type_infoE, i64 2), ptr @_ZTS51AdjacencyMatrix_OutEdgesBackwardOnlyUndirected_Test, ptr @_ZTIN7testing4TestE }, align 8
@_ZTV36AdjacencyMatrix_InEdgesDirected_Test = hidden unnamed_addr constant { [8 x ptr] } { [8 x ptr] [ptr null, ptr @_ZTI36AdjacencyMatrix_InEdgesDirected_Test, ptr @_ZN7testing4TestD2Ev, ptr @_ZN36AdjacencyMatrix_InEdgesDirected_TestD0Ev, ptr @_ZN7testing4Test5SetUpEv, ptr @_ZN7testing4Test8TearDownEv, ptr @_ZN36AdjacencyMatrix_InEdgesDirected_Test8TestBodyEv, ptr @_ZN7testing4Test5SetupEv] }, align 8
@_ZTS36AdjacencyMatrix_InEdgesDirected_Test = hidden constant [39 x i8] c"36AdjacencyMatrix_InEdgesDirected_Test\00", align 1
@_ZTI36AdjacencyMatrix_InEdgesDirected_Test = hidden constant { ptr, ptr, ptr } { ptr getelementptr inbounds (ptr, ptr @_ZTVN10__cxxabiv120__si_class_type_infoE, i64 2), ptr @_ZTS36AdjacencyMatrix_InEdgesDirected_Test, ptr @_ZTIN7testing4TestE }, align 8
@_ZTV48AdjacencyMatrix_InEdgesBackwardOnlyDirected_Test = hidden unnamed_addr constant { [8 x ptr] } { [8 x ptr] [ptr null, ptr @_ZTI48AdjacencyMatrix_InEdgesBackwardOnlyDirected_Test, ptr @_ZN7testing4TestD2Ev, ptr @_ZN48AdjacencyMatrix_InEdgesBackwardOnlyDirected_TestD0Ev, ptr @_ZN7testing4Test5SetUpEv, ptr @_ZN7testing4Test8TearDownEv, ptr @_ZN48AdjacencyMatrix_InEdgesBackwardOnlyDirected_Test8TestBodyEv, ptr @_ZN7testing4Test5SetupEv] }, align 8
@_ZTS48AdjacencyMatrix_InEdgesBackwardOnlyDirected_Test = hidden constant [51 x i8] c"48AdjacencyMatrix_InEdgesBackwardOnlyDirected_Test\00", align 1
@_ZTI48AdjacencyMatrix_InEdgesBackwardOnlyDirected_Test = hidden constant { ptr, ptr, ptr } { ptr getelementptr inbounds (ptr, ptr @_ZTVN10__cxxabiv120__si_class_type_infoE, i64 2), ptr @_ZTS48AdjacencyMatrix_InEdgesBackwardOnlyDirected_Test, ptr @_ZTIN7testing4TestE }, align 8
@_ZTV38AdjacencyMatrix_InEdgesUndirected_Test = hidden unnamed_addr constant { [8 x ptr] } { [8 x ptr] [ptr null, ptr @_ZTI38AdjacencyMatrix_InEdgesUndirected_Test, ptr @_ZN7testing4TestD2Ev, ptr @_ZN38AdjacencyMatrix_InEdgesUndirected_TestD0Ev, ptr @_ZN7testing4Test5SetUpEv, ptr @_ZN7testing4Test8TearDownEv, ptr @_ZN38AdjacencyMatrix_InEdgesUndirected_Test8TestBodyEv, ptr @_ZN7testing4Test5SetupEv] }, align 8
@_ZTS38AdjacencyMatrix_InEdgesUndirected_Test = hidden constant [41 x i8] c"38AdjacencyMatrix_InEdgesUndirected_Test\00", align 1
@_ZTI38AdjacencyMatrix_InEdgesUndirected_Test = hidden constant { ptr, ptr, ptr } { ptr getelementptr inbounds (ptr, ptr @_ZTVN10__cxxabiv120__si_class_type_infoE, i64 2), ptr @_ZTS38AdjacencyMatrix_InEdgesUndirected_Test, ptr @_ZTIN7testing4TestE }, align 8
@_ZTV50AdjacencyMatrix_InEdgesBackwardOnlyUndirected_Test = hidden unnamed_addr constant { [8 x ptr] } { [8 x ptr] [ptr null, ptr @_ZTI50AdjacencyMatrix_InEdgesBackwardOnlyUndirected_Test, ptr @_ZN7testing4TestD2Ev, ptr @_ZN50AdjacencyMatrix_InEdgesBackwardOnlyUndirected_TestD0Ev, ptr @_ZN7testing4Test5SetUpEv, ptr @_ZN7testing4Test8TearDownEv, ptr @_ZN50AdjacencyMatrix_InEdgesBackwardOnlyUndirected_Test8TestBodyEv, ptr @_ZN7testing4Test5SetupEv] }, align 8
@_ZTS50AdjacencyMatrix_InEdgesBackwardOnlyUndirected_Test = hidden constant [53 x i8] c"50AdjacencyMatrix_InEdgesBackwardOnlyUndirected_Test\00", align 1
@_ZTI50AdjacencyMatrix_InEdgesBackwardOnlyUndirected_Test = hidden constant { ptr, ptr, ptr } { ptr getelementptr inbounds (ptr, ptr @_ZTVN10__cxxabiv120__si_class_type_infoE, i64 2), ptr @_ZTS50AdjacencyMatrix_InEdgesBackwardOnlyUndirected_Test, ptr @_ZTIN7testing4TestE }, align 8
@_ZTV38AdjacencyMatrix_ThrowingAllocator_Test = hidden unnamed_addr constant { [8 x ptr] } { [8 x ptr] [ptr null, ptr @_ZTI38AdjacencyMatrix_ThrowingAllocator_Test, ptr @_ZN7testing4TestD2Ev, ptr @_ZN38AdjacencyMatrix_ThrowingAllocator_TestD0Ev, ptr @_ZN7testing4Test5SetUpEv, ptr @_ZN7testing4Test8TearDownEv, ptr @_ZN38AdjacencyMatrix_ThrowingAllocator_Test8TestBodyEv, ptr @_ZN7testing4Test5SetupEv] }, align 8
@_ZTS38AdjacencyMatrix_ThrowingAllocator_Test = hidden constant [41 x i8] c"38AdjacencyMatrix_ThrowingAllocator_Test\00", align 1
@_ZTI38AdjacencyMatrix_ThrowingAllocator_Test = hidden constant { ptr, ptr, ptr } { ptr getelementptr inbounds (ptr, ptr @_ZTVN10__cxxabiv120__si_class_type_infoE, i64 2), ptr @_ZTS38AdjacencyMatrix_ThrowingAllocator_Test, ptr @_ZTIN7testing4TestE }, align 8
@_ZTVN7testing8internal15TestFactoryImplI27AdjacencyMatrix_Resize_TestEE = linkonce_odr hidden unnamed_addr constant { [5 x ptr] } { [5 x ptr] [ptr null, ptr @_ZTIN7testing8internal15TestFactoryImplI27AdjacencyMatrix_Resize_TestEE, ptr @_ZN7testing8internal15TestFactoryBaseD2Ev, ptr @_ZN7testing8internal15TestFactoryImplI27AdjacencyMatrix_Resize_TestED0Ev, ptr @_ZN7testing8internal15TestFactoryImplI27AdjacencyMatrix_Resize_TestE10CreateTestEv] }, comdat, align 8
@_ZTSN7testing8internal15TestFactoryImplI27AdjacencyMatrix_Resize_TestEE = linkonce_odr hidden constant [68 x i8] c"N7testing8internal15TestFactoryImplI27AdjacencyMatrix_Resize_TestEE\00", comdat, align 1
@_ZTSN7testing8internal15TestFactoryBaseE = linkonce_odr hidden constant [37 x i8] c"N7testing8internal15TestFactoryBaseE\00", comdat, align 1
@_ZTIN7testing8internal15TestFactoryBaseE = linkonce_odr hidden constant { ptr, ptr } { ptr getelementptr inbounds (ptr, ptr @_ZTVN10__cxxabiv117__class_type_infoE, i64 2), ptr @_ZTSN7testing8internal15TestFactoryBaseE }, comdat, align 8
@_ZTIN7testing8internal15TestFactoryImplI27AdjacencyMatrix_Resize_TestEE = linkonce_odr hidden constant { ptr, ptr, ptr } { ptr getelementptr inbounds (ptr, ptr @_ZTVN10__cxxabiv120__si_class_type_infoE, i64 2), ptr @_ZTSN7testing8internal15TestFactoryImplI27AdjacencyMatrix_Resize_TestEE, ptr @_ZTIN7testing8internal15TestFactoryBaseE }, comdat, align 8
@.str.105 = private unnamed_addr constant [1 x i8] zeroinitializer, align 1
@_ZTVN7testing8internal15TestFactoryImplI33AdjacencyMatrix_Constructors_TestEE = linkonce_odr hidden unnamed_addr constant { [5 x ptr] } { [5 x ptr] [ptr null, ptr @_ZTIN7testing8internal15TestFactoryImplI33AdjacencyMatrix_Constructors_TestEE, ptr @_ZN7testing8internal15TestFactoryBaseD2Ev, ptr @_ZN7testing8internal15TestFactoryImplI33AdjacencyMatrix_Constructors_TestED0Ev, ptr @_ZN7testing8internal15TestFactoryImplI33AdjacencyMatrix_Constructors_TestE10CreateTestEv] }, comdat, align 8
@_ZTSN7testing8internal15TestFactoryImplI33AdjacencyMatrix_Constructors_TestEE = linkonce_odr hidden constant [74 x i8] c"N7testing8internal15TestFactoryImplI33AdjacencyMatrix_Constructors_TestEE\00", comdat, align 1
@_ZTIN7testing8internal15TestFactoryImplI33AdjacencyMatrix_Constructors_TestEE = linkonce_odr hidden constant { ptr, ptr, ptr } { ptr getelementptr inbounds (ptr, ptr @_ZTVN10__cxxabiv120__si_class_type_infoE, i64 2), ptr @_ZTSN7testing8internal15TestFactoryImplI33AdjacencyMatrix_Constructors_TestEE, ptr @_ZTIN7testing8internal15TestFactoryBaseE }, comdat, align 8
@_ZTVN7testing8internal15TestFactoryImplI25AdjacencyMatrix_Copy_TestEE = linkonce_odr hidden unnamed_addr constant { [5 x ptr] } { [5 x ptr] [ptr null, ptr @_ZTIN7testing8internal15TestFactoryImplI25AdjacencyMatrix_Copy_TestEE, ptr @_ZN7testing8internal15TestFactoryBaseD2Ev, ptr @_ZN7testing8internal15TestFactoryImplI25AdjacencyMatrix_Copy_TestED0Ev, ptr @_ZN7testing8internal15TestFactoryImplI25AdjacencyMatrix_Copy_TestE10CreateTestEv] }, comdat, align 8
@_ZTSN7testing8internal15TestFactoryImplI25AdjacencyMatrix_Copy_TestEE = linkonce_odr hidden constant [66 x i8] c"N7testing8internal15TestFactoryImplI25AdjacencyMatrix_Copy_TestEE\00", comdat, align 1
@_ZTIN7testing8internal15TestFactoryImplI25AdjacencyMatrix_Copy_TestEE = linkonce_odr hidden constant { ptr, ptr, ptr } { ptr getelementptr inbounds (ptr, ptr @_ZTVN10__cxxabiv120__si_class_type_infoE, i64 2), ptr @_ZTSN7testing8internal15TestFactoryImplI25AdjacencyMatrix_Copy_TestEE, ptr @_ZTIN7testing8internal15TestFactoryBaseE }, comdat, align 8
@_ZTVN7testing8internal15TestFactoryImplI25AdjacencyMatrix_Move_TestEE = linkonce_odr hidden unnamed_addr constant { [5 x ptr] } { [5 x ptr] [ptr null, ptr @_ZTIN7testing8internal15TestFactoryImplI25AdjacencyMatrix_Move_TestEE, ptr @_ZN7testing8internal15TestFactoryBaseD2Ev, ptr @_ZN7testing8internal15TestFactoryImplI25AdjacencyMatrix_Move_TestED0Ev, ptr @_ZN7testing8internal15TestFactoryImplI25AdjacencyMatrix_Move_TestE10CreateTestEv] }, comdat, align 8
@_ZTSN7testing8internal15TestFactoryImplI25AdjacencyMatrix_Move_TestEE = linkonce_odr hidden constant [66 x i8] c"N7testing8internal15TestFactoryImplI25AdjacencyMatrix_Move_TestEE\00", comdat, align 1
@_ZTIN7testing8internal15TestFactoryImplI25AdjacencyMatrix_Move_TestEE = linkonce_odr hidden constant { ptr, ptr, ptr } { ptr getelementptr inbounds (ptr, ptr @_ZTVN10__cxxabiv120__si_class_type_infoE, i64 2), ptr @_ZTSN7testing8internal15TestFactoryImplI25AdjacencyMatrix_Move_TestEE, ptr @_ZTIN7testing8internal15TestFactoryBaseE }, comdat, align 8
@_ZTVN7testing8internal15TestFactoryImplI25AdjacencyMatrix_Swap_TestEE = linkonce_odr hidden unnamed_addr constant { [5 x ptr] } { [5 x ptr] [ptr null, ptr @_ZTIN7testing8internal15TestFactoryImplI25AdjacencyMatrix_Swap_TestEE, ptr @_ZN7testing8internal15TestFactoryBaseD2Ev, ptr @_ZN7testing8internal15TestFactoryImplI25AdjacencyMatrix_Swap_TestED0Ev, ptr @_ZN7testing8internal15TestFactoryImplI25AdjacencyMatrix_Swap_TestE10CreateTestEv] }, comdat, align 8
@_ZTSN7testing8internal15TestFactoryImplI25AdjacencyMatrix_Swap_TestEE = linkonce_odr hidden constant [66 x i8] c"N7testing8internal15TestFactoryImplI25AdjacencyMatrix_Swap_TestEE\00", comdat, align 1
@_ZTIN7testing8internal15TestFactoryImplI25AdjacencyMatrix_Swap_TestEE = linkonce_odr hidden constant { ptr, ptr, ptr } { ptr getelementptr inbounds (ptr, ptr @_ZTVN10__cxxabiv120__si_class_type_infoE, i64 2), ptr @_ZTSN7testing8internal15TestFactoryImplI25AdjacencyMatrix_Swap_TestEE, ptr @_ZTIN7testing8internal15TestFactoryBaseE }, comdat, align 8
@_ZTVN7testing8internal15TestFactoryImplI35AdjacencyMatrix_InsertDirected_TestEE = linkonce_odr hidden unnamed_addr constant { [5 x ptr] } { [5 x ptr] [ptr null, ptr @_ZTIN7testing8internal15TestFactoryImplI35AdjacencyMatrix_InsertDirected_TestEE, ptr @_ZN7testing8internal15TestFactoryBaseD2Ev, ptr @_ZN7testing8internal15TestFactoryImplI35AdjacencyMatrix_InsertDirected_TestED0Ev, ptr @_ZN7testing8internal15TestFactoryImplI35AdjacencyMatrix_InsertDirected_TestE10CreateTestEv] }, comdat, align 8
@_ZTSN7testing8internal15TestFactoryImplI35AdjacencyMatrix_InsertDirected_TestEE = linkonce_odr hidden constant [76 x i8] c"N7testing8internal15TestFactoryImplI35AdjacencyMatrix_InsertDirected_TestEE\00", comdat, align 1
@_ZTIN7testing8internal15TestFactoryImplI35AdjacencyMatrix_InsertDirected_TestEE = linkonce_odr hidden constant { ptr, ptr, ptr } { ptr getelementptr inbounds (ptr, ptr @_ZTVN10__cxxabiv120__si_class_type_infoE, i64 2), ptr @_ZTSN7testing8internal15TestFactoryImplI35AdjacencyMatrix_InsertDirected_TestEE, ptr @_ZTIN7testing8internal15TestFactoryBaseE }, comdat, align 8
@_ZTVN7testing8internal15TestFactoryImplI37AdjacencyMatrix_InsertUndirected_TestEE = linkonce_odr hidden unnamed_addr constant { [5 x ptr] } { [5 x ptr] [ptr null, ptr @_ZTIN7testing8internal15TestFactoryImplI37AdjacencyMatrix_InsertUndirected_TestEE, ptr @_ZN7testing8internal15TestFactoryBaseD2Ev, ptr @_ZN7testing8internal15TestFactoryImplI37AdjacencyMatrix_InsertUndirected_TestED0Ev, ptr @_ZN7testing8internal15TestFactoryImplI37AdjacencyMatrix_InsertUndirected_TestE10CreateTestEv] }, comdat, align 8
@_ZTSN7testing8internal15TestFactoryImplI37AdjacencyMatrix_InsertUndirected_TestEE = linkonce_odr hidden constant [78 x i8] c"N7testing8internal15TestFactoryImplI37AdjacencyMatrix_InsertUndirected_TestEE\00", comdat, align 1
@_ZTIN7testing8internal15TestFactoryImplI37AdjacencyMatrix_InsertUndirected_TestEE = linkonce_odr hidden constant { ptr, ptr, ptr } { ptr getelementptr inbounds (ptr, ptr @_ZTVN10__cxxabiv120__si_class_type_infoE, i64 2), ptr @_ZTSN7testing8internal15TestFactoryImplI37AdjacencyMatrix_InsertUndirected_TestEE, ptr @_ZTIN7testing8internal15TestFactoryBaseE }, comdat, align 8
@_ZTVN7testing8internal15TestFactoryImplI34AdjacencyMatrix_EraseDirected_TestEE = linkonce_odr hidden unnamed_addr constant { [5 x ptr] } { [5 x ptr] [ptr null, ptr @_ZTIN7testing8internal15TestFactoryImplI34AdjacencyMatrix_EraseDirected_TestEE, ptr @_ZN7testing8internal15TestFactoryBaseD2Ev, ptr @_ZN7testing8internal15TestFactoryImplI34AdjacencyMatrix_EraseDirected_TestED0Ev, ptr @_ZN7testing8internal15TestFactoryImplI34AdjacencyMatrix_EraseDirected_TestE10CreateTestEv] }, comdat, align 8
@_ZTSN7testing8internal15TestFactoryImplI34AdjacencyMatrix_EraseDirected_TestEE = linkonce_odr hidden constant [75 x i8] c"N7testing8internal15TestFactoryImplI34AdjacencyMatrix_EraseDirected_TestEE\00", comdat, align 1
@_ZTIN7testing8internal15TestFactoryImplI34AdjacencyMatrix_EraseDirected_TestEE = linkonce_odr hidden constant { ptr, ptr, ptr } { ptr getelementptr inbounds (ptr, ptr @_ZTVN10__cxxabiv120__si_class_type_infoE, i64 2), ptr @_ZTSN7testing8internal15TestFactoryImplI34AdjacencyMatrix_EraseDirected_TestEE, ptr @_ZTIN7testing8internal15TestFactoryBaseE }, comdat, align 8
@_ZTVN7testing8internal15TestFactoryImplI36AdjacencyMatrix_EraseUndirected_TestEE = linkonce_odr hidden unnamed_addr constant { [5 x ptr] } { [5 x ptr] [ptr null, ptr @_ZTIN7testing8internal15TestFactoryImplI36AdjacencyMatrix_EraseUndirected_TestEE, ptr @_ZN7testing8internal15TestFactoryBaseD2Ev, ptr @_ZN7testing8internal15TestFactoryImplI36AdjacencyMatrix_EraseUndirected_TestED0Ev, ptr @_ZN7testing8internal15TestFactoryImplI36AdjacencyMatrix_EraseUndirected_TestE10CreateTestEv] }, comdat, align 8
@_ZTSN7testing8internal15TestFactoryImplI36AdjacencyMatrix_EraseUndirected_TestEE = linkonce_odr hidden constant [77 x i8] c"N7testing8internal15TestFactoryImplI36AdjacencyMatrix_EraseUndirected_TestEE\00", comdat, align 1
@_ZTIN7testing8internal15TestFactoryImplI36AdjacencyMatrix_EraseUndirected_TestEE = linkonce_odr hidden constant { ptr, ptr, ptr } { ptr getelementptr inbounds (ptr, ptr @_ZTVN10__cxxabiv120__si_class_type_infoE, i64 2), ptr @_ZTSN7testing8internal15TestFactoryImplI36AdjacencyMatrix_EraseUndirected_TestEE, ptr @_ZTIN7testing8internal15TestFactoryBaseE }, comdat, align 8
@_ZTVN7testing8internal15TestFactoryImplI26AdjacencyMatrix_Clear_TestEE = linkonce_odr hidden unnamed_addr constant { [5 x ptr] } { [5 x ptr] [ptr null, ptr @_ZTIN7testing8internal15TestFactoryImplI26AdjacencyMatrix_Clear_TestEE, ptr @_ZN7testing8internal15TestFactoryBaseD2Ev, ptr @_ZN7testing8internal15TestFactoryImplI26AdjacencyMatrix_Clear_TestED0Ev, ptr @_ZN7testing8internal15TestFactoryImplI26AdjacencyMatrix_Clear_TestE10CreateTestEv] }, comdat, align 8
@_ZTSN7testing8internal15TestFactoryImplI26AdjacencyMatrix_Clear_TestEE = linkonce_odr hidden constant [67 x i8] c"N7testing8internal15TestFactoryImplI26AdjacencyMatrix_Clear_TestEE\00", comdat, align 1
@_ZTIN7testing8internal15TestFactoryImplI26AdjacencyMatrix_Clear_TestEE = linkonce_odr hidden constant { ptr, ptr, ptr } { ptr getelementptr inbounds (ptr, ptr @_ZTVN10__cxxabiv120__si_class_type_infoE, i64 2), ptr @_ZTSN7testing8internal15TestFactoryImplI26AdjacencyMatrix_Clear_TestEE, ptr @_ZTIN7testing8internal15TestFactoryBaseE }, comdat, align 8
@_ZTVN7testing8internal15TestFactoryImplI35AdjacencyMatrix_VertexIterator_TestEE = linkonce_odr hidden unnamed_addr constant { [5 x ptr] } { [5 x ptr] [ptr null, ptr @_ZTIN7testing8internal15TestFactoryImplI35AdjacencyMatrix_VertexIterator_TestEE, ptr @_ZN7testing8internal15TestFactoryBaseD2Ev, ptr @_ZN7testing8internal15TestFactoryImplI35AdjacencyMatrix_VertexIterator_TestED0Ev, ptr @_ZN7testing8internal15TestFactoryImplI35AdjacencyMatrix_VertexIterator_TestE10CreateTestEv] }, comdat, align 8
@_ZTSN7testing8internal15TestFactoryImplI35AdjacencyMatrix_VertexIterator_TestEE = linkonce_odr hidden constant [76 x i8] c"N7testing8internal15TestFactoryImplI35AdjacencyMatrix_VertexIterator_TestEE\00", comdat, align 1
@_ZTIN7testing8internal15TestFactoryImplI35AdjacencyMatrix_VertexIterator_TestEE = linkonce_odr hidden constant { ptr, ptr, ptr } { ptr getelementptr inbounds (ptr, ptr @_ZTVN10__cxxabiv120__si_class_type_infoE, i64 2), ptr @_ZTSN7testing8internal15TestFactoryImplI35AdjacencyMatrix_VertexIterator_TestEE, ptr @_ZTIN7testing8internal15TestFactoryBaseE }, comdat, align 8
@_ZTVN7testing8internal15TestFactoryImplI33AdjacencyMatrix_EdgeIterator_TestEE = linkonce_odr hidden unnamed_addr constant { [5 x ptr] } { [5 x ptr] [ptr null, ptr @_ZTIN7testing8internal15TestFactoryImplI33AdjacencyMatrix_EdgeIterator_TestEE, ptr @_ZN7testing8internal15TestFactoryBaseD2Ev, ptr @_ZN7testing8internal15TestFactoryImplI33AdjacencyMatrix_EdgeIterator_TestED0Ev, ptr @_ZN7testing8internal15TestFactoryImplI33AdjacencyMatrix_EdgeIterator_TestE10CreateTestEv] }, comdat, align 8
@_ZTSN7testing8internal15TestFactoryImplI33AdjacencyMatrix_EdgeIterator_TestEE = linkonce_odr hidden constant [74 x i8] c"N7testing8internal15TestFactoryImplI33AdjacencyMatrix_EdgeIterator_TestEE\00", comdat, align 1
@_ZTIN7testing8internal15TestFactoryImplI33AdjacencyMatrix_EdgeIterator_TestEE = linkonce_odr hidden constant { ptr, ptr, ptr } { ptr getelementptr inbounds (ptr, ptr @_ZTVN10__cxxabiv120__si_class_type_infoE, i64 2), ptr @_ZTSN7testing8internal15TestFactoryImplI33AdjacencyMatrix_EdgeIterator_TestEE, ptr @_ZTIN7testing8internal15TestFactoryBaseE }, comdat, align 8
@_ZTVN7testing8internal15TestFactoryImplI29AdjacencyMatrix_Vertices_TestEE = linkonce_odr hidden unnamed_addr constant { [5 x ptr] } { [5 x ptr] [ptr null, ptr @_ZTIN7testing8internal15TestFactoryImplI29AdjacencyMatrix_Vertices_TestEE, ptr @_ZN7testing8internal15TestFactoryBaseD2Ev, ptr @_ZN7testing8internal15TestFactoryImplI29AdjacencyMatrix_Vertices_TestED0Ev, ptr @_ZN7testing8internal15TestFactoryImplI29AdjacencyMatrix_Vertices_TestE10CreateTestEv] }, comdat, align 8
@_ZTSN7testing8internal15TestFactoryImplI29AdjacencyMatrix_Vertices_TestEE = linkonce_odr hidden constant [70 x i8] c"N7testing8internal15TestFactoryImplI29AdjacencyMatrix_Vertices_TestEE\00", comdat, align 1
@_ZTIN7testing8internal15TestFactoryImplI29AdjacencyMatrix_Vertices_TestEE = linkonce_odr hidden constant { ptr, ptr, ptr } { ptr getelementptr inbounds (ptr, ptr @_ZTVN10__cxxabiv120__si_class_type_infoE, i64 2), ptr @_ZTSN7testing8internal15TestFactoryImplI29AdjacencyMatrix_Vertices_TestEE, ptr @_ZTIN7testing8internal15TestFactoryBaseE }, comdat, align 8
@_ZTVN7testing8internal15TestFactoryImplI34AdjacencyMatrix_EdgesDirected_TestEE = linkonce_odr hidden unnamed_addr constant { [5 x ptr] } { [5 x ptr] [ptr null, ptr @_ZTIN7testing8internal15TestFactoryImplI34AdjacencyMatrix_EdgesDirected_TestEE, ptr @_ZN7testing8internal15TestFactoryBaseD2Ev, ptr @_ZN7testing8internal15TestFactoryImplI34AdjacencyMatrix_EdgesDirected_TestED0Ev, ptr @_ZN7testing8internal15TestFactoryImplI34AdjacencyMatrix_EdgesDirected_TestE10CreateTestEv] }, comdat, align 8
@_ZTSN7testing8internal15TestFactoryImplI34AdjacencyMatrix_EdgesDirected_TestEE = linkonce_odr hidden constant [75 x i8] c"N7testing8internal15TestFactoryImplI34AdjacencyMatrix_EdgesDirected_TestEE\00", comdat, align 1
@_ZTIN7testing8internal15TestFactoryImplI34AdjacencyMatrix_EdgesDirected_TestEE = linkonce_odr hidden constant { ptr, ptr, ptr } { ptr getelementptr inbounds (ptr, ptr @_ZTVN10__cxxabiv120__si_class_type_infoE, i64 2), ptr @_ZTSN7testing8internal15TestFactoryImplI34AdjacencyMatrix_EdgesDirected_TestEE, ptr @_ZTIN7testing8internal15TestFactoryBaseE }, comdat, align 8
@_ZTVN7testing8internal15TestFactoryImplI46AdjacencyMatrix_EdgesBackwardOnlyDirected_TestEE = linkonce_odr hidden unnamed_addr constant { [5 x ptr] } { [5 x ptr] [ptr null, ptr @_ZTIN7testing8internal15TestFactoryImplI46AdjacencyMatrix_EdgesBackwardOnlyDirected_TestEE, ptr @_ZN7testing8internal15TestFactoryBaseD2Ev, ptr @_ZN7testing8internal15TestFactoryImplI46AdjacencyMatrix_EdgesBackwardOnlyDirected_TestED0Ev, ptr @_ZN7testing8internal15TestFactoryImplI46AdjacencyMatrix_EdgesBackwardOnlyDirected_TestE10CreateTestEv] }, comdat, align 8
@_ZTSN7testing8internal15TestFactoryImplI46AdjacencyMatrix_EdgesBackwardOnlyDirected_TestEE = linkonce_odr hidden constant [87 x i8] c"N7testing8internal15TestFactoryImplI46AdjacencyMatrix_EdgesBackwardOnlyDirected_TestEE\00", comdat, align 1
@_ZTIN7testing8internal15TestFactoryImplI46AdjacencyMatrix_EdgesBackwardOnlyDirected_TestEE = linkonce_odr hidden constant { ptr, ptr, ptr } { ptr getelementptr inbounds (ptr, ptr @_ZTVN10__cxxabiv120__si_class_type_infoE, i64 2), ptr @_ZTSN7testing8internal15TestFactoryImplI46AdjacencyMatrix_EdgesBackwardOnlyDirected_TestEE, ptr @_ZTIN7testing8internal15TestFactoryBaseE }, comdat, align 8
@_ZTVN7testing8internal15TestFactoryImplI36AdjacencyMatrix_EdgesUndirected_TestEE = linkonce_odr hidden unnamed_addr constant { [5 x ptr] } { [5 x ptr] [ptr null, ptr @_ZTIN7testing8internal15TestFactoryImplI36AdjacencyMatrix_EdgesUndirected_TestEE, ptr @_ZN7testing8internal15TestFactoryBaseD2Ev, ptr @_ZN7testing8internal15TestFactoryImplI36AdjacencyMatrix_EdgesUndirected_TestED0Ev, ptr @_ZN7testing8internal15TestFactoryImplI36AdjacencyMatrix_EdgesUndirected_TestE10CreateTestEv] }, comdat, align 8
@_ZTSN7testing8internal15TestFactoryImplI36AdjacencyMatrix_EdgesUndirected_TestEE = linkonce_odr hidden constant [77 x i8] c"N7testing8internal15TestFactoryImplI36AdjacencyMatrix_EdgesUndirected_TestEE\00", comdat, align 1
@_ZTIN7testing8internal15TestFactoryImplI36AdjacencyMatrix_EdgesUndirected_TestEE = linkonce_odr hidden constant { ptr, ptr, ptr } { ptr getelementptr inbounds (ptr, ptr @_ZTVN10__cxxabiv120__si_class_type_infoE, i64 2), ptr @_ZTSN7testing8internal15TestFactoryImplI36AdjacencyMatrix_EdgesUndirected_TestEE, ptr @_ZTIN7testing8internal15TestFactoryBaseE }, comdat, align 8
@_ZTVN7testing8internal15TestFactoryImplI48AdjacencyMatrix_EdgesBackwardOnlyUndirected_TestEE = linkonce_odr hidden unnamed_addr constant { [5 x ptr] } { [5 x ptr] [ptr null, ptr @_ZTIN7testing8internal15TestFactoryImplI48AdjacencyMatrix_EdgesBackwardOnlyUndirected_TestEE, ptr @_ZN7testing8internal15TestFactoryBaseD2Ev, ptr @_ZN7testing8internal15TestFactoryImplI48AdjacencyMatrix_EdgesBackwardOnlyUndirected_TestED0Ev, ptr @_ZN7testing8internal15TestFactoryImplI48AdjacencyMatrix_EdgesBackwardOnlyUndirected_TestE10CreateTestEv] }, comdat, align 8
@_ZTSN7testing8internal15TestFactoryImplI48AdjacencyMatrix_EdgesBackwardOnlyUndirected_TestEE = linkonce_odr hidden constant [89 x i8] c"N7testing8internal15TestFactoryImplI48AdjacencyMatrix_EdgesBackwardOnlyUndirected_TestEE\00", comdat, align 1
@_ZTIN7testing8internal15TestFactoryImplI48AdjacencyMatrix_EdgesBackwardOnlyUndirected_TestEE = linkonce_odr hidden constant { ptr, ptr, ptr } { ptr getelementptr inbounds (ptr, ptr @_ZTVN10__cxxabiv120__si_class_type_infoE, i64 2), ptr @_ZTSN7testing8internal15TestFactoryImplI48AdjacencyMatrix_EdgesBackwardOnlyUndirected_TestEE, ptr @_ZTIN7testing8internal15TestFactoryBaseE }, comdat, align 8
@_ZTVN7testing8internal15TestFactoryImplI37AdjacencyMatrix_OutEdgesDirected_TestEE = linkonce_odr hidden unnamed_addr constant { [5 x ptr] } { [5 x ptr] [ptr null, ptr @_ZTIN7testing8internal15TestFactoryImplI37AdjacencyMatrix_OutEdgesDirected_TestEE, ptr @_ZN7testing8internal15TestFactoryBaseD2Ev, ptr @_ZN7testing8internal15TestFactoryImplI37AdjacencyMatrix_OutEdgesDirected_TestED0Ev, ptr @_ZN7testing8internal15TestFactoryImplI37AdjacencyMatrix_OutEdgesDirected_TestE10CreateTestEv] }, comdat, align 8
@_ZTSN7testing8internal15TestFactoryImplI37AdjacencyMatrix_OutEdgesDirected_TestEE = linkonce_odr hidden constant [78 x i8] c"N7testing8internal15TestFactoryImplI37AdjacencyMatrix_OutEdgesDirected_TestEE\00", comdat, align 1
@_ZTIN7testing8internal15TestFactoryImplI37AdjacencyMatrix_OutEdgesDirected_TestEE = linkonce_odr hidden constant { ptr, ptr, ptr } { ptr getelementptr inbounds (ptr, ptr @_ZTVN10__cxxabiv120__si_class_type_infoE, i64 2), ptr @_ZTSN7testing8internal15TestFactoryImplI37AdjacencyMatrix_OutEdgesDirected_TestEE, ptr @_ZTIN7testing8internal15TestFactoryBaseE }, comdat, align 8
@_ZTVN7testing8internal15TestFactoryImplI49AdjacencyMatrix_OutEdgesBackwardOnlyDirected_TestEE = linkonce_odr hidden unnamed_addr constant { [5 x ptr] } { [5 x ptr] [ptr null, ptr @_ZTIN7testing8internal15TestFactoryImplI49AdjacencyMatrix_OutEdgesBackwardOnlyDirected_TestEE, ptr @_ZN7testing8internal15TestFactoryBaseD2Ev, ptr @_ZN7testing8internal15TestFactoryImplI49AdjacencyMatrix_OutEdgesBackwardOnlyDirected_TestED0Ev, ptr @_ZN7testing8internal15TestFactoryImplI49AdjacencyMatrix_OutEdgesBackwardOnlyDirected_TestE10CreateTestEv] }, comdat, align 8
@_ZTSN7testing8internal15TestFactoryImplI49AdjacencyMatrix_OutEdgesBackwardOnlyDirected_TestEE = linkonce_odr hidden constant [90 x i8] c"N7testing8internal15TestFactoryImplI49AdjacencyMatrix_OutEdgesBackwardOnlyDirected_TestEE\00", comdat, align 1
@_ZTIN7testing8internal15TestFactoryImplI49AdjacencyMatrix_OutEdgesBackwardOnlyDirected_TestEE = linkonce_odr hidden constant { ptr, ptr, ptr } { ptr getelementptr inbounds (ptr, ptr @_ZTVN10__cxxabiv120__si_class_type_infoE, i64 2), ptr @_ZTSN7testing8internal15TestFactoryImplI49AdjacencyMatrix_OutEdgesBackwardOnlyDirected_TestEE, ptr @_ZTIN7testing8internal15TestFactoryBaseE }, comdat, align 8
@_ZTVN7testing8internal15TestFactoryImplI39AdjacencyMatrix_OutEdgesUndirected_TestEE = linkonce_odr hidden unnamed_addr constant { [5 x ptr] } { [5 x ptr] [ptr null, ptr @_ZTIN7testing8internal15TestFactoryImplI39AdjacencyMatrix_OutEdgesUndirected_TestEE, ptr @_ZN7testing8internal15TestFactoryBaseD2Ev, ptr @_ZN7testing8internal15TestFactoryImplI39AdjacencyMatrix_OutEdgesUndirected_TestED0Ev, ptr @_ZN7testing8internal15TestFactoryImplI39AdjacencyMatrix_OutEdgesUndirected_TestE10CreateTestEv] }, comdat, align 8
@_ZTSN7testing8internal15TestFactoryImplI39AdjacencyMatrix_OutEdgesUndirected_TestEE = linkonce_odr hidden constant [80 x i8] c"N7testing8internal15TestFactoryImplI39AdjacencyMatrix_OutEdgesUndirected_TestEE\00", comdat, align 1
@_ZTIN7testing8internal15TestFactoryImplI39AdjacencyMatrix_OutEdgesUndirected_TestEE = linkonce_odr hidden constant { ptr, ptr, ptr } { ptr getelementptr inbounds (ptr, ptr @_ZTVN10__cxxabiv120__si_class_type_infoE, i64 2), ptr @_ZTSN7testing8internal15TestFactoryImplI39AdjacencyMatrix_OutEdgesUndirected_TestEE, ptr @_ZTIN7testing8internal15TestFactoryBaseE }, comdat, align 8
@_ZTVN7testing8internal15TestFactoryImplI51AdjacencyMatrix_OutEdgesBackwardOnlyUndirected_TestEE = linkonce_odr hidden unnamed_addr constant { [5 x ptr] } { [5 x ptr] [ptr null, ptr @_ZTIN7testing8internal15TestFactoryImplI51AdjacencyMatrix_OutEdgesBackwardOnlyUndirected_TestEE, ptr @_ZN7testing8internal15TestFactoryBaseD2Ev, ptr @_ZN7testing8internal15TestFactoryImplI51AdjacencyMatrix_OutEdgesBackwardOnlyUndirected_TestED0Ev, ptr @_ZN7testing8internal15TestFactoryImplI51AdjacencyMatrix_OutEdgesBackwardOnlyUndirected_TestE10CreateTestEv] }, comdat, align 8
@_ZTSN7testing8internal15TestFactoryImplI51AdjacencyMatrix_OutEdgesBackwardOnlyUndirected_TestEE = linkonce_odr hidden constant [92 x i8] c"N7testing8internal15TestFactoryImplI51AdjacencyMatrix_OutEdgesBackwardOnlyUndirected_TestEE\00", comdat, align 1
@_ZTIN7testing8internal15TestFactoryImplI51AdjacencyMatrix_OutEdgesBackwardOnlyUndirected_TestEE = linkonce_odr hidden constant { ptr, ptr, ptr } { ptr getelementptr inbounds (ptr, ptr @_ZTVN10__cxxabiv120__si_class_type_infoE, i64 2), ptr @_ZTSN7testing8internal15TestFactoryImplI51AdjacencyMatrix_OutEdgesBackwardOnlyUndirected_TestEE, ptr @_ZTIN7testing8internal15TestFactoryBaseE }, comdat, align 8
@_ZTVN7testing8internal15TestFactoryImplI36AdjacencyMatrix_InEdgesDirected_TestEE = linkonce_odr hidden unnamed_addr constant { [5 x ptr] } { [5 x ptr] [ptr null, ptr @_ZTIN7testing8internal15TestFactoryImplI36AdjacencyMatrix_InEdgesDirected_TestEE, ptr @_ZN7testing8internal15TestFactoryBaseD2Ev, ptr @_ZN7testing8internal15TestFactoryImplI36AdjacencyMatrix_InEdgesDirected_TestED0Ev, ptr @_ZN7testing8internal15TestFactoryImplI36AdjacencyMatrix_InEdgesDirected_TestE10CreateTestEv] }, comdat, align 8
@_ZTSN7testing8internal15TestFactoryImplI36AdjacencyMatrix_InEdgesDirected_TestEE = linkonce_odr hidden constant [77 x i8] c"N7testing8internal15TestFactoryImplI36AdjacencyMatrix_InEdgesDirected_TestEE\00", comdat, align 1
@_ZTIN7testing8internal15TestFactoryImplI36AdjacencyMatrix_InEdgesDirected_TestEE = linkonce_odr hidden constant { ptr, ptr, ptr } { ptr getelementptr inbounds (ptr, ptr @_ZTVN10__cxxabiv120__si_class_type_infoE, i64 2), ptr @_ZTSN7testing8internal15TestFactoryImplI36AdjacencyMatrix_InEdgesDirected_TestEE, ptr @_ZTIN7testing8internal15TestFactoryBaseE }, comdat, align 8
@_ZTVN7testing8internal15TestFactoryImplI48AdjacencyMatrix_InEdgesBackwardOnlyDirected_TestEE = linkonce_odr hidden unnamed_addr constant { [5 x ptr] } { [5 x ptr] [ptr null, ptr @_ZTIN7testing8internal15TestFactoryImplI48AdjacencyMatrix_InEdgesBackwardOnlyDirected_TestEE, ptr @_ZN7testing8internal15TestFactoryBaseD2Ev, ptr @_ZN7testing8internal15TestFactoryImplI48AdjacencyMatrix_InEdgesBackwardOnlyDirected_TestED0Ev, ptr @_ZN7testing8internal15TestFactoryImplI48AdjacencyMatrix_InEdgesBackwardOnlyDirected_TestE10CreateTestEv] }, comdat, align 8
@_ZTSN7testing8internal15TestFactoryImplI48AdjacencyMatrix_InEdgesBackwardOnlyDirected_TestEE = linkonce_odr hidden constant [89 x i8] c"N7testing8internal15TestFactoryImplI48AdjacencyMatrix_InEdgesBackwardOnlyDirected_TestEE\00", comdat, align 1
@_ZTIN7testing8internal15TestFactoryImplI48AdjacencyMatrix_InEdgesBackwardOnlyDirected_TestEE = linkonce_odr hidden constant { ptr, ptr, ptr } { ptr getelementptr inbounds (ptr, ptr @_ZTVN10__cxxabiv120__si_class_type_infoE, i64 2), ptr @_ZTSN7testing8internal15TestFactoryImplI48AdjacencyMatrix_InEdgesBackwardOnlyDirected_TestEE, ptr @_ZTIN7testing8internal15TestFactoryBaseE }, comdat, align 8
@_ZTVN7testing8internal15TestFactoryImplI38AdjacencyMatrix_InEdgesUndirected_TestEE = linkonce_odr hidden unnamed_addr constant { [5 x ptr] } { [5 x ptr] [ptr null, ptr @_ZTIN7testing8internal15TestFactoryImplI38AdjacencyMatrix_InEdgesUndirected_TestEE, ptr @_ZN7testing8internal15TestFactoryBaseD2Ev, ptr @_ZN7testing8internal15TestFactoryImplI38AdjacencyMatrix_InEdgesUndirected_TestED0Ev, ptr @_ZN7testing8internal15TestFactoryImplI38AdjacencyMatrix_InEdgesUndirected_TestE10CreateTestEv] }, comdat, align 8
@_ZTSN7testing8internal15TestFactoryImplI38AdjacencyMatrix_InEdgesUndirected_TestEE = linkonce_odr hidden constant [79 x i8] c"N7testing8internal15TestFactoryImplI38AdjacencyMatrix_InEdgesUndirected_TestEE\00", comdat, align 1
@_ZTIN7testing8internal15TestFactoryImplI38AdjacencyMatrix_InEdgesUndirected_TestEE = linkonce_odr hidden constant { ptr, ptr, ptr } { ptr getelementptr inbounds (ptr, ptr @_ZTVN10__cxxabiv120__si_class_type_infoE, i64 2), ptr @_ZTSN7testing8internal15TestFactoryImplI38AdjacencyMatrix_InEdgesUndirected_TestEE, ptr @_ZTIN7testing8internal15TestFactoryBaseE }, comdat, align 8
@_ZTVN7testing8internal15TestFactoryImplI50AdjacencyMatrix_InEdgesBackwardOnlyUndirected_TestEE = linkonce_odr hidden unnamed_addr constant { [5 x ptr] } { [5 x ptr] [ptr null, ptr @_ZTIN7testing8internal15TestFactoryImplI50AdjacencyMatrix_InEdgesBackwardOnlyUndirected_TestEE, ptr @_ZN7testing8internal15TestFactoryBaseD2Ev, ptr @_ZN7testing8internal15TestFactoryImplI50AdjacencyMatrix_InEdgesBackwardOnlyUndirected_TestED0Ev, ptr @_ZN7testing8internal15TestFactoryImplI50AdjacencyMatrix_InEdgesBackwardOnlyUndirected_TestE10CreateTestEv] }, comdat, align 8
@_ZTSN7testing8internal15TestFactoryImplI50AdjacencyMatrix_InEdgesBackwardOnlyUndirected_TestEE = linkonce_odr hidden constant [91 x i8] c"N7testing8internal15TestFactoryImplI50AdjacencyMatrix_InEdgesBackwardOnlyUndirected_TestEE\00", comdat, align 1
@_ZTIN7testing8internal15TestFactoryImplI50AdjacencyMatrix_InEdgesBackwardOnlyUndirected_TestEE = linkonce_odr hidden constant { ptr, ptr, ptr } { ptr getelementptr inbounds (ptr, ptr @_ZTVN10__cxxabiv120__si_class_type_infoE, i64 2), ptr @_ZTSN7testing8internal15TestFactoryImplI50AdjacencyMatrix_InEdgesBackwardOnlyUndirected_TestEE, ptr @_ZTIN7testing8internal15TestFactoryBaseE }, comdat, align 8
@_ZTVN7testing8internal15TestFactoryImplI38AdjacencyMatrix_ThrowingAllocator_TestEE = linkonce_odr hidden unnamed_addr constant { [5 x ptr] } { [5 x ptr] [ptr null, ptr @_ZTIN7testing8internal15TestFactoryImplI38AdjacencyMatrix_ThrowingAllocator_TestEE, ptr @_ZN7testing8internal15TestFactoryBaseD2Ev, ptr @_ZN7testing8internal15TestFactoryImplI38AdjacencyMatrix_ThrowingAllocator_TestED0Ev, ptr @_ZN7testing8internal15TestFactoryImplI38AdjacencyMatrix_ThrowingAllocator_TestE10CreateTestEv] }, comdat, align 8
@_ZTSN7testing8internal15TestFactoryImplI38AdjacencyMatrix_ThrowingAllocator_TestEE = linkonce_odr hidden constant [79 x i8] c"N7testing8internal15TestFactoryImplI38AdjacencyMatrix_ThrowingAllocator_TestEE\00", comdat, align 1
@_ZTIN7testing8internal15TestFactoryImplI38AdjacencyMatrix_ThrowingAllocator_TestEE = linkonce_odr hidden constant { ptr, ptr, ptr } { ptr getelementptr inbounds (ptr, ptr @_ZTVN10__cxxabiv120__si_class_type_infoE, i64 2), ptr @_ZTSN7testing8internal15TestFactoryImplI38AdjacencyMatrix_ThrowingAllocator_TestEE, ptr @_ZTIN7testing8internal15TestFactoryBaseE }, comdat, align 8
@__libc_single_threaded = external local_unnamed_addr global i8, align 1
@_ZZN7testing8internal31CanonicalizeForStdLibVersioningENSt7__cxx1112basic_stringIcSt11char_traitsIcESaIcEEEE6prefix = linkonce_odr hidden constant [8 x i8] c"std::__\00", comdat, align 1
@.str.106 = private unnamed_addr constant [3 x i8] c"::\00", align 1
@.str.107 = private unnamed_addr constant [20 x i8] c"basic_string::erase\00", align 1
@.str.108 = private unnamed_addr constant [55 x i8] c"%s: __pos (which is %zu) > this->size() (which is %zu)\00", align 1
@.str.109 = private unnamed_addr constant [50 x i8] c"basic_string: construction from null is not valid\00", align 1
@.str.110 = private unnamed_addr constant [54 x i8] c"generated/usr/include/gtest/internal/gtest-internal.h\00", align 1
@.str.111 = private unnamed_addr constant [51 x i8] c"Condition !test_case_fp || !test_suite_fp failed. \00", align 1
@.str.112 = private unnamed_addr constant [107 x i8] c"Test can not provide both SetUpTestSuite and SetUpTestCase, please make sure there is only one present at \00", align 1
@.str.113 = private unnamed_addr constant [2 x i8] c":\00", align 1
@_ZSt4cerr = external global %"class.std::basic_ostream", align 8
@.str.114 = private unnamed_addr constant [112 x i8] c"Test can not provide both TearDownTestSuite and TearDownTestCase, please make sure there is only one present at\00", align 1
@.str.115 = private unnamed_addr constant [49 x i8] c"cannot create std::vector larger than max_size()\00", align 1
@_ZTTNSt7__cxx1118basic_stringstreamIcSt11char_traitsIcESaIcEEE = external unnamed_addr constant [10 x ptr], align 8
@_ZTVNSt7__cxx1115basic_stringbufIcSt11char_traitsIcESaIcEEE = external unnamed_addr constant { [16 x ptr] }, align 8
@_ZTVSt15basic_streambufIcSt11char_traitsIcEE = external unnamed_addr constant { [16 x ptr] }, align 8
@.str.117 = private unnamed_addr constant [3 x i8] c"!=\00", align 1
@.str.118 = private unnamed_addr constant [12 x i8] c"Expected: (\00", align 1
@.str.119 = private unnamed_addr constant [3 x i8] c") \00", align 1
@.str.120 = private unnamed_addr constant [3 x i8] c" (\00", align 1
@.str.121 = private unnamed_addr constant [12 x i8] c"), actual: \00", align 1
@.str.122 = private unnamed_addr constant [5 x i8] c" vs \00", align 1
@.str.123 = private unnamed_addr constant [21 x i8] c"basic_string::append\00", align 1
@.str.124 = private unnamed_addr constant [7 x i8] c"(null)\00", align 1
@.str.125 = private unnamed_addr constant [3 x i8] c", \00", align 1
@_ZTVSt23_Sp_counted_ptr_inplaceIN4entt9dense_mapIjmSt4hashIjESt8equal_toIjESaISt4pairIKjmEEEESaImELN9__gnu_cxx12_Lock_policyE2EE = linkonce_odr hidden unnamed_addr constant { [7 x ptr] } { [7 x ptr] [ptr null, ptr @_ZTISt23_Sp_counted_ptr_inplaceIN4entt9dense_mapIjmSt4hashIjESt8equal_toIjESaISt4pairIKjmEEEESaImELN9__gnu_cxx12_Lock_policyE2EE, ptr @_ZNSt23_Sp_counted_ptr_inplaceIN4entt9dense_mapIjmSt4hashIjESt8equal_toIjESaISt4pairIKjmEEEESaImELN9__gnu_cxx12_Lock_policyE2EED2Ev, ptr @_ZNSt23_Sp_counted_ptr_inplaceIN4entt9dense_mapIjmSt4hashIjESt8equal_toIjESaISt4pairIKjmEEEESaImELN9__gnu_cxx12_Lock_policyE2EED0Ev, ptr @_ZNSt23_Sp_counted_ptr_inplaceIN4entt9dense_mapIjmSt4hashIjESt8equal_toIjESaISt4pairIKjmEEEESaImELN9__gnu_cxx12_Lock_policyE2EE10_M_disposeEv, ptr @_ZNSt23_Sp_counted_ptr_inplaceIN4entt9dense_mapIjmSt4hashIjESt8equal_toIjESaISt4pairIKjmEEEESaImELN9__gnu_cxx12_Lock_policyE2EE10_M_destroyEv, ptr @_ZNSt23_Sp_counted_ptr_inplaceIN4entt9dense_mapIjmSt4hashIjESt8equal_toIjESaISt4pairIKjmEEEESaImELN9__gnu_cxx12_Lock_policyE2EE14_M_get_deleterERKSt9type_info] }, comdat, align 8
@_ZTSSt23_Sp_counted_ptr_inplaceIN4entt9dense_mapIjmSt4hashIjESt8equal_toIjESaISt4pairIKjmEEEESaImELN9__gnu_cxx12_Lock_policyE2EE = linkonce_odr hidden constant [125 x i8] c"St23_Sp_counted_ptr_inplaceIN4entt9dense_mapIjmSt4hashIjESt8equal_toIjESaISt4pairIKjmEEEESaImELN9__gnu_cxx12_Lock_policyE2EE\00", comdat, align 1
@_ZTSSt16_Sp_counted_baseILN9__gnu_cxx12_Lock_policyE2EE = linkonce_odr dso_local constant [52 x i8] c"St16_Sp_counted_baseILN9__gnu_cxx12_Lock_policyE2EE\00", comdat, align 1
@_ZTSSt11_Mutex_baseILN9__gnu_cxx12_Lock_policyE2EE = linkonce_odr dso_local constant [47 x i8] c"St11_Mutex_baseILN9__gnu_cxx12_Lock_policyE2EE\00", comdat, align 1
@_ZTISt11_Mutex_baseILN9__gnu_cxx12_Lock_policyE2EE = linkonce_odr dso_local constant { ptr, ptr } { ptr getelementptr inbounds (ptr, ptr @_ZTVN10__cxxabiv117__class_type_infoE, i64 2), ptr @_ZTSSt11_Mutex_baseILN9__gnu_cxx12_Lock_policyE2EE }, comdat, align 8
@_ZTISt16_Sp_counted_baseILN9__gnu_cxx12_Lock_policyE2EE = linkonce_odr dso_local constant { ptr, ptr, ptr } { ptr getelementptr inbounds (ptr, ptr @_ZTVN10__cxxabiv120__si_class_type_infoE, i64 2), ptr @_ZTSSt16_Sp_counted_baseILN9__gnu_cxx12_Lock_policyE2EE, ptr @_ZTISt11_Mutex_baseILN9__gnu_cxx12_Lock_policyE2EE }, comdat, align 8
@_ZTISt23_Sp_counted_ptr_inplaceIN4entt9dense_mapIjmSt4hashIjESt8equal_toIjESaISt4pairIKjmEEEESaImELN9__gnu_cxx12_Lock_policyE2EE = linkonce_odr hidden constant { ptr, ptr, ptr } { ptr getelementptr inbounds (ptr, ptr @_ZTVN10__cxxabiv120__si_class_type_infoE, i64 2), ptr @_ZTSSt23_Sp_counted_ptr_inplaceIN4entt9dense_mapIjmSt4hashIjESt8equal_toIjESaISt4pairIKjmEEEESaImELN9__gnu_cxx12_Lock_policyE2EE, ptr @_ZTISt16_Sp_counted_baseILN9__gnu_cxx12_Lock_policyE2EE }, comdat, align 8
@.str.126 = private unnamed_addr constant [26 x i8] c"vector::_M_default_append\00", align 1
@_ZTSSt19_Sp_make_shared_tag = linkonce_odr dso_local constant [24 x i8] c"St19_Sp_make_shared_tag\00", comdat, align 1
@_ZZNSt19_Sp_make_shared_tag5_S_tiEvE5__tag = linkonce_odr dso_local constant [16 x i8] zeroinitializer, comdat, align 8
@_ZZN4entt7type_idImEERKNS_9type_infoEvE8instance = linkonce_odr hidden global %"struct.entt::type_info" zeroinitializer, comdat, align 8
@_ZGVZN4entt7type_idImEERKNS_9type_infoEvE8instance = linkonce_odr hidden global i64 0, comdat, align 8
@_ZZN4entt10type_indexImvE5valueEvE5value = linkonce_odr hidden global i32 0, comdat, align 4
@_ZGVZN4entt10type_indexImvE5valueEvE5value = linkonce_odr hidden global i64 0, comdat, align 8
@_ZZN4entt8internal10type_index4nextEvE5value = linkonce_odr hidden local_unnamed_addr global i32 0, comdat, align 4
@.str.127 = private unnamed_addr constant [65 x i8] c"auto entt::internal::stripped_type_name() [Type = unsigned long]\00", align 1
@.str.128 = private unnamed_addr constant [26 x i8] c"vector::_M_realloc_insert\00", align 1
@llvm.global_ctors = appending global [1 x { i32, ptr, ptr }] [{ i32, ptr, ptr } { i32 65535, ptr @_GLOBAL__sub_I_adjacency_matrix.cpp, ptr null }]

declare void @_ZNSt8ios_base4InitC1Ev(ptr noundef nonnull align 1 dereferenceable(1)) unnamed_addr #0

; Function Attrs: nounwind
declare void @_ZNSt8ios_base4InitD1Ev(ptr noundef nonnull align 1 dereferenceable(1)) unnamed_addr #1

; Function Attrs: nofree nounwind
declare i32 @__cxa_atexit(ptr, ptr, ptr) local_unnamed_addr #2

declare noundef ptr @_ZN7testing8internal23MakeAndRegisterTestInfoEPKcS2_S2_S2_NS0_12CodeLocationEPKvPFvvES7_PNS0_15TestFactoryBaseE(ptr noundef, ptr noundef, ptr noundef, ptr noundef, ptr noundef, ptr noundef, ptr noundef, ptr noundef, ptr noundef) local_unnamed_addr #0

; Function Attrs: mustprogress nocallback nofree nosync nounwind willreturn memory(argmem: readwrite)
declare void @llvm.lifetime.start.p0(i64 immarg, ptr nocapture) #3

declare i32 @__gxx_personality_v0(...)

declare noundef ptr @_ZN7testing8internal13GetTestTypeIdEv() local_unnamed_addr #0

; Function Attrs: mustprogress uwtable
define linkonce_odr hidden noundef ptr @_ZN7testing8internal16SuiteApiResolverINS_4TestEE19GetSetUpCaseOrSuiteEPKci(ptr noundef %filename, i32 noundef %line_num) local_unnamed_addr #4 comdat align 2 personality ptr @__gxx_personality_v0 {
entry:
  %ref.tmp = alloca %"class.testing::internal::GTestLog", align 4
  %call3 = tail call noundef zeroext i1 @_ZN7testing8internal6IsTrueEb(i1 noundef zeroext true)
  br i1 %call3, label %if.end, label %if.else

if.else:                                          ; preds = %entry
  call void @llvm.lifetime.start.p0(i64 4, ptr nonnull %ref.tmp) #21
  call void @_ZN7testing8internal8GTestLogC1ENS0_16GTestLogSeverityEPKci(ptr noundef nonnull align 4 dereferenceable(4) %ref.tmp, i32 noundef 3, ptr noundef nonnull @.str.110, i32 noundef 529)
  %call1.i19 = invoke noundef nonnull align 8 dereferenceable(8) ptr @_ZSt16__ostream_insertIcSt11char_traitsIcEERSt13basic_ostreamIT_T0_ES6_PKS3_l(ptr noundef nonnull align 8 dereferenceable(8) @_ZSt4cerr, ptr noundef nonnull @.str.111, i64 noundef 50)
          to label %invoke.cont5 unwind label %lpad

invoke.cont5:                                     ; preds = %if.else
  %call1.i21 = invoke noundef nonnull align 8 dereferenceable(8) ptr @_ZSt16__ostream_insertIcSt11char_traitsIcEERSt13basic_ostreamIT_T0_ES6_PKS3_l(ptr noundef nonnull align 8 dereferenceable(8) @_ZSt4cerr, ptr noundef nonnull @.str.112, i64 noundef 106)
          to label %invoke.cont7 unwind label %lpad

invoke.cont7:                                     ; preds = %invoke.cont5
  %tobool.not.i = icmp eq ptr %filename, null
  br i1 %tobool.not.i, label %if.then.i, label %if.else.i

if.then.i:                                        ; preds = %invoke.cont7
  %vtable.i = load ptr, ptr @_ZSt4cerr, align 8, !tbaa !4
  %vbase.offset.ptr.i = getelementptr i8, ptr %vtable.i, i64 -24
  %vbase.offset.i = load i64, ptr %vbase.offset.ptr.i, align 8
  %add.ptr.i = getelementptr inbounds i8, ptr @_ZSt4cerr, i64 %vbase.offset.i
  %_M_streambuf_state.i.i.i = getelementptr inbounds %"class.std::ios_base", ptr %add.ptr.i, i64 0, i32 5
  %0 = load i32, ptr %_M_streambuf_state.i.i.i, align 8, !tbaa !7
  %or.i.i.i = or i32 %0, 1
  invoke void @_ZNSt9basic_iosIcSt11char_traitsIcEE5clearESt12_Ios_Iostate(ptr noundef nonnull align 8 dereferenceable(264) %add.ptr.i, i32 noundef %or.i.i.i)
          to label %invoke.cont9 unwind label %lpad

if.else.i:                                        ; preds = %invoke.cont7
  %call.i.i23 = call noundef i64 @strlen(ptr noundef nonnull dereferenceable(1) %filename) #21
  %call1.i24 = invoke noundef nonnull align 8 dereferenceable(8) ptr @_ZSt16__ostream_insertIcSt11char_traitsIcEERSt13basic_ostreamIT_T0_ES6_PKS3_l(ptr noundef nonnull align 8 dereferenceable(8) @_ZSt4cerr, ptr noundef nonnull %filename, i64 noundef %call.i.i23)
          to label %invoke.cont9 unwind label %lpad

invoke.cont9:                                     ; preds = %if.else.i, %if.then.i
  %call1.i29 = invoke noundef nonnull align 8 dereferenceable(8) ptr @_ZSt16__ostream_insertIcSt11char_traitsIcEERSt13basic_ostreamIT_T0_ES6_PKS3_l(ptr noundef nonnull align 8 dereferenceable(8) @_ZSt4cerr, ptr noundef nonnull @.str.113, i64 noundef 1)
          to label %invoke.cont11 unwind label %lpad

invoke.cont11:                                    ; preds = %invoke.cont9
  %call14 = invoke noundef nonnull align 8 dereferenceable(8) ptr @_ZNSolsEi(ptr noundef nonnull align 8 dereferenceable(8) @_ZSt4cerr, i32 noundef %line_num)
          to label %invoke.cont13 unwind label %lpad

invoke.cont13:                                    ; preds = %invoke.cont11
  call void @_ZN7testing8internal8GTestLogD1Ev(ptr noundef nonnull align 4 dereferenceable(4) %ref.tmp) #21
  call void @llvm.lifetime.end.p0(i64 4, ptr nonnull %ref.tmp) #21
  br label %if.end

lpad:                                             ; preds = %invoke.cont11, %invoke.cont9, %if.else.i, %if.then.i, %invoke.cont5, %if.else
  %1 = landingpad { ptr, i32 }
          cleanup
  call void @_ZN7testing8internal8GTestLogD1Ev(ptr noundef nonnull align 4 dereferenceable(4) %ref.tmp) #21
  call void @llvm.lifetime.end.p0(i64 4, ptr nonnull %ref.tmp) #21
  resume { ptr, i32 } %1

if.end:                                           ; preds = %invoke.cont13, %entry
  ret ptr null
}

; Function Attrs: mustprogress uwtable
define linkonce_odr hidden noundef ptr @_ZN7testing8internal16SuiteApiResolverINS_4TestEE22GetTearDownCaseOrSuiteEPKci(ptr noundef %filename, i32 noundef %line_num) local_unnamed_addr #4 comdat align 2 personality ptr @__gxx_personality_v0 {
entry:
  %ref.tmp = alloca %"class.testing::internal::GTestLog", align 4
  %call3 = tail call noundef zeroext i1 @_ZN7testing8internal6IsTrueEb(i1 noundef zeroext true)
  br i1 %call3, label %if.end, label %if.else

if.else:                                          ; preds = %entry
  call void @llvm.lifetime.start.p0(i64 4, ptr nonnull %ref.tmp) #21
  call void @_ZN7testing8internal8GTestLogC1ENS0_16GTestLogSeverityEPKci(ptr noundef nonnull align 4 dereferenceable(4) %ref.tmp, i32 noundef 3, ptr noundef nonnull @.str.110, i32 noundef 550)
  %call1.i18 = invoke noundef nonnull align 8 dereferenceable(8) ptr @_ZSt16__ostream_insertIcSt11char_traitsIcEERSt13basic_ostreamIT_T0_ES6_PKS3_l(ptr noundef nonnull align 8 dereferenceable(8) @_ZSt4cerr, ptr noundef nonnull @.str.111, i64 noundef 50)
          to label %invoke.cont unwind label %lpad

invoke.cont:                                      ; preds = %if.else
  %call1.i20 = invoke noundef nonnull align 8 dereferenceable(8) ptr @_ZSt16__ostream_insertIcSt11char_traitsIcEERSt13basic_ostreamIT_T0_ES6_PKS3_l(ptr noundef nonnull align 8 dereferenceable(8) @_ZSt4cerr, ptr noundef nonnull @.str.114, i64 noundef 111)
          to label %invoke.cont6 unwind label %lpad

invoke.cont6:                                     ; preds = %invoke.cont
  %tobool.not.i = icmp eq ptr %filename, null
  br i1 %tobool.not.i, label %if.then.i, label %if.else.i

if.then.i:                                        ; preds = %invoke.cont6
  %vtable.i = load ptr, ptr @_ZSt4cerr, align 8, !tbaa !4
  %vbase.offset.ptr.i = getelementptr i8, ptr %vtable.i, i64 -24
  %vbase.offset.i = load i64, ptr %vbase.offset.ptr.i, align 8
  %add.ptr.i = getelementptr inbounds i8, ptr @_ZSt4cerr, i64 %vbase.offset.i
  %_M_streambuf_state.i.i.i = getelementptr inbounds %"class.std::ios_base", ptr %add.ptr.i, i64 0, i32 5
  %0 = load i32, ptr %_M_streambuf_state.i.i.i, align 8, !tbaa !7
  %or.i.i.i = or i32 %0, 1
  invoke void @_ZNSt9basic_iosIcSt11char_traitsIcEE5clearESt12_Ios_Iostate(ptr noundef nonnull align 8 dereferenceable(264) %add.ptr.i, i32 noundef %or.i.i.i)
          to label %invoke.cont8 unwind label %lpad

if.else.i:                                        ; preds = %invoke.cont6
  %call.i.i22 = call noundef i64 @strlen(ptr noundef nonnull dereferenceable(1) %filename) #21
  %call1.i23 = invoke noundef nonnull align 8 dereferenceable(8) ptr @_ZSt16__ostream_insertIcSt11char_traitsIcEERSt13basic_ostreamIT_T0_ES6_PKS3_l(ptr noundef nonnull align 8 dereferenceable(8) @_ZSt4cerr, ptr noundef nonnull %filename, i64 noundef %call.i.i22)
          to label %invoke.cont8 unwind label %lpad

invoke.cont8:                                     ; preds = %if.else.i, %if.then.i
  %call1.i28 = invoke noundef nonnull align 8 dereferenceable(8) ptr @_ZSt16__ostream_insertIcSt11char_traitsIcEERSt13basic_ostreamIT_T0_ES6_PKS3_l(ptr noundef nonnull align 8 dereferenceable(8) @_ZSt4cerr, ptr noundef nonnull @.str.113, i64 noundef 1)
          to label %invoke.cont10 unwind label %lpad

invoke.cont10:                                    ; preds = %invoke.cont8
  %call13 = invoke noundef nonnull align 8 dereferenceable(8) ptr @_ZNSolsEi(ptr noundef nonnull align 8 dereferenceable(8) @_ZSt4cerr, i32 noundef %line_num)
          to label %invoke.cont12 unwind label %lpad

invoke.cont12:                                    ; preds = %invoke.cont10
  call void @_ZN7testing8internal8GTestLogD1Ev(ptr noundef nonnull align 4 dereferenceable(4) %ref.tmp) #21
  call void @llvm.lifetime.end.p0(i64 4, ptr nonnull %ref.tmp) #21
  br label %if.end

lpad:                                             ; preds = %invoke.cont10, %invoke.cont8, %if.else.i, %if.then.i, %invoke.cont, %if.else
  %1 = landingpad { ptr, i32 }
          cleanup
  call void @_ZN7testing8internal8GTestLogD1Ev(ptr noundef nonnull align 4 dereferenceable(4) %ref.tmp) #21
  call void @llvm.lifetime.end.p0(i64 4, ptr nonnull %ref.tmp) #21
  resume { ptr, i32 } %1

if.end:                                           ; preds = %invoke.cont12, %entry
  ret ptr null
}

; Function Attrs: nobuiltin allocsize(0)
declare noundef nonnull ptr @_Znwm(i64 noundef) local_unnamed_addr #5

; Function Attrs: nobuiltin nounwind
declare void @_ZdlPv(ptr noundef) local_unnamed_addr #6

; Function Attrs: mustprogress nocallback nofree nosync nounwind willreturn memory(argmem: readwrite)
declare void @llvm.lifetime.end.p0(i64 immarg, ptr nocapture) #3

; Function Attrs: mustprogress nocallback nofree nosync nounwind willreturn memory(argmem: readwrite)
declare ptr @llvm.invariant.start.p0(i64 immarg, ptr nocapture) #3

; Function Attrs: mustprogress uwtable
define hidden void @_ZN27AdjacencyMatrix_Resize_Test8TestBodyEv(ptr nocapture nonnull readnone align 8 %this) unnamed_addr #4 align 2 personality ptr @__gxx_personality_v0 {
entry:
  %gtest_ar = alloca %"class.testing::AssertionResult", align 8
  %ref.tmp11 = alloca %"class.testing::Message", align 8
  %ref.tmp14 = alloca %"class.testing::internal::AssertHelper", align 8
  %gtest_ar_ = alloca %"class.testing::AssertionResult", align 8
  %ref.tmp37 = alloca %"class.testing::Message", align 8
  %ref.tmp40 = alloca %"class.testing::internal::AssertHelper", align 8
  %ref.tmp41 = alloca %"class.std::__cxx11::basic_string", align 8
  %gtest_ar64 = alloca %"class.testing::AssertionResult", align 8
  %ref.tmp77 = alloca %"class.testing::Message", align 8
  %ref.tmp80 = alloca %"class.testing::internal::AssertHelper", align 8
  %gtest_ar_98 = alloca %"class.testing::AssertionResult", align 8
  %ref.tmp111 = alloca %"class.testing::Message", align 8
  %ref.tmp114 = alloca %"class.testing::internal::AssertHelper", align 8
  %ref.tmp115 = alloca %"class.std::__cxx11::basic_string", align 8
  %call5.i.i.i.i4.i.i.i166 = tail call noalias noundef nonnull dereferenceable(32) ptr @_Znwm(i64 noundef 32) #22
  %incdec.ptr.i.i.i.i.i.i = getelementptr inbounds i64, ptr %call5.i.i.i.i4.i.i.i166, i64 1
  %add.ptr.i.i = getelementptr inbounds i64, ptr %call5.i.i.i.i4.i.i.i166, i64 2
  tail call void @llvm.memset.p0.i64(ptr noundef nonnull align 8 dereferenceable(32) %call5.i.i.i.i4.i.i.i166, i8 0, i64 32, i1 false)
  store i64 1, ptr %add.ptr.i.i, align 8, !tbaa !17, !noalias !18
  call void @llvm.lifetime.start.p0(i64 16, ptr nonnull %gtest_ar) #21
  invoke void @_ZN7testing16AssertionSuccessEv(ptr nonnull sret(%"class.testing::AssertionResult") align 8 %gtest_ar)
          to label %invoke.cont7 unwind label %lpad6

invoke.cont7:                                     ; preds = %entry
  %0 = load i8, ptr %gtest_ar, align 8, !tbaa !21, !range !30, !noundef !31
  %tobool.i.not = icmp eq i8 %0, 0
  br i1 %tobool.i.not, label %if.else, label %cleanup.cont.critedge

lpad6:                                            ; preds = %entry
  %1 = landingpad { ptr, i32 }
          cleanup
  br label %ehcleanup25

if.else:                                          ; preds = %invoke.cont7
  call void @llvm.lifetime.start.p0(i64 8, ptr nonnull %ref.tmp11) #21
  invoke void @_ZN7testing7MessageC1Ev(ptr noundef nonnull align 8 dereferenceable(8) %ref.tmp11)
          to label %invoke.cont13 unwind label %lpad12

invoke.cont13:                                    ; preds = %if.else
  call void @llvm.lifetime.start.p0(i64 8, ptr nonnull %ref.tmp14) #21
  %message_.i.i = getelementptr inbounds %"class.testing::AssertionResult", ptr %gtest_ar, i64 0, i32 1
  %2 = load ptr, ptr %message_.i.i, align 8, !tbaa !32
  %cmp.not.i.i170 = icmp eq ptr %2, null
  br i1 %cmp.not.i.i170, label %invoke.cont16, label %cond.true.i.i

cond.true.i.i:                                    ; preds = %invoke.cont13
  %3 = load ptr, ptr %2, align 8, !tbaa !33
  br label %invoke.cont16

invoke.cont16:                                    ; preds = %cond.true.i.i, %invoke.cont13
  %cond.i.i = phi ptr [ %3, %cond.true.i.i ], [ @.str.105, %invoke.cont13 ]
  invoke void @_ZN7testing8internal12AssertHelperC1ENS_14TestPartResult4TypeEPKciS5_(ptr noundef nonnull align 8 dereferenceable(8) %ref.tmp14, i32 noundef 2, ptr noundef nonnull @.str.3, i32 noundef 12, ptr noundef %cond.i.i)
          to label %invoke.cont18 unwind label %lpad15

invoke.cont18:                                    ; preds = %invoke.cont16
  invoke void @_ZNK7testing8internal12AssertHelperaSERKNS_7MessageE(ptr noundef nonnull align 8 dereferenceable(8) %ref.tmp14, ptr noundef nonnull align 8 dereferenceable(8) %ref.tmp11)
          to label %invoke.cont20 unwind label %lpad19

invoke.cont20:                                    ; preds = %invoke.cont18
  call void @_ZN7testing8internal12AssertHelperD1Ev(ptr noundef nonnull align 8 dereferenceable(8) %ref.tmp14) #21
  call void @llvm.lifetime.end.p0(i64 8, ptr nonnull %ref.tmp14) #21
  %4 = load ptr, ptr %ref.tmp11, align 8, !tbaa !32
  %cmp.not.i.i171 = icmp eq ptr %4, null
  br i1 %cmp.not.i.i171, label %_ZN7testing7MessageD2Ev.exit, label %_ZNKSt14default_deleteINSt7__cxx1118basic_stringstreamIcSt11char_traitsIcESaIcEEEEclEPS5_.exit.i.i

_ZNKSt14default_deleteINSt7__cxx1118basic_stringstreamIcSt11char_traitsIcESaIcEEEEclEPS5_.exit.i.i: ; preds = %invoke.cont20
  %vtable.i.i.i = load ptr, ptr %4, align 8, !tbaa !4
  %vfn.i.i.i = getelementptr inbounds ptr, ptr %vtable.i.i.i, i64 1
  %5 = load ptr, ptr %vfn.i.i.i, align 8
  call void %5(ptr noundef nonnull align 8 dereferenceable(128) %4) #21
  br label %_ZN7testing7MessageD2Ev.exit

_ZN7testing7MessageD2Ev.exit:                     ; preds = %_ZNKSt14default_deleteINSt7__cxx1118basic_stringstreamIcSt11char_traitsIcESaIcEEEEclEPS5_.exit.i.i, %invoke.cont20
  call void @llvm.lifetime.end.p0(i64 8, ptr nonnull %ref.tmp11) #21
  %6 = load ptr, ptr %message_.i.i, align 8, !tbaa !32
  %cmp.not.i.i172 = icmp eq ptr %6, null
  br i1 %cmp.not.i.i172, label %_ZN7testing15AssertionResultD2Ev.exit, label %delete.notnull.i.i.i

delete.notnull.i.i.i:                             ; preds = %_ZN7testing7MessageD2Ev.exit
  %7 = load ptr, ptr %6, align 8, !tbaa !33
  %8 = getelementptr inbounds %"class.std::__cxx11::basic_string", ptr %6, i64 0, i32 2
  %cmp.i.i.i.i.i.i = icmp eq ptr %7, %8
  br i1 %cmp.i.i.i.i.i.i, label %_ZNKSt7__cxx1112basic_stringIcSt11char_traitsIcESaIcEE11_M_is_localEv.exit.thread.i.i.i.i.i, label %if.then.i.i.i.i.i

_ZNKSt7__cxx1112basic_stringIcSt11char_traitsIcESaIcEE11_M_is_localEv.exit.thread.i.i.i.i.i: ; preds = %delete.notnull.i.i.i
  %_M_string_length.i.i.i.i.i.i = getelementptr inbounds %"class.std::__cxx11::basic_string", ptr %6, i64 0, i32 1
  %9 = load i64, ptr %_M_string_length.i.i.i.i.i.i, align 8, !tbaa !36
  %cmp3.i.i.i.i.i.i = icmp ult i64 %9, 16
  call void @llvm.assume(i1 %cmp3.i.i.i.i.i.i)
  br label %_ZNKSt14default_deleteINSt7__cxx1112basic_stringIcSt11char_traitsIcESaIcEEEEclEPS5_.exit.i.i

if.then.i.i.i.i.i:                                ; preds = %delete.notnull.i.i.i
  call void @_ZdlPv(ptr noundef %7) #23
  br label %_ZNKSt14default_deleteINSt7__cxx1112basic_stringIcSt11char_traitsIcESaIcEEEEclEPS5_.exit.i.i

_ZNKSt14default_deleteINSt7__cxx1112basic_stringIcSt11char_traitsIcESaIcEEEEclEPS5_.exit.i.i: ; preds = %if.then.i.i.i.i.i, %_ZNKSt7__cxx1112basic_stringIcSt11char_traitsIcESaIcEE11_M_is_localEv.exit.thread.i.i.i.i.i
  call void @_ZdlPv(ptr noundef nonnull %6) #23
  br label %_ZN7testing15AssertionResultD2Ev.exit

_ZN7testing15AssertionResultD2Ev.exit:            ; preds = %_ZNKSt14default_deleteINSt7__cxx1112basic_stringIcSt11char_traitsIcESaIcEEEEclEPS5_.exit.i.i, %_ZN7testing7MessageD2Ev.exit
  call void @llvm.lifetime.end.p0(i64 16, ptr nonnull %gtest_ar) #21
  br label %_ZN4entt16adjacency_matrixINS_12directed_tagESaImEED2Ev.exit

lpad12:                                           ; preds = %if.else
  %10 = landingpad { ptr, i32 }
          cleanup
  br label %ehcleanup22

lpad15:                                           ; preds = %invoke.cont16
  %11 = landingpad { ptr, i32 }
          cleanup
  br label %ehcleanup

lpad19:                                           ; preds = %invoke.cont18
  %12 = landingpad { ptr, i32 }
          cleanup
  call void @_ZN7testing8internal12AssertHelperD1Ev(ptr noundef nonnull align 8 dereferenceable(8) %ref.tmp14) #21
  br label %ehcleanup

ehcleanup:                                        ; preds = %lpad19, %lpad15
  %.pn = phi { ptr, i32 } [ %12, %lpad19 ], [ %11, %lpad15 ]
  call void @llvm.lifetime.end.p0(i64 8, ptr nonnull %ref.tmp14) #21
  %13 = load ptr, ptr %ref.tmp11, align 8, !tbaa !32
  %cmp.not.i.i173 = icmp eq ptr %13, null
  br i1 %cmp.not.i.i173, label %ehcleanup22, label %_ZNKSt14default_deleteINSt7__cxx1118basic_stringstreamIcSt11char_traitsIcESaIcEEEEclEPS5_.exit.i.i174

_ZNKSt14default_deleteINSt7__cxx1118basic_stringstreamIcSt11char_traitsIcESaIcEEEEclEPS5_.exit.i.i174: ; preds = %ehcleanup
  %vtable.i.i.i175 = load ptr, ptr %13, align 8, !tbaa !4
  %vfn.i.i.i176 = getelementptr inbounds ptr, ptr %vtable.i.i.i175, i64 1
  %14 = load ptr, ptr %vfn.i.i.i176, align 8
  call void %14(ptr noundef nonnull align 8 dereferenceable(128) %13) #21
  br label %ehcleanup22

ehcleanup22:                                      ; preds = %_ZNKSt14default_deleteINSt7__cxx1118basic_stringstreamIcSt11char_traitsIcESaIcEEEEclEPS5_.exit.i.i174, %ehcleanup, %lpad12
  %.pn.pn = phi { ptr, i32 } [ %10, %lpad12 ], [ %.pn, %ehcleanup ], [ %.pn, %_ZNKSt14default_deleteINSt7__cxx1118basic_stringstreamIcSt11char_traitsIcESaIcEEEEclEPS5_.exit.i.i174 ]
  call void @llvm.lifetime.end.p0(i64 8, ptr nonnull %ref.tmp11) #21
  call void @_ZN7testing15AssertionResultD2Ev(ptr noundef nonnull align 8 dereferenceable(16) %gtest_ar) #21
  br label %ehcleanup25

cleanup.cont.critedge:                            ; preds = %invoke.cont7
  %message_.i178 = getelementptr inbounds %"class.testing::AssertionResult", ptr %gtest_ar, i64 0, i32 1
  %15 = load ptr, ptr %message_.i178, align 8, !tbaa !32
  %cmp.not.i.i179 = icmp eq ptr %15, null
  br i1 %cmp.not.i.i179, label %_ZNK4entt16adjacency_matrixINS_12directed_tagESaImEE8containsEmm.exit, label %delete.notnull.i.i.i180

delete.notnull.i.i.i180:                          ; preds = %cleanup.cont.critedge
  %16 = load ptr, ptr %15, align 8, !tbaa !33
  %17 = getelementptr inbounds %"class.std::__cxx11::basic_string", ptr %15, i64 0, i32 2
  %cmp.i.i.i.i.i.i181 = icmp eq ptr %16, %17
  br i1 %cmp.i.i.i.i.i.i181, label %_ZNKSt7__cxx1112basic_stringIcSt11char_traitsIcESaIcEE11_M_is_localEv.exit.thread.i.i.i.i.i184, label %if.then.i.i.i.i.i182

_ZNKSt7__cxx1112basic_stringIcSt11char_traitsIcESaIcEE11_M_is_localEv.exit.thread.i.i.i.i.i184: ; preds = %delete.notnull.i.i.i180
  %_M_string_length.i.i.i.i.i.i185 = getelementptr inbounds %"class.std::__cxx11::basic_string", ptr %15, i64 0, i32 1
  %18 = load i64, ptr %_M_string_length.i.i.i.i.i.i185, align 8, !tbaa !36
  %cmp3.i.i.i.i.i.i186 = icmp ult i64 %18, 16
  call void @llvm.assume(i1 %cmp3.i.i.i.i.i.i186)
  br label %_ZNKSt14default_deleteINSt7__cxx1112basic_stringIcSt11char_traitsIcESaIcEEEEclEPS5_.exit.i.i183

if.then.i.i.i.i.i182:                             ; preds = %delete.notnull.i.i.i180
  call void @_ZdlPv(ptr noundef %16) #23
  br label %_ZNKSt14default_deleteINSt7__cxx1112basic_stringIcSt11char_traitsIcESaIcEEEEclEPS5_.exit.i.i183

_ZNKSt14default_deleteINSt7__cxx1112basic_stringIcSt11char_traitsIcESaIcEEEEclEPS5_.exit.i.i183: ; preds = %if.then.i.i.i.i.i182, %_ZNKSt7__cxx1112basic_stringIcSt11char_traitsIcESaIcEE11_M_is_localEv.exit.thread.i.i.i.i.i184
  call void @_ZdlPv(ptr noundef nonnull %15) #23
  br label %_ZNK4entt16adjacency_matrixINS_12directed_tagESaImEE8containsEmm.exit

_ZNK4entt16adjacency_matrixINS_12directed_tagESaImEE8containsEmm.exit: ; preds = %_ZNKSt14default_deleteINSt7__cxx1112basic_stringIcSt11char_traitsIcESaIcEEEEclEPS5_.exit.i.i183, %cleanup.cont.critedge
  call void @llvm.lifetime.end.p0(i64 16, ptr nonnull %gtest_ar) #21
  call void @llvm.lifetime.start.p0(i64 16, ptr nonnull %gtest_ar_) #21
  %19 = load i64, ptr %add.ptr.i.i, align 8, !tbaa !17
  %tobool.i195 = icmp ne i64 %19, 0
  %frombool = zext i1 %tobool.i195 to i8
  store i8 %frombool, ptr %gtest_ar_, align 8, !tbaa !21
  %message_.i196 = getelementptr inbounds %"class.testing::AssertionResult", ptr %gtest_ar_, i64 0, i32 1
  store ptr null, ptr %message_.i196, align 8, !tbaa !37
  br i1 %tobool.i195, label %cleanup.cont60, label %if.else36

ehcleanup25:                                      ; preds = %ehcleanup22, %lpad6
  %.pn.pn.pn = phi { ptr, i32 } [ %.pn.pn, %ehcleanup22 ], [ %1, %lpad6 ]
  call void @llvm.lifetime.end.p0(i64 16, ptr nonnull %gtest_ar) #21
  br label %_ZN4entt16adjacency_matrixINS_12directed_tagESaImEED2Ev.exit332

if.else36:                                        ; preds = %_ZNK4entt16adjacency_matrixINS_12directed_tagESaImEE8containsEmm.exit
  call void @llvm.lifetime.start.p0(i64 8, ptr nonnull %ref.tmp37) #21
  invoke void @_ZN7testing7MessageC1Ev(ptr noundef nonnull align 8 dereferenceable(8) %ref.tmp37)
          to label %invoke.cont39 unwind label %lpad38

invoke.cont39:                                    ; preds = %if.else36
  call void @llvm.lifetime.start.p0(i64 8, ptr nonnull %ref.tmp40) #21
  call void @llvm.lifetime.start.p0(i64 32, ptr nonnull %ref.tmp41) #21
  invoke void @_ZN7testing8internal30GetBoolAssertionFailureMessageB5cxx11ERKNS_15AssertionResultEPKcS5_S5_(ptr nonnull sret(%"class.std::__cxx11::basic_string") align 8 %ref.tmp41, ptr noundef nonnull align 8 dereferenceable(16) %gtest_ar_, ptr noundef nonnull @.str.6, ptr noundef nonnull @.str.7, ptr noundef nonnull @.str.8)
          to label %invoke.cont43 unwind label %lpad42

invoke.cont43:                                    ; preds = %invoke.cont39
  %20 = load ptr, ptr %ref.tmp41, align 8, !tbaa !33
  invoke void @_ZN7testing8internal12AssertHelperC1ENS_14TestPartResult4TypeEPKciS5_(ptr noundef nonnull align 8 dereferenceable(8) %ref.tmp40, i32 noundef 2, ptr noundef nonnull @.str.3, i32 noundef 13, ptr noundef %20)
          to label %invoke.cont46 unwind label %lpad45

invoke.cont46:                                    ; preds = %invoke.cont43
  invoke void @_ZNK7testing8internal12AssertHelperaSERKNS_7MessageE(ptr noundef nonnull align 8 dereferenceable(8) %ref.tmp40, ptr noundef nonnull align 8 dereferenceable(8) %ref.tmp37)
          to label %invoke.cont48 unwind label %lpad47

invoke.cont48:                                    ; preds = %invoke.cont46
  call void @_ZN7testing8internal12AssertHelperD1Ev(ptr noundef nonnull align 8 dereferenceable(8) %ref.tmp40) #21
  %21 = load ptr, ptr %ref.tmp41, align 8, !tbaa !33
  %22 = getelementptr inbounds %"class.std::__cxx11::basic_string", ptr %ref.tmp41, i64 0, i32 2
  %cmp.i.i.i = icmp eq ptr %21, %22
  br i1 %cmp.i.i.i, label %_ZNKSt7__cxx1112basic_stringIcSt11char_traitsIcESaIcEE11_M_is_localEv.exit.thread.i.i, label %if.then.i.i198

_ZNKSt7__cxx1112basic_stringIcSt11char_traitsIcESaIcEE11_M_is_localEv.exit.thread.i.i: ; preds = %invoke.cont48
  %_M_string_length.i.i.i = getelementptr inbounds %"class.std::__cxx11::basic_string", ptr %ref.tmp41, i64 0, i32 1
  %23 = load i64, ptr %_M_string_length.i.i.i, align 8, !tbaa !36
  %cmp3.i.i.i = icmp ult i64 %23, 16
  call void @llvm.assume(i1 %cmp3.i.i.i)
  br label %_ZNSt7__cxx1112basic_stringIcSt11char_traitsIcESaIcEED2Ev.exit

if.then.i.i198:                                   ; preds = %invoke.cont48
  call void @_ZdlPv(ptr noundef %21) #23
  br label %_ZNSt7__cxx1112basic_stringIcSt11char_traitsIcESaIcEED2Ev.exit

_ZNSt7__cxx1112basic_stringIcSt11char_traitsIcESaIcEED2Ev.exit: ; preds = %if.then.i.i198, %_ZNKSt7__cxx1112basic_stringIcSt11char_traitsIcESaIcEE11_M_is_localEv.exit.thread.i.i
  call void @llvm.lifetime.end.p0(i64 32, ptr nonnull %ref.tmp41) #21
  call void @llvm.lifetime.end.p0(i64 8, ptr nonnull %ref.tmp40) #21
  %24 = load ptr, ptr %ref.tmp37, align 8, !tbaa !32
  %cmp.not.i.i199 = icmp eq ptr %24, null
  br i1 %cmp.not.i.i199, label %_ZN7testing7MessageD2Ev.exit203, label %_ZNKSt14default_deleteINSt7__cxx1118basic_stringstreamIcSt11char_traitsIcESaIcEEEEclEPS5_.exit.i.i200

_ZNKSt14default_deleteINSt7__cxx1118basic_stringstreamIcSt11char_traitsIcESaIcEEEEclEPS5_.exit.i.i200: ; preds = %_ZNSt7__cxx1112basic_stringIcSt11char_traitsIcESaIcEED2Ev.exit
  %vtable.i.i.i201 = load ptr, ptr %24, align 8, !tbaa !4
  %vfn.i.i.i202 = getelementptr inbounds ptr, ptr %vtable.i.i.i201, i64 1
  %25 = load ptr, ptr %vfn.i.i.i202, align 8
  call void %25(ptr noundef nonnull align 8 dereferenceable(128) %24) #21
  br label %_ZN7testing7MessageD2Ev.exit203

_ZN7testing7MessageD2Ev.exit203:                  ; preds = %_ZNKSt14default_deleteINSt7__cxx1118basic_stringstreamIcSt11char_traitsIcESaIcEEEEclEPS5_.exit.i.i200, %_ZNSt7__cxx1112basic_stringIcSt11char_traitsIcESaIcEED2Ev.exit
  call void @llvm.lifetime.end.p0(i64 8, ptr nonnull %ref.tmp37) #21
  %26 = load ptr, ptr %message_.i196, align 8, !tbaa !32
  %cmp.not.i.i205 = icmp eq ptr %26, null
  br i1 %cmp.not.i.i205, label %_ZN7testing15AssertionResultD2Ev.exit213, label %delete.notnull.i.i.i206

delete.notnull.i.i.i206:                          ; preds = %_ZN7testing7MessageD2Ev.exit203
  %27 = load ptr, ptr %26, align 8, !tbaa !33
  %28 = getelementptr inbounds %"class.std::__cxx11::basic_string", ptr %26, i64 0, i32 2
  %cmp.i.i.i.i.i.i207 = icmp eq ptr %27, %28
  br i1 %cmp.i.i.i.i.i.i207, label %_ZNKSt7__cxx1112basic_stringIcSt11char_traitsIcESaIcEE11_M_is_localEv.exit.thread.i.i.i.i.i210, label %if.then.i.i.i.i.i208

_ZNKSt7__cxx1112basic_stringIcSt11char_traitsIcESaIcEE11_M_is_localEv.exit.thread.i.i.i.i.i210: ; preds = %delete.notnull.i.i.i206
  %_M_string_length.i.i.i.i.i.i211 = getelementptr inbounds %"class.std::__cxx11::basic_string", ptr %26, i64 0, i32 1
  %29 = load i64, ptr %_M_string_length.i.i.i.i.i.i211, align 8, !tbaa !36
  %cmp3.i.i.i.i.i.i212 = icmp ult i64 %29, 16
  call void @llvm.assume(i1 %cmp3.i.i.i.i.i.i212)
  br label %_ZNKSt14default_deleteINSt7__cxx1112basic_stringIcSt11char_traitsIcESaIcEEEEclEPS5_.exit.i.i209

if.then.i.i.i.i.i208:                             ; preds = %delete.notnull.i.i.i206
  call void @_ZdlPv(ptr noundef %27) #23
  br label %_ZNKSt14default_deleteINSt7__cxx1112basic_stringIcSt11char_traitsIcESaIcEEEEclEPS5_.exit.i.i209

_ZNKSt14default_deleteINSt7__cxx1112basic_stringIcSt11char_traitsIcESaIcEEEEclEPS5_.exit.i.i209: ; preds = %if.then.i.i.i.i.i208, %_ZNKSt7__cxx1112basic_stringIcSt11char_traitsIcESaIcEE11_M_is_localEv.exit.thread.i.i.i.i.i210
  call void @_ZdlPv(ptr noundef nonnull %26) #23
  br label %_ZN7testing15AssertionResultD2Ev.exit213

_ZN7testing15AssertionResultD2Ev.exit213:         ; preds = %_ZNKSt14default_deleteINSt7__cxx1112basic_stringIcSt11char_traitsIcESaIcEEEEclEPS5_.exit.i.i209, %_ZN7testing7MessageD2Ev.exit203
  call void @llvm.lifetime.end.p0(i64 16, ptr nonnull %gtest_ar_) #21
  br label %_ZN4entt16adjacency_matrixINS_12directed_tagESaImEED2Ev.exit

lpad38:                                           ; preds = %if.else36
  %30 = landingpad { ptr, i32 }
          cleanup
  br label %ehcleanup54

lpad42:                                           ; preds = %invoke.cont39
  %31 = landingpad { ptr, i32 }
          cleanup
  br label %ehcleanup51

lpad45:                                           ; preds = %invoke.cont43
  %32 = landingpad { ptr, i32 }
          cleanup
  br label %ehcleanup50

lpad47:                                           ; preds = %invoke.cont46
  %33 = landingpad { ptr, i32 }
          cleanup
  call void @_ZN7testing8internal12AssertHelperD1Ev(ptr noundef nonnull align 8 dereferenceable(8) %ref.tmp40) #21
  br label %ehcleanup50

ehcleanup50:                                      ; preds = %lpad47, %lpad45
  %.pn152 = phi { ptr, i32 } [ %33, %lpad47 ], [ %32, %lpad45 ]
  %34 = load ptr, ptr %ref.tmp41, align 8, !tbaa !33
  %35 = getelementptr inbounds %"class.std::__cxx11::basic_string", ptr %ref.tmp41, i64 0, i32 2
  %cmp.i.i.i214 = icmp eq ptr %34, %35
  br i1 %cmp.i.i.i214, label %_ZNKSt7__cxx1112basic_stringIcSt11char_traitsIcESaIcEE11_M_is_localEv.exit.thread.i.i216, label %if.then.i.i215

_ZNKSt7__cxx1112basic_stringIcSt11char_traitsIcESaIcEE11_M_is_localEv.exit.thread.i.i216: ; preds = %ehcleanup50
  %_M_string_length.i.i.i217 = getelementptr inbounds %"class.std::__cxx11::basic_string", ptr %ref.tmp41, i64 0, i32 1
  %36 = load i64, ptr %_M_string_length.i.i.i217, align 8, !tbaa !36
  %cmp3.i.i.i218 = icmp ult i64 %36, 16
  call void @llvm.assume(i1 %cmp3.i.i.i218)
  br label %ehcleanup51

if.then.i.i215:                                   ; preds = %ehcleanup50
  call void @_ZdlPv(ptr noundef %34) #23
  br label %ehcleanup51

ehcleanup51:                                      ; preds = %if.then.i.i215, %_ZNKSt7__cxx1112basic_stringIcSt11char_traitsIcESaIcEE11_M_is_localEv.exit.thread.i.i216, %lpad42
  %.pn152.pn = phi { ptr, i32 } [ %31, %lpad42 ], [ %.pn152, %_ZNKSt7__cxx1112basic_stringIcSt11char_traitsIcESaIcEE11_M_is_localEv.exit.thread.i.i216 ], [ %.pn152, %if.then.i.i215 ]
  call void @llvm.lifetime.end.p0(i64 32, ptr nonnull %ref.tmp41) #21
  call void @llvm.lifetime.end.p0(i64 8, ptr nonnull %ref.tmp40) #21
  %37 = load ptr, ptr %ref.tmp37, align 8, !tbaa !32
  %cmp.not.i.i220 = icmp eq ptr %37, null
  br i1 %cmp.not.i.i220, label %ehcleanup54, label %_ZNKSt14default_deleteINSt7__cxx1118basic_stringstreamIcSt11char_traitsIcESaIcEEEEclEPS5_.exit.i.i221

_ZNKSt14default_deleteINSt7__cxx1118basic_stringstreamIcSt11char_traitsIcESaIcEEEEclEPS5_.exit.i.i221: ; preds = %ehcleanup51
  %vtable.i.i.i222 = load ptr, ptr %37, align 8, !tbaa !4
  %vfn.i.i.i223 = getelementptr inbounds ptr, ptr %vtable.i.i.i222, i64 1
  %38 = load ptr, ptr %vfn.i.i.i223, align 8
  call void %38(ptr noundef nonnull align 8 dereferenceable(128) %37) #21
  br label %ehcleanup54

ehcleanup54:                                      ; preds = %_ZNKSt14default_deleteINSt7__cxx1118basic_stringstreamIcSt11char_traitsIcESaIcEEEEclEPS5_.exit.i.i221, %ehcleanup51, %lpad38
  %.pn152.pn.pn = phi { ptr, i32 } [ %30, %lpad38 ], [ %.pn152.pn, %ehcleanup51 ], [ %.pn152.pn, %_ZNKSt14default_deleteINSt7__cxx1118basic_stringstreamIcSt11char_traitsIcESaIcEEEEclEPS5_.exit.i.i221 ]
  call void @llvm.lifetime.end.p0(i64 8, ptr nonnull %ref.tmp37) #21
  call void @_ZN7testing15AssertionResultD2Ev(ptr noundef nonnull align 8 dereferenceable(16) %gtest_ar_) #21
  call void @llvm.lifetime.end.p0(i64 16, ptr nonnull %gtest_ar_) #21
  br label %_ZN4entt16adjacency_matrixINS_12directed_tagESaImEED2Ev.exit332

cleanup.cont60:                                   ; preds = %_ZNK4entt16adjacency_matrixINS_12directed_tagESaImEE8containsEmm.exit
  call void @llvm.lifetime.end.p0(i64 16, ptr nonnull %gtest_ar_) #21
  %call5.i.i.i.i4.i.i.i15.i240 = invoke noalias noundef nonnull dereferenceable(72) ptr @_Znwm(i64 noundef 72) #22
          to label %call5.i.i.i.i4.i.i.i15.i.noexc unwind label %lpad62

call5.i.i.i.i4.i.i.i15.i.noexc:                   ; preds = %cleanup.cont60
  call void @llvm.memset.p0.i64(ptr noundef nonnull align 8 dereferenceable(72) %call5.i.i.i.i4.i.i.i15.i240, i8 0, i64 72, i1 false)
  %39 = load i64, ptr %call5.i.i.i.i4.i.i.i166, align 8, !tbaa !17, !noalias !38
  %tobool.not.i.i.i = icmp eq i64 %39, 0
  br i1 %tobool.not.i.i.i, label %for.inc.i.i.i, label %for.body.i.preheader

for.inc.i.i.i:                                    ; preds = %call5.i.i.i.i4.i.i.i15.i.noexc
  %40 = load i64, ptr %incdec.ptr.i.i.i.i.i.i, align 8, !tbaa !17, !noalias !38
  %tobool.not.i.i.i.1 = icmp eq i64 %40, 0
  %spec.select = select i1 %tobool.not.i.i.i.1, i64 2, i64 1
  br label %for.body.i.preheader

for.body.i.preheader:                             ; preds = %for.inc.i.i.i, %call5.i.i.i.i4.i.i.i15.i.noexc
  %__begin0.sroa.6.048.i.ph = phi i64 [ 0, %call5.i.i.i.i4.i.i.i15.i.noexc ], [ %spec.select, %for.inc.i.i.i ]
  br label %for.body.i

for.body.i.loopexit:                              ; preds = %land.rhs.i.i237
  br label %for.body.i, !llvm.loop !41

for.body.i:                                       ; preds = %for.body.i.preheader, %for.body.i.loopexit
  %__begin0.sroa.6.048.i = phi i64 [ %storemerge.i.i, %for.body.i.loopexit ], [ %__begin0.sroa.6.048.i.ph, %for.body.i.preheader ]
  %div.i.i.i354 = lshr i64 %__begin0.sroa.6.048.i, 1
  %rem.i.i.i = and i64 %__begin0.sroa.6.048.i, 1
  %mul.i20.i = mul i64 %div.i.i.i354, 3
  %41 = getelementptr i64, ptr %call5.i.i.i.i4.i.i.i15.i240, i64 %mul.i20.i
  %add.ptr.i.i.i = getelementptr i64, ptr %41, i64 %rem.i.i.i
  store i64 1, ptr %add.ptr.i.i.i, align 8, !tbaa !17, !noalias !43
  br label %for.cond.i.i

for.cond.i.i:                                     ; preds = %land.rhs.i.i237, %for.body.i
  %.pn.i.i = phi i64 [ %__begin0.sroa.6.048.i, %for.body.i ], [ %storemerge.i.i, %land.rhs.i.i237 ]
  %storemerge.i.i = add i64 %.pn.i.i, 1
  %cmp.not.i.i236 = icmp eq i64 %storemerge.i.i, 4
  br i1 %cmp.not.i.i236, label %if.then.i.i245, label %land.rhs.i.i237

land.rhs.i.i237:                                  ; preds = %for.cond.i.i
  %arrayidx.i.i.i238 = getelementptr inbounds i64, ptr %call5.i.i.i.i4.i.i.i166, i64 %storemerge.i.i
  %42 = load i64, ptr %arrayidx.i.i.i238, align 8, !tbaa !17
  %tobool.not.i35.i = icmp eq i64 %42, 0
  br i1 %tobool.not.i35.i, label %for.cond.i.i, label %for.body.i.loopexit, !llvm.loop !41

if.then.i.i245:                                   ; preds = %for.cond.i.i
  call void @_ZdlPv(ptr noundef nonnull %call5.i.i.i.i4.i.i.i166) #23
  call void @llvm.lifetime.start.p0(i64 16, ptr nonnull %gtest_ar64) #21
  invoke void @_ZN7testing16AssertionSuccessEv(ptr nonnull sret(%"class.testing::AssertionResult") align 8 %gtest_ar64)
          to label %invoke.cont69 unwind label %lpad68

invoke.cont69:                                    ; preds = %if.then.i.i245
  %43 = load i8, ptr %gtest_ar64, align 8, !tbaa !21, !range !30, !noundef !31
  %tobool.i249.not = icmp eq i8 %43, 0
  br i1 %tobool.i249.not, label %if.else76, label %cleanup.cont96.critedge

lpad62:                                           ; preds = %cleanup.cont60
  %44 = landingpad { ptr, i32 }
          cleanup
  br label %_ZN4entt16adjacency_matrixINS_12directed_tagESaImEED2Ev.exit332

lpad68:                                           ; preds = %if.then.i.i245
  %45 = landingpad { ptr, i32 }
          cleanup
  br label %ehcleanup97

if.else76:                                        ; preds = %invoke.cont69
  call void @llvm.lifetime.start.p0(i64 8, ptr nonnull %ref.tmp77) #21
  invoke void @_ZN7testing7MessageC1Ev(ptr noundef nonnull align 8 dereferenceable(8) %ref.tmp77)
          to label %invoke.cont79 unwind label %lpad78

invoke.cont79:                                    ; preds = %if.else76
  call void @llvm.lifetime.start.p0(i64 8, ptr nonnull %ref.tmp80) #21
  %message_.i.i250 = getelementptr inbounds %"class.testing::AssertionResult", ptr %gtest_ar64, i64 0, i32 1
  %46 = load ptr, ptr %message_.i.i250, align 8, !tbaa !32
  %cmp.not.i.i251 = icmp eq ptr %46, null
  br i1 %cmp.not.i.i251, label %invoke.cont82, label %cond.true.i.i252

cond.true.i.i252:                                 ; preds = %invoke.cont79
  %47 = load ptr, ptr %46, align 8, !tbaa !33
  br label %invoke.cont82

invoke.cont82:                                    ; preds = %cond.true.i.i252, %invoke.cont79
  %cond.i.i253 = phi ptr [ %47, %cond.true.i.i252 ], [ @.str.105, %invoke.cont79 ]
  invoke void @_ZN7testing8internal12AssertHelperC1ENS_14TestPartResult4TypeEPKciS5_(ptr noundef nonnull align 8 dereferenceable(8) %ref.tmp80, i32 noundef 2, ptr noundef nonnull @.str.3, i32 noundef 17, ptr noundef %cond.i.i253)
          to label %invoke.cont84 unwind label %lpad81

invoke.cont84:                                    ; preds = %invoke.cont82
  invoke void @_ZNK7testing8internal12AssertHelperaSERKNS_7MessageE(ptr noundef nonnull align 8 dereferenceable(8) %ref.tmp80, ptr noundef nonnull align 8 dereferenceable(8) %ref.tmp77)
          to label %invoke.cont86 unwind label %lpad85

invoke.cont86:                                    ; preds = %invoke.cont84
  call void @_ZN7testing8internal12AssertHelperD1Ev(ptr noundef nonnull align 8 dereferenceable(8) %ref.tmp80) #21
  call void @llvm.lifetime.end.p0(i64 8, ptr nonnull %ref.tmp80) #21
  %48 = load ptr, ptr %ref.tmp77, align 8, !tbaa !32
  %cmp.not.i.i255 = icmp eq ptr %48, null
  br i1 %cmp.not.i.i255, label %_ZN7testing7MessageD2Ev.exit259, label %_ZNKSt14default_deleteINSt7__cxx1118basic_stringstreamIcSt11char_traitsIcESaIcEEEEclEPS5_.exit.i.i256

_ZNKSt14default_deleteINSt7__cxx1118basic_stringstreamIcSt11char_traitsIcESaIcEEEEclEPS5_.exit.i.i256: ; preds = %invoke.cont86
  %vtable.i.i.i257 = load ptr, ptr %48, align 8, !tbaa !4
  %vfn.i.i.i258 = getelementptr inbounds ptr, ptr %vtable.i.i.i257, i64 1
  %49 = load ptr, ptr %vfn.i.i.i258, align 8
  call void %49(ptr noundef nonnull align 8 dereferenceable(128) %48) #21
  br label %_ZN7testing7MessageD2Ev.exit259

_ZN7testing7MessageD2Ev.exit259:                  ; preds = %_ZNKSt14default_deleteINSt7__cxx1118basic_stringstreamIcSt11char_traitsIcESaIcEEEEclEPS5_.exit.i.i256, %invoke.cont86
  call void @llvm.lifetime.end.p0(i64 8, ptr nonnull %ref.tmp77) #21
  %50 = load ptr, ptr %message_.i.i250, align 8, !tbaa !32
  %cmp.not.i.i261 = icmp eq ptr %50, null
  br i1 %cmp.not.i.i261, label %_ZN7testing15AssertionResultD2Ev.exit269, label %delete.notnull.i.i.i262

delete.notnull.i.i.i262:                          ; preds = %_ZN7testing7MessageD2Ev.exit259
  %51 = load ptr, ptr %50, align 8, !tbaa !33
  %52 = getelementptr inbounds %"class.std::__cxx11::basic_string", ptr %50, i64 0, i32 2
  %cmp.i.i.i.i.i.i263 = icmp eq ptr %51, %52
  br i1 %cmp.i.i.i.i.i.i263, label %_ZNKSt7__cxx1112basic_stringIcSt11char_traitsIcESaIcEE11_M_is_localEv.exit.thread.i.i.i.i.i266, label %if.then.i.i.i.i.i264

_ZNKSt7__cxx1112basic_stringIcSt11char_traitsIcESaIcEE11_M_is_localEv.exit.thread.i.i.i.i.i266: ; preds = %delete.notnull.i.i.i262
  %_M_string_length.i.i.i.i.i.i267 = getelementptr inbounds %"class.std::__cxx11::basic_string", ptr %50, i64 0, i32 1
  %53 = load i64, ptr %_M_string_length.i.i.i.i.i.i267, align 8, !tbaa !36
  %cmp3.i.i.i.i.i.i268 = icmp ult i64 %53, 16
  call void @llvm.assume(i1 %cmp3.i.i.i.i.i.i268)
  br label %_ZNKSt14default_deleteINSt7__cxx1112basic_stringIcSt11char_traitsIcESaIcEEEEclEPS5_.exit.i.i265

if.then.i.i.i.i.i264:                             ; preds = %delete.notnull.i.i.i262
  call void @_ZdlPv(ptr noundef %51) #23
  br label %_ZNKSt14default_deleteINSt7__cxx1112basic_stringIcSt11char_traitsIcESaIcEEEEclEPS5_.exit.i.i265

_ZNKSt14default_deleteINSt7__cxx1112basic_stringIcSt11char_traitsIcESaIcEEEEclEPS5_.exit.i.i265: ; preds = %if.then.i.i.i.i.i264, %_ZNKSt7__cxx1112basic_stringIcSt11char_traitsIcESaIcEE11_M_is_localEv.exit.thread.i.i.i.i.i266
  call void @_ZdlPv(ptr noundef nonnull %50) #23
  br label %_ZN7testing15AssertionResultD2Ev.exit269

_ZN7testing15AssertionResultD2Ev.exit269:         ; preds = %_ZNKSt14default_deleteINSt7__cxx1112basic_stringIcSt11char_traitsIcESaIcEEEEclEPS5_.exit.i.i265, %_ZN7testing7MessageD2Ev.exit259
  call void @llvm.lifetime.end.p0(i64 16, ptr nonnull %gtest_ar64) #21
  br label %_ZN4entt16adjacency_matrixINS_12directed_tagESaImEED2Ev.exit

lpad78:                                           ; preds = %if.else76
  %54 = landingpad { ptr, i32 }
          cleanup
  br label %ehcleanup90

lpad81:                                           ; preds = %invoke.cont82
  %55 = landingpad { ptr, i32 }
          cleanup
  br label %ehcleanup88

lpad85:                                           ; preds = %invoke.cont84
  %56 = landingpad { ptr, i32 }
          cleanup
  call void @_ZN7testing8internal12AssertHelperD1Ev(ptr noundef nonnull align 8 dereferenceable(8) %ref.tmp80) #21
  br label %ehcleanup88

ehcleanup88:                                      ; preds = %lpad85, %lpad81
  %.pn156 = phi { ptr, i32 } [ %56, %lpad85 ], [ %55, %lpad81 ]
  call void @llvm.lifetime.end.p0(i64 8, ptr nonnull %ref.tmp80) #21
  %57 = load ptr, ptr %ref.tmp77, align 8, !tbaa !32
  %cmp.not.i.i270 = icmp eq ptr %57, null
  br i1 %cmp.not.i.i270, label %ehcleanup90, label %_ZNKSt14default_deleteINSt7__cxx1118basic_stringstreamIcSt11char_traitsIcESaIcEEEEclEPS5_.exit.i.i271

_ZNKSt14default_deleteINSt7__cxx1118basic_stringstreamIcSt11char_traitsIcESaIcEEEEclEPS5_.exit.i.i271: ; preds = %ehcleanup88
  %vtable.i.i.i272 = load ptr, ptr %57, align 8, !tbaa !4
  %vfn.i.i.i273 = getelementptr inbounds ptr, ptr %vtable.i.i.i272, i64 1
  %58 = load ptr, ptr %vfn.i.i.i273, align 8
  call void %58(ptr noundef nonnull align 8 dereferenceable(128) %57) #21
  br label %ehcleanup90

ehcleanup90:                                      ; preds = %_ZNKSt14default_deleteINSt7__cxx1118basic_stringstreamIcSt11char_traitsIcESaIcEEEEclEPS5_.exit.i.i271, %ehcleanup88, %lpad78
  %.pn156.pn = phi { ptr, i32 } [ %54, %lpad78 ], [ %.pn156, %ehcleanup88 ], [ %.pn156, %_ZNKSt14default_deleteINSt7__cxx1118basic_stringstreamIcSt11char_traitsIcESaIcEEEEclEPS5_.exit.i.i271 ]
  call void @llvm.lifetime.end.p0(i64 8, ptr nonnull %ref.tmp77) #21
  call void @_ZN7testing15AssertionResultD2Ev(ptr noundef nonnull align 8 dereferenceable(16) %gtest_ar64) #21
  br label %ehcleanup97

cleanup.cont96.critedge:                          ; preds = %invoke.cont69
  %message_.i275 = getelementptr inbounds %"class.testing::AssertionResult", ptr %gtest_ar64, i64 0, i32 1
  %59 = load ptr, ptr %message_.i275, align 8, !tbaa !32
  %cmp.not.i.i276 = icmp eq ptr %59, null
  br i1 %cmp.not.i.i276, label %_ZNK4entt16adjacency_matrixINS_12directed_tagESaImEE8containsEmm.exit295, label %delete.notnull.i.i.i277

delete.notnull.i.i.i277:                          ; preds = %cleanup.cont96.critedge
  %60 = load ptr, ptr %59, align 8, !tbaa !33
  %61 = getelementptr inbounds %"class.std::__cxx11::basic_string", ptr %59, i64 0, i32 2
  %cmp.i.i.i.i.i.i278 = icmp eq ptr %60, %61
  br i1 %cmp.i.i.i.i.i.i278, label %_ZNKSt7__cxx1112basic_stringIcSt11char_traitsIcESaIcEE11_M_is_localEv.exit.thread.i.i.i.i.i281, label %if.then.i.i.i.i.i279

_ZNKSt7__cxx1112basic_stringIcSt11char_traitsIcESaIcEE11_M_is_localEv.exit.thread.i.i.i.i.i281: ; preds = %delete.notnull.i.i.i277
  %_M_string_length.i.i.i.i.i.i282 = getelementptr inbounds %"class.std::__cxx11::basic_string", ptr %59, i64 0, i32 1
  %62 = load i64, ptr %_M_string_length.i.i.i.i.i.i282, align 8, !tbaa !36
  %cmp3.i.i.i.i.i.i283 = icmp ult i64 %62, 16
  call void @llvm.assume(i1 %cmp3.i.i.i.i.i.i283)
  br label %_ZNKSt14default_deleteINSt7__cxx1112basic_stringIcSt11char_traitsIcESaIcEEEEclEPS5_.exit.i.i280

if.then.i.i.i.i.i279:                             ; preds = %delete.notnull.i.i.i277
  call void @_ZdlPv(ptr noundef %60) #23
  br label %_ZNKSt14default_deleteINSt7__cxx1112basic_stringIcSt11char_traitsIcESaIcEEEEclEPS5_.exit.i.i280

_ZNKSt14default_deleteINSt7__cxx1112basic_stringIcSt11char_traitsIcESaIcEEEEclEPS5_.exit.i.i280: ; preds = %if.then.i.i.i.i.i279, %_ZNKSt7__cxx1112basic_stringIcSt11char_traitsIcESaIcEE11_M_is_localEv.exit.thread.i.i.i.i.i281
  call void @_ZdlPv(ptr noundef nonnull %59) #23
  br label %_ZNK4entt16adjacency_matrixINS_12directed_tagESaImEE8containsEmm.exit295

_ZNK4entt16adjacency_matrixINS_12directed_tagESaImEE8containsEmm.exit295: ; preds = %_ZNKSt14default_deleteINSt7__cxx1112basic_stringIcSt11char_traitsIcESaIcEEEEclEPS5_.exit.i.i280, %cleanup.cont96.critedge
  call void @llvm.lifetime.end.p0(i64 16, ptr nonnull %gtest_ar64) #21
  call void @llvm.lifetime.start.p0(i64 16, ptr nonnull %gtest_ar_98) #21
  %add.ptr.i.i293 = getelementptr inbounds i64, ptr %call5.i.i.i.i4.i.i.i15.i240, i64 3
  %63 = load i64, ptr %add.ptr.i.i293, align 8, !tbaa !17
  %tobool.i294 = icmp ne i64 %63, 0
  %frombool103 = zext i1 %tobool.i294 to i8
  store i8 %frombool103, ptr %gtest_ar_98, align 8, !tbaa !21
  %message_.i296 = getelementptr inbounds %"class.testing::AssertionResult", ptr %gtest_ar_98, i64 0, i32 1
  store ptr null, ptr %message_.i296, align 8, !tbaa !37
  br i1 %tobool.i294, label %_ZN7testing15AssertionResultD2Ev.exit329, label %if.else110

ehcleanup97:                                      ; preds = %ehcleanup90, %lpad68
  %.pn156.pn.pn = phi { ptr, i32 } [ %.pn156.pn, %ehcleanup90 ], [ %45, %lpad68 ]
  call void @llvm.lifetime.end.p0(i64 16, ptr nonnull %gtest_ar64) #21
  br label %_ZN4entt16adjacency_matrixINS_12directed_tagESaImEED2Ev.exit332

if.else110:                                       ; preds = %_ZNK4entt16adjacency_matrixINS_12directed_tagESaImEE8containsEmm.exit295
  call void @llvm.lifetime.start.p0(i64 8, ptr nonnull %ref.tmp111) #21
  invoke void @_ZN7testing7MessageC1Ev(ptr noundef nonnull align 8 dereferenceable(8) %ref.tmp111)
          to label %invoke.cont113 unwind label %lpad112

invoke.cont113:                                   ; preds = %if.else110
  call void @llvm.lifetime.start.p0(i64 8, ptr nonnull %ref.tmp114) #21
  call void @llvm.lifetime.start.p0(i64 32, ptr nonnull %ref.tmp115) #21
  invoke void @_ZN7testing8internal30GetBoolAssertionFailureMessageB5cxx11ERKNS_15AssertionResultEPKcS5_S5_(ptr nonnull sret(%"class.std::__cxx11::basic_string") align 8 %ref.tmp115, ptr noundef nonnull align 8 dereferenceable(16) %gtest_ar_98, ptr noundef nonnull @.str.6, ptr noundef nonnull @.str.7, ptr noundef nonnull @.str.8)
          to label %invoke.cont117 unwind label %lpad116

invoke.cont117:                                   ; preds = %invoke.cont113
  %64 = load ptr, ptr %ref.tmp115, align 8, !tbaa !33
  invoke void @_ZN7testing8internal12AssertHelperC1ENS_14TestPartResult4TypeEPKciS5_(ptr noundef nonnull align 8 dereferenceable(8) %ref.tmp114, i32 noundef 2, ptr noundef nonnull @.str.3, i32 noundef 18, ptr noundef %64)
          to label %invoke.cont120 unwind label %lpad119

invoke.cont120:                                   ; preds = %invoke.cont117
  invoke void @_ZNK7testing8internal12AssertHelperaSERKNS_7MessageE(ptr noundef nonnull align 8 dereferenceable(8) %ref.tmp114, ptr noundef nonnull align 8 dereferenceable(8) %ref.tmp111)
          to label %invoke.cont122 unwind label %lpad121

invoke.cont122:                                   ; preds = %invoke.cont120
  call void @_ZN7testing8internal12AssertHelperD1Ev(ptr noundef nonnull align 8 dereferenceable(8) %ref.tmp114) #21
  %65 = load ptr, ptr %ref.tmp115, align 8, !tbaa !33
  %66 = getelementptr inbounds %"class.std::__cxx11::basic_string", ptr %ref.tmp115, i64 0, i32 2
  %cmp.i.i.i298 = icmp eq ptr %65, %66
  br i1 %cmp.i.i.i298, label %_ZNKSt7__cxx1112basic_stringIcSt11char_traitsIcESaIcEE11_M_is_localEv.exit.thread.i.i300, label %if.then.i.i299

_ZNKSt7__cxx1112basic_stringIcSt11char_traitsIcESaIcEE11_M_is_localEv.exit.thread.i.i300: ; preds = %invoke.cont122
  %_M_string_length.i.i.i301 = getelementptr inbounds %"class.std::__cxx11::basic_string", ptr %ref.tmp115, i64 0, i32 1
  %67 = load i64, ptr %_M_string_length.i.i.i301, align 8, !tbaa !36
  %cmp3.i.i.i302 = icmp ult i64 %67, 16
  call void @llvm.assume(i1 %cmp3.i.i.i302)
  br label %_ZNSt7__cxx1112basic_stringIcSt11char_traitsIcESaIcEED2Ev.exit303

if.then.i.i299:                                   ; preds = %invoke.cont122
  call void @_ZdlPv(ptr noundef %65) #23
  br label %_ZNSt7__cxx1112basic_stringIcSt11char_traitsIcESaIcEED2Ev.exit303

_ZNSt7__cxx1112basic_stringIcSt11char_traitsIcESaIcEED2Ev.exit303: ; preds = %if.then.i.i299, %_ZNKSt7__cxx1112basic_stringIcSt11char_traitsIcESaIcEE11_M_is_localEv.exit.thread.i.i300
  call void @llvm.lifetime.end.p0(i64 32, ptr nonnull %ref.tmp115) #21
  call void @llvm.lifetime.end.p0(i64 8, ptr nonnull %ref.tmp114) #21
  %68 = load ptr, ptr %ref.tmp111, align 8, !tbaa !32
  %cmp.not.i.i304 = icmp eq ptr %68, null
  br i1 %cmp.not.i.i304, label %cleanup130, label %_ZNKSt14default_deleteINSt7__cxx1118basic_stringstreamIcSt11char_traitsIcESaIcEEEEclEPS5_.exit.i.i305

_ZNKSt14default_deleteINSt7__cxx1118basic_stringstreamIcSt11char_traitsIcESaIcEEEEclEPS5_.exit.i.i305: ; preds = %_ZNSt7__cxx1112basic_stringIcSt11char_traitsIcESaIcEED2Ev.exit303
  %vtable.i.i.i306 = load ptr, ptr %68, align 8, !tbaa !4
  %vfn.i.i.i307 = getelementptr inbounds ptr, ptr %vtable.i.i.i306, i64 1
  %69 = load ptr, ptr %vfn.i.i.i307, align 8
  call void %69(ptr noundef nonnull align 8 dereferenceable(128) %68) #21
  br label %cleanup130

lpad112:                                          ; preds = %if.else110
  %70 = landingpad { ptr, i32 }
          cleanup
  br label %ehcleanup128

lpad116:                                          ; preds = %invoke.cont113
  %71 = landingpad { ptr, i32 }
          cleanup
  br label %ehcleanup125

lpad119:                                          ; preds = %invoke.cont117
  %72 = landingpad { ptr, i32 }
          cleanup
  br label %ehcleanup124

lpad121:                                          ; preds = %invoke.cont120
  %73 = landingpad { ptr, i32 }
          cleanup
  call void @_ZN7testing8internal12AssertHelperD1Ev(ptr noundef nonnull align 8 dereferenceable(8) %ref.tmp114) #21
  br label %ehcleanup124

ehcleanup124:                                     ; preds = %lpad121, %lpad119
  %.pn160 = phi { ptr, i32 } [ %73, %lpad121 ], [ %72, %lpad119 ]
  %74 = load ptr, ptr %ref.tmp115, align 8, !tbaa !33
  %75 = getelementptr inbounds %"class.std::__cxx11::basic_string", ptr %ref.tmp115, i64 0, i32 2
  %cmp.i.i.i309 = icmp eq ptr %74, %75
  br i1 %cmp.i.i.i309, label %_ZNKSt7__cxx1112basic_stringIcSt11char_traitsIcESaIcEE11_M_is_localEv.exit.thread.i.i311, label %if.then.i.i310

_ZNKSt7__cxx1112basic_stringIcSt11char_traitsIcESaIcEE11_M_is_localEv.exit.thread.i.i311: ; preds = %ehcleanup124
  %_M_string_length.i.i.i312 = getelementptr inbounds %"class.std::__cxx11::basic_string", ptr %ref.tmp115, i64 0, i32 1
  %76 = load i64, ptr %_M_string_length.i.i.i312, align 8, !tbaa !36
  %cmp3.i.i.i313 = icmp ult i64 %76, 16
  call void @llvm.assume(i1 %cmp3.i.i.i313)
  br label %ehcleanup125

if.then.i.i310:                                   ; preds = %ehcleanup124
  call void @_ZdlPv(ptr noundef %74) #23
  br label %ehcleanup125

ehcleanup125:                                     ; preds = %if.then.i.i310, %_ZNKSt7__cxx1112basic_stringIcSt11char_traitsIcESaIcEE11_M_is_localEv.exit.thread.i.i311, %lpad116
  %.pn160.pn = phi { ptr, i32 } [ %71, %lpad116 ], [ %.pn160, %_ZNKSt7__cxx1112basic_stringIcSt11char_traitsIcESaIcEE11_M_is_localEv.exit.thread.i.i311 ], [ %.pn160, %if.then.i.i310 ]
  call void @llvm.lifetime.end.p0(i64 32, ptr nonnull %ref.tmp115) #21
  call void @llvm.lifetime.end.p0(i64 8, ptr nonnull %ref.tmp114) #21
  %77 = load ptr, ptr %ref.tmp111, align 8, !tbaa !32
  %cmp.not.i.i315 = icmp eq ptr %77, null
  br i1 %cmp.not.i.i315, label %ehcleanup128, label %_ZNKSt14default_deleteINSt7__cxx1118basic_stringstreamIcSt11char_traitsIcESaIcEEEEclEPS5_.exit.i.i316

_ZNKSt14default_deleteINSt7__cxx1118basic_stringstreamIcSt11char_traitsIcESaIcEEEEclEPS5_.exit.i.i316: ; preds = %ehcleanup125
  %vtable.i.i.i317 = load ptr, ptr %77, align 8, !tbaa !4
  %vfn.i.i.i318 = getelementptr inbounds ptr, ptr %vtable.i.i.i317, i64 1
  %78 = load ptr, ptr %vfn.i.i.i318, align 8
  call void %78(ptr noundef nonnull align 8 dereferenceable(128) %77) #21
  br label %ehcleanup128

ehcleanup128:                                     ; preds = %_ZNKSt14default_deleteINSt7__cxx1118basic_stringstreamIcSt11char_traitsIcESaIcEEEEclEPS5_.exit.i.i316, %ehcleanup125, %lpad112
  %.pn160.pn.pn = phi { ptr, i32 } [ %70, %lpad112 ], [ %.pn160.pn, %ehcleanup125 ], [ %.pn160.pn, %_ZNKSt14default_deleteINSt7__cxx1118basic_stringstreamIcSt11char_traitsIcESaIcEEEEclEPS5_.exit.i.i316 ]
  call void @llvm.lifetime.end.p0(i64 8, ptr nonnull %ref.tmp111) #21
  call void @_ZN7testing15AssertionResultD2Ev(ptr noundef nonnull align 8 dereferenceable(16) %gtest_ar_98) #21
  call void @llvm.lifetime.end.p0(i64 16, ptr nonnull %gtest_ar_98) #21
  br label %_ZN4entt16adjacency_matrixINS_12directed_tagESaImEED2Ev.exit332

cleanup130:                                       ; preds = %_ZNKSt14default_deleteINSt7__cxx1118basic_stringstreamIcSt11char_traitsIcESaIcEEEEclEPS5_.exit.i.i305, %_ZNSt7__cxx1112basic_stringIcSt11char_traitsIcESaIcEED2Ev.exit303
  call void @llvm.lifetime.end.p0(i64 8, ptr nonnull %ref.tmp111) #21
  %.pr = load ptr, ptr %message_.i296, align 8, !tbaa !32
  %cmp.not.i.i321 = icmp eq ptr %.pr, null
  br i1 %cmp.not.i.i321, label %_ZN7testing15AssertionResultD2Ev.exit329, label %delete.notnull.i.i.i322

delete.notnull.i.i.i322:                          ; preds = %cleanup130
  %79 = load ptr, ptr %.pr, align 8, !tbaa !33
  %80 = getelementptr inbounds %"class.std::__cxx11::basic_string", ptr %.pr, i64 0, i32 2
  %cmp.i.i.i.i.i.i323 = icmp eq ptr %79, %80
  br i1 %cmp.i.i.i.i.i.i323, label %_ZNKSt7__cxx1112basic_stringIcSt11char_traitsIcESaIcEE11_M_is_localEv.exit.thread.i.i.i.i.i326, label %if.then.i.i.i.i.i324

_ZNKSt7__cxx1112basic_stringIcSt11char_traitsIcESaIcEE11_M_is_localEv.exit.thread.i.i.i.i.i326: ; preds = %delete.notnull.i.i.i322
  %_M_string_length.i.i.i.i.i.i327 = getelementptr inbounds %"class.std::__cxx11::basic_string", ptr %.pr, i64 0, i32 1
  %81 = load i64, ptr %_M_string_length.i.i.i.i.i.i327, align 8, !tbaa !36
  %cmp3.i.i.i.i.i.i328 = icmp ult i64 %81, 16
  call void @llvm.assume(i1 %cmp3.i.i.i.i.i.i328)
  br label %_ZNKSt14default_deleteINSt7__cxx1112basic_stringIcSt11char_traitsIcESaIcEEEEclEPS5_.exit.i.i325

if.then.i.i.i.i.i324:                             ; preds = %delete.notnull.i.i.i322
  call void @_ZdlPv(ptr noundef %79) #23
  br label %_ZNKSt14default_deleteINSt7__cxx1112basic_stringIcSt11char_traitsIcESaIcEEEEclEPS5_.exit.i.i325

_ZNKSt14default_deleteINSt7__cxx1112basic_stringIcSt11char_traitsIcESaIcEEEEclEPS5_.exit.i.i325: ; preds = %if.then.i.i.i.i.i324, %_ZNKSt7__cxx1112basic_stringIcSt11char_traitsIcESaIcEE11_M_is_localEv.exit.thread.i.i.i.i.i326
  call void @_ZdlPv(ptr noundef nonnull %.pr) #23
  br label %_ZN7testing15AssertionResultD2Ev.exit329

_ZN7testing15AssertionResultD2Ev.exit329:         ; preds = %_ZNKSt14default_deleteINSt7__cxx1112basic_stringIcSt11char_traitsIcESaIcEEEEclEPS5_.exit.i.i325, %cleanup130, %_ZNK4entt16adjacency_matrixINS_12directed_tagESaImEE8containsEmm.exit295
  call void @llvm.lifetime.end.p0(i64 16, ptr nonnull %gtest_ar_98) #21
  br label %_ZN4entt16adjacency_matrixINS_12directed_tagESaImEED2Ev.exit

_ZN4entt16adjacency_matrixINS_12directed_tagESaImEED2Ev.exit: ; preds = %_ZN7testing15AssertionResultD2Ev.exit329, %_ZN7testing15AssertionResultD2Ev.exit269, %_ZN7testing15AssertionResultD2Ev.exit213, %_ZN7testing15AssertionResultD2Ev.exit
  %adjacency_matrix.sroa.0.2 = phi ptr [ %call5.i.i.i.i4.i.i.i15.i240, %_ZN7testing15AssertionResultD2Ev.exit329 ], [ %call5.i.i.i.i4.i.i.i15.i240, %_ZN7testing15AssertionResultD2Ev.exit269 ], [ %call5.i.i.i.i4.i.i.i166, %_ZN7testing15AssertionResultD2Ev.exit213 ], [ %call5.i.i.i.i4.i.i.i166, %_ZN7testing15AssertionResultD2Ev.exit ]
  call void @_ZdlPv(ptr noundef nonnull %adjacency_matrix.sroa.0.2) #23
  ret void

_ZN4entt16adjacency_matrixINS_12directed_tagESaImEED2Ev.exit332: ; preds = %ehcleanup128, %ehcleanup97, %lpad62, %ehcleanup54, %ehcleanup25
  %adjacency_matrix.sroa.0.3.ph = phi ptr [ %call5.i.i.i.i4.i.i.i166, %ehcleanup25 ], [ %call5.i.i.i.i4.i.i.i166, %ehcleanup54 ], [ %call5.i.i.i.i4.i.i.i166, %lpad62 ], [ %call5.i.i.i.i4.i.i.i15.i240, %ehcleanup97 ], [ %call5.i.i.i.i4.i.i.i15.i240, %ehcleanup128 ]
  %.pn160.pn.pn.pn.ph = phi { ptr, i32 } [ %.pn.pn.pn, %ehcleanup25 ], [ %.pn152.pn.pn, %ehcleanup54 ], [ %44, %lpad62 ], [ %.pn156.pn.pn, %ehcleanup97 ], [ %.pn160.pn.pn, %ehcleanup128 ]
  call void @_ZdlPv(ptr noundef nonnull %adjacency_matrix.sroa.0.3.ph) #23
  resume { ptr, i32 } %.pn160.pn.pn.pn.ph
}

declare void @_ZN7testing7MessageC1Ev(ptr noundef nonnull align 8 dereferenceable(8)) unnamed_addr #0

declare void @_ZN7testing8internal12AssertHelperC1ENS_14TestPartResult4TypeEPKciS5_(ptr noundef nonnull align 8 dereferenceable(8), i32 noundef, ptr noundef, i32 noundef, ptr noundef) unnamed_addr #0

declare void @_ZNK7testing8internal12AssertHelperaSERKNS_7MessageE(ptr noundef nonnull align 8 dereferenceable(8), ptr noundef nonnull align 8 dereferenceable(8)) local_unnamed_addr #0

; Function Attrs: nounwind
declare void @_ZN7testing8internal12AssertHelperD1Ev(ptr noundef nonnull align 8 dereferenceable(8)) unnamed_addr #1

; Function Attrs: inlinehint mustprogress nounwind uwtable
define linkonce_odr dso_local void @_ZN7testing15AssertionResultD2Ev(ptr noundef nonnull align 8 dereferenceable(16) %this) unnamed_addr #7 comdat align 2 personality ptr @__gxx_personality_v0 {
entry:
  %message_ = getelementptr inbounds %"class.testing::AssertionResult", ptr %this, i64 0, i32 1
  %0 = load ptr, ptr %message_, align 8, !tbaa !32
  %cmp.not.i = icmp eq ptr %0, null
  br i1 %cmp.not.i, label %_ZNSt10unique_ptrINSt7__cxx1112basic_stringIcSt11char_traitsIcESaIcEEESt14default_deleteIS5_EED2Ev.exit, label %delete.notnull.i.i

delete.notnull.i.i:                               ; preds = %entry
  %1 = load ptr, ptr %0, align 8, !tbaa !33
  %2 = getelementptr inbounds %"class.std::__cxx11::basic_string", ptr %0, i64 0, i32 2
  %cmp.i.i.i.i.i = icmp eq ptr %1, %2
  br i1 %cmp.i.i.i.i.i, label %_ZNKSt7__cxx1112basic_stringIcSt11char_traitsIcESaIcEE11_M_is_localEv.exit.thread.i.i.i.i, label %if.then.i.i.i.i

_ZNKSt7__cxx1112basic_stringIcSt11char_traitsIcESaIcEE11_M_is_localEv.exit.thread.i.i.i.i: ; preds = %delete.notnull.i.i
  %_M_string_length.i.i.i.i.i = getelementptr inbounds %"class.std::__cxx11::basic_string", ptr %0, i64 0, i32 1
  %3 = load i64, ptr %_M_string_length.i.i.i.i.i, align 8, !tbaa !36
  %cmp3.i.i.i.i.i = icmp ult i64 %3, 16
  tail call void @llvm.assume(i1 %cmp3.i.i.i.i.i)
  br label %_ZNKSt14default_deleteINSt7__cxx1112basic_stringIcSt11char_traitsIcESaIcEEEEclEPS5_.exit.i

if.then.i.i.i.i:                                  ; preds = %delete.notnull.i.i
  tail call void @_ZdlPv(ptr noundef %1) #23
  br label %_ZNKSt14default_deleteINSt7__cxx1112basic_stringIcSt11char_traitsIcESaIcEEEEclEPS5_.exit.i

_ZNKSt14default_deleteINSt7__cxx1112basic_stringIcSt11char_traitsIcESaIcEEEEclEPS5_.exit.i: ; preds = %if.then.i.i.i.i, %_ZNKSt7__cxx1112basic_stringIcSt11char_traitsIcESaIcEE11_M_is_localEv.exit.thread.i.i.i.i
  tail call void @_ZdlPv(ptr noundef nonnull %0) #23
  br label %_ZNSt10unique_ptrINSt7__cxx1112basic_stringIcSt11char_traitsIcESaIcEEESt14default_deleteIS5_EED2Ev.exit

_ZNSt10unique_ptrINSt7__cxx1112basic_stringIcSt11char_traitsIcESaIcEEESt14default_deleteIS5_EED2Ev.exit: ; preds = %_ZNKSt14default_deleteINSt7__cxx1112basic_stringIcSt11char_traitsIcESaIcEEEEclEPS5_.exit.i, %entry
  store ptr null, ptr %message_, align 8, !tbaa !32
  ret void
}

declare void @_ZN7testing8internal30GetBoolAssertionFailureMessageB5cxx11ERKNS_15AssertionResultEPKcS5_S5_(ptr sret(%"class.std::__cxx11::basic_string") align 8, ptr noundef nonnull align 8 dereferenceable(16), ptr noundef, ptr noundef, ptr noundef) local_unnamed_addr #0

; Function Attrs: mustprogress uwtable
define hidden void @_ZN33AdjacencyMatrix_Constructors_Test8TestBodyEv(ptr nocapture nonnull readnone align 8 %this) unnamed_addr #4 align 2 personality ptr @__gxx_personality_v0 {
if.then.i.i:
  %gtest_ar = alloca %"class.testing::AssertionResult", align 8
  %ref.tmp6 = alloca %"class.testing::Message", align 8
  %ref.tmp9 = alloca %"class.testing::internal::AssertHelper", align 8
  %gtest_ar36 = alloca %"class.testing::AssertionResult", align 8
  %ref.tmp49 = alloca %"class.testing::Message", align 8
  %ref.tmp52 = alloca %"class.testing::internal::AssertHelper", align 8
  %gtest_ar83 = alloca %"class.testing::AssertionResult", align 8
  %ref.tmp96 = alloca %"class.testing::Message", align 8
  %ref.tmp99 = alloca %"class.testing::internal::AssertHelper", align 8
  %gtest_ar117 = alloca %"class.testing::AssertionResult", align 8
  %ref.tmp130 = alloca %"class.testing::Message", align 8
  %ref.tmp133 = alloca %"class.testing::internal::AssertHelper", align 8
  %gtest_ar_187 = alloca %"class.testing::AssertionResult", align 8
  %ref.tmp200 = alloca %"class.testing::Message", align 8
  %ref.tmp203 = alloca %"class.testing::internal::AssertHelper", align 8
  %ref.tmp204 = alloca %"class.std::__cxx11::basic_string", align 8
  call void @llvm.lifetime.start.p0(i64 16, ptr nonnull %gtest_ar) #21
  invoke void @_ZN7testing16AssertionSuccessEv(ptr nonnull sret(%"class.testing::AssertionResult") align 8 %gtest_ar)
          to label %invoke.cont unwind label %lpad

invoke.cont:                                      ; preds = %if.then.i.i
  %0 = load i8, ptr %gtest_ar, align 8, !tbaa !21, !range !30, !noundef !31
  %tobool.i.not = icmp eq i8 %0, 0
  br i1 %tobool.i.not, label %if.else, label %cleanup.cont.critedge

lpad:                                             ; preds = %if.then.i.i
  %1 = landingpad { ptr, i32 }
          cleanup
  br label %ehcleanup20

if.else:                                          ; preds = %invoke.cont
  call void @llvm.lifetime.start.p0(i64 8, ptr nonnull %ref.tmp6) #21
  invoke void @_ZN7testing7MessageC1Ev(ptr noundef nonnull align 8 dereferenceable(8) %ref.tmp6)
          to label %invoke.cont8 unwind label %lpad7

invoke.cont8:                                     ; preds = %if.else
  call void @llvm.lifetime.start.p0(i64 8, ptr nonnull %ref.tmp9) #21
  %message_.i.i = getelementptr inbounds %"class.testing::AssertionResult", ptr %gtest_ar, i64 0, i32 1
  %2 = load ptr, ptr %message_.i.i, align 8, !tbaa !32
  %cmp.not.i.i = icmp eq ptr %2, null
  br i1 %cmp.not.i.i, label %invoke.cont11, label %cond.true.i.i

cond.true.i.i:                                    ; preds = %invoke.cont8
  %3 = load ptr, ptr %2, align 8, !tbaa !33
  br label %invoke.cont11

invoke.cont11:                                    ; preds = %cond.true.i.i, %invoke.cont8
  %cond.i.i = phi ptr [ %3, %cond.true.i.i ], [ @.str.105, %invoke.cont8 ]
  invoke void @_ZN7testing8internal12AssertHelperC1ENS_14TestPartResult4TypeEPKciS5_(ptr noundef nonnull align 8 dereferenceable(8) %ref.tmp9, i32 noundef 2, ptr noundef nonnull @.str.3, i32 noundef 24, ptr noundef %cond.i.i)
          to label %invoke.cont13 unwind label %lpad10

invoke.cont13:                                    ; preds = %invoke.cont11
  invoke void @_ZNK7testing8internal12AssertHelperaSERKNS_7MessageE(ptr noundef nonnull align 8 dereferenceable(8) %ref.tmp9, ptr noundef nonnull align 8 dereferenceable(8) %ref.tmp6)
          to label %invoke.cont15 unwind label %lpad14

invoke.cont15:                                    ; preds = %invoke.cont13
  call void @_ZN7testing8internal12AssertHelperD1Ev(ptr noundef nonnull align 8 dereferenceable(8) %ref.tmp9) #21
  call void @llvm.lifetime.end.p0(i64 8, ptr nonnull %ref.tmp9) #21
  %4 = load ptr, ptr %ref.tmp6, align 8, !tbaa !32
  %cmp.not.i.i277 = icmp eq ptr %4, null
  br i1 %cmp.not.i.i277, label %_ZN7testing7MessageD2Ev.exit, label %_ZNKSt14default_deleteINSt7__cxx1118basic_stringstreamIcSt11char_traitsIcESaIcEEEEclEPS5_.exit.i.i

_ZNKSt14default_deleteINSt7__cxx1118basic_stringstreamIcSt11char_traitsIcESaIcEEEEclEPS5_.exit.i.i: ; preds = %invoke.cont15
  %vtable.i.i.i = load ptr, ptr %4, align 8, !tbaa !4
  %vfn.i.i.i = getelementptr inbounds ptr, ptr %vtable.i.i.i, i64 1
  %5 = load ptr, ptr %vfn.i.i.i, align 8
  call void %5(ptr noundef nonnull align 8 dereferenceable(128) %4) #21
  br label %_ZN7testing7MessageD2Ev.exit

_ZN7testing7MessageD2Ev.exit:                     ; preds = %_ZNKSt14default_deleteINSt7__cxx1118basic_stringstreamIcSt11char_traitsIcESaIcEEEEclEPS5_.exit.i.i, %invoke.cont15
  call void @llvm.lifetime.end.p0(i64 8, ptr nonnull %ref.tmp6) #21
  %6 = load ptr, ptr %message_.i.i, align 8, !tbaa !32
  %cmp.not.i.i278 = icmp eq ptr %6, null
  br i1 %cmp.not.i.i278, label %_ZN7testing15AssertionResultD2Ev.exit, label %delete.notnull.i.i.i

delete.notnull.i.i.i:                             ; preds = %_ZN7testing7MessageD2Ev.exit
  %7 = load ptr, ptr %6, align 8, !tbaa !33
  %8 = getelementptr inbounds %"class.std::__cxx11::basic_string", ptr %6, i64 0, i32 2
  %cmp.i.i.i.i.i.i = icmp eq ptr %7, %8
  br i1 %cmp.i.i.i.i.i.i, label %_ZNKSt7__cxx1112basic_stringIcSt11char_traitsIcESaIcEE11_M_is_localEv.exit.thread.i.i.i.i.i, label %if.then.i.i.i.i.i

_ZNKSt7__cxx1112basic_stringIcSt11char_traitsIcESaIcEE11_M_is_localEv.exit.thread.i.i.i.i.i: ; preds = %delete.notnull.i.i.i
  %_M_string_length.i.i.i.i.i.i = getelementptr inbounds %"class.std::__cxx11::basic_string", ptr %6, i64 0, i32 1
  %9 = load i64, ptr %_M_string_length.i.i.i.i.i.i, align 8, !tbaa !36
  %cmp3.i.i.i.i.i.i = icmp ult i64 %9, 16
  call void @llvm.assume(i1 %cmp3.i.i.i.i.i.i)
  br label %_ZNKSt14default_deleteINSt7__cxx1112basic_stringIcSt11char_traitsIcESaIcEEEEclEPS5_.exit.i.i

if.then.i.i.i.i.i:                                ; preds = %delete.notnull.i.i.i
  call void @_ZdlPv(ptr noundef %7) #23
  br label %_ZNKSt14default_deleteINSt7__cxx1112basic_stringIcSt11char_traitsIcESaIcEEEEclEPS5_.exit.i.i

_ZNKSt14default_deleteINSt7__cxx1112basic_stringIcSt11char_traitsIcESaIcEEEEclEPS5_.exit.i.i: ; preds = %if.then.i.i.i.i.i, %_ZNKSt7__cxx1112basic_stringIcSt11char_traitsIcESaIcEE11_M_is_localEv.exit.thread.i.i.i.i.i
  call void @_ZdlPv(ptr noundef nonnull %6) #23
  br label %_ZN7testing15AssertionResultD2Ev.exit

_ZN7testing15AssertionResultD2Ev.exit:            ; preds = %_ZNKSt14default_deleteINSt7__cxx1112basic_stringIcSt11char_traitsIcESaIcEEEEclEPS5_.exit.i.i, %_ZN7testing7MessageD2Ev.exit
  call void @llvm.lifetime.end.p0(i64 16, ptr nonnull %gtest_ar) #21
  br label %_ZN4entt16adjacency_matrixINS_12directed_tagESaImEED2Ev.exit551

lpad7:                                            ; preds = %if.else
  %10 = landingpad { ptr, i32 }
          cleanup
  br label %ehcleanup17

lpad10:                                           ; preds = %invoke.cont11
  %11 = landingpad { ptr, i32 }
          cleanup
  br label %ehcleanup

lpad14:                                           ; preds = %invoke.cont13
  %12 = landingpad { ptr, i32 }
          cleanup
  call void @_ZN7testing8internal12AssertHelperD1Ev(ptr noundef nonnull align 8 dereferenceable(8) %ref.tmp9) #21
  br label %ehcleanup

ehcleanup:                                        ; preds = %lpad14, %lpad10
  %.pn = phi { ptr, i32 } [ %12, %lpad14 ], [ %11, %lpad10 ]
  call void @llvm.lifetime.end.p0(i64 8, ptr nonnull %ref.tmp9) #21
  %13 = load ptr, ptr %ref.tmp6, align 8, !tbaa !32
  %cmp.not.i.i279 = icmp eq ptr %13, null
  br i1 %cmp.not.i.i279, label %ehcleanup17, label %_ZNKSt14default_deleteINSt7__cxx1118basic_stringstreamIcSt11char_traitsIcESaIcEEEEclEPS5_.exit.i.i280

_ZNKSt14default_deleteINSt7__cxx1118basic_stringstreamIcSt11char_traitsIcESaIcEEEEclEPS5_.exit.i.i280: ; preds = %ehcleanup
  %vtable.i.i.i281 = load ptr, ptr %13, align 8, !tbaa !4
  %vfn.i.i.i282 = getelementptr inbounds ptr, ptr %vtable.i.i.i281, i64 1
  %14 = load ptr, ptr %vfn.i.i.i282, align 8
  call void %14(ptr noundef nonnull align 8 dereferenceable(128) %13) #21
  br label %ehcleanup17

ehcleanup17:                                      ; preds = %_ZNKSt14default_deleteINSt7__cxx1118basic_stringstreamIcSt11char_traitsIcESaIcEEEEclEPS5_.exit.i.i280, %ehcleanup, %lpad7
  %.pn.pn = phi { ptr, i32 } [ %10, %lpad7 ], [ %.pn, %ehcleanup ], [ %.pn, %_ZNKSt14default_deleteINSt7__cxx1118basic_stringstreamIcSt11char_traitsIcESaIcEEEEclEPS5_.exit.i.i280 ]
  call void @llvm.lifetime.end.p0(i64 8, ptr nonnull %ref.tmp6) #21
  call void @_ZN7testing15AssertionResultD2Ev(ptr noundef nonnull align 8 dereferenceable(16) %gtest_ar) #21
  br label %ehcleanup20

cleanup.cont.critedge:                            ; preds = %invoke.cont
  %message_.i284 = getelementptr inbounds %"class.testing::AssertionResult", ptr %gtest_ar, i64 0, i32 1
  %15 = load ptr, ptr %message_.i284, align 8, !tbaa !32
  %cmp.not.i.i285 = icmp eq ptr %15, null
  br i1 %cmp.not.i.i285, label %_ZN4entt16adjacency_matrixINS_12directed_tagESaImEED2Ev.exit, label %delete.notnull.i.i.i286

delete.notnull.i.i.i286:                          ; preds = %cleanup.cont.critedge
  %16 = load ptr, ptr %15, align 8, !tbaa !33
  %17 = getelementptr inbounds %"class.std::__cxx11::basic_string", ptr %15, i64 0, i32 2
  %cmp.i.i.i.i.i.i287 = icmp eq ptr %16, %17
  br i1 %cmp.i.i.i.i.i.i287, label %_ZNKSt7__cxx1112basic_stringIcSt11char_traitsIcESaIcEE11_M_is_localEv.exit.thread.i.i.i.i.i290, label %if.then.i.i.i.i.i288

_ZNKSt7__cxx1112basic_stringIcSt11char_traitsIcESaIcEE11_M_is_localEv.exit.thread.i.i.i.i.i290: ; preds = %delete.notnull.i.i.i286
  %_M_string_length.i.i.i.i.i.i291 = getelementptr inbounds %"class.std::__cxx11::basic_string", ptr %15, i64 0, i32 1
  %18 = load i64, ptr %_M_string_length.i.i.i.i.i.i291, align 8, !tbaa !36
  %cmp3.i.i.i.i.i.i292 = icmp ult i64 %18, 16
  call void @llvm.assume(i1 %cmp3.i.i.i.i.i.i292)
  br label %_ZNKSt14default_deleteINSt7__cxx1112basic_stringIcSt11char_traitsIcESaIcEEEEclEPS5_.exit.i.i289

if.then.i.i.i.i.i288:                             ; preds = %delete.notnull.i.i.i286
  call void @_ZdlPv(ptr noundef %16) #23
  br label %_ZNKSt14default_deleteINSt7__cxx1112basic_stringIcSt11char_traitsIcESaIcEEEEclEPS5_.exit.i.i289

_ZNKSt14default_deleteINSt7__cxx1112basic_stringIcSt11char_traitsIcESaIcEEEEclEPS5_.exit.i.i289: ; preds = %if.then.i.i.i.i.i288, %_ZNKSt7__cxx1112basic_stringIcSt11char_traitsIcESaIcEE11_M_is_localEv.exit.thread.i.i.i.i.i290
  call void @_ZdlPv(ptr noundef nonnull %15) #23
  br label %_ZN4entt16adjacency_matrixINS_12directed_tagESaImEED2Ev.exit

_ZN4entt16adjacency_matrixINS_12directed_tagESaImEED2Ev.exit: ; preds = %_ZNKSt14default_deleteINSt7__cxx1112basic_stringIcSt11char_traitsIcESaIcEEEEclEPS5_.exit.i.i289, %cleanup.cont.critedge
  call void @llvm.lifetime.end.p0(i64 16, ptr nonnull %gtest_ar) #21
  %call5.i.i.i.i4.i.i.i297 = call noalias noundef nonnull dereferenceable(72) ptr @_Znwm(i64 noundef 72) #22
  %incdec.ptr.i.i.i.i.i.i = getelementptr inbounds i64, ptr %call5.i.i.i.i4.i.i.i297, i64 1
  call void @llvm.memset.p0.i64(ptr noundef nonnull align 8 dereferenceable(72) %call5.i.i.i.i4.i.i.i297, i8 0, i64 72, i1 false)
  call void @llvm.lifetime.start.p0(i64 16, ptr nonnull %gtest_ar36) #21
  invoke void @_ZN7testing16AssertionSuccessEv(ptr nonnull sret(%"class.testing::AssertionResult") align 8 %gtest_ar36)
          to label %invoke.cont41 unwind label %lpad40

invoke.cont41:                                    ; preds = %_ZN4entt16adjacency_matrixINS_12directed_tagESaImEED2Ev.exit
  %19 = load i8, ptr %gtest_ar36, align 8, !tbaa !21, !range !30, !noundef !31
  %tobool.i318.not = icmp eq i8 %19, 0
  br i1 %tobool.i318.not, label %if.else48, label %cleanup.cont68.critedge

ehcleanup20:                                      ; preds = %ehcleanup17, %lpad
  %.pn.pn.pn = phi { ptr, i32 } [ %.pn.pn, %ehcleanup17 ], [ %1, %lpad ]
  call void @llvm.lifetime.end.p0(i64 16, ptr nonnull %gtest_ar) #21
  br label %_ZN4entt16adjacency_matrixINS_12directed_tagESaImEED2Ev.exit560

lpad40:                                           ; preds = %_ZN4entt16adjacency_matrixINS_12directed_tagESaImEED2Ev.exit
  %20 = landingpad { ptr, i32 }
          cleanup
  br label %ehcleanup69

if.else48:                                        ; preds = %invoke.cont41
  call void @llvm.lifetime.start.p0(i64 8, ptr nonnull %ref.tmp49) #21
  invoke void @_ZN7testing7MessageC1Ev(ptr noundef nonnull align 8 dereferenceable(8) %ref.tmp49)
          to label %invoke.cont51 unwind label %lpad50

invoke.cont51:                                    ; preds = %if.else48
  call void @llvm.lifetime.start.p0(i64 8, ptr nonnull %ref.tmp52) #21
  %message_.i.i319 = getelementptr inbounds %"class.testing::AssertionResult", ptr %gtest_ar36, i64 0, i32 1
  %21 = load ptr, ptr %message_.i.i319, align 8, !tbaa !32
  %cmp.not.i.i320 = icmp eq ptr %21, null
  br i1 %cmp.not.i.i320, label %invoke.cont54, label %cond.true.i.i321

cond.true.i.i321:                                 ; preds = %invoke.cont51
  %22 = load ptr, ptr %21, align 8, !tbaa !33
  br label %invoke.cont54

invoke.cont54:                                    ; preds = %cond.true.i.i321, %invoke.cont51
  %cond.i.i322 = phi ptr [ %22, %cond.true.i.i321 ], [ @.str.105, %invoke.cont51 ]
  invoke void @_ZN7testing8internal12AssertHelperC1ENS_14TestPartResult4TypeEPKciS5_(ptr noundef nonnull align 8 dereferenceable(8) %ref.tmp52, i32 noundef 2, ptr noundef nonnull @.str.3, i32 noundef 29, ptr noundef %cond.i.i322)
          to label %invoke.cont56 unwind label %lpad53

invoke.cont56:                                    ; preds = %invoke.cont54
  invoke void @_ZNK7testing8internal12AssertHelperaSERKNS_7MessageE(ptr noundef nonnull align 8 dereferenceable(8) %ref.tmp52, ptr noundef nonnull align 8 dereferenceable(8) %ref.tmp49)
          to label %invoke.cont58 unwind label %lpad57

invoke.cont58:                                    ; preds = %invoke.cont56
  call void @_ZN7testing8internal12AssertHelperD1Ev(ptr noundef nonnull align 8 dereferenceable(8) %ref.tmp52) #21
  call void @llvm.lifetime.end.p0(i64 8, ptr nonnull %ref.tmp52) #21
  %23 = load ptr, ptr %ref.tmp49, align 8, !tbaa !32
  %cmp.not.i.i324 = icmp eq ptr %23, null
  br i1 %cmp.not.i.i324, label %_ZN7testing7MessageD2Ev.exit328, label %_ZNKSt14default_deleteINSt7__cxx1118basic_stringstreamIcSt11char_traitsIcESaIcEEEEclEPS5_.exit.i.i325

_ZNKSt14default_deleteINSt7__cxx1118basic_stringstreamIcSt11char_traitsIcESaIcEEEEclEPS5_.exit.i.i325: ; preds = %invoke.cont58
  %vtable.i.i.i326 = load ptr, ptr %23, align 8, !tbaa !4
  %vfn.i.i.i327 = getelementptr inbounds ptr, ptr %vtable.i.i.i326, i64 1
  %24 = load ptr, ptr %vfn.i.i.i327, align 8
  call void %24(ptr noundef nonnull align 8 dereferenceable(128) %23) #21
  br label %_ZN7testing7MessageD2Ev.exit328

_ZN7testing7MessageD2Ev.exit328:                  ; preds = %_ZNKSt14default_deleteINSt7__cxx1118basic_stringstreamIcSt11char_traitsIcESaIcEEEEclEPS5_.exit.i.i325, %invoke.cont58
  call void @llvm.lifetime.end.p0(i64 8, ptr nonnull %ref.tmp49) #21
  %25 = load ptr, ptr %message_.i.i319, align 8, !tbaa !32
  %cmp.not.i.i330 = icmp eq ptr %25, null
  br i1 %cmp.not.i.i330, label %if.then.i.i.i.i550, label %delete.notnull.i.i.i331

delete.notnull.i.i.i331:                          ; preds = %_ZN7testing7MessageD2Ev.exit328
  %26 = load ptr, ptr %25, align 8, !tbaa !33
  %27 = getelementptr inbounds %"class.std::__cxx11::basic_string", ptr %25, i64 0, i32 2
  %cmp.i.i.i.i.i.i332 = icmp eq ptr %26, %27
  br i1 %cmp.i.i.i.i.i.i332, label %_ZNKSt7__cxx1112basic_stringIcSt11char_traitsIcESaIcEE11_M_is_localEv.exit.thread.i.i.i.i.i335, label %if.then.i.i.i.i.i333

_ZNKSt7__cxx1112basic_stringIcSt11char_traitsIcESaIcEE11_M_is_localEv.exit.thread.i.i.i.i.i335: ; preds = %delete.notnull.i.i.i331
  %_M_string_length.i.i.i.i.i.i336 = getelementptr inbounds %"class.std::__cxx11::basic_string", ptr %25, i64 0, i32 1
  %28 = load i64, ptr %_M_string_length.i.i.i.i.i.i336, align 8, !tbaa !36
  %cmp3.i.i.i.i.i.i337 = icmp ult i64 %28, 16
  call void @llvm.assume(i1 %cmp3.i.i.i.i.i.i337)
  br label %_ZNKSt14default_deleteINSt7__cxx1112basic_stringIcSt11char_traitsIcESaIcEEEEclEPS5_.exit.i.i334

if.then.i.i.i.i.i333:                             ; preds = %delete.notnull.i.i.i331
  call void @_ZdlPv(ptr noundef %26) #23
  br label %_ZNKSt14default_deleteINSt7__cxx1112basic_stringIcSt11char_traitsIcESaIcEEEEclEPS5_.exit.i.i334

_ZNKSt14default_deleteINSt7__cxx1112basic_stringIcSt11char_traitsIcESaIcEEEEclEPS5_.exit.i.i334: ; preds = %if.then.i.i.i.i.i333, %_ZNKSt7__cxx1112basic_stringIcSt11char_traitsIcESaIcEE11_M_is_localEv.exit.thread.i.i.i.i.i335
  call void @_ZdlPv(ptr noundef nonnull %25) #23
  br label %if.then.i.i.i.i550

lpad50:                                           ; preds = %if.else48
  %29 = landingpad { ptr, i32 }
          cleanup
  br label %ehcleanup62

lpad53:                                           ; preds = %invoke.cont54
  %30 = landingpad { ptr, i32 }
          cleanup
  br label %ehcleanup60

lpad57:                                           ; preds = %invoke.cont56
  %31 = landingpad { ptr, i32 }
          cleanup
  call void @_ZN7testing8internal12AssertHelperD1Ev(ptr noundef nonnull align 8 dereferenceable(8) %ref.tmp52) #21
  br label %ehcleanup60

ehcleanup60:                                      ; preds = %lpad57, %lpad53
  %.pn253 = phi { ptr, i32 } [ %31, %lpad57 ], [ %30, %lpad53 ]
  call void @llvm.lifetime.end.p0(i64 8, ptr nonnull %ref.tmp52) #21
  %32 = load ptr, ptr %ref.tmp49, align 8, !tbaa !32
  %cmp.not.i.i339 = icmp eq ptr %32, null
  br i1 %cmp.not.i.i339, label %ehcleanup62, label %_ZNKSt14default_deleteINSt7__cxx1118basic_stringstreamIcSt11char_traitsIcESaIcEEEEclEPS5_.exit.i.i340

_ZNKSt14default_deleteINSt7__cxx1118basic_stringstreamIcSt11char_traitsIcESaIcEEEEclEPS5_.exit.i.i340: ; preds = %ehcleanup60
  %vtable.i.i.i341 = load ptr, ptr %32, align 8, !tbaa !4
  %vfn.i.i.i342 = getelementptr inbounds ptr, ptr %vtable.i.i.i341, i64 1
  %33 = load ptr, ptr %vfn.i.i.i342, align 8
  call void %33(ptr noundef nonnull align 8 dereferenceable(128) %32) #21
  br label %ehcleanup62

ehcleanup62:                                      ; preds = %_ZNKSt14default_deleteINSt7__cxx1118basic_stringstreamIcSt11char_traitsIcESaIcEEEEclEPS5_.exit.i.i340, %ehcleanup60, %lpad50
  %.pn253.pn = phi { ptr, i32 } [ %29, %lpad50 ], [ %.pn253, %ehcleanup60 ], [ %.pn253, %_ZNKSt14default_deleteINSt7__cxx1118basic_stringstreamIcSt11char_traitsIcESaIcEEEEclEPS5_.exit.i.i340 ]
  call void @llvm.lifetime.end.p0(i64 8, ptr nonnull %ref.tmp49) #21
  call void @_ZN7testing15AssertionResultD2Ev(ptr noundef nonnull align 8 dereferenceable(16) %gtest_ar36) #21
  br label %ehcleanup69

cleanup.cont68.critedge:                          ; preds = %invoke.cont41
  %message_.i344 = getelementptr inbounds %"class.testing::AssertionResult", ptr %gtest_ar36, i64 0, i32 1
  %34 = load ptr, ptr %message_.i344, align 8, !tbaa !32
  %cmp.not.i.i345 = icmp eq ptr %34, null
  br i1 %cmp.not.i.i345, label %cleanup.cont68, label %delete.notnull.i.i.i346

delete.notnull.i.i.i346:                          ; preds = %cleanup.cont68.critedge
  %35 = load ptr, ptr %34, align 8, !tbaa !33
  %36 = getelementptr inbounds %"class.std::__cxx11::basic_string", ptr %34, i64 0, i32 2
  %cmp.i.i.i.i.i.i347 = icmp eq ptr %35, %36
  br i1 %cmp.i.i.i.i.i.i347, label %_ZNKSt7__cxx1112basic_stringIcSt11char_traitsIcESaIcEE11_M_is_localEv.exit.thread.i.i.i.i.i350, label %if.then.i.i.i.i.i348

_ZNKSt7__cxx1112basic_stringIcSt11char_traitsIcESaIcEE11_M_is_localEv.exit.thread.i.i.i.i.i350: ; preds = %delete.notnull.i.i.i346
  %_M_string_length.i.i.i.i.i.i351 = getelementptr inbounds %"class.std::__cxx11::basic_string", ptr %34, i64 0, i32 1
  %37 = load i64, ptr %_M_string_length.i.i.i.i.i.i351, align 8, !tbaa !36
  %cmp3.i.i.i.i.i.i352 = icmp ult i64 %37, 16
  call void @llvm.assume(i1 %cmp3.i.i.i.i.i.i352)
  br label %_ZNKSt14default_deleteINSt7__cxx1112basic_stringIcSt11char_traitsIcESaIcEEEEclEPS5_.exit.i.i349

if.then.i.i.i.i.i348:                             ; preds = %delete.notnull.i.i.i346
  call void @_ZdlPv(ptr noundef %35) #23
  br label %_ZNKSt14default_deleteINSt7__cxx1112basic_stringIcSt11char_traitsIcESaIcEEEEclEPS5_.exit.i.i349

_ZNKSt14default_deleteINSt7__cxx1112basic_stringIcSt11char_traitsIcESaIcEEEEclEPS5_.exit.i.i349: ; preds = %if.then.i.i.i.i.i348, %_ZNKSt7__cxx1112basic_stringIcSt11char_traitsIcESaIcEE11_M_is_localEv.exit.thread.i.i.i.i.i350
  call void @_ZdlPv(ptr noundef nonnull %34) #23
  br label %cleanup.cont68

cleanup.cont68:                                   ; preds = %_ZNKSt14default_deleteINSt7__cxx1112basic_stringIcSt11char_traitsIcESaIcEEEEclEPS5_.exit.i.i349, %cleanup.cont68.critedge
  call void @llvm.lifetime.end.p0(i64 16, ptr nonnull %gtest_ar36) #21
  store i64 1, ptr %incdec.ptr.i.i.i.i.i.i, align 8, !tbaa !17, !noalias !46
  call void @llvm.lifetime.start.p0(i64 16, ptr nonnull %gtest_ar83) #21
  invoke void @_ZN7testing16AssertionSuccessEv(ptr nonnull sret(%"class.testing::AssertionResult") align 8 %gtest_ar83)
          to label %invoke.cont88 unwind label %lpad87

invoke.cont88:                                    ; preds = %cleanup.cont68
  %38 = load i8, ptr %gtest_ar83, align 8, !tbaa !21, !range !30, !noundef !31
  %tobool.i371.not = icmp eq i8 %38, 0
  br i1 %tobool.i371.not, label %if.else95, label %cleanup.cont115.critedge

ehcleanup69:                                      ; preds = %ehcleanup62, %lpad40
  %.pn253.pn.pn = phi { ptr, i32 } [ %.pn253.pn, %ehcleanup62 ], [ %20, %lpad40 ]
  call void @llvm.lifetime.end.p0(i64 16, ptr nonnull %gtest_ar36) #21
  call void @_ZdlPv(ptr noundef nonnull %call5.i.i.i.i4.i.i.i297) #23
  br label %_ZN4entt16adjacency_matrixINS_12directed_tagESaImEED2Ev.exit560

lpad87:                                           ; preds = %cleanup.cont68
  %39 = landingpad { ptr, i32 }
          cleanup
  br label %ehcleanup116

if.else95:                                        ; preds = %invoke.cont88
  call void @llvm.lifetime.start.p0(i64 8, ptr nonnull %ref.tmp96) #21
  invoke void @_ZN7testing7MessageC1Ev(ptr noundef nonnull align 8 dereferenceable(8) %ref.tmp96)
          to label %invoke.cont98 unwind label %lpad97

invoke.cont98:                                    ; preds = %if.else95
  call void @llvm.lifetime.start.p0(i64 8, ptr nonnull %ref.tmp99) #21
  %message_.i.i372 = getelementptr inbounds %"class.testing::AssertionResult", ptr %gtest_ar83, i64 0, i32 1
  %40 = load ptr, ptr %message_.i.i372, align 8, !tbaa !32
  %cmp.not.i.i373 = icmp eq ptr %40, null
  br i1 %cmp.not.i.i373, label %invoke.cont101, label %cond.true.i.i374

cond.true.i.i374:                                 ; preds = %invoke.cont98
  %41 = load ptr, ptr %40, align 8, !tbaa !33
  br label %invoke.cont101

invoke.cont101:                                   ; preds = %cond.true.i.i374, %invoke.cont98
  %cond.i.i375 = phi ptr [ %41, %cond.true.i.i374 ], [ @.str.105, %invoke.cont98 ]
  invoke void @_ZN7testing8internal12AssertHelperC1ENS_14TestPartResult4TypeEPKciS5_(ptr noundef nonnull align 8 dereferenceable(8) %ref.tmp99, i32 noundef 2, ptr noundef nonnull @.str.3, i32 noundef 36, ptr noundef %cond.i.i375)
          to label %invoke.cont103 unwind label %lpad100

invoke.cont103:                                   ; preds = %invoke.cont101
  invoke void @_ZNK7testing8internal12AssertHelperaSERKNS_7MessageE(ptr noundef nonnull align 8 dereferenceable(8) %ref.tmp99, ptr noundef nonnull align 8 dereferenceable(8) %ref.tmp96)
          to label %invoke.cont105 unwind label %lpad104

invoke.cont105:                                   ; preds = %invoke.cont103
  call void @_ZN7testing8internal12AssertHelperD1Ev(ptr noundef nonnull align 8 dereferenceable(8) %ref.tmp99) #21
  call void @llvm.lifetime.end.p0(i64 8, ptr nonnull %ref.tmp99) #21
  %42 = load ptr, ptr %ref.tmp96, align 8, !tbaa !32
  %cmp.not.i.i377 = icmp eq ptr %42, null
  br i1 %cmp.not.i.i377, label %_ZN7testing7MessageD2Ev.exit381, label %_ZNKSt14default_deleteINSt7__cxx1118basic_stringstreamIcSt11char_traitsIcESaIcEEEEclEPS5_.exit.i.i378

_ZNKSt14default_deleteINSt7__cxx1118basic_stringstreamIcSt11char_traitsIcESaIcEEEEclEPS5_.exit.i.i378: ; preds = %invoke.cont105
  %vtable.i.i.i379 = load ptr, ptr %42, align 8, !tbaa !4
  %vfn.i.i.i380 = getelementptr inbounds ptr, ptr %vtable.i.i.i379, i64 1
  %43 = load ptr, ptr %vfn.i.i.i380, align 8
  call void %43(ptr noundef nonnull align 8 dereferenceable(128) %42) #21
  br label %_ZN7testing7MessageD2Ev.exit381

_ZN7testing7MessageD2Ev.exit381:                  ; preds = %_ZNKSt14default_deleteINSt7__cxx1118basic_stringstreamIcSt11char_traitsIcESaIcEEEEclEPS5_.exit.i.i378, %invoke.cont105
  call void @llvm.lifetime.end.p0(i64 8, ptr nonnull %ref.tmp96) #21
  %44 = load ptr, ptr %message_.i.i372, align 8, !tbaa !32
  %cmp.not.i.i383 = icmp eq ptr %44, null
  br i1 %cmp.not.i.i383, label %_ZN7testing15AssertionResultD2Ev.exit391, label %delete.notnull.i.i.i384

delete.notnull.i.i.i384:                          ; preds = %_ZN7testing7MessageD2Ev.exit381
  %45 = load ptr, ptr %44, align 8, !tbaa !33
  %46 = getelementptr inbounds %"class.std::__cxx11::basic_string", ptr %44, i64 0, i32 2
  %cmp.i.i.i.i.i.i385 = icmp eq ptr %45, %46
  br i1 %cmp.i.i.i.i.i.i385, label %_ZNKSt7__cxx1112basic_stringIcSt11char_traitsIcESaIcEE11_M_is_localEv.exit.thread.i.i.i.i.i388, label %if.then.i.i.i.i.i386

_ZNKSt7__cxx1112basic_stringIcSt11char_traitsIcESaIcEE11_M_is_localEv.exit.thread.i.i.i.i.i388: ; preds = %delete.notnull.i.i.i384
  %_M_string_length.i.i.i.i.i.i389 = getelementptr inbounds %"class.std::__cxx11::basic_string", ptr %44, i64 0, i32 1
  %47 = load i64, ptr %_M_string_length.i.i.i.i.i.i389, align 8, !tbaa !36
  %cmp3.i.i.i.i.i.i390 = icmp ult i64 %47, 16
  call void @llvm.assume(i1 %cmp3.i.i.i.i.i.i390)
  br label %_ZNKSt14default_deleteINSt7__cxx1112basic_stringIcSt11char_traitsIcESaIcEEEEclEPS5_.exit.i.i387

if.then.i.i.i.i.i386:                             ; preds = %delete.notnull.i.i.i384
  call void @_ZdlPv(ptr noundef %45) #23
  br label %_ZNKSt14default_deleteINSt7__cxx1112basic_stringIcSt11char_traitsIcESaIcEEEEclEPS5_.exit.i.i387

_ZNKSt14default_deleteINSt7__cxx1112basic_stringIcSt11char_traitsIcESaIcEEEEclEPS5_.exit.i.i387: ; preds = %if.then.i.i.i.i.i386, %_ZNKSt7__cxx1112basic_stringIcSt11char_traitsIcESaIcEE11_M_is_localEv.exit.thread.i.i.i.i.i388
  call void @_ZdlPv(ptr noundef nonnull %44) #23
  br label %_ZN7testing15AssertionResultD2Ev.exit391

_ZN7testing15AssertionResultD2Ev.exit391:         ; preds = %_ZNKSt14default_deleteINSt7__cxx1112basic_stringIcSt11char_traitsIcESaIcEEEEclEPS5_.exit.i.i387, %_ZN7testing7MessageD2Ev.exit381
  call void @llvm.lifetime.end.p0(i64 16, ptr nonnull %gtest_ar83) #21
  br label %_ZN4entt16adjacency_matrixINS_12directed_tagESaImEED2Ev.exit548

lpad97:                                           ; preds = %if.else95
  %48 = landingpad { ptr, i32 }
          cleanup
  br label %ehcleanup109

lpad100:                                          ; preds = %invoke.cont101
  %49 = landingpad { ptr, i32 }
          cleanup
  br label %ehcleanup107

lpad104:                                          ; preds = %invoke.cont103
  %50 = landingpad { ptr, i32 }
          cleanup
  call void @_ZN7testing8internal12AssertHelperD1Ev(ptr noundef nonnull align 8 dereferenceable(8) %ref.tmp99) #21
  br label %ehcleanup107

ehcleanup107:                                     ; preds = %lpad104, %lpad100
  %.pn257 = phi { ptr, i32 } [ %50, %lpad104 ], [ %49, %lpad100 ]
  call void @llvm.lifetime.end.p0(i64 8, ptr nonnull %ref.tmp99) #21
  %51 = load ptr, ptr %ref.tmp96, align 8, !tbaa !32
  %cmp.not.i.i392 = icmp eq ptr %51, null
  br i1 %cmp.not.i.i392, label %ehcleanup109, label %_ZNKSt14default_deleteINSt7__cxx1118basic_stringstreamIcSt11char_traitsIcESaIcEEEEclEPS5_.exit.i.i393

_ZNKSt14default_deleteINSt7__cxx1118basic_stringstreamIcSt11char_traitsIcESaIcEEEEclEPS5_.exit.i.i393: ; preds = %ehcleanup107
  %vtable.i.i.i394 = load ptr, ptr %51, align 8, !tbaa !4
  %vfn.i.i.i395 = getelementptr inbounds ptr, ptr %vtable.i.i.i394, i64 1
  %52 = load ptr, ptr %vfn.i.i.i395, align 8
  call void %52(ptr noundef nonnull align 8 dereferenceable(128) %51) #21
  br label %ehcleanup109

ehcleanup109:                                     ; preds = %_ZNKSt14default_deleteINSt7__cxx1118basic_stringstreamIcSt11char_traitsIcESaIcEEEEclEPS5_.exit.i.i393, %ehcleanup107, %lpad97
  %.pn257.pn = phi { ptr, i32 } [ %48, %lpad97 ], [ %.pn257, %ehcleanup107 ], [ %.pn257, %_ZNKSt14default_deleteINSt7__cxx1118basic_stringstreamIcSt11char_traitsIcESaIcEEEEclEPS5_.exit.i.i393 ]
  call void @llvm.lifetime.end.p0(i64 8, ptr nonnull %ref.tmp96) #21
  call void @_ZN7testing15AssertionResultD2Ev(ptr noundef nonnull align 8 dereferenceable(16) %gtest_ar83) #21
  br label %ehcleanup116

cleanup.cont115.critedge:                         ; preds = %invoke.cont88
  %message_.i397 = getelementptr inbounds %"class.testing::AssertionResult", ptr %gtest_ar83, i64 0, i32 1
  %53 = load ptr, ptr %message_.i397, align 8, !tbaa !32
  %cmp.not.i.i398 = icmp eq ptr %53, null
  br i1 %cmp.not.i.i398, label %if.then.i.i411, label %delete.notnull.i.i.i399

delete.notnull.i.i.i399:                          ; preds = %cleanup.cont115.critedge
  %54 = load ptr, ptr %53, align 8, !tbaa !33
  %55 = getelementptr inbounds %"class.std::__cxx11::basic_string", ptr %53, i64 0, i32 2
  %cmp.i.i.i.i.i.i400 = icmp eq ptr %54, %55
  br i1 %cmp.i.i.i.i.i.i400, label %_ZNKSt7__cxx1112basic_stringIcSt11char_traitsIcESaIcEE11_M_is_localEv.exit.thread.i.i.i.i.i403, label %if.then.i.i.i.i.i401

_ZNKSt7__cxx1112basic_stringIcSt11char_traitsIcESaIcEE11_M_is_localEv.exit.thread.i.i.i.i.i403: ; preds = %delete.notnull.i.i.i399
  %_M_string_length.i.i.i.i.i.i404 = getelementptr inbounds %"class.std::__cxx11::basic_string", ptr %53, i64 0, i32 1
  %56 = load i64, ptr %_M_string_length.i.i.i.i.i.i404, align 8, !tbaa !36
  %cmp3.i.i.i.i.i.i405 = icmp ult i64 %56, 16
  call void @llvm.assume(i1 %cmp3.i.i.i.i.i.i405)
  br label %_ZNKSt14default_deleteINSt7__cxx1112basic_stringIcSt11char_traitsIcESaIcEEEEclEPS5_.exit.i.i402

if.then.i.i.i.i.i401:                             ; preds = %delete.notnull.i.i.i399
  call void @_ZdlPv(ptr noundef %54) #23
  br label %_ZNKSt14default_deleteINSt7__cxx1112basic_stringIcSt11char_traitsIcESaIcEEEEclEPS5_.exit.i.i402

_ZNKSt14default_deleteINSt7__cxx1112basic_stringIcSt11char_traitsIcESaIcEEEEclEPS5_.exit.i.i402: ; preds = %if.then.i.i.i.i.i401, %_ZNKSt7__cxx1112basic_stringIcSt11char_traitsIcESaIcEE11_M_is_localEv.exit.thread.i.i.i.i.i403
  call void @_ZdlPv(ptr noundef nonnull %53) #23
  br label %if.then.i.i411

if.then.i.i411:                                   ; preds = %_ZNKSt14default_deleteINSt7__cxx1112basic_stringIcSt11char_traitsIcESaIcEEEEclEPS5_.exit.i.i402, %cleanup.cont115.critedge
  call void @llvm.lifetime.end.p0(i64 16, ptr nonnull %gtest_ar83) #21
  call void @llvm.lifetime.start.p0(i64 16, ptr nonnull %gtest_ar117) #21
  invoke void @_ZN7testing16AssertionSuccessEv(ptr nonnull sret(%"class.testing::AssertionResult") align 8 %gtest_ar117)
          to label %invoke.cont122 unwind label %lpad121

invoke.cont122:                                   ; preds = %if.then.i.i411
  %57 = load i8, ptr %gtest_ar117, align 8, !tbaa !21, !range !30, !noundef !31
  %tobool.i415.not = icmp eq i8 %57, 0
  br i1 %tobool.i415.not, label %if.else129, label %cleanup.cont149.critedge

ehcleanup116:                                     ; preds = %ehcleanup109, %lpad87
  %.pn257.pn.pn = phi { ptr, i32 } [ %.pn257.pn, %ehcleanup109 ], [ %39, %lpad87 ]
  call void @llvm.lifetime.end.p0(i64 16, ptr nonnull %gtest_ar83) #21
  br label %_ZN4entt16adjacency_matrixINS_12directed_tagESaImEED2Ev.exit557

lpad121:                                          ; preds = %if.then.i.i411
  %58 = landingpad { ptr, i32 }
          cleanup
  br label %ehcleanup150

if.else129:                                       ; preds = %invoke.cont122
  call void @llvm.lifetime.start.p0(i64 8, ptr nonnull %ref.tmp130) #21
  invoke void @_ZN7testing7MessageC1Ev(ptr noundef nonnull align 8 dereferenceable(8) %ref.tmp130)
          to label %invoke.cont132 unwind label %lpad131

invoke.cont132:                                   ; preds = %if.else129
  call void @llvm.lifetime.start.p0(i64 8, ptr nonnull %ref.tmp133) #21
  %message_.i.i416 = getelementptr inbounds %"class.testing::AssertionResult", ptr %gtest_ar117, i64 0, i32 1
  %59 = load ptr, ptr %message_.i.i416, align 8, !tbaa !32
  %cmp.not.i.i417 = icmp eq ptr %59, null
  br i1 %cmp.not.i.i417, label %invoke.cont135, label %cond.true.i.i418

cond.true.i.i418:                                 ; preds = %invoke.cont132
  %60 = load ptr, ptr %59, align 8, !tbaa !33
  br label %invoke.cont135

invoke.cont135:                                   ; preds = %cond.true.i.i418, %invoke.cont132
  %cond.i.i419 = phi ptr [ %60, %cond.true.i.i418 ], [ @.str.105, %invoke.cont132 ]
  invoke void @_ZN7testing8internal12AssertHelperC1ENS_14TestPartResult4TypeEPKciS5_(ptr noundef nonnull align 8 dereferenceable(8) %ref.tmp133, i32 noundef 2, ptr noundef nonnull @.str.3, i32 noundef 37, ptr noundef %cond.i.i419)
          to label %invoke.cont137 unwind label %lpad134

invoke.cont137:                                   ; preds = %invoke.cont135
  invoke void @_ZNK7testing8internal12AssertHelperaSERKNS_7MessageE(ptr noundef nonnull align 8 dereferenceable(8) %ref.tmp133, ptr noundef nonnull align 8 dereferenceable(8) %ref.tmp130)
          to label %invoke.cont139 unwind label %lpad138

invoke.cont139:                                   ; preds = %invoke.cont137
  call void @_ZN7testing8internal12AssertHelperD1Ev(ptr noundef nonnull align 8 dereferenceable(8) %ref.tmp133) #21
  call void @llvm.lifetime.end.p0(i64 8, ptr nonnull %ref.tmp133) #21
  %61 = load ptr, ptr %ref.tmp130, align 8, !tbaa !32
  %cmp.not.i.i421 = icmp eq ptr %61, null
  br i1 %cmp.not.i.i421, label %_ZN7testing7MessageD2Ev.exit425, label %_ZNKSt14default_deleteINSt7__cxx1118basic_stringstreamIcSt11char_traitsIcESaIcEEEEclEPS5_.exit.i.i422

_ZNKSt14default_deleteINSt7__cxx1118basic_stringstreamIcSt11char_traitsIcESaIcEEEEclEPS5_.exit.i.i422: ; preds = %invoke.cont139
  %vtable.i.i.i423 = load ptr, ptr %61, align 8, !tbaa !4
  %vfn.i.i.i424 = getelementptr inbounds ptr, ptr %vtable.i.i.i423, i64 1
  %62 = load ptr, ptr %vfn.i.i.i424, align 8
  call void %62(ptr noundef nonnull align 8 dereferenceable(128) %61) #21
  br label %_ZN7testing7MessageD2Ev.exit425

_ZN7testing7MessageD2Ev.exit425:                  ; preds = %_ZNKSt14default_deleteINSt7__cxx1118basic_stringstreamIcSt11char_traitsIcESaIcEEEEclEPS5_.exit.i.i422, %invoke.cont139
  call void @llvm.lifetime.end.p0(i64 8, ptr nonnull %ref.tmp130) #21
  %63 = load ptr, ptr %message_.i.i416, align 8, !tbaa !32
  %cmp.not.i.i427 = icmp eq ptr %63, null
  br i1 %cmp.not.i.i427, label %_ZN7testing15AssertionResultD2Ev.exit435, label %delete.notnull.i.i.i428

delete.notnull.i.i.i428:                          ; preds = %_ZN7testing7MessageD2Ev.exit425
  %64 = load ptr, ptr %63, align 8, !tbaa !33
  %65 = getelementptr inbounds %"class.std::__cxx11::basic_string", ptr %63, i64 0, i32 2
  %cmp.i.i.i.i.i.i429 = icmp eq ptr %64, %65
  br i1 %cmp.i.i.i.i.i.i429, label %_ZNKSt7__cxx1112basic_stringIcSt11char_traitsIcESaIcEE11_M_is_localEv.exit.thread.i.i.i.i.i432, label %if.then.i.i.i.i.i430

_ZNKSt7__cxx1112basic_stringIcSt11char_traitsIcESaIcEE11_M_is_localEv.exit.thread.i.i.i.i.i432: ; preds = %delete.notnull.i.i.i428
  %_M_string_length.i.i.i.i.i.i433 = getelementptr inbounds %"class.std::__cxx11::basic_string", ptr %63, i64 0, i32 1
  %66 = load i64, ptr %_M_string_length.i.i.i.i.i.i433, align 8, !tbaa !36
  %cmp3.i.i.i.i.i.i434 = icmp ult i64 %66, 16
  call void @llvm.assume(i1 %cmp3.i.i.i.i.i.i434)
  br label %_ZNKSt14default_deleteINSt7__cxx1112basic_stringIcSt11char_traitsIcESaIcEEEEclEPS5_.exit.i.i431

if.then.i.i.i.i.i430:                             ; preds = %delete.notnull.i.i.i428
  call void @_ZdlPv(ptr noundef %64) #23
  br label %_ZNKSt14default_deleteINSt7__cxx1112basic_stringIcSt11char_traitsIcESaIcEEEEclEPS5_.exit.i.i431

_ZNKSt14default_deleteINSt7__cxx1112basic_stringIcSt11char_traitsIcESaIcEEEEclEPS5_.exit.i.i431: ; preds = %if.then.i.i.i.i.i430, %_ZNKSt7__cxx1112basic_stringIcSt11char_traitsIcESaIcEE11_M_is_localEv.exit.thread.i.i.i.i.i432
  call void @_ZdlPv(ptr noundef nonnull %63) #23
  br label %_ZN7testing15AssertionResultD2Ev.exit435

_ZN7testing15AssertionResultD2Ev.exit435:         ; preds = %_ZNKSt14default_deleteINSt7__cxx1112basic_stringIcSt11char_traitsIcESaIcEEEEclEPS5_.exit.i.i431, %_ZN7testing7MessageD2Ev.exit425
  call void @llvm.lifetime.end.p0(i64 16, ptr nonnull %gtest_ar117) #21
  br label %_ZN4entt16adjacency_matrixINS_12directed_tagESaImEED2Ev.exit548

lpad131:                                          ; preds = %if.else129
  %67 = landingpad { ptr, i32 }
          cleanup
  br label %ehcleanup143

lpad134:                                          ; preds = %invoke.cont135
  %68 = landingpad { ptr, i32 }
          cleanup
  br label %ehcleanup141

lpad138:                                          ; preds = %invoke.cont137
  %69 = landingpad { ptr, i32 }
          cleanup
  call void @_ZN7testing8internal12AssertHelperD1Ev(ptr noundef nonnull align 8 dereferenceable(8) %ref.tmp133) #21
  br label %ehcleanup141

ehcleanup141:                                     ; preds = %lpad138, %lpad134
  %.pn261 = phi { ptr, i32 } [ %69, %lpad138 ], [ %68, %lpad134 ]
  call void @llvm.lifetime.end.p0(i64 8, ptr nonnull %ref.tmp133) #21
  %70 = load ptr, ptr %ref.tmp130, align 8, !tbaa !32
  %cmp.not.i.i436 = icmp eq ptr %70, null
  br i1 %cmp.not.i.i436, label %ehcleanup143, label %_ZNKSt14default_deleteINSt7__cxx1118basic_stringstreamIcSt11char_traitsIcESaIcEEEEclEPS5_.exit.i.i437

_ZNKSt14default_deleteINSt7__cxx1118basic_stringstreamIcSt11char_traitsIcESaIcEEEEclEPS5_.exit.i.i437: ; preds = %ehcleanup141
  %vtable.i.i.i438 = load ptr, ptr %70, align 8, !tbaa !4
  %vfn.i.i.i439 = getelementptr inbounds ptr, ptr %vtable.i.i.i438, i64 1
  %71 = load ptr, ptr %vfn.i.i.i439, align 8
  call void %71(ptr noundef nonnull align 8 dereferenceable(128) %70) #21
  br label %ehcleanup143

ehcleanup143:                                     ; preds = %_ZNKSt14default_deleteINSt7__cxx1118basic_stringstreamIcSt11char_traitsIcESaIcEEEEclEPS5_.exit.i.i437, %ehcleanup141, %lpad131
  %.pn261.pn = phi { ptr, i32 } [ %67, %lpad131 ], [ %.pn261, %ehcleanup141 ], [ %.pn261, %_ZNKSt14default_deleteINSt7__cxx1118basic_stringstreamIcSt11char_traitsIcESaIcEEEEclEPS5_.exit.i.i437 ]
  call void @llvm.lifetime.end.p0(i64 8, ptr nonnull %ref.tmp130) #21
  call void @_ZN7testing15AssertionResultD2Ev(ptr noundef nonnull align 8 dereferenceable(16) %gtest_ar117) #21
  br label %ehcleanup150

cleanup.cont149.critedge:                         ; preds = %invoke.cont122
  %message_.i441 = getelementptr inbounds %"class.testing::AssertionResult", ptr %gtest_ar117, i64 0, i32 1
  %72 = load ptr, ptr %message_.i441, align 8, !tbaa !32
  %cmp.not.i.i442 = icmp eq ptr %72, null
  br i1 %cmp.not.i.i442, label %_ZNK4entt16adjacency_matrixINS_12directed_tagESaImEE8containsEmm.exit508, label %delete.notnull.i.i.i443

delete.notnull.i.i.i443:                          ; preds = %cleanup.cont149.critedge
  %73 = load ptr, ptr %72, align 8, !tbaa !33
  %74 = getelementptr inbounds %"class.std::__cxx11::basic_string", ptr %72, i64 0, i32 2
  %cmp.i.i.i.i.i.i444 = icmp eq ptr %73, %74
  br i1 %cmp.i.i.i.i.i.i444, label %_ZNKSt7__cxx1112basic_stringIcSt11char_traitsIcESaIcEE11_M_is_localEv.exit.thread.i.i.i.i.i447, label %if.then.i.i.i.i.i445

_ZNKSt7__cxx1112basic_stringIcSt11char_traitsIcESaIcEE11_M_is_localEv.exit.thread.i.i.i.i.i447: ; preds = %delete.notnull.i.i.i443
  %_M_string_length.i.i.i.i.i.i448 = getelementptr inbounds %"class.std::__cxx11::basic_string", ptr %72, i64 0, i32 1
  %75 = load i64, ptr %_M_string_length.i.i.i.i.i.i448, align 8, !tbaa !36
  %cmp3.i.i.i.i.i.i449 = icmp ult i64 %75, 16
  call void @llvm.assume(i1 %cmp3.i.i.i.i.i.i449)
  br label %_ZNKSt14default_deleteINSt7__cxx1112basic_stringIcSt11char_traitsIcESaIcEEEEclEPS5_.exit.i.i446

if.then.i.i.i.i.i445:                             ; preds = %delete.notnull.i.i.i443
  call void @_ZdlPv(ptr noundef %73) #23
  br label %_ZNKSt14default_deleteINSt7__cxx1112basic_stringIcSt11char_traitsIcESaIcEEEEclEPS5_.exit.i.i446

_ZNKSt14default_deleteINSt7__cxx1112basic_stringIcSt11char_traitsIcESaIcEEEEclEPS5_.exit.i.i446: ; preds = %if.then.i.i.i.i.i445, %_ZNKSt7__cxx1112basic_stringIcSt11char_traitsIcESaIcEE11_M_is_localEv.exit.thread.i.i.i.i.i447
  call void @_ZdlPv(ptr noundef nonnull %72) #23
  br label %_ZNK4entt16adjacency_matrixINS_12directed_tagESaImEE8containsEmm.exit508

ehcleanup150:                                     ; preds = %ehcleanup143, %lpad121
  %.pn261.pn.pn = phi { ptr, i32 } [ %.pn261.pn, %ehcleanup143 ], [ %58, %lpad121 ]
  call void @llvm.lifetime.end.p0(i64 16, ptr nonnull %gtest_ar117) #21
  br label %_ZN4entt16adjacency_matrixINS_12directed_tagESaImEED2Ev.exit557

_ZNK4entt16adjacency_matrixINS_12directed_tagESaImEE8containsEmm.exit508: ; preds = %_ZNKSt14default_deleteINSt7__cxx1112basic_stringIcSt11char_traitsIcESaIcEEEEclEPS5_.exit.i.i446, %cleanup.cont149.critedge
  call void @llvm.lifetime.end.p0(i64 16, ptr nonnull %gtest_ar117) #21
  call void @llvm.lifetime.start.p0(i64 16, ptr nonnull %gtest_ar_187) #21
  %76 = load i64, ptr %incdec.ptr.i.i.i.i.i.i, align 8, !tbaa !17
  %tobool.i507 = icmp ne i64 %76, 0
  %frombool192 = zext i1 %tobool.i507 to i8
  store i8 %frombool192, ptr %gtest_ar_187, align 8, !tbaa !21
  %message_.i509 = getelementptr inbounds %"class.testing::AssertionResult", ptr %gtest_ar_187, i64 0, i32 1
  store ptr null, ptr %message_.i509, align 8, !tbaa !37
  br i1 %tobool.i507, label %_ZN7testing15AssertionResultD2Ev.exit542, label %if.else199

if.else199:                                       ; preds = %_ZNK4entt16adjacency_matrixINS_12directed_tagESaImEE8containsEmm.exit508
  call void @llvm.lifetime.start.p0(i64 8, ptr nonnull %ref.tmp200) #21
  invoke void @_ZN7testing7MessageC1Ev(ptr noundef nonnull align 8 dereferenceable(8) %ref.tmp200)
          to label %invoke.cont202 unwind label %lpad201

invoke.cont202:                                   ; preds = %if.else199
  call void @llvm.lifetime.start.p0(i64 8, ptr nonnull %ref.tmp203) #21
  call void @llvm.lifetime.start.p0(i64 32, ptr nonnull %ref.tmp204) #21
  invoke void @_ZN7testing8internal30GetBoolAssertionFailureMessageB5cxx11ERKNS_15AssertionResultEPKcS5_S5_(ptr nonnull sret(%"class.std::__cxx11::basic_string") align 8 %ref.tmp204, ptr noundef nonnull align 8 dereferenceable(16) %gtest_ar_187, ptr noundef nonnull @.str.15, ptr noundef nonnull @.str.7, ptr noundef nonnull @.str.8)
          to label %invoke.cont206 unwind label %lpad205

invoke.cont206:                                   ; preds = %invoke.cont202
  %77 = load ptr, ptr %ref.tmp204, align 8, !tbaa !33
  invoke void @_ZN7testing8internal12AssertHelperC1ENS_14TestPartResult4TypeEPKciS5_(ptr noundef nonnull align 8 dereferenceable(8) %ref.tmp203, i32 noundef 2, ptr noundef nonnull @.str.3, i32 noundef 40, ptr noundef %77)
          to label %invoke.cont209 unwind label %lpad208

invoke.cont209:                                   ; preds = %invoke.cont206
  invoke void @_ZNK7testing8internal12AssertHelperaSERKNS_7MessageE(ptr noundef nonnull align 8 dereferenceable(8) %ref.tmp203, ptr noundef nonnull align 8 dereferenceable(8) %ref.tmp200)
          to label %invoke.cont211 unwind label %lpad210

invoke.cont211:                                   ; preds = %invoke.cont209
  call void @_ZN7testing8internal12AssertHelperD1Ev(ptr noundef nonnull align 8 dereferenceable(8) %ref.tmp203) #21
  %78 = load ptr, ptr %ref.tmp204, align 8, !tbaa !33
  %79 = getelementptr inbounds %"class.std::__cxx11::basic_string", ptr %ref.tmp204, i64 0, i32 2
  %cmp.i.i.i511 = icmp eq ptr %78, %79
  br i1 %cmp.i.i.i511, label %_ZNKSt7__cxx1112basic_stringIcSt11char_traitsIcESaIcEE11_M_is_localEv.exit.thread.i.i513, label %if.then.i.i512

_ZNKSt7__cxx1112basic_stringIcSt11char_traitsIcESaIcEE11_M_is_localEv.exit.thread.i.i513: ; preds = %invoke.cont211
  %_M_string_length.i.i.i514 = getelementptr inbounds %"class.std::__cxx11::basic_string", ptr %ref.tmp204, i64 0, i32 1
  %80 = load i64, ptr %_M_string_length.i.i.i514, align 8, !tbaa !36
  %cmp3.i.i.i515 = icmp ult i64 %80, 16
  call void @llvm.assume(i1 %cmp3.i.i.i515)
  br label %_ZNSt7__cxx1112basic_stringIcSt11char_traitsIcESaIcEED2Ev.exit516

if.then.i.i512:                                   ; preds = %invoke.cont211
  call void @_ZdlPv(ptr noundef %78) #23
  br label %_ZNSt7__cxx1112basic_stringIcSt11char_traitsIcESaIcEED2Ev.exit516

_ZNSt7__cxx1112basic_stringIcSt11char_traitsIcESaIcEED2Ev.exit516: ; preds = %if.then.i.i512, %_ZNKSt7__cxx1112basic_stringIcSt11char_traitsIcESaIcEE11_M_is_localEv.exit.thread.i.i513
  call void @llvm.lifetime.end.p0(i64 32, ptr nonnull %ref.tmp204) #21
  call void @llvm.lifetime.end.p0(i64 8, ptr nonnull %ref.tmp203) #21
  %81 = load ptr, ptr %ref.tmp200, align 8, !tbaa !32
  %cmp.not.i.i517 = icmp eq ptr %81, null
  br i1 %cmp.not.i.i517, label %cleanup219, label %_ZNKSt14default_deleteINSt7__cxx1118basic_stringstreamIcSt11char_traitsIcESaIcEEEEclEPS5_.exit.i.i518

_ZNKSt14default_deleteINSt7__cxx1118basic_stringstreamIcSt11char_traitsIcESaIcEEEEclEPS5_.exit.i.i518: ; preds = %_ZNSt7__cxx1112basic_stringIcSt11char_traitsIcESaIcEED2Ev.exit516
  %vtable.i.i.i519 = load ptr, ptr %81, align 8, !tbaa !4
  %vfn.i.i.i520 = getelementptr inbounds ptr, ptr %vtable.i.i.i519, i64 1
  %82 = load ptr, ptr %vfn.i.i.i520, align 8
  call void %82(ptr noundef nonnull align 8 dereferenceable(128) %81) #21
  br label %cleanup219

lpad201:                                          ; preds = %if.else199
  %83 = landingpad { ptr, i32 }
          cleanup
  br label %ehcleanup217

lpad205:                                          ; preds = %invoke.cont202
  %84 = landingpad { ptr, i32 }
          cleanup
  br label %ehcleanup214

lpad208:                                          ; preds = %invoke.cont206
  %85 = landingpad { ptr, i32 }
          cleanup
  br label %ehcleanup213

lpad210:                                          ; preds = %invoke.cont209
  %86 = landingpad { ptr, i32 }
          cleanup
  call void @_ZN7testing8internal12AssertHelperD1Ev(ptr noundef nonnull align 8 dereferenceable(8) %ref.tmp203) #21
  br label %ehcleanup213

ehcleanup213:                                     ; preds = %lpad210, %lpad208
  %.pn269 = phi { ptr, i32 } [ %86, %lpad210 ], [ %85, %lpad208 ]
  %87 = load ptr, ptr %ref.tmp204, align 8, !tbaa !33
  %88 = getelementptr inbounds %"class.std::__cxx11::basic_string", ptr %ref.tmp204, i64 0, i32 2
  %cmp.i.i.i522 = icmp eq ptr %87, %88
  br i1 %cmp.i.i.i522, label %_ZNKSt7__cxx1112basic_stringIcSt11char_traitsIcESaIcEE11_M_is_localEv.exit.thread.i.i524, label %if.then.i.i523

_ZNKSt7__cxx1112basic_stringIcSt11char_traitsIcESaIcEE11_M_is_localEv.exit.thread.i.i524: ; preds = %ehcleanup213
  %_M_string_length.i.i.i525 = getelementptr inbounds %"class.std::__cxx11::basic_string", ptr %ref.tmp204, i64 0, i32 1
  %89 = load i64, ptr %_M_string_length.i.i.i525, align 8, !tbaa !36
  %cmp3.i.i.i526 = icmp ult i64 %89, 16
  call void @llvm.assume(i1 %cmp3.i.i.i526)
  br label %ehcleanup214

if.then.i.i523:                                   ; preds = %ehcleanup213
  call void @_ZdlPv(ptr noundef %87) #23
  br label %ehcleanup214

ehcleanup214:                                     ; preds = %if.then.i.i523, %_ZNKSt7__cxx1112basic_stringIcSt11char_traitsIcESaIcEE11_M_is_localEv.exit.thread.i.i524, %lpad205
  %.pn269.pn = phi { ptr, i32 } [ %84, %lpad205 ], [ %.pn269, %_ZNKSt7__cxx1112basic_stringIcSt11char_traitsIcESaIcEE11_M_is_localEv.exit.thread.i.i524 ], [ %.pn269, %if.then.i.i523 ]
  call void @llvm.lifetime.end.p0(i64 32, ptr nonnull %ref.tmp204) #21
  call void @llvm.lifetime.end.p0(i64 8, ptr nonnull %ref.tmp203) #21
  %90 = load ptr, ptr %ref.tmp200, align 8, !tbaa !32
  %cmp.not.i.i528 = icmp eq ptr %90, null
  br i1 %cmp.not.i.i528, label %ehcleanup217, label %_ZNKSt14default_deleteINSt7__cxx1118basic_stringstreamIcSt11char_traitsIcESaIcEEEEclEPS5_.exit.i.i529

_ZNKSt14default_deleteINSt7__cxx1118basic_stringstreamIcSt11char_traitsIcESaIcEEEEclEPS5_.exit.i.i529: ; preds = %ehcleanup214
  %vtable.i.i.i530 = load ptr, ptr %90, align 8, !tbaa !4
  %vfn.i.i.i531 = getelementptr inbounds ptr, ptr %vtable.i.i.i530, i64 1
  %91 = load ptr, ptr %vfn.i.i.i531, align 8
  call void %91(ptr noundef nonnull align 8 dereferenceable(128) %90) #21
  br label %ehcleanup217

ehcleanup217:                                     ; preds = %_ZNKSt14default_deleteINSt7__cxx1118basic_stringstreamIcSt11char_traitsIcESaIcEEEEclEPS5_.exit.i.i529, %ehcleanup214, %lpad201
  %.pn269.pn.pn = phi { ptr, i32 } [ %83, %lpad201 ], [ %.pn269.pn, %ehcleanup214 ], [ %.pn269.pn, %_ZNKSt14default_deleteINSt7__cxx1118basic_stringstreamIcSt11char_traitsIcESaIcEEEEclEPS5_.exit.i.i529 ]
  call void @llvm.lifetime.end.p0(i64 8, ptr nonnull %ref.tmp200) #21
  call void @_ZN7testing15AssertionResultD2Ev(ptr noundef nonnull align 8 dereferenceable(16) %gtest_ar_187) #21
  call void @llvm.lifetime.end.p0(i64 16, ptr nonnull %gtest_ar_187) #21
  br label %_ZN4entt16adjacency_matrixINS_12directed_tagESaImEED2Ev.exit557

cleanup219:                                       ; preds = %_ZNKSt14default_deleteINSt7__cxx1118basic_stringstreamIcSt11char_traitsIcESaIcEEEEclEPS5_.exit.i.i518, %_ZNSt7__cxx1112basic_stringIcSt11char_traitsIcESaIcEED2Ev.exit516
  call void @llvm.lifetime.end.p0(i64 8, ptr nonnull %ref.tmp200) #21
  %.pr = load ptr, ptr %message_.i509, align 8, !tbaa !32
  %cmp.not.i.i534 = icmp eq ptr %.pr, null
  br i1 %cmp.not.i.i534, label %_ZN7testing15AssertionResultD2Ev.exit542, label %delete.notnull.i.i.i535

delete.notnull.i.i.i535:                          ; preds = %cleanup219
  %92 = load ptr, ptr %.pr, align 8, !tbaa !33
  %93 = getelementptr inbounds %"class.std::__cxx11::basic_string", ptr %.pr, i64 0, i32 2
  %cmp.i.i.i.i.i.i536 = icmp eq ptr %92, %93
  br i1 %cmp.i.i.i.i.i.i536, label %_ZNKSt7__cxx1112basic_stringIcSt11char_traitsIcESaIcEE11_M_is_localEv.exit.thread.i.i.i.i.i539, label %if.then.i.i.i.i.i537

_ZNKSt7__cxx1112basic_stringIcSt11char_traitsIcESaIcEE11_M_is_localEv.exit.thread.i.i.i.i.i539: ; preds = %delete.notnull.i.i.i535
  %_M_string_length.i.i.i.i.i.i540 = getelementptr inbounds %"class.std::__cxx11::basic_string", ptr %.pr, i64 0, i32 1
  %94 = load i64, ptr %_M_string_length.i.i.i.i.i.i540, align 8, !tbaa !36
  %cmp3.i.i.i.i.i.i541 = icmp ult i64 %94, 16
  call void @llvm.assume(i1 %cmp3.i.i.i.i.i.i541)
  br label %_ZNKSt14default_deleteINSt7__cxx1112basic_stringIcSt11char_traitsIcESaIcEEEEclEPS5_.exit.i.i538

if.then.i.i.i.i.i537:                             ; preds = %delete.notnull.i.i.i535
  call void @_ZdlPv(ptr noundef %92) #23
  br label %_ZNKSt14default_deleteINSt7__cxx1112basic_stringIcSt11char_traitsIcESaIcEEEEclEPS5_.exit.i.i538

_ZNKSt14default_deleteINSt7__cxx1112basic_stringIcSt11char_traitsIcESaIcEEEEclEPS5_.exit.i.i538: ; preds = %if.then.i.i.i.i.i537, %_ZNKSt7__cxx1112basic_stringIcSt11char_traitsIcESaIcEE11_M_is_localEv.exit.thread.i.i.i.i.i539
  call void @_ZdlPv(ptr noundef nonnull %.pr) #23
  br label %_ZN7testing15AssertionResultD2Ev.exit542

_ZN7testing15AssertionResultD2Ev.exit542:         ; preds = %_ZNKSt14default_deleteINSt7__cxx1112basic_stringIcSt11char_traitsIcESaIcEEEEclEPS5_.exit.i.i538, %cleanup219, %_ZNK4entt16adjacency_matrixINS_12directed_tagESaImEE8containsEmm.exit508
  call void @llvm.lifetime.end.p0(i64 16, ptr nonnull %gtest_ar_187) #21
  br label %_ZN4entt16adjacency_matrixINS_12directed_tagESaImEED2Ev.exit548

_ZN4entt16adjacency_matrixINS_12directed_tagESaImEED2Ev.exit548: ; preds = %_ZN7testing15AssertionResultD2Ev.exit542, %_ZN7testing15AssertionResultD2Ev.exit435, %_ZN7testing15AssertionResultD2Ev.exit391
  call void @_ZdlPv(ptr noundef nonnull %call5.i.i.i.i4.i.i.i297) #23
  br label %_ZN4entt16adjacency_matrixINS_12directed_tagESaImEED2Ev.exit551

if.then.i.i.i.i550:                               ; preds = %_ZNKSt14default_deleteINSt7__cxx1112basic_stringIcSt11char_traitsIcESaIcEEEEclEPS5_.exit.i.i334, %_ZN7testing7MessageD2Ev.exit328
  call void @llvm.lifetime.end.p0(i64 16, ptr nonnull %gtest_ar36) #21
  call void @_ZdlPv(ptr noundef nonnull %call5.i.i.i.i4.i.i.i297) #23
  br label %_ZN4entt16adjacency_matrixINS_12directed_tagESaImEED2Ev.exit551

_ZN4entt16adjacency_matrixINS_12directed_tagESaImEED2Ev.exit551: ; preds = %if.then.i.i.i.i550, %_ZN4entt16adjacency_matrixINS_12directed_tagESaImEED2Ev.exit548, %_ZN7testing15AssertionResultD2Ev.exit
  ret void

_ZN4entt16adjacency_matrixINS_12directed_tagESaImEED2Ev.exit557: ; preds = %ehcleanup217, %ehcleanup150, %ehcleanup116
  %.pn269.pn.pn.pn = phi { ptr, i32 } [ %.pn269.pn.pn, %ehcleanup217 ], [ %.pn261.pn.pn, %ehcleanup150 ], [ %.pn257.pn.pn, %ehcleanup116 ]
  call void @_ZdlPv(ptr noundef nonnull %call5.i.i.i.i4.i.i.i297) #23
  br label %_ZN4entt16adjacency_matrixINS_12directed_tagESaImEED2Ev.exit560

_ZN4entt16adjacency_matrixINS_12directed_tagESaImEED2Ev.exit560: ; preds = %_ZN4entt16adjacency_matrixINS_12directed_tagESaImEED2Ev.exit557, %ehcleanup69, %ehcleanup20
  %.pn269.pn.pn.pn.pn.pn601 = phi { ptr, i32 } [ %.pn253.pn.pn, %ehcleanup69 ], [ %.pn269.pn.pn.pn, %_ZN4entt16adjacency_matrixINS_12directed_tagESaImEED2Ev.exit557 ], [ %.pn.pn.pn, %ehcleanup20 ]
  resume { ptr, i32 } %.pn269.pn.pn.pn.pn.pn601
}

; Function Attrs: mustprogress uwtable
define hidden void @_ZN25AdjacencyMatrix_Copy_Test8TestBodyEv(ptr nocapture nonnull readnone align 8 %this) unnamed_addr #4 align 2 personality ptr @__gxx_personality_v0 {
entry:
  %gtest_ar = alloca %"class.testing::AssertionResult", align 8
  %ref.tmp13 = alloca %"class.testing::Message", align 8
  %ref.tmp16 = alloca %"class.testing::internal::AssertHelper", align 8
  %gtest_ar28 = alloca %"class.testing::AssertionResult", align 8
  %ref.tmp41 = alloca %"class.testing::Message", align 8
  %ref.tmp44 = alloca %"class.testing::internal::AssertHelper", align 8
  %gtest_ar_ = alloca %"class.testing::AssertionResult", align 8
  %ref.tmp73 = alloca %"class.testing::Message", align 8
  %ref.tmp76 = alloca %"class.testing::internal::AssertHelper", align 8
  %ref.tmp77 = alloca %"class.std::__cxx11::basic_string", align 8
  %gtest_ar_98 = alloca %"class.testing::AssertionResult", align 8
  %ref.tmp111 = alloca %"class.testing::Message", align 8
  %ref.tmp114 = alloca %"class.testing::internal::AssertHelper", align 8
  %ref.tmp115 = alloca %"class.std::__cxx11::basic_string", align 8
  %gtest_ar148 = alloca %"class.testing::AssertionResult", align 8
  %ref.tmp161 = alloca %"class.testing::Message", align 8
  %ref.tmp164 = alloca %"class.testing::internal::AssertHelper", align 8
  %gtest_ar182 = alloca %"class.testing::AssertionResult", align 8
  %ref.tmp195 = alloca %"class.testing::Message", align 8
  %ref.tmp198 = alloca %"class.testing::internal::AssertHelper", align 8
  %gtest_ar_216 = alloca %"class.testing::AssertionResult", align 8
  %ref.tmp229 = alloca %"class.testing::Message", align 8
  %ref.tmp232 = alloca %"class.testing::internal::AssertHelper", align 8
  %ref.tmp233 = alloca %"class.std::__cxx11::basic_string", align 8
  %gtest_ar_254 = alloca %"class.testing::AssertionResult", align 8
  %ref.tmp267 = alloca %"class.testing::Message", align 8
  %ref.tmp270 = alloca %"class.testing::internal::AssertHelper", align 8
  %ref.tmp271 = alloca %"class.std::__cxx11::basic_string", align 8
  %gtest_ar_292 = alloca %"class.testing::AssertionResult", align 8
  %ref.tmp305 = alloca %"class.testing::Message", align 8
  %ref.tmp308 = alloca %"class.testing::internal::AssertHelper", align 8
  %ref.tmp309 = alloca %"class.std::__cxx11::basic_string", align 8
  %call5.i.i.i.i4.i.i.i396 = tail call noalias noundef nonnull dereferenceable(72) ptr @_Znwm(i64 noundef 72) #22
  %incdec.ptr.i.i.i.i.i.i = getelementptr inbounds i64, ptr %call5.i.i.i.i4.i.i.i396, i64 1
  tail call void @llvm.memset.p0.i64(ptr noundef nonnull align 8 dereferenceable(72) %call5.i.i.i.i4.i.i.i396, i8 0, i64 72, i1 false)
  store i64 1, ptr %incdec.ptr.i.i.i.i.i.i, align 8, !tbaa !17, !noalias !49
  %call5.i.i.i.i4.i.i.i4.i398 = invoke noalias noundef nonnull dereferenceable(72) ptr @_Znwm(i64 noundef 72) #22
          to label %if.then.i.i unwind label %lpad4

if.then.i.i:                                      ; preds = %entry
  tail call void @llvm.memcpy.p0.p0.i64(ptr noundef nonnull align 8 dereferenceable(72) %call5.i.i.i.i4.i.i.i4.i398, ptr noundef nonnull align 8 dereferenceable(72) %call5.i.i.i.i4.i.i.i396, i64 72, i1 false)
  call void @llvm.lifetime.start.p0(i64 16, ptr nonnull %gtest_ar) #21
  invoke void @_ZN7testing16AssertionSuccessEv(ptr nonnull sret(%"class.testing::AssertionResult") align 8 %gtest_ar)
          to label %invoke.cont9 unwind label %lpad8

invoke.cont9:                                     ; preds = %if.then.i.i
  %0 = load i8, ptr %gtest_ar, align 8, !tbaa !21, !range !30, !noundef !31
  %tobool.i.not = icmp eq i8 %0, 0
  br i1 %tobool.i.not, label %if.else, label %cleanup.cont.critedge

lpad4:                                            ; preds = %entry
  %1 = landingpad { ptr, i32 }
          cleanup
  br label %ehcleanup339

lpad8:                                            ; preds = %if.then.i.i
  %2 = landingpad { ptr, i32 }
          cleanup
  br label %ehcleanup27

if.else:                                          ; preds = %invoke.cont9
  call void @llvm.lifetime.start.p0(i64 8, ptr nonnull %ref.tmp13) #21
  invoke void @_ZN7testing7MessageC1Ev(ptr noundef nonnull align 8 dereferenceable(8) %ref.tmp13)
          to label %invoke.cont15 unwind label %lpad14

invoke.cont15:                                    ; preds = %if.else
  call void @llvm.lifetime.start.p0(i64 8, ptr nonnull %ref.tmp16) #21
  %message_.i.i = getelementptr inbounds %"class.testing::AssertionResult", ptr %gtest_ar, i64 0, i32 1
  %3 = load ptr, ptr %message_.i.i, align 8, !tbaa !32
  %cmp.not.i.i402 = icmp eq ptr %3, null
  br i1 %cmp.not.i.i402, label %invoke.cont18, label %cond.true.i.i

cond.true.i.i:                                    ; preds = %invoke.cont15
  %4 = load ptr, ptr %3, align 8, !tbaa !33
  br label %invoke.cont18

invoke.cont18:                                    ; preds = %cond.true.i.i, %invoke.cont15
  %cond.i.i = phi ptr [ %4, %cond.true.i.i ], [ @.str.105, %invoke.cont15 ]
  invoke void @_ZN7testing8internal12AssertHelperC1ENS_14TestPartResult4TypeEPKciS5_(ptr noundef nonnull align 8 dereferenceable(8) %ref.tmp16, i32 noundef 2, ptr noundef nonnull @.str.3, i32 noundef 49, ptr noundef %cond.i.i)
          to label %invoke.cont20 unwind label %lpad17

invoke.cont20:                                    ; preds = %invoke.cont18
  invoke void @_ZNK7testing8internal12AssertHelperaSERKNS_7MessageE(ptr noundef nonnull align 8 dereferenceable(8) %ref.tmp16, ptr noundef nonnull align 8 dereferenceable(8) %ref.tmp13)
          to label %invoke.cont22 unwind label %lpad21

invoke.cont22:                                    ; preds = %invoke.cont20
  call void @_ZN7testing8internal12AssertHelperD1Ev(ptr noundef nonnull align 8 dereferenceable(8) %ref.tmp16) #21
  call void @llvm.lifetime.end.p0(i64 8, ptr nonnull %ref.tmp16) #21
  %5 = load ptr, ptr %ref.tmp13, align 8, !tbaa !32
  %cmp.not.i.i403 = icmp eq ptr %5, null
  br i1 %cmp.not.i.i403, label %_ZN7testing7MessageD2Ev.exit, label %_ZNKSt14default_deleteINSt7__cxx1118basic_stringstreamIcSt11char_traitsIcESaIcEEEEclEPS5_.exit.i.i

_ZNKSt14default_deleteINSt7__cxx1118basic_stringstreamIcSt11char_traitsIcESaIcEEEEclEPS5_.exit.i.i: ; preds = %invoke.cont22
  %vtable.i.i.i = load ptr, ptr %5, align 8, !tbaa !4
  %vfn.i.i.i = getelementptr inbounds ptr, ptr %vtable.i.i.i, i64 1
  %6 = load ptr, ptr %vfn.i.i.i, align 8
  call void %6(ptr noundef nonnull align 8 dereferenceable(128) %5) #21
  br label %_ZN7testing7MessageD2Ev.exit

_ZN7testing7MessageD2Ev.exit:                     ; preds = %_ZNKSt14default_deleteINSt7__cxx1118basic_stringstreamIcSt11char_traitsIcESaIcEEEEclEPS5_.exit.i.i, %invoke.cont22
  call void @llvm.lifetime.end.p0(i64 8, ptr nonnull %ref.tmp13) #21
  %7 = load ptr, ptr %message_.i.i, align 8, !tbaa !32
  %cmp.not.i.i404 = icmp eq ptr %7, null
  br i1 %cmp.not.i.i404, label %_ZN7testing15AssertionResultD2Ev.exit, label %delete.notnull.i.i.i

delete.notnull.i.i.i:                             ; preds = %_ZN7testing7MessageD2Ev.exit
  %8 = load ptr, ptr %7, align 8, !tbaa !33
  %9 = getelementptr inbounds %"class.std::__cxx11::basic_string", ptr %7, i64 0, i32 2
  %cmp.i.i.i.i.i.i = icmp eq ptr %8, %9
  br i1 %cmp.i.i.i.i.i.i, label %_ZNKSt7__cxx1112basic_stringIcSt11char_traitsIcESaIcEE11_M_is_localEv.exit.thread.i.i.i.i.i, label %if.then.i.i.i.i.i

_ZNKSt7__cxx1112basic_stringIcSt11char_traitsIcESaIcEE11_M_is_localEv.exit.thread.i.i.i.i.i: ; preds = %delete.notnull.i.i.i
  %_M_string_length.i.i.i.i.i.i = getelementptr inbounds %"class.std::__cxx11::basic_string", ptr %7, i64 0, i32 1
  %10 = load i64, ptr %_M_string_length.i.i.i.i.i.i, align 8, !tbaa !36
  %cmp3.i.i.i.i.i.i = icmp ult i64 %10, 16
  call void @llvm.assume(i1 %cmp3.i.i.i.i.i.i)
  br label %_ZNKSt14default_deleteINSt7__cxx1112basic_stringIcSt11char_traitsIcESaIcEEEEclEPS5_.exit.i.i

if.then.i.i.i.i.i:                                ; preds = %delete.notnull.i.i.i
  call void @_ZdlPv(ptr noundef %8) #23
  br label %_ZNKSt14default_deleteINSt7__cxx1112basic_stringIcSt11char_traitsIcESaIcEEEEclEPS5_.exit.i.i

_ZNKSt14default_deleteINSt7__cxx1112basic_stringIcSt11char_traitsIcESaIcEEEEclEPS5_.exit.i.i: ; preds = %if.then.i.i.i.i.i, %_ZNKSt7__cxx1112basic_stringIcSt11char_traitsIcESaIcEE11_M_is_localEv.exit.thread.i.i.i.i.i
  call void @_ZdlPv(ptr noundef nonnull %7) #23
  br label %_ZN7testing15AssertionResultD2Ev.exit

_ZN7testing15AssertionResultD2Ev.exit:            ; preds = %_ZNKSt14default_deleteINSt7__cxx1112basic_stringIcSt11char_traitsIcESaIcEEEEclEPS5_.exit.i.i, %_ZN7testing7MessageD2Ev.exit
  call void @llvm.lifetime.end.p0(i64 16, ptr nonnull %gtest_ar) #21
  br label %_ZN4entt16adjacency_matrixINS_12directed_tagESaImEED2Ev.exit869

lpad14:                                           ; preds = %if.else
  %11 = landingpad { ptr, i32 }
          cleanup
  br label %ehcleanup24

lpad17:                                           ; preds = %invoke.cont18
  %12 = landingpad { ptr, i32 }
          cleanup
  br label %ehcleanup

lpad21:                                           ; preds = %invoke.cont20
  %13 = landingpad { ptr, i32 }
          cleanup
  call void @_ZN7testing8internal12AssertHelperD1Ev(ptr noundef nonnull align 8 dereferenceable(8) %ref.tmp16) #21
  br label %ehcleanup

ehcleanup:                                        ; preds = %lpad21, %lpad17
  %.pn = phi { ptr, i32 } [ %13, %lpad21 ], [ %12, %lpad17 ]
  call void @llvm.lifetime.end.p0(i64 8, ptr nonnull %ref.tmp16) #21
  %14 = load ptr, ptr %ref.tmp13, align 8, !tbaa !32
  %cmp.not.i.i405 = icmp eq ptr %14, null
  br i1 %cmp.not.i.i405, label %ehcleanup24, label %_ZNKSt14default_deleteINSt7__cxx1118basic_stringstreamIcSt11char_traitsIcESaIcEEEEclEPS5_.exit.i.i406

_ZNKSt14default_deleteINSt7__cxx1118basic_stringstreamIcSt11char_traitsIcESaIcEEEEclEPS5_.exit.i.i406: ; preds = %ehcleanup
  %vtable.i.i.i407 = load ptr, ptr %14, align 8, !tbaa !4
  %vfn.i.i.i408 = getelementptr inbounds ptr, ptr %vtable.i.i.i407, i64 1
  %15 = load ptr, ptr %vfn.i.i.i408, align 8
  call void %15(ptr noundef nonnull align 8 dereferenceable(128) %14) #21
  br label %ehcleanup24

ehcleanup24:                                      ; preds = %_ZNKSt14default_deleteINSt7__cxx1118basic_stringstreamIcSt11char_traitsIcESaIcEEEEclEPS5_.exit.i.i406, %ehcleanup, %lpad14
  %.pn.pn = phi { ptr, i32 } [ %11, %lpad14 ], [ %.pn, %ehcleanup ], [ %.pn, %_ZNKSt14default_deleteINSt7__cxx1118basic_stringstreamIcSt11char_traitsIcESaIcEEEEclEPS5_.exit.i.i406 ]
  call void @llvm.lifetime.end.p0(i64 8, ptr nonnull %ref.tmp13) #21
  call void @_ZN7testing15AssertionResultD2Ev(ptr noundef nonnull align 8 dereferenceable(16) %gtest_ar) #21
  br label %ehcleanup27

cleanup.cont.critedge:                            ; preds = %invoke.cont9
  %message_.i410 = getelementptr inbounds %"class.testing::AssertionResult", ptr %gtest_ar, i64 0, i32 1
  %16 = load ptr, ptr %message_.i410, align 8, !tbaa !32
  %cmp.not.i.i411 = icmp eq ptr %16, null
  br i1 %cmp.not.i.i411, label %if.then.i.i424, label %delete.notnull.i.i.i412

delete.notnull.i.i.i412:                          ; preds = %cleanup.cont.critedge
  %17 = load ptr, ptr %16, align 8, !tbaa !33
  %18 = getelementptr inbounds %"class.std::__cxx11::basic_string", ptr %16, i64 0, i32 2
  %cmp.i.i.i.i.i.i413 = icmp eq ptr %17, %18
  br i1 %cmp.i.i.i.i.i.i413, label %_ZNKSt7__cxx1112basic_stringIcSt11char_traitsIcESaIcEE11_M_is_localEv.exit.thread.i.i.i.i.i416, label %if.then.i.i.i.i.i414

_ZNKSt7__cxx1112basic_stringIcSt11char_traitsIcESaIcEE11_M_is_localEv.exit.thread.i.i.i.i.i416: ; preds = %delete.notnull.i.i.i412
  %_M_string_length.i.i.i.i.i.i417 = getelementptr inbounds %"class.std::__cxx11::basic_string", ptr %16, i64 0, i32 1
  %19 = load i64, ptr %_M_string_length.i.i.i.i.i.i417, align 8, !tbaa !36
  %cmp3.i.i.i.i.i.i418 = icmp ult i64 %19, 16
  call void @llvm.assume(i1 %cmp3.i.i.i.i.i.i418)
  br label %_ZNKSt14default_deleteINSt7__cxx1112basic_stringIcSt11char_traitsIcESaIcEEEEclEPS5_.exit.i.i415

if.then.i.i.i.i.i414:                             ; preds = %delete.notnull.i.i.i412
  call void @_ZdlPv(ptr noundef %17) #23
  br label %_ZNKSt14default_deleteINSt7__cxx1112basic_stringIcSt11char_traitsIcESaIcEEEEclEPS5_.exit.i.i415

_ZNKSt14default_deleteINSt7__cxx1112basic_stringIcSt11char_traitsIcESaIcEEEEclEPS5_.exit.i.i415: ; preds = %if.then.i.i.i.i.i414, %_ZNKSt7__cxx1112basic_stringIcSt11char_traitsIcESaIcEE11_M_is_localEv.exit.thread.i.i.i.i.i416
  call void @_ZdlPv(ptr noundef nonnull %16) #23
  br label %if.then.i.i424

if.then.i.i424:                                   ; preds = %cleanup.cont.critedge, %_ZNKSt14default_deleteINSt7__cxx1112basic_stringIcSt11char_traitsIcESaIcEEEEclEPS5_.exit.i.i415
  call void @llvm.lifetime.end.p0(i64 16, ptr nonnull %gtest_ar) #21
  call void @llvm.lifetime.start.p0(i64 16, ptr nonnull %gtest_ar28) #21
  invoke void @_ZN7testing16AssertionSuccessEv(ptr nonnull sret(%"class.testing::AssertionResult") align 8 %gtest_ar28)
          to label %invoke.cont33 unwind label %lpad32

invoke.cont33:                                    ; preds = %if.then.i.i424
  %20 = load i8, ptr %gtest_ar28, align 8, !tbaa !21, !range !30, !noundef !31
  %tobool.i428.not = icmp eq i8 %20, 0
  br i1 %tobool.i428.not, label %if.else40, label %cleanup.cont60.critedge

ehcleanup27:                                      ; preds = %ehcleanup24, %lpad8
  %.pn.pn.pn = phi { ptr, i32 } [ %.pn.pn, %ehcleanup24 ], [ %2, %lpad8 ]
  call void @llvm.lifetime.end.p0(i64 16, ptr nonnull %gtest_ar) #21
  br label %if.then.i.i.i.i871

lpad32:                                           ; preds = %if.then.i.i424
  %21 = landingpad { ptr, i32 }
          cleanup
  br label %ehcleanup61

if.else40:                                        ; preds = %invoke.cont33
  call void @llvm.lifetime.start.p0(i64 8, ptr nonnull %ref.tmp41) #21
  invoke void @_ZN7testing7MessageC1Ev(ptr noundef nonnull align 8 dereferenceable(8) %ref.tmp41)
          to label %invoke.cont43 unwind label %lpad42

invoke.cont43:                                    ; preds = %if.else40
  call void @llvm.lifetime.start.p0(i64 8, ptr nonnull %ref.tmp44) #21
  %message_.i.i429 = getelementptr inbounds %"class.testing::AssertionResult", ptr %gtest_ar28, i64 0, i32 1
  %22 = load ptr, ptr %message_.i.i429, align 8, !tbaa !32
  %cmp.not.i.i430 = icmp eq ptr %22, null
  br i1 %cmp.not.i.i430, label %invoke.cont46, label %cond.true.i.i431

cond.true.i.i431:                                 ; preds = %invoke.cont43
  %23 = load ptr, ptr %22, align 8, !tbaa !33
  br label %invoke.cont46

invoke.cont46:                                    ; preds = %cond.true.i.i431, %invoke.cont43
  %cond.i.i432 = phi ptr [ %23, %cond.true.i.i431 ], [ @.str.105, %invoke.cont43 ]
  invoke void @_ZN7testing8internal12AssertHelperC1ENS_14TestPartResult4TypeEPKciS5_(ptr noundef nonnull align 8 dereferenceable(8) %ref.tmp44, i32 noundef 2, ptr noundef nonnull @.str.3, i32 noundef 50, ptr noundef %cond.i.i432)
          to label %invoke.cont48 unwind label %lpad45

invoke.cont48:                                    ; preds = %invoke.cont46
  invoke void @_ZNK7testing8internal12AssertHelperaSERKNS_7MessageE(ptr noundef nonnull align 8 dereferenceable(8) %ref.tmp44, ptr noundef nonnull align 8 dereferenceable(8) %ref.tmp41)
          to label %invoke.cont50 unwind label %lpad49

invoke.cont50:                                    ; preds = %invoke.cont48
  call void @_ZN7testing8internal12AssertHelperD1Ev(ptr noundef nonnull align 8 dereferenceable(8) %ref.tmp44) #21
  call void @llvm.lifetime.end.p0(i64 8, ptr nonnull %ref.tmp44) #21
  %24 = load ptr, ptr %ref.tmp41, align 8, !tbaa !32
  %cmp.not.i.i434 = icmp eq ptr %24, null
  br i1 %cmp.not.i.i434, label %_ZN7testing7MessageD2Ev.exit438, label %_ZNKSt14default_deleteINSt7__cxx1118basic_stringstreamIcSt11char_traitsIcESaIcEEEEclEPS5_.exit.i.i435

_ZNKSt14default_deleteINSt7__cxx1118basic_stringstreamIcSt11char_traitsIcESaIcEEEEclEPS5_.exit.i.i435: ; preds = %invoke.cont50
  %vtable.i.i.i436 = load ptr, ptr %24, align 8, !tbaa !4
  %vfn.i.i.i437 = getelementptr inbounds ptr, ptr %vtable.i.i.i436, i64 1
  %25 = load ptr, ptr %vfn.i.i.i437, align 8
  call void %25(ptr noundef nonnull align 8 dereferenceable(128) %24) #21
  br label %_ZN7testing7MessageD2Ev.exit438

_ZN7testing7MessageD2Ev.exit438:                  ; preds = %_ZNKSt14default_deleteINSt7__cxx1118basic_stringstreamIcSt11char_traitsIcESaIcEEEEclEPS5_.exit.i.i435, %invoke.cont50
  call void @llvm.lifetime.end.p0(i64 8, ptr nonnull %ref.tmp41) #21
  %26 = load ptr, ptr %message_.i.i429, align 8, !tbaa !32
  %cmp.not.i.i440 = icmp eq ptr %26, null
  br i1 %cmp.not.i.i440, label %_ZN7testing15AssertionResultD2Ev.exit448, label %delete.notnull.i.i.i441

delete.notnull.i.i.i441:                          ; preds = %_ZN7testing7MessageD2Ev.exit438
  %27 = load ptr, ptr %26, align 8, !tbaa !33
  %28 = getelementptr inbounds %"class.std::__cxx11::basic_string", ptr %26, i64 0, i32 2
  %cmp.i.i.i.i.i.i442 = icmp eq ptr %27, %28
  br i1 %cmp.i.i.i.i.i.i442, label %_ZNKSt7__cxx1112basic_stringIcSt11char_traitsIcESaIcEE11_M_is_localEv.exit.thread.i.i.i.i.i445, label %if.then.i.i.i.i.i443

_ZNKSt7__cxx1112basic_stringIcSt11char_traitsIcESaIcEE11_M_is_localEv.exit.thread.i.i.i.i.i445: ; preds = %delete.notnull.i.i.i441
  %_M_string_length.i.i.i.i.i.i446 = getelementptr inbounds %"class.std::__cxx11::basic_string", ptr %26, i64 0, i32 1
  %29 = load i64, ptr %_M_string_length.i.i.i.i.i.i446, align 8, !tbaa !36
  %cmp3.i.i.i.i.i.i447 = icmp ult i64 %29, 16
  call void @llvm.assume(i1 %cmp3.i.i.i.i.i.i447)
  br label %_ZNKSt14default_deleteINSt7__cxx1112basic_stringIcSt11char_traitsIcESaIcEEEEclEPS5_.exit.i.i444

if.then.i.i.i.i.i443:                             ; preds = %delete.notnull.i.i.i441
  call void @_ZdlPv(ptr noundef %27) #23
  br label %_ZNKSt14default_deleteINSt7__cxx1112basic_stringIcSt11char_traitsIcESaIcEEEEclEPS5_.exit.i.i444

_ZNKSt14default_deleteINSt7__cxx1112basic_stringIcSt11char_traitsIcESaIcEEEEclEPS5_.exit.i.i444: ; preds = %if.then.i.i.i.i.i443, %_ZNKSt7__cxx1112basic_stringIcSt11char_traitsIcESaIcEE11_M_is_localEv.exit.thread.i.i.i.i.i445
  call void @_ZdlPv(ptr noundef nonnull %26) #23
  br label %_ZN7testing15AssertionResultD2Ev.exit448

_ZN7testing15AssertionResultD2Ev.exit448:         ; preds = %_ZNKSt14default_deleteINSt7__cxx1112basic_stringIcSt11char_traitsIcESaIcEEEEclEPS5_.exit.i.i444, %_ZN7testing7MessageD2Ev.exit438
  call void @llvm.lifetime.end.p0(i64 16, ptr nonnull %gtest_ar28) #21
  br label %_ZN4entt16adjacency_matrixINS_12directed_tagESaImEED2Ev.exit869

lpad42:                                           ; preds = %if.else40
  %30 = landingpad { ptr, i32 }
          cleanup
  br label %ehcleanup54

lpad45:                                           ; preds = %invoke.cont46
  %31 = landingpad { ptr, i32 }
          cleanup
  br label %ehcleanup52

lpad49:                                           ; preds = %invoke.cont48
  %32 = landingpad { ptr, i32 }
          cleanup
  call void @_ZN7testing8internal12AssertHelperD1Ev(ptr noundef nonnull align 8 dereferenceable(8) %ref.tmp44) #21
  br label %ehcleanup52

ehcleanup52:                                      ; preds = %lpad49, %lpad45
  %.pn360 = phi { ptr, i32 } [ %32, %lpad49 ], [ %31, %lpad45 ]
  call void @llvm.lifetime.end.p0(i64 8, ptr nonnull %ref.tmp44) #21
  %33 = load ptr, ptr %ref.tmp41, align 8, !tbaa !32
  %cmp.not.i.i449 = icmp eq ptr %33, null
  br i1 %cmp.not.i.i449, label %ehcleanup54, label %_ZNKSt14default_deleteINSt7__cxx1118basic_stringstreamIcSt11char_traitsIcESaIcEEEEclEPS5_.exit.i.i450

_ZNKSt14default_deleteINSt7__cxx1118basic_stringstreamIcSt11char_traitsIcESaIcEEEEclEPS5_.exit.i.i450: ; preds = %ehcleanup52
  %vtable.i.i.i451 = load ptr, ptr %33, align 8, !tbaa !4
  %vfn.i.i.i452 = getelementptr inbounds ptr, ptr %vtable.i.i.i451, i64 1
  %34 = load ptr, ptr %vfn.i.i.i452, align 8
  call void %34(ptr noundef nonnull align 8 dereferenceable(128) %33) #21
  br label %ehcleanup54

ehcleanup54:                                      ; preds = %_ZNKSt14default_deleteINSt7__cxx1118basic_stringstreamIcSt11char_traitsIcESaIcEEEEclEPS5_.exit.i.i450, %ehcleanup52, %lpad42
  %.pn360.pn = phi { ptr, i32 } [ %30, %lpad42 ], [ %.pn360, %ehcleanup52 ], [ %.pn360, %_ZNKSt14default_deleteINSt7__cxx1118basic_stringstreamIcSt11char_traitsIcESaIcEEEEclEPS5_.exit.i.i450 ]
  call void @llvm.lifetime.end.p0(i64 8, ptr nonnull %ref.tmp41) #21
  call void @_ZN7testing15AssertionResultD2Ev(ptr noundef nonnull align 8 dereferenceable(16) %gtest_ar28) #21
  br label %ehcleanup61

cleanup.cont60.critedge:                          ; preds = %invoke.cont33
  %message_.i454 = getelementptr inbounds %"class.testing::AssertionResult", ptr %gtest_ar28, i64 0, i32 1
  %35 = load ptr, ptr %message_.i454, align 8, !tbaa !32
  %cmp.not.i.i455 = icmp eq ptr %35, null
  br i1 %cmp.not.i.i455, label %_ZNK4entt16adjacency_matrixINS_12directed_tagESaImEE8containsEmm.exit, label %delete.notnull.i.i.i456

delete.notnull.i.i.i456:                          ; preds = %cleanup.cont60.critedge
  %36 = load ptr, ptr %35, align 8, !tbaa !33
  %37 = getelementptr inbounds %"class.std::__cxx11::basic_string", ptr %35, i64 0, i32 2
  %cmp.i.i.i.i.i.i457 = icmp eq ptr %36, %37
  br i1 %cmp.i.i.i.i.i.i457, label %_ZNKSt7__cxx1112basic_stringIcSt11char_traitsIcESaIcEE11_M_is_localEv.exit.thread.i.i.i.i.i460, label %if.then.i.i.i.i.i458

_ZNKSt7__cxx1112basic_stringIcSt11char_traitsIcESaIcEE11_M_is_localEv.exit.thread.i.i.i.i.i460: ; preds = %delete.notnull.i.i.i456
  %_M_string_length.i.i.i.i.i.i461 = getelementptr inbounds %"class.std::__cxx11::basic_string", ptr %35, i64 0, i32 1
  %38 = load i64, ptr %_M_string_length.i.i.i.i.i.i461, align 8, !tbaa !36
  %cmp3.i.i.i.i.i.i462 = icmp ult i64 %38, 16
  call void @llvm.assume(i1 %cmp3.i.i.i.i.i.i462)
  br label %_ZNKSt14default_deleteINSt7__cxx1112basic_stringIcSt11char_traitsIcESaIcEEEEclEPS5_.exit.i.i459

if.then.i.i.i.i.i458:                             ; preds = %delete.notnull.i.i.i456
  call void @_ZdlPv(ptr noundef %36) #23
  br label %_ZNKSt14default_deleteINSt7__cxx1112basic_stringIcSt11char_traitsIcESaIcEEEEclEPS5_.exit.i.i459

_ZNKSt14default_deleteINSt7__cxx1112basic_stringIcSt11char_traitsIcESaIcEEEEclEPS5_.exit.i.i459: ; preds = %if.then.i.i.i.i.i458, %_ZNKSt7__cxx1112basic_stringIcSt11char_traitsIcESaIcEE11_M_is_localEv.exit.thread.i.i.i.i.i460
  call void @_ZdlPv(ptr noundef nonnull %35) #23
  br label %_ZNK4entt16adjacency_matrixINS_12directed_tagESaImEE8containsEmm.exit

_ZNK4entt16adjacency_matrixINS_12directed_tagESaImEE8containsEmm.exit: ; preds = %cleanup.cont60.critedge, %_ZNKSt14default_deleteINSt7__cxx1112basic_stringIcSt11char_traitsIcESaIcEEEEclEPS5_.exit.i.i459
  call void @llvm.lifetime.end.p0(i64 16, ptr nonnull %gtest_ar28) #21
  call void @llvm.lifetime.start.p0(i64 16, ptr nonnull %gtest_ar_) #21
  %39 = load i64, ptr %incdec.ptr.i.i.i.i.i.i, align 8, !tbaa !17
  %tobool.i471 = icmp ne i64 %39, 0
  %frombool = zext i1 %tobool.i471 to i8
  store i8 %frombool, ptr %gtest_ar_, align 8, !tbaa !21
  %message_.i472 = getelementptr inbounds %"class.testing::AssertionResult", ptr %gtest_ar_, i64 0, i32 1
  store ptr null, ptr %message_.i472, align 8, !tbaa !37
  br i1 %tobool.i471, label %_ZNK4entt16adjacency_matrixINS_12directed_tagESaImEE8containsEmm.exit521, label %if.else72

ehcleanup61:                                      ; preds = %ehcleanup54, %lpad32
  %.pn360.pn.pn = phi { ptr, i32 } [ %.pn360.pn, %ehcleanup54 ], [ %21, %lpad32 ]
  call void @llvm.lifetime.end.p0(i64 16, ptr nonnull %gtest_ar28) #21
  br label %if.then.i.i.i.i871

if.else72:                                        ; preds = %_ZNK4entt16adjacency_matrixINS_12directed_tagESaImEE8containsEmm.exit
  call void @llvm.lifetime.start.p0(i64 8, ptr nonnull %ref.tmp73) #21
  invoke void @_ZN7testing7MessageC1Ev(ptr noundef nonnull align 8 dereferenceable(8) %ref.tmp73)
          to label %invoke.cont75 unwind label %lpad74

invoke.cont75:                                    ; preds = %if.else72
  call void @llvm.lifetime.start.p0(i64 8, ptr nonnull %ref.tmp76) #21
  call void @llvm.lifetime.start.p0(i64 32, ptr nonnull %ref.tmp77) #21
  invoke void @_ZN7testing8internal30GetBoolAssertionFailureMessageB5cxx11ERKNS_15AssertionResultEPKcS5_S5_(ptr nonnull sret(%"class.std::__cxx11::basic_string") align 8 %ref.tmp77, ptr noundef nonnull align 8 dereferenceable(16) %gtest_ar_, ptr noundef nonnull @.str.14, ptr noundef nonnull @.str.7, ptr noundef nonnull @.str.8)
          to label %invoke.cont79 unwind label %lpad78

invoke.cont79:                                    ; preds = %invoke.cont75
  %40 = load ptr, ptr %ref.tmp77, align 8, !tbaa !33
  invoke void @_ZN7testing8internal12AssertHelperC1ENS_14TestPartResult4TypeEPKciS5_(ptr noundef nonnull align 8 dereferenceable(8) %ref.tmp76, i32 noundef 2, ptr noundef nonnull @.str.3, i32 noundef 52, ptr noundef %40)
          to label %invoke.cont82 unwind label %lpad81

invoke.cont82:                                    ; preds = %invoke.cont79
  invoke void @_ZNK7testing8internal12AssertHelperaSERKNS_7MessageE(ptr noundef nonnull align 8 dereferenceable(8) %ref.tmp76, ptr noundef nonnull align 8 dereferenceable(8) %ref.tmp73)
          to label %invoke.cont84 unwind label %lpad83

invoke.cont84:                                    ; preds = %invoke.cont82
  call void @_ZN7testing8internal12AssertHelperD1Ev(ptr noundef nonnull align 8 dereferenceable(8) %ref.tmp76) #21
  %41 = load ptr, ptr %ref.tmp77, align 8, !tbaa !33
  %42 = getelementptr inbounds %"class.std::__cxx11::basic_string", ptr %ref.tmp77, i64 0, i32 2
  %cmp.i.i.i = icmp eq ptr %41, %42
  br i1 %cmp.i.i.i, label %_ZNKSt7__cxx1112basic_stringIcSt11char_traitsIcESaIcEE11_M_is_localEv.exit.thread.i.i, label %if.then.i.i474

_ZNKSt7__cxx1112basic_stringIcSt11char_traitsIcESaIcEE11_M_is_localEv.exit.thread.i.i: ; preds = %invoke.cont84
  %_M_string_length.i.i.i = getelementptr inbounds %"class.std::__cxx11::basic_string", ptr %ref.tmp77, i64 0, i32 1
  %43 = load i64, ptr %_M_string_length.i.i.i, align 8, !tbaa !36
  %cmp3.i.i.i = icmp ult i64 %43, 16
  call void @llvm.assume(i1 %cmp3.i.i.i)
  br label %_ZNSt7__cxx1112basic_stringIcSt11char_traitsIcESaIcEED2Ev.exit

if.then.i.i474:                                   ; preds = %invoke.cont84
  call void @_ZdlPv(ptr noundef %41) #23
  br label %_ZNSt7__cxx1112basic_stringIcSt11char_traitsIcESaIcEED2Ev.exit

_ZNSt7__cxx1112basic_stringIcSt11char_traitsIcESaIcEED2Ev.exit: ; preds = %if.then.i.i474, %_ZNKSt7__cxx1112basic_stringIcSt11char_traitsIcESaIcEE11_M_is_localEv.exit.thread.i.i
  call void @llvm.lifetime.end.p0(i64 32, ptr nonnull %ref.tmp77) #21
  call void @llvm.lifetime.end.p0(i64 8, ptr nonnull %ref.tmp76) #21
  %44 = load ptr, ptr %ref.tmp73, align 8, !tbaa !32
  %cmp.not.i.i475 = icmp eq ptr %44, null
  br i1 %cmp.not.i.i475, label %_ZN7testing7MessageD2Ev.exit479, label %_ZNKSt14default_deleteINSt7__cxx1118basic_stringstreamIcSt11char_traitsIcESaIcEEEEclEPS5_.exit.i.i476

_ZNKSt14default_deleteINSt7__cxx1118basic_stringstreamIcSt11char_traitsIcESaIcEEEEclEPS5_.exit.i.i476: ; preds = %_ZNSt7__cxx1112basic_stringIcSt11char_traitsIcESaIcEED2Ev.exit
  %vtable.i.i.i477 = load ptr, ptr %44, align 8, !tbaa !4
  %vfn.i.i.i478 = getelementptr inbounds ptr, ptr %vtable.i.i.i477, i64 1
  %45 = load ptr, ptr %vfn.i.i.i478, align 8
  call void %45(ptr noundef nonnull align 8 dereferenceable(128) %44) #21
  br label %_ZN7testing7MessageD2Ev.exit479

_ZN7testing7MessageD2Ev.exit479:                  ; preds = %_ZNKSt14default_deleteINSt7__cxx1118basic_stringstreamIcSt11char_traitsIcESaIcEEEEclEPS5_.exit.i.i476, %_ZNSt7__cxx1112basic_stringIcSt11char_traitsIcESaIcEED2Ev.exit
  call void @llvm.lifetime.end.p0(i64 8, ptr nonnull %ref.tmp73) #21
  %46 = load ptr, ptr %message_.i472, align 8, !tbaa !32
  %cmp.not.i.i481 = icmp eq ptr %46, null
  br i1 %cmp.not.i.i481, label %_ZN7testing15AssertionResultD2Ev.exit489, label %delete.notnull.i.i.i482

delete.notnull.i.i.i482:                          ; preds = %_ZN7testing7MessageD2Ev.exit479
  %47 = load ptr, ptr %46, align 8, !tbaa !33
  %48 = getelementptr inbounds %"class.std::__cxx11::basic_string", ptr %46, i64 0, i32 2
  %cmp.i.i.i.i.i.i483 = icmp eq ptr %47, %48
  br i1 %cmp.i.i.i.i.i.i483, label %_ZNKSt7__cxx1112basic_stringIcSt11char_traitsIcESaIcEE11_M_is_localEv.exit.thread.i.i.i.i.i486, label %if.then.i.i.i.i.i484

_ZNKSt7__cxx1112basic_stringIcSt11char_traitsIcESaIcEE11_M_is_localEv.exit.thread.i.i.i.i.i486: ; preds = %delete.notnull.i.i.i482
  %_M_string_length.i.i.i.i.i.i487 = getelementptr inbounds %"class.std::__cxx11::basic_string", ptr %46, i64 0, i32 1
  %49 = load i64, ptr %_M_string_length.i.i.i.i.i.i487, align 8, !tbaa !36
  %cmp3.i.i.i.i.i.i488 = icmp ult i64 %49, 16
  call void @llvm.assume(i1 %cmp3.i.i.i.i.i.i488)
  br label %_ZNKSt14default_deleteINSt7__cxx1112basic_stringIcSt11char_traitsIcESaIcEEEEclEPS5_.exit.i.i485

if.then.i.i.i.i.i484:                             ; preds = %delete.notnull.i.i.i482
  call void @_ZdlPv(ptr noundef %47) #23
  br label %_ZNKSt14default_deleteINSt7__cxx1112basic_stringIcSt11char_traitsIcESaIcEEEEclEPS5_.exit.i.i485

_ZNKSt14default_deleteINSt7__cxx1112basic_stringIcSt11char_traitsIcESaIcEEEEclEPS5_.exit.i.i485: ; preds = %if.then.i.i.i.i.i484, %_ZNKSt7__cxx1112basic_stringIcSt11char_traitsIcESaIcEE11_M_is_localEv.exit.thread.i.i.i.i.i486
  call void @_ZdlPv(ptr noundef nonnull %46) #23
  br label %_ZN7testing15AssertionResultD2Ev.exit489

_ZN7testing15AssertionResultD2Ev.exit489:         ; preds = %_ZNKSt14default_deleteINSt7__cxx1112basic_stringIcSt11char_traitsIcESaIcEEEEclEPS5_.exit.i.i485, %_ZN7testing7MessageD2Ev.exit479
  call void @llvm.lifetime.end.p0(i64 16, ptr nonnull %gtest_ar_) #21
  br label %_ZN4entt16adjacency_matrixINS_12directed_tagESaImEED2Ev.exit869

lpad74:                                           ; preds = %if.else72
  %50 = landingpad { ptr, i32 }
          cleanup
  br label %ehcleanup90

lpad78:                                           ; preds = %invoke.cont75
  %51 = landingpad { ptr, i32 }
          cleanup
  br label %ehcleanup87

lpad81:                                           ; preds = %invoke.cont79
  %52 = landingpad { ptr, i32 }
          cleanup
  br label %ehcleanup86

lpad83:                                           ; preds = %invoke.cont82
  %53 = landingpad { ptr, i32 }
          cleanup
  call void @_ZN7testing8internal12AssertHelperD1Ev(ptr noundef nonnull align 8 dereferenceable(8) %ref.tmp76) #21
  br label %ehcleanup86

ehcleanup86:                                      ; preds = %lpad83, %lpad81
  %.pn364 = phi { ptr, i32 } [ %53, %lpad83 ], [ %52, %lpad81 ]
  %54 = load ptr, ptr %ref.tmp77, align 8, !tbaa !33
  %55 = getelementptr inbounds %"class.std::__cxx11::basic_string", ptr %ref.tmp77, i64 0, i32 2
  %cmp.i.i.i490 = icmp eq ptr %54, %55
  br i1 %cmp.i.i.i490, label %_ZNKSt7__cxx1112basic_stringIcSt11char_traitsIcESaIcEE11_M_is_localEv.exit.thread.i.i492, label %if.then.i.i491

_ZNKSt7__cxx1112basic_stringIcSt11char_traitsIcESaIcEE11_M_is_localEv.exit.thread.i.i492: ; preds = %ehcleanup86
  %_M_string_length.i.i.i493 = getelementptr inbounds %"class.std::__cxx11::basic_string", ptr %ref.tmp77, i64 0, i32 1
  %56 = load i64, ptr %_M_string_length.i.i.i493, align 8, !tbaa !36
  %cmp3.i.i.i494 = icmp ult i64 %56, 16
  call void @llvm.assume(i1 %cmp3.i.i.i494)
  br label %ehcleanup87

if.then.i.i491:                                   ; preds = %ehcleanup86
  call void @_ZdlPv(ptr noundef %54) #23
  br label %ehcleanup87

ehcleanup87:                                      ; preds = %if.then.i.i491, %_ZNKSt7__cxx1112basic_stringIcSt11char_traitsIcESaIcEE11_M_is_localEv.exit.thread.i.i492, %lpad78
  %.pn364.pn = phi { ptr, i32 } [ %51, %lpad78 ], [ %.pn364, %_ZNKSt7__cxx1112basic_stringIcSt11char_traitsIcESaIcEE11_M_is_localEv.exit.thread.i.i492 ], [ %.pn364, %if.then.i.i491 ]
  call void @llvm.lifetime.end.p0(i64 32, ptr nonnull %ref.tmp77) #21
  call void @llvm.lifetime.end.p0(i64 8, ptr nonnull %ref.tmp76) #21
  %57 = load ptr, ptr %ref.tmp73, align 8, !tbaa !32
  %cmp.not.i.i496 = icmp eq ptr %57, null
  br i1 %cmp.not.i.i496, label %ehcleanup90, label %_ZNKSt14default_deleteINSt7__cxx1118basic_stringstreamIcSt11char_traitsIcESaIcEEEEclEPS5_.exit.i.i497

_ZNKSt14default_deleteINSt7__cxx1118basic_stringstreamIcSt11char_traitsIcESaIcEEEEclEPS5_.exit.i.i497: ; preds = %ehcleanup87
  %vtable.i.i.i498 = load ptr, ptr %57, align 8, !tbaa !4
  %vfn.i.i.i499 = getelementptr inbounds ptr, ptr %vtable.i.i.i498, i64 1
  %58 = load ptr, ptr %vfn.i.i.i499, align 8
  call void %58(ptr noundef nonnull align 8 dereferenceable(128) %57) #21
  br label %ehcleanup90

ehcleanup90:                                      ; preds = %_ZNKSt14default_deleteINSt7__cxx1118basic_stringstreamIcSt11char_traitsIcESaIcEEEEclEPS5_.exit.i.i497, %ehcleanup87, %lpad74
  %.pn364.pn.pn = phi { ptr, i32 } [ %50, %lpad74 ], [ %.pn364.pn, %ehcleanup87 ], [ %.pn364.pn, %_ZNKSt14default_deleteINSt7__cxx1118basic_stringstreamIcSt11char_traitsIcESaIcEEEEclEPS5_.exit.i.i497 ]
  call void @llvm.lifetime.end.p0(i64 8, ptr nonnull %ref.tmp73) #21
  call void @_ZN7testing15AssertionResultD2Ev(ptr noundef nonnull align 8 dereferenceable(16) %gtest_ar_) #21
  call void @llvm.lifetime.end.p0(i64 16, ptr nonnull %gtest_ar_) #21
  br label %if.then.i.i.i.i871

_ZNK4entt16adjacency_matrixINS_12directed_tagESaImEE8containsEmm.exit521: ; preds = %_ZNK4entt16adjacency_matrixINS_12directed_tagESaImEE8containsEmm.exit
  call void @llvm.lifetime.end.p0(i64 16, ptr nonnull %gtest_ar_) #21
  call void @llvm.lifetime.start.p0(i64 16, ptr nonnull %gtest_ar_98) #21
  %add.ptr.i.i519 = getelementptr inbounds i64, ptr %call5.i.i.i.i4.i.i.i4.i398, i64 1
  %59 = load i64, ptr %add.ptr.i.i519, align 8, !tbaa !17
  %tobool.i520 = icmp ne i64 %59, 0
  %frombool103 = zext i1 %tobool.i520 to i8
  store i8 %frombool103, ptr %gtest_ar_98, align 8, !tbaa !21
  %message_.i522 = getelementptr inbounds %"class.testing::AssertionResult", ptr %gtest_ar_98, i64 0, i32 1
  store ptr null, ptr %message_.i522, align 8, !tbaa !37
  br i1 %tobool.i520, label %cleanup.cont134, label %if.else110

if.else110:                                       ; preds = %_ZNK4entt16adjacency_matrixINS_12directed_tagESaImEE8containsEmm.exit521
  call void @llvm.lifetime.start.p0(i64 8, ptr nonnull %ref.tmp111) #21
  invoke void @_ZN7testing7MessageC1Ev(ptr noundef nonnull align 8 dereferenceable(8) %ref.tmp111)
          to label %invoke.cont113 unwind label %lpad112

invoke.cont113:                                   ; preds = %if.else110
  call void @llvm.lifetime.start.p0(i64 8, ptr nonnull %ref.tmp114) #21
  call void @llvm.lifetime.start.p0(i64 32, ptr nonnull %ref.tmp115) #21
  invoke void @_ZN7testing8internal30GetBoolAssertionFailureMessageB5cxx11ERKNS_15AssertionResultEPKcS5_S5_(ptr nonnull sret(%"class.std::__cxx11::basic_string") align 8 %ref.tmp115, ptr noundef nonnull align 8 dereferenceable(16) %gtest_ar_98, ptr noundef nonnull @.str.15, ptr noundef nonnull @.str.7, ptr noundef nonnull @.str.8)
          to label %invoke.cont117 unwind label %lpad116

invoke.cont117:                                   ; preds = %invoke.cont113
  %60 = load ptr, ptr %ref.tmp115, align 8, !tbaa !33
  invoke void @_ZN7testing8internal12AssertHelperC1ENS_14TestPartResult4TypeEPKciS5_(ptr noundef nonnull align 8 dereferenceable(8) %ref.tmp114, i32 noundef 2, ptr noundef nonnull @.str.3, i32 noundef 53, ptr noundef %60)
          to label %invoke.cont120 unwind label %lpad119

invoke.cont120:                                   ; preds = %invoke.cont117
  invoke void @_ZNK7testing8internal12AssertHelperaSERKNS_7MessageE(ptr noundef nonnull align 8 dereferenceable(8) %ref.tmp114, ptr noundef nonnull align 8 dereferenceable(8) %ref.tmp111)
          to label %invoke.cont122 unwind label %lpad121

invoke.cont122:                                   ; preds = %invoke.cont120
  call void @_ZN7testing8internal12AssertHelperD1Ev(ptr noundef nonnull align 8 dereferenceable(8) %ref.tmp114) #21
  %61 = load ptr, ptr %ref.tmp115, align 8, !tbaa !33
  %62 = getelementptr inbounds %"class.std::__cxx11::basic_string", ptr %ref.tmp115, i64 0, i32 2
  %cmp.i.i.i524 = icmp eq ptr %61, %62
  br i1 %cmp.i.i.i524, label %_ZNKSt7__cxx1112basic_stringIcSt11char_traitsIcESaIcEE11_M_is_localEv.exit.thread.i.i526, label %if.then.i.i525

_ZNKSt7__cxx1112basic_stringIcSt11char_traitsIcESaIcEE11_M_is_localEv.exit.thread.i.i526: ; preds = %invoke.cont122
  %_M_string_length.i.i.i527 = getelementptr inbounds %"class.std::__cxx11::basic_string", ptr %ref.tmp115, i64 0, i32 1
  %63 = load i64, ptr %_M_string_length.i.i.i527, align 8, !tbaa !36
  %cmp3.i.i.i528 = icmp ult i64 %63, 16
  call void @llvm.assume(i1 %cmp3.i.i.i528)
  br label %_ZNSt7__cxx1112basic_stringIcSt11char_traitsIcESaIcEED2Ev.exit529

if.then.i.i525:                                   ; preds = %invoke.cont122
  call void @_ZdlPv(ptr noundef %61) #23
  br label %_ZNSt7__cxx1112basic_stringIcSt11char_traitsIcESaIcEED2Ev.exit529

_ZNSt7__cxx1112basic_stringIcSt11char_traitsIcESaIcEED2Ev.exit529: ; preds = %if.then.i.i525, %_ZNKSt7__cxx1112basic_stringIcSt11char_traitsIcESaIcEE11_M_is_localEv.exit.thread.i.i526
  call void @llvm.lifetime.end.p0(i64 32, ptr nonnull %ref.tmp115) #21
  call void @llvm.lifetime.end.p0(i64 8, ptr nonnull %ref.tmp114) #21
  %64 = load ptr, ptr %ref.tmp111, align 8, !tbaa !32
  %cmp.not.i.i530 = icmp eq ptr %64, null
  br i1 %cmp.not.i.i530, label %_ZN7testing7MessageD2Ev.exit534, label %_ZNKSt14default_deleteINSt7__cxx1118basic_stringstreamIcSt11char_traitsIcESaIcEEEEclEPS5_.exit.i.i531

_ZNKSt14default_deleteINSt7__cxx1118basic_stringstreamIcSt11char_traitsIcESaIcEEEEclEPS5_.exit.i.i531: ; preds = %_ZNSt7__cxx1112basic_stringIcSt11char_traitsIcESaIcEED2Ev.exit529
  %vtable.i.i.i532 = load ptr, ptr %64, align 8, !tbaa !4
  %vfn.i.i.i533 = getelementptr inbounds ptr, ptr %vtable.i.i.i532, i64 1
  %65 = load ptr, ptr %vfn.i.i.i533, align 8
  call void %65(ptr noundef nonnull align 8 dereferenceable(128) %64) #21
  br label %_ZN7testing7MessageD2Ev.exit534

_ZN7testing7MessageD2Ev.exit534:                  ; preds = %_ZNKSt14default_deleteINSt7__cxx1118basic_stringstreamIcSt11char_traitsIcESaIcEEEEclEPS5_.exit.i.i531, %_ZNSt7__cxx1112basic_stringIcSt11char_traitsIcESaIcEED2Ev.exit529
  call void @llvm.lifetime.end.p0(i64 8, ptr nonnull %ref.tmp111) #21
  %66 = load ptr, ptr %message_.i522, align 8, !tbaa !32
  %cmp.not.i.i536 = icmp eq ptr %66, null
  br i1 %cmp.not.i.i536, label %_ZN7testing15AssertionResultD2Ev.exit544, label %delete.notnull.i.i.i537

delete.notnull.i.i.i537:                          ; preds = %_ZN7testing7MessageD2Ev.exit534
  %67 = load ptr, ptr %66, align 8, !tbaa !33
  %68 = getelementptr inbounds %"class.std::__cxx11::basic_string", ptr %66, i64 0, i32 2
  %cmp.i.i.i.i.i.i538 = icmp eq ptr %67, %68
  br i1 %cmp.i.i.i.i.i.i538, label %_ZNKSt7__cxx1112basic_stringIcSt11char_traitsIcESaIcEE11_M_is_localEv.exit.thread.i.i.i.i.i541, label %if.then.i.i.i.i.i539

_ZNKSt7__cxx1112basic_stringIcSt11char_traitsIcESaIcEE11_M_is_localEv.exit.thread.i.i.i.i.i541: ; preds = %delete.notnull.i.i.i537
  %_M_string_length.i.i.i.i.i.i542 = getelementptr inbounds %"class.std::__cxx11::basic_string", ptr %66, i64 0, i32 1
  %69 = load i64, ptr %_M_string_length.i.i.i.i.i.i542, align 8, !tbaa !36
  %cmp3.i.i.i.i.i.i543 = icmp ult i64 %69, 16
  call void @llvm.assume(i1 %cmp3.i.i.i.i.i.i543)
  br label %_ZNKSt14default_deleteINSt7__cxx1112basic_stringIcSt11char_traitsIcESaIcEEEEclEPS5_.exit.i.i540

if.then.i.i.i.i.i539:                             ; preds = %delete.notnull.i.i.i537
  call void @_ZdlPv(ptr noundef %67) #23
  br label %_ZNKSt14default_deleteINSt7__cxx1112basic_stringIcSt11char_traitsIcESaIcEEEEclEPS5_.exit.i.i540

_ZNKSt14default_deleteINSt7__cxx1112basic_stringIcSt11char_traitsIcESaIcEEEEclEPS5_.exit.i.i540: ; preds = %if.then.i.i.i.i.i539, %_ZNKSt7__cxx1112basic_stringIcSt11char_traitsIcESaIcEE11_M_is_localEv.exit.thread.i.i.i.i.i541
  call void @_ZdlPv(ptr noundef nonnull %66) #23
  br label %_ZN7testing15AssertionResultD2Ev.exit544

_ZN7testing15AssertionResultD2Ev.exit544:         ; preds = %_ZNKSt14default_deleteINSt7__cxx1112basic_stringIcSt11char_traitsIcESaIcEEEEclEPS5_.exit.i.i540, %_ZN7testing7MessageD2Ev.exit534
  call void @llvm.lifetime.end.p0(i64 16, ptr nonnull %gtest_ar_98) #21
  br label %_ZN4entt16adjacency_matrixINS_12directed_tagESaImEED2Ev.exit869

lpad112:                                          ; preds = %if.else110
  %70 = landingpad { ptr, i32 }
          cleanup
  br label %ehcleanup128

lpad116:                                          ; preds = %invoke.cont113
  %71 = landingpad { ptr, i32 }
          cleanup
  br label %ehcleanup125

lpad119:                                          ; preds = %invoke.cont117
  %72 = landingpad { ptr, i32 }
          cleanup
  br label %ehcleanup124

lpad121:                                          ; preds = %invoke.cont120
  %73 = landingpad { ptr, i32 }
          cleanup
  call void @_ZN7testing8internal12AssertHelperD1Ev(ptr noundef nonnull align 8 dereferenceable(8) %ref.tmp114) #21
  br label %ehcleanup124

ehcleanup124:                                     ; preds = %lpad121, %lpad119
  %.pn368 = phi { ptr, i32 } [ %73, %lpad121 ], [ %72, %lpad119 ]
  %74 = load ptr, ptr %ref.tmp115, align 8, !tbaa !33
  %75 = getelementptr inbounds %"class.std::__cxx11::basic_string", ptr %ref.tmp115, i64 0, i32 2
  %cmp.i.i.i545 = icmp eq ptr %74, %75
  br i1 %cmp.i.i.i545, label %_ZNKSt7__cxx1112basic_stringIcSt11char_traitsIcESaIcEE11_M_is_localEv.exit.thread.i.i547, label %if.then.i.i546

_ZNKSt7__cxx1112basic_stringIcSt11char_traitsIcESaIcEE11_M_is_localEv.exit.thread.i.i547: ; preds = %ehcleanup124
  %_M_string_length.i.i.i548 = getelementptr inbounds %"class.std::__cxx11::basic_string", ptr %ref.tmp115, i64 0, i32 1
  %76 = load i64, ptr %_M_string_length.i.i.i548, align 8, !tbaa !36
  %cmp3.i.i.i549 = icmp ult i64 %76, 16
  call void @llvm.assume(i1 %cmp3.i.i.i549)
  br label %ehcleanup125

if.then.i.i546:                                   ; preds = %ehcleanup124
  call void @_ZdlPv(ptr noundef %74) #23
  br label %ehcleanup125

ehcleanup125:                                     ; preds = %if.then.i.i546, %_ZNKSt7__cxx1112basic_stringIcSt11char_traitsIcESaIcEE11_M_is_localEv.exit.thread.i.i547, %lpad116
  %.pn368.pn = phi { ptr, i32 } [ %71, %lpad116 ], [ %.pn368, %_ZNKSt7__cxx1112basic_stringIcSt11char_traitsIcESaIcEE11_M_is_localEv.exit.thread.i.i547 ], [ %.pn368, %if.then.i.i546 ]
  call void @llvm.lifetime.end.p0(i64 32, ptr nonnull %ref.tmp115) #21
