; ModuleID = 'bench/entt/original/meta_prop.cpp.ll'
source_filename = "bench/entt/original/meta_prop.cpp.ll"
target datalayout = "e-m:e-p270:32:32-p271:32:32-p272:64:64-i64:64-i128:128-f80:128-n8:16:32:64-S128"
target triple = "x86_64-unknown-linux-gnu"

%"class.std::ios_base::Init" = type { i8 }
%"class.std::__shared_count" = type { ptr }
%"struct.entt::type_info" = type { i32, i32, %"class.std::basic_string_view" }
%"class.std::basic_string_view" = type { i64, ptr }
%"struct.std::piecewise_construct_t" = type { i8 }
%"class.std::basic_ostream" = type { ptr, %"class.std::basic_ios" }
%"class.std::basic_ios" = type { %"class.std::ios_base", ptr, i8, i8, ptr, ptr, ptr, ptr }
%"class.std::ios_base" = type { ptr, i64, i64, i32, i32, i32, ptr, %"struct.std::ios_base::_Words", [8 x %"struct.std::ios_base::_Words"], i32, ptr, %"class.std::locale" }
%"struct.std::ios_base::_Words" = type { ptr, i64 }
%"class.std::locale" = type { ptr }
%"class.testing::internal::GTestLog" = type { i32 }
%"struct.entt::internal::meta_type_node" = type { ptr, i32, i32, i64, ptr, ptr, ptr, ptr, ptr, %"struct.entt::internal::meta_template_node", %"struct.entt::internal::meta_dtor_node", %"class.std::shared_ptr" }
%"struct.entt::internal::meta_template_node" = type { i64, ptr, ptr }
%"struct.entt::internal::meta_dtor_node" = type { ptr }
%"class.std::shared_ptr" = type { %"class.std::__shared_ptr" }
%"class.std::__shared_ptr" = type { ptr, %"class.std::__shared_count" }
%"struct.entt::meta_prop" = type { ptr, ptr }
%"class.entt::meta_type" = type { %"struct.entt::internal::meta_type_node", ptr }
%"class.testing::AssertionResult" = type { i8, %"class.std::unique_ptr" }
%"class.std::unique_ptr" = type { %"struct.std::__uniq_ptr_data" }
%"struct.std::__uniq_ptr_data" = type { %"class.std::__uniq_ptr_impl" }
%"class.std::__uniq_ptr_impl" = type { %"class.std::tuple" }
%"class.std::tuple" = type { %"struct.std::_Tuple_impl" }
%"struct.std::_Tuple_impl" = type { %"struct.std::_Head_base.1" }
%"struct.std::_Head_base.1" = type { ptr }
%"class.testing::Message" = type { %"class.std::unique_ptr.2" }
%"class.std::unique_ptr.2" = type { %"struct.std::__uniq_ptr_data.3" }
%"struct.std::__uniq_ptr_data.3" = type { %"class.std::__uniq_ptr_impl.4" }
%"class.std::__uniq_ptr_impl.4" = type { %"class.std::tuple.5" }
%"class.std::tuple.5" = type { %"struct.std::_Tuple_impl.6" }
%"struct.std::_Tuple_impl.6" = type { %"struct.std::_Head_base.9" }
%"struct.std::_Head_base.9" = type { ptr }
%"class.testing::internal::AssertHelper" = type { ptr }
%"class.std::__cxx11::basic_string" = type { %"struct.std::__cxx11::basic_string<char>::_Alloc_hider", i64, %union.anon }
%"struct.std::__cxx11::basic_string<char>::_Alloc_hider" = type { ptr }
%union.anon = type { i64, [8 x i8] }
%"class.entt::meta_any" = type { %"class.entt::basic_any", ptr, %"struct.entt::internal::meta_type_node", ptr }
%"class.entt::basic_any" = type <{ %union.anon.10, ptr, ptr, i8, [7 x i8] }>
%union.anon.10 = type { ptr, [8 x i8] }
%"class.entt::meta_factory" = type { ptr, ptr, ptr }
%"struct.entt::internal::dense_map_node.117" = type { i64, %"struct.std::pair.118" }
%"struct.std::pair.118" = type { i32, %"struct.entt::internal::meta_type_node" }
%"struct.entt::internal::meta_prop_node" = type { ptr, %"class.std::shared_ptr.91" }
%"class.std::shared_ptr.91" = type { %"class.std::__shared_ptr.92" }
%"class.std::__shared_ptr.92" = type { ptr, %"class.std::__shared_count" }
%"class.std::shared_ptr.239" = type { %"class.std::__shared_ptr.240" }
%"class.std::__shared_ptr.240" = type { ptr, %"class.std::__shared_count" }
%"class.std::shared_ptr.298" = type { %"class.std::__shared_ptr.299" }
%"class.std::__shared_ptr.299" = type { ptr, %"class.std::__shared_count" }
%"class.entt::meta_factory.165" = type { ptr, ptr, ptr }
%"class.entt::meta_factory.166" = type { ptr, ptr, ptr }
%"class.entt::meta_factory.167" = type { ptr, ptr, ptr }
%"struct.entt::internal::dense_map_node" = type { i64, %"struct.std::pair.100" }
%"struct.std::pair.100" = type { i32, %"struct.entt::internal::meta_prop_node" }
%"class.std::tuple.111" = type { %"struct.std::_Tuple_impl.112" }
%"struct.std::_Tuple_impl.112" = type { %"struct.std::_Head_base.113" }
%"struct.std::_Head_base.113" = type { ptr }
%"class.std::tuple.114" = type { %"struct.std::_Tuple_impl.115" }
%"struct.std::_Tuple_impl.115" = type { %"struct.std::_Head_base.116" }
%"struct.std::_Head_base.116" = type { ptr }
%"class.std::tuple.126" = type { i8 }
%"struct.entt::internal::dense_map_node.135" = type { i64, %"struct.std::pair.136" }
%"struct.std::pair.136" = type { i32, %"struct.entt::internal::meta_ctor_node" }
%"struct.entt::internal::meta_ctor_node" = type { i64, ptr, ptr }
%"struct.entt::internal::dense_map_node.102" = type { i64, %"struct.std::pair.103" }
%"struct.std::pair.103" = type { i32, %"struct.entt::internal::meta_base_node" }
%"struct.entt::internal::meta_base_node" = type { ptr, ptr }
%"struct.entt::internal::dense_map_node.144" = type { i64, %"struct.std::pair.145" }
%"struct.std::pair.145" = type { i32, %"struct.entt::internal::meta_conv_node" }
%"struct.entt::internal::meta_conv_node" = type { ptr }
%"struct.entt::internal::dense_map_node.150" = type { i64, %"struct.std::pair.151" }
%"struct.std::pair.151" = type { i32, %"struct.entt::internal::meta_data_node" }
%"struct.entt::internal::meta_data_node" = type { i32, i64, ptr, ptr, ptr, ptr, %"class.entt::dense_map.79" }
%"class.entt::dense_map.79" = type <{ %"class.entt::compressed_pair", %"class.entt::compressed_pair.80", float, [4 x i8] }>
%"class.entt::compressed_pair" = type { %"struct.entt::internal::compressed_pair_element" }
%"struct.entt::internal::compressed_pair_element" = type { %"class.std::vector" }
%"class.std::vector" = type { %"struct.std::_Vector_base" }
%"struct.std::_Vector_base" = type { %"struct.std::_Vector_base<unsigned long, std::allocator<unsigned long>>::_Vector_impl" }
%"struct.std::_Vector_base<unsigned long, std::allocator<unsigned long>>::_Vector_impl" = type { %"struct.std::_Vector_base<unsigned long, std::allocator<unsigned long>>::_Vector_impl_data" }
%"struct.std::_Vector_base<unsigned long, std::allocator<unsigned long>>::_Vector_impl_data" = type { ptr, ptr, ptr }
%"class.entt::compressed_pair.80" = type { %"struct.entt::internal::compressed_pair_element.81" }
%"struct.entt::internal::compressed_pair_element.81" = type { %"class.std::vector.82" }
%"class.std::vector.82" = type { %"struct.std::_Vector_base.83" }
%"struct.std::_Vector_base.83" = type { %"struct.std::_Vector_base<entt::internal::dense_map_node<unsigned int, entt::internal::meta_prop_node>, std::allocator<entt::internal::dense_map_node<unsigned int, entt::internal::meta_prop_node>>>::_Vector_impl" }
%"struct.std::_Vector_base<entt::internal::dense_map_node<unsigned int, entt::internal::meta_prop_node>, std::allocator<entt::internal::dense_map_node<unsigned int, entt::internal::meta_prop_node>>>::_Vector_impl" = type { %"struct.std::_Vector_base<entt::internal::dense_map_node<unsigned int, entt::internal::meta_prop_node>, std::allocator<entt::internal::dense_map_node<unsigned int, entt::internal::meta_prop_node>>>::_Vector_impl_data" }
%"struct.std::_Vector_base<entt::internal::dense_map_node<unsigned int, entt::internal::meta_prop_node>, std::allocator<entt::internal::dense_map_node<unsigned int, entt::internal::meta_prop_node>>>::_Vector_impl_data" = type { ptr, ptr, ptr }
%"struct.entt::internal::dense_map_node.156" = type { i64, %"struct.std::pair.157" }
%"struct.std::pair.157" = type { i32, %"struct.entt::internal::meta_func_node" }
%"struct.entt::internal::meta_func_node" = type { i32, i64, ptr, ptr, ptr, %"class.std::shared_ptr.159", %"class.entt::dense_map.79" }
%"class.std::shared_ptr.159" = type { %"class.std::__shared_ptr.160" }
%"class.std::__shared_ptr.160" = type { ptr, %"class.std::__shared_count" }
%"class.std::shared_ptr.179" = type { %"class.std::__shared_ptr.180" }
%"class.std::__shared_ptr.180" = type { ptr, %"class.std::__shared_count" }
%"class.std::shared_ptr.205" = type { %"class.std::__shared_ptr.206" }
%"class.std::__shared_ptr.206" = type { ptr, %"class.std::__shared_count" }
%"class.std::tuple.202" = type { %"struct.std::_Tuple_impl.203" }
%"struct.std::_Tuple_impl.203" = type { %"struct.std::_Head_base.204" }
%"struct.std::_Head_base.204" = type { ptr }
%"class.std::__cxx11::basic_stringstream" = type { %"class.std::basic_iostream.base", %"class.std::__cxx11::basic_stringbuf", %"class.std::basic_ios" }
%"class.std::basic_iostream.base" = type { %"class.std::basic_istream.base", %"class.std::basic_ostream.base" }
%"class.std::basic_istream.base" = type { ptr, i64 }
%"class.std::basic_ostream.base" = type { ptr }
%"class.std::__cxx11::basic_stringbuf" = type { %"class.std::basic_streambuf", i32, %"class.std::__cxx11::basic_string" }
%"class.std::basic_streambuf" = type { ptr, ptr, ptr, ptr, ptr, ptr, ptr, %"class.std::locale" }
%"struct.testing::internal::CodeLocation" = type <{ %"class.std::__cxx11::basic_string", i32, [4 x i8] }>

$_ZN7testing8internal16SuiteApiResolverI8MetaPropE19GetSetUpCaseOrSuiteEPKci = comdat any

$_ZN7testing8internal16SuiteApiResolverI8MetaPropE22GetTearDownCaseOrSuiteEPKci = comdat any

$_ZN4entt9meta_typeD2Ev = comdat any

$_ZN7testing15AssertionResultD2Ev = comdat any

$_ZN4entt9meta_prop5valueEv = comdat any

$_ZNK4entt9meta_prop5valueEv = comdat any

$_ZN4entt8meta_any8try_castIiEEPT_v = comdat any

$_ZN4entt8meta_anyD2Ev = comdat any

$_ZN4entt8internal7resolveI8base_1_tEENS0_14meta_type_nodeERKNS0_12meta_contextE = comdat any

$_ZN4entt12meta_factoryI8base_1_tE4propIJiEEES2_jDpOT_ = comdat any

$_ZN4entt12meta_factoryI8base_1_tE4propIJdEEES2_jDpOT_ = comdat any

$_ZN4entt8internal14meta_type_nodeD2Ev = comdat any

$_ZN29MetaProp_Functionalities_TestD0Ev = comdat any

$_ZN8MetaProp5SetUpEv = comdat any

$_ZN8MetaProp8TearDownEv = comdat any

$_ZN7testing4Test5SetupEv = comdat any

$_ZN22MetaProp_FromBase_TestD0Ev = comdat any

$_ZN30MetaProp_DeducedArrayType_TestD0Ev = comdat any

$_ZN28MetaProp_ReRegistration_TestD0Ev = comdat any

$_ZN4entt7locatorINS_8meta_ctxEE7serviceE = comdat any

$_ZNSt12__shared_ptrIN4entt8meta_ctxELN9__gnu_cxx12_Lock_policyE2EED2Ev = comdat any

$__clang_call_terminate = comdat any

$_ZN7testing8internal15TestFactoryImplI29MetaProp_Functionalities_TestED0Ev = comdat any

$_ZN7testing8internal15TestFactoryImplI29MetaProp_Functionalities_TestE10CreateTestEv = comdat any

$_ZN4entt8internal8look_forITnDaXadL_ZNS0_20meta_type_descriptor4propEEEEEPDaRKNS0_12meta_contextERKNS0_14meta_type_nodeEj = comdat any

$_ZN4entt8meta_any12basic_vtableIvEENSt9enable_ifIXsr3stdE9is_same_vINSt9remove_cvINSt16remove_referenceIT_E4typeEE4typeES5_EEvE4typeENS_8internal11meta_traitsEbPKvPv = comdat any

$_ZN4entt9type_infoC2IvEESt15in_place_type_tIT_E = comdat any

$_ZN7testing8internal15TestFactoryImplI22MetaProp_FromBase_TestED0Ev = comdat any

$_ZN7testing8internal15TestFactoryImplI22MetaProp_FromBase_TestE10CreateTestEv = comdat any

$_ZN7testing8internal15TestFactoryImplI30MetaProp_DeducedArrayType_TestED0Ev = comdat any

$_ZN7testing8internal15TestFactoryImplI30MetaProp_DeducedArrayType_TestE10CreateTestEv = comdat any

$_ZN7testing8internal15TestFactoryBaseD2Ev = comdat any

$_ZN7testing8internal15TestFactoryImplI28MetaProp_ReRegistration_TestED0Ev = comdat any

$_ZN7testing8internal15TestFactoryImplI28MetaProp_ReRegistration_TestE10CreateTestEv = comdat any

$_ZN4entt4metaI8base_1_tEEDaRNS_8meta_ctxE = comdat any

$_ZN4entt12meta_factoryI8base_1_tEC2ERNS_8meta_ctxE = comdat any

$_ZN4entt9dense_mapIjNS_8internal14meta_type_nodeENS_8identityESt8equal_toIjESaISt4pairIKjS2_EEE20insert_or_do_nothingIjJS2_EEEDaOT_DpOT0_ = comdat any

$_ZNSt6vectorIN4entt8internal14dense_map_nodeIjNS1_14meta_type_nodeEEESaIS4_EE17_M_realloc_insertIJRmRKSt21piecewise_construct_tSt5tupleIJOjEESC_IJOS3_EEEEEvN9__gnu_cxx17__normal_iteratorIPS4_S6_EEDpOT_ = comdat any

$_ZN4entt9dense_mapIjNS_8internal14meta_type_nodeENS_8identityESt8equal_toIjESaISt4pairIKjS2_EEE6rehashEm = comdat any

$_ZNSt6vectorImSaImEE17_M_default_appendEm = comdat any

$_ZN4entt9type_infoC2I8base_1_tEESt15in_place_type_tIT_E = comdat any

$_ZN4entt9dense_mapIjNS_8internal14meta_type_nodeENS_8identityESt8equal_toIjESaISt4pairIKjS2_EEE20insert_or_do_nothingIjJEEEDaOT_DpOT0_ = comdat any

$_ZNSt6vectorIN4entt8internal14dense_map_nodeIjNS1_14meta_type_nodeEEESaIS4_EE17_M_realloc_insertIJRmRKSt21piecewise_construct_tSt5tupleIJOjEESC_IJEEEEEvN9__gnu_cxx17__normal_iteratorIPS4_S6_EEDpOT_ = comdat any

$_ZNSt23_Sp_counted_ptr_inplaceIN4entt8internal20meta_type_descriptorESaIvELN9__gnu_cxx12_Lock_policyE2EED0Ev = comdat any

$_ZNSt23_Sp_counted_ptr_inplaceIN4entt8internal20meta_type_descriptorESaIvELN9__gnu_cxx12_Lock_policyE2EE10_M_disposeEv = comdat any

$_ZNSt23_Sp_counted_ptr_inplaceIN4entt8internal20meta_type_descriptorESaIvELN9__gnu_cxx12_Lock_policyE2EE10_M_destroyEv = comdat any

$_ZNSt23_Sp_counted_ptr_inplaceIN4entt8internal20meta_type_descriptorESaIvELN9__gnu_cxx12_Lock_policyE2EE14_M_get_deleterERKSt9type_info = comdat any

$_ZN4entt8internal20meta_type_descriptorC2Ev = comdat any

$_ZN4entt9dense_mapIjNS_8internal14meta_func_nodeENS_8identityESt8equal_toIjESaISt4pairIKjS2_EEED2Ev = comdat any

$_ZN4entt9dense_mapIjNS_8internal14meta_data_nodeENS_8identityESt8equal_toIjESaISt4pairIKjS2_EEED2Ev = comdat any

$_ZN4entt9dense_mapIjNS_8internal14meta_conv_nodeENS_8identityESt8equal_toIjESaISt4pairIKjS2_EEED2Ev = comdat any

$_ZN4entt9dense_mapIjNS_8internal14meta_base_nodeENS_8identityESt8equal_toIjESaISt4pairIKjS2_EEED2Ev = comdat any

$_ZN4entt9dense_mapIjNS_8internal14meta_ctor_nodeENS_8identityESt8equal_toIjESaISt4pairIKjS2_EEED2Ev = comdat any

$_ZN4entt9dense_mapIjNS_8internal14meta_ctor_nodeENS_8identityESt8equal_toIjESaISt4pairIKjS2_EEE6rehashEm = comdat any

$_ZN4entt9dense_mapIjNS_8internal14meta_base_nodeENS_8identityESt8equal_toIjESaISt4pairIKjS2_EEE6rehashEm = comdat any

$_ZN4entt9dense_mapIjNS_8internal14meta_conv_nodeENS_8identityESt8equal_toIjESaISt4pairIKjS2_EEE6rehashEm = comdat any

$_ZN4entt9dense_mapIjNS_8internal14meta_data_nodeENS_8identityESt8equal_toIjESaISt4pairIKjS2_EEE6rehashEm = comdat any

$_ZN4entt8internal23compressed_pair_elementISt6vectorINS0_14dense_map_nodeIjNS0_14meta_data_nodeEEESaIS5_EELm0EvED2Ev = comdat any

$_ZNSt12_Destroy_auxILb0EE9__destroyIPN4entt8internal14dense_map_nodeIjNS3_14meta_data_nodeEEEEEvT_S8_ = comdat any

$_ZN4entt8internal23compressed_pair_elementISt6vectorINS0_14dense_map_nodeIjNS0_14meta_prop_nodeEEESaIS5_EELm0EvED2Ev = comdat any

$_ZN4entt8internal14meta_prop_nodeD2Ev = comdat any

$_ZNSt16_Sp_counted_baseILN9__gnu_cxx12_Lock_policyE2EE24_M_release_last_use_coldEv = comdat any

$_ZN4entt9dense_mapIjNS_8internal14meta_func_nodeENS_8identityESt8equal_toIjESaISt4pairIKjS2_EEE6rehashEm = comdat any

$_ZN4entt8internal23compressed_pair_elementISt6vectorINS0_14dense_map_nodeIjNS0_14meta_func_nodeEEESaIS5_EELm0EvED2Ev = comdat any

$_ZN4entt8internal14meta_func_nodeD2Ev = comdat any

$_ZN4entt9dense_mapIjNS_8internal14meta_prop_nodeENS_8identityESt8equal_toIjESaISt4pairIKjS2_EEE6rehashEm = comdat any

$_ZN4entt8internal20meta_type_descriptorD2Ev = comdat any

$_ZN4entt12meta_factoryI8base_2_tE4propIJbEEES2_jDpOT_ = comdat any

$_ZN4entt12meta_factoryI8base_2_tE4propIJRA7_KcEEES2_jDpOT_ = comdat any

$_ZN4entt12meta_factoryI8base_3_tE4propIJEEES2_jDpOT_ = comdat any

$_ZN4entt12meta_factoryI8base_3_tE4propIJiEEES2_jDpOT_ = comdat any

$_ZN4entt12meta_factoryI9derived_tE4baseI8base_1_tEEDav = comdat any

$_ZN4entt12meta_factoryI9derived_tE4baseI8base_2_tEEDav = comdat any

$_ZN4entt12meta_factoryI9derived_tE4baseI8base_3_tEEDav = comdat any

$_ZN4entt4metaI8base_2_tEEDaRNS_8meta_ctxE = comdat any

$_ZN4entt8internal7resolveI8base_2_tEENS0_14meta_type_nodeERKNS0_12meta_contextE = comdat any

$_ZN4entt12meta_factoryI8base_2_tEC2ERNS_8meta_ctxE = comdat any

$_ZN4entt9type_infoC2I8base_2_tEESt15in_place_type_tIT_E = comdat any

$_ZZN4entt8internal7resolveI8base_2_tEENS0_14meta_type_nodeERKNS0_12meta_contextEENUlRKNS_8meta_ctxEE_8__invokeES9_ = comdat any

$_ZN4entt8meta_any12basic_vtableI8base_2_tEENSt9enable_ifIXsr3stdE9is_same_vINSt9remove_cvINSt16remove_referenceIT_E4typeEE4typeES6_EEvE4typeENS_8internal11meta_traitsEbPKvPv = comdat any

$_ZN4entt9basic_anyILm16ELm8EE12basic_vtableI8base_2_tEEPKvNS_8internal13any_operationERKS1_S5_ = comdat any

$_ZZN4entt8internal7resolveI8base_2_tEENS0_14meta_type_nodeERKNS0_12meta_contextEENUlRKNS_8meta_ctxEPvPKvE_8__invokeES9_SA_SC_ = comdat any

$_ZN4entt8internal7resolveIbEENS0_14meta_type_nodeERKNS0_12meta_contextE = comdat any

$_ZNSt12__shared_ptrIbLN9__gnu_cxx12_Lock_policyE2EED2Ev = comdat any

$_ZN4entt9type_infoC2IbEESt15in_place_type_tIT_E = comdat any

$_ZZN4entt8internal7resolveIbEENS0_14meta_type_nodeERKNS0_12meta_contextEENUlRKNS_8meta_ctxEE_8__invokeES8_ = comdat any

$_ZN4entt8meta_any12basic_vtableIbEENSt9enable_ifIXsr3stdE9is_same_vINSt9remove_cvINSt16remove_referenceIT_E4typeEE4typeES5_EEvE4typeENS_8internal11meta_traitsEbPKvPv = comdat any

$_ZN4entt9basic_anyILm16ELm8EE12basic_vtableIbEEPKvNS_8internal13any_operationERKS1_S4_ = comdat any

$_ZZN4entt8internal7resolveIbEENS0_14meta_type_nodeERKNS0_12meta_contextEENUlPvPKvE_8__invokeES6_S8_ = comdat any

$_ZZN4entt8internal7resolveIbEENS0_14meta_type_nodeERKNS0_12meta_contextEENUlRKNS_8meta_ctxEPvPKvE_8__invokeES8_S9_SB_ = comdat any

$_ZNSt23_Sp_counted_ptr_inplaceIbSaIvELN9__gnu_cxx12_Lock_policyE2EED0Ev = comdat any

$_ZNSt23_Sp_counted_ptr_inplaceIbSaIvELN9__gnu_cxx12_Lock_policyE2EE10_M_disposeEv = comdat any

$_ZNSt23_Sp_counted_ptr_inplaceIbSaIvELN9__gnu_cxx12_Lock_policyE2EE10_M_destroyEv = comdat any

$_ZNSt23_Sp_counted_ptr_inplaceIbSaIvELN9__gnu_cxx12_Lock_policyE2EE14_M_get_deleterERKSt9type_info = comdat any

$_ZN4entt9dense_mapIjNS_8internal14meta_prop_nodeENS_8identityESt8equal_toIjESaISt4pairIKjS2_EEE20insert_or_do_nothingIRS7_JEEEDaOT_DpOT0_ = comdat any

$_ZNSt6vectorIN4entt8internal14dense_map_nodeIjNS1_14meta_prop_nodeEEESaIS4_EE17_M_realloc_insertIJRmRKSt21piecewise_construct_tSt5tupleIJRKjEESC_IJEEEEEvN9__gnu_cxx17__normal_iteratorIPS4_S6_EEDpOT_ = comdat any

$_ZN4entt8internal7resolveIPKcEENS0_14meta_type_nodeERKNS0_12meta_contextE = comdat any

$_ZNSt12__shared_ptrIPKcLN9__gnu_cxx12_Lock_policyE2EED2Ev = comdat any

$_ZN4entt8internal7resolveIcEENS0_14meta_type_nodeERKNS0_12meta_contextE = comdat any

$_ZN4entt9type_infoC2IPKcEESt15in_place_type_tIT_E = comdat any

$_ZN4entt9type_infoC2IcEESt15in_place_type_tIT_E = comdat any

$_ZZN4entt8internal7resolveIcEENS0_14meta_type_nodeERKNS0_12meta_contextEENUlRKNS_8meta_ctxEE_8__invokeES8_ = comdat any

$_ZN4entt8meta_any12basic_vtableIcEENSt9enable_ifIXsr3stdE9is_same_vINSt9remove_cvINSt16remove_referenceIT_E4typeEE4typeES5_EEvE4typeENS_8internal11meta_traitsEbPKvPv = comdat any

$_ZN4entt9basic_anyILm16ELm8EE12basic_vtableIcEEPKvNS_8internal13any_operationERKS1_S4_ = comdat any

$_ZZN4entt8internal7resolveIcEENS0_14meta_type_nodeERKNS0_12meta_contextEENUlPvPKvE_8__invokeES6_S8_ = comdat any

$_ZZN4entt8internal7resolveIcEENS0_14meta_type_nodeERKNS0_12meta_contextEENUlRKNS_8meta_ctxEPvPKvE_8__invokeES8_S9_SB_ = comdat any

$_ZZN4entt8internal7resolveIPKcEENS0_14meta_type_nodeERKNS0_12meta_contextEENUlRKNS_8meta_ctxEE_8__invokeESA_ = comdat any

$_ZN4entt8meta_any12basic_vtableIPKcEENSt9enable_ifIXsr3stdE9is_same_vINSt9remove_cvINSt16remove_referenceIT_E4typeEE4typeES7_EEvE4typeENS_8internal11meta_traitsEbPKvPv = comdat any

$_ZN4entt9basic_anyILm16ELm8EE12basic_vtableIPKcEEPKvNS_8internal13any_operationERKS1_S6_ = comdat any

$_ZZN4entt8internal7resolveIPKcEENS0_14meta_type_nodeERKNS0_12meta_contextEENUlRKNS_8meta_ctxEPvPKvE_8__invokeESA_SB_SD_ = comdat any

$_ZNSt23_Sp_counted_ptr_inplaceIPKcSaIvELN9__gnu_cxx12_Lock_policyE2EED0Ev = comdat any

$_ZNSt23_Sp_counted_ptr_inplaceIPKcSaIvELN9__gnu_cxx12_Lock_policyE2EE10_M_disposeEv = comdat any

$_ZNSt23_Sp_counted_ptr_inplaceIPKcSaIvELN9__gnu_cxx12_Lock_policyE2EE10_M_destroyEv = comdat any

$_ZNSt23_Sp_counted_ptr_inplaceIPKcSaIvELN9__gnu_cxx12_Lock_policyE2EE14_M_get_deleterERKSt9type_info = comdat any

$_ZN4entt4metaI8base_3_tEEDaRNS_8meta_ctxE = comdat any

$_ZN4entt8internal7resolveI8base_3_tEENS0_14meta_type_nodeERKNS0_12meta_contextE = comdat any

$_ZN4entt12meta_factoryI8base_3_tEC2ERNS_8meta_ctxE = comdat any

$_ZN4entt9type_infoC2I8base_3_tEESt15in_place_type_tIT_E = comdat any

$_ZZN4entt8internal7resolveI8base_3_tEENS0_14meta_type_nodeERKNS0_12meta_contextEENUlRKNS_8meta_ctxEE_8__invokeES9_ = comdat any

$_ZN4entt8meta_any12basic_vtableI8base_3_tEENSt9enable_ifIXsr3stdE9is_same_vINSt9remove_cvINSt16remove_referenceIT_E4typeEE4typeES6_EEvE4typeENS_8internal11meta_traitsEbPKvPv = comdat any

$_ZN4entt9basic_anyILm16ELm8EE12basic_vtableI8base_3_tEEPKvNS_8internal13any_operationERKS1_S5_ = comdat any

$_ZZN4entt8internal7resolveI8base_3_tEENS0_14meta_type_nodeERKNS0_12meta_contextEENUlRKNS_8meta_ctxEPvPKvE_8__invokeES9_SA_SC_ = comdat any

$_ZN4entt8internal7resolveIvEENS0_14meta_type_nodeERKNS0_12meta_contextE = comdat any

$_ZN4entt8internal7resolveIiEENS0_14meta_type_nodeERKNS0_12meta_contextE = comdat any

$_ZNSt12__shared_ptrIiLN9__gnu_cxx12_Lock_policyE2EED2Ev = comdat any

$_ZN4entt9type_infoC2IiEESt15in_place_type_tIT_E = comdat any

$_ZZN4entt8internal7resolveIiEENS0_14meta_type_nodeERKNS0_12meta_contextEENUlRKNS_8meta_ctxEE_8__invokeES8_ = comdat any

$_ZN4entt8meta_any12basic_vtableIiEENSt9enable_ifIXsr3stdE9is_same_vINSt9remove_cvINSt16remove_referenceIT_E4typeEE4typeES5_EEvE4typeENS_8internal11meta_traitsEbPKvPv = comdat any

$_ZN4entt9basic_anyILm16ELm8EE12basic_vtableIiEEPKvNS_8internal13any_operationERKS1_S4_ = comdat any

$_ZZN4entt8internal7resolveIiEENS0_14meta_type_nodeERKNS0_12meta_contextEENUlPvPKvE_8__invokeES6_S8_ = comdat any

$_ZZN4entt8internal7resolveIiEENS0_14meta_type_nodeERKNS0_12meta_contextEENUlRKNS_8meta_ctxEPvPKvE_8__invokeES8_S9_SB_ = comdat any

$_ZNSt23_Sp_counted_ptr_inplaceIiSaIvELN9__gnu_cxx12_Lock_policyE2EED0Ev = comdat any

$_ZNSt23_Sp_counted_ptr_inplaceIiSaIvELN9__gnu_cxx12_Lock_policyE2EE10_M_disposeEv = comdat any

$_ZNSt23_Sp_counted_ptr_inplaceIiSaIvELN9__gnu_cxx12_Lock_policyE2EE10_M_destroyEv = comdat any

$_ZNSt23_Sp_counted_ptr_inplaceIiSaIvELN9__gnu_cxx12_Lock_policyE2EE14_M_get_deleterERKSt9type_info = comdat any

$_ZN4entt4metaI9derived_tEEDaRNS_8meta_ctxE = comdat any

$_ZN4entt8internal7resolveI9derived_tEENS0_14meta_type_nodeERKNS0_12meta_contextE = comdat any

$_ZN4entt12meta_factoryI9derived_tEC2ERNS_8meta_ctxE = comdat any

$_ZN4entt9type_infoC2I9derived_tEESt15in_place_type_tIT_E = comdat any

$_ZZN4entt8internal7resolveI9derived_tEENS0_14meta_type_nodeERKNS0_12meta_contextEENUlRKNS_8meta_ctxEE_8__invokeES9_ = comdat any

$_ZN4entt8meta_any12basic_vtableI9derived_tEENSt9enable_ifIXsr3stdE9is_same_vINSt9remove_cvINSt16remove_referenceIT_E4typeEE4typeES6_EEvE4typeENS_8internal11meta_traitsEbPKvPv = comdat any

$_ZN4entt9basic_anyILm16ELm8EE12basic_vtableI9derived_tEEPKvNS_8internal13any_operationERKS1_S5_ = comdat any

$_ZZN4entt8internal7resolveI9derived_tEENS0_14meta_type_nodeERKNS0_12meta_contextEENUlRKNS_8meta_ctxEPvPKvE_8__invokeES9_SA_SC_ = comdat any

$_ZZN4entt12meta_factoryI9derived_tE4baseI8base_1_tEEDavENUlPKvE_8__invokeES6_ = comdat any

$_ZN4entt9dense_mapIjNS_8internal14meta_base_nodeENS_8identityESt8equal_toIjESaISt4pairIKjS2_EEE19insert_or_overwriteIjS2_EEDaOT_OT0_ = comdat any

$_ZNSt6vectorIN4entt8internal14dense_map_nodeIjNS1_14meta_base_nodeEEESaIS4_EE17_M_realloc_insertIJRmjS3_EEEvN9__gnu_cxx17__normal_iteratorIPS4_S6_EEDpOT_ = comdat any

$_ZZN4entt12meta_factoryI9derived_tE4baseI8base_2_tEEDavENUlPKvE_8__invokeES6_ = comdat any

$_ZZN4entt12meta_factoryI9derived_tE4baseI8base_3_tEEDavENUlPKvE_8__invokeES6_ = comdat any

$_ZN4entt9dense_mapIjNS_8internal14meta_type_nodeENS_8identityESt8equal_toIjESaISt4pairIKjS2_EEE5clearEv = comdat any

$_ZN4entt7locatorINS_8meta_ctxEE7emplaceIS1_JEEERS1_DpOT0_ = comdat any

$_ZNSt23_Sp_counted_ptr_inplaceIN4entt8meta_ctxESaIvELN9__gnu_cxx12_Lock_policyE2EED0Ev = comdat any

$_ZNSt23_Sp_counted_ptr_inplaceIN4entt8meta_ctxESaIvELN9__gnu_cxx12_Lock_policyE2EE10_M_disposeEv = comdat any

$_ZNSt23_Sp_counted_ptr_inplaceIN4entt8meta_ctxESaIvELN9__gnu_cxx12_Lock_policyE2EE10_M_destroyEv = comdat any

$_ZNSt23_Sp_counted_ptr_inplaceIN4entt8meta_ctxESaIvELN9__gnu_cxx12_Lock_policyE2EE14_M_get_deleterERKSt9type_info = comdat any

$_ZN4entt8internal23compressed_pair_elementISt6vectorINS0_14dense_map_nodeIjNS0_14meta_type_nodeEEESaIS5_EELm0EvED2Ev = comdat any

$_ZZN4entt8internal7resolveI8base_1_tEENS0_14meta_type_nodeERKNS0_12meta_contextEENUlRKNS_8meta_ctxEE_8__invokeES9_ = comdat any

$_ZN4entt8meta_any12basic_vtableI8base_1_tEENSt9enable_ifIXsr3stdE9is_same_vINSt9remove_cvINSt16remove_referenceIT_E4typeEE4typeES6_EEvE4typeENS_8internal11meta_traitsEbPKvPv = comdat any

$_ZN4entt9basic_anyILm16ELm8EE12basic_vtableI8base_1_tEEPKvNS_8internal13any_operationERKS1_S5_ = comdat any

$_ZZN4entt8internal7resolveI8base_1_tEENS0_14meta_type_nodeERKNS0_12meta_contextEENUlRKNS_8meta_ctxEPvPKvE_8__invokeES9_SA_SC_ = comdat any

$_ZN7testing13PrintToStringIN4entt9meta_propEEENSt7__cxx1112basic_stringIcSt11char_traitsIcESaIcEEERKT_ = comdat any

$_ZN7testing8internal18CmpHelperOpFailureIN4entt9meta_propES3_EENS_15AssertionResultEPKcS6_RKT_RKT0_S6_ = comdat any

$_ZN7testing15AssertionResult13AppendMessageERKNS_7MessageE = comdat any

$_ZN4entt8internal8try_castERKNS0_12meta_contextERKNS0_14meta_type_nodeES6_PKv = comdat any

$_ZN7testing8internal18CmpHelperOpFailureIPiDnEENS_15AssertionResultEPKcS5_RKT_RKT0_S5_ = comdat any

$_ZN7testing13PrintToStringIPiEENSt7__cxx1112basic_stringIcSt11char_traitsIcESaIcEEERKT_ = comdat any

$_ZN7testing13PrintToStringIDnEENSt7__cxx1112basic_stringIcSt11char_traitsIcESaIcEEERKT_ = comdat any

$_ZN7testing8internal18CmpHelperEQFailureIPiDnEENS_15AssertionResultEPKcS5_RKT_RKT0_ = comdat any

$_ZNK4entt8meta_any8try_castIiEEPKT_v = comdat any

$_ZN7testing8internal18CmpHelperOpFailureIPKiDnEENS_15AssertionResultEPKcS6_RKT_RKT0_S6_ = comdat any

$_ZN7testing13PrintToStringIPKiEENSt7__cxx1112basic_stringIcSt11char_traitsIcESaIcEEERKT_ = comdat any

$_ZN7testing8internal11CmpHelperEQIN4entt8meta_anyEiEENS_15AssertionResultEPKcS6_RKT_RKT0_ = comdat any

$_ZN7testing8internal18CmpHelperEQFailureIN4entt8meta_anyEiEENS_15AssertionResultEPKcS6_RKT_RKT0_ = comdat any

$_ZN7testing13PrintToStringIN4entt8meta_anyEEENSt7__cxx1112basic_stringIcSt11char_traitsIcESaIcEEERKT_ = comdat any

$_ZN7testing13PrintToStringIiEENSt7__cxx1112basic_stringIcSt11char_traitsIcESaIcEEERKT_ = comdat any

$_ZNK4entt8meta_any8try_castIbEEPKT_v = comdat any

$_ZN7testing8internal18CmpHelperEQFailureIiiEENS_15AssertionResultEPKcS4_RKT_RKT0_ = comdat any

$_ZN7testing8internal18CmpHelperEQFailureIN4entt9meta_typeES3_EENS_15AssertionResultEPKcS6_RKT_RKT0_ = comdat any

$_ZN7testing13PrintToStringIN4entt9meta_typeEEENSt7__cxx1112basic_stringIcSt11char_traitsIcESaIcEEERKT_ = comdat any

$_ZNK4entt8meta_any8try_castIPKcEEPKT_v = comdat any

$_ZN7testing8internal18CmpHelperEQFailureImjEENS_15AssertionResultEPKcS4_RKT_RKT0_ = comdat any

$_ZN7testing13PrintToStringImEENSt7__cxx1112basic_stringIcSt11char_traitsIcESaIcEEERKT_ = comdat any

$_ZN7testing13PrintToStringIjEENSt7__cxx1112basic_stringIcSt11char_traitsIcESaIcEEERKT_ = comdat any

$_ZN4entt8internal7resolveIdEENS0_14meta_type_nodeERKNS0_12meta_contextE = comdat any

$_ZNSt12__shared_ptrIdLN9__gnu_cxx12_Lock_policyE2EED2Ev = comdat any

$_ZN4entt9type_infoC2IdEESt15in_place_type_tIT_E = comdat any

$_ZZN4entt8internal7resolveIdEENS0_14meta_type_nodeERKNS0_12meta_contextEENUlRKNS_8meta_ctxEE_8__invokeES8_ = comdat any

$_ZN4entt8meta_any12basic_vtableIdEENSt9enable_ifIXsr3stdE9is_same_vINSt9remove_cvINSt16remove_referenceIT_E4typeEE4typeES5_EEvE4typeENS_8internal11meta_traitsEbPKvPv = comdat any

$_ZN4entt9basic_anyILm16ELm8EE12basic_vtableIdEEPKvNS_8internal13any_operationERKS1_S4_ = comdat any

$_ZZN4entt8internal7resolveIdEENS0_14meta_type_nodeERKNS0_12meta_contextEENUlPvPKvE_8__invokeES6_S8_ = comdat any

$_ZZN4entt8internal7resolveIdEENS0_14meta_type_nodeERKNS0_12meta_contextEENUlRKNS_8meta_ctxEPvPKvE_8__invokeES8_S9_SB_ = comdat any

$_ZNSt16_Sp_counted_baseILN9__gnu_cxx12_Lock_policyE2EED2Ev = comdat any

$_ZNSt23_Sp_counted_ptr_inplaceIdSaIvELN9__gnu_cxx12_Lock_policyE2EED0Ev = comdat any

$_ZNSt23_Sp_counted_ptr_inplaceIdSaIvELN9__gnu_cxx12_Lock_policyE2EE10_M_disposeEv = comdat any

$_ZNSt23_Sp_counted_ptr_inplaceIdSaIvELN9__gnu_cxx12_Lock_policyE2EE10_M_destroyEv = comdat any

$_ZNSt23_Sp_counted_ptr_inplaceIdSaIvELN9__gnu_cxx12_Lock_policyE2EE14_M_get_deleterERKSt9type_info = comdat any

$_ZNK4entt8meta_any8try_castIdEEPKT_v = comdat any

$_ZN7testing8internal18CmpHelperEQFailureIddEENS_15AssertionResultEPKcS4_RKT_RKT0_ = comdat any

$_ZN7testing13PrintToStringIdEENSt7__cxx1112basic_stringIcSt11char_traitsIcESaIcEEERKT_ = comdat any

$_ZTS8MetaProp = comdat any

$_ZTI8MetaProp = comdat any

$_ZTVN7testing8internal15TestFactoryImplI29MetaProp_Functionalities_TestEE = comdat any

$_ZTSN7testing8internal15TestFactoryImplI29MetaProp_Functionalities_TestEE = comdat any

$_ZTSN7testing8internal15TestFactoryBaseE = comdat any

$_ZTIN7testing8internal15TestFactoryBaseE = comdat any

$_ZTIN7testing8internal15TestFactoryImplI29MetaProp_Functionalities_TestEE = comdat any

$_ZZN4entt7type_idIvEERKNS_9type_infoEvE8instance = comdat any

$_ZGVZN4entt7type_idIvEERKNS_9type_infoEvE8instance = comdat any

$_ZZN4entt10type_indexIvvE5valueEvE5value = comdat any

$_ZGVZN4entt10type_indexIvvE5valueEvE5value = comdat any

$_ZZN4entt8internal10type_index4nextEvE5value = comdat any

$_ZTVN7testing8internal15TestFactoryImplI22MetaProp_FromBase_TestEE = comdat any

$_ZTSN7testing8internal15TestFactoryImplI22MetaProp_FromBase_TestEE = comdat any

$_ZTIN7testing8internal15TestFactoryImplI22MetaProp_FromBase_TestEE = comdat any

$_ZTVN7testing8internal15TestFactoryImplI30MetaProp_DeducedArrayType_TestEE = comdat any

$_ZTSN7testing8internal15TestFactoryImplI30MetaProp_DeducedArrayType_TestEE = comdat any

$_ZTIN7testing8internal15TestFactoryImplI30MetaProp_DeducedArrayType_TestEE = comdat any

$_ZTVN7testing8internal15TestFactoryImplI28MetaProp_ReRegistration_TestEE = comdat any

$_ZTSN7testing8internal15TestFactoryImplI28MetaProp_ReRegistration_TestEE = comdat any

$_ZTIN7testing8internal15TestFactoryImplI28MetaProp_ReRegistration_TestEE = comdat any

$_ZSt19piecewise_construct = comdat any

$_ZZN4entt7type_idI8base_1_tEERKNS_9type_infoEvE8instance = comdat any

$_ZGVZN4entt7type_idI8base_1_tEERKNS_9type_infoEvE8instance = comdat any

$_ZZN4entt10type_indexI8base_1_tvE5valueEvE5value = comdat any

$_ZGVZN4entt10type_indexI8base_1_tvE5valueEvE5value = comdat any

$_ZTVSt23_Sp_counted_ptr_inplaceIN4entt8internal20meta_type_descriptorESaIvELN9__gnu_cxx12_Lock_policyE2EE = comdat any

$_ZTSSt23_Sp_counted_ptr_inplaceIN4entt8internal20meta_type_descriptorESaIvELN9__gnu_cxx12_Lock_policyE2EE = comdat any

$_ZTSSt16_Sp_counted_baseILN9__gnu_cxx12_Lock_policyE2EE = comdat any

$_ZTSSt11_Mutex_baseILN9__gnu_cxx12_Lock_policyE2EE = comdat any

$_ZTISt11_Mutex_baseILN9__gnu_cxx12_Lock_policyE2EE = comdat any

$_ZTISt16_Sp_counted_baseILN9__gnu_cxx12_Lock_policyE2EE = comdat any

$_ZTISt23_Sp_counted_ptr_inplaceIN4entt8internal20meta_type_descriptorESaIvELN9__gnu_cxx12_Lock_policyE2EE = comdat any

$_ZTSSt19_Sp_make_shared_tag = comdat any

$_ZZNSt19_Sp_make_shared_tag5_S_tiEvE5__tag = comdat any

$_ZZN4entt7type_idI8base_2_tEERKNS_9type_infoEvE8instance = comdat any

$_ZGVZN4entt7type_idI8base_2_tEERKNS_9type_infoEvE8instance = comdat any

$_ZZN4entt10type_indexI8base_2_tvE5valueEvE5value = comdat any

$_ZGVZN4entt10type_indexI8base_2_tvE5valueEvE5value = comdat any

$_ZZN4entt7type_idIbEERKNS_9type_infoEvE8instance = comdat any

$_ZGVZN4entt7type_idIbEERKNS_9type_infoEvE8instance = comdat any

$_ZZN4entt10type_indexIbvE5valueEvE5value = comdat any

$_ZGVZN4entt10type_indexIbvE5valueEvE5value = comdat any

$_ZTVSt23_Sp_counted_ptr_inplaceIbSaIvELN9__gnu_cxx12_Lock_policyE2EE = comdat any

$_ZTSSt23_Sp_counted_ptr_inplaceIbSaIvELN9__gnu_cxx12_Lock_policyE2EE = comdat any

$_ZTISt23_Sp_counted_ptr_inplaceIbSaIvELN9__gnu_cxx12_Lock_policyE2EE = comdat any

$_ZZN4entt7type_idIPKcEERKNS_9type_infoEvE8instance = comdat any

$_ZGVZN4entt7type_idIPKcEERKNS_9type_infoEvE8instance = comdat any

$_ZZN4entt10type_indexIPKcvE5valueEvE5value = comdat any

$_ZGVZN4entt10type_indexIPKcvE5valueEvE5value = comdat any

$_ZZN4entt7type_idIcEERKNS_9type_infoEvE8instance = comdat any

$_ZGVZN4entt7type_idIcEERKNS_9type_infoEvE8instance = comdat any

$_ZZN4entt10type_indexIcvE5valueEvE5value = comdat any

$_ZGVZN4entt10type_indexIcvE5valueEvE5value = comdat any

$_ZTVSt23_Sp_counted_ptr_inplaceIPKcSaIvELN9__gnu_cxx12_Lock_policyE2EE = comdat any

$_ZTSSt23_Sp_counted_ptr_inplaceIPKcSaIvELN9__gnu_cxx12_Lock_policyE2EE = comdat any

$_ZTISt23_Sp_counted_ptr_inplaceIPKcSaIvELN9__gnu_cxx12_Lock_policyE2EE = comdat any

$_ZZN4entt7type_idI8base_3_tEERKNS_9type_infoEvE8instance = comdat any

$_ZGVZN4entt7type_idI8base_3_tEERKNS_9type_infoEvE8instance = comdat any

$_ZZN4entt10type_indexI8base_3_tvE5valueEvE5value = comdat any

$_ZGVZN4entt10type_indexI8base_3_tvE5valueEvE5value = comdat any

$_ZZN4entt7type_idIiEERKNS_9type_infoEvE8instance = comdat any

$_ZGVZN4entt7type_idIiEERKNS_9type_infoEvE8instance = comdat any

$_ZZN4entt10type_indexIivE5valueEvE5value = comdat any

$_ZGVZN4entt10type_indexIivE5valueEvE5value = comdat any

$_ZTVSt23_Sp_counted_ptr_inplaceIiSaIvELN9__gnu_cxx12_Lock_policyE2EE = comdat any

$_ZTSSt23_Sp_counted_ptr_inplaceIiSaIvELN9__gnu_cxx12_Lock_policyE2EE = comdat any

$_ZTISt23_Sp_counted_ptr_inplaceIiSaIvELN9__gnu_cxx12_Lock_policyE2EE = comdat any

$_ZZN4entt7type_idI9derived_tEERKNS_9type_infoEvE8instance = comdat any

$_ZGVZN4entt7type_idI9derived_tEERKNS_9type_infoEvE8instance = comdat any

$_ZZN4entt10type_indexI9derived_tvE5valueEvE5value = comdat any

$_ZGVZN4entt10type_indexI9derived_tvE5valueEvE5value = comdat any

$_ZTVSt23_Sp_counted_ptr_inplaceIN4entt8meta_ctxESaIvELN9__gnu_cxx12_Lock_policyE2EE = comdat any

$_ZTSSt23_Sp_counted_ptr_inplaceIN4entt8meta_ctxESaIvELN9__gnu_cxx12_Lock_policyE2EE = comdat any

$_ZTISt23_Sp_counted_ptr_inplaceIN4entt8meta_ctxESaIvELN9__gnu_cxx12_Lock_policyE2EE = comdat any

$_ZN7testing8internal12TypeIdHelperI8MetaPropE6dummy_E = comdat any

$_ZZN4entt7type_idIdEERKNS_9type_infoEvE8instance = comdat any

$_ZGVZN4entt7type_idIdEERKNS_9type_infoEvE8instance = comdat any

$_ZZN4entt10type_indexIdvE5valueEvE5value = comdat any

$_ZGVZN4entt10type_indexIdvE5valueEvE5value = comdat any

$_ZTVSt23_Sp_counted_ptr_inplaceIdSaIvELN9__gnu_cxx12_Lock_policyE2EE = comdat any

$_ZTSSt23_Sp_counted_ptr_inplaceIdSaIvELN9__gnu_cxx12_Lock_policyE2EE = comdat any

$_ZTISt23_Sp_counted_ptr_inplaceIdSaIvELN9__gnu_cxx12_Lock_policyE2EE = comdat any

@_ZStL8__ioinit = internal global %"class.std::ios_base::Init" zeroinitializer, align 1
@__dso_handle = external hidden global i8
@_ZN29MetaProp_Functionalities_Test10test_info_E = hidden global ptr null, align 8
@.str = private unnamed_addr constant [9 x i8] c"MetaProp\00", align 1
@.str.2 = private unnamed_addr constant [16 x i8] c"Functionalities\00", align 1
@.str.3 = private unnamed_addr constant [116 x i8] c"generated/home/dtcxzyw/WorkSpace/Projects/compilers/llvm-opt-benchmark/bench/entt/entt/test/entt/meta/meta_prop.cpp\00", align 1
@.str.5 = private unnamed_addr constant [5 x i8] c"prop\00", align 1
@.str.6 = private unnamed_addr constant [6 x i8] c"false\00", align 1
@.str.7 = private unnamed_addr constant [5 x i8] c"true\00", align 1
@.str.8 = private unnamed_addr constant [18 x i8] c"entt::meta_prop{}\00", align 1
@.str.11 = private unnamed_addr constant [22 x i8] c"value.try_cast<int>()\00", align 1
@.str.12 = private unnamed_addr constant [8 x i8] c"nullptr\00", align 1
@.str.13 = private unnamed_addr constant [23 x i8] c"cvalue.try_cast<int>()\00", align 1
@.str.14 = private unnamed_addr constant [28 x i8] c"value.try_cast<const int>()\00", align 1
@.str.15 = private unnamed_addr constant [29 x i8] c"cvalue.try_cast<const int>()\00", align 1
@.str.16 = private unnamed_addr constant [6 x i8] c"value\00", align 1
@.str.17 = private unnamed_addr constant [3 x i8] c"42\00", align 1
@.str.18 = private unnamed_addr constant [7 x i8] c"cvalue\00", align 1
@_ZN22MetaProp_FromBase_Test10test_info_E = hidden global ptr null, align 8
@.str.20 = private unnamed_addr constant [9 x i8] c"FromBase\00", align 1
@.str.22 = private unnamed_addr constant [9 x i8] c"key_only\00", align 1
@.str.24 = private unnamed_addr constant [10 x i8] c"prop_bool\00", align 1
@.str.25 = private unnamed_addr constant [9 x i8] c"prop_int\00", align 1
@.str.26 = private unnamed_addr constant [10 x i8] c"key_value\00", align 1
@.str.27 = private unnamed_addr constant [31 x i8] c"prop_bool.value().cast<bool>()\00", align 1
@.str.28 = private unnamed_addr constant [29 x i8] c"prop_int.value().cast<int>()\00", align 1
@.str.29 = private unnamed_addr constant [17 x i8] c"key_only.value()\00", align 1
@.str.30 = private unnamed_addr constant [30 x i8] c"key_value.value().cast<int>()\00", align 1
@_ZN30MetaProp_DeducedArrayType_Test10test_info_E = hidden global ptr null, align 8
@.str.32 = private unnamed_addr constant [17 x i8] c"DeducedArrayType\00", align 1
@.str.33 = private unnamed_addr constant [7 x i8] c"char[]\00", align 1
@.str.34 = private unnamed_addr constant [20 x i8] c"prop.value().type()\00", align 1
@.str.35 = private unnamed_addr constant [30 x i8] c"entt::resolve<const char *>()\00", align 1
@.str.36 = private unnamed_addr constant [52 x i8] c"strcmp(prop.value().cast<const char *>(), \22char[]\22)\00", align 1
@.str.37 = private unnamed_addr constant [2 x i8] c"0\00", align 1
@_ZN28MetaProp_ReRegistration_Test10test_info_E = hidden global ptr null, align 8
@.str.39 = private unnamed_addr constant [15 x i8] c"ReRegistration\00", align 1
@.str.40 = private unnamed_addr constant [13 x i8] c"node.details\00", align 1
@.str.41 = private unnamed_addr constant [27 x i8] c"node.details->prop.empty()\00", align 1
@.str.42 = private unnamed_addr constant [26 x i8] c"node.details->prop.size()\00", align 1
@.str.43 = private unnamed_addr constant [3 x i8] c"1u\00", align 1
@.str.44 = private unnamed_addr constant [20 x i8] c"type.prop(\22int\22_hs)\00", align 1
@.str.45 = private unnamed_addr constant [40 x i8] c"type.prop(\22int\22_hs).value().cast<int>()\00", align 1
@.str.47 = private unnamed_addr constant [3 x i8] c"2u\00", align 1
@.str.48 = private unnamed_addr constant [23 x i8] c"type.prop(\22double\22_hs)\00", align 1
@.str.49 = private unnamed_addr constant [46 x i8] c"type.prop(\22double\22_hs).value().cast<double>()\00", align 1
@.str.50 = private unnamed_addr constant [3 x i8] c"3.\00", align 1
@_ZTV29MetaProp_Functionalities_Test = hidden unnamed_addr constant { [8 x ptr] } { [8 x ptr] [ptr null, ptr @_ZTI29MetaProp_Functionalities_Test, ptr @_ZN7testing4TestD2Ev, ptr @_ZN29MetaProp_Functionalities_TestD0Ev, ptr @_ZN8MetaProp5SetUpEv, ptr @_ZN8MetaProp8TearDownEv, ptr @_ZN29MetaProp_Functionalities_Test8TestBodyEv, ptr @_ZN7testing4Test5SetupEv] }, align 8
@_ZTVN10__cxxabiv120__si_class_type_infoE = external global [0 x ptr]
@_ZTS29MetaProp_Functionalities_Test = hidden constant [32 x i8] c"29MetaProp_Functionalities_Test\00", align 1
@_ZTS8MetaProp = linkonce_odr hidden constant [10 x i8] c"8MetaProp\00", comdat, align 1
@_ZTIN7testing4TestE = external constant ptr
@_ZTI8MetaProp = linkonce_odr hidden constant { ptr, ptr, ptr } { ptr getelementptr inbounds (ptr, ptr @_ZTVN10__cxxabiv120__si_class_type_infoE, i64 2), ptr @_ZTS8MetaProp, ptr @_ZTIN7testing4TestE }, comdat, align 8
@_ZTI29MetaProp_Functionalities_Test = hidden constant { ptr, ptr, ptr } { ptr getelementptr inbounds (ptr, ptr @_ZTVN10__cxxabiv120__si_class_type_infoE, i64 2), ptr @_ZTS29MetaProp_Functionalities_Test, ptr @_ZTI8MetaProp }, align 8
@_ZTV22MetaProp_FromBase_Test = hidden unnamed_addr constant { [8 x ptr] } { [8 x ptr] [ptr null, ptr @_ZTI22MetaProp_FromBase_Test, ptr @_ZN7testing4TestD2Ev, ptr @_ZN22MetaProp_FromBase_TestD0Ev, ptr @_ZN8MetaProp5SetUpEv, ptr @_ZN8MetaProp8TearDownEv, ptr @_ZN22MetaProp_FromBase_Test8TestBodyEv, ptr @_ZN7testing4Test5SetupEv] }, align 8
@_ZTS22MetaProp_FromBase_Test = hidden constant [25 x i8] c"22MetaProp_FromBase_Test\00", align 1
@_ZTI22MetaProp_FromBase_Test = hidden constant { ptr, ptr, ptr } { ptr getelementptr inbounds (ptr, ptr @_ZTVN10__cxxabiv120__si_class_type_infoE, i64 2), ptr @_ZTS22MetaProp_FromBase_Test, ptr @_ZTI8MetaProp }, align 8
@_ZTV30MetaProp_DeducedArrayType_Test = hidden unnamed_addr constant { [8 x ptr] } { [8 x ptr] [ptr null, ptr @_ZTI30MetaProp_DeducedArrayType_Test, ptr @_ZN7testing4TestD2Ev, ptr @_ZN30MetaProp_DeducedArrayType_TestD0Ev, ptr @_ZN8MetaProp5SetUpEv, ptr @_ZN8MetaProp8TearDownEv, ptr @_ZN30MetaProp_DeducedArrayType_Test8TestBodyEv, ptr @_ZN7testing4Test5SetupEv] }, align 8
@_ZTS30MetaProp_DeducedArrayType_Test = hidden constant [33 x i8] c"30MetaProp_DeducedArrayType_Test\00", align 1
@_ZTI30MetaProp_DeducedArrayType_Test = hidden constant { ptr, ptr, ptr } { ptr getelementptr inbounds (ptr, ptr @_ZTVN10__cxxabiv120__si_class_type_infoE, i64 2), ptr @_ZTS30MetaProp_DeducedArrayType_Test, ptr @_ZTI8MetaProp }, align 8
@_ZTV28MetaProp_ReRegistration_Test = hidden unnamed_addr constant { [8 x ptr] } { [8 x ptr] [ptr null, ptr @_ZTI28MetaProp_ReRegistration_Test, ptr @_ZN7testing4TestD2Ev, ptr @_ZN28MetaProp_ReRegistration_TestD0Ev, ptr @_ZN8MetaProp5SetUpEv, ptr @_ZN8MetaProp8TearDownEv, ptr @_ZN28MetaProp_ReRegistration_Test8TestBodyEv, ptr @_ZN7testing4Test5SetupEv] }, align 8
@_ZTS28MetaProp_ReRegistration_Test = hidden constant [31 x i8] c"28MetaProp_ReRegistration_Test\00", align 1
@_ZTI28MetaProp_ReRegistration_Test = hidden constant { ptr, ptr, ptr } { ptr getelementptr inbounds (ptr, ptr @_ZTVN10__cxxabiv120__si_class_type_infoE, i64 2), ptr @_ZTS28MetaProp_ReRegistration_Test, ptr @_ZTI8MetaProp }, align 8
@_ZN4entt7locatorINS_8meta_ctxEE7serviceE = linkonce_odr hidden global { ptr, %"class.std::__shared_count" } zeroinitializer, comdat, align 8
@_ZGVN4entt7locatorINS_8meta_ctxEE7serviceE = linkonce_odr hidden local_unnamed_addr global i64 0, comdat($_ZN4entt7locatorINS_8meta_ctxEE7serviceE), align 8
@_ZTVN7testing8internal15TestFactoryImplI29MetaProp_Functionalities_TestEE = linkonce_odr hidden unnamed_addr constant { [5 x ptr] } { [5 x ptr] [ptr null, ptr @_ZTIN7testing8internal15TestFactoryImplI29MetaProp_Functionalities_TestEE, ptr @_ZN7testing8internal15TestFactoryBaseD2Ev, ptr @_ZN7testing8internal15TestFactoryImplI29MetaProp_Functionalities_TestED0Ev, ptr @_ZN7testing8internal15TestFactoryImplI29MetaProp_Functionalities_TestE10CreateTestEv] }, comdat, align 8
@_ZTSN7testing8internal15TestFactoryImplI29MetaProp_Functionalities_TestEE = linkonce_odr hidden constant [70 x i8] c"N7testing8internal15TestFactoryImplI29MetaProp_Functionalities_TestEE\00", comdat, align 1
@_ZTVN10__cxxabiv117__class_type_infoE = external global [0 x ptr]
@_ZTSN7testing8internal15TestFactoryBaseE = linkonce_odr hidden constant [37 x i8] c"N7testing8internal15TestFactoryBaseE\00", comdat, align 1
@_ZTIN7testing8internal15TestFactoryBaseE = linkonce_odr hidden constant { ptr, ptr } { ptr getelementptr inbounds (ptr, ptr @_ZTVN10__cxxabiv117__class_type_infoE, i64 2), ptr @_ZTSN7testing8internal15TestFactoryBaseE }, comdat, align 8
@_ZTIN7testing8internal15TestFactoryImplI29MetaProp_Functionalities_TestEE = linkonce_odr hidden constant { ptr, ptr, ptr } { ptr getelementptr inbounds (ptr, ptr @_ZTVN10__cxxabiv120__si_class_type_infoE, i64 2), ptr @_ZTSN7testing8internal15TestFactoryImplI29MetaProp_Functionalities_TestEE, ptr @_ZTIN7testing8internal15TestFactoryBaseE }, comdat, align 8
@.str.52 = private unnamed_addr constant [1 x i8] zeroinitializer, align 1
@_ZZN4entt7type_idIvEERKNS_9type_infoEvE8instance = linkonce_odr hidden global %"struct.entt::type_info" zeroinitializer, comdat, align 8
@_ZGVZN4entt7type_idIvEERKNS_9type_infoEvE8instance = linkonce_odr hidden global i64 0, comdat, align 8
@_ZZN4entt10type_indexIvvE5valueEvE5value = linkonce_odr hidden global i32 0, comdat, align 4
@_ZGVZN4entt10type_indexIvvE5valueEvE5value = linkonce_odr hidden global i64 0, comdat, align 8
@_ZZN4entt8internal10type_index4nextEvE5value = linkonce_odr hidden local_unnamed_addr global i32 0, comdat, align 4
@.str.53 = private unnamed_addr constant [56 x i8] c"auto entt::internal::stripped_type_name() [Type = void]\00", align 1
@_ZTVN7testing8internal15TestFactoryImplI22MetaProp_FromBase_TestEE = linkonce_odr hidden unnamed_addr constant { [5 x ptr] } { [5 x ptr] [ptr null, ptr @_ZTIN7testing8internal15TestFactoryImplI22MetaProp_FromBase_TestEE, ptr @_ZN7testing8internal15TestFactoryBaseD2Ev, ptr @_ZN7testing8internal15TestFactoryImplI22MetaProp_FromBase_TestED0Ev, ptr @_ZN7testing8internal15TestFactoryImplI22MetaProp_FromBase_TestE10CreateTestEv] }, comdat, align 8
@_ZTSN7testing8internal15TestFactoryImplI22MetaProp_FromBase_TestEE = linkonce_odr hidden constant [63 x i8] c"N7testing8internal15TestFactoryImplI22MetaProp_FromBase_TestEE\00", comdat, align 1
@_ZTIN7testing8internal15TestFactoryImplI22MetaProp_FromBase_TestEE = linkonce_odr hidden constant { ptr, ptr, ptr } { ptr getelementptr inbounds (ptr, ptr @_ZTVN10__cxxabiv120__si_class_type_infoE, i64 2), ptr @_ZTSN7testing8internal15TestFactoryImplI22MetaProp_FromBase_TestEE, ptr @_ZTIN7testing8internal15TestFactoryBaseE }, comdat, align 8
@_ZTVN7testing8internal15TestFactoryImplI30MetaProp_DeducedArrayType_TestEE = linkonce_odr hidden unnamed_addr constant { [5 x ptr] } { [5 x ptr] [ptr null, ptr @_ZTIN7testing8internal15TestFactoryImplI30MetaProp_DeducedArrayType_TestEE, ptr @_ZN7testing8internal15TestFactoryBaseD2Ev, ptr @_ZN7testing8internal15TestFactoryImplI30MetaProp_DeducedArrayType_TestED0Ev, ptr @_ZN7testing8internal15TestFactoryImplI30MetaProp_DeducedArrayType_TestE10CreateTestEv] }, comdat, align 8
@_ZTSN7testing8internal15TestFactoryImplI30MetaProp_DeducedArrayType_TestEE = linkonce_odr hidden constant [71 x i8] c"N7testing8internal15TestFactoryImplI30MetaProp_DeducedArrayType_TestEE\00", comdat, align 1
@_ZTIN7testing8internal15TestFactoryImplI30MetaProp_DeducedArrayType_TestEE = linkonce_odr hidden constant { ptr, ptr, ptr } { ptr getelementptr inbounds (ptr, ptr @_ZTVN10__cxxabiv120__si_class_type_infoE, i64 2), ptr @_ZTSN7testing8internal15TestFactoryImplI30MetaProp_DeducedArrayType_TestEE, ptr @_ZTIN7testing8internal15TestFactoryBaseE }, comdat, align 8
@__libc_single_threaded = external local_unnamed_addr global i8, align 1
@_ZTVN7testing8internal15TestFactoryImplI28MetaProp_ReRegistration_TestEE = linkonce_odr hidden unnamed_addr constant { [5 x ptr] } { [5 x ptr] [ptr null, ptr @_ZTIN7testing8internal15TestFactoryImplI28MetaProp_ReRegistration_TestEE, ptr @_ZN7testing8internal15TestFactoryBaseD2Ev, ptr @_ZN7testing8internal15TestFactoryImplI28MetaProp_ReRegistration_TestED0Ev, ptr @_ZN7testing8internal15TestFactoryImplI28MetaProp_ReRegistration_TestE10CreateTestEv] }, comdat, align 8
@_ZTSN7testing8internal15TestFactoryImplI28MetaProp_ReRegistration_TestEE = linkonce_odr hidden constant [69 x i8] c"N7testing8internal15TestFactoryImplI28MetaProp_ReRegistration_TestEE\00", comdat, align 1
@_ZTIN7testing8internal15TestFactoryImplI28MetaProp_ReRegistration_TestEE = linkonce_odr hidden constant { ptr, ptr, ptr } { ptr getelementptr inbounds (ptr, ptr @_ZTVN10__cxxabiv120__si_class_type_infoE, i64 2), ptr @_ZTSN7testing8internal15TestFactoryImplI28MetaProp_ReRegistration_TestEE, ptr @_ZTIN7testing8internal15TestFactoryBaseE }, comdat, align 8
@_ZSt19piecewise_construct = linkonce_odr dso_local constant %"struct.std::piecewise_construct_t" zeroinitializer, comdat, align 1
@.str.54 = private unnamed_addr constant [26 x i8] c"vector::_M_realloc_insert\00", align 1
@.str.55 = private unnamed_addr constant [26 x i8] c"vector::_M_default_append\00", align 1
@_ZZN4entt7type_idI8base_1_tEERKNS_9type_infoEvE8instance = linkonce_odr hidden global %"struct.entt::type_info" zeroinitializer, comdat, align 8
@_ZGVZN4entt7type_idI8base_1_tEERKNS_9type_infoEvE8instance = linkonce_odr hidden global i64 0, comdat, align 8
@_ZZN4entt10type_indexI8base_1_tvE5valueEvE5value = linkonce_odr hidden global i32 0, comdat, align 4
@_ZGVZN4entt10type_indexI8base_1_tvE5valueEvE5value = linkonce_odr hidden global i64 0, comdat, align 8
@.str.56 = private unnamed_addr constant [60 x i8] c"auto entt::internal::stripped_type_name() [Type = base_1_t]\00", align 1
@_ZTVSt23_Sp_counted_ptr_inplaceIN4entt8internal20meta_type_descriptorESaIvELN9__gnu_cxx12_Lock_policyE2EE = linkonce_odr hidden unnamed_addr constant { [7 x ptr] } { [7 x ptr] [ptr null, ptr @_ZTISt23_Sp_counted_ptr_inplaceIN4entt8internal20meta_type_descriptorESaIvELN9__gnu_cxx12_Lock_policyE2EE, ptr @_ZNSt16_Sp_counted_baseILN9__gnu_cxx12_Lock_policyE2EED2Ev, ptr @_ZNSt23_Sp_counted_ptr_inplaceIN4entt8internal20meta_type_descriptorESaIvELN9__gnu_cxx12_Lock_policyE2EED0Ev, ptr @_ZNSt23_Sp_counted_ptr_inplaceIN4entt8internal20meta_type_descriptorESaIvELN9__gnu_cxx12_Lock_policyE2EE10_M_disposeEv, ptr @_ZNSt23_Sp_counted_ptr_inplaceIN4entt8internal20meta_type_descriptorESaIvELN9__gnu_cxx12_Lock_policyE2EE10_M_destroyEv, ptr @_ZNSt23_Sp_counted_ptr_inplaceIN4entt8internal20meta_type_descriptorESaIvELN9__gnu_cxx12_Lock_policyE2EE14_M_get_deleterERKSt9type_info] }, comdat, align 8
@_ZTSSt23_Sp_counted_ptr_inplaceIN4entt8internal20meta_type_descriptorESaIvELN9__gnu_cxx12_Lock_policyE2EE = linkonce_odr hidden constant [102 x i8] c"St23_Sp_counted_ptr_inplaceIN4entt8internal20meta_type_descriptorESaIvELN9__gnu_cxx12_Lock_policyE2EE\00", comdat, align 1
@_ZTSSt16_Sp_counted_baseILN9__gnu_cxx12_Lock_policyE2EE = linkonce_odr dso_local constant [52 x i8] c"St16_Sp_counted_baseILN9__gnu_cxx12_Lock_policyE2EE\00", comdat, align 1
@_ZTSSt11_Mutex_baseILN9__gnu_cxx12_Lock_policyE2EE = linkonce_odr dso_local constant [47 x i8] c"St11_Mutex_baseILN9__gnu_cxx12_Lock_policyE2EE\00", comdat, align 1
@_ZTISt11_Mutex_baseILN9__gnu_cxx12_Lock_policyE2EE = linkonce_odr dso_local constant { ptr, ptr } { ptr getelementptr inbounds (ptr, ptr @_ZTVN10__cxxabiv117__class_type_infoE, i64 2), ptr @_ZTSSt11_Mutex_baseILN9__gnu_cxx12_Lock_policyE2EE }, comdat, align 8
@_ZTISt16_Sp_counted_baseILN9__gnu_cxx12_Lock_policyE2EE = linkonce_odr dso_local constant { ptr, ptr, ptr } { ptr getelementptr inbounds (ptr, ptr @_ZTVN10__cxxabiv120__si_class_type_infoE, i64 2), ptr @_ZTSSt16_Sp_counted_baseILN9__gnu_cxx12_Lock_policyE2EE, ptr @_ZTISt11_Mutex_baseILN9__gnu_cxx12_Lock_policyE2EE }, comdat, align 8
@_ZTISt23_Sp_counted_ptr_inplaceIN4entt8internal20meta_type_descriptorESaIvELN9__gnu_cxx12_Lock_policyE2EE = linkonce_odr hidden constant { ptr, ptr, ptr } { ptr getelementptr inbounds (ptr, ptr @_ZTVN10__cxxabiv120__si_class_type_infoE, i64 2), ptr @_ZTSSt23_Sp_counted_ptr_inplaceIN4entt8internal20meta_type_descriptorESaIvELN9__gnu_cxx12_Lock_policyE2EE, ptr @_ZTISt16_Sp_counted_baseILN9__gnu_cxx12_Lock_policyE2EE }, comdat, align 8
@_ZTSSt19_Sp_make_shared_tag = linkonce_odr dso_local constant [24 x i8] c"St19_Sp_make_shared_tag\00", comdat, align 1
@_ZZNSt19_Sp_make_shared_tag5_S_tiEvE5__tag = linkonce_odr dso_local constant [16 x i8] zeroinitializer, comdat, align 8
@_ZZN4entt7type_idI8base_2_tEERKNS_9type_infoEvE8instance = linkonce_odr hidden global %"struct.entt::type_info" zeroinitializer, comdat, align 8
@_ZGVZN4entt7type_idI8base_2_tEERKNS_9type_infoEvE8instance = linkonce_odr hidden global i64 0, comdat, align 8
@_ZZN4entt10type_indexI8base_2_tvE5valueEvE5value = linkonce_odr hidden global i32 0, comdat, align 4
@_ZGVZN4entt10type_indexI8base_2_tvE5valueEvE5value = linkonce_odr hidden global i64 0, comdat, align 8
@.str.61 = private unnamed_addr constant [60 x i8] c"auto entt::internal::stripped_type_name() [Type = base_2_t]\00", align 1
@_ZZN4entt7type_idIbEERKNS_9type_infoEvE8instance = linkonce_odr hidden global %"struct.entt::type_info" zeroinitializer, comdat, align 8
@_ZGVZN4entt7type_idIbEERKNS_9type_infoEvE8instance = linkonce_odr hidden global i64 0, comdat, align 8
@_ZZN4entt10type_indexIbvE5valueEvE5value = linkonce_odr hidden global i32 0, comdat, align 4
@_ZGVZN4entt10type_indexIbvE5valueEvE5value = linkonce_odr hidden global i64 0, comdat, align 8
@.str.62 = private unnamed_addr constant [56 x i8] c"auto entt::internal::stripped_type_name() [Type = bool]\00", align 1
@_ZTVSt23_Sp_counted_ptr_inplaceIbSaIvELN9__gnu_cxx12_Lock_policyE2EE = linkonce_odr dso_local unnamed_addr constant { [7 x ptr] } { [7 x ptr] [ptr null, ptr @_ZTISt23_Sp_counted_ptr_inplaceIbSaIvELN9__gnu_cxx12_Lock_policyE2EE, ptr @_ZNSt16_Sp_counted_baseILN9__gnu_cxx12_Lock_policyE2EED2Ev, ptr @_ZNSt23_Sp_counted_ptr_inplaceIbSaIvELN9__gnu_cxx12_Lock_policyE2EED0Ev, ptr @_ZNSt23_Sp_counted_ptr_inplaceIbSaIvELN9__gnu_cxx12_Lock_policyE2EE10_M_disposeEv, ptr @_ZNSt23_Sp_counted_ptr_inplaceIbSaIvELN9__gnu_cxx12_Lock_policyE2EE10_M_destroyEv, ptr @_ZNSt23_Sp_counted_ptr_inplaceIbSaIvELN9__gnu_cxx12_Lock_policyE2EE14_M_get_deleterERKSt9type_info] }, comdat, align 8
@_ZTSSt23_Sp_counted_ptr_inplaceIbSaIvELN9__gnu_cxx12_Lock_policyE2EE = linkonce_odr dso_local constant [65 x i8] c"St23_Sp_counted_ptr_inplaceIbSaIvELN9__gnu_cxx12_Lock_policyE2EE\00", comdat, align 1
@_ZTISt23_Sp_counted_ptr_inplaceIbSaIvELN9__gnu_cxx12_Lock_policyE2EE = linkonce_odr dso_local constant { ptr, ptr, ptr } { ptr getelementptr inbounds (ptr, ptr @_ZTVN10__cxxabiv120__si_class_type_infoE, i64 2), ptr @_ZTSSt23_Sp_counted_ptr_inplaceIbSaIvELN9__gnu_cxx12_Lock_policyE2EE, ptr @_ZTISt16_Sp_counted_baseILN9__gnu_cxx12_Lock_policyE2EE }, comdat, align 8
@_ZZN4entt7type_idIPKcEERKNS_9type_infoEvE8instance = linkonce_odr hidden global %"struct.entt::type_info" zeroinitializer, comdat, align 8
@_ZGVZN4entt7type_idIPKcEERKNS_9type_infoEvE8instance = linkonce_odr hidden global i64 0, comdat, align 8
@_ZZN4entt10type_indexIPKcvE5valueEvE5value = linkonce_odr hidden global i32 0, comdat, align 4
@_ZGVZN4entt10type_indexIPKcvE5valueEvE5value = linkonce_odr hidden global i64 0, comdat, align 8
@.str.63 = private unnamed_addr constant [64 x i8] c"auto entt::internal::stripped_type_name() [Type = const char *]\00", align 1
@_ZZN4entt7type_idIcEERKNS_9type_infoEvE8instance = linkonce_odr hidden global %"struct.entt::type_info" zeroinitializer, comdat, align 8
@_ZGVZN4entt7type_idIcEERKNS_9type_infoEvE8instance = linkonce_odr hidden global i64 0, comdat, align 8
@_ZZN4entt10type_indexIcvE5valueEvE5value = linkonce_odr hidden global i32 0, comdat, align 4
@_ZGVZN4entt10type_indexIcvE5valueEvE5value = linkonce_odr hidden global i64 0, comdat, align 8
@.str.64 = private unnamed_addr constant [56 x i8] c"auto entt::internal::stripped_type_name() [Type = char]\00", align 1
@_ZTVSt23_Sp_counted_ptr_inplaceIPKcSaIvELN9__gnu_cxx12_Lock_policyE2EE = linkonce_odr dso_local unnamed_addr constant { [7 x ptr] } { [7 x ptr] [ptr null, ptr @_ZTISt23_Sp_counted_ptr_inplaceIPKcSaIvELN9__gnu_cxx12_Lock_policyE2EE, ptr @_ZNSt16_Sp_counted_baseILN9__gnu_cxx12_Lock_policyE2EED2Ev, ptr @_ZNSt23_Sp_counted_ptr_inplaceIPKcSaIvELN9__gnu_cxx12_Lock_policyE2EED0Ev, ptr @_ZNSt23_Sp_counted_ptr_inplaceIPKcSaIvELN9__gnu_cxx12_Lock_policyE2EE10_M_disposeEv, ptr @_ZNSt23_Sp_counted_ptr_inplaceIPKcSaIvELN9__gnu_cxx12_Lock_policyE2EE10_M_destroyEv, ptr @_ZNSt23_Sp_counted_ptr_inplaceIPKcSaIvELN9__gnu_cxx12_Lock_policyE2EE14_M_get_deleterERKSt9type_info] }, comdat, align 8
@_ZTSSt23_Sp_counted_ptr_inplaceIPKcSaIvELN9__gnu_cxx12_Lock_policyE2EE = linkonce_odr dso_local constant [67 x i8] c"St23_Sp_counted_ptr_inplaceIPKcSaIvELN9__gnu_cxx12_Lock_policyE2EE\00", comdat, align 1
@_ZTISt23_Sp_counted_ptr_inplaceIPKcSaIvELN9__gnu_cxx12_Lock_policyE2EE = linkonce_odr dso_local constant { ptr, ptr, ptr } { ptr getelementptr inbounds (ptr, ptr @_ZTVN10__cxxabiv120__si_class_type_infoE, i64 2), ptr @_ZTSSt23_Sp_counted_ptr_inplaceIPKcSaIvELN9__gnu_cxx12_Lock_policyE2EE, ptr @_ZTISt16_Sp_counted_baseILN9__gnu_cxx12_Lock_policyE2EE }, comdat, align 8
@_ZZN4entt7type_idI8base_3_tEERKNS_9type_infoEvE8instance = linkonce_odr hidden global %"struct.entt::type_info" zeroinitializer, comdat, align 8
@_ZGVZN4entt7type_idI8base_3_tEERKNS_9type_infoEvE8instance = linkonce_odr hidden global i64 0, comdat, align 8
@_ZZN4entt10type_indexI8base_3_tvE5valueEvE5value = linkonce_odr hidden global i32 0, comdat, align 4
@_ZGVZN4entt10type_indexI8base_3_tvE5valueEvE5value = linkonce_odr hidden global i64 0, comdat, align 8
@.str.65 = private unnamed_addr constant [60 x i8] c"auto entt::internal::stripped_type_name() [Type = base_3_t]\00", align 1
@_ZZN4entt7type_idIiEERKNS_9type_infoEvE8instance = linkonce_odr hidden global %"struct.entt::type_info" zeroinitializer, comdat, align 8
@_ZGVZN4entt7type_idIiEERKNS_9type_infoEvE8instance = linkonce_odr hidden global i64 0, comdat, align 8
@_ZZN4entt10type_indexIivE5valueEvE5value = linkonce_odr hidden global i32 0, comdat, align 4
@_ZGVZN4entt10type_indexIivE5valueEvE5value = linkonce_odr hidden global i64 0, comdat, align 8
@.str.66 = private unnamed_addr constant [55 x i8] c"auto entt::internal::stripped_type_name() [Type = int]\00", align 1
@_ZTVSt23_Sp_counted_ptr_inplaceIiSaIvELN9__gnu_cxx12_Lock_policyE2EE = linkonce_odr dso_local unnamed_addr constant { [7 x ptr] } { [7 x ptr] [ptr null, ptr @_ZTISt23_Sp_counted_ptr_inplaceIiSaIvELN9__gnu_cxx12_Lock_policyE2EE, ptr @_ZNSt16_Sp_counted_baseILN9__gnu_cxx12_Lock_policyE2EED2Ev, ptr @_ZNSt23_Sp_counted_ptr_inplaceIiSaIvELN9__gnu_cxx12_Lock_policyE2EED0Ev, ptr @_ZNSt23_Sp_counted_ptr_inplaceIiSaIvELN9__gnu_cxx12_Lock_policyE2EE10_M_disposeEv, ptr @_ZNSt23_Sp_counted_ptr_inplaceIiSaIvELN9__gnu_cxx12_Lock_policyE2EE10_M_destroyEv, ptr @_ZNSt23_Sp_counted_ptr_inplaceIiSaIvELN9__gnu_cxx12_Lock_policyE2EE14_M_get_deleterERKSt9type_info] }, comdat, align 8
@_ZTSSt23_Sp_counted_ptr_inplaceIiSaIvELN9__gnu_cxx12_Lock_policyE2EE = linkonce_odr dso_local constant [65 x i8] c"St23_Sp_counted_ptr_inplaceIiSaIvELN9__gnu_cxx12_Lock_policyE2EE\00", comdat, align 1
@_ZTISt23_Sp_counted_ptr_inplaceIiSaIvELN9__gnu_cxx12_Lock_policyE2EE = linkonce_odr dso_local constant { ptr, ptr, ptr } { ptr getelementptr inbounds (ptr, ptr @_ZTVN10__cxxabiv120__si_class_type_infoE, i64 2), ptr @_ZTSSt23_Sp_counted_ptr_inplaceIiSaIvELN9__gnu_cxx12_Lock_policyE2EE, ptr @_ZTISt16_Sp_counted_baseILN9__gnu_cxx12_Lock_policyE2EE }, comdat, align 8
@_ZZN4entt7type_idI9derived_tEERKNS_9type_infoEvE8instance = linkonce_odr hidden global %"struct.entt::type_info" zeroinitializer, comdat, align 8
@_ZGVZN4entt7type_idI9derived_tEERKNS_9type_infoEvE8instance = linkonce_odr hidden global i64 0, comdat, align 8
@_ZZN4entt10type_indexI9derived_tvE5valueEvE5value = linkonce_odr hidden global i32 0, comdat, align 4
@_ZGVZN4entt10type_indexI9derived_tvE5valueEvE5value = linkonce_odr hidden global i64 0, comdat, align 8
@.str.67 = private unnamed_addr constant [61 x i8] c"auto entt::internal::stripped_type_name() [Type = derived_t]\00", align 1
@_ZTVSt23_Sp_counted_ptr_inplaceIN4entt8meta_ctxESaIvELN9__gnu_cxx12_Lock_policyE2EE = linkonce_odr hidden unnamed_addr constant { [7 x ptr] } { [7 x ptr] [ptr null, ptr @_ZTISt23_Sp_counted_ptr_inplaceIN4entt8meta_ctxESaIvELN9__gnu_cxx12_Lock_policyE2EE, ptr @_ZNSt16_Sp_counted_baseILN9__gnu_cxx12_Lock_policyE2EED2Ev, ptr @_ZNSt23_Sp_counted_ptr_inplaceIN4entt8meta_ctxESaIvELN9__gnu_cxx12_Lock_policyE2EED0Ev, ptr @_ZNSt23_Sp_counted_ptr_inplaceIN4entt8meta_ctxESaIvELN9__gnu_cxx12_Lock_policyE2EE10_M_disposeEv, ptr @_ZNSt23_Sp_counted_ptr_inplaceIN4entt8meta_ctxESaIvELN9__gnu_cxx12_Lock_policyE2EE10_M_destroyEv, ptr @_ZNSt23_Sp_counted_ptr_inplaceIN4entt8meta_ctxESaIvELN9__gnu_cxx12_Lock_policyE2EE14_M_get_deleterERKSt9type_info] }, comdat, align 8
@_ZTSSt23_Sp_counted_ptr_inplaceIN4entt8meta_ctxESaIvELN9__gnu_cxx12_Lock_policyE2EE = linkonce_odr hidden constant [80 x i8] c"St23_Sp_counted_ptr_inplaceIN4entt8meta_ctxESaIvELN9__gnu_cxx12_Lock_policyE2EE\00", comdat, align 1
@_ZTISt23_Sp_counted_ptr_inplaceIN4entt8meta_ctxESaIvELN9__gnu_cxx12_Lock_policyE2EE = linkonce_odr hidden constant { ptr, ptr, ptr } { ptr getelementptr inbounds (ptr, ptr @_ZTVN10__cxxabiv120__si_class_type_infoE, i64 2), ptr @_ZTSSt23_Sp_counted_ptr_inplaceIN4entt8meta_ctxESaIvELN9__gnu_cxx12_Lock_policyE2EE, ptr @_ZTISt16_Sp_counted_baseILN9__gnu_cxx12_Lock_policyE2EE }, comdat, align 8
@_ZN7testing8internal12TypeIdHelperI8MetaPropE6dummy_E = linkonce_odr hidden global i8 0, comdat, align 1
@.str.69 = private unnamed_addr constant [54 x i8] c"generated/usr/include/gtest/internal/gtest-internal.h\00", align 1
@.str.70 = private unnamed_addr constant [51 x i8] c"Condition !test_case_fp || !test_suite_fp failed. \00", align 1
@.str.71 = private unnamed_addr constant [107 x i8] c"Test can not provide both SetUpTestSuite and SetUpTestCase, please make sure there is only one present at \00", align 1
@.str.72 = private unnamed_addr constant [2 x i8] c":\00", align 1
@_ZSt4cerr = external global %"class.std::basic_ostream", align 8
@.str.73 = private unnamed_addr constant [112 x i8] c"Test can not provide both TearDownTestSuite and TearDownTestCase, please make sure there is only one present at\00", align 1
@_ZTTNSt7__cxx1118basic_stringstreamIcSt11char_traitsIcESaIcEEE = external unnamed_addr constant [10 x ptr], align 8
@_ZTVNSt7__cxx1115basic_stringbufIcSt11char_traitsIcESaIcEEE = external unnamed_addr constant { [16 x ptr] }, align 8
@_ZTVSt15basic_streambufIcSt11char_traitsIcEE = external unnamed_addr constant { [16 x ptr] }, align 8
@.str.76 = private unnamed_addr constant [3 x i8] c"!=\00", align 1
@.str.77 = private unnamed_addr constant [12 x i8] c"Expected: (\00", align 1
@.str.78 = private unnamed_addr constant [3 x i8] c") \00", align 1
@.str.79 = private unnamed_addr constant [3 x i8] c" (\00", align 1
@.str.80 = private unnamed_addr constant [12 x i8] c"), actual: \00", align 1
@.str.81 = private unnamed_addr constant [5 x i8] c" vs \00", align 1
@.str.82 = private unnamed_addr constant [21 x i8] c"basic_string::append\00", align 1
@.str.83 = private unnamed_addr constant [7 x i8] c"(null)\00", align 1
@.str.84 = private unnamed_addr constant [5 x i8] c"NULL\00", align 1
@.str.85 = private unnamed_addr constant [10 x i8] c"(nullptr)\00", align 1
@_ZZN4entt7type_idIdEERKNS_9type_infoEvE8instance = linkonce_odr hidden global %"struct.entt::type_info" zeroinitializer, comdat, align 8
@_ZGVZN4entt7type_idIdEERKNS_9type_infoEvE8instance = linkonce_odr hidden global i64 0, comdat, align 8
@_ZZN4entt10type_indexIdvE5valueEvE5value = linkonce_odr hidden global i32 0, comdat, align 4
@_ZGVZN4entt10type_indexIdvE5valueEvE5value = linkonce_odr hidden global i64 0, comdat, align 8
@.str.86 = private unnamed_addr constant [58 x i8] c"auto entt::internal::stripped_type_name() [Type = double]\00", align 1
@_ZTVSt23_Sp_counted_ptr_inplaceIdSaIvELN9__gnu_cxx12_Lock_policyE2EE = linkonce_odr dso_local unnamed_addr constant { [7 x ptr] } { [7 x ptr] [ptr null, ptr @_ZTISt23_Sp_counted_ptr_inplaceIdSaIvELN9__gnu_cxx12_Lock_policyE2EE, ptr @_ZNSt16_Sp_counted_baseILN9__gnu_cxx12_Lock_policyE2EED2Ev, ptr @_ZNSt23_Sp_counted_ptr_inplaceIdSaIvELN9__gnu_cxx12_Lock_policyE2EED0Ev, ptr @_ZNSt23_Sp_counted_ptr_inplaceIdSaIvELN9__gnu_cxx12_Lock_policyE2EE10_M_disposeEv, ptr @_ZNSt23_Sp_counted_ptr_inplaceIdSaIvELN9__gnu_cxx12_Lock_policyE2EE10_M_destroyEv, ptr @_ZNSt23_Sp_counted_ptr_inplaceIdSaIvELN9__gnu_cxx12_Lock_policyE2EE14_M_get_deleterERKSt9type_info] }, comdat, align 8
@_ZTSSt23_Sp_counted_ptr_inplaceIdSaIvELN9__gnu_cxx12_Lock_policyE2EE = linkonce_odr dso_local constant [65 x i8] c"St23_Sp_counted_ptr_inplaceIdSaIvELN9__gnu_cxx12_Lock_policyE2EE\00", comdat, align 1
@_ZTISt23_Sp_counted_ptr_inplaceIdSaIvELN9__gnu_cxx12_Lock_policyE2EE = linkonce_odr dso_local constant { ptr, ptr, ptr } { ptr getelementptr inbounds (ptr, ptr @_ZTVN10__cxxabiv120__si_class_type_infoE, i64 2), ptr @_ZTSSt23_Sp_counted_ptr_inplaceIdSaIvELN9__gnu_cxx12_Lock_policyE2EE, ptr @_ZTISt16_Sp_counted_baseILN9__gnu_cxx12_Lock_policyE2EE }, comdat, align 8
@llvm.global_ctors = appending global [2 x { i32, ptr, ptr }] [{ i32, ptr, ptr } { i32 65535, ptr @__cxx_global_var_init.51, ptr @_ZN4entt7locatorINS_8meta_ctxEE7serviceE }, { i32, ptr, ptr } { i32 65535, ptr @_GLOBAL__sub_I_meta_prop.cpp, ptr null }]
@llvm.used = appending global [1 x ptr] [ptr @_ZN4entt7locatorINS_8meta_ctxEE7serviceE], section "llvm.metadata"

declare void @_ZNSt8ios_base4InitC1Ev(ptr noundef nonnull align 1 dereferenceable(1)) unnamed_addr #0

; Function Attrs: nounwind
declare void @_ZNSt8ios_base4InitD1Ev(ptr noundef nonnull align 1 dereferenceable(1)) unnamed_addr #1

; Function Attrs: nofree nounwind
declare i32 @__cxa_atexit(ptr, ptr, ptr) local_unnamed_addr #2

declare noundef ptr @_ZN7testing8internal23MakeAndRegisterTestInfoEPKcS2_S2_S2_NS0_12CodeLocationEPKvPFvvES7_PNS0_15TestFactoryBaseE(ptr noundef, ptr noundef, ptr noundef, ptr noundef, ptr noundef, ptr noundef, ptr noundef, ptr noundef, ptr noundef) local_unnamed_addr #0

; Function Attrs: mustprogress nocallback nofree nosync nounwind willreturn memory(argmem: readwrite)
declare void @llvm.lifetime.start.p0(i64 immarg, ptr nocapture) #3

declare i32 @__gxx_personality_v0(...)

; Function Attrs: mustprogress uwtable
define linkonce_odr hidden noundef ptr @_ZN7testing8internal16SuiteApiResolverI8MetaPropE19GetSetUpCaseOrSuiteEPKci(ptr noundef %filename, i32 noundef %line_num) local_unnamed_addr #4 comdat align 2 personality ptr @__gxx_personality_v0 {
entry:
  %ref.tmp = alloca %"class.testing::internal::GTestLog", align 4
  %call3 = tail call noundef zeroext i1 @_ZN7testing8internal6IsTrueEb(i1 noundef zeroext true)
  br i1 %call3, label %if.end, label %if.else

if.else:                                          ; preds = %entry
  call void @llvm.lifetime.start.p0(i64 4, ptr nonnull %ref.tmp) #21
  call void @_ZN7testing8internal8GTestLogC1ENS0_16GTestLogSeverityEPKci(ptr noundef nonnull align 4 dereferenceable(4) %ref.tmp, i32 noundef 3, ptr noundef nonnull @.str.69, i32 noundef 529)
  %call1.i19 = invoke noundef nonnull align 8 dereferenceable(8) ptr @_ZSt16__ostream_insertIcSt11char_traitsIcEERSt13basic_ostreamIT_T0_ES6_PKS3_l(ptr noundef nonnull align 8 dereferenceable(8) @_ZSt4cerr, ptr noundef nonnull @.str.70, i64 noundef 50)
          to label %invoke.cont5 unwind label %lpad

invoke.cont5:                                     ; preds = %if.else
  %call1.i21 = invoke noundef nonnull align 8 dereferenceable(8) ptr @_ZSt16__ostream_insertIcSt11char_traitsIcEERSt13basic_ostreamIT_T0_ES6_PKS3_l(ptr noundef nonnull align 8 dereferenceable(8) @_ZSt4cerr, ptr noundef nonnull @.str.71, i64 noundef 106)
          to label %invoke.cont7 unwind label %lpad

invoke.cont7:                                     ; preds = %invoke.cont5
  %tobool.not.i = icmp eq ptr %filename, null
  br i1 %tobool.not.i, label %if.then.i, label %if.else.i

if.then.i:                                        ; preds = %invoke.cont7
  %vtable.i = load ptr, ptr @_ZSt4cerr, align 8, !tbaa !4
  %vbase.offset.ptr.i = getelementptr i8, ptr %vtable.i, i64 -24
  %vbase.offset.i = load i64, ptr %vbase.offset.ptr.i, align 8
  %add.ptr.i = getelementptr inbounds i8, ptr @_ZSt4cerr, i64 %vbase.offset.i
  %_M_streambuf_state.i.i.i = getelementptr inbounds i8, ptr %add.ptr.i, i64 32
  %0 = load i32, ptr %_M_streambuf_state.i.i.i, align 8, !tbaa !7
  %or.i.i.i = or i32 %0, 1
  invoke void @_ZNSt9basic_iosIcSt11char_traitsIcEE5clearESt12_Ios_Iostate(ptr noundef nonnull align 8 dereferenceable(264) %add.ptr.i, i32 noundef %or.i.i.i)
          to label %invoke.cont9 unwind label %lpad

if.else.i:                                        ; preds = %invoke.cont7
  %call.i.i23 = call noundef i64 @strlen(ptr noundef nonnull dereferenceable(1) %filename) #21
  %call1.i24 = invoke noundef nonnull align 8 dereferenceable(8) ptr @_ZSt16__ostream_insertIcSt11char_traitsIcEERSt13basic_ostreamIT_T0_ES6_PKS3_l(ptr noundef nonnull align 8 dereferenceable(8) @_ZSt4cerr, ptr noundef nonnull %filename, i64 noundef %call.i.i23)
          to label %invoke.cont9 unwind label %lpad

invoke.cont9:                                     ; preds = %if.else.i, %if.then.i
  %call1.i29 = invoke noundef nonnull align 8 dereferenceable(8) ptr @_ZSt16__ostream_insertIcSt11char_traitsIcEERSt13basic_ostreamIT_T0_ES6_PKS3_l(ptr noundef nonnull align 8 dereferenceable(8) @_ZSt4cerr, ptr noundef nonnull @.str.72, i64 noundef 1)
          to label %invoke.cont11 unwind label %lpad

invoke.cont11:                                    ; preds = %invoke.cont9
  %call14 = invoke noundef nonnull align 8 dereferenceable(8) ptr @_ZNSolsEi(ptr noundef nonnull align 8 dereferenceable(8) @_ZSt4cerr, i32 noundef %line_num)
          to label %invoke.cont13 unwind label %lpad

invoke.cont13:                                    ; preds = %invoke.cont11
  call void @_ZN7testing8internal8GTestLogD1Ev(ptr noundef nonnull align 4 dereferenceable(4) %ref.tmp) #21
  call void @llvm.lifetime.end.p0(i64 4, ptr nonnull %ref.tmp) #21
  br label %if.end

lpad:                                             ; preds = %invoke.cont11, %invoke.cont9, %if.else.i, %if.then.i, %invoke.cont5, %if.else
  %1 = landingpad { ptr, i32 }
          cleanup
  call void @_ZN7testing8internal8GTestLogD1Ev(ptr noundef nonnull align 4 dereferenceable(4) %ref.tmp) #21
  call void @llvm.lifetime.end.p0(i64 4, ptr nonnull %ref.tmp) #21
  resume { ptr, i32 } %1

if.end:                                           ; preds = %invoke.cont13, %entry
  ret ptr null
}

; Function Attrs: mustprogress uwtable
define linkonce_odr hidden noundef ptr @_ZN7testing8internal16SuiteApiResolverI8MetaPropE22GetTearDownCaseOrSuiteEPKci(ptr noundef %filename, i32 noundef %line_num) local_unnamed_addr #4 comdat align 2 personality ptr @__gxx_personality_v0 {
entry:
  %ref.tmp = alloca %"class.testing::internal::GTestLog", align 4
  %call3 = tail call noundef zeroext i1 @_ZN7testing8internal6IsTrueEb(i1 noundef zeroext true)
  br i1 %call3, label %if.end, label %if.else

if.else:                                          ; preds = %entry
  call void @llvm.lifetime.start.p0(i64 4, ptr nonnull %ref.tmp) #21
  call void @_ZN7testing8internal8GTestLogC1ENS0_16GTestLogSeverityEPKci(ptr noundef nonnull align 4 dereferenceable(4) %ref.tmp, i32 noundef 3, ptr noundef nonnull @.str.69, i32 noundef 550)
  %call1.i18 = invoke noundef nonnull align 8 dereferenceable(8) ptr @_ZSt16__ostream_insertIcSt11char_traitsIcEERSt13basic_ostreamIT_T0_ES6_PKS3_l(ptr noundef nonnull align 8 dereferenceable(8) @_ZSt4cerr, ptr noundef nonnull @.str.70, i64 noundef 50)
          to label %invoke.cont unwind label %lpad

invoke.cont:                                      ; preds = %if.else
  %call1.i20 = invoke noundef nonnull align 8 dereferenceable(8) ptr @_ZSt16__ostream_insertIcSt11char_traitsIcEERSt13basic_ostreamIT_T0_ES6_PKS3_l(ptr noundef nonnull align 8 dereferenceable(8) @_ZSt4cerr, ptr noundef nonnull @.str.73, i64 noundef 111)
          to label %invoke.cont6 unwind label %lpad

invoke.cont6:                                     ; preds = %invoke.cont
  %tobool.not.i = icmp eq ptr %filename, null
  br i1 %tobool.not.i, label %if.then.i, label %if.else.i

if.then.i:                                        ; preds = %invoke.cont6
  %vtable.i = load ptr, ptr @_ZSt4cerr, align 8, !tbaa !4
  %vbase.offset.ptr.i = getelementptr i8, ptr %vtable.i, i64 -24
  %vbase.offset.i = load i64, ptr %vbase.offset.ptr.i, align 8
  %add.ptr.i = getelementptr inbounds i8, ptr @_ZSt4cerr, i64 %vbase.offset.i
  %_M_streambuf_state.i.i.i = getelementptr inbounds i8, ptr %add.ptr.i, i64 32
  %0 = load i32, ptr %_M_streambuf_state.i.i.i, align 8, !tbaa !7
  %or.i.i.i = or i32 %0, 1
  invoke void @_ZNSt9basic_iosIcSt11char_traitsIcEE5clearESt12_Ios_Iostate(ptr noundef nonnull align 8 dereferenceable(264) %add.ptr.i, i32 noundef %or.i.i.i)
          to label %invoke.cont8 unwind label %lpad

if.else.i:                                        ; preds = %invoke.cont6
  %call.i.i22 = call noundef i64 @strlen(ptr noundef nonnull dereferenceable(1) %filename) #21
  %call1.i23 = invoke noundef nonnull align 8 dereferenceable(8) ptr @_ZSt16__ostream_insertIcSt11char_traitsIcEERSt13basic_ostreamIT_T0_ES6_PKS3_l(ptr noundef nonnull align 8 dereferenceable(8) @_ZSt4cerr, ptr noundef nonnull %filename, i64 noundef %call.i.i22)
          to label %invoke.cont8 unwind label %lpad

invoke.cont8:                                     ; preds = %if.else.i, %if.then.i
  %call1.i28 = invoke noundef nonnull align 8 dereferenceable(8) ptr @_ZSt16__ostream_insertIcSt11char_traitsIcEERSt13basic_ostreamIT_T0_ES6_PKS3_l(ptr noundef nonnull align 8 dereferenceable(8) @_ZSt4cerr, ptr noundef nonnull @.str.72, i64 noundef 1)
          to label %invoke.cont10 unwind label %lpad

invoke.cont10:                                    ; preds = %invoke.cont8
  %call13 = invoke noundef nonnull align 8 dereferenceable(8) ptr @_ZNSolsEi(ptr noundef nonnull align 8 dereferenceable(8) @_ZSt4cerr, i32 noundef %line_num)
          to label %invoke.cont12 unwind label %lpad

invoke.cont12:                                    ; preds = %invoke.cont10
  call void @_ZN7testing8internal8GTestLogD1Ev(ptr noundef nonnull align 4 dereferenceable(4) %ref.tmp) #21
  call void @llvm.lifetime.end.p0(i64 4, ptr nonnull %ref.tmp) #21
  br label %if.end

lpad:                                             ; preds = %invoke.cont10, %invoke.cont8, %if.else.i, %if.then.i, %invoke.cont, %if.else
  %1 = landingpad { ptr, i32 }
          cleanup
  call void @_ZN7testing8internal8GTestLogD1Ev(ptr noundef nonnull align 4 dereferenceable(4) %ref.tmp) #21
  call void @llvm.lifetime.end.p0(i64 4, ptr nonnull %ref.tmp) #21
  resume { ptr, i32 } %1

if.end:                                           ; preds = %invoke.cont12, %entry
  ret ptr null
}

; Function Attrs: nobuiltin allocsize(0)
declare noundef nonnull ptr @_Znwm(i64 noundef) local_unnamed_addr #5

; Function Attrs: nobuiltin nounwind
declare void @_ZdlPv(ptr noundef) local_unnamed_addr #6

; Function Attrs: mustprogress nocallback nofree nosync nounwind willreturn memory(argmem: readwrite)
declare void @llvm.lifetime.end.p0(i64 immarg, ptr nocapture) #3

; Function Attrs: mustprogress nocallback nofree nosync nounwind willreturn memory(argmem: readwrite)
declare ptr @llvm.invariant.start.p0(i64 immarg, ptr nocapture) #3

; Function Attrs: mustprogress uwtable
define hidden void @_ZN29MetaProp_Functionalities_Test8TestBodyEv(ptr nocapture nonnull readnone align 8 %this) unnamed_addr #4 align 2 personality ptr @__gxx_personality_v0 {
entry:
  %ref.tmp.i = alloca %"struct.entt::internal::meta_type_node", align 8
  %prop = alloca %"struct.entt::meta_prop", align 8
  %ref.tmp = alloca %"class.entt::meta_type", align 8
  %gtest_ar_ = alloca %"class.testing::AssertionResult", align 8
  %ref.tmp7 = alloca %"class.testing::Message", align 8
  %ref.tmp10 = alloca %"class.testing::internal::AssertHelper", align 8
  %ref.tmp11 = alloca %"class.std::__cxx11::basic_string", align 8
  %gtest_ar = alloca %"class.testing::AssertionResult", align 8
  %ref.tmp31 = alloca %"class.testing::Message", align 8
  %ref.tmp34 = alloca %"class.testing::internal::AssertHelper", align 8
  %gtest_ar52 = alloca %"class.testing::AssertionResult", align 8
  %ref.tmp53 = alloca %"struct.entt::meta_prop", align 8
  %ref.tmp59 = alloca %"class.testing::Message", align 8
  %ref.tmp62 = alloca %"class.testing::internal::AssertHelper", align 8
  %value = alloca %"class.entt::meta_any", align 8
  %cvalue = alloca %"class.entt::meta_any", align 8
  %gtest_ar149 = alloca %"class.testing::AssertionResult", align 8
  %ref.tmp150 = alloca ptr, align 8
  %ref.tmp154 = alloca ptr, align 8
  %ref.tmp164 = alloca %"class.testing::Message", align 8
  %ref.tmp167 = alloca %"class.testing::internal::AssertHelper", align 8
  %gtest_ar185 = alloca %"class.testing::AssertionResult", align 8
  %ref.tmp186 = alloca ptr, align 8
  %ref.tmp190 = alloca ptr, align 8
  %ref.tmp200 = alloca %"class.testing::Message", align 8
  %ref.tmp203 = alloca %"class.testing::internal::AssertHelper", align 8
  %gtest_ar221 = alloca %"class.testing::AssertionResult", align 8
  %ref.tmp222 = alloca ptr, align 8
  %ref.tmp226 = alloca ptr, align 8
  %ref.tmp236 = alloca %"class.testing::Message", align 8
  %ref.tmp239 = alloca %"class.testing::internal::AssertHelper", align 8
  %gtest_ar257 = alloca %"class.testing::AssertionResult", align 8
  %ref.tmp258 = alloca ptr, align 8
  %ref.tmp262 = alloca ptr, align 8
  %ref.tmp272 = alloca %"class.testing::Message", align 8
  %ref.tmp275 = alloca %"class.testing::internal::AssertHelper", align 8
  %gtest_ar293 = alloca %"class.testing::AssertionResult", align 8
  %ref.tmp294 = alloca i32, align 4
  %ref.tmp303 = alloca %"class.testing::Message", align 8
  %ref.tmp306 = alloca %"class.testing::internal::AssertHelper", align 8
  %gtest_ar324 = alloca %"class.testing::AssertionResult", align 8
  %ref.tmp325 = alloca i32, align 4
  %ref.tmp334 = alloca %"class.testing::Message", align 8
  %ref.tmp337 = alloca %"class.testing::internal::AssertHelper", align 8
  call void @llvm.lifetime.start.p0(i64 16, ptr nonnull %prop) #21
  call void @llvm.lifetime.start.p0(i64 120, ptr nonnull %ref.tmp) #21
  %0 = load ptr, ptr @_ZN4entt7locatorINS_8meta_ctxEE7serviceE, align 8, !tbaa !17, !noalias !20
  %cmp.i.not.i.i = icmp eq ptr %0, null
  br i1 %cmp.i.not.i.i, label %cond.false.i.i, label %_ZN4entt7resolveI8base_1_tEENS_9meta_typeEv.exit

cond.false.i.i:                                   ; preds = %entry
  %call2.i1.i = invoke noundef nonnull align 8 dereferenceable(56) ptr @_ZN4entt7locatorINS_8meta_ctxEE7emplaceIS1_JEEERS1_DpOT0_()
          to label %_ZN4entt7resolveI8base_1_tEENS_9meta_typeEv.exit unwind label %terminate.lpad.i, !noalias !20

terminate.lpad.i:                                 ; preds = %cond.false.i.i
  %1 = landingpad { ptr, i32 }
          catch ptr null
  %2 = extractvalue { ptr, i32 } %1, 0
  tail call void @__clang_call_terminate(ptr %2) #22
  unreachable

_ZN4entt7resolveI8base_1_tEENS_9meta_typeEv.exit: ; preds = %cond.false.i.i, %entry
  %cond-lvalue.i.i = phi ptr [ %0, %entry ], [ %call2.i1.i, %cond.false.i.i ]
  tail call void @llvm.experimental.noalias.scope.decl(metadata !23)
  call void @llvm.lifetime.start.p0(i64 112, ptr nonnull %ref.tmp.i) #21, !noalias !23
  call void @_ZN4entt8internal7resolveI8base_1_tEENS0_14meta_type_nodeERKNS0_12meta_contextE(ptr nonnull sret(%"struct.entt::internal::meta_type_node") align 8 %ref.tmp.i, ptr noundef nonnull align 8 dereferenceable(56) %cond-lvalue.i.i) #21, !noalias !23
  call void @llvm.memcpy.p0.p0.i64(ptr noundef nonnull align 8 dereferenceable(96) %ref.tmp, ptr noundef nonnull align 8 dereferenceable(96) %ref.tmp.i, i64 96, i1 false)
  %details.i.i.i = getelementptr inbounds i8, ptr %ref.tmp, i64 96
  %details3.i.i.i = getelementptr inbounds i8, ptr %ref.tmp.i, i64 96
  %3 = load ptr, ptr %details3.i.i.i, align 8, !tbaa !26, !noalias !23
  store ptr %3, ptr %details.i.i.i, align 8, !tbaa !26, !alias.scope !23
  %_M_refcount.i.i.i.i.i = getelementptr inbounds i8, ptr %ref.tmp, i64 104
  %_M_refcount3.i.i.i.i.i = getelementptr inbounds i8, ptr %ref.tmp.i, i64 104
  %4 = load ptr, ptr %_M_refcount3.i.i.i.i.i, align 8, !tbaa !28, !noalias !23
  store ptr %4, ptr %_M_refcount.i.i.i.i.i, align 8, !tbaa !28, !alias.scope !23
  %cmp.not.i.i.i.i.i.i = icmp eq ptr %4, null
  br i1 %cmp.not.i.i.i.i.i.i, label %_ZN4entt9meta_typeC2ERKNS_8meta_ctxERKNS_8internal14meta_type_nodeE.exit.thread.i, label %if.then.i.i.i.i.i.i854

_ZN4entt9meta_typeC2ERKNS_8meta_ctxERKNS_8internal14meta_type_nodeE.exit.thread.i: ; preds = %_ZN4entt7resolveI8base_1_tEENS_9meta_typeEv.exit
  %ctx.i3.i = getelementptr inbounds i8, ptr %ref.tmp, i64 112
  store ptr %cond-lvalue.i.i, ptr %ctx.i3.i, align 8, !tbaa !29, !alias.scope !23
  br label %_ZN4entt7resolveI8base_1_tEENS_9meta_typeERKNS_8meta_ctxE.exit

if.then.i.i.i.i.i.i854:                           ; preds = %_ZN4entt7resolveI8base_1_tEENS_9meta_typeEv.exit
  %_M_use_count.i.i.i.i.i.i.i = getelementptr inbounds i8, ptr %4, i64 8
  %5 = load i8, ptr @__libc_single_threaded, align 1, !tbaa !36, !noalias !23
  %tobool.i.not.i.i.i.i.i.i.i = icmp eq i8 %5, 0
  br i1 %tobool.i.not.i.i.i.i.i.i.i, label %_ZN4entt9meta_typeC2ERKNS_8meta_ctxERKNS_8internal14meta_type_nodeE.exit.i, label %_ZN4entt9meta_typeC2ERKNS_8meta_ctxERKNS_8internal14meta_type_nodeE.exit.thread6.i

_ZN4entt9meta_typeC2ERKNS_8meta_ctxERKNS_8internal14meta_type_nodeE.exit.thread6.i: ; preds = %if.then.i.i.i.i.i.i854
  %6 = load i32, ptr %_M_use_count.i.i.i.i.i.i.i, align 4, !tbaa !37, !noalias !23
  %add.i.i.i.i.i.i.i.i = add nsw i32 %6, 1
  store i32 %add.i.i.i.i.i.i.i.i, ptr %_M_use_count.i.i.i.i.i.i.i, align 4, !tbaa !37, !noalias !23
  %ctx.i8.i = getelementptr inbounds i8, ptr %ref.tmp, i64 112
  store ptr %cond-lvalue.i.i, ptr %ctx.i8.i, align 8, !tbaa !29, !alias.scope !23
  br label %if.then.i.i.i.i855

_ZN4entt9meta_typeC2ERKNS_8meta_ctxERKNS_8internal14meta_type_nodeE.exit.i: ; preds = %if.then.i.i.i.i.i.i854
  %7 = atomicrmw volatile add ptr %_M_use_count.i.i.i.i.i.i.i, i32 1 acq_rel, align 4, !noalias !23
  %.pr.pre.i = load ptr, ptr %_M_refcount3.i.i.i.i.i, align 8, !tbaa !28, !noalias !23
  %ctx.i.i872 = getelementptr inbounds i8, ptr %ref.tmp, i64 112
  store ptr %cond-lvalue.i.i, ptr %ctx.i.i872, align 8, !tbaa !29, !alias.scope !23
  %cmp.not.i.i.i.i873 = icmp eq ptr %.pr.pre.i, null
  br i1 %cmp.not.i.i.i.i873, label %_ZN4entt7resolveI8base_1_tEENS_9meta_typeERKNS_8meta_ctxE.exit, label %if.then.i.i.i.i855

if.then.i.i.i.i855:                               ; preds = %_ZN4entt9meta_typeC2ERKNS_8meta_ctxERKNS_8internal14meta_type_nodeE.exit.i, %_ZN4entt9meta_typeC2ERKNS_8meta_ctxERKNS_8internal14meta_type_nodeE.exit.thread6.i
  %.pr10.i = phi ptr [ %4, %_ZN4entt9meta_typeC2ERKNS_8meta_ctxERKNS_8internal14meta_type_nodeE.exit.thread6.i ], [ %.pr.pre.i, %_ZN4entt9meta_typeC2ERKNS_8meta_ctxERKNS_8internal14meta_type_nodeE.exit.i ]
  %_M_use_count.i.i.i.i.i856 = getelementptr inbounds i8, ptr %.pr10.i, i64 8
  %8 = load atomic i64, ptr %_M_use_count.i.i.i.i.i856 acquire, align 8, !noalias !23
  %cmp.i.i.i.i.i857 = icmp eq i64 %8, 4294967297
  %9 = trunc i64 %8 to i32
  br i1 %cmp.i.i.i.i.i857, label %if.then.i.i.i.i.i866, label %if.end.i.i.i.i.i858

if.then.i.i.i.i.i866:                             ; preds = %if.then.i.i.i.i855
  store i32 0, ptr %_M_use_count.i.i.i.i.i856, align 8, !tbaa !38, !noalias !23
  %_M_weak_count.i.i.i.i.i867 = getelementptr inbounds i8, ptr %.pr10.i, i64 12
  store i32 0, ptr %_M_weak_count.i.i.i.i.i867, align 4, !tbaa !40, !noalias !23
  %vtable.i.i.i.i.i868 = load ptr, ptr %.pr10.i, align 8, !tbaa !4, !noalias !23
  %vfn.i.i.i.i.i869 = getelementptr inbounds i8, ptr %vtable.i.i.i.i.i868, i64 16
  %10 = load ptr, ptr %vfn.i.i.i.i.i869, align 8, !noalias !23
  call void %10(ptr noundef nonnull align 8 dereferenceable(16) %.pr10.i) #21, !noalias !23
  %vtable3.i.i.i.i.i870 = load ptr, ptr %.pr10.i, align 8, !tbaa !4, !noalias !23
  %vfn4.i.i.i.i.i871 = getelementptr inbounds i8, ptr %vtable3.i.i.i.i.i870, i64 24
  %11 = load ptr, ptr %vfn4.i.i.i.i.i871, align 8, !noalias !23
  call void %11(ptr noundef nonnull align 8 dereferenceable(16) %.pr10.i) #21, !noalias !23
  br label %_ZN4entt7resolveI8base_1_tEENS_9meta_typeERKNS_8meta_ctxE.exit

if.end.i.i.i.i.i858:                              ; preds = %if.then.i.i.i.i855
  %12 = load i8, ptr @__libc_single_threaded, align 1, !tbaa !36, !noalias !23
  %tobool.i.i.not.i.i.i.i.i859 = icmp eq i8 %12, 0
  br i1 %tobool.i.i.not.i.i.i.i.i859, label %if.else.i.i.i.i.i.i865, label %if.then.i.i.i.i.i2.i

if.then.i.i.i.i.i2.i:                             ; preds = %if.end.i.i.i.i.i858
  %add.i.i.i.i.i.i860 = add nsw i32 %9, -1
  store i32 %add.i.i.i.i.i.i860, ptr %_M_use_count.i.i.i.i.i856, align 4, !tbaa !37, !noalias !23
  br label %invoke.cont.i.i.i.i.i861

if.else.i.i.i.i.i.i865:                           ; preds = %if.end.i.i.i.i.i858
  %13 = atomicrmw volatile add ptr %_M_use_count.i.i.i.i.i856, i32 -1 acq_rel, align 4, !noalias !23
  br label %invoke.cont.i.i.i.i.i861

invoke.cont.i.i.i.i.i861:                         ; preds = %if.else.i.i.i.i.i.i865, %if.then.i.i.i.i.i2.i
  %retval.0.i.i.i.i.i.i862 = phi i32 [ %9, %if.then.i.i.i.i.i2.i ], [ %13, %if.else.i.i.i.i.i.i865 ]
  %cmp6.i.i.i.i.i863 = icmp eq i32 %retval.0.i.i.i.i.i.i862, 1
  br i1 %cmp6.i.i.i.i.i863, label %if.then7.i.i.i.i.i864, label %_ZN4entt7resolveI8base_1_tEENS_9meta_typeERKNS_8meta_ctxE.exit, !prof !41

if.then7.i.i.i.i.i864:                            ; preds = %invoke.cont.i.i.i.i.i861
  call void @_ZNSt16_Sp_counted_baseILN9__gnu_cxx12_Lock_policyE2EE24_M_release_last_use_coldEv(ptr noundef nonnull align 8 dereferenceable(16) %.pr10.i) #21, !noalias !23
  br label %_ZN4entt7resolveI8base_1_tEENS_9meta_typeERKNS_8meta_ctxE.exit

_ZN4entt7resolveI8base_1_tEENS_9meta_typeERKNS_8meta_ctxE.exit: ; preds = %if.then7.i.i.i.i.i864, %invoke.cont.i.i.i.i.i861, %if.then.i.i.i.i.i866, %_ZN4entt9meta_typeC2ERKNS_8meta_ctxERKNS_8internal14meta_type_nodeE.exit.i, %_ZN4entt9meta_typeC2ERKNS_8meta_ctxERKNS_8internal14meta_type_nodeE.exit.thread.i
  call void @llvm.lifetime.end.p0(i64 112, ptr nonnull %ref.tmp.i) #21, !noalias !23
  %ctx.i = getelementptr inbounds i8, ptr %ref.tmp, i64 112
  %14 = load ptr, ptr %ctx.i, align 8, !tbaa !29
  %call2.i436 = invoke noundef ptr @_ZN4entt8internal8look_forITnDaXadL_ZNS0_20meta_type_descriptor4propEEEEEPDaRKNS0_12meta_contextERKNS0_14meta_type_nodeEj(ptr noundef nonnull align 8 dereferenceable(56) %14, ptr noundef nonnull align 8 dereferenceable(112) %ref.tmp, i32 noundef -1779859874)
          to label %invoke.cont unwind label %lpad

invoke.cont:                                      ; preds = %_ZN4entt7resolveI8base_1_tEENS_9meta_typeERKNS_8meta_ctxE.exit
  %tobool.not.i = icmp eq ptr %call2.i436, null
  %15 = load ptr, ptr %ctx.i, align 8
  %spec.select.i = select i1 %tobool.not.i, ptr null, ptr %15
  store ptr %call2.i436, ptr %prop, align 8
  %16 = getelementptr inbounds i8, ptr %prop, i64 8
  store ptr %spec.select.i, ptr %16, align 8
  %17 = load ptr, ptr %_M_refcount.i.i.i.i.i, align 8, !tbaa !28
  %cmp.not.i.i.i.i = icmp eq ptr %17, null
  br i1 %cmp.not.i.i.i.i, label %_ZN4entt9meta_typeD2Ev.exit, label %if.then.i.i.i.i

if.then.i.i.i.i:                                  ; preds = %invoke.cont
  %_M_use_count.i.i.i.i.i = getelementptr inbounds i8, ptr %17, i64 8
  %18 = load atomic i64, ptr %_M_use_count.i.i.i.i.i acquire, align 8
  %cmp.i.i.i.i.i = icmp eq i64 %18, 4294967297
  %19 = trunc i64 %18 to i32
  br i1 %cmp.i.i.i.i.i, label %if.then.i.i.i.i.i, label %if.end.i.i.i.i.i

if.then.i.i.i.i.i:                                ; preds = %if.then.i.i.i.i
  store i32 0, ptr %_M_use_count.i.i.i.i.i, align 8, !tbaa !38
  %_M_weak_count.i.i.i.i.i = getelementptr inbounds i8, ptr %17, i64 12
  store i32 0, ptr %_M_weak_count.i.i.i.i.i, align 4, !tbaa !40
  %vtable.i.i.i.i.i = load ptr, ptr %17, align 8, !tbaa !4
  %vfn.i.i.i.i.i = getelementptr inbounds i8, ptr %vtable.i.i.i.i.i, i64 16
  %20 = load ptr, ptr %vfn.i.i.i.i.i, align 8
  call void %20(ptr noundef nonnull align 8 dereferenceable(16) %17) #21
  %vtable3.i.i.i.i.i = load ptr, ptr %17, align 8, !tbaa !4
  %vfn4.i.i.i.i.i = getelementptr inbounds i8, ptr %vtable3.i.i.i.i.i, i64 24
  %21 = load ptr, ptr %vfn4.i.i.i.i.i, align 8
  call void %21(ptr noundef nonnull align 8 dereferenceable(16) %17) #21
  br label %_ZN4entt9meta_typeD2Ev.exitthread-pre-split

if.end.i.i.i.i.i:                                 ; preds = %if.then.i.i.i.i
  %22 = load i8, ptr @__libc_single_threaded, align 1, !tbaa !36
  %tobool.i.i.not.i.i.i.i.i = icmp eq i8 %22, 0
  br i1 %tobool.i.i.not.i.i.i.i.i, label %if.else.i.i.i.i.i.i, label %if.then.i.i.i.i.i.i

if.then.i.i.i.i.i.i:                              ; preds = %if.end.i.i.i.i.i
  %add.i.i.i.i.i.i = add nsw i32 %19, -1
  store i32 %add.i.i.i.i.i.i, ptr %_M_use_count.i.i.i.i.i, align 4, !tbaa !37
  br label %invoke.cont.i.i.i.i.i

if.else.i.i.i.i.i.i:                              ; preds = %if.end.i.i.i.i.i
  %23 = atomicrmw volatile add ptr %_M_use_count.i.i.i.i.i, i32 -1 acq_rel, align 4
  br label %invoke.cont.i.i.i.i.i

invoke.cont.i.i.i.i.i:                            ; preds = %if.else.i.i.i.i.i.i, %if.then.i.i.i.i.i.i
  %retval.0.i.i.i.i.i.i = phi i32 [ %19, %if.then.i.i.i.i.i.i ], [ %23, %if.else.i.i.i.i.i.i ]
  %cmp6.i.i.i.i.i = icmp eq i32 %retval.0.i.i.i.i.i.i, 1
  br i1 %cmp6.i.i.i.i.i, label %if.then7.i.i.i.i.i, label %_ZN4entt9meta_typeD2Ev.exitthread-pre-split, !prof !41

if.then7.i.i.i.i.i:                               ; preds = %invoke.cont.i.i.i.i.i
  call void @_ZNSt16_Sp_counted_baseILN9__gnu_cxx12_Lock_policyE2EE24_M_release_last_use_coldEv(ptr noundef nonnull align 8 dereferenceable(16) %17) #21
  br label %_ZN4entt9meta_typeD2Ev.exitthread-pre-split

_ZN4entt9meta_typeD2Ev.exitthread-pre-split:      ; preds = %if.then7.i.i.i.i.i, %invoke.cont.i.i.i.i.i, %if.then.i.i.i.i.i
  %.pr = load ptr, ptr %prop, align 8, !tbaa !42
  br label %_ZN4entt9meta_typeD2Ev.exit

_ZN4entt9meta_typeD2Ev.exit:                      ; preds = %_ZN4entt9meta_typeD2Ev.exitthread-pre-split, %invoke.cont
  %24 = phi ptr [ %.pr, %_ZN4entt9meta_typeD2Ev.exitthread-pre-split ], [ %call2.i436, %invoke.cont ]
  call void @llvm.lifetime.end.p0(i64 120, ptr nonnull %ref.tmp) #21
  call void @llvm.lifetime.start.p0(i64 16, ptr nonnull %gtest_ar_) #21
  %cmp.i.i = icmp ne ptr %24, null
  %frombool.i = zext i1 %cmp.i.i to i8
  store i8 %frombool.i, ptr %gtest_ar_, align 8, !tbaa !44
  %message_.i = getelementptr inbounds i8, ptr %gtest_ar_, i64 8
  store ptr null, ptr %message_.i, align 8, !tbaa !53
  br i1 %cmp.i.i, label %_ZN7testing8internal8EqHelper7CompareIN4entt9meta_propES4_TnPNSt9enable_ifIXoontsr3std11is_integralIT_EE5valuentsr3std10is_pointerIT0_EE5valueEvE4typeELPv0EEENS_15AssertionResultEPKcSE_RKS6_RKS7_.exit, label %if.else

lpad:                                             ; preds = %_ZN4entt7resolveI8base_1_tEENS_9meta_typeERKNS_8meta_ctxE.exit
  %25 = landingpad { ptr, i32 }
          cleanup
  call void @_ZN4entt9meta_typeD2Ev(ptr noundef nonnull align 8 dereferenceable(120) %ref.tmp) #21
  call void @llvm.lifetime.end.p0(i64 120, ptr nonnull %ref.tmp) #21
  br label %ehcleanup366

if.else:                                          ; preds = %_ZN4entt9meta_typeD2Ev.exit
  call void @llvm.lifetime.start.p0(i64 8, ptr nonnull %ref.tmp7) #21
  invoke void @_ZN7testing7MessageC1Ev(ptr noundef nonnull align 8 dereferenceable(8) %ref.tmp7)
          to label %invoke.cont9 unwind label %lpad8

invoke.cont9:                                     ; preds = %if.else
  call void @llvm.lifetime.start.p0(i64 8, ptr nonnull %ref.tmp10) #21
  call void @llvm.lifetime.start.p0(i64 32, ptr nonnull %ref.tmp11) #21
  invoke void @_ZN7testing8internal30GetBoolAssertionFailureMessageB5cxx11ERKNS_15AssertionResultEPKcS5_S5_(ptr nonnull sret(%"class.std::__cxx11::basic_string") align 8 %ref.tmp11, ptr noundef nonnull align 8 dereferenceable(16) %gtest_ar_, ptr noundef nonnull @.str.5, ptr noundef nonnull @.str.6, ptr noundef nonnull @.str.7)
          to label %invoke.cont13 unwind label %lpad12

invoke.cont13:                                    ; preds = %invoke.cont9
  %26 = load ptr, ptr %ref.tmp11, align 8, !tbaa !54
  invoke void @_ZN7testing8internal12AssertHelperC1ENS_14TestPartResult4TypeEPKciS5_(ptr noundef nonnull align 8 dereferenceable(8) %ref.tmp10, i32 noundef 2, ptr noundef nonnull @.str.3, i32 noundef 51, ptr noundef %26)
          to label %invoke.cont16 unwind label %lpad15

invoke.cont16:                                    ; preds = %invoke.cont13
  invoke void @_ZNK7testing8internal12AssertHelperaSERKNS_7MessageE(ptr noundef nonnull align 8 dereferenceable(8) %ref.tmp10, ptr noundef nonnull align 8 dereferenceable(8) %ref.tmp7)
          to label %invoke.cont18 unwind label %lpad17

invoke.cont18:                                    ; preds = %invoke.cont16
  call void @_ZN7testing8internal12AssertHelperD1Ev(ptr noundef nonnull align 8 dereferenceable(8) %ref.tmp10) #21
  %27 = load ptr, ptr %ref.tmp11, align 8, !tbaa !54
  %28 = getelementptr inbounds i8, ptr %ref.tmp11, i64 16
  %cmp.i.i.i = icmp eq ptr %27, %28
  br i1 %cmp.i.i.i, label %_ZNKSt7__cxx1112basic_stringIcSt11char_traitsIcESaIcEE11_M_is_localEv.exit.thread.i.i, label %if.then.i.i

_ZNKSt7__cxx1112basic_stringIcSt11char_traitsIcESaIcEE11_M_is_localEv.exit.thread.i.i: ; preds = %invoke.cont18
  %_M_string_length.i.i.i = getelementptr inbounds i8, ptr %ref.tmp11, i64 8
  %29 = load i64, ptr %_M_string_length.i.i.i, align 8, !tbaa !57
  %cmp3.i.i.i = icmp ult i64 %29, 16
  call void @llvm.assume(i1 %cmp3.i.i.i)
  br label %_ZNSt7__cxx1112basic_stringIcSt11char_traitsIcESaIcEED2Ev.exit

if.then.i.i:                                      ; preds = %invoke.cont18
  call void @_ZdlPv(ptr noundef %27) #23
  br label %_ZNSt7__cxx1112basic_stringIcSt11char_traitsIcESaIcEED2Ev.exit

_ZNSt7__cxx1112basic_stringIcSt11char_traitsIcESaIcEED2Ev.exit: ; preds = %if.then.i.i, %_ZNKSt7__cxx1112basic_stringIcSt11char_traitsIcESaIcEE11_M_is_localEv.exit.thread.i.i
  call void @llvm.lifetime.end.p0(i64 32, ptr nonnull %ref.tmp11) #21
  call void @llvm.lifetime.end.p0(i64 8, ptr nonnull %ref.tmp10) #21
  %30 = load ptr, ptr %ref.tmp7, align 8, !tbaa !58
  %cmp.not.i.i = icmp eq ptr %30, null
  br i1 %cmp.not.i.i, label %_ZN7testing7MessageD2Ev.exit, label %_ZNKSt14default_deleteINSt7__cxx1118basic_stringstreamIcSt11char_traitsIcESaIcEEEEclEPS5_.exit.i.i

_ZNKSt14default_deleteINSt7__cxx1118basic_stringstreamIcSt11char_traitsIcESaIcEEEEclEPS5_.exit.i.i: ; preds = %_ZNSt7__cxx1112basic_stringIcSt11char_traitsIcESaIcEED2Ev.exit
  %vtable.i.i.i = load ptr, ptr %30, align 8, !tbaa !4
  %vfn.i.i.i = getelementptr inbounds i8, ptr %vtable.i.i.i, i64 8
  %31 = load ptr, ptr %vfn.i.i.i, align 8
  call void %31(ptr noundef nonnull align 8 dereferenceable(128) %30) #21
  br label %_ZN7testing7MessageD2Ev.exit

_ZN7testing7MessageD2Ev.exit:                     ; preds = %_ZNKSt14default_deleteINSt7__cxx1118basic_stringstreamIcSt11char_traitsIcESaIcEEEEclEPS5_.exit.i.i, %_ZNSt7__cxx1112basic_stringIcSt11char_traitsIcESaIcEED2Ev.exit
  call void @llvm.lifetime.end.p0(i64 8, ptr nonnull %ref.tmp7) #21
  %32 = load ptr, ptr %message_.i, align 8, !tbaa !58
  %cmp.not.i.i438 = icmp eq ptr %32, null
  br i1 %cmp.not.i.i438, label %_ZN7testing15AssertionResultD2Ev.exit, label %delete.notnull.i.i.i

delete.notnull.i.i.i:                             ; preds = %_ZN7testing7MessageD2Ev.exit
  %33 = load ptr, ptr %32, align 8, !tbaa !54
  %34 = getelementptr inbounds i8, ptr %32, i64 16
  %cmp.i.i.i.i.i.i = icmp eq ptr %33, %34
  br i1 %cmp.i.i.i.i.i.i, label %_ZNKSt7__cxx1112basic_stringIcSt11char_traitsIcESaIcEE11_M_is_localEv.exit.thread.i.i.i.i.i, label %if.then.i.i.i.i.i439

_ZNKSt7__cxx1112basic_stringIcSt11char_traitsIcESaIcEE11_M_is_localEv.exit.thread.i.i.i.i.i: ; preds = %delete.notnull.i.i.i
  %_M_string_length.i.i.i.i.i.i = getelementptr inbounds i8, ptr %32, i64 8
  %35 = load i64, ptr %_M_string_length.i.i.i.i.i.i, align 8, !tbaa !57
  %cmp3.i.i.i.i.i.i = icmp ult i64 %35, 16
  call void @llvm.assume(i1 %cmp3.i.i.i.i.i.i)
  br label %_ZNKSt14default_deleteINSt7__cxx1112basic_stringIcSt11char_traitsIcESaIcEEEEclEPS5_.exit.i.i

if.then.i.i.i.i.i439:                             ; preds = %delete.notnull.i.i.i
  call void @_ZdlPv(ptr noundef %33) #23
  br label %_ZNKSt14default_deleteINSt7__cxx1112basic_stringIcSt11char_traitsIcESaIcEEEEclEPS5_.exit.i.i

_ZNKSt14default_deleteINSt7__cxx1112basic_stringIcSt11char_traitsIcESaIcEEEEclEPS5_.exit.i.i: ; preds = %if.then.i.i.i.i.i439, %_ZNKSt7__cxx1112basic_stringIcSt11char_traitsIcESaIcEE11_M_is_localEv.exit.thread.i.i.i.i.i
  call void @_ZdlPv(ptr noundef nonnull %32) #23
  br label %_ZN7testing15AssertionResultD2Ev.exit

_ZN7testing15AssertionResultD2Ev.exit:            ; preds = %_ZNKSt14default_deleteINSt7__cxx1112basic_stringIcSt11char_traitsIcESaIcEEEEclEPS5_.exit.i.i, %_ZN7testing7MessageD2Ev.exit
  call void @llvm.lifetime.end.p0(i64 16, ptr nonnull %gtest_ar_) #21
  br label %cleanup363

lpad8:                                            ; preds = %if.else
  %36 = landingpad { ptr, i32 }
          cleanup
  br label %ehcleanup22

lpad12:                                           ; preds = %invoke.cont9
  %37 = landingpad { ptr, i32 }
          cleanup
  br label %ehcleanup19

lpad15:                                           ; preds = %invoke.cont13
  %38 = landingpad { ptr, i32 }
          cleanup
  br label %ehcleanup

lpad17:                                           ; preds = %invoke.cont16
  %39 = landingpad { ptr, i32 }
          cleanup
  call void @_ZN7testing8internal12AssertHelperD1Ev(ptr noundef nonnull align 8 dereferenceable(8) %ref.tmp10) #21
  br label %ehcleanup

ehcleanup:                                        ; preds = %lpad17, %lpad15
  %.pn = phi { ptr, i32 } [ %39, %lpad17 ], [ %38, %lpad15 ]
  %40 = load ptr, ptr %ref.tmp11, align 8, !tbaa !54
  %41 = getelementptr inbounds i8, ptr %ref.tmp11, i64 16
  %cmp.i.i.i440 = icmp eq ptr %40, %41
  br i1 %cmp.i.i.i440, label %_ZNKSt7__cxx1112basic_stringIcSt11char_traitsIcESaIcEE11_M_is_localEv.exit.thread.i.i442, label %if.then.i.i441

_ZNKSt7__cxx1112basic_stringIcSt11char_traitsIcESaIcEE11_M_is_localEv.exit.thread.i.i442: ; preds = %ehcleanup
  %_M_string_length.i.i.i443 = getelementptr inbounds i8, ptr %ref.tmp11, i64 8
  %42 = load i64, ptr %_M_string_length.i.i.i443, align 8, !tbaa !57
  %cmp3.i.i.i444 = icmp ult i64 %42, 16
  call void @llvm.assume(i1 %cmp3.i.i.i444)
  br label %ehcleanup19

if.then.i.i441:                                   ; preds = %ehcleanup
  call void @_ZdlPv(ptr noundef %40) #23
  br label %ehcleanup19

ehcleanup19:                                      ; preds = %if.then.i.i441, %_ZNKSt7__cxx1112basic_stringIcSt11char_traitsIcESaIcEE11_M_is_localEv.exit.thread.i.i442, %lpad12
  %.pn.pn = phi { ptr, i32 } [ %37, %lpad12 ], [ %.pn, %_ZNKSt7__cxx1112basic_stringIcSt11char_traitsIcESaIcEE11_M_is_localEv.exit.thread.i.i442 ], [ %.pn, %if.then.i.i441 ]
  call void @llvm.lifetime.end.p0(i64 32, ptr nonnull %ref.tmp11) #21
  call void @llvm.lifetime.end.p0(i64 8, ptr nonnull %ref.tmp10) #21
  %43 = load ptr, ptr %ref.tmp7, align 8, !tbaa !58
  %cmp.not.i.i446 = icmp eq ptr %43, null
  br i1 %cmp.not.i.i446, label %ehcleanup22, label %_ZNKSt14default_deleteINSt7__cxx1118basic_stringstreamIcSt11char_traitsIcESaIcEEEEclEPS5_.exit.i.i447

_ZNKSt14default_deleteINSt7__cxx1118basic_stringstreamIcSt11char_traitsIcESaIcEEEEclEPS5_.exit.i.i447: ; preds = %ehcleanup19
  %vtable.i.i.i448 = load ptr, ptr %43, align 8, !tbaa !4
  %vfn.i.i.i449 = getelementptr inbounds i8, ptr %vtable.i.i.i448, i64 8
  %44 = load ptr, ptr %vfn.i.i.i449, align 8
  call void %44(ptr noundef nonnull align 8 dereferenceable(128) %43) #21
  br label %ehcleanup22

ehcleanup22:                                      ; preds = %_ZNKSt14default_deleteINSt7__cxx1118basic_stringstreamIcSt11char_traitsIcESaIcEEEEclEPS5_.exit.i.i447, %ehcleanup19, %lpad8
  %.pn.pn.pn = phi { ptr, i32 } [ %36, %lpad8 ], [ %.pn.pn, %ehcleanup19 ], [ %.pn.pn, %_ZNKSt14default_deleteINSt7__cxx1118basic_stringstreamIcSt11char_traitsIcESaIcEEEEclEPS5_.exit.i.i447 ]
  call void @llvm.lifetime.end.p0(i64 8, ptr nonnull %ref.tmp7) #21
  call void @_ZN7testing15AssertionResultD2Ev(ptr noundef nonnull align 8 dereferenceable(16) %gtest_ar_) #21
  call void @llvm.lifetime.end.p0(i64 16, ptr nonnull %gtest_ar_) #21
  br label %ehcleanup366

_ZN7testing8internal8EqHelper7CompareIN4entt9meta_propES4_TnPNSt9enable_ifIXoontsr3std11is_integralIT_EE5valuentsr3std10is_pointerIT0_EE5valueEvE4typeELPv0EEENS_15AssertionResultEPKcSE_RKS6_RKS7_.exit: ; preds = %_ZN4entt9meta_typeD2Ev.exit
  call void @llvm.lifetime.end.p0(i64 16, ptr nonnull %gtest_ar_) #21
  call void @llvm.lifetime.start.p0(i64 16, ptr nonnull %gtest_ar) #21
  call void @_ZN7testing16AssertionSuccessEv(ptr nonnull sret(%"class.testing::AssertionResult") align 8 %gtest_ar)
  %45 = load i8, ptr %gtest_ar, align 8, !tbaa !44, !range !59, !noundef !60
  %tobool.i463.not = icmp eq i8 %45, 0
  br i1 %tobool.i463.not, label %if.else30, label %cleanup.cont50.critedge

if.else30:                                        ; preds = %_ZN7testing8internal8EqHelper7CompareIN4entt9meta_propES4_TnPNSt9enable_ifIXoontsr3std11is_integralIT_EE5valuentsr3std10is_pointerIT0_EE5valueEvE4typeELPv0EEENS_15AssertionResultEPKcSE_RKS6_RKS7_.exit
  call void @llvm.lifetime.start.p0(i64 8, ptr nonnull %ref.tmp31) #21
  invoke void @_ZN7testing7MessageC1Ev(ptr noundef nonnull align 8 dereferenceable(8) %ref.tmp31)
          to label %invoke.cont33 unwind label %lpad32

invoke.cont33:                                    ; preds = %if.else30
  call void @llvm.lifetime.start.p0(i64 8, ptr nonnull %ref.tmp34) #21
  %message_.i.i = getelementptr inbounds i8, ptr %gtest_ar, i64 8
  %46 = load ptr, ptr %message_.i.i, align 8, !tbaa !58
  %cmp.not.i.i464 = icmp eq ptr %46, null
  br i1 %cmp.not.i.i464, label %invoke.cont36, label %cond.true.i.i

cond.true.i.i:                                    ; preds = %invoke.cont33
  %47 = load ptr, ptr %46, align 8, !tbaa !54
  br label %invoke.cont36

invoke.cont36:                                    ; preds = %cond.true.i.i, %invoke.cont33
  %cond.i.i = phi ptr [ %47, %cond.true.i.i ], [ @.str.52, %invoke.cont33 ]
  invoke void @_ZN7testing8internal12AssertHelperC1ENS_14TestPartResult4TypeEPKciS5_(ptr noundef nonnull align 8 dereferenceable(8) %ref.tmp34, i32 noundef 2, ptr noundef nonnull @.str.3, i32 noundef 53, ptr noundef %cond.i.i)
          to label %invoke.cont38 unwind label %lpad35

invoke.cont38:                                    ; preds = %invoke.cont36
  invoke void @_ZNK7testing8internal12AssertHelperaSERKNS_7MessageE(ptr noundef nonnull align 8 dereferenceable(8) %ref.tmp34, ptr noundef nonnull align 8 dereferenceable(8) %ref.tmp31)
          to label %invoke.cont40 unwind label %lpad39

invoke.cont40:                                    ; preds = %invoke.cont38
  call void @_ZN7testing8internal12AssertHelperD1Ev(ptr noundef nonnull align 8 dereferenceable(8) %ref.tmp34) #21
  call void @llvm.lifetime.end.p0(i64 8, ptr nonnull %ref.tmp34) #21
  %48 = load ptr, ptr %ref.tmp31, align 8, !tbaa !58
  %cmp.not.i.i465 = icmp eq ptr %48, null
  br i1 %cmp.not.i.i465, label %_ZN7testing7MessageD2Ev.exit469, label %_ZNKSt14default_deleteINSt7__cxx1118basic_stringstreamIcSt11char_traitsIcESaIcEEEEclEPS5_.exit.i.i466

_ZNKSt14default_deleteINSt7__cxx1118basic_stringstreamIcSt11char_traitsIcESaIcEEEEclEPS5_.exit.i.i466: ; preds = %invoke.cont40
  %vtable.i.i.i467 = load ptr, ptr %48, align 8, !tbaa !4
  %vfn.i.i.i468 = getelementptr inbounds i8, ptr %vtable.i.i.i467, i64 8
  %49 = load ptr, ptr %vfn.i.i.i468, align 8
  call void %49(ptr noundef nonnull align 8 dereferenceable(128) %48) #21
  br label %_ZN7testing7MessageD2Ev.exit469

_ZN7testing7MessageD2Ev.exit469:                  ; preds = %_ZNKSt14default_deleteINSt7__cxx1118basic_stringstreamIcSt11char_traitsIcESaIcEEEEclEPS5_.exit.i.i466, %invoke.cont40
  call void @llvm.lifetime.end.p0(i64 8, ptr nonnull %ref.tmp31) #21
  %50 = load ptr, ptr %message_.i.i, align 8, !tbaa !58
  %cmp.not.i.i471 = icmp eq ptr %50, null
  br i1 %cmp.not.i.i471, label %_ZN7testing15AssertionResultD2Ev.exit479, label %delete.notnull.i.i.i472

delete.notnull.i.i.i472:                          ; preds = %_ZN7testing7MessageD2Ev.exit469
  %51 = load ptr, ptr %50, align 8, !tbaa !54
  %52 = getelementptr inbounds i8, ptr %50, i64 16
  %cmp.i.i.i.i.i.i473 = icmp eq ptr %51, %52
  br i1 %cmp.i.i.i.i.i.i473, label %_ZNKSt7__cxx1112basic_stringIcSt11char_traitsIcESaIcEE11_M_is_localEv.exit.thread.i.i.i.i.i476, label %if.then.i.i.i.i.i474

_ZNKSt7__cxx1112basic_stringIcSt11char_traitsIcESaIcEE11_M_is_localEv.exit.thread.i.i.i.i.i476: ; preds = %delete.notnull.i.i.i472
  %_M_string_length.i.i.i.i.i.i477 = getelementptr inbounds i8, ptr %50, i64 8
  %53 = load i64, ptr %_M_string_length.i.i.i.i.i.i477, align 8, !tbaa !57
  %cmp3.i.i.i.i.i.i478 = icmp ult i64 %53, 16
  call void @llvm.assume(i1 %cmp3.i.i.i.i.i.i478)
  br label %_ZNKSt14default_deleteINSt7__cxx1112basic_stringIcSt11char_traitsIcESaIcEEEEclEPS5_.exit.i.i475

if.then.i.i.i.i.i474:                             ; preds = %delete.notnull.i.i.i472
  call void @_ZdlPv(ptr noundef %51) #23
  br label %_ZNKSt14default_deleteINSt7__cxx1112basic_stringIcSt11char_traitsIcESaIcEEEEclEPS5_.exit.i.i475

_ZNKSt14default_deleteINSt7__cxx1112basic_stringIcSt11char_traitsIcESaIcEEEEclEPS5_.exit.i.i475: ; preds = %if.then.i.i.i.i.i474, %_ZNKSt7__cxx1112basic_stringIcSt11char_traitsIcESaIcEE11_M_is_localEv.exit.thread.i.i.i.i.i476
  call void @_ZdlPv(ptr noundef nonnull %50) #23
  br label %_ZN7testing15AssertionResultD2Ev.exit479

_ZN7testing15AssertionResultD2Ev.exit479:         ; preds = %_ZNKSt14default_deleteINSt7__cxx1112basic_stringIcSt11char_traitsIcESaIcEEEEclEPS5_.exit.i.i475, %_ZN7testing7MessageD2Ev.exit469
  call void @llvm.lifetime.end.p0(i64 16, ptr nonnull %gtest_ar) #21
  br label %cleanup363

lpad32:                                           ; preds = %if.else30
  %54 = landingpad { ptr, i32 }
          cleanup
  br label %ehcleanup44

lpad35:                                           ; preds = %invoke.cont36
  %55 = landingpad { ptr, i32 }
          cleanup
  br label %ehcleanup42

lpad39:                                           ; preds = %invoke.cont38
  %56 = landingpad { ptr, i32 }
          cleanup
  call void @_ZN7testing8internal12AssertHelperD1Ev(ptr noundef nonnull align 8 dereferenceable(8) %ref.tmp34) #21
  br label %ehcleanup42

ehcleanup42:                                      ; preds = %lpad39, %lpad35
  %.pn391 = phi { ptr, i32 } [ %56, %lpad39 ], [ %55, %lpad35 ]
  call void @llvm.lifetime.end.p0(i64 8, ptr nonnull %ref.tmp34) #21
  %57 = load ptr, ptr %ref.tmp31, align 8, !tbaa !58
  %cmp.not.i.i480 = icmp eq ptr %57, null
  br i1 %cmp.not.i.i480, label %ehcleanup44, label %_ZNKSt14default_deleteINSt7__cxx1118basic_stringstreamIcSt11char_traitsIcESaIcEEEEclEPS5_.exit.i.i481

_ZNKSt14default_deleteINSt7__cxx1118basic_stringstreamIcSt11char_traitsIcESaIcEEEEclEPS5_.exit.i.i481: ; preds = %ehcleanup42
  %vtable.i.i.i482 = load ptr, ptr %57, align 8, !tbaa !4
  %vfn.i.i.i483 = getelementptr inbounds i8, ptr %vtable.i.i.i482, i64 8
  %58 = load ptr, ptr %vfn.i.i.i483, align 8
  call void %58(ptr noundef nonnull align 8 dereferenceable(128) %57) #21
  br label %ehcleanup44

ehcleanup44:                                      ; preds = %_ZNKSt14default_deleteINSt7__cxx1118basic_stringstreamIcSt11char_traitsIcESaIcEEEEclEPS5_.exit.i.i481, %ehcleanup42, %lpad32
  %.pn391.pn = phi { ptr, i32 } [ %54, %lpad32 ], [ %.pn391, %ehcleanup42 ], [ %.pn391, %_ZNKSt14default_deleteINSt7__cxx1118basic_stringstreamIcSt11char_traitsIcESaIcEEEEclEPS5_.exit.i.i481 ]
  call void @llvm.lifetime.end.p0(i64 8, ptr nonnull %ref.tmp31) #21
  call void @_ZN7testing15AssertionResultD2Ev(ptr noundef nonnull align 8 dereferenceable(16) %gtest_ar) #21
  call void @llvm.lifetime.end.p0(i64 16, ptr nonnull %gtest_ar) #21
  br label %ehcleanup366

cleanup.cont50.critedge:                          ; preds = %_ZN7testing8internal8EqHelper7CompareIN4entt9meta_propES4_TnPNSt9enable_ifIXoontsr3std11is_integralIT_EE5valuentsr3std10is_pointerIT0_EE5valueEvE4typeELPv0EEENS_15AssertionResultEPKcSE_RKS6_RKS7_.exit
  %message_.i485 = getelementptr inbounds i8, ptr %gtest_ar, i64 8
  %59 = load ptr, ptr %message_.i485, align 8, !tbaa !58
  %cmp.not.i.i486 = icmp eq ptr %59, null
  br i1 %cmp.not.i.i486, label %cleanup.cont50, label %delete.notnull.i.i.i487

delete.notnull.i.i.i487:                          ; preds = %cleanup.cont50.critedge
  %60 = load ptr, ptr %59, align 8, !tbaa !54
  %61 = getelementptr inbounds i8, ptr %59, i64 16
  %cmp.i.i.i.i.i.i488 = icmp eq ptr %60, %61
  br i1 %cmp.i.i.i.i.i.i488, label %_ZNKSt7__cxx1112basic_stringIcSt11char_traitsIcESaIcEE11_M_is_localEv.exit.thread.i.i.i.i.i491, label %if.then.i.i.i.i.i489

_ZNKSt7__cxx1112basic_stringIcSt11char_traitsIcESaIcEE11_M_is_localEv.exit.thread.i.i.i.i.i491: ; preds = %delete.notnull.i.i.i487
  %_M_string_length.i.i.i.i.i.i492 = getelementptr inbounds i8, ptr %59, i64 8
  %62 = load i64, ptr %_M_string_length.i.i.i.i.i.i492, align 8, !tbaa !57
  %cmp3.i.i.i.i.i.i493 = icmp ult i64 %62, 16
  call void @llvm.assume(i1 %cmp3.i.i.i.i.i.i493)
  br label %_ZNKSt14default_deleteINSt7__cxx1112basic_stringIcSt11char_traitsIcESaIcEEEEclEPS5_.exit.i.i490

if.then.i.i.i.i.i489:                             ; preds = %delete.notnull.i.i.i487
  call void @_ZdlPv(ptr noundef %60) #23
  br label %_ZNKSt14default_deleteINSt7__cxx1112basic_stringIcSt11char_traitsIcESaIcEEEEclEPS5_.exit.i.i490

_ZNKSt14default_deleteINSt7__cxx1112basic_stringIcSt11char_traitsIcESaIcEEEEclEPS5_.exit.i.i490: ; preds = %if.then.i.i.i.i.i489, %_ZNKSt7__cxx1112basic_stringIcSt11char_traitsIcESaIcEE11_M_is_localEv.exit.thread.i.i.i.i.i491
  call void @_ZdlPv(ptr noundef nonnull %59) #23
  br label %cleanup.cont50

cleanup.cont50:                                   ; preds = %_ZNKSt14default_deleteINSt7__cxx1112basic_stringIcSt11char_traitsIcESaIcEEEEclEPS5_.exit.i.i490, %cleanup.cont50.critedge
  call void @llvm.lifetime.end.p0(i64 16, ptr nonnull %gtest_ar) #21
  call void @llvm.lifetime.start.p0(i64 16, ptr nonnull %gtest_ar52) #21
  call void @llvm.lifetime.start.p0(i64 16, ptr nonnull %ref.tmp53) #21
  call void @llvm.memset.p0.i64(ptr noundef nonnull align 8 dereferenceable(16) %ref.tmp53, i8 0, i64 16, i1 false)
  %63 = load ptr, ptr %16, align 8, !tbaa !61, !noalias !62
  %cmp.i.i.i497 = icmp ne ptr %63, null
  %64 = load ptr, ptr %prop, align 8, !noalias !62
  %cmp4.i.i.i498 = icmp ne ptr %64, null
  %.not.i.i = select i1 %cmp.i.i.i497, i1 true, i1 %cmp4.i.i.i498
  br i1 %.not.i.i, label %if.then.i, label %if.else.i

if.then.i:                                        ; preds = %cleanup.cont50
  call void @_ZN7testing16AssertionSuccessEv(ptr nonnull sret(%"class.testing::AssertionResult") align 8 %gtest_ar52)
  br label %_ZN7testing8internal11CmpHelperNEIN4entt9meta_propES3_EENS_15AssertionResultEPKcS6_RKT_RKT0_.exit

if.else.i:                                        ; preds = %cleanup.cont50
  call void @_ZN7testing8internal18CmpHelperOpFailureIN4entt9meta_propES3_EENS_15AssertionResultEPKcS6_RKT_RKT0_S6_(ptr nonnull sret(%"class.testing::AssertionResult") align 8 %gtest_ar52, ptr noundef nonnull @.str.5, ptr noundef nonnull @.str.8, ptr noundef nonnull align 8 dereferenceable(16) %prop, ptr noundef nonnull align 8 dereferenceable(16) %ref.tmp53, ptr noundef nonnull @.str.76)
  br label %_ZN7testing8internal11CmpHelperNEIN4entt9meta_propES3_EENS_15AssertionResultEPKcS6_RKT_RKT0_.exit

_ZN7testing8internal11CmpHelperNEIN4entt9meta_propES3_EENS_15AssertionResultEPKcS6_RKT_RKT0_.exit: ; preds = %if.else.i, %if.then.i
  call void @llvm.lifetime.end.p0(i64 16, ptr nonnull %ref.tmp53) #21
  %65 = load i8, ptr %gtest_ar52, align 8, !tbaa !44, !range !59, !noundef !60
  %tobool.i499.not = icmp eq i8 %65, 0
  br i1 %tobool.i499.not, label %if.else58, label %cleanup.cont78.critedge

if.else58:                                        ; preds = %_ZN7testing8internal11CmpHelperNEIN4entt9meta_propES3_EENS_15AssertionResultEPKcS6_RKT_RKT0_.exit
  call void @llvm.lifetime.start.p0(i64 8, ptr nonnull %ref.tmp59) #21
  invoke void @_ZN7testing7MessageC1Ev(ptr noundef nonnull align 8 dereferenceable(8) %ref.tmp59)
          to label %invoke.cont61 unwind label %lpad60

invoke.cont61:                                    ; preds = %if.else58
  call void @llvm.lifetime.start.p0(i64 8, ptr nonnull %ref.tmp62) #21
  %message_.i.i500 = getelementptr inbounds i8, ptr %gtest_ar52, i64 8
  %66 = load ptr, ptr %message_.i.i500, align 8, !tbaa !58
  %cmp.not.i.i501 = icmp eq ptr %66, null
  br i1 %cmp.not.i.i501, label %invoke.cont64, label %cond.true.i.i502

cond.true.i.i502:                                 ; preds = %invoke.cont61
  %67 = load ptr, ptr %66, align 8, !tbaa !54
  br label %invoke.cont64

invoke.cont64:                                    ; preds = %cond.true.i.i502, %invoke.cont61
  %cond.i.i503 = phi ptr [ %67, %cond.true.i.i502 ], [ @.str.52, %invoke.cont61 ]
  invoke void @_ZN7testing8internal12AssertHelperC1ENS_14TestPartResult4TypeEPKciS5_(ptr noundef nonnull align 8 dereferenceable(8) %ref.tmp62, i32 noundef 2, ptr noundef nonnull @.str.3, i32 noundef 54, ptr noundef %cond.i.i503)
          to label %invoke.cont66 unwind label %lpad63

invoke.cont66:                                    ; preds = %invoke.cont64
  invoke void @_ZNK7testing8internal12AssertHelperaSERKNS_7MessageE(ptr noundef nonnull align 8 dereferenceable(8) %ref.tmp62, ptr noundef nonnull align 8 dereferenceable(8) %ref.tmp59)
          to label %invoke.cont68 unwind label %lpad67

invoke.cont68:                                    ; preds = %invoke.cont66
  call void @_ZN7testing8internal12AssertHelperD1Ev(ptr noundef nonnull align 8 dereferenceable(8) %ref.tmp62) #21
  call void @llvm.lifetime.end.p0(i64 8, ptr nonnull %ref.tmp62) #21
  %68 = load ptr, ptr %ref.tmp59, align 8, !tbaa !58
  %cmp.not.i.i505 = icmp eq ptr %68, null
  br i1 %cmp.not.i.i505, label %_ZN7testing7MessageD2Ev.exit509, label %_ZNKSt14default_deleteINSt7__cxx1118basic_stringstreamIcSt11char_traitsIcESaIcEEEEclEPS5_.exit.i.i506

_ZNKSt14default_deleteINSt7__cxx1118basic_stringstreamIcSt11char_traitsIcESaIcEEEEclEPS5_.exit.i.i506: ; preds = %invoke.cont68
  %vtable.i.i.i507 = load ptr, ptr %68, align 8, !tbaa !4
  %vfn.i.i.i508 = getelementptr inbounds i8, ptr %vtable.i.i.i507, i64 8
  %69 = load ptr, ptr %vfn.i.i.i508, align 8
  call void %69(ptr noundef nonnull align 8 dereferenceable(128) %68) #21
  br label %_ZN7testing7MessageD2Ev.exit509

_ZN7testing7MessageD2Ev.exit509:                  ; preds = %_ZNKSt14default_deleteINSt7__cxx1118basic_stringstreamIcSt11char_traitsIcESaIcEEEEclEPS5_.exit.i.i506, %invoke.cont68
  call void @llvm.lifetime.end.p0(i64 8, ptr nonnull %ref.tmp59) #21
  %70 = load ptr, ptr %message_.i.i500, align 8, !tbaa !58
  %cmp.not.i.i511 = icmp eq ptr %70, null
  br i1 %cmp.not.i.i511, label %_ZN7testing15AssertionResultD2Ev.exit519, label %delete.notnull.i.i.i512

delete.notnull.i.i.i512:                          ; preds = %_ZN7testing7MessageD2Ev.exit509
  %71 = load ptr, ptr %70, align 8, !tbaa !54
  %72 = getelementptr inbounds i8, ptr %70, i64 16
  %cmp.i.i.i.i.i.i513 = icmp eq ptr %71, %72
  br i1 %cmp.i.i.i.i.i.i513, label %_ZNKSt7__cxx1112basic_stringIcSt11char_traitsIcESaIcEE11_M_is_localEv.exit.thread.i.i.i.i.i516, label %if.then.i.i.i.i.i514

_ZNKSt7__cxx1112basic_stringIcSt11char_traitsIcESaIcEE11_M_is_localEv.exit.thread.i.i.i.i.i516: ; preds = %delete.notnull.i.i.i512
  %_M_string_length.i.i.i.i.i.i517 = getelementptr inbounds i8, ptr %70, i64 8
  %73 = load i64, ptr %_M_string_length.i.i.i.i.i.i517, align 8, !tbaa !57
  %cmp3.i.i.i.i.i.i518 = icmp ult i64 %73, 16
  call void @llvm.assume(i1 %cmp3.i.i.i.i.i.i518)
  br label %_ZNKSt14default_deleteINSt7__cxx1112basic_stringIcSt11char_traitsIcESaIcEEEEclEPS5_.exit.i.i515

if.then.i.i.i.i.i514:                             ; preds = %delete.notnull.i.i.i512
  call void @_ZdlPv(ptr noundef %71) #23
  br label %_ZNKSt14default_deleteINSt7__cxx1112basic_stringIcSt11char_traitsIcESaIcEEEEclEPS5_.exit.i.i515

_ZNKSt14default_deleteINSt7__cxx1112basic_stringIcSt11char_traitsIcESaIcEEEEclEPS5_.exit.i.i515: ; preds = %if.then.i.i.i.i.i514, %_ZNKSt7__cxx1112basic_stringIcSt11char_traitsIcESaIcEE11_M_is_localEv.exit.thread.i.i.i.i.i516
  call void @_ZdlPv(ptr noundef nonnull %70) #23
  br label %_ZN7testing15AssertionResultD2Ev.exit519

_ZN7testing15AssertionResultD2Ev.exit519:         ; preds = %_ZNKSt14default_deleteINSt7__cxx1112basic_stringIcSt11char_traitsIcESaIcEEEEclEPS5_.exit.i.i515, %_ZN7testing7MessageD2Ev.exit509
  call void @llvm.lifetime.end.p0(i64 16, ptr nonnull %gtest_ar52) #21
  br label %cleanup363

lpad60:                                           ; preds = %if.else58
  %74 = landingpad { ptr, i32 }
          cleanup
  br label %ehcleanup72

lpad63:                                           ; preds = %invoke.cont64
  %75 = landingpad { ptr, i32 }
          cleanup
  br label %ehcleanup70

lpad67:                                           ; preds = %invoke.cont66
  %76 = landingpad { ptr, i32 }
          cleanup
  call void @_ZN7testing8internal12AssertHelperD1Ev(ptr noundef nonnull align 8 dereferenceable(8) %ref.tmp62) #21
  br label %ehcleanup70

ehcleanup70:                                      ; preds = %lpad67, %lpad63
  %.pn394 = phi { ptr, i32 } [ %76, %lpad67 ], [ %75, %lpad63 ]
  call void @llvm.lifetime.end.p0(i64 8, ptr nonnull %ref.tmp62) #21
  %77 = load ptr, ptr %ref.tmp59, align 8, !tbaa !58
  %cmp.not.i.i520 = icmp eq ptr %77, null
  br i1 %cmp.not.i.i520, label %ehcleanup72, label %_ZNKSt14default_deleteINSt7__cxx1118basic_stringstreamIcSt11char_traitsIcESaIcEEEEclEPS5_.exit.i.i521

_ZNKSt14default_deleteINSt7__cxx1118basic_stringstreamIcSt11char_traitsIcESaIcEEEEclEPS5_.exit.i.i521: ; preds = %ehcleanup70
  %vtable.i.i.i522 = load ptr, ptr %77, align 8, !tbaa !4
  %vfn.i.i.i523 = getelementptr inbounds i8, ptr %vtable.i.i.i522, i64 8
  %78 = load ptr, ptr %vfn.i.i.i523, align 8
  call void %78(ptr noundef nonnull align 8 dereferenceable(128) %77) #21
  br label %ehcleanup72

ehcleanup72:                                      ; preds = %_ZNKSt14default_deleteINSt7__cxx1118basic_stringstreamIcSt11char_traitsIcESaIcEEEEclEPS5_.exit.i.i521, %ehcleanup70, %lpad60
  %.pn394.pn = phi { ptr, i32 } [ %74, %lpad60 ], [ %.pn394, %ehcleanup70 ], [ %.pn394, %_ZNKSt14default_deleteINSt7__cxx1118basic_stringstreamIcSt11char_traitsIcESaIcEEEEclEPS5_.exit.i.i521 ]
  call void @llvm.lifetime.end.p0(i64 8, ptr nonnull %ref.tmp59) #21
  call void @_ZN7testing15AssertionResultD2Ev(ptr noundef nonnull align 8 dereferenceable(16) %gtest_ar52) #21
  call void @llvm.lifetime.end.p0(i64 16, ptr nonnull %gtest_ar52) #21
  br label %ehcleanup366

cleanup.cont78.critedge:                          ; preds = %_ZN7testing8internal11CmpHelperNEIN4entt9meta_propES3_EENS_15AssertionResultEPKcS6_RKT_RKT0_.exit
  %message_.i525 = getelementptr inbounds i8, ptr %gtest_ar52, i64 8
  %79 = load ptr, ptr %message_.i525, align 8, !tbaa !58
  %cmp.not.i.i526 = icmp eq ptr %79, null
  br i1 %cmp.not.i.i526, label %cleanup.cont145, label %delete.notnull.i.i.i527

delete.notnull.i.i.i527:                          ; preds = %cleanup.cont78.critedge
  %80 = load ptr, ptr %79, align 8, !tbaa !54
  %81 = getelementptr inbounds i8, ptr %79, i64 16
  %cmp.i.i.i.i.i.i528 = icmp eq ptr %80, %81
  br i1 %cmp.i.i.i.i.i.i528, label %_ZNKSt7__cxx1112basic_stringIcSt11char_traitsIcESaIcEE11_M_is_localEv.exit.thread.i.i.i.i.i531, label %if.then.i.i.i.i.i529

_ZNKSt7__cxx1112basic_stringIcSt11char_traitsIcESaIcEE11_M_is_localEv.exit.thread.i.i.i.i.i531: ; preds = %delete.notnull.i.i.i527
  %_M_string_length.i.i.i.i.i.i532 = getelementptr inbounds i8, ptr %79, i64 8
  %82 = load i64, ptr %_M_string_length.i.i.i.i.i.i532, align 8, !tbaa !57
  %cmp3.i.i.i.i.i.i533 = icmp ult i64 %82, 16
  call void @llvm.assume(i1 %cmp3.i.i.i.i.i.i533)
  br label %_ZNKSt14default_deleteINSt7__cxx1112basic_stringIcSt11char_traitsIcESaIcEEEEclEPS5_.exit.i.i530

if.then.i.i.i.i.i529:                             ; preds = %delete.notnull.i.i.i527
  call void @_ZdlPv(ptr noundef %80) #23
  br label %_ZNKSt14default_deleteINSt7__cxx1112basic_stringIcSt11char_traitsIcESaIcEEEEclEPS5_.exit.i.i530

_ZNKSt14default_deleteINSt7__cxx1112basic_stringIcSt11char_traitsIcESaIcEEEEclEPS5_.exit.i.i530: ; preds = %if.then.i.i.i.i.i529, %_ZNKSt7__cxx1112basic_stringIcSt11char_traitsIcESaIcEE11_M_is_localEv.exit.thread.i.i.i.i.i531
  call void @_ZdlPv(ptr noundef nonnull %79) #23
  br label %cleanup.cont145

cleanup.cont145:                                  ; preds = %_ZNKSt14default_deleteINSt7__cxx1112basic_stringIcSt11char_traitsIcESaIcEEEEclEPS5_.exit.i.i530, %cleanup.cont78.critedge
  call void @llvm.lifetime.end.p0(i64 16, ptr nonnull %gtest_ar52) #21
  call void @llvm.lifetime.start.p0(i64 168, ptr nonnull %value) #21
  call void @_ZN4entt9meta_prop5valueEv(ptr nonnull sret(%"class.entt::meta_any") align 8 %value, ptr noundef nonnull align 8 dereferenceable(16) %prop)
  call void @llvm.lifetime.start.p0(i64 168, ptr nonnull %cvalue) #21
  invoke void @_ZNK4entt9meta_prop5valueEv(ptr nonnull sret(%"class.entt::meta_any") align 8 %cvalue, ptr noundef nonnull align 8 dereferenceable(16) %prop)
          to label %invoke.cont148 unwind label %lpad147

invoke.cont148:                                   ; preds = %cleanup.cont145
  call void @llvm.lifetime.start.p0(i64 16, ptr nonnull %gtest_ar149) #21
  call void @llvm.lifetime.start.p0(i64 8, ptr nonnull %ref.tmp150) #21
  %call153 = call noundef ptr @_ZN4entt8meta_any8try_castIiEEPT_v(ptr noundef nonnull align 8 dereferenceable(168) %value)
  store ptr %call153, ptr %ref.tmp150, align 8, !tbaa !58
  call void @llvm.lifetime.start.p0(i64 8, ptr nonnull %ref.tmp154) #21
  store ptr null, ptr %ref.tmp154, align 8, !tbaa !65
  %cmp.not.i = icmp eq ptr %call153, null
  br i1 %cmp.not.i, label %if.else.i626, label %if.then.i625

if.then.i625:                                     ; preds = %invoke.cont148
  invoke void @_ZN7testing16AssertionSuccessEv(ptr nonnull sret(%"class.testing::AssertionResult") align 8 %gtest_ar149)
          to label %invoke.cont156 unwind label %lpad155

if.else.i626:                                     ; preds = %invoke.cont148
  invoke void @_ZN7testing8internal18CmpHelperOpFailureIPiDnEENS_15AssertionResultEPKcS5_RKT_RKT0_S5_(ptr nonnull sret(%"class.testing::AssertionResult") align 8 %gtest_ar149, ptr noundef nonnull @.str.11, ptr noundef nonnull @.str.12, ptr noundef nonnull align 8 dereferenceable(8) %ref.tmp150, ptr noundef nonnull align 8 dereferenceable(8) %ref.tmp154, ptr noundef nonnull @.str.76)
          to label %invoke.cont156 unwind label %lpad155

invoke.cont156:                                   ; preds = %if.else.i626, %if.then.i625
  call void @llvm.lifetime.end.p0(i64 8, ptr nonnull %ref.tmp154) #21
  call void @llvm.lifetime.end.p0(i64 8, ptr nonnull %ref.tmp150) #21
  %83 = load i8, ptr %gtest_ar149, align 8, !tbaa !44, !range !59, !noundef !60
  %tobool.i628.not = icmp eq i8 %83, 0
  br i1 %tobool.i628.not, label %if.else163, label %cleanup.cont183.critedge

lpad147:                                          ; preds = %cleanup.cont145
  %84 = landingpad { ptr, i32 }
          cleanup
  br label %ehcleanup358

lpad155:                                          ; preds = %if.else.i626, %if.then.i625
  %85 = landingpad { ptr, i32 }
          cleanup
  call void @llvm.lifetime.end.p0(i64 8, ptr nonnull %ref.tmp154) #21
  call void @llvm.lifetime.end.p0(i64 8, ptr nonnull %ref.tmp150) #21
  br label %ehcleanup184

if.else163:                                       ; preds = %invoke.cont156
  call void @llvm.lifetime.start.p0(i64 8, ptr nonnull %ref.tmp164) #21
  invoke void @_ZN7testing7MessageC1Ev(ptr noundef nonnull align 8 dereferenceable(8) %ref.tmp164)
          to label %invoke.cont166 unwind label %lpad165

invoke.cont166:                                   ; preds = %if.else163
  call void @llvm.lifetime.start.p0(i64 8, ptr nonnull %ref.tmp167) #21
  %message_.i.i629 = getelementptr inbounds i8, ptr %gtest_ar149, i64 8
  %86 = load ptr, ptr %message_.i.i629, align 8, !tbaa !58
  %cmp.not.i.i630 = icmp eq ptr %86, null
  br i1 %cmp.not.i.i630, label %invoke.cont169, label %cond.true.i.i631

cond.true.i.i631:                                 ; preds = %invoke.cont166
  %87 = load ptr, ptr %86, align 8, !tbaa !54
  br label %invoke.cont169

invoke.cont169:                                   ; preds = %cond.true.i.i631, %invoke.cont166
  %cond.i.i632 = phi ptr [ %87, %cond.true.i.i631 ], [ @.str.52, %invoke.cont166 ]
  invoke void @_ZN7testing8internal12AssertHelperC1ENS_14TestPartResult4TypeEPKciS5_(ptr noundef nonnull align 8 dereferenceable(8) %ref.tmp167, i32 noundef 2, ptr noundef nonnull @.str.3, i32 noundef 61, ptr noundef %cond.i.i632)
          to label %invoke.cont171 unwind label %lpad168

invoke.cont171:                                   ; preds = %invoke.cont169
  invoke void @_ZNK7testing8internal12AssertHelperaSERKNS_7MessageE(ptr noundef nonnull align 8 dereferenceable(8) %ref.tmp167, ptr noundef nonnull align 8 dereferenceable(8) %ref.tmp164)
          to label %invoke.cont173 unwind label %lpad172

invoke.cont173:                                   ; preds = %invoke.cont171
  call void @_ZN7testing8internal12AssertHelperD1Ev(ptr noundef nonnull align 8 dereferenceable(8) %ref.tmp167) #21
  call void @llvm.lifetime.end.p0(i64 8, ptr nonnull %ref.tmp167) #21
  %88 = load ptr, ptr %ref.tmp164, align 8, !tbaa !58
  %cmp.not.i.i634 = icmp eq ptr %88, null
  br i1 %cmp.not.i.i634, label %_ZN7testing7MessageD2Ev.exit638, label %_ZNKSt14default_deleteINSt7__cxx1118basic_stringstreamIcSt11char_traitsIcESaIcEEEEclEPS5_.exit.i.i635

_ZNKSt14default_deleteINSt7__cxx1118basic_stringstreamIcSt11char_traitsIcESaIcEEEEclEPS5_.exit.i.i635: ; preds = %invoke.cont173
  %vtable.i.i.i636 = load ptr, ptr %88, align 8, !tbaa !4
  %vfn.i.i.i637 = getelementptr inbounds i8, ptr %vtable.i.i.i636, i64 8
  %89 = load ptr, ptr %vfn.i.i.i637, align 8
  call void %89(ptr noundef nonnull align 8 dereferenceable(128) %88) #21
  br label %_ZN7testing7MessageD2Ev.exit638

_ZN7testing7MessageD2Ev.exit638:                  ; preds = %_ZNKSt14default_deleteINSt7__cxx1118basic_stringstreamIcSt11char_traitsIcESaIcEEEEclEPS5_.exit.i.i635, %invoke.cont173
  call void @llvm.lifetime.end.p0(i64 8, ptr nonnull %ref.tmp164) #21
  %90 = load ptr, ptr %message_.i.i629, align 8, !tbaa !58
  %cmp.not.i.i640 = icmp eq ptr %90, null
  br i1 %cmp.not.i.i640, label %_ZN7testing15AssertionResultD2Ev.exit648, label %delete.notnull.i.i.i641

delete.notnull.i.i.i641:                          ; preds = %_ZN7testing7MessageD2Ev.exit638
  %91 = load ptr, ptr %90, align 8, !tbaa !54
  %92 = getelementptr inbounds i8, ptr %90, i64 16
  %cmp.i.i.i.i.i.i642 = icmp eq ptr %91, %92
  br i1 %cmp.i.i.i.i.i.i642, label %_ZNKSt7__cxx1112basic_stringIcSt11char_traitsIcESaIcEE11_M_is_localEv.exit.thread.i.i.i.i.i645, label %if.then.i.i.i.i.i643

_ZNKSt7__cxx1112basic_stringIcSt11char_traitsIcESaIcEE11_M_is_localEv.exit.thread.i.i.i.i.i645: ; preds = %delete.notnull.i.i.i641
  %_M_string_length.i.i.i.i.i.i646 = getelementptr inbounds i8, ptr %90, i64 8
  %93 = load i64, ptr %_M_string_length.i.i.i.i.i.i646, align 8, !tbaa !57
  %cmp3.i.i.i.i.i.i647 = icmp ult i64 %93, 16
  call void @llvm.assume(i1 %cmp3.i.i.i.i.i.i647)
  br label %_ZNKSt14default_deleteINSt7__cxx1112basic_stringIcSt11char_traitsIcESaIcEEEEclEPS5_.exit.i.i644

if.then.i.i.i.i.i643:                             ; preds = %delete.notnull.i.i.i641
  call void @_ZdlPv(ptr noundef %91) #23
  br label %_ZNKSt14default_deleteINSt7__cxx1112basic_stringIcSt11char_traitsIcESaIcEEEEclEPS5_.exit.i.i644

_ZNKSt14default_deleteINSt7__cxx1112basic_stringIcSt11char_traitsIcESaIcEEEEclEPS5_.exit.i.i644: ; preds = %if.then.i.i.i.i.i643, %_ZNKSt7__cxx1112basic_stringIcSt11char_traitsIcESaIcEE11_M_is_localEv.exit.thread.i.i.i.i.i645
  call void @_ZdlPv(ptr noundef nonnull %90) #23
  br label %_ZN7testing15AssertionResultD2Ev.exit648

_ZN7testing15AssertionResultD2Ev.exit648:         ; preds = %_ZNKSt14default_deleteINSt7__cxx1112basic_stringIcSt11char_traitsIcESaIcEEEEclEPS5_.exit.i.i644, %_ZN7testing7MessageD2Ev.exit638
  call void @llvm.lifetime.end.p0(i64 16, ptr nonnull %gtest_ar149) #21
  br label %cleanup355

lpad165:                                          ; preds = %if.else163
  %94 = landingpad { ptr, i32 }
          cleanup
  br label %ehcleanup177

lpad168:                                          ; preds = %invoke.cont169
  %95 = landingpad { ptr, i32 }
          cleanup
  br label %ehcleanup175

lpad172:                                          ; preds = %invoke.cont171
  %96 = landingpad { ptr, i32 }
          cleanup
  call void @_ZN7testing8internal12AssertHelperD1Ev(ptr noundef nonnull align 8 dereferenceable(8) %ref.tmp167) #21
  br label %ehcleanup175

ehcleanup175:                                     ; preds = %lpad172, %lpad168
  %.pn405 = phi { ptr, i32 } [ %96, %lpad172 ], [ %95, %lpad168 ]
  call void @llvm.lifetime.end.p0(i64 8, ptr nonnull %ref.tmp167) #21
  %97 = load ptr, ptr %ref.tmp164, align 8, !tbaa !58
  %cmp.not.i.i649 = icmp eq ptr %97, null
  br i1 %cmp.not.i.i649, label %ehcleanup177, label %_ZNKSt14default_deleteINSt7__cxx1118basic_stringstreamIcSt11char_traitsIcESaIcEEEEclEPS5_.exit.i.i650

_ZNKSt14default_deleteINSt7__cxx1118basic_stringstreamIcSt11char_traitsIcESaIcEEEEclEPS5_.exit.i.i650: ; preds = %ehcleanup175
  %vtable.i.i.i651 = load ptr, ptr %97, align 8, !tbaa !4
  %vfn.i.i.i652 = getelementptr inbounds i8, ptr %vtable.i.i.i651, i64 8
  %98 = load ptr, ptr %vfn.i.i.i652, align 8
  call void %98(ptr noundef nonnull align 8 dereferenceable(128) %97) #21
  br label %ehcleanup177

ehcleanup177:                                     ; preds = %_ZNKSt14default_deleteINSt7__cxx1118basic_stringstreamIcSt11char_traitsIcESaIcEEEEclEPS5_.exit.i.i650, %ehcleanup175, %lpad165
  %.pn405.pn = phi { ptr, i32 } [ %94, %lpad165 ], [ %.pn405, %ehcleanup175 ], [ %.pn405, %_ZNKSt14default_deleteINSt7__cxx1118basic_stringstreamIcSt11char_traitsIcESaIcEEEEclEPS5_.exit.i.i650 ]
  call void @llvm.lifetime.end.p0(i64 8, ptr nonnull %ref.tmp164) #21
  call void @_ZN7testing15AssertionResultD2Ev(ptr noundef nonnull align 8 dereferenceable(16) %gtest_ar149) #21
  br label %ehcleanup184

cleanup.cont183.critedge:                         ; preds = %invoke.cont156
  %message_.i654 = getelementptr inbounds i8, ptr %gtest_ar149, i64 8
  %99 = load ptr, ptr %message_.i654, align 8, !tbaa !58
  %cmp.not.i.i655 = icmp eq ptr %99, null
  br i1 %cmp.not.i.i655, label %cleanup.cont183, label %delete.notnull.i.i.i656

delete.notnull.i.i.i656:                          ; preds = %cleanup.cont183.critedge
  %100 = load ptr, ptr %99, align 8, !tbaa !54
  %101 = getelementptr inbounds i8, ptr %99, i64 16
  %cmp.i.i.i.i.i.i657 = icmp eq ptr %100, %101
  br i1 %cmp.i.i.i.i.i.i657, label %_ZNKSt7__cxx1112basic_stringIcSt11char_traitsIcESaIcEE11_M_is_localEv.exit.thread.i.i.i.i.i660, label %if.then.i.i.i.i.i658

_ZNKSt7__cxx1112basic_stringIcSt11char_traitsIcESaIcEE11_M_is_localEv.exit.thread.i.i.i.i.i660: ; preds = %delete.notnull.i.i.i656
  %_M_string_length.i.i.i.i.i.i661 = getelementptr inbounds i8, ptr %99, i64 8
  %102 = load i64, ptr %_M_string_length.i.i.i.i.i.i661, align 8, !tbaa !57
  %cmp3.i.i.i.i.i.i662 = icmp ult i64 %102, 16
  call void @llvm.assume(i1 %cmp3.i.i.i.i.i.i662)
  br label %_ZNKSt14default_deleteINSt7__cxx1112basic_stringIcSt11char_traitsIcESaIcEEEEclEPS5_.exit.i.i659

if.then.i.i.i.i.i658:                             ; preds = %delete.notnull.i.i.i656
  call void @_ZdlPv(ptr noundef %100) #23
  br label %_ZNKSt14default_deleteINSt7__cxx1112basic_stringIcSt11char_traitsIcESaIcEEEEclEPS5_.exit.i.i659

_ZNKSt14default_deleteINSt7__cxx1112basic_stringIcSt11char_traitsIcESaIcEEEEclEPS5_.exit.i.i659: ; preds = %if.then.i.i.i.i.i658, %_ZNKSt7__cxx1112basic_stringIcSt11char_traitsIcESaIcEE11_M_is_localEv.exit.thread.i.i.i.i.i660
  call void @_ZdlPv(ptr noundef nonnull %99) #23
  br label %cleanup.cont183

cleanup.cont183:                                  ; preds = %_ZNKSt14default_deleteINSt7__cxx1112basic_stringIcSt11char_traitsIcESaIcEEEEclEPS5_.exit.i.i659, %cleanup.cont183.critedge
  call void @llvm.lifetime.end.p0(i64 16, ptr nonnull %gtest_ar149) #21
  call void @llvm.lifetime.start.p0(i64 16, ptr nonnull %gtest_ar185) #21
  call void @llvm.lifetime.start.p0(i64 8, ptr nonnull %ref.tmp186) #21
  %call189 = call noundef ptr @_ZN4entt8meta_any8try_castIiEEPT_v(ptr noundef nonnull align 8 dereferenceable(168) %cvalue)
  store ptr %call189, ptr %ref.tmp186, align 8, !tbaa !58
  call void @llvm.lifetime.start.p0(i64 8, ptr nonnull %ref.tmp190) #21
  store ptr null, ptr %ref.tmp190, align 8, !tbaa !65
  %cmp.i.i664 = icmp eq ptr %call189, null
  br i1 %cmp.i.i664, label %if.then.i.i666, label %if.end.i.i665

if.then.i.i666:                                   ; preds = %cleanup.cont183
  invoke void @_ZN7testing16AssertionSuccessEv(ptr nonnull sret(%"class.testing::AssertionResult") align 8 %gtest_ar185)
          to label %invoke.cont192 unwind label %lpad191

if.end.i.i665:                                    ; preds = %cleanup.cont183
  invoke void @_ZN7testing8internal18CmpHelperEQFailureIPiDnEENS_15AssertionResultEPKcS5_RKT_RKT0_(ptr nonnull sret(%"class.testing::AssertionResult") align 8 %gtest_ar185, ptr noundef nonnull @.str.13, ptr noundef nonnull @.str.12, ptr noundef nonnull align 8 dereferenceable(8) %ref.tmp186, ptr noundef nonnull align 8 dereferenceable(8) %ref.tmp190)
          to label %invoke.cont192 unwind label %lpad191

invoke.cont192:                                   ; preds = %if.end.i.i665, %if.then.i.i666
  call void @llvm.lifetime.end.p0(i64 8, ptr nonnull %ref.tmp190) #21
  call void @llvm.lifetime.end.p0(i64 8, ptr nonnull %ref.tmp186) #21
  %103 = load i8, ptr %gtest_ar185, align 8, !tbaa !44, !range !59, !noundef !60
  %tobool.i669.not = icmp eq i8 %103, 0
  br i1 %tobool.i669.not, label %if.else199, label %cleanup.cont219.critedge

ehcleanup184:                                     ; preds = %ehcleanup177, %lpad155
  %.pn405.pn.pn = phi { ptr, i32 } [ %.pn405.pn, %ehcleanup177 ], [ %85, %lpad155 ]
  call void @llvm.lifetime.end.p0(i64 16, ptr nonnull %gtest_ar149) #21
  br label %ehcleanup356

lpad191:                                          ; preds = %if.end.i.i665, %if.then.i.i666
  %104 = landingpad { ptr, i32 }
          cleanup
  call void @llvm.lifetime.end.p0(i64 8, ptr nonnull %ref.tmp190) #21
  call void @llvm.lifetime.end.p0(i64 8, ptr nonnull %ref.tmp186) #21
  br label %ehcleanup220

if.else199:                                       ; preds = %invoke.cont192
  call void @llvm.lifetime.start.p0(i64 8, ptr nonnull %ref.tmp200) #21
  invoke void @_ZN7testing7MessageC1Ev(ptr noundef nonnull align 8 dereferenceable(8) %ref.tmp200)
          to label %invoke.cont202 unwind label %lpad201

invoke.cont202:                                   ; preds = %if.else199
  call void @llvm.lifetime.start.p0(i64 8, ptr nonnull %ref.tmp203) #21
  %message_.i.i670 = getelementptr inbounds i8, ptr %gtest_ar185, i64 8
  %105 = load ptr, ptr %message_.i.i670, align 8, !tbaa !58
  %cmp.not.i.i671 = icmp eq ptr %105, null
  br i1 %cmp.not.i.i671, label %invoke.cont205, label %cond.true.i.i672

cond.true.i.i672:                                 ; preds = %invoke.cont202
  %106 = load ptr, ptr %105, align 8, !tbaa !54
  br label %invoke.cont205

invoke.cont205:                                   ; preds = %cond.true.i.i672, %invoke.cont202
  %cond.i.i673 = phi ptr [ %106, %cond.true.i.i672 ], [ @.str.52, %invoke.cont202 ]
  invoke void @_ZN7testing8internal12AssertHelperC1ENS_14TestPartResult4TypeEPKciS5_(ptr noundef nonnull align 8 dereferenceable(8) %ref.tmp203, i32 noundef 2, ptr noundef nonnull @.str.3, i32 noundef 62, ptr noundef %cond.i.i673)
          to label %invoke.cont207 unwind label %lpad204

invoke.cont207:                                   ; preds = %invoke.cont205
  invoke void @_ZNK7testing8internal12AssertHelperaSERKNS_7MessageE(ptr noundef nonnull align 8 dereferenceable(8) %ref.tmp203, ptr noundef nonnull align 8 dereferenceable(8) %ref.tmp200)
          to label %invoke.cont209 unwind label %lpad208

invoke.cont209:                                   ; preds = %invoke.cont207
  call void @_ZN7testing8internal12AssertHelperD1Ev(ptr noundef nonnull align 8 dereferenceable(8) %ref.tmp203) #21
  call void @llvm.lifetime.end.p0(i64 8, ptr nonnull %ref.tmp203) #21
  %107 = load ptr, ptr %ref.tmp200, align 8, !tbaa !58
  %cmp.not.i.i675 = icmp eq ptr %107, null
  br i1 %cmp.not.i.i675, label %_ZN7testing7MessageD2Ev.exit679, label %_ZNKSt14default_deleteINSt7__cxx1118basic_stringstreamIcSt11char_traitsIcESaIcEEEEclEPS5_.exit.i.i676

_ZNKSt14default_deleteINSt7__cxx1118basic_stringstreamIcSt11char_traitsIcESaIcEEEEclEPS5_.exit.i.i676: ; preds = %invoke.cont209
  %vtable.i.i.i677 = load ptr, ptr %107, align 8, !tbaa !4
  %vfn.i.i.i678 = getelementptr inbounds i8, ptr %vtable.i.i.i677, i64 8
  %108 = load ptr, ptr %vfn.i.i.i678, align 8
  call void %108(ptr noundef nonnull align 8 dereferenceable(128) %107) #21
  br label %_ZN7testing7MessageD2Ev.exit679

_ZN7testing7MessageD2Ev.exit679:                  ; preds = %_ZNKSt14default_deleteINSt7__cxx1118basic_stringstreamIcSt11char_traitsIcESaIcEEEEclEPS5_.exit.i.i676, %invoke.cont209
  call void @llvm.lifetime.end.p0(i64 8, ptr nonnull %ref.tmp200) #21
  %109 = load ptr, ptr %message_.i.i670, align 8, !tbaa !58
  %cmp.not.i.i681 = icmp eq ptr %109, null
  br i1 %cmp.not.i.i681, label %_ZN7testing15AssertionResultD2Ev.exit689, label %delete.notnull.i.i.i682

delete.notnull.i.i.i682:                          ; preds = %_ZN7testing7MessageD2Ev.exit679
  %110 = load ptr, ptr %109, align 8, !tbaa !54
  %111 = getelementptr inbounds i8, ptr %109, i64 16
  %cmp.i.i.i.i.i.i683 = icmp eq ptr %110, %111
  br i1 %cmp.i.i.i.i.i.i683, label %_ZNKSt7__cxx1112basic_stringIcSt11char_traitsIcESaIcEE11_M_is_localEv.exit.thread.i.i.i.i.i686, label %if.then.i.i.i.i.i684

_ZNKSt7__cxx1112basic_stringIcSt11char_traitsIcESaIcEE11_M_is_localEv.exit.thread.i.i.i.i.i686: ; preds = %delete.notnull.i.i.i682
  %_M_string_length.i.i.i.i.i.i687 = getelementptr inbounds i8, ptr %109, i64 8
  %112 = load i64, ptr %_M_string_length.i.i.i.i.i.i687, align 8, !tbaa !57
  %cmp3.i.i.i.i.i.i688 = icmp ult i64 %112, 16
  call void @llvm.assume(i1 %cmp3.i.i.i.i.i.i688)
  br label %_ZNKSt14default_deleteINSt7__cxx1112basic_stringIcSt11char_traitsIcESaIcEEEEclEPS5_.exit.i.i685

if.then.i.i.i.i.i684:                             ; preds = %delete.notnull.i.i.i682
  call void @_ZdlPv(ptr noundef %110) #23
  br label %_ZNKSt14default_deleteINSt7__cxx1112basic_stringIcSt11char_traitsIcESaIcEEEEclEPS5_.exit.i.i685

_ZNKSt14default_deleteINSt7__cxx1112basic_stringIcSt11char_traitsIcESaIcEEEEclEPS5_.exit.i.i685: ; preds = %if.then.i.i.i.i.i684, %_ZNKSt7__cxx1112basic_stringIcSt11char_traitsIcESaIcEE11_M_is_localEv.exit.thread.i.i.i.i.i686
  call void @_ZdlPv(ptr noundef nonnull %109) #23
  br label %_ZN7testing15AssertionResultD2Ev.exit689

_ZN7testing15AssertionResultD2Ev.exit689:         ; preds = %_ZNKSt14default_deleteINSt7__cxx1112basic_stringIcSt11char_traitsIcESaIcEEEEclEPS5_.exit.i.i685, %_ZN7testing7MessageD2Ev.exit679
  call void @llvm.lifetime.end.p0(i64 16, ptr nonnull %gtest_ar185) #21
  br label %cleanup355

lpad201:                                          ; preds = %if.else199
  %113 = landingpad { ptr, i32 }
          cleanup
  br label %ehcleanup213

lpad204:                                          ; preds = %invoke.cont205
  %114 = landingpad { ptr, i32 }
          cleanup
  br label %ehcleanup211

lpad208:                                          ; preds = %invoke.cont207
  %115 = landingpad { ptr, i32 }
          cleanup
  call void @_ZN7testing8internal12AssertHelperD1Ev(ptr noundef nonnull align 8 dereferenceable(8) %ref.tmp203) #21
  br label %ehcleanup211

ehcleanup211:                                     ; preds = %lpad208, %lpad204
  %.pn409 = phi { ptr, i32 } [ %115, %lpad208 ], [ %114, %lpad204 ]
  call void @llvm.lifetime.end.p0(i64 8, ptr nonnull %ref.tmp203) #21
  %116 = load ptr, ptr %ref.tmp200, align 8, !tbaa !58
  %cmp.not.i.i690 = icmp eq ptr %116, null
  br i1 %cmp.not.i.i690, label %ehcleanup213, label %_ZNKSt14default_deleteINSt7__cxx1118basic_stringstreamIcSt11char_traitsIcESaIcEEEEclEPS5_.exit.i.i691

_ZNKSt14default_deleteINSt7__cxx1118basic_stringstreamIcSt11char_traitsIcESaIcEEEEclEPS5_.exit.i.i691: ; preds = %ehcleanup211
  %vtable.i.i.i692 = load ptr, ptr %116, align 8, !tbaa !4
  %vfn.i.i.i693 = getelementptr inbounds i8, ptr %vtable.i.i.i692, i64 8
  %117 = load ptr, ptr %vfn.i.i.i693, align 8
  call void %117(ptr noundef nonnull align 8 dereferenceable(128) %116) #21
  br label %ehcleanup213

ehcleanup213:                                     ; preds = %_ZNKSt14default_deleteINSt7__cxx1118basic_stringstreamIcSt11char_traitsIcESaIcEEEEclEPS5_.exit.i.i691, %ehcleanup211, %lpad201
  %.pn409.pn = phi { ptr, i32 } [ %113, %lpad201 ], [ %.pn409, %ehcleanup211 ], [ %.pn409, %_ZNKSt14default_deleteINSt7__cxx1118basic_stringstreamIcSt11char_traitsIcESaIcEEEEclEPS5_.exit.i.i691 ]
  call void @llvm.lifetime.end.p0(i64 8, ptr nonnull %ref.tmp200) #21
  call void @_ZN7testing15AssertionResultD2Ev(ptr noundef nonnull align 8 dereferenceable(16) %gtest_ar185) #21
  br label %ehcleanup220

cleanup.cont219.critedge:                         ; preds = %invoke.cont192
  %message_.i695 = getelementptr inbounds i8, ptr %gtest_ar185, i64 8
  %118 = load ptr, ptr %message_.i695, align 8, !tbaa !58
  %cmp.not.i.i696 = icmp eq ptr %118, null
  br i1 %cmp.not.i.i696, label %invoke.cont224, label %delete.notnull.i.i.i697

delete.notnull.i.i.i697:                          ; preds = %cleanup.cont219.critedge
  %119 = load ptr, ptr %118, align 8, !tbaa !54
  %120 = getelementptr inbounds i8, ptr %118, i64 16
  %cmp.i.i.i.i.i.i698 = icmp eq ptr %119, %120
  br i1 %cmp.i.i.i.i.i.i698, label %_ZNKSt7__cxx1112basic_stringIcSt11char_traitsIcESaIcEE11_M_is_localEv.exit.thread.i.i.i.i.i701, label %if.then.i.i.i.i.i699

_ZNKSt7__cxx1112basic_stringIcSt11char_traitsIcESaIcEE11_M_is_localEv.exit.thread.i.i.i.i.i701: ; preds = %delete.notnull.i.i.i697
  %_M_string_length.i.i.i.i.i.i702 = getelementptr inbounds i8, ptr %118, i64 8
  %121 = load i64, ptr %_M_string_length.i.i.i.i.i.i702, align 8, !tbaa !57
  %cmp3.i.i.i.i.i.i703 = icmp ult i64 %121, 16
  call void @llvm.assume(i1 %cmp3.i.i.i.i.i.i703)
  br label %_ZNKSt14default_deleteINSt7__cxx1112basic_stringIcSt11char_traitsIcESaIcEEEEclEPS5_.exit.i.i700

if.then.i.i.i.i.i699:                             ; preds = %delete.notnull.i.i.i697
  call void @_ZdlPv(ptr noundef %119) #23
  br label %_ZNKSt14default_deleteINSt7__cxx1112basic_stringIcSt11char_traitsIcESaIcEEEEclEPS5_.exit.i.i700

_ZNKSt14default_deleteINSt7__cxx1112basic_stringIcSt11char_traitsIcESaIcEEEEclEPS5_.exit.i.i700: ; preds = %if.then.i.i.i.i.i699, %_ZNKSt7__cxx1112basic_stringIcSt11char_traitsIcESaIcEE11_M_is_localEv.exit.thread.i.i.i.i.i701
  call void @_ZdlPv(ptr noundef nonnull %118) #23
  br label %invoke.cont224

invoke.cont224:                                   ; preds = %_ZNKSt14default_deleteINSt7__cxx1112basic_stringIcSt11char_traitsIcESaIcEEEEclEPS5_.exit.i.i700, %cleanup.cont219.critedge
  call void @llvm.lifetime.end.p0(i64 16, ptr nonnull %gtest_ar185) #21
  call void @llvm.lifetime.start.p0(i64 16, ptr nonnull %gtest_ar221) #21
  call void @llvm.lifetime.start.p0(i64 8, ptr nonnull %ref.tmp222) #21
  %call.i = call noundef ptr @_ZNK4entt8meta_any8try_castIiEEPKT_v(ptr noundef nonnull align 8 dereferenceable(168) %value)
  store ptr %call.i, ptr %ref.tmp222, align 8, !tbaa !58
  call void @llvm.lifetime.start.p0(i64 8, ptr nonnull %ref.tmp226) #21
  store ptr null, ptr %ref.tmp226, align 8, !tbaa !65
  %cmp.not.i705 = icmp eq ptr %call.i, null
  br i1 %cmp.not.i705, label %if.else.i707, label %if.then.i706

if.then.i706:                                     ; preds = %invoke.cont224
  invoke void @_ZN7testing16AssertionSuccessEv(ptr nonnull sret(%"class.testing::AssertionResult") align 8 %gtest_ar221)
          to label %invoke.cont228 unwind label %lpad227

if.else.i707:                                     ; preds = %invoke.cont224
  invoke void @_ZN7testing8internal18CmpHelperOpFailureIPKiDnEENS_15AssertionResultEPKcS6_RKT_RKT0_S6_(ptr nonnull sret(%"class.testing::AssertionResult") align 8 %gtest_ar221, ptr noundef nonnull @.str.14, ptr noundef nonnull @.str.12, ptr noundef nonnull align 8 dereferenceable(8) %ref.tmp222, ptr noundef nonnull align 8 dereferenceable(8) %ref.tmp226, ptr noundef nonnull @.str.76)
          to label %invoke.cont228 unwind label %lpad227

invoke.cont228:                                   ; preds = %if.else.i707, %if.then.i706
  call void @llvm.lifetime.end.p0(i64 8, ptr nonnull %ref.tmp226) #21
  call void @llvm.lifetime.end.p0(i64 8, ptr nonnull %ref.tmp222) #21
  %122 = load i8, ptr %gtest_ar221, align 8, !tbaa !44, !range !59, !noundef !60
  %tobool.i710.not = icmp eq i8 %122, 0
  br i1 %tobool.i710.not, label %if.else235, label %cleanup.cont255.critedge

ehcleanup220:                                     ; preds = %ehcleanup213, %lpad191
  %.pn409.pn.pn = phi { ptr, i32 } [ %.pn409.pn, %ehcleanup213 ], [ %104, %lpad191 ]
  call void @llvm.lifetime.end.p0(i64 16, ptr nonnull %gtest_ar185) #21
  br label %ehcleanup356

lpad227:                                          ; preds = %if.else.i707, %if.then.i706
  %123 = landingpad { ptr, i32 }
          cleanup
  call void @llvm.lifetime.end.p0(i64 8, ptr nonnull %ref.tmp226) #21
  call void @llvm.lifetime.end.p0(i64 8, ptr nonnull %ref.tmp222) #21
  br label %ehcleanup256

if.else235:                                       ; preds = %invoke.cont228
  call void @llvm.lifetime.start.p0(i64 8, ptr nonnull %ref.tmp236) #21
  invoke void @_ZN7testing7MessageC1Ev(ptr noundef nonnull align 8 dereferenceable(8) %ref.tmp236)
          to label %invoke.cont238 unwind label %lpad237

invoke.cont238:                                   ; preds = %if.else235
  call void @llvm.lifetime.start.p0(i64 8, ptr nonnull %ref.tmp239) #21
  %message_.i.i711 = getelementptr inbounds i8, ptr %gtest_ar221, i64 8
  %124 = load ptr, ptr %message_.i.i711, align 8, !tbaa !58
  %cmp.not.i.i712 = icmp eq ptr %124, null
  br i1 %cmp.not.i.i712, label %invoke.cont241, label %cond.true.i.i713

cond.true.i.i713:                                 ; preds = %invoke.cont238
  %125 = load ptr, ptr %124, align 8, !tbaa !54
  br label %invoke.cont241

invoke.cont241:                                   ; preds = %cond.true.i.i713, %invoke.cont238
  %cond.i.i714 = phi ptr [ %125, %cond.true.i.i713 ], [ @.str.52, %invoke.cont238 ]
  invoke void @_ZN7testing8internal12AssertHelperC1ENS_14TestPartResult4TypeEPKciS5_(ptr noundef nonnull align 8 dereferenceable(8) %ref.tmp239, i32 noundef 2, ptr noundef nonnull @.str.3, i32 noundef 64, ptr noundef %cond.i.i714)
          to label %invoke.cont243 unwind label %lpad240

invoke.cont243:                                   ; preds = %invoke.cont241
  invoke void @_ZNK7testing8internal12AssertHelperaSERKNS_7MessageE(ptr noundef nonnull align 8 dereferenceable(8) %ref.tmp239, ptr noundef nonnull align 8 dereferenceable(8) %ref.tmp236)
          to label %invoke.cont245 unwind label %lpad244

invoke.cont245:                                   ; preds = %invoke.cont243
  call void @_ZN7testing8internal12AssertHelperD1Ev(ptr noundef nonnull align 8 dereferenceable(8) %ref.tmp239) #21
  call void @llvm.lifetime.end.p0(i64 8, ptr nonnull %ref.tmp239) #21
  %126 = load ptr, ptr %ref.tmp236, align 8, !tbaa !58
  %cmp.not.i.i716 = icmp eq ptr %126, null
  br i1 %cmp.not.i.i716, label %_ZN7testing7MessageD2Ev.exit720, label %_ZNKSt14default_deleteINSt7__cxx1118basic_stringstreamIcSt11char_traitsIcESaIcEEEEclEPS5_.exit.i.i717

_ZNKSt14default_deleteINSt7__cxx1118basic_stringstreamIcSt11char_traitsIcESaIcEEEEclEPS5_.exit.i.i717: ; preds = %invoke.cont245
  %vtable.i.i.i718 = load ptr, ptr %126, align 8, !tbaa !4
  %vfn.i.i.i719 = getelementptr inbounds i8, ptr %vtable.i.i.i718, i64 8
  %127 = load ptr, ptr %vfn.i.i.i719, align 8
  call void %127(ptr noundef nonnull align 8 dereferenceable(128) %126) #21
  br label %_ZN7testing7MessageD2Ev.exit720

_ZN7testing7MessageD2Ev.exit720:                  ; preds = %_ZNKSt14default_deleteINSt7__cxx1118basic_stringstreamIcSt11char_traitsIcESaIcEEEEclEPS5_.exit.i.i717, %invoke.cont245
  call void @llvm.lifetime.end.p0(i64 8, ptr nonnull %ref.tmp236) #21
  %128 = load ptr, ptr %message_.i.i711, align 8, !tbaa !58
  %cmp.not.i.i722 = icmp eq ptr %128, null
  br i1 %cmp.not.i.i722, label %_ZN7testing15AssertionResultD2Ev.exit730, label %delete.notnull.i.i.i723

delete.notnull.i.i.i723:                          ; preds = %_ZN7testing7MessageD2Ev.exit720
  %129 = load ptr, ptr %128, align 8, !tbaa !54
  %130 = getelementptr inbounds i8, ptr %128, i64 16
  %cmp.i.i.i.i.i.i724 = icmp eq ptr %129, %130
  br i1 %cmp.i.i.i.i.i.i724, label %_ZNKSt7__cxx1112basic_stringIcSt11char_traitsIcESaIcEE11_M_is_localEv.exit.thread.i.i.i.i.i727, label %if.then.i.i.i.i.i725

_ZNKSt7__cxx1112basic_stringIcSt11char_traitsIcESaIcEE11_M_is_localEv.exit.thread.i.i.i.i.i727: ; preds = %delete.notnull.i.i.i723
  %_M_string_length.i.i.i.i.i.i728 = getelementptr inbounds i8, ptr %128, i64 8
  %131 = load i64, ptr %_M_string_length.i.i.i.i.i.i728, align 8, !tbaa !57
  %cmp3.i.i.i.i.i.i729 = icmp ult i64 %131, 16
  call void @llvm.assume(i1 %cmp3.i.i.i.i.i.i729)
  br label %_ZNKSt14default_deleteINSt7__cxx1112basic_stringIcSt11char_traitsIcESaIcEEEEclEPS5_.exit.i.i726

if.then.i.i.i.i.i725:                             ; preds = %delete.notnull.i.i.i723
  call void @_ZdlPv(ptr noundef %129) #23
  br label %_ZNKSt14default_deleteINSt7__cxx1112basic_stringIcSt11char_traitsIcESaIcEEEEclEPS5_.exit.i.i726

_ZNKSt14default_deleteINSt7__cxx1112basic_stringIcSt11char_traitsIcESaIcEEEEclEPS5_.exit.i.i726: ; preds = %if.then.i.i.i.i.i725, %_ZNKSt7__cxx1112basic_stringIcSt11char_traitsIcESaIcEE11_M_is_localEv.exit.thread.i.i.i.i.i727
  call void @_ZdlPv(ptr noundef nonnull %128) #23
  br label %_ZN7testing15AssertionResultD2Ev.exit730

_ZN7testing15AssertionResultD2Ev.exit730:         ; preds = %_ZNKSt14default_deleteINSt7__cxx1112basic_stringIcSt11char_traitsIcESaIcEEEEclEPS5_.exit.i.i726, %_ZN7testing7MessageD2Ev.exit720
  call void @llvm.lifetime.end.p0(i64 16, ptr nonnull %gtest_ar221) #21
  br label %cleanup355

lpad237:                                          ; preds = %if.else235
  %132 = landingpad { ptr, i32 }
          cleanup
  br label %ehcleanup249

lpad240:                                          ; preds = %invoke.cont241
  %133 = landingpad { ptr, i32 }
          cleanup
  br label %ehcleanup247

lpad244:                                          ; preds = %invoke.cont243
  %134 = landingpad { ptr, i32 }
          cleanup
  call void @_ZN7testing8internal12AssertHelperD1Ev(ptr noundef nonnull align 8 dereferenceable(8) %ref.tmp239) #21
  br label %ehcleanup247

ehcleanup247:                                     ; preds = %lpad244, %lpad240
  %.pn415 = phi { ptr, i32 } [ %134, %lpad244 ], [ %133, %lpad240 ]
  call void @llvm.lifetime.end.p0(i64 8, ptr nonnull %ref.tmp239) #21
  %135 = load ptr, ptr %ref.tmp236, align 8, !tbaa !58
  %cmp.not.i.i731 = icmp eq ptr %135, null
  br i1 %cmp.not.i.i731, label %ehcleanup249, label %_ZNKSt14default_deleteINSt7__cxx1118basic_stringstreamIcSt11char_traitsIcESaIcEEEEclEPS5_.exit.i.i732

_ZNKSt14default_deleteINSt7__cxx1118basic_stringstreamIcSt11char_traitsIcESaIcEEEEclEPS5_.exit.i.i732: ; preds = %ehcleanup247
  %vtable.i.i.i733 = load ptr, ptr %135, align 8, !tbaa !4
  %vfn.i.i.i734 = getelementptr inbounds i8, ptr %vtable.i.i.i733, i64 8
  %136 = load ptr, ptr %vfn.i.i.i734, align 8
  call void %136(ptr noundef nonnull align 8 dereferenceable(128) %135) #21
  br label %ehcleanup249

ehcleanup249:                                     ; preds = %_ZNKSt14default_deleteINSt7__cxx1118basic_stringstreamIcSt11char_traitsIcESaIcEEEEclEPS5_.exit.i.i732, %ehcleanup247, %lpad237
  %.pn415.pn = phi { ptr, i32 } [ %132, %lpad237 ], [ %.pn415, %ehcleanup247 ], [ %.pn415, %_ZNKSt14default_deleteINSt7__cxx1118basic_stringstreamIcSt11char_traitsIcESaIcEEEEclEPS5_.exit.i.i732 ]
  call void @llvm.lifetime.end.p0(i64 8, ptr nonnull %ref.tmp236) #21
  call void @_ZN7testing15AssertionResultD2Ev(ptr noundef nonnull align 8 dereferenceable(16) %gtest_ar221) #21
  br label %ehcleanup256

cleanup.cont255.critedge:                         ; preds = %invoke.cont228
  %message_.i736 = getelementptr inbounds i8, ptr %gtest_ar221, i64 8
  %137 = load ptr, ptr %message_.i736, align 8, !tbaa !58
  %cmp.not.i.i737 = icmp eq ptr %137, null
  br i1 %cmp.not.i.i737, label %invoke.cont260, label %delete.notnull.i.i.i738

delete.notnull.i.i.i738:                          ; preds = %cleanup.cont255.critedge
  %138 = load ptr, ptr %137, align 8, !tbaa !54
  %139 = getelementptr inbounds i8, ptr %137, i64 16
  %cmp.i.i.i.i.i.i739 = icmp eq ptr %138, %139
  br i1 %cmp.i.i.i.i.i.i739, label %_ZNKSt7__cxx1112basic_stringIcSt11char_traitsIcESaIcEE11_M_is_localEv.exit.thread.i.i.i.i.i742, label %if.then.i.i.i.i.i740

_ZNKSt7__cxx1112basic_stringIcSt11char_traitsIcESaIcEE11_M_is_localEv.exit.thread.i.i.i.i.i742: ; preds = %delete.notnull.i.i.i738
  %_M_string_length.i.i.i.i.i.i743 = getelementptr inbounds i8, ptr %137, i64 8
  %140 = load i64, ptr %_M_string_length.i.i.i.i.i.i743, align 8, !tbaa !57
  %cmp3.i.i.i.i.i.i744 = icmp ult i64 %140, 16
  call void @llvm.assume(i1 %cmp3.i.i.i.i.i.i744)
  br label %_ZNKSt14default_deleteINSt7__cxx1112basic_stringIcSt11char_traitsIcESaIcEEEEclEPS5_.exit.i.i741

if.then.i.i.i.i.i740:                             ; preds = %delete.notnull.i.i.i738
  call void @_ZdlPv(ptr noundef %138) #23
  br label %_ZNKSt14default_deleteINSt7__cxx1112basic_stringIcSt11char_traitsIcESaIcEEEEclEPS5_.exit.i.i741

_ZNKSt14default_deleteINSt7__cxx1112basic_stringIcSt11char_traitsIcESaIcEEEEclEPS5_.exit.i.i741: ; preds = %if.then.i.i.i.i.i740, %_ZNKSt7__cxx1112basic_stringIcSt11char_traitsIcESaIcEE11_M_is_localEv.exit.thread.i.i.i.i.i742
  call void @_ZdlPv(ptr noundef nonnull %137) #23
  br label %invoke.cont260

invoke.cont260:                                   ; preds = %_ZNKSt14default_deleteINSt7__cxx1112basic_stringIcSt11char_traitsIcESaIcEEEEclEPS5_.exit.i.i741, %cleanup.cont255.critedge
  call void @llvm.lifetime.end.p0(i64 16, ptr nonnull %gtest_ar221) #21
  call void @llvm.lifetime.start.p0(i64 16, ptr nonnull %gtest_ar257) #21
  call void @llvm.lifetime.start.p0(i64 8, ptr nonnull %ref.tmp258) #21
  %call.i746 = call noundef ptr @_ZNK4entt8meta_any8try_castIiEEPKT_v(ptr noundef nonnull align 8 dereferenceable(168) %cvalue)
  store ptr %call.i746, ptr %ref.tmp258, align 8, !tbaa !58
  call void @llvm.lifetime.start.p0(i64 8, ptr nonnull %ref.tmp262) #21
  store ptr null, ptr %ref.tmp262, align 8, !tbaa !65
  %cmp.not.i747 = icmp eq ptr %call.i746, null
  br i1 %cmp.not.i747, label %if.else.i749, label %if.then.i748

if.then.i748:                                     ; preds = %invoke.cont260
  invoke void @_ZN7testing16AssertionSuccessEv(ptr nonnull sret(%"class.testing::AssertionResult") align 8 %gtest_ar257)
          to label %invoke.cont264 unwind label %lpad263

if.else.i749:                                     ; preds = %invoke.cont260
  invoke void @_ZN7testing8internal18CmpHelperOpFailureIPKiDnEENS_15AssertionResultEPKcS6_RKT_RKT0_S6_(ptr nonnull sret(%"class.testing::AssertionResult") align 8 %gtest_ar257, ptr noundef nonnull @.str.15, ptr noundef nonnull @.str.12, ptr noundef nonnull align 8 dereferenceable(8) %ref.tmp258, ptr noundef nonnull align 8 dereferenceable(8) %ref.tmp262, ptr noundef nonnull @.str.76)
          to label %invoke.cont264 unwind label %lpad263

invoke.cont264:                                   ; preds = %if.else.i749, %if.then.i748
  call void @llvm.lifetime.end.p0(i64 8, ptr nonnull %ref.tmp262) #21
  call void @llvm.lifetime.end.p0(i64 8, ptr nonnull %ref.tmp258) #21
  %141 = load i8, ptr %gtest_ar257, align 8, !tbaa !44, !range !59, !noundef !60
  %tobool.i753.not = icmp eq i8 %141, 0
  br i1 %tobool.i753.not, label %if.else271, label %cleanup.cont291.critedge

ehcleanup256:                                     ; preds = %ehcleanup249, %lpad227
  %.pn415.pn.pn = phi { ptr, i32 } [ %.pn415.pn, %ehcleanup249 ], [ %123, %lpad227 ]
  call void @llvm.lifetime.end.p0(i64 16, ptr nonnull %gtest_ar221) #21
  br label %ehcleanup356

lpad263:                                          ; preds = %if.else.i749, %if.then.i748
  %142 = landingpad { ptr, i32 }
          cleanup
  call void @llvm.lifetime.end.p0(i64 8, ptr nonnull %ref.tmp262) #21
  call void @llvm.lifetime.end.p0(i64 8, ptr nonnull %ref.tmp258) #21
  br label %ehcleanup292

if.else271:                                       ; preds = %invoke.cont264
  call void @llvm.lifetime.start.p0(i64 8, ptr nonnull %ref.tmp272) #21
  invoke void @_ZN7testing7MessageC1Ev(ptr noundef nonnull align 8 dereferenceable(8) %ref.tmp272)
          to label %invoke.cont274 unwind label %lpad273

invoke.cont274:                                   ; preds = %if.else271
  call void @llvm.lifetime.start.p0(i64 8, ptr nonnull %ref.tmp275) #21
  %message_.i.i754 = getelementptr inbounds i8, ptr %gtest_ar257, i64 8
  %143 = load ptr, ptr %message_.i.i754, align 8, !tbaa !58
  %cmp.not.i.i755 = icmp eq ptr %143, null
  br i1 %cmp.not.i.i755, label %invoke.cont277, label %cond.true.i.i756

cond.true.i.i756:                                 ; preds = %invoke.cont274
  %144 = load ptr, ptr %143, align 8, !tbaa !54
  br label %invoke.cont277

invoke.cont277:                                   ; preds = %cond.true.i.i756, %invoke.cont274
  %cond.i.i757 = phi ptr [ %144, %cond.true.i.i756 ], [ @.str.52, %invoke.cont274 ]
  invoke void @_ZN7testing8internal12AssertHelperC1ENS_14TestPartResult4TypeEPKciS5_(ptr noundef nonnull align 8 dereferenceable(8) %ref.tmp275, i32 noundef 2, ptr noundef nonnull @.str.3, i32 noundef 65, ptr noundef %cond.i.i757)
          to label %invoke.cont279 unwind label %lpad276

invoke.cont279:                                   ; preds = %invoke.cont277
  invoke void @_ZNK7testing8internal12AssertHelperaSERKNS_7MessageE(ptr noundef nonnull align 8 dereferenceable(8) %ref.tmp275, ptr noundef nonnull align 8 dereferenceable(8) %ref.tmp272)
          to label %invoke.cont281 unwind label %lpad280

invoke.cont281:                                   ; preds = %invoke.cont279
  call void @_ZN7testing8internal12AssertHelperD1Ev(ptr noundef nonnull align 8 dereferenceable(8) %ref.tmp275) #21
  call void @llvm.lifetime.end.p0(i64 8, ptr nonnull %ref.tmp275) #21
  %145 = load ptr, ptr %ref.tmp272, align 8, !tbaa !58
  %cmp.not.i.i759 = icmp eq ptr %145, null
  br i1 %cmp.not.i.i759, label %_ZN7testing7MessageD2Ev.exit763, label %_ZNKSt14default_deleteINSt7__cxx1118basic_stringstreamIcSt11char_traitsIcESaIcEEEEclEPS5_.exit.i.i760

_ZNKSt14default_deleteINSt7__cxx1118basic_stringstreamIcSt11char_traitsIcESaIcEEEEclEPS5_.exit.i.i760: ; preds = %invoke.cont281
  %vtable.i.i.i761 = load ptr, ptr %145, align 8, !tbaa !4
  %vfn.i.i.i762 = getelementptr inbounds i8, ptr %vtable.i.i.i761, i64 8
  %146 = load ptr, ptr %vfn.i.i.i762, align 8
  call void %146(ptr noundef nonnull align 8 dereferenceable(128) %145) #21
  br label %_ZN7testing7MessageD2Ev.exit763

_ZN7testing7MessageD2Ev.exit763:                  ; preds = %_ZNKSt14default_deleteINSt7__cxx1118basic_stringstreamIcSt11char_traitsIcESaIcEEEEclEPS5_.exit.i.i760, %invoke.cont281
  call void @llvm.lifetime.end.p0(i64 8, ptr nonnull %ref.tmp272) #21
  %147 = load ptr, ptr %message_.i.i754, align 8, !tbaa !58
  %cmp.not.i.i765 = icmp eq ptr %147, null
  br i1 %cmp.not.i.i765, label %_ZN7testing15AssertionResultD2Ev.exit773, label %delete.notnull.i.i.i766

delete.notnull.i.i.i766:                          ; preds = %_ZN7testing7MessageD2Ev.exit763
  %148 = load ptr, ptr %147, align 8, !tbaa !54
  %149 = getelementptr inbounds i8, ptr %147, i64 16
  %cmp.i.i.i.i.i.i767 = icmp eq ptr %148, %149
  br i1 %cmp.i.i.i.i.i.i767, label %_ZNKSt7__cxx1112basic_stringIcSt11char_traitsIcESaIcEE11_M_is_localEv.exit.thread.i.i.i.i.i770, label %if.then.i.i.i.i.i768

_ZNKSt7__cxx1112basic_stringIcSt11char_traitsIcESaIcEE11_M_is_localEv.exit.thread.i.i.i.i.i770: ; preds = %delete.notnull.i.i.i766
  %_M_string_length.i.i.i.i.i.i771 = getelementptr inbounds i8, ptr %147, i64 8
  %150 = load i64, ptr %_M_string_length.i.i.i.i.i.i771, align 8, !tbaa !57
  %cmp3.i.i.i.i.i.i772 = icmp ult i64 %150, 16
  call void @llvm.assume(i1 %cmp3.i.i.i.i.i.i772)
  br label %_ZNKSt14default_deleteINSt7__cxx1112basic_stringIcSt11char_traitsIcESaIcEEEEclEPS5_.exit.i.i769

if.then.i.i.i.i.i768:                             ; preds = %delete.notnull.i.i.i766
  call void @_ZdlPv(ptr noundef %148) #23
  br label %_ZNKSt14default_deleteINSt7__cxx1112basic_stringIcSt11char_traitsIcESaIcEEEEclEPS5_.exit.i.i769

_ZNKSt14default_deleteINSt7__cxx1112basic_stringIcSt11char_traitsIcESaIcEEEEclEPS5_.exit.i.i769: ; preds = %if.then.i.i.i.i.i768, %_ZNKSt7__cxx1112basic_stringIcSt11char_traitsIcESaIcEE11_M_is_localEv.exit.thread.i.i.i.i.i770
  call void @_ZdlPv(ptr noundef nonnull %147) #23
  br label %_ZN7testing15AssertionResultD2Ev.exit773

_ZN7testing15AssertionResultD2Ev.exit773:         ; preds = %_ZNKSt14default_deleteINSt7__cxx1112basic_stringIcSt11char_traitsIcESaIcEEEEclEPS5_.exit.i.i769, %_ZN7testing7MessageD2Ev.exit763
  call void @llvm.lifetime.end.p0(i64 16, ptr nonnull %gtest_ar257) #21
  br label %cleanup355

lpad273:                                          ; preds = %if.else271
  %151 = landingpad { ptr, i32 }
          cleanup
  br label %ehcleanup285

lpad276:                                          ; preds = %invoke.cont277
  %152 = landingpad { ptr, i32 }
          cleanup
  br label %ehcleanup283

lpad280:                                          ; preds = %invoke.cont279
  %153 = landingpad { ptr, i32 }
          cleanup
  call void @_ZN7testing8internal12AssertHelperD1Ev(ptr noundef nonnull align 8 dereferenceable(8) %ref.tmp275) #21
  br label %ehcleanup283

ehcleanup283:                                     ; preds = %lpad280, %lpad276
  %.pn421 = phi { ptr, i32 } [ %153, %lpad280 ], [ %152, %lpad276 ]
  call void @llvm.lifetime.end.p0(i64 8, ptr nonnull %ref.tmp275) #21
  %154 = load ptr, ptr %ref.tmp272, align 8, !tbaa !58
  %cmp.not.i.i774 = icmp eq ptr %154, null
  br i1 %cmp.not.i.i774, label %ehcleanup285, label %_ZNKSt14default_deleteINSt7__cxx1118basic_stringstreamIcSt11char_traitsIcESaIcEEEEclEPS5_.exit.i.i775

_ZNKSt14default_deleteINSt7__cxx1118basic_stringstreamIcSt11char_traitsIcESaIcEEEEclEPS5_.exit.i.i775: ; preds = %ehcleanup283
  %vtable.i.i.i776 = load ptr, ptr %154, align 8, !tbaa !4
  %vfn.i.i.i777 = getelementptr inbounds i8, ptr %vtable.i.i.i776, i64 8
  %155 = load ptr, ptr %vfn.i.i.i777, align 8
  call void %155(ptr noundef nonnull align 8 dereferenceable(128) %154) #21
  br label %ehcleanup285

ehcleanup285:                                     ; preds = %_ZNKSt14default_deleteINSt7__cxx1118basic_stringstreamIcSt11char_traitsIcESaIcEEEEclEPS5_.exit.i.i775, %ehcleanup283, %lpad273
  %.pn421.pn = phi { ptr, i32 } [ %151, %lpad273 ], [ %.pn421, %ehcleanup283 ], [ %.pn421, %_ZNKSt14default_deleteINSt7__cxx1118basic_stringstreamIcSt11char_traitsIcESaIcEEEEclEPS5_.exit.i.i775 ]
  call void @llvm.lifetime.end.p0(i64 8, ptr nonnull %ref.tmp272) #21
  call void @_ZN7testing15AssertionResultD2Ev(ptr noundef nonnull align 8 dereferenceable(16) %gtest_ar257) #21
  br label %ehcleanup292

cleanup.cont291.critedge:                         ; preds = %invoke.cont264
  %message_.i779 = getelementptr inbounds i8, ptr %gtest_ar257, i64 8
  %156 = load ptr, ptr %message_.i779, align 8, !tbaa !58
  %cmp.not.i.i780 = icmp eq ptr %156, null
  br i1 %cmp.not.i.i780, label %cleanup.cont291, label %delete.notnull.i.i.i781

delete.notnull.i.i.i781:                          ; preds = %cleanup.cont291.critedge
  %157 = load ptr, ptr %156, align 8, !tbaa !54
  %158 = getelementptr inbounds i8, ptr %156, i64 16
  %cmp.i.i.i.i.i.i782 = icmp eq ptr %157, %158
  br i1 %cmp.i.i.i.i.i.i782, label %_ZNKSt7__cxx1112basic_stringIcSt11char_traitsIcESaIcEE11_M_is_localEv.exit.thread.i.i.i.i.i785, label %if.then.i.i.i.i.i783

_ZNKSt7__cxx1112basic_stringIcSt11char_traitsIcESaIcEE11_M_is_localEv.exit.thread.i.i.i.i.i785: ; preds = %delete.notnull.i.i.i781
  %_M_string_length.i.i.i.i.i.i786 = getelementptr inbounds i8, ptr %156, i64 8
  %159 = load i64, ptr %_M_string_length.i.i.i.i.i.i786, align 8, !tbaa !57
  %cmp3.i.i.i.i.i.i787 = icmp ult i64 %159, 16
  call void @llvm.assume(i1 %cmp3.i.i.i.i.i.i787)
  br label %_ZNKSt14default_deleteINSt7__cxx1112basic_stringIcSt11char_traitsIcESaIcEEEEclEPS5_.exit.i.i784

if.then.i.i.i.i.i783:                             ; preds = %delete.notnull.i.i.i781
  call void @_ZdlPv(ptr noundef %157) #23
  br label %_ZNKSt14default_deleteINSt7__cxx1112basic_stringIcSt11char_traitsIcESaIcEEEEclEPS5_.exit.i.i784

_ZNKSt14default_deleteINSt7__cxx1112basic_stringIcSt11char_traitsIcESaIcEEEEclEPS5_.exit.i.i784: ; preds = %if.then.i.i.i.i.i783, %_ZNKSt7__cxx1112basic_stringIcSt11char_traitsIcESaIcEE11_M_is_localEv.exit.thread.i.i.i.i.i785
  call void @_ZdlPv(ptr noundef nonnull %156) #23
  br label %cleanup.cont291

cleanup.cont291:                                  ; preds = %_ZNKSt14default_deleteINSt7__cxx1112basic_stringIcSt11char_traitsIcESaIcEEEEclEPS5_.exit.i.i784, %cleanup.cont291.critedge
  call void @llvm.lifetime.end.p0(i64 16, ptr nonnull %gtest_ar257) #21
  call void @llvm.lifetime.start.p0(i64 16, ptr nonnull %gtest_ar293) #21
  call void @llvm.lifetime.start.p0(i64 4, ptr nonnull %ref.tmp294) #21
  store i32 42, ptr %ref.tmp294, align 4, !tbaa !37
  invoke void @_ZN7testing8internal11CmpHelperEQIN4entt8meta_anyEiEENS_15AssertionResultEPKcS6_RKT_RKT0_(ptr nonnull sret(%"class.testing::AssertionResult") align 8 %gtest_ar293, ptr noundef nonnull @.str.16, ptr noundef nonnull @.str.17, ptr noundef nonnull align 8 dereferenceable(168) %value, ptr noundef nonnull align 4 dereferenceable(4) %ref.tmp294)
          to label %invoke.cont296 unwind label %lpad295

invoke.cont296:                                   ; preds = %cleanup.cont291
  call void @llvm.lifetime.end.p0(i64 4, ptr nonnull %ref.tmp294) #21
  %160 = load i8, ptr %gtest_ar293, align 8, !tbaa !44, !range !59, !noundef !60
  %tobool.i790.not = icmp eq i8 %160, 0
  br i1 %tobool.i790.not, label %if.else302, label %cleanup.cont322.critedge

ehcleanup292:                                     ; preds = %ehcleanup285, %lpad263
  %.pn421.pn.pn = phi { ptr, i32 } [ %.pn421.pn, %ehcleanup285 ], [ %142, %lpad263 ]
  call void @llvm.lifetime.end.p0(i64 16, ptr nonnull %gtest_ar257) #21
  br label %ehcleanup356

lpad295:                                          ; preds = %cleanup.cont291
  %161 = landingpad { ptr, i32 }
          cleanup
  call void @llvm.lifetime.end.p0(i64 4, ptr nonnull %ref.tmp294) #21
  br label %ehcleanup323

if.else302:                                       ; preds = %invoke.cont296
  call void @llvm.lifetime.start.p0(i64 8, ptr nonnull %ref.tmp303) #21
  invoke void @_ZN7testing7MessageC1Ev(ptr noundef nonnull align 8 dereferenceable(8) %ref.tmp303)
          to label %invoke.cont305 unwind label %lpad304

invoke.cont305:                                   ; preds = %if.else302
  call void @llvm.lifetime.start.p0(i64 8, ptr nonnull %ref.tmp306) #21
  %message_.i.i791 = getelementptr inbounds i8, ptr %gtest_ar293, i64 8
  %162 = load ptr, ptr %message_.i.i791, align 8, !tbaa !58
  %cmp.not.i.i792 = icmp eq ptr %162, null
  br i1 %cmp.not.i.i792, label %invoke.cont308, label %cond.true.i.i793

cond.true.i.i793:                                 ; preds = %invoke.cont305
  %163 = load ptr, ptr %162, align 8, !tbaa !54
  br label %invoke.cont308

invoke.cont308:                                   ; preds = %cond.true.i.i793, %invoke.cont305
  %cond.i.i794 = phi ptr [ %163, %cond.true.i.i793 ], [ @.str.52, %invoke.cont305 ]
  invoke void @_ZN7testing8internal12AssertHelperC1ENS_14TestPartResult4TypeEPKciS5_(ptr noundef nonnull align 8 dereferenceable(8) %ref.tmp306, i32 noundef 2, ptr noundef nonnull @.str.3, i32 noundef 67, ptr noundef %cond.i.i794)
          to label %invoke.cont310 unwind label %lpad307

invoke.cont310:                                   ; preds = %invoke.cont308
  invoke void @_ZNK7testing8internal12AssertHelperaSERKNS_7MessageE(ptr noundef nonnull align 8 dereferenceable(8) %ref.tmp306, ptr noundef nonnull align 8 dereferenceable(8) %ref.tmp303)
          to label %invoke.cont312 unwind label %lpad311

invoke.cont312:                                   ; preds = %invoke.cont310
  call void @_ZN7testing8internal12AssertHelperD1Ev(ptr noundef nonnull align 8 dereferenceable(8) %ref.tmp306) #21
  call void @llvm.lifetime.end.p0(i64 8, ptr nonnull %ref.tmp306) #21
  %164 = load ptr, ptr %ref.tmp303, align 8, !tbaa !58
  %cmp.not.i.i796 = icmp eq ptr %164, null
  br i1 %cmp.not.i.i796, label %_ZN7testing7MessageD2Ev.exit800, label %_ZNKSt14default_deleteINSt7__cxx1118basic_stringstreamIcSt11char_traitsIcESaIcEEEEclEPS5_.exit.i.i797

_ZNKSt14default_deleteINSt7__cxx1118basic_stringstreamIcSt11char_traitsIcESaIcEEEEclEPS5_.exit.i.i797: ; preds = %invoke.cont312
  %vtable.i.i.i798 = load ptr, ptr %164, align 8, !tbaa !4
  %vfn.i.i.i799 = getelementptr inbounds i8, ptr %vtable.i.i.i798, i64 8
  %165 = load ptr, ptr %vfn.i.i.i799, align 8
  call void %165(ptr noundef nonnull align 8 dereferenceable(128) %164) #21
  br label %_ZN7testing7MessageD2Ev.exit800

_ZN7testing7MessageD2Ev.exit800:                  ; preds = %_ZNKSt14default_deleteINSt7__cxx1118basic_stringstreamIcSt11char_traitsIcESaIcEEEEclEPS5_.exit.i.i797, %invoke.cont312
  call void @llvm.lifetime.end.p0(i64 8, ptr nonnull %ref.tmp303) #21
  %166 = load ptr, ptr %message_.i.i791, align 8, !tbaa !58
  %cmp.not.i.i802 = icmp eq ptr %166, null
  br i1 %cmp.not.i.i802, label %_ZN7testing15AssertionResultD2Ev.exit810, label %delete.notnull.i.i.i803

delete.notnull.i.i.i803:                          ; preds = %_ZN7testing7MessageD2Ev.exit800
  %167 = load ptr, ptr %166, align 8, !tbaa !54
  %168 = getelementptr inbounds i8, ptr %166, i64 16
  %cmp.i.i.i.i.i.i804 = icmp eq ptr %167, %168
  br i1 %cmp.i.i.i.i.i.i804, label %_ZNKSt7__cxx1112basic_stringIcSt11char_traitsIcESaIcEE11_M_is_localEv.exit.thread.i.i.i.i.i807, label %if.then.i.i.i.i.i805

_ZNKSt7__cxx1112basic_stringIcSt11char_traitsIcESaIcEE11_M_is_localEv.exit.thread.i.i.i.i.i807: ; preds = %delete.notnull.i.i.i803
  %_M_string_length.i.i.i.i.i.i808 = getelementptr inbounds i8, ptr %166, i64 8
  %169 = load i64, ptr %_M_string_length.i.i.i.i.i.i808, align 8, !tbaa !57
  %cmp3.i.i.i.i.i.i809 = icmp ult i64 %169, 16
  call void @llvm.assume(i1 %cmp3.i.i.i.i.i.i809)
  br label %_ZNKSt14default_deleteINSt7__cxx1112basic_stringIcSt11char_traitsIcESaIcEEEEclEPS5_.exit.i.i806

if.then.i.i.i.i.i805:                             ; preds = %delete.notnull.i.i.i803
  call void @_ZdlPv(ptr noundef %167) #23
  br label %_ZNKSt14default_deleteINSt7__cxx1112basic_stringIcSt11char_traitsIcESaIcEEEEclEPS5_.exit.i.i806

_ZNKSt14default_deleteINSt7__cxx1112basic_stringIcSt11char_traitsIcESaIcEEEEclEPS5_.exit.i.i806: ; preds = %if.then.i.i.i.i.i805, %_ZNKSt7__cxx1112basic_stringIcSt11char_traitsIcESaIcEE11_M_is_localEv.exit.thread.i.i.i.i.i807
  call void @_ZdlPv(ptr noundef nonnull %166) #23
  br label %_ZN7testing15AssertionResultD2Ev.exit810

_ZN7testing15AssertionResultD2Ev.exit810:         ; preds = %_ZNKSt14default_deleteINSt7__cxx1112basic_stringIcSt11char_traitsIcESaIcEEEEclEPS5_.exit.i.i806, %_ZN7testing7MessageD2Ev.exit800
  call void @llvm.lifetime.end.p0(i64 16, ptr nonnull %gtest_ar293) #21
  br label %cleanup355

lpad304:                                          ; preds = %if.else302
  %170 = landingpad { ptr, i32 }
          cleanup
  br label %ehcleanup316

lpad307:                                          ; preds = %invoke.cont308
  %171 = landingpad { ptr, i32 }
          cleanup
  br label %ehcleanup314

lpad311:                                          ; preds = %invoke.cont310
  %172 = landingpad { ptr, i32 }
          cleanup
  call void @_ZN7testing8internal12AssertHelperD1Ev(ptr noundef nonnull align 8 dereferenceable(8) %ref.tmp306) #21
  br label %ehcleanup314

ehcleanup314:                                     ; preds = %lpad311, %lpad307
  %.pn425 = phi { ptr, i32 } [ %172, %lpad311 ], [ %171, %lpad307 ]
  call void @llvm.lifetime.end.p0(i64 8, ptr nonnull %ref.tmp306) #21
  %173 = load ptr, ptr %ref.tmp303, align 8, !tbaa !58
  %cmp.not.i.i811 = icmp eq ptr %173, null
  br i1 %cmp.not.i.i811, label %ehcleanup316, label %_ZNKSt14default_deleteINSt7__cxx1118basic_stringstreamIcSt11char_traitsIcESaIcEEEEclEPS5_.exit.i.i812

_ZNKSt14default_deleteINSt7__cxx1118basic_stringstreamIcSt11char_traitsIcESaIcEEEEclEPS5_.exit.i.i812: ; preds = %ehcleanup314
  %vtable.i.i.i813 = load ptr, ptr %173, align 8, !tbaa !4
  %vfn.i.i.i814 = getelementptr inbounds i8, ptr %vtable.i.i.i813, i64 8
  %174 = load ptr, ptr %vfn.i.i.i814, align 8
  call void %174(ptr noundef nonnull align 8 dereferenceable(128) %173) #21
  br label %ehcleanup316

ehcleanup316:                                     ; preds = %_ZNKSt14default_deleteINSt7__cxx1118basic_stringstreamIcSt11char_traitsIcESaIcEEEEclEPS5_.exit.i.i812, %ehcleanup314, %lpad304
  %.pn425.pn = phi { ptr, i32 } [ %170, %lpad304 ], [ %.pn425, %ehcleanup314 ], [ %.pn425, %_ZNKSt14default_deleteINSt7__cxx1118basic_stringstreamIcSt11char_traitsIcESaIcEEEEclEPS5_.exit.i.i812 ]
  call void @llvm.lifetime.end.p0(i64 8, ptr nonnull %ref.tmp303) #21
  call void @_ZN7testing15AssertionResultD2Ev(ptr noundef nonnull align 8 dereferenceable(16) %gtest_ar293) #21
  br label %ehcleanup323

cleanup.cont322.critedge:                         ; preds = %invoke.cont296
  %message_.i816 = getelementptr inbounds i8, ptr %gtest_ar293, i64 8
  %175 = load ptr, ptr %message_.i816, align 8, !tbaa !58
  %cmp.not.i.i817 = icmp eq ptr %175, null
  br i1 %cmp.not.i.i817, label %cleanup.cont322, label %delete.notnull.i.i.i818

delete.notnull.i.i.i818:                          ; preds = %cleanup.cont322.critedge
  %176 = load ptr, ptr %175, align 8, !tbaa !54
  %177 = getelementptr inbounds i8, ptr %175, i64 16
  %cmp.i.i.i.i.i.i819 = icmp eq ptr %176, %177
  br i1 %cmp.i.i.i.i.i.i819, label %_ZNKSt7__cxx1112basic_stringIcSt11char_traitsIcESaIcEE11_M_is_localEv.exit.thread.i.i.i.i.i822, label %if.then.i.i.i.i.i820

_ZNKSt7__cxx1112basic_stringIcSt11char_traitsIcESaIcEE11_M_is_localEv.exit.thread.i.i.i.i.i822: ; preds = %delete.notnull.i.i.i818
  %_M_string_length.i.i.i.i.i.i823 = getelementptr inbounds i8, ptr %175, i64 8
  %178 = load i64, ptr %_M_string_length.i.i.i.i.i.i823, align 8, !tbaa !57
  %cmp3.i.i.i.i.i.i824 = icmp ult i64 %178, 16
  call void @llvm.assume(i1 %cmp3.i.i.i.i.i.i824)
  br label %_ZNKSt14default_deleteINSt7__cxx1112basic_stringIcSt11char_traitsIcESaIcEEEEclEPS5_.exit.i.i821

if.then.i.i.i.i.i820:                             ; preds = %delete.notnull.i.i.i818
  call void @_ZdlPv(ptr noundef %176) #23
  br label %_ZNKSt14default_deleteINSt7__cxx1112basic_stringIcSt11char_traitsIcESaIcEEEEclEPS5_.exit.i.i821

_ZNKSt14default_deleteINSt7__cxx1112basic_stringIcSt11char_traitsIcESaIcEEEEclEPS5_.exit.i.i821: ; preds = %if.then.i.i.i.i.i820, %_ZNKSt7__cxx1112basic_stringIcSt11char_traitsIcESaIcEE11_M_is_localEv.exit.thread.i.i.i.i.i822
  call void @_ZdlPv(ptr noundef nonnull %175) #23
  br label %cleanup.cont322

cleanup.cont322:                                  ; preds = %_ZNKSt14default_deleteINSt7__cxx1112basic_stringIcSt11char_traitsIcESaIcEEEEclEPS5_.exit.i.i821, %cleanup.cont322.critedge
  call void @llvm.lifetime.end.p0(i64 16, ptr nonnull %gtest_ar293) #21
  call void @llvm.lifetime.start.p0(i64 16, ptr nonnull %gtest_ar324) #21
  call void @llvm.lifetime.start.p0(i64 4, ptr nonnull %ref.tmp325) #21
  store i32 42, ptr %ref.tmp325, align 4, !tbaa !37
  invoke void @_ZN7testing8internal11CmpHelperEQIN4entt8meta_anyEiEENS_15AssertionResultEPKcS6_RKT_RKT0_(ptr nonnull sret(%"class.testing::AssertionResult") align 8 %gtest_ar324, ptr noundef nonnull @.str.18, ptr noundef nonnull @.str.17, ptr noundef nonnull align 8 dereferenceable(168) %cvalue, ptr noundef nonnull align 4 dereferenceable(4) %ref.tmp325)
          to label %invoke.cont327 unwind label %lpad326

invoke.cont327:                                   ; preds = %cleanup.cont322
  call void @llvm.lifetime.end.p0(i64 4, ptr nonnull %ref.tmp325) #21
  %179 = load i8, ptr %gtest_ar324, align 8, !tbaa !44, !range !59, !noundef !60
  %tobool.i828.not = icmp eq i8 %179, 0
  br i1 %tobool.i828.not, label %if.else333, label %cleanup349

ehcleanup323:                                     ; preds = %ehcleanup316, %lpad295
  %.pn425.pn.pn = phi { ptr, i32 } [ %.pn425.pn, %ehcleanup316 ], [ %161, %lpad295 ]
  call void @llvm.lifetime.end.p0(i64 16, ptr nonnull %gtest_ar293) #21
  br label %ehcleanup356

lpad326:                                          ; preds = %cleanup.cont322
  %180 = landingpad { ptr, i32 }
          cleanup
  call void @llvm.lifetime.end.p0(i64 4, ptr nonnull %ref.tmp325) #21
  br label %ehcleanup354

if.else333:                                       ; preds = %invoke.cont327
  call void @llvm.lifetime.start.p0(i64 8, ptr nonnull %ref.tmp334) #21
  invoke void @_ZN7testing7MessageC1Ev(ptr noundef nonnull align 8 dereferenceable(8) %ref.tmp334)
          to label %invoke.cont336 unwind label %lpad335

invoke.cont336:                                   ; preds = %if.else333
  call void @llvm.lifetime.start.p0(i64 8, ptr nonnull %ref.tmp337) #21
  %message_.i.i829 = getelementptr inbounds i8, ptr %gtest_ar324, i64 8
  %181 = load ptr, ptr %message_.i.i829, align 8, !tbaa !58
  %cmp.not.i.i830 = icmp eq ptr %181, null
  br i1 %cmp.not.i.i830, label %invoke.cont339, label %cond.true.i.i831

cond.true.i.i831:                                 ; preds = %invoke.cont336
  %182 = load ptr, ptr %181, align 8, !tbaa !54
  br label %invoke.cont339

invoke.cont339:                                   ; preds = %cond.true.i.i831, %invoke.cont336
  %cond.i.i832 = phi ptr [ %182, %cond.true.i.i831 ], [ @.str.52, %invoke.cont336 ]
  invoke void @_ZN7testing8internal12AssertHelperC1ENS_14TestPartResult4TypeEPKciS5_(ptr noundef nonnull align 8 dereferenceable(8) %ref.tmp337, i32 noundef 2, ptr noundef nonnull @.str.3, i32 noundef 68, ptr noundef %cond.i.i832)
          to label %invoke.cont341 unwind label %lpad338

invoke.cont341:                                   ; preds = %invoke.cont339
  invoke void @_ZNK7testing8internal12AssertHelperaSERKNS_7MessageE(ptr noundef nonnull align 8 dereferenceable(8) %ref.tmp337, ptr noundef nonnull align 8 dereferenceable(8) %ref.tmp334)
          to label %invoke.cont343 unwind label %lpad342

invoke.cont343:                                   ; preds = %invoke.cont341
  call void @_ZN7testing8internal12AssertHelperD1Ev(ptr noundef nonnull align 8 dereferenceable(8) %ref.tmp337) #21
  call void @llvm.lifetime.end.p0(i64 8, ptr nonnull %ref.tmp337) #21
  %183 = load ptr, ptr %ref.tmp334, align 8, !tbaa !58
  %cmp.not.i.i834 = icmp eq ptr %183, null
  br i1 %cmp.not.i.i834, label %_ZN7testing7MessageD2Ev.exit838, label %_ZNKSt14default_deleteINSt7__cxx1118basic_stringstreamIcSt11char_traitsIcESaIcEEEEclEPS5_.exit.i.i835

_ZNKSt14default_deleteINSt7__cxx1118basic_stringstreamIcSt11char_traitsIcESaIcEEEEclEPS5_.exit.i.i835: ; preds = %invoke.cont343
  %vtable.i.i.i836 = load ptr, ptr %183, align 8, !tbaa !4
  %vfn.i.i.i837 = getelementptr inbounds i8, ptr %vtable.i.i.i836, i64 8
  %184 = load ptr, ptr %vfn.i.i.i837, align 8
  call void %184(ptr noundef nonnull align 8 dereferenceable(128) %183) #21
  br label %_ZN7testing7MessageD2Ev.exit838

_ZN7testing7MessageD2Ev.exit838:                  ; preds = %_ZNKSt14default_deleteINSt7__cxx1118basic_stringstreamIcSt11char_traitsIcESaIcEEEEclEPS5_.exit.i.i835, %invoke.cont343
  call void @llvm.lifetime.end.p0(i64 8, ptr nonnull %ref.tmp334) #21
  br label %cleanup349

lpad335:                                          ; preds = %if.else333
  %185 = landingpad { ptr, i32 }
          cleanup
  br label %ehcleanup347

lpad338:                                          ; preds = %invoke.cont339
  %186 = landingpad { ptr, i32 }
          cleanup
  br label %ehcleanup345

lpad342:                                          ; preds = %invoke.cont341
  %187 = landingpad { ptr, i32 }
          cleanup
  call void @_ZN7testing8internal12AssertHelperD1Ev(ptr noundef nonnull align 8 dereferenceable(8) %ref.tmp337) #21
  br label %ehcleanup345

ehcleanup345:                                     ; preds = %lpad342, %lpad338
  %.pn429 = phi { ptr, i32 } [ %187, %lpad342 ], [ %186, %lpad338 ]
  call void @llvm.lifetime.end.p0(i64 8, ptr nonnull %ref.tmp337) #21
  %188 = load ptr, ptr %ref.tmp334, align 8, !tbaa !58
  %cmp.not.i.i839 = icmp eq ptr %188, null
  br i1 %cmp.not.i.i839, label %ehcleanup347, label %_ZNKSt14default_deleteINSt7__cxx1118basic_stringstreamIcSt11char_traitsIcESaIcEEEEclEPS5_.exit.i.i840

_ZNKSt14default_deleteINSt7__cxx1118basic_stringstreamIcSt11char_traitsIcESaIcEEEEclEPS5_.exit.i.i840: ; preds = %ehcleanup345
  %vtable.i.i.i841 = load ptr, ptr %188, align 8, !tbaa !4
  %vfn.i.i.i842 = getelementptr inbounds i8, ptr %vtable.i.i.i841, i64 8
  %189 = load ptr, ptr %vfn.i.i.i842, align 8
  call void %189(ptr noundef nonnull align 8 dereferenceable(128) %188) #21
  br label %ehcleanup347

ehcleanup347:                                     ; preds = %_ZNKSt14default_deleteINSt7__cxx1118basic_stringstreamIcSt11char_traitsIcESaIcEEEEclEPS5_.exit.i.i840, %ehcleanup345, %lpad335
  %.pn429.pn = phi { ptr, i32 } [ %185, %lpad335 ], [ %.pn429, %ehcleanup345 ], [ %.pn429, %_ZNKSt14default_deleteINSt7__cxx1118basic_stringstreamIcSt11char_traitsIcESaIcEEEEclEPS5_.exit.i.i840 ]
  call void @llvm.lifetime.end.p0(i64 8, ptr nonnull %ref.tmp334) #21
  call void @_ZN7testing15AssertionResultD2Ev(ptr noundef nonnull align 8 dereferenceable(16) %gtest_ar324) #21
  br label %ehcleanup354

cleanup349:                                       ; preds = %_ZN7testing7MessageD2Ev.exit838, %invoke.cont327
  %message_.i844 = getelementptr inbounds i8, ptr %gtest_ar324, i64 8
  %190 = load ptr, ptr %message_.i844, align 8, !tbaa !58
  %cmp.not.i.i845 = icmp eq ptr %190, null
  br i1 %cmp.not.i.i845, label %_ZN7testing15AssertionResultD2Ev.exit853, label %delete.notnull.i.i.i846

delete.notnull.i.i.i846:                          ; preds = %cleanup349
  %191 = load ptr, ptr %190, align 8, !tbaa !54
  %192 = getelementptr inbounds i8, ptr %190, i64 16
  %cmp.i.i.i.i.i.i847 = icmp eq ptr %191, %192
  br i1 %cmp.i.i.i.i.i.i847, label %_ZNKSt7__cxx1112basic_stringIcSt11char_traitsIcESaIcEE11_M_is_localEv.exit.thread.i.i.i.i.i850, label %if.then.i.i.i.i.i848

_ZNKSt7__cxx1112basic_stringIcSt11char_traitsIcESaIcEE11_M_is_localEv.exit.thread.i.i.i.i.i850: ; preds = %delete.notnull.i.i.i846
  %_M_string_length.i.i.i.i.i.i851 = getelementptr inbounds i8, ptr %190, i64 8
  %193 = load i64, ptr %_M_string_length.i.i.i.i.i.i851, align 8, !tbaa !57
  %cmp3.i.i.i.i.i.i852 = icmp ult i64 %193, 16
  call void @llvm.assume(i1 %cmp3.i.i.i.i.i.i852)
  br label %_ZNKSt14default_deleteINSt7__cxx1112basic_stringIcSt11char_traitsIcESaIcEEEEclEPS5_.exit.i.i849

if.then.i.i.i.i.i848:                             ; preds = %delete.notnull.i.i.i846
  call void @_ZdlPv(ptr noundef %191) #23
  br label %_ZNKSt14default_deleteINSt7__cxx1112basic_stringIcSt11char_traitsIcESaIcEEEEclEPS5_.exit.i.i849

_ZNKSt14default_deleteINSt7__cxx1112basic_stringIcSt11char_traitsIcESaIcEEEEclEPS5_.exit.i.i849: ; preds = %if.then.i.i.i.i.i848, %_ZNKSt7__cxx1112basic_stringIcSt11char_traitsIcESaIcEE11_M_is_localEv.exit.thread.i.i.i.i.i850
  call void @_ZdlPv(ptr noundef nonnull %190) #23
  br label %_ZN7testing15AssertionResultD2Ev.exit853

_ZN7testing15AssertionResultD2Ev.exit853:         ; preds = %_ZNKSt14default_deleteINSt7__cxx1112basic_stringIcSt11char_traitsIcESaIcEEEEclEPS5_.exit.i.i849, %cleanup349
  call void @llvm.lifetime.end.p0(i64 16, ptr nonnull %gtest_ar324) #21
  br label %cleanup355

cleanup355:                                       ; preds = %_ZN7testing15AssertionResultD2Ev.exit853, %_ZN7testing15AssertionResultD2Ev.exit810, %_ZN7testing15AssertionResultD2Ev.exit773, %_ZN7testing15AssertionResultD2Ev.exit730, %_ZN7testing15AssertionResultD2Ev.exit689, %_ZN7testing15AssertionResultD2Ev.exit648
  call void @_ZN4entt8meta_anyD2Ev(ptr noundef nonnull align 8 dereferenceable(168) %cvalue) #21
  call void @llvm.lifetime.end.p0(i64 168, ptr nonnull %cvalue) #21
  call void @_ZN4entt8meta_anyD2Ev(ptr noundef nonnull align 8 dereferenceable(168) %value) #21
  call void @llvm.lifetime.end.p0(i64 168, ptr nonnull %value) #21
  br label %cleanup363

cleanup363:                                       ; preds = %cleanup355, %_ZN7testing15AssertionResultD2Ev.exit519, %_ZN7testing15AssertionResultD2Ev.exit479, %_ZN7testing15AssertionResultD2Ev.exit
  call void @llvm.lifetime.end.p0(i64 16, ptr nonnull %prop) #21
  ret void

ehcleanup354:                                     ; preds = %ehcleanup347, %lpad326
  %.pn429.pn.pn = phi { ptr, i32 } [ %.pn429.pn, %ehcleanup347 ], [ %180, %lpad326 ]
  call void @llvm.lifetime.end.p0(i64 16, ptr nonnull %gtest_ar324) #21
  br label %ehcleanup356

ehcleanup356:                                     ; preds = %ehcleanup354, %ehcleanup323, %ehcleanup292, %ehcleanup256, %ehcleanup220, %ehcleanup184
  %.pn429.pn.pn.pn = phi { ptr, i32 } [ %.pn429.pn.pn, %ehcleanup354 ], [ %.pn425.pn.pn, %ehcleanup323 ], [ %.pn421.pn.pn, %ehcleanup292 ], [ %.pn415.pn.pn, %ehcleanup256 ], [ %.pn409.pn.pn, %ehcleanup220 ], [ %.pn405.pn.pn, %ehcleanup184 ]
  call void @_ZN4entt8meta_anyD2Ev(ptr noundef nonnull align 8 dereferenceable(168) %cvalue) #21
  br label %ehcleanup358

ehcleanup358:                                     ; preds = %ehcleanup356, %lpad147
  %.pn429.pn.pn.pn.pn = phi { ptr, i32 } [ %.pn429.pn.pn.pn, %ehcleanup356 ], [ %84, %lpad147 ]
  call void @llvm.lifetime.end.p0(i64 168, ptr nonnull %cvalue) #21
  call void @_ZN4entt8meta_anyD2Ev(ptr noundef nonnull align 8 dereferenceable(168) %value) #21
  call void @llvm.lifetime.end.p0(i64 168, ptr nonnull %value) #21
  br label %ehcleanup366

ehcleanup366:                                     ; preds = %ehcleanup358, %ehcleanup72, %ehcleanup44, %ehcleanup22, %lpad
  %.pn429.pn.pn.pn.pn.pn = phi { ptr, i32 } [ %.pn429.pn.pn.pn.pn, %ehcleanup358 ], [ %.pn394.pn, %ehcleanup72 ], [ %.pn391.pn, %ehcleanup44 ], [ %.pn.pn.pn, %ehcleanup22 ], [ %25, %lpad ]
  call void @llvm.lifetime.end.p0(i64 16, ptr nonnull %prop) #21
  resume { ptr, i32 } %.pn429.pn.pn.pn.pn.pn
}

; Function Attrs: inlinehint mustprogress nounwind uwtable
define linkonce_odr hidden void @_ZN4entt9meta_typeD2Ev(ptr noundef nonnull align 8 dereferenceable(120) %this) unnamed_addr #7 comdat align 2 personality ptr @__gxx_personality_v0 {
entry:
  %_M_refcount.i.i = getelementptr inbounds i8, ptr %this, i64 104
  %0 = load ptr, ptr %_M_refcount.i.i, align 8, !tbaa !28
  %cmp.not.i.i.i = icmp eq ptr %0, null
  br i1 %cmp.not.i.i.i, label %_ZN4entt8internal14meta_type_nodeD2Ev.exit, label %if.then.i.i.i

if.then.i.i.i:                                    ; preds = %entry
  %_M_use_count.i.i.i.i = getelementptr inbounds i8, ptr %0, i64 8
  %1 = load atomic i64, ptr %_M_use_count.i.i.i.i acquire, align 8
  %cmp.i.i.i.i = icmp eq i64 %1, 4294967297
  %2 = trunc i64 %1 to i32
  br i1 %cmp.i.i.i.i, label %if.then.i.i.i.i, label %if.end.i.i.i.i

if.then.i.i.i.i:                                  ; preds = %if.then.i.i.i
  store i32 0, ptr %_M_use_count.i.i.i.i, align 8, !tbaa !38
  %_M_weak_count.i.i.i.i = getelementptr inbounds i8, ptr %0, i64 12
  store i32 0, ptr %_M_weak_count.i.i.i.i, align 4, !tbaa !40
  %vtable.i.i.i.i = load ptr, ptr %0, align 8, !tbaa !4
  %vfn.i.i.i.i = getelementptr inbounds i8, ptr %vtable.i.i.i.i, i64 16
  %3 = load ptr, ptr %vfn.i.i.i.i, align 8
  tail call void %3(ptr noundef nonnull align 8 dereferenceable(16) %0) #21
  %vtable3.i.i.i.i = load ptr, ptr %0, align 8, !tbaa !4
  %vfn4.i.i.i.i = getelementptr inbounds i8, ptr %vtable3.i.i.i.i, i64 24
  %4 = load ptr, ptr %vfn4.i.i.i.i, align 8
  tail call void %4(ptr noundef nonnull align 8 dereferenceable(16) %0) #21
  br label %_ZN4entt8internal14meta_type_nodeD2Ev.exit

if.end.i.i.i.i:                                   ; preds = %if.then.i.i.i
  %5 = load i8, ptr @__libc_single_threaded, align 1, !tbaa !36
  %tobool.i.i.not.i.i.i.i = icmp eq i8 %5, 0
  br i1 %tobool.i.i.not.i.i.i.i, label %if.else.i.i.i.i.i, label %if.then.i.i.i.i.i

if.then.i.i.i.i.i:                                ; preds = %if.end.i.i.i.i
  %add.i.i.i.i.i = add nsw i32 %2, -1
  store i32 %add.i.i.i.i.i, ptr %_M_use_count.i.i.i.i, align 4, !tbaa !37
  br label %invoke.cont.i.i.i.i

if.else.i.i.i.i.i:                                ; preds = %if.end.i.i.i.i
  %6 = atomicrmw volatile add ptr %_M_use_count.i.i.i.i, i32 -1 acq_rel, align 4
  br label %invoke.cont.i.i.i.i

invoke.cont.i.i.i.i:                              ; preds = %if.else.i.i.i.i.i, %if.then.i.i.i.i.i
  %retval.0.i.i.i.i.i = phi i32 [ %2, %if.then.i.i.i.i.i ], [ %6, %if.else.i.i.i.i.i ]
  %cmp6.i.i.i.i = icmp eq i32 %retval.0.i.i.i.i.i, 1
  br i1 %cmp6.i.i.i.i, label %if.then7.i.i.i.i, label %_ZN4entt8internal14meta_type_nodeD2Ev.exit, !prof !41

if.then7.i.i.i.i:                                 ; preds = %invoke.cont.i.i.i.i
  tail call void @_ZNSt16_Sp_counted_baseILN9__gnu_cxx12_Lock_policyE2EE24_M_release_last_use_coldEv(ptr noundef nonnull align 8 dereferenceable(16) %0) #21
  br label %_ZN4entt8internal14meta_type_nodeD2Ev.exit

_ZN4entt8internal14meta_type_nodeD2Ev.exit:       ; preds = %if.then7.i.i.i.i, %invoke.cont.i.i.i.i, %if.then.i.i.i.i, %entry
  ret void
}

declare void @_ZN7testing7MessageC1Ev(ptr noundef nonnull align 8 dereferenceable(8)) unnamed_addr #0

declare void @_ZN7testing8internal30GetBoolAssertionFailureMessageB5cxx11ERKNS_15AssertionResultEPKcS5_S5_(ptr sret(%"class.std::__cxx11::basic_string") align 8, ptr noundef nonnull align 8 dereferenceable(16), ptr noundef, ptr noundef, ptr noundef) local_unnamed_addr #0

declare void @_ZN7testing8internal12AssertHelperC1ENS_14TestPartResult4TypeEPKciS5_(ptr noundef nonnull align 8 dereferenceable(8), i32 noundef, ptr noundef, i32 noundef, ptr noundef) unnamed_addr #0

declare void @_ZNK7testing8internal12AssertHelperaSERKNS_7MessageE(ptr noundef nonnull align 8 dereferenceable(8), ptr noundef nonnull align 8 dereferenceable(8)) local_unnamed_addr #0

; Function Attrs: nounwind
declare void @_ZN7testing8internal12AssertHelperD1Ev(ptr noundef nonnull align 8 dereferenceable(8)) unnamed_addr #1

; Function Attrs: inlinehint mustprogress nounwind uwtable
define linkonce_odr dso_local void @_ZN7testing15AssertionResultD2Ev(ptr noundef nonnull align 8 dereferenceable(16) %this) unnamed_addr #7 comdat align 2 personality ptr @__gxx_personality_v0 {
entry:
  %message_ = getelementptr inbounds i8, ptr %this, i64 8
  %0 = load ptr, ptr %message_, align 8, !tbaa !58
  %cmp.not.i = icmp eq ptr %0, null
  br i1 %cmp.not.i, label %_ZNSt10unique_ptrINSt7__cxx1112basic_stringIcSt11char_traitsIcESaIcEEESt14default_deleteIS5_EED2Ev.exit, label %delete.notnull.i.i

delete.notnull.i.i:                               ; preds = %entry
  %1 = load ptr, ptr %0, align 8, !tbaa !54
  %2 = getelementptr inbounds i8, ptr %0, i64 16
  %cmp.i.i.i.i.i = icmp eq ptr %1, %2
  br i1 %cmp.i.i.i.i.i, label %_ZNKSt7__cxx1112basic_stringIcSt11char_traitsIcESaIcEE11_M_is_localEv.exit.thread.i.i.i.i, label %if.then.i.i.i.i

_ZNKSt7__cxx1112basic_stringIcSt11char_traitsIcESaIcEE11_M_is_localEv.exit.thread.i.i.i.i: ; preds = %delete.notnull.i.i
  %_M_string_length.i.i.i.i.i = getelementptr inbounds i8, ptr %0, i64 8
  %3 = load i64, ptr %_M_string_length.i.i.i.i.i, align 8, !tbaa !57
  %cmp3.i.i.i.i.i = icmp ult i64 %3, 16
  tail call void @llvm.assume(i1 %cmp3.i.i.i.i.i)
  br label %_ZNKSt14default_deleteINSt7__cxx1112basic_stringIcSt11char_traitsIcESaIcEEEEclEPS5_.exit.i

if.then.i.i.i.i:                                  ; preds = %delete.notnull.i.i
  tail call void @_ZdlPv(ptr noundef %1) #23
  br label %_ZNKSt14default_deleteINSt7__cxx1112basic_stringIcSt11char_traitsIcESaIcEEEEclEPS5_.exit.i

_ZNKSt14default_deleteINSt7__cxx1112basic_stringIcSt11char_traitsIcESaIcEEEEclEPS5_.exit.i: ; preds = %if.then.i.i.i.i, %_ZNKSt7__cxx1112basic_stringIcSt11char_traitsIcESaIcEE11_M_is_localEv.exit.thread.i.i.i.i
  tail call void @_ZdlPv(ptr noundef nonnull %0) #23
  br label %_ZNSt10unique_ptrINSt7__cxx1112basic_stringIcSt11char_traitsIcESaIcEEESt14default_deleteIS5_EED2Ev.exit

_ZNSt10unique_ptrINSt7__cxx1112basic_stringIcSt11char_traitsIcESaIcEEESt14default_deleteIS5_EED2Ev.exit: ; preds = %_ZNKSt14default_deleteINSt7__cxx1112basic_stringIcSt11char_traitsIcESaIcEEEEclEPS5_.exit.i, %entry
  store ptr null, ptr %message_, align 8, !tbaa !58
  ret void
}

; Function Attrs: mustprogress uwtable
define linkonce_odr hidden void @_ZN4entt9meta_prop5valueEv(ptr noalias sret(%"class.entt::meta_any") align 8 %agg.result, ptr noundef nonnull align 8 dereferenceable(16) %this) local_unnamed_addr #4 comdat align 2 personality ptr @__gxx_personality_v0 {
entry:
  %ref.tmp = alloca %"struct.entt::internal::meta_type_node", align 8
  %0 = load ptr, ptr %this, align 8, !tbaa !42
  %value = getelementptr inbounds i8, ptr %0, i64 8
  %1 = load ptr, ptr %value, align 8, !tbaa !67
  %cmp.i.not = icmp eq ptr %1, null
  br i1 %cmp.i.not, label %cond.false, label %cond.true

cond.true:                                        ; preds = %entry
  call void @llvm.lifetime.start.p0(i64 112, ptr nonnull %ref.tmp) #21
  %2 = load ptr, ptr %0, align 8, !tbaa !69
  %ctx = getelementptr inbounds i8, ptr %this, i64 8
  %3 = load ptr, ptr %ctx, align 8, !tbaa !61
  call void %2(ptr nonnull sret(%"struct.entt::internal::meta_type_node") align 8 %ref.tmp, ptr noundef nonnull align 8 dereferenceable(56) %3) #21
  %from_void = getelementptr inbounds i8, ptr %ref.tmp, i64 56
  %4 = load ptr, ptr %from_void, align 8, !tbaa !72
  %5 = load ptr, ptr %ctx, align 8, !tbaa !61
  %6 = load ptr, ptr %this, align 8, !tbaa !42
  %value7 = getelementptr inbounds i8, ptr %6, i64 8
  %7 = load ptr, ptr %value7, align 8, !tbaa !67
  invoke void %4(ptr sret(%"class.entt::meta_any") align 8 %agg.result, ptr noundef nonnull align 8 dereferenceable(56) %5, ptr noundef %7, ptr noundef null)
          to label %cleanup.action unwind label %lpad

cond.false:                                       ; preds = %entry
  %ctx9 = getelementptr inbounds i8, ptr %this, i64 8
  %8 = load ptr, ptr %ctx9, align 8, !tbaa !61
  store ptr null, ptr %agg.result, align 8, !tbaa !36
  %info.i.i.i = getelementptr inbounds i8, ptr %agg.result, i64 16
  tail call void @llvm.memset.p0.i64(ptr noundef nonnull align 8 dereferenceable(17) %info.i.i.i, i8 0, i64 17, i1 false)
  %9 = load atomic i8, ptr @_ZGVZN4entt7type_idIvEERKNS_9type_infoEvE8instance acquire, align 8
  %guard.uninitialized.i.i.i.i.i = icmp eq i8 %9, 0
  br i1 %guard.uninitialized.i.i.i.i.i, label %init.check.i.i.i.i.i, label %cond.end, !prof !73

init.check.i.i.i.i.i:                             ; preds = %cond.false
  %10 = tail call i32 @__cxa_guard_acquire(ptr nonnull @_ZGVZN4entt7type_idIvEERKNS_9type_infoEvE8instance) #21
  %tobool.not.i.i.i.i.i = icmp eq i32 %10, 0
  br i1 %tobool.not.i.i.i.i.i, label %cond.end, label %init.i.i.i.i.i

init.i.i.i.i.i:                                   ; preds = %init.check.i.i.i.i.i
  tail call void @_ZN4entt9type_infoC2IvEESt15in_place_type_tIT_E(ptr noundef nonnull align 8 dereferenceable(24) @_ZZN4entt7type_idIvEERKNS_9type_infoEvE8instance) #21
  tail call void @__cxa_guard_release(ptr nonnull @_ZGVZN4entt7type_idIvEERKNS_9type_infoEvE8instance) #21
  br label %cond.end

cond.end:                                         ; preds = %init.i.i.i.i.i, %init.check.i.i.i.i.i, %cond.false
  store ptr @_ZZN4entt7type_idIvEERKNS_9type_infoEvE8instance, ptr %info.i.i.i, align 8, !tbaa !74
  %ctx.i = getelementptr inbounds i8, ptr %agg.result, i64 40
  store ptr %8, ptr %ctx.i, align 8, !tbaa !77
  %node.i = getelementptr inbounds i8, ptr %agg.result, i64 48
  %vtable.i = getelementptr inbounds i8, ptr %agg.result, i64 160
  tail call void @llvm.memset.p0.i64(ptr noundef nonnull align 8 dereferenceable(112) %node.i, i8 0, i64 112, i1 false)
  store ptr @_ZN4entt8meta_any12basic_vtableIvEENSt9enable_ifIXsr3stdE9is_same_vINSt9remove_cvINSt16remove_referenceIT_E4typeEE4typeES5_EEvE4typeENS_8internal11meta_traitsEbPKvPv, ptr %vtable.i, align 8, !tbaa !79
  br label %cleanup.done15

cleanup.action:                                   ; preds = %cond.true
  %_M_refcount.i.i = getelementptr inbounds i8, ptr %ref.tmp, i64 104
  %11 = load ptr, ptr %_M_refcount.i.i, align 8, !tbaa !28
  %cmp.not.i.i.i = icmp eq ptr %11, null
  br i1 %cmp.not.i.i.i, label %_ZN4entt8internal14meta_type_nodeD2Ev.exit, label %if.then.i.i.i

if.then.i.i.i:                                    ; preds = %cleanup.action
  %_M_use_count.i.i.i.i = getelementptr inbounds i8, ptr %11, i64 8
  %12 = load atomic i64, ptr %_M_use_count.i.i.i.i acquire, align 8
  %cmp.i.i.i.i = icmp eq i64 %12, 4294967297
  %13 = trunc i64 %12 to i32
  br i1 %cmp.i.i.i.i, label %if.then.i.i.i.i, label %if.end.i.i.i.i

if.then.i.i.i.i:                                  ; preds = %if.then.i.i.i
  store i32 0, ptr %_M_use_count.i.i.i.i, align 8, !tbaa !38
  %_M_weak_count.i.i.i.i = getelementptr inbounds i8, ptr %11, i64 12
  store i32 0, ptr %_M_weak_count.i.i.i.i, align 4, !tbaa !40
  %vtable.i.i.i.i = load ptr, ptr %11, align 8, !tbaa !4
  %vfn.i.i.i.i = getelementptr inbounds i8, ptr %vtable.i.i.i.i, i64 16
  %14 = load ptr, ptr %vfn.i.i.i.i, align 8
  call void %14(ptr noundef nonnull align 8 dereferenceable(16) %11) #21
  %vtable3.i.i.i.i = load ptr, ptr %11, align 8, !tbaa !4
  %vfn4.i.i.i.i = getelementptr inbounds i8, ptr %vtable3.i.i.i.i, i64 24
  %15 = load ptr, ptr %vfn4.i.i.i.i, align 8
  call void %15(ptr noundef nonnull align 8 dereferenceable(16) %11) #21
  br label %_ZN4entt8internal14meta_type_nodeD2Ev.exit

if.end.i.i.i.i:                                   ; preds = %if.then.i.i.i
  %16 = load i8, ptr @__libc_single_threaded, align 1, !tbaa !36
  %tobool.i.i.not.i.i.i.i = icmp eq i8 %16, 0
  br i1 %tobool.i.i.not.i.i.i.i, label %if.else.i.i.i.i.i, label %if.then.i.i.i.i.i

if.then.i.i.i.i.i:                                ; preds = %if.end.i.i.i.i
  %add.i.i.i.i.i = add nsw i32 %13, -1
  store i32 %add.i.i.i.i.i, ptr %_M_use_count.i.i.i.i, align 4, !tbaa !37
  br label %invoke.cont.i.i.i.i

if.else.i.i.i.i.i:                                ; preds = %if.end.i.i.i.i
  %17 = atomicrmw volatile add ptr %_M_use_count.i.i.i.i, i32 -1 acq_rel, align 4
  br label %invoke.cont.i.i.i.i

invoke.cont.i.i.i.i:                              ; preds = %if.else.i.i.i.i.i, %if.then.i.i.i.i.i
  %retval.0.i.i.i.i.i = phi i32 [ %13, %if.then.i.i.i.i.i ], [ %17, %if.else.i.i.i.i.i ]
  %cmp6.i.i.i.i = icmp eq i32 %retval.0.i.i.i.i.i, 1
  br i1 %cmp6.i.i.i.i, label %if.then7.i.i.i.i, label %_ZN4entt8internal14meta_type_nodeD2Ev.exit, !prof !41

if.then7.i.i.i.i:                                 ; preds = %invoke.cont.i.i.i.i
  call void @_ZNSt16_Sp_counted_baseILN9__gnu_cxx12_Lock_policyE2EE24_M_release_last_use_coldEv(ptr noundef nonnull align 8 dereferenceable(16) %11) #21
  br label %_ZN4entt8internal14meta_type_nodeD2Ev.exit

_ZN4entt8internal14meta_type_nodeD2Ev.exit:       ; preds = %if.then7.i.i.i.i, %invoke.cont.i.i.i.i, %if.then.i.i.i.i, %cleanup.action
  call void @llvm.lifetime.end.p0(i64 112, ptr nonnull %ref.tmp) #21
  br label %cleanup.done15

cleanup.done15:                                   ; preds = %_ZN4entt8internal14meta_type_nodeD2Ev.exit, %cond.end
  ret void

lpad:                                             ; preds = %cond.true
  %18 = landingpad { ptr, i32 }
          cleanup
  call void @_ZN4entt8internal14meta_type_nodeD2Ev(ptr noundef nonnull align 8 dereferenceable(112) %ref.tmp) #21
  call void @llvm.lifetime.end.p0(i64 112, ptr nonnull %ref.tmp) #21
  resume { ptr, i32 } %18
}

; Function Attrs: mustprogress uwtable
define linkonce_odr hidden void @_ZNK4entt9meta_prop5valueEv(ptr noalias sret(%"class.entt::meta_any") align 8 %agg.result, ptr noundef nonnull align 8 dereferenceable(16) %this) local_unnamed_addr #4 comdat align 2 personality ptr @__gxx_personality_v0 {
entry:
  %ref.tmp = alloca %"struct.entt::internal::meta_type_node", align 8
  %0 = load ptr, ptr %this, align 8, !tbaa !42
  %value = getelementptr inbounds i8, ptr %0, i64 8
  %1 = load ptr, ptr %value, align 8, !tbaa !67
  %cmp.i.not = icmp eq ptr %1, null
  br i1 %cmp.i.not, label %cond.false, label %cond.true

cond.true:                                        ; preds = %entry
  call void @llvm.lifetime.start.p0(i64 112, ptr nonnull %ref.tmp) #21
  %2 = load ptr, ptr %0, align 8, !tbaa !69
  %ctx = getelementptr inbounds i8, ptr %this, i64 8
  %3 = load ptr, ptr %ctx, align 8, !tbaa !61
  call void %2(ptr nonnull sret(%"struct.entt::internal::meta_type_node") align 8 %ref.tmp, ptr noundef nonnull align 8 dereferenceable(56) %3) #21
  %from_void = getelementptr inbounds i8, ptr %ref.tmp, i64 56
  %4 = load ptr, ptr %from_void, align 8, !tbaa !72
  %5 = load ptr, ptr %ctx, align 8, !tbaa !61
  %6 = load ptr, ptr %this, align 8, !tbaa !42
  %value7 = getelementptr inbounds i8, ptr %6, i64 8
  %7 = load ptr, ptr %value7, align 8, !tbaa !67
  invoke void %4(ptr sret(%"class.entt::meta_any") align 8 %agg.result, ptr noundef nonnull align 8 dereferenceable(56) %5, ptr noundef null, ptr noundef %7)
          to label %cleanup.action unwind label %lpad

cond.false:                                       ; preds = %entry
  %ctx9 = getelementptr inbounds i8, ptr %this, i64 8
  %8 = load ptr, ptr %ctx9, align 8, !tbaa !61
  store ptr null, ptr %agg.result, align 8, !tbaa !36
  %info.i.i.i = getelementptr inbounds i8, ptr %agg.result, i64 16
  tail call void @llvm.memset.p0.i64(ptr noundef nonnull align 8 dereferenceable(17) %info.i.i.i, i8 0, i64 17, i1 false)
  %9 = load atomic i8, ptr @_ZGVZN4entt7type_idIvEERKNS_9type_infoEvE8instance acquire, align 8
  %guard.uninitialized.i.i.i.i.i = icmp eq i8 %9, 0
  br i1 %guard.uninitialized.i.i.i.i.i, label %init.check.i.i.i.i.i, label %cond.end, !prof !73

init.check.i.i.i.i.i:                             ; preds = %cond.false
  %10 = tail call i32 @__cxa_guard_acquire(ptr nonnull @_ZGVZN4entt7type_idIvEERKNS_9type_infoEvE8instance) #21
  %tobool.not.i.i.i.i.i = icmp eq i32 %10, 0
  br i1 %tobool.not.i.i.i.i.i, label %cond.end, label %init.i.i.i.i.i

init.i.i.i.i.i:                                   ; preds = %init.check.i.i.i.i.i
  tail call void @_ZN4entt9type_infoC2IvEESt15in_place_type_tIT_E(ptr noundef nonnull align 8 dereferenceable(24) @_ZZN4entt7type_idIvEERKNS_9type_infoEvE8instance) #21
  tail call void @__cxa_guard_release(ptr nonnull @_ZGVZN4entt7type_idIvEERKNS_9type_infoEvE8instance) #21
  br label %cond.end

cond.end:                                         ; preds = %init.i.i.i.i.i, %init.check.i.i.i.i.i, %cond.false
  store ptr @_ZZN4entt7type_idIvEERKNS_9type_infoEvE8instance, ptr %info.i.i.i, align 8, !tbaa !74
  %ctx.i = getelementptr inbounds i8, ptr %agg.result, i64 40
  store ptr %8, ptr %ctx.i, align 8, !tbaa !77
  %node.i = getelementptr inbounds i8, ptr %agg.result, i64 48
  %vtable.i = getelementptr inbounds i8, ptr %agg.result, i64 160
  tail call void @llvm.memset.p0.i64(ptr noundef nonnull align 8 dereferenceable(112) %node.i, i8 0, i64 112, i1 false)
  store ptr @_ZN4entt8meta_any12basic_vtableIvEENSt9enable_ifIXsr3stdE9is_same_vINSt9remove_cvINSt16remove_referenceIT_E4typeEE4typeES5_EEvE4typeENS_8internal11meta_traitsEbPKvPv, ptr %vtable.i, align 8, !tbaa !79
  br label %cleanup.done15

cleanup.action:                                   ; preds = %cond.true
  %_M_refcount.i.i = getelementptr inbounds i8, ptr %ref.tmp, i64 104
  %11 = load ptr, ptr %_M_refcount.i.i, align 8, !tbaa !28
  %cmp.not.i.i.i = icmp eq ptr %11, null
  br i1 %cmp.not.i.i.i, label %_ZN4entt8internal14meta_type_nodeD2Ev.exit, label %if.then.i.i.i

if.then.i.i.i:                                    ; preds = %cleanup.action
  %_M_use_count.i.i.i.i = getelementptr inbounds i8, ptr %11, i64 8
  %12 = load atomic i64, ptr %_M_use_count.i.i.i.i acquire, align 8
  %cmp.i.i.i.i = icmp eq i64 %12, 4294967297
  %13 = trunc i64 %12 to i32
  br i1 %cmp.i.i.i.i, label %if.then.i.i.i.i, label %if.end.i.i.i.i

if.then.i.i.i.i:                                  ; preds = %if.then.i.i.i
  store i32 0, ptr %_M_use_count.i.i.i.i, align 8, !tbaa !38
  %_M_weak_count.i.i.i.i = getelementptr inbounds i8, ptr %11, i64 12
  store i32 0, ptr %_M_weak_count.i.i.i.i, align 4, !tbaa !40
  %vtable.i.i.i.i = load ptr, ptr %11, align 8, !tbaa !4
  %vfn.i.i.i.i = getelementptr inbounds i8, ptr %vtable.i.i.i.i, i64 16
  %14 = load ptr, ptr %vfn.i.i.i.i, align 8
  call void %14(ptr noundef nonnull align 8 dereferenceable(16) %11) #21
  %vtable3.i.i.i.i = load ptr, ptr %11, align 8, !tbaa !4
  %vfn4.i.i.i.i = getelementptr inbounds i8, ptr %vtable3.i.i.i.i, i64 24
  %15 = load ptr, ptr %vfn4.i.i.i.i, align 8
  call void %15(ptr noundef nonnull align 8 dereferenceable(16) %11) #21
  br label %_ZN4entt8internal14meta_type_nodeD2Ev.exit

if.end.i.i.i.i:                                   ; preds = %if.then.i.i.i
  %16 = load i8, ptr @__libc_single_threaded, align 1, !tbaa !36
  %tobool.i.i.not.i.i.i.i = icmp eq i8 %16, 0
  br i1 %tobool.i.i.not.i.i.i.i, label %if.else.i.i.i.i.i, label %if.then.i.i.i.i.i

if.then.i.i.i.i.i:                                ; preds = %if.end.i.i.i.i
  %add.i.i.i.i.i = add nsw i32 %13, -1
  store i32 %add.i.i.i.i.i, ptr %_M_use_count.i.i.i.i, align 4, !tbaa !37
  br label %invoke.cont.i.i.i.i

if.else.i.i.i.i.i:                                ; preds = %if.end.i.i.i.i
  %17 = atomicrmw volatile add ptr %_M_use_count.i.i.i.i, i32 -1 acq_rel, align 4
  br label %invoke.cont.i.i.i.i

invoke.cont.i.i.i.i:                              ; preds = %if.else.i.i.i.i.i, %if.then.i.i.i.i.i
  %retval.0.i.i.i.i.i = phi i32 [ %13, %if.then.i.i.i.i.i ], [ %17, %if.else.i.i.i.i.i ]
  %cmp6.i.i.i.i = icmp eq i32 %retval.0.i.i.i.i.i, 1
  br i1 %cmp6.i.i.i.i, label %if.then7.i.i.i.i, label %_ZN4entt8internal14meta_type_nodeD2Ev.exit, !prof !41

if.then7.i.i.i.i:                                 ; preds = %invoke.cont.i.i.i.i
  call void @_ZNSt16_Sp_counted_baseILN9__gnu_cxx12_Lock_policyE2EE24_M_release_last_use_coldEv(ptr noundef nonnull align 8 dereferenceable(16) %11) #21
  br label %_ZN4entt8internal14meta_type_nodeD2Ev.exit

_ZN4entt8internal14meta_type_nodeD2Ev.exit:       ; preds = %if.then7.i.i.i.i, %invoke.cont.i.i.i.i, %if.then.i.i.i.i, %cleanup.action
  call void @llvm.lifetime.end.p0(i64 112, ptr nonnull %ref.tmp) #21
  br label %cleanup.done15

cleanup.done15:                                   ; preds = %_ZN4entt8internal14meta_type_nodeD2Ev.exit, %cond.end
  ret void

lpad:                                             ; preds = %cond.true
  %18 = landingpad { ptr, i32 }
          cleanup
  call void @_ZN4entt8internal14meta_type_nodeD2Ev(ptr noundef nonnull align 8 dereferenceable(112) %ref.tmp) #21
  call void @llvm.lifetime.end.p0(i64 112, ptr nonnull %ref.tmp) #21
  resume { ptr, i32 } %18
}

; Function Attrs: mustprogress nounwind uwtable
define linkonce_odr hidden noundef ptr @_ZN4entt8meta_any8try_castIiEEPT_v(ptr noundef nonnull align 8 dereferenceable(168) %this) local_unnamed_addr #8 comdat align 2 personality ptr @__gxx_personality_v0 {
entry:
  %other = alloca %"struct.entt::internal::meta_type_node", align 8
  call void @llvm.lifetime.start.p0(i64 112, ptr nonnull %other) #21
  %ctx = getelementptr inbounds i8, ptr %this, i64 40
  %0 = load ptr, ptr %ctx, align 8, !tbaa !77
  call void @_ZN4entt8internal7resolveIiEENS0_14meta_type_nodeERKNS0_12meta_contextE(ptr nonnull sret(%"struct.entt::internal::meta_type_node") align 8 %other, ptr noundef nonnull align 8 dereferenceable(56) %0) #21
  %1 = load ptr, ptr %ctx, align 8, !tbaa !77
  %node = getelementptr inbounds i8, ptr %this, i64 48
  %mode.i.i = getelementptr inbounds i8, ptr %this, i64 32
  %2 = load i8, ptr %mode.i.i, align 8, !tbaa !80
  %cmp.i.i = icmp eq i8 %2, 2
  br i1 %cmp.i.i, label %_ZN4entt8meta_any4dataEv.exit, label %cond.false.i.i

cond.false.i.i:                                   ; preds = %entry
  %vtable.i.i.i = getelementptr inbounds i8, ptr %this, i64 24
  %3 = load ptr, ptr %vtable.i.i.i, align 8, !tbaa !81
  %tobool.not.i.i.i = icmp eq ptr %3, null
  br i1 %tobool.not.i.i.i, label %_ZN4entt8meta_any4dataEv.exit, label %cond.true.i.i.i

cond.true.i.i.i:                                  ; preds = %cond.false.i.i
  %call.i.i.i = invoke noundef ptr %3(i8 noundef zeroext 6, ptr noundef nonnull align 8 dereferenceable(33) %this, ptr noundef null)
          to label %_ZN4entt8meta_any4dataEv.exit unwind label %terminate.lpad.i.i.i

terminate.lpad.i.i.i:                             ; preds = %cond.true.i.i.i
  %4 = landingpad { ptr, i32 }
          catch ptr null
  %5 = extractvalue { ptr, i32 } %4, 0
  call void @__clang_call_terminate(ptr %5) #22
  unreachable

_ZN4entt8meta_any4dataEv.exit:                    ; preds = %cond.true.i.i.i, %cond.false.i.i, %entry
  %cond.i.i = phi ptr [ null, %entry ], [ %call.i.i.i, %cond.true.i.i.i ], [ null, %cond.false.i.i ]
  %call5 = call noundef ptr @_ZN4entt8internal8try_castERKNS0_12meta_contextERKNS0_14meta_type_nodeES6_PKv(ptr noundef nonnull align 8 dereferenceable(56) %1, ptr noundef nonnull align 8 dereferenceable(112) %node, ptr noundef nonnull align 8 dereferenceable(112) %other, ptr noundef %cond.i.i) #21
  %_M_refcount.i.i = getelementptr inbounds i8, ptr %other, i64 104
  %6 = load ptr, ptr %_M_refcount.i.i, align 8, !tbaa !28
  %cmp.not.i.i.i = icmp eq ptr %6, null
  br i1 %cmp.not.i.i.i, label %_ZN4entt8internal14meta_type_nodeD2Ev.exit, label %if.then.i.i.i

if.then.i.i.i:                                    ; preds = %_ZN4entt8meta_any4dataEv.exit
  %_M_use_count.i.i.i.i = getelementptr inbounds i8, ptr %6, i64 8
  %7 = load atomic i64, ptr %_M_use_count.i.i.i.i acquire, align 8
  %cmp.i.i.i.i = icmp eq i64 %7, 4294967297
  %8 = trunc i64 %7 to i32
  br i1 %cmp.i.i.i.i, label %if.then.i.i.i.i, label %if.end.i.i.i.i

if.then.i.i.i.i:                                  ; preds = %if.then.i.i.i
  store i32 0, ptr %_M_use_count.i.i.i.i, align 8, !tbaa !38
  %_M_weak_count.i.i.i.i = getelementptr inbounds i8, ptr %6, i64 12
  store i32 0, ptr %_M_weak_count.i.i.i.i, align 4, !tbaa !40
  %vtable.i.i.i.i = load ptr, ptr %6, align 8, !tbaa !4
  %vfn.i.i.i.i = getelementptr inbounds i8, ptr %vtable.i.i.i.i, i64 16
  %9 = load ptr, ptr %vfn.i.i.i.i, align 8
  call void %9(ptr noundef nonnull align 8 dereferenceable(16) %6) #21
  %vtable3.i.i.i.i = load ptr, ptr %6, align 8, !tbaa !4
  %vfn4.i.i.i.i = getelementptr inbounds i8, ptr %vtable3.i.i.i.i, i64 24
  %10 = load ptr, ptr %vfn4.i.i.i.i, align 8
  call void %10(ptr noundef nonnull align 8 dereferenceable(16) %6) #21
  br label %_ZN4entt8internal14meta_type_nodeD2Ev.exit

if.end.i.i.i.i:                                   ; preds = %if.then.i.i.i
  %11 = load i8, ptr @__libc_single_threaded, align 1, !tbaa !36
  %tobool.i.i.not.i.i.i.i = icmp eq i8 %11, 0
  br i1 %tobool.i.i.not.i.i.i.i, label %if.else.i.i.i.i.i, label %if.then.i.i.i.i.i

if.then.i.i.i.i.i:                                ; preds = %if.end.i.i.i.i
  %add.i.i.i.i.i = add nsw i32 %8, -1
  store i32 %add.i.i.i.i.i, ptr %_M_use_count.i.i.i.i, align 4, !tbaa !37
  br label %invoke.cont.i.i.i.i

if.else.i.i.i.i.i:                                ; preds = %if.end.i.i.i.i
  %12 = atomicrmw volatile add ptr %_M_use_count.i.i.i.i, i32 -1 acq_rel, align 4
  br label %invoke.cont.i.i.i.i

invoke.cont.i.i.i.i:                              ; preds = %if.else.i.i.i.i.i, %if.then.i.i.i.i.i
  %retval.0.i.i.i.i.i = phi i32 [ %8, %if.then.i.i.i.i.i ], [ %12, %if.else.i.i.i.i.i ]
  %cmp6.i.i.i.i = icmp eq i32 %retval.0.i.i.i.i.i, 1
  br i1 %cmp6.i.i.i.i, label %if.then7.i.i.i.i, label %_ZN4entt8internal14meta_type_nodeD2Ev.exit, !prof !41

if.then7.i.i.i.i:                                 ; preds = %invoke.cont.i.i.i.i
  call void @_ZNSt16_Sp_counted_baseILN9__gnu_cxx12_Lock_policyE2EE24_M_release_last_use_coldEv(ptr noundef nonnull align 8 dereferenceable(16) %6) #21
  br label %_ZN4entt8internal14meta_type_nodeD2Ev.exit

_ZN4entt8internal14meta_type_nodeD2Ev.exit:       ; preds = %if.then7.i.i.i.i, %invoke.cont.i.i.i.i, %if.then.i.i.i.i, %_ZN4entt8meta_any4dataEv.exit
  call void @llvm.lifetime.end.p0(i64 112, ptr nonnull %other) #21
  ret ptr %call5
}

; Function Attrs: mustprogress nounwind uwtable
define linkonce_odr hidden void @_ZN4entt8meta_anyD2Ev(ptr noundef nonnull align 8 dereferenceable(168) %this) unnamed_addr #8 comdat align 2 personality ptr @__gxx_personality_v0 {
entry:
  %dtor.i = getelementptr inbounds i8, ptr %this, i64 136
  %0 = load ptr, ptr %dtor.i, align 8, !tbaa !82
  %tobool.not.i = icmp ne ptr %0, null
  %mode.i.i = getelementptr inbounds i8, ptr %this, i64 32
  %1 = load i8, ptr %mode.i.i, align 8
  %cmp.i = icmp eq i8 %1, 0
  %or.cond.i = select i1 %tobool.not.i, i1 %cmp.i, i1 false
  br i1 %or.cond.i, label %cond.false.i.i, label %invoke.cont

cond.false.i.i:                                   ; preds = %entry
  %vtable.i.i.i = getelementptr inbounds i8, ptr %this, i64 24
  %2 = load ptr, ptr %vtable.i.i.i, align 8, !tbaa !81
  %tobool.not.i.i.i = icmp eq ptr %2, null
  br i1 %tobool.not.i.i.i, label %_ZN4entt9basic_anyILm16ELm8EE4dataEv.exit.i, label %cond.true.i.i.i

cond.true.i.i.i:                                  ; preds = %cond.false.i.i
  %call.i.i.i = invoke noundef ptr %2(i8 noundef zeroext 6, ptr noundef nonnull align 8 dereferenceable(33) %this, ptr noundef null)
          to label %_ZN4entt9basic_anyILm16ELm8EE4dataEv.exit.i unwind label %terminate.lpad.i.i.i

terminate.lpad.i.i.i:                             ; preds = %cond.true.i.i.i
  %3 = landingpad { ptr, i32 }
          catch ptr null
  %4 = extractvalue { ptr, i32 } %3, 0
  tail call void @__clang_call_terminate(ptr %4) #22
  unreachable

_ZN4entt9basic_anyILm16ELm8EE4dataEv.exit.i:      ; preds = %cond.true.i.i.i, %cond.false.i.i
  %cond.i.i = phi ptr [ %call.i.i.i, %cond.true.i.i.i ], [ null, %cond.false.i.i ]
  invoke void %0(ptr noundef %cond.i.i)
          to label %invoke.cont unwind label %terminate.lpad

invoke.cont:                                      ; preds = %_ZN4entt9basic_anyILm16ELm8EE4dataEv.exit.i, %entry
  %_M_refcount.i.i = getelementptr inbounds i8, ptr %this, i64 152
  %5 = load ptr, ptr %_M_refcount.i.i, align 8, !tbaa !28
  %cmp.not.i.i.i = icmp eq ptr %5, null
  br i1 %cmp.not.i.i.i, label %_ZN4entt8internal14meta_type_nodeD2Ev.exit, label %if.then.i.i.i

if.then.i.i.i:                                    ; preds = %invoke.cont
  %_M_use_count.i.i.i.i = getelementptr inbounds i8, ptr %5, i64 8
  %6 = load atomic i64, ptr %_M_use_count.i.i.i.i acquire, align 8
  %cmp.i.i.i.i = icmp eq i64 %6, 4294967297
  %7 = trunc i64 %6 to i32
  br i1 %cmp.i.i.i.i, label %if.then.i.i.i.i, label %if.end.i.i.i.i

if.then.i.i.i.i:                                  ; preds = %if.then.i.i.i
  store i32 0, ptr %_M_use_count.i.i.i.i, align 8, !tbaa !38
  %_M_weak_count.i.i.i.i = getelementptr inbounds i8, ptr %5, i64 12
  store i32 0, ptr %_M_weak_count.i.i.i.i, align 4, !tbaa !40
  %vtable.i.i.i.i = load ptr, ptr %5, align 8, !tbaa !4
  %vfn.i.i.i.i = getelementptr inbounds i8, ptr %vtable.i.i.i.i, i64 16
  %8 = load ptr, ptr %vfn.i.i.i.i, align 8
  tail call void %8(ptr noundef nonnull align 8 dereferenceable(16) %5) #21
  %vtable3.i.i.i.i = load ptr, ptr %5, align 8, !tbaa !4
  %vfn4.i.i.i.i = getelementptr inbounds i8, ptr %vtable3.i.i.i.i, i64 24
  %9 = load ptr, ptr %vfn4.i.i.i.i, align 8
  tail call void %9(ptr noundef nonnull align 8 dereferenceable(16) %5) #21
  br label %_ZN4entt8internal14meta_type_nodeD2Ev.exit

if.end.i.i.i.i:                                   ; preds = %if.then.i.i.i
  %10 = load i8, ptr @__libc_single_threaded, align 1, !tbaa !36
  %tobool.i.i.not.i.i.i.i = icmp eq i8 %10, 0
  br i1 %tobool.i.i.not.i.i.i.i, label %if.else.i.i.i.i.i, label %if.then.i.i.i.i.i

if.then.i.i.i.i.i:                                ; preds = %if.end.i.i.i.i
  %add.i.i.i.i.i = add nsw i32 %7, -1
  store i32 %add.i.i.i.i.i, ptr %_M_use_count.i.i.i.i, align 4, !tbaa !37
  br label %invoke.cont.i.i.i.i

if.else.i.i.i.i.i:                                ; preds = %if.end.i.i.i.i
  %11 = atomicrmw volatile add ptr %_M_use_count.i.i.i.i, i32 -1 acq_rel, align 4
  br label %invoke.cont.i.i.i.i

invoke.cont.i.i.i.i:                              ; preds = %if.else.i.i.i.i.i, %if.then.i.i.i.i.i
  %retval.0.i.i.i.i.i = phi i32 [ %7, %if.then.i.i.i.i.i ], [ %11, %if.else.i.i.i.i.i ]
  %cmp6.i.i.i.i = icmp eq i32 %retval.0.i.i.i.i.i, 1
  br i1 %cmp6.i.i.i.i, label %if.then7.i.i.i.i, label %_ZN4entt8internal14meta_type_nodeD2Ev.exit, !prof !41

if.then7.i.i.i.i:                                 ; preds = %invoke.cont.i.i.i.i
  tail call void @_ZNSt16_Sp_counted_baseILN9__gnu_cxx12_Lock_policyE2EE24_M_release_last_use_coldEv(ptr noundef nonnull align 8 dereferenceable(16) %5) #21
  br label %_ZN4entt8internal14meta_type_nodeD2Ev.exit

_ZN4entt8internal14meta_type_nodeD2Ev.exit:       ; preds = %if.then7.i.i.i.i, %invoke.cont.i.i.i.i, %if.then.i.i.i.i, %invoke.cont
  %vtable.i = getelementptr inbounds i8, ptr %this, i64 24
  %12 = load ptr, ptr %vtable.i, align 8, !tbaa !81
  %tobool.not.i2 = icmp ne ptr %12, null
  %13 = load i8, ptr %mode.i.i, align 8
  %cmp.i3 = icmp eq i8 %13, 0
  %or.cond.i4 = select i1 %tobool.not.i2, i1 %cmp.i3, i1 false
  br i1 %or.cond.i4, label %if.then.i, label %_ZN4entt9basic_anyILm16ELm8EED2Ev.exit

if.then.i:                                        ; preds = %_ZN4entt8internal14meta_type_nodeD2Ev.exit
  %call.i = invoke noundef ptr %12(i8 noundef zeroext 4, ptr noundef nonnull align 8 dereferenceable(33) %this, ptr noundef null)
          to label %_ZN4entt9basic_anyILm16ELm8EED2Ev.exit unwind label %terminate.lpad.i

terminate.lpad.i:                                 ; preds = %if.then.i
  %14 = landingpad { ptr, i32 }
          catch ptr null
  %15 = extractvalue { ptr, i32 } %14, 0
  tail call void @__clang_call_terminate(ptr %15) #22
  unreachable

_ZN4entt9basic_anyILm16ELm8EED2Ev.exit:           ; preds = %if.then.i, %_ZN4entt8internal14meta_type_nodeD2Ev.exit
  ret void

terminate.lpad:                                   ; preds = %_ZN4entt9basic_anyILm16ELm8EE4dataEv.exit.i
  %16 = landingpad { ptr, i32 }
          catch ptr null
  %17 = extractvalue { ptr, i32 } %16, 0
  tail call void @__clang_call_terminate(ptr %17) #22
  unreachable
}

; Function Attrs: mustprogress uwtable
define hidden void @_ZN22MetaProp_FromBase_Test8TestBodyEv(ptr nocapture nonnull readnone align 8 %this) unnamed_addr #4 align 2 personality ptr @__gxx_personality_v0 {
entry:
  %ref.tmp.i = alloca %"struct.entt::internal::meta_type_node", align 8
  %type = alloca %"class.entt::meta_type", align 8
  %prop_bool = alloca %"struct.entt::meta_prop", align 8
  %prop_int = alloca %"struct.entt::meta_prop", align 8
  %key_only = alloca %"struct.entt::meta_prop", align 8
  %key_value = alloca %"struct.entt::meta_prop", align 8
  %gtest_ar_ = alloca %"class.testing::AssertionResult", align 8
  %ref.tmp23 = alloca %"class.testing::Message", align 8
  %ref.tmp26 = alloca %"class.testing::internal::AssertHelper", align 8
  %ref.tmp27 = alloca %"class.std::__cxx11::basic_string", align 8
  %gtest_ar_42 = alloca %"class.testing::AssertionResult", align 8
  %ref.tmp50 = alloca %"class.testing::Message", align 8
  %ref.tmp53 = alloca %"class.testing::internal::AssertHelper", align 8
  %ref.tmp54 = alloca %"class.std::__cxx11::basic_string", align 8
  %gtest_ar_75 = alloca %"class.testing::AssertionResult", align 8
  %ref.tmp83 = alloca %"class.testing::Message", align 8
  %ref.tmp86 = alloca %"class.testing::internal::AssertHelper", align 8
  %ref.tmp87 = alloca %"class.std::__cxx11::basic_string", align 8
  %gtest_ar_108 = alloca %"class.testing::AssertionResult", align 8
  %ref.tmp116 = alloca %"class.testing::Message", align 8
  %ref.tmp119 = alloca %"class.testing::internal::AssertHelper", align 8
  %ref.tmp120 = alloca %"class.std::__cxx11::basic_string", align 8
  %gtest_ar_141 = alloca %"class.testing::AssertionResult", align 8
  %ref.tmp143 = alloca %"class.entt::meta_any", align 8
  %ref.tmp158 = alloca %"class.testing::Message", align 8
  %ref.tmp161 = alloca %"class.testing::internal::AssertHelper", align 8
  %ref.tmp162 = alloca %"class.std::__cxx11::basic_string", align 8
  %gtest_ar = alloca %"class.testing::AssertionResult", align 8
  %ref.tmp183 = alloca i32, align 4
  %ref.tmp184 = alloca %"class.entt::meta_any", align 8
  %ref.tmp190 = alloca i32, align 4
  %ref.tmp202 = alloca %"class.testing::Message", align 8
  %ref.tmp205 = alloca %"class.testing::internal::AssertHelper", align 8
  %gtest_ar_223 = alloca %"class.testing::AssertionResult", align 8
  %ref.tmp225 = alloca %"class.entt::meta_any", align 8
  %ref.tmp241 = alloca %"class.testing::Message", align 8
  %ref.tmp244 = alloca %"class.testing::internal::AssertHelper", align 8
  %ref.tmp245 = alloca %"class.std::__cxx11::basic_string", align 8
  %gtest_ar266 = alloca %"class.testing::AssertionResult", align 8
  %ref.tmp267 = alloca i32, align 4
  %ref.tmp268 = alloca %"class.entt::meta_any", align 8
  %ref.tmp274 = alloca i32, align 4
  %ref.tmp286 = alloca %"class.testing::Message", align 8
  %ref.tmp289 = alloca %"class.testing::internal::AssertHelper", align 8
  call void @llvm.lifetime.start.p0(i64 120, ptr nonnull %type) #21
  %0 = load ptr, ptr @_ZN4entt7locatorINS_8meta_ctxEE7serviceE, align 8, !tbaa !17, !noalias !83
  %cmp.i.not.i.i = icmp eq ptr %0, null
  br i1 %cmp.i.not.i.i, label %cond.false.i.i, label %_ZN4entt7resolveI9derived_tEENS_9meta_typeEv.exit

cond.false.i.i:                                   ; preds = %entry
  %call2.i1.i = invoke noundef nonnull align 8 dereferenceable(56) ptr @_ZN4entt7locatorINS_8meta_ctxEE7emplaceIS1_JEEERS1_DpOT0_()
          to label %_ZN4entt7resolveI9derived_tEENS_9meta_typeEv.exit unwind label %terminate.lpad.i, !noalias !83

terminate.lpad.i:                                 ; preds = %cond.false.i.i
  %1 = landingpad { ptr, i32 }
          catch ptr null
  %2 = extractvalue { ptr, i32 } %1, 0
  tail call void @__clang_call_terminate(ptr %2) #22
  unreachable

_ZN4entt7resolveI9derived_tEENS_9meta_typeEv.exit: ; preds = %cond.false.i.i, %entry
  %cond-lvalue.i.i = phi ptr [ %0, %entry ], [ %call2.i1.i, %cond.false.i.i ]
  tail call void @llvm.experimental.noalias.scope.decl(metadata !86)
  call void @llvm.lifetime.start.p0(i64 112, ptr nonnull %ref.tmp.i) #21, !noalias !86
  call void @_ZN4entt8internal7resolveI9derived_tEENS0_14meta_type_nodeERKNS0_12meta_contextE(ptr nonnull sret(%"struct.entt::internal::meta_type_node") align 8 %ref.tmp.i, ptr noundef nonnull align 8 dereferenceable(56) %cond-lvalue.i.i) #21, !noalias !86
  call void @llvm.memcpy.p0.p0.i64(ptr noundef nonnull align 8 dereferenceable(96) %type, ptr noundef nonnull align 8 dereferenceable(96) %ref.tmp.i, i64 96, i1 false)
  %details.i.i.i = getelementptr inbounds i8, ptr %type, i64 96
  %details3.i.i.i = getelementptr inbounds i8, ptr %ref.tmp.i, i64 96
  %3 = load ptr, ptr %details3.i.i.i, align 8, !tbaa !26, !noalias !86
  store ptr %3, ptr %details.i.i.i, align 8, !tbaa !26, !alias.scope !86
  %_M_refcount.i.i.i.i.i = getelementptr inbounds i8, ptr %type, i64 104
  %_M_refcount3.i.i.i.i.i = getelementptr inbounds i8, ptr %ref.tmp.i, i64 104
  %4 = load ptr, ptr %_M_refcount3.i.i.i.i.i, align 8, !tbaa !28, !noalias !86
  store ptr %4, ptr %_M_refcount.i.i.i.i.i, align 8, !tbaa !28, !alias.scope !86
  %cmp.not.i.i.i.i.i.i = icmp eq ptr %4, null
  br i1 %cmp.not.i.i.i.i.i.i, label %_ZN4entt9meta_typeC2ERKNS_8meta_ctxERKNS_8internal14meta_type_nodeE.exit.thread.i, label %if.then.i.i.i.i.i.i762

_ZN4entt9meta_typeC2ERKNS_8meta_ctxERKNS_8internal14meta_type_nodeE.exit.thread.i: ; preds = %_ZN4entt7resolveI9derived_tEENS_9meta_typeEv.exit
  %ctx.i3.i = getelementptr inbounds i8, ptr %type, i64 112
  store ptr %cond-lvalue.i.i, ptr %ctx.i3.i, align 8, !tbaa !29, !alias.scope !86
  br label %_ZN4entt7resolveI9derived_tEENS_9meta_typeERKNS_8meta_ctxE.exit

if.then.i.i.i.i.i.i762:                           ; preds = %_ZN4entt7resolveI9derived_tEENS_9meta_typeEv.exit
  %_M_use_count.i.i.i.i.i.i.i = getelementptr inbounds i8, ptr %4, i64 8
  %5 = load i8, ptr @__libc_single_threaded, align 1, !tbaa !36, !noalias !86
  %tobool.i.not.i.i.i.i.i.i.i = icmp eq i8 %5, 0
  br i1 %tobool.i.not.i.i.i.i.i.i.i, label %_ZN4entt9meta_typeC2ERKNS_8meta_ctxERKNS_8internal14meta_type_nodeE.exit.i, label %_ZN4entt9meta_typeC2ERKNS_8meta_ctxERKNS_8internal14meta_type_nodeE.exit.thread6.i

_ZN4entt9meta_typeC2ERKNS_8meta_ctxERKNS_8internal14meta_type_nodeE.exit.thread6.i: ; preds = %if.then.i.i.i.i.i.i762
  %6 = load i32, ptr %_M_use_count.i.i.i.i.i.i.i, align 4, !tbaa !37, !noalias !86
  %add.i.i.i.i.i.i.i.i = add nsw i32 %6, 1
  store i32 %add.i.i.i.i.i.i.i.i, ptr %_M_use_count.i.i.i.i.i.i.i, align 4, !tbaa !37, !noalias !86
  %ctx.i8.i = getelementptr inbounds i8, ptr %type, i64 112
  store ptr %cond-lvalue.i.i, ptr %ctx.i8.i, align 8, !tbaa !29, !alias.scope !86
  br label %if.then.i.i.i.i763

_ZN4entt9meta_typeC2ERKNS_8meta_ctxERKNS_8internal14meta_type_nodeE.exit.i: ; preds = %if.then.i.i.i.i.i.i762
  %7 = atomicrmw volatile add ptr %_M_use_count.i.i.i.i.i.i.i, i32 1 acq_rel, align 4, !noalias !86
  %.pr.pre.i = load ptr, ptr %_M_refcount3.i.i.i.i.i, align 8, !tbaa !28, !noalias !86
  %ctx.i.i = getelementptr inbounds i8, ptr %type, i64 112
  store ptr %cond-lvalue.i.i, ptr %ctx.i.i, align 8, !tbaa !29, !alias.scope !86
  %cmp.not.i.i.i.i780 = icmp eq ptr %.pr.pre.i, null
  br i1 %cmp.not.i.i.i.i780, label %_ZN4entt7resolveI9derived_tEENS_9meta_typeERKNS_8meta_ctxE.exit, label %if.then.i.i.i.i763

if.then.i.i.i.i763:                               ; preds = %_ZN4entt9meta_typeC2ERKNS_8meta_ctxERKNS_8internal14meta_type_nodeE.exit.i, %_ZN4entt9meta_typeC2ERKNS_8meta_ctxERKNS_8internal14meta_type_nodeE.exit.thread6.i
  %.pr10.i = phi ptr [ %4, %_ZN4entt9meta_typeC2ERKNS_8meta_ctxERKNS_8internal14meta_type_nodeE.exit.thread6.i ], [ %.pr.pre.i, %_ZN4entt9meta_typeC2ERKNS_8meta_ctxERKNS_8internal14meta_type_nodeE.exit.i ]
  %_M_use_count.i.i.i.i.i764 = getelementptr inbounds i8, ptr %.pr10.i, i64 8
  %8 = load atomic i64, ptr %_M_use_count.i.i.i.i.i764 acquire, align 8, !noalias !86
  %cmp.i.i.i.i.i765 = icmp eq i64 %8, 4294967297
  %9 = trunc i64 %8 to i32
  br i1 %cmp.i.i.i.i.i765, label %if.then.i.i.i.i.i774, label %if.end.i.i.i.i.i766

if.then.i.i.i.i.i774:                             ; preds = %if.then.i.i.i.i763
  store i32 0, ptr %_M_use_count.i.i.i.i.i764, align 8, !tbaa !38, !noalias !86
  %_M_weak_count.i.i.i.i.i775 = getelementptr inbounds i8, ptr %.pr10.i, i64 12
  store i32 0, ptr %_M_weak_count.i.i.i.i.i775, align 4, !tbaa !40, !noalias !86
  %vtable.i.i.i.i.i776 = load ptr, ptr %.pr10.i, align 8, !tbaa !4, !noalias !86
  %vfn.i.i.i.i.i777 = getelementptr inbounds i8, ptr %vtable.i.i.i.i.i776, i64 16
  %10 = load ptr, ptr %vfn.i.i.i.i.i777, align 8, !noalias !86
  call void %10(ptr noundef nonnull align 8 dereferenceable(16) %.pr10.i) #21, !noalias !86
  %vtable3.i.i.i.i.i778 = load ptr, ptr %.pr10.i, align 8, !tbaa !4, !noalias !86
  %vfn4.i.i.i.i.i779 = getelementptr inbounds i8, ptr %vtable3.i.i.i.i.i778, i64 24
  %11 = load ptr, ptr %vfn4.i.i.i.i.i779, align 8, !noalias !86
  call void %11(ptr noundef nonnull align 8 dereferenceable(16) %.pr10.i) #21, !noalias !86
  br label %_ZN4entt7resolveI9derived_tEENS_9meta_typeERKNS_8meta_ctxE.exit

if.end.i.i.i.i.i766:                              ; preds = %if.then.i.i.i.i763
  %12 = load i8, ptr @__libc_single_threaded, align 1, !tbaa !36, !noalias !86
  %tobool.i.i.not.i.i.i.i.i767 = icmp eq i8 %12, 0
  br i1 %tobool.i.i.not.i.i.i.i.i767, label %if.else.i.i.i.i.i.i773, label %if.then.i.i.i.i.i2.i

if.then.i.i.i.i.i2.i:                             ; preds = %if.end.i.i.i.i.i766
  %add.i.i.i.i.i.i768 = add nsw i32 %9, -1
  store i32 %add.i.i.i.i.i.i768, ptr %_M_use_count.i.i.i.i.i764, align 4, !tbaa !37, !noalias !86
  br label %invoke.cont.i.i.i.i.i769

if.else.i.i.i.i.i.i773:                           ; preds = %if.end.i.i.i.i.i766
  %13 = atomicrmw volatile add ptr %_M_use_count.i.i.i.i.i764, i32 -1 acq_rel, align 4, !noalias !86
  br label %invoke.cont.i.i.i.i.i769

invoke.cont.i.i.i.i.i769:                         ; preds = %if.else.i.i.i.i.i.i773, %if.then.i.i.i.i.i2.i
  %retval.0.i.i.i.i.i.i770 = phi i32 [ %9, %if.then.i.i.i.i.i2.i ], [ %13, %if.else.i.i.i.i.i.i773 ]
  %cmp6.i.i.i.i.i771 = icmp eq i32 %retval.0.i.i.i.i.i.i770, 1
  br i1 %cmp6.i.i.i.i.i771, label %if.then7.i.i.i.i.i772, label %_ZN4entt7resolveI9derived_tEENS_9meta_typeERKNS_8meta_ctxE.exit, !prof !41

if.then7.i.i.i.i.i772:                            ; preds = %invoke.cont.i.i.i.i.i769
  call void @_ZNSt16_Sp_counted_baseILN9__gnu_cxx12_Lock_policyE2EE24_M_release_last_use_coldEv(ptr noundef nonnull align 8 dereferenceable(16) %.pr10.i) #21, !noalias !86
  br label %_ZN4entt7resolveI9derived_tEENS_9meta_typeERKNS_8meta_ctxE.exit

_ZN4entt7resolveI9derived_tEENS_9meta_typeERKNS_8meta_ctxE.exit: ; preds = %if.then7.i.i.i.i.i772, %invoke.cont.i.i.i.i.i769, %if.then.i.i.i.i.i774, %_ZN4entt9meta_typeC2ERKNS_8meta_ctxERKNS_8internal14meta_type_nodeE.exit.i, %_ZN4entt9meta_typeC2ERKNS_8meta_ctxERKNS_8internal14meta_type_nodeE.exit.thread.i
  call void @llvm.lifetime.end.p0(i64 112, ptr nonnull %ref.tmp.i) #21, !noalias !86
  call void @llvm.lifetime.start.p0(i64 16, ptr nonnull %prop_bool) #21
  %ctx.i = getelementptr inbounds i8, ptr %type, i64 112
  %14 = load ptr, ptr %ctx.i, align 8, !tbaa !29
  %call2.i381 = invoke noundef ptr @_ZN4entt8internal8look_forITnDaXadL_ZNS0_20meta_type_descriptor4propEEEEEPDaRKNS0_12meta_contextERKNS0_14meta_type_nodeEj(ptr noundef nonnull align 8 dereferenceable(56) %14, ptr noundef nonnull align 8 dereferenceable(112) %type, i32 noundef -929786563)
          to label %invoke.cont unwind label %lpad

invoke.cont:                                      ; preds = %_ZN4entt7resolveI9derived_tEENS_9meta_typeERKNS_8meta_ctxE.exit
  %tobool.not.i = icmp eq ptr %call2.i381, null
  %15 = load ptr, ptr %ctx.i, align 8
  %spec.select.i = select i1 %tobool.not.i, ptr null, ptr %15
  store ptr %call2.i381, ptr %prop_bool, align 8
  %16 = getelementptr inbounds i8, ptr %prop_bool, i64 8
  store ptr %spec.select.i, ptr %16, align 8
  call void @llvm.lifetime.start.p0(i64 16, ptr nonnull %prop_int) #21
  %call2.i400 = invoke noundef ptr @_ZN4entt8internal8look_forITnDaXadL_ZNS0_20meta_type_descriptor4propEEEEEPDaRKNS0_12meta_contextERKNS0_14meta_type_nodeEj(ptr noundef nonnull align 8 dereferenceable(56) %15, ptr noundef nonnull align 8 dereferenceable(112) %type, i32 noundef -1779859874)
          to label %invoke.cont6 unwind label %lpad5

invoke.cont6:                                     ; preds = %invoke.cont
  %tobool.not.i396 = icmp eq ptr %call2.i400, null
  %17 = load ptr, ptr %ctx.i, align 8
  %spec.select.i397 = select i1 %tobool.not.i396, ptr null, ptr %17
  store ptr %call2.i400, ptr %prop_int, align 8
  %18 = getelementptr inbounds i8, ptr %prop_int, i64 8
  store ptr %spec.select.i397, ptr %18, align 8
  call void @llvm.lifetime.start.p0(i64 16, ptr nonnull %key_only) #21
  %call2.i420 = invoke noundef ptr @_ZN4entt8internal8look_forITnDaXadL_ZNS0_20meta_type_descriptor4propEEEEEPDaRKNS0_12meta_contextERKNS0_14meta_type_nodeEj(ptr noundef nonnull align 8 dereferenceable(56) %17, ptr noundef nonnull align 8 dereferenceable(112) %type, i32 noundef -1063355869)
          to label %invoke.cont11 unwind label %lpad10

invoke.cont11:                                    ; preds = %invoke.cont6
  %tobool.not.i416 = icmp eq ptr %call2.i420, null
  %19 = load ptr, ptr %ctx.i, align 8
  %spec.select.i417 = select i1 %tobool.not.i416, ptr null, ptr %19
  store ptr %call2.i420, ptr %key_only, align 8
  %20 = getelementptr inbounds i8, ptr %key_only, i64 8
  store ptr %spec.select.i417, ptr %20, align 8
  call void @llvm.lifetime.start.p0(i64 16, ptr nonnull %key_value) #21
  %call2.i440 = invoke noundef ptr @_ZN4entt8internal8look_forITnDaXadL_ZNS0_20meta_type_descriptor4propEEEEEPDaRKNS0_12meta_contextERKNS0_14meta_type_nodeEj(ptr noundef nonnull align 8 dereferenceable(56) %19, ptr noundef nonnull align 8 dereferenceable(112) %type, i32 noundef 1746258028)
          to label %invoke.cont16 unwind label %lpad15

invoke.cont16:                                    ; preds = %invoke.cont11
  %tobool.not.i436 = icmp eq ptr %call2.i440, null
  %21 = load ptr, ptr %ctx.i, align 8
  %spec.select.i437 = select i1 %tobool.not.i436, ptr null, ptr %21
  store ptr %call2.i440, ptr %key_value, align 8
  %22 = getelementptr inbounds i8, ptr %key_value, i64 8
  store ptr %spec.select.i437, ptr %22, align 8
  call void @llvm.lifetime.start.p0(i64 16, ptr nonnull %gtest_ar_) #21
  %23 = load ptr, ptr %prop_bool, align 8, !tbaa !42
  %cmp.i.i = icmp ne ptr %23, null
  %frombool.i = zext i1 %cmp.i.i to i8
  store i8 %frombool.i, ptr %gtest_ar_, align 8, !tbaa !44
  %message_.i = getelementptr inbounds i8, ptr %gtest_ar_, i64 8
  store ptr null, ptr %message_.i, align 8, !tbaa !53
  br i1 %cmp.i.i, label %cleanup.cont, label %if.else

lpad:                                             ; preds = %_ZN4entt7resolveI9derived_tEENS_9meta_typeERKNS_8meta_ctxE.exit
  %24 = landingpad { ptr, i32 }
          cleanup
  br label %ehcleanup314

lpad5:                                            ; preds = %invoke.cont
  %25 = landingpad { ptr, i32 }
          cleanup
  br label %ehcleanup312

lpad10:                                           ; preds = %invoke.cont6
  %26 = landingpad { ptr, i32 }
          cleanup
  br label %ehcleanup310

lpad15:                                           ; preds = %invoke.cont11
  %27 = landingpad { ptr, i32 }
          cleanup
  br label %ehcleanup308

if.else:                                          ; preds = %invoke.cont16
  call void @llvm.lifetime.start.p0(i64 8, ptr nonnull %ref.tmp23) #21
  invoke void @_ZN7testing7MessageC1Ev(ptr noundef nonnull align 8 dereferenceable(8) %ref.tmp23)
          to label %invoke.cont25 unwind label %lpad24

invoke.cont25:                                    ; preds = %if.else
  call void @llvm.lifetime.start.p0(i64 8, ptr nonnull %ref.tmp26) #21
  call void @llvm.lifetime.start.p0(i64 32, ptr nonnull %ref.tmp27) #21
  invoke void @_ZN7testing8internal30GetBoolAssertionFailureMessageB5cxx11ERKNS_15AssertionResultEPKcS5_S5_(ptr nonnull sret(%"class.std::__cxx11::basic_string") align 8 %ref.tmp27, ptr noundef nonnull align 8 dereferenceable(16) %gtest_ar_, ptr noundef nonnull @.str.24, ptr noundef nonnull @.str.6, ptr noundef nonnull @.str.7)
          to label %invoke.cont29 unwind label %lpad28

invoke.cont29:                                    ; preds = %invoke.cont25
  %28 = load ptr, ptr %ref.tmp27, align 8, !tbaa !54
  invoke void @_ZN7testing8internal12AssertHelperC1ENS_14TestPartResult4TypeEPKciS5_(ptr noundef nonnull align 8 dereferenceable(8) %ref.tmp26, i32 noundef 2, ptr noundef nonnull @.str.3, i32 noundef 80, ptr noundef %28)
          to label %invoke.cont32 unwind label %lpad31

invoke.cont32:                                    ; preds = %invoke.cont29
  invoke void @_ZNK7testing8internal12AssertHelperaSERKNS_7MessageE(ptr noundef nonnull align 8 dereferenceable(8) %ref.tmp26, ptr noundef nonnull align 8 dereferenceable(8) %ref.tmp23)
          to label %invoke.cont34 unwind label %lpad33

invoke.cont34:                                    ; preds = %invoke.cont32
  call void @_ZN7testing8internal12AssertHelperD1Ev(ptr noundef nonnull align 8 dereferenceable(8) %ref.tmp26) #21
  %29 = load ptr, ptr %ref.tmp27, align 8, !tbaa !54
  %30 = getelementptr inbounds i8, ptr %ref.tmp27, i64 16
  %cmp.i.i.i = icmp eq ptr %29, %30
  br i1 %cmp.i.i.i, label %_ZNKSt7__cxx1112basic_stringIcSt11char_traitsIcESaIcEE11_M_is_localEv.exit.thread.i.i, label %if.then.i.i

_ZNKSt7__cxx1112basic_stringIcSt11char_traitsIcESaIcEE11_M_is_localEv.exit.thread.i.i: ; preds = %invoke.cont34
  %_M_string_length.i.i.i = getelementptr inbounds i8, ptr %ref.tmp27, i64 8
  %31 = load i64, ptr %_M_string_length.i.i.i, align 8, !tbaa !57
  %cmp3.i.i.i = icmp ult i64 %31, 16
  call void @llvm.assume(i1 %cmp3.i.i.i)
  br label %_ZNSt7__cxx1112basic_stringIcSt11char_traitsIcESaIcEED2Ev.exit

if.then.i.i:                                      ; preds = %invoke.cont34
  call void @_ZdlPv(ptr noundef %29) #23
  br label %_ZNSt7__cxx1112basic_stringIcSt11char_traitsIcESaIcEED2Ev.exit

_ZNSt7__cxx1112basic_stringIcSt11char_traitsIcESaIcEED2Ev.exit: ; preds = %if.then.i.i, %_ZNKSt7__cxx1112basic_stringIcSt11char_traitsIcESaIcEE11_M_is_localEv.exit.thread.i.i
  call void @llvm.lifetime.end.p0(i64 32, ptr nonnull %ref.tmp27) #21
  call void @llvm.lifetime.end.p0(i64 8, ptr nonnull %ref.tmp26) #21
  %32 = load ptr, ptr %ref.tmp23, align 8, !tbaa !58
  %cmp.not.i.i = icmp eq ptr %32, null
  br i1 %cmp.not.i.i, label %_ZN7testing7MessageD2Ev.exit, label %_ZNKSt14default_deleteINSt7__cxx1118basic_stringstreamIcSt11char_traitsIcESaIcEEEEclEPS5_.exit.i.i

_ZNKSt14default_deleteINSt7__cxx1118basic_stringstreamIcSt11char_traitsIcESaIcEEEEclEPS5_.exit.i.i: ; preds = %_ZNSt7__cxx1112basic_stringIcSt11char_traitsIcESaIcEED2Ev.exit
  %vtable.i.i.i = load ptr, ptr %32, align 8, !tbaa !4
  %vfn.i.i.i = getelementptr inbounds i8, ptr %vtable.i.i.i, i64 8
  %33 = load ptr, ptr %vfn.i.i.i, align 8
  call void %33(ptr noundef nonnull align 8 dereferenceable(128) %32) #21
  br label %_ZN7testing7MessageD2Ev.exit

_ZN7testing7MessageD2Ev.exit:                     ; preds = %_ZNKSt14default_deleteINSt7__cxx1118basic_stringstreamIcSt11char_traitsIcESaIcEEEEclEPS5_.exit.i.i, %_ZNSt7__cxx1112basic_stringIcSt11char_traitsIcESaIcEED2Ev.exit
  call void @llvm.lifetime.end.p0(i64 8, ptr nonnull %ref.tmp23) #21
  %34 = load ptr, ptr %message_.i, align 8, !tbaa !58
  %cmp.not.i.i443 = icmp eq ptr %34, null
  br i1 %cmp.not.i.i443, label %_ZN7testing15AssertionResultD2Ev.exit, label %delete.notnull.i.i.i

delete.notnull.i.i.i:                             ; preds = %_ZN7testing7MessageD2Ev.exit
  %35 = load ptr, ptr %34, align 8, !tbaa !54
  %36 = getelementptr inbounds i8, ptr %34, i64 16
  %cmp.i.i.i.i.i.i = icmp eq ptr %35, %36
  br i1 %cmp.i.i.i.i.i.i, label %_ZNKSt7__cxx1112basic_stringIcSt11char_traitsIcESaIcEE11_M_is_localEv.exit.thread.i.i.i.i.i, label %if.then.i.i.i.i.i

_ZNKSt7__cxx1112basic_stringIcSt11char_traitsIcESaIcEE11_M_is_localEv.exit.thread.i.i.i.i.i: ; preds = %delete.notnull.i.i.i
  %_M_string_length.i.i.i.i.i.i = getelementptr inbounds i8, ptr %34, i64 8
  %37 = load i64, ptr %_M_string_length.i.i.i.i.i.i, align 8, !tbaa !57
  %cmp3.i.i.i.i.i.i = icmp ult i64 %37, 16
  call void @llvm.assume(i1 %cmp3.i.i.i.i.i.i)
  br label %_ZNKSt14default_deleteINSt7__cxx1112basic_stringIcSt11char_traitsIcESaIcEEEEclEPS5_.exit.i.i

if.then.i.i.i.i.i:                                ; preds = %delete.notnull.i.i.i
  call void @_ZdlPv(ptr noundef %35) #23
  br label %_ZNKSt14default_deleteINSt7__cxx1112basic_stringIcSt11char_traitsIcESaIcEEEEclEPS5_.exit.i.i

_ZNKSt14default_deleteINSt7__cxx1112basic_stringIcSt11char_traitsIcESaIcEEEEclEPS5_.exit.i.i: ; preds = %if.then.i.i.i.i.i, %_ZNKSt7__cxx1112basic_stringIcSt11char_traitsIcESaIcEE11_M_is_localEv.exit.thread.i.i.i.i.i
  call void @_ZdlPv(ptr noundef nonnull %34) #23
  br label %_ZN7testing15AssertionResultD2Ev.exit

_ZN7testing15AssertionResultD2Ev.exit:            ; preds = %_ZNKSt14default_deleteINSt7__cxx1112basic_stringIcSt11char_traitsIcESaIcEEEEclEPS5_.exit.i.i, %_ZN7testing7MessageD2Ev.exit
  call void @llvm.lifetime.end.p0(i64 16, ptr nonnull %gtest_ar_) #21
  br label %cleanup307

lpad24:                                           ; preds = %if.else
  %38 = landingpad { ptr, i32 }
          cleanup
  br label %ehcleanup38

lpad28:                                           ; preds = %invoke.cont25
  %39 = landingpad { ptr, i32 }
          cleanup
  br label %ehcleanup35

lpad31:                                           ; preds = %invoke.cont29
  %40 = landingpad { ptr, i32 }
          cleanup
  br label %ehcleanup

lpad33:                                           ; preds = %invoke.cont32
  %41 = landingpad { ptr, i32 }
          cleanup
  call void @_ZN7testing8internal12AssertHelperD1Ev(ptr noundef nonnull align 8 dereferenceable(8) %ref.tmp26) #21
  br label %ehcleanup

ehcleanup:                                        ; preds = %lpad33, %lpad31
  %.pn = phi { ptr, i32 } [ %41, %lpad33 ], [ %40, %lpad31 ]
  %42 = load ptr, ptr %ref.tmp27, align 8, !tbaa !54
  %43 = getelementptr inbounds i8, ptr %ref.tmp27, i64 16
  %cmp.i.i.i444 = icmp eq ptr %42, %43
  br i1 %cmp.i.i.i444, label %_ZNKSt7__cxx1112basic_stringIcSt11char_traitsIcESaIcEE11_M_is_localEv.exit.thread.i.i446, label %if.then.i.i445

_ZNKSt7__cxx1112basic_stringIcSt11char_traitsIcESaIcEE11_M_is_localEv.exit.thread.i.i446: ; preds = %ehcleanup
  %_M_string_length.i.i.i447 = getelementptr inbounds i8, ptr %ref.tmp27, i64 8
  %44 = load i64, ptr %_M_string_length.i.i.i447, align 8, !tbaa !57
  %cmp3.i.i.i448 = icmp ult i64 %44, 16
  call void @llvm.assume(i1 %cmp3.i.i.i448)
  br label %ehcleanup35

if.then.i.i445:                                   ; preds = %ehcleanup
  call void @_ZdlPv(ptr noundef %42) #23
  br label %ehcleanup35

ehcleanup35:                                      ; preds = %if.then.i.i445, %_ZNKSt7__cxx1112basic_stringIcSt11char_traitsIcESaIcEE11_M_is_localEv.exit.thread.i.i446, %lpad28
  %.pn.pn = phi { ptr, i32 } [ %39, %lpad28 ], [ %.pn, %_ZNKSt7__cxx1112basic_stringIcSt11char_traitsIcESaIcEE11_M_is_localEv.exit.thread.i.i446 ], [ %.pn, %if.then.i.i445 ]
  call void @llvm.lifetime.end.p0(i64 32, ptr nonnull %ref.tmp27) #21
  call void @llvm.lifetime.end.p0(i64 8, ptr nonnull %ref.tmp26) #21
  %45 = load ptr, ptr %ref.tmp23, align 8, !tbaa !58
  %cmp.not.i.i450 = icmp eq ptr %45, null
  br i1 %cmp.not.i.i450, label %ehcleanup38, label %_ZNKSt14default_deleteINSt7__cxx1118basic_stringstreamIcSt11char_traitsIcESaIcEEEEclEPS5_.exit.i.i451

_ZNKSt14default_deleteINSt7__cxx1118basic_stringstreamIcSt11char_traitsIcESaIcEEEEclEPS5_.exit.i.i451: ; preds = %ehcleanup35
  %vtable.i.i.i452 = load ptr, ptr %45, align 8, !tbaa !4
  %vfn.i.i.i453 = getelementptr inbounds i8, ptr %vtable.i.i.i452, i64 8
  %46 = load ptr, ptr %vfn.i.i.i453, align 8
  call void %46(ptr noundef nonnull align 8 dereferenceable(128) %45) #21
  br label %ehcleanup38

ehcleanup38:                                      ; preds = %_ZNKSt14default_deleteINSt7__cxx1118basic_stringstreamIcSt11char_traitsIcESaIcEEEEclEPS5_.exit.i.i451, %ehcleanup35, %lpad24
  %.pn.pn.pn = phi { ptr, i32 } [ %38, %lpad24 ], [ %.pn.pn, %ehcleanup35 ], [ %.pn.pn, %_ZNKSt14default_deleteINSt7__cxx1118basic_stringstreamIcSt11char_traitsIcESaIcEEEEclEPS5_.exit.i.i451 ]
  call void @llvm.lifetime.end.p0(i64 8, ptr nonnull %ref.tmp23) #21
  call void @_ZN7testing15AssertionResultD2Ev(ptr noundef nonnull align 8 dereferenceable(16) %gtest_ar_) #21
  call void @llvm.lifetime.end.p0(i64 16, ptr nonnull %gtest_ar_) #21
  br label %ehcleanup308

cleanup.cont:                                     ; preds = %invoke.cont16
  call void @llvm.lifetime.end.p0(i64 16, ptr nonnull %gtest_ar_) #21
  call void @llvm.lifetime.start.p0(i64 16, ptr nonnull %gtest_ar_42) #21
  %47 = load ptr, ptr %prop_int, align 8, !tbaa !42
  %cmp.i.i465 = icmp ne ptr %47, null
  %frombool.i466 = zext i1 %cmp.i.i465 to i8
  store i8 %frombool.i466, ptr %gtest_ar_42, align 8, !tbaa !44
  %message_.i467 = getelementptr inbounds i8, ptr %gtest_ar_42, i64 8
  store ptr null, ptr %message_.i467, align 8, !tbaa !53
  br i1 %cmp.i.i465, label %cleanup.cont73, label %if.else49

if.else49:                                        ; preds = %cleanup.cont
  call void @llvm.lifetime.start.p0(i64 8, ptr nonnull %ref.tmp50) #21
  invoke void @_ZN7testing7MessageC1Ev(ptr noundef nonnull align 8 dereferenceable(8) %ref.tmp50)
          to label %invoke.cont52 unwind label %lpad51

invoke.cont52:                                    ; preds = %if.else49
  call void @llvm.lifetime.start.p0(i64 8, ptr nonnull %ref.tmp53) #21
  call void @llvm.lifetime.start.p0(i64 32, ptr nonnull %ref.tmp54) #21
  invoke void @_ZN7testing8internal30GetBoolAssertionFailureMessageB5cxx11ERKNS_15AssertionResultEPKcS5_S5_(ptr nonnull sret(%"class.std::__cxx11::basic_string") align 8 %ref.tmp54, ptr noundef nonnull align 8 dereferenceable(16) %gtest_ar_42, ptr noundef nonnull @.str.25, ptr noundef nonnull @.str.6, ptr noundef nonnull @.str.7)
          to label %invoke.cont56 unwind label %lpad55

invoke.cont56:                                    ; preds = %invoke.cont52
  %48 = load ptr, ptr %ref.tmp54, align 8, !tbaa !54
  invoke void @_ZN7testing8internal12AssertHelperC1ENS_14TestPartResult4TypeEPKciS5_(ptr noundef nonnull align 8 dereferenceable(8) %ref.tmp53, i32 noundef 2, ptr noundef nonnull @.str.3, i32 noundef 81, ptr noundef %48)
          to label %invoke.cont59 unwind label %lpad58

invoke.cont59:                                    ; preds = %invoke.cont56
  invoke void @_ZNK7testing8internal12AssertHelperaSERKNS_7MessageE(ptr noundef nonnull align 8 dereferenceable(8) %ref.tmp53, ptr noundef nonnull align 8 dereferenceable(8) %ref.tmp50)
          to label %invoke.cont61 unwind label %lpad60

invoke.cont61:                                    ; preds = %invoke.cont59
  call void @_ZN7testing8internal12AssertHelperD1Ev(ptr noundef nonnull align 8 dereferenceable(8) %ref.tmp53) #21
  %49 = load ptr, ptr %ref.tmp54, align 8, !tbaa !54
  %50 = getelementptr inbounds i8, ptr %ref.tmp54, i64 16
  %cmp.i.i.i469 = icmp eq ptr %49, %50
  br i1 %cmp.i.i.i469, label %_ZNKSt7__cxx1112basic_stringIcSt11char_traitsIcESaIcEE11_M_is_localEv.exit.thread.i.i471, label %if.then.i.i470

_ZNKSt7__cxx1112basic_stringIcSt11char_traitsIcESaIcEE11_M_is_localEv.exit.thread.i.i471: ; preds = %invoke.cont61
  %_M_string_length.i.i.i472 = getelementptr inbounds i8, ptr %ref.tmp54, i64 8
  %51 = load i64, ptr %_M_string_length.i.i.i472, align 8, !tbaa !57
  %cmp3.i.i.i473 = icmp ult i64 %51, 16
  call void @llvm.assume(i1 %cmp3.i.i.i473)
  br label %_ZNSt7__cxx1112basic_stringIcSt11char_traitsIcESaIcEED2Ev.exit474

if.then.i.i470:                                   ; preds = %invoke.cont61
  call void @_ZdlPv(ptr noundef %49) #23
  br label %_ZNSt7__cxx1112basic_stringIcSt11char_traitsIcESaIcEED2Ev.exit474

_ZNSt7__cxx1112basic_stringIcSt11char_traitsIcESaIcEED2Ev.exit474: ; preds = %if.then.i.i470, %_ZNKSt7__cxx1112basic_stringIcSt11char_traitsIcESaIcEE11_M_is_localEv.exit.thread.i.i471
  call void @llvm.lifetime.end.p0(i64 32, ptr nonnull %ref.tmp54) #21
  call void @llvm.lifetime.end.p0(i64 8, ptr nonnull %ref.tmp53) #21
  %52 = load ptr, ptr %ref.tmp50, align 8, !tbaa !58
  %cmp.not.i.i475 = icmp eq ptr %52, null
  br i1 %cmp.not.i.i475, label %_ZN7testing7MessageD2Ev.exit479, label %_ZNKSt14default_deleteINSt7__cxx1118basic_stringstreamIcSt11char_traitsIcESaIcEEEEclEPS5_.exit.i.i476

_ZNKSt14default_deleteINSt7__cxx1118basic_stringstreamIcSt11char_traitsIcESaIcEEEEclEPS5_.exit.i.i476: ; preds = %_ZNSt7__cxx1112basic_stringIcSt11char_traitsIcESaIcEED2Ev.exit474
  %vtable.i.i.i477 = load ptr, ptr %52, align 8, !tbaa !4
  %vfn.i.i.i478 = getelementptr inbounds i8, ptr %vtable.i.i.i477, i64 8
  %53 = load ptr, ptr %vfn.i.i.i478, align 8
  call void %53(ptr noundef nonnull align 8 dereferenceable(128) %52) #21
  br label %_ZN7testing7MessageD2Ev.exit479

_ZN7testing7MessageD2Ev.exit479:                  ; preds = %_ZNKSt14default_deleteINSt7__cxx1118basic_stringstreamIcSt11char_traitsIcESaIcEEEEclEPS5_.exit.i.i476, %_ZNSt7__cxx1112basic_stringIcSt11char_traitsIcESaIcEED2Ev.exit474
  call void @llvm.lifetime.end.p0(i64 8, ptr nonnull %ref.tmp50) #21
  %54 = load ptr, ptr %message_.i467, align 8, !tbaa !58
  %cmp.not.i.i481 = icmp eq ptr %54, null
  br i1 %cmp.not.i.i481, label %_ZN7testing15AssertionResultD2Ev.exit489, label %delete.notnull.i.i.i482

delete.notnull.i.i.i482:                          ; preds = %_ZN7testing7MessageD2Ev.exit479
  %55 = load ptr, ptr %54, align 8, !tbaa !54
  %56 = getelementptr inbounds i8, ptr %54, i64 16
  %cmp.i.i.i.i.i.i483 = icmp eq ptr %55, %56
  br i1 %cmp.i.i.i.i.i.i483, label %_ZNKSt7__cxx1112basic_stringIcSt11char_traitsIcESaIcEE11_M_is_localEv.exit.thread.i.i.i.i.i486, label %if.then.i.i.i.i.i484

