; ModuleID = 'bench/pbrt-v4/original/display.cpp.ll'
source_filename = "bench/pbrt-v4/original/display.cpp.ll"
target datalayout = "e-m:e-p270:32:32-p271:32:32-p272:64:64-i64:64-i128:128-f80:128-n8:16:32:64-S128"
target triple = "x86_64-unknown-linux-gnu"

%"class.std::thread" = type { %"class.std::thread::id" }
%"class.std::thread::id" = type { i64 }
%"class.std::vector.27" = type { %"struct.std::_Vector_base.28" }
%"struct.std::_Vector_base.28" = type { %"struct.std::_Vector_base<pbrt::DisplayItem, std::allocator<pbrt::DisplayItem>>::_Vector_impl" }
%"struct.std::_Vector_base<pbrt::DisplayItem, std::allocator<pbrt::DisplayItem>>::_Vector_impl" = type { %"struct.std::_Vector_base<pbrt::DisplayItem, std::allocator<pbrt::DisplayItem>>::_Vector_impl_data" }
%"struct.std::_Vector_base<pbrt::DisplayItem, std::allocator<pbrt::DisplayItem>>::_Vector_impl_data" = type { ptr, ptr, ptr }
%union.pthread_mutex_t = type { %struct.__pthread_mutex_s }
%struct.__pthread_mutex_s = type { i32, i32, i32, i32, i32, i16, i16, %struct.__pthread_internal_list }
%struct.__pthread_internal_list = type { ptr, ptr }
%"class.std::__cxx11::basic_string" = type { %"struct.std::__cxx11::basic_string<char>::_Alloc_hider", i64, %union.anon }
%"struct.std::__cxx11::basic_string<char>::_Alloc_hider" = type { ptr }
%union.anon = type { i64, [8 x i8] }
%"class.std::allocator" = type { i8 }
%"class.pbrt::IPCChannel" = type <{ i32, [4 x i8], %"class.std::__cxx11::basic_string", %"class.std::__cxx11::basic_string", i32, [4 x i8] }>
%struct.addrinfo = type { i32, i32, i32, i32, i32, ptr, ptr, ptr }
%struct.timeval = type { i64, i64 }
%"struct.pbrt::DisplayItem::ImageChannelBuffer" = type { %"class.std::vector.9", i32, i32, %"class.std::vector.14", i32, i32 }
%"class.std::vector.9" = type { %"struct.std::_Vector_base.10" }
%"struct.std::_Vector_base.10" = type { %"struct.std::_Vector_base<unsigned char, std::allocator<unsigned char>>::_Vector_impl" }
%"struct.std::_Vector_base<unsigned char, std::allocator<unsigned char>>::_Vector_impl" = type { %"struct.std::_Vector_base<unsigned char, std::allocator<unsigned char>>::_Vector_impl_data" }
%"struct.std::_Vector_base<unsigned char, std::allocator<unsigned char>>::_Vector_impl_data" = type { ptr, ptr, ptr }
%"class.std::vector.14" = type { %"struct.std::_Vector_base.15" }
%"struct.std::_Vector_base.15" = type { %"struct.std::_Vector_base<unsigned long, std::allocator<unsigned long>>::_Vector_impl" }
%"struct.std::_Vector_base<unsigned long, std::allocator<unsigned long>>::_Vector_impl" = type { %"struct.std::_Vector_base<unsigned long, std::allocator<unsigned long>>::_Vector_impl_data" }
%"struct.std::_Vector_base<unsigned long, std::allocator<unsigned long>>::_Vector_impl_data" = type { ptr, ptr, ptr }
%"class.pbrt::DisplayItem" = type { i8, %"class.std::__cxx11::basic_string", %"class.pbrt::Point2", %"class.std::function", %"class.std::vector", %"class.std::vector.3" }
%"class.pbrt::Point2" = type { %"class.pbrt::Tuple2" }
%"class.pbrt::Tuple2" = type { i32, i32 }
%"class.std::function" = type { %"class.std::_Function_base", ptr }
%"class.std::_Function_base" = type { %"union.std::_Any_data", ptr }
%"union.std::_Any_data" = type { %"union.std::_Nocopy_types" }
%"union.std::_Nocopy_types" = type { { i64, i64 } }
%"class.std::vector" = type { %"struct.std::_Vector_base" }
%"struct.std::_Vector_base" = type { %"struct.std::_Vector_base<std::__cxx11::basic_string<char>, std::allocator<std::__cxx11::basic_string<char>>>::_Vector_impl" }
%"struct.std::_Vector_base<std::__cxx11::basic_string<char>, std::allocator<std::__cxx11::basic_string<char>>>::_Vector_impl" = type { %"struct.std::_Vector_base<std::__cxx11::basic_string<char>, std::allocator<std::__cxx11::basic_string<char>>>::_Vector_impl_data" }
%"struct.std::_Vector_base<std::__cxx11::basic_string<char>, std::allocator<std::__cxx11::basic_string<char>>>::_Vector_impl_data" = type { ptr, ptr, ptr }
%"class.std::vector.3" = type { %"struct.std::_Vector_base.4" }
%"struct.std::_Vector_base.4" = type { %"struct.std::_Vector_base<pbrt::DisplayItem::ImageChannelBuffer, std::allocator<pbrt::DisplayItem::ImageChannelBuffer>>::_Vector_impl" }
%"struct.std::_Vector_base<pbrt::DisplayItem::ImageChannelBuffer, std::allocator<pbrt::DisplayItem::ImageChannelBuffer>>::_Vector_impl" = type { %"struct.std::_Vector_base<pbrt::DisplayItem::ImageChannelBuffer, std::allocator<pbrt::DisplayItem::ImageChannelBuffer>>::_Vector_impl_data" }
%"struct.std::_Vector_base<pbrt::DisplayItem::ImageChannelBuffer, std::allocator<pbrt::DisplayItem::ImageChannelBuffer>>::_Vector_impl_data" = type { ptr, ptr, ptr }
%"class.pbrt::Bounds2" = type { %"class.pbrt::Point2", %"class.pbrt::Point2" }
%"class.pstd::span.26" = type { ptr, i64 }
%"class.pstd::span.25" = type { ptr, i64 }
%"class.std::unique_ptr" = type { %"struct.std::__uniq_ptr_data" }
%"struct.std::__uniq_ptr_data" = type { %"class.std::__uniq_ptr_impl" }
%"class.std::__uniq_ptr_impl" = type { %"class.std::tuple" }
%"class.std::tuple" = type { %"struct.std::_Tuple_impl" }
%"struct.std::_Tuple_impl" = type { %"struct.std::_Head_base.54" }
%"struct.std::_Head_base.54" = type { ptr }
%"struct.std::thread::_State_impl" = type { %"struct.std::thread::_State", %"struct.std::thread::_Invoker" }
%"struct.std::thread::_State" = type { ptr }
%"struct.std::thread::_Invoker" = type { %"class.std::tuple.55" }
%"class.std::tuple.55" = type { %"struct.std::_Tuple_impl.56" }
%"struct.std::_Tuple_impl.56" = type { %"struct.std::_Head_base.57" }
%"struct.std::_Head_base.57" = type { ptr }
%struct.timespec = type { i64, i64 }
%"class.pstd::optional" = type { %"union.std::aligned_storage<48, 8>::type", i8, [7 x i8] }
%"union.std::aligned_storage<48, 8>::type" = type { [48 x i8] }
%"class.pbrt::InlinedVector" = type { %"class.pstd::pmr::polymorphic_allocator.43", ptr, %union.anon.44, i64, i64 }
%"class.pstd::pmr::polymorphic_allocator.43" = type { ptr }
%union.anon.44 = type { [4 x i32] }
%class.anon = type { %"class.pstd::optional", %"class.pbrt::Image" }
%"class.pbrt::Image" = type { i32, %"class.pbrt::Point2", %"class.pstd::vector", %"class.pbrt::ColorEncoding", %"class.pstd::vector.34", %"class.pstd::vector.36", %"class.pstd::vector.38" }
%"class.pstd::vector" = type { %"class.pstd::pmr::polymorphic_allocator", ptr, i64, i64 }
%"class.pstd::pmr::polymorphic_allocator" = type { ptr }
%"class.pbrt::ColorEncoding" = type { %"class.pbrt::TaggedPointer" }
%"class.pbrt::TaggedPointer" = type { i64 }
%"class.pstd::vector.34" = type { %"class.pstd::pmr::polymorphic_allocator.35", ptr, i64, i64 }
%"class.pstd::pmr::polymorphic_allocator.35" = type { ptr }
%"class.pstd::vector.36" = type { %"class.pstd::pmr::polymorphic_allocator.37", ptr, i64, i64 }
%"class.pstd::pmr::polymorphic_allocator.37" = type { ptr }
%"class.pstd::vector.38" = type { %"class.pstd::pmr::polymorphic_allocator.39", ptr, i64, i64 }
%"class.pstd::pmr::polymorphic_allocator.39" = type { ptr }
%"class.pbrt::Half" = type { i16 }
%struct._Guard = type { ptr }
%"class.std::__cxx11::basic_stringstream" = type { %"class.std::basic_iostream.base", %"class.std::__cxx11::basic_stringbuf", %"class.std::basic_ios" }
%"class.std::basic_iostream.base" = type { %"class.std::basic_istream.base", %"class.std::basic_ostream.base" }
%"class.std::basic_istream.base" = type { ptr, i64 }
%"class.std::basic_ostream.base" = type { ptr }
%"class.std::__cxx11::basic_stringbuf" = type { %"class.std::basic_streambuf", i32, %"class.std::__cxx11::basic_string" }
%"class.std::basic_streambuf" = type { ptr, ptr, ptr, ptr, ptr, ptr, ptr, %"class.std::locale" }
%"class.std::locale" = type { ptr }
%"class.std::basic_ios" = type { %"class.std::ios_base", ptr, i8, i8, ptr, ptr, ptr, ptr }
%"class.std::ios_base" = type { ptr, i64, i64, i32, i32, i32, ptr, %"struct.std::ios_base::_Words", [8 x %"struct.std::ios_base::_Words"], i32, ptr, %"class.std::locale" }
%"struct.std::ios_base::_Words" = type { ptr, i64 }
%"struct.pbrt::ImageChannelValues" = type { %"class.pbrt::InlinedVector.46" }
%"class.pbrt::InlinedVector.46" = type { %"class.pstd::pmr::polymorphic_allocator.39", ptr, %union.anon.47, i64, i64 }
%union.anon.47 = type { [4 x float] }
%struct._Guard.49 = type { ptr }

$_ZN4pbrt9ErrorExitIJRKNSt7__cxx1112basic_stringIcSt11char_traitsIcESaIcEEEEEEvPKcDpOT_ = comdat any

$_ZN4pbrt8LogFatalIJRA9_KcRA5_S1_S3_RiS5_S6_EEEvNS_8LogLevelEPS1_iS8_DpOT_ = comdat any

$_ZN4pbrt9ErrorExitIJPKcEEEvS2_DpOT_ = comdat any

$__clang_call_terminate = comdat any

$_ZN4pbrt8LogFatalIJRA12_KcEEEvNS_8LogLevelEPS1_iS5_DpOT_ = comdat any

$_ZNSt6vectorINSt7__cxx1112basic_stringIcSt11char_traitsIcESaIcEEESaIS5_EEC2ERKS7_ = comdat any

$_ZN4pbrt11DisplayItem18ImageChannelBufferD2Ev = comdat any

$_ZNSt6vectorIN4pbrt11DisplayItem18ImageChannelBufferESaIS2_EED2Ev = comdat any

$_ZNSt6vectorINSt7__cxx1112basic_stringIcSt11char_traitsIcESaIcEEESaIS5_EED2Ev = comdat any

$_ZNSt6vectorIhSaIhEE6resizeEm = comdat any

$_ZNSt6threadD2Ev = comdat any

$_ZNSt6vectorIN4pbrt11DisplayItemESaIS1_EED2Ev = comdat any

$_ZN4pbrt8LogFatalIJRA19_KcEEEvNS_8LogLevelEPS1_iS5_DpOT_ = comdat any

$_ZN4pstd8optionalIN4pbrt16ImageChannelDescEED2Ev = comdat any

$_ZN4pbrt11DisplayItemD2Ev = comdat any

$_ZN4pbrt5ImageC2ERKS0_ = comdat any

$_ZN4pstd6vectorINSt7__cxx1112basic_stringIcSt11char_traitsIcESaIcEEENS_3pmr21polymorphic_allocatorIS6_EEEC2ERKSA_RKS9_ = comdat any

$_ZN4pstd6vectorIN4pbrt4HalfENS_3pmr21polymorphic_allocatorIS2_EEED2Ev = comdat any

$_ZN4pstd6vectorIhNS_3pmr21polymorphic_allocatorIhEEED2Ev = comdat any

$_ZN4pstd6vectorINSt7__cxx1112basic_stringIcSt11char_traitsIcESaIcEEENS_3pmr21polymorphic_allocatorIS6_EEED2Ev = comdat any

$_ZN4pbrt6detail9formatOneIPKcEENSt9enable_ifIXntsr3stdE10is_class_vINSt5decayIT_E4typeEEENSt7__cxx1112basic_stringIcSt11char_traitsIcESaIcEEEE4typeES3_OS6_ = comdat any

$_ZNSt7__cxx1112basic_stringIcSt11char_traitsIcESaIcEE12_M_constructIPKcEEvT_S8_St20forward_iterator_tag = comdat any

$_ZZNSt7__cxx1112basic_stringIcSt11char_traitsIcESaIcEE12_M_constructIPKcEEvT_S8_St20forward_iterator_tagEN6_GuardD2Ev = comdat any

$_ZNSt6vectorINSt7__cxx1112basic_stringIcSt11char_traitsIcESaIcEEESaIS5_EE13_M_assign_auxIPKS5_EEvT_SB_St20forward_iterator_tag = comdat any

$_ZNSt6vectorINSt7__cxx1112basic_stringIcSt11char_traitsIcESaIcEEESaIS5_EE20_M_allocate_and_copyIPKS5_EEPS5_mT_SC_ = comdat any

$_ZNSt6vectorINSt7__cxx1112basic_stringIcSt11char_traitsIcESaIcEEESaIS5_EE17_M_realloc_insertIJS5_EEEvN9__gnu_cxx17__normal_iteratorIPS5_S7_EEDpOT_ = comdat any

$_ZN4pbrt6detail21stringPrintfRecursiveIRiJEEEvPNSt7__cxx1112basic_stringIcSt11char_traitsIcESaIcEEEPKcOT_DpOT0_ = comdat any

$_ZN4pbrt6detail9formatOneIRiEENSt9enable_ifIXntsr3stdE10is_class_vINSt5decayIT_E4typeEEENSt7__cxx1112basic_stringIcSt11char_traitsIcESaIcEEEE4typeEPKcOS5_ = comdat any

$_ZN4pbrt5ImageD2Ev = comdat any

$_ZN4pbrt6detail21stringPrintfRecursiveIRKNSt7__cxx1112basic_stringIcSt11char_traitsIcESaIcEEEJEEEvPS7_PKcOT_DpOT0_ = comdat any

$_ZN4pbrt8LogFatalIJPKcRS2_EEEvNS_8LogLevelES2_iS2_DpOT_ = comdat any

$_ZN4pbrt6detail21stringPrintfRecursiveIPKcJRS3_EEEvPNSt7__cxx1112basic_stringIcSt11char_traitsIcESaIcEEES3_OT_DpOT0_ = comdat any

$_ZN4pbrt6detail21stringPrintfRecursiveIRPKcJEEEvPNSt7__cxx1112basic_stringIcSt11char_traitsIcESaIcEEES3_OT_DpOT0_ = comdat any

$_ZN4pbrt6detail9formatOneIRPKcEENSt9enable_ifIXntsr3stdE10is_class_vINSt5decayIT_E4typeEEENSt7__cxx1112basic_stringIcSt11char_traitsIcESaIcEEEE4typeES3_OS7_ = comdat any

$_ZNSt7__cxx1112basic_stringIcSt11char_traitsIcESaIcEE12_M_constructIN9__gnu_cxx17__normal_iteratorIPKcS4_EEEEvT_SB_St20forward_iterator_tag = comdat any

$_ZZNSt7__cxx1112basic_stringIcSt11char_traitsIcESaIcEE12_M_constructIN9__gnu_cxx17__normal_iteratorIPKcS4_EEEEvT_SB_St20forward_iterator_tagEN6_GuardD2Ev = comdat any

$_ZN4pbrt6detail21stringPrintfRecursiveIRA9_KcJRA5_S2_S4_RiS6_S7_EEEvPNSt7__cxx1112basic_stringIcSt11char_traitsIcESaIcEEEPS2_OT_DpOT0_ = comdat any

$_ZN4pbrt6detail9formatOneIRA9_KcEENSt9enable_ifIXntsr3stdE10is_class_vINSt5decayIT_E4typeEEENSt7__cxx1112basic_stringIcSt11char_traitsIcESaIcEEEE4typeEPS2_OS7_ = comdat any

$_ZN4pbrt6detail21stringPrintfRecursiveIRA5_KcJRA9_S2_RiS4_S7_EEEvPNSt7__cxx1112basic_stringIcSt11char_traitsIcESaIcEEEPS2_OT_DpOT0_ = comdat any

$_ZN4pbrt6detail9formatOneIRA5_KcEENSt9enable_ifIXntsr3stdE10is_class_vINSt5decayIT_E4typeEEENSt7__cxx1112basic_stringIcSt11char_traitsIcESaIcEEEE4typeEPS2_OS7_ = comdat any

$_ZN4pbrt6detail21stringPrintfRecursiveIRA9_KcJRiRA5_S2_S5_EEEvPNSt7__cxx1112basic_stringIcSt11char_traitsIcESaIcEEEPS2_OT_DpOT0_ = comdat any

$_ZN4pbrt6detail21stringPrintfRecursiveIRiJRA5_KcS2_EEEvPNSt7__cxx1112basic_stringIcSt11char_traitsIcESaIcEEEPS3_OT_DpOT0_ = comdat any

$_ZN4pbrt6detail34stringPrintfRecursiveWithPrecisionIRA5_KcJRiEEENSt9enable_ifIXntsr3stdE10is_class_vINSt5decayIT_E4typeEEEvE4typeEPNSt7__cxx1112basic_stringIcSt11char_traitsIcESaIcEEEPS2_RKSI_iOS8_DpOT0_ = comdat any

$_ZN4pbrt6detail21stringPrintfRecursiveIRA5_KcJRiEEEvPNSt7__cxx1112basic_stringIcSt11char_traitsIcESaIcEEEPS2_OT_DpOT0_ = comdat any

$_ZN4pbrt6detail21stringPrintfRecursiveIPKcJEEEvPNSt7__cxx1112basic_stringIcSt11char_traitsIcESaIcEEES3_OT_DpOT0_ = comdat any

$_ZN4pbrt6detail21stringPrintfRecursiveINSt7__cxx1112basic_stringIcSt11char_traitsIcESaIcEEEJEEEvPS7_PKcOT_DpOT0_ = comdat any

$_ZN4pbrt6detail21stringPrintfRecursiveIRA12_KcJEEEvPNSt7__cxx1112basic_stringIcSt11char_traitsIcESaIcEEEPS2_OT_DpOT0_ = comdat any

$_ZN4pbrt6detail9formatOneIRA12_KcEENSt9enable_ifIXntsr3stdE10is_class_vINSt5decayIT_E4typeEEENSt7__cxx1112basic_stringIcSt11char_traitsIcESaIcEEEE4typeEPS2_OS7_ = comdat any

$_ZN4pbrt6detail21stringPrintfRecursiveIRKNSt7__cxx1112basic_stringIcSt11char_traitsIcESaIcEEEJiEEEvPS7_PKcOT_DpOT0_ = comdat any

$_ZN4pbrt6detail21stringPrintfRecursiveIiJEEEvPNSt7__cxx1112basic_stringIcSt11char_traitsIcESaIcEEEPKcOT_DpOT0_ = comdat any

$_ZN4pbrt6detail9formatOneIiEENSt9enable_ifIXntsr3stdE10is_class_vINSt5decayIT_E4typeEEENSt7__cxx1112basic_stringIcSt11char_traitsIcESaIcEEEE4typeEPKcOS4_ = comdat any

$_ZNSt6vectorIN4pbrt11DisplayItem18ImageChannelBufferESaIS2_EE17_M_realloc_insertIJS2_EEEvN9__gnu_cxx17__normal_iteratorIPS2_S4_EEDpOT_ = comdat any

$_ZNSt6vectorImSaImEE14_M_fill_assignEmRKm = comdat any

$_ZN4pbrt6detail21stringPrintfRecursiveIRA19_KcJEEEvPNSt7__cxx1112basic_stringIcSt11char_traitsIcESaIcEEEPS2_OT_DpOT0_ = comdat any

$_ZN4pbrt6detail9formatOneIRA19_KcEENSt9enable_ifIXntsr3stdE10is_class_vINSt5decayIT_E4typeEEENSt7__cxx1112basic_stringIcSt11char_traitsIcESaIcEEEE4typeEPS2_OS7_ = comdat any

$_ZNSt6thread11_State_implINS_8_InvokerISt5tupleIJPFvvEEEEEED2Ev = comdat any

$_ZNSt6thread11_State_implINS_8_InvokerISt5tupleIJPFvvEEEEEED0Ev = comdat any

$_ZNSt6thread11_State_implINS_8_InvokerISt5tupleIJPFvvEEEEEE6_M_runEv = comdat any

$_ZN4pbrt16ImageChannelDescC2ERKS0_ = comdat any

$_ZN4pbrt6detail21stringPrintfRecursiveIRNSt7__cxx1112basic_stringIcSt11char_traitsIcESaIcEEEJEEEvPS7_PKcOT_DpOT0_ = comdat any

$_ZNSt6vectorIN4pbrt11DisplayItemESaIS1_EE17_M_realloc_insertIJS1_EEEvN9__gnu_cxx17__normal_iteratorIPS1_S3_EEDpOT_ = comdat any

$_ZTSNSt7__cxx1112basic_stringIcSt11char_traitsIcESaIcEEE = comdat any

$_ZTVNSt6thread11_State_implINS_8_InvokerISt5tupleIJPFvvEEEEEEE = comdat any

$_ZTSNSt6thread11_State_implINS_8_InvokerISt5tupleIJPFvvEEEEEEE = comdat any

$_ZTINSt6thread11_State_implINS_8_InvokerISt5tupleIJPFvvEEEEEEE = comdat any

@.str = private unnamed_addr constant [61 x i8] c"Expected \22host:port\22 for display server address. Given \22%s\22.\00", align 1
@.str.2 = private unnamed_addr constant [119 x i8] c"generated/home/dtcxzyw/WorkSpace/Projects/compilers/llvm-opt-benchmark/bench/pbrt-v4/pbrt-v4/src/pbrt/util/display.cpp\00", align 1
@.str.3 = private unnamed_addr constant [45 x i8] c"Check failed: %s == %s with %s = %s, %s = %s\00", align 1
@.str.4 = private unnamed_addr constant [9 x i8] c"socketFd\00", align 1
@.str.5 = private unnamed_addr constant [5 x i8] c"(-1)\00", align 1
@_ZN4pbrt7logging8logLevelE = external local_unnamed_addr global i32, align 4
@.str.6 = private unnamed_addr constant [36 x i8] c"Trying to connect to display server\00", align 1
@.str.7 = private unnamed_addr constant [3 x i8] c"%s\00", align 1
@.str.8 = private unnamed_addr constant [20 x i8] c"socket() failed: %s\00", align 1
@.str.9 = private unnamed_addr constant [24 x i8] c"setsockopt() failed: %s\00", align 1
@.str.10 = private unnamed_addr constant [38 x i8] c"Connection refused. Will try again...\00", align 1
@.str.11 = private unnamed_addr constant [21 x i8] c"connect() failed: %s\00", align 1
@.str.12 = private unnamed_addr constant [28 x i8] c"Connected to display server\00", align 1
@.str.13 = private unnamed_addr constant [17 x i8] c"Check failed: %s\00", align 1
@.str.14 = private unnamed_addr constant [12 x i8] c"Connected()\00", align 1
@.str.15 = private unnamed_addr constant [34 x i8] c"send to display server failed: %s\00", align 1
@.str.16 = private unnamed_addr constant [8 x i8] c"%s (%d)\00", align 1
@_ZN4pbrtL12updateThreadE = internal global %"class.std::thread" zeroinitializer, align 8
@__dso_handle = external hidden global i8
@_ZN4pbrtL12dynamicItemsE = internal global %"class.std::vector.27" zeroinitializer, align 8
@_ZN4pbrtL7channelE = internal unnamed_addr global ptr null, align 8
@.str.19 = private unnamed_addr constant [19 x i8] c"channel == nullptr\00", align 1
@_ZN4pbrtL10exitThreadE.0 = internal unnamed_addr global i8 0, align 1
@.str.20 = private unnamed_addr constant [39 x i8] c"Unable to display static content \22%s\22.\00", align 1
@_ZN4pbrtL17numActiveChannelsE = internal global { i32 } zeroinitializer, align 4
@.str.22 = private unnamed_addr constant [2 x i8] c"R\00", align 1
@.str.23 = private unnamed_addr constant [2 x i8] c"G\00", align 1
@.str.24 = private unnamed_addr constant [2 x i8] c"B\00", align 1
@.str.25 = private unnamed_addr constant [11 x i8] c"channel %d\00", align 1
@.str.28 = private unnamed_addr constant [115 x i8] c"generated/home/dtcxzyw/WorkSpace/Projects/compilers/llvm-opt-benchmark/bench/pbrt-v4/pbrt-v4/src/pbrt/util/print.h\00", align 1
@.str.29 = private unnamed_addr constant [42 x i8] c"Non-integral type provided for %* format.\00", align 1
@.str.30 = private unnamed_addr constant [39 x i8] c"Non-integral type passed to %d format.\00", align 1
@.str.31 = private unnamed_addr constant [32 x i8] c"Excess values passed to Printf.\00", align 1
@.str.33 = private unnamed_addr constant [49 x i8] c"cannot create std::vector larger than max_size()\00", align 1
@.str.34 = private unnamed_addr constant [26 x i8] c"vector::_M_realloc_insert\00", align 1
@.str.35 = private unnamed_addr constant [4 x i8] c"MEH\00", align 1
@.str.36 = private unnamed_addr constant [2 x i8] c"d\00", align 1
@_ZTVN10__cxxabiv117__class_type_infoE = external global [0 x ptr]
@"_ZTSZN4pbrtL19GetImageDisplayItemERKNSt7__cxx1112basic_stringIcSt11char_traitsIcESaIcEEERKNS_5ImageEN4pstd8optionalINS_16ImageChannelDescEEEE3$_0" = internal constant [142 x i8] c"ZN4pbrtL19GetImageDisplayItemERKNSt7__cxx1112basic_stringIcSt11char_traitsIcESaIcEEERKNS_5ImageEN4pstd8optionalINS_16ImageChannelDescEEEE3$_0\00", align 1
@"_ZTIZN4pbrtL19GetImageDisplayItemERKNSt7__cxx1112basic_stringIcSt11char_traitsIcESaIcEEERKNS_5ImageEN4pstd8optionalINS_16ImageChannelDescEEEE3$_0" = internal constant { ptr, ptr } { ptr getelementptr inbounds (ptr, ptr @_ZTVN10__cxxabiv117__class_type_infoE, i64 2), ptr @"_ZTSZN4pbrtL19GetImageDisplayItemERKNSt7__cxx1112basic_stringIcSt11char_traitsIcESaIcEEERKNS_5ImageEN4pstd8optionalINS_16ImageChannelDescEEEE3$_0" }, align 8
@_ZN4pbrtL5mutexE = internal global { %union.pthread_mutex_t } zeroinitializer, align 8
@.str.38 = private unnamed_addr constant [54 x i8] c"Printf: Non-basic type %s passed for format string %s\00", align 1
@_ZTSNSt7__cxx1112basic_stringIcSt11char_traitsIcESaIcEEE = linkonce_odr dso_local constant [53 x i8] c"NSt7__cxx1112basic_stringIcSt11char_traitsIcESaIcEEE\00", comdat, align 1
@.str.39 = private unnamed_addr constant [26 x i8] c"vector::_M_default_append\00", align 1
@_ZTVNSt6thread11_State_implINS_8_InvokerISt5tupleIJPFvvEEEEEEE = linkonce_odr dso_local unnamed_addr constant { [5 x ptr] } { [5 x ptr] [ptr null, ptr @_ZTINSt6thread11_State_implINS_8_InvokerISt5tupleIJPFvvEEEEEEE, ptr @_ZNSt6thread11_State_implINS_8_InvokerISt5tupleIJPFvvEEEEEED2Ev, ptr @_ZNSt6thread11_State_implINS_8_InvokerISt5tupleIJPFvvEEEEEED0Ev, ptr @_ZNSt6thread11_State_implINS_8_InvokerISt5tupleIJPFvvEEEEEE6_M_runEv] }, comdat, align 8
@_ZTVN10__cxxabiv120__si_class_type_infoE = external global [0 x ptr]
@_ZTSNSt6thread11_State_implINS_8_InvokerISt5tupleIJPFvvEEEEEEE = linkonce_odr dso_local constant [59 x i8] c"NSt6thread11_State_implINS_8_InvokerISt5tupleIJPFvvEEEEEEE\00", comdat, align 1
@_ZTINSt6thread6_StateE = external constant ptr
@_ZTINSt6thread11_State_implINS_8_InvokerISt5tupleIJPFvvEEEEEEE = linkonce_odr dso_local constant { ptr, ptr, ptr } { ptr getelementptr inbounds (ptr, ptr @_ZTVN10__cxxabiv120__si_class_type_infoE, i64 2), ptr @_ZTSNSt6thread11_State_implINS_8_InvokerISt5tupleIJPFvvEEEEEEE, ptr @_ZTINSt6thread6_StateE }, comdat, align 8
@llvm.global_ctors = appending global [1 x { i32, ptr, ptr }] [{ i32, ptr, ptr } { i32 65535, ptr @_GLOBAL__sub_I_display.cpp, ptr null }]

@_ZN4pbrt10IPCChannelC1ERKNSt7__cxx1112basic_stringIcSt11char_traitsIcESaIcEEE = dso_local unnamed_addr alias void (ptr, ptr), ptr @_ZN4pbrt10IPCChannelC2ERKNSt7__cxx1112basic_stringIcSt11char_traitsIcESaIcEEE
@_ZN4pbrt10IPCChannelD1Ev = dso_local unnamed_addr alias void (ptr), ptr @_ZN4pbrt10IPCChannelD2Ev
@_ZN4pbrt11DisplayItemC1ERKNSt7__cxx1112basic_stringIcSt11char_traitsIcESaIcEEENS_6Point2IiEESt6vectorIS6_SaIS6_EESt8functionIFvNS_7Bounds2IiEEN4pstd4spanINSI_IfEEEEEE = dso_local unnamed_addr alias void (ptr, ptr, i64, ptr, ptr), ptr @_ZN4pbrt11DisplayItemC2ERKNSt7__cxx1112basic_stringIcSt11char_traitsIcESaIcEEENS_6Point2IiEESt6vectorIS6_SaIS6_EESt8functionIFvNS_7Bounds2IiEEN4pstd4spanINSI_IfEEEEEE
@_ZN4pbrt11DisplayItem18ImageChannelBufferC1ERKNSt7__cxx1112basic_stringIcSt11char_traitsIcESaIcEEEiS9_ = dso_local unnamed_addr alias void (ptr, ptr, i32, ptr), ptr @_ZN4pbrt11DisplayItem18ImageChannelBufferC2ERKNSt7__cxx1112basic_stringIcSt11char_traitsIcESaIcEEEiS9_

; Function Attrs: mustprogress uwtable
define dso_local void @_ZN4pbrt10IPCChannelC2ERKNSt7__cxx1112basic_stringIcSt11char_traitsIcESaIcEEE(ptr noundef nonnull align 8 dereferenceable(76) %this, ptr noundef nonnull align 8 dereferenceable(32) %hostname) unnamed_addr #0 align 2 personality ptr @__gxx_personality_v0 {
entry:
  %ref.tmp = alloca %"class.std::__cxx11::basic_string", align 8
  %ref.tmp14 = alloca %"class.std::allocator", align 1
  %ref.tmp21 = alloca %"class.std::__cxx11::basic_string", align 8
  %ref.tmp34 = alloca %"class.std::allocator", align 1
  store i32 0, ptr %this, align 8
  %address = getelementptr inbounds %"class.pbrt::IPCChannel", ptr %this, i64 0, i32 2
  tail call void @_ZNSt7__cxx1112basic_stringIcSt11char_traitsIcESaIcEEC1Ev(ptr noundef nonnull align 8 dereferenceable(32) %address) #20
  %port = getelementptr inbounds %"class.pbrt::IPCChannel", ptr %this, i64 0, i32 3
  tail call void @_ZNSt7__cxx1112basic_stringIcSt11char_traitsIcESaIcEEC1Ev(ptr noundef nonnull align 8 dereferenceable(32) %port) #20
  %socketFd = getelementptr inbounds %"class.pbrt::IPCChannel", ptr %this, i64 0, i32 4
  store i32 -1, ptr %socketFd, align 8
  %0 = atomicrmw add ptr @_ZN4pbrtL17numActiveChannelsE, i32 1 seq_cst, align 4
  %cmp = icmp eq i32 %0, 0
  br i1 %cmp, label %if.then, label %if.end

if.then:                                          ; preds = %entry
  %call2 = tail call ptr @signal(i32 noundef 13, ptr noundef nonnull inttoptr (i64 1 to ptr)) #20
  br label %if.end

if.end:                                           ; preds = %if.then, %entry
  %call3 = tail call noundef i64 @_ZNKSt7__cxx1112basic_stringIcSt11char_traitsIcESaIcEE12find_last_ofEcm(ptr noundef nonnull align 8 dereferenceable(32) %hostname, i8 noundef signext 58, i64 noundef -1) #20
  %cmp4 = icmp eq i64 %call3, -1
  br i1 %cmp4, label %if.then5, label %if.end6

if.then5:                                         ; preds = %if.end
  invoke void @_ZN4pbrt9ErrorExitIJRKNSt7__cxx1112basic_stringIcSt11char_traitsIcESaIcEEEEEEvPKcDpOT_(ptr noundef nonnull @.str, ptr noundef nonnull align 8 dereferenceable(32) %hostname) #21
          to label %invoke.cont unwind label %lpad

invoke.cont:                                      ; preds = %if.then5
  unreachable

lpad:                                             ; preds = %invoke.cont38, %if.then5
  %1 = landingpad { ptr, i32 }
          cleanup
  br label %ehcleanup

if.end6:                                          ; preds = %if.end
  %call7 = tail call ptr @_ZNKSt7__cxx1112basic_stringIcSt11char_traitsIcESaIcEE5beginEv(ptr noundef nonnull align 8 dereferenceable(32) %hostname) #20
  %call10 = tail call ptr @_ZNKSt7__cxx1112basic_stringIcSt11char_traitsIcESaIcEE5beginEv(ptr noundef nonnull align 8 dereferenceable(32) %hostname) #20
  %add.ptr.i = getelementptr inbounds i8, ptr %call10, i64 %call3
  call void @_ZNSaIcEC1Ev(ptr noundef nonnull align 1 dereferenceable(1) %ref.tmp14) #20
  %call.i9 = invoke noundef ptr @_ZNSt7__cxx1112basic_stringIcSt11char_traitsIcESaIcEE13_M_local_dataEv(ptr noundef nonnull align 8 dereferenceable(32) %ref.tmp)
          to label %call.i.noexc unwind label %lpad17

call.i.noexc:                                     ; preds = %if.end6
  invoke void @_ZNSt7__cxx1112basic_stringIcSt11char_traitsIcESaIcEE12_Alloc_hiderC1EPcRKS3_(ptr noundef nonnull align 8 dereferenceable(8) %ref.tmp, ptr noundef %call.i9, ptr noundef nonnull align 1 dereferenceable(1) %ref.tmp14)
          to label %.noexc unwind label %lpad17

.noexc:                                           ; preds = %call.i.noexc
  %_M_string_length.i = getelementptr inbounds %"class.std::__cxx11::basic_string", ptr %ref.tmp, i64 0, i32 1
  store i64 0, ptr %_M_string_length.i, align 8
  invoke void @_ZNSt7__cxx1112basic_stringIcSt11char_traitsIcESaIcEE12_M_constructIN9__gnu_cxx17__normal_iteratorIPKcS4_EEEEvT_SB_St20forward_iterator_tag(ptr noundef nonnull align 8 dereferenceable(32) %ref.tmp, ptr %call7, ptr %add.ptr.i)
          to label %invoke.cont18 unwind label %lpad.i

lpad.i:                                           ; preds = %.noexc
  %2 = landingpad { ptr, i32 }
          cleanup
  call void @_ZNSaIcED2Ev(ptr noundef nonnull align 1 dereferenceable(1) %ref.tmp) #20
  br label %lpad17.body

invoke.cont18:                                    ; preds = %.noexc
  %call20 = call noundef nonnull align 8 dereferenceable(32) ptr @_ZNSt7__cxx1112basic_stringIcSt11char_traitsIcESaIcEEaSEOS4_(ptr noundef nonnull align 8 dereferenceable(32) %address, ptr noundef nonnull align 8 dereferenceable(32) %ref.tmp) #20
  call void @_ZNSt7__cxx1112basic_stringIcSt11char_traitsIcESaIcEED1Ev(ptr noundef nonnull align 8 dereferenceable(32) %ref.tmp) #20
  call void @_ZNSaIcED1Ev(ptr noundef nonnull align 1 dereferenceable(1) %ref.tmp14) #20
  %call25 = call ptr @_ZNKSt7__cxx1112basic_stringIcSt11char_traitsIcESaIcEE5beginEv(ptr noundef nonnull align 8 dereferenceable(32) %hostname) #20
  %add.ptr.i10 = getelementptr inbounds i8, ptr %call25, i64 %call3
  %add.ptr.i11 = getelementptr inbounds i8, ptr %add.ptr.i10, i64 1
  %call32 = call ptr @_ZNKSt7__cxx1112basic_stringIcSt11char_traitsIcESaIcEE3endEv(ptr noundef nonnull align 8 dereferenceable(32) %hostname) #20
  call void @_ZNSaIcEC1Ev(ptr noundef nonnull align 1 dereferenceable(1) %ref.tmp34) #20
  %call.i15 = invoke noundef ptr @_ZNSt7__cxx1112basic_stringIcSt11char_traitsIcESaIcEE13_M_local_dataEv(ptr noundef nonnull align 8 dereferenceable(32) %ref.tmp21)
          to label %call.i.noexc14 unwind label %lpad37

call.i.noexc14:                                   ; preds = %invoke.cont18
  invoke void @_ZNSt7__cxx1112basic_stringIcSt11char_traitsIcESaIcEE12_Alloc_hiderC1EPcRKS3_(ptr noundef nonnull align 8 dereferenceable(8) %ref.tmp21, ptr noundef %call.i15, ptr noundef nonnull align 1 dereferenceable(1) %ref.tmp34)
          to label %.noexc16 unwind label %lpad37

.noexc16:                                         ; preds = %call.i.noexc14
  %_M_string_length.i12 = getelementptr inbounds %"class.std::__cxx11::basic_string", ptr %ref.tmp21, i64 0, i32 1
  store i64 0, ptr %_M_string_length.i12, align 8
  invoke void @_ZNSt7__cxx1112basic_stringIcSt11char_traitsIcESaIcEE12_M_constructIN9__gnu_cxx17__normal_iteratorIPKcS4_EEEEvT_SB_St20forward_iterator_tag(ptr noundef nonnull align 8 dereferenceable(32) %ref.tmp21, ptr nonnull %add.ptr.i11, ptr %call32)
          to label %invoke.cont38 unwind label %lpad.i13

lpad.i13:                                         ; preds = %.noexc16
  %3 = landingpad { ptr, i32 }
          cleanup
  call void @_ZNSaIcED2Ev(ptr noundef nonnull align 1 dereferenceable(1) %ref.tmp21) #20
  br label %lpad37.body

invoke.cont38:                                    ; preds = %.noexc16
  %call40 = call noundef nonnull align 8 dereferenceable(32) ptr @_ZNSt7__cxx1112basic_stringIcSt11char_traitsIcESaIcEEaSEOS4_(ptr noundef nonnull align 8 dereferenceable(32) %port, ptr noundef nonnull align 8 dereferenceable(32) %ref.tmp21) #20
  call void @_ZNSt7__cxx1112basic_stringIcSt11char_traitsIcESaIcEED1Ev(ptr noundef nonnull align 8 dereferenceable(32) %ref.tmp21) #20
  call void @_ZNSaIcED1Ev(ptr noundef nonnull align 1 dereferenceable(1) %ref.tmp34) #20
  invoke void @_ZN4pbrt10IPCChannel7ConnectEv(ptr noundef nonnull align 8 dereferenceable(76) %this)
          to label %invoke.cont41 unwind label %lpad

invoke.cont41:                                    ; preds = %invoke.cont38
  ret void

lpad17:                                           ; preds = %call.i.noexc, %if.end6
  %4 = landingpad { ptr, i32 }
          cleanup
  br label %lpad17.body

lpad17.body:                                      ; preds = %lpad.i, %lpad17
  %eh.lpad-body = phi { ptr, i32 } [ %4, %lpad17 ], [ %2, %lpad.i ]
  call void @_ZNSaIcED1Ev(ptr noundef nonnull align 1 dereferenceable(1) %ref.tmp14) #20
  br label %ehcleanup

lpad37:                                           ; preds = %call.i.noexc14, %invoke.cont18
  %5 = landingpad { ptr, i32 }
          cleanup
  br label %lpad37.body

lpad37.body:                                      ; preds = %lpad.i13, %lpad37
  %eh.lpad-body17 = phi { ptr, i32 } [ %5, %lpad37 ], [ %3, %lpad.i13 ]
  call void @_ZNSaIcED1Ev(ptr noundef nonnull align 1 dereferenceable(1) %ref.tmp34) #20
  br label %ehcleanup

ehcleanup:                                        ; preds = %lpad37.body, %lpad17.body, %lpad
  %.pn = phi { ptr, i32 } [ %1, %lpad ], [ %eh.lpad-body17, %lpad37.body ], [ %eh.lpad-body, %lpad17.body ]
  call void @_ZNSt7__cxx1112basic_stringIcSt11char_traitsIcESaIcEED1Ev(ptr noundef nonnull align 8 dereferenceable(32) %port) #20
  call void @_ZNSt7__cxx1112basic_stringIcSt11char_traitsIcESaIcEED1Ev(ptr noundef nonnull align 8 dereferenceable(32) %address) #20
  resume { ptr, i32 } %.pn
}

; Function Attrs: nounwind
declare void @_ZNSt7__cxx1112basic_stringIcSt11char_traitsIcESaIcEEC1Ev(ptr noundef nonnull align 8 dereferenceable(32)) unnamed_addr #1

; Function Attrs: nounwind
declare ptr @signal(i32 noundef, ptr noundef) local_unnamed_addr #1

; Function Attrs: nounwind
declare noundef i64 @_ZNKSt7__cxx1112basic_stringIcSt11char_traitsIcESaIcEE12find_last_ofEcm(ptr noundef nonnull align 8 dereferenceable(32), i8 noundef signext, i64 noundef) local_unnamed_addr #1

; Function Attrs: mustprogress noreturn uwtable
define linkonce_odr dso_local void @_ZN4pbrt9ErrorExitIJRKNSt7__cxx1112basic_stringIcSt11char_traitsIcESaIcEEEEEEvPKcDpOT_(ptr noundef %fmt, ptr noundef nonnull align 8 dereferenceable(32) %args) local_unnamed_addr #2 comdat personality ptr @__gxx_personality_v0 {
entry:
  %ref.tmp = alloca %"class.std::__cxx11::basic_string", align 8
  call void @_ZNSt7__cxx1112basic_stringIcSt11char_traitsIcESaIcEEC1Ev(ptr noundef nonnull align 8 dereferenceable(32) %ref.tmp) #20
  invoke void @_ZN4pbrt6detail21stringPrintfRecursiveIRKNSt7__cxx1112basic_stringIcSt11char_traitsIcESaIcEEEJEEEvPS7_PKcOT_DpOT0_(ptr noundef nonnull %ref.tmp, ptr noundef %fmt, ptr noundef nonnull align 8 dereferenceable(32) %args)
          to label %_ZN4pbrt12StringPrintfIJRKNSt7__cxx1112basic_stringIcSt11char_traitsIcESaIcEEEEEES6_PKcDpOT_.exit unwind label %lpad.i

common.resume:                                    ; preds = %lpad, %lpad.i
  %common.resume.op = phi { ptr, i32 } [ %0, %lpad.i ], [ %1, %lpad ]
  call void @_ZNSt7__cxx1112basic_stringIcSt11char_traitsIcESaIcEED1Ev(ptr noundef nonnull align 8 dereferenceable(32) %ref.tmp) #20
  resume { ptr, i32 } %common.resume.op

lpad.i:                                           ; preds = %entry
  %0 = landingpad { ptr, i32 }
          cleanup
  br label %common.resume

_ZN4pbrt12StringPrintfIJRKNSt7__cxx1112basic_stringIcSt11char_traitsIcESaIcEEEEEES6_PKcDpOT_.exit: ; preds = %entry
  %call = call noundef ptr @_ZNKSt7__cxx1112basic_stringIcSt11char_traitsIcESaIcEE5c_strEv(ptr noundef nonnull align 8 dereferenceable(32) %ref.tmp) #20
  invoke void @_ZN4pbrt9ErrorExitEPKNS_7FileLocEPKc(ptr noundef null, ptr noundef %call) #21
          to label %invoke.cont unwind label %lpad

invoke.cont:                                      ; preds = %_ZN4pbrt12StringPrintfIJRKNSt7__cxx1112basic_stringIcSt11char_traitsIcESaIcEEEEEES6_PKcDpOT_.exit
  unreachable

lpad:                                             ; preds = %_ZN4pbrt12StringPrintfIJRKNSt7__cxx1112basic_stringIcSt11char_traitsIcESaIcEEEEEES6_PKcDpOT_.exit
  %1 = landingpad { ptr, i32 }
          cleanup
  br label %common.resume
}

declare i32 @__gxx_personality_v0(...)

; Function Attrs: nounwind
declare ptr @_ZNKSt7__cxx1112basic_stringIcSt11char_traitsIcESaIcEE5beginEv(ptr noundef nonnull align 8 dereferenceable(32)) local_unnamed_addr #1

; Function Attrs: nounwind
declare void @_ZNSaIcEC1Ev(ptr noundef nonnull align 1 dereferenceable(1)) unnamed_addr #1

; Function Attrs: nounwind
declare noundef nonnull align 8 dereferenceable(32) ptr @_ZNSt7__cxx1112basic_stringIcSt11char_traitsIcESaIcEEaSEOS4_(ptr noundef nonnull align 8 dereferenceable(32), ptr noundef nonnull align 8 dereferenceable(32)) local_unnamed_addr #1

; Function Attrs: nounwind
declare void @_ZNSt7__cxx1112basic_stringIcSt11char_traitsIcESaIcEED1Ev(ptr noundef nonnull align 8 dereferenceable(32)) unnamed_addr #1

; Function Attrs: nounwind
declare void @_ZNSaIcED1Ev(ptr noundef nonnull align 1 dereferenceable(1)) unnamed_addr #1

; Function Attrs: nounwind
declare ptr @_ZNKSt7__cxx1112basic_stringIcSt11char_traitsIcESaIcEE3endEv(ptr noundef nonnull align 8 dereferenceable(32)) local_unnamed_addr #1

; Function Attrs: mustprogress uwtable
define dso_local void @_ZN4pbrt10IPCChannel7ConnectEv(ptr noundef nonnull align 8 dereferenceable(76) %this) local_unnamed_addr #0 align 2 personality ptr @__gxx_personality_v0 {
entry:
  %s.i19 = alloca %"class.std::__cxx11::basic_string", align 8
  %s.i10 = alloca %"class.std::__cxx11::basic_string", align 8
  %s.i = alloca %"class.std::__cxx11::basic_string", align 8
  %va = alloca i32, align 4
  %vb = alloca i32, align 4
  %hints = alloca %struct.addrinfo, align 8
  %addrinfo = alloca ptr, align 8
  %ref.tmp = alloca ptr, align 8
  %ref.tmp19 = alloca %"class.std::__cxx11::basic_string", align 8
  %timeout = alloca %struct.timeval, align 8
  %ref.tmp32 = alloca %"class.std::__cxx11::basic_string", align 8
  %ref.tmp58 = alloca %"class.std::__cxx11::basic_string", align 8
  %socketFd = getelementptr inbounds %"class.pbrt::IPCChannel", ptr %this, i64 0, i32 4
  %0 = load i32, ptr %socketFd, align 8
  store i32 %0, ptr %va, align 4
  store i32 -1, ptr %vb, align 4
  %cmp = icmp eq i32 %0, -1
  br i1 %cmp, label %do.end, label %if.then

if.then:                                          ; preds = %entry
  call void @_ZN4pbrt8LogFatalIJRA9_KcRA5_S1_S3_RiS5_S6_EEEvNS_8LogLevelEPS1_iS8_DpOT_(i32 noundef 2, ptr noundef nonnull @.str.2, i32 noundef 111, ptr noundef nonnull @.str.3, ptr noundef nonnull align 1 dereferenceable(9) @.str.4, ptr noundef nonnull align 1 dereferenceable(5) @.str.5, ptr noundef nonnull align 1 dereferenceable(9) @.str.4, ptr noundef nonnull align 4 dereferenceable(4) %va, ptr noundef nonnull align 1 dereferenceable(5) @.str.5, ptr noundef nonnull align 4 dereferenceable(4) %vb) #21
  unreachable

do.end:                                           ; preds = %entry
  %1 = load i32, ptr @_ZN4pbrt7logging8logLevelE, align 4
  %cmp2 = icmp slt i32 %1, 1
  br i1 %cmp2, label %land.rhs, label %land.end

land.rhs:                                         ; preds = %do.end
  tail call void @_ZN4pbrt3LogENS_8LogLevelEPKciS2_(i32 noundef 0, ptr noundef nonnull @.str.2, i32 noundef 113, ptr noundef nonnull @.str.6)
  br label %land.end

land.end:                                         ; preds = %land.rhs, %do.end
  %ai_socktype = getelementptr inbounds %struct.addrinfo, ptr %hints, i64 0, i32 2
  call void @llvm.memset.p0.i64(ptr noundef nonnull align 8 dereferenceable(48) %hints, i8 0, i64 48, i1 false)
  store i32 1, ptr %ai_socktype, align 8
  %address = getelementptr inbounds %"class.pbrt::IPCChannel", ptr %this, i64 0, i32 2
  %call = tail call noundef ptr @_ZNKSt7__cxx1112basic_stringIcSt11char_traitsIcESaIcEE5c_strEv(ptr noundef nonnull align 8 dereferenceable(32) %address) #20
  %port = getelementptr inbounds %"class.pbrt::IPCChannel", ptr %this, i64 0, i32 3
  %call3 = tail call noundef ptr @_ZNKSt7__cxx1112basic_stringIcSt11char_traitsIcESaIcEE5c_strEv(ptr noundef nonnull align 8 dereferenceable(32) %port) #20
  %call4 = call i32 @getaddrinfo(ptr noundef %call, ptr noundef %call3, ptr noundef nonnull %hints, ptr noundef nonnull %addrinfo)
  %tobool.not = icmp eq i32 %call4, 0
  br i1 %tobool.not, label %if.end7, label %if.then5

if.then5:                                         ; preds = %land.end
  %call6 = call ptr @gai_strerror(i32 noundef %call4) #20
  store ptr %call6, ptr %ref.tmp, align 8
  call void @_ZN4pbrt9ErrorExitIJPKcEEEvS2_DpOT_(ptr noundef nonnull @.str.7, ptr noundef nonnull align 8 dereferenceable(8) %ref.tmp) #21
  unreachable

if.end7:                                          ; preds = %land.end
  store i32 -1, ptr %socketFd, align 8
  %ptr.030 = load ptr, ptr %addrinfo, align 8
  %tobool9.not31 = icmp eq ptr %ptr.030, null
  br i1 %tobool9.not31, label %for.end, label %for.body.lr.ph

for.body.lr.ph:                                   ; preds = %if.end7
  %tv_usec = getelementptr inbounds %struct.timeval, ptr %timeout, i64 0, i32 1
  br label %for.body

for.body:                                         ; preds = %for.body.lr.ph, %for.inc
  %ptr.032 = phi ptr [ %ptr.030, %for.body.lr.ph ], [ %ptr.0, %for.inc ]
  %ai_family10 = getelementptr inbounds %struct.addrinfo, ptr %ptr.032, i64 0, i32 1
  %2 = load i32, ptr %ai_family10, align 4
  %ai_socktype11 = getelementptr inbounds %struct.addrinfo, ptr %ptr.032, i64 0, i32 2
  %3 = load i32, ptr %ai_socktype11, align 8
  %ai_protocol = getelementptr inbounds %struct.addrinfo, ptr %ptr.032, i64 0, i32 3
  %4 = load i32, ptr %ai_protocol, align 4
  %call12 = call i32 @socket(i32 noundef %2, i32 noundef %3, i32 noundef %4) #20
  store i32 %call12, ptr %socketFd, align 8
  %cmp15 = icmp eq i32 %call12, -1
  br i1 %cmp15, label %if.then16, label %if.end25

if.then16:                                        ; preds = %for.body
  %5 = load i32, ptr @_ZN4pbrt7logging8logLevelE, align 4
  %cmp17 = icmp slt i32 %5, 1
  br i1 %cmp17, label %land.rhs18, label %for.inc

land.rhs18:                                       ; preds = %if.then16
  %call20 = call noundef i32 @_ZN4pbrt9LastErrorEv()
  call void @_ZN4pbrt11ErrorStringB5cxx11Ei(ptr nonnull sret(%"class.std::__cxx11::basic_string") align 8 %ref.tmp19, i32 noundef %call20)
  call void @llvm.lifetime.start.p0(i64 32, ptr nonnull %s.i)
  call void @_ZNSt7__cxx1112basic_stringIcSt11char_traitsIcESaIcEEC1Ev(ptr noundef nonnull align 8 dereferenceable(32) %s.i) #20
  invoke void @_ZN4pbrt6detail21stringPrintfRecursiveINSt7__cxx1112basic_stringIcSt11char_traitsIcESaIcEEEJEEEvPS7_PKcOT_DpOT0_(ptr noundef nonnull %s.i, ptr noundef nonnull @.str.8, ptr noundef nonnull align 8 dereferenceable(32) %ref.tmp19)
          to label %_ZN4pbrt12StringPrintfIJNSt7__cxx1112basic_stringIcSt11char_traitsIcESaIcEEEEEES6_PKcDpOT_.exit.i unwind label %lpad.i.i

lpad.i.i:                                         ; preds = %land.rhs18
  %6 = landingpad { ptr, i32 }
          cleanup
  br label %eh.resume

_ZN4pbrt12StringPrintfIJNSt7__cxx1112basic_stringIcSt11char_traitsIcESaIcEEEEEES6_PKcDpOT_.exit.i: ; preds = %land.rhs18
  %call.i = call noundef ptr @_ZNKSt7__cxx1112basic_stringIcSt11char_traitsIcESaIcEE5c_strEv(ptr noundef nonnull align 8 dereferenceable(32) %s.i) #20
  invoke void @_ZN4pbrt3LogENS_8LogLevelEPKciS2_(i32 noundef 0, ptr noundef nonnull @.str.2, i32 noundef 126, ptr noundef %call.i)
          to label %cleanup.action unwind label %lpad.i

lpad.i:                                           ; preds = %_ZN4pbrt12StringPrintfIJNSt7__cxx1112basic_stringIcSt11char_traitsIcESaIcEEEEEES6_PKcDpOT_.exit.i
  %7 = landingpad { ptr, i32 }
          cleanup
  br label %eh.resume

cleanup.action:                                   ; preds = %_ZN4pbrt12StringPrintfIJNSt7__cxx1112basic_stringIcSt11char_traitsIcESaIcEEEEEES6_PKcDpOT_.exit.i
  call void @_ZNSt7__cxx1112basic_stringIcSt11char_traitsIcESaIcEED1Ev(ptr noundef nonnull align 8 dereferenceable(32) %s.i) #20
  call void @llvm.lifetime.end.p0(i64 32, ptr nonnull %s.i)
  call void @_ZNSt7__cxx1112basic_stringIcSt11char_traitsIcESaIcEED1Ev(ptr noundef nonnull align 8 dereferenceable(32) %ref.tmp19) #20
  br label %for.inc

if.end25:                                         ; preds = %for.body
  store i64 3, ptr %timeout, align 8
  store i64 0, ptr %tv_usec, align 8
  %call27 = call i32 @setsockopt(i32 noundef %call12, i32 noundef 1, i32 noundef 21, ptr noundef nonnull %timeout, i32 noundef 16) #20
  %cmp28 = icmp eq i32 %call27, -1
  %8 = load i32, ptr @_ZN4pbrt7logging8logLevelE, align 4
  %cmp30 = icmp slt i32 %8, 1
  %or.cond29 = select i1 %cmp28, i1 %cmp30, i1 false
  br i1 %or.cond29, label %land.rhs31, label %if.end44

land.rhs31:                                       ; preds = %if.end25
  %call33 = call noundef i32 @_ZN4pbrt9LastErrorEv()
  call void @_ZN4pbrt11ErrorStringB5cxx11Ei(ptr nonnull sret(%"class.std::__cxx11::basic_string") align 8 %ref.tmp32, i32 noundef %call33)
  call void @llvm.lifetime.start.p0(i64 32, ptr nonnull %s.i10)
  call void @_ZNSt7__cxx1112basic_stringIcSt11char_traitsIcESaIcEEC1Ev(ptr noundef nonnull align 8 dereferenceable(32) %s.i10) #20
  invoke void @_ZN4pbrt6detail21stringPrintfRecursiveINSt7__cxx1112basic_stringIcSt11char_traitsIcESaIcEEEJEEEvPS7_PKcOT_DpOT0_(ptr noundef nonnull %s.i10, ptr noundef nonnull @.str.9, ptr noundef nonnull align 8 dereferenceable(32) %ref.tmp32)
          to label %_ZN4pbrt12StringPrintfIJNSt7__cxx1112basic_stringIcSt11char_traitsIcESaIcEEEEEES6_PKcDpOT_.exit.i14 unwind label %lpad.i.i11

lpad.i.i11:                                       ; preds = %land.rhs31
  %9 = landingpad { ptr, i32 }
          cleanup
  br label %eh.resume

_ZN4pbrt12StringPrintfIJNSt7__cxx1112basic_stringIcSt11char_traitsIcESaIcEEEEEES6_PKcDpOT_.exit.i14: ; preds = %land.rhs31
  %call.i15 = call noundef ptr @_ZNKSt7__cxx1112basic_stringIcSt11char_traitsIcESaIcEE5c_strEv(ptr noundef nonnull align 8 dereferenceable(32) %s.i10) #20
  invoke void @_ZN4pbrt3LogENS_8LogLevelEPKciS2_(i32 noundef 0, ptr noundef nonnull @.str.2, i32 noundef 136, ptr noundef %call.i15)
          to label %cleanup.action39 unwind label %lpad.i16

lpad.i16:                                         ; preds = %_ZN4pbrt12StringPrintfIJNSt7__cxx1112basic_stringIcSt11char_traitsIcESaIcEEEEEES6_PKcDpOT_.exit.i14
  %10 = landingpad { ptr, i32 }
          cleanup
  br label %eh.resume

cleanup.action39:                                 ; preds = %_ZN4pbrt12StringPrintfIJNSt7__cxx1112basic_stringIcSt11char_traitsIcESaIcEEEEEES6_PKcDpOT_.exit.i14
  call void @_ZNSt7__cxx1112basic_stringIcSt11char_traitsIcESaIcEED1Ev(ptr noundef nonnull align 8 dereferenceable(32) %s.i10) #20
  call void @llvm.lifetime.end.p0(i64 32, ptr nonnull %s.i10)
  call void @_ZNSt7__cxx1112basic_stringIcSt11char_traitsIcESaIcEED1Ev(ptr noundef nonnull align 8 dereferenceable(32) %ref.tmp32) #20
  br label %if.end44

if.end44:                                         ; preds = %cleanup.action39, %if.end25
  %11 = load i32, ptr %socketFd, align 8
  %ai_addr = getelementptr inbounds %struct.addrinfo, ptr %ptr.032, i64 0, i32 5
  %12 = load ptr, ptr %ai_addr, align 8
  %ai_addrlen = getelementptr inbounds %struct.addrinfo, ptr %ptr.032, i64 0, i32 4
  %13 = load i32, ptr %ai_addrlen, align 8
  %call46 = call i32 @connect(i32 noundef %11, ptr noundef %12, i32 noundef %13)
  %cmp47 = icmp eq i32 %call46, -1
  br i1 %cmp47, label %if.then48, label %for.end.loopexit

if.then48:                                        ; preds = %if.end44
  %call50 = tail call ptr @__errno_location() #22
  %14 = load i32, ptr %call50, align 4
  %cmp51 = icmp eq i32 %14, 111
  %15 = load i32, ptr @_ZN4pbrt7logging8logLevelE, align 4
  %cmp53 = icmp slt i32 %15, 1
  br i1 %cmp51, label %if.then52, label %if.else

if.then52:                                        ; preds = %if.then48
  br i1 %cmp53, label %land.rhs54, label %if.end69

land.rhs54:                                       ; preds = %if.then52
  call void @_ZN4pbrt3LogENS_8LogLevelEPKciS2_(i32 noundef 0, ptr noundef nonnull @.str.2, i32 noundef 147, ptr noundef nonnull @.str.10)
  br label %if.end69

if.else:                                          ; preds = %if.then48
  br i1 %cmp53, label %land.rhs57, label %if.end69

land.rhs57:                                       ; preds = %if.else
  call void @_ZN4pbrt11ErrorStringB5cxx11Ei(ptr nonnull sret(%"class.std::__cxx11::basic_string") align 8 %ref.tmp58, i32 noundef %14)
  call void @llvm.lifetime.start.p0(i64 32, ptr nonnull %s.i19)
  call void @_ZNSt7__cxx1112basic_stringIcSt11char_traitsIcESaIcEEC1Ev(ptr noundef nonnull align 8 dereferenceable(32) %s.i19) #20
  invoke void @_ZN4pbrt6detail21stringPrintfRecursiveINSt7__cxx1112basic_stringIcSt11char_traitsIcESaIcEEEJEEEvPS7_PKcOT_DpOT0_(ptr noundef nonnull %s.i19, ptr noundef nonnull @.str.11, ptr noundef nonnull align 8 dereferenceable(32) %ref.tmp58)
          to label %_ZN4pbrt12StringPrintfIJNSt7__cxx1112basic_stringIcSt11char_traitsIcESaIcEEEEEES6_PKcDpOT_.exit.i23 unwind label %lpad.i.i20

lpad.i.i20:                                       ; preds = %land.rhs57
  %16 = landingpad { ptr, i32 }
          cleanup
  br label %eh.resume

_ZN4pbrt12StringPrintfIJNSt7__cxx1112basic_stringIcSt11char_traitsIcESaIcEEEEEES6_PKcDpOT_.exit.i23: ; preds = %land.rhs57
  %call.i24 = call noundef ptr @_ZNKSt7__cxx1112basic_stringIcSt11char_traitsIcESaIcEE5c_strEv(ptr noundef nonnull align 8 dereferenceable(32) %s.i19) #20
  invoke void @_ZN4pbrt3LogENS_8LogLevelEPKciS2_(i32 noundef 0, ptr noundef nonnull @.str.2, i32 noundef 149, ptr noundef %call.i24)
          to label %cleanup.action64 unwind label %lpad.i25

lpad.i25:                                         ; preds = %_ZN4pbrt12StringPrintfIJNSt7__cxx1112basic_stringIcSt11char_traitsIcESaIcEEEEEES6_PKcDpOT_.exit.i23
  %17 = landingpad { ptr, i32 }
          cleanup
  br label %eh.resume

cleanup.action64:                                 ; preds = %_ZN4pbrt12StringPrintfIJNSt7__cxx1112basic_stringIcSt11char_traitsIcESaIcEEEEEES6_PKcDpOT_.exit.i23
  call void @_ZNSt7__cxx1112basic_stringIcSt11char_traitsIcESaIcEED1Ev(ptr noundef nonnull align 8 dereferenceable(32) %s.i19) #20
  call void @llvm.lifetime.end.p0(i64 32, ptr nonnull %s.i19)
  call void @_ZNSt7__cxx1112basic_stringIcSt11char_traitsIcESaIcEED1Ev(ptr noundef nonnull align 8 dereferenceable(32) %ref.tmp58) #20
  br label %if.end69

if.end69:                                         ; preds = %if.else, %cleanup.action64, %if.then52, %land.rhs54
  %18 = load i32, ptr %socketFd, align 8
  %call.i28 = call noundef i32 @close(i32 noundef %18)
  store i32 -1, ptr %socketFd, align 8
  br label %for.inc

for.inc:                                          ; preds = %if.then16, %cleanup.action, %if.end69
  %ai_next = getelementptr inbounds %struct.addrinfo, ptr %ptr.032, i64 0, i32 7
  %ptr.0 = load ptr, ptr %ai_next, align 8
  %tobool9.not = icmp eq ptr %ptr.0, null
  br i1 %tobool9.not, label %for.end.loopexit, label %for.body, !llvm.loop !5

for.end.loopexit:                                 ; preds = %if.end44, %for.inc
  %.pre = load ptr, ptr %addrinfo, align 8
  br label %for.end

for.end:                                          ; preds = %for.end.loopexit, %if.end7
  %19 = phi ptr [ %.pre, %for.end.loopexit ], [ null, %if.end7 ]
  call void @freeaddrinfo(ptr noundef %19) #20
  %20 = load i32, ptr %socketFd, align 8
  %cmp75 = icmp ne i32 %20, -1
  %21 = load i32, ptr @_ZN4pbrt7logging8logLevelE, align 4
  %cmp77 = icmp slt i32 %21, 1
  %or.cond = select i1 %cmp75, i1 %cmp77, i1 false
  br i1 %or.cond, label %land.rhs78, label %if.end80

land.rhs78:                                       ; preds = %for.end
  call void @_ZN4pbrt3LogENS_8LogLevelEPKciS2_(i32 noundef 0, ptr noundef nonnull @.str.2, i32 noundef 161, ptr noundef nonnull @.str.12)
  br label %if.end80

if.end80:                                         ; preds = %land.rhs78, %for.end
  ret void

eh.resume:                                        ; preds = %lpad.i.i20, %lpad.i25, %lpad.i.i11, %lpad.i16, %lpad.i.i, %lpad.i
  %s.i19.sink = phi ptr [ %s.i, %lpad.i ], [ %s.i, %lpad.i.i ], [ %s.i10, %lpad.i16 ], [ %s.i10, %lpad.i.i11 ], [ %s.i19, %lpad.i25 ], [ %s.i19, %lpad.i.i20 ]
  %ref.tmp58.sink = phi ptr [ %ref.tmp19, %lpad.i ], [ %ref.tmp19, %lpad.i.i ], [ %ref.tmp32, %lpad.i16 ], [ %ref.tmp32, %lpad.i.i11 ], [ %ref.tmp58, %lpad.i25 ], [ %ref.tmp58, %lpad.i.i20 ]
  %.pn = phi { ptr, i32 } [ %7, %lpad.i ], [ %6, %lpad.i.i ], [ %10, %lpad.i16 ], [ %9, %lpad.i.i11 ], [ %17, %lpad.i25 ], [ %16, %lpad.i.i20 ]
  call void @_ZNSt7__cxx1112basic_stringIcSt11char_traitsIcESaIcEED1Ev(ptr noundef nonnull align 8 dereferenceable(32) %s.i19.sink) #20
  call void @_ZNSt7__cxx1112basic_stringIcSt11char_traitsIcESaIcEED1Ev(ptr noundef nonnull align 8 dereferenceable(32) %ref.tmp58.sink) #20
  resume { ptr, i32 } %.pn
}

; Function Attrs: mustprogress noreturn uwtable
define linkonce_odr dso_local void @_ZN4pbrt8LogFatalIJRA9_KcRA5_S1_S3_RiS5_S6_EEEvNS_8LogLevelEPS1_iS8_DpOT_(i32 noundef %level, ptr noundef %file, i32 noundef %line, ptr noundef %fmt, ptr noundef nonnull align 1 dereferenceable(9) %args, ptr noundef nonnull align 1 dereferenceable(5) %args1, ptr noundef nonnull align 1 dereferenceable(9) %args3, ptr noundef nonnull align 4 dereferenceable(4) %args5, ptr noundef nonnull align 1 dereferenceable(5) %args7, ptr noundef nonnull align 4 dereferenceable(4) %args9) local_unnamed_addr #2 comdat personality ptr @__gxx_personality_v0 {
entry:
  %s = alloca %"class.std::__cxx11::basic_string", align 8
  call void @_ZNSt7__cxx1112basic_stringIcSt11char_traitsIcESaIcEEC1Ev(ptr noundef nonnull align 8 dereferenceable(32) %s) #20
  invoke void @_ZN4pbrt6detail21stringPrintfRecursiveIRA9_KcJRA5_S2_S4_RiS6_S7_EEEvPNSt7__cxx1112basic_stringIcSt11char_traitsIcESaIcEEEPS2_OT_DpOT0_(ptr noundef nonnull %s, ptr noundef %fmt, ptr noundef nonnull align 1 dereferenceable(9) %args, ptr noundef nonnull align 1 dereferenceable(5) %args1, ptr noundef nonnull align 1 dereferenceable(9) %args3, ptr noundef nonnull align 4 dereferenceable(4) %args5, ptr noundef nonnull align 1 dereferenceable(5) %args7, ptr noundef nonnull align 4 dereferenceable(4) %args9)
          to label %_ZN4pbrt12StringPrintfIJRA9_KcRA5_S1_S3_RiS5_S6_EEENSt7__cxx1112basic_stringIcSt11char_traitsIcESaIcEEEPS1_DpOT_.exit unwind label %lpad.i

common.resume:                                    ; preds = %lpad, %lpad.i
  %common.resume.op = phi { ptr, i32 } [ %0, %lpad.i ], [ %1, %lpad ]
  call void @_ZNSt7__cxx1112basic_stringIcSt11char_traitsIcESaIcEED1Ev(ptr noundef nonnull align 8 dereferenceable(32) %s) #20
  resume { ptr, i32 } %common.resume.op

lpad.i:                                           ; preds = %entry
  %0 = landingpad { ptr, i32 }
          cleanup
  br label %common.resume

_ZN4pbrt12StringPrintfIJRA9_KcRA5_S1_S3_RiS5_S6_EEENSt7__cxx1112basic_stringIcSt11char_traitsIcESaIcEEEPS1_DpOT_.exit: ; preds = %entry
  %call = call noundef ptr @_ZNKSt7__cxx1112basic_stringIcSt11char_traitsIcESaIcEE5c_strEv(ptr noundef nonnull align 8 dereferenceable(32) %s) #20
  invoke void @_ZN4pbrt8LogFatalENS_8LogLevelEPKciS2_(i32 noundef %level, ptr noundef %file, i32 noundef %line, ptr noundef %call) #21
          to label %invoke.cont unwind label %lpad

invoke.cont:                                      ; preds = %_ZN4pbrt12StringPrintfIJRA9_KcRA5_S1_S3_RiS5_S6_EEENSt7__cxx1112basic_stringIcSt11char_traitsIcESaIcEEEPS1_DpOT_.exit
  unreachable

lpad:                                             ; preds = %_ZN4pbrt12StringPrintfIJRA9_KcRA5_S1_S3_RiS5_S6_EEENSt7__cxx1112basic_stringIcSt11char_traitsIcESaIcEEEPS1_DpOT_.exit
  %1 = landingpad { ptr, i32 }
          cleanup
  br label %common.resume
}

declare void @_ZN4pbrt3LogENS_8LogLevelEPKciS2_(i32 noundef, ptr noundef, i32 noundef, ptr noundef) local_unnamed_addr #3

; Function Attrs: mustprogress nocallback nofree nounwind willreturn memory(argmem: write)
declare void @llvm.memset.p0.i64(ptr nocapture writeonly, i8, i64, i1 immarg) #4

declare i32 @getaddrinfo(ptr noundef, ptr noundef, ptr noundef, ptr noundef) local_unnamed_addr #3

; Function Attrs: nounwind
declare noundef ptr @_ZNKSt7__cxx1112basic_stringIcSt11char_traitsIcESaIcEE5c_strEv(ptr noundef nonnull align 8 dereferenceable(32)) local_unnamed_addr #1

; Function Attrs: mustprogress noreturn uwtable
define linkonce_odr dso_local void @_ZN4pbrt9ErrorExitIJPKcEEEvS2_DpOT_(ptr noundef %fmt, ptr noundef nonnull align 8 dereferenceable(8) %args) local_unnamed_addr #2 comdat personality ptr @__gxx_personality_v0 {
entry:
  %ref.tmp = alloca %"class.std::__cxx11::basic_string", align 8
  call void @_ZNSt7__cxx1112basic_stringIcSt11char_traitsIcESaIcEEC1Ev(ptr noundef nonnull align 8 dereferenceable(32) %ref.tmp) #20
  invoke void @_ZN4pbrt6detail21stringPrintfRecursiveIPKcJEEEvPNSt7__cxx1112basic_stringIcSt11char_traitsIcESaIcEEES3_OT_DpOT0_(ptr noundef nonnull %ref.tmp, ptr noundef %fmt, ptr noundef nonnull align 8 dereferenceable(8) %args)
          to label %_ZN4pbrt12StringPrintfIJPKcEEENSt7__cxx1112basic_stringIcSt11char_traitsIcESaIcEEES2_DpOT_.exit unwind label %lpad.i

common.resume:                                    ; preds = %lpad, %lpad.i
  %common.resume.op = phi { ptr, i32 } [ %0, %lpad.i ], [ %1, %lpad ]
  call void @_ZNSt7__cxx1112basic_stringIcSt11char_traitsIcESaIcEED1Ev(ptr noundef nonnull align 8 dereferenceable(32) %ref.tmp) #20
  resume { ptr, i32 } %common.resume.op

lpad.i:                                           ; preds = %entry
  %0 = landingpad { ptr, i32 }
          cleanup
  br label %common.resume

_ZN4pbrt12StringPrintfIJPKcEEENSt7__cxx1112basic_stringIcSt11char_traitsIcESaIcEEES2_DpOT_.exit: ; preds = %entry
  %call = call noundef ptr @_ZNKSt7__cxx1112basic_stringIcSt11char_traitsIcESaIcEE5c_strEv(ptr noundef nonnull align 8 dereferenceable(32) %ref.tmp) #20
  invoke void @_ZN4pbrt9ErrorExitEPKNS_7FileLocEPKc(ptr noundef null, ptr noundef %call) #21
          to label %invoke.cont unwind label %lpad

invoke.cont:                                      ; preds = %_ZN4pbrt12StringPrintfIJPKcEEENSt7__cxx1112basic_stringIcSt11char_traitsIcESaIcEEES2_DpOT_.exit
  unreachable

lpad:                                             ; preds = %_ZN4pbrt12StringPrintfIJPKcEEENSt7__cxx1112basic_stringIcSt11char_traitsIcESaIcEEES2_DpOT_.exit
  %1 = landingpad { ptr, i32 }
          cleanup
  br label %common.resume
}

; Function Attrs: nounwind
declare ptr @gai_strerror(i32 noundef) local_unnamed_addr #1

; Function Attrs: nounwind
declare i32 @socket(i32 noundef, i32 noundef, i32 noundef) local_unnamed_addr #1

declare void @_ZN4pbrt11ErrorStringB5cxx11Ei(ptr sret(%"class.std::__cxx11::basic_string") align 8, i32 noundef) local_unnamed_addr #3

declare noundef i32 @_ZN4pbrt9LastErrorEv() local_unnamed_addr #3

; Function Attrs: nounwind
declare i32 @setsockopt(i32 noundef, i32 noundef, i32 noundef, ptr noundef, i32 noundef) local_unnamed_addr #1

declare i32 @connect(i32 noundef, ptr noundef, i32 noundef) local_unnamed_addr #3

; Function Attrs: mustprogress nofree nosync nounwind willreturn memory(none)
declare ptr @__errno_location() local_unnamed_addr #5

; Function Attrs: nounwind
declare void @freeaddrinfo(ptr noundef) local_unnamed_addr #1

; Function Attrs: mustprogress nounwind uwtable
define dso_local void @_ZN4pbrt10IPCChannelD2Ev(ptr noundef nonnull align 8 dereferenceable(76) %this) unnamed_addr #6 align 2 personality ptr @__gxx_personality_v0 {
entry:
  %socketFd.i = getelementptr inbounds %"class.pbrt::IPCChannel", ptr %this, i64 0, i32 4
  %0 = load i32, ptr %socketFd.i, align 8
  %cmp.i.not = icmp eq i32 %0, -1
  br i1 %cmp.i.not, label %if.end, label %land.end.i

land.end.i:                                       ; preds = %entry
  %call.i.i1 = invoke noundef i32 @close(i32 noundef %0)
          to label %_ZN4pbrt10IPCChannel10DisconnectEv.exit unwind label %terminate.lpad

_ZN4pbrt10IPCChannel10DisconnectEv.exit:          ; preds = %land.end.i
  store i32 -1, ptr %socketFd.i, align 8
  br label %if.end

if.end:                                           ; preds = %_ZN4pbrt10IPCChannel10DisconnectEv.exit, %entry
  %1 = atomicrmw sub ptr @_ZN4pbrtL17numActiveChannelsE, i32 1 seq_cst, align 4
  %port = getelementptr inbounds %"class.pbrt::IPCChannel", ptr %this, i64 0, i32 3
  tail call void @_ZNSt7__cxx1112basic_stringIcSt11char_traitsIcESaIcEED1Ev(ptr noundef nonnull align 8 dereferenceable(32) %port) #20
  %address = getelementptr inbounds %"class.pbrt::IPCChannel", ptr %this, i64 0, i32 2
  tail call void @_ZNSt7__cxx1112basic_stringIcSt11char_traitsIcESaIcEED1Ev(ptr noundef nonnull align 8 dereferenceable(32) %address) #20
  ret void

terminate.lpad:                                   ; preds = %land.end.i
  %2 = landingpad { ptr, i32 }
          catch ptr null
  %3 = extractvalue { ptr, i32 } %2, 0
  tail call void @__clang_call_terminate(ptr %3) #23
  unreachable
}

; Function Attrs: noreturn nounwind uwtable
define linkonce_odr hidden void @__clang_call_terminate(ptr noundef %0) local_unnamed_addr #7 comdat {
  %2 = tail call ptr @__cxa_begin_catch(ptr %0) #20
  tail call void @_ZSt9terminatev() #23
  unreachable
}

declare ptr @__cxa_begin_catch(ptr) local_unnamed_addr

declare void @_ZSt9terminatev() local_unnamed_addr

; Function Attrs: mustprogress uwtable
define dso_local void @_ZN4pbrt10IPCChannel10DisconnectEv(ptr nocapture noundef nonnull align 8 dereferenceable(76) %this) local_unnamed_addr #0 align 2 {
entry:
  %socketFd.i = getelementptr inbounds %"class.pbrt::IPCChannel", ptr %this, i64 0, i32 4
  %0 = load i32, ptr %socketFd.i, align 8
  %cmp.i.not = icmp eq i32 %0, -1
  br i1 %cmp.i.not, label %land.rhs, label %land.end

land.rhs:                                         ; preds = %entry
  tail call void @_ZN4pbrt8LogFatalIJRA12_KcEEEvNS_8LogLevelEPS1_iS5_DpOT_(i32 noundef 2, ptr noundef nonnull @.str.2, i32 noundef 176, ptr noundef nonnull @.str.13, ptr noundef nonnull align 1 dereferenceable(12) @.str.14) #21
  unreachable

land.end:                                         ; preds = %entry
  %call.i = tail call noundef i32 @close(i32 noundef %0)
  store i32 -1, ptr %socketFd.i, align 8
  ret void
}

; Function Attrs: mustprogress noreturn uwtable
define linkonce_odr dso_local void @_ZN4pbrt8LogFatalIJRA12_KcEEEvNS_8LogLevelEPS1_iS5_DpOT_(i32 noundef %level, ptr noundef %file, i32 noundef %line, ptr noundef %fmt, ptr noundef nonnull align 1 dereferenceable(12) %args) local_unnamed_addr #2 comdat personality ptr @__gxx_personality_v0 {
entry:
  %s = alloca %"class.std::__cxx11::basic_string", align 8
  call void @_ZNSt7__cxx1112basic_stringIcSt11char_traitsIcESaIcEEC1Ev(ptr noundef nonnull align 8 dereferenceable(32) %s) #20
  invoke void @_ZN4pbrt6detail21stringPrintfRecursiveIRA12_KcJEEEvPNSt7__cxx1112basic_stringIcSt11char_traitsIcESaIcEEEPS2_OT_DpOT0_(ptr noundef nonnull %s, ptr noundef %fmt, ptr noundef nonnull align 1 dereferenceable(12) %args)
          to label %_ZN4pbrt12StringPrintfIJRA12_KcEEENSt7__cxx1112basic_stringIcSt11char_traitsIcESaIcEEEPS1_DpOT_.exit unwind label %lpad.i

common.resume:                                    ; preds = %lpad, %lpad.i
  %common.resume.op = phi { ptr, i32 } [ %0, %lpad.i ], [ %1, %lpad ]
  call void @_ZNSt7__cxx1112basic_stringIcSt11char_traitsIcESaIcEED1Ev(ptr noundef nonnull align 8 dereferenceable(32) %s) #20
  resume { ptr, i32 } %common.resume.op

lpad.i:                                           ; preds = %entry
  %0 = landingpad { ptr, i32 }
          cleanup
  br label %common.resume

_ZN4pbrt12StringPrintfIJRA12_KcEEENSt7__cxx1112basic_stringIcSt11char_traitsIcESaIcEEEPS1_DpOT_.exit: ; preds = %entry
  %call = call noundef ptr @_ZNKSt7__cxx1112basic_stringIcSt11char_traitsIcESaIcEE5c_strEv(ptr noundef nonnull align 8 dereferenceable(32) %s) #20
  invoke void @_ZN4pbrt8LogFatalENS_8LogLevelEPKciS2_(i32 noundef %level, ptr noundef %file, i32 noundef %line, ptr noundef %call) #21
          to label %invoke.cont unwind label %lpad

invoke.cont:                                      ; preds = %_ZN4pbrt12StringPrintfIJRA12_KcEEENSt7__cxx1112basic_stringIcSt11char_traitsIcESaIcEEEPS1_DpOT_.exit
  unreachable

lpad:                                             ; preds = %_ZN4pbrt12StringPrintfIJRA12_KcEEENSt7__cxx1112basic_stringIcSt11char_traitsIcESaIcEEEPS1_DpOT_.exit
  %1 = landingpad { ptr, i32 }
          cleanup
  br label %common.resume
}

; Function Attrs: mustprogress uwtable
define dso_local noundef zeroext i1 @_ZN4pbrt10IPCChannel4SendEN4pstd4spanIKhEE(ptr noundef nonnull align 8 dereferenceable(76) %this, ptr %message.coerce0, i64 %message.coerce1) local_unnamed_addr #0 align 2 personality ptr @__gxx_personality_v0 {
entry:
  %s.i = alloca %"class.std::__cxx11::basic_string", align 8
  %ref.tmp = alloca %"class.std::__cxx11::basic_string", align 8
  %socketFd.i = getelementptr inbounds %"class.pbrt::IPCChannel", ptr %this, i64 0, i32 4
  %0 = load i32, ptr %socketFd.i, align 8
  %cmp.i.not = icmp eq i32 %0, -1
  br i1 %cmp.i.not, label %if.then, label %if.end4

if.then:                                          ; preds = %entry
  tail call void @_ZN4pbrt10IPCChannel7ConnectEv(ptr noundef nonnull align 8 dereferenceable(76) %this)
  %1 = load i32, ptr %socketFd.i, align 8
  %cmp.i2.not = icmp eq i32 %1, -1
  br i1 %cmp.i2.not, label %return, label %if.end4

if.end4:                                          ; preds = %if.then, %entry
  %conv = trunc i64 %message.coerce1 to i32
  store i32 %conv, ptr %message.coerce0, align 4
  %2 = load i32, ptr %socketFd.i, align 8
  %call9 = tail call i64 @send(i32 noundef %2, ptr noundef nonnull %message.coerce0, i64 noundef %message.coerce1, i32 noundef 0)
  %sext = shl i64 %call9, 32
  %conv11 = ashr exact i64 %sext, 32
  %cmp = icmp eq i64 %conv11, %message.coerce1
  br i1 %cmp, label %return, label %if.end14

if.end14:                                         ; preds = %if.end4
  %3 = load i32, ptr @_ZN4pbrt7logging8logLevelE, align 4
  %cmp15 = icmp slt i32 %3, 2
  br i1 %cmp15, label %land.rhs, label %cleanup.done

land.rhs:                                         ; preds = %if.end14
  %call16 = tail call noundef i32 @_ZN4pbrt9LastErrorEv()
  call void @_ZN4pbrt11ErrorStringB5cxx11Ei(ptr nonnull sret(%"class.std::__cxx11::basic_string") align 8 %ref.tmp, i32 noundef %call16)
  call void @llvm.lifetime.start.p0(i64 32, ptr nonnull %s.i)
  call void @_ZNSt7__cxx1112basic_stringIcSt11char_traitsIcESaIcEEC1Ev(ptr noundef nonnull align 8 dereferenceable(32) %s.i) #20
  invoke void @_ZN4pbrt6detail21stringPrintfRecursiveINSt7__cxx1112basic_stringIcSt11char_traitsIcESaIcEEEJEEEvPS7_PKcOT_DpOT0_(ptr noundef nonnull %s.i, ptr noundef nonnull @.str.15, ptr noundef nonnull align 8 dereferenceable(32) %ref.tmp)
          to label %_ZN4pbrt12StringPrintfIJNSt7__cxx1112basic_stringIcSt11char_traitsIcESaIcEEEEEES6_PKcDpOT_.exit.i unwind label %lpad.i.i

common.resume.i:                                  ; preds = %lpad.i, %lpad.i.i
  %common.resume.op.i = phi { ptr, i32 } [ %4, %lpad.i.i ], [ %5, %lpad.i ]
  call void @_ZNSt7__cxx1112basic_stringIcSt11char_traitsIcESaIcEED1Ev(ptr noundef nonnull align 8 dereferenceable(32) %s.i) #20
  call void @_ZNSt7__cxx1112basic_stringIcSt11char_traitsIcESaIcEED1Ev(ptr noundef nonnull align 8 dereferenceable(32) %ref.tmp) #20
  resume { ptr, i32 } %common.resume.op.i

lpad.i.i:                                         ; preds = %land.rhs
  %4 = landingpad { ptr, i32 }
          cleanup
  br label %common.resume.i

_ZN4pbrt12StringPrintfIJNSt7__cxx1112basic_stringIcSt11char_traitsIcESaIcEEEEEES6_PKcDpOT_.exit.i: ; preds = %land.rhs
  %call.i = call noundef ptr @_ZNKSt7__cxx1112basic_stringIcSt11char_traitsIcESaIcEE5c_strEv(ptr noundef nonnull align 8 dereferenceable(32) %s.i) #20
  invoke void @_ZN4pbrt3LogENS_8LogLevelEPKciS2_(i32 noundef 1, ptr noundef nonnull @.str.2, i32 noundef 199, ptr noundef %call.i)
          to label %cleanup.action unwind label %lpad.i

lpad.i:                                           ; preds = %_ZN4pbrt12StringPrintfIJNSt7__cxx1112basic_stringIcSt11char_traitsIcESaIcEEEEEES6_PKcDpOT_.exit.i
  %5 = landingpad { ptr, i32 }
          cleanup
  br label %common.resume.i

cleanup.action:                                   ; preds = %_ZN4pbrt12StringPrintfIJNSt7__cxx1112basic_stringIcSt11char_traitsIcESaIcEEEEEES6_PKcDpOT_.exit.i
  call void @_ZNSt7__cxx1112basic_stringIcSt11char_traitsIcESaIcEED1Ev(ptr noundef nonnull align 8 dereferenceable(32) %s.i) #20
  call void @llvm.lifetime.end.p0(i64 32, ptr nonnull %s.i)
  call void @_ZNSt7__cxx1112basic_stringIcSt11char_traitsIcESaIcEED1Ev(ptr noundef nonnull align 8 dereferenceable(32) %ref.tmp) #20
  br label %cleanup.done

cleanup.done:                                     ; preds = %if.end14, %cleanup.action
  %6 = load i32, ptr %socketFd.i, align 8
  %cmp.i.not.i = icmp eq i32 %6, -1
  br i1 %cmp.i.not.i, label %land.rhs.i, label %_ZN4pbrt10IPCChannel10DisconnectEv.exit

land.rhs.i:                                       ; preds = %cleanup.done
  call void @_ZN4pbrt8LogFatalIJRA12_KcEEEvNS_8LogLevelEPS1_iS5_DpOT_(i32 noundef 2, ptr noundef nonnull @.str.2, i32 noundef 176, ptr noundef nonnull @.str.13, ptr noundef nonnull align 1 dereferenceable(12) @.str.14) #21
  unreachable

_ZN4pbrt10IPCChannel10DisconnectEv.exit:          ; preds = %cleanup.done
  %call.i.i = call noundef i32 @close(i32 noundef %6)
  store i32 -1, ptr %socketFd.i, align 8
  br label %return

return:                                           ; preds = %if.end4, %if.then, %_ZN4pbrt10IPCChannel10DisconnectEv.exit
  %retval.0 = phi i1 [ false, %_ZN4pbrt10IPCChannel10DisconnectEv.exit ], [ false, %if.then ], [ true, %if.end4 ]
  ret i1 %retval.0
}

declare i64 @send(i32 noundef, ptr noundef, i64 noundef, i32 noundef) local_unnamed_addr #3

; Function Attrs: mustprogress uwtable
define dso_local void @_ZN4pbrt11DisplayItemC2ERKNSt7__cxx1112basic_stringIcSt11char_traitsIcESaIcEEENS_6Point2IiEESt6vectorIS6_SaIS6_EESt8functionIFvNS_7Bounds2IiEEN4pstd4spanINSI_IfEEEEEE(ptr noundef nonnull align 8 dereferenceable(128) %this, ptr noundef nonnull align 8 dereferenceable(32) %baseTitle, i64 %resolution.coerce, ptr noundef %channelNames, ptr noundef %getTileValues) unnamed_addr #0 align 2 personality ptr @__gxx_personality_v0 {
entry:
  %ref.tmp = alloca %"class.std::__cxx11::basic_string", align 8
  %ref.tmp7 = alloca i32, align 4
  %ref.tmp22 = alloca %"struct.pbrt::DisplayItem::ImageChannelBuffer", align 8
  %resolution.sroa.0.0.extract.trunc = trunc i64 %resolution.coerce to i32
  %resolution.sroa.3.0.extract.shift = lshr i64 %resolution.coerce, 32
  %resolution.sroa.3.0.extract.trunc = trunc i64 %resolution.sroa.3.0.extract.shift to i32
  store i8 0, ptr %this, align 8
  %title = getelementptr inbounds %"class.pbrt::DisplayItem", ptr %this, i64 0, i32 1
  tail call void @_ZNSt7__cxx1112basic_stringIcSt11char_traitsIcESaIcEEC1Ev(ptr noundef nonnull align 8 dereferenceable(32) %title) #20
  %resolution2 = getelementptr inbounds %"class.pbrt::DisplayItem", ptr %this, i64 0, i32 2
  store i32 %resolution.sroa.0.0.extract.trunc, ptr %resolution2, align 8
  %resolution.sroa.3.0.resolution2.sroa_idx = getelementptr inbounds %"class.pbrt::DisplayItem", ptr %this, i64 0, i32 2, i32 0, i32 1
  store i32 %resolution.sroa.3.0.extract.trunc, ptr %resolution.sroa.3.0.resolution2.sroa_idx, align 4
  %getTileValues3 = getelementptr inbounds %"class.pbrt::DisplayItem", ptr %this, i64 0, i32 3
  %_M_manager.i.i = getelementptr inbounds %"class.pbrt::DisplayItem", ptr %this, i64 0, i32 3, i32 0, i32 1
  %_M_invoker.i = getelementptr inbounds %"class.pbrt::DisplayItem", ptr %this, i64 0, i32 3, i32 1
  %_M_manager.i.i.i = getelementptr inbounds %"class.std::_Function_base", ptr %getTileValues, i64 0, i32 1
  tail call void @llvm.memset.p0.i64(ptr noundef nonnull align 8 dereferenceable(32) %getTileValues3, i8 0, i64 32, i1 false)
  %0 = load ptr, ptr %_M_manager.i.i.i, align 8
  %tobool.not.i.i.not.i = icmp eq ptr %0, null
  br i1 %tobool.not.i.i.not.i, label %invoke.cont, label %if.then.i

if.then.i:                                        ; preds = %entry
  %call3.i = invoke noundef zeroext i1 %0(ptr noundef nonnull align 8 dereferenceable(16) %getTileValues3, ptr noundef nonnull align 8 dereferenceable(16) %getTileValues, i32 noundef 2)
          to label %invoke.cont.i unwind label %lpad.i

invoke.cont.i:                                    ; preds = %if.then.i
  %_M_invoker4.i = getelementptr inbounds %"class.std::function", ptr %getTileValues, i64 0, i32 1
  %1 = load ptr, ptr %_M_invoker4.i, align 8
  store ptr %1, ptr %_M_invoker.i, align 8
  %2 = load ptr, ptr %_M_manager.i.i.i, align 8
  store ptr %2, ptr %_M_manager.i.i, align 8
  br label %invoke.cont

lpad.i:                                           ; preds = %if.then.i
  %3 = landingpad { ptr, i32 }
          cleanup
  %4 = load ptr, ptr %_M_manager.i.i, align 8
  %tobool.not.i.i = icmp eq ptr %4, null
  br i1 %tobool.not.i.i, label %ehcleanup30, label %if.then.i.i

if.then.i.i:                                      ; preds = %lpad.i
  %call.i.i = invoke noundef zeroext i1 %4(ptr noundef nonnull align 8 dereferenceable(16) %getTileValues3, ptr noundef nonnull align 8 dereferenceable(16) %getTileValues3, i32 noundef 3)
          to label %ehcleanup30 unwind label %terminate.lpad.i.i

terminate.lpad.i.i:                               ; preds = %if.then.i.i
  %5 = landingpad { ptr, i32 }
          catch ptr null
  %6 = extractvalue { ptr, i32 } %5, 0
  tail call void @__clang_call_terminate(ptr %6) #23
  unreachable

invoke.cont:                                      ; preds = %invoke.cont.i, %entry
  %channelNames4 = getelementptr inbounds %"class.pbrt::DisplayItem", ptr %this, i64 0, i32 4
  invoke void @_ZNSt6vectorINSt7__cxx1112basic_stringIcSt11char_traitsIcESaIcEEESaIS5_EEC2ERKS7_(ptr noundef nonnull align 8 dereferenceable(24) %channelNames4, ptr noundef nonnull align 8 dereferenceable(24) %channelNames)
          to label %invoke.cont6 unwind label %lpad5

invoke.cont6:                                     ; preds = %invoke.cont
  %channelBuffers = getelementptr inbounds %"class.pbrt::DisplayItem", ptr %this, i64 0, i32 5
  tail call void @llvm.memset.p0.i64(ptr noundef nonnull align 8 dereferenceable(24) %channelBuffers, i8 0, i64 24, i1 false)
  %call = tail call i32 @getpid() #20
  store i32 %call, ptr %ref.tmp7, align 4
  call void @_ZNSt7__cxx1112basic_stringIcSt11char_traitsIcESaIcEEC1Ev(ptr noundef nonnull align 8 dereferenceable(32) %ref.tmp) #20
  invoke void @_ZN4pbrt6detail21stringPrintfRecursiveIRKNSt7__cxx1112basic_stringIcSt11char_traitsIcESaIcEEEJiEEEvPS7_PKcOT_DpOT0_(ptr noundef nonnull %ref.tmp, ptr noundef nonnull @.str.16, ptr noundef nonnull align 8 dereferenceable(32) %baseTitle, ptr noundef nonnull align 4 dereferenceable(4) %ref.tmp7)
          to label %invoke.cont9 unwind label %lpad.i5

lpad.i5:                                          ; preds = %invoke.cont6
  %7 = landingpad { ptr, i32 }
          cleanup
  call void @_ZNSt7__cxx1112basic_stringIcSt11char_traitsIcESaIcEED1Ev(ptr noundef nonnull align 8 dereferenceable(32) %ref.tmp) #20
  br label %ehcleanup

invoke.cont9:                                     ; preds = %invoke.cont6
  %call11 = call noundef nonnull align 8 dereferenceable(32) ptr @_ZNSt7__cxx1112basic_stringIcSt11char_traitsIcESaIcEEaSEOS4_(ptr noundef nonnull align 8 dereferenceable(32) %title, ptr noundef nonnull align 8 dereferenceable(32) %ref.tmp) #20
  call void @_ZNSt7__cxx1112basic_stringIcSt11char_traitsIcESaIcEED1Ev(ptr noundef nonnull align 8 dereferenceable(32) %ref.tmp) #20
  %sub = add nsw i32 %resolution.sroa.0.0.extract.trunc, 127
  %div = sdiv i32 %sub, 128
  %sub13 = add nsw i32 %resolution.sroa.3.0.extract.trunc, 127
  %div14 = sdiv i32 %sub13, 128
  %mul = mul nsw i32 %div14, %div
  %8 = load ptr, ptr %channelNames, align 8
  %_M_finish.i = getelementptr inbounds %"struct.std::_Vector_base<std::__cxx11::basic_string<char>, std::allocator<std::__cxx11::basic_string<char>>>::_Vector_impl_data", ptr %channelNames, i64 0, i32 1
  %9 = load ptr, ptr %_M_finish.i, align 8
  %cmp.i.not16 = icmp eq ptr %8, %9
  br i1 %cmp.i.not16, label %for.end, label %for.body.lr.ph

for.body.lr.ph:                                   ; preds = %invoke.cont9
  %_M_finish.i.i = getelementptr inbounds %"class.pbrt::DisplayItem", ptr %this, i64 0, i32 5, i32 0, i32 0, i32 0, i32 1
  %_M_end_of_storage.i.i = getelementptr inbounds %"class.pbrt::DisplayItem", ptr %this, i64 0, i32 5, i32 0, i32 0, i32 0, i32 2
  %_M_finish3.i.i.i.i.i.i.i.i.i = getelementptr inbounds %"struct.std::_Vector_base<unsigned char, std::allocator<unsigned char>>::_Vector_impl_data", ptr %ref.tmp22, i64 0, i32 1
  %_M_end_of_storage4.i.i.i.i.i.i.i.i.i = getelementptr inbounds %"struct.std::_Vector_base<unsigned char, std::allocator<unsigned char>>::_Vector_impl_data", ptr %ref.tmp22, i64 0, i32 2
  %tileBoundsOffset3.i.i.i.i.i = getelementptr inbounds %"struct.pbrt::DisplayItem::ImageChannelBuffer", ptr %ref.tmp22, i64 0, i32 1
  %tileHashes4.i.i.i.i.i = getelementptr inbounds %"struct.pbrt::DisplayItem::ImageChannelBuffer", ptr %ref.tmp22, i64 0, i32 3
  %_M_finish3.i.i.i.i5.i.i.i.i.i = getelementptr inbounds %"struct.pbrt::DisplayItem::ImageChannelBuffer", ptr %ref.tmp22, i64 0, i32 3, i32 0, i32 0, i32 0, i32 1
  %_M_end_of_storage4.i.i.i.i7.i.i.i.i.i = getelementptr inbounds %"struct.pbrt::DisplayItem::ImageChannelBuffer", ptr %ref.tmp22, i64 0, i32 3, i32 0, i32 0, i32 0, i32 2
  %setCount5.i.i.i.i.i = getelementptr inbounds %"struct.pbrt::DisplayItem::ImageChannelBuffer", ptr %ref.tmp22, i64 0, i32 4
  br label %for.body

for.body:                                         ; preds = %for.body.lr.ph, %_ZN4pbrt11DisplayItem18ImageChannelBufferD2Ev.exit
  %__begin1.sroa.0.017 = phi ptr [ %8, %for.body.lr.ph ], [ %incdec.ptr.i, %_ZN4pbrt11DisplayItem18ImageChannelBufferD2Ev.exit ]
  invoke void @_ZN4pbrt11DisplayItem18ImageChannelBufferC2ERKNSt7__cxx1112basic_stringIcSt11char_traitsIcESaIcEEEiS9_(ptr noundef nonnull align 8 dereferenceable(64) %ref.tmp22, ptr noundef nonnull align 8 dereferenceable(32) %__begin1.sroa.0.017, i32 noundef %mul, ptr noundef nonnull align 8 dereferenceable(32) %title)
          to label %invoke.cont24 unwind label %lpad8

invoke.cont24:                                    ; preds = %for.body
  %10 = load ptr, ptr %_M_finish.i.i, align 8
  %11 = load ptr, ptr %_M_end_of_storage.i.i, align 8
  %cmp.not.i.i = icmp eq ptr %10, %11
  br i1 %cmp.not.i.i, label %if.else.i.i, label %invoke.cont26.thread

invoke.cont26.thread:                             ; preds = %invoke.cont24
  %12 = load ptr, ptr %ref.tmp22, align 8
  store ptr %12, ptr %10, align 8
  %_M_finish.i.i.i.i.i.i.i.i.i = getelementptr inbounds %"struct.std::_Vector_base<unsigned char, std::allocator<unsigned char>>::_Vector_impl_data", ptr %10, i64 0, i32 1
  %13 = load ptr, ptr %_M_finish3.i.i.i.i.i.i.i.i.i, align 8
  store ptr %13, ptr %_M_finish.i.i.i.i.i.i.i.i.i, align 8
  %_M_end_of_storage.i.i.i.i.i.i.i.i.i = getelementptr inbounds %"struct.std::_Vector_base<unsigned char, std::allocator<unsigned char>>::_Vector_impl_data", ptr %10, i64 0, i32 2
  %14 = load ptr, ptr %_M_end_of_storage4.i.i.i.i.i.i.i.i.i, align 8
  store ptr %14, ptr %_M_end_of_storage.i.i.i.i.i.i.i.i.i, align 8
  call void @llvm.memset.p0.i64(ptr noundef nonnull align 8 dereferenceable(24) %ref.tmp22, i8 0, i64 24, i1 false)
  %tileBoundsOffset.i.i.i.i.i = getelementptr inbounds %"struct.pbrt::DisplayItem::ImageChannelBuffer", ptr %10, i64 0, i32 1
  %15 = load i64, ptr %tileBoundsOffset3.i.i.i.i.i, align 8
  store i64 %15, ptr %tileBoundsOffset.i.i.i.i.i, align 8
  %tileHashes.i.i.i.i.i = getelementptr inbounds %"struct.pbrt::DisplayItem::ImageChannelBuffer", ptr %10, i64 0, i32 3
  %16 = load ptr, ptr %tileHashes4.i.i.i.i.i, align 8
  store ptr %16, ptr %tileHashes.i.i.i.i.i, align 8
  %_M_finish.i.i.i.i4.i.i.i.i.i = getelementptr inbounds %"struct.pbrt::DisplayItem::ImageChannelBuffer", ptr %10, i64 0, i32 3, i32 0, i32 0, i32 0, i32 1
  %17 = load ptr, ptr %_M_finish3.i.i.i.i5.i.i.i.i.i, align 8
  store ptr %17, ptr %_M_finish.i.i.i.i4.i.i.i.i.i, align 8
  %_M_end_of_storage.i.i.i.i6.i.i.i.i.i = getelementptr inbounds %"struct.pbrt::DisplayItem::ImageChannelBuffer", ptr %10, i64 0, i32 3, i32 0, i32 0, i32 0, i32 2
  %18 = load ptr, ptr %_M_end_of_storage4.i.i.i.i7.i.i.i.i.i, align 8
  store ptr %18, ptr %_M_end_of_storage.i.i.i.i6.i.i.i.i.i, align 8
  call void @llvm.memset.p0.i64(ptr noundef nonnull align 8 dereferenceable(24) %tileHashes4.i.i.i.i.i, i8 0, i64 24, i1 false)
  %setCount.i.i.i.i.i = getelementptr inbounds %"struct.pbrt::DisplayItem::ImageChannelBuffer", ptr %10, i64 0, i32 4
  %19 = load i64, ptr %setCount5.i.i.i.i.i, align 8
  store i64 %19, ptr %setCount.i.i.i.i.i, align 8
  %20 = load ptr, ptr %_M_finish.i.i, align 8
  %incdec.ptr.i.i = getelementptr inbounds %"struct.pbrt::DisplayItem::ImageChannelBuffer", ptr %20, i64 1
  store ptr %incdec.ptr.i.i, ptr %_M_finish.i.i, align 8
  br label %_ZNSt6vectorImSaImEED2Ev.exit.i

if.else.i.i:                                      ; preds = %invoke.cont24
  invoke void @_ZNSt6vectorIN4pbrt11DisplayItem18ImageChannelBufferESaIS2_EE17_M_realloc_insertIJS2_EEEvN9__gnu_cxx17__normal_iteratorIPS2_S4_EEDpOT_(ptr noundef nonnull align 8 dereferenceable(24) %channelBuffers, ptr %10, ptr noundef nonnull align 8 dereferenceable(64) %ref.tmp22)
          to label %invoke.cont26 unwind label %lpad25

invoke.cont26:                                    ; preds = %if.else.i.i
  %.pre = load ptr, ptr %tileHashes4.i.i.i.i.i, align 8
  %tobool.not.i.i.i.i = icmp eq ptr %.pre, null
  br i1 %tobool.not.i.i.i.i, label %_ZNSt6vectorImSaImEED2Ev.exit.i, label %if.then.i.i.i.i

if.then.i.i.i.i:                                  ; preds = %invoke.cont26
  call void @_ZdlPv(ptr noundef nonnull %.pre) #24
  br label %_ZNSt6vectorImSaImEED2Ev.exit.i

_ZNSt6vectorImSaImEED2Ev.exit.i:                  ; preds = %invoke.cont26.thread, %if.then.i.i.i.i, %invoke.cont26
  %21 = load ptr, ptr %ref.tmp22, align 8
  %tobool.not.i.i.i1.i = icmp eq ptr %21, null
  br i1 %tobool.not.i.i.i1.i, label %_ZN4pbrt11DisplayItem18ImageChannelBufferD2Ev.exit, label %if.then.i.i.i2.i

if.then.i.i.i2.i:                                 ; preds = %_ZNSt6vectorImSaImEED2Ev.exit.i
  call void @_ZdlPv(ptr noundef nonnull %21) #24
  br label %_ZN4pbrt11DisplayItem18ImageChannelBufferD2Ev.exit

_ZN4pbrt11DisplayItem18ImageChannelBufferD2Ev.exit: ; preds = %_ZNSt6vectorImSaImEED2Ev.exit.i, %if.then.i.i.i2.i
  %incdec.ptr.i = getelementptr inbounds %"class.std::__cxx11::basic_string", ptr %__begin1.sroa.0.017, i64 1
  %cmp.i.not = icmp eq ptr %incdec.ptr.i, %9
  br i1 %cmp.i.not, label %for.end, label %for.body

lpad5:                                            ; preds = %invoke.cont
  %22 = landingpad { ptr, i32 }
          cleanup
  br label %ehcleanup29

lpad8:                                            ; preds = %for.body
  %23 = landingpad { ptr, i32 }
          cleanup
  br label %ehcleanup

lpad25:                                           ; preds = %if.else.i.i
  %24 = landingpad { ptr, i32 }
          cleanup
  call void @_ZN4pbrt11DisplayItem18ImageChannelBufferD2Ev(ptr noundef nonnull align 8 dereferenceable(64) %ref.tmp22) #20
  br label %ehcleanup

for.end:                                          ; preds = %_ZN4pbrt11DisplayItem18ImageChannelBufferD2Ev.exit, %invoke.cont9
  ret void

ehcleanup:                                        ; preds = %lpad8, %lpad.i5, %lpad25
  %.pn = phi { ptr, i32 } [ %24, %lpad25 ], [ %23, %lpad8 ], [ %7, %lpad.i5 ]
  call void @_ZNSt6vectorIN4pbrt11DisplayItem18ImageChannelBufferESaIS2_EED2Ev(ptr noundef nonnull align 8 dereferenceable(24) %channelBuffers) #20
  call void @_ZNSt6vectorINSt7__cxx1112basic_stringIcSt11char_traitsIcESaIcEEESaIS5_EED2Ev(ptr noundef nonnull align 8 dereferenceable(24) %channelNames4) #20
  br label %ehcleanup29

ehcleanup29:                                      ; preds = %ehcleanup, %lpad5
  %.pn.pn = phi { ptr, i32 } [ %.pn, %ehcleanup ], [ %22, %lpad5 ]
  %25 = load ptr, ptr %_M_manager.i.i, align 8
  %tobool.not.i.i9 = icmp eq ptr %25, null
  br i1 %tobool.not.i.i9, label %ehcleanup30, label %if.then.i.i10

if.then.i.i10:                                    ; preds = %ehcleanup29
  %call.i.i11 = invoke noundef zeroext i1 %25(ptr noundef nonnull align 8 dereferenceable(16) %getTileValues3, ptr noundef nonnull align 8 dereferenceable(16) %getTileValues3, i32 noundef 3)
          to label %ehcleanup30 unwind label %terminate.lpad.i.i12

terminate.lpad.i.i12:                             ; preds = %if.then.i.i10
  %26 = landingpad { ptr, i32 }
          catch ptr null
  %27 = extractvalue { ptr, i32 } %26, 0
  call void @__clang_call_terminate(ptr %27) #23
  unreachable

ehcleanup30:                                      ; preds = %if.then.i.i10, %ehcleanup29, %if.then.i.i, %lpad.i
  %.pn.pn.pn = phi { ptr, i32 } [ %3, %if.then.i.i ], [ %3, %lpad.i ], [ %.pn.pn, %ehcleanup29 ], [ %.pn.pn, %if.then.i.i10 ]
  call void @_ZNSt7__cxx1112basic_stringIcSt11char_traitsIcESaIcEED1Ev(ptr noundef nonnull align 8 dereferenceable(32) %title) #20
  resume { ptr, i32 } %.pn.pn.pn
}

; Function Attrs: mustprogress nocallback nofree nounwind willreturn memory(argmem: readwrite)
declare void @llvm.memcpy.p0.p0.i64(ptr noalias nocapture writeonly, ptr noalias nocapture readonly, i64, i1 immarg) #8

; Function Attrs: mustprogress uwtable
define linkonce_odr dso_local void @_ZNSt6vectorINSt7__cxx1112basic_stringIcSt11char_traitsIcESaIcEEESaIS5_EEC2ERKS7_(ptr noundef nonnull align 8 dereferenceable(24) %this, ptr noundef nonnull align 8 dereferenceable(24) %__x) unnamed_addr #0 comdat align 2 personality ptr @__gxx_personality_v0 {
entry:
  %_M_finish.i = getelementptr inbounds %"struct.std::_Vector_base<std::__cxx11::basic_string<char>, std::allocator<std::__cxx11::basic_string<char>>>::_Vector_impl_data", ptr %__x, i64 0, i32 1
  %0 = load ptr, ptr %_M_finish.i, align 8
  %1 = load ptr, ptr %__x, align 8
  %sub.ptr.lhs.cast.i = ptrtoint ptr %0 to i64
  %sub.ptr.rhs.cast.i = ptrtoint ptr %1 to i64
  %sub.ptr.sub.i = sub i64 %sub.ptr.lhs.cast.i, %sub.ptr.rhs.cast.i
  %sub.ptr.div.i = ashr exact i64 %sub.ptr.sub.i, 5
  tail call void @llvm.memset.p0.i64(ptr noundef nonnull align 8 dereferenceable(24) %this, i8 0, i64 24, i1 false)
  %cmp.not.i.i.i = icmp eq ptr %0, %1
  br i1 %cmp.not.i.i.i, label %invoke.cont, label %cond.true.i.i.i

cond.true.i.i.i:                                  ; preds = %entry
  %cmp.i.i.i.i.i = icmp ugt i64 %sub.ptr.div.i, 288230376151711743
  br i1 %cmp.i.i.i.i.i, label %if.then3.i.i.i.i.i, label %_ZNSt16allocator_traitsISaINSt7__cxx1112basic_stringIcSt11char_traitsIcESaIcEEEEE8allocateERS6_m.exit.i.i.i

if.then3.i.i.i.i.i:                               ; preds = %cond.true.i.i.i
  tail call void @_ZSt28__throw_bad_array_new_lengthv() #21
  unreachable

_ZNSt16allocator_traitsISaINSt7__cxx1112basic_stringIcSt11char_traitsIcESaIcEEEEE8allocateERS6_m.exit.i.i.i: ; preds = %cond.true.i.i.i
  %call5.i.i.i.i2.i6 = tail call noalias noundef nonnull ptr @_Znwm(i64 noundef %sub.ptr.sub.i) #25
  br label %invoke.cont

invoke.cont:                                      ; preds = %_ZNSt16allocator_traitsISaINSt7__cxx1112basic_stringIcSt11char_traitsIcESaIcEEEEE8allocateERS6_m.exit.i.i.i, %entry
  %cond.i.i.i = phi ptr [ null, %entry ], [ %call5.i.i.i.i2.i6, %_ZNSt16allocator_traitsISaINSt7__cxx1112basic_stringIcSt11char_traitsIcESaIcEEEEE8allocateERS6_m.exit.i.i.i ]
  store ptr %cond.i.i.i, ptr %this, align 8
  %_M_finish.i.i = getelementptr inbounds %"struct.std::_Vector_base<std::__cxx11::basic_string<char>, std::allocator<std::__cxx11::basic_string<char>>>::_Vector_impl_data", ptr %this, i64 0, i32 1
  store ptr %cond.i.i.i, ptr %_M_finish.i.i, align 8
  %add.ptr.i.i = getelementptr inbounds %"class.std::__cxx11::basic_string", ptr %cond.i.i.i, i64 %sub.ptr.div.i
  %_M_end_of_storage.i.i = getelementptr inbounds %"struct.std::_Vector_base<std::__cxx11::basic_string<char>, std::allocator<std::__cxx11::basic_string<char>>>::_Vector_impl_data", ptr %this, i64 0, i32 2
  store ptr %add.ptr.i.i, ptr %_M_end_of_storage.i.i, align 8
  %2 = load ptr, ptr %__x, align 8
  %3 = load ptr, ptr %_M_finish.i, align 8
  %cmp.i.not8.i.i.i.i = icmp eq ptr %2, %3
  br i1 %cmp.i.not8.i.i.i.i, label %invoke.cont11, label %for.body.i.i.i.i

for.body.i.i.i.i:                                 ; preds = %invoke.cont, %for.inc.i.i.i.i
  %__cur.010.i.i.i.i = phi ptr [ %incdec.ptr.i.i.i.i, %for.inc.i.i.i.i ], [ %cond.i.i.i, %invoke.cont ]
  %__first.sroa.0.09.i.i.i.i = phi ptr [ %incdec.ptr.i.i.i.i.i, %for.inc.i.i.i.i ], [ %2, %invoke.cont ]
  invoke void @_ZNSt7__cxx1112basic_stringIcSt11char_traitsIcESaIcEEC1ERKS4_(ptr noundef nonnull align 8 dereferenceable(32) %__cur.010.i.i.i.i, ptr noundef nonnull align 8 dereferenceable(32) %__first.sroa.0.09.i.i.i.i)
          to label %for.inc.i.i.i.i unwind label %lpad.i.i.i.i

for.inc.i.i.i.i:                                  ; preds = %for.body.i.i.i.i
  %incdec.ptr.i.i.i.i.i = getelementptr inbounds %"class.std::__cxx11::basic_string", ptr %__first.sroa.0.09.i.i.i.i, i64 1
  %incdec.ptr.i.i.i.i = getelementptr inbounds %"class.std::__cxx11::basic_string", ptr %__cur.010.i.i.i.i, i64 1
  %cmp.i.not.i.i.i.i = icmp eq ptr %incdec.ptr.i.i.i.i.i, %3
  br i1 %cmp.i.not.i.i.i.i, label %invoke.cont11, label %for.body.i.i.i.i, !llvm.loop !7

lpad.i.i.i.i:                                     ; preds = %for.body.i.i.i.i
  %4 = landingpad { ptr, i32 }
          catch ptr null
  %5 = extractvalue { ptr, i32 } %4, 0
  %6 = tail call ptr @__cxa_begin_catch(ptr %5) #20
  %cmp.not3.i.i.i.i.i.i = icmp eq ptr %__cur.010.i.i.i.i, %cond.i.i.i
  br i1 %cmp.not3.i.i.i.i.i.i, label %invoke.cont5.i.i.i.i, label %for.body.i.i.i.i.i.i

for.body.i.i.i.i.i.i:                             ; preds = %lpad.i.i.i.i, %for.body.i.i.i.i.i.i
  %__first.addr.04.i.i.i.i.i.i = phi ptr [ %incdec.ptr.i.i.i.i.i.i, %for.body.i.i.i.i.i.i ], [ %cond.i.i.i, %lpad.i.i.i.i ]
  tail call void @_ZNSt7__cxx1112basic_stringIcSt11char_traitsIcESaIcEED1Ev(ptr noundef nonnull align 8 dereferenceable(32) %__first.addr.04.i.i.i.i.i.i) #20
  %incdec.ptr.i.i.i.i.i.i = getelementptr inbounds %"class.std::__cxx11::basic_string", ptr %__first.addr.04.i.i.i.i.i.i, i64 1
  %cmp.not.i.i.i.i.i.i = icmp eq ptr %incdec.ptr.i.i.i.i.i.i, %__cur.010.i.i.i.i
  br i1 %cmp.not.i.i.i.i.i.i, label %invoke.cont5.i.i.i.i, label %for.body.i.i.i.i.i.i, !llvm.loop !8

invoke.cont5.i.i.i.i:                             ; preds = %for.body.i.i.i.i.i.i, %lpad.i.i.i.i
  invoke void @__cxa_rethrow() #21
          to label %unreachable.i.i.i.i unwind label %lpad4.i.i.i.i

lpad4.i.i.i.i:                                    ; preds = %invoke.cont5.i.i.i.i
  %7 = landingpad { ptr, i32 }
          cleanup
  invoke void @__cxa_end_catch()
          to label %lpad10.body unwind label %terminate.lpad.i.i.i.i

terminate.lpad.i.i.i.i:                           ; preds = %lpad4.i.i.i.i
  %8 = landingpad { ptr, i32 }
          catch ptr null
  %9 = extractvalue { ptr, i32 } %8, 0
  tail call void @__clang_call_terminate(ptr %9) #23
  unreachable

unreachable.i.i.i.i:                              ; preds = %invoke.cont5.i.i.i.i
  unreachable

invoke.cont11:                                    ; preds = %for.inc.i.i.i.i, %invoke.cont
  %__cur.0.lcssa.i.i.i.i = phi ptr [ %cond.i.i.i, %invoke.cont ], [ %incdec.ptr.i.i.i.i, %for.inc.i.i.i.i ]
  store ptr %__cur.0.lcssa.i.i.i.i, ptr %_M_finish.i.i, align 8
  ret void

lpad10.body:                                      ; preds = %lpad4.i.i.i.i
  %10 = load ptr, ptr %this, align 8
  %tobool.not.i.i = icmp eq ptr %10, null
  br i1 %tobool.not.i.i, label %eh.resume, label %if.then.i.i

if.then.i.i:                                      ; preds = %lpad10.body
  tail call void @_ZdlPv(ptr noundef nonnull %10) #24
  br label %eh.resume

eh.resume:                                        ; preds = %if.then.i.i, %lpad10.body
  resume { ptr, i32 } %7
}

; Function Attrs: nounwind
declare i32 @getpid() local_unnamed_addr #1

; Function Attrs: mustprogress nounwind uwtable
define linkonce_odr dso_local void @_ZN4pbrt11DisplayItem18ImageChannelBufferD2Ev(ptr noundef nonnull align 8 dereferenceable(64) %this) unnamed_addr #6 comdat align 2 personality ptr @__gxx_personality_v0 {
entry:
  %tileHashes = getelementptr inbounds %"struct.pbrt::DisplayItem::ImageChannelBuffer", ptr %this, i64 0, i32 3
  %0 = load ptr, ptr %tileHashes, align 8
  %tobool.not.i.i.i = icmp eq ptr %0, null
  br i1 %tobool.not.i.i.i, label %_ZNSt6vectorImSaImEED2Ev.exit, label %if.then.i.i.i

if.then.i.i.i:                                    ; preds = %entry
  tail call void @_ZdlPv(ptr noundef nonnull %0) #24
  br label %_ZNSt6vectorImSaImEED2Ev.exit

_ZNSt6vectorImSaImEED2Ev.exit:                    ; preds = %entry, %if.then.i.i.i
  %1 = load ptr, ptr %this, align 8
  %tobool.not.i.i.i1 = icmp eq ptr %1, null
  br i1 %tobool.not.i.i.i1, label %_ZNSt6vectorIhSaIhEED2Ev.exit, label %if.then.i.i.i2

if.then.i.i.i2:                                   ; preds = %_ZNSt6vectorImSaImEED2Ev.exit
  tail call void @_ZdlPv(ptr noundef nonnull %1) #24
  br label %_ZNSt6vectorIhSaIhEED2Ev.exit

_ZNSt6vectorIhSaIhEED2Ev.exit:                    ; preds = %_ZNSt6vectorImSaImEED2Ev.exit, %if.then.i.i.i2
  ret void
}

; Function Attrs: mustprogress nounwind uwtable
define linkonce_odr dso_local void @_ZNSt6vectorIN4pbrt11DisplayItem18ImageChannelBufferESaIS2_EED2Ev(ptr noundef nonnull align 8 dereferenceable(24) %this) unnamed_addr #6 comdat align 2 personality ptr @__gxx_personality_v0 {
entry:
  %0 = load ptr, ptr %this, align 8
  %_M_finish = getelementptr inbounds %"struct.std::_Vector_base<pbrt::DisplayItem::ImageChannelBuffer, std::allocator<pbrt::DisplayItem::ImageChannelBuffer>>::_Vector_impl_data", ptr %this, i64 0, i32 1
  %1 = load ptr, ptr %_M_finish, align 8
  %cmp.not3.i.i.i = icmp eq ptr %0, %1
  br i1 %cmp.not3.i.i.i, label %invoke.cont, label %for.body.i.i.i

for.body.i.i.i:                                   ; preds = %entry, %_ZSt8_DestroyIN4pbrt11DisplayItem18ImageChannelBufferEEvPT_.exit.i.i.i
  %__first.addr.04.i.i.i = phi ptr [ %incdec.ptr.i.i.i, %_ZSt8_DestroyIN4pbrt11DisplayItem18ImageChannelBufferEEvPT_.exit.i.i.i ], [ %0, %entry ]
  %tileHashes.i.i.i.i.i = getelementptr inbounds %"struct.pbrt::DisplayItem::ImageChannelBuffer", ptr %__first.addr.04.i.i.i, i64 0, i32 3
  %2 = load ptr, ptr %tileHashes.i.i.i.i.i, align 8
  %tobool.not.i.i.i.i.i.i.i.i = icmp eq ptr %2, null
  br i1 %tobool.not.i.i.i.i.i.i.i.i, label %_ZNSt6vectorImSaImEED2Ev.exit.i.i.i.i.i, label %if.then.i.i.i.i.i.i.i.i

if.then.i.i.i.i.i.i.i.i:                          ; preds = %for.body.i.i.i
  tail call void @_ZdlPv(ptr noundef nonnull %2) #24
  br label %_ZNSt6vectorImSaImEED2Ev.exit.i.i.i.i.i

_ZNSt6vectorImSaImEED2Ev.exit.i.i.i.i.i:          ; preds = %if.then.i.i.i.i.i.i.i.i, %for.body.i.i.i
  %3 = load ptr, ptr %__first.addr.04.i.i.i, align 8
  %tobool.not.i.i.i1.i.i.i.i.i = icmp eq ptr %3, null
  br i1 %tobool.not.i.i.i1.i.i.i.i.i, label %_ZSt8_DestroyIN4pbrt11DisplayItem18ImageChannelBufferEEvPT_.exit.i.i.i, label %if.then.i.i.i2.i.i.i.i.i

if.then.i.i.i2.i.i.i.i.i:                         ; preds = %_ZNSt6vectorImSaImEED2Ev.exit.i.i.i.i.i
  tail call void @_ZdlPv(ptr noundef nonnull %3) #24
  br label %_ZSt8_DestroyIN4pbrt11DisplayItem18ImageChannelBufferEEvPT_.exit.i.i.i

_ZSt8_DestroyIN4pbrt11DisplayItem18ImageChannelBufferEEvPT_.exit.i.i.i: ; preds = %if.then.i.i.i2.i.i.i.i.i, %_ZNSt6vectorImSaImEED2Ev.exit.i.i.i.i.i
  %incdec.ptr.i.i.i = getelementptr inbounds %"struct.pbrt::DisplayItem::ImageChannelBuffer", ptr %__first.addr.04.i.i.i, i64 1
  %cmp.not.i.i.i = icmp eq ptr %incdec.ptr.i.i.i, %1
  br i1 %cmp.not.i.i.i, label %invoke.contthread-pre-split, label %for.body.i.i.i, !llvm.loop !9

invoke.contthread-pre-split:                      ; preds = %_ZSt8_DestroyIN4pbrt11DisplayItem18ImageChannelBufferEEvPT_.exit.i.i.i
  %.pr = load ptr, ptr %this, align 8
  br label %invoke.cont

invoke.cont:                                      ; preds = %invoke.contthread-pre-split, %entry
  %4 = phi ptr [ %.pr, %invoke.contthread-pre-split ], [ %0, %entry ]
  %tobool.not.i.i = icmp eq ptr %4, null
  br i1 %tobool.not.i.i, label %_ZNSt12_Vector_baseIN4pbrt11DisplayItem18ImageChannelBufferESaIS2_EED2Ev.exit, label %if.then.i.i

if.then.i.i:                                      ; preds = %invoke.cont
  tail call void @_ZdlPv(ptr noundef nonnull %4) #24
  br label %_ZNSt12_Vector_baseIN4pbrt11DisplayItem18ImageChannelBufferESaIS2_EED2Ev.exit

_ZNSt12_Vector_baseIN4pbrt11DisplayItem18ImageChannelBufferESaIS2_EED2Ev.exit: ; preds = %invoke.cont, %if.then.i.i
  ret void
}

; Function Attrs: mustprogress nounwind uwtable
define linkonce_odr dso_local void @_ZNSt6vectorINSt7__cxx1112basic_stringIcSt11char_traitsIcESaIcEEESaIS5_EED2Ev(ptr noundef nonnull align 8 dereferenceable(24) %this) unnamed_addr #6 comdat align 2 personality ptr @__gxx_personality_v0 {
entry:
  %0 = load ptr, ptr %this, align 8
  %_M_finish = getelementptr inbounds %"struct.std::_Vector_base<std::__cxx11::basic_string<char>, std::allocator<std::__cxx11::basic_string<char>>>::_Vector_impl_data", ptr %this, i64 0, i32 1
  %1 = load ptr, ptr %_M_finish, align 8
  %cmp.not3.i.i.i = icmp eq ptr %0, %1
  br i1 %cmp.not3.i.i.i, label %invoke.cont, label %for.body.i.i.i

for.body.i.i.i:                                   ; preds = %entry, %for.body.i.i.i
  %__first.addr.04.i.i.i = phi ptr [ %incdec.ptr.i.i.i, %for.body.i.i.i ], [ %0, %entry ]
  tail call void @_ZNSt7__cxx1112basic_stringIcSt11char_traitsIcESaIcEED1Ev(ptr noundef nonnull align 8 dereferenceable(32) %__first.addr.04.i.i.i) #20
  %incdec.ptr.i.i.i = getelementptr inbounds %"class.std::__cxx11::basic_string", ptr %__first.addr.04.i.i.i, i64 1
  %cmp.not.i.i.i = icmp eq ptr %incdec.ptr.i.i.i, %1
  br i1 %cmp.not.i.i.i, label %invoke.contthread-pre-split, label %for.body.i.i.i, !llvm.loop !8

invoke.contthread-pre-split:                      ; preds = %for.body.i.i.i
  %.pr = load ptr, ptr %this, align 8
  br label %invoke.cont

invoke.cont:                                      ; preds = %invoke.contthread-pre-split, %entry
  %2 = phi ptr [ %.pr, %invoke.contthread-pre-split ], [ %0, %entry ]
  %tobool.not.i.i = icmp eq ptr %2, null
  br i1 %tobool.not.i.i, label %_ZNSt12_Vector_baseINSt7__cxx1112basic_stringIcSt11char_traitsIcESaIcEEESaIS5_EED2Ev.exit, label %if.then.i.i

if.then.i.i:                                      ; preds = %invoke.cont
  tail call void @_ZdlPv(ptr noundef nonnull %2) #24
  br label %_ZNSt12_Vector_baseINSt7__cxx1112basic_stringIcSt11char_traitsIcESaIcEEESaIS5_EED2Ev.exit

_ZNSt12_Vector_baseINSt7__cxx1112basic_stringIcSt11char_traitsIcESaIcEEESaIS5_EED2Ev.exit: ; preds = %invoke.cont, %if.then.i.i
  ret void
}

; Function Attrs: mustprogress uwtable
define dso_local void @_ZN4pbrt11DisplayItem18ImageChannelBufferC2ERKNSt7__cxx1112basic_stringIcSt11char_traitsIcESaIcEEEiS9_(ptr noundef nonnull align 8 dereferenceable(64) %this, ptr noundef nonnull align 8 dereferenceable(32) %channelName, i32 noundef %nTiles, ptr noundef nonnull align 8 dereferenceable(32) %title) unnamed_addr #0 align 2 personality ptr @__gxx_personality_v0 {
entry:
  %zeroHash = alloca i64, align 8
  %tileBoundsOffset = getelementptr inbounds %"struct.pbrt::DisplayItem::ImageChannelBuffer", ptr %this, i64 0, i32 1
  %channelValuesOffset = getelementptr inbounds %"struct.pbrt::DisplayItem::ImageChannelBuffer", ptr %this, i64 0, i32 2
  %tileHashes = getelementptr inbounds %"struct.pbrt::DisplayItem::ImageChannelBuffer", ptr %this, i64 0, i32 3
  tail call void @llvm.memset.p0.i64(ptr noundef nonnull align 8 dereferenceable(56) %this, i8 0, i64 56, i1 false)
  %call = tail call noundef i64 @_ZNKSt7__cxx1112basic_stringIcSt11char_traitsIcESaIcEE4sizeEv(ptr noundef nonnull align 8 dereferenceable(32) %title) #20
  %conv = shl i64 %call, 32
  %sext = add i64 %conv, 281612415664128
  %conv4 = ashr exact i64 %sext, 32
  invoke void @_ZNSt6vectorIhSaIhEE6resizeEm(ptr noundef nonnull align 8 dereferenceable(24) %this, i64 noundef %conv4)
          to label %invoke.cont unwind label %lpad

invoke.cont:                                      ; preds = %entry
  %0 = load ptr, ptr %this, align 8
  store i32 0, ptr %0, align 1
  %add.ptr.i = getelementptr inbounds i8, ptr %0, i64 4
  store i8 3, ptr %add.ptr.i, align 1
  %add.ptr.i3 = getelementptr inbounds i8, ptr %0, i64 5
  store i8 0, ptr %add.ptr.i3, align 1
  %add.ptr.i4 = getelementptr inbounds i8, ptr %0, i64 6
  %call7.i = tail call noundef i64 @_ZNKSt7__cxx1112basic_stringIcSt11char_traitsIcESaIcEE4sizeEv(ptr noundef nonnull align 8 dereferenceable(32) %title) #20
  %cmp8.not.i = icmp eq i64 %call7.i, 0
  br i1 %cmp8.not.i, label %_ZN4pbrt12_GLOBAL__N_19SerializeEPPhRKNSt7__cxx1112basic_stringIcSt11char_traitsIcESaIcEEE.exit, label %for.body.i

for.body.i:                                       ; preds = %invoke.cont, %for.body.i
  %ptr.0 = phi ptr [ %add.ptr.i5, %for.body.i ], [ %add.ptr.i4, %invoke.cont ]
  %i.09.i = phi i64 [ %inc.i, %for.body.i ], [ 0, %invoke.cont ]
  %call1.i = tail call noundef nonnull align 1 dereferenceable(1) ptr @_ZNKSt7__cxx1112basic_stringIcSt11char_traitsIcESaIcEEixEm(ptr noundef nonnull align 8 dereferenceable(32) %title, i64 noundef %i.09.i) #20
  %1 = load i8, ptr %call1.i, align 1
  store i8 %1, ptr %ptr.0, align 1
  %inc.i = add nuw i64 %i.09.i, 1
  %add.ptr.i5 = getelementptr inbounds i8, ptr %ptr.0, i64 1
  %call.i = tail call noundef i64 @_ZNKSt7__cxx1112basic_stringIcSt11char_traitsIcESaIcEE4sizeEv(ptr noundef nonnull align 8 dereferenceable(32) %title) #20
  %cmp.i = icmp ult i64 %inc.i, %call.i
  br i1 %cmp.i, label %for.body.i, label %_ZN4pbrt12_GLOBAL__N_19SerializeEPPhRKNSt7__cxx1112basic_stringIcSt11char_traitsIcESaIcEEE.exit, !llvm.loop !10

_ZN4pbrt12_GLOBAL__N_19SerializeEPPhRKNSt7__cxx1112basic_stringIcSt11char_traitsIcESaIcEEE.exit: ; preds = %for.body.i, %invoke.cont
  %ptr.1 = phi ptr [ %add.ptr.i4, %invoke.cont ], [ %add.ptr.i5, %for.body.i ]
  store i8 0, ptr %ptr.1, align 1
  %add.ptr2.i = getelementptr inbounds i8, ptr %ptr.1, i64 1
  %call7.i6 = tail call noundef i64 @_ZNKSt7__cxx1112basic_stringIcSt11char_traitsIcESaIcEE4sizeEv(ptr noundef nonnull align 8 dereferenceable(32) %channelName) #20
  %cmp8.not.i7 = icmp eq i64 %call7.i6, 0
  br i1 %cmp8.not.i7, label %_ZN4pbrt12_GLOBAL__N_19SerializeEPPhRKNSt7__cxx1112basic_stringIcSt11char_traitsIcESaIcEEE.exit16, label %for.body.i8

for.body.i8:                                      ; preds = %_ZN4pbrt12_GLOBAL__N_19SerializeEPPhRKNSt7__cxx1112basic_stringIcSt11char_traitsIcESaIcEEE.exit, %for.body.i8
  %ptr.2 = phi ptr [ %add.ptr.i12, %for.body.i8 ], [ %add.ptr2.i, %_ZN4pbrt12_GLOBAL__N_19SerializeEPPhRKNSt7__cxx1112basic_stringIcSt11char_traitsIcESaIcEEE.exit ]
  %i.09.i9 = phi i64 [ %inc.i11, %for.body.i8 ], [ 0, %_ZN4pbrt12_GLOBAL__N_19SerializeEPPhRKNSt7__cxx1112basic_stringIcSt11char_traitsIcESaIcEEE.exit ]
  %call1.i10 = tail call noundef nonnull align 1 dereferenceable(1) ptr @_ZNKSt7__cxx1112basic_stringIcSt11char_traitsIcESaIcEEixEm(ptr noundef nonnull align 8 dereferenceable(32) %channelName, i64 noundef %i.09.i9) #20
  %2 = load i8, ptr %call1.i10, align 1
  store i8 %2, ptr %ptr.2, align 1
  %inc.i11 = add nuw i64 %i.09.i9, 1
  %add.ptr.i12 = getelementptr inbounds i8, ptr %ptr.2, i64 1
  %call.i13 = tail call noundef i64 @_ZNKSt7__cxx1112basic_stringIcSt11char_traitsIcESaIcEE4sizeEv(ptr noundef nonnull align 8 dereferenceable(32) %channelName) #20
  %cmp.i14 = icmp ult i64 %inc.i11, %call.i13
  br i1 %cmp.i14, label %for.body.i8, label %_ZN4pbrt12_GLOBAL__N_19SerializeEPPhRKNSt7__cxx1112basic_stringIcSt11char_traitsIcESaIcEEE.exit16, !llvm.loop !10

_ZN4pbrt12_GLOBAL__N_19SerializeEPPhRKNSt7__cxx1112basic_stringIcSt11char_traitsIcESaIcEEE.exit16: ; preds = %for.body.i8, %_ZN4pbrt12_GLOBAL__N_19SerializeEPPhRKNSt7__cxx1112basic_stringIcSt11char_traitsIcESaIcEEE.exit
  %ptr.3 = phi ptr [ %add.ptr2.i, %_ZN4pbrt12_GLOBAL__N_19SerializeEPPhRKNSt7__cxx1112basic_stringIcSt11char_traitsIcESaIcEEE.exit ], [ %add.ptr.i12, %for.body.i8 ]
  store i8 0, ptr %ptr.3, align 1
  %add.ptr2.i15 = getelementptr inbounds i8, ptr %ptr.3, i64 1
  %3 = load ptr, ptr %this, align 8
  %sub.ptr.lhs.cast = ptrtoint ptr %add.ptr2.i15 to i64
  %sub.ptr.rhs.cast = ptrtoint ptr %3 to i64
  %sub.ptr.sub = sub i64 %sub.ptr.lhs.cast, %sub.ptr.rhs.cast
  %conv14 = trunc i64 %sub.ptr.sub to i32
  store i32 %conv14, ptr %tileBoundsOffset, align 8
  %conv19 = add i32 %conv14, 16
  store i32 %conv19, ptr %channelValuesOffset, align 4
  %idx.ext = sext i32 %conv19 to i64
  %add.ptr = getelementptr inbounds i8, ptr %3, i64 %idx.ext
  tail call void @llvm.memset.p0.i64(ptr noundef nonnull align 1 dereferenceable(65536) %add.ptr, i8 0, i64 65536, i1 false)
  %4 = load ptr, ptr %this, align 8
  %5 = load i32, ptr %channelValuesOffset, align 4
  %idx.ext27 = sext i32 %5 to i64
  %add.ptr28 = getelementptr inbounds i8, ptr %4, i64 %idx.ext27
  br label %while.body.i.i

while.body.i.i:                                   ; preds = %while.body.i.i, %_ZN4pbrt12_GLOBAL__N_19SerializeEPPhRKNSt7__cxx1112basic_stringIcSt11char_traitsIcESaIcEEE.exit16
  %key.addr.035.i.i.idx = phi i64 [ %key.addr.035.i.i.add, %while.body.i.i ], [ 0, %_ZN4pbrt12_GLOBAL__N_19SerializeEPPhRKNSt7__cxx1112basic_stringIcSt11char_traitsIcESaIcEEE.exit16 ]
  %h.034.i.i = phi i64 [ %mul7.i.i, %while.body.i.i ], [ -6371648090673971200, %_ZN4pbrt12_GLOBAL__N_19SerializeEPPhRKNSt7__cxx1112basic_stringIcSt11char_traitsIcESaIcEEE.exit16 ]
  %key.addr.035.i.i.ptr = getelementptr inbounds i8, ptr %add.ptr28, i64 %key.addr.035.i.i.idx
  %k.0.copyload.i.i = load i64, ptr %key.addr.035.i.i.ptr, align 1
  %key.addr.035.i.i.add = add nuw nsw i64 %key.addr.035.i.i.idx, 8
  %mul3.i.i = mul i64 %k.0.copyload.i.i, -4132994306676758123
  %shr.i.i = lshr i64 %mul3.i.i, 47
  %xor4.i.i = xor i64 %shr.i.i, %mul3.i.i
  %mul5.i.i = mul i64 %xor4.i.i, -4132994306676758123
  %xor6.i.i = xor i64 %mul5.i.i, %h.034.i.i
  %mul7.i.i = mul i64 %xor6.i.i, -4132994306676758123
  %cmp.not.i.i = icmp eq i64 %key.addr.035.i.i.add, 65536
  br i1 %cmp.not.i.i, label %invoke.cont29, label %while.body.i.i, !llvm.loop !11

invoke.cont29:                                    ; preds = %while.body.i.i
  %shr39.i.i = lshr i64 %mul7.i.i, 47
  %xor40.i.i = xor i64 %shr39.i.i, %mul7.i.i
  %mul41.i.i = mul i64 %xor40.i.i, -4132994306676758123
  %shr42.i.i = lshr i64 %mul41.i.i, 47
  %xor43.i.i = xor i64 %shr42.i.i, %mul41.i.i
  store i64 %xor43.i.i, ptr %zeroHash, align 8
  %conv32 = sext i32 %nTiles to i64
  invoke void @_ZNSt6vectorImSaImEE14_M_fill_assignEmRKm(ptr noundef nonnull align 8 dereferenceable(24) %tileHashes, i64 noundef %conv32, ptr noundef nonnull align 8 dereferenceable(8) %zeroHash)
          to label %invoke.cont33 unwind label %lpad

invoke.cont33:                                    ; preds = %invoke.cont29
  ret void

lpad:                                             ; preds = %invoke.cont29, %entry
  %6 = landingpad { ptr, i32 }
          cleanup
  %7 = load ptr, ptr %tileHashes, align 8
  %tobool.not.i.i.i = icmp eq ptr %7, null
  br i1 %tobool.not.i.i.i, label %_ZNSt6vectorImSaImEED2Ev.exit, label %if.then.i.i.i

if.then.i.i.i:                                    ; preds = %lpad
  call void @_ZdlPv(ptr noundef nonnull %7) #24
  br label %_ZNSt6vectorImSaImEED2Ev.exit

_ZNSt6vectorImSaImEED2Ev.exit:                    ; preds = %lpad, %if.then.i.i.i
  %8 = load ptr, ptr %this, align 8
  %tobool.not.i.i.i17 = icmp eq ptr %8, null
  br i1 %tobool.not.i.i.i17, label %_ZNSt6vectorIhSaIhEED2Ev.exit, label %if.then.i.i.i18

if.then.i.i.i18:                                  ; preds = %_ZNSt6vectorImSaImEED2Ev.exit
  call void @_ZdlPv(ptr noundef nonnull %8) #24
  br label %_ZNSt6vectorIhSaIhEED2Ev.exit

_ZNSt6vectorIhSaIhEED2Ev.exit:                    ; preds = %_ZNSt6vectorImSaImEED2Ev.exit, %if.then.i.i.i18
  resume { ptr, i32 } %6
}

; Function Attrs: nounwind
declare noundef i64 @_ZNKSt7__cxx1112basic_stringIcSt11char_traitsIcESaIcEE4sizeEv(ptr noundef nonnull align 8 dereferenceable(32)) local_unnamed_addr #1

; Function Attrs: mustprogress uwtable
define linkonce_odr dso_local void @_ZNSt6vectorIhSaIhEE6resizeEm(ptr noundef nonnull align 8 dereferenceable(24) %this, i64 noundef %__new_size) local_unnamed_addr #0 comdat align 2 personality ptr @__gxx_personality_v0 {
entry:
  %_M_finish.i = getelementptr inbounds %"struct.std::_Vector_base<unsigned char, std::allocator<unsigned char>>::_Vector_impl_data", ptr %this, i64 0, i32 1
  %0 = load ptr, ptr %_M_finish.i, align 8
  %1 = load ptr, ptr %this, align 8
  %sub.ptr.lhs.cast.i = ptrtoint ptr %0 to i64
  %sub.ptr.rhs.cast.i = ptrtoint ptr %1 to i64
  %sub.ptr.sub.i = sub i64 %sub.ptr.lhs.cast.i, %sub.ptr.rhs.cast.i
  %cmp = icmp ult i64 %sub.ptr.sub.i, %__new_size
  br i1 %cmp, label %if.then, label %if.else

if.then:                                          ; preds = %entry
  %sub = sub i64 %__new_size, %sub.ptr.sub.i
  %_M_end_of_storage.i = getelementptr inbounds %"struct.std::_Vector_base<unsigned char, std::allocator<unsigned char>>::_Vector_impl_data", ptr %this, i64 0, i32 2
  %2 = load ptr, ptr %_M_end_of_storage.i, align 8
  %sub.ptr.lhs.cast.i8 = ptrtoint ptr %2 to i64
  %sub.ptr.sub.i9 = sub i64 %sub.ptr.lhs.cast.i8, %sub.ptr.lhs.cast.i
  %cmp4.i = icmp sgt i64 %sub.ptr.sub.i, -1
  tail call void @llvm.assume(i1 %cmp4.i)
  %sub.i = xor i64 %sub.ptr.sub.i, 9223372036854775807
  %cmp6.i = icmp ule i64 %sub.ptr.sub.i9, %sub.i
  tail call void @llvm.assume(i1 %cmp6.i)
  %cmp8.not.i = icmp ult i64 %sub.ptr.sub.i9, %sub
  br i1 %cmp8.not.i, label %if.else.i, label %if.then.i.i.i.i

if.then.i.i.i.i:                                  ; preds = %if.then
  store i8 0, ptr %0, align 1
  %incdec.ptr.i.i.i.i = getelementptr inbounds i8, ptr %0, i64 1
  %sub.i.i.i.i = add i64 %sub, -1
  %cmp.i.i.i.i.i.i = icmp eq i64 %sub.i.i.i.i, 0
  br i1 %cmp.i.i.i.i.i.i, label %_ZSt27__uninitialized_default_n_aIPhmhET_S1_T0_RSaIT1_E.exit.i, label %if.then.i.i.i.i.i.i.i.i

if.then.i.i.i.i.i.i.i.i:                          ; preds = %if.then.i.i.i.i
  %add.ptr.i.i.i.i.i.i = getelementptr inbounds i8, ptr %0, i64 %sub
  tail call void @llvm.memset.p0.i64(ptr nonnull align 1 %incdec.ptr.i.i.i.i, i8 0, i64 %sub.i.i.i.i, i1 false)
  br label %_ZSt27__uninitialized_default_n_aIPhmhET_S1_T0_RSaIT1_E.exit.i

_ZSt27__uninitialized_default_n_aIPhmhET_S1_T0_RSaIT1_E.exit.i: ; preds = %if.then.i.i.i.i.i.i.i.i, %if.then.i.i.i.i
  %__first.addr.0.i.i.i.i = phi ptr [ %incdec.ptr.i.i.i.i, %if.then.i.i.i.i ], [ %add.ptr.i.i.i.i.i.i, %if.then.i.i.i.i.i.i.i.i ]
  store ptr %__first.addr.0.i.i.i.i, ptr %_M_finish.i, align 8
  br label %if.end6

if.else.i:                                        ; preds = %if.then
  %cmp.i.i = icmp ult i64 %sub.i, %sub
  br i1 %cmp.i.i, label %if.then.i.i, label %_ZNKSt6vectorIhSaIhEE12_M_check_lenEmPKc.exit.i

if.then.i.i:                                      ; preds = %if.else.i
  tail call void @_ZSt20__throw_length_errorPKc(ptr noundef nonnull @.str.39) #21
  unreachable

_ZNKSt6vectorIhSaIhEE12_M_check_lenEmPKc.exit.i:  ; preds = %if.else.i
  %.sroa.speculated.i.i = tail call i64 @llvm.umax.i64(i64 %sub.ptr.sub.i, i64 %sub)
  %add.i.i = add nuw i64 %.sroa.speculated.i.i, %sub.ptr.sub.i
  %cond.i.i = tail call i64 @llvm.umin.i64(i64 %add.i.i, i64 9223372036854775807)
  %call5.i.i.i.i = tail call noalias noundef nonnull ptr @_Znwm(i64 noundef %cond.i.i) #25
  %add.ptr.i = getelementptr inbounds i8, ptr %call5.i.i.i.i, i64 %sub.ptr.sub.i
  store i8 0, ptr %add.ptr.i, align 1
  %sub.i.i.i23.i = add nsw i64 %sub, -1
  %cmp.i.i.i.i.i24.i = icmp eq i64 %sub.i.i.i23.i, 0
  br i1 %cmp.i.i.i.i.i24.i, label %try.cont.i, label %if.then.i.i.i.i.i.i.i25.i

if.then.i.i.i.i.i.i.i25.i:                        ; preds = %_ZNKSt6vectorIhSaIhEE12_M_check_lenEmPKc.exit.i
  %incdec.ptr.i.i.i22.i = getelementptr inbounds i8, ptr %add.ptr.i, i64 1
  tail call void @llvm.memset.p0.i64(ptr nonnull align 1 %incdec.ptr.i.i.i22.i, i8 0, i64 %sub.i.i.i23.i, i1 false)
  br label %try.cont.i

try.cont.i:                                       ; preds = %if.then.i.i.i.i.i.i.i25.i, %_ZNKSt6vectorIhSaIhEE12_M_check_lenEmPKc.exit.i
  %cmp.i.i.i30.not.i = icmp eq ptr %0, %1
  br i1 %cmp.i.i.i30.not.i, label %_ZNSt6vectorIhSaIhEE11_S_relocateEPhS2_S2_RS0_.exit.i, label %if.then.i.i.i31.i

if.then.i.i.i31.i:                                ; preds = %try.cont.i
  tail call void @llvm.memmove.p0.p0.i64(ptr nonnull align 1 %call5.i.i.i.i, ptr align 1 %1, i64 %sub.ptr.sub.i, i1 false)
  br label %_ZNSt6vectorIhSaIhEE11_S_relocateEPhS2_S2_RS0_.exit.i

_ZNSt6vectorIhSaIhEE11_S_relocateEPhS2_S2_RS0_.exit.i: ; preds = %if.then.i.i.i31.i, %try.cont.i
  %tobool.not.i32.i = icmp eq ptr %1, null
  br i1 %tobool.not.i32.i, label %_ZNSt12_Vector_baseIhSaIhEE13_M_deallocateEPhm.exit34.i, label %if.then.i33.i

if.then.i33.i:                                    ; preds = %_ZNSt6vectorIhSaIhEE11_S_relocateEPhS2_S2_RS0_.exit.i
  tail call void @_ZdlPv(ptr noundef nonnull %1) #24
  br label %_ZNSt12_Vector_baseIhSaIhEE13_M_deallocateEPhm.exit34.i

_ZNSt12_Vector_baseIhSaIhEE13_M_deallocateEPhm.exit34.i: ; preds = %if.then.i33.i, %_ZNSt6vectorIhSaIhEE11_S_relocateEPhS2_S2_RS0_.exit.i
  store ptr %call5.i.i.i.i, ptr %this, align 8
  %add.ptr36.i = getelementptr inbounds i8, ptr %call5.i.i.i.i, i64 %__new_size
  store ptr %add.ptr36.i, ptr %_M_finish.i, align 8
  %add.ptr39.i = getelementptr inbounds i8, ptr %call5.i.i.i.i, i64 %cond.i.i
  store ptr %add.ptr39.i, ptr %_M_end_of_storage.i, align 8
  br label %if.end6

if.else:                                          ; preds = %entry
  %cmp4 = icmp ugt i64 %sub.ptr.sub.i, %__new_size
  br i1 %cmp4, label %if.then5, label %if.end6

if.then5:                                         ; preds = %if.else
  %add.ptr = getelementptr inbounds i8, ptr %1, i64 %__new_size
  %tobool.not.i = icmp eq ptr %0, %add.ptr
  br i1 %tobool.not.i, label %if.end6, label %invoke.cont.i

invoke.cont.i:                                    ; preds = %if.then5
  store ptr %add.ptr, ptr %_M_finish.i, align 8
  br label %if.end6

if.end6:                                          ; preds = %invoke.cont.i, %if.then5, %_ZNSt12_Vector_baseIhSaIhEE13_M_deallocateEPhm.exit34.i, %_ZSt27__uninitialized_default_n_aIPhmhET_S1_T0_RSaIT1_E.exit.i, %if.else
  ret void
}

; Function Attrs: mustprogress nofree norecurse nosync nounwind willreturn memory(write, argmem: readwrite, inaccessiblemem: none) uwtable
define dso_local void @_ZN4pbrt11DisplayItem18ImageChannelBuffer13SetTileBoundsEiiii(ptr nocapture noundef nonnull align 8 dereferenceable(64) %this, i32 noundef %x, i32 noundef %y, i32 noundef %width, i32 noundef %height) local_unnamed_addr #9 align 2 {
entry:
  %0 = load ptr, ptr %this, align 8
  %tileBoundsOffset = getelementptr inbounds %"struct.pbrt::DisplayItem::ImageChannelBuffer", ptr %this, i64 0, i32 1
  %1 = load i32, ptr %tileBoundsOffset, align 8
  %idx.ext = sext i32 %1 to i64
  %add.ptr = getelementptr inbounds i8, ptr %0, i64 %idx.ext
  store i32 %x, ptr %add.ptr, align 1
  %add.ptr.i = getelementptr inbounds i8, ptr %add.ptr, i64 4
  store i32 %y, ptr %add.ptr.i, align 1
  %add.ptr.i3 = getelementptr inbounds i8, ptr %add.ptr, i64 8
  store i32 %width, ptr %add.ptr.i3, align 1
  %add.ptr.i4 = getelementptr inbounds i8, ptr %add.ptr, i64 12
  store i32 %height, ptr %add.ptr.i4, align 1
  %mul = mul nsw i32 %height, %width
  %setCount = getelementptr inbounds %"struct.pbrt::DisplayItem::ImageChannelBuffer", ptr %this, i64 0, i32 4
  store i32 %mul, ptr %setCount, align 8
  ret void
}

; Function Attrs: mustprogress uwtable
define dso_local noundef zeroext i1 @_ZN4pbrt11DisplayItem18ImageChannelBuffer13SendIfChangedERNS_10IPCChannelEi(ptr nocapture noundef nonnull readonly align 8 dereferenceable(64) %this, ptr noundef nonnull align 8 dereferenceable(76) %ipcChannel, i32 noundef %tileIndex) local_unnamed_addr #0 align 2 personality ptr @__gxx_personality_v0 {
entry:
  %setCount = getelementptr inbounds %"struct.pbrt::DisplayItem::ImageChannelBuffer", ptr %this, i64 0, i32 4
  %0 = load i32, ptr %setCount, align 8
  %cmp = icmp sgt i32 %0, 16384
  br i1 %cmp, label %if.then, label %if.end

if.then:                                          ; preds = %entry
  %sub = add nsw i32 %0, -16384
  %1 = load ptr, ptr %this, align 8
  %channelValuesOffset = getelementptr inbounds %"struct.pbrt::DisplayItem::ImageChannelBuffer", ptr %this, i64 0, i32 2
  %2 = load i32, ptr %channelValuesOffset, align 4
  %idx.ext = sext i32 %2 to i64
  %add.ptr = getelementptr inbounds i8, ptr %1, i64 %idx.ext
  %conv = zext nneg i32 %0 to i64
  %mul = shl nuw nsw i64 %conv, 2
  %add.ptr3 = getelementptr inbounds i8, ptr %add.ptr, i64 %mul
  %conv4 = zext nneg i32 %sub to i64
  %mul5 = shl nuw nsw i64 %conv4, 2
  tail call void @llvm.memset.p0.i64(ptr nonnull align 1 %add.ptr3, i8 0, i64 %mul5, i1 false)
  br label %if.end

if.end:                                           ; preds = %if.then, %entry
  %3 = load ptr, ptr %this, align 8
  %channelValuesOffset8 = getelementptr inbounds %"struct.pbrt::DisplayItem::ImageChannelBuffer", ptr %this, i64 0, i32 2
  %4 = load i32, ptr %channelValuesOffset8, align 4
  %idx.ext9 = sext i32 %4 to i64
  %add.ptr10 = getelementptr inbounds i8, ptr %3, i64 %idx.ext9
  br label %while.body.i.i

while.body.i.i:                                   ; preds = %while.body.i.i, %if.end
  %key.addr.035.i.i.idx = phi i64 [ %key.addr.035.i.i.add, %while.body.i.i ], [ 0, %if.end ]
  %h.034.i.i = phi i64 [ %mul7.i.i, %while.body.i.i ], [ -6371648090673971200, %if.end ]
  %key.addr.035.i.i.ptr = getelementptr inbounds i8, ptr %add.ptr10, i64 %key.addr.035.i.i.idx
  %k.0.copyload.i.i = load i64, ptr %key.addr.035.i.i.ptr, align 1
  %key.addr.035.i.i.add = add nuw nsw i64 %key.addr.035.i.i.idx, 8
  %mul3.i.i = mul i64 %k.0.copyload.i.i, -4132994306676758123
  %shr.i.i = lshr i64 %mul3.i.i, 47
  %xor4.i.i = xor i64 %shr.i.i, %mul3.i.i
  %mul5.i.i = mul i64 %xor4.i.i, -4132994306676758123
  %xor6.i.i = xor i64 %mul5.i.i, %h.034.i.i
  %mul7.i.i = mul i64 %xor6.i.i, -4132994306676758123
  %cmp.not.i.i = icmp eq i64 %key.addr.035.i.i.add, 65536
  br i1 %cmp.not.i.i, label %_ZN4pbrt10HashBufferIhEEmPKT_mm.exit, label %while.body.i.i, !llvm.loop !11

_ZN4pbrt10HashBufferIhEEmPKT_mm.exit:             ; preds = %while.body.i.i
  %shr39.i.i = lshr i64 %mul7.i.i, 47
  %xor40.i.i = xor i64 %shr39.i.i, %mul7.i.i
  %mul41.i.i = mul i64 %xor40.i.i, -4132994306676758123
  %shr42.i.i = lshr i64 %mul41.i.i, 47
  %xor43.i.i = xor i64 %shr42.i.i, %mul41.i.i
  %tileHashes = getelementptr inbounds %"struct.pbrt::DisplayItem::ImageChannelBuffer", ptr %this, i64 0, i32 3
  %conv12 = sext i32 %tileIndex to i64
  %5 = load ptr, ptr %tileHashes, align 8
  %add.ptr.i = getelementptr inbounds i64, ptr %5, i64 %conv12
  %6 = load i64, ptr %add.ptr.i, align 8
  %cmp14 = icmp eq i64 %xor43.i.i, %6
  br i1 %cmp14, label %return, label %if.end16

if.end16:                                         ; preds = %_ZN4pbrt10HashBufferIhEEmPKT_mm.exit
  %7 = load i32, ptr %setCount, align 8
  %conv22 = sext i32 %7 to i64
  %mul23 = shl nsw i64 %conv22, 2
  %add = add nsw i64 %mul23, %idx.ext9
  %call25 = tail call noundef zeroext i1 @_ZN4pbrt10IPCChannel4SendEN4pstd4spanIKhEE(ptr noundef nonnull align 8 dereferenceable(76) %ipcChannel, ptr nonnull %3, i64 %add)
  br i1 %call25, label %if.end27, label %return

if.end27:                                         ; preds = %if.end16
  %8 = load ptr, ptr %tileHashes, align 8
  %add.ptr.i4 = getelementptr inbounds i64, ptr %8, i64 %conv12
  store i64 %xor43.i.i, ptr %add.ptr.i4, align 8
  br label %return

return:                                           ; preds = %if.end16, %_ZN4pbrt10HashBufferIhEEmPKT_mm.exit, %if.end27
  %retval.0 = phi i1 [ true, %if.end27 ], [ true, %_ZN4pbrt10HashBufferIhEEmPKT_mm.exit ], [ false, %if.end16 ]
  ret i1 %retval.0
}

; Function Attrs: mustprogress uwtable
define dso_local noundef zeroext i1 @_ZN4pbrt11DisplayItem7DisplayERNS_10IPCChannelE(ptr noundef nonnull align 8 dereferenceable(128) %this, ptr noundef nonnull align 8 dereferenceable(76) %ipcChannel) local_unnamed_addr #0 align 2 personality ptr @__gxx_personality_v0 {
entry:
  %__args.i = alloca %"class.pbrt::Bounds2", align 8
  %__args4.i = alloca %"class.pstd::span.26", align 8
  %0 = load i8, ptr %this, align 8
  %1 = and i8 %0, 1
  %tobool.not = icmp eq i8 %1, 0
  br i1 %tobool.not, label %if.then, label %if.end4

if.then:                                          ; preds = %entry
  %call = tail call noundef zeroext i1 @_ZN4pbrt11DisplayItem13SendOpenImageERNS_10IPCChannelE(ptr noundef nonnull align 8 dereferenceable(128) %this, ptr noundef nonnull align 8 dereferenceable(76) %ipcChannel)
  br i1 %call, label %if.end, label %return

if.end:                                           ; preds = %if.then
  store i8 1, ptr %this, align 8
  br label %if.end4

if.end4:                                          ; preds = %if.end, %entry
  %channelBuffers = getelementptr inbounds %"class.pbrt::DisplayItem", ptr %this, i64 0, i32 5
  %_M_finish.i = getelementptr inbounds %"class.pbrt::DisplayItem", ptr %this, i64 0, i32 5, i32 0, i32 0, i32 0, i32 1
  %2 = load ptr, ptr %_M_finish.i, align 8
  %3 = load ptr, ptr %channelBuffers, align 8
  %sub.ptr.lhs.cast.i = ptrtoint ptr %2 to i64
  %sub.ptr.rhs.cast.i = ptrtoint ptr %3 to i64
  %sub.ptr.sub.i = sub i64 %sub.ptr.lhs.cast.i, %sub.ptr.rhs.cast.i
  %sub.ptr.div.i = ashr exact i64 %sub.ptr.sub.i, 6
  %cmp.i.i = icmp ugt i64 %sub.ptr.div.i, 576460752303423487
  br i1 %cmp.i.i, label %if.then.i.i, label %_ZNSt6vectorIN4pstd4spanIfEESaIS2_EE17_S_check_init_lenEmRKS3_.exit.i

if.then.i.i:                                      ; preds = %if.end4
  tail call void @_ZSt20__throw_length_errorPKc(ptr noundef nonnull @.str.33) #21
  unreachable

_ZNSt6vectorIN4pstd4spanIfEESaIS2_EE17_S_check_init_lenEmRKS3_.exit.i: ; preds = %if.end4
  %cmp.not.i.i.i.i = icmp eq ptr %2, %3
  br i1 %cmp.not.i.i.i.i, label %for.cond19.preheader, label %for.body.preheader

for.body.preheader:                               ; preds = %_ZNSt6vectorIN4pstd4spanIfEESaIS2_EE17_S_check_init_lenEmRKS3_.exit.i
  %mul.i.i.i.i.i.i = ashr exact i64 %sub.ptr.sub.i, 2
  %call5.i.i.i.i2.i.i26 = tail call noalias noundef nonnull ptr @_Znwm(i64 noundef %mul.i.i.i.i.i.i) #25
  tail call void @llvm.memset.p0.i64(ptr nonnull align 8 %call5.i.i.i.i2.i.i26, i8 0, i64 %mul.i.i.i.i.i.i, i1 false)
  %scevgep.i.i.i.i.i = getelementptr i8, ptr %call5.i.i.i.i2.i.i26, i64 %mul.i.i.i.i.i.i
  %4 = ptrtoint ptr %scevgep.i.i.i.i.i to i64
  %umax = tail call i64 @llvm.umax.i64(i64 %sub.ptr.div.i, i64 1)
  br label %for.body

for.cond19.preheader:                             ; preds = %for.body, %_ZNSt6vectorIN4pstd4spanIfEESaIS2_EE17_S_check_init_lenEmRKS3_.exit.i
  %__cur.0.lcssa.i.i.i.i.i133 = phi i64 [ 0, %_ZNSt6vectorIN4pstd4spanIfEESaIS2_EE17_S_check_init_lenEmRKS3_.exit.i ], [ %4, %for.body ]
  %displayValues.sroa.0.0132 = phi ptr [ null, %_ZNSt6vectorIN4pstd4spanIfEESaIS2_EE17_S_check_init_lenEmRKS3_.exit.i ], [ %call5.i.i.i.i2.i.i26, %for.body ]
  %resolution = getelementptr inbounds %"class.pbrt::DisplayItem", ptr %this, i64 0, i32 2
  %y20 = getelementptr inbounds %"class.pbrt::DisplayItem", ptr %this, i64 0, i32 2, i32 0, i32 1
  %5 = load i32, ptr %y20, align 4
  %cmp21109 = icmp slt i32 %5, 1
  br i1 %cmp21109, label %cleanup, label %for.cond23.preheader.lr.ph

for.cond23.preheader.lr.ph:                       ; preds = %for.cond19.preheader
  %sub.ptr.rhs.cast.i.i = ptrtoint ptr %displayValues.sroa.0.0132 to i64
  %sub.ptr.sub.i.i = sub i64 %__cur.0.lcssa.i.i.i.i.i133, %sub.ptr.rhs.cast.i.i
  %sub.ptr.div.i.i = ashr exact i64 %sub.ptr.sub.i.i, 4
  %6 = getelementptr inbounds { i64, i64 }, ptr %__args.i, i64 0, i32 1
  %7 = getelementptr inbounds { ptr, i64 }, ptr %__args4.i, i64 0, i32 1
  %_M_manager.i.i = getelementptr inbounds %"class.pbrt::DisplayItem", ptr %this, i64 0, i32 3, i32 0, i32 1
  %getTileValues = getelementptr inbounds %"class.pbrt::DisplayItem", ptr %this, i64 0, i32 3
  %_M_invoker.i = getelementptr inbounds %"class.pbrt::DisplayItem", ptr %this, i64 0, i32 3, i32 1
  %8 = load i32, ptr %resolution, align 8
  %9 = icmp sgt i32 %8, 0
  br i1 %9, label %for.cond23.preheader, label %cleanup

for.body:                                         ; preds = %for.body.preheader, %for.body
  %indvars.iv = phi i64 [ 0, %for.body.preheader ], [ %indvars.iv.next, %for.body ]
  %add.ptr.i = getelementptr inbounds %"struct.pbrt::DisplayItem::ImageChannelBuffer", ptr %3, i64 %indvars.iv
  %10 = load ptr, ptr %add.ptr.i, align 8
  %channelValuesOffset = getelementptr inbounds %"struct.pbrt::DisplayItem::ImageChannelBuffer", ptr %3, i64 %indvars.iv, i32 2
  %11 = load i32, ptr %channelValuesOffset, align 4
  %idx.ext = sext i32 %11 to i64
  %add.ptr = getelementptr inbounds i8, ptr %10, i64 %idx.ext
  %add.ptr.i33 = getelementptr inbounds %"class.pstd::span.25", ptr %call5.i.i.i.i2.i.i26, i64 %indvars.iv
  store ptr %add.ptr, ptr %add.ptr.i33, align 8
  %ref.tmp15.sroa.2.0.call18.sroa_idx = getelementptr inbounds i8, ptr %add.ptr.i33, i64 8
  store i64 16384, ptr %ref.tmp15.sroa.2.0.call18.sroa_idx, align 8
  %indvars.iv.next = add nuw nsw i64 %indvars.iv, 1
  %exitcond.not = icmp eq i64 %indvars.iv.next, %umax
  br i1 %exitcond.not, label %for.cond19.preheader, label %for.body, !llvm.loop !12

for.cond23.preheader:                             ; preds = %for.cond23.preheader.lr.ph, %for.inc88
  %12 = phi i32 [ %46, %for.inc88 ], [ %5, %for.cond23.preheader.lr.ph ]
  %13 = phi ptr [ %47, %for.inc88 ], [ %3, %for.cond23.preheader.lr.ph ]
  %14 = phi ptr [ %48, %for.inc88 ], [ %2, %for.cond23.preheader.lr.ph ]
  %15 = phi i32 [ %49, %for.inc88 ], [ %8, %for.cond23.preheader.lr.ph ]
  %tileIndex.0111 = phi i32 [ %tileIndex.1.lcssa, %for.inc88 ], [ 0, %for.cond23.preheader.lr.ph ]
  %y.0110 = phi i32 [ %add, %for.inc88 ], [ 0, %for.cond23.preheader.lr.ph ]
  %cmp26106 = icmp sgt i32 %15, 0
  %add = add nuw nsw i32 %y.0110, 128
  br i1 %cmp26106, label %for.body27.lr.ph, label %for.inc88

for.body27.lr.ph:                                 ; preds = %for.cond23.preheader
  %16 = sext i32 %tileIndex.0111 to i64
  br label %for.body27

for.body27:                                       ; preds = %for.body27.lr.ph, %for.inc84
  %17 = phi ptr [ %13, %for.body27.lr.ph ], [ %42, %for.inc84 ]
  %18 = phi ptr [ %14, %for.body27.lr.ph ], [ %43, %for.inc84 ]
  %indvars.iv126 = phi i64 [ %16, %for.body27.lr.ph ], [ %indvars.iv.next127, %for.inc84 ]
  %19 = phi i32 [ %15, %for.body27.lr.ph ], [ %44, %for.inc84 ]
  %x.0107 = phi i32 [ 0, %for.body27.lr.ph ], [ %add35, %for.inc84 ]
  %20 = load i32, ptr %y20, align 4
  %.sroa.speculated69 = call i32 @llvm.smin.i32(i32 %20, i32 %add)
  %sub = sub nsw i32 %.sroa.speculated69, %y.0110
  %add35 = add nuw nsw i32 %x.0107, 128
  %.sroa.speculated = call i32 @llvm.smin.i32(i32 %19, i32 %add35)
  %sub40 = sub nsw i32 %.sroa.speculated, %x.0107
  %cmp4696.not = icmp eq ptr %18, %17
  br i1 %cmp4696.not, label %invoke.cont61, label %for.inc52.lr.ph

for.inc52.lr.ph:                                  ; preds = %for.body27
  %mul.i = mul nsw i32 %sub, %sub40
  br label %for.inc52

for.inc52:                                        ; preds = %for.inc52.lr.ph, %for.inc52
  %indvars.iv120 = phi i64 [ 0, %for.inc52.lr.ph ], [ %indvars.iv.next121, %for.inc52 ]
  %21 = phi ptr [ %17, %for.inc52.lr.ph ], [ %25, %for.inc52 ]
  %add.ptr.i41 = getelementptr inbounds %"struct.pbrt::DisplayItem::ImageChannelBuffer", ptr %21, i64 %indvars.iv120
  %22 = load ptr, ptr %add.ptr.i41, align 8
  %tileBoundsOffset.i = getelementptr inbounds %"struct.pbrt::DisplayItem::ImageChannelBuffer", ptr %21, i64 %indvars.iv120, i32 1
  %23 = load i32, ptr %tileBoundsOffset.i, align 8
  %idx.ext.i = sext i32 %23 to i64
  %add.ptr.i42 = getelementptr inbounds i8, ptr %22, i64 %idx.ext.i
  store i32 %x.0107, ptr %add.ptr.i42, align 1
  %add.ptr.i.i = getelementptr inbounds i8, ptr %add.ptr.i42, i64 4
  store i32 %y.0110, ptr %add.ptr.i.i, align 1
  %add.ptr.i3.i = getelementptr inbounds i8, ptr %add.ptr.i42, i64 8
  store i32 %sub40, ptr %add.ptr.i3.i, align 1
  %add.ptr.i4.i = getelementptr inbounds i8, ptr %add.ptr.i42, i64 12
  store i32 %sub, ptr %add.ptr.i4.i, align 1
  %setCount.i = getelementptr inbounds %"struct.pbrt::DisplayItem::ImageChannelBuffer", ptr %21, i64 %indvars.iv120, i32 4
  store i32 %mul.i, ptr %setCount.i, align 8
  %indvars.iv.next121 = add nuw nsw i64 %indvars.iv120, 1
  %24 = load ptr, ptr %_M_finish.i, align 8
  %25 = load ptr, ptr %channelBuffers, align 8
  %sub.ptr.lhs.cast.i37 = ptrtoint ptr %24 to i64
  %sub.ptr.rhs.cast.i38 = ptrtoint ptr %25 to i64
  %sub.ptr.sub.i39 = sub i64 %sub.ptr.lhs.cast.i37, %sub.ptr.rhs.cast.i38
  %sub.ptr.div.i40 = ashr exact i64 %sub.ptr.sub.i39, 6
  %cmp46 = icmp ugt i64 %sub.ptr.div.i40, %indvars.iv.next121
  br i1 %cmp46, label %for.inc52, label %invoke.cont61, !llvm.loop !13

lpad31.loopexit:                                  ; preds = %if.end16.i
  %lpad.loopexit = landingpad { ptr, i32 }
          cleanup
  br label %lpad31

lpad31.loopexit.split-lp.loopexit:                ; preds = %if.end.i
  %lpad.loopexit77 = landingpad { ptr, i32 }
          cleanup
  br label %lpad31

lpad31.loopexit.split-lp.loopexit.split-lp:       ; preds = %if.then.i
  %lpad.loopexit.split-lp78 = landingpad { ptr, i32 }
          cleanup
  br label %lpad31

lpad31:                                           ; preds = %lpad31.loopexit.split-lp.loopexit, %lpad31.loopexit.split-lp.loopexit.split-lp, %lpad31.loopexit
  %lpad.phi = phi { ptr, i32 } [ %lpad.loopexit, %lpad31.loopexit ], [ %lpad.loopexit77, %lpad31.loopexit.split-lp.loopexit ], [ %lpad.loopexit.split-lp78, %lpad31.loopexit.split-lp.loopexit.split-lp ]
  %tobool.not.i.i.i = icmp eq ptr %displayValues.sroa.0.0132, null
  br i1 %tobool.not.i.i.i, label %eh.resume, label %if.then.i.i.i

if.then.i.i.i:                                    ; preds = %lpad31
  call void @_ZdlPv(ptr noundef nonnull %displayValues.sroa.0.0132) #24
  br label %eh.resume

invoke.cont61:                                    ; preds = %for.inc52, %for.body27
  %.sroa.speculated5.i.i = call i32 @llvm.smin.i32(i32 %.sroa.speculated, i32 %x.0107)
  %.sroa.speculated.i.i = call i32 @llvm.smin.i32(i32 %.sroa.speculated69, i32 %y.0110)
  %retval.sroa.2.0.insert.ext.i.i = zext i32 %.sroa.speculated.i.i to i64
  %retval.sroa.2.0.insert.shift.i.i = shl nuw i64 %retval.sroa.2.0.insert.ext.i.i, 32
  %retval.sroa.0.0.insert.ext.i.i = zext i32 %.sroa.speculated5.i.i to i64
  %retval.sroa.0.0.insert.insert.i.i = or disjoint i64 %retval.sroa.2.0.insert.shift.i.i, %retval.sroa.0.0.insert.ext.i.i
  %.sroa.speculated5.i9.i = call i32 @llvm.smax.i32(i32 %x.0107, i32 %.sroa.speculated)
  %.sroa.speculated.i10.i = call i32 @llvm.smax.i32(i32 %y.0110, i32 %.sroa.speculated69)
  %retval.sroa.2.0.insert.ext.i11.i = zext nneg i32 %.sroa.speculated.i10.i to i64
  %retval.sroa.2.0.insert.shift.i12.i = shl nuw nsw i64 %retval.sroa.2.0.insert.ext.i11.i, 32
  %retval.sroa.0.0.insert.ext.i13.i = zext nneg i32 %.sroa.speculated5.i9.i to i64
  %retval.sroa.0.0.insert.insert.i14.i = or disjoint i64 %retval.sroa.2.0.insert.shift.i12.i, %retval.sroa.0.0.insert.ext.i13.i
  call void @llvm.lifetime.start.p0(i64 16, ptr nonnull %__args.i)
  call void @llvm.lifetime.start.p0(i64 16, ptr nonnull %__args4.i)
  store i64 %retval.sroa.0.0.insert.insert.i.i, ptr %__args.i, align 8
  store i64 %retval.sroa.0.0.insert.insert.i14.i, ptr %6, align 8
  store ptr %displayValues.sroa.0.0132, ptr %__args4.i, align 8
  store i64 %sub.ptr.div.i.i, ptr %7, align 8
  %26 = load ptr, ptr %_M_manager.i.i, align 8
  %tobool.not.i.i = icmp eq ptr %26, null
  br i1 %tobool.not.i.i, label %if.then.i, label %if.end.i

if.then.i:                                        ; preds = %invoke.cont61
  invoke void @_ZSt25__throw_bad_function_callv() #21
          to label %.noexc46 unwind label %lpad31.loopexit.split-lp.loopexit.split-lp

.noexc46:                                         ; preds = %if.then.i
  unreachable

if.end.i:                                         ; preds = %invoke.cont61
  %27 = load ptr, ptr %_M_invoker.i, align 8
  invoke void %27(ptr noundef nonnull align 8 dereferenceable(16) %getTileValues, ptr noundef nonnull align 4 dereferenceable(16) %__args.i, ptr noundef nonnull align 8 dereferenceable(16) %__args4.i)
          to label %_ZNKSt8functionIFvN4pbrt7Bounds2IiEEN4pstd4spanINS4_IfEEEEEEclES2_S6_.exit unwind label %lpad31.loopexit.split-lp.loopexit

_ZNKSt8functionIFvN4pbrt7Bounds2IiEEN4pstd4spanINS4_IfEEEEEEclES2_S6_.exit: ; preds = %if.end.i
  call void @llvm.lifetime.end.p0(i64 16, ptr nonnull %__args.i)
  call void @llvm.lifetime.end.p0(i64 16, ptr nonnull %__args4.i)
  %28 = load ptr, ptr %_M_finish.i, align 8
  %29 = load ptr, ptr %channelBuffers, align 8
  %cmp71103.not = icmp eq ptr %28, %29
  br i1 %cmp71103.not, label %for.inc84, label %for.body72

for.body72:                                       ; preds = %_ZNKSt8functionIFvN4pbrt7Bounds2IiEEN4pstd4spanINS4_IfEEEEEEclES2_S6_.exit, %for.inc81
  %indvars.iv123 = phi i64 [ %indvars.iv.next124, %for.inc81 ], [ 0, %_ZNKSt8functionIFvN4pbrt7Bounds2IiEEN4pstd4spanINS4_IfEEEEEEclES2_S6_.exit ]
  %30 = phi ptr [ %41, %for.inc81 ], [ %29, %_ZNKSt8functionIFvN4pbrt7Bounds2IiEEN4pstd4spanINS4_IfEEEEEEclES2_S6_.exit ]
  %add.ptr.i53 = getelementptr inbounds %"struct.pbrt::DisplayItem::ImageChannelBuffer", ptr %30, i64 %indvars.iv123
  %setCount.i54 = getelementptr inbounds %"struct.pbrt::DisplayItem::ImageChannelBuffer", ptr %30, i64 %indvars.iv123, i32 4
  %31 = load i32, ptr %setCount.i54, align 8
  %cmp.i55 = icmp sgt i32 %31, 16384
  br i1 %cmp.i55, label %if.then.i59, label %if.end.i56

if.then.i59:                                      ; preds = %for.body72
  %sub.i = add nsw i32 %31, -16384
  %32 = load ptr, ptr %add.ptr.i53, align 8
  %channelValuesOffset.i = getelementptr inbounds %"struct.pbrt::DisplayItem::ImageChannelBuffer", ptr %30, i64 %indvars.iv123, i32 2
  %33 = load i32, ptr %channelValuesOffset.i, align 4
  %idx.ext.i60 = sext i32 %33 to i64
  %add.ptr.i61 = getelementptr inbounds i8, ptr %32, i64 %idx.ext.i60
  %conv.i = zext nneg i32 %31 to i64
  %mul.i62 = shl nuw nsw i64 %conv.i, 2
  %add.ptr3.i = getelementptr inbounds i8, ptr %add.ptr.i61, i64 %mul.i62
  %conv4.i = zext nneg i32 %sub.i to i64
  %mul5.i = shl nuw nsw i64 %conv4.i, 2
  call void @llvm.memset.p0.i64(ptr nonnull align 1 %add.ptr3.i, i8 0, i64 %mul5.i, i1 false)
  br label %if.end.i56

if.end.i56:                                       ; preds = %if.then.i59, %for.body72
  %34 = load ptr, ptr %add.ptr.i53, align 8
  %channelValuesOffset8.i = getelementptr inbounds %"struct.pbrt::DisplayItem::ImageChannelBuffer", ptr %30, i64 %indvars.iv123, i32 2
  %35 = load i32, ptr %channelValuesOffset8.i, align 4
  %idx.ext9.i = sext i32 %35 to i64
  %add.ptr10.i = getelementptr inbounds i8, ptr %34, i64 %idx.ext9.i
  br label %while.body.i.i.i

while.body.i.i.i:                                 ; preds = %while.body.i.i.i, %if.end.i56
  %key.addr.035.i.i.idx.i = phi i64 [ %key.addr.035.i.i.add.i, %while.body.i.i.i ], [ 0, %if.end.i56 ]
  %h.034.i.i.i = phi i64 [ %mul7.i.i.i, %while.body.i.i.i ], [ -6371648090673971200, %if.end.i56 ]
  %key.addr.035.i.i.ptr.i = getelementptr inbounds i8, ptr %add.ptr10.i, i64 %key.addr.035.i.i.idx.i
  %k.0.copyload.i.i.i = load i64, ptr %key.addr.035.i.i.ptr.i, align 1
  %key.addr.035.i.i.add.i = add nuw nsw i64 %key.addr.035.i.i.idx.i, 8
  %mul3.i.i.i = mul i64 %k.0.copyload.i.i.i, -4132994306676758123
  %shr.i.i.i = lshr i64 %mul3.i.i.i, 47
  %xor4.i.i.i = xor i64 %shr.i.i.i, %mul3.i.i.i
  %mul5.i.i.i = mul i64 %xor4.i.i.i, -4132994306676758123
  %xor6.i.i.i = xor i64 %mul5.i.i.i, %h.034.i.i.i
  %mul7.i.i.i = mul i64 %xor6.i.i.i, -4132994306676758123
  %cmp.not.i.i.i = icmp eq i64 %key.addr.035.i.i.add.i, 65536
  br i1 %cmp.not.i.i.i, label %_ZN4pbrt10HashBufferIhEEmPKT_mm.exit.i, label %while.body.i.i.i, !llvm.loop !11

_ZN4pbrt10HashBufferIhEEmPKT_mm.exit.i:           ; preds = %while.body.i.i.i
  %shr39.i.i.i = lshr i64 %mul7.i.i.i, 47
  %xor40.i.i.i = xor i64 %shr39.i.i.i, %mul7.i.i.i
  %mul41.i.i.i = mul i64 %xor40.i.i.i, -4132994306676758123
  %shr42.i.i.i = lshr i64 %mul41.i.i.i, 47
  %xor43.i.i.i = xor i64 %shr42.i.i.i, %mul41.i.i.i
  %tileHashes.i = getelementptr inbounds %"struct.pbrt::DisplayItem::ImageChannelBuffer", ptr %30, i64 %indvars.iv123, i32 3
  %36 = load ptr, ptr %tileHashes.i, align 8
  %add.ptr.i.i57 = getelementptr inbounds i64, ptr %36, i64 %indvars.iv126
  %37 = load i64, ptr %add.ptr.i.i57, align 8
  %cmp14.i = icmp eq i64 %xor43.i.i.i, %37
  br i1 %cmp14.i, label %for.inc81, label %if.end16.i

if.end16.i:                                       ; preds = %_ZN4pbrt10HashBufferIhEEmPKT_mm.exit.i
  %38 = load i32, ptr %setCount.i54, align 8
  %conv22.i = sext i32 %38 to i64
  %mul23.i = shl nsw i64 %conv22.i, 2
  %add.i = add nsw i64 %mul23.i, %idx.ext9.i
  %call25.i63 = invoke noundef zeroext i1 @_ZN4pbrt10IPCChannel4SendEN4pstd4spanIKhEE(ptr noundef nonnull align 8 dereferenceable(76) %ipcChannel, ptr nonnull %34, i64 %add.i)
          to label %call25.i.noexc unwind label %lpad31.loopexit

call25.i.noexc:                                   ; preds = %if.end16.i
  br i1 %call25.i63, label %if.end27.i, label %if.then78

if.end27.i:                                       ; preds = %call25.i.noexc
  %39 = load ptr, ptr %tileHashes.i, align 8
  %add.ptr.i4.i58 = getelementptr inbounds i64, ptr %39, i64 %indvars.iv126
  store i64 %xor43.i.i.i, ptr %add.ptr.i4.i58, align 8
  br label %for.inc81

if.then78:                                        ; preds = %call25.i.noexc
  store i8 0, ptr %this, align 8
  br label %cleanup

for.inc81:                                        ; preds = %if.end27.i, %_ZN4pbrt10HashBufferIhEEmPKT_mm.exit.i
  %indvars.iv.next124 = add nuw i64 %indvars.iv123, 1
  %40 = load ptr, ptr %_M_finish.i, align 8
  %41 = load ptr, ptr %channelBuffers, align 8
  %sub.ptr.lhs.cast.i49 = ptrtoint ptr %40 to i64
  %sub.ptr.rhs.cast.i50 = ptrtoint ptr %41 to i64
  %sub.ptr.sub.i51 = sub i64 %sub.ptr.lhs.cast.i49, %sub.ptr.rhs.cast.i50
  %sub.ptr.div.i52 = ashr exact i64 %sub.ptr.sub.i51, 6
  %cmp71 = icmp ugt i64 %sub.ptr.div.i52, %indvars.iv.next124
  br i1 %cmp71, label %for.body72, label %for.inc84, !llvm.loop !14

for.inc84:                                        ; preds = %for.inc81, %_ZNKSt8functionIFvN4pbrt7Bounds2IiEEN4pstd4spanINS4_IfEEEEEEclES2_S6_.exit
  %42 = phi ptr [ %28, %_ZNKSt8functionIFvN4pbrt7Bounds2IiEEN4pstd4spanINS4_IfEEEEEEclES2_S6_.exit ], [ %41, %for.inc81 ]
  %43 = phi ptr [ %28, %_ZNKSt8functionIFvN4pbrt7Bounds2IiEEN4pstd4spanINS4_IfEEEEEEclES2_S6_.exit ], [ %40, %for.inc81 ]
  %indvars.iv.next127 = add i64 %indvars.iv126, 1
  %44 = load i32, ptr %resolution, align 8
  %cmp26 = icmp slt i32 %add35, %44
  br i1 %cmp26, label %for.body27, label %for.inc88.loopexit, !llvm.loop !15

for.inc88.loopexit:                               ; preds = %for.inc84
  %45 = trunc i64 %indvars.iv.next127 to i32
  %.pre = load i32, ptr %y20, align 4
  br label %for.inc88

for.inc88:                                        ; preds = %for.cond23.preheader, %for.inc88.loopexit
  %46 = phi i32 [ %.pre, %for.inc88.loopexit ], [ %12, %for.cond23.preheader ]
  %47 = phi ptr [ %42, %for.inc88.loopexit ], [ %13, %for.cond23.preheader ]
  %48 = phi ptr [ %43, %for.inc88.loopexit ], [ %14, %for.cond23.preheader ]
  %49 = phi i32 [ %44, %for.inc88.loopexit ], [ %15, %for.cond23.preheader ]
  %tileIndex.1.lcssa = phi i32 [ %45, %for.inc88.loopexit ], [ %tileIndex.0111, %for.cond23.preheader ]
  %cmp21.not = icmp slt i32 %add, %46
  br i1 %cmp21.not, label %for.cond23.preheader, label %cleanup, !llvm.loop !16

cleanup:                                          ; preds = %for.inc88, %for.cond23.preheader.lr.ph, %for.cond19.preheader, %if.then78
  %cmp2188 = phi i1 [ false, %if.then78 ], [ true, %for.cond19.preheader ], [ true, %for.cond23.preheader.lr.ph ], [ true, %for.inc88 ]
  %tobool.not.i.i.i64 = icmp eq ptr %displayValues.sroa.0.0132, null
  br i1 %tobool.not.i.i.i64, label %return, label %if.then.i.i.i65

if.then.i.i.i65:                                  ; preds = %cleanup
  call void @_ZdlPv(ptr noundef nonnull %displayValues.sroa.0.0132) #24
  br label %return

return:                                           ; preds = %if.then.i.i.i65, %cleanup, %if.then
  %retval.1 = phi i1 [ false, %if.then ], [ %cmp2188, %cleanup ], [ %cmp2188, %if.then.i.i.i65 ]
  ret i1 %retval.1

eh.resume:                                        ; preds = %if.then.i.i.i, %lpad31
  resume { ptr, i32 } %lpad.phi
}

; Function Attrs: mustprogress uwtable
define dso_local noundef zeroext i1 @_ZN4pbrt11DisplayItem13SendOpenImageERNS_10IPCChannelE(ptr noundef nonnull align 8 dereferenceable(128) %this, ptr noundef nonnull align 8 dereferenceable(76) %ipcChannel) local_unnamed_addr #0 align 2 personality ptr @__gxx_personality_v0 {
entry:
  %buffer = alloca [1024 x i8], align 16
  store i32 0, ptr %buffer, align 16
  %add.ptr.i = getelementptr inbounds i8, ptr %buffer, i64 4
  store i8 4, ptr %add.ptr.i, align 4
  %add.ptr.i4 = getelementptr inbounds i8, ptr %buffer, i64 5
  store i8 1, ptr %add.ptr.i4, align 1
  %add.ptr.i5 = getelementptr inbounds i8, ptr %buffer, i64 6
  %title = getelementptr inbounds %"class.pbrt::DisplayItem", ptr %this, i64 0, i32 1
  %call7.i = tail call noundef i64 @_ZNKSt7__cxx1112basic_stringIcSt11char_traitsIcESaIcEE4sizeEv(ptr noundef nonnull align 8 dereferenceable(32) %title) #20
  %cmp8.not.i = icmp eq i64 %call7.i, 0
  br i1 %cmp8.not.i, label %_ZN4pbrt12_GLOBAL__N_19SerializeEPPhRKNSt7__cxx1112basic_stringIcSt11char_traitsIcESaIcEEE.exit, label %for.body.i

for.body.i:                                       ; preds = %entry, %for.body.i
  %ptr.0 = phi ptr [ %add.ptr.i6, %for.body.i ], [ %add.ptr.i5, %entry ]
  %i.09.i = phi i64 [ %inc.i, %for.body.i ], [ 0, %entry ]
  %call1.i = tail call noundef nonnull align 1 dereferenceable(1) ptr @_ZNKSt7__cxx1112basic_stringIcSt11char_traitsIcESaIcEEixEm(ptr noundef nonnull align 8 dereferenceable(32) %title, i64 noundef %i.09.i) #20
  %0 = load i8, ptr %call1.i, align 1
  store i8 %0, ptr %ptr.0, align 1
  %inc.i = add nuw i64 %i.09.i, 1
  %add.ptr.i6 = getelementptr inbounds i8, ptr %ptr.0, i64 1
  %call.i = tail call noundef i64 @_ZNKSt7__cxx1112basic_stringIcSt11char_traitsIcESaIcEE4sizeEv(ptr noundef nonnull align 8 dereferenceable(32) %title) #20
  %cmp.i = icmp ult i64 %inc.i, %call.i
  br i1 %cmp.i, label %for.body.i, label %_ZN4pbrt12_GLOBAL__N_19SerializeEPPhRKNSt7__cxx1112basic_stringIcSt11char_traitsIcESaIcEEE.exit, !llvm.loop !10

_ZN4pbrt12_GLOBAL__N_19SerializeEPPhRKNSt7__cxx1112basic_stringIcSt11char_traitsIcESaIcEEE.exit: ; preds = %for.body.i, %entry
  %ptr.1 = phi ptr [ %add.ptr.i5, %entry ], [ %add.ptr.i6, %for.body.i ]
  store i8 0, ptr %ptr.1, align 1
  %add.ptr2.i = getelementptr inbounds i8, ptr %ptr.1, i64 1
  %channelNames = getelementptr inbounds %"class.pbrt::DisplayItem", ptr %this, i64 0, i32 4
  %_M_finish.i = getelementptr inbounds %"class.pbrt::DisplayItem", ptr %this, i64 0, i32 4, i32 0, i32 0, i32 0, i32 1
  %1 = load ptr, ptr %_M_finish.i, align 8
  %2 = load ptr, ptr %channelNames, align 8
  %sub.ptr.lhs.cast.i = ptrtoint ptr %1 to i64
  %sub.ptr.rhs.cast.i = ptrtoint ptr %2 to i64
  %sub.ptr.sub.i = sub i64 %sub.ptr.lhs.cast.i, %sub.ptr.rhs.cast.i
  %sub.ptr.div.i = lshr exact i64 %sub.ptr.sub.i, 5
  %conv = trunc i64 %sub.ptr.div.i to i32
  %resolution = getelementptr inbounds %"class.pbrt::DisplayItem", ptr %this, i64 0, i32 2
  %3 = load i32, ptr %resolution, align 8
  store i32 %3, ptr %add.ptr2.i, align 1
  %add.ptr.i7 = getelementptr inbounds i8, ptr %ptr.1, i64 5
  %y = getelementptr inbounds %"class.pbrt::DisplayItem", ptr %this, i64 0, i32 2, i32 0, i32 1
  %4 = load i32, ptr %y, align 4
  store i32 %4, ptr %add.ptr.i7, align 1
  %add.ptr.i8 = getelementptr inbounds i8, ptr %ptr.1, i64 9
  store i32 %conv, ptr %add.ptr.i8, align 1
  %add.ptr.i9 = getelementptr inbounds i8, ptr %ptr.1, i64 13
  %cmp42 = icmp sgt i32 %conv, 0
  br i1 %cmp42, label %for.body.preheader, label %for.end

for.body.preheader:                               ; preds = %_ZN4pbrt12_GLOBAL__N_19SerializeEPPhRKNSt7__cxx1112basic_stringIcSt11char_traitsIcESaIcEEE.exit
  %wide.trip.count = and i64 %sub.ptr.div.i, 4294967295
  br label %for.body

for.body:                                         ; preds = %for.body.preheader, %_ZN4pbrt12_GLOBAL__N_19SerializeEPPhRKNSt7__cxx1112basic_stringIcSt11char_traitsIcESaIcEEE.exit21
  %indvars.iv = phi i64 [ 0, %for.body.preheader ], [ %indvars.iv.next, %_ZN4pbrt12_GLOBAL__N_19SerializeEPPhRKNSt7__cxx1112basic_stringIcSt11char_traitsIcESaIcEEE.exit21 ]
  %ptr.243 = phi ptr [ %add.ptr.i9, %for.body.preheader ], [ %add.ptr2.i20, %_ZN4pbrt12_GLOBAL__N_19SerializeEPPhRKNSt7__cxx1112basic_stringIcSt11char_traitsIcESaIcEEE.exit21 ]
  %5 = load ptr, ptr %channelNames, align 8
  %add.ptr.i10 = getelementptr inbounds %"class.std::__cxx11::basic_string", ptr %5, i64 %indvars.iv
  %call7.i11 = tail call noundef i64 @_ZNKSt7__cxx1112basic_stringIcSt11char_traitsIcESaIcEE4sizeEv(ptr noundef nonnull align 8 dereferenceable(32) %add.ptr.i10) #20
  %cmp8.not.i12 = icmp eq i64 %call7.i11, 0
  br i1 %cmp8.not.i12, label %_ZN4pbrt12_GLOBAL__N_19SerializeEPPhRKNSt7__cxx1112basic_stringIcSt11char_traitsIcESaIcEEE.exit21, label %for.body.i13

for.body.i13:                                     ; preds = %for.body, %for.body.i13
  %ptr.3 = phi ptr [ %add.ptr.i17, %for.body.i13 ], [ %ptr.243, %for.body ]
  %i.09.i14 = phi i64 [ %inc.i16, %for.body.i13 ], [ 0, %for.body ]
  %call1.i15 = tail call noundef nonnull align 1 dereferenceable(1) ptr @_ZNKSt7__cxx1112basic_stringIcSt11char_traitsIcESaIcEEixEm(ptr noundef nonnull align 8 dereferenceable(32) %add.ptr.i10, i64 noundef %i.09.i14) #20
  %6 = load i8, ptr %call1.i15, align 1
  store i8 %6, ptr %ptr.3, align 1
  %inc.i16 = add nuw i64 %i.09.i14, 1
  %add.ptr.i17 = getelementptr inbounds i8, ptr %ptr.3, i64 1
  %call.i18 = tail call noundef i64 @_ZNKSt7__cxx1112basic_stringIcSt11char_traitsIcESaIcEE4sizeEv(ptr noundef nonnull align 8 dereferenceable(32) %add.ptr.i10) #20
  %cmp.i19 = icmp ult i64 %inc.i16, %call.i18
  br i1 %cmp.i19, label %for.body.i13, label %_ZN4pbrt12_GLOBAL__N_19SerializeEPPhRKNSt7__cxx1112basic_stringIcSt11char_traitsIcESaIcEEE.exit21, !llvm.loop !10

_ZN4pbrt12_GLOBAL__N_19SerializeEPPhRKNSt7__cxx1112basic_stringIcSt11char_traitsIcESaIcEEE.exit21: ; preds = %for.body.i13, %for.body
  %ptr.4 = phi ptr [ %ptr.243, %for.body ], [ %add.ptr.i17, %for.body.i13 ]
  store i8 0, ptr %ptr.4, align 1
  %add.ptr2.i20 = getelementptr inbounds i8, ptr %ptr.4, i64 1
  %indvars.iv.next = add nuw nsw i64 %indvars.iv, 1
  %exitcond.not = icmp eq i64 %indvars.iv.next, %wide.trip.count
  br i1 %exitcond.not, label %for.end, label %for.body, !llvm.loop !18

for.end:                                          ; preds = %_ZN4pbrt12_GLOBAL__N_19SerializeEPPhRKNSt7__cxx1112basic_stringIcSt11char_traitsIcESaIcEEE.exit21, %_ZN4pbrt12_GLOBAL__N_19SerializeEPPhRKNSt7__cxx1112basic_stringIcSt11char_traitsIcESaIcEEE.exit
  %ptr.2.lcssa = phi ptr [ %add.ptr.i9, %_ZN4pbrt12_GLOBAL__N_19SerializeEPPhRKNSt7__cxx1112basic_stringIcSt11char_traitsIcESaIcEEE.exit ], [ %add.ptr2.i20, %_ZN4pbrt12_GLOBAL__N_19SerializeEPPhRKNSt7__cxx1112basic_stringIcSt11char_traitsIcESaIcEEE.exit21 ]
  %sub.ptr.lhs.cast = ptrtoint ptr %ptr.2.lcssa to i64
  %sub.ptr.rhs.cast = ptrtoint ptr %buffer to i64
  %sub.ptr.sub = sub i64 %sub.ptr.lhs.cast, %sub.ptr.rhs.cast
  %call9 = call noundef zeroext i1 @_ZN4pbrt10IPCChannel4SendEN4pstd4spanIKhEE(ptr noundef nonnull align 8 dereferenceable(76) %ipcChannel, ptr nonnull %buffer, i64 %sub.ptr.sub)
  ret i1 %call9
}

; Function Attrs: mustprogress nounwind uwtable
define linkonce_odr dso_local void @_ZNSt6threadD2Ev(ptr noundef nonnull align 8 dereferenceable(8) %this) unnamed_addr #6 comdat align 2 {
entry:
  %agg.tmp.sroa.0.0.copyload.i = load i64, ptr %this, align 8
  %cmp.i.i.not = icmp eq i64 %agg.tmp.sroa.0.0.copyload.i, 0
  br i1 %cmp.i.i.not, label %if.end, label %if.then

if.then:                                          ; preds = %entry
  tail call void @_ZSt9terminatev() #23
  unreachable

if.end:                                           ; preds = %entry
  ret void
}

; Function Attrs: nofree nounwind
declare i32 @__cxa_atexit(ptr, ptr, ptr) local_unnamed_addr #10

; Function Attrs: mustprogress nounwind uwtable
define linkonce_odr dso_local void @_ZNSt6vectorIN4pbrt11DisplayItemESaIS1_EED2Ev(ptr noundef nonnull align 8 dereferenceable(24) %this) unnamed_addr #6 comdat align 2 personality ptr @__gxx_personality_v0 {
entry:
  %0 = load ptr, ptr %this, align 8
  %_M_finish = getelementptr inbounds %"struct.std::_Vector_base<pbrt::DisplayItem, std::allocator<pbrt::DisplayItem>>::_Vector_impl_data", ptr %this, i64 0, i32 1
  %1 = load ptr, ptr %_M_finish, align 8
  %cmp.not3.i.i.i = icmp eq ptr %0, %1
  br i1 %cmp.not3.i.i.i, label %invoke.cont, label %for.body.i.i.i

for.body.i.i.i:                                   ; preds = %entry, %for.body.i.i.i
  %__first.addr.04.i.i.i = phi ptr [ %incdec.ptr.i.i.i, %for.body.i.i.i ], [ %0, %entry ]
  tail call void @_ZN4pbrt11DisplayItemD2Ev(ptr noundef nonnull align 8 dereferenceable(128) %__first.addr.04.i.i.i) #20
  %incdec.ptr.i.i.i = getelementptr inbounds %"class.pbrt::DisplayItem", ptr %__first.addr.04.i.i.i, i64 1
  %cmp.not.i.i.i = icmp eq ptr %incdec.ptr.i.i.i, %1
  br i1 %cmp.not.i.i.i, label %invoke.contthread-pre-split, label %for.body.i.i.i, !llvm.loop !19

invoke.contthread-pre-split:                      ; preds = %for.body.i.i.i
  %.pr = load ptr, ptr %this, align 8
  br label %invoke.cont

invoke.cont:                                      ; preds = %invoke.contthread-pre-split, %entry
  %2 = phi ptr [ %.pr, %invoke.contthread-pre-split ], [ %0, %entry ]
  %tobool.not.i.i = icmp eq ptr %2, null
  br i1 %tobool.not.i.i, label %_ZNSt12_Vector_baseIN4pbrt11DisplayItemESaIS1_EED2Ev.exit, label %if.then.i.i

if.then.i.i:                                      ; preds = %invoke.cont
  tail call void @_ZdlPv(ptr noundef nonnull %2) #24
  br label %_ZNSt12_Vector_baseIN4pbrt11DisplayItemESaIS1_EED2Ev.exit

_ZNSt12_Vector_baseIN4pbrt11DisplayItemESaIS1_EED2Ev.exit: ; preds = %invoke.cont, %if.then.i.i
  ret void
}

; Function Attrs: mustprogress uwtable
define dso_local void @_ZN4pbrt22ConnectToDisplayServerERKNSt7__cxx1112basic_stringIcSt11char_traitsIcESaIcEEE(ptr noundef nonnull align 8 dereferenceable(32) %host) local_unnamed_addr #0 personality ptr @__gxx_personality_v0 {
entry:
  %agg.tmp.i = alloca %"class.std::unique_ptr", align 8
  %ref.tmp = alloca %"class.std::thread", align 8
  %0 = load ptr, ptr @_ZN4pbrtL7channelE, align 8
  %cmp = icmp eq ptr %0, null
  br i1 %cmp, label %land.end, label %land.rhs

land.rhs:                                         ; preds = %entry
  tail call void @_ZN4pbrt8LogFatalIJRA19_KcEEEvNS_8LogLevelEPS1_iS5_DpOT_(i32 noundef 2, ptr noundef nonnull @.str.2, i32 noundef 432, ptr noundef nonnull @.str.13, ptr noundef nonnull align 1 dereferenceable(19) @.str.19) #21
  unreachable

land.end:                                         ; preds = %entry
  %call = tail call noalias noundef nonnull dereferenceable(80) ptr @_Znwm(i64 noundef 80) #25
  invoke void @_ZN4pbrt10IPCChannelC2ERKNSt7__cxx1112basic_stringIcSt11char_traitsIcESaIcEEE(ptr noundef nonnull align 8 dereferenceable(76) %call, ptr noundef nonnull align 8 dereferenceable(32) %host)
          to label %invoke.cont unwind label %lpad

invoke.cont:                                      ; preds = %land.end
  store ptr %call, ptr @_ZN4pbrtL7channelE, align 8
  call void @llvm.lifetime.start.p0(i64 8, ptr nonnull %agg.tmp.i)
  store i64 0, ptr %ref.tmp, align 8
  %call.i = tail call noalias noundef nonnull dereferenceable(16) ptr @_Znwm(i64 noundef 16) #25
  store ptr getelementptr inbounds ({ [5 x ptr] }, ptr @_ZTVNSt6thread11_State_implINS_8_InvokerISt5tupleIJPFvvEEEEEEE, i64 0, inrange i32 0, i64 2), ptr %call.i, align 8
  %_M_func.i.i = getelementptr inbounds %"struct.std::thread::_State_impl", ptr %call.i, i64 0, i32 1
  store ptr @_ZN4pbrtL18updateDynamicItemsEv, ptr %_M_func.i.i, align 8
  store ptr %call.i, ptr %agg.tmp.i, align 8
  invoke void @_ZNSt6thread15_M_start_threadESt10unique_ptrINS_6_StateESt14default_deleteIS1_EEPFvvE(ptr noundef nonnull align 8 dereferenceable(8) %ref.tmp, ptr noundef nonnull %agg.tmp.i, ptr noundef null)
          to label %invoke.cont3.i unwind label %lpad2.i

invoke.cont3.i:                                   ; preds = %invoke.cont
  %1 = load ptr, ptr %agg.tmp.i, align 8
  %cmp.not.i.i = icmp eq ptr %1, null
  br i1 %cmp.not.i.i, label %_ZNSt6threadC2IRFvvEJEvEEOT_DpOT0_.exit, label %_ZNKSt14default_deleteINSt6thread6_StateEEclEPS1_.exit.i.i

_ZNKSt14default_deleteINSt6thread6_StateEEclEPS1_.exit.i.i: ; preds = %invoke.cont3.i
  %vtable.i.i.i = load ptr, ptr %1, align 8
  %vfn.i.i.i = getelementptr inbounds ptr, ptr %vtable.i.i.i, i64 1
  %2 = load ptr, ptr %vfn.i.i.i, align 8
  call void %2(ptr noundef nonnull align 8 dereferenceable(8) %1) #20
  br label %_ZNSt6threadC2IRFvvEJEvEEOT_DpOT0_.exit

lpad2.i:                                          ; preds = %invoke.cont
  %3 = landingpad { ptr, i32 }
          cleanup
  %4 = load ptr, ptr %agg.tmp.i, align 8
  %cmp.not.i2.i = icmp eq ptr %4, null
  br i1 %cmp.not.i2.i, label %common.resume, label %_ZNKSt14default_deleteINSt6thread6_StateEEclEPS1_.exit.i3.i

_ZNKSt14default_deleteINSt6thread6_StateEEclEPS1_.exit.i3.i: ; preds = %lpad2.i
  %vtable.i.i4.i = load ptr, ptr %4, align 8
  %vfn.i.i5.i = getelementptr inbounds ptr, ptr %vtable.i.i4.i, i64 1
  %5 = load ptr, ptr %vfn.i.i5.i, align 8
  call void %5(ptr noundef nonnull align 8 dereferenceable(8) %4) #20
  br label %common.resume

common.resume:                                    ; preds = %lpad2.i, %_ZNKSt14default_deleteINSt6thread6_StateEEclEPS1_.exit.i3.i, %lpad
  %common.resume.op = phi { ptr, i32 } [ %7, %lpad ], [ %3, %_ZNKSt14default_deleteINSt6thread6_StateEEclEPS1_.exit.i3.i ], [ %3, %lpad2.i ]
  resume { ptr, i32 } %common.resume.op

_ZNSt6threadC2IRFvvEJEvEEOT_DpOT0_.exit:          ; preds = %invoke.cont3.i, %_ZNKSt14default_deleteINSt6thread6_StateEEclEPS1_.exit.i.i
  call void @llvm.lifetime.end.p0(i64 8, ptr nonnull %agg.tmp.i)
  %agg.tmp.sroa.0.0.copyload.i.i = load i64, ptr @_ZN4pbrtL12updateThreadE, align 8
  %cmp.i.i.not.i = icmp eq i64 %agg.tmp.sroa.0.0.copyload.i.i, 0
  br i1 %cmp.i.i.not.i, label %_ZNSt6threadD2Ev.exit, label %if.then.i

if.then.i:                                        ; preds = %_ZNSt6threadC2IRFvvEJEvEEOT_DpOT0_.exit
  call void @_ZSt9terminatev() #23
  unreachable

_ZNSt6threadD2Ev.exit:                            ; preds = %_ZNSt6threadC2IRFvvEJEvEEOT_DpOT0_.exit
  %6 = load i64, ptr %ref.tmp, align 8
  store i64 %6, ptr @_ZN4pbrtL12updateThreadE, align 8
  ret void

lpad:                                             ; preds = %land.end
  %7 = landingpad { ptr, i32 }
          cleanup
  tail call void @_ZdlPv(ptr noundef nonnull %call) #24
  br label %common.resume
}

; Function Attrs: mustprogress noreturn uwtable
define linkonce_odr dso_local void @_ZN4pbrt8LogFatalIJRA19_KcEEEvNS_8LogLevelEPS1_iS5_DpOT_(i32 noundef %level, ptr noundef %file, i32 noundef %line, ptr noundef %fmt, ptr noundef nonnull align 1 dereferenceable(19) %args) local_unnamed_addr #2 comdat personality ptr @__gxx_personality_v0 {
entry:
  %s = alloca %"class.std::__cxx11::basic_string", align 8
  call void @_ZNSt7__cxx1112basic_stringIcSt11char_traitsIcESaIcEEC1Ev(ptr noundef nonnull align 8 dereferenceable(32) %s) #20
  invoke void @_ZN4pbrt6detail21stringPrintfRecursiveIRA19_KcJEEEvPNSt7__cxx1112basic_stringIcSt11char_traitsIcESaIcEEEPS2_OT_DpOT0_(ptr noundef nonnull %s, ptr noundef %fmt, ptr noundef nonnull align 1 dereferenceable(19) %args)
          to label %_ZN4pbrt12StringPrintfIJRA19_KcEEENSt7__cxx1112basic_stringIcSt11char_traitsIcESaIcEEEPS1_DpOT_.exit unwind label %lpad.i

common.resume:                                    ; preds = %lpad, %lpad.i
  %common.resume.op = phi { ptr, i32 } [ %0, %lpad.i ], [ %1, %lpad ]
  call void @_ZNSt7__cxx1112basic_stringIcSt11char_traitsIcESaIcEED1Ev(ptr noundef nonnull align 8 dereferenceable(32) %s) #20
  resume { ptr, i32 } %common.resume.op

lpad.i:                                           ; preds = %entry
  %0 = landingpad { ptr, i32 }
          cleanup
  br label %common.resume

_ZN4pbrt12StringPrintfIJRA19_KcEEENSt7__cxx1112basic_stringIcSt11char_traitsIcESaIcEEEPS1_DpOT_.exit: ; preds = %entry
  %call = call noundef ptr @_ZNKSt7__cxx1112basic_stringIcSt11char_traitsIcESaIcEE5c_strEv(ptr noundef nonnull align 8 dereferenceable(32) %s) #20
  invoke void @_ZN4pbrt8LogFatalENS_8LogLevelEPKciS2_(i32 noundef %level, ptr noundef %file, i32 noundef %line, ptr noundef %call) #21
          to label %invoke.cont unwind label %lpad

invoke.cont:                                      ; preds = %_ZN4pbrt12StringPrintfIJRA19_KcEEENSt7__cxx1112basic_stringIcSt11char_traitsIcESaIcEEEPS1_DpOT_.exit
  unreachable

lpad:                                             ; preds = %_ZN4pbrt12StringPrintfIJRA19_KcEEENSt7__cxx1112basic_stringIcSt11char_traitsIcESaIcEEEPS1_DpOT_.exit
  %1 = landingpad { ptr, i32 }
          cleanup
  br label %common.resume
}

; Function Attrs: nobuiltin allocsize(0)
declare noundef nonnull ptr @_Znwm(i64 noundef) local_unnamed_addr #11

; Function Attrs: nobuiltin nounwind
declare void @_ZdlPv(ptr noundef) local_unnamed_addr #12

; Function Attrs: mustprogress uwtable
define internal void @_ZN4pbrtL18updateDynamicItemsEv() #0 personality ptr @__gxx_personality_v0 {
entry:
  %__ts.i = alloca %struct.timespec, align 8
  %0 = load atomic i8, ptr @_ZN4pbrtL10exitThreadE.0 seq_cst, align 1
  %1 = and i8 %0, 1
  %tobool.i.i.not24 = icmp eq i8 %1, 0
  br i1 %tobool.i.i.not24, label %if.end.i.lr.ph, label %while.end

if.end.i.lr.ph:                                   ; preds = %entry
  %tv_nsec.i = getelementptr inbounds %struct.timespec, ptr %__ts.i, i64 0, i32 1
  br label %if.end.i

if.end.i:                                         ; preds = %if.end.i.lr.ph, %for.end
  call void @llvm.lifetime.start.p0(i64 16, ptr nonnull %__ts.i)
  store i64 0, ptr %__ts.i, align 8
  store i64 250000000, ptr %tv_nsec.i, align 8
  br label %while.cond.i

while.cond.i:                                     ; preds = %land.rhs.i, %if.end.i
  %call11.i = call i32 @nanosleep(ptr noundef nonnull %__ts.i, ptr noundef nonnull %__ts.i)
  %cmp.i = icmp eq i32 %call11.i, -1
  br i1 %cmp.i, label %land.rhs.i, label %_ZNSt11this_thread9sleep_forIlSt5ratioILl1ELl1000EEEEvRKNSt6chrono8durationIT_T0_EE.exit

land.rhs.i:                                       ; preds = %while.cond.i
  %call12.i = tail call ptr @__errno_location() #22
  %2 = load i32, ptr %call12.i, align 4
  %cmp13.i = icmp eq i32 %2, 4
  br i1 %cmp13.i, label %while.cond.i, label %_ZNSt11this_thread9sleep_forIlSt5ratioILl1ELl1000EEEEvRKNSt6chrono8durationIT_T0_EE.exit, !llvm.loop !20

_ZNSt11this_thread9sleep_forIlSt5ratioILl1ELl1000EEEEvRKNSt6chrono8durationIT_T0_EE.exit: ; preds = %while.cond.i, %land.rhs.i
  call void @llvm.lifetime.end.p0(i64 16, ptr nonnull %__ts.i)
  %call1.i.i.i = call noundef i32 @pthread_mutex_lock(ptr noundef nonnull @_ZN4pbrtL5mutexE) #20
  %tobool.not.i.i = icmp eq i32 %call1.i.i.i, 0
  br i1 %tobool.not.i.i, label %_ZNSt10lock_guardISt5mutexEC2ERS0_.exit, label %if.then.i.i

if.then.i.i:                                      ; preds = %_ZNSt11this_thread9sleep_forIlSt5ratioILl1ELl1000EEEEvRKNSt6chrono8durationIT_T0_EE.exit
  call void @_ZSt20__throw_system_errori(i32 noundef %call1.i.i.i) #21
  unreachable

_ZNSt10lock_guardISt5mutexEC2ERS0_.exit:          ; preds = %_ZNSt11this_thread9sleep_forIlSt5ratioILl1ELl1000EEEEvRKNSt6chrono8durationIT_T0_EE.exit
  %3 = load ptr, ptr @_ZN4pbrtL12dynamicItemsE, align 8
  %4 = load ptr, ptr getelementptr inbounds (%"class.std::vector.27", ptr @_ZN4pbrtL12dynamicItemsE, i64 0, i32 0, i32 0, i32 0, i32 1), align 8
  %cmp.i2.not22 = icmp eq ptr %3, %4
  br i1 %cmp.i2.not22, label %for.end, label %for.body

for.body:                                         ; preds = %_ZNSt10lock_guardISt5mutexEC2ERS0_.exit, %for.inc
  %__begin2.sroa.0.023 = phi ptr [ %incdec.ptr.i, %for.inc ], [ %3, %_ZNSt10lock_guardISt5mutexEC2ERS0_.exit ]
  %5 = load ptr, ptr @_ZN4pbrtL7channelE, align 8
  %call7 = invoke noundef zeroext i1 @_ZN4pbrt11DisplayItem7DisplayERNS_10IPCChannelE(ptr noundef nonnull align 8 dereferenceable(128) %__begin2.sroa.0.023, ptr noundef nonnull align 8 dereferenceable(76) %5)
          to label %for.inc unwind label %lpad

for.inc:                                          ; preds = %for.body
  %incdec.ptr.i = getelementptr inbounds %"class.pbrt::DisplayItem", ptr %__begin2.sroa.0.023, i64 1
  %cmp.i2.not = icmp eq ptr %incdec.ptr.i, %4
  br i1 %cmp.i2.not, label %for.end, label %for.body

lpad:                                             ; preds = %for.body
  %6 = landingpad { ptr, i32 }
          cleanup
  br label %eh.resume

for.end:                                          ; preds = %for.inc, %_ZNSt10lock_guardISt5mutexEC2ERS0_.exit
  %call1.i.i.i4 = call noundef i32 @pthread_mutex_unlock(ptr noundef nonnull @_ZN4pbrtL5mutexE) #20
  %7 = load atomic i8, ptr @_ZN4pbrtL10exitThreadE.0 seq_cst, align 1
  %8 = and i8 %7, 1
  %tobool.i.i.not = icmp eq i8 %8, 0
  br i1 %tobool.i.i.not, label %if.end.i, label %while.end, !llvm.loop !21

while.end:                                        ; preds = %for.end, %entry
  %call1.i.i.i5 = call noundef i32 @pthread_mutex_lock(ptr noundef nonnull @_ZN4pbrtL5mutexE) #20
  %tobool.not.i.i6 = icmp eq i32 %call1.i.i.i5, 0
  br i1 %tobool.not.i.i6, label %_ZNSt10lock_guardISt5mutexEC2ERS0_.exit8, label %if.then.i.i7

if.then.i.i7:                                     ; preds = %while.end
  call void @_ZSt20__throw_system_errori(i32 noundef %call1.i.i.i5) #21
  unreachable

_ZNSt10lock_guardISt5mutexEC2ERS0_.exit8:         ; preds = %while.end
  %9 = load ptr, ptr @_ZN4pbrtL12dynamicItemsE, align 8
  %10 = load ptr, ptr getelementptr inbounds (%"class.std::vector.27", ptr @_ZN4pbrtL12dynamicItemsE, i64 0, i32 0, i32 0, i32 0, i32 1), align 8
  %cmp.i9.not25 = icmp eq ptr %9, %10
  br i1 %cmp.i9.not25, label %_ZNSt6vectorIN4pbrt11DisplayItemESaIS1_EE5clearEv.exit, label %for.body16

for.body16:                                       ; preds = %_ZNSt10lock_guardISt5mutexEC2ERS0_.exit8, %for.inc22
  %__begin1.sroa.0.026 = phi ptr [ %incdec.ptr.i10, %for.inc22 ], [ %9, %_ZNSt10lock_guardISt5mutexEC2ERS0_.exit8 ]
  %11 = load ptr, ptr @_ZN4pbrtL7channelE, align 8
  %call21 = invoke noundef zeroext i1 @_ZN4pbrt11DisplayItem7DisplayERNS_10IPCChannelE(ptr noundef nonnull align 8 dereferenceable(128) %__begin1.sroa.0.026, ptr noundef nonnull align 8 dereferenceable(76) %11)
          to label %for.inc22 unwind label %lpad19

for.inc22:                                        ; preds = %for.body16
  %incdec.ptr.i10 = getelementptr inbounds %"class.pbrt::DisplayItem", ptr %__begin1.sroa.0.026, i64 1
  %cmp.i9.not = icmp eq ptr %incdec.ptr.i10, %10
  br i1 %cmp.i9.not, label %for.end24, label %for.body16

lpad19:                                           ; preds = %for.body16
  %12 = landingpad { ptr, i32 }
          cleanup
  br label %eh.resume

for.end24:                                        ; preds = %for.inc22
  %.pre = load ptr, ptr @_ZN4pbrtL12dynamicItemsE, align 8
  %.pre29 = load ptr, ptr getelementptr inbounds (%"class.std::vector.27", ptr @_ZN4pbrtL12dynamicItemsE, i64 0, i32 0, i32 0, i32 0, i32 1), align 8
  %tobool.not.i.i12 = icmp eq ptr %.pre29, %.pre
  br i1 %tobool.not.i.i12, label %_ZNSt6vectorIN4pbrt11DisplayItemESaIS1_EE5clearEv.exit, label %for.body.i.i.i.i.i

for.body.i.i.i.i.i:                               ; preds = %for.end24, %for.body.i.i.i.i.i
  %__first.addr.04.i.i.i.i.i = phi ptr [ %incdec.ptr.i.i.i.i.i, %for.body.i.i.i.i.i ], [ %.pre, %for.end24 ]
  call void @_ZN4pbrt11DisplayItemD2Ev(ptr noundef nonnull align 8 dereferenceable(128) %__first.addr.04.i.i.i.i.i) #20
  %incdec.ptr.i.i.i.i.i = getelementptr inbounds %"class.pbrt::DisplayItem", ptr %__first.addr.04.i.i.i.i.i, i64 1
  %cmp.not.i.i.i.i.i = icmp eq ptr %incdec.ptr.i.i.i.i.i, %.pre29
  br i1 %cmp.not.i.i.i.i.i, label %invoke.cont.i.i, label %for.body.i.i.i.i.i, !llvm.loop !19

invoke.cont.i.i:                                  ; preds = %for.body.i.i.i.i.i
  store ptr %.pre, ptr getelementptr inbounds (%"class.std::vector.27", ptr @_ZN4pbrtL12dynamicItemsE, i64 0, i32 0, i32 0, i32 0, i32 1), align 8
  br label %_ZNSt6vectorIN4pbrt11DisplayItemESaIS1_EE5clearEv.exit

_ZNSt6vectorIN4pbrt11DisplayItemESaIS1_EE5clearEv.exit: ; preds = %_ZNSt10lock_guardISt5mutexEC2ERS0_.exit8, %for.end24, %invoke.cont.i.i
  %13 = load ptr, ptr @_ZN4pbrtL7channelE, align 8
  %isnull = icmp eq ptr %13, null
  br i1 %isnull, label %delete.end, label %delete.notnull

delete.notnull:                                   ; preds = %_ZNSt6vectorIN4pbrt11DisplayItemESaIS1_EE5clearEv.exit
  %socketFd.i.i = getelementptr inbounds %"class.pbrt::IPCChannel", ptr %13, i64 0, i32 4
  %14 = load i32, ptr %socketFd.i.i, align 8
  %cmp.i.not.i = icmp eq i32 %14, -1
  br i1 %cmp.i.not.i, label %_ZN4pbrt10IPCChannelD2Ev.exit, label %land.end.i.i

land.end.i.i:                                     ; preds = %delete.notnull
  %call.i.i1.i = invoke noundef i32 @close(i32 noundef %14)
          to label %_ZN4pbrt10IPCChannel10DisconnectEv.exit.i unwind label %terminate.lpad.i

_ZN4pbrt10IPCChannel10DisconnectEv.exit.i:        ; preds = %land.end.i.i
  store i32 -1, ptr %socketFd.i.i, align 8
  br label %_ZN4pbrt10IPCChannelD2Ev.exit

terminate.lpad.i:                                 ; preds = %land.end.i.i
  %15 = landingpad { ptr, i32 }
          catch ptr null
  %16 = extractvalue { ptr, i32 } %15, 0
  call void @__clang_call_terminate(ptr %16) #23
  unreachable

_ZN4pbrt10IPCChannelD2Ev.exit:                    ; preds = %delete.notnull, %_ZN4pbrt10IPCChannel10DisconnectEv.exit.i
  %17 = atomicrmw sub ptr @_ZN4pbrtL17numActiveChannelsE, i32 1 seq_cst, align 4
  %port.i = getelementptr inbounds %"class.pbrt::IPCChannel", ptr %13, i64 0, i32 3
  call void @_ZNSt7__cxx1112basic_stringIcSt11char_traitsIcESaIcEED1Ev(ptr noundef nonnull align 8 dereferenceable(32) %port.i) #20
  %address.i = getelementptr inbounds %"class.pbrt::IPCChannel", ptr %13, i64 0, i32 2
  call void @_ZNSt7__cxx1112basic_stringIcSt11char_traitsIcESaIcEED1Ev(ptr noundef nonnull align 8 dereferenceable(32) %address.i) #20
  call void @_ZdlPv(ptr noundef nonnull %13) #24
  br label %delete.end

delete.end:                                       ; preds = %_ZN4pbrt10IPCChannelD2Ev.exit, %_ZNSt6vectorIN4pbrt11DisplayItemESaIS1_EE5clearEv.exit
  store ptr null, ptr @_ZN4pbrtL7channelE, align 8
  %call1.i.i.i14 = call noundef i32 @pthread_mutex_unlock(ptr noundef nonnull @_ZN4pbrtL5mutexE) #20
  ret void

eh.resume:                                        ; preds = %lpad19, %lpad
  %.pn = phi { ptr, i32 } [ %6, %lpad ], [ %12, %lpad19 ]
  %call1.i.i.i11 = call noundef i32 @pthread_mutex_unlock(ptr noundef nonnull @_ZN4pbrtL5mutexE) #20
  resume { ptr, i32 } %.pn
}

; Function Attrs: mustprogress uwtable
define dso_local void @_ZN4pbrt27DisconnectFromDisplayServerEv() local_unnamed_addr #0 {
entry:
  %retval.sroa.0.0.copyload.i = load i64, ptr @_ZN4pbrtL12updateThreadE, align 8
  %cmp.i.i.not = icmp eq i64 %retval.sroa.0.0.copyload.i, 0
  br i1 %cmp.i.i.not, label %if.end, label %if.then

if.then:                                          ; preds = %entry
  store atomic i8 1, ptr @_ZN4pbrtL10exitThreadE.0 seq_cst, align 1
  tail call void @_ZNSt6thread4joinEv(ptr noundef nonnull align 8 dereferenceable(8) @_ZN4pbrtL12updateThreadE)
  %agg.tmp.sroa.0.0.copyload.i.i = load i64, ptr @_ZN4pbrtL12updateThreadE, align 8
  %cmp.i.i.not.i = icmp eq i64 %agg.tmp.sroa.0.0.copyload.i.i, 0
  br i1 %cmp.i.i.not.i, label %_ZNSt6threadD2Ev.exit, label %if.then.i

if.then.i:                                        ; preds = %if.then
  tail call void @_ZSt9terminatev() #23
  unreachable

_ZNSt6threadD2Ev.exit:                            ; preds = %if.then
  store i64 0, ptr @_ZN4pbrtL12updateThreadE, align 8
  store atomic i8 0, ptr @_ZN4pbrtL10exitThreadE.0 seq_cst, align 1
  br label %if.end

if.end:                                           ; preds = %_ZNSt6threadD2Ev.exit, %entry
  ret void
}

declare void @_ZNSt6thread4joinEv(ptr noundef nonnull align 8 dereferenceable(8)) local_unnamed_addr #3

; Function Attrs: mustprogress uwtable
define dso_local void @_ZN4pbrt13DisplayStaticENSt7__cxx1112basic_stringIcSt11char_traitsIcESaIcEEERKNS_5ImageEN4pstd8optionalINS_16ImageChannelDescEEE(ptr noundef %title, ptr noundef nonnull align 8 dereferenceable(152) %image, ptr noundef %channelDesc) local_unnamed_addr #0 personality ptr @__gxx_personality_v0 {
entry:
  %s.i = alloca %"class.std::__cxx11::basic_string", align 8
  %item = alloca %"class.pbrt::DisplayItem", align 8
  %agg.tmp = alloca %"class.pstd::optional", align 8
  %set.i = getelementptr inbounds %"class.pstd::optional", ptr %agg.tmp, i64 0, i32 1
  %set.i.i = getelementptr inbounds %"class.pstd::optional", ptr %channelDesc, i64 0, i32 1
  %0 = load i8, ptr %set.i.i, align 8
  %1 = and i8 %0, 1
  store i8 %1, ptr %set.i, align 8
  %tobool.i4.not.i = icmp eq i8 %1, 0
  br i1 %tobool.i4.not.i, label %_ZN4pstd8optionalIN4pbrt16ImageChannelDescEEC2ERKS3_.exit, label %_ZNK4pstd8optionalIN4pbrt16ImageChannelDescEE5valueEv.exit.i

_ZNK4pstd8optionalIN4pbrt16ImageChannelDescEE5valueEv.exit.i: ; preds = %entry
  call void @_ZN4pbrt16ImageChannelDescC2ERKS0_(ptr noundef nonnull align 8 dereferenceable(48) %agg.tmp, ptr noundef nonnull align 8 dereferenceable(48) %channelDesc)
  br label %_ZN4pstd8optionalIN4pbrt16ImageChannelDescEEC2ERKS3_.exit

_ZN4pstd8optionalIN4pbrt16ImageChannelDescEEC2ERKS3_.exit: ; preds = %entry, %_ZNK4pstd8optionalIN4pbrt16ImageChannelDescEE5valueEv.exit.i
  invoke fastcc void @_ZN4pbrtL19GetImageDisplayItemERKNSt7__cxx1112basic_stringIcSt11char_traitsIcESaIcEEERKNS_5ImageEN4pstd8optionalINS_16ImageChannelDescEEE(ptr noalias nonnull align 8 %item, ptr noundef nonnull align 8 dereferenceable(32) %title, ptr noundef nonnull align 8 dereferenceable(152) %image, ptr noundef nonnull %agg.tmp)
          to label %invoke.cont unwind label %lpad

invoke.cont:                                      ; preds = %_ZN4pstd8optionalIN4pbrt16ImageChannelDescEEC2ERKS3_.exit
  %2 = load i8, ptr %set.i, align 8
  %3 = and i8 %2, 1
  %tobool.not.i.i = icmp eq i8 %3, 0
  br i1 %tobool.not.i.i, label %_ZN4pstd8optionalIN4pbrt16ImageChannelDescEED2Ev.exit, label %_ZN4pstd8optionalIN4pbrt16ImageChannelDescEE5valueEv.exit.i.i

_ZN4pstd8optionalIN4pbrt16ImageChannelDescEE5valueEv.exit.i.i: ; preds = %invoke.cont
  %nStored.le.i.i.i.i.i = getelementptr inbounds %"class.pbrt::InlinedVector", ptr %agg.tmp, i64 0, i32 4
  store i64 0, ptr %nStored.le.i.i.i.i.i, align 8
  %ptr.i.i.i.i = getelementptr inbounds %"class.pbrt::InlinedVector", ptr %agg.tmp, i64 0, i32 1
  %4 = load ptr, ptr %ptr.i.i.i.i, align 8
  %tobool.not.i.i.i.i.i.i.i = icmp eq ptr %4, null
  br i1 %tobool.not.i.i.i.i.i.i.i, label %_ZN4pbrt16ImageChannelDescD2Ev.exit.i.i, label %if.end.i.i.i.i.i.i.i

if.end.i.i.i.i.i.i.i:                             ; preds = %_ZN4pstd8optionalIN4pbrt16ImageChannelDescEE5valueEv.exit.i.i
  %nAlloc.i.i.i.i = getelementptr inbounds %"class.pbrt::InlinedVector", ptr %agg.tmp, i64 0, i32 3
  %5 = load i64, ptr %nAlloc.i.i.i.i, align 8
  %mul.i.i.i.i.i = shl i64 %5, 2
  %6 = load ptr, ptr %agg.tmp, align 8
  %vtable.i.i.i.i.i.i.i = load ptr, ptr %6, align 8
  %vfn.i.i.i.i.i.i.i = getelementptr inbounds ptr, ptr %vtable.i.i.i.i.i.i.i, i64 3
  %7 = load ptr, ptr %vfn.i.i.i.i.i.i.i, align 8
  invoke void %7(ptr noundef nonnull align 8 dereferenceable(8) %6, ptr noundef nonnull %4, i64 noundef %mul.i.i.i.i.i, i64 noundef 4)
          to label %_ZN4pbrt16ImageChannelDescD2Ev.exit.i.i unwind label %terminate.lpad.i.i.i.i

terminate.lpad.i.i.i.i:                           ; preds = %if.end.i.i.i.i.i.i.i
  %8 = landingpad { ptr, i32 }
          catch ptr null
  %9 = extractvalue { ptr, i32 } %8, 0
  call void @__clang_call_terminate(ptr %9) #23
  unreachable

_ZN4pbrt16ImageChannelDescD2Ev.exit.i.i:          ; preds = %if.end.i.i.i.i.i.i.i, %_ZN4pstd8optionalIN4pbrt16ImageChannelDescEE5valueEv.exit.i.i
  store i8 0, ptr %set.i, align 8
  br label %_ZN4pstd8optionalIN4pbrt16ImageChannelDescEED2Ev.exit

_ZN4pstd8optionalIN4pbrt16ImageChannelDescEED2Ev.exit: ; preds = %invoke.cont, %_ZN4pbrt16ImageChannelDescD2Ev.exit.i.i
  %call1.i.i.i = call noundef i32 @pthread_mutex_lock(ptr noundef nonnull @_ZN4pbrtL5mutexE) #20
  %tobool.not.i.i4 = icmp eq i32 %call1.i.i.i, 0
  br i1 %tobool.not.i.i4, label %invoke.cont2, label %if.then.i.i

if.then.i.i:                                      ; preds = %_ZN4pstd8optionalIN4pbrt16ImageChannelDescEED2Ev.exit
  invoke void @_ZSt20__throw_system_errori(i32 noundef %call1.i.i.i) #21
          to label %.noexc unwind label %lpad1

.noexc:                                           ; preds = %if.then.i.i
  unreachable

invoke.cont2:                                     ; preds = %_ZN4pstd8optionalIN4pbrt16ImageChannelDescEED2Ev.exit
  %10 = load ptr, ptr @_ZN4pbrtL7channelE, align 8
  %call = invoke noundef zeroext i1 @_ZN4pbrt11DisplayItem7DisplayERNS_10IPCChannelE(ptr noundef nonnull align 8 dereferenceable(128) %item, ptr noundef nonnull align 8 dereferenceable(76) %10)
          to label %invoke.cont4 unwind label %lpad3

invoke.cont4:                                     ; preds = %invoke.cont2
  %11 = load i32, ptr @_ZN4pbrt7logging8logLevelE, align 4
  %cmp = icmp sgt i32 %11, 1
  %or.cond.not = select i1 %call, i1 true, i1 %cmp
  br i1 %or.cond.not, label %if.end, label %land.rhs

land.rhs:                                         ; preds = %invoke.cont4
  call void @llvm.lifetime.start.p0(i64 32, ptr nonnull %s.i)
  call void @_ZNSt7__cxx1112basic_stringIcSt11char_traitsIcESaIcEEC1Ev(ptr noundef nonnull align 8 dereferenceable(32) %s.i) #20
  invoke void @_ZN4pbrt6detail21stringPrintfRecursiveIRNSt7__cxx1112basic_stringIcSt11char_traitsIcESaIcEEEJEEEvPS7_PKcOT_DpOT0_(ptr noundef nonnull %s.i, ptr noundef nonnull @.str.20, ptr noundef nonnull align 8 dereferenceable(32) %title)
          to label %_ZN4pbrt12StringPrintfIJRNSt7__cxx1112basic_stringIcSt11char_traitsIcESaIcEEEEEES6_PKcDpOT_.exit.i unwind label %lpad.i.i

common.resume.i:                                  ; preds = %lpad.i, %lpad.i.i
  %common.resume.op.i = phi { ptr, i32 } [ %12, %lpad.i.i ], [ %13, %lpad.i ]
  call void @_ZNSt7__cxx1112basic_stringIcSt11char_traitsIcESaIcEED1Ev(ptr noundef nonnull align 8 dereferenceable(32) %s.i) #20
  br label %lpad3.body

lpad.i.i:                                         ; preds = %land.rhs
  %12 = landingpad { ptr, i32 }
          cleanup
  br label %common.resume.i

_ZN4pbrt12StringPrintfIJRNSt7__cxx1112basic_stringIcSt11char_traitsIcESaIcEEEEEES6_PKcDpOT_.exit.i: ; preds = %land.rhs
  %call.i = call noundef ptr @_ZNKSt7__cxx1112basic_stringIcSt11char_traitsIcESaIcEE5c_strEv(ptr noundef nonnull align 8 dereferenceable(32) %s.i) #20
  invoke void @_ZN4pbrt3LogENS_8LogLevelEPKciS2_(i32 noundef 1, ptr noundef nonnull @.str.2, i32 noundef 480, ptr noundef %call.i)
          to label %_ZN4pbrt3LogIJRNSt7__cxx1112basic_stringIcSt11char_traitsIcESaIcEEEEEEvNS_8LogLevelEPKciSA_DpOT_.exit unwind label %lpad.i

lpad.i:                                           ; preds = %_ZN4pbrt12StringPrintfIJRNSt7__cxx1112basic_stringIcSt11char_traitsIcESaIcEEEEEES6_PKcDpOT_.exit.i
  %13 = landingpad { ptr, i32 }
          cleanup
  br label %common.resume.i

_ZN4pbrt3LogIJRNSt7__cxx1112basic_stringIcSt11char_traitsIcESaIcEEEEEEvNS_8LogLevelEPKciSA_DpOT_.exit: ; preds = %_ZN4pbrt12StringPrintfIJRNSt7__cxx1112basic_stringIcSt11char_traitsIcESaIcEEEEEES6_PKcDpOT_.exit.i
  call void @_ZNSt7__cxx1112basic_stringIcSt11char_traitsIcESaIcEED1Ev(ptr noundef nonnull align 8 dereferenceable(32) %s.i) #20
  call void @llvm.lifetime.end.p0(i64 32, ptr nonnull %s.i)
  br label %if.end

lpad:                                             ; preds = %_ZN4pstd8optionalIN4pbrt16ImageChannelDescEEC2ERKS3_.exit
  %14 = landingpad { ptr, i32 }
          cleanup
  call void @_ZN4pstd8optionalIN4pbrt16ImageChannelDescEED2Ev(ptr noundef nonnull align 8 dereferenceable(49) %agg.tmp) #20
  br label %eh.resume

lpad1:                                            ; preds = %if.then.i.i
  %15 = landingpad { ptr, i32 }
          cleanup
  br label %ehcleanup

lpad3:                                            ; preds = %invoke.cont2
  %16 = landingpad { ptr, i32 }
          cleanup
  br label %lpad3.body

lpad3.body:                                       ; preds = %common.resume.i, %lpad3
  %eh.lpad-body = phi { ptr, i32 } [ %16, %lpad3 ], [ %common.resume.op.i, %common.resume.i ]
  %call1.i.i.i5 = call noundef i32 @pthread_mutex_unlock(ptr noundef nonnull @_ZN4pbrtL5mutexE) #20
  br label %ehcleanup

if.end:                                           ; preds = %_ZN4pbrt3LogIJRNSt7__cxx1112basic_stringIcSt11char_traitsIcESaIcEEEEEEvNS_8LogLevelEPKciSA_DpOT_.exit, %invoke.cont4
  %call1.i.i.i6 = call noundef i32 @pthread_mutex_unlock(ptr noundef nonnull @_ZN4pbrtL5mutexE) #20
  call void @_ZN4pbrt11DisplayItemD2Ev(ptr noundef nonnull align 8 dereferenceable(128) %item) #20
  ret void

ehcleanup:                                        ; preds = %lpad3.body, %lpad1
  %.pn = phi { ptr, i32 } [ %eh.lpad-body, %lpad3.body ], [ %15, %lpad1 ]
  call void @_ZN4pbrt11DisplayItemD2Ev(ptr noundef nonnull align 8 dereferenceable(128) %item) #20
  br label %eh.resume

eh.resume:                                        ; preds = %ehcleanup, %lpad
  %.pn.pn = phi { ptr, i32 } [ %.pn, %ehcleanup ], [ %14, %lpad ]
  resume { ptr, i32 } %.pn.pn
}

; Function Attrs: mustprogress uwtable
define internal fastcc void @_ZN4pbrtL19GetImageDisplayItemERKNSt7__cxx1112basic_stringIcSt11char_traitsIcESaIcEEERKNS_5ImageEN4pstd8optionalINS_16ImageChannelDescEEE(ptr noalias align 8 %agg.result, ptr noundef nonnull align 8 dereferenceable(32) %title, ptr noundef nonnull align 8 dereferenceable(152) %image, ptr noundef %channelDesc) unnamed_addr #0 personality ptr @__gxx_personality_v0 {
entry:
  %getValues = alloca %class.anon, align 8
  %channelNames = alloca %"class.std::vector", align 16
  %ref.tmp = alloca %"class.std::vector", align 16
  %ref.tmp10 = alloca [3 x %"class.std::__cxx11::basic_string"], align 8
  %ref.tmp11 = alloca %"class.std::allocator", align 1
  %ref.tmp14 = alloca %"class.std::allocator", align 1
  %ref.tmp18 = alloca %"class.std::allocator", align 1
  %i = alloca i32, align 4
  %ref.tmp43 = alloca %"class.std::__cxx11::basic_string", align 8
  %agg.tmp52 = alloca %"class.std::vector", align 8
  %agg.tmp54 = alloca %"class.std::function", align 8
  %set.i = getelementptr inbounds %"class.pstd::optional", ptr %getValues, i64 0, i32 1
  %set.i.i = getelementptr inbounds %"class.pstd::optional", ptr %channelDesc, i64 0, i32 1
  %0 = load i8, ptr %set.i.i, align 8
  %1 = and i8 %0, 1
  store i8 %1, ptr %set.i, align 8
  %tobool.i4.not.i = icmp eq i8 %1, 0
  br i1 %tobool.i4.not.i, label %_ZN4pstd8optionalIN4pbrt16ImageChannelDescEEC2ERKS3_.exit, label %_ZNK4pstd8optionalIN4pbrt16ImageChannelDescEE5valueEv.exit.i

_ZNK4pstd8optionalIN4pbrt16ImageChannelDescEE5valueEv.exit.i: ; preds = %entry
  call void @_ZN4pbrt16ImageChannelDescC2ERKS0_(ptr noundef nonnull align 8 dereferenceable(48) %getValues, ptr noundef nonnull align 8 dereferenceable(48) %channelDesc)
  br label %_ZN4pstd8optionalIN4pbrt16ImageChannelDescEEC2ERKS3_.exit

_ZN4pstd8optionalIN4pbrt16ImageChannelDescEEC2ERKS3_.exit: ; preds = %entry, %_ZNK4pstd8optionalIN4pbrt16ImageChannelDescEE5valueEv.exit.i
  %2 = getelementptr inbounds %class.anon, ptr %getValues, i64 0, i32 1
  invoke void @_ZN4pbrt5ImageC2ERKS0_(ptr noundef nonnull align 8 dereferenceable(152) %2, ptr noundef nonnull align 8 dereferenceable(152) %image)
          to label %invoke.cont unwind label %lpad

invoke.cont:                                      ; preds = %_ZN4pstd8optionalIN4pbrt16ImageChannelDescEEC2ERKS3_.exit
  call void @llvm.memset.p0.i64(ptr noundef nonnull align 16 dereferenceable(24) %channelNames, i8 0, i64 24, i1 false)
  %3 = load i8, ptr %set.i.i, align 8
  %4 = and i8 %3, 1
  %tobool.i.not = icmp eq i8 %4, 0
  br i1 %tobool.i.not, label %if.else, label %invoke.cont3

invoke.cont3:                                     ; preds = %invoke.cont
  invoke void @_ZNK4pbrt5Image12ChannelNamesB5cxx11ERKNS_16ImageChannelDescE(ptr nonnull sret(%"class.std::vector") align 8 %ref.tmp, ptr noundef nonnull align 8 dereferenceable(152) %image, ptr noundef nonnull align 8 dereferenceable(48) %channelDesc)
          to label %invoke.cont5 unwind label %lpad1

invoke.cont5:                                     ; preds = %invoke.cont3
  %5 = load ptr, ptr %channelNames, align 16
  %_M_finish.i.i.i.i = getelementptr inbounds %"struct.std::_Vector_base<std::__cxx11::basic_string<char>, std::allocator<std::__cxx11::basic_string<char>>>::_Vector_impl_data", ptr %channelNames, i64 0, i32 1
  %6 = load ptr, ptr %_M_finish.i.i.i.i, align 8
  %_M_end_of_storage.i.i.i.i = getelementptr inbounds %"struct.std::_Vector_base<std::__cxx11::basic_string<char>, std::allocator<std::__cxx11::basic_string<char>>>::_Vector_impl_data", ptr %channelNames, i64 0, i32 2
  %_M_finish.i2.i.i.i = getelementptr inbounds %"struct.std::_Vector_base<std::__cxx11::basic_string<char>, std::allocator<std::__cxx11::basic_string<char>>>::_Vector_impl_data", ptr %ref.tmp, i64 0, i32 1
  %7 = load <2 x ptr>, ptr %ref.tmp, align 16
  store <2 x ptr> %7, ptr %channelNames, align 16
  %_M_end_of_storage.i4.i.i.i = getelementptr inbounds %"struct.std::_Vector_base<std::__cxx11::basic_string<char>, std::allocator<std::__cxx11::basic_string<char>>>::_Vector_impl_data", ptr %ref.tmp, i64 0, i32 2
  %8 = load ptr, ptr %_M_end_of_storage.i4.i.i.i, align 16
  store ptr %8, ptr %_M_end_of_storage.i.i.i.i, align 16
  %cmp.not3.i.i.i.i.i.i = icmp eq ptr %5, %6
  call void @llvm.memset.p0.i64(ptr noundef nonnull align 16 dereferenceable(24) %ref.tmp, i8 0, i64 24, i1 false)
  br i1 %cmp.not3.i.i.i.i.i.i, label %invoke.cont.i.i.i, label %for.body.i.i.i.i.i.i

for.body.i.i.i.i.i.i:                             ; preds = %invoke.cont5, %for.body.i.i.i.i.i.i
  %__first.addr.04.i.i.i.i.i.i = phi ptr [ %incdec.ptr.i.i.i.i.i.i, %for.body.i.i.i.i.i.i ], [ %5, %invoke.cont5 ]
  call void @_ZNSt7__cxx1112basic_stringIcSt11char_traitsIcESaIcEED1Ev(ptr noundef nonnull align 8 dereferenceable(32) %__first.addr.04.i.i.i.i.i.i) #20
  %incdec.ptr.i.i.i.i.i.i = getelementptr inbounds %"class.std::__cxx11::basic_string", ptr %__first.addr.04.i.i.i.i.i.i, i64 1
  %cmp.not.i.i.i.i.i.i = icmp eq ptr %incdec.ptr.i.i.i.i.i.i, %6
  br i1 %cmp.not.i.i.i.i.i.i, label %invoke.cont.i.i.i, label %for.body.i.i.i.i.i.i, !llvm.loop !8

invoke.cont.i.i.i:                                ; preds = %for.body.i.i.i.i.i.i, %invoke.cont5
  %tobool.not.i.i.i.i.i = icmp eq ptr %5, null
  br i1 %tobool.not.i.i.i.i.i, label %_ZNSt6vectorINSt7__cxx1112basic_stringIcSt11char_traitsIcESaIcEEESaIS5_EEaSEOS7_.exit, label %if.then.i.i.i.i.i

if.then.i.i.i.i.i:                                ; preds = %invoke.cont.i.i.i
  call void @_ZdlPv(ptr noundef nonnull %5) #24
  br label %_ZNSt6vectorINSt7__cxx1112basic_stringIcSt11char_traitsIcESaIcEEESaIS5_EEaSEOS7_.exit

_ZNSt6vectorINSt7__cxx1112basic_stringIcSt11char_traitsIcESaIcEEESaIS5_EEaSEOS7_.exit: ; preds = %invoke.cont.i.i.i, %if.then.i.i.i.i.i
  %9 = load ptr, ptr %ref.tmp, align 16
  %10 = load ptr, ptr %_M_finish.i2.i.i.i, align 8
  %cmp.not3.i.i.i.i = icmp eq ptr %9, %10
  br i1 %cmp.not3.i.i.i.i, label %invoke.cont.i, label %for.body.i.i.i.i

for.body.i.i.i.i:                                 ; preds = %_ZNSt6vectorINSt7__cxx1112basic_stringIcSt11char_traitsIcESaIcEEESaIS5_EEaSEOS7_.exit, %for.body.i.i.i.i
  %__first.addr.04.i.i.i.i = phi ptr [ %incdec.ptr.i.i.i.i, %for.body.i.i.i.i ], [ %9, %_ZNSt6vectorINSt7__cxx1112basic_stringIcSt11char_traitsIcESaIcEEESaIS5_EEaSEOS7_.exit ]
  call void @_ZNSt7__cxx1112basic_stringIcSt11char_traitsIcESaIcEED1Ev(ptr noundef nonnull align 8 dereferenceable(32) %__first.addr.04.i.i.i.i) #20
  %incdec.ptr.i.i.i.i = getelementptr inbounds %"class.std::__cxx11::basic_string", ptr %__first.addr.04.i.i.i.i, i64 1
  %cmp.not.i.i.i.i = icmp eq ptr %incdec.ptr.i.i.i.i, %10
  br i1 %cmp.not.i.i.i.i, label %invoke.contthread-pre-split.i, label %for.body.i.i.i.i, !llvm.loop !8

invoke.contthread-pre-split.i:                    ; preds = %for.body.i.i.i.i
  %.pr.i = load ptr, ptr %ref.tmp, align 16
  br label %invoke.cont.i

invoke.cont.i:                                    ; preds = %invoke.contthread-pre-split.i, %_ZNSt6vectorINSt7__cxx1112basic_stringIcSt11char_traitsIcESaIcEEESaIS5_EEaSEOS7_.exit
  %11 = phi ptr [ %.pr.i, %invoke.contthread-pre-split.i ], [ %9, %_ZNSt6vectorINSt7__cxx1112basic_stringIcSt11char_traitsIcESaIcEEESaIS5_EEaSEOS7_.exit ]
  %tobool.not.i.i.i = icmp eq ptr %11, null
  br i1 %tobool.not.i.i.i, label %if.end48, label %if.then.i.i.i

if.then.i.i.i:                                    ; preds = %invoke.cont.i
  call void @_ZdlPv(ptr noundef nonnull %11) #24
  br label %if.end48

lpad:                                             ; preds = %_ZN4pstd8optionalIN4pbrt16ImageChannelDescEEC2ERKS3_.exit
  %12 = landingpad { ptr, i32 }
          cleanup
  call void @_ZN4pstd8optionalIN4pbrt16ImageChannelDescEED2Ev(ptr noundef nonnull align 8 dereferenceable(49) %getValues) #20
  br label %eh.resume

lpad1:                                            ; preds = %if.end48, %invoke.cont3
  %13 = landingpad { ptr, i32 }
          cleanup
  br label %ehcleanup62

if.else:                                          ; preds = %invoke.cont
  %nStored.i.i = getelementptr inbounds %"class.pbrt::Image", ptr %image, i64 0, i32 2, i32 3
  %14 = load i64, ptr %nStored.i.i, align 8
  %15 = and i64 %14, 4294967295
  %cmp = icmp eq i64 %15, 3
  br i1 %cmp, label %if.then9, label %for.cond.preheader

for.cond.preheader:                               ; preds = %if.else
  store i32 0, ptr %i, align 4
  %conv.i3488 = trunc i64 %14 to i32
  %cmp4289 = icmp sgt i32 %conv.i3488, 0
  br i1 %cmp4289, label %for.body.lr.ph, label %if.end48

for.body.lr.ph:                                   ; preds = %for.cond.preheader
  %_M_finish.i.i = getelementptr inbounds %"struct.std::_Vector_base<std::__cxx11::basic_string<char>, std::allocator<std::__cxx11::basic_string<char>>>::_Vector_impl_data", ptr %channelNames, i64 0, i32 1
  %_M_end_of_storage.i.i = getelementptr inbounds %"struct.std::_Vector_base<std::__cxx11::basic_string<char>, std::allocator<std::__cxx11::basic_string<char>>>::_Vector_impl_data", ptr %channelNames, i64 0, i32 2
  br label %for.body

if.then9:                                         ; preds = %if.else
  call void @_ZNSaIcEC1Ev(ptr noundef nonnull align 1 dereferenceable(1) %ref.tmp11) #20
  %call.i14 = invoke noundef ptr @_ZNSt7__cxx1112basic_stringIcSt11char_traitsIcESaIcEE13_M_local_dataEv(ptr noundef nonnull align 8 dereferenceable(32) %ref.tmp10)
          to label %call.i.noexc unwind label %lpad12

call.i.noexc:                                     ; preds = %if.then9
  invoke void @_ZNSt7__cxx1112basic_stringIcSt11char_traitsIcESaIcEE12_Alloc_hiderC1EPcRKS3_(ptr noundef nonnull align 8 dereferenceable(8) %ref.tmp10, ptr noundef %call.i14, ptr noundef nonnull align 1 dereferenceable(1) %ref.tmp11)
          to label %.noexc15 unwind label %lpad12

.noexc15:                                         ; preds = %call.i.noexc
  invoke void @_ZNSt7__cxx1112basic_stringIcSt11char_traitsIcESaIcEE12_M_constructIPKcEEvT_S8_St20forward_iterator_tag(ptr noundef nonnull align 8 dereferenceable(32) %ref.tmp10, ptr noundef nonnull @.str.22, ptr noundef nonnull getelementptr inbounds ([2 x i8], ptr @.str.22, i64 0, i64 1))
          to label %invoke.cont13 unwind label %lpad.i

lpad.i:                                           ; preds = %.noexc15
  %16 = landingpad { ptr, i32 }
          cleanup
  call void @_ZNSaIcED2Ev(ptr noundef nonnull align 1 dereferenceable(1) %ref.tmp10) #20
  br label %ehcleanup32.thread

invoke.cont13:                                    ; preds = %.noexc15
  %arrayinit.element = getelementptr inbounds %"class.std::__cxx11::basic_string", ptr %ref.tmp10, i64 1
  call void @_ZNSaIcEC1Ev(ptr noundef nonnull align 1 dereferenceable(1) %ref.tmp14) #20
  %call.i20 = invoke noundef ptr @_ZNSt7__cxx1112basic_stringIcSt11char_traitsIcESaIcEE13_M_local_dataEv(ptr noundef nonnull align 8 dereferenceable(32) %arrayinit.element)
          to label %call.i.noexc19 unwind label %lpad15

call.i.noexc19:                                   ; preds = %invoke.cont13
  invoke void @_ZNSt7__cxx1112basic_stringIcSt11char_traitsIcESaIcEE12_Alloc_hiderC1EPcRKS3_(ptr noundef nonnull align 8 dereferenceable(8) %arrayinit.element, ptr noundef %call.i20, ptr noundef nonnull align 1 dereferenceable(1) %ref.tmp14)
          to label %.noexc21 unwind label %lpad15

.noexc21:                                         ; preds = %call.i.noexc19
  invoke void @_ZNSt7__cxx1112basic_stringIcSt11char_traitsIcESaIcEE12_M_constructIPKcEEvT_S8_St20forward_iterator_tag(ptr noundef nonnull align 8 dereferenceable(32) %arrayinit.element, ptr noundef nonnull @.str.23, ptr noundef nonnull getelementptr inbounds ([2 x i8], ptr @.str.23, i64 0, i64 1))
          to label %invoke.cont16 unwind label %lpad.i18

lpad.i18:                                         ; preds = %.noexc21
  %17 = landingpad { ptr, i32 }
          cleanup
  call void @_ZNSaIcED2Ev(ptr noundef nonnull align 1 dereferenceable(1) %arrayinit.element) #20
  br label %ehcleanup32

invoke.cont16:                                    ; preds = %.noexc21
  %arrayinit.element17 = getelementptr inbounds %"class.std::__cxx11::basic_string", ptr %ref.tmp10, i64 2
  call void @_ZNSaIcEC1Ev(ptr noundef nonnull align 1 dereferenceable(1) %ref.tmp18) #20
  %call.i28 = invoke noundef ptr @_ZNSt7__cxx1112basic_stringIcSt11char_traitsIcESaIcEE13_M_local_dataEv(ptr noundef nonnull align 8 dereferenceable(32) %arrayinit.element17)
          to label %call.i.noexc27 unwind label %lpad19

call.i.noexc27:                                   ; preds = %invoke.cont16
  invoke void @_ZNSt7__cxx1112basic_stringIcSt11char_traitsIcESaIcEE12_Alloc_hiderC1EPcRKS3_(ptr noundef nonnull align 8 dereferenceable(8) %arrayinit.element17, ptr noundef %call.i28, ptr noundef nonnull align 1 dereferenceable(1) %ref.tmp18)
          to label %.noexc29 unwind label %lpad19

.noexc29:                                         ; preds = %call.i.noexc27
  invoke void @_ZNSt7__cxx1112basic_stringIcSt11char_traitsIcESaIcEE12_M_constructIPKcEEvT_S8_St20forward_iterator_tag(ptr noundef nonnull align 8 dereferenceable(32) %arrayinit.element17, ptr noundef nonnull @.str.24, ptr noundef nonnull getelementptr inbounds ([2 x i8], ptr @.str.24, i64 0, i64 1))
          to label %invoke.cont20 unwind label %lpad.i26

lpad.i26:                                         ; preds = %.noexc29
  %18 = landingpad { ptr, i32 }
          cleanup
  call void @_ZNSaIcED2Ev(ptr noundef nonnull align 1 dereferenceable(1) %arrayinit.element17) #20
  br label %ehcleanup

invoke.cont20:                                    ; preds = %.noexc29
  %add.ptr.i.i = getelementptr inbounds %"class.std::__cxx11::basic_string", ptr %ref.tmp10, i64 3
  invoke void @_ZNSt6vectorINSt7__cxx1112basic_stringIcSt11char_traitsIcESaIcEEESaIS5_EE13_M_assign_auxIPKS5_EEvT_SB_St20forward_iterator_tag(ptr noundef nonnull align 8 dereferenceable(24) %channelNames, ptr noundef nonnull %ref.tmp10, ptr noundef nonnull %add.ptr.i.i)
          to label %arraydestroy.body unwind label %lpad21

arraydestroy.body:                                ; preds = %invoke.cont20, %arraydestroy.body
  %arraydestroy.elementPast = phi ptr [ %arraydestroy.element, %arraydestroy.body ], [ %add.ptr.i.i, %invoke.cont20 ]
  %arraydestroy.element = getelementptr inbounds %"class.std::__cxx11::basic_string", ptr %arraydestroy.elementPast, i64 -1
  call void @_ZNSt7__cxx1112basic_stringIcSt11char_traitsIcESaIcEED1Ev(ptr noundef nonnull align 8 dereferenceable(32) %arraydestroy.element) #20
  %arraydestroy.done = icmp eq ptr %arraydestroy.element, %ref.tmp10
  br i1 %arraydestroy.done, label %arraydestroy.done24, label %arraydestroy.body

arraydestroy.done24:                              ; preds = %arraydestroy.body
  call void @_ZNSaIcED1Ev(ptr noundef nonnull align 1 dereferenceable(1) %ref.tmp18) #20
  call void @_ZNSaIcED1Ev(ptr noundef nonnull align 1 dereferenceable(1) %ref.tmp14) #20
  call void @_ZNSaIcED1Ev(ptr noundef nonnull align 1 dereferenceable(1) %ref.tmp11) #20
  br label %if.end48

lpad12:                                           ; preds = %call.i.noexc, %if.then9
  %19 = landingpad { ptr, i32 }
          cleanup
  br label %ehcleanup32.thread

lpad15:                                           ; preds = %call.i.noexc19, %invoke.cont13
  %20 = landingpad { ptr, i32 }
          cleanup
  br label %ehcleanup32

lpad19:                                           ; preds = %call.i.noexc27, %invoke.cont16
  %21 = landingpad { ptr, i32 }
          cleanup
  br label %ehcleanup

lpad21:                                           ; preds = %invoke.cont20
  %22 = landingpad { ptr, i32 }
          cleanup
  br label %arraydestroy.body26

arraydestroy.body26:                              ; preds = %arraydestroy.body26, %lpad21
  %arraydestroy.elementPast27 = phi ptr [ %add.ptr.i.i, %lpad21 ], [ %arraydestroy.element28, %arraydestroy.body26 ]
  %arraydestroy.element28 = getelementptr inbounds %"class.std::__cxx11::basic_string", ptr %arraydestroy.elementPast27, i64 -1
  call void @_ZNSt7__cxx1112basic_stringIcSt11char_traitsIcESaIcEED1Ev(ptr noundef nonnull align 8 dereferenceable(32) %arraydestroy.element28) #20
  %arraydestroy.done29 = icmp eq ptr %arraydestroy.element28, %ref.tmp10
  br i1 %arraydestroy.done29, label %ehcleanup, label %arraydestroy.body26

ehcleanup:                                        ; preds = %arraydestroy.body26, %lpad19, %lpad.i26
  %.pn = phi { ptr, i32 } [ %21, %lpad19 ], [ %18, %lpad.i26 ], [ %22, %arraydestroy.body26 ]
  %cleanup.isactive.0 = phi i1 [ false, %lpad19 ], [ false, %lpad.i26 ], [ true, %arraydestroy.body26 ]
  call void @_ZNSaIcED1Ev(ptr noundef nonnull align 1 dereferenceable(1) %ref.tmp18) #20
  br label %ehcleanup32

ehcleanup32.thread:                               ; preds = %lpad.i, %lpad12
  %.pn.pn.pn.ph = phi { ptr, i32 } [ %16, %lpad.i ], [ %19, %lpad12 ]
  call void @_ZNSaIcED1Ev(ptr noundef nonnull align 1 dereferenceable(1) %ref.tmp11) #20
  br label %ehcleanup62

ehcleanup32:                                      ; preds = %ehcleanup, %lpad.i18, %lpad15
  %.pn.pn = phi { ptr, i32 } [ %.pn, %ehcleanup ], [ %20, %lpad15 ], [ %17, %lpad.i18 ]
  %arrayinit.endOfInit.0 = phi ptr [ %arrayinit.element17, %ehcleanup ], [ %arrayinit.element, %lpad15 ], [ %arrayinit.element, %lpad.i18 ]
  %cleanup.isactive.1 = phi i1 [ %cleanup.isactive.0, %ehcleanup ], [ false, %lpad15 ], [ false, %lpad.i18 ]
  call void @_ZNSaIcED1Ev(ptr noundef nonnull align 1 dereferenceable(1) %ref.tmp14) #20
  call void @_ZNSaIcED1Ev(ptr noundef nonnull align 1 dereferenceable(1) %ref.tmp11) #20
  br i1 %cleanup.isactive.1, label %ehcleanup62, label %arraydestroy.body34

arraydestroy.body34:                              ; preds = %ehcleanup32, %arraydestroy.body34
  %arraydestroy.elementPast35 = phi ptr [ %arraydestroy.element36, %arraydestroy.body34 ], [ %arrayinit.endOfInit.0, %ehcleanup32 ]
  %arraydestroy.element36 = getelementptr inbounds %"class.std::__cxx11::basic_string", ptr %arraydestroy.elementPast35, i64 -1
  call void @_ZNSt7__cxx1112basic_stringIcSt11char_traitsIcESaIcEED1Ev(ptr noundef nonnull align 8 dereferenceable(32) %arraydestroy.element36) #20
  %arraydestroy.done37 = icmp eq ptr %arraydestroy.element36, %ref.tmp10
  br i1 %arraydestroy.done37, label %ehcleanup62, label %arraydestroy.body34

for.body:                                         ; preds = %for.body.lr.ph, %invoke.cont46
  call void @_ZNSt7__cxx1112basic_stringIcSt11char_traitsIcESaIcEEC1Ev(ptr noundef nonnull align 8 dereferenceable(32) %ref.tmp43) #20
  invoke void @_ZN4pbrt6detail21stringPrintfRecursiveIRiJEEEvPNSt7__cxx1112basic_stringIcSt11char_traitsIcESaIcEEEPKcOT_DpOT0_(ptr noundef nonnull %ref.tmp43, ptr noundef nonnull @.str.25, ptr noundef nonnull align 4 dereferenceable(4) %i)
          to label %invoke.cont44 unwind label %lpad.i35

lpad.i35:                                         ; preds = %for.body
  %23 = landingpad { ptr, i32 }
          cleanup
  call void @_ZNSt7__cxx1112basic_stringIcSt11char_traitsIcESaIcEED1Ev(ptr noundef nonnull align 8 dereferenceable(32) %ref.tmp43) #20
  br label %ehcleanup62

invoke.cont44:                                    ; preds = %for.body
  %24 = load ptr, ptr %_M_finish.i.i, align 8
  %25 = load ptr, ptr %_M_end_of_storage.i.i, align 16
  %cmp.not.i.i = icmp eq ptr %24, %25
  br i1 %cmp.not.i.i, label %if.else.i.i, label %if.then.i.i

if.then.i.i:                                      ; preds = %invoke.cont44
  call void @_ZNSt7__cxx1112basic_stringIcSt11char_traitsIcESaIcEEC1EOS4_(ptr noundef nonnull align 8 dereferenceable(32) %24, ptr noundef nonnull align 8 dereferenceable(32) %ref.tmp43) #20
  %26 = load ptr, ptr %_M_finish.i.i, align 8
  %incdec.ptr.i.i = getelementptr inbounds %"class.std::__cxx11::basic_string", ptr %26, i64 1
  store ptr %incdec.ptr.i.i, ptr %_M_finish.i.i, align 8
  br label %invoke.cont46

if.else.i.i:                                      ; preds = %invoke.cont44
  invoke void @_ZNSt6vectorINSt7__cxx1112basic_stringIcSt11char_traitsIcESaIcEEESaIS5_EE17_M_realloc_insertIJS5_EEEvN9__gnu_cxx17__normal_iteratorIPS5_S7_EEDpOT_(ptr noundef nonnull align 8 dereferenceable(24) %channelNames, ptr %24, ptr noundef nonnull align 8 dereferenceable(32) %ref.tmp43)
          to label %invoke.cont46 unwind label %lpad45

invoke.cont46:                                    ; preds = %if.then.i.i, %if.else.i.i
  call void @_ZNSt7__cxx1112basic_stringIcSt11char_traitsIcESaIcEED1Ev(ptr noundef nonnull align 8 dereferenceable(32) %ref.tmp43) #20
  %27 = load i32, ptr %i, align 4
  %inc = add nsw i32 %27, 1
  store i32 %inc, ptr %i, align 4
  %28 = load i64, ptr %nStored.i.i, align 8
  %conv.i34 = trunc i64 %28 to i32
  %cmp42 = icmp slt i32 %inc, %conv.i34
  br i1 %cmp42, label %for.body, label %if.end48, !llvm.loop !22

lpad45:                                           ; preds = %if.else.i.i
  %29 = landingpad { ptr, i32 }
          cleanup
  call void @_ZNSt7__cxx1112basic_stringIcSt11char_traitsIcESaIcEED1Ev(ptr noundef nonnull align 8 dereferenceable(32) %ref.tmp43) #20
  br label %ehcleanup62

if.end48:                                         ; preds = %invoke.cont46, %for.cond.preheader, %if.then.i.i.i, %invoke.cont.i, %arraydestroy.done24
  %resolution.i = getelementptr inbounds %"class.pbrt::Image", ptr %image, i64 0, i32 1
  %retval.sroa.0.0.copyload.i = load i64, ptr %resolution.i, align 4
  invoke void @_ZNSt6vectorINSt7__cxx1112basic_stringIcSt11char_traitsIcESaIcEEESaIS5_EEC2ERKS7_(ptr noundef nonnull align 8 dereferenceable(24) %agg.tmp52, ptr noundef nonnull align 8 dereferenceable(24) %channelNames)
          to label %invoke.cont53 unwind label %lpad1

invoke.cont53:                                    ; preds = %if.end48
  %_M_manager.i.i = getelementptr inbounds %"class.std::_Function_base", ptr %agg.tmp54, i64 0, i32 1
  call void @llvm.memset.p0.i64(ptr noundef nonnull align 8 dereferenceable(32) %agg.tmp54, i8 0, i64 32, i1 false)
  %call.i.i2.i43 = invoke noalias noundef nonnull dereferenceable(208) ptr @_Znwm(i64 noundef 208) #25
          to label %call.i.i2.i.noexc unwind label %lpad55

call.i.i2.i.noexc:                                ; preds = %invoke.cont53
  %set.i.i.i.i.i = getelementptr inbounds %"class.pstd::optional", ptr %call.i.i2.i43, i64 0, i32 1
  %30 = load i8, ptr %set.i, align 8
  %31 = and i8 %30, 1
  store i8 %31, ptr %set.i.i.i.i.i, align 8
  %tobool.i4.not.i.i.i.i.i = icmp eq i8 %31, 0
  br i1 %tobool.i4.not.i.i.i.i.i, label %_ZN4pstd8optionalIN4pbrt16ImageChannelDescEEC2ERKS3_.exit.i.i.i.i, label %_ZNK4pstd8optionalIN4pbrt16ImageChannelDescEE5valueEv.exit.i.i.i.i.i

_ZNK4pstd8optionalIN4pbrt16ImageChannelDescEE5valueEv.exit.i.i.i.i.i: ; preds = %call.i.i2.i.noexc
  invoke void @_ZN4pbrt16ImageChannelDescC2ERKS0_(ptr noundef nonnull align 8 dereferenceable(48) %call.i.i2.i43, ptr noundef nonnull align 8 dereferenceable(48) %getValues)
          to label %_ZN4pstd8optionalIN4pbrt16ImageChannelDescEEC2ERKS3_.exit.i.i.i.i unwind label %lpad.i.i.i

_ZN4pstd8optionalIN4pbrt16ImageChannelDescEEC2ERKS3_.exit.i.i.i.i: ; preds = %_ZNK4pstd8optionalIN4pbrt16ImageChannelDescEE5valueEv.exit.i.i.i.i.i, %call.i.i2.i.noexc
  %32 = getelementptr inbounds %class.anon, ptr %call.i.i2.i43, i64 0, i32 1
  invoke void @_ZN4pbrt5ImageC2ERKS0_(ptr noundef nonnull align 8 dereferenceable(152) %32, ptr noundef nonnull align 8 dereferenceable(152) %2)
          to label %invoke.cont56 unwind label %lpad.i.i.i.i

lpad.i.i.i.i:                                     ; preds = %_ZN4pstd8optionalIN4pbrt16ImageChannelDescEEC2ERKS3_.exit.i.i.i.i
  %33 = landingpad { ptr, i32 }
          cleanup
  call void @_ZN4pstd8optionalIN4pbrt16ImageChannelDescEED2Ev(ptr noundef nonnull align 8 dereferenceable(49) %call.i.i2.i43) #20
  br label %lpad.body.i

lpad.i.i.i:                                       ; preds = %_ZNK4pstd8optionalIN4pbrt16ImageChannelDescEE5valueEv.exit.i.i.i.i.i
  %34 = landingpad { ptr, i32 }
          cleanup
  br label %lpad.body.i

lpad.body.i:                                      ; preds = %lpad.i.i.i, %lpad.i.i.i.i
  %eh.lpad-body.i.i.i = phi { ptr, i32 } [ %34, %lpad.i.i.i ], [ %33, %lpad.i.i.i.i ]
  call void @_ZdlPv(ptr noundef nonnull %call.i.i2.i43) #24
  %.pr.i38 = load ptr, ptr %_M_manager.i.i, align 8
  %tobool.not.i.i39 = icmp eq ptr %.pr.i38, null
  br i1 %tobool.not.i.i39, label %ehcleanup61, label %if.then.i.i40

if.then.i.i40:                                    ; preds = %lpad.body.i
  %call.i.i41 = invoke noundef zeroext i1 %.pr.i38(ptr noundef nonnull align 8 dereferenceable(16) %agg.tmp54, ptr noundef nonnull align 8 dereferenceable(16) %agg.tmp54, i32 noundef 3)
          to label %ehcleanup61 unwind label %terminate.lpad.i.i

terminate.lpad.i.i:                               ; preds = %if.then.i.i40
  %35 = landingpad { ptr, i32 }
          catch ptr null
  %36 = extractvalue { ptr, i32 } %35, 0
  call void @__clang_call_terminate(ptr %36) #23
  unreachable

invoke.cont56:                                    ; preds = %_ZN4pstd8optionalIN4pbrt16ImageChannelDescEEC2ERKS3_.exit.i.i.i.i
  %_M_invoker.i = getelementptr inbounds %"class.std::function", ptr %agg.tmp54, i64 0, i32 1
  store ptr %call.i.i2.i43, ptr %agg.tmp54, align 8
  store ptr @"_ZNSt17_Function_handlerIFvN4pbrt7Bounds2IiEEN4pstd4spanINS4_IfEEEEEZNS0_L19GetImageDisplayItemERKNSt7__cxx1112basic_stringIcSt11char_traitsIcESaIcEEERKNS0_5ImageENS3_8optionalINS0_16ImageChannelDescEEEE3$_0E9_M_invokeERKSt9_Any_dataOS2_OS6_", ptr %_M_invoker.i, align 8
  store ptr @"_ZNSt17_Function_handlerIFvN4pbrt7Bounds2IiEEN4pstd4spanINS4_IfEEEEEZNS0_L19GetImageDisplayItemERKNSt7__cxx1112basic_stringIcSt11char_traitsIcESaIcEEERKNS0_5ImageENS3_8optionalINS0_16ImageChannelDescEEEE3$_0E10_M_managerERSt9_Any_dataRKSO_St18_Manager_operation", ptr %_M_manager.i.i, align 8
  invoke void @_ZN4pbrt11DisplayItemC2ERKNSt7__cxx1112basic_stringIcSt11char_traitsIcESaIcEEENS_6Point2IiEESt6vectorIS6_SaIS6_EESt8functionIFvNS_7Bounds2IiEEN4pstd4spanINSI_IfEEEEEE(ptr noundef nonnull align 8 dereferenceable(128) %agg.result, ptr noundef nonnull align 8 dereferenceable(32) %title, i64 %retval.sroa.0.0.copyload.i, ptr noundef nonnull %agg.tmp52, ptr noundef nonnull %agg.tmp54)
          to label %invoke.cont59 unwind label %lpad58

invoke.cont59:                                    ; preds = %invoke.cont56
  %37 = load ptr, ptr %_M_manager.i.i, align 8
  %tobool.not.i.i46 = icmp eq ptr %37, null
  br i1 %tobool.not.i.i46, label %_ZNSt8functionIFvN4pbrt7Bounds2IiEEN4pstd4spanINS4_IfEEEEEED2Ev.exit, label %if.then.i.i47

if.then.i.i47:                                    ; preds = %invoke.cont59
  %call.i.i48 = invoke noundef zeroext i1 %37(ptr noundef nonnull align 8 dereferenceable(16) %agg.tmp54, ptr noundef nonnull align 8 dereferenceable(16) %agg.tmp54, i32 noundef 3)
          to label %_ZNSt8functionIFvN4pbrt7Bounds2IiEEN4pstd4spanINS4_IfEEEEEED2Ev.exit unwind label %terminate.lpad.i.i49

terminate.lpad.i.i49:                             ; preds = %if.then.i.i47
  %38 = landingpad { ptr, i32 }
          catch ptr null
  %39 = extractvalue { ptr, i32 } %38, 0
  call void @__clang_call_terminate(ptr %39) #23
  unreachable

_ZNSt8functionIFvN4pbrt7Bounds2IiEEN4pstd4spanINS4_IfEEEEEED2Ev.exit: ; preds = %invoke.cont59, %if.then.i.i47
  %40 = load ptr, ptr %agg.tmp52, align 8
  %_M_finish.i51 = getelementptr inbounds %"struct.std::_Vector_base<std::__cxx11::basic_string<char>, std::allocator<std::__cxx11::basic_string<char>>>::_Vector_impl_data", ptr %agg.tmp52, i64 0, i32 1
  %41 = load ptr, ptr %_M_finish.i51, align 8
  %cmp.not3.i.i.i.i52 = icmp eq ptr %40, %41
  br i1 %cmp.not3.i.i.i.i52, label %invoke.cont.i59, label %for.body.i.i.i.i53

for.body.i.i.i.i53:                               ; preds = %_ZNSt8functionIFvN4pbrt7Bounds2IiEEN4pstd4spanINS4_IfEEEEEED2Ev.exit, %for.body.i.i.i.i53
  %__first.addr.04.i.i.i.i54 = phi ptr [ %incdec.ptr.i.i.i.i55, %for.body.i.i.i.i53 ], [ %40, %_ZNSt8functionIFvN4pbrt7Bounds2IiEEN4pstd4spanINS4_IfEEEEEED2Ev.exit ]
  call void @_ZNSt7__cxx1112basic_stringIcSt11char_traitsIcESaIcEED1Ev(ptr noundef nonnull align 8 dereferenceable(32) %__first.addr.04.i.i.i.i54) #20
  %incdec.ptr.i.i.i.i55 = getelementptr inbounds %"class.std::__cxx11::basic_string", ptr %__first.addr.04.i.i.i.i54, i64 1
  %cmp.not.i.i.i.i56 = icmp eq ptr %incdec.ptr.i.i.i.i55, %41
  br i1 %cmp.not.i.i.i.i56, label %invoke.contthread-pre-split.i57, label %for.body.i.i.i.i53, !llvm.loop !8

invoke.contthread-pre-split.i57:                  ; preds = %for.body.i.i.i.i53
  %.pr.i58 = load ptr, ptr %agg.tmp52, align 8
  br label %invoke.cont.i59

invoke.cont.i59:                                  ; preds = %invoke.contthread-pre-split.i57, %_ZNSt8functionIFvN4pbrt7Bounds2IiEEN4pstd4spanINS4_IfEEEEEED2Ev.exit
  %42 = phi ptr [ %.pr.i58, %invoke.contthread-pre-split.i57 ], [ %40, %_ZNSt8functionIFvN4pbrt7Bounds2IiEEN4pstd4spanINS4_IfEEEEEED2Ev.exit ]
  %tobool.not.i.i.i60 = icmp eq ptr %42, null
  br i1 %tobool.not.i.i.i60, label %_ZNSt6vectorINSt7__cxx1112basic_stringIcSt11char_traitsIcESaIcEEESaIS5_EED2Ev.exit62, label %if.then.i.i.i61

if.then.i.i.i61:                                  ; preds = %invoke.cont.i59
  call void @_ZdlPv(ptr noundef nonnull %42) #24
  br label %_ZNSt6vectorINSt7__cxx1112basic_stringIcSt11char_traitsIcESaIcEEESaIS5_EED2Ev.exit62

_ZNSt6vectorINSt7__cxx1112basic_stringIcSt11char_traitsIcESaIcEEESaIS5_EED2Ev.exit62: ; preds = %invoke.cont.i59, %if.then.i.i.i61
  %43 = load ptr, ptr %channelNames, align 16
  %_M_finish.i63 = getelementptr inbounds %"struct.std::_Vector_base<std::__cxx11::basic_string<char>, std::allocator<std::__cxx11::basic_string<char>>>::_Vector_impl_data", ptr %channelNames, i64 0, i32 1
  %44 = load ptr, ptr %_M_finish.i63, align 8
  %cmp.not3.i.i.i.i64 = icmp eq ptr %43, %44
  br i1 %cmp.not3.i.i.i.i64, label %invoke.cont.i71, label %for.body.i.i.i.i65

for.body.i.i.i.i65:                               ; preds = %_ZNSt6vectorINSt7__cxx1112basic_stringIcSt11char_traitsIcESaIcEEESaIS5_EED2Ev.exit62, %for.body.i.i.i.i65
  %__first.addr.04.i.i.i.i66 = phi ptr [ %incdec.ptr.i.i.i.i67, %for.body.i.i.i.i65 ], [ %43, %_ZNSt6vectorINSt7__cxx1112basic_stringIcSt11char_traitsIcESaIcEEESaIS5_EED2Ev.exit62 ]
  call void @_ZNSt7__cxx1112basic_stringIcSt11char_traitsIcESaIcEED1Ev(ptr noundef nonnull align 8 dereferenceable(32) %__first.addr.04.i.i.i.i66) #20
  %incdec.ptr.i.i.i.i67 = getelementptr inbounds %"class.std::__cxx11::basic_string", ptr %__first.addr.04.i.i.i.i66, i64 1
  %cmp.not.i.i.i.i68 = icmp eq ptr %incdec.ptr.i.i.i.i67, %44
  br i1 %cmp.not.i.i.i.i68, label %invoke.contthread-pre-split.i69, label %for.body.i.i.i.i65, !llvm.loop !8

invoke.contthread-pre-split.i69:                  ; preds = %for.body.i.i.i.i65
  %.pr.i70 = load ptr, ptr %channelNames, align 16
  br label %invoke.cont.i71

invoke.cont.i71:                                  ; preds = %invoke.contthread-pre-split.i69, %_ZNSt6vectorINSt7__cxx1112basic_stringIcSt11char_traitsIcESaIcEEESaIS5_EED2Ev.exit62
  %45 = phi ptr [ %.pr.i70, %invoke.contthread-pre-split.i69 ], [ %43, %_ZNSt6vectorINSt7__cxx1112basic_stringIcSt11char_traitsIcESaIcEEESaIS5_EED2Ev.exit62 ]
  %tobool.not.i.i.i72 = icmp eq ptr %45, null
  br i1 %tobool.not.i.i.i72, label %_ZNSt6vectorINSt7__cxx1112basic_stringIcSt11char_traitsIcESaIcEEESaIS5_EED2Ev.exit74, label %if.then.i.i.i73

if.then.i.i.i73:                                  ; preds = %invoke.cont.i71
  call void @_ZdlPv(ptr noundef nonnull %45) #24
  br label %_ZNSt6vectorINSt7__cxx1112basic_stringIcSt11char_traitsIcESaIcEEESaIS5_EED2Ev.exit74

_ZNSt6vectorINSt7__cxx1112basic_stringIcSt11char_traitsIcESaIcEEESaIS5_EED2Ev.exit74: ; preds = %invoke.cont.i71, %if.then.i.i.i73
  call void @_ZN4pbrt5ImageD2Ev(ptr noundef nonnull align 8 dereferenceable(152) %2) #20
  %46 = load i8, ptr %set.i, align 8
  %47 = and i8 %46, 1
  %tobool.not.i.i.i75 = icmp eq i8 %47, 0
  br i1 %tobool.not.i.i.i75, label %"_ZZN4pbrtL19GetImageDisplayItemERKNSt7__cxx1112basic_stringIcSt11char_traitsIcESaIcEEERKNS_5ImageEN4pstd8optionalINS_16ImageChannelDescEEEEN3$_0D2Ev.exit", label %_ZN4pstd8optionalIN4pbrt16ImageChannelDescEE5valueEv.exit.i.i.i

_ZN4pstd8optionalIN4pbrt16ImageChannelDescEE5valueEv.exit.i.i.i: ; preds = %_ZNSt6vectorINSt7__cxx1112basic_stringIcSt11char_traitsIcESaIcEEESaIS5_EED2Ev.exit74
  %nStored.le.i.i.i.i.i.i = getelementptr inbounds %"class.pbrt::InlinedVector", ptr %getValues, i64 0, i32 4
  store i64 0, ptr %nStored.le.i.i.i.i.i.i, align 8
  %ptr.i.i.i.i.i = getelementptr inbounds %"class.pbrt::InlinedVector", ptr %getValues, i64 0, i32 1
  %48 = load ptr, ptr %ptr.i.i.i.i.i, align 8
  %tobool.not.i.i.i.i.i.i.i.i = icmp eq ptr %48, null
  br i1 %tobool.not.i.i.i.i.i.i.i.i, label %"_ZZN4pbrtL19GetImageDisplayItemERKNSt7__cxx1112basic_stringIcSt11char_traitsIcESaIcEEERKNS_5ImageEN4pstd8optionalINS_16ImageChannelDescEEEEN3$_0D2Ev.exit", label %if.end.i.i.i.i.i.i.i.i

if.end.i.i.i.i.i.i.i.i:                           ; preds = %_ZN4pstd8optionalIN4pbrt16ImageChannelDescEE5valueEv.exit.i.i.i
  %nAlloc.i.i.i.i.i = getelementptr inbounds %"class.pbrt::InlinedVector", ptr %getValues, i64 0, i32 3
  %49 = load i64, ptr %nAlloc.i.i.i.i.i, align 8
  %mul.i.i.i.i.i.i = shl i64 %49, 2
  %50 = load ptr, ptr %getValues, align 8
  %vtable.i.i.i.i.i.i.i.i = load ptr, ptr %50, align 8
  %vfn.i.i.i.i.i.i.i.i = getelementptr inbounds ptr, ptr %vtable.i.i.i.i.i.i.i.i, i64 3
  %51 = load ptr, ptr %vfn.i.i.i.i.i.i.i.i, align 8
  invoke void %51(ptr noundef nonnull align 8 dereferenceable(8) %50, ptr noundef nonnull %48, i64 noundef %mul.i.i.i.i.i.i, i64 noundef 4)
          to label %"_ZZN4pbrtL19GetImageDisplayItemERKNSt7__cxx1112basic_stringIcSt11char_traitsIcESaIcEEERKNS_5ImageEN4pstd8optionalINS_16ImageChannelDescEEEEN3$_0D2Ev.exit" unwind label %terminate.lpad.i.i.i.i.i

terminate.lpad.i.i.i.i.i:                         ; preds = %if.end.i.i.i.i.i.i.i.i
  %52 = landingpad { ptr, i32 }
          catch ptr null
  %53 = extractvalue { ptr, i32 } %52, 0
  call void @__clang_call_terminate(ptr %53) #23
  unreachable

"_ZZN4pbrtL19GetImageDisplayItemERKNSt7__cxx1112basic_stringIcSt11char_traitsIcESaIcEEERKNS_5ImageEN4pstd8optionalINS_16ImageChannelDescEEEEN3$_0D2Ev.exit": ; preds = %_ZN4pstd8optionalIN4pbrt16ImageChannelDescEE5valueEv.exit.i.i.i, %if.end.i.i.i.i.i.i.i.i, %_ZNSt6vectorINSt7__cxx1112basic_stringIcSt11char_traitsIcESaIcEEESaIS5_EED2Ev.exit74
  ret void

lpad55:                                           ; preds = %invoke.cont53
  %54 = landingpad { ptr, i32 }
          cleanup
  br label %ehcleanup61

lpad58:                                           ; preds = %invoke.cont56
  %55 = landingpad { ptr, i32 }
          cleanup
  %56 = load ptr, ptr %_M_manager.i.i, align 8
  %tobool.not.i.i77 = icmp eq ptr %56, null
  br i1 %tobool.not.i.i77, label %ehcleanup61, label %if.then.i.i78

if.then.i.i78:                                    ; preds = %lpad58
  %call.i.i79 = invoke noundef zeroext i1 %56(ptr noundef nonnull align 8 dereferenceable(16) %agg.tmp54, ptr noundef nonnull align 8 dereferenceable(16) %agg.tmp54, i32 noundef 3)
          to label %ehcleanup61 unwind label %terminate.lpad.i.i80

terminate.lpad.i.i80:                             ; preds = %if.then.i.i78
  %57 = landingpad { ptr, i32 }
          catch ptr null
  %58 = extractvalue { ptr, i32 } %57, 0
  call void @__clang_call_terminate(ptr %58) #23
  unreachable

ehcleanup61:                                      ; preds = %if.then.i.i78, %lpad58, %lpad55, %if.then.i.i40, %lpad.body.i
  %.pn8 = phi { ptr, i32 } [ %54, %lpad55 ], [ %eh.lpad-body.i.i.i, %if.then.i.i40 ], [ %eh.lpad-body.i.i.i, %lpad.body.i ], [ %55, %lpad58 ], [ %55, %if.then.i.i78 ]
  call void @_ZNSt6vectorINSt7__cxx1112basic_stringIcSt11char_traitsIcESaIcEEESaIS5_EED2Ev(ptr noundef nonnull align 8 dereferenceable(24) %agg.tmp52) #20
  br label %ehcleanup62

ehcleanup62:                                      ; preds = %arraydestroy.body34, %ehcleanup32.thread, %lpad1, %lpad.i35, %ehcleanup32, %ehcleanup61, %lpad45
  %.pn8.pn = phi { ptr, i32 } [ %.pn8, %ehcleanup61 ], [ %.pn.pn, %ehcleanup32 ], [ %29, %lpad45 ], [ %13, %lpad1 ], [ %23, %lpad.i35 ], [ %.pn.pn.pn.ph, %ehcleanup32.thread ], [ %.pn.pn, %arraydestroy.body34 ]
  call void @_ZNSt6vectorINSt7__cxx1112basic_stringIcSt11char_traitsIcESaIcEEESaIS5_EED2Ev(ptr noundef nonnull align 8 dereferenceable(24) %channelNames) #20
  call fastcc void @"_ZZN4pbrtL19GetImageDisplayItemERKNSt7__cxx1112basic_stringIcSt11char_traitsIcESaIcEEERKNS_5ImageEN4pstd8optionalINS_16ImageChannelDescEEEEN3$_0D2Ev"(ptr noundef nonnull align 8 dereferenceable(208) %getValues) #20
  br label %eh.resume

eh.resume:                                        ; preds = %ehcleanup62, %lpad
  %.pn8.pn.pn = phi { ptr, i32 } [ %.pn8.pn, %ehcleanup62 ], [ %12, %lpad ]
  resume { ptr, i32 } %.pn8.pn.pn
}

; Function Attrs: mustprogress nounwind uwtable
define linkonce_odr dso_local void @_ZN4pstd8optionalIN4pbrt16ImageChannelDescEED2Ev(ptr noundef nonnull align 8 dereferenceable(49) %this) unnamed_addr #6 comdat align 2 personality ptr @__gxx_personality_v0 {
entry:
  %set.i = getelementptr inbounds %"class.pstd::optional", ptr %this, i64 0, i32 1
  %0 = load i8, ptr %set.i, align 8
  %1 = and i8 %0, 1
  %tobool.not.i = icmp eq i8 %1, 0
  br i1 %tobool.not.i, label %invoke.cont, label %_ZN4pstd8optionalIN4pbrt16ImageChannelDescEE5valueEv.exit.i

_ZN4pstd8optionalIN4pbrt16ImageChannelDescEE5valueEv.exit.i: ; preds = %entry
  %nStored.le.i.i.i.i = getelementptr inbounds %"class.pbrt::InlinedVector", ptr %this, i64 0, i32 4
  store i64 0, ptr %nStored.le.i.i.i.i, align 8
  %ptr.i.i.i = getelementptr inbounds %"class.pbrt::InlinedVector", ptr %this, i64 0, i32 1
  %2 = load ptr, ptr %ptr.i.i.i, align 8
  %tobool.not.i.i.i.i.i.i = icmp eq ptr %2, null
  br i1 %tobool.not.i.i.i.i.i.i, label %_ZN4pbrt16ImageChannelDescD2Ev.exit.i, label %if.end.i.i.i.i.i.i

if.end.i.i.i.i.i.i:                               ; preds = %_ZN4pstd8optionalIN4pbrt16ImageChannelDescEE5valueEv.exit.i
  %nAlloc.i.i.i = getelementptr inbounds %"class.pbrt::InlinedVector", ptr %this, i64 0, i32 3
  %3 = load i64, ptr %nAlloc.i.i.i, align 8
  %mul.i.i.i.i = shl i64 %3, 2
  %4 = load ptr, ptr %this, align 8
  %vtable.i.i.i.i.i.i = load ptr, ptr %4, align 8
  %vfn.i.i.i.i.i.i = getelementptr inbounds ptr, ptr %vtable.i.i.i.i.i.i, i64 3
  %5 = load ptr, ptr %vfn.i.i.i.i.i.i, align 8
  invoke void %5(ptr noundef nonnull align 8 dereferenceable(8) %4, ptr noundef nonnull %2, i64 noundef %mul.i.i.i.i, i64 noundef 4)
          to label %_ZN4pbrt16ImageChannelDescD2Ev.exit.i unwind label %terminate.lpad.i.i.i

terminate.lpad.i.i.i:                             ; preds = %if.end.i.i.i.i.i.i
  %6 = landingpad { ptr, i32 }
          catch ptr null
  %7 = extractvalue { ptr, i32 } %6, 0
  tail call void @__clang_call_terminate(ptr %7) #23
  unreachable

_ZN4pbrt16ImageChannelDescD2Ev.exit.i:            ; preds = %if.end.i.i.i.i.i.i, %_ZN4pstd8optionalIN4pbrt16ImageChannelDescEE5valueEv.exit.i
  store i8 0, ptr %set.i, align 8
  br label %invoke.cont

invoke.cont:                                      ; preds = %_ZN4pbrt16ImageChannelDescD2Ev.exit.i, %entry
  ret void
}

; Function Attrs: mustprogress nounwind uwtable
define linkonce_odr dso_local void @_ZN4pbrt11DisplayItemD2Ev(ptr noundef nonnull align 8 dereferenceable(128) %this) unnamed_addr #6 comdat align 2 personality ptr @__gxx_personality_v0 {
entry:
  %channelBuffers = getelementptr inbounds %"class.pbrt::DisplayItem", ptr %this, i64 0, i32 5
  %0 = load ptr, ptr %channelBuffers, align 8
  %_M_finish.i = getelementptr inbounds %"class.pbrt::DisplayItem", ptr %this, i64 0, i32 5, i32 0, i32 0, i32 0, i32 1
  %1 = load ptr, ptr %_M_finish.i, align 8
  %cmp.not3.i.i.i.i = icmp eq ptr %0, %1
  br i1 %cmp.not3.i.i.i.i, label %invoke.cont.i, label %for.body.i.i.i.i

for.body.i.i.i.i:                                 ; preds = %entry, %_ZSt8_DestroyIN4pbrt11DisplayItem18ImageChannelBufferEEvPT_.exit.i.i.i.i
  %__first.addr.04.i.i.i.i = phi ptr [ %incdec.ptr.i.i.i.i, %_ZSt8_DestroyIN4pbrt11DisplayItem18ImageChannelBufferEEvPT_.exit.i.i.i.i ], [ %0, %entry ]
  %tileHashes.i.i.i.i.i.i = getelementptr inbounds %"struct.pbrt::DisplayItem::ImageChannelBuffer", ptr %__first.addr.04.i.i.i.i, i64 0, i32 3
  %2 = load ptr, ptr %tileHashes.i.i.i.i.i.i, align 8
  %tobool.not.i.i.i.i.i.i.i.i.i = icmp eq ptr %2, null
  br i1 %tobool.not.i.i.i.i.i.i.i.i.i, label %_ZNSt6vectorImSaImEED2Ev.exit.i.i.i.i.i.i, label %if.then.i.i.i.i.i.i.i.i.i

if.then.i.i.i.i.i.i.i.i.i:                        ; preds = %for.body.i.i.i.i
  tail call void @_ZdlPv(ptr noundef nonnull %2) #24
  br label %_ZNSt6vectorImSaImEED2Ev.exit.i.i.i.i.i.i

_ZNSt6vectorImSaImEED2Ev.exit.i.i.i.i.i.i:        ; preds = %if.then.i.i.i.i.i.i.i.i.i, %for.body.i.i.i.i
  %3 = load ptr, ptr %__first.addr.04.i.i.i.i, align 8
  %tobool.not.i.i.i1.i.i.i.i.i.i = icmp eq ptr %3, null
  br i1 %tobool.not.i.i.i1.i.i.i.i.i.i, label %_ZSt8_DestroyIN4pbrt11DisplayItem18ImageChannelBufferEEvPT_.exit.i.i.i.i, label %if.then.i.i.i2.i.i.i.i.i.i

if.then.i.i.i2.i.i.i.i.i.i:                       ; preds = %_ZNSt6vectorImSaImEED2Ev.exit.i.i.i.i.i.i
  tail call void @_ZdlPv(ptr noundef nonnull %3) #24
  br label %_ZSt8_DestroyIN4pbrt11DisplayItem18ImageChannelBufferEEvPT_.exit.i.i.i.i

_ZSt8_DestroyIN4pbrt11DisplayItem18ImageChannelBufferEEvPT_.exit.i.i.i.i: ; preds = %if.then.i.i.i2.i.i.i.i.i.i, %_ZNSt6vectorImSaImEED2Ev.exit.i.i.i.i.i.i
  %incdec.ptr.i.i.i.i = getelementptr inbounds %"struct.pbrt::DisplayItem::ImageChannelBuffer", ptr %__first.addr.04.i.i.i.i, i64 1
  %cmp.not.i.i.i.i = icmp eq ptr %incdec.ptr.i.i.i.i, %1
  br i1 %cmp.not.i.i.i.i, label %invoke.contthread-pre-split.i, label %for.body.i.i.i.i, !llvm.loop !9

invoke.contthread-pre-split.i:                    ; preds = %_ZSt8_DestroyIN4pbrt11DisplayItem18ImageChannelBufferEEvPT_.exit.i.i.i.i
  %.pr.i = load ptr, ptr %channelBuffers, align 8
  br label %invoke.cont.i

invoke.cont.i:                                    ; preds = %invoke.contthread-pre-split.i, %entry
  %4 = phi ptr [ %.pr.i, %invoke.contthread-pre-split.i ], [ %0, %entry ]
  %tobool.not.i.i.i = icmp eq ptr %4, null
  br i1 %tobool.not.i.i.i, label %_ZNSt6vectorIN4pbrt11DisplayItem18ImageChannelBufferESaIS2_EED2Ev.exit, label %if.then.i.i.i

if.then.i.i.i:                                    ; preds = %invoke.cont.i
  tail call void @_ZdlPv(ptr noundef nonnull %4) #24
  br label %_ZNSt6vectorIN4pbrt11DisplayItem18ImageChannelBufferESaIS2_EED2Ev.exit

_ZNSt6vectorIN4pbrt11DisplayItem18ImageChannelBufferESaIS2_EED2Ev.exit: ; preds = %invoke.cont.i, %if.then.i.i.i
  %channelNames = getelementptr inbounds %"class.pbrt::DisplayItem", ptr %this, i64 0, i32 4
  %5 = load ptr, ptr %channelNames, align 8
  %_M_finish.i1 = getelementptr inbounds %"class.pbrt::DisplayItem", ptr %this, i64 0, i32 4, i32 0, i32 0, i32 0, i32 1
  %6 = load ptr, ptr %_M_finish.i1, align 8
  %cmp.not3.i.i.i.i2 = icmp eq ptr %5, %6
  br i1 %cmp.not3.i.i.i.i2, label %invoke.cont.i9, label %for.body.i.i.i.i3

for.body.i.i.i.i3:                                ; preds = %_ZNSt6vectorIN4pbrt11DisplayItem18ImageChannelBufferESaIS2_EED2Ev.exit, %for.body.i.i.i.i3
  %__first.addr.04.i.i.i.i4 = phi ptr [ %incdec.ptr.i.i.i.i5, %for.body.i.i.i.i3 ], [ %5, %_ZNSt6vectorIN4pbrt11DisplayItem18ImageChannelBufferESaIS2_EED2Ev.exit ]
  tail call void @_ZNSt7__cxx1112basic_stringIcSt11char_traitsIcESaIcEED1Ev(ptr noundef nonnull align 8 dereferenceable(32) %__first.addr.04.i.i.i.i4) #20
  %incdec.ptr.i.i.i.i5 = getelementptr inbounds %"class.std::__cxx11::basic_string", ptr %__first.addr.04.i.i.i.i4, i64 1
  %cmp.not.i.i.i.i6 = icmp eq ptr %incdec.ptr.i.i.i.i5, %6
  br i1 %cmp.not.i.i.i.i6, label %invoke.contthread-pre-split.i7, label %for.body.i.i.i.i3, !llvm.loop !8

invoke.contthread-pre-split.i7:                   ; preds = %for.body.i.i.i.i3
  %.pr.i8 = load ptr, ptr %channelNames, align 8
  br label %invoke.cont.i9

invoke.cont.i9:                                   ; preds = %invoke.contthread-pre-split.i7, %_ZNSt6vectorIN4pbrt11DisplayItem18ImageChannelBufferESaIS2_EED2Ev.exit
  %7 = phi ptr [ %.pr.i8, %invoke.contthread-pre-split.i7 ], [ %5, %_ZNSt6vectorIN4pbrt11DisplayItem18ImageChannelBufferESaIS2_EED2Ev.exit ]
  %tobool.not.i.i.i10 = icmp eq ptr %7, null
  br i1 %tobool.not.i.i.i10, label %_ZNSt6vectorINSt7__cxx1112basic_stringIcSt11char_traitsIcESaIcEEESaIS5_EED2Ev.exit, label %if.then.i.i.i11

if.then.i.i.i11:                                  ; preds = %invoke.cont.i9
  tail call void @_ZdlPv(ptr noundef nonnull %7) #24
  br label %_ZNSt6vectorINSt7__cxx1112basic_stringIcSt11char_traitsIcESaIcEEESaIS5_EED2Ev.exit

_ZNSt6vectorINSt7__cxx1112basic_stringIcSt11char_traitsIcESaIcEEESaIS5_EED2Ev.exit: ; preds = %invoke.cont.i9, %if.then.i.i.i11
  %_M_manager.i.i = getelementptr inbounds %"class.pbrt::DisplayItem", ptr %this, i64 0, i32 3, i32 0, i32 1
  %8 = load ptr, ptr %_M_manager.i.i, align 8
  %tobool.not.i.i = icmp eq ptr %8, null
  br i1 %tobool.not.i.i, label %_ZNSt8functionIFvN4pbrt7Bounds2IiEEN4pstd4spanINS4_IfEEEEEED2Ev.exit, label %if.then.i.i

if.then.i.i:                                      ; preds = %_ZNSt6vectorINSt7__cxx1112basic_stringIcSt11char_traitsIcESaIcEEESaIS5_EED2Ev.exit
  %getTileValues = getelementptr inbounds %"class.pbrt::DisplayItem", ptr %this, i64 0, i32 3
  %call.i.i = invoke noundef zeroext i1 %8(ptr noundef nonnull align 8 dereferenceable(16) %getTileValues, ptr noundef nonnull align 8 dereferenceable(16) %getTileValues, i32 noundef 3)
          to label %_ZNSt8functionIFvN4pbrt7Bounds2IiEEN4pstd4spanINS4_IfEEEEEED2Ev.exit unwind label %terminate.lpad.i.i

terminate.lpad.i.i:                               ; preds = %if.then.i.i
  %9 = landingpad { ptr, i32 }
          catch ptr null
  %10 = extractvalue { ptr, i32 } %9, 0
  tail call void @__clang_call_terminate(ptr %10) #23
  unreachable

_ZNSt8functionIFvN4pbrt7Bounds2IiEEN4pstd4spanINS4_IfEEEEEED2Ev.exit: ; preds = %_ZNSt6vectorINSt7__cxx1112basic_stringIcSt11char_traitsIcESaIcEEESaIS5_EED2Ev.exit, %if.then.i.i
  %title = getelementptr inbounds %"class.pbrt::DisplayItem", ptr %this, i64 0, i32 1
  tail call void @_ZNSt7__cxx1112basic_stringIcSt11char_traitsIcESaIcEED1Ev(ptr noundef nonnull align 8 dereferenceable(32) %title) #20
  ret void
}

; Function Attrs: mustprogress uwtable
define dso_local void @_ZN4pbrt14DisplayDynamicENSt7__cxx1112basic_stringIcSt11char_traitsIcESaIcEEERKNS_5ImageEN4pstd8optionalINS_16ImageChannelDescEEE(ptr noundef %title, ptr noundef nonnull align 8 dereferenceable(152) %image, ptr noundef %channelDesc) local_unnamed_addr #0 personality ptr @__gxx_personality_v0 {
entry:
  %ref.tmp = alloca %"class.pbrt::DisplayItem", align 8
  %agg.tmp = alloca %"class.pstd::optional", align 8
  %call1.i.i.i = tail call noundef i32 @pthread_mutex_lock(ptr noundef nonnull @_ZN4pbrtL5mutexE) #20
  %tobool.not.i.i = icmp eq i32 %call1.i.i.i, 0
  br i1 %tobool.not.i.i, label %_ZNSt10lock_guardISt5mutexEC2ERS0_.exit, label %if.then.i.i

if.then.i.i:                                      ; preds = %entry
  tail call void @_ZSt20__throw_system_errori(i32 noundef %call1.i.i.i) #21
  unreachable

_ZNSt10lock_guardISt5mutexEC2ERS0_.exit:          ; preds = %entry
  %set.i = getelementptr inbounds %"class.pstd::optional", ptr %agg.tmp, i64 0, i32 1
  %set.i.i = getelementptr inbounds %"class.pstd::optional", ptr %channelDesc, i64 0, i32 1
  %0 = load i8, ptr %set.i.i, align 8
  %1 = and i8 %0, 1
  store i8 %1, ptr %set.i, align 8
  %tobool.i4.not.i = icmp eq i8 %1, 0
  br i1 %tobool.i4.not.i, label %invoke.cont, label %_ZNK4pstd8optionalIN4pbrt16ImageChannelDescEE5valueEv.exit.i

_ZNK4pstd8optionalIN4pbrt16ImageChannelDescEE5valueEv.exit.i: ; preds = %_ZNSt10lock_guardISt5mutexEC2ERS0_.exit
  invoke void @_ZN4pbrt16ImageChannelDescC2ERKS0_(ptr noundef nonnull align 8 dereferenceable(48) %agg.tmp, ptr noundef nonnull align 8 dereferenceable(48) %channelDesc)
          to label %invoke.cont unwind label %lpad

invoke.cont:                                      ; preds = %_ZNSt10lock_guardISt5mutexEC2ERS0_.exit, %_ZNK4pstd8optionalIN4pbrt16ImageChannelDescEE5valueEv.exit.i
  invoke fastcc void @_ZN4pbrtL19GetImageDisplayItemERKNSt7__cxx1112basic_stringIcSt11char_traitsIcESaIcEEERKNS_5ImageEN4pstd8optionalINS_16ImageChannelDescEEE(ptr noalias nonnull align 8 %ref.tmp, ptr noundef nonnull align 8 dereferenceable(32) %title, ptr noundef nonnull align 8 dereferenceable(152) %image, ptr noundef nonnull %agg.tmp)
          to label %invoke.cont2 unwind label %lpad1

invoke.cont2:                                     ; preds = %invoke.cont
  %2 = load ptr, ptr getelementptr inbounds (%"class.std::vector.27", ptr @_ZN4pbrtL12dynamicItemsE, i64 0, i32 0, i32 0, i32 0, i32 1), align 8
  %3 = load ptr, ptr getelementptr inbounds (%"class.std::vector.27", ptr @_ZN4pbrtL12dynamicItemsE, i64 0, i32 0, i32 0, i32 0, i32 2), align 8
  %cmp.not.i.i = icmp eq ptr %2, %3
  br i1 %cmp.not.i.i, label %if.else.i.i, label %if.then.i.i3

if.then.i.i3:                                     ; preds = %invoke.cont2
  %4 = load i8, ptr %ref.tmp, align 8
  %5 = and i8 %4, 1
  store i8 %5, ptr %2, align 8
  %title.i.i.i.i.i = getelementptr inbounds %"class.pbrt::DisplayItem", ptr %2, i64 0, i32 1
  %title3.i.i.i.i.i = getelementptr inbounds %"class.pbrt::DisplayItem", ptr %ref.tmp, i64 0, i32 1
  call void @_ZNSt7__cxx1112basic_stringIcSt11char_traitsIcESaIcEEC1EOS4_(ptr noundef nonnull align 8 dereferenceable(32) %title.i.i.i.i.i, ptr noundef nonnull align 8 dereferenceable(32) %title3.i.i.i.i.i) #20
  %resolution.i.i.i.i.i = getelementptr inbounds %"class.pbrt::DisplayItem", ptr %2, i64 0, i32 2
  %resolution4.i.i.i.i.i = getelementptr inbounds %"class.pbrt::DisplayItem", ptr %ref.tmp, i64 0, i32 2
  %6 = load i64, ptr %resolution4.i.i.i.i.i, align 8
  store i64 %6, ptr %resolution.i.i.i.i.i, align 8
  %getTileValues.i.i.i.i.i = getelementptr inbounds %"class.pbrt::DisplayItem", ptr %2, i64 0, i32 3
  %_M_invoker.i.i.i.i.i.i = getelementptr inbounds %"class.pbrt::DisplayItem", ptr %2, i64 0, i32 3, i32 1
  %_M_invoker2.i.i.i.i.i.i = getelementptr inbounds %"class.pbrt::DisplayItem", ptr %ref.tmp, i64 0, i32 3, i32 1
  call void @llvm.memset.p0.i64(ptr noundef nonnull align 8 dereferenceable(24) %getTileValues.i.i.i.i.i, i8 0, i64 24, i1 false)
  %7 = load ptr, ptr %_M_invoker2.i.i.i.i.i.i, align 8
  store ptr %7, ptr %_M_invoker.i.i.i.i.i.i, align 8
  %_M_manager.i.i.i.i.i.i.i.i = getelementptr inbounds %"class.pbrt::DisplayItem", ptr %ref.tmp, i64 0, i32 3, i32 0, i32 1
  %8 = load ptr, ptr %_M_manager.i.i.i.i.i.i.i.i, align 8
  %tobool.not.i.i.not.i.i.i.i.i.i = icmp eq ptr %8, null
  br i1 %tobool.not.i.i.not.i.i.i.i.i.i, label %_ZNSt16allocator_traitsISaIN4pbrt11DisplayItemEEE9constructIS1_JS1_EEEvRS2_PT_DpOT0_.exit.i.i, label %if.then.i.i.i.i.i.i

if.then.i.i.i.i.i.i:                              ; preds = %if.then.i.i3
  %getTileValues5.i.i.i.i.i = getelementptr inbounds %"class.pbrt::DisplayItem", ptr %ref.tmp, i64 0, i32 3
  %_M_manager.i.i.i.i.i.i.i = getelementptr inbounds %"class.pbrt::DisplayItem", ptr %2, i64 0, i32 3, i32 0, i32 1
  call void @llvm.memcpy.p0.p0.i64(ptr noundef nonnull align 8 dereferenceable(16) %getTileValues.i.i.i.i.i, ptr noundef nonnull align 8 dereferenceable(16) %getTileValues5.i.i.i.i.i, i64 16, i1 false)
  %9 = load ptr, ptr %_M_manager.i.i.i.i.i.i.i.i, align 8
  store ptr %9, ptr %_M_manager.i.i.i.i.i.i.i, align 8
  call void @llvm.memset.p0.i64(ptr noundef nonnull align 8 dereferenceable(16) %_M_manager.i.i.i.i.i.i.i.i, i8 0, i64 16, i1 false)
  br label %_ZNSt16allocator_traitsISaIN4pbrt11DisplayItemEEE9constructIS1_JS1_EEEvRS2_PT_DpOT0_.exit.i.i

_ZNSt16allocator_traitsISaIN4pbrt11DisplayItemEEE9constructIS1_JS1_EEEvRS2_PT_DpOT0_.exit.i.i: ; preds = %if.then.i.i.i.i.i.i, %if.then.i.i3
  %channelNames.i.i.i.i.i = getelementptr inbounds %"class.pbrt::DisplayItem", ptr %2, i64 0, i32 4
  %channelNames6.i.i.i.i.i = getelementptr inbounds %"class.pbrt::DisplayItem", ptr %ref.tmp, i64 0, i32 4
  %10 = load ptr, ptr %channelNames6.i.i.i.i.i, align 8
  store ptr %10, ptr %channelNames.i.i.i.i.i, align 8
  %_M_finish.i.i.i.i.i.i.i.i.i = getelementptr inbounds %"class.pbrt::DisplayItem", ptr %2, i64 0, i32 4, i32 0, i32 0, i32 0, i32 1
  %_M_finish3.i.i.i.i.i.i.i.i.i = getelementptr inbounds %"class.pbrt::DisplayItem", ptr %ref.tmp, i64 0, i32 4, i32 0, i32 0, i32 0, i32 1
  %11 = load ptr, ptr %_M_finish3.i.i.i.i.i.i.i.i.i, align 8
  store ptr %11, ptr %_M_finish.i.i.i.i.i.i.i.i.i, align 8
  %_M_end_of_storage.i.i.i.i.i.i.i.i.i = getelementptr inbounds %"class.pbrt::DisplayItem", ptr %2, i64 0, i32 4, i32 0, i32 0, i32 0, i32 2
  %_M_end_of_storage4.i.i.i.i.i.i.i.i.i = getelementptr inbounds %"class.pbrt::DisplayItem", ptr %ref.tmp, i64 0, i32 4, i32 0, i32 0, i32 0, i32 2
  %12 = load ptr, ptr %_M_end_of_storage4.i.i.i.i.i.i.i.i.i, align 8
  store ptr %12, ptr %_M_end_of_storage.i.i.i.i.i.i.i.i.i, align 8
  call void @llvm.memset.p0.i64(ptr noundef nonnull align 8 dereferenceable(24) %channelNames6.i.i.i.i.i, i8 0, i64 24, i1 false)
  %channelBuffers.i.i.i.i.i = getelementptr inbounds %"class.pbrt::DisplayItem", ptr %2, i64 0, i32 5
  %channelBuffers7.i.i.i.i.i = getelementptr inbounds %"class.pbrt::DisplayItem", ptr %ref.tmp, i64 0, i32 5
  %13 = load ptr, ptr %channelBuffers7.i.i.i.i.i, align 8
  store ptr %13, ptr %channelBuffers.i.i.i.i.i, align 8
  %_M_finish.i.i.i.i6.i.i.i.i.i = getelementptr inbounds %"class.pbrt::DisplayItem", ptr %2, i64 0, i32 5, i32 0, i32 0, i32 0, i32 1
  %_M_finish3.i.i.i.i7.i.i.i.i.i = getelementptr inbounds %"class.pbrt::DisplayItem", ptr %ref.tmp, i64 0, i32 5, i32 0, i32 0, i32 0, i32 1
  %14 = load ptr, ptr %_M_finish3.i.i.i.i7.i.i.i.i.i, align 8
  store ptr %14, ptr %_M_finish.i.i.i.i6.i.i.i.i.i, align 8
  %_M_end_of_storage.i.i.i.i8.i.i.i.i.i = getelementptr inbounds %"class.pbrt::DisplayItem", ptr %2, i64 0, i32 5, i32 0, i32 0, i32 0, i32 2
  %_M_end_of_storage4.i.i.i.i9.i.i.i.i.i = getelementptr inbounds %"class.pbrt::DisplayItem", ptr %ref.tmp, i64 0, i32 5, i32 0, i32 0, i32 0, i32 2
  %15 = load ptr, ptr %_M_end_of_storage4.i.i.i.i9.i.i.i.i.i, align 8
  store ptr %15, ptr %_M_end_of_storage.i.i.i.i8.i.i.i.i.i, align 8
  call void @llvm.memset.p0.i64(ptr noundef nonnull align 8 dereferenceable(24) %channelBuffers7.i.i.i.i.i, i8 0, i64 24, i1 false)
  %16 = load ptr, ptr getelementptr inbounds (%"class.std::vector.27", ptr @_ZN4pbrtL12dynamicItemsE, i64 0, i32 0, i32 0, i32 0, i32 1), align 8
  %incdec.ptr.i.i = getelementptr inbounds %"class.pbrt::DisplayItem", ptr %16, i64 1
  store ptr %incdec.ptr.i.i, ptr getelementptr inbounds (%"class.std::vector.27", ptr @_ZN4pbrtL12dynamicItemsE, i64 0, i32 0, i32 0, i32 0, i32 1), align 8
  br label %invoke.cont4

if.else.i.i:                                      ; preds = %invoke.cont2
  invoke void @_ZNSt6vectorIN4pbrt11DisplayItemESaIS1_EE17_M_realloc_insertIJS1_EEEvN9__gnu_cxx17__normal_iteratorIPS1_S3_EEDpOT_(ptr noundef nonnull align 8 dereferenceable(24) @_ZN4pbrtL12dynamicItemsE, ptr %2, ptr noundef nonnull align 8 dereferenceable(128) %ref.tmp)
          to label %invoke.cont4 unwind label %lpad3

invoke.cont4:                                     ; preds = %_ZNSt16allocator_traitsISaIN4pbrt11DisplayItemEEE9constructIS1_JS1_EEEvRS2_PT_DpOT0_.exit.i.i, %if.else.i.i
  call void @_ZN4pbrt11DisplayItemD2Ev(ptr noundef nonnull align 8 dereferenceable(128) %ref.tmp) #20
  %17 = load i8, ptr %set.i, align 8
  %18 = and i8 %17, 1
  %tobool.not.i.i6 = icmp eq i8 %18, 0
  br i1 %tobool.not.i.i6, label %_ZN4pstd8optionalIN4pbrt16ImageChannelDescEED2Ev.exit, label %_ZN4pstd8optionalIN4pbrt16ImageChannelDescEE5valueEv.exit.i.i

_ZN4pstd8optionalIN4pbrt16ImageChannelDescEE5valueEv.exit.i.i: ; preds = %invoke.cont4
  %nStored.le.i.i.i.i.i = getelementptr inbounds %"class.pbrt::InlinedVector", ptr %agg.tmp, i64 0, i32 4
  store i64 0, ptr %nStored.le.i.i.i.i.i, align 8
  %ptr.i.i.i.i = getelementptr inbounds %"class.pbrt::InlinedVector", ptr %agg.tmp, i64 0, i32 1
  %19 = load ptr, ptr %ptr.i.i.i.i, align 8
  %tobool.not.i.i.i.i.i.i.i = icmp eq ptr %19, null
  br i1 %tobool.not.i.i.i.i.i.i.i, label %_ZN4pbrt16ImageChannelDescD2Ev.exit.i.i, label %if.end.i.i.i.i.i.i.i

if.end.i.i.i.i.i.i.i:                             ; preds = %_ZN4pstd8optionalIN4pbrt16ImageChannelDescEE5valueEv.exit.i.i
  %nAlloc.i.i.i.i = getelementptr inbounds %"class.pbrt::InlinedVector", ptr %agg.tmp, i64 0, i32 3
  %20 = load i64, ptr %nAlloc.i.i.i.i, align 8
  %mul.i.i.i.i.i = shl i64 %20, 2
  %21 = load ptr, ptr %agg.tmp, align 8
  %vtable.i.i.i.i.i.i.i = load ptr, ptr %21, align 8
  %vfn.i.i.i.i.i.i.i = getelementptr inbounds ptr, ptr %vtable.i.i.i.i.i.i.i, i64 3
  %22 = load ptr, ptr %vfn.i.i.i.i.i.i.i, align 8
  invoke void %22(ptr noundef nonnull align 8 dereferenceable(8) %21, ptr noundef nonnull %19, i64 noundef %mul.i.i.i.i.i, i64 noundef 4)
          to label %_ZN4pbrt16ImageChannelDescD2Ev.exit.i.i unwind label %terminate.lpad.i.i.i.i

terminate.lpad.i.i.i.i:                           ; preds = %if.end.i.i.i.i.i.i.i
  %23 = landingpad { ptr, i32 }
          catch ptr null
  %24 = extractvalue { ptr, i32 } %23, 0
  call void @__clang_call_terminate(ptr %24) #23
  unreachable

_ZN4pbrt16ImageChannelDescD2Ev.exit.i.i:          ; preds = %if.end.i.i.i.i.i.i.i, %_ZN4pstd8optionalIN4pbrt16ImageChannelDescEE5valueEv.exit.i.i
  store i8 0, ptr %set.i, align 8
  br label %_ZN4pstd8optionalIN4pbrt16ImageChannelDescEED2Ev.exit

_ZN4pstd8optionalIN4pbrt16ImageChannelDescEED2Ev.exit: ; preds = %invoke.cont4, %_ZN4pbrt16ImageChannelDescD2Ev.exit.i.i
  %call1.i.i.i7 = call noundef i32 @pthread_mutex_unlock(ptr noundef nonnull @_ZN4pbrtL5mutexE) #20
  ret void

lpad:                                             ; preds = %_ZNK4pstd8optionalIN4pbrt16ImageChannelDescEE5valueEv.exit.i
  %25 = landingpad { ptr, i32 }
          cleanup
  br label %ehcleanup5

lpad1:                                            ; preds = %invoke.cont
  %26 = landingpad { ptr, i32 }
          cleanup
  br label %ehcleanup

lpad3:                                            ; preds = %if.else.i.i
  %27 = landingpad { ptr, i32 }
          cleanup
  call void @_ZN4pbrt11DisplayItemD2Ev(ptr noundef nonnull align 8 dereferenceable(128) %ref.tmp) #20
  br label %ehcleanup

ehcleanup:                                        ; preds = %lpad3, %lpad1
  %.pn = phi { ptr, i32 } [ %27, %lpad3 ], [ %26, %lpad1 ]
  call void @_ZN4pstd8optionalIN4pbrt16ImageChannelDescEED2Ev(ptr noundef nonnull align 8 dereferenceable(49) %agg.tmp) #20
  br label %ehcleanup5

ehcleanup5:                                       ; preds = %ehcleanup, %lpad
  %.pn.pn = phi { ptr, i32 } [ %.pn, %ehcleanup ], [ %25, %lpad ]
  %call1.i.i.i8 = call noundef i32 @pthread_mutex_unlock(ptr noundef nonnull @_ZN4pbrtL5mutexE) #20
  resume { ptr, i32 } %.pn.pn
}

; Function Attrs: mustprogress uwtable
define dso_local void @_ZN4pbrt13DisplayStaticENSt7__cxx1112basic_stringIcSt11char_traitsIcESaIcEEENS_6Point2IiEESt6vectorIS5_SaIS5_EESt8functionIFvNS_7Bounds2IiEEN4pstd4spanINSF_IfEEEEEE(ptr noundef %title, i64 %resolution.coerce, ptr noundef nonnull %channelNames, ptr noundef %getTileValues) local_unnamed_addr #0 personality ptr @__gxx_personality_v0 {
entry:
  %s.i = alloca %"class.std::__cxx11::basic_string", align 8
  %item = alloca %"class.pbrt::DisplayItem", align 8
  %agg.tmp1 = alloca %"class.std::vector", align 8
  %agg.tmp2 = alloca %"class.std::function", align 8
  call void @_ZNSt6vectorINSt7__cxx1112basic_stringIcSt11char_traitsIcESaIcEEESaIS5_EEC2ERKS7_(ptr noundef nonnull align 8 dereferenceable(24) %agg.tmp1, ptr noundef nonnull align 8 dereferenceable(24) %channelNames)
  %_M_manager.i.i = getelementptr inbounds %"class.std::_Function_base", ptr %agg.tmp2, i64 0, i32 1
  %_M_manager.i.i.i = getelementptr inbounds %"class.std::_Function_base", ptr %getTileValues, i64 0, i32 1
  call void @llvm.memset.p0.i64(ptr noundef nonnull align 8 dereferenceable(32) %agg.tmp2, i8 0, i64 32, i1 false)
  %0 = load ptr, ptr %_M_manager.i.i.i, align 8
  %tobool.not.i.i.not.i = icmp eq ptr %0, null
  br i1 %tobool.not.i.i.not.i, label %invoke.cont, label %if.then.i

if.then.i:                                        ; preds = %entry
  %call3.i = invoke noundef zeroext i1 %0(ptr noundef nonnull align 8 dereferenceable(16) %agg.tmp2, ptr noundef nonnull align 8 dereferenceable(16) %getTileValues, i32 noundef 2)
          to label %invoke.cont.i unwind label %lpad.i

invoke.cont.i:                                    ; preds = %if.then.i
  %1 = load <2 x ptr>, ptr %_M_manager.i.i.i, align 8
  store <2 x ptr> %1, ptr %_M_manager.i.i, align 8
  br label %invoke.cont

lpad.i:                                           ; preds = %if.then.i
  %2 = landingpad { ptr, i32 }
          cleanup
  %3 = load ptr, ptr %_M_manager.i.i, align 8
  %tobool.not.i.i = icmp eq ptr %3, null
  br i1 %tobool.not.i.i, label %ehcleanup, label %if.then.i.i

if.then.i.i:                                      ; preds = %lpad.i
  %call.i.i = invoke noundef zeroext i1 %3(ptr noundef nonnull align 8 dereferenceable(16) %agg.tmp2, ptr noundef nonnull align 8 dereferenceable(16) %agg.tmp2, i32 noundef 3)
          to label %ehcleanup unwind label %terminate.lpad.i.i

terminate.lpad.i.i:                               ; preds = %if.then.i.i
  %4 = landingpad { ptr, i32 }
          catch ptr null
  %5 = extractvalue { ptr, i32 } %4, 0
  call void @__clang_call_terminate(ptr %5) #23
  unreachable

invoke.cont:                                      ; preds = %invoke.cont.i, %entry
  invoke void @_ZN4pbrt11DisplayItemC2ERKNSt7__cxx1112basic_stringIcSt11char_traitsIcESaIcEEENS_6Point2IiEESt6vectorIS6_SaIS6_EESt8functionIFvNS_7Bounds2IiEEN4pstd4spanINSI_IfEEEEEE(ptr noundef nonnull align 8 dereferenceable(128) %item, ptr noundef nonnull align 8 dereferenceable(32) %title, i64 %resolution.coerce, ptr noundef nonnull %agg.tmp1, ptr noundef nonnull %agg.tmp2)
          to label %invoke.cont5 unwind label %lpad4

invoke.cont5:                                     ; preds = %invoke.cont
  %6 = load ptr, ptr %_M_manager.i.i, align 8
  %tobool.not.i.i6 = icmp eq ptr %6, null
  br i1 %tobool.not.i.i6, label %_ZNSt8functionIFvN4pbrt7Bounds2IiEEN4pstd4spanINS4_IfEEEEEED2Ev.exit, label %if.then.i.i7

if.then.i.i7:                                     ; preds = %invoke.cont5
  %call.i.i8 = invoke noundef zeroext i1 %6(ptr noundef nonnull align 8 dereferenceable(16) %agg.tmp2, ptr noundef nonnull align 8 dereferenceable(16) %agg.tmp2, i32 noundef 3)
          to label %_ZNSt8functionIFvN4pbrt7Bounds2IiEEN4pstd4spanINS4_IfEEEEEED2Ev.exit unwind label %terminate.lpad.i.i9

terminate.lpad.i.i9:                              ; preds = %if.then.i.i7
  %7 = landingpad { ptr, i32 }
          catch ptr null
  %8 = extractvalue { ptr, i32 } %7, 0
  call void @__clang_call_terminate(ptr %8) #23
  unreachable

_ZNSt8functionIFvN4pbrt7Bounds2IiEEN4pstd4spanINS4_IfEEEEEED2Ev.exit: ; preds = %invoke.cont5, %if.then.i.i7
  %9 = load ptr, ptr %agg.tmp1, align 8
  %_M_finish.i = getelementptr inbounds %"struct.std::_Vector_base<std::__cxx11::basic_string<char>, std::allocator<std::__cxx11::basic_string<char>>>::_Vector_impl_data", ptr %agg.tmp1, i64 0, i32 1
  %10 = load ptr, ptr %_M_finish.i, align 8
  %cmp.not3.i.i.i.i = icmp eq ptr %9, %10
  br i1 %cmp.not3.i.i.i.i, label %invoke.cont.i11, label %for.body.i.i.i.i

for.body.i.i.i.i:                                 ; preds = %_ZNSt8functionIFvN4pbrt7Bounds2IiEEN4pstd4spanINS4_IfEEEEEED2Ev.exit, %for.body.i.i.i.i
  %__first.addr.04.i.i.i.i = phi ptr [ %incdec.ptr.i.i.i.i, %for.body.i.i.i.i ], [ %9, %_ZNSt8functionIFvN4pbrt7Bounds2IiEEN4pstd4spanINS4_IfEEEEEED2Ev.exit ]
  call void @_ZNSt7__cxx1112basic_stringIcSt11char_traitsIcESaIcEED1Ev(ptr noundef nonnull align 8 dereferenceable(32) %__first.addr.04.i.i.i.i) #20
  %incdec.ptr.i.i.i.i = getelementptr inbounds %"class.std::__cxx11::basic_string", ptr %__first.addr.04.i.i.i.i, i64 1
  %cmp.not.i.i.i.i = icmp eq ptr %incdec.ptr.i.i.i.i, %10
  br i1 %cmp.not.i.i.i.i, label %invoke.contthread-pre-split.i, label %for.body.i.i.i.i, !llvm.loop !8

invoke.contthread-pre-split.i:                    ; preds = %for.body.i.i.i.i
  %.pr.i = load ptr, ptr %agg.tmp1, align 8
  br label %invoke.cont.i11

invoke.cont.i11:                                  ; preds = %invoke.contthread-pre-split.i, %_ZNSt8functionIFvN4pbrt7Bounds2IiEEN4pstd4spanINS4_IfEEEEEED2Ev.exit
  %11 = phi ptr [ %.pr.i, %invoke.contthread-pre-split.i ], [ %9, %_ZNSt8functionIFvN4pbrt7Bounds2IiEEN4pstd4spanINS4_IfEEEEEED2Ev.exit ]
  %tobool.not.i.i.i = icmp eq ptr %11, null
  br i1 %tobool.not.i.i.i, label %_ZNSt6vectorINSt7__cxx1112basic_stringIcSt11char_traitsIcESaIcEEESaIS5_EED2Ev.exit, label %if.then.i.i.i

if.then.i.i.i:                                    ; preds = %invoke.cont.i11
  call void @_ZdlPv(ptr noundef nonnull %11) #24
  br label %_ZNSt6vectorINSt7__cxx1112basic_stringIcSt11char_traitsIcESaIcEEESaIS5_EED2Ev.exit

_ZNSt6vectorINSt7__cxx1112basic_stringIcSt11char_traitsIcESaIcEEESaIS5_EED2Ev.exit: ; preds = %invoke.cont.i11, %if.then.i.i.i
  %call1.i.i.i = call noundef i32 @pthread_mutex_lock(ptr noundef nonnull @_ZN4pbrtL5mutexE) #20
  %tobool.not.i.i12 = icmp eq i32 %call1.i.i.i, 0
  br i1 %tobool.not.i.i12, label %invoke.cont7, label %if.then.i.i13

if.then.i.i13:                                    ; preds = %_ZNSt6vectorINSt7__cxx1112basic_stringIcSt11char_traitsIcESaIcEEESaIS5_EED2Ev.exit
  invoke void @_ZSt20__throw_system_errori(i32 noundef %call1.i.i.i) #21
          to label %.noexc unwind label %lpad6

.noexc:                                           ; preds = %if.then.i.i13
  unreachable

invoke.cont7:                                     ; preds = %_ZNSt6vectorINSt7__cxx1112basic_stringIcSt11char_traitsIcESaIcEEESaIS5_EED2Ev.exit
  %12 = load ptr, ptr @_ZN4pbrtL7channelE, align 8
  %call = invoke noundef zeroext i1 @_ZN4pbrt11DisplayItem7DisplayERNS_10IPCChannelE(ptr noundef nonnull align 8 dereferenceable(128) %item, ptr noundef nonnull align 8 dereferenceable(76) %12)
          to label %invoke.cont9 unwind label %lpad8

invoke.cont9:                                     ; preds = %invoke.cont7
  %13 = load i32, ptr @_ZN4pbrt7logging8logLevelE, align 4
  %cmp = icmp sgt i32 %13, 1
  %or.cond.not = select i1 %call, i1 true, i1 %cmp
  br i1 %or.cond.not, label %if.end, label %land.rhs

land.rhs:                                         ; preds = %invoke.cont9
  call void @llvm.lifetime.start.p0(i64 32, ptr nonnull %s.i)
  call void @_ZNSt7__cxx1112basic_stringIcSt11char_traitsIcESaIcEEC1Ev(ptr noundef nonnull align 8 dereferenceable(32) %s.i) #20
  invoke void @_ZN4pbrt6detail21stringPrintfRecursiveIRNSt7__cxx1112basic_stringIcSt11char_traitsIcESaIcEEEJEEEvPS7_PKcOT_DpOT0_(ptr noundef nonnull %s.i, ptr noundef nonnull @.str.20, ptr noundef nonnull align 8 dereferenceable(32) %title)
          to label %_ZN4pbrt12StringPrintfIJRNSt7__cxx1112basic_stringIcSt11char_traitsIcESaIcEEEEEES6_PKcDpOT_.exit.i unwind label %lpad.i.i

common.resume.i:                                  ; preds = %lpad.i14, %lpad.i.i
  %common.resume.op.i = phi { ptr, i32 } [ %14, %lpad.i.i ], [ %15, %lpad.i14 ]
  call void @_ZNSt7__cxx1112basic_stringIcSt11char_traitsIcESaIcEED1Ev(ptr noundef nonnull align 8 dereferenceable(32) %s.i) #20
  br label %lpad8.body

lpad.i.i:                                         ; preds = %land.rhs
  %14 = landingpad { ptr, i32 }
          cleanup
  br label %common.resume.i

_ZN4pbrt12StringPrintfIJRNSt7__cxx1112basic_stringIcSt11char_traitsIcESaIcEEEEEES6_PKcDpOT_.exit.i: ; preds = %land.rhs
  %call.i = call noundef ptr @_ZNKSt7__cxx1112basic_stringIcSt11char_traitsIcESaIcEE5c_strEv(ptr noundef nonnull align 8 dereferenceable(32) %s.i) #20
  invoke void @_ZN4pbrt3LogENS_8LogLevelEPKciS2_(i32 noundef 1, ptr noundef nonnull @.str.2, i32 noundef 496, ptr noundef %call.i)
          to label %_ZN4pbrt3LogIJRNSt7__cxx1112basic_stringIcSt11char_traitsIcESaIcEEEEEEvNS_8LogLevelEPKciSA_DpOT_.exit unwind label %lpad.i14

lpad.i14:                                         ; preds = %_ZN4pbrt12StringPrintfIJRNSt7__cxx1112basic_stringIcSt11char_traitsIcESaIcEEEEEES6_PKcDpOT_.exit.i
  %15 = landingpad { ptr, i32 }
          cleanup
  br label %common.resume.i

_ZN4pbrt3LogIJRNSt7__cxx1112basic_stringIcSt11char_traitsIcESaIcEEEEEEvNS_8LogLevelEPKciSA_DpOT_.exit: ; preds = %_ZN4pbrt12StringPrintfIJRNSt7__cxx1112basic_stringIcSt11char_traitsIcESaIcEEEEEES6_PKcDpOT_.exit.i
  call void @_ZNSt7__cxx1112basic_stringIcSt11char_traitsIcESaIcEED1Ev(ptr noundef nonnull align 8 dereferenceable(32) %s.i) #20
  call void @llvm.lifetime.end.p0(i64 32, ptr nonnull %s.i)
  br label %if.end

lpad4:                                            ; preds = %invoke.cont
  %16 = landingpad { ptr, i32 }
          cleanup
  %17 = load ptr, ptr %_M_manager.i.i, align 8
  %tobool.not.i.i18 = icmp eq ptr %17, null
  br i1 %tobool.not.i.i18, label %ehcleanup, label %if.then.i.i19

if.then.i.i19:                                    ; preds = %lpad4
  %call.i.i20 = invoke noundef zeroext i1 %17(ptr noundef nonnull align 8 dereferenceable(16) %agg.tmp2, ptr noundef nonnull align 8 dereferenceable(16) %agg.tmp2, i32 noundef 3)
          to label %ehcleanup unwind label %terminate.lpad.i.i21

terminate.lpad.i.i21:                             ; preds = %if.then.i.i19
  %18 = landingpad { ptr, i32 }
          catch ptr null
  %19 = extractvalue { ptr, i32 } %18, 0
  call void @__clang_call_terminate(ptr %19) #23
  unreachable

ehcleanup:                                        ; preds = %if.then.i.i19, %lpad4, %if.then.i.i, %lpad.i
  %.pn = phi { ptr, i32 } [ %2, %if.then.i.i ], [ %2, %lpad.i ], [ %16, %lpad4 ], [ %16, %if.then.i.i19 ]
  call void @_ZNSt6vectorINSt7__cxx1112basic_stringIcSt11char_traitsIcESaIcEEESaIS5_EED2Ev(ptr noundef nonnull align 8 dereferenceable(24) %agg.tmp1) #20
  br label %eh.resume

lpad6:                                            ; preds = %if.then.i.i13
  %20 = landingpad { ptr, i32 }
          cleanup
  br label %ehcleanup12

lpad8:                                            ; preds = %invoke.cont7
  %21 = landingpad { ptr, i32 }
          cleanup
  br label %lpad8.body

lpad8.body:                                       ; preds = %common.resume.i, %lpad8
  %eh.lpad-body16 = phi { ptr, i32 } [ %21, %lpad8 ], [ %common.resume.op.i, %common.resume.i ]
  %call1.i.i.i25 = call noundef i32 @pthread_mutex_unlock(ptr noundef nonnull @_ZN4pbrtL5mutexE) #20
  br label %ehcleanup12

if.end:                                           ; preds = %_ZN4pbrt3LogIJRNSt7__cxx1112basic_stringIcSt11char_traitsIcESaIcEEEEEEvNS_8LogLevelEPKciSA_DpOT_.exit, %invoke.cont9
  %call1.i.i.i27 = call noundef i32 @pthread_mutex_unlock(ptr noundef nonnull @_ZN4pbrtL5mutexE) #20
  call void @_ZN4pbrt11DisplayItemD2Ev(ptr noundef nonnull align 8 dereferenceable(128) %item) #20
  ret void

ehcleanup12:                                      ; preds = %lpad8.body, %lpad6
  %.pn2 = phi { ptr, i32 } [ %eh.lpad-body16, %lpad8.body ], [ %20, %lpad6 ]
  call void @_ZN4pbrt11DisplayItemD2Ev(ptr noundef nonnull align 8 dereferenceable(128) %item) #20
  br label %eh.resume

eh.resume:                                        ; preds = %ehcleanup12, %ehcleanup
  %.pn2.pn = phi { ptr, i32 } [ %.pn2, %ehcleanup12 ], [ %.pn, %ehcleanup ]
  resume { ptr, i32 } %.pn2.pn
}

; Function Attrs: mustprogress uwtable
define dso_local void @_ZN4pbrt14DisplayDynamicENSt7__cxx1112basic_stringIcSt11char_traitsIcESaIcEEENS_6Point2IiEESt6vectorIS5_SaIS5_EESt8functionIFvNS_7Bounds2IiEEN4pstd4spanINSF_IfEEEEEE(ptr noundef %title, i64 %resolution.coerce, ptr noundef %channelNames, ptr noundef %getTileValues) local_unnamed_addr #0 personality ptr @__gxx_personality_v0 {
entry:
  %ref.tmp = alloca %"class.pbrt::DisplayItem", align 8
  %agg.tmp1 = alloca %"class.std::vector", align 8
  %agg.tmp2 = alloca %"class.std::function", align 8
  %call1.i.i.i = tail call noundef i32 @pthread_mutex_lock(ptr noundef nonnull @_ZN4pbrtL5mutexE) #20
  %tobool.not.i.i = icmp eq i32 %call1.i.i.i, 0
  br i1 %tobool.not.i.i, label %_ZNSt10lock_guardISt5mutexEC2ERS0_.exit, label %if.then.i.i

if.then.i.i:                                      ; preds = %entry
  tail call void @_ZSt20__throw_system_errori(i32 noundef %call1.i.i.i) #21
  unreachable

_ZNSt10lock_guardISt5mutexEC2ERS0_.exit:          ; preds = %entry
  invoke void @_ZNSt6vectorINSt7__cxx1112basic_stringIcSt11char_traitsIcESaIcEEESaIS5_EEC2ERKS7_(ptr noundef nonnull align 8 dereferenceable(24) %agg.tmp1, ptr noundef nonnull align 8 dereferenceable(24) %channelNames)
          to label %invoke.cont unwind label %lpad

invoke.cont:                                      ; preds = %_ZNSt10lock_guardISt5mutexEC2ERS0_.exit
  %_M_manager.i.i = getelementptr inbounds %"class.std::_Function_base", ptr %agg.tmp2, i64 0, i32 1
  %_M_manager.i.i.i = getelementptr inbounds %"class.std::_Function_base", ptr %getTileValues, i64 0, i32 1
