; ModuleID = 'bench/pbrt-v4/original/integrator.cpp.ll'
source_filename = "bench/pbrt-v4/original/integrator.cpp.ll"
target datalayout = "e-m:e-p270:32:32-p271:32:32-p272:64:64-i64:64-i128:128-f80:128-n8:16:32:64-S128"
target triple = "x86_64-unknown-linux-gnu"

%"class.pbrt::StatRegisterer" = type { i8 }
%"class.std::ios_base::Init" = type { i8 }
%"class.pbrt::WorkQueue.355" = type <{ %"struct.pbrt::SOA.356", %"struct.std::atomic.190", [4 x i8] }>
%"struct.pbrt::SOA.356" = type { i32, %"struct.pbrt::SOA.14", ptr, %"struct.pbrt::SOA.11", %"struct.pbrt::SOA.12", %"struct.pbrt::SOA.12", ptr, %"struct.pbrt::SOA.17", ptr, ptr, ptr, ptr }
%"struct.pbrt::SOA.14" = type { i32, ptr, ptr, ptr }
%"struct.pbrt::SOA.11" = type { i32, ptr, ptr, ptr, ptr }
%"struct.pbrt::SOA.12" = type { i32, ptr, ptr }
%"struct.pbrt::SOA.17" = type { i32, ptr, ptr, ptr }
%"struct.std::atomic.190" = type { %"struct.std::__atomic_base.191" }
%"struct.std::__atomic_base.191" = type { i32 }
%"class.std::__cxx11::basic_string" = type { %"struct.std::__cxx11::basic_string<char>::_Alloc_hider", i64, %union.anon.99 }
%"struct.std::__cxx11::basic_string<char>::_Alloc_hider" = type { ptr }
%union.anon.99 = type { i64, [8 x i8] }
%"class.pbrt::ThreadLocal" = type { %"class.std::shared_mutex", %"class.std::vector", %"class.std::function" }
%"class.std::shared_mutex" = type { %"class.std::__shared_mutex_pthread" }
%"class.std::__shared_mutex_pthread" = type { %union.pthread_rwlock_t }
%union.pthread_rwlock_t = type { %struct.__pthread_rwlock_arch_t }
%struct.__pthread_rwlock_arch_t = type { i32, i32, i32, i32, i32, i32, i32, i32, i8, [7 x i8], i64, i32 }
%"class.std::vector" = type { %"struct.std::_Vector_base" }
%"struct.std::_Vector_base" = type { %"struct.std::_Vector_base<pstd::optional<pbrt::ThreadLocal<pstd::pmr::polymorphic_allocator<std::byte>>::Entry>, std::allocator<pstd::optional<pbrt::ThreadLocal<pstd::pmr::polymorphic_allocator<std::byte>>::Entry>>>::_Vector_impl" }
%"struct.std::_Vector_base<pstd::optional<pbrt::ThreadLocal<pstd::pmr::polymorphic_allocator<std::byte>>::Entry>, std::allocator<pstd::optional<pbrt::ThreadLocal<pstd::pmr::polymorphic_allocator<std::byte>>::Entry>>>::_Vector_impl" = type { %"struct.std::_Vector_base<pstd::optional<pbrt::ThreadLocal<pstd::pmr::polymorphic_allocator<std::byte>>::Entry>, std::allocator<pstd::optional<pbrt::ThreadLocal<pstd::pmr::polymorphic_allocator<std::byte>>::Entry>>>::_Vector_impl_data" }
%"struct.std::_Vector_base<pstd::optional<pbrt::ThreadLocal<pstd::pmr::polymorphic_allocator<std::byte>>::Entry>, std::allocator<pstd::optional<pbrt::ThreadLocal<pstd::pmr::polymorphic_allocator<std::byte>>::Entry>>>::_Vector_impl_data" = type { ptr, ptr, ptr }
%"class.std::function" = type { %"class.std::_Function_base", ptr }
%"class.std::_Function_base" = type { %"union.std::_Any_data", ptr }
%"union.std::_Any_data" = type { %"union.std::_Nocopy_types" }
%"union.std::_Nocopy_types" = type { { i64, i64 } }
%"class.std::map" = type { %"class.std::_Rb_tree" }
%"class.std::_Rb_tree" = type { %"struct.std::_Rb_tree<std::__cxx11::basic_string<char>, std::pair<const std::__cxx11::basic_string<char>, pbrt::Medium>, std::_Select1st<std::pair<const std::__cxx11::basic_string<char>, pbrt::Medium>>, std::less<std::__cxx11::basic_string<char>>>::_Rb_tree_impl" }
%"struct.std::_Rb_tree<std::__cxx11::basic_string<char>, std::pair<const std::__cxx11::basic_string<char>, pbrt::Medium>, std::_Select1st<std::pair<const std::__cxx11::basic_string<char>, pbrt::Medium>>, std::less<std::__cxx11::basic_string<char>>>::_Rb_tree_impl" = type { %"struct.std::_Rb_tree_key_compare", %"struct.std::_Rb_tree_header" }
%"struct.std::_Rb_tree_key_compare" = type { %"struct.std::less" }
%"struct.std::less" = type { i8 }
%"struct.std::_Rb_tree_header" = type { %"struct.std::_Rb_tree_node_base", i64 }
%"struct.std::_Rb_tree_node_base" = type { i32, ptr, ptr, ptr }
%"struct.pbrt::NamedTextures" = type { %"class.std::map.102", %"class.std::map.107", %"class.std::map.107", %"class.std::map.107" }
%"class.std::map.102" = type { %"class.std::_Rb_tree.103" }
%"class.std::_Rb_tree.103" = type { %"struct.std::_Rb_tree<std::__cxx11::basic_string<char>, std::pair<const std::__cxx11::basic_string<char>, pbrt::FloatTexture>, std::_Select1st<std::pair<const std::__cxx11::basic_string<char>, pbrt::FloatTexture>>, std::less<std::__cxx11::basic_string<char>>>::_Rb_tree_impl" }
%"struct.std::_Rb_tree<std::__cxx11::basic_string<char>, std::pair<const std::__cxx11::basic_string<char>, pbrt::FloatTexture>, std::_Select1st<std::pair<const std::__cxx11::basic_string<char>, pbrt::FloatTexture>>, std::less<std::__cxx11::basic_string<char>>>::_Rb_tree_impl" = type { %"struct.std::_Rb_tree_key_compare", %"struct.std::_Rb_tree_header" }
%"class.std::map.107" = type { %"class.std::_Rb_tree.108" }
%"class.std::_Rb_tree.108" = type { %"struct.std::_Rb_tree<std::__cxx11::basic_string<char>, std::pair<const std::__cxx11::basic_string<char>, pbrt::SpectrumTexture>, std::_Select1st<std::pair<const std::__cxx11::basic_string<char>, pbrt::SpectrumTexture>>, std::less<std::__cxx11::basic_string<char>>>::_Rb_tree_impl" }
%"struct.std::_Rb_tree<std::__cxx11::basic_string<char>, std::pair<const std::__cxx11::basic_string<char>, pbrt::SpectrumTexture>, std::_Select1st<std::pair<const std::__cxx11::basic_string<char>, pbrt::SpectrumTexture>>, std::less<std::__cxx11::basic_string<char>>>::_Rb_tree_impl" = type { %"struct.std::_Rb_tree_key_compare", %"struct.std::_Rb_tree_header" }
%"class.pstd::vector" = type { %"class.pstd::pmr::polymorphic_allocator.112", ptr, i64, i64 }
%"class.pstd::pmr::polymorphic_allocator.112" = type { ptr }
%"class.std::map.113" = type { %"class.std::_Rb_tree.114" }
%"class.std::_Rb_tree.114" = type { %"struct.std::_Rb_tree<int, std::pair<const int, pstd::vector<pbrt::Light> *>, std::_Select1st<std::pair<const int, pstd::vector<pbrt::Light> *>>, std::less<int>>::_Rb_tree_impl" }
%"struct.std::_Rb_tree<int, std::pair<const int, pstd::vector<pbrt::Light> *>, std::_Select1st<std::pair<const int, pstd::vector<pbrt::Light> *>>, std::less<int>>::_Rb_tree_impl" = type { %"struct.std::_Rb_tree_key_compare.118", %"struct.std::_Rb_tree_header" }
%"struct.std::_Rb_tree_key_compare.118" = type { %"struct.std::less.119" }
%"struct.std::less.119" = type { i8 }
%"class.std::vector.121" = type { %"struct.std::_Vector_base.122" }
%"struct.std::_Vector_base.122" = type { %"struct.std::_Vector_base<pbrt::Light, std::allocator<pbrt::Light>>::_Vector_impl" }
%"struct.std::_Vector_base<pbrt::Light, std::allocator<pbrt::Light>>::_Vector_impl" = type { %"struct.std::_Vector_base<pbrt::Light, std::allocator<pbrt::Light>>::_Vector_impl_data" }
%"struct.std::_Vector_base<pbrt::Light, std::allocator<pbrt::Light>>::_Vector_impl_data" = type { ptr, ptr, ptr }
%"class.std::map.128" = type { %"class.std::_Rb_tree.129" }
%"class.std::_Rb_tree.129" = type { %"struct.std::_Rb_tree<std::__cxx11::basic_string<char>, std::pair<const std::__cxx11::basic_string<char>, pbrt::Material>, std::_Select1st<std::pair<const std::__cxx11::basic_string<char>, pbrt::Material>>, std::less<std::__cxx11::basic_string<char>>>::_Rb_tree_impl" }
%"struct.std::_Rb_tree<std::__cxx11::basic_string<char>, std::pair<const std::__cxx11::basic_string<char>, pbrt::Material>, std::_Select1st<std::pair<const std::__cxx11::basic_string<char>, pbrt::Material>>, std::less<std::__cxx11::basic_string<char>>>::_Rb_tree_impl" = type { %"struct.std::_Rb_tree_key_compare", %"struct.std::_Rb_tree_header" }
%"class.std::vector.133" = type { %"struct.std::_Vector_base.134" }
%"struct.std::_Vector_base.134" = type { %"struct.std::_Vector_base<pbrt::Material, std::allocator<pbrt::Material>>::_Vector_impl" }
%"struct.std::_Vector_base<pbrt::Material, std::allocator<pbrt::Material>>::_Vector_impl" = type { %"struct.std::_Vector_base<pbrt::Material, std::allocator<pbrt::Material>>::_Vector_impl_data" }
%"struct.std::_Vector_base<pbrt::Material, std::allocator<pbrt::Material>>::_Vector_impl_data" = type { ptr, ptr, ptr }
%"class.pbrt::Material" = type { %"class.pbrt::TaggedPointer.139" }
%"class.pbrt::TaggedPointer.139" = type { i64 }
%"class.pbrt::Camera" = type { %"class.pbrt::TaggedPointer.8" }
%"class.pbrt::TaggedPointer.8" = type { i64 }
%"class.pbrt::Sampler" = type { %"class.pbrt::TaggedPointer.7" }
%"class.pbrt::TaggedPointer.7" = type { i64 }
%"class.pbrt::Light" = type { %"class.pbrt::TaggedPointer.127" }
%"class.pbrt::TaggedPointer.127" = type { i64 }
%"class.pbrt::Bounds3" = type { %"class.pbrt::Point3", %"class.pbrt::Point3" }
%"class.pbrt::Point3" = type { %"class.pbrt::Tuple3.152" }
%"class.pbrt::Tuple3.152" = type { float, float, float }
%"class.std::allocator.96" = type { i8 }
%"class.pbrt::LightSampler" = type { %"class.pbrt::TaggedPointer.9" }
%"class.pbrt::TaggedPointer.9" = type { i64 }
%"struct.pbrt::SOA" = type { i32, ptr, %"struct.pbrt::SOA.10", %"struct.pbrt::SOA.11", %"struct.pbrt::SOA.12", %"struct.pbrt::SOA.12", %"struct.pbrt::SOA.13", %"struct.pbrt::SOA.18" }
%"struct.pbrt::SOA.10" = type { i32, ptr, ptr }
%"struct.pbrt::SOA.13" = type { i32, ptr, %"struct.pbrt::SOA.14", %"struct.pbrt::SOA.15", %"struct.pbrt::SOA.15", %"struct.pbrt::SOA.16", ptr, %"struct.pbrt::SOA.17", %"struct.pbrt::SOA.17", %"struct.pbrt::SOA.12" }
%"struct.pbrt::SOA.15" = type { i32, ptr, ptr, ptr }
%"struct.pbrt::SOA.16" = type { i32, ptr, ptr }
%"struct.pbrt::SOA.18" = type { ptr, ptr, ptr, ptr, ptr }
%"class.pstd::optional.278" = type { %"union.std::aligned_storage<16, 8>::type", i8, [7 x i8] }
%"union.std::aligned_storage<16, 8>::type" = type { [16 x i8] }
%"class.std::thread::id" = type { i64 }
%"class.pbrt::BasicTextureEvaluator" = type { i8 }
%class.anon.211 = type { ptr }
%"class.pstd::optional.220" = type { %"union.std::aligned_storage<8, 8>::type", i8, [7 x i8] }
%"union.std::aligned_storage<8, 8>::type" = type { [8 x i8] }
%"class.pstd::optional.246" = type { %"union.std::aligned_storage<8, 8>::type", i8, [7 x i8] }
%"class.std::function.360" = type { %"class.std::_Function_base", ptr }
%"class.std::function.358" = type { %"class.std::_Function_base", ptr }
%class.anon.193 = type { ptr }
%class.anon.192 = type { ptr }
%"class.pbrt::Transform" = type { %"class.pbrt::SquareMatrix.101", %"class.pbrt::SquareMatrix.101" }
%"class.pbrt::SquareMatrix.101" = type { [4 x [4 x float]] }
%"class.std::vector.168" = type { %"struct.std::_Vector_base.169" }
%"struct.std::_Vector_base.169" = type { %"struct.std::_Vector_base<int, std::allocator<int>>::_Vector_impl" }
%"struct.std::_Vector_base<int, std::allocator<int>>::_Vector_impl" = type { %"struct.std::_Vector_base<int, std::allocator<int>>::_Vector_impl_data" }
%"struct.std::_Vector_base<int, std::allocator<int>>::_Vector_impl_data" = type { ptr, ptr, ptr }
%"class.pbrt::ProgressReporter" = type { i64, %"class.std::__cxx11::basic_string", i8, %"class.pbrt::Timer", %"struct.std::atomic.173", %"struct.std::atomic", %"class.std::thread", %"class.pstd::optional.175" }
%"class.pbrt::Timer" = type { %"class.std::chrono::time_point" }
%"class.std::chrono::time_point" = type { %"class.std::chrono::duration" }
%"class.std::chrono::duration" = type { i64 }
%"struct.std::atomic.173" = type { %"struct.std::__atomic_base.174" }
%"struct.std::__atomic_base.174" = type { i64 }
%"struct.std::atomic" = type { %"struct.std::__atomic_base" }
%"struct.std::__atomic_base" = type { i8 }
%"class.std::thread" = type { %"class.std::thread::id" }
%"class.pstd::optional.175" = type { %"union.std::aligned_storage<4, 4>::type", i8, [3 x i8] }
%"union.std::aligned_storage<4, 4>::type" = type { [4 x i8] }
%"class.pbrt::CheckCallbackScope" = type { i8 }
%"class.std::function.177" = type { %"class.std::_Function_base", ptr }
%"class.std::vector.198" = type { %"struct.std::_Vector_base.199" }
%"struct.std::_Vector_base.199" = type { %"struct.std::_Vector_base<std::__cxx11::basic_string<char>, std::allocator<std::__cxx11::basic_string<char>>>::_Vector_impl" }
%"struct.std::_Vector_base<std::__cxx11::basic_string<char>, std::allocator<std::__cxx11::basic_string<char>>>::_Vector_impl" = type { %"struct.std::_Vector_base<std::__cxx11::basic_string<char>, std::allocator<std::__cxx11::basic_string<char>>>::_Vector_impl_data" }
%"struct.std::_Vector_base<std::__cxx11::basic_string<char>, std::allocator<std::__cxx11::basic_string<char>>>::_Vector_impl_data" = type { ptr, ptr, ptr }
%"class.std::function.203" = type { %"class.std::_Function_base", ptr }
%"class.pbrt::FloatTexture" = type { %"class.pbrt::TaggedPointer.208" }
%"class.pbrt::TaggedPointer.208" = type { i64 }
%"class.pbrt::SpectrumTexture" = type { %"class.pbrt::TaggedPointer.212" }
%"class.pbrt::TaggedPointer.212" = type { i64 }
%"class.std::__cxx11::basic_stringstream" = type { %"class.std::basic_iostream.base", %"class.std::__cxx11::basic_stringbuf", %"class.std::basic_ios" }
%"class.std::basic_iostream.base" = type { %"class.std::basic_istream.base", %"class.std::basic_ostream.base" }
%"class.std::basic_istream.base" = type { ptr, i64 }
%"class.std::basic_ostream.base" = type { ptr }
%"class.std::__cxx11::basic_stringbuf" = type { %"class.std::basic_streambuf", i32, %"class.std::__cxx11::basic_string" }
%"class.std::basic_streambuf" = type { ptr, ptr, ptr, ptr, ptr, ptr, ptr, %"class.std::locale" }
%"class.std::locale" = type { ptr }
%"class.std::basic_ios" = type { %"class.std::ios_base", ptr, i8, i8, ptr, ptr, ptr, ptr }
%"class.std::ios_base" = type { ptr, i64, i64, i32, i32, i32, ptr, %"struct.std::ios_base::_Words", [8 x %"struct.std::ios_base::_Words"], i32, ptr, %"class.std::locale" }
%"struct.std::ios_base::_Words" = type { ptr, i64 }
%struct._Guard = type { ptr }
%"struct.pbrt::SOA.187" = type { i32, %"struct.pbrt::SOA.188", %"struct.pbrt::SOA.15", %"struct.pbrt::SOA.15" }
%"struct.pbrt::SOA.188" = type { i32, %"struct.pbrt::SOA.189", %"struct.pbrt::SOA.189", %"struct.pbrt::SOA.189" }
%"struct.pbrt::SOA.189" = type { i32, ptr, ptr }
%"struct.pbrt::SOA.300" = type { i32, %"struct.pbrt::SOA.14", %"struct.pbrt::SOA.17", %"struct.pbrt::SOA.15", ptr, ptr, %"struct.pbrt::SOA.12", %"struct.pbrt::SOA.12" }
%"struct.pbrt::SOA.301" = type { i32, %"struct.pbrt::SOA.188", %"struct.pbrt::SOA.15", %"struct.pbrt::SOA.17", %"struct.pbrt::SOA.17", %"struct.pbrt::SOA.15", %"struct.pbrt::SOA.17", %"struct.pbrt::SOA.17" }
%"class.pbrt::WorkQueue.347" = type <{ %"struct.pbrt::SOA.348", %"struct.std::atomic.190", [4 x i8] }>
%"struct.pbrt::SOA.348" = type { i32, ptr, %"struct.pbrt::SOA.11", %"struct.pbrt::SOA.12", %"struct.pbrt::SOA.12", %"struct.pbrt::SOA.188", %"struct.pbrt::SOA.15", %"struct.pbrt::SOA.15", %"struct.pbrt::SOA.17", %"struct.pbrt::SOA.17", %"struct.pbrt::SOA.17", %"struct.pbrt::SOA.17", %"struct.pbrt::SOA.15", %"struct.pbrt::SOA.15", %"struct.pbrt::SOA.17", %"struct.pbrt::SOA.16", ptr, ptr, ptr, ptr, ptr, %"struct.pbrt::SOA.296", ptr }
%"struct.pbrt::SOA.296" = type { i32, ptr, ptr }
%"class.pbrt::WorkQueue.344" = type <{ %"struct.pbrt::SOA.345", %"struct.std::atomic.190", [4 x i8] }>
%"struct.pbrt::SOA.345" = type { i32, ptr, %"struct.pbrt::SOA.11", %"struct.pbrt::SOA.12", %"struct.pbrt::SOA.12", %"struct.pbrt::SOA.188", %"struct.pbrt::SOA.15", %"struct.pbrt::SOA.15", %"struct.pbrt::SOA.17", %"struct.pbrt::SOA.17", %"struct.pbrt::SOA.17", %"struct.pbrt::SOA.17", %"struct.pbrt::SOA.15", %"struct.pbrt::SOA.15", %"struct.pbrt::SOA.17", %"struct.pbrt::SOA.16", ptr, ptr, ptr, ptr, ptr, %"struct.pbrt::SOA.296", ptr }
%"class.pbrt::WorkQueue.341" = type <{ %"struct.pbrt::SOA.342", %"struct.std::atomic.190", [4 x i8] }>
%"struct.pbrt::SOA.342" = type { i32, ptr, %"struct.pbrt::SOA.11", %"struct.pbrt::SOA.12", %"struct.pbrt::SOA.12", %"struct.pbrt::SOA.188", %"struct.pbrt::SOA.15", %"struct.pbrt::SOA.15", %"struct.pbrt::SOA.17", %"struct.pbrt::SOA.17", %"struct.pbrt::SOA.17", %"struct.pbrt::SOA.17", %"struct.pbrt::SOA.15", %"struct.pbrt::SOA.15", %"struct.pbrt::SOA.17", %"struct.pbrt::SOA.16", ptr, ptr, ptr, ptr, ptr, %"struct.pbrt::SOA.296", ptr }
%"class.pbrt::WorkQueue.338" = type <{ %"struct.pbrt::SOA.339", %"struct.std::atomic.190", [4 x i8] }>
%"struct.pbrt::SOA.339" = type { i32, ptr, %"struct.pbrt::SOA.11", %"struct.pbrt::SOA.12", %"struct.pbrt::SOA.12", %"struct.pbrt::SOA.188", %"struct.pbrt::SOA.15", %"struct.pbrt::SOA.15", %"struct.pbrt::SOA.17", %"struct.pbrt::SOA.17", %"struct.pbrt::SOA.17", %"struct.pbrt::SOA.17", %"struct.pbrt::SOA.15", %"struct.pbrt::SOA.15", %"struct.pbrt::SOA.17", %"struct.pbrt::SOA.16", ptr, ptr, ptr, ptr, ptr, %"struct.pbrt::SOA.296", ptr }
%"class.pbrt::WorkQueue.335" = type <{ %"struct.pbrt::SOA.336", %"struct.std::atomic.190", [4 x i8] }>
%"struct.pbrt::SOA.336" = type { i32, ptr, %"struct.pbrt::SOA.11", %"struct.pbrt::SOA.12", %"struct.pbrt::SOA.12", %"struct.pbrt::SOA.188", %"struct.pbrt::SOA.15", %"struct.pbrt::SOA.15", %"struct.pbrt::SOA.17", %"struct.pbrt::SOA.17", %"struct.pbrt::SOA.17", %"struct.pbrt::SOA.17", %"struct.pbrt::SOA.15", %"struct.pbrt::SOA.15", %"struct.pbrt::SOA.17", %"struct.pbrt::SOA.16", ptr, ptr, ptr, ptr, ptr, %"struct.pbrt::SOA.296", ptr }
%"class.pbrt::WorkQueue.332" = type <{ %"struct.pbrt::SOA.333", %"struct.std::atomic.190", [4 x i8] }>
%"struct.pbrt::SOA.333" = type { i32, ptr, %"struct.pbrt::SOA.11", %"struct.pbrt::SOA.12", %"struct.pbrt::SOA.12", %"struct.pbrt::SOA.188", %"struct.pbrt::SOA.15", %"struct.pbrt::SOA.15", %"struct.pbrt::SOA.17", %"struct.pbrt::SOA.17", %"struct.pbrt::SOA.17", %"struct.pbrt::SOA.17", %"struct.pbrt::SOA.15", %"struct.pbrt::SOA.15", %"struct.pbrt::SOA.17", %"struct.pbrt::SOA.16", ptr, ptr, ptr, ptr, ptr, %"struct.pbrt::SOA.296", ptr }
%"class.pbrt::WorkQueue.329" = type <{ %"struct.pbrt::SOA.330", %"struct.std::atomic.190", [4 x i8] }>
%"struct.pbrt::SOA.330" = type { i32, ptr, %"struct.pbrt::SOA.11", %"struct.pbrt::SOA.12", %"struct.pbrt::SOA.12", %"struct.pbrt::SOA.188", %"struct.pbrt::SOA.15", %"struct.pbrt::SOA.15", %"struct.pbrt::SOA.17", %"struct.pbrt::SOA.17", %"struct.pbrt::SOA.17", %"struct.pbrt::SOA.17", %"struct.pbrt::SOA.15", %"struct.pbrt::SOA.15", %"struct.pbrt::SOA.17", %"struct.pbrt::SOA.16", ptr, ptr, ptr, ptr, ptr, %"struct.pbrt::SOA.296", ptr }
%"class.pbrt::WorkQueue.326" = type <{ %"struct.pbrt::SOA.327", %"struct.std::atomic.190", [4 x i8] }>
%"struct.pbrt::SOA.327" = type { i32, ptr, %"struct.pbrt::SOA.11", %"struct.pbrt::SOA.12", %"struct.pbrt::SOA.12", %"struct.pbrt::SOA.188", %"struct.pbrt::SOA.15", %"struct.pbrt::SOA.15", %"struct.pbrt::SOA.17", %"struct.pbrt::SOA.17", %"struct.pbrt::SOA.17", %"struct.pbrt::SOA.17", %"struct.pbrt::SOA.15", %"struct.pbrt::SOA.15", %"struct.pbrt::SOA.17", %"struct.pbrt::SOA.16", ptr, ptr, ptr, ptr, ptr, %"struct.pbrt::SOA.296", ptr }
%"class.pbrt::WorkQueue.323" = type <{ %"struct.pbrt::SOA.324", %"struct.std::atomic.190", [4 x i8] }>
%"struct.pbrt::SOA.324" = type { i32, ptr, %"struct.pbrt::SOA.11", %"struct.pbrt::SOA.12", %"struct.pbrt::SOA.12", %"struct.pbrt::SOA.188", %"struct.pbrt::SOA.15", %"struct.pbrt::SOA.15", %"struct.pbrt::SOA.17", %"struct.pbrt::SOA.17", %"struct.pbrt::SOA.17", %"struct.pbrt::SOA.17", %"struct.pbrt::SOA.15", %"struct.pbrt::SOA.15", %"struct.pbrt::SOA.17", %"struct.pbrt::SOA.16", ptr, ptr, ptr, ptr, ptr, %"struct.pbrt::SOA.296", ptr }
%"class.pbrt::WorkQueue.320" = type <{ %"struct.pbrt::SOA.321", %"struct.std::atomic.190", [4 x i8] }>
%"struct.pbrt::SOA.321" = type { i32, ptr, %"struct.pbrt::SOA.11", %"struct.pbrt::SOA.12", %"struct.pbrt::SOA.12", %"struct.pbrt::SOA.188", %"struct.pbrt::SOA.15", %"struct.pbrt::SOA.15", %"struct.pbrt::SOA.17", %"struct.pbrt::SOA.17", %"struct.pbrt::SOA.17", %"struct.pbrt::SOA.17", %"struct.pbrt::SOA.15", %"struct.pbrt::SOA.15", %"struct.pbrt::SOA.17", %"struct.pbrt::SOA.16", ptr, ptr, ptr, ptr, ptr, %"struct.pbrt::SOA.296", ptr }
%"class.pbrt::WorkQueue.317" = type <{ %"struct.pbrt::SOA.318", %"struct.std::atomic.190", [4 x i8] }>
%"struct.pbrt::SOA.318" = type { i32, ptr, %"struct.pbrt::SOA.11", %"struct.pbrt::SOA.12", %"struct.pbrt::SOA.12", %"struct.pbrt::SOA.188", %"struct.pbrt::SOA.15", %"struct.pbrt::SOA.15", %"struct.pbrt::SOA.17", %"struct.pbrt::SOA.17", %"struct.pbrt::SOA.17", %"struct.pbrt::SOA.17", %"struct.pbrt::SOA.15", %"struct.pbrt::SOA.15", %"struct.pbrt::SOA.17", %"struct.pbrt::SOA.16", ptr, ptr, ptr, ptr, ptr, %"struct.pbrt::SOA.296", ptr }
%"struct.pbrt::RGBFilm::Pixel" = type { [3 x double], double, [3 x %"class.pbrt::AtomicDouble"] }
%"class.pbrt::AtomicDouble" = type { %"struct.std::atomic.366" }
%"struct.std::atomic.366" = type { %"struct.std::__atomic_base.367" }
%"struct.std::__atomic_base.367" = type { i64 }
%"struct.pbrt::GBufferFilm::Pixel" = type { [3 x double], double, double, [3 x %"class.pbrt::AtomicDouble"], %"class.pbrt::Point3", float, float, %"class.pbrt::Normal3", %"class.pbrt::Normal3", %"class.pbrt::Point2.229", [3 x double], [3 x %"class.pbrt::VarianceEstimator"] }
%"class.pbrt::Normal3" = type { %"class.pbrt::Tuple3.368" }
%"class.pbrt::Tuple3.368" = type { float, float, float }
%"class.pbrt::Point2.229" = type { %"class.pbrt::Tuple2.230" }
%"class.pbrt::Tuple2.230" = type { float, float }
%"class.pbrt::VarianceEstimator" = type { float, float, i64 }
%"struct.pbrt::SpectralFilm::Pixel" = type { [3 x double], double, [3 x %"class.pbrt::AtomicDouble"], ptr, ptr, ptr }
%"class.pbrt::SampledSpectrum" = type { %"class.pstd::array.370" }
%"class.pstd::array.370" = type { [4 x float] }
%"class.pbrt::Vector3" = type { %"class.pbrt::Tuple3" }
%"class.pbrt::Tuple3" = type { float, float, float }
%class.anon.416 = type { ptr, ptr, ptr }
%"class.pbrt::LightSampleContext" = type { %"class.pbrt::Point3fi", %"class.pbrt::Normal3", %"class.pbrt::Normal3" }
%"class.pbrt::Point3fi" = type { %"class.pbrt::Point3.371" }
%"class.pbrt::Point3.371" = type { %"class.pbrt::Tuple3.372" }
%"class.pbrt::Tuple3.372" = type { %"class.pbrt::Interval", %"class.pbrt::Interval", %"class.pbrt::Interval" }
%"class.pbrt::Interval" = type { float, float }
%"class.pbrt::Ray" = type { %"class.pbrt::Point3", %"class.pbrt::Vector3", float, %"class.pbrt::Medium" }
%"class.pbrt::Medium" = type { %"class.pbrt::TaggedPointer.156" }
%"class.pbrt::TaggedPointer.156" = type { i64 }
%"struct.pbrt::EscapedRayWorkItem" = type { %"class.pbrt::Point3", %"class.pbrt::Vector3", i32, %"class.pbrt::SampledWavelengths", i32, %"class.pbrt::SampledSpectrum", i32, %"class.pbrt::SampledSpectrum", %"class.pbrt::SampledSpectrum", %"class.pbrt::LightSampleContext" }
%"class.pbrt::SampledWavelengths" = type { %"class.pstd::array.370", %"class.pstd::array.370" }
%"struct.pbrt::Float4" = type { [4 x float] }
%"class.pbrt::RGBIlluminantSpectrum" = type { float, %"class.pbrt::RGBSigmoidPolynomial", ptr }
%"class.pbrt::RGBSigmoidPolynomial" = type { float, float, float }
%"class.pbrt::Point2" = type { %"class.pbrt::Tuple2.157" }
%"class.pbrt::Tuple2.157" = type { i32, i32 }
%"class.pbrt::Half" = type { i16 }
%"struct.pbrt::WrapMode2D" = type { %"class.pstd::array.378" }
%"class.pstd::array.378" = type { [2 x i32] }
%"class.pstd::optional.394" = type { %"union.std::aligned_storage<16, 8>::type", i8, [7 x i8] }
%"struct.pbrt::AliasTable::Bin" = type { float, float, i32 }
%"class.pstd::optional.408" = type { %"union.std::aligned_storage<16, 8>::type", i8, [7 x i8] }
%"struct.pbrt::LightBVHNode" = type { %"class.pbrt::CompactLightBounds", %struct.anon.407, [4 x i8] }
%"class.pbrt::CompactLightBounds" = type { %"class.pbrt::OctahedralVector", float, %struct.anon.406, [2 x [3 x i16]] }
%"class.pbrt::OctahedralVector" = type { i16, i16 }
%struct.anon.406 = type { i32 }
%struct.anon.407 = type { i32 }
%"struct.pbrt::HitAreaLightWorkItem" = type { %"class.pbrt::Light", %"class.pbrt::Point3", %"class.pbrt::Normal3", %"class.pbrt::Point2.229", %"class.pbrt::Vector3", %"class.pbrt::SampledWavelengths", i32, %"class.pbrt::SampledSpectrum", %"class.pbrt::SampledSpectrum", %"class.pbrt::SampledSpectrum", %"class.pbrt::LightSampleContext", i32, i32 }
%"class.pbrt::UniversalTextureEvaluator" = type { i8 }
%"struct.pbrt::TextureEvalContext" = type { %"class.pbrt::Point3", %"class.pbrt::Vector3", %"class.pbrt::Vector3", %"class.pbrt::Normal3", %"class.pbrt::Point2.229", float, float, float, float, i32 }
%"class.pbrt::RGB" = type { float, float, float }
%"class.pstd::span.184" = type { ptr, i64 }

$_ZN4pbrt11ThreadLocalIN4pstd3pmr21polymorphic_allocatorISt4byteEEEC2EOSt8functionIFS5_vEE = comdat any

$_ZN4pbrt11ThreadLocalIN4pstd3pmr21polymorphic_allocatorISt4byteEEE3GetEv = comdat any

$_ZN4pbrt10BasicScene9GetCameraEv = comdat any

$_ZN4pbrt10BasicScene10GetSamplerEv = comdat any

$_ZN4pbrt9ErrorExitIJEEEvPKcDpOT_ = comdat any

$_ZN4pbrt3SOAINS_16PixelSampleStateEEC2EiN4pstd3pmr21polymorphic_allocatorISt4byteEE = comdat any

$_ZNSt3mapINSt7__cxx1112basic_stringIcSt11char_traitsIcESaIcEEEN4pbrt8MaterialESt4lessIS5_ESaISt4pairIKS5_S7_EEED2Ev = comdat any

$_ZNSt3mapIiPN4pstd6vectorIN4pbrt5LightENS0_3pmr21polymorphic_allocatorIS3_EEEESt4lessIiESaISt4pairIKiS8_EEED2Ev = comdat any

$_ZN4pstd6vectorIN4pbrt5LightENS_3pmr21polymorphic_allocatorIS2_EEED2Ev = comdat any

$_ZN4pbrt13NamedTexturesD2Ev = comdat any

$_ZNSt3mapINSt7__cxx1112basic_stringIcSt11char_traitsIcESaIcEEEN4pbrt6MediumESt4lessIS5_ESaISt4pairIKS5_S7_EEED2Ev = comdat any

$_ZN4pbrt11ThreadLocalIN4pstd3pmr21polymorphic_allocatorISt4byteEEED2Ev = comdat any

$_ZN4pstd6vectorImNS_3pmr21polymorphic_allocatorImEEED2Ev = comdat any

$_ZNSt6vectorINSt7__cxx1112basic_stringIcSt11char_traitsIcESaIcEEESaIS5_EED2Ev = comdat any

$__clang_call_terminate = comdat any

$_ZN4pbrt9ErrorExitIJRNS_11MixMaterialEEEEvPKcDpOT_ = comdat any

$_ZN4pbrt6detail8DispatchIRZNKS_8Material19CanEvaluateTexturesINS_21BasicTextureEvaluatorEEEbT_EUlS5_E_bNS_21CoatedDiffuseMaterialENS_23CoatedConductorMaterialENS_17ConductorMaterialENS_18DielectricMaterialENS_15DiffuseMaterialENS_27DiffuseTransmissionMaterialENS_12HairMaterialENS_16MeasuredMaterialEJNS_18SubsurfaceMaterialENS_22ThinDielectricMaterialENS_11MixMaterialEEvEET0_OS5_PKvi = comdat any

$_ZN4pbrt6detail8DispatchIRZNKS_8Material19CanEvaluateTexturesINS_21BasicTextureEvaluatorEEEbT_EUlS5_E_bNS_18SubsurfaceMaterialENS_22ThinDielectricMaterialENS_11MixMaterialEEET0_OS5_PKvi = comdat any

$_ZNK4pbrt23CoatedConductorMaterial19CanEvaluateTexturesINS_21BasicTextureEvaluatorEEEbT_ = comdat any

$_ZN4pbrt6detail21stringPrintfRecursiveIRNS_11MixMaterialEJEEEvPNSt7__cxx1112basic_stringIcSt11char_traitsIcESaIcEEEPKcOT_DpOT0_ = comdat any

$_ZN4pbrt6detail9formatOneIPKcEENSt9enable_ifIXntsr3stdE10is_class_vINSt5decayIT_E4typeEEENSt7__cxx1112basic_stringIcSt11char_traitsIcESaIcEEEE4typeES3_OS6_ = comdat any

$_ZN4pbrt8LogFatalIJPKcRS2_EEEvNS_8LogLevelES2_iS2_DpOT_ = comdat any

$_ZN4pbrt6detail21stringPrintfRecursiveIPKcJRS3_EEEvPNSt7__cxx1112basic_stringIcSt11char_traitsIcESaIcEEES3_OT_DpOT0_ = comdat any

$_ZN4pbrt6detail21stringPrintfRecursiveIRPKcJEEEvPNSt7__cxx1112basic_stringIcSt11char_traitsIcESaIcEEES3_OT_DpOT0_ = comdat any

$_ZN4pbrt6detail9formatOneIRPKcEENSt9enable_ifIXntsr3stdE10is_class_vINSt5decayIT_E4typeEEENSt7__cxx1112basic_stringIcSt11char_traitsIcESaIcEEEE4typeES3_OS7_ = comdat any

$_ZN4pbrt8AsyncJobINS_6CameraEE12TryGetResultEPSt5mutex = comdat any

$_ZN4pbrt8LogFatalIJRA4_KcEEEvNS_8LogLevelEPS1_iS5_DpOT_ = comdat any

$_ZN4pbrt6detail21stringPrintfRecursiveIRA4_KcJEEEvPNSt7__cxx1112basic_stringIcSt11char_traitsIcESaIcEEEPS2_OT_DpOT0_ = comdat any

$_ZN4pbrt6detail9formatOneIRA4_KcEENSt9enable_ifIXntsr3stdE10is_class_vINSt5decayIT_E4typeEEENSt7__cxx1112basic_stringIcSt11char_traitsIcESaIcEEEE4typeEPS2_OS7_ = comdat any

$_ZN4pbrt8AsyncJobINS_7SamplerEE12TryGetResultEPSt5mutex = comdat any

$_ZN4pbrt3SOAINS_14VisibleSurfaceEEC2EiN4pstd3pmr21polymorphic_allocatorISt4byteEE = comdat any

$_ZNSt8_Rb_treeINSt7__cxx1112basic_stringIcSt11char_traitsIcESaIcEEESt4pairIKS5_N4pbrt8MaterialEESt10_Select1stISA_ESt4lessIS5_ESaISA_EE8_M_eraseEPSt13_Rb_tree_nodeISA_E = comdat any

$_ZNSt8_Rb_treeIiSt4pairIKiPN4pstd6vectorIN4pbrt5LightENS2_3pmr21polymorphic_allocatorIS5_EEEEESt10_Select1stISB_ESt4lessIiESaISB_EE8_M_eraseEPSt13_Rb_tree_nodeISB_E = comdat any

$_ZNSt8_Rb_treeINSt7__cxx1112basic_stringIcSt11char_traitsIcESaIcEEESt4pairIKS5_N4pbrt15SpectrumTextureEESt10_Select1stISA_ESt4lessIS5_ESaISA_EE8_M_eraseEPSt13_Rb_tree_nodeISA_E = comdat any

$_ZNSt8_Rb_treeINSt7__cxx1112basic_stringIcSt11char_traitsIcESaIcEEESt4pairIKS5_N4pbrt12FloatTextureEESt10_Select1stISA_ESt4lessIS5_ESaISA_EE8_M_eraseEPSt13_Rb_tree_nodeISA_E = comdat any

$_ZNSt8_Rb_treeINSt7__cxx1112basic_stringIcSt11char_traitsIcESaIcEEESt4pairIKS5_N4pbrt6MediumEESt10_Select1stISA_ESt4lessIS5_ESaISA_EE8_M_eraseEPSt13_Rb_tree_nodeISA_E = comdat any

$_ZNSt6vectorIN4pstd8optionalIN4pbrt11ThreadLocalINS0_3pmr21polymorphic_allocatorISt4byteEEE5EntryEEESaISA_EED2Ev = comdat any

$_ZNSt7__cxx1112basic_stringIcSt11char_traitsIcESaIcEE12_M_constructIPKcEEvT_S8_St20forward_iterator_tag = comdat any

$_ZZNSt7__cxx1112basic_stringIcSt11char_traitsIcESaIcEE12_M_constructIPKcEEvT_S8_St20forward_iterator_tagEN6_GuardD2Ev = comdat any

$_ZN4pbrt8LogFatalIJRA8_KcRA17_S1_S3_RiS5_RmEEEvNS_8LogLevelEPS1_iS9_DpOT_ = comdat any

$_ZN4pbrt6detail21stringPrintfRecursiveIRA8_KcJRA17_S2_S4_RiS6_RmEEEvPNSt7__cxx1112basic_stringIcSt11char_traitsIcESaIcEEEPS2_OT_DpOT0_ = comdat any

$_ZN4pbrt6detail9formatOneIRA8_KcEENSt9enable_ifIXntsr3stdE10is_class_vINSt5decayIT_E4typeEEENSt7__cxx1112basic_stringIcSt11char_traitsIcESaIcEEEE4typeEPS2_OS7_ = comdat any

$_ZN4pbrt6detail21stringPrintfRecursiveIRA17_KcJRA8_S2_RiS4_RmEEEvPNSt7__cxx1112basic_stringIcSt11char_traitsIcESaIcEEEPS2_OT_DpOT0_ = comdat any

$_ZN4pbrt6detail9formatOneIRA17_KcEENSt9enable_ifIXntsr3stdE10is_class_vINSt5decayIT_E4typeEEENSt7__cxx1112basic_stringIcSt11char_traitsIcESaIcEEEE4typeEPS2_OS7_ = comdat any

$_ZN4pbrt6detail21stringPrintfRecursiveIRA8_KcJRiRA17_S2_RmEEEvPNSt7__cxx1112basic_stringIcSt11char_traitsIcESaIcEEEPS2_OT_DpOT0_ = comdat any

$_ZN4pbrt6detail21stringPrintfRecursiveIRiJRA17_KcRmEEEvPNSt7__cxx1112basic_stringIcSt11char_traitsIcESaIcEEEPS3_OT_DpOT0_ = comdat any

$_ZN4pbrt6detail34stringPrintfRecursiveWithPrecisionIRA17_KcJRmEEENSt9enable_ifIXntsr3stdE10is_class_vINSt5decayIT_E4typeEEEvE4typeEPNSt7__cxx1112basic_stringIcSt11char_traitsIcESaIcEEEPS2_RKSI_iOS8_DpOT0_ = comdat any

$_ZN4pbrt6detail9formatOneIRiEENSt9enable_ifIXntsr3stdE10is_class_vINSt5decayIT_E4typeEEENSt7__cxx1112basic_stringIcSt11char_traitsIcESaIcEEEE4typeEPKcOS5_ = comdat any

$_ZN4pbrt6detail21stringPrintfRecursiveIRA17_KcJRmEEEvPNSt7__cxx1112basic_stringIcSt11char_traitsIcESaIcEEEPS2_OT_DpOT0_ = comdat any

$_ZN4pbrt6detail21stringPrintfRecursiveIRmJEEEvPNSt7__cxx1112basic_stringIcSt11char_traitsIcESaIcEEEPKcOT_DpOT0_ = comdat any

$_ZN4pbrt6detail9formatOneIRmEENSt9enable_ifIXntsr3stdE10is_class_vINSt5decayIT_E4typeEEENSt7__cxx1112basic_stringIcSt11char_traitsIcESaIcEEEE4typeEPKcOS5_ = comdat any

$_ZN4pbrt6detail21stringPrintfRecursiveIRNS_14InternedStringEJEEEvPNSt7__cxx1112basic_stringIcSt11char_traitsIcESaIcEEEPKcOT_DpOT0_ = comdat any

$_ZN4pbrt6detail21stringPrintfRecursiveIRiJS2_EEEvPNSt7__cxx1112basic_stringIcSt11char_traitsIcESaIcEEEPKcOT_DpOT0_ = comdat any

$_ZN4pbrt6detail34stringPrintfRecursiveWithPrecisionIRiJEEENSt9enable_ifIXntsr3stdE10is_class_vINSt5decayIT_E4typeEEEvE4typeEPNSt7__cxx1112basic_stringIcSt11char_traitsIcESaIcEEEPKcRKSF_iOS5_DpOT0_ = comdat any

$_ZN4pbrt6detail21stringPrintfRecursiveIRiJEEEvPNSt7__cxx1112basic_stringIcSt11char_traitsIcESaIcEEEPKcOT_DpOT0_ = comdat any

$_ZN4pbrt3SOAINS_11RayWorkItemEEC2EiN4pstd3pmr21polymorphic_allocatorISt4byteEE = comdat any

$_ZN4pbrt3SOAINS_18LightSampleContextEEC2EiN4pstd3pmr21polymorphic_allocatorISt4byteEE = comdat any

$_ZN4pbrt3SOAINS_17ShadowRayWorkItemEEC2EiN4pstd3pmr21polymorphic_allocatorISt4byteEE = comdat any

$_ZN4pbrt3SOAINS_28GetBSSRDFAndProbeRayWorkItemEEC2EiN4pstd3pmr21polymorphic_allocatorISt4byteEE = comdat any

$_ZN4pbrt3SOAINS_25SubsurfaceScatterWorkItemEEC2EiN4pstd3pmr21polymorphic_allocatorISt4byteEE = comdat any

$_ZN4pbrt3SOAINS_15TabulatedBSSRDFEEC2EiN4pstd3pmr21polymorphic_allocatorISt4byteEE = comdat any

$_ZN4pbrt3SOAINS_21SubsurfaceInteractionEEC2EiN4pstd3pmr21polymorphic_allocatorISt4byteEE = comdat any

$_ZN4pbrt3SOAINS_18EscapedRayWorkItemEEC2EiN4pstd3pmr21polymorphic_allocatorISt4byteEE = comdat any

$_ZN4pbrt3SOAINS_20HitAreaLightWorkItemEEC2EiN4pstd3pmr21polymorphic_allocatorISt4byteEE = comdat any

$_ZN4pbrt14MultiWorkQueueINS_8TypePackIJNS_20MaterialEvalWorkItemINS_21CoatedDiffuseMaterialEEENS2_INS_23CoatedConductorMaterialEEENS2_INS_17ConductorMaterialEEENS2_INS_18DielectricMaterialEEENS2_INS_15DiffuseMaterialEEENS2_INS_27DiffuseTransmissionMaterialEEENS2_INS_12HairMaterialEEENS2_INS_16MeasuredMaterialEEENS2_INS_18SubsurfaceMaterialEEENS2_INS_22ThinDielectricMaterialEEENS2_INS_11MixMaterialEEEEEEEC2EiN4pstd3pmr21polymorphic_allocatorISt4byteEENSR_4spanIKbEE = comdat any

$_ZN4pbrt3SOAINS_20MaterialEvalWorkItemINS_21CoatedDiffuseMaterialEEEEC2EiN4pstd3pmr21polymorphic_allocatorISt4byteEE = comdat any

$_ZN4pbrt3SOAINS_20MaterialEvalWorkItemINS_23CoatedConductorMaterialEEEEC2EiN4pstd3pmr21polymorphic_allocatorISt4byteEE = comdat any

$_ZN4pbrt3SOAINS_20MaterialEvalWorkItemINS_17ConductorMaterialEEEEC2EiN4pstd3pmr21polymorphic_allocatorISt4byteEE = comdat any

$_ZN4pbrt3SOAINS_20MaterialEvalWorkItemINS_18DielectricMaterialEEEEC2EiN4pstd3pmr21polymorphic_allocatorISt4byteEE = comdat any

$_ZN4pbrt3SOAINS_20MaterialEvalWorkItemINS_15DiffuseMaterialEEEEC2EiN4pstd3pmr21polymorphic_allocatorISt4byteEE = comdat any

$_ZN4pbrt3SOAINS_20MaterialEvalWorkItemINS_27DiffuseTransmissionMaterialEEEEC2EiN4pstd3pmr21polymorphic_allocatorISt4byteEE = comdat any

$_ZN4pbrt3SOAINS_20MaterialEvalWorkItemINS_12HairMaterialEEEEC2EiN4pstd3pmr21polymorphic_allocatorISt4byteEE = comdat any

$_ZN4pbrt3SOAINS_20MaterialEvalWorkItemINS_16MeasuredMaterialEEEEC2EiN4pstd3pmr21polymorphic_allocatorISt4byteEE = comdat any

$_ZN4pbrt3SOAINS_20MaterialEvalWorkItemINS_18SubsurfaceMaterialEEEEC2EiN4pstd3pmr21polymorphic_allocatorISt4byteEE = comdat any

$_ZN4pbrt3SOAINS_20MaterialEvalWorkItemINS_22ThinDielectricMaterialEEEEC2EiN4pstd3pmr21polymorphic_allocatorISt4byteEE = comdat any

$_ZN4pbrt3SOAINS_20MaterialEvalWorkItemINS_11MixMaterialEEEEC2EiN4pstd3pmr21polymorphic_allocatorISt4byteEE = comdat any

$_ZN4pbrt3SOAINS_20MediumSampleWorkItemEEC2EiN4pstd3pmr21polymorphic_allocatorISt4byteEE = comdat any

$_ZN4pbrt3SOAINS_21MediumScatterWorkItemINS_15HGPhaseFunctionEEEEC2EiN4pstd3pmr21polymorphic_allocatorISt4byteEE = comdat any

$_ZN4pbrt6detail21stringPrintfRecursiveIRfJEEEvPNSt7__cxx1112basic_stringIcSt11char_traitsIcESaIcEEEPKcOT_DpOT0_ = comdat any

$_ZN4pbrt6detail9formatOneIRfEENSt9enable_ifIXntsr3stdE10is_class_vINSt5decayIT_E4typeEEENSt7__cxx1112basic_stringIcSt11char_traitsIcESaIcEEEE4typeEPKcOS5_ = comdat any

$_ZNSt17_Function_handlerIFvllEZN4pbrt11ParallelForEllSt8functionIFvlEEEUlllE_E9_M_invokeERKSt9_Any_dataOlSA_ = comdat any

$_ZNSt17_Function_handlerIFvllEZN4pbrt11ParallelForEllSt8functionIFvlEEEUlllE_E10_M_managerERSt9_Any_dataRKS7_St18_Manager_operation = comdat any

$_ZN4pbrt4Film10ResetPixelENS_6Point2IiEE = comdat any

$_ZNK4pbrt18ImageInfiniteLight2LeERKNS_3RayERKNS_18SampledWavelengthsE = comdat any

$_ZNK4pbrt9Transform12ApplyInverseIfEENS_7Vector3IT_EES4_ = comdat any

$_ZNK4pbrt21RGBIlluminantSpectrum6SampleERKNS_18SampledWavelengthsE = comdat any

$_ZNK4pbrt5Image10GetChannelENS_6Point2IiEEiNS_10WrapMode2DE = comdat any

$_ZN4pbrt16RemapPixelCoordsEPNS_6Point2IiEES1_NS_10WrapMode2DE = comdat any

$_ZN4pbrt8LogFatalIJRA47_KcEEEvNS_8LogLevelEPS1_iS5_DpOT_ = comdat any

$_ZN4pbrt6detail21stringPrintfRecursiveIRA47_KcJEEEvPNSt7__cxx1112basic_stringIcSt11char_traitsIcESaIcEEEPS2_OT_DpOT0_ = comdat any

$_ZN4pbrt6detail9formatOneIRA47_KcEENSt9enable_ifIXntsr3stdE10is_class_vINSt5decayIT_E4typeEEENSt7__cxx1112basic_stringIcSt11char_traitsIcESaIcEEEE4typeEPS2_OS7_ = comdat any

$_ZNK4pbrt17PowerLightSampler3PMFENS_5LightE = comdat any

$_ZN4pbrt8LogFatalIJRA26_KcEEEvNS_8LogLevelEPS1_iS5_DpOT_ = comdat any

$_ZN4pbrt6detail21stringPrintfRecursiveIRA26_KcJEEEvPNSt7__cxx1112basic_stringIcSt11char_traitsIcESaIcEEEPS2_OT_DpOT0_ = comdat any

$_ZN4pbrt6detail9formatOneIRA26_KcEENSt9enable_ifIXntsr3stdE10is_class_vINSt5decayIT_E4typeEEENSt7__cxx1112basic_stringIcSt11char_traitsIcESaIcEEEE4typeEPS2_OS7_ = comdat any

$_ZNK4pbrt15BVHLightSampler3PMFERKNS_18LightSampleContextENS_5LightE = comdat any

$_ZNK4pbrt18CompactLightBounds10ImportanceENS_6Point3IfEENS_7Normal3IfEERKNS_7Bounds3IfEE = comdat any

$_ZN4pbrt6detail8DispatchIRZNKS_5Light6PDF_LiENS_18LightSampleContextENS_7Vector3IfEEbEUlT_E_fNS_10PointLightENS_12DistantLightENS_15ProjectionLightENS_16GoniometricLightENS_9SpotLightENS_16DiffuseAreaLightENS_20UniformInfiniteLightENS_18ImageInfiniteLightEJNS_24PortalImageInfiniteLightEEvEET0_OS6_PKvi = comdat any

$_ZNK4pbrt16DiffuseAreaLight1LENS_6Point3IfEENS_7Normal3IfEENS_6Point2IfEENS_7Vector3IfEERKNS_18SampledWavelengthsE = comdat any

$_ZN4pbrt6detail21stringPrintfRecursiveIRA12_KcJRKmEEEvPNSt7__cxx1112basic_stringIcSt11char_traitsIcESaIcEEEPS2_OT_DpOT0_ = comdat any

$_ZN4pbrt6detail9formatOneIRA12_KcEENSt9enable_ifIXntsr3stdE10is_class_vINSt5decayIT_E4typeEEENSt7__cxx1112basic_stringIcSt11char_traitsIcESaIcEEEE4typeEPS2_OS7_ = comdat any

$_ZN4pbrt6detail21stringPrintfRecursiveIRKmJEEEvPNSt7__cxx1112basic_stringIcSt11char_traitsIcESaIcEEEPKcOT_DpOT0_ = comdat any

$_ZN4pbrt6detail9formatOneIRKmEENSt9enable_ifIXntsr3stdE10is_class_vINSt5decayIT_E4typeEEENSt7__cxx1112basic_stringIcSt11char_traitsIcESaIcEEEE4typeEPKcOS6_ = comdat any

$_ZN4pbrt6detail21stringPrintfRecursiveINSt7__cxx1112basic_stringIcSt11char_traitsIcESaIcEEEJRKmEEEvPS7_PKcOT_DpOT0_ = comdat any

$_ZN4pbrt3MulINS_3RGBELi3ES1_EET_RKNS_12SquareMatrixIXT0_EEERKT1_ = comdat any

$_ZTSN4pbrt11MixMaterialE = comdat any

$_ZTSN4pbrt14InternedStringE = comdat any

$_ZTSZN4pbrt11ParallelForEllSt8functionIFvlEEEUlllE_ = comdat any

$_ZTIZN4pbrt11ParallelForEllSt8functionIFvlEEEUlllE_ = comdat any

$_ZTSNSt7__cxx1112basic_stringIcSt11char_traitsIcESaIcEEE = comdat any

@_ZN4pbrtL29STATS_REGredundantBufferBytesE = internal global %"class.pbrt::StatRegisterer" zeroinitializer, align 1
@_ZN4pbrtL25STATS_REGnBufferCacheHitsE = internal global %"class.pbrt::StatRegisterer" zeroinitializer, align 1
@_ZN4pbrtL24STATS_REGprimitiveMemoryE = internal global %"class.pbrt::StatRegisterer" zeroinitializer, align 1
@_ZStL8__ioinit = internal global %"class.std::ios_base::Init" zeroinitializer, align 1
@__dso_handle = external hidden global i8
@_ZN4pbrtL28STATS_REGpathIntegratorBytesE = internal global %"class.pbrt::StatRegisterer" zeroinitializer, align 1
@_ZN4pbrt7logging8logLevelE = external local_unnamed_addr global i32, align 4
@.str = private unnamed_addr constant [127 x i8] c"generated/home/dtcxzyw/WorkSpace/Projects/compilers/llvm-opt-benchmark/bench/pbrt-v4/pbrt-v4/src/pbrt/wavefront/integrator.cpp\00", align 1
@.str.7 = private unnamed_addr constant [28 x i8] c"Starting to create textures\00", align 1
@.str.8 = private unnamed_addr constant [23 x i8] c"Done creating textures\00", align 1
@.str.9 = private unnamed_addr constant [26 x i8] c"Starting to create lights\00", align 1
@.str.10 = private unnamed_addr constant [21 x i8] c"Done creating lights\00", align 1
@.str.11 = private unnamed_addr constant [29 x i8] c"Starting to create materials\00", align 1
@.str.12 = private unnamed_addr constant [28 x i8] c"Finished creating materials\00", align 1
@_ZN4pbrt7OptionsE = external local_unnamed_addr global ptr, align 8
@.str.13 = private unnamed_addr constant [64 x i8] c"Options->useGPU was set without PBRT_BUILD_GPU_RENDERER enabled\00", align 1
@.str.14 = private unnamed_addr constant [27 x i8] c"No light sources specified\00", align 1
@.str.15 = private unnamed_addr constant [33 x i8] c"Starting to create light sampler\00", align 1
@.str.16 = private unnamed_addr constant [13 x i8] c"lightsampler\00", align 1
@.str.17 = private unnamed_addr constant [4 x i8] c"bvh\00", align 1
@.str.18 = private unnamed_addr constant [8 x i8] c"uniform\00", align 1
@.str.19 = private unnamed_addr constant [32 x i8] c"Finished creating light sampler\00", align 1
@.str.20 = private unnamed_addr constant [5 x i8] c"path\00", align 1
@.str.21 = private unnamed_addr constant [8 x i8] c"volpath\00", align 1
@.str.22 = private unnamed_addr constant [97 x i8] c"Ignoring specified integrator \22%s\22: the wavefront integrator always uses a \22volpath\22 integrator.\00", align 1
@.str.23 = private unnamed_addr constant [11 x i8] c"regularize\00", align 1
@.str.24 = private unnamed_addr constant [9 x i8] c"maxdepth\00", align 1
@.str.25 = private unnamed_addr constant [59 x i8] c"The wavefront integrator does not support --force-diffuse.\00", align 1
@.str.26 = private unnamed_addr constant [66 x i8] c"The wavefront integrator does not support --write-partial-images.\00", align 1
@.str.27 = private unnamed_addr constant [56 x i8] c"The wavefront integrator does not support --pixelstats.\00", align 1
@.str.28 = private unnamed_addr constant [65 x i8] c"The wavefront integrator does not support --mse-reference-image.\00", align 1
@.str.29 = private unnamed_addr constant [63 x i8] c"The wavefront integrator does not support --mse-reference-out.\00", align 1
@.str.30 = private unnamed_addr constant [48 x i8] c"Will render in %d passes %d scanlines per pass\0A\00", align 1
@.str.31 = private unnamed_addr constant [68 x i8] c"--interactive and --display-server cannot be used at the same time.\00", align 1
@.str.32 = private unnamed_addr constant [60 x i8] c"Expected either one or two integer values for --debugstart.\00", align 1
@.str.33 = private unnamed_addr constant [10 x i8] c"Rendering\00", align 1
@.str.34 = private unnamed_addr constant [38 x i8] c"Starting to submit work for sample %d\00", align 1
@.str.39 = private unnamed_addr constant [39 x i8] c"Current camera transform:\0ATransform [ \00", align 1
@.str.40 = private unnamed_addr constant [4 x i8] c"%f \00", align 1
@.str.41 = private unnamed_addr constant [3 x i8] c"]\0A\00", align 1
@stdout = external local_unnamed_addr global ptr, align 8
@.str.46 = private unnamed_addr constant [31 x i8] c"    %-42s               %12lu\0A\00", align 1
@.str.47 = private unnamed_addr constant [12 x i8] c"Camera rays\00", align 1
@.str.48 = private unnamed_addr constant [26 x i8] c"Indirect rays, depth %-3d\00", align 1
@.str.49 = private unnamed_addr constant [24 x i8] c"Shadow rays, depth %-3d\00", align 1
@.str.50 = private unnamed_addr constant [2 x i8] c"R\00", align 1
@.str.51 = private unnamed_addr constant [2 x i8] c"G\00", align 1
@.str.52 = private unnamed_addr constant [2 x i8] c"B\00", align 1
@.str.54 = private unnamed_addr constant [42 x i8] c"Memory/Redundant vertex and index buffers\00", align 1
@_ZN4pbrtL20redundantBufferBytesE = internal thread_local global i64 0, align 8
@.str.55 = private unnamed_addr constant [27 x i8] c"Geometry/Buffer cache hits\00", align 1
@_ZN4pbrtL16nBufferCacheHitsE = internal thread_local global i64 0, align 8
@_ZN4pbrtL19nBufferCacheLookupsE = internal thread_local global i64 0, align 8
@.str.56 = private unnamed_addr constant [18 x i8] c"Memory/Primitives\00", align 1
@_ZN4pbrtL15primitiveMemoryE = internal thread_local global i64 0, align 8
@.str.57 = private unnamed_addr constant [40 x i8] c"Memory/Wavefront integrator pixel state\00", align 1
@_ZN4pbrtL19pathIntegratorBytesE = internal thread_local global i64 0, align 8
@.str.58 = private unnamed_addr constant [164 x i8] c"\22mix\22 material has a texture that can't be evaluated with the BasicTextureEvaluator, which is all that is currently supported int the wavefront renderer--sorry! %s\00", align 1
@.str.59 = private unnamed_addr constant [115 x i8] c"generated/home/dtcxzyw/WorkSpace/Projects/compilers/llvm-opt-benchmark/bench/pbrt-v4/pbrt-v4/src/pbrt/util/print.h\00", align 1
@.str.60 = private unnamed_addr constant [42 x i8] c"Non-integral type provided for %* format.\00", align 1
@.str.61 = private unnamed_addr constant [39 x i8] c"Non-integral type passed to %d format.\00", align 1
@.str.62 = private unnamed_addr constant [32 x i8] c"Excess values passed to Printf.\00", align 1
@.str.63 = private unnamed_addr constant [54 x i8] c"Printf: Non-basic type %s passed for format string %s\00", align 1
@_ZTVN10__cxxabiv117__class_type_infoE = external global [0 x ptr]
@_ZTSN4pbrt11MixMaterialE = linkonce_odr dso_local constant [21 x i8] c"N4pbrt11MixMaterialE\00", comdat, align 1
@.str.64 = private unnamed_addr constant [114 x i8] c"generated/home/dtcxzyw/WorkSpace/Projects/compilers/llvm-opt-benchmark/bench/pbrt-v4/pbrt-v4/src/pbrt/materials.h\00", align 1
@.str.65 = private unnamed_addr constant [20 x i8] c"Shouldn't be called\00", align 1
@.str.66 = private unnamed_addr constant [110 x i8] c"generated/home/dtcxzyw/WorkSpace/Projects/compilers/llvm-opt-benchmark/bench/pbrt-v4/pbrt-v4/src/pbrt/scene.h\00", align 1
@.str.67 = private unnamed_addr constant [29 x i8] c"Retrieved Camera from future\00", align 1
@.str.68 = private unnamed_addr constant [114 x i8] c"generated/home/dtcxzyw/WorkSpace/Projects/compilers/llvm-opt-benchmark/bench/pbrt-v4/pbrt-v4/src/pbrt/util/pstd.h\00", align 1
@.str.69 = private unnamed_addr constant [17 x i8] c"Check failed: %s\00", align 1
@.str.70 = private unnamed_addr constant [4 x i8] c"set\00", align 1
@.str.71 = private unnamed_addr constant [30 x i8] c"Retrieved Sampler from future\00", align 1
@"_ZTSZN4pbrt23WavefrontPathIntegratorC1EPN4pstd3pmr15memory_resourceERNS_10BasicSceneEE3$_0" = internal constant [87 x i8] c"ZN4pbrt23WavefrontPathIntegratorC1EPN4pstd3pmr15memory_resourceERNS_10BasicSceneEE3$_0\00", align 1
@"_ZTIZN4pbrt23WavefrontPathIntegratorC1EPN4pstd3pmr15memory_resourceERNS_10BasicSceneEE3$_0" = internal constant { ptr, ptr } { ptr getelementptr inbounds (ptr, ptr @_ZTVN10__cxxabiv117__class_type_infoE, i64 2), ptr @"_ZTSZN4pbrt23WavefrontPathIntegratorC1EPN4pstd3pmr15memory_resourceERNS_10BasicSceneEE3$_0" }, align 8
@.str.73 = private unnamed_addr constant [49 x i8] c"cannot create std::vector larger than max_size()\00", align 1
@.str.74 = private unnamed_addr constant [118 x i8] c"generated/home/dtcxzyw/WorkSpace/Projects/compilers/llvm-opt-benchmark/bench/pbrt-v4/pbrt-v4/src/pbrt/util/parallel.h\00", align 1
@.str.75 = private unnamed_addr constant [44 x i8] c"Check failed: %s < %s with %s = %s, %s = %s\00", align 1
@.str.76 = private unnamed_addr constant [8 x i8] c"++tries\00", align 1
@.str.77 = private unnamed_addr constant [17 x i8] c"hashTable.size()\00", align 1
@.str.78 = private unnamed_addr constant [4 x i8] c"MEH\00", align 1
@.str.79 = private unnamed_addr constant [3 x i8] c"lu\00", align 1
@.str.80 = private unnamed_addr constant [2 x i8] c"d\00", align 1
@_ZTSN4pbrt14InternedStringE = linkonce_odr dso_local constant [24 x i8] c"N4pbrt14InternedStringE\00", comdat, align 1
@.str.81 = private unnamed_addr constant [71 x i8] c"Wavefront rendering failed at sample %d. Debug with \22--debugstart %d\22\0A\00", align 1
@"_ZTSZN4pbrt23WavefrontPathIntegrator6RenderEvE3$_0" = internal constant [47 x i8] c"ZN4pbrt23WavefrontPathIntegrator6RenderEvE3$_0\00", align 1
@"_ZTIZN4pbrt23WavefrontPathIntegrator6RenderEvE3$_0" = internal constant { ptr, ptr } { ptr getelementptr inbounds (ptr, ptr @_ZTVN10__cxxabiv117__class_type_infoE, i64 2), ptr @"_ZTSZN4pbrt23WavefrontPathIntegrator6RenderEvE3$_0" }, align 8
@.str.82 = private unnamed_addr constant [125 x i8] c"generated/home/dtcxzyw/WorkSpace/Projects/compilers/llvm-opt-benchmark/bench/pbrt-v4/pbrt-v4/src/pbrt/wavefront/integrator.h\00", align 1
@.str.83 = private unnamed_addr constant [3 x i8] c"%f\00", align 1
@.str.84 = private unnamed_addr constant [3 x i8] c"%s\00", align 1
@_ZTSZN4pbrt11ParallelForEllSt8functionIFvlEEEUlllE_ = linkonce_odr dso_local constant [48 x i8] c"ZN4pbrt11ParallelForEllSt8functionIFvlEEEUlllE_\00", comdat, align 1
@_ZTIZN4pbrt11ParallelForEllSt8functionIFvlEEEUlllE_ = linkonce_odr dso_local constant { ptr, ptr } { ptr getelementptr inbounds (ptr, ptr @_ZTVN10__cxxabiv117__class_type_infoE, i64 2), ptr @_ZTSZN4pbrt11ParallelForEllSt8functionIFvlEEEUlllE_ }, comdat, align 8
@"_ZTSZN4pbrt23WavefrontPathIntegrator6RenderEvE3$_5" = internal constant [47 x i8] c"ZN4pbrt23WavefrontPathIntegrator6RenderEvE3$_5\00", align 1
@"_ZTIZN4pbrt23WavefrontPathIntegrator6RenderEvE3$_5" = internal constant { ptr, ptr } { ptr getelementptr inbounds (ptr, ptr @_ZTVN10__cxxabiv117__class_type_infoE, i64 2), ptr @"_ZTSZN4pbrt23WavefrontPathIntegrator6RenderEvE3$_5" }, align 8
@.str.85 = private unnamed_addr constant [124 x i8] c"generated/home/dtcxzyw/WorkSpace/Projects/compilers/llvm-opt-benchmark/bench/pbrt-v4/pbrt-v4/src/pbrt/wavefront/workqueue.h\00", align 1
@.str.86 = private unnamed_addr constant [115 x i8] c"generated/home/dtcxzyw/WorkSpace/Projects/compilers/llvm-opt-benchmark/bench/pbrt-v4/pbrt-v4/src/pbrt/util/image.h\00", align 1
@.str.87 = private unnamed_addr constant [22 x i8] c"Unhandled PixelFormat\00", align 1
@.str.88 = private unnamed_addr constant [47 x i8] c"wrapMode.wrap[1] == WrapMode::OctahedralSphere\00", align 1
@.str.89 = private unnamed_addr constant [24 x i8] c"Unhandled WrapMode mode\00", align 1
@.str.90 = private unnamed_addr constant [120 x i8] c"generated/home/dtcxzyw/WorkSpace/Projects/compilers/llvm-opt-benchmark/bench/pbrt-v4/pbrt-v4/src/pbrt/util/containers.h\00", align 1
@.str.91 = private unnamed_addr constant [26 x i8] c"table[offset].has_value()\00", align 1
@"_ZTSZN4pbrt12ForAllQueuedIZNS_23WavefrontPathIntegrator17HandleEscapedRaysEvE3$_0NS_18EscapedRayWorkItemEEEvPKcPKNS_9WorkQueueIT0_EEiOT_EUliE_" = internal constant [139 x i8] c"ZN4pbrt12ForAllQueuedIZNS_23WavefrontPathIntegrator17HandleEscapedRaysEvE3$_0NS_18EscapedRayWorkItemEEEvPKcPKNS_9WorkQueueIT0_EEiOT_EUliE_\00", align 1
@"_ZTIZN4pbrt12ForAllQueuedIZNS_23WavefrontPathIntegrator17HandleEscapedRaysEvE3$_0NS_18EscapedRayWorkItemEEEvPKcPKNS_9WorkQueueIT0_EEiOT_EUliE_" = internal constant { ptr, ptr } { ptr getelementptr inbounds (ptr, ptr @_ZTVN10__cxxabiv117__class_type_infoE, i64 2), ptr @"_ZTSZN4pbrt12ForAllQueuedIZNS_23WavefrontPathIntegrator17HandleEscapedRaysEvE3$_0NS_18EscapedRayWorkItemEEEvPKcPKNS_9WorkQueueIT0_EEiOT_EUliE_" }, align 8
@.str.92 = private unnamed_addr constant [111 x i8] c"generated/home/dtcxzyw/WorkSpace/Projects/compilers/llvm-opt-benchmark/bench/pbrt-v4/pbrt-v4/src/pbrt/lights.h\00", align 1
@.str.93 = private unnamed_addr constant [26 x i8] c"Type() == LightType::Area\00", align 1
@"_ZTSZN4pbrt12ForAllQueuedIZNS_23WavefrontPathIntegrator26HandleEmissiveIntersectionEvE3$_0NS_20HitAreaLightWorkItemEEEvPKcPKNS_9WorkQueueIT0_EEiOT_EUliE_" = internal constant [150 x i8] c"ZN4pbrt12ForAllQueuedIZNS_23WavefrontPathIntegrator26HandleEmissiveIntersectionEvE3$_0NS_20HitAreaLightWorkItemEEEvPKcPKNS_9WorkQueueIT0_EEiOT_EUliE_\00", align 1
@"_ZTIZN4pbrt12ForAllQueuedIZNS_23WavefrontPathIntegrator26HandleEmissiveIntersectionEvE3$_0NS_20HitAreaLightWorkItemEEEvPKcPKNS_9WorkQueueIT0_EEiOT_EUliE_" = internal constant { ptr, ptr } { ptr getelementptr inbounds (ptr, ptr @_ZTVN10__cxxabiv117__class_type_infoE, i64 2), ptr @"_ZTSZN4pbrt12ForAllQueuedIZNS_23WavefrontPathIntegrator26HandleEmissiveIntersectionEvE3$_0NS_20HitAreaLightWorkItemEEEvPKcPKNS_9WorkQueueIT0_EEiOT_EUliE_" }, align 8
@_ZTSNSt7__cxx1112basic_stringIcSt11char_traitsIcESaIcEEE = linkonce_odr dso_local constant [53 x i8] c"NSt7__cxx1112basic_stringIcSt11char_traitsIcESaIcEEE\00", comdat, align 1
@"_ZTSZN4pbrt23WavefrontPathIntegrator18StartDisplayThreadEvE3$_0" = internal constant [60 x i8] c"ZN4pbrt23WavefrontPathIntegrator18StartDisplayThreadEvE3$_0\00", align 1
@"_ZTIZN4pbrt23WavefrontPathIntegrator18StartDisplayThreadEvE3$_0" = internal constant { ptr, ptr } { ptr getelementptr inbounds (ptr, ptr @_ZTVN10__cxxabiv117__class_type_infoE, i64 2), ptr @"_ZTSZN4pbrt23WavefrontPathIntegrator18StartDisplayThreadEvE3$_0" }, align 8
@"_ZTSZN4pbrt23WavefrontPathIntegrator25UpdateFramebufferFromFilmENS_7Bounds2IiEEfPNS_3RGBEE3$_0" = internal constant [91 x i8] c"ZN4pbrt23WavefrontPathIntegrator25UpdateFramebufferFromFilmENS_7Bounds2IiEEfPNS_3RGBEE3$_0\00", align 1
@"_ZTIZN4pbrt23WavefrontPathIntegrator25UpdateFramebufferFromFilmENS_7Bounds2IiEEfPNS_3RGBEE3$_0" = internal constant { ptr, ptr } { ptr getelementptr inbounds (ptr, ptr @_ZTVN10__cxxabiv117__class_type_infoE, i64 2), ptr @"_ZTSZN4pbrt23WavefrontPathIntegrator25UpdateFramebufferFromFilmENS_7Bounds2IiEEfPNS_3RGBEE3$_0" }, align 8
@llvm.global_ctors = appending global [1 x { i32, ptr, ptr }] [{ i32, ptr, ptr } { i32 65535, ptr @_GLOBAL__sub_I_integrator.cpp, ptr null }]

@_ZN4pbrt23WavefrontPathIntegratorC1EPN4pstd3pmr15memory_resourceERNS_10BasicSceneE = dso_local unnamed_addr alias void (ptr, ptr, ptr), ptr @_ZN4pbrt23WavefrontPathIntegratorC2EPN4pstd3pmr15memory_resourceERNS_10BasicSceneE
@_ZN4pbrt23WavefrontPathIntegrator5StatsC1EiN4pstd3pmr21polymorphic_allocatorISt4byteEE = dso_local unnamed_addr alias void (ptr, i32, ptr), ptr @_ZN4pbrt23WavefrontPathIntegrator5StatsC2EiN4pstd3pmr21polymorphic_allocatorISt4byteEE

declare void @_ZN4pbrt14StatRegistererC1EPFvRNS_16StatsAccumulatorEEPFvNS_6Point2IiEEiRNS_21PixelStatsAccumulatorEE(ptr noundef nonnull align 1 dereferenceable(1), ptr noundef, ptr noundef) unnamed_addr #0

declare void @_ZNSt8ios_base4InitC1Ev(ptr noundef nonnull align 1 dereferenceable(1)) unnamed_addr #0

; Function Attrs: nounwind
declare void @_ZNSt8ios_base4InitD1Ev(ptr noundef nonnull align 1 dereferenceable(1)) unnamed_addr #1

; Function Attrs: nofree nounwind
declare i32 @__cxa_atexit(ptr, ptr, ptr) local_unnamed_addr #2

; Function Attrs: mustprogress uwtable
define dso_local void @_ZN4pbrt23WavefrontPathIntegratorC2EPN4pstd3pmr15memory_resourceERNS_10BasicSceneE(ptr noundef nonnull align 8 dereferenceable(648) %this, ptr noundef %memoryResource, ptr noundef nonnull align 8 dereferenceable(1520) %scene) unnamed_addr #3 align 2 personality ptr @__gxx_personality_v0 {
entry:
  %ref.tmp.i.i.i = alloca %"class.pbrt::WorkQueue.355", align 8
  %s.i = alloca %"class.std::__cxx11::basic_string", align 8
  %ref.tmp.i202 = alloca %"class.std::__cxx11::basic_string", align 8
  %ref.tmp.i = alloca %"class.std::__cxx11::basic_string", align 8
  %threadAllocators = alloca %"class.pbrt::ThreadLocal", align 8
  %ref.tmp = alloca %"class.std::function", align 8
  %media = alloca %"class.std::map", align 8
  %textures = alloca %"struct.pbrt::NamedTextures", align 8
  %allLights = alloca %"class.pstd::vector", align 8
  %shapeIndexToAreaLights = alloca %"class.std::map.113", align 8
  %ref.tmp118 = alloca %"class.std::vector.121", align 8
  %namedMaterials = alloca %"class.std::map.128", align 8
  %materials = alloca %"class.std::vector.133", align 8
  %agg.tmp = alloca %"class.pbrt::Material", align 8
  %agg.tmp197 = alloca %"class.pbrt::Material", align 8
  %ref.tmp212 = alloca %"class.pbrt::Camera", align 8
  %ref.tmp229 = alloca %"class.pbrt::Sampler", align 8
  %light = alloca %"class.pbrt::Light", align 8
  %ref.tmp253 = alloca %"class.pbrt::Bounds3", align 4
  %lightSamplerName = alloca %"class.std::__cxx11::basic_string", align 8
  %ref.tmp291 = alloca %"class.std::__cxx11::basic_string", align 8
  %ref.tmp292 = alloca %"class.std::allocator.96", align 1
  %ref.tmp295 = alloca %"class.std::__cxx11::basic_string", align 8
  %ref.tmp296 = alloca %"class.std::allocator.96", align 1
  %ref.tmp311 = alloca %"class.pbrt::LightSampler", align 8
  %ref.tmp338 = alloca %"class.std::__cxx11::basic_string", align 8
  %ref.tmp339 = alloca %"class.std::allocator.96", align 1
  %ref.tmp350 = alloca %"class.std::__cxx11::basic_string", align 8
  %ref.tmp351 = alloca %"class.std::allocator.96", align 1
  %nPasses = alloca i32, align 4
  %ref.tmp412 = alloca %"struct.pbrt::SOA", align 8
  %haveBasicEvalMaterial = getelementptr inbounds i8, ptr %this, i64 3
  %haveUniversalEvalMaterial = getelementptr inbounds i8, ptr %this, i64 15
  %memoryResource2 = getelementptr inbounds i8, ptr %this, i64 40
  tail call void @llvm.memset.p0.i64(ptr noundef nonnull align 1 dereferenceable(24) %haveBasicEvalMaterial, i8 0, i64 24, i1 false)
  store ptr %memoryResource, ptr %memoryResource2, align 8
  %filter = getelementptr inbounds i8, ptr %this, i64 48
  %film = getelementptr inbounds i8, ptr %this, i64 56
  %sampler = getelementptr inbounds i8, ptr %this, i64 64
  %camera = getelementptr inbounds i8, ptr %this, i64 72
  %lightSampler = getelementptr inbounds i8, ptr %this, i64 88
  store i64 0, ptr %lightSampler, align 8
  %pixelSampleState = getelementptr inbounds i8, ptr %this, i64 120
  %lambda4.i.i = getelementptr inbounds i8, ptr %this, i64 168
  tail call void @llvm.memset.p0.i64(ptr noundef nonnull align 8 dereferenceable(32) %lambda4.i.i, i8 0, i64 32, i1 false)
  %ptr4.i.i = getelementptr inbounds i8, ptr %this, i64 208
  tail call void @llvm.memset.p0.i64(ptr noundef nonnull align 8 dereferenceable(16) %ptr4.i.i, i8 0, i64 16, i1 false)
  %ptr4.i1.i = getelementptr inbounds i8, ptr %this, i64 232
  tail call void @llvm.memset.p0.i64(ptr noundef nonnull align 8 dereferenceable(16) %ptr4.i1.i, i8 0, i64 16, i1 false)
  %ptr4.i.i.i = getelementptr inbounds i8, ptr %this, i64 464
  tail call void @llvm.memset.p0.i64(ptr noundef nonnull align 8 dereferenceable(16) %ptr4.i.i.i, i8 0, i64 16, i1 false)
  %aggregate = getelementptr inbounds i8, ptr %this, i64 536
  %mediumSampleQueue = getelementptr inbounds i8, ptr %this, i64 544
  %mediumScatterQueue = getelementptr inbounds i8, ptr %this, i64 552
  %escapedRayQueue = getelementptr inbounds i8, ptr %this, i64 560
  %hitAreaLightQueue = getelementptr inbounds i8, ptr %this, i64 568
  %basicEvalMaterialQueue = getelementptr inbounds i8, ptr %this, i64 576
  %universalEvalMaterialQueue = getelementptr inbounds i8, ptr %this, i64 584
  %shadowRayQueue = getelementptr inbounds i8, ptr %this, i64 592
  %bssrdfEvalQueue = getelementptr inbounds i8, ptr %this, i64 600
  %subsurfaceScatterQueue = getelementptr inbounds i8, ptr %this, i64 608
  %exitCopyThread = getelementptr inbounds i8, ptr %this, i64 632
  tail call void @llvm.memset.p0.i64(ptr noundef nonnull align 8 dereferenceable(32) %filter, i8 0, i64 32, i1 false)
  tail call void @llvm.memset.p0.i64(ptr noundef nonnull align 8 dereferenceable(96) %aggregate, i8 0, i64 96, i1 false)
  %call = tail call noalias noundef nonnull dereferenceable(1) ptr @_Znwm(i64 noundef 1) #25
  store i8 0, ptr %call, align 1
  store ptr %call, ptr %exitCopyThread, align 8
  %_M_manager.i.i = getelementptr inbounds i8, ptr %ref.tmp, i64 16
  %_M_invoker.i = getelementptr inbounds i8, ptr %ref.tmp, i64 24
  %0 = getelementptr inbounds i8, ptr %ref.tmp, i64 8
  store i64 0, ptr %0, align 8
  %1 = ptrtoint ptr %memoryResource to i64
  store i64 %1, ptr %ref.tmp, align 8
  store ptr @"_ZNSt17_Function_handlerIFN4pstd3pmr21polymorphic_allocatorISt4byteEEvEZN4pbrt23WavefrontPathIntegratorC1EPNS1_15memory_resourceERNS6_10BasicSceneEE3$_0E9_M_invokeERKSt9_Any_data", ptr %_M_invoker.i, align 8
  store ptr @"_ZNSt17_Function_handlerIFN4pstd3pmr21polymorphic_allocatorISt4byteEEvEZN4pbrt23WavefrontPathIntegratorC1EPNS1_15memory_resourceERNS6_10BasicSceneEE3$_0E10_M_managerERSt9_Any_dataRKSE_St18_Manager_operation", ptr %_M_manager.i.i, align 8
  invoke void @_ZN4pbrt11ThreadLocalIN4pstd3pmr21polymorphic_allocatorISt4byteEEEC2EOSt8functionIFS5_vEE(ptr noundef nonnull align 8 dereferenceable(112) %threadAllocators, ptr noundef nonnull align 8 dereferenceable(32) %ref.tmp)
          to label %invoke.cont unwind label %lpad

invoke.cont:                                      ; preds = %entry
  %2 = load ptr, ptr %_M_manager.i.i, align 8
  %tobool.not.i.i = icmp eq ptr %2, null
  br i1 %tobool.not.i.i, label %_ZNSt8functionIFN4pstd3pmr21polymorphic_allocatorISt4byteEEvEED2Ev.exit, label %if.then.i.i

if.then.i.i:                                      ; preds = %invoke.cont
  %call.i.i = invoke noundef zeroext i1 %2(ptr noundef nonnull align 8 dereferenceable(16) %ref.tmp, ptr noundef nonnull align 8 dereferenceable(16) %ref.tmp, i32 noundef 3)
          to label %_ZNSt8functionIFN4pstd3pmr21polymorphic_allocatorISt4byteEEvEED2Ev.exit unwind label %terminate.lpad.i.i

terminate.lpad.i.i:                               ; preds = %if.then.i.i
  %3 = landingpad { ptr, i32 }
          catch ptr null
  %4 = extractvalue { ptr, i32 } %3, 0
  call void @__clang_call_terminate(ptr %4) #26
  unreachable

_ZNSt8functionIFN4pstd3pmr21polymorphic_allocatorISt4byteEEvEED2Ev.exit: ; preds = %invoke.cont, %if.then.i.i
  %call6 = invoke noundef nonnull align 8 dereferenceable(8) ptr @_ZN4pbrt11ThreadLocalIN4pstd3pmr21polymorphic_allocatorISt4byteEEE3GetEv(ptr noundef nonnull align 8 dereferenceable(112) %threadAllocators)
          to label %invoke.cont5 unwind label %lpad4

invoke.cont5:                                     ; preds = %_ZNSt8functionIFN4pstd3pmr21polymorphic_allocatorISt4byteEEvEED2Ev.exit
  %5 = load i64, ptr %call6, align 8
  %6 = inttoptr i64 %5 to ptr
  invoke void @_ZN4pbrt10BasicScene11CreateMediaB5cxx11Ev(ptr nonnull sret(%"class.std::map") align 8 %media, ptr noundef nonnull align 8 dereferenceable(1520) %scene)
          to label %invoke.cont7 unwind label %lpad4

invoke.cont7:                                     ; preds = %invoke.cont5
  %haveMedia = getelementptr inbounds i8, ptr %this, i64 2
  store i8 0, ptr %haveMedia, align 2
  %shapes = getelementptr inbounds i8, ptr %scene, i64 296
  %7 = load ptr, ptr %shapes, align 8
  %_M_finish.i = getelementptr inbounds i8, ptr %scene, i64 304
  %8 = load ptr, ptr %_M_finish.i, align 8
  %cmp.i.not384 = icmp eq ptr %7, %8
  br i1 %cmp.i.not384, label %for.end, label %for.body

for.body:                                         ; preds = %invoke.cont7, %for.inc
  %__begin1.sroa.0.0385 = phi ptr [ %incdec.ptr.i, %for.inc ], [ %7, %invoke.cont7 ]
  %insideMedium = getelementptr inbounds i8, ptr %__begin1.sroa.0.0385, i64 208
  %call13 = call noundef zeroext i1 @_ZNKSt7__cxx1112basic_stringIcSt11char_traitsIcESaIcEE5emptyEv(ptr noundef nonnull align 8 dereferenceable(32) %insideMedium) #27
  br i1 %call13, label %lor.lhs.false, label %if.then

lor.lhs.false:                                    ; preds = %for.body
  %outsideMedium = getelementptr inbounds i8, ptr %__begin1.sroa.0.0385, i64 240
  %call14 = call noundef zeroext i1 @_ZNKSt7__cxx1112basic_stringIcSt11char_traitsIcESaIcEE5emptyEv(ptr noundef nonnull align 8 dereferenceable(32) %outsideMedium) #27
  br i1 %call14, label %for.inc, label %if.then

if.then:                                          ; preds = %lor.lhs.false, %for.body
  store i8 1, ptr %haveMedia, align 2
  br label %for.inc

lpad:                                             ; preds = %entry
  %9 = landingpad { ptr, i32 }
          cleanup
  %10 = load ptr, ptr %_M_manager.i.i, align 8
  %tobool.not.i.i57 = icmp eq ptr %10, null
  br i1 %tobool.not.i.i57, label %eh.resume, label %if.then.i.i58

if.then.i.i58:                                    ; preds = %lpad
  %call.i.i59 = invoke noundef zeroext i1 %10(ptr noundef nonnull align 8 dereferenceable(16) %ref.tmp, ptr noundef nonnull align 8 dereferenceable(16) %ref.tmp, i32 noundef 3)
          to label %eh.resume unwind label %terminate.lpad.i.i60

terminate.lpad.i.i60:                             ; preds = %if.then.i.i58
  %11 = landingpad { ptr, i32 }
          catch ptr null
  %12 = extractvalue { ptr, i32 } %11, 0
  call void @__clang_call_terminate(ptr %12) #26
  unreachable

lpad4:                                            ; preds = %invoke.cont5, %_ZNSt8functionIFN4pstd3pmr21polymorphic_allocatorISt4byteEEvEED2Ev.exit
  %13 = landingpad { ptr, i32 }
          cleanup
  br label %ehcleanup508

for.inc:                                          ; preds = %lor.lhs.false, %if.then
  %incdec.ptr.i = getelementptr inbounds i8, ptr %__begin1.sroa.0.0385, i64 272
  %cmp.i.not = icmp eq ptr %incdec.ptr.i, %8
  br i1 %cmp.i.not, label %for.end, label %for.body

for.end:                                          ; preds = %for.inc, %invoke.cont7
  %animatedShapes = getelementptr inbounds i8, ptr %scene, i64 320
  %14 = load ptr, ptr %animatedShapes, align 8
  %_M_finish.i62 = getelementptr inbounds i8, ptr %scene, i64 328
  %15 = load ptr, ptr %_M_finish.i62, align 8
  %cmp.i63.not386 = icmp eq ptr %14, %15
  br i1 %cmp.i63.not386, label %for.end39, label %for.body26

for.body26:                                       ; preds = %for.end, %for.inc37
  %__begin118.sroa.0.0387 = phi ptr [ %incdec.ptr.i64, %for.inc37 ], [ %14, %for.end ]
  %insideMedium29 = getelementptr inbounds i8, ptr %__begin118.sroa.0.0387, i64 896
  %call30 = call noundef zeroext i1 @_ZNKSt7__cxx1112basic_stringIcSt11char_traitsIcESaIcEE5emptyEv(ptr noundef nonnull align 8 dereferenceable(32) %insideMedium29) #27
  br i1 %call30, label %lor.lhs.false31, label %if.then34

lor.lhs.false31:                                  ; preds = %for.body26
  %outsideMedium32 = getelementptr inbounds i8, ptr %__begin118.sroa.0.0387, i64 928
  %call33 = call noundef zeroext i1 @_ZNKSt7__cxx1112basic_stringIcSt11char_traitsIcESaIcEE5emptyEv(ptr noundef nonnull align 8 dereferenceable(32) %outsideMedium32) #27
  br i1 %call33, label %for.inc37, label %if.then34

if.then34:                                        ; preds = %lor.lhs.false31, %for.body26
  store i8 1, ptr %haveMedia, align 2
  br label %for.inc37

for.inc37:                                        ; preds = %lor.lhs.false31, %if.then34
  %incdec.ptr.i64 = getelementptr inbounds i8, ptr %__begin118.sroa.0.0387, i64 960
  %cmp.i63.not = icmp eq ptr %incdec.ptr.i64, %15
  br i1 %cmp.i63.not, label %for.end39, label %for.body26

for.end39:                                        ; preds = %for.inc37, %for.end
  %_M_left.i.i = getelementptr inbounds i8, ptr %scene, i64 392
  %16 = load ptr, ptr %_M_left.i.i, align 8
  %add.ptr.i.i = getelementptr inbounds i8, ptr %scene, i64 376
  %cmp.i65.not392 = icmp eq ptr %16, %add.ptr.i.i
  br i1 %cmp.i65.not392, label %for.end99, label %for.body49

for.body49:                                       ; preds = %for.end39, %for.inc97
  %__begin141.sroa.0.0393 = phi ptr [ %call.i, %for.inc97 ], [ %16, %for.end39 ]
  %second = getelementptr inbounds i8, ptr %__begin141.sroa.0.0393, i64 40
  %17 = load ptr, ptr %second, align 8
  %shapes51 = getelementptr inbounds i8, ptr %17, i64 32
  %18 = load ptr, ptr %shapes51, align 8
  %_M_finish.i66 = getelementptr inbounds i8, ptr %17, i64 40
  %19 = load ptr, ptr %_M_finish.i66, align 8
  %cmp.i67.not388 = icmp eq ptr %18, %19
  br i1 %cmp.i67.not388, label %for.end71, label %for.body58

for.body58:                                       ; preds = %for.body49, %for.inc69
  %__begin2.sroa.0.0389 = phi ptr [ %incdec.ptr.i68, %for.inc69 ], [ %18, %for.body49 ]
  %insideMedium61 = getelementptr inbounds i8, ptr %__begin2.sroa.0.0389, i64 208
  %call62 = call noundef zeroext i1 @_ZNKSt7__cxx1112basic_stringIcSt11char_traitsIcESaIcEE5emptyEv(ptr noundef nonnull align 8 dereferenceable(32) %insideMedium61) #27
  br i1 %call62, label %lor.lhs.false63, label %if.then66

lor.lhs.false63:                                  ; preds = %for.body58
  %outsideMedium64 = getelementptr inbounds i8, ptr %__begin2.sroa.0.0389, i64 240
  %call65 = call noundef zeroext i1 @_ZNKSt7__cxx1112basic_stringIcSt11char_traitsIcESaIcEE5emptyEv(ptr noundef nonnull align 8 dereferenceable(32) %outsideMedium64) #27
  br i1 %call65, label %for.inc69, label %if.then66

if.then66:                                        ; preds = %lor.lhs.false63, %for.body58
  store i8 1, ptr %haveMedia, align 2
  br label %for.inc69

for.inc69:                                        ; preds = %lor.lhs.false63, %if.then66
  %incdec.ptr.i68 = getelementptr inbounds i8, ptr %__begin2.sroa.0.0389, i64 272
  %cmp.i67.not = icmp eq ptr %incdec.ptr.i68, %19
  br i1 %cmp.i67.not, label %for.end71.loopexit, label %for.body58

for.end71.loopexit:                               ; preds = %for.inc69
  %.pre = load ptr, ptr %second, align 8
  br label %for.end71

for.end71:                                        ; preds = %for.end71.loopexit, %for.body49
  %20 = phi ptr [ %.pre, %for.end71.loopexit ], [ %17, %for.body49 ]
  %animatedShapes74 = getelementptr inbounds i8, ptr %20, i64 56
  %21 = load ptr, ptr %animatedShapes74, align 8
  %_M_finish.i69 = getelementptr inbounds i8, ptr %20, i64 64
  %22 = load ptr, ptr %_M_finish.i69, align 8
  %cmp.i70.not390 = icmp eq ptr %21, %22
  br i1 %cmp.i70.not390, label %for.inc97, label %for.body83

for.body83:                                       ; preds = %for.end71, %for.inc94
  %__begin275.sroa.0.0391 = phi ptr [ %incdec.ptr.i71, %for.inc94 ], [ %21, %for.end71 ]
  %insideMedium86 = getelementptr inbounds i8, ptr %__begin275.sroa.0.0391, i64 896
  %call87 = call noundef zeroext i1 @_ZNKSt7__cxx1112basic_stringIcSt11char_traitsIcESaIcEE5emptyEv(ptr noundef nonnull align 8 dereferenceable(32) %insideMedium86) #27
  br i1 %call87, label %lor.lhs.false88, label %if.then91

lor.lhs.false88:                                  ; preds = %for.body83
  %outsideMedium89 = getelementptr inbounds i8, ptr %__begin275.sroa.0.0391, i64 928
  %call90 = call noundef zeroext i1 @_ZNKSt7__cxx1112basic_stringIcSt11char_traitsIcESaIcEE5emptyEv(ptr noundef nonnull align 8 dereferenceable(32) %outsideMedium89) #27
  br i1 %call90, label %for.inc94, label %if.then91

if.then91:                                        ; preds = %lor.lhs.false88, %for.body83
  store i8 1, ptr %haveMedia, align 2
  br label %for.inc94

for.inc94:                                        ; preds = %lor.lhs.false88, %if.then91
  %incdec.ptr.i71 = getelementptr inbounds i8, ptr %__begin275.sroa.0.0391, i64 960
  %cmp.i70.not = icmp eq ptr %incdec.ptr.i71, %22
  br i1 %cmp.i70.not, label %for.inc97, label %for.body83

for.inc97:                                        ; preds = %for.inc94, %for.end71
  %call.i = call noundef ptr @_ZSt18_Rb_tree_incrementPSt18_Rb_tree_node_base(ptr noundef %__begin141.sroa.0.0393) #28
  %cmp.i65.not = icmp eq ptr %call.i, %add.ptr.i.i
  br i1 %cmp.i65.not, label %for.end99, label %for.body49

for.end99:                                        ; preds = %for.inc97, %for.end39
  %23 = load i32, ptr @_ZN4pbrt7logging8logLevelE, align 4
  %cmp = icmp slt i32 %23, 1
  br i1 %cmp, label %land.rhs, label %land.end

land.rhs:                                         ; preds = %for.end99
  invoke void @_ZN4pbrt3LogENS_8LogLevelEPKciS2_(i32 noundef 0, ptr noundef nonnull @.str, i32 noundef 114, ptr noundef nonnull @.str.7)
          to label %land.end unwind label %lpad100

land.end:                                         ; preds = %land.rhs, %for.end99
  invoke void @_ZN4pbrt10BasicScene14CreateTexturesEv(ptr nonnull sret(%"struct.pbrt::NamedTextures") align 8 %textures, ptr noundef nonnull align 8 dereferenceable(1520) %scene)
          to label %invoke.cont102 unwind label %lpad100

invoke.cont102:                                   ; preds = %land.end
  %24 = load i32, ptr @_ZN4pbrt7logging8logLevelE, align 4
  %cmp103 = icmp slt i32 %24, 1
  br i1 %cmp103, label %land.rhs104, label %land.end111

land.rhs104:                                      ; preds = %invoke.cont102
  invoke void @_ZN4pbrt3LogENS_8LogLevelEPKciS2_(i32 noundef 0, ptr noundef nonnull @.str, i32 noundef 116, ptr noundef nonnull @.str.8)
          to label %land.end107 unwind label %lpad105

land.end107:                                      ; preds = %land.rhs104
  %.pr = load i32, ptr @_ZN4pbrt7logging8logLevelE, align 4
  %cmp108 = icmp slt i32 %.pr, 1
  br i1 %cmp108, label %land.rhs109, label %land.end111

land.rhs109:                                      ; preds = %land.end107
  invoke void @_ZN4pbrt3LogENS_8LogLevelEPKciS2_(i32 noundef 0, ptr noundef nonnull @.str, i32 noundef 118, ptr noundef nonnull @.str.9)
          to label %land.end111 unwind label %lpad105

land.end111:                                      ; preds = %invoke.cont102, %land.rhs109, %land.end107
  %call.i72 = call noundef ptr @_ZN4pstd3pmr19new_delete_resourceEv() #27
  %25 = ptrtoint ptr %call.i72 to i64
  store i64 %25, ptr %allLights, align 8
  %ptr.i = getelementptr inbounds i8, ptr %allLights, i64 8
  call void @llvm.memset.p0.i64(ptr noundef nonnull align 8 dereferenceable(24) %ptr.i, i8 0, i64 24, i1 false)
  %26 = getelementptr inbounds i8, ptr %shapeIndexToAreaLights, i64 8
  store i32 0, ptr %26, align 8
  %_M_parent.i.i.i.i.i = getelementptr inbounds i8, ptr %shapeIndexToAreaLights, i64 16
  store ptr null, ptr %_M_parent.i.i.i.i.i, align 8
  %_M_left.i.i.i.i.i = getelementptr inbounds i8, ptr %shapeIndexToAreaLights, i64 24
  store ptr %26, ptr %_M_left.i.i.i.i.i, align 8
  %_M_right.i.i.i.i.i = getelementptr inbounds i8, ptr %shapeIndexToAreaLights, i64 32
  store ptr %26, ptr %_M_right.i.i.i.i.i, align 8
  %_M_node_count.i.i.i.i.i = getelementptr inbounds i8, ptr %shapeIndexToAreaLights, i64 40
  store i64 0, ptr %_M_node_count.i.i.i.i.i, align 8
  %vtable.i.i.i.i = load ptr, ptr %6, align 8
  %vfn.i.i.i.i = getelementptr inbounds i8, ptr %vtable.i.i.i.i, i64 16
  %27 = load ptr, ptr %vfn.i.i.i.i, align 8
  %call.i.i.i.i73 = invoke noundef ptr %27(ptr noundef nonnull align 8 dereferenceable(8) %6, i64 noundef 32, i64 noundef 8)
          to label %invoke.cont115 unwind label %lpad114

invoke.cont115:                                   ; preds = %land.end111
  store i64 %5, ptr %call.i.i.i.i73, align 8
  %ptr.i.i.i = getelementptr inbounds i8, ptr %call.i.i.i.i73, i64 8
  call void @llvm.memset.p0.i64(ptr noundef nonnull align 8 dereferenceable(24) %ptr.i.i.i, i8 0, i64 24, i1 false)
  %infiniteLights = getelementptr inbounds i8, ptr %this, i64 80
  store ptr %call.i.i.i.i73, ptr %infiniteLights, align 8
  invoke void @_ZN4pbrt10BasicScene12CreateLightsERKNS_13NamedTexturesEPSt3mapIiPN4pstd6vectorINS_5LightENS5_3pmr21polymorphic_allocatorIS7_EEEESt4lessIiESaISt4pairIKiSC_EEE(ptr nonnull sret(%"class.std::vector.121") align 8 %ref.tmp118, ptr noundef nonnull align 8 dereferenceable(1520) %scene, ptr noundef nonnull align 8 dereferenceable(192) %textures, ptr noundef nonnull %shapeIndexToAreaLights)
          to label %invoke.cont119 unwind label %lpad114

invoke.cont119:                                   ; preds = %invoke.cont115
  %28 = load ptr, ptr %ref.tmp118, align 8
  %_M_finish.i74 = getelementptr inbounds i8, ptr %ref.tmp118, i64 8
  %29 = load ptr, ptr %_M_finish.i74, align 8
  %cmp.i75.not394 = icmp eq ptr %28, %29
  br i1 %cmp.i75.not394, label %for.cond.cleanup, label %invoke.cont132.lr.ph

invoke.cont132.lr.ph:                             ; preds = %invoke.cont119
  %nAlloc.i89 = getelementptr inbounds i8, ptr %allLights, i64 16
  %nStored.i90 = getelementptr inbounds i8, ptr %allLights, i64 24
  br label %invoke.cont132

for.cond.cleanup.loopexit:                        ; preds = %for.inc145
  %.pre408 = load ptr, ptr %ref.tmp118, align 8
  br label %for.cond.cleanup

for.cond.cleanup:                                 ; preds = %for.cond.cleanup.loopexit, %invoke.cont119
  %30 = phi i64 [ %inc.i94, %for.cond.cleanup.loopexit ], [ 0, %invoke.cont119 ]
  %31 = phi ptr [ %62, %for.cond.cleanup.loopexit ], [ null, %invoke.cont119 ]
  %32 = phi ptr [ %.pre408, %for.cond.cleanup.loopexit ], [ %28, %invoke.cont119 ]
  %tobool.not.i.i.i = icmp eq ptr %32, null
  br i1 %tobool.not.i.i.i, label %_ZNSt6vectorIN4pbrt5LightESaIS1_EED2Ev.exit, label %if.then.i.i.i

if.then.i.i.i:                                    ; preds = %for.cond.cleanup
  call void @_ZdlPv(ptr noundef nonnull %32) #29
  br label %_ZNSt6vectorIN4pbrt5LightESaIS1_EED2Ev.exit

_ZNSt6vectorIN4pbrt5LightESaIS1_EED2Ev.exit:      ; preds = %for.cond.cleanup, %if.then.i.i.i
  %33 = load i32, ptr @_ZN4pbrt7logging8logLevelE, align 4
  %cmp148 = icmp slt i32 %33, 1
  br i1 %cmp148, label %land.rhs149, label %land.end155

lpad100:                                          ; preds = %land.end, %land.rhs
  %34 = landingpad { ptr, i32 }
          cleanup
  br label %ehcleanup507

lpad105:                                          ; preds = %land.rhs109, %land.rhs104
  %35 = landingpad { ptr, i32 }
          cleanup
  br label %ehcleanup506

lpad114:                                          ; preds = %land.end111, %land.rhs153, %land.rhs149, %invoke.cont115
  %36 = landingpad { ptr, i32 }
          cleanup
  br label %ehcleanup504

invoke.cont132:                                   ; preds = %invoke.cont132.lr.ph, %for.inc145
  %37 = phi ptr [ null, %invoke.cont132.lr.ph ], [ %62, %for.inc145 ]
  %38 = phi i64 [ 0, %invoke.cont132.lr.ph ], [ %inc.i94, %for.inc145 ]
  %39 = phi i64 [ 0, %invoke.cont132.lr.ph ], [ %63, %for.inc145 ]
  %__begin1120.sroa.0.0395 = phi ptr [ %28, %invoke.cont132.lr.ph ], [ %incdec.ptr.i134, %for.inc145 ]
  %40 = load i64, ptr %__begin1120.sroa.0.0395, align 8
  %shr.i.mask.i = and i64 %40, -144115188075855872
  switch i64 %shr.i.mask.i, label %if.end143 [
    i64 1008806316530991104, label %if.then140
    i64 1152921504606846976, label %if.then140
    i64 1297036692682702848, label %if.then140
  ]

if.then140:                                       ; preds = %invoke.cont132, %invoke.cont132, %invoke.cont132
  %41 = load ptr, ptr %infiniteLights, align 8
  %nAlloc.i = getelementptr inbounds i8, ptr %41, i64 16
  %42 = load i64, ptr %nAlloc.i, align 8
  %nStored.i = getelementptr inbounds i8, ptr %41, i64 24
  %43 = load i64, ptr %nStored.i, align 8
  %cmp.i81 = icmp eq i64 %42, %43
  br i1 %cmp.i81, label %if.then.i, label %_ZN4pstd6vectorIN4pbrt5LightENS_3pmr21polymorphic_allocatorIS2_EEE9push_backERKS2_.exit

if.then.i:                                        ; preds = %if.then140
  %cmp3.i = icmp eq i64 %42, 0
  %mul.i = shl i64 %42, 1
  %spec.select.i = select i1 %cmp3.i, i64 4, i64 %mul.i
  %cmp.not.i.i = icmp ult i64 %42, %spec.select.i
  br i1 %cmp.not.i.i, label %if.end.i.i, label %_ZN4pstd6vectorIN4pbrt5LightENS_3pmr21polymorphic_allocatorIS2_EEE9push_backERKS2_.exit

if.end.i.i:                                       ; preds = %if.then.i
  %mul.i.i.i = shl i64 %spec.select.i, 3
  %cmp.i.i.i.i.i = icmp eq i64 %mul.i.i.i, 0
  br i1 %cmp.i.i.i.i.i, label %_ZN4pstd3pmr21polymorphic_allocatorIN4pbrt5LightEE15allocate_objectIS3_EEPT_m.exit.i.i, label %if.end.i.i.i.i.i

if.end.i.i.i.i.i:                                 ; preds = %if.end.i.i
  %44 = load ptr, ptr %41, align 8
  %vtable.i.i.i.i.i = load ptr, ptr %44, align 8
  %vfn.i.i.i.i.i = getelementptr inbounds i8, ptr %vtable.i.i.i.i.i, i64 16
  %45 = load ptr, ptr %vfn.i.i.i.i.i, align 8
  %call.i.i.i.i.i85 = invoke noundef ptr %45(ptr noundef nonnull align 8 dereferenceable(8) %44, i64 noundef %mul.i.i.i, i64 noundef 8)
          to label %call.i.i.i.i.i.noexc unwind label %lpad130

call.i.i.i.i.i.noexc:                             ; preds = %if.end.i.i.i.i.i
  %.pre.i = load i64, ptr %nStored.i, align 8
  br label %_ZN4pstd3pmr21polymorphic_allocatorIN4pbrt5LightEE15allocate_objectIS3_EEPT_m.exit.i.i

_ZN4pstd3pmr21polymorphic_allocatorIN4pbrt5LightEE15allocate_objectIS3_EEPT_m.exit.i.i: ; preds = %call.i.i.i.i.i.noexc, %if.end.i.i
  %.pre14.i = phi i64 [ %.pre.i, %call.i.i.i.i.i.noexc ], [ %42, %if.end.i.i ]
  %retval.0.i.i.i.i.i = phi ptr [ %call.i.i.i.i.i85, %call.i.i.i.i.i.noexc ], [ null, %if.end.i.i ]
  %cmp213.not.i.i = icmp eq i64 %.pre14.i, 0
  br i1 %cmp213.not.i.i, label %for.end.i.i, label %for.body.lr.ph.i.i

for.body.lr.ph.i.i:                               ; preds = %_ZN4pstd3pmr21polymorphic_allocatorIN4pbrt5LightEE15allocate_objectIS3_EEPT_m.exit.i.i
  %ptr.i.i.i83 = getelementptr inbounds i8, ptr %41, i64 8
  br label %for.body.i.i

for.body.i.i:                                     ; preds = %for.body.i.i, %for.body.lr.ph.i.i
  %indvars.iv.i.i = phi i64 [ 0, %for.body.lr.ph.i.i ], [ %indvars.iv.next.i.i, %for.body.i.i ]
  %add.ptr.i.i84 = getelementptr inbounds %"class.pbrt::Light", ptr %retval.0.i.i.i.i.i, i64 %indvars.iv.i.i
  %46 = load ptr, ptr %ptr.i.i.i83, align 8
  %arrayidx.i.i = getelementptr inbounds %"class.pbrt::Light", ptr %46, i64 %indvars.iv.i.i
  store i64 0, ptr %add.ptr.i.i84, align 8
  %47 = load i64, ptr %arrayidx.i.i, align 8
  store i64 %47, ptr %add.ptr.i.i84, align 8
  %indvars.iv.next.i.i = add nuw nsw i64 %indvars.iv.i.i, 1
  %48 = load i64, ptr %nStored.i, align 8
  %cmp2.i.i = icmp ugt i64 %48, %indvars.iv.next.i.i
  br i1 %cmp2.i.i, label %for.body.i.i, label %for.end.i.i, !llvm.loop !5

for.end.i.i:                                      ; preds = %for.body.i.i, %_ZN4pstd3pmr21polymorphic_allocatorIN4pbrt5LightEE15allocate_objectIS3_EEPT_m.exit.i.i
  %.pre13.i = phi i64 [ 0, %_ZN4pstd3pmr21polymorphic_allocatorIN4pbrt5LightEE15allocate_objectIS3_EEPT_m.exit.i.i ], [ %48, %for.body.i.i ]
  %ptr.i.i = getelementptr inbounds i8, ptr %41, i64 8
  %49 = load ptr, ptr %ptr.i.i, align 8
  %tobool.not.i.i.i.i.i = icmp eq ptr %49, null
  br i1 %tobool.not.i.i.i.i.i, label %_ZN4pstd3pmr21polymorphic_allocatorIN4pbrt5LightEE17deallocate_objectIS3_EEvPT_m.exit.i.i, label %if.end.i.i.i9.i.i

if.end.i.i.i9.i.i:                                ; preds = %for.end.i.i
  %50 = load i64, ptr %nAlloc.i, align 8
  %mul.i10.i.i = shl i64 %50, 3
  %51 = load ptr, ptr %41, align 8
  %vtable.i.i.i11.i.i = load ptr, ptr %51, align 8
  %vfn.i.i.i12.i.i = getelementptr inbounds i8, ptr %vtable.i.i.i11.i.i, i64 24
  %52 = load ptr, ptr %vfn.i.i.i12.i.i, align 8
  invoke void %52(ptr noundef nonnull align 8 dereferenceable(8) %51, ptr noundef nonnull %49, i64 noundef %mul.i10.i.i, i64 noundef 8)
          to label %.noexc unwind label %lpad130

.noexc:                                           ; preds = %if.end.i.i.i9.i.i
  %.pre1.pre.i = load i64, ptr %nStored.i, align 8
  br label %_ZN4pstd3pmr21polymorphic_allocatorIN4pbrt5LightEE17deallocate_objectIS3_EEvPT_m.exit.i.i

_ZN4pstd3pmr21polymorphic_allocatorIN4pbrt5LightEE17deallocate_objectIS3_EEvPT_m.exit.i.i: ; preds = %.noexc, %for.end.i.i
  %.pre1.i = phi i64 [ %.pre1.pre.i, %.noexc ], [ %.pre13.i, %for.end.i.i ]
  store i64 %spec.select.i, ptr %nAlloc.i, align 8
  store ptr %retval.0.i.i.i.i.i, ptr %ptr.i.i, align 8
  br label %_ZN4pstd6vectorIN4pbrt5LightENS_3pmr21polymorphic_allocatorIS2_EEE9push_backERKS2_.exit

_ZN4pstd6vectorIN4pbrt5LightENS_3pmr21polymorphic_allocatorIS2_EEE9push_backERKS2_.exit: ; preds = %if.then140, %if.then.i, %_ZN4pstd3pmr21polymorphic_allocatorIN4pbrt5LightEE17deallocate_objectIS3_EEvPT_m.exit.i.i
  %53 = phi i64 [ %.pre1.i, %_ZN4pstd3pmr21polymorphic_allocatorIN4pbrt5LightEE17deallocate_objectIS3_EEvPT_m.exit.i.i ], [ %42, %if.then.i ], [ %43, %if.then140 ]
  %ptr.i82 = getelementptr inbounds i8, ptr %41, i64 8
  %54 = load ptr, ptr %ptr.i82, align 8
  %add.ptr.i = getelementptr inbounds %"class.pbrt::Light", ptr %54, i64 %53
  store i64 %40, ptr %add.ptr.i, align 8
  %55 = load i64, ptr %nStored.i, align 8
  %inc.i = add i64 %55, 1
  store i64 %inc.i, ptr %nStored.i, align 8
  br label %if.end143

lpad130:                                          ; preds = %if.end.i.i.i9.i.i123, %if.end.i.i.i.i.i103, %if.end.i.i.i9.i.i, %if.end.i.i.i.i.i
  %56 = landingpad { ptr, i32 }
          cleanup
  %57 = load ptr, ptr %ref.tmp118, align 8
  %tobool.not.i.i.i86 = icmp eq ptr %57, null
  br i1 %tobool.not.i.i.i86, label %ehcleanup504, label %if.then.i.i.i87

if.then.i.i.i87:                                  ; preds = %lpad130
  call void @_ZdlPv(ptr noundef nonnull %57) #29
  br label %ehcleanup504

if.end143:                                        ; preds = %invoke.cont132, %_ZN4pstd6vectorIN4pbrt5LightENS_3pmr21polymorphic_allocatorIS2_EEE9push_backERKS2_.exit
  %cmp.i91 = icmp eq i64 %39, %38
  br i1 %cmp.i91, label %if.then.i95, label %for.inc145

if.then.i95:                                      ; preds = %if.end143
  %cmp3.i96 = icmp eq i64 %38, 0
  %mul.i97 = shl i64 %38, 1
  %spec.select.i98 = select i1 %cmp3.i96, i64 4, i64 %mul.i97
  %cmp.not.i.i99 = icmp ult i64 %38, %spec.select.i98
  br i1 %cmp.not.i.i99, label %if.end.i.i100, label %for.inc145

if.end.i.i100:                                    ; preds = %if.then.i95
  %mul.i.i.i101 = shl i64 %spec.select.i98, 3
  %cmp.i.i.i.i.i102 = icmp eq i64 %mul.i.i.i101, 0
  br i1 %cmp.i.i.i.i.i102, label %_ZN4pstd3pmr21polymorphic_allocatorIN4pbrt5LightEE15allocate_objectIS3_EEPT_m.exit.i.i107, label %if.end.i.i.i.i.i103

if.end.i.i.i.i.i103:                              ; preds = %if.end.i.i100
  %vtable.i.i.i.i.i104 = load ptr, ptr %call.i72, align 8
  %vfn.i.i.i.i.i105 = getelementptr inbounds i8, ptr %vtable.i.i.i.i.i104, i64 16
  %58 = load ptr, ptr %vfn.i.i.i.i.i105, align 8
  %call.i.i.i.i.i131 = invoke noundef ptr %58(ptr noundef nonnull align 8 dereferenceable(8) %call.i72, i64 noundef %mul.i.i.i101, i64 noundef 8)
          to label %call.i.i.i.i.i.noexc130 unwind label %lpad130

call.i.i.i.i.i.noexc130:                          ; preds = %if.end.i.i.i.i.i103
  %.pre.i106 = load i64, ptr %nStored.i90, align 8
  %.pre407.pre = load ptr, ptr %ptr.i, align 8
  br label %_ZN4pstd3pmr21polymorphic_allocatorIN4pbrt5LightEE15allocate_objectIS3_EEPT_m.exit.i.i107

_ZN4pstd3pmr21polymorphic_allocatorIN4pbrt5LightEE15allocate_objectIS3_EEPT_m.exit.i.i107: ; preds = %call.i.i.i.i.i.noexc130, %if.end.i.i100
  %.pre407 = phi ptr [ %.pre407.pre, %call.i.i.i.i.i.noexc130 ], [ %37, %if.end.i.i100 ]
  %.pre1.pre.i127 = phi i64 [ %.pre.i106, %call.i.i.i.i.i.noexc130 ], [ %38, %if.end.i.i100 ]
  %retval.0.i.i.i.i.i109 = phi ptr [ %call.i.i.i.i.i131, %call.i.i.i.i.i.noexc130 ], [ null, %if.end.i.i100 ]
  %cmp213.not.i.i110 = icmp eq i64 %.pre1.pre.i127, 0
  br i1 %cmp213.not.i.i110, label %for.end.i.i119, label %for.body.i.i113

for.body.i.i113:                                  ; preds = %_ZN4pstd3pmr21polymorphic_allocatorIN4pbrt5LightEE15allocate_objectIS3_EEPT_m.exit.i.i107, %for.body.i.i113
  %indvars.iv.i.i114 = phi i64 [ %indvars.iv.next.i.i117, %for.body.i.i113 ], [ 0, %_ZN4pstd3pmr21polymorphic_allocatorIN4pbrt5LightEE15allocate_objectIS3_EEPT_m.exit.i.i107 ]
  %add.ptr.i.i115 = getelementptr inbounds %"class.pbrt::Light", ptr %retval.0.i.i.i.i.i109, i64 %indvars.iv.i.i114
  %arrayidx.i.i116 = getelementptr inbounds %"class.pbrt::Light", ptr %.pre407, i64 %indvars.iv.i.i114
  store i64 0, ptr %add.ptr.i.i115, align 8
  %59 = load i64, ptr %arrayidx.i.i116, align 8
  store i64 %59, ptr %add.ptr.i.i115, align 8
  %indvars.iv.next.i.i117 = add nuw nsw i64 %indvars.iv.i.i114, 1
  %cmp2.i.i118 = icmp ugt i64 %.pre1.pre.i127, %indvars.iv.next.i.i117
  br i1 %cmp2.i.i118, label %for.body.i.i113, label %if.end.i.i.i9.i.i123, !llvm.loop !5

for.end.i.i119:                                   ; preds = %_ZN4pstd3pmr21polymorphic_allocatorIN4pbrt5LightEE15allocate_objectIS3_EEPT_m.exit.i.i107
  %tobool.not.i.i.i.i.i122 = icmp eq ptr %.pre407, null
  br i1 %tobool.not.i.i.i.i.i122, label %_ZN4pstd3pmr21polymorphic_allocatorIN4pbrt5LightEE17deallocate_objectIS3_EEvPT_m.exit.i.i128, label %if.end.i.i.i9.i.i123

if.end.i.i.i9.i.i123:                             ; preds = %for.body.i.i113, %for.end.i.i119
  %60 = load i64, ptr %nAlloc.i89, align 8
  %mul.i10.i.i124 = shl i64 %60, 3
  %vtable.i.i.i11.i.i125 = load ptr, ptr %call.i72, align 8
  %vfn.i.i.i12.i.i126 = getelementptr inbounds i8, ptr %vtable.i.i.i11.i.i125, i64 24
  %61 = load ptr, ptr %vfn.i.i.i12.i.i126, align 8
  invoke void %61(ptr noundef nonnull align 8 dereferenceable(8) %call.i72, ptr noundef nonnull %.pre407, i64 noundef %mul.i10.i.i124, i64 noundef 8)
          to label %_ZN4pstd3pmr21polymorphic_allocatorIN4pbrt5LightEE17deallocate_objectIS3_EEvPT_m.exit.i.i128 unwind label %lpad130

_ZN4pstd3pmr21polymorphic_allocatorIN4pbrt5LightEE17deallocate_objectIS3_EEvPT_m.exit.i.i128: ; preds = %if.end.i.i.i9.i.i123, %for.end.i.i119
  store i64 %spec.select.i98, ptr %nAlloc.i89, align 8
  store ptr %retval.0.i.i.i.i.i109, ptr %ptr.i, align 8
  br label %for.inc145

for.inc145:                                       ; preds = %_ZN4pstd3pmr21polymorphic_allocatorIN4pbrt5LightEE17deallocate_objectIS3_EEvPT_m.exit.i.i128, %if.then.i95, %if.end143
  %62 = phi ptr [ %retval.0.i.i.i.i.i109, %_ZN4pstd3pmr21polymorphic_allocatorIN4pbrt5LightEE17deallocate_objectIS3_EEvPT_m.exit.i.i128 ], [ %37, %if.then.i95 ], [ %37, %if.end143 ]
  %63 = phi i64 [ %spec.select.i98, %_ZN4pstd3pmr21polymorphic_allocatorIN4pbrt5LightEE17deallocate_objectIS3_EEvPT_m.exit.i.i128 ], [ %38, %if.then.i95 ], [ %39, %if.end143 ]
  %64 = phi i64 [ %.pre1.pre.i127, %_ZN4pstd3pmr21polymorphic_allocatorIN4pbrt5LightEE17deallocate_objectIS3_EEvPT_m.exit.i.i128 ], [ %38, %if.then.i95 ], [ %38, %if.end143 ]
  %add.ptr.i93 = getelementptr inbounds %"class.pbrt::Light", ptr %62, i64 %64
  store i64 %40, ptr %add.ptr.i93, align 8
  %65 = load i64, ptr %nStored.i90, align 8
  %inc.i94 = add i64 %65, 1
  store i64 %inc.i94, ptr %nStored.i90, align 8
  %incdec.ptr.i134 = getelementptr inbounds i8, ptr %__begin1120.sroa.0.0395, i64 8
  %cmp.i75.not = icmp eq ptr %incdec.ptr.i134, %29
  br i1 %cmp.i75.not, label %for.cond.cleanup.loopexit, label %invoke.cont132

land.rhs149:                                      ; preds = %_ZNSt6vectorIN4pbrt5LightESaIS1_EED2Ev.exit
  invoke void @_ZN4pbrt3LogENS_8LogLevelEPKciS2_(i32 noundef 0, ptr noundef nonnull @.str, i32 noundef 131, ptr noundef nonnull @.str.10)
          to label %land.end151 unwind label %lpad114

land.end151:                                      ; preds = %land.rhs149
  %.pr372 = load i32, ptr @_ZN4pbrt7logging8logLevelE, align 4
  %cmp152 = icmp slt i32 %.pr372, 1
  br i1 %cmp152, label %land.rhs153, label %land.end155

land.rhs153:                                      ; preds = %land.end151
  invoke void @_ZN4pbrt3LogENS_8LogLevelEPKciS2_(i32 noundef 0, ptr noundef nonnull @.str, i32 noundef 133, ptr noundef nonnull @.str.11)
          to label %land.end155 unwind label %lpad114

land.end155:                                      ; preds = %_ZNSt6vectorIN4pbrt5LightESaIS1_EED2Ev.exit, %land.rhs153, %land.end151
  %66 = getelementptr inbounds i8, ptr %namedMaterials, i64 8
  store i32 0, ptr %66, align 8
  %_M_parent.i.i.i.i.i135 = getelementptr inbounds i8, ptr %namedMaterials, i64 16
  store ptr null, ptr %_M_parent.i.i.i.i.i135, align 8
  %_M_left.i.i.i.i.i136 = getelementptr inbounds i8, ptr %namedMaterials, i64 24
  store ptr %66, ptr %_M_left.i.i.i.i.i136, align 8
  %_M_right.i.i.i.i.i137 = getelementptr inbounds i8, ptr %namedMaterials, i64 32
  store ptr %66, ptr %_M_right.i.i.i.i.i137, align 8
  %_M_node_count.i.i.i.i.i138 = getelementptr inbounds i8, ptr %namedMaterials, i64 40
  store i64 0, ptr %_M_node_count.i.i.i.i.i138, align 8
  call void @llvm.memset.p0.i64(ptr noundef nonnull align 8 dereferenceable(24) %materials, i8 0, i64 24, i1 false)
  invoke void @_ZN4pbrt10BasicScene15CreateMaterialsERKNS_13NamedTexturesEPSt3mapINSt7__cxx1112basic_stringIcSt11char_traitsIcESaIcEEENS_8MaterialESt4lessISA_ESaISt4pairIKSA_SB_EEEPSt6vectorISB_SaISB_EE(ptr noundef nonnull align 8 dereferenceable(1520) %scene, ptr noundef nonnull align 8 dereferenceable(192) %textures, ptr noundef nonnull %namedMaterials, ptr noundef nonnull %materials)
          to label %for.body.i.preheader unwind label %lpad156.loopexit.split-lp.loopexit.split-lp.loopexit.split-lp.loopexit.split-lp

for.body.i.preheader:                             ; preds = %land.end155
  %haveSubsurface = getelementptr inbounds i8, ptr %this, i64 1
  store i8 0, ptr %haveSubsurface, align 1
  call void @llvm.memset.p0.i64(ptr noundef nonnull align 1 dereferenceable(24) %haveBasicEvalMaterial, i8 0, i64 24, i1 false)
  %67 = load ptr, ptr %materials, align 8
  %_M_finish.i145 = getelementptr inbounds i8, ptr %materials, i64 8
  %68 = load ptr, ptr %_M_finish.i145, align 8
  %cmp.i146.not396 = icmp eq ptr %67, %68
  br i1 %cmp.i146.not396, label %for.end184, label %invoke.cont176

invoke.cont176:                                   ; preds = %for.body.i.preheader, %for.inc182
  %__begin1165.sroa.0.0397 = phi ptr [ %incdec.ptr.i147, %for.inc182 ], [ %67, %for.body.i.preheader ]
  %69 = load i64, ptr %__begin1165.sroa.0.0397, align 8
  store i64 %69, ptr %agg.tmp, align 8
  invoke fastcc void @_ZN4pbrtL19updateMaterialNeedsENS_8MaterialEPN4pstd5arrayIbLi12EEES4_PbS5_(ptr noundef nonnull %agg.tmp, ptr noundef nonnull %haveBasicEvalMaterial, ptr noundef nonnull %haveUniversalEvalMaterial, ptr noundef nonnull %haveSubsurface, ptr noundef nonnull %haveMedia)
          to label %for.inc182 unwind label %lpad156.loopexit.split-lp.loopexit.split-lp.loopexit.split-lp.loopexit

for.inc182:                                       ; preds = %invoke.cont176
  %incdec.ptr.i147 = getelementptr inbounds i8, ptr %__begin1165.sroa.0.0397, i64 8
  %cmp.i146.not = icmp eq ptr %incdec.ptr.i147, %68
  br i1 %cmp.i146.not, label %for.end184, label %invoke.cont176

lpad156.loopexit:                                 ; preds = %for.body270
  %lpad.loopexit = landingpad { ptr, i32 }
          cleanup
  br label %ehcleanup502

lpad156.loopexit.split-lp.loopexit:               ; preds = %invoke.cont255, %invoke.cont252
  %lpad.loopexit374 = landingpad { ptr, i32 }
          cleanup
  br label %ehcleanup502

lpad156.loopexit.split-lp.loopexit.split-lp.loopexit: ; preds = %invoke.cont199
  %lpad.loopexit377 = landingpad { ptr, i32 }
          cleanup
  br label %ehcleanup502

lpad156.loopexit.split-lp.loopexit.split-lp.loopexit.split-lp.loopexit: ; preds = %invoke.cont176
  %lpad.loopexit379 = landingpad { ptr, i32 }
          cleanup
  br label %ehcleanup502

lpad156.loopexit.split-lp.loopexit.split-lp.loopexit.split-lp.loopexit.split-lp: ; preds = %land.rhs288, %if.then284, %if.else, %if.then234, %invoke.cont227, %land.end211, %land.rhs209, %land.end155
  %lpad.loopexit.split-lp380 = landingpad { ptr, i32 }
          cleanup
  br label %ehcleanup502

for.end184:                                       ; preds = %for.inc182, %for.body.i.preheader
  %70 = load ptr, ptr %_M_left.i.i.i.i.i136, align 8
  %cmp.i150.not398 = icmp eq ptr %70, %66
  br i1 %cmp.i150.not398, label %for.end207, label %invoke.cont199

invoke.cont199:                                   ; preds = %for.end184, %for.inc205
  %__begin1186.sroa.0.0399 = phi ptr [ %call.i152, %for.inc205 ], [ %70, %for.end184 ]
  %second198 = getelementptr inbounds i8, ptr %__begin1186.sroa.0.0399, i64 64
  %71 = load i64, ptr %second198, align 8
  store i64 %71, ptr %agg.tmp197, align 8
  invoke fastcc void @_ZN4pbrtL19updateMaterialNeedsENS_8MaterialEPN4pstd5arrayIbLi12EEES4_PbS5_(ptr noundef nonnull %agg.tmp197, ptr noundef nonnull %haveBasicEvalMaterial, ptr noundef nonnull %haveUniversalEvalMaterial, ptr noundef nonnull %haveSubsurface, ptr noundef nonnull %haveMedia)
          to label %for.inc205 unwind label %lpad156.loopexit.split-lp.loopexit.split-lp.loopexit

for.inc205:                                       ; preds = %invoke.cont199
  %call.i152 = call noundef ptr @_ZSt18_Rb_tree_incrementPSt18_Rb_tree_node_base(ptr noundef nonnull %__begin1186.sroa.0.0399) #28
  %cmp.i150.not = icmp eq ptr %call.i152, %66
  br i1 %cmp.i150.not, label %for.end207, label %invoke.cont199

for.end207:                                       ; preds = %for.inc205, %for.end184
  %72 = load i32, ptr @_ZN4pbrt7logging8logLevelE, align 4
  %cmp208 = icmp slt i32 %72, 1
  br i1 %cmp208, label %land.rhs209, label %land.end211

land.rhs209:                                      ; preds = %for.end207
  invoke void @_ZN4pbrt3LogENS_8LogLevelEPKciS2_(i32 noundef 0, ptr noundef nonnull @.str, i32 noundef 147, ptr noundef nonnull @.str.12)
          to label %land.end211 unwind label %lpad156.loopexit.split-lp.loopexit.split-lp.loopexit.split-lp.loopexit.split-lp

land.end211:                                      ; preds = %land.rhs209, %for.end207
  invoke void @_ZN4pbrt10BasicScene9GetCameraEv(ptr nonnull sret(%"class.pbrt::Camera") align 8 %ref.tmp212, ptr noundef nonnull align 8 dereferenceable(1520) %scene)
          to label %invoke.cont227 unwind label %lpad156.loopexit.split-lp.loopexit.split-lp.loopexit.split-lp.loopexit.split-lp

invoke.cont227:                                   ; preds = %land.end211
  %73 = load i64, ptr %ref.tmp212, align 8
  store i64 %73, ptr %camera, align 8
  %and.i.i.i = and i64 %73, 144115188075855871
  %74 = inttoptr i64 %and.i.i.i to ptr
  %film.i.i9.i.i.i = getelementptr inbounds i8, ptr %74, i64 832
  %75 = load i64, ptr %film.i.i9.i.i.i, align 8, !noalias !7
  store i64 %75, ptr %film, align 8
  %and.i.i.i153 = and i64 %75, 144115188075855871
  %76 = inttoptr i64 %and.i.i.i153 to ptr
  %filter.i.i6.i.i.i = getelementptr inbounds i8, ptr %76, i64 24
  %77 = load i64, ptr %filter.i.i6.i.i.i, align 8, !noalias !14
  store i64 %77, ptr %filter, align 8
  invoke void @_ZN4pbrt10BasicScene10GetSamplerEv(ptr nonnull sret(%"class.pbrt::Sampler") align 8 %ref.tmp229, ptr noundef nonnull align 8 dereferenceable(1520) %scene)
          to label %invoke.cont230 unwind label %lpad156.loopexit.split-lp.loopexit.split-lp.loopexit.split-lp.loopexit.split-lp

invoke.cont230:                                   ; preds = %invoke.cont227
  %78 = load i64, ptr %ref.tmp229, align 8
  store i64 %78, ptr %sampler, align 8
  %79 = load ptr, ptr @_ZN4pbrt7OptionsE, align 8
  %useGPU = getelementptr inbounds i8, ptr %79, i64 10
  %80 = load i8, ptr %useGPU, align 2
  %81 = and i8 %80, 1
  %tobool.not = icmp eq i8 %81, 0
  br i1 %tobool.not, label %if.else, label %if.then234

if.then234:                                       ; preds = %invoke.cont230
  invoke void @_ZN4pbrt8LogFatalENS_8LogLevelEPKciS2_(i32 noundef 2, ptr noundef nonnull @.str, i32 noundef 165, ptr noundef nonnull @.str.13) #30
          to label %invoke.cont235 unwind label %lpad156.loopexit.split-lp.loopexit.split-lp.loopexit.split-lp.loopexit.split-lp

invoke.cont235:                                   ; preds = %if.then234
  unreachable

if.else:                                          ; preds = %invoke.cont230
  %call237 = invoke noalias noundef nonnull dereferenceable(16) ptr @_Znwm(i64 noundef 16) #25
          to label %invoke.cont236 unwind label %lpad156.loopexit.split-lp.loopexit.split-lp.loopexit.split-lp.loopexit.split-lp

invoke.cont236:                                   ; preds = %if.else
  invoke void @_ZN4pbrt12CPUAggregateC1ERNS_10BasicSceneERNS_13NamedTexturesERKSt3mapIiPN4pstd6vectorINS_5LightENS6_3pmr21polymorphic_allocatorIS8_EEEESt4lessIiESaISt4pairIKiSD_EEERKS5_INSt7__cxx1112basic_stringIcSt11char_traitsIcESaIcEEENS_6MediumESE_ISS_ESaISG_IKSS_ST_EEERKS5_ISS_NS_8MaterialESU_SaISG_ISV_S11_EEERKSt6vectorIS11_SaIS11_EE(ptr noundef nonnull align 8 dereferenceable(16) %call237, ptr noundef nonnull align 8 dereferenceable(1520) %scene, ptr noundef nonnull align 8 dereferenceable(192) %textures, ptr noundef nonnull align 8 dereferenceable(48) %shapeIndexToAreaLights, ptr noundef nonnull align 8 dereferenceable(48) %media, ptr noundef nonnull align 8 dereferenceable(48) %namedMaterials, ptr noundef nonnull align 8 dereferenceable(24) %materials)
          to label %invoke.cont239 unwind label %lpad238

invoke.cont239:                                   ; preds = %invoke.cont236
  store ptr %call237, ptr %aggregate, align 8
  %nStored.i156 = getelementptr inbounds i8, ptr %allLights, i64 24
  %add.ptr.i157 = getelementptr inbounds %"class.pbrt::Light", ptr %31, i64 %30
  %cmp250.not400 = icmp eq i64 %30, 0
  br i1 %cmp250.not400, label %invoke.cont259, label %invoke.cont252

lpad238:                                          ; preds = %invoke.cont236
  %82 = landingpad { ptr, i32 }
          cleanup
  call void @_ZdlPv(ptr noundef nonnull %call237) #29
  br label %ehcleanup502

invoke.cont252:                                   ; preds = %invoke.cont239, %for.inc257
  %__begin1243.0401 = phi ptr [ %incdec.ptr, %for.inc257 ], [ %31, %invoke.cont239 ]
  store i64 0, ptr %light, align 8
  %83 = load i64, ptr %__begin1243.0401, align 8
  store i64 %83, ptr %light, align 8
  %84 = load ptr, ptr %aggregate, align 8
  %vtable = load ptr, ptr %84, align 8
  %vfn = getelementptr inbounds i8, ptr %vtable, i64 16
  %85 = load ptr, ptr %vfn, align 8
  invoke void %85(ptr nonnull sret(%"class.pbrt::Bounds3") align 4 %ref.tmp253, ptr noundef nonnull align 8 dereferenceable(8) %84)
          to label %invoke.cont255 unwind label %lpad156.loopexit.split-lp.loopexit

invoke.cont255:                                   ; preds = %invoke.cont252
  invoke void @_ZN4pbrt5Light10PreprocessERKNS_7Bounds3IfEE(ptr noundef nonnull align 8 dereferenceable(8) %light, ptr noundef nonnull align 4 dereferenceable(24) %ref.tmp253)
          to label %for.inc257 unwind label %lpad156.loopexit.split-lp.loopexit

for.inc257:                                       ; preds = %invoke.cont255
  %incdec.ptr = getelementptr inbounds i8, ptr %__begin1243.0401, i64 8
  %cmp250.not = icmp eq ptr %incdec.ptr, %add.ptr.i157
  br i1 %cmp250.not, label %invoke.cont259, label %invoke.cont252

invoke.cont259:                                   ; preds = %for.inc257, %invoke.cont239
  %cmp.i158 = icmp ne i64 %30, 0
  %_M_left.i.i159 = getelementptr inbounds i8, ptr %media, i64 24
  %86 = load ptr, ptr %_M_left.i.i159, align 8
  %add.ptr.i.i160 = getelementptr inbounds i8, ptr %media, i64 8
  %cmp.i161.not402 = icmp eq ptr %86, %add.ptr.i.i160
  br i1 %cmp.i161.not402, label %for.end282, label %for.body270

for.body270:                                      ; preds = %invoke.cont259, %invoke.cont274
  %haveLights.0.in404 = phi i1 [ %or46, %invoke.cont274 ], [ %cmp.i158, %invoke.cont259 ]
  %__begin1262.sroa.0.0403 = phi ptr [ %call.i163, %invoke.cont274 ], [ %86, %invoke.cont259 ]
  %second273 = getelementptr inbounds i8, ptr %__begin1262.sroa.0.0403, i64 64
  %call275 = invoke noundef zeroext i1 @_ZNK4pbrt6Medium10IsEmissiveEv(ptr noundef nonnull align 8 dereferenceable(8) %second273)
          to label %invoke.cont274 unwind label %lpad156.loopexit

invoke.cont274:                                   ; preds = %for.body270
  %or46 = or i1 %haveLights.0.in404, %call275
  %call.i163 = call noundef ptr @_ZSt18_Rb_tree_incrementPSt18_Rb_tree_node_base(ptr noundef %__begin1262.sroa.0.0403) #28
  %cmp.i161.not = icmp eq ptr %call.i163, %add.ptr.i.i160
  br i1 %cmp.i161.not, label %for.end282, label %for.body270

for.end282:                                       ; preds = %invoke.cont274, %invoke.cont259
  %haveLights.0.in.lcssa = phi i1 [ %cmp.i158, %invoke.cont259 ], [ %or46, %invoke.cont274 ]
  br i1 %haveLights.0.in.lcssa, label %if.end286, label %if.then284

if.then284:                                       ; preds = %for.end282
  invoke void @_ZN4pbrt9ErrorExitIJEEEvPKcDpOT_(ptr noundef nonnull @.str.14) #30
          to label %invoke.cont285 unwind label %lpad156.loopexit.split-lp.loopexit.split-lp.loopexit.split-lp.loopexit.split-lp

invoke.cont285:                                   ; preds = %if.then284
  unreachable

if.end286:                                        ; preds = %for.end282
  %87 = load i32, ptr @_ZN4pbrt7logging8logLevelE, align 4
  %cmp287 = icmp slt i32 %87, 1
  br i1 %cmp287, label %land.rhs288, label %land.end290

land.rhs288:                                      ; preds = %if.end286
  invoke void @_ZN4pbrt3LogENS_8LogLevelEPKciS2_(i32 noundef 0, ptr noundef nonnull @.str, i32 noundef 181, ptr noundef nonnull @.str.15)
          to label %land.end290 unwind label %lpad156.loopexit.split-lp.loopexit.split-lp.loopexit.split-lp.loopexit.split-lp

land.end290:                                      ; preds = %land.rhs288, %if.end286
  %parameters = getelementptr inbounds i8, ptr %scene, i64 32
  call void @_ZNSaIcEC1Ev(ptr noundef nonnull align 1 dereferenceable(1) %ref.tmp292) #27
  %call.i164167 = invoke noundef ptr @_ZNSt7__cxx1112basic_stringIcSt11char_traitsIcESaIcEE13_M_local_dataEv(ptr noundef nonnull align 8 dereferenceable(32) %ref.tmp291)
          to label %call.i164.noexc unwind label %lpad293

call.i164.noexc:                                  ; preds = %land.end290
  invoke void @_ZNSt7__cxx1112basic_stringIcSt11char_traitsIcESaIcEE12_Alloc_hiderC1EPcRKS3_(ptr noundef nonnull align 8 dereferenceable(8) %ref.tmp291, ptr noundef %call.i164167, ptr noundef nonnull align 1 dereferenceable(1) %ref.tmp292)
          to label %.noexc168 unwind label %lpad293

.noexc168:                                        ; preds = %call.i164.noexc
  invoke void @_ZNSt7__cxx1112basic_stringIcSt11char_traitsIcESaIcEE12_M_constructIPKcEEvT_S8_St20forward_iterator_tag(ptr noundef nonnull align 8 dereferenceable(32) %ref.tmp291, ptr noundef nonnull @.str.16, ptr noundef nonnull getelementptr inbounds ([13 x i8], ptr @.str.16, i64 0, i64 12))
          to label %invoke.cont294 unwind label %lpad.i

lpad.i:                                           ; preds = %.noexc168
  %88 = landingpad { ptr, i32 }
          cleanup
  call void @_ZNSaIcED2Ev(ptr noundef nonnull align 1 dereferenceable(1) %ref.tmp291) #27
  br label %ehcleanup302

invoke.cont294:                                   ; preds = %.noexc168
  call void @_ZNSaIcEC1Ev(ptr noundef nonnull align 1 dereferenceable(1) %ref.tmp296) #27
  %call.i169173 = invoke noundef ptr @_ZNSt7__cxx1112basic_stringIcSt11char_traitsIcESaIcEE13_M_local_dataEv(ptr noundef nonnull align 8 dereferenceable(32) %ref.tmp295)
          to label %call.i169.noexc unwind label %lpad297

call.i169.noexc:                                  ; preds = %invoke.cont294
  invoke void @_ZNSt7__cxx1112basic_stringIcSt11char_traitsIcESaIcEE12_Alloc_hiderC1EPcRKS3_(ptr noundef nonnull align 8 dereferenceable(8) %ref.tmp295, ptr noundef %call.i169173, ptr noundef nonnull align 1 dereferenceable(1) %ref.tmp296)
          to label %.noexc174 unwind label %lpad297

.noexc174:                                        ; preds = %call.i169.noexc
  invoke void @_ZNSt7__cxx1112basic_stringIcSt11char_traitsIcESaIcEE12_M_constructIPKcEEvT_S8_St20forward_iterator_tag(ptr noundef nonnull align 8 dereferenceable(32) %ref.tmp295, ptr noundef nonnull @.str.17, ptr noundef nonnull getelementptr inbounds ([4 x i8], ptr @.str.17, i64 0, i64 3))
          to label %invoke.cont298 unwind label %lpad.i172

lpad.i172:                                        ; preds = %.noexc174
  %89 = landingpad { ptr, i32 }
          cleanup
  call void @_ZNSaIcED2Ev(ptr noundef nonnull align 1 dereferenceable(1) %ref.tmp295) #27
  br label %ehcleanup

invoke.cont298:                                   ; preds = %.noexc174
  invoke void @_ZNK4pbrt19ParameterDictionary12GetOneStringERKNSt7__cxx1112basic_stringIcSt11char_traitsIcESaIcEEES8_(ptr nonnull sret(%"class.std::__cxx11::basic_string") align 8 %lightSamplerName, ptr noundef nonnull align 8 dereferenceable(108) %parameters, ptr noundef nonnull align 8 dereferenceable(32) %ref.tmp291, ptr noundef nonnull align 8 dereferenceable(32) %ref.tmp295)
          to label %invoke.cont300 unwind label %lpad299

invoke.cont300:                                   ; preds = %invoke.cont298
  call void @_ZNSt7__cxx1112basic_stringIcSt11char_traitsIcESaIcEED1Ev(ptr noundef nonnull align 8 dereferenceable(32) %ref.tmp295) #27
  call void @_ZNSaIcED1Ev(ptr noundef nonnull align 1 dereferenceable(1) %ref.tmp296) #27
  call void @_ZNSt7__cxx1112basic_stringIcSt11char_traitsIcESaIcEED1Ev(ptr noundef nonnull align 8 dereferenceable(32) %ref.tmp291) #27
  call void @_ZNSaIcED1Ev(ptr noundef nonnull align 1 dereferenceable(1) %ref.tmp292) #27
  %90 = load i64, ptr %nStored.i156, align 8
  %cmp306 = icmp eq i64 %90, 1
  br i1 %cmp306, label %if.then307, label %if.end310

if.then307:                                       ; preds = %invoke.cont300
  %call309 = invoke noundef nonnull align 8 dereferenceable(32) ptr @_ZNSt7__cxx1112basic_stringIcSt11char_traitsIcESaIcEEaSEPKc(ptr noundef nonnull align 8 dereferenceable(32) %lightSamplerName, ptr noundef nonnull @.str.18)
          to label %if.end310 unwind label %lpad303

lpad293:                                          ; preds = %call.i164.noexc, %land.end290
  %91 = landingpad { ptr, i32 }
          cleanup
  br label %ehcleanup302

lpad297:                                          ; preds = %call.i169.noexc, %invoke.cont294
  %92 = landingpad { ptr, i32 }
          cleanup
  br label %ehcleanup

lpad299:                                          ; preds = %invoke.cont298
  %93 = landingpad { ptr, i32 }
          cleanup
  call void @_ZNSt7__cxx1112basic_stringIcSt11char_traitsIcESaIcEED1Ev(ptr noundef nonnull align 8 dereferenceable(32) %ref.tmp295) #27
  br label %ehcleanup

ehcleanup:                                        ; preds = %lpad297, %lpad.i172, %lpad299
  %.pn = phi { ptr, i32 } [ %93, %lpad299 ], [ %92, %lpad297 ], [ %89, %lpad.i172 ]
  call void @_ZNSaIcED1Ev(ptr noundef nonnull align 1 dereferenceable(1) %ref.tmp296) #27
  call void @_ZNSt7__cxx1112basic_stringIcSt11char_traitsIcESaIcEED1Ev(ptr noundef nonnull align 8 dereferenceable(32) %ref.tmp291) #27
  br label %ehcleanup302

ehcleanup302:                                     ; preds = %lpad293, %lpad.i, %ehcleanup
  %.pn.pn = phi { ptr, i32 } [ %.pn, %ehcleanup ], [ %91, %lpad293 ], [ %88, %lpad.i ]
  call void @_ZNSaIcED1Ev(ptr noundef nonnull align 1 dereferenceable(1) %ref.tmp292) #27
  br label %ehcleanup502

lpad303:                                          ; preds = %if.then383.invoke, %call.i.i.i.i.noexc313, %if.end497, %call.i.i.i.i.noexc307, %invoke.cont488, %call.i.i.i.i.noexc294, %if.then486, %call.i.i.i.i.noexc286, %invoke.cont468, %call.i.i.i.i.noexc274, %invoke.cont455, %call.i.i.i.i.noexc267, %if.end453, %call.i.i.i.i.noexc260, %if.then448, %call.i.i.i.i.noexc252, %invoke.cont436, %call.i.i.i.i.noexc245, %if.then434, %call.i.i.i.i.noexc238, %invoke.cont424, %call.i.i.i.i.noexc231, %invoke.cont421, %call.i.i.i.i.noexc, %invoke.cont416, %land.end411, %land.rhs320, %if.end310, %if.then307
  %94 = landingpad { ptr, i32 }
          cleanup
  br label %ehcleanup501

if.end310:                                        ; preds = %if.then307, %invoke.cont300
  %95 = load ptr, ptr %ptr.i, align 8
  invoke void @_ZN4pbrt12LightSampler6CreateERKNSt7__cxx1112basic_stringIcSt11char_traitsIcESaIcEEEN4pstd4spanIKNS_5LightEEENS9_3pmr21polymorphic_allocatorISt4byteEE(ptr nonnull sret(%"class.pbrt::LightSampler") align 8 %ref.tmp311, ptr noundef nonnull align 8 dereferenceable(32) %lightSamplerName, ptr %95, i64 %90, ptr nonnull %6)
          to label %invoke.cont317 unwind label %lpad303

invoke.cont317:                                   ; preds = %if.end310
  %96 = load i64, ptr %ref.tmp311, align 8
  store i64 %96, ptr %lightSampler, align 8
  %97 = load i32, ptr @_ZN4pbrt7logging8logLevelE, align 4
  %cmp319 = icmp slt i32 %97, 1
  br i1 %cmp319, label %land.rhs320, label %invoke.cont324

land.rhs320:                                      ; preds = %invoke.cont317
  invoke void @_ZN4pbrt3LogENS_8LogLevelEPKciS2_(i32 noundef 0, ptr noundef nonnull @.str, i32 noundef 187, ptr noundef nonnull @.str.19)
          to label %invoke.cont324 unwind label %lpad303

invoke.cont324:                                   ; preds = %invoke.cont317, %land.rhs320
  %98 = load ptr, ptr %scene, align 8
  %call.i.i.i = call noundef i32 @_ZNKSt7__cxx1112basic_stringIcSt11char_traitsIcESaIcEE7compareEPKc(ptr noundef nonnull align 8 dereferenceable(32) %98, ptr noundef nonnull @.str.20) #27
  %cmp.i.i.i.not = icmp eq i32 %call.i.i.i, 0
  br i1 %cmp.i.i.i.not, label %if.end335, label %invoke.cont328

invoke.cont328:                                   ; preds = %invoke.cont324
  %99 = load ptr, ptr %scene, align 8
  %call.i.i.i180 = call noundef i32 @_ZNKSt7__cxx1112basic_stringIcSt11char_traitsIcESaIcEE7compareEPKc(ptr noundef nonnull align 8 dereferenceable(32) %99, ptr noundef nonnull @.str.21) #27
  %cmp.i.i.i181.not = icmp eq i32 %call.i.i.i180, 0
  br i1 %cmp.i.i.i181.not, label %if.end335, label %if.then330

if.then330:                                       ; preds = %invoke.cont328
  call void @llvm.lifetime.start.p0(i64 32, ptr nonnull %ref.tmp.i)
  call void @_ZNSt7__cxx1112basic_stringIcSt11char_traitsIcESaIcEEC1Ev(ptr noundef nonnull align 8 dereferenceable(32) %ref.tmp.i) #27
  invoke void @_ZN4pbrt6detail21stringPrintfRecursiveIRNS_14InternedStringEJEEEvPNSt7__cxx1112basic_stringIcSt11char_traitsIcESaIcEEEPKcOT_DpOT0_(ptr noundef nonnull %ref.tmp.i, ptr noundef nonnull @.str.22, ptr noundef nonnull align 8 dereferenceable(8) %scene)
          to label %_ZN4pbrt12StringPrintfIJRNS_14InternedStringEEEENSt7__cxx1112basic_stringIcSt11char_traitsIcESaIcEEEPKcDpOT_.exit.i unwind label %lpad.i.i

common.resume.i:                                  ; preds = %lpad.i183, %lpad.i.i
  %common.resume.op.i = phi { ptr, i32 } [ %100, %lpad.i.i ], [ %101, %lpad.i183 ]
  call void @_ZNSt7__cxx1112basic_stringIcSt11char_traitsIcESaIcEED1Ev(ptr noundef nonnull align 8 dereferenceable(32) %ref.tmp.i) #27
  br label %ehcleanup501

lpad.i.i:                                         ; preds = %if.then330
  %100 = landingpad { ptr, i32 }
          cleanup
  br label %common.resume.i

_ZN4pbrt12StringPrintfIJRNS_14InternedStringEEEENSt7__cxx1112basic_stringIcSt11char_traitsIcESaIcEEEPKcDpOT_.exit.i: ; preds = %if.then330
  %loc = getelementptr inbounds i8, ptr %scene, i64 8
  %call.i182 = call noundef ptr @_ZNKSt7__cxx1112basic_stringIcSt11char_traitsIcESaIcEE5c_strEv(ptr noundef nonnull align 8 dereferenceable(32) %ref.tmp.i) #27
  invoke void @_ZN4pbrt7WarningEPKNS_7FileLocEPKc(ptr noundef nonnull %loc, ptr noundef %call.i182)
          to label %_ZN4pbrt7WarningIJRNS_14InternedStringEEEEvPKNS_7FileLocEPKcDpOT_.exit unwind label %lpad.i183

lpad.i183:                                        ; preds = %_ZN4pbrt12StringPrintfIJRNS_14InternedStringEEEENSt7__cxx1112basic_stringIcSt11char_traitsIcESaIcEEEPKcDpOT_.exit.i
  %101 = landingpad { ptr, i32 }
          cleanup
  br label %common.resume.i

_ZN4pbrt7WarningIJRNS_14InternedStringEEEEvPKNS_7FileLocEPKcDpOT_.exit: ; preds = %_ZN4pbrt12StringPrintfIJRNS_14InternedStringEEEENSt7__cxx1112basic_stringIcSt11char_traitsIcESaIcEEEPKcDpOT_.exit.i
  call void @_ZNSt7__cxx1112basic_stringIcSt11char_traitsIcESaIcEED1Ev(ptr noundef nonnull align 8 dereferenceable(32) %ref.tmp.i) #27
  call void @llvm.lifetime.end.p0(i64 32, ptr nonnull %ref.tmp.i)
  br label %if.end335

if.end335:                                        ; preds = %_ZN4pbrt7WarningIJRNS_14InternedStringEEEEvPKNS_7FileLocEPKcDpOT_.exit, %invoke.cont328, %invoke.cont324
  call void @_ZNSaIcEC1Ev(ptr noundef nonnull align 1 dereferenceable(1) %ref.tmp339) #27
  %call.i185189 = invoke noundef ptr @_ZNSt7__cxx1112basic_stringIcSt11char_traitsIcESaIcEE13_M_local_dataEv(ptr noundef nonnull align 8 dereferenceable(32) %ref.tmp338)
          to label %call.i185.noexc unwind label %lpad340

call.i185.noexc:                                  ; preds = %if.end335
  invoke void @_ZNSt7__cxx1112basic_stringIcSt11char_traitsIcESaIcEE12_Alloc_hiderC1EPcRKS3_(ptr noundef nonnull align 8 dereferenceable(8) %ref.tmp338, ptr noundef %call.i185189, ptr noundef nonnull align 1 dereferenceable(1) %ref.tmp339)
          to label %.noexc190 unwind label %lpad340

.noexc190:                                        ; preds = %call.i185.noexc
  invoke void @_ZNSt7__cxx1112basic_stringIcSt11char_traitsIcESaIcEE12_M_constructIPKcEEvT_S8_St20forward_iterator_tag(ptr noundef nonnull align 8 dereferenceable(32) %ref.tmp338, ptr noundef nonnull @.str.23, ptr noundef nonnull getelementptr inbounds ([11 x i8], ptr @.str.23, i64 0, i64 10))
          to label %invoke.cont341 unwind label %lpad.i188

lpad.i188:                                        ; preds = %.noexc190
  %102 = landingpad { ptr, i32 }
          cleanup
  call void @_ZNSaIcED2Ev(ptr noundef nonnull align 1 dereferenceable(1) %ref.tmp338) #27
  br label %ehcleanup347

invoke.cont341:                                   ; preds = %.noexc190
  %call344 = invoke noundef zeroext i1 @_ZNK4pbrt19ParameterDictionary10GetOneBoolERKNSt7__cxx1112basic_stringIcSt11char_traitsIcESaIcEEEb(ptr noundef nonnull align 8 dereferenceable(108) %parameters, ptr noundef nonnull align 8 dereferenceable(32) %ref.tmp338, i1 noundef zeroext false)
          to label %invoke.cont343 unwind label %lpad342

invoke.cont343:                                   ; preds = %invoke.cont341
  %regularize = getelementptr inbounds i8, ptr %this, i64 104
  %frombool345 = zext i1 %call344 to i8
  store i8 %frombool345, ptr %regularize, align 8
  call void @_ZNSt7__cxx1112basic_stringIcSt11char_traitsIcESaIcEED1Ev(ptr noundef nonnull align 8 dereferenceable(32) %ref.tmp338) #27
  call void @_ZNSaIcED1Ev(ptr noundef nonnull align 1 dereferenceable(1) %ref.tmp339) #27
  call void @_ZNSaIcEC1Ev(ptr noundef nonnull align 1 dereferenceable(1) %ref.tmp351) #27
  %call.i193197 = invoke noundef ptr @_ZNSt7__cxx1112basic_stringIcSt11char_traitsIcESaIcEE13_M_local_dataEv(ptr noundef nonnull align 8 dereferenceable(32) %ref.tmp350)
          to label %call.i193.noexc unwind label %lpad352

call.i193.noexc:                                  ; preds = %invoke.cont343
  invoke void @_ZNSt7__cxx1112basic_stringIcSt11char_traitsIcESaIcEE12_Alloc_hiderC1EPcRKS3_(ptr noundef nonnull align 8 dereferenceable(8) %ref.tmp350, ptr noundef %call.i193197, ptr noundef nonnull align 1 dereferenceable(1) %ref.tmp351)
          to label %.noexc198 unwind label %lpad352

.noexc198:                                        ; preds = %call.i193.noexc
  invoke void @_ZNSt7__cxx1112basic_stringIcSt11char_traitsIcESaIcEE12_M_constructIPKcEEvT_S8_St20forward_iterator_tag(ptr noundef nonnull align 8 dereferenceable(32) %ref.tmp350, ptr noundef nonnull @.str.24, ptr noundef nonnull getelementptr inbounds ([9 x i8], ptr @.str.24, i64 0, i64 8))
          to label %invoke.cont353 unwind label %lpad.i196

lpad.i196:                                        ; preds = %.noexc198
  %103 = landingpad { ptr, i32 }
          cleanup
  call void @_ZNSaIcED2Ev(ptr noundef nonnull align 1 dereferenceable(1) %ref.tmp350) #27
  br label %ehcleanup358

invoke.cont353:                                   ; preds = %.noexc198
  %call356 = invoke noundef i32 @_ZNK4pbrt19ParameterDictionary9GetOneIntERKNSt7__cxx1112basic_stringIcSt11char_traitsIcESaIcEEEi(ptr noundef nonnull align 8 dereferenceable(108) %parameters, ptr noundef nonnull align 8 dereferenceable(32) %ref.tmp350, i32 noundef 5)
          to label %invoke.cont360 unwind label %lpad354

invoke.cont360:                                   ; preds = %invoke.cont353
  %maxDepth = getelementptr inbounds i8, ptr %this, i64 96
  store i32 %call356, ptr %maxDepth, align 8
  call void @_ZNSt7__cxx1112basic_stringIcSt11char_traitsIcESaIcEED1Ev(ptr noundef nonnull align 8 dereferenceable(32) %ref.tmp350) #27
  call void @_ZNSaIcED1Ev(ptr noundef nonnull align 1 dereferenceable(1) %ref.tmp351) #27
  %104 = load i64, ptr %film, align 8
  %shr.i.mask.i.i = and i64 %104, -144115188075855872
  %cond.i.i.i = icmp eq i64 %shr.i.mask.i.i, 288230376151711744
  %frombool362 = zext i1 %cond.i.i.i to i8
  store i8 %frombool362, ptr %this, align 8
  %105 = load i64, ptr %sampler, align 8
  %and.i.i.i201 = and i64 %105, 144115188075855871
  %106 = inttoptr i64 %and.i.i.i201 to ptr
  %shr.i.i.i = lshr i64 %105, 57
  %conv.i.i.i = trunc i64 %shr.i.i.i to i32
  switch i32 %conv.i.i.i, label %sw.default.i.i.i [
    i32 1, label %sw.bb.i.i.i
    i32 2, label %sw.bb1.i.i.i
    i32 3, label %sw.bb3.i.i.i
    i32 4, label %sw.bb5.i.i.i
    i32 5, label %sw.bb7.i.i.i
    i32 6, label %sw.bb9.i.i.i
    i32 7, label %sw.bb11.i.i.i
    i32 8, label %sw.bb13.i.i.i
  ]

sw.bb.i.i.i:                                      ; preds = %invoke.cont360
  %107 = load i32, ptr %106, align 8
  br label %invoke.cont364

sw.bb1.i.i.i:                                     ; preds = %invoke.cont360
  %108 = load i32, ptr %106, align 8
  br label %invoke.cont364

sw.bb3.i.i.i:                                     ; preds = %invoke.cont360
  %109 = load i32, ptr %106, align 8
  %yPixelSamples.i.i.i.i.i = getelementptr inbounds i8, ptr %106, i64 4
  %110 = load i32, ptr %yPixelSamples.i.i.i.i.i, align 4
  %mul.i.i.i.i.i = mul nsw i32 %110, %109
  br label %invoke.cont364

sw.bb5.i.i.i:                                     ; preds = %invoke.cont360
  %111 = load i32, ptr %106, align 8
  br label %invoke.cont364

sw.bb7.i.i.i:                                     ; preds = %invoke.cont360
  %112 = load i32, ptr %106, align 4
  br label %invoke.cont364

sw.bb9.i.i.i:                                     ; preds = %invoke.cont360
  %113 = load i32, ptr %106, align 8
  br label %invoke.cont364

sw.bb11.i.i.i:                                    ; preds = %invoke.cont360
  %log2SamplesPerPixel.i.i.i.i.i = getelementptr inbounds i8, ptr %106, i64 8
  %114 = load i32, ptr %log2SamplesPerPixel.i.i.i.i.i, align 8
  %shl.i.i.i.i.i = shl nuw i32 1, %114
  br label %invoke.cont364

sw.bb13.i.i.i:                                    ; preds = %invoke.cont360
  %115 = load i32, ptr %106, align 8
  br label %invoke.cont364

sw.default.i.i.i:                                 ; preds = %invoke.cont360
  %116 = load i32, ptr %106, align 8
  br label %invoke.cont364

invoke.cont364:                                   ; preds = %sw.default.i.i.i, %sw.bb13.i.i.i, %sw.bb11.i.i.i, %sw.bb9.i.i.i, %sw.bb7.i.i.i, %sw.bb5.i.i.i, %sw.bb3.i.i.i, %sw.bb1.i.i.i, %sw.bb.i.i.i
  %retval.0.i.i.i = phi i32 [ %116, %sw.default.i.i.i ], [ %115, %sw.bb13.i.i.i ], [ %shl.i.i.i.i.i, %sw.bb11.i.i.i ], [ %113, %sw.bb9.i.i.i ], [ %112, %sw.bb7.i.i.i ], [ %111, %sw.bb5.i.i.i ], [ %mul.i.i.i.i.i, %sw.bb3.i.i.i ], [ %108, %sw.bb1.i.i.i ], [ %107, %sw.bb.i.i.i ]
  %samplesPerPixel = getelementptr inbounds i8, ptr %this, i64 100
  store i32 %retval.0.i.i.i, ptr %samplesPerPixel, align 4
  %117 = load ptr, ptr @_ZN4pbrt7OptionsE, align 8
  %forceDiffuse = getelementptr inbounds i8, ptr %117, i64 9
  %118 = load i8, ptr %forceDiffuse, align 1
  %119 = and i8 %118, 1
  %tobool366.not = icmp eq i8 %119, 0
  br i1 %tobool366.not, label %if.end369, label %if.then383.invoke

lpad340:                                          ; preds = %call.i185.noexc, %if.end335
  %120 = landingpad { ptr, i32 }
          cleanup
  br label %ehcleanup347

lpad342:                                          ; preds = %invoke.cont341
  %121 = landingpad { ptr, i32 }
          cleanup
  call void @_ZNSt7__cxx1112basic_stringIcSt11char_traitsIcESaIcEED1Ev(ptr noundef nonnull align 8 dereferenceable(32) %ref.tmp338) #27
  br label %ehcleanup347

ehcleanup347:                                     ; preds = %lpad340, %lpad.i188, %lpad342
  %.pn40 = phi { ptr, i32 } [ %121, %lpad342 ], [ %120, %lpad340 ], [ %102, %lpad.i188 ]
  call void @_ZNSaIcED1Ev(ptr noundef nonnull align 1 dereferenceable(1) %ref.tmp339) #27
  br label %ehcleanup501

lpad352:                                          ; preds = %call.i193.noexc, %invoke.cont343
  %122 = landingpad { ptr, i32 }
          cleanup
  br label %ehcleanup358

lpad354:                                          ; preds = %invoke.cont353
  %123 = landingpad { ptr, i32 }
          cleanup
  call void @_ZNSt7__cxx1112basic_stringIcSt11char_traitsIcESaIcEED1Ev(ptr noundef nonnull align 8 dereferenceable(32) %ref.tmp350) #27
  br label %ehcleanup358

ehcleanup358:                                     ; preds = %lpad352, %lpad.i196, %lpad354
  %.pn42 = phi { ptr, i32 } [ %123, %lpad354 ], [ %122, %lpad352 ], [ %103, %lpad.i196 ]
  call void @_ZNSaIcED1Ev(ptr noundef nonnull align 1 dereferenceable(1) %ref.tmp351) #27
  br label %ehcleanup501

if.end369:                                        ; preds = %invoke.cont364
  %writePartialImages = getelementptr inbounds i8, ptr %117, i64 65
  %124 = load i8, ptr %writePartialImages, align 1
  %125 = and i8 %124, 1
  %tobool370.not = icmp eq i8 %125, 0
  br i1 %tobool370.not, label %if.end373, label %if.then371

if.then371:                                       ; preds = %if.end369
  call void @llvm.lifetime.start.p0(i64 32, ptr nonnull %ref.tmp.i202)
  call void @_ZNSt7__cxx1112basic_stringIcSt11char_traitsIcESaIcEEC1Ev(ptr noundef nonnull align 8 dereferenceable(32) %ref.tmp.i202) #27
  invoke void @_ZN4pbrt6detail21stringPrintfRecursiveEPNSt7__cxx1112basic_stringIcSt11char_traitsIcESaIcEEEPKc(ptr noundef nonnull %ref.tmp.i202, ptr noundef nonnull @.str.26)
          to label %_ZN4pbrt12StringPrintfIJEEENSt7__cxx1112basic_stringIcSt11char_traitsIcESaIcEEEPKcDpOT_.exit.i unwind label %lpad.i.i203

common.resume.i204:                               ; preds = %lpad.i207, %lpad.i.i203
  %common.resume.op.i205 = phi { ptr, i32 } [ %126, %lpad.i.i203 ], [ %127, %lpad.i207 ]
  call void @_ZNSt7__cxx1112basic_stringIcSt11char_traitsIcESaIcEED1Ev(ptr noundef nonnull align 8 dereferenceable(32) %ref.tmp.i202) #27
  br label %ehcleanup501

lpad.i.i203:                                      ; preds = %if.then371
  %126 = landingpad { ptr, i32 }
          cleanup
  br label %common.resume.i204

_ZN4pbrt12StringPrintfIJEEENSt7__cxx1112basic_stringIcSt11char_traitsIcESaIcEEEPKcDpOT_.exit.i: ; preds = %if.then371
  %call.i206 = call noundef ptr @_ZNKSt7__cxx1112basic_stringIcSt11char_traitsIcESaIcEE5c_strEv(ptr noundef nonnull align 8 dereferenceable(32) %ref.tmp.i202) #27
  invoke void @_ZN4pbrt7WarningEPKNS_7FileLocEPKc(ptr noundef null, ptr noundef %call.i206)
          to label %_ZN4pbrt7WarningIJEEEvPKcDpOT_.exit unwind label %lpad.i207

lpad.i207:                                        ; preds = %_ZN4pbrt12StringPrintfIJEEENSt7__cxx1112basic_stringIcSt11char_traitsIcESaIcEEEPKcDpOT_.exit.i
  %127 = landingpad { ptr, i32 }
          cleanup
  br label %common.resume.i204

_ZN4pbrt7WarningIJEEEvPKcDpOT_.exit:              ; preds = %_ZN4pbrt12StringPrintfIJEEENSt7__cxx1112basic_stringIcSt11char_traitsIcESaIcEEEPKcDpOT_.exit.i
  call void @_ZNSt7__cxx1112basic_stringIcSt11char_traitsIcESaIcEED1Ev(ptr noundef nonnull align 8 dereferenceable(32) %ref.tmp.i202) #27
  call void @llvm.lifetime.end.p0(i64 32, ptr nonnull %ref.tmp.i202)
  %.pre409 = load ptr, ptr @_ZN4pbrt7OptionsE, align 8
  br label %if.end373

if.end373:                                        ; preds = %_ZN4pbrt7WarningIJEEEvPKcDpOT_.exit, %if.end369
  %128 = phi ptr [ %.pre409, %_ZN4pbrt7WarningIJEEEvPKcDpOT_.exit ], [ %117, %if.end369 ]
  %recordPixelStatistics = getelementptr inbounds i8, ptr %128, i64 66
  %129 = load i8, ptr %recordPixelStatistics, align 2
  %130 = and i8 %129, 1
  %tobool374.not = icmp eq i8 %130, 0
  br i1 %tobool374.not, label %if.end377, label %if.then383.invoke

if.end377:                                        ; preds = %if.end373
  %mseReferenceImage = getelementptr inbounds i8, ptr %128, i64 120
  %call378 = call noundef zeroext i1 @_ZNKSt7__cxx1112basic_stringIcSt11char_traitsIcESaIcEE5emptyEv(ptr noundef nonnull align 8 dereferenceable(32) %mseReferenceImage) #27
  br i1 %call378, label %if.end381, label %if.then383.invoke

if.end381:                                        ; preds = %if.end377
  %131 = load ptr, ptr @_ZN4pbrt7OptionsE, align 8
  %mseReferenceOutput = getelementptr inbounds i8, ptr %131, i64 152
  %call382 = call noundef zeroext i1 @_ZNKSt7__cxx1112basic_stringIcSt11char_traitsIcESaIcEE5emptyEv(ptr noundef nonnull align 8 dereferenceable(32) %mseReferenceOutput) #27
  br i1 %call382, label %invoke.cont390, label %if.then383.invoke

if.then383.invoke:                                ; preds = %if.end381, %if.end377, %if.end373, %invoke.cont364
  %132 = phi ptr [ @.str.25, %invoke.cont364 ], [ @.str.27, %if.end373 ], [ @.str.28, %if.end377 ], [ @.str.29, %if.end381 ]
  invoke void @_ZN4pbrt9ErrorExitIJEEEvPKcDpOT_(ptr noundef nonnull %132) #30
          to label %if.then383.cont unwind label %lpad303

if.then383.cont:                                  ; preds = %if.then383.invoke
  unreachable

invoke.cont390:                                   ; preds = %if.end381
  %133 = load i64, ptr %film, align 8
  %and.i.i.i210 = and i64 %133, 144115188075855871
  %134 = inttoptr i64 %and.i.i.i210 to ptr
  %retval.sroa.2.0.copyload.i.i15.pn.in.i.i.i = getelementptr inbounds i8, ptr %134, i64 16
  %retval.sroa.2.0.copyload.i.i15.pn.i.i.i = load i64, ptr %retval.sroa.2.0.copyload.i.i15.pn.in.i.i.i, align 8
  %retval.sroa.0.0.copyload.i.i13.pn.in.i.i.i = getelementptr inbounds i8, ptr %134, i64 8
  %retval.sroa.0.0.copyload.i.i13.pn.i.i.i = load i64, ptr %retval.sroa.0.0.copyload.i.i13.pn.in.i.i.i, align 8
  %ref.tmp386.sroa.4.8.extract.shift = lshr i64 %retval.sroa.2.0.copyload.i.i15.pn.i.i.i, 32
  %ref.tmp386.sroa.4.8.extract.trunc = trunc i64 %ref.tmp386.sroa.4.8.extract.shift to i32
  %p.sroa.2.0.extract.shift.i.i = lshr i64 %retval.sroa.0.0.copyload.i.i13.pn.i.i.i, 32
  %p.sroa.2.0.extract.trunc.i.i = trunc i64 %p.sroa.2.0.extract.shift.i.i to i32
  %sub.i.i = sub i64 %retval.sroa.2.0.copyload.i.i15.pn.i.i.i, %retval.sroa.0.0.copyload.i.i13.pn.i.i.i
  %resolution.sroa.0.0.extract.trunc = trunc i64 %sub.i.i to i32
  %div = sdiv i32 1048576, %resolution.sroa.0.0.extract.trunc
  %.sroa.speculated = call i32 @llvm.smax.i32(i32 %div, i32 1)
  %scanlinesPerPass = getelementptr inbounds i8, ptr %this, i64 108
  %135 = xor i32 %p.sroa.2.0.extract.trunc.i.i, -1
  %add = add i32 %135, %ref.tmp386.sroa.4.8.extract.trunc
  %sub = add i32 %add, %.sroa.speculated
  %div399 = sdiv i32 %sub, %.sroa.speculated
  store i32 %div399, ptr %nPasses, align 4
  %sub402 = add i32 %add, %div399
  %div403 = sdiv i32 %sub402, %div399
  store i32 %div403, ptr %scanlinesPerPass, align 4
  %mul = mul nsw i32 %div403, %resolution.sroa.0.0.extract.trunc
  %maxQueueSize = getelementptr inbounds i8, ptr %this, i64 112
  store i32 %mul, ptr %maxQueueSize, align 8
  %136 = load i32, ptr @_ZN4pbrt7logging8logLevelE, align 4
  %cmp407 = icmp slt i32 %136, 1
  br i1 %cmp407, label %land.rhs408, label %land.end411

land.rhs408:                                      ; preds = %invoke.cont390
  call void @llvm.lifetime.start.p0(i64 32, ptr nonnull %s.i)
  call void @_ZNSt7__cxx1112basic_stringIcSt11char_traitsIcESaIcEEC1Ev(ptr noundef nonnull align 8 dereferenceable(32) %s.i) #27
  invoke void @_ZN4pbrt6detail21stringPrintfRecursiveIRiJS2_EEEvPNSt7__cxx1112basic_stringIcSt11char_traitsIcESaIcEEEPKcOT_DpOT0_(ptr noundef nonnull %s.i, ptr noundef nonnull @.str.30, ptr noundef nonnull align 4 dereferenceable(4) %nPasses, ptr noundef nonnull align 4 dereferenceable(4) %scanlinesPerPass)
          to label %_ZN4pbrt12StringPrintfIJRiS1_EEENSt7__cxx1112basic_stringIcSt11char_traitsIcESaIcEEEPKcDpOT_.exit.i unwind label %lpad.i.i212

common.resume.i213:                               ; preds = %lpad.i216, %lpad.i.i212
  %common.resume.op.i214 = phi { ptr, i32 } [ %137, %lpad.i.i212 ], [ %138, %lpad.i216 ]
  call void @_ZNSt7__cxx1112basic_stringIcSt11char_traitsIcESaIcEED1Ev(ptr noundef nonnull align 8 dereferenceable(32) %s.i) #27
  br label %ehcleanup501

lpad.i.i212:                                      ; preds = %land.rhs408
  %137 = landingpad { ptr, i32 }
          cleanup
  br label %common.resume.i213

_ZN4pbrt12StringPrintfIJRiS1_EEENSt7__cxx1112basic_stringIcSt11char_traitsIcESaIcEEEPKcDpOT_.exit.i: ; preds = %land.rhs408
  %call.i215 = call noundef ptr @_ZNKSt7__cxx1112basic_stringIcSt11char_traitsIcESaIcEE5c_strEv(ptr noundef nonnull align 8 dereferenceable(32) %s.i) #27
  invoke void @_ZN4pbrt3LogENS_8LogLevelEPKciS2_(i32 noundef 0, ptr noundef nonnull @.str, i32 noundef 236, ptr noundef %call.i215)
          to label %_ZN4pbrt3LogIJRiS1_EEEvNS_8LogLevelEPKciS4_DpOT_.exit unwind label %lpad.i216

lpad.i216:                                        ; preds = %_ZN4pbrt12StringPrintfIJRiS1_EEENSt7__cxx1112basic_stringIcSt11char_traitsIcESaIcEEEPKcDpOT_.exit.i
  %138 = landingpad { ptr, i32 }
          cleanup
  br label %common.resume.i213

_ZN4pbrt3LogIJRiS1_EEEvNS_8LogLevelEPKciS4_DpOT_.exit: ; preds = %_ZN4pbrt12StringPrintfIJRiS1_EEENSt7__cxx1112basic_stringIcSt11char_traitsIcESaIcEEEPKcDpOT_.exit.i
  call void @_ZNSt7__cxx1112basic_stringIcSt11char_traitsIcESaIcEED1Ev(ptr noundef nonnull align 8 dereferenceable(32) %s.i) #27
  call void @llvm.lifetime.end.p0(i64 32, ptr nonnull %s.i)
  %.pre410 = load i32, ptr %maxQueueSize, align 8
  br label %land.end411

land.end411:                                      ; preds = %_ZN4pbrt3LogIJRiS1_EEEvNS_8LogLevelEPKciS4_DpOT_.exit, %invoke.cont390
  %139 = phi i32 [ %.pre410, %_ZN4pbrt3LogIJRiS1_EEEvNS_8LogLevelEPKciS4_DpOT_.exit ], [ %mul, %invoke.cont390 ]
  invoke void @_ZN4pbrt3SOAINS_16PixelSampleStateEEC2EiN4pstd3pmr21polymorphic_allocatorISt4byteEE(ptr noundef nonnull align 8 dereferenceable(400) %ref.tmp412, i32 noundef %139, ptr nonnull %6)
          to label %invoke.cont416 unwind label %lpad303

invoke.cont416:                                   ; preds = %land.end411
  %140 = load i32, ptr %ref.tmp412, align 8
  store i32 %140, ptr %pixelSampleState, align 8
  %filterWeight.i = getelementptr inbounds i8, ptr %ref.tmp412, i64 8
  %141 = load ptr, ptr %filterWeight.i, align 8
  %filterWeight3.i = getelementptr inbounds i8, ptr %this, i64 128
  store ptr %141, ptr %filterWeight3.i, align 8
  %pPixel.i = getelementptr inbounds i8, ptr %ref.tmp412, i64 16
  %pPixel4.i = getelementptr inbounds i8, ptr %this, i64 136
  %142 = load i32, ptr %pPixel.i, align 8
  store i32 %142, ptr %pPixel4.i, align 8
  %x.i.i = getelementptr inbounds i8, ptr %ref.tmp412, i64 24
  %x3.i.i = getelementptr inbounds i8, ptr %this, i64 144
  %143 = load <2 x ptr>, ptr %x.i.i, align 8
  store <2 x ptr> %143, ptr %x3.i.i, align 8
  %lambda.i = getelementptr inbounds i8, ptr %ref.tmp412, i64 40
  %lambda5.i = getelementptr inbounds i8, ptr %this, i64 160
  %144 = load i32, ptr %lambda.i, align 8
  store i32 %144, ptr %lambda5.i, align 8
  %lambda4.i.i220 = getelementptr inbounds i8, ptr %ref.tmp412, i64 48
  %145 = load <4 x ptr>, ptr %lambda4.i.i220, align 8
  store <4 x ptr> %145, ptr %lambda4.i.i, align 8
  %L.i = getelementptr inbounds i8, ptr %ref.tmp412, i64 80
  %L7.i = getelementptr inbounds i8, ptr %this, i64 200
  %146 = load i32, ptr %L.i, align 8
  store i32 %146, ptr %L7.i, align 8
  %ptr4.i.i221 = getelementptr inbounds i8, ptr %ref.tmp412, i64 88
  %147 = load <2 x ptr>, ptr %ptr4.i.i221, align 8
  store <2 x ptr> %147, ptr %ptr4.i.i, align 8
  %cameraRayWeight.i = getelementptr inbounds i8, ptr %ref.tmp412, i64 104
  %cameraRayWeight9.i = getelementptr inbounds i8, ptr %this, i64 224
  %148 = load i32, ptr %cameraRayWeight.i, align 8
  store i32 %148, ptr %cameraRayWeight9.i, align 8
  %ptr4.i8.i = getelementptr inbounds i8, ptr %ref.tmp412, i64 112
  %149 = load <2 x ptr>, ptr %ptr4.i8.i, align 8
  store <2 x ptr> %149, ptr %ptr4.i1.i, align 8
  %visibleSurface.i = getelementptr inbounds i8, ptr %ref.tmp412, i64 128
  %visibleSurface11.i = getelementptr inbounds i8, ptr %this, i64 248
  %150 = load i32, ptr %visibleSurface.i, align 8
  store i32 %150, ptr %visibleSurface11.i, align 8
  %set.i.i = getelementptr inbounds i8, ptr %ref.tmp412, i64 136
  %151 = load ptr, ptr %set.i.i, align 8
  %set3.i.i = getelementptr inbounds i8, ptr %this, i64 256
  store ptr %151, ptr %set3.i.i, align 8
  %p.i.i = getelementptr inbounds i8, ptr %ref.tmp412, i64 144
  %p4.i.i = getelementptr inbounds i8, ptr %this, i64 264
  %152 = load i32, ptr %p.i.i, align 8
  store i32 %152, ptr %p4.i.i, align 8
  %x.i.i.i = getelementptr inbounds i8, ptr %ref.tmp412, i64 152
  %x3.i.i.i = getelementptr inbounds i8, ptr %this, i64 272
  %153 = load <2 x ptr>, ptr %x.i.i.i, align 8
  store <2 x ptr> %153, ptr %x3.i.i.i, align 8
  %z.i.i.i = getelementptr inbounds i8, ptr %ref.tmp412, i64 168
  %154 = load ptr, ptr %z.i.i.i, align 8
  %z5.i.i.i = getelementptr inbounds i8, ptr %this, i64 288
  store ptr %154, ptr %z5.i.i.i, align 8
  %n.i.i = getelementptr inbounds i8, ptr %ref.tmp412, i64 176
  %n5.i.i = getelementptr inbounds i8, ptr %this, i64 296
  %155 = load i32, ptr %n.i.i, align 8
  store i32 %155, ptr %n5.i.i, align 8
  %x.i10.i.i = getelementptr inbounds i8, ptr %ref.tmp412, i64 184
  %x3.i11.i.i = getelementptr inbounds i8, ptr %this, i64 304
  %156 = load <2 x ptr>, ptr %x.i10.i.i, align 8
  store <2 x ptr> %156, ptr %x3.i11.i.i, align 8
  %z.i14.i.i = getelementptr inbounds i8, ptr %ref.tmp412, i64 200
  %157 = load ptr, ptr %z.i14.i.i, align 8
  %z5.i15.i.i = getelementptr inbounds i8, ptr %this, i64 320
  store ptr %157, ptr %z5.i15.i.i, align 8
  %ns.i.i = getelementptr inbounds i8, ptr %ref.tmp412, i64 208
  %ns7.i.i = getelementptr inbounds i8, ptr %this, i64 328
  %158 = load i32, ptr %ns.i.i, align 8
  store i32 %158, ptr %ns7.i.i, align 8
  %x.i16.i.i = getelementptr inbounds i8, ptr %ref.tmp412, i64 216
  %x3.i17.i.i = getelementptr inbounds i8, ptr %this, i64 336
  %159 = load <2 x ptr>, ptr %x.i16.i.i, align 8
  store <2 x ptr> %159, ptr %x3.i17.i.i, align 8
  %z.i20.i.i = getelementptr inbounds i8, ptr %ref.tmp412, i64 232
  %160 = load ptr, ptr %z.i20.i.i, align 8
  %z5.i21.i.i = getelementptr inbounds i8, ptr %this, i64 352
  store ptr %160, ptr %z5.i21.i.i, align 8
  %uv.i.i = getelementptr inbounds i8, ptr %ref.tmp412, i64 240
  %uv9.i.i = getelementptr inbounds i8, ptr %this, i64 360
  %161 = load i32, ptr %uv.i.i, align 8
  store i32 %161, ptr %uv9.i.i, align 8
  %x.i22.i.i = getelementptr inbounds i8, ptr %ref.tmp412, i64 248
  %x3.i23.i.i = getelementptr inbounds i8, ptr %this, i64 368
  %162 = load <2 x ptr>, ptr %x.i22.i.i, align 8
  store <2 x ptr> %162, ptr %x3.i23.i.i, align 8
  %time.i.i = getelementptr inbounds i8, ptr %ref.tmp412, i64 264
  %163 = load ptr, ptr %time.i.i, align 8
  %time11.i.i = getelementptr inbounds i8, ptr %this, i64 384
  store ptr %163, ptr %time11.i.i, align 8
  %dpdx.i.i = getelementptr inbounds i8, ptr %ref.tmp412, i64 272
  %dpdx12.i.i = getelementptr inbounds i8, ptr %this, i64 392
  %164 = load i32, ptr %dpdx.i.i, align 8
  store i32 %164, ptr %dpdx12.i.i, align 8
  %x.i26.i.i = getelementptr inbounds i8, ptr %ref.tmp412, i64 280
  %x3.i27.i.i = getelementptr inbounds i8, ptr %this, i64 400
  %165 = load <2 x ptr>, ptr %x.i26.i.i, align 8
  store <2 x ptr> %165, ptr %x3.i27.i.i, align 8
  %z.i30.i.i = getelementptr inbounds i8, ptr %ref.tmp412, i64 296
  %166 = load ptr, ptr %z.i30.i.i, align 8
  %z5.i31.i.i = getelementptr inbounds i8, ptr %this, i64 416
  store ptr %166, ptr %z5.i31.i.i, align 8
  %dpdy.i.i = getelementptr inbounds i8, ptr %ref.tmp412, i64 304
  %dpdy14.i.i = getelementptr inbounds i8, ptr %this, i64 424
  %167 = load i32, ptr %dpdy.i.i, align 8
  store i32 %167, ptr %dpdy14.i.i, align 8
  %x.i32.i.i = getelementptr inbounds i8, ptr %ref.tmp412, i64 312
  %x3.i33.i.i = getelementptr inbounds i8, ptr %this, i64 432
  %168 = load <2 x ptr>, ptr %x.i32.i.i, align 8
  store <2 x ptr> %168, ptr %x3.i33.i.i, align 8
  %z.i36.i.i = getelementptr inbounds i8, ptr %ref.tmp412, i64 328
  %169 = load ptr, ptr %z.i36.i.i, align 8
  %z5.i37.i.i = getelementptr inbounds i8, ptr %this, i64 448
  store ptr %169, ptr %z5.i37.i.i, align 8
  %albedo.i.i = getelementptr inbounds i8, ptr %ref.tmp412, i64 336
  %albedo16.i.i = getelementptr inbounds i8, ptr %this, i64 456
  %170 = load i32, ptr %albedo.i.i, align 8
  store i32 %170, ptr %albedo16.i.i, align 8
  %ptr4.i.i.i222 = getelementptr inbounds i8, ptr %ref.tmp412, i64 344
  %171 = load <2 x ptr>, ptr %ptr4.i.i.i222, align 8
  store <2 x ptr> %171, ptr %ptr4.i.i.i, align 8
  %samples.i = getelementptr inbounds i8, ptr %ref.tmp412, i64 360
  %samples13.i = getelementptr inbounds i8, ptr %this, i64 480
  call void @llvm.memcpy.p0.p0.i64(ptr noundef nonnull align 8 dereferenceable(40) %samples13.i, ptr noundef nonnull align 8 dereferenceable(40) %samples.i, i64 40, i1 false)
  %vtable.i.i.i.i223 = load ptr, ptr %6, align 8
  %vfn.i.i.i.i224 = getelementptr inbounds i8, ptr %vtable.i.i.i.i223, i64 16
  %172 = load ptr, ptr %vfn.i.i.i.i224, align 8
  %call.i.i.i.i225 = invoke noundef ptr %172(ptr noundef nonnull align 8 dereferenceable(8) %6, i64 noundef 408, i64 noundef 8)
          to label %call.i.i.i.i.noexc unwind label %lpad303

call.i.i.i.i.noexc:                               ; preds = %invoke.cont416
  %173 = load i32, ptr %maxQueueSize, align 8
  invoke void @_ZN4pbrt3SOAINS_11RayWorkItemEEC2EiN4pstd3pmr21polymorphic_allocatorISt4byteEE(ptr noundef nonnull align 8 dereferenceable(400) %call.i.i.i.i225, i32 noundef %173, ptr nonnull %6)
          to label %invoke.cont421 unwind label %lpad303

invoke.cont421:                                   ; preds = %call.i.i.i.i.noexc
  %size.i.i.i.i = getelementptr inbounds i8, ptr %call.i.i.i.i225, i64 400
  store i32 0, ptr %size.i.i.i.i, align 4
  %rayQueues = getelementptr inbounds i8, ptr %this, i64 520
  store ptr %call.i.i.i.i225, ptr %rayQueues, align 8
  %vtable.i.i.i.i227 = load ptr, ptr %6, align 8
  %vfn.i.i.i.i228 = getelementptr inbounds i8, ptr %vtable.i.i.i.i227, i64 16
  %174 = load ptr, ptr %vfn.i.i.i.i228, align 8
  %call.i.i.i.i232 = invoke noundef ptr %174(ptr noundef nonnull align 8 dereferenceable(8) %6, i64 noundef 408, i64 noundef 8)
          to label %call.i.i.i.i.noexc231 unwind label %lpad303

call.i.i.i.i.noexc231:                            ; preds = %invoke.cont421
  %175 = load i32, ptr %maxQueueSize, align 8
  invoke void @_ZN4pbrt3SOAINS_11RayWorkItemEEC2EiN4pstd3pmr21polymorphic_allocatorISt4byteEE(ptr noundef nonnull align 8 dereferenceable(400) %call.i.i.i.i232, i32 noundef %175, ptr nonnull %6)
          to label %invoke.cont424 unwind label %lpad303

invoke.cont424:                                   ; preds = %call.i.i.i.i.noexc231
  %size.i.i.i.i230 = getelementptr inbounds i8, ptr %call.i.i.i.i232, i64 400
  store i32 0, ptr %size.i.i.i.i230, align 4
  %arrayidx427 = getelementptr inbounds i8, ptr %this, i64 528
  store ptr %call.i.i.i.i232, ptr %arrayidx427, align 8
  %vtable.i.i.i.i235 = load ptr, ptr %6, align 8
  %vfn.i.i.i.i236 = getelementptr inbounds i8, ptr %vtable.i.i.i.i235, i64 16
  %176 = load ptr, ptr %vfn.i.i.i.i236, align 8
  %call.i.i.i.i239 = invoke noundef ptr %176(ptr noundef nonnull align 8 dereferenceable(8) %6, i64 noundef 232, i64 noundef 8)
          to label %call.i.i.i.i.noexc238 unwind label %lpad303

call.i.i.i.i.noexc238:                            ; preds = %invoke.cont424
  %177 = load i32, ptr %maxQueueSize, align 8
  invoke void @_ZN4pbrt3SOAINS_17ShadowRayWorkItemEEC2EiN4pstd3pmr21polymorphic_allocatorISt4byteEE(ptr noundef nonnull align 8 dereferenceable(224) %call.i.i.i.i239, i32 noundef %177, ptr nonnull %6)
          to label %invoke.cont429 unwind label %lpad303

invoke.cont429:                                   ; preds = %call.i.i.i.i.noexc238
  %size.i.i.i = getelementptr inbounds i8, ptr %call.i.i.i.i239, i64 224
  store i32 0, ptr %size.i.i.i, align 4
  store ptr %call.i.i.i.i239, ptr %shadowRayQueue, align 8
  %178 = load i8, ptr %haveSubsurface, align 1
  %179 = and i8 %178, 1
  %tobool433.not = icmp eq i8 %179, 0
  br i1 %tobool433.not, label %if.end443, label %if.then434

if.then434:                                       ; preds = %invoke.cont429
  %vtable.i.i.i.i241 = load ptr, ptr %6, align 8
  %vfn.i.i.i.i242 = getelementptr inbounds i8, ptr %vtable.i.i.i.i241, i64 16
  %180 = load ptr, ptr %vfn.i.i.i.i242, align 8
  %call.i.i.i.i246 = invoke noundef ptr %180(ptr noundef nonnull align 8 dereferenceable(8) %6, i64 noundef 344, i64 noundef 8)
          to label %call.i.i.i.i.noexc245 unwind label %lpad303

call.i.i.i.i.noexc245:                            ; preds = %if.then434
  %181 = load i32, ptr %maxQueueSize, align 8
  invoke void @_ZN4pbrt3SOAINS_28GetBSSRDFAndProbeRayWorkItemEEC2EiN4pstd3pmr21polymorphic_allocatorISt4byteEE(ptr noundef nonnull align 8 dereferenceable(336) %call.i.i.i.i246, i32 noundef %181, ptr nonnull %6)
          to label %invoke.cont436 unwind label %lpad303

invoke.cont436:                                   ; preds = %call.i.i.i.i.noexc245
  %size.i.i.i.i244 = getelementptr inbounds i8, ptr %call.i.i.i.i246, i64 336
  store i32 0, ptr %size.i.i.i.i244, align 4
  store ptr %call.i.i.i.i246, ptr %bssrdfEvalQueue, align 8
  %vtable.i.i.i.i248 = load ptr, ptr %6, align 8
  %vfn.i.i.i.i249 = getelementptr inbounds i8, ptr %vtable.i.i.i.i248, i64 16
  %182 = load ptr, ptr %vfn.i.i.i.i249, align 8
  %call.i.i.i.i253 = invoke noundef ptr %182(ptr noundef nonnull align 8 dereferenceable(8) %6, i64 noundef 688, i64 noundef 8)
          to label %call.i.i.i.i.noexc252 unwind label %lpad303

call.i.i.i.i.noexc252:                            ; preds = %invoke.cont436
  %183 = load i32, ptr %maxQueueSize, align 8
  invoke void @_ZN4pbrt3SOAINS_25SubsurfaceScatterWorkItemEEC2EiN4pstd3pmr21polymorphic_allocatorISt4byteEE(ptr noundef nonnull align 8 dereferenceable(680) %call.i.i.i.i253, i32 noundef %183, ptr nonnull %6)
          to label %invoke.cont440 unwind label %lpad303

invoke.cont440:                                   ; preds = %call.i.i.i.i.noexc252
  %size.i.i.i.i251 = getelementptr inbounds i8, ptr %call.i.i.i.i253, i64 680
  store i32 0, ptr %size.i.i.i.i251, align 4
  store ptr %call.i.i.i.i253, ptr %subsurfaceScatterQueue, align 8
  br label %if.end443

if.end443:                                        ; preds = %invoke.cont440, %invoke.cont429
  %184 = load ptr, ptr %infiniteLights, align 8
  %nStored.i255 = getelementptr inbounds i8, ptr %184, i64 24
  %185 = load i64, ptr %nStored.i255, align 8
  %tobool447.not = icmp eq i64 %185, 0
  br i1 %tobool447.not, label %if.end453, label %if.then448

if.then448:                                       ; preds = %if.end443
  %vtable.i.i.i.i256 = load ptr, ptr %6, align 8
  %vfn.i.i.i.i257 = getelementptr inbounds i8, ptr %vtable.i.i.i.i256, i64 16
  %186 = load ptr, ptr %vfn.i.i.i.i257, align 8
  %call.i.i.i.i261 = invoke noundef ptr %186(ptr noundef nonnull align 8 dereferenceable(8) %6, i64 noundef 368, i64 noundef 8)
          to label %call.i.i.i.i.noexc260 unwind label %lpad303

call.i.i.i.i.noexc260:                            ; preds = %if.then448
  %187 = load i32, ptr %maxQueueSize, align 8
  invoke void @_ZN4pbrt3SOAINS_18EscapedRayWorkItemEEC2EiN4pstd3pmr21polymorphic_allocatorISt4byteEE(ptr noundef nonnull align 8 dereferenceable(360) %call.i.i.i.i261, i32 noundef %187, ptr nonnull %6)
          to label %invoke.cont450 unwind label %lpad303

invoke.cont450:                                   ; preds = %call.i.i.i.i.noexc260
  %size.i.i.i.i259 = getelementptr inbounds i8, ptr %call.i.i.i.i261, i64 360
  store i32 0, ptr %size.i.i.i.i259, align 4
  store ptr %call.i.i.i.i261, ptr %escapedRayQueue, align 8
  br label %if.end453

if.end453:                                        ; preds = %invoke.cont450, %if.end443
  %vtable.i.i.i.i263 = load ptr, ptr %6, align 8
  %vfn.i.i.i.i264 = getelementptr inbounds i8, ptr %vtable.i.i.i.i263, i64 16
  %188 = load ptr, ptr %vfn.i.i.i.i264, align 8
  %call.i.i.i.i268 = invoke noundef ptr %188(ptr noundef nonnull align 8 dereferenceable(8) %6, i64 noundef 432, i64 noundef 8)
          to label %call.i.i.i.i.noexc267 unwind label %lpad303

call.i.i.i.i.noexc267:                            ; preds = %if.end453
  %189 = load i32, ptr %maxQueueSize, align 8
  invoke void @_ZN4pbrt3SOAINS_20HitAreaLightWorkItemEEC2EiN4pstd3pmr21polymorphic_allocatorISt4byteEE(ptr noundef nonnull align 8 dereferenceable(424) %call.i.i.i.i268, i32 noundef %189, ptr nonnull %6)
          to label %invoke.cont455 unwind label %lpad303

invoke.cont455:                                   ; preds = %call.i.i.i.i.noexc267
  %size.i.i.i266 = getelementptr inbounds i8, ptr %call.i.i.i.i268, i64 424
  store i32 0, ptr %size.i.i.i266, align 4
  store ptr %call.i.i.i.i268, ptr %hitAreaLightQueue, align 8
  %vtable.i.i.i.i271 = load ptr, ptr %6, align 8
  %vfn.i.i.i.i272 = getelementptr inbounds i8, ptr %vtable.i.i.i.i271, i64 16
  %190 = load ptr, ptr %vfn.i.i.i.i272, align 8
  %call.i.i.i.i275 = invoke noundef ptr %190(ptr noundef nonnull align 8 dereferenceable(8) %6, i64 noundef 6336, i64 noundef 8)
          to label %call.i.i.i.i.noexc274 unwind label %lpad303

call.i.i.i.i.noexc274:                            ; preds = %invoke.cont455
  %arrayidx.i270 = getelementptr inbounds i8, ptr %this, i64 4
  %191 = load i32, ptr %maxQueueSize, align 8
  invoke void @_ZN4pbrt14MultiWorkQueueINS_8TypePackIJNS_20MaterialEvalWorkItemINS_21CoatedDiffuseMaterialEEENS2_INS_23CoatedConductorMaterialEEENS2_INS_17ConductorMaterialEEENS2_INS_18DielectricMaterialEEENS2_INS_15DiffuseMaterialEEENS2_INS_27DiffuseTransmissionMaterialEEENS2_INS_12HairMaterialEEENS2_INS_16MeasuredMaterialEEENS2_INS_18SubsurfaceMaterialEEENS2_INS_22ThinDielectricMaterialEEENS2_INS_11MixMaterialEEEEEEEC2EiN4pstd3pmr21polymorphic_allocatorISt4byteEENSR_4spanIKbEE(ptr noundef nonnull align 8 dereferenceable(6336) %call.i.i.i.i275, i32 noundef %191, ptr nonnull %6, ptr nonnull %arrayidx.i270, i64 11)
          to label %invoke.cont468 unwind label %lpad303

invoke.cont468:                                   ; preds = %call.i.i.i.i.noexc274
  store ptr %call.i.i.i.i275, ptr %basicEvalMaterialQueue, align 8
  %vtable.i.i.i.i280 = load ptr, ptr %6, align 8
  %vfn.i.i.i.i281 = getelementptr inbounds i8, ptr %vtable.i.i.i.i280, i64 16
  %192 = load ptr, ptr %vfn.i.i.i.i281, align 8
  %call.i.i.i.i287 = invoke noundef ptr %192(ptr noundef nonnull align 8 dereferenceable(8) %6, i64 noundef 6336, i64 noundef 8)
          to label %call.i.i.i.i.noexc286 unwind label %lpad303

call.i.i.i.i.noexc286:                            ; preds = %invoke.cont468
  %arrayidx.i277 = getelementptr inbounds i8, ptr %this, i64 16
  %193 = load i32, ptr %maxQueueSize, align 8
  invoke void @_ZN4pbrt14MultiWorkQueueINS_8TypePackIJNS_20MaterialEvalWorkItemINS_21CoatedDiffuseMaterialEEENS2_INS_23CoatedConductorMaterialEEENS2_INS_17ConductorMaterialEEENS2_INS_18DielectricMaterialEEENS2_INS_15DiffuseMaterialEEENS2_INS_27DiffuseTransmissionMaterialEEENS2_INS_12HairMaterialEEENS2_INS_16MeasuredMaterialEEENS2_INS_18SubsurfaceMaterialEEENS2_INS_22ThinDielectricMaterialEEENS2_INS_11MixMaterialEEEEEEEC2EiN4pstd3pmr21polymorphic_allocatorISt4byteEENSR_4spanIKbEE(ptr noundef nonnull align 8 dereferenceable(6336) %call.i.i.i.i287, i32 noundef %193, ptr nonnull %6, ptr nonnull %arrayidx.i277, i64 11)
          to label %invoke.cont481 unwind label %lpad303

invoke.cont481:                                   ; preds = %call.i.i.i.i.noexc286
  store ptr %call.i.i.i.i287, ptr %universalEvalMaterialQueue, align 8
  %194 = load i8, ptr %haveMedia, align 2
  %195 = and i8 %194, 1
  %tobool485.not = icmp eq i8 %195, 0
  br i1 %tobool485.not, label %if.end497, label %if.then486

if.then486:                                       ; preds = %invoke.cont481
  %vtable.i.i.i.i290 = load ptr, ptr %6, align 8
  %vfn.i.i.i.i291 = getelementptr inbounds i8, ptr %vtable.i.i.i.i290, i64 16
  %196 = load ptr, ptr %vfn.i.i.i.i291, align 8
  %call.i.i.i.i295 = invoke noundef ptr %196(ptr noundef nonnull align 8 dereferenceable(8) %6, i64 noundef 856, i64 noundef 8)
          to label %call.i.i.i.i.noexc294 unwind label %lpad303

call.i.i.i.i.noexc294:                            ; preds = %if.then486
  %197 = load i32, ptr %maxQueueSize, align 8
  invoke void @_ZN4pbrt3SOAINS_20MediumSampleWorkItemEEC2EiN4pstd3pmr21polymorphic_allocatorISt4byteEE(ptr noundef nonnull align 8 dereferenceable(848) %call.i.i.i.i295, i32 noundef %197, ptr nonnull %6)
          to label %invoke.cont488 unwind label %lpad303

invoke.cont488:                                   ; preds = %call.i.i.i.i.noexc294
  %size.i.i.i.i293 = getelementptr inbounds i8, ptr %call.i.i.i.i295, i64 848
  store i32 0, ptr %size.i.i.i.i293, align 4
  store ptr %call.i.i.i.i295, ptr %mediumSampleQueue, align 8
  %vtable.i.i.i.i301 = load ptr, ptr %6, align 8
  %vfn.i.i.i.i302 = getelementptr inbounds i8, ptr %vtable.i.i.i.i301, i64 16
  %198 = load ptr, ptr %vfn.i.i.i.i302, align 8
  %call.i.i.i.i308 = invoke noundef ptr %198(ptr noundef nonnull align 8 dereferenceable(8) %6, i64 noundef 216, i64 noundef 8)
          to label %call.i.i.i.i.noexc307 unwind label %lpad303

call.i.i.i.i.noexc307:                            ; preds = %invoke.cont488
  %199 = load i32, ptr %maxQueueSize, align 8
  call void @llvm.lifetime.start.p0(i64 216, ptr nonnull %ref.tmp.i.i.i)
  %lambda4.i.i.i.i.i.i.i = getelementptr inbounds i8, ptr %call.i.i.i.i308, i64 56
  call void @llvm.memset.p0.i64(ptr noundef nonnull align 8 dereferenceable(32) %lambda4.i.i.i.i.i.i.i, i8 0, i64 32, i1 false)
  %ptr4.i.i.i.i.i.i.i = getelementptr inbounds i8, ptr %call.i.i.i.i308, i64 96
  call void @llvm.memset.p0.i64(ptr noundef nonnull align 8 dereferenceable(16) %ptr4.i.i.i.i.i.i.i, i8 0, i64 16, i1 false)
  %ptr4.i1.i.i.i.i.i.i = getelementptr inbounds i8, ptr %call.i.i.i.i308, i64 120
  call void @llvm.memset.p0.i64(ptr noundef nonnull align 8 dereferenceable(16) %ptr4.i1.i.i.i.i.i.i, i8 0, i64 16, i1 false)
  %size.i.i.i.i.i = getelementptr inbounds i8, ptr %call.i.i.i.i308, i64 208
  store i32 0, ptr %size.i.i.i.i.i, align 4
  invoke void @_ZN4pbrt3SOAINS_21MediumScatterWorkItemINS_15HGPhaseFunctionEEEEC2EiN4pstd3pmr21polymorphic_allocatorISt4byteEE(ptr noundef nonnull align 8 dereferenceable(208) %ref.tmp.i.i.i, i32 noundef %199, ptr nonnull %6)
          to label %invoke.cont494 unwind label %lpad303

invoke.cont494:                                   ; preds = %call.i.i.i.i.noexc307
  %size.i.i.i.i306 = getelementptr inbounds i8, ptr %ref.tmp.i.i.i, i64 208
  store i32 0, ptr %size.i.i.i.i306, align 8
  %200 = load i32, ptr %ref.tmp.i.i.i, align 8
  store i32 %200, ptr %call.i.i.i.i308, align 8
  %p.i.i.i.i.i = getelementptr inbounds i8, ptr %ref.tmp.i.i.i, i64 8
  %p3.i.i.i.i.i = getelementptr inbounds i8, ptr %call.i.i.i.i308, i64 8
  %201 = load i32, ptr %p.i.i.i.i.i, align 8
  store i32 %201, ptr %p3.i.i.i.i.i, align 8
  %x.i.i.i.i.i.i = getelementptr inbounds i8, ptr %ref.tmp.i.i.i, i64 16
  %202 = load ptr, ptr %x.i.i.i.i.i.i, align 8
  %x3.i.i.i.i.i.i = getelementptr inbounds i8, ptr %call.i.i.i.i308, i64 16
  store ptr %202, ptr %x3.i.i.i.i.i.i, align 8
  %y.i.i.i.i.i.i = getelementptr inbounds i8, ptr %ref.tmp.i.i.i, i64 24
  %203 = load ptr, ptr %y.i.i.i.i.i.i, align 8
  %y4.i.i.i.i.i.i = getelementptr inbounds i8, ptr %call.i.i.i.i308, i64 24
  store ptr %203, ptr %y4.i.i.i.i.i.i, align 8
  %z.i.i.i.i.i.i = getelementptr inbounds i8, ptr %ref.tmp.i.i.i, i64 32
  %204 = load ptr, ptr %z.i.i.i.i.i.i, align 8
  %z5.i.i.i.i.i.i = getelementptr inbounds i8, ptr %call.i.i.i.i308, i64 32
  store ptr %204, ptr %z5.i.i.i.i.i.i, align 8
  %depth.i.i.i.i.i = getelementptr inbounds i8, ptr %ref.tmp.i.i.i, i64 40
  %205 = load ptr, ptr %depth.i.i.i.i.i, align 8
  %depth4.i.i.i.i.i = getelementptr inbounds i8, ptr %call.i.i.i.i308, i64 40
  store ptr %205, ptr %depth4.i.i.i.i.i, align 8
  %lambda.i.i.i.i.i = getelementptr inbounds i8, ptr %ref.tmp.i.i.i, i64 48
  %lambda5.i.i.i.i.i = getelementptr inbounds i8, ptr %call.i.i.i.i308, i64 48
  %206 = load i32, ptr %lambda.i.i.i.i.i, align 8
  store i32 %206, ptr %lambda5.i.i.i.i.i, align 8
  %lambda4.i.i.i.i.i.i = getelementptr inbounds i8, ptr %ref.tmp.i.i.i, i64 56
  %207 = load ptr, ptr %lambda4.i.i.i.i.i.i, align 8
  store ptr %207, ptr %lambda4.i.i.i.i.i.i.i, align 8
  %pdf4.i.i.i.i.i.i = getelementptr inbounds i8, ptr %ref.tmp.i.i.i, i64 64
  %208 = load ptr, ptr %pdf4.i.i.i.i.i.i, align 8
  %pdf44.i.i.i.i.i.i = getelementptr inbounds i8, ptr %call.i.i.i.i308, i64 64
  store ptr %208, ptr %pdf44.i.i.i.i.i.i, align 8
  %lambda1.i.i.i.i.i.i = getelementptr inbounds i8, ptr %ref.tmp.i.i.i, i64 72
  %209 = load ptr, ptr %lambda1.i.i.i.i.i.i, align 8
  %lambda15.i.i.i.i.i.i = getelementptr inbounds i8, ptr %call.i.i.i.i308, i64 72
  store ptr %209, ptr %lambda15.i.i.i.i.i.i, align 8
  %pdf1.i.i.i.i.i.i = getelementptr inbounds i8, ptr %ref.tmp.i.i.i, i64 80
  %210 = load ptr, ptr %pdf1.i.i.i.i.i.i, align 8
  %pdf16.i.i.i.i.i.i = getelementptr inbounds i8, ptr %call.i.i.i.i308, i64 80
  store ptr %210, ptr %pdf16.i.i.i.i.i.i, align 8
  %beta.i.i.i.i.i = getelementptr inbounds i8, ptr %ref.tmp.i.i.i, i64 88
  %beta7.i.i.i.i.i = getelementptr inbounds i8, ptr %call.i.i.i.i308, i64 88
  %211 = load i32, ptr %beta.i.i.i.i.i, align 8
  store i32 %211, ptr %beta7.i.i.i.i.i, align 8
  %ptr4.i.i.i.i.i.i = getelementptr inbounds i8, ptr %ref.tmp.i.i.i, i64 96
  %212 = load ptr, ptr %ptr4.i.i.i.i.i.i, align 8
  store ptr %212, ptr %ptr4.i.i.i.i.i.i.i, align 8
  %ptr1.i.i.i.i.i.i = getelementptr inbounds i8, ptr %ref.tmp.i.i.i, i64 104
  %213 = load ptr, ptr %ptr1.i.i.i.i.i.i, align 8
  %ptr14.i.i.i.i.i.i = getelementptr inbounds i8, ptr %call.i.i.i.i308, i64 104
  store ptr %213, ptr %ptr14.i.i.i.i.i.i, align 8
  %r_u.i.i.i.i.i = getelementptr inbounds i8, ptr %ref.tmp.i.i.i, i64 112
  %r_u9.i.i.i.i.i = getelementptr inbounds i8, ptr %call.i.i.i.i308, i64 112
  %214 = load i32, ptr %r_u.i.i.i.i.i, align 8
  store i32 %214, ptr %r_u9.i.i.i.i.i, align 8
  %ptr4.i12.i.i.i.i.i = getelementptr inbounds i8, ptr %ref.tmp.i.i.i, i64 120
  %215 = load ptr, ptr %ptr4.i12.i.i.i.i.i, align 8
  store ptr %215, ptr %ptr4.i1.i.i.i.i.i.i, align 8
  %ptr1.i14.i.i.i.i.i = getelementptr inbounds i8, ptr %ref.tmp.i.i.i, i64 128
  %216 = load ptr, ptr %ptr1.i14.i.i.i.i.i, align 8
  %ptr14.i15.i.i.i.i.i = getelementptr inbounds i8, ptr %call.i.i.i.i308, i64 128
  store ptr %216, ptr %ptr14.i15.i.i.i.i.i, align 8
  %phase.i.i.i.i.i = getelementptr inbounds i8, ptr %ref.tmp.i.i.i, i64 136
  %217 = load ptr, ptr %phase.i.i.i.i.i, align 8
  %phase11.i.i.i.i.i = getelementptr inbounds i8, ptr %call.i.i.i.i308, i64 136
  store ptr %217, ptr %phase11.i.i.i.i.i, align 8
  %wo.i.i.i.i.i = getelementptr inbounds i8, ptr %ref.tmp.i.i.i, i64 144
  %wo12.i.i.i.i.i = getelementptr inbounds i8, ptr %call.i.i.i.i308, i64 144
  %218 = load i32, ptr %wo.i.i.i.i.i, align 8
  store i32 %218, ptr %wo12.i.i.i.i.i, align 8
  %x.i16.i.i.i.i.i = getelementptr inbounds i8, ptr %ref.tmp.i.i.i, i64 152
  %219 = load ptr, ptr %x.i16.i.i.i.i.i, align 8
  %x3.i17.i.i.i.i.i = getelementptr inbounds i8, ptr %call.i.i.i.i308, i64 152
  store ptr %219, ptr %x3.i17.i.i.i.i.i, align 8
  %y.i18.i.i.i.i.i = getelementptr inbounds i8, ptr %ref.tmp.i.i.i, i64 160
  %220 = load ptr, ptr %y.i18.i.i.i.i.i, align 8
  %y4.i19.i.i.i.i.i = getelementptr inbounds i8, ptr %call.i.i.i.i308, i64 160
  store ptr %220, ptr %y4.i19.i.i.i.i.i, align 8
  %z.i20.i.i.i.i.i = getelementptr inbounds i8, ptr %ref.tmp.i.i.i, i64 168
  %221 = load ptr, ptr %z.i20.i.i.i.i.i, align 8
  %z5.i21.i.i.i.i.i = getelementptr inbounds i8, ptr %call.i.i.i.i308, i64 168
  store ptr %221, ptr %z5.i21.i.i.i.i.i, align 8
  %time.i.i.i.i.i = getelementptr inbounds i8, ptr %ref.tmp.i.i.i, i64 176
  %222 = load ptr, ptr %time.i.i.i.i.i, align 8
  %time14.i.i.i.i.i = getelementptr inbounds i8, ptr %call.i.i.i.i308, i64 176
  store ptr %222, ptr %time14.i.i.i.i.i, align 8
  %etaScale.i.i.i.i.i = getelementptr inbounds i8, ptr %ref.tmp.i.i.i, i64 184
  %223 = load ptr, ptr %etaScale.i.i.i.i.i, align 8
  %etaScale15.i.i.i.i.i = getelementptr inbounds i8, ptr %call.i.i.i.i308, i64 184
  store ptr %223, ptr %etaScale15.i.i.i.i.i, align 8
  %medium.i.i.i.i.i = getelementptr inbounds i8, ptr %ref.tmp.i.i.i, i64 192
  %224 = load ptr, ptr %medium.i.i.i.i.i, align 8
  %medium16.i.i.i.i.i = getelementptr inbounds i8, ptr %call.i.i.i.i308, i64 192
  store ptr %224, ptr %medium16.i.i.i.i.i, align 8
  %pixelIndex.i.i.i.i.i = getelementptr inbounds i8, ptr %ref.tmp.i.i.i, i64 200
  %225 = load ptr, ptr %pixelIndex.i.i.i.i.i, align 8
  %pixelIndex17.i.i.i.i.i = getelementptr inbounds i8, ptr %call.i.i.i.i308, i64 200
  store ptr %225, ptr %pixelIndex17.i.i.i.i.i, align 8
  %226 = load atomic i32, ptr %size.i.i.i.i306 seq_cst, align 8
  store atomic i32 %226, ptr %size.i.i.i.i.i seq_cst, align 4
  call void @llvm.lifetime.end.p0(i64 216, ptr nonnull %ref.tmp.i.i.i)
  store ptr %call.i.i.i.i308, ptr %mediumScatterQueue, align 8
  br label %if.end497

if.end497:                                        ; preds = %invoke.cont494, %invoke.cont481
  %vtable.i.i.i.i310 = load ptr, ptr %6, align 8
  %vfn.i.i.i.i311 = getelementptr inbounds i8, ptr %vtable.i.i.i.i310, i64 16
  %227 = load ptr, ptr %vfn.i.i.i.i311, align 8
  %call.i.i.i.i314 = invoke noundef ptr %227(ptr noundef nonnull align 8 dereferenceable(8) %6, i64 noundef 72, i64 noundef 8)
          to label %call.i.i.i.i.noexc313 unwind label %lpad303

call.i.i.i.i.noexc313:                            ; preds = %if.end497
  %228 = load i32, ptr %maxDepth, align 8
  invoke void @_ZN4pbrt23WavefrontPathIntegrator5StatsC2EiN4pstd3pmr21polymorphic_allocatorISt4byteEE(ptr noundef nonnull align 8 dereferenceable(72) %call.i.i.i.i314, i32 noundef %228, ptr nonnull %6)
          to label %invoke.cont499 unwind label %lpad303

invoke.cont499:                                   ; preds = %call.i.i.i.i.noexc313
  %stats = getelementptr inbounds i8, ptr %this, i64 32
  store ptr %call.i.i.i.i314, ptr %stats, align 8
  call void @_ZNSt7__cxx1112basic_stringIcSt11char_traitsIcESaIcEED1Ev(ptr noundef nonnull align 8 dereferenceable(32) %lightSamplerName) #27
  %229 = load ptr, ptr %materials, align 8
  %tobool.not.i.i.i316 = icmp eq ptr %229, null
  br i1 %tobool.not.i.i.i316, label %_ZNSt6vectorIN4pbrt8MaterialESaIS1_EED2Ev.exit, label %if.then.i.i.i317

if.then.i.i.i317:                                 ; preds = %invoke.cont499
  call void @_ZdlPv(ptr noundef nonnull %229) #29
  br label %_ZNSt6vectorIN4pbrt8MaterialESaIS1_EED2Ev.exit

_ZNSt6vectorIN4pbrt8MaterialESaIS1_EED2Ev.exit:   ; preds = %invoke.cont499, %if.then.i.i.i317
  %230 = load ptr, ptr %_M_parent.i.i.i.i.i135, align 8
  invoke void @_ZNSt8_Rb_treeINSt7__cxx1112basic_stringIcSt11char_traitsIcESaIcEEESt4pairIKS5_N4pbrt8MaterialEESt10_Select1stISA_ESt4lessIS5_ESaISA_EE8_M_eraseEPSt13_Rb_tree_nodeISA_E(ptr noundef nonnull align 8 dereferenceable(48) %namedMaterials, ptr noundef %230)
          to label %_ZNSt3mapINSt7__cxx1112basic_stringIcSt11char_traitsIcESaIcEEEN4pbrt8MaterialESt4lessIS5_ESaISt4pairIKS5_S7_EEED2Ev.exit unwind label %terminate.lpad.i.i318

terminate.lpad.i.i318:                            ; preds = %_ZNSt6vectorIN4pbrt8MaterialESaIS1_EED2Ev.exit
  %231 = landingpad { ptr, i32 }
          catch ptr null
  %232 = extractvalue { ptr, i32 } %231, 0
  call void @__clang_call_terminate(ptr %232) #26
  unreachable

_ZNSt3mapINSt7__cxx1112basic_stringIcSt11char_traitsIcESaIcEEEN4pbrt8MaterialESt4lessIS5_ESaISt4pairIKS5_S7_EEED2Ev.exit: ; preds = %_ZNSt6vectorIN4pbrt8MaterialESaIS1_EED2Ev.exit
  %233 = load ptr, ptr %_M_parent.i.i.i.i.i, align 8
  invoke void @_ZNSt8_Rb_treeIiSt4pairIKiPN4pstd6vectorIN4pbrt5LightENS2_3pmr21polymorphic_allocatorIS5_EEEEESt10_Select1stISB_ESt4lessIiESaISB_EE8_M_eraseEPSt13_Rb_tree_nodeISB_E(ptr noundef nonnull align 8 dereferenceable(48) %shapeIndexToAreaLights, ptr noundef %233)
          to label %_ZNSt3mapIiPN4pstd6vectorIN4pbrt5LightENS0_3pmr21polymorphic_allocatorIS3_EEEESt4lessIiESaISt4pairIKiS8_EEED2Ev.exit unwind label %terminate.lpad.i.i320

terminate.lpad.i.i320:                            ; preds = %_ZNSt3mapINSt7__cxx1112basic_stringIcSt11char_traitsIcESaIcEEEN4pbrt8MaterialESt4lessIS5_ESaISt4pairIKS5_S7_EEED2Ev.exit
  %234 = landingpad { ptr, i32 }
          catch ptr null
  %235 = extractvalue { ptr, i32 } %234, 0
  call void @__clang_call_terminate(ptr %235) #26
  unreachable

_ZNSt3mapIiPN4pstd6vectorIN4pbrt5LightENS0_3pmr21polymorphic_allocatorIS3_EEEESt4lessIiESaISt4pairIKiS8_EEED2Ev.exit: ; preds = %_ZNSt3mapINSt7__cxx1112basic_stringIcSt11char_traitsIcESaIcEEEN4pbrt8MaterialESt4lessIS5_ESaISt4pairIKS5_S7_EEED2Ev.exit
  store i64 0, ptr %nStored.i156, align 8
  %236 = load ptr, ptr %ptr.i, align 8
  %tobool.not.i.i.i.i = icmp eq ptr %236, null
  br i1 %tobool.not.i.i.i.i, label %_ZN4pstd6vectorIN4pbrt5LightENS_3pmr21polymorphic_allocatorIS2_EEED2Ev.exit, label %if.end.i.i.i.i

if.end.i.i.i.i:                                   ; preds = %_ZNSt3mapIiPN4pstd6vectorIN4pbrt5LightENS0_3pmr21polymorphic_allocatorIS3_EEEESt4lessIiESaISt4pairIKiS8_EEED2Ev.exit
  %nAlloc.i322 = getelementptr inbounds i8, ptr %allLights, i64 16
  %237 = load i64, ptr %nAlloc.i322, align 8
  %mul.i.i = shl i64 %237, 3
  %238 = load ptr, ptr %allLights, align 8
  %vtable.i.i.i.i323 = load ptr, ptr %238, align 8
  %vfn.i.i.i.i324 = getelementptr inbounds i8, ptr %vtable.i.i.i.i323, i64 24
  %239 = load ptr, ptr %vfn.i.i.i.i324, align 8
  invoke void %239(ptr noundef nonnull align 8 dereferenceable(8) %238, ptr noundef nonnull %236, i64 noundef %mul.i.i, i64 noundef 8)
          to label %_ZN4pstd6vectorIN4pbrt5LightENS_3pmr21polymorphic_allocatorIS2_EEED2Ev.exit unwind label %terminate.lpad.i

terminate.lpad.i:                                 ; preds = %if.end.i.i.i.i
  %240 = landingpad { ptr, i32 }
          catch ptr null
  %241 = extractvalue { ptr, i32 } %240, 0
  call void @__clang_call_terminate(ptr %241) #26
  unreachable

_ZN4pstd6vectorIN4pbrt5LightENS_3pmr21polymorphic_allocatorIS2_EEED2Ev.exit: ; preds = %_ZNSt3mapIiPN4pstd6vectorIN4pbrt5LightENS0_3pmr21polymorphic_allocatorIS3_EEEESt4lessIiESaISt4pairIKiS8_EEED2Ev.exit, %if.end.i.i.i.i
  call void @_ZN4pbrt13NamedTexturesD2Ev(ptr noundef nonnull align 8 dereferenceable(192) %textures) #27
  %_M_parent.i.i.i.i325 = getelementptr inbounds i8, ptr %media, i64 16
  %242 = load ptr, ptr %_M_parent.i.i.i.i325, align 8
  invoke void @_ZNSt8_Rb_treeINSt7__cxx1112basic_stringIcSt11char_traitsIcESaIcEEESt4pairIKS5_N4pbrt6MediumEESt10_Select1stISA_ESt4lessIS5_ESaISA_EE8_M_eraseEPSt13_Rb_tree_nodeISA_E(ptr noundef nonnull align 8 dereferenceable(48) %media, ptr noundef %242)
          to label %_ZNSt3mapINSt7__cxx1112basic_stringIcSt11char_traitsIcESaIcEEEN4pbrt6MediumESt4lessIS5_ESaISt4pairIKS5_S7_EEED2Ev.exit unwind label %terminate.lpad.i.i326

terminate.lpad.i.i326:                            ; preds = %_ZN4pstd6vectorIN4pbrt5LightENS_3pmr21polymorphic_allocatorIS2_EEED2Ev.exit
  %243 = landingpad { ptr, i32 }
          catch ptr null
  %244 = extractvalue { ptr, i32 } %243, 0
  call void @__clang_call_terminate(ptr %244) #26
  unreachable

_ZNSt3mapINSt7__cxx1112basic_stringIcSt11char_traitsIcESaIcEEEN4pbrt6MediumESt4lessIS5_ESaISt4pairIKS5_S7_EEED2Ev.exit: ; preds = %_ZN4pstd6vectorIN4pbrt5LightENS_3pmr21polymorphic_allocatorIS2_EEED2Ev.exit
  %_M_manager.i.i.i = getelementptr inbounds i8, ptr %threadAllocators, i64 96
  %245 = load ptr, ptr %_M_manager.i.i.i, align 8
  %tobool.not.i.i.i327 = icmp eq ptr %245, null
  br i1 %tobool.not.i.i.i327, label %_ZNSt8functionIFN4pstd3pmr21polymorphic_allocatorISt4byteEEvEED2Ev.exit.i, label %if.then.i.i.i328

if.then.i.i.i328:                                 ; preds = %_ZNSt3mapINSt7__cxx1112basic_stringIcSt11char_traitsIcESaIcEEEN4pbrt6MediumESt4lessIS5_ESaISt4pairIKS5_S7_EEED2Ev.exit
  %create.i = getelementptr inbounds i8, ptr %threadAllocators, i64 80
  %call.i.i.i329 = invoke noundef zeroext i1 %245(ptr noundef nonnull align 8 dereferenceable(16) %create.i, ptr noundef nonnull align 8 dereferenceable(16) %create.i, i32 noundef 3)
          to label %_ZNSt8functionIFN4pstd3pmr21polymorphic_allocatorISt4byteEEvEED2Ev.exit.i unwind label %terminate.lpad.i.i.i

terminate.lpad.i.i.i:                             ; preds = %if.then.i.i.i328
  %246 = landingpad { ptr, i32 }
          catch ptr null
  %247 = extractvalue { ptr, i32 } %246, 0
  call void @__clang_call_terminate(ptr %247) #26
  unreachable

_ZNSt8functionIFN4pstd3pmr21polymorphic_allocatorISt4byteEEvEED2Ev.exit.i: ; preds = %if.then.i.i.i328, %_ZNSt3mapINSt7__cxx1112basic_stringIcSt11char_traitsIcESaIcEEEN4pbrt6MediumESt4lessIS5_ESaISt4pairIKS5_S7_EEED2Ev.exit
  %hashTable.i = getelementptr inbounds i8, ptr %threadAllocators, i64 56
  %248 = load ptr, ptr %hashTable.i, align 8
  %_M_finish.i.i = getelementptr inbounds i8, ptr %threadAllocators, i64 64
  %249 = load ptr, ptr %_M_finish.i.i, align 8
  %cmp.not3.i.i.i.i.i = icmp eq ptr %248, %249
  br i1 %cmp.not3.i.i.i.i.i, label %invoke.cont.i.i, label %for.body.i.i.i.i.i

for.body.i.i.i.i.i:                               ; preds = %_ZNSt8functionIFN4pstd3pmr21polymorphic_allocatorISt4byteEEvEED2Ev.exit.i, %_ZSt8_DestroyIN4pstd8optionalIN4pbrt11ThreadLocalINS0_3pmr21polymorphic_allocatorISt4byteEEE5EntryEEEEvPT_.exit.i.i.i.i.i
  %__first.addr.04.i.i.i.i.i = phi ptr [ %incdec.ptr.i.i.i.i.i, %_ZSt8_DestroyIN4pstd8optionalIN4pbrt11ThreadLocalINS0_3pmr21polymorphic_allocatorISt4byteEEE5EntryEEEEvPT_.exit.i.i.i.i.i ], [ %248, %_ZNSt8functionIFN4pstd3pmr21polymorphic_allocatorISt4byteEEvEED2Ev.exit.i ]
  %set.i.i.i.i.i.i.i.i = getelementptr inbounds i8, ptr %__first.addr.04.i.i.i.i.i, i64 16
  %250 = load i8, ptr %set.i.i.i.i.i.i.i.i, align 8
  %251 = and i8 %250, 1
  %tobool.not.i.i.i.i.i.i.i.i = icmp eq i8 %251, 0
  br i1 %tobool.not.i.i.i.i.i.i.i.i, label %_ZSt8_DestroyIN4pstd8optionalIN4pbrt11ThreadLocalINS0_3pmr21polymorphic_allocatorISt4byteEEE5EntryEEEEvPT_.exit.i.i.i.i.i, label %_ZN4pstd8optionalIN4pbrt11ThreadLocalINS_3pmr21polymorphic_allocatorISt4byteEEE5EntryEE5valueEv.exit.i.i.i.i.i.i.i.i

_ZN4pstd8optionalIN4pbrt11ThreadLocalINS_3pmr21polymorphic_allocatorISt4byteEEE5EntryEE5valueEv.exit.i.i.i.i.i.i.i.i: ; preds = %for.body.i.i.i.i.i
  store i8 0, ptr %set.i.i.i.i.i.i.i.i, align 8
  br label %_ZSt8_DestroyIN4pstd8optionalIN4pbrt11ThreadLocalINS0_3pmr21polymorphic_allocatorISt4byteEEE5EntryEEEEvPT_.exit.i.i.i.i.i

_ZSt8_DestroyIN4pstd8optionalIN4pbrt11ThreadLocalINS0_3pmr21polymorphic_allocatorISt4byteEEE5EntryEEEEvPT_.exit.i.i.i.i.i: ; preds = %_ZN4pstd8optionalIN4pbrt11ThreadLocalINS_3pmr21polymorphic_allocatorISt4byteEEE5EntryEE5valueEv.exit.i.i.i.i.i.i.i.i, %for.body.i.i.i.i.i
  %incdec.ptr.i.i.i.i.i = getelementptr inbounds i8, ptr %__first.addr.04.i.i.i.i.i, i64 24
  %cmp.not.i.i.i.i.i = icmp eq ptr %incdec.ptr.i.i.i.i.i, %249
  br i1 %cmp.not.i.i.i.i.i, label %invoke.contthread-pre-split.i.i, label %for.body.i.i.i.i.i, !llvm.loop !21

invoke.contthread-pre-split.i.i:                  ; preds = %_ZSt8_DestroyIN4pstd8optionalIN4pbrt11ThreadLocalINS0_3pmr21polymorphic_allocatorISt4byteEEE5EntryEEEEvPT_.exit.i.i.i.i.i
  %.pr.i.i = load ptr, ptr %hashTable.i, align 8
  br label %invoke.cont.i.i

invoke.cont.i.i:                                  ; preds = %invoke.contthread-pre-split.i.i, %_ZNSt8functionIFN4pstd3pmr21polymorphic_allocatorISt4byteEEvEED2Ev.exit.i
  %252 = phi ptr [ %.pr.i.i, %invoke.contthread-pre-split.i.i ], [ %248, %_ZNSt8functionIFN4pstd3pmr21polymorphic_allocatorISt4byteEEvEED2Ev.exit.i ]
  %tobool.not.i.i.i.i330 = icmp eq ptr %252, null
  br i1 %tobool.not.i.i.i.i330, label %_ZN4pbrt11ThreadLocalIN4pstd3pmr21polymorphic_allocatorISt4byteEEED2Ev.exit, label %if.then.i.i.i.i

if.then.i.i.i.i:                                  ; preds = %invoke.cont.i.i
  call void @_ZdlPv(ptr noundef nonnull %252) #29
  br label %_ZN4pbrt11ThreadLocalIN4pstd3pmr21polymorphic_allocatorISt4byteEEED2Ev.exit

_ZN4pbrt11ThreadLocalIN4pstd3pmr21polymorphic_allocatorISt4byteEEED2Ev.exit: ; preds = %invoke.cont.i.i, %if.then.i.i.i.i
  ret void

ehcleanup501:                                     ; preds = %common.resume.i, %lpad303, %common.resume.i213, %common.resume.i204, %ehcleanup358, %ehcleanup347
  %.pn44 = phi { ptr, i32 } [ %.pn42, %ehcleanup358 ], [ %.pn40, %ehcleanup347 ], [ %common.resume.op.i, %common.resume.i ], [ %common.resume.op.i205, %common.resume.i204 ], [ %94, %lpad303 ], [ %common.resume.op.i214, %common.resume.i213 ]
  call void @_ZNSt7__cxx1112basic_stringIcSt11char_traitsIcESaIcEED1Ev(ptr noundef nonnull align 8 dereferenceable(32) %lightSamplerName) #27
  br label %ehcleanup502

ehcleanup502:                                     ; preds = %lpad156.loopexit, %lpad156.loopexit.split-lp.loopexit.split-lp.loopexit, %lpad156.loopexit.split-lp.loopexit.split-lp.loopexit.split-lp.loopexit.split-lp, %lpad156.loopexit.split-lp.loopexit.split-lp.loopexit.split-lp.loopexit, %lpad156.loopexit.split-lp.loopexit, %ehcleanup501, %ehcleanup302, %lpad238
  %.pn47 = phi { ptr, i32 } [ %.pn44, %ehcleanup501 ], [ %.pn.pn, %ehcleanup302 ], [ %82, %lpad238 ], [ %lpad.loopexit, %lpad156.loopexit ], [ %lpad.loopexit374, %lpad156.loopexit.split-lp.loopexit ], [ %lpad.loopexit377, %lpad156.loopexit.split-lp.loopexit.split-lp.loopexit ], [ %lpad.loopexit379, %lpad156.loopexit.split-lp.loopexit.split-lp.loopexit.split-lp.loopexit ], [ %lpad.loopexit.split-lp380, %lpad156.loopexit.split-lp.loopexit.split-lp.loopexit.split-lp.loopexit.split-lp ]
  %253 = load ptr, ptr %materials, align 8
  %tobool.not.i.i.i331 = icmp eq ptr %253, null
  br i1 %tobool.not.i.i.i331, label %_ZNSt6vectorIN4pbrt8MaterialESaIS1_EED2Ev.exit333, label %if.then.i.i.i332

if.then.i.i.i332:                                 ; preds = %ehcleanup502
  call void @_ZdlPv(ptr noundef nonnull %253) #29
  br label %_ZNSt6vectorIN4pbrt8MaterialESaIS1_EED2Ev.exit333

_ZNSt6vectorIN4pbrt8MaterialESaIS1_EED2Ev.exit333: ; preds = %ehcleanup502, %if.then.i.i.i332
  call void @_ZNSt3mapINSt7__cxx1112basic_stringIcSt11char_traitsIcESaIcEEEN4pbrt8MaterialESt4lessIS5_ESaISt4pairIKS5_S7_EEED2Ev(ptr noundef nonnull align 8 dereferenceable(48) %namedMaterials) #27
  br label %ehcleanup504

ehcleanup504:                                     ; preds = %if.then.i.i.i87, %lpad130, %_ZNSt6vectorIN4pbrt8MaterialESaIS1_EED2Ev.exit333, %lpad114
  %.pn49 = phi { ptr, i32 } [ %.pn47, %_ZNSt6vectorIN4pbrt8MaterialESaIS1_EED2Ev.exit333 ], [ %36, %lpad114 ], [ %56, %lpad130 ], [ %56, %if.then.i.i.i87 ]
  call void @_ZNSt3mapIiPN4pstd6vectorIN4pbrt5LightENS0_3pmr21polymorphic_allocatorIS3_EEEESt4lessIiESaISt4pairIKiS8_EEED2Ev(ptr noundef nonnull align 8 dereferenceable(48) %shapeIndexToAreaLights) #27
  call void @_ZN4pstd6vectorIN4pbrt5LightENS_3pmr21polymorphic_allocatorIS2_EEED2Ev(ptr noundef nonnull align 8 dereferenceable(32) %allLights) #27
  br label %ehcleanup506

ehcleanup506:                                     ; preds = %ehcleanup504, %lpad105
  %.pn49.pn = phi { ptr, i32 } [ %.pn49, %ehcleanup504 ], [ %35, %lpad105 ]
  call void @_ZN4pbrt13NamedTexturesD2Ev(ptr noundef nonnull align 8 dereferenceable(192) %textures) #27
  br label %ehcleanup507

ehcleanup507:                                     ; preds = %ehcleanup506, %lpad100
  %.pn49.pn.pn = phi { ptr, i32 } [ %.pn49.pn, %ehcleanup506 ], [ %34, %lpad100 ]
  call void @_ZNSt3mapINSt7__cxx1112basic_stringIcSt11char_traitsIcESaIcEEEN4pbrt6MediumESt4lessIS5_ESaISt4pairIKS5_S7_EEED2Ev(ptr noundef nonnull align 8 dereferenceable(48) %media) #27
  br label %ehcleanup508

ehcleanup508:                                     ; preds = %ehcleanup507, %lpad4
  %.pn49.pn.pn.pn = phi { ptr, i32 } [ %.pn49.pn.pn, %ehcleanup507 ], [ %13, %lpad4 ]
  call void @_ZN4pbrt11ThreadLocalIN4pstd3pmr21polymorphic_allocatorISt4byteEEED2Ev(ptr noundef nonnull align 8 dereferenceable(112) %threadAllocators) #27
  br label %eh.resume

eh.resume:                                        ; preds = %if.then.i.i58, %lpad, %ehcleanup508
  %.pn49.pn.pn.pn.pn = phi { ptr, i32 } [ %.pn49.pn.pn.pn, %ehcleanup508 ], [ %9, %lpad ], [ %9, %if.then.i.i58 ]
  resume { ptr, i32 } %.pn49.pn.pn.pn.pn
}

; Function Attrs: nobuiltin allocsize(0)
declare noundef nonnull ptr @_Znwm(i64 noundef) local_unnamed_addr #4

; Function Attrs: mustprogress uwtable
define linkonce_odr dso_local void @_ZN4pbrt11ThreadLocalIN4pstd3pmr21polymorphic_allocatorISt4byteEEEC2EOSt8functionIFS5_vEE(ptr noundef nonnull align 8 dereferenceable(112) %this, ptr noundef nonnull align 8 dereferenceable(32) %c) unnamed_addr #3 comdat align 2 personality ptr @__gxx_personality_v0 {
entry:
  tail call void @llvm.memset.p0.i64(ptr noundef nonnull align 8 dereferenceable(56) %this, i8 0, i64 56, i1 false)
  %hashTable = getelementptr inbounds i8, ptr %this, i64 56
  %call = tail call noundef i32 @_ZN4pbrt14RunningThreadsEv()
  %mul = shl nsw i32 %call, 2
  %conv = sext i32 %mul to i64
  %cmp.i.i = icmp slt i32 %call, 0
  br i1 %cmp.i.i, label %if.then.i.i, label %_ZNSt6vectorIN4pstd8optionalIN4pbrt11ThreadLocalINS0_3pmr21polymorphic_allocatorISt4byteEEE5EntryEEESaISA_EE17_S_check_init_lenEmRKSB_.exit.i

if.then.i.i:                                      ; preds = %entry
  tail call void @_ZSt20__throw_length_errorPKc(ptr noundef nonnull @.str.73) #30
  unreachable

_ZNSt6vectorIN4pstd8optionalIN4pbrt11ThreadLocalINS0_3pmr21polymorphic_allocatorISt4byteEEE5EntryEEESaISA_EE17_S_check_init_lenEmRKSB_.exit.i: ; preds = %entry
  tail call void @llvm.memset.p0.i64(ptr noundef nonnull align 8 dereferenceable(24) %hashTable, i8 0, i64 24, i1 false)
  %cmp.not.i.i.i.i = icmp eq i32 %call, 0
  br i1 %cmp.not.i.i.i.i, label %_ZNSt12_Vector_baseIN4pstd8optionalIN4pbrt11ThreadLocalINS0_3pmr21polymorphic_allocatorISt4byteEEE5EntryEEESaISA_EEC2EmRKSB_.exit.thread.i, label %for.body.preheader.i.i.i.i.i

_ZNSt12_Vector_baseIN4pstd8optionalIN4pbrt11ThreadLocalINS0_3pmr21polymorphic_allocatorISt4byteEEE5EntryEEESaISA_EEC2EmRKSB_.exit.thread.i: ; preds = %_ZNSt6vectorIN4pstd8optionalIN4pbrt11ThreadLocalINS0_3pmr21polymorphic_allocatorISt4byteEEE5EntryEEESaISA_EE17_S_check_init_lenEmRKSB_.exit.i
  tail call void @llvm.memset.p0.i64(ptr noundef nonnull align 8 dereferenceable(16) %hashTable, i8 0, i64 16, i1 false)
  br label %invoke.cont

for.body.preheader.i.i.i.i.i:                     ; preds = %_ZNSt6vectorIN4pstd8optionalIN4pbrt11ThreadLocalINS0_3pmr21polymorphic_allocatorISt4byteEEE5EntryEEESaISA_EE17_S_check_init_lenEmRKSB_.exit.i
  %mul.i.i.i.i.i.i = mul nuw nsw i64 %conv, 24
  %call5.i.i.i.i2.i.i2 = tail call noalias noundef nonnull ptr @_Znwm(i64 noundef %mul.i.i.i.i.i.i) #25
  store ptr %call5.i.i.i.i2.i.i2, ptr %hashTable, align 8
  %add.ptr.i.i.i = getelementptr inbounds %"class.pstd::optional.278", ptr %call5.i.i.i.i2.i.i2, i64 %conv
  tail call void @llvm.memset.p0.i64(ptr nonnull align 8 %call5.i.i.i.i2.i.i2, i8 0, i64 %mul.i.i.i.i.i.i, i1 false)
  %scevgep.i.i.i.i.i = getelementptr i8, ptr %call5.i.i.i.i2.i.i2, i64 %mul.i.i.i.i.i.i
  br label %invoke.cont

invoke.cont:                                      ; preds = %for.body.preheader.i.i.i.i.i, %_ZNSt12_Vector_baseIN4pstd8optionalIN4pbrt11ThreadLocalINS0_3pmr21polymorphic_allocatorISt4byteEEE5EntryEEESaISA_EEC2EmRKSB_.exit.thread.i
  %add.ptr.i.i.sink.i = phi ptr [ null, %_ZNSt12_Vector_baseIN4pstd8optionalIN4pbrt11ThreadLocalINS0_3pmr21polymorphic_allocatorISt4byteEEE5EntryEEESaISA_EEC2EmRKSB_.exit.thread.i ], [ %add.ptr.i.i.i, %for.body.preheader.i.i.i.i.i ]
  %__cur.0.lcssa.i.i.i.i.i = phi ptr [ null, %_ZNSt12_Vector_baseIN4pstd8optionalIN4pbrt11ThreadLocalINS0_3pmr21polymorphic_allocatorISt4byteEEE5EntryEEESaISA_EEC2EmRKSB_.exit.thread.i ], [ %scevgep.i.i.i.i.i, %for.body.preheader.i.i.i.i.i ]
  %_M_finish.i.i7.i = getelementptr inbounds i8, ptr %this, i64 64
  %0 = getelementptr inbounds i8, ptr %this, i64 72
  store ptr %add.ptr.i.i.sink.i, ptr %0, align 8
  store ptr %__cur.0.lcssa.i.i.i.i.i, ptr %_M_finish.i.i7.i, align 8
  %create = getelementptr inbounds i8, ptr %this, i64 80
  %_M_manager.i.i = getelementptr inbounds i8, ptr %this, i64 96
  %_M_invoker.i = getelementptr inbounds i8, ptr %this, i64 104
  %_M_manager.i.i.i = getelementptr inbounds i8, ptr %c, i64 16
  tail call void @llvm.memset.p0.i64(ptr noundef nonnull align 8 dereferenceable(32) %create, i8 0, i64 32, i1 false)
  %1 = load ptr, ptr %_M_manager.i.i.i, align 8
  %tobool.not.i.i.not.i = icmp eq ptr %1, null
  br i1 %tobool.not.i.i.not.i, label %invoke.cont3, label %if.then.i

if.then.i:                                        ; preds = %invoke.cont
  %call3.i = invoke noundef zeroext i1 %1(ptr noundef nonnull align 8 dereferenceable(16) %create, ptr noundef nonnull align 8 dereferenceable(16) %c, i32 noundef 2)
          to label %invoke.cont.i unwind label %lpad.i

invoke.cont.i:                                    ; preds = %if.then.i
  %_M_invoker4.i = getelementptr inbounds i8, ptr %c, i64 24
  %2 = load ptr, ptr %_M_invoker4.i, align 8
  store ptr %2, ptr %_M_invoker.i, align 8
  %3 = load ptr, ptr %_M_manager.i.i.i, align 8
  store ptr %3, ptr %_M_manager.i.i, align 8
  br label %invoke.cont3

lpad.i:                                           ; preds = %if.then.i
  %4 = landingpad { ptr, i32 }
          cleanup
  %5 = load ptr, ptr %_M_manager.i.i, align 8
  %tobool.not.i.i = icmp eq ptr %5, null
  br i1 %tobool.not.i.i, label %lpad2.body, label %if.then.i.i3

if.then.i.i3:                                     ; preds = %lpad.i
  %call.i.i = invoke noundef zeroext i1 %5(ptr noundef nonnull align 8 dereferenceable(16) %create, ptr noundef nonnull align 8 dereferenceable(16) %create, i32 noundef 3)
          to label %lpad2.body unwind label %terminate.lpad.i.i

terminate.lpad.i.i:                               ; preds = %if.then.i.i3
  %6 = landingpad { ptr, i32 }
          catch ptr null
  %7 = extractvalue { ptr, i32 } %6, 0
  tail call void @__clang_call_terminate(ptr %7) #26
  unreachable

invoke.cont3:                                     ; preds = %invoke.cont.i, %invoke.cont
  ret void

lpad2.body:                                       ; preds = %lpad.i, %if.then.i.i3
  tail call void @_ZNSt6vectorIN4pstd8optionalIN4pbrt11ThreadLocalINS0_3pmr21polymorphic_allocatorISt4byteEEE5EntryEEESaISA_EED2Ev(ptr noundef nonnull align 8 dereferenceable(24) %hashTable) #27
  resume { ptr, i32 } %4
}

declare i32 @__gxx_personality_v0(...)

; Function Attrs: mustprogress uwtable
define linkonce_odr dso_local noundef nonnull align 8 dereferenceable(8) ptr @_ZN4pbrt11ThreadLocalIN4pstd3pmr21polymorphic_allocatorISt4byteEEE3GetEv(ptr noundef nonnull align 8 dereferenceable(112) %this) local_unnamed_addr #3 comdat align 2 personality ptr @__gxx_personality_v0 {
entry:
  %tid = alloca %"class.std::thread::id", align 8
  %va = alloca i32, align 4
  %vb = alloca i64, align 8
  %call.i = tail call i64 @pthread_self() #31
  store i64 %call.i, ptr %tid, align 8
  %call.i.i1.i = invoke noundef i64 @_ZSt11_Hash_bytesPKvmm(ptr noundef nonnull %tid, i64 noundef 8, i64 noundef 3339675911)
          to label %_ZNKSt4hashINSt6thread2idEEclERKS1_.exit unwind label %terminate.lpad.i

terminate.lpad.i:                                 ; preds = %entry
  %0 = landingpad { ptr, i32 }
          catch ptr null
  %1 = extractvalue { ptr, i32 } %0, 0
  call void @__clang_call_terminate(ptr %1) #26
  unreachable

_ZNKSt4hashINSt6thread2idEEclERKS1_.exit:         ; preds = %entry
  %hashTable = getelementptr inbounds i8, ptr %this, i64 56
  %_M_finish.i = getelementptr inbounds i8, ptr %this, i64 64
  %2 = load ptr, ptr %_M_finish.i, align 8
  %3 = load ptr, ptr %hashTable, align 8
  %sub.ptr.lhs.cast.i = ptrtoint ptr %2 to i64
  %sub.ptr.rhs.cast.i = ptrtoint ptr %3 to i64
  %sub.ptr.sub.i = sub i64 %sub.ptr.lhs.cast.i, %sub.ptr.rhs.cast.i
  %sub.ptr.div.i = sdiv exact i64 %sub.ptr.sub.i, 24
  %conv4 = and i64 %call.i.i1.i, 4294967295
  %rem = urem i64 %conv4, %sub.ptr.div.i
  %conv5 = trunc i64 %rem to i32
  br label %do.body.i.i

do.body.i.i:                                      ; preds = %do.body.i.i, %_ZNKSt4hashINSt6thread2idEEclERKS1_.exit
  %call1.i.i.i = call noundef i32 @pthread_rwlock_rdlock(ptr noundef nonnull %this) #27
  switch i32 %call1.i.i.i, label %while.body.preheader [
    i32 11, label %do.body.i.i
    i32 35, label %if.then.i.i
  ]

while.body.preheader:                             ; preds = %do.body.i.i
  %4 = load ptr, ptr %_M_finish.i, align 8
  %5 = load ptr, ptr %hashTable, align 8
  %sub.ptr.lhs.cast.i19 = ptrtoint ptr %4 to i64
  %sub.ptr.rhs.cast.i20 = ptrtoint ptr %5 to i64
  %sub.ptr.sub.i21 = sub i64 %sub.ptr.lhs.cast.i19, %sub.ptr.rhs.cast.i20
  %sub.ptr.div.i22 = sdiv exact i64 %sub.ptr.sub.i21, 24
  store i32 1, ptr %va, align 4
  store i64 %sub.ptr.div.i22, ptr %vb, align 8
  %cmp77 = icmp ugt i64 %sub.ptr.div.i22, 1
  br i1 %cmp77, label %do.end.lr.ph, label %if.then

do.end.lr.ph:                                     ; preds = %while.body.preheader
  %agg.tmp18.sroa.0.0.copyload = load i64, ptr %tid, align 8
  br label %do.end

if.then.i.i:                                      ; preds = %do.body.i.i
  call void @_ZSt20__throw_system_errori(i32 noundef 35) #30
  unreachable

if.then:                                          ; preds = %if.end91, %while.body.preheader
  call void @_ZN4pbrt8LogFatalIJRA8_KcRA17_S1_S3_RiS5_RmEEEvNS_8LogLevelEPS1_iS9_DpOT_(i32 noundef 2, ptr noundef nonnull @.str.74, i32 noundef 72, ptr noundef nonnull @.str.75, ptr noundef nonnull align 1 dereferenceable(8) @.str.76, ptr noundef nonnull align 1 dereferenceable(17) @.str.77, ptr noundef nonnull align 1 dereferenceable(8) @.str.76, ptr noundef nonnull align 4 dereferenceable(4) %va, ptr noundef nonnull align 1 dereferenceable(17) @.str.77, ptr noundef nonnull align 8 dereferenceable(8) %vb) #30
  unreachable

do.end:                                           ; preds = %do.end.lr.ph, %if.end91
  %indvars.iv = phi i64 [ 1, %do.end.lr.ph ], [ %indvars.iv.next, %if.end91 ]
  %hash.079 = phi i32 [ %conv5, %do.end.lr.ph ], [ %hash.4, %if.end91 ]
  %indvars92 = trunc i64 %indvars.iv to i32
  %conv10 = zext i32 %hash.079 to i64
  %add.ptr.i = getelementptr inbounds %"class.pstd::optional.278", ptr %5, i64 %conv10
  %set.i = getelementptr inbounds i8, ptr %add.ptr.i, i64 16
  %6 = load i8, ptr %set.i, align 8
  %7 = and i8 %6, 1
  %tobool.i.not = icmp eq i8 %7, 0
  br i1 %tobool.i.not, label %if.then32, label %_ZN4pstd8optionalIN4pbrt11ThreadLocalINS_3pmr21polymorphic_allocatorISt4byteEEE5EntryEEptEv.exit

_ZN4pstd8optionalIN4pbrt11ThreadLocalINS_3pmr21polymorphic_allocatorISt4byteEEE5EntryEEptEv.exit: ; preds = %do.end
  %agg.tmp.sroa.0.0.copyload = load i64, ptr %add.ptr.i, align 8
  %cmp.i = icmp eq i64 %agg.tmp.sroa.0.0.copyload, %agg.tmp18.sroa.0.0.copyload
  br i1 %cmp.i, label %return, label %if.end78

if.then32:                                        ; preds = %do.end
  %call1.i.i.i.i32 = call noundef i32 @pthread_rwlock_unlock(ptr noundef nonnull %this) #27
  %call1.i.i.i33 = call noundef i32 @pthread_rwlock_wrlock(ptr noundef nonnull %this) #27
  %cmp.i.i = icmp eq i32 %call1.i.i.i33, 35
  br i1 %cmp.i.i, label %if.then.i.i34, label %_ZNSt12shared_mutex4lockEv.exit

if.then.i.i34:                                    ; preds = %if.then32
  call void @_ZSt20__throw_system_errori(i32 noundef 35) #30
  unreachable

_ZNSt12shared_mutex4lockEv.exit:                  ; preds = %if.then32
  %_M_manager.i.i = getelementptr inbounds i8, ptr %this, i64 96
  %8 = load ptr, ptr %_M_manager.i.i, align 8
  %tobool.not.i.i35 = icmp eq ptr %8, null
  br i1 %tobool.not.i.i35, label %if.then.i, label %_ZNKSt8functionIFN4pstd3pmr21polymorphic_allocatorISt4byteEEvEEclEv.exit

if.then.i:                                        ; preds = %_ZNSt12shared_mutex4lockEv.exit
  call void @_ZSt25__throw_bad_function_callv() #30
  unreachable

_ZNKSt8functionIFN4pstd3pmr21polymorphic_allocatorISt4byteEEvEEclEv.exit: ; preds = %_ZNSt12shared_mutex4lockEv.exit
  %create = getelementptr inbounds i8, ptr %this, i64 80
  %_M_invoker.i = getelementptr inbounds i8, ptr %this, i64 104
  %9 = load ptr, ptr %_M_invoker.i, align 8
  %call2.i = call ptr %9(ptr noundef nonnull align 8 dereferenceable(16) %create)
  %10 = load ptr, ptr %hashTable, align 8
  %set.i37 = getelementptr inbounds %"class.pstd::optional.278", ptr %10, i64 %conv10, i32 1
  %11 = load i8, ptr %set.i37, align 8
  %12 = and i8 %11, 1
  %tobool.i38.not = icmp eq i8 %12, 0
  br i1 %tobool.i38.not, label %if.end62, label %while.body43.preheader

while.body43.preheader:                           ; preds = %_ZNKSt8functionIFN4pstd3pmr21polymorphic_allocatorISt4byteEEvEEclEv.exit
  %13 = load ptr, ptr %_M_finish.i, align 8
  %sub.ptr.lhs.cast.i40 = ptrtoint ptr %13 to i64
  %sub.ptr.rhs.cast.i41 = ptrtoint ptr %10 to i64
  %sub.ptr.sub.i42 = sub i64 %sub.ptr.lhs.cast.i40, %sub.ptr.rhs.cast.i41
  %sub.ptr.div.i43 = sdiv exact i64 %sub.ptr.sub.i42, 24
  br label %while.body43

while.body43:                                     ; preds = %while.body43.preheader, %if.end55
  %step.1 = phi i32 [ %inc44, %if.end55 ], [ %indvars92, %while.body43.preheader ]
  %hash.1 = phi i32 [ %hash.2, %if.end55 ], [ %hash.079, %while.body43.preheader ]
  %add = add i32 %hash.1, %step.1
  %inc44 = add nuw nsw i32 %step.1, 1
  %conv45 = zext i32 %add to i64
  %cmp48.not = icmp ugt i64 %sub.ptr.div.i43, %conv45
  br i1 %cmp48.not, label %if.end55, label %if.then49

if.then49:                                        ; preds = %while.body43
  %rem53 = urem i64 %conv45, %sub.ptr.div.i43
  %conv54 = trunc i64 %rem53 to i32
  br label %if.end55

if.end55:                                         ; preds = %if.then49, %while.body43
  %conv57.pre-phi = phi i64 [ %rem53, %if.then49 ], [ %conv45, %while.body43 ]
  %hash.2 = phi i32 [ %conv54, %if.then49 ], [ %add, %while.body43 ]
  %set.i50 = getelementptr inbounds %"class.pstd::optional.278", ptr %10, i64 %conv57.pre-phi, i32 1
  %14 = load i8, ptr %set.i50, align 8
  %15 = and i8 %14, 1
  %tobool.i51.not = icmp eq i8 %15, 0
  br i1 %tobool.i51.not, label %if.end62.loopexit, label %while.body43, !llvm.loop !22

if.end62.loopexit:                                ; preds = %if.end55
  %.pre93 = zext i32 %hash.2 to i64
  br label %if.end62

if.end62:                                         ; preds = %if.end62.loopexit, %_ZNKSt8functionIFN4pstd3pmr21polymorphic_allocatorISt4byteEEvEEclEv.exit
  %conv67.pre-phi = phi i64 [ %.pre93, %if.end62.loopexit ], [ %conv10, %_ZNKSt8functionIFN4pstd3pmr21polymorphic_allocatorISt4byteEEvEEclEv.exit ]
  %16 = load i64, ptr %tid, align 8
  %add.ptr.i52 = getelementptr inbounds %"class.pstd::optional.278", ptr %10, i64 %conv67.pre-phi
  %set.i.i53 = getelementptr inbounds i8, ptr %add.ptr.i52, i64 16
  store i64 %16, ptr %add.ptr.i52, align 8
  %ref.tmp63.sroa.2.0.add.ptr.i52.sroa_idx = getelementptr inbounds i8, ptr %add.ptr.i52, i64 8
  store ptr %call2.i, ptr %ref.tmp63.sroa.2.0.add.ptr.i52.sroa_idx, align 8
  store i8 1, ptr %set.i.i53, align 8
  %17 = load ptr, ptr %hashTable, align 8
  %add.ptr.i55 = getelementptr inbounds %"class.pstd::optional.278", ptr %17, i64 %conv67.pre-phi
  %set.i.i56 = getelementptr inbounds i8, ptr %add.ptr.i55, i64 16
  %18 = load i8, ptr %set.i.i56, align 8
  %19 = and i8 %18, 1
  %tobool.not.i.i57 = icmp eq i8 %19, 0
  br i1 %tobool.not.i.i57, label %land.rhs.i.i58, label %return

land.rhs.i.i58:                                   ; preds = %if.end62
  call void @_ZN4pbrt8LogFatalIJRA4_KcEEEvNS_8LogLevelEPS1_iS5_DpOT_(i32 noundef 2, ptr noundef nonnull @.str.68, i32 noundef 235, ptr noundef nonnull @.str.69, ptr noundef nonnull align 1 dereferenceable(4) @.str.70) #30
  unreachable

if.end78:                                         ; preds = %_ZN4pstd8optionalIN4pbrt11ThreadLocalINS_3pmr21polymorphic_allocatorISt4byteEEE5EntryEEptEv.exit
  %add79 = add i32 %hash.079, %indvars92
  %indvars.iv.next = add nuw i64 %indvars.iv, 1
  %conv81 = zext i32 %add79 to i64
  %cmp84.not = icmp ugt i64 %sub.ptr.div.i22, %conv81
  br i1 %cmp84.not, label %if.end91, label %if.then85

if.then85:                                        ; preds = %if.end78
  %rem89 = urem i64 %conv81, %sub.ptr.div.i22
  %conv90 = trunc i64 %rem89 to i32
  br label %if.end91

if.end91:                                         ; preds = %if.then85, %if.end78
  %hash.4 = phi i32 [ %conv90, %if.then85 ], [ %add79, %if.end78 ]
  %20 = trunc i64 %indvars.iv.next to i32
  store i32 %20, ptr %va, align 4
  store i64 %sub.ptr.div.i22, ptr %vb, align 8
  %exitcond.not = icmp eq i64 %indvars.iv.next, %sub.ptr.div.i22
  br i1 %exitcond.not, label %if.then, label %do.end, !llvm.loop !23

return:                                           ; preds = %_ZN4pstd8optionalIN4pbrt11ThreadLocalINS_3pmr21polymorphic_allocatorISt4byteEEE5EntryEEptEv.exit, %if.end62
  %call26.pn = phi ptr [ %add.ptr.i55, %if.end62 ], [ %add.ptr.i, %_ZN4pstd8optionalIN4pbrt11ThreadLocalINS_3pmr21polymorphic_allocatorISt4byteEEE5EntryEEptEv.exit ]
  %call1.i.i.i60 = call noundef i32 @pthread_rwlock_unlock(ptr noundef nonnull %this) #27
  %retval.0 = getelementptr inbounds i8, ptr %call26.pn, i64 8
  ret ptr %retval.0
}

; Function Attrs: mustprogress nocallback nofree nounwind willreturn memory(argmem: readwrite)
declare void @llvm.memcpy.p0.p0.i64(ptr noalias nocapture writeonly, ptr noalias nocapture readonly, i64, i1 immarg) #5

declare void @_ZN4pbrt10BasicScene11CreateMediaB5cxx11Ev(ptr sret(%"class.std::map") align 8, ptr noundef nonnull align 8 dereferenceable(1520)) local_unnamed_addr #0

; Function Attrs: nounwind
declare noundef zeroext i1 @_ZNKSt7__cxx1112basic_stringIcSt11char_traitsIcESaIcEE5emptyEv(ptr noundef nonnull align 8 dereferenceable(32)) local_unnamed_addr #1

declare void @_ZN4pbrt3LogENS_8LogLevelEPKciS2_(i32 noundef, ptr noundef, i32 noundef, ptr noundef) local_unnamed_addr #0

declare void @_ZN4pbrt10BasicScene14CreateTexturesEv(ptr sret(%"struct.pbrt::NamedTextures") align 8, ptr noundef nonnull align 8 dereferenceable(1520)) local_unnamed_addr #0

declare void @_ZN4pbrt10BasicScene12CreateLightsERKNS_13NamedTexturesEPSt3mapIiPN4pstd6vectorINS_5LightENS5_3pmr21polymorphic_allocatorIS7_EEEESt4lessIiESaISt4pairIKiSC_EEE(ptr sret(%"class.std::vector.121") align 8, ptr noundef nonnull align 8 dereferenceable(1520), ptr noundef nonnull align 8 dereferenceable(192), ptr noundef) local_unnamed_addr #0

declare void @_ZN4pbrt10BasicScene15CreateMaterialsERKNS_13NamedTexturesEPSt3mapINSt7__cxx1112basic_stringIcSt11char_traitsIcESaIcEEENS_8MaterialESt4lessISA_ESaISt4pairIKSA_SB_EEEPSt6vectorISB_SaISB_EE(ptr noundef nonnull align 8 dereferenceable(1520), ptr noundef nonnull align 8 dereferenceable(192), ptr noundef, ptr noundef) local_unnamed_addr #0

; Function Attrs: mustprogress uwtable
define internal fastcc void @_ZN4pbrtL19updateMaterialNeedsENS_8MaterialEPN4pstd5arrayIbLi12EEES4_PbS5_(ptr nocapture noundef readonly %m, ptr noundef %haveBasicEvalMaterial, ptr noundef %haveUniversalEvalMaterial, ptr noundef %haveSubsurface, ptr noundef %haveMedia) unnamed_addr #3 {
entry:
  %texEval.i19 = alloca %"class.pbrt::BasicTextureEvaluator", align 1
  %eval.i20 = alloca %class.anon.211, align 8
  %texEval.i = alloca %"class.pbrt::BasicTextureEvaluator", align 1
  %eval.i = alloca %class.anon.211, align 8
  %agg.tmp10 = alloca %"class.pbrt::Material", align 8
  %agg.tmp11 = alloca %"class.pbrt::Material", align 8
  %0 = load i64, ptr %m, align 8
  %cmp.i = icmp eq i64 %0, 0
  %1 = load i8, ptr %haveMedia, align 1
  %2 = and i8 %1, 1
  %3 = zext i1 %cmp.i to i8
  %4 = or i8 %2, %3
  store i8 %4, ptr %haveMedia, align 1
  %5 = load i64, ptr %m, align 8
  %and.i = and i64 %5, 144115188075855871
  %cmp.i12.not = icmp eq i64 %and.i, 0
  br i1 %cmp.i12.not, label %if.end35, label %if.end

if.end:                                           ; preds = %entry
  %shr.i.mask.i.i = and i64 %5, -144115188075855872
  %cmp.i.i.not = icmp eq i64 %shr.i.mask.i.i, 1585267068834414592
  %6 = inttoptr i64 %and.i to ptr
  br i1 %cmp.i.i.not, label %if.then6, label %if.end12

if.then6:                                         ; preds = %if.end
  call void @llvm.lifetime.start.p0(i64 1, ptr nonnull %texEval.i)
  call void @llvm.lifetime.start.p0(i64 8, ptr nonnull %eval.i)
  store ptr %texEval.i, ptr %eval.i, align 8
  %call3.i.i = call noundef zeroext i1 @_ZN4pbrt6detail8DispatchIRZNKS_8Material19CanEvaluateTexturesINS_21BasicTextureEvaluatorEEEbT_EUlS5_E_bNS_21CoatedDiffuseMaterialENS_23CoatedConductorMaterialENS_17ConductorMaterialENS_18DielectricMaterialENS_15DiffuseMaterialENS_27DiffuseTransmissionMaterialENS_12HairMaterialENS_16MeasuredMaterialEJNS_18SubsurfaceMaterialENS_22ThinDielectricMaterialENS_11MixMaterialEEvEET0_OS5_PKvi(ptr noundef nonnull align 8 dereferenceable(8) %eval.i, ptr noundef nonnull %6, i32 noundef 10)
  call void @llvm.lifetime.end.p0(i64 1, ptr nonnull %texEval.i)
  call void @llvm.lifetime.end.p0(i64 8, ptr nonnull %eval.i)
  br i1 %call3.i.i, label %if.end9, label %if.then8

if.then8:                                         ; preds = %if.then6
  call void @_ZN4pbrt9ErrorExitIJRNS_11MixMaterialEEEEvPKcDpOT_(ptr noundef nonnull @.str.58, ptr noundef nonnull align 8 dereferenceable(24) %6) #30
  unreachable

if.end9:                                          ; preds = %if.then6
  call void @llvm.experimental.noalias.scope.decl(metadata !24)
  %materials.i = getelementptr inbounds i8, ptr %6, i64 8
  %7 = load i64, ptr %materials.i, align 8, !noalias !24
  store i64 %7, ptr %agg.tmp10, align 8, !alias.scope !24
  call fastcc void @_ZN4pbrtL19updateMaterialNeedsENS_8MaterialEPN4pstd5arrayIbLi12EEES4_PbS5_(ptr noundef nonnull %agg.tmp10, ptr noundef %haveBasicEvalMaterial, ptr noundef %haveUniversalEvalMaterial, ptr noundef %haveSubsurface, ptr noundef nonnull %haveMedia)
  call void @llvm.experimental.noalias.scope.decl(metadata !27)
  %arrayidx.i = getelementptr inbounds i8, ptr %6, i64 16
  %8 = load i64, ptr %arrayidx.i, align 8, !noalias !27
  store i64 %8, ptr %agg.tmp11, align 8, !alias.scope !27
  call fastcc void @_ZN4pbrtL19updateMaterialNeedsENS_8MaterialEPN4pstd5arrayIbLi12EEES4_PbS5_(ptr noundef nonnull %agg.tmp11, ptr noundef %haveBasicEvalMaterial, ptr noundef %haveUniversalEvalMaterial, ptr noundef %haveSubsurface, ptr noundef nonnull %haveMedia)
  br label %if.end35

if.end12:                                         ; preds = %if.end
  %switch.selectcmp5.i.i.i.i = icmp eq i64 %shr.i.mask.i.i, 1297036692682702848
  %9 = load i8, ptr %haveSubsurface, align 1
  %10 = and i8 %9, 1
  %11 = zext i1 %switch.selectcmp5.i.i.i.i to i8
  %12 = or i8 %10, %11
  store i8 %12, ptr %haveSubsurface, align 1
  %13 = load i64, ptr %m, align 8
  %and.i.i.i15 = and i64 %13, 144115188075855871
  %14 = inttoptr i64 %and.i.i.i15 to ptr
  %shr.i.i.i16 = lshr i64 %13, 57
  %conv.i.i.i17 = trunc i64 %shr.i.i.i16 to i32
  switch i32 %conv.i.i.i17, label %sw.default.i.i.i [
    i32 1, label %return.sink.split.i.i.i
    i32 2, label %return.sink.split.i.i.i
    i32 3, label %return.sink.split.i.i.i
    i32 4, label %sw.bb3.i.i.i
    i32 5, label %sw.bb4.i.i.i
    i32 6, label %return.sink.split.i.i.i
    i32 7, label %_ZNK4pbrt8Material15GetDisplacementEv.exit
    i32 8, label %return.sink.split.i.i.i
  ]

sw.bb3.i.i.i:                                     ; preds = %if.end12
  %displacement.i.i.i.i.i = getelementptr inbounds i8, ptr %14, i64 8
  br label %return.sink.split.i.i.i

sw.bb4.i.i.i:                                     ; preds = %if.end12
  %displacement.i.i18.i.i.i = getelementptr inbounds i8, ptr %14, i64 8
  br label %return.sink.split.i.i.i

sw.default.i.i.i:                                 ; preds = %if.end12
  %sub.i.i18 = add nsw i32 %conv.i.i.i17, -1
  %15 = and i32 %sub.i.i18, -2
  %switch.i.i.i.i = icmp eq i32 %15, 8
  br i1 %switch.i.i.i.i, label %return.sink.split.i.i.i, label %sw.default.i.i.i.i

sw.default.i.i.i.i:                               ; preds = %sw.default.i.i.i
  tail call void @_ZN4pbrt8LogFatalENS_8LogLevelEPKciS2_(i32 noundef 2, ptr noundef nonnull @.str.64, i32 noundef 304, ptr noundef nonnull @.str.65) #30, !noalias !30
  unreachable

return.sink.split.i.i.i:                          ; preds = %sw.default.i.i.i, %sw.bb4.i.i.i, %sw.bb3.i.i.i, %if.end12, %if.end12, %if.end12, %if.end12, %if.end12
  %ptr.sink.i.i.i = phi ptr [ %displacement.i.i18.i.i.i, %sw.bb4.i.i.i ], [ %displacement.i.i.i.i.i, %sw.bb3.i.i.i ], [ %14, %sw.default.i.i.i ], [ %14, %if.end12 ], [ %14, %if.end12 ], [ %14, %if.end12 ], [ %14, %if.end12 ], [ %14, %if.end12 ]
  %storemerge.i.i.i.i = load i64, ptr %ptr.sink.i.i.i, align 8, !noalias !39
  br label %_ZNK4pbrt8Material15GetDisplacementEv.exit

_ZNK4pbrt8Material15GetDisplacementEv.exit:       ; preds = %if.end12, %return.sink.split.i.i.i
  %storemerge.i.sink.i.i.i = phi i64 [ 0, %if.end12 ], [ %storemerge.i.i.i.i, %return.sink.split.i.i.i ]
  call void @llvm.lifetime.start.p0(i64 1, ptr nonnull %texEval.i19)
  call void @llvm.lifetime.start.p0(i64 8, ptr nonnull %eval.i20)
  store ptr %texEval.i19, ptr %eval.i20, align 8
  %sub.i.i24 = add nsw i32 %conv.i.i.i17, -1
  %call3.i.i25 = call noundef zeroext i1 @_ZN4pbrt6detail8DispatchIRZNKS_8Material19CanEvaluateTexturesINS_21BasicTextureEvaluatorEEEbT_EUlS5_E_bNS_21CoatedDiffuseMaterialENS_23CoatedConductorMaterialENS_17ConductorMaterialENS_18DielectricMaterialENS_15DiffuseMaterialENS_27DiffuseTransmissionMaterialENS_12HairMaterialENS_16MeasuredMaterialEJNS_18SubsurfaceMaterialENS_22ThinDielectricMaterialENS_11MixMaterialEEvEET0_OS5_PKvi(ptr noundef nonnull align 8 dereferenceable(8) %eval.i20, ptr noundef %14, i32 noundef %sub.i.i24)
  call void @llvm.lifetime.end.p0(i64 1, ptr nonnull %texEval.i19)
  call void @llvm.lifetime.end.p0(i64 8, ptr nonnull %eval.i20)
  br i1 %call3.i.i25, label %land.rhs, label %if.else

land.rhs:                                         ; preds = %_ZNK4pbrt8Material15GetDisplacementEv.exit
  %and.i26 = and i64 %storemerge.i.sink.i.i.i, 144115188075855871
  %cmp.i27.not = icmp eq i64 %and.i26, 0
  br i1 %cmp.i27.not, label %if.then28, label %land.lhs.true.i

land.lhs.true.i:                                  ; preds = %land.rhs
  %shr.i.mask.i.i29 = and i64 %storemerge.i.sink.i.i.i, -144115188075855872
  switch i64 %shr.i.mask.i.i29, label %if.else [
    i64 864691128455135232, label %if.then28
    i64 144115188075855872, label %if.then28
    i64 1729382256910270464, label %if.then28
    i64 288230376151711744, label %if.then28
  ]

if.then28:                                        ; preds = %land.lhs.true.i, %land.lhs.true.i, %land.lhs.true.i, %land.lhs.true.i, %land.rhs
  %16 = load i64, ptr %m, align 8
  %shr.i = lshr i64 %16, 57
  %arrayidx.i31 = getelementptr inbounds [12 x i8], ptr %haveBasicEvalMaterial, i64 0, i64 %shr.i
  store i8 1, ptr %arrayidx.i31, align 1
  br label %if.end35

if.else:                                          ; preds = %land.lhs.true.i, %_ZNK4pbrt8Material15GetDisplacementEv.exit
  %17 = load i64, ptr %m, align 8
  %shr.i32 = lshr i64 %17, 57
  %arrayidx.i34 = getelementptr inbounds [12 x i8], ptr %haveUniversalEvalMaterial, i64 0, i64 %shr.i32
  store i8 1, ptr %arrayidx.i34, align 1
  br label %if.end35

if.end35:                                         ; preds = %entry, %if.else, %if.then28, %if.end9
  ret void
}

; Function Attrs: mustprogress uwtable
define linkonce_odr dso_local void @_ZN4pbrt10BasicScene9GetCameraEv(ptr noalias sret(%"class.pbrt::Camera") align 8 %agg.result, ptr noundef nonnull align 8 dereferenceable(1520) %this) local_unnamed_addr #3 comdat align 2 personality ptr @__gxx_personality_v0 {
entry:
  %c = alloca %"class.pstd::optional.220", align 8
  %cameraJobMutex = getelementptr inbounds i8, ptr %this, i64 552
  %call1.i.i = tail call noundef i32 @pthread_mutex_lock(ptr noundef nonnull %cameraJobMutex) #27
  %tobool.not.i = icmp eq i32 %call1.i.i, 0
  br i1 %tobool.not.i, label %while.cond.preheader, label %if.then.i

while.cond.preheader:                             ; preds = %entry
  %camera = getelementptr inbounds i8, ptr %this, i64 536
  %0 = load i64, ptr %camera, align 8
  %and.i9 = and i64 %0, 144115188075855871
  %cmp.i.not10 = icmp eq i64 %and.i9, 0
  br i1 %cmp.i.not10, label %while.body.lr.ph, label %while.end

while.body.lr.ph:                                 ; preds = %while.cond.preheader
  %cameraJob = getelementptr inbounds i8, ptr %this, i64 592
  %set.i = getelementptr inbounds i8, ptr %c, i64 8
  br label %while.body

if.then.i:                                        ; preds = %entry
  tail call void @_ZSt20__throw_system_errori(i32 noundef %call1.i.i) #30
  unreachable

while.body:                                       ; preds = %while.body.lr.ph, %_ZN4pstd8optionalIN4pbrt6CameraEED2Ev.exit6
  %1 = load ptr, ptr %cameraJob, align 8
  call void @_ZN4pbrt8AsyncJobINS_6CameraEE12TryGetResultEPSt5mutex(ptr nonnull sret(%"class.pstd::optional.220") align 8 %c, ptr noundef nonnull align 8 dereferenceable(184) %1, ptr noundef nonnull %cameraJobMutex)
  %2 = load i8, ptr %set.i, align 8
  %3 = and i8 %2, 1
  %tobool.i.not = icmp eq i8 %3, 0
  br i1 %tobool.i.not, label %while.body._ZN4pstd8optionalIN4pbrt6CameraEED2Ev.exit6_crit_edge, label %_ZN4pstd8optionalIN4pbrt6CameraEE5valueEv.exit.i.i5

while.body._ZN4pstd8optionalIN4pbrt6CameraEED2Ev.exit6_crit_edge: ; preds = %while.body
  %.pre = load i64, ptr %camera, align 8
  br label %_ZN4pstd8optionalIN4pbrt6CameraEED2Ev.exit6

_ZN4pstd8optionalIN4pbrt6CameraEE5valueEv.exit.i.i5: ; preds = %while.body
  %4 = load i64, ptr %c, align 8
  store i64 %4, ptr %camera, align 8
  store i8 0, ptr %set.i, align 8
  br label %_ZN4pstd8optionalIN4pbrt6CameraEED2Ev.exit6

_ZN4pstd8optionalIN4pbrt6CameraEED2Ev.exit6:      ; preds = %while.body._ZN4pstd8optionalIN4pbrt6CameraEED2Ev.exit6_crit_edge, %_ZN4pstd8optionalIN4pbrt6CameraEE5valueEv.exit.i.i5
  %5 = phi i64 [ %.pre, %while.body._ZN4pstd8optionalIN4pbrt6CameraEED2Ev.exit6_crit_edge ], [ %4, %_ZN4pstd8optionalIN4pbrt6CameraEE5valueEv.exit.i.i5 ]
  %and.i = and i64 %5, 144115188075855871
  %cmp.i.not = icmp eq i64 %and.i, 0
  br i1 %cmp.i.not, label %while.body, label %while.end, !llvm.loop !40

while.end:                                        ; preds = %_ZN4pstd8optionalIN4pbrt6CameraEED2Ev.exit6, %while.cond.preheader
  %call1.i.i7 = call noundef i32 @pthread_mutex_unlock(ptr noundef nonnull %cameraJobMutex) #27
  %6 = load i32, ptr @_ZN4pbrt7logging8logLevelE, align 4
  %cmp = icmp slt i32 %6, 1
  br i1 %cmp, label %land.rhs, label %land.end

land.rhs:                                         ; preds = %while.end
  call void @_ZN4pbrt3LogENS_8LogLevelEPKciS2_(i32 noundef 0, ptr noundef nonnull @.str.66, i32 noundef 290, ptr noundef nonnull @.str.67)
  br label %land.end

land.end:                                         ; preds = %land.rhs, %while.end
  %7 = load i64, ptr %camera, align 8
  store i64 %7, ptr %agg.result, align 8
  ret void
}

; Function Attrs: mustprogress uwtable
define linkonce_odr dso_local void @_ZN4pbrt10BasicScene10GetSamplerEv(ptr noalias sret(%"class.pbrt::Sampler") align 8 %agg.result, ptr noundef nonnull align 8 dereferenceable(1520) %this) local_unnamed_addr #3 comdat align 2 personality ptr @__gxx_personality_v0 {
entry:
  %s = alloca %"class.pstd::optional.246", align 8
  %samplerJobMutex = getelementptr inbounds i8, ptr %this, i64 600
  %call1.i.i = tail call noundef i32 @pthread_mutex_lock(ptr noundef nonnull %samplerJobMutex) #27
  %tobool.not.i = icmp eq i32 %call1.i.i, 0
  br i1 %tobool.not.i, label %while.cond.preheader, label %if.then.i

while.cond.preheader:                             ; preds = %entry
  %sampler = getelementptr inbounds i8, ptr %this, i64 640
  %0 = load i64, ptr %sampler, align 8
  %and.i9 = and i64 %0, 144115188075855871
  %cmp.i.not10 = icmp eq i64 %and.i9, 0
  br i1 %cmp.i.not10, label %while.body.lr.ph, label %while.end

while.body.lr.ph:                                 ; preds = %while.cond.preheader
  %samplerJob = getelementptr inbounds i8, ptr %this, i64 416
  %set.i = getelementptr inbounds i8, ptr %s, i64 8
  br label %while.body

if.then.i:                                        ; preds = %entry
  tail call void @_ZSt20__throw_system_errori(i32 noundef %call1.i.i) #30
  unreachable

while.body:                                       ; preds = %while.body.lr.ph, %_ZN4pstd8optionalIN4pbrt7SamplerEED2Ev.exit6
  %1 = load ptr, ptr %samplerJob, align 8
  call void @_ZN4pbrt8AsyncJobINS_7SamplerEE12TryGetResultEPSt5mutex(ptr nonnull sret(%"class.pstd::optional.246") align 8 %s, ptr noundef nonnull align 8 dereferenceable(184) %1, ptr noundef nonnull %samplerJobMutex)
  %2 = load i8, ptr %set.i, align 8
  %3 = and i8 %2, 1
  %tobool.i.not = icmp eq i8 %3, 0
  br i1 %tobool.i.not, label %while.body._ZN4pstd8optionalIN4pbrt7SamplerEED2Ev.exit6_crit_edge, label %_ZN4pstd8optionalIN4pbrt7SamplerEE5valueEv.exit.i.i5

while.body._ZN4pstd8optionalIN4pbrt7SamplerEED2Ev.exit6_crit_edge: ; preds = %while.body
  %.pre = load i64, ptr %sampler, align 8
  br label %_ZN4pstd8optionalIN4pbrt7SamplerEED2Ev.exit6

_ZN4pstd8optionalIN4pbrt7SamplerEE5valueEv.exit.i.i5: ; preds = %while.body
  %4 = load i64, ptr %s, align 8
  store i64 %4, ptr %sampler, align 8
  store i8 0, ptr %set.i, align 8
  br label %_ZN4pstd8optionalIN4pbrt7SamplerEED2Ev.exit6

_ZN4pstd8optionalIN4pbrt7SamplerEED2Ev.exit6:     ; preds = %while.body._ZN4pstd8optionalIN4pbrt7SamplerEED2Ev.exit6_crit_edge, %_ZN4pstd8optionalIN4pbrt7SamplerEE5valueEv.exit.i.i5
  %5 = phi i64 [ %.pre, %while.body._ZN4pstd8optionalIN4pbrt7SamplerEED2Ev.exit6_crit_edge ], [ %4, %_ZN4pstd8optionalIN4pbrt7SamplerEE5valueEv.exit.i.i5 ]
  %and.i = and i64 %5, 144115188075855871
  %cmp.i.not = icmp eq i64 %and.i, 0
  br i1 %cmp.i.not, label %while.body, label %while.end, !llvm.loop !41

while.end:                                        ; preds = %_ZN4pstd8optionalIN4pbrt7SamplerEED2Ev.exit6, %while.cond.preheader
  %call1.i.i7 = call noundef i32 @pthread_mutex_unlock(ptr noundef nonnull %samplerJobMutex) #27
  %6 = load i32, ptr @_ZN4pbrt7logging8logLevelE, align 4
  %cmp = icmp slt i32 %6, 1
  br i1 %cmp, label %land.rhs, label %land.end

land.rhs:                                         ; preds = %while.end
  call void @_ZN4pbrt3LogENS_8LogLevelEPKciS2_(i32 noundef 0, ptr noundef nonnull @.str.66, i32 noundef 302, ptr noundef nonnull @.str.71)
  br label %land.end

land.end:                                         ; preds = %land.rhs, %while.end
  %7 = load i64, ptr %sampler, align 8
  store i64 %7, ptr %agg.result, align 8
  ret void
}

; Function Attrs: noreturn
declare void @_ZN4pbrt8LogFatalENS_8LogLevelEPKciS2_(i32 noundef, ptr noundef, i32 noundef, ptr noundef) local_unnamed_addr #6

declare void @_ZN4pbrt12CPUAggregateC1ERNS_10BasicSceneERNS_13NamedTexturesERKSt3mapIiPN4pstd6vectorINS_5LightENS6_3pmr21polymorphic_allocatorIS8_EEEESt4lessIiESaISt4pairIKiSD_EEERKS5_INSt7__cxx1112basic_stringIcSt11char_traitsIcESaIcEEENS_6MediumESE_ISS_ESaISG_IKSS_ST_EEERKS5_ISS_NS_8MaterialESU_SaISG_ISV_S11_EEERKSt6vectorIS11_SaIS11_EE(ptr noundef nonnull align 8 dereferenceable(16), ptr noundef nonnull align 8 dereferenceable(1520), ptr noundef nonnull align 8 dereferenceable(192), ptr noundef nonnull align 8 dereferenceable(48), ptr noundef nonnull align 8 dereferenceable(48), ptr noundef nonnull align 8 dereferenceable(48), ptr noundef nonnull align 8 dereferenceable(24)) unnamed_addr #0

; Function Attrs: nobuiltin nounwind
declare void @_ZdlPv(ptr noundef) local_unnamed_addr #7

declare void @_ZN4pbrt5Light10PreprocessERKNS_7Bounds3IfEE(ptr noundef nonnull align 8 dereferenceable(8), ptr noundef nonnull align 4 dereferenceable(24)) local_unnamed_addr #0

declare noundef zeroext i1 @_ZNK4pbrt6Medium10IsEmissiveEv(ptr noundef nonnull align 8 dereferenceable(8)) local_unnamed_addr #0

; Function Attrs: mustprogress noreturn uwtable
define linkonce_odr dso_local void @_ZN4pbrt9ErrorExitIJEEEvPKcDpOT_(ptr noundef %fmt) local_unnamed_addr #8 comdat personality ptr @__gxx_personality_v0 {
entry:
  %ref.tmp = alloca %"class.std::__cxx11::basic_string", align 8
  call void @_ZNSt7__cxx1112basic_stringIcSt11char_traitsIcESaIcEEC1Ev(ptr noundef nonnull align 8 dereferenceable(32) %ref.tmp) #27
  invoke void @_ZN4pbrt6detail21stringPrintfRecursiveEPNSt7__cxx1112basic_stringIcSt11char_traitsIcESaIcEEEPKc(ptr noundef nonnull %ref.tmp, ptr noundef %fmt)
          to label %_ZN4pbrt12StringPrintfIJEEENSt7__cxx1112basic_stringIcSt11char_traitsIcESaIcEEEPKcDpOT_.exit unwind label %lpad.i

common.resume:                                    ; preds = %lpad, %lpad.i
  %common.resume.op = phi { ptr, i32 } [ %0, %lpad.i ], [ %1, %lpad ]
  call void @_ZNSt7__cxx1112basic_stringIcSt11char_traitsIcESaIcEED1Ev(ptr noundef nonnull align 8 dereferenceable(32) %ref.tmp) #27
  resume { ptr, i32 } %common.resume.op

lpad.i:                                           ; preds = %entry
  %0 = landingpad { ptr, i32 }
          cleanup
  br label %common.resume

_ZN4pbrt12StringPrintfIJEEENSt7__cxx1112basic_stringIcSt11char_traitsIcESaIcEEEPKcDpOT_.exit: ; preds = %entry
  %call = call noundef ptr @_ZNKSt7__cxx1112basic_stringIcSt11char_traitsIcESaIcEE5c_strEv(ptr noundef nonnull align 8 dereferenceable(32) %ref.tmp) #27
  invoke void @_ZN4pbrt9ErrorExitEPKNS_7FileLocEPKc(ptr noundef null, ptr noundef %call) #30
          to label %invoke.cont unwind label %lpad

invoke.cont:                                      ; preds = %_ZN4pbrt12StringPrintfIJEEENSt7__cxx1112basic_stringIcSt11char_traitsIcESaIcEEEPKcDpOT_.exit
  unreachable

lpad:                                             ; preds = %_ZN4pbrt12StringPrintfIJEEENSt7__cxx1112basic_stringIcSt11char_traitsIcESaIcEEEPKcDpOT_.exit
  %1 = landingpad { ptr, i32 }
          cleanup
  br label %common.resume
}

declare void @_ZNK4pbrt19ParameterDictionary12GetOneStringERKNSt7__cxx1112basic_stringIcSt11char_traitsIcESaIcEEES8_(ptr sret(%"class.std::__cxx11::basic_string") align 8, ptr noundef nonnull align 8 dereferenceable(108), ptr noundef nonnull align 8 dereferenceable(32), ptr noundef nonnull align 8 dereferenceable(32)) local_unnamed_addr #0

; Function Attrs: nounwind
declare void @_ZNSaIcEC1Ev(ptr noundef nonnull align 1 dereferenceable(1)) unnamed_addr #1

; Function Attrs: nounwind
declare void @_ZNSt7__cxx1112basic_stringIcSt11char_traitsIcESaIcEED1Ev(ptr noundef nonnull align 8 dereferenceable(32)) unnamed_addr #1

; Function Attrs: nounwind
declare void @_ZNSaIcED1Ev(ptr noundef nonnull align 1 dereferenceable(1)) unnamed_addr #1

declare noundef nonnull align 8 dereferenceable(32) ptr @_ZNSt7__cxx1112basic_stringIcSt11char_traitsIcESaIcEEaSEPKc(ptr noundef nonnull align 8 dereferenceable(32), ptr noundef) local_unnamed_addr #0

declare void @_ZN4pbrt12LightSampler6CreateERKNSt7__cxx1112basic_stringIcSt11char_traitsIcESaIcEEEN4pstd4spanIKNS_5LightEEENS9_3pmr21polymorphic_allocatorISt4byteEE(ptr sret(%"class.pbrt::LightSampler") align 8, ptr noundef nonnull align 8 dereferenceable(32), ptr, i64, ptr) local_unnamed_addr #0

declare noundef zeroext i1 @_ZNK4pbrt19ParameterDictionary10GetOneBoolERKNSt7__cxx1112basic_stringIcSt11char_traitsIcESaIcEEEb(ptr noundef nonnull align 8 dereferenceable(108), ptr noundef nonnull align 8 dereferenceable(32), i1 noundef zeroext) local_unnamed_addr #0

declare noundef i32 @_ZNK4pbrt19ParameterDictionary9GetOneIntERKNSt7__cxx1112basic_stringIcSt11char_traitsIcESaIcEEEi(ptr noundef nonnull align 8 dereferenceable(108), ptr noundef nonnull align 8 dereferenceable(32), i32 noundef) local_unnamed_addr #0

; Function Attrs: mustprogress uwtable
define linkonce_odr dso_local void @_ZN4pbrt3SOAINS_16PixelSampleStateEEC2EiN4pstd3pmr21polymorphic_allocatorISt4byteEE(ptr noundef nonnull align 8 dereferenceable(400) %this, i32 noundef %n, ptr %alloc.coerce) unnamed_addr #3 comdat align 2 {
entry:
  %ref.tmp20 = alloca %"struct.pbrt::SOA.13", align 8
  store i32 %n, ptr %this, align 8
  %lambda4.i = getelementptr inbounds i8, ptr %this, i64 48
  tail call void @llvm.memset.p0.i64(ptr noundef nonnull align 8 dereferenceable(32) %lambda4.i, i8 0, i64 32, i1 false)
  %ptr4.i = getelementptr inbounds i8, ptr %this, i64 88
  tail call void @llvm.memset.p0.i64(ptr noundef nonnull align 8 dereferenceable(16) %ptr4.i, i8 0, i64 16, i1 false)
  %cameraRayWeight = getelementptr inbounds i8, ptr %this, i64 104
  %ptr4.i8 = getelementptr inbounds i8, ptr %this, i64 112
  tail call void @llvm.memset.p0.i64(ptr noundef nonnull align 8 dereferenceable(16) %ptr4.i8, i8 0, i64 16, i1 false)
  %visibleSurface = getelementptr inbounds i8, ptr %this, i64 128
  %ptr4.i.i = getelementptr inbounds i8, ptr %this, i64 344
  tail call void @llvm.memset.p0.i64(ptr noundef nonnull align 8 dereferenceable(16) %ptr4.i.i, i8 0, i64 16, i1 false)
  %conv = sext i32 %n to i64
  %mul.i = shl nsw i64 %conv, 2
  %cmp.i.i.i = icmp eq i32 %n, 0
  br i1 %cmp.i.i.i, label %_ZN4pbrt3SOAINS_15SampledSpectrumEEC2EiN4pstd3pmr21polymorphic_allocatorISt4byteEE.exit.thread, label %if.end.i.i.i.i31

_ZN4pbrt3SOAINS_15SampledSpectrumEEC2EiN4pstd3pmr21polymorphic_allocatorISt4byteEE.exit.thread: ; preds = %entry
  %filterWeight65 = getelementptr inbounds i8, ptr %this, i64 8
  store ptr null, ptr %filterWeight65, align 8
  %pPixel354 = getelementptr inbounds i8, ptr %this, i64 16
  store i32 0, ptr %pPixel354, align 8
  %x3.i55 = getelementptr inbounds i8, ptr %this, i64 24
  tail call void @llvm.memset.p0.i64(ptr noundef nonnull align 8 dereferenceable(20) %x3.i55, i8 0, i64 20, i1 false)
  tail call void @llvm.memset.p0.i64(ptr noundef nonnull align 8 dereferenceable(36) %lambda4.i, i8 0, i64 36, i1 false)
  tail call void @llvm.memset.p0.i64(ptr noundef nonnull align 8 dereferenceable(16) %ptr4.i, i8 0, i64 16, i1 false)
  br label %_ZN4pbrt3SOAINS_15SampledSpectrumEEC2EiN4pstd3pmr21polymorphic_allocatorISt4byteEE.exit39

if.end.i.i.i.i31:                                 ; preds = %entry
  %L = getelementptr inbounds i8, ptr %this, i64 80
  %lambda = getelementptr inbounds i8, ptr %this, i64 40
  %vtable.i.i.i = load ptr, ptr %alloc.coerce, align 8
  %vfn.i.i.i = getelementptr inbounds i8, ptr %vtable.i.i.i, i64 16
  %0 = load ptr, ptr %vfn.i.i.i, align 8
  %call.i.i.i = tail call noundef ptr %0(ptr noundef nonnull align 8 dereferenceable(8) %alloc.coerce, i64 noundef %mul.i, i64 noundef 4)
  %filterWeight = getelementptr inbounds i8, ptr %this, i64 8
  store ptr %call.i.i.i, ptr %filterWeight, align 8
  %vtable.i.i.i.i = load ptr, ptr %alloc.coerce, align 8
  %vfn.i.i.i.i = getelementptr inbounds i8, ptr %vtable.i.i.i.i, i64 16
  %1 = load ptr, ptr %vfn.i.i.i.i, align 8
  %call.i.i.i.i = tail call noundef ptr %1(ptr noundef nonnull align 8 dereferenceable(8) %alloc.coerce, i64 noundef %mul.i, i64 noundef 4)
  %vtable.i.i.i6.i = load ptr, ptr %alloc.coerce, align 8
  %vfn.i.i.i7.i = getelementptr inbounds i8, ptr %vtable.i.i.i6.i, i64 16
  %2 = load ptr, ptr %vfn.i.i.i7.i, align 8
  %call.i.i.i8.i = tail call noundef ptr %2(ptr noundef nonnull align 8 dereferenceable(8) %alloc.coerce, i64 noundef %mul.i, i64 noundef 4)
  %pPixel3 = getelementptr inbounds i8, ptr %this, i64 16
  store i32 %n, ptr %pPixel3, align 8
  %x3.i = getelementptr inbounds i8, ptr %this, i64 24
  store ptr %call.i.i.i.i, ptr %x3.i, align 8
  %y4.i = getelementptr inbounds i8, ptr %this, i64 32
  store ptr %call.i.i.i8.i, ptr %y4.i, align 8
  %mul.i.i14 = shl nsw i64 %conv, 4
  %vtable.i.i.i.i15 = load ptr, ptr %alloc.coerce, align 8
  %vfn.i.i.i.i16 = getelementptr inbounds i8, ptr %vtable.i.i.i.i15, i64 16
  %3 = load ptr, ptr %vfn.i.i.i.i16, align 8
  %call.i.i.i.i17 = tail call noundef ptr %3(ptr noundef nonnull align 8 dereferenceable(8) %alloc.coerce, i64 noundef %mul.i.i14, i64 noundef 16)
  %vtable.i.i.i4.i = load ptr, ptr %alloc.coerce, align 8
  %vfn.i.i.i5.i = getelementptr inbounds i8, ptr %vtable.i.i.i4.i, i64 16
  %4 = load ptr, ptr %vfn.i.i.i5.i, align 8
  %call.i.i.i6.i = tail call noundef ptr %4(ptr noundef nonnull align 8 dereferenceable(8) %alloc.coerce, i64 noundef %mul.i.i14, i64 noundef 16)
  store i32 %n, ptr %lambda, align 8
  store ptr %call.i.i.i.i17, ptr %lambda4.i, align 8
  %pdf44.i = getelementptr inbounds i8, ptr %this, i64 56
  store ptr %call.i.i.i6.i, ptr %pdf44.i, align 8
  %lambda15.i = getelementptr inbounds i8, ptr %this, i64 64
  tail call void @llvm.memset.p0.i64(ptr noundef nonnull align 8 dereferenceable(16) %lambda15.i, i8 0, i64 16, i1 false)
  %vtable.i.i.i.i24 = load ptr, ptr %alloc.coerce, align 8
  %vfn.i.i.i.i25 = getelementptr inbounds i8, ptr %vtable.i.i.i.i24, i64 16
  %5 = load ptr, ptr %vfn.i.i.i.i25, align 8
  %call.i.i.i.i26 = tail call noundef ptr %5(ptr noundef nonnull align 8 dereferenceable(8) %alloc.coerce, i64 noundef %mul.i.i14, i64 noundef 16)
  store i32 %n, ptr %L, align 8
  store ptr %call.i.i.i.i26, ptr %ptr4.i, align 8
  %ptr14.i = getelementptr inbounds i8, ptr %this, i64 96
  store ptr null, ptr %ptr14.i, align 8
  %vtable.i.i.i.i34 = load ptr, ptr %alloc.coerce, align 8
  %vfn.i.i.i.i35 = getelementptr inbounds i8, ptr %vtable.i.i.i.i34, i64 16
  %6 = load ptr, ptr %vfn.i.i.i.i35, align 8
  %call.i.i.i.i36 = tail call noundef ptr %6(ptr noundef nonnull align 8 dereferenceable(8) %alloc.coerce, i64 noundef %mul.i.i14, i64 noundef 16)
  br label %_ZN4pbrt3SOAINS_15SampledSpectrumEEC2EiN4pstd3pmr21polymorphic_allocatorISt4byteEE.exit39

_ZN4pbrt3SOAINS_15SampledSpectrumEEC2EiN4pstd3pmr21polymorphic_allocatorISt4byteEE.exit39: ; preds = %_ZN4pbrt3SOAINS_15SampledSpectrumEEC2EiN4pstd3pmr21polymorphic_allocatorISt4byteEE.exit.thread, %if.end.i.i.i.i31
  %retval.0.i.i.i.i38 = phi ptr [ %call.i.i.i.i36, %if.end.i.i.i.i31 ], [ null, %_ZN4pbrt3SOAINS_15SampledSpectrumEEC2EiN4pstd3pmr21polymorphic_allocatorISt4byteEE.exit.thread ]
  store i32 %n, ptr %cameraRayWeight, align 8
  store ptr %retval.0.i.i.i.i38, ptr %ptr4.i8, align 8
  %ptr14.i43 = getelementptr inbounds i8, ptr %this, i64 120
  store ptr null, ptr %ptr14.i43, align 8
  call void @_ZN4pbrt3SOAINS_14VisibleSurfaceEEC2EiN4pstd3pmr21polymorphic_allocatorISt4byteEE(ptr noundef nonnull align 8 dereferenceable(232) %ref.tmp20, i32 noundef %n, ptr %alloc.coerce)
  %7 = load i32, ptr %ref.tmp20, align 8
  store i32 %7, ptr %visibleSurface, align 8
  %set.i = getelementptr inbounds i8, ptr %ref.tmp20, i64 8
  %8 = load ptr, ptr %set.i, align 8
  %set3.i = getelementptr inbounds i8, ptr %this, i64 136
  store ptr %8, ptr %set3.i, align 8
  %p.i = getelementptr inbounds i8, ptr %ref.tmp20, i64 16
  %p4.i = getelementptr inbounds i8, ptr %this, i64 144
  %9 = load i32, ptr %p.i, align 8
  store i32 %9, ptr %p4.i, align 8
  %x.i.i = getelementptr inbounds i8, ptr %ref.tmp20, i64 24
  %x3.i.i = getelementptr inbounds i8, ptr %this, i64 152
  %10 = load <2 x ptr>, ptr %x.i.i, align 8
  store <2 x ptr> %10, ptr %x3.i.i, align 8
  %z.i.i = getelementptr inbounds i8, ptr %ref.tmp20, i64 40
  %11 = load ptr, ptr %z.i.i, align 8
  %z5.i.i = getelementptr inbounds i8, ptr %this, i64 168
  store ptr %11, ptr %z5.i.i, align 8
  %n.i = getelementptr inbounds i8, ptr %ref.tmp20, i64 48
  %n5.i = getelementptr inbounds i8, ptr %this, i64 176
  %12 = load i32, ptr %n.i, align 8
  store i32 %12, ptr %n5.i, align 8
  %x.i10.i = getelementptr inbounds i8, ptr %ref.tmp20, i64 56
  %x3.i11.i = getelementptr inbounds i8, ptr %this, i64 184
  %13 = load <2 x ptr>, ptr %x.i10.i, align 8
  store <2 x ptr> %13, ptr %x3.i11.i, align 8
  %z.i14.i = getelementptr inbounds i8, ptr %ref.tmp20, i64 72
  %14 = load ptr, ptr %z.i14.i, align 8
  %z5.i15.i = getelementptr inbounds i8, ptr %this, i64 200
  store ptr %14, ptr %z5.i15.i, align 8
  %ns.i = getelementptr inbounds i8, ptr %ref.tmp20, i64 80
  %ns7.i = getelementptr inbounds i8, ptr %this, i64 208
  %15 = load i32, ptr %ns.i, align 8
  store i32 %15, ptr %ns7.i, align 8
  %x.i16.i = getelementptr inbounds i8, ptr %ref.tmp20, i64 88
  %x3.i17.i = getelementptr inbounds i8, ptr %this, i64 216
  %16 = load <2 x ptr>, ptr %x.i16.i, align 8
  store <2 x ptr> %16, ptr %x3.i17.i, align 8
  %z.i20.i = getelementptr inbounds i8, ptr %ref.tmp20, i64 104
  %17 = load ptr, ptr %z.i20.i, align 8
  %z5.i21.i = getelementptr inbounds i8, ptr %this, i64 232
  store ptr %17, ptr %z5.i21.i, align 8
  %uv.i = getelementptr inbounds i8, ptr %ref.tmp20, i64 112
  %uv9.i = getelementptr inbounds i8, ptr %this, i64 240
  %18 = load i32, ptr %uv.i, align 8
  store i32 %18, ptr %uv9.i, align 8
  %x.i22.i = getelementptr inbounds i8, ptr %ref.tmp20, i64 120
  %x3.i23.i = getelementptr inbounds i8, ptr %this, i64 248
  %19 = load <2 x ptr>, ptr %x.i22.i, align 8
  store <2 x ptr> %19, ptr %x3.i23.i, align 8
  %time.i = getelementptr inbounds i8, ptr %ref.tmp20, i64 136
  %20 = load ptr, ptr %time.i, align 8
  %time11.i = getelementptr inbounds i8, ptr %this, i64 264
  store ptr %20, ptr %time11.i, align 8
  %dpdx.i = getelementptr inbounds i8, ptr %ref.tmp20, i64 144
  %dpdx12.i = getelementptr inbounds i8, ptr %this, i64 272
  %21 = load i32, ptr %dpdx.i, align 8
  store i32 %21, ptr %dpdx12.i, align 8
  %x.i26.i = getelementptr inbounds i8, ptr %ref.tmp20, i64 152
  %x3.i27.i = getelementptr inbounds i8, ptr %this, i64 280
  %22 = load <2 x ptr>, ptr %x.i26.i, align 8
  store <2 x ptr> %22, ptr %x3.i27.i, align 8
  %z.i30.i = getelementptr inbounds i8, ptr %ref.tmp20, i64 168
  %23 = load ptr, ptr %z.i30.i, align 8
  %z5.i31.i = getelementptr inbounds i8, ptr %this, i64 296
  store ptr %23, ptr %z5.i31.i, align 8
  %dpdy.i = getelementptr inbounds i8, ptr %ref.tmp20, i64 176
  %dpdy14.i = getelementptr inbounds i8, ptr %this, i64 304
  %24 = load i32, ptr %dpdy.i, align 8
  store i32 %24, ptr %dpdy14.i, align 8
  %x.i32.i = getelementptr inbounds i8, ptr %ref.tmp20, i64 184
  %x3.i33.i = getelementptr inbounds i8, ptr %this, i64 312
  %25 = load <2 x ptr>, ptr %x.i32.i, align 8
  store <2 x ptr> %25, ptr %x3.i33.i, align 8
  %z.i36.i = getelementptr inbounds i8, ptr %ref.tmp20, i64 200
  %26 = load ptr, ptr %z.i36.i, align 8
  %z5.i37.i = getelementptr inbounds i8, ptr %this, i64 328
  store ptr %26, ptr %z5.i37.i, align 8
  %albedo.i = getelementptr inbounds i8, ptr %ref.tmp20, i64 208
  %albedo16.i = getelementptr inbounds i8, ptr %this, i64 336
  %27 = load i32, ptr %albedo.i, align 8
  store i32 %27, ptr %albedo16.i, align 8
  %ptr4.i.i44 = getelementptr inbounds i8, ptr %ref.tmp20, i64 216
  %28 = load <2 x ptr>, ptr %ptr4.i.i44, align 8
  store <2 x ptr> %28, ptr %ptr4.i.i, align 8
  br i1 %cmp.i.i.i, label %_ZN4pbrt3SOAINS_10RaySamplesEEC2EiN4pstd3pmr21polymorphic_allocatorISt4byteEE.exit, label %if.end.i.i.i30.i

if.end.i.i.i30.i:                                 ; preds = %_ZN4pbrt3SOAINS_15SampledSpectrumEEC2EiN4pstd3pmr21polymorphic_allocatorISt4byteEE.exit39
  %mul.i.i47 = shl nsw i64 %conv, 4
  %vtable.i.i.i.i48 = load ptr, ptr %alloc.coerce, align 8
  %vfn.i.i.i.i49 = getelementptr inbounds i8, ptr %vtable.i.i.i.i48, i64 16
  %29 = load ptr, ptr %vfn.i.i.i.i49, align 8
  %call.i.i.i.i50 = call noundef ptr %29(ptr noundef nonnull align 8 dereferenceable(8) %alloc.coerce, i64 noundef %mul.i.i47, i64 noundef 16)
  %vtable.i.i.i8.i = load ptr, ptr %alloc.coerce, align 8
  %vfn.i.i.i9.i = getelementptr inbounds i8, ptr %vtable.i.i.i8.i, i64 16
  %30 = load ptr, ptr %vfn.i.i.i9.i, align 8
  %call.i.i.i10.i = call noundef ptr %30(ptr noundef nonnull align 8 dereferenceable(8) %alloc.coerce, i64 noundef %mul.i.i47, i64 noundef 16)
  %vtable.i.i.i16.i = load ptr, ptr %alloc.coerce, align 8
  %vfn.i.i.i17.i = getelementptr inbounds i8, ptr %vtable.i.i.i16.i, i64 16
  %31 = load ptr, ptr %vfn.i.i.i17.i, align 8
  %call.i.i.i18.i = call noundef ptr %31(ptr noundef nonnull align 8 dereferenceable(8) %alloc.coerce, i64 noundef %mul.i.i47, i64 noundef 16)
  %vtable.i.i.i24.i = load ptr, ptr %alloc.coerce, align 8
  %vfn.i.i.i25.i = getelementptr inbounds i8, ptr %vtable.i.i.i24.i, i64 16
  %32 = load ptr, ptr %vfn.i.i.i25.i, align 8
  %call.i.i.i26.i = call noundef ptr %32(ptr noundef nonnull align 8 dereferenceable(8) %alloc.coerce, i64 noundef %mul.i, i64 noundef 4)
  %vtable.i.i.i31.i = load ptr, ptr %alloc.coerce, align 8
  %vfn.i.i.i32.i = getelementptr inbounds i8, ptr %vtable.i.i.i31.i, i64 16
  %33 = load ptr, ptr %vfn.i.i.i32.i, align 8
  %call.i.i.i33.i = call noundef ptr %33(ptr noundef nonnull align 8 dereferenceable(8) %alloc.coerce, i64 noundef %mul.i, i64 noundef 4)
  br label %_ZN4pbrt3SOAINS_10RaySamplesEEC2EiN4pstd3pmr21polymorphic_allocatorISt4byteEE.exit

_ZN4pbrt3SOAINS_10RaySamplesEEC2EiN4pstd3pmr21polymorphic_allocatorISt4byteEE.exit: ; preds = %_ZN4pbrt3SOAINS_15SampledSpectrumEEC2EiN4pstd3pmr21polymorphic_allocatorISt4byteEE.exit39, %if.end.i.i.i30.i
  %ref.tmp25.sroa.0.0 = phi ptr [ %call.i.i.i.i50, %if.end.i.i.i30.i ], [ null, %_ZN4pbrt3SOAINS_15SampledSpectrumEEC2EiN4pstd3pmr21polymorphic_allocatorISt4byteEE.exit39 ]
  %ref.tmp25.sroa.3.0 = phi ptr [ %call.i.i.i10.i, %if.end.i.i.i30.i ], [ null, %_ZN4pbrt3SOAINS_15SampledSpectrumEEC2EiN4pstd3pmr21polymorphic_allocatorISt4byteEE.exit39 ]
  %ref.tmp25.sroa.4.0 = phi ptr [ %call.i.i.i18.i, %if.end.i.i.i30.i ], [ null, %_ZN4pbrt3SOAINS_15SampledSpectrumEEC2EiN4pstd3pmr21polymorphic_allocatorISt4byteEE.exit39 ]
  %ref.tmp25.sroa.5.0 = phi ptr [ %call.i.i.i26.i, %if.end.i.i.i30.i ], [ null, %_ZN4pbrt3SOAINS_15SampledSpectrumEEC2EiN4pstd3pmr21polymorphic_allocatorISt4byteEE.exit39 ]
  %retval.0.i.i.i34.i = phi ptr [ %call.i.i.i33.i, %if.end.i.i.i30.i ], [ null, %_ZN4pbrt3SOAINS_15SampledSpectrumEEC2EiN4pstd3pmr21polymorphic_allocatorISt4byteEE.exit39 ]
  %samples28 = getelementptr inbounds i8, ptr %this, i64 360
  store ptr %ref.tmp25.sroa.0.0, ptr %samples28, align 8
  %ref.tmp25.sroa.3.0.samples28.sroa_idx = getelementptr inbounds i8, ptr %this, i64 368
  store ptr %ref.tmp25.sroa.3.0, ptr %ref.tmp25.sroa.3.0.samples28.sroa_idx, align 8
  %ref.tmp25.sroa.4.0.samples28.sroa_idx = getelementptr inbounds i8, ptr %this, i64 376
  store ptr %ref.tmp25.sroa.4.0, ptr %ref.tmp25.sroa.4.0.samples28.sroa_idx, align 8
  %ref.tmp25.sroa.5.0.samples28.sroa_idx = getelementptr inbounds i8, ptr %this, i64 384
  store ptr %ref.tmp25.sroa.5.0, ptr %ref.tmp25.sroa.5.0.samples28.sroa_idx, align 8
  %ref.tmp25.sroa.6.0.samples28.sroa_idx = getelementptr inbounds i8, ptr %this, i64 392
  store ptr %retval.0.i.i.i34.i, ptr %ref.tmp25.sroa.6.0.samples28.sroa_idx, align 8
  ret void
}

; Function Attrs: mustprogress nounwind uwtable
define linkonce_odr dso_local void @_ZNSt3mapINSt7__cxx1112basic_stringIcSt11char_traitsIcESaIcEEEN4pbrt8MaterialESt4lessIS5_ESaISt4pairIKS5_S7_EEED2Ev(ptr noundef nonnull align 8 dereferenceable(48) %this) unnamed_addr #9 comdat align 2 personality ptr @__gxx_personality_v0 {
entry:
  %_M_parent.i.i.i = getelementptr inbounds i8, ptr %this, i64 16
  %0 = load ptr, ptr %_M_parent.i.i.i, align 8
  invoke void @_ZNSt8_Rb_treeINSt7__cxx1112basic_stringIcSt11char_traitsIcESaIcEEESt4pairIKS5_N4pbrt8MaterialEESt10_Select1stISA_ESt4lessIS5_ESaISA_EE8_M_eraseEPSt13_Rb_tree_nodeISA_E(ptr noundef nonnull align 8 dereferenceable(48) %this, ptr noundef %0)
          to label %_ZNSt8_Rb_treeINSt7__cxx1112basic_stringIcSt11char_traitsIcESaIcEEESt4pairIKS5_N4pbrt8MaterialEESt10_Select1stISA_ESt4lessIS5_ESaISA_EED2Ev.exit unwind label %terminate.lpad.i

terminate.lpad.i:                                 ; preds = %entry
  %1 = landingpad { ptr, i32 }
          catch ptr null
  %2 = extractvalue { ptr, i32 } %1, 0
  tail call void @__clang_call_terminate(ptr %2) #26
  unreachable

_ZNSt8_Rb_treeINSt7__cxx1112basic_stringIcSt11char_traitsIcESaIcEEESt4pairIKS5_N4pbrt8MaterialEESt10_Select1stISA_ESt4lessIS5_ESaISA_EED2Ev.exit: ; preds = %entry
  ret void
}

; Function Attrs: mustprogress nounwind uwtable
define linkonce_odr dso_local void @_ZNSt3mapIiPN4pstd6vectorIN4pbrt5LightENS0_3pmr21polymorphic_allocatorIS3_EEEESt4lessIiESaISt4pairIKiS8_EEED2Ev(ptr noundef nonnull align 8 dereferenceable(48) %this) unnamed_addr #9 comdat align 2 personality ptr @__gxx_personality_v0 {
entry:
  %_M_parent.i.i.i = getelementptr inbounds i8, ptr %this, i64 16
  %0 = load ptr, ptr %_M_parent.i.i.i, align 8
  invoke void @_ZNSt8_Rb_treeIiSt4pairIKiPN4pstd6vectorIN4pbrt5LightENS2_3pmr21polymorphic_allocatorIS5_EEEEESt10_Select1stISB_ESt4lessIiESaISB_EE8_M_eraseEPSt13_Rb_tree_nodeISB_E(ptr noundef nonnull align 8 dereferenceable(48) %this, ptr noundef %0)
          to label %_ZNSt8_Rb_treeIiSt4pairIKiPN4pstd6vectorIN4pbrt5LightENS2_3pmr21polymorphic_allocatorIS5_EEEEESt10_Select1stISB_ESt4lessIiESaISB_EED2Ev.exit unwind label %terminate.lpad.i

terminate.lpad.i:                                 ; preds = %entry
  %1 = landingpad { ptr, i32 }
          catch ptr null
  %2 = extractvalue { ptr, i32 } %1, 0
  tail call void @__clang_call_terminate(ptr %2) #26
  unreachable

_ZNSt8_Rb_treeIiSt4pairIKiPN4pstd6vectorIN4pbrt5LightENS2_3pmr21polymorphic_allocatorIS5_EEEEESt10_Select1stISB_ESt4lessIiESaISB_EED2Ev.exit: ; preds = %entry
  ret void
}

; Function Attrs: mustprogress nounwind uwtable
define linkonce_odr dso_local void @_ZN4pstd6vectorIN4pbrt5LightENS_3pmr21polymorphic_allocatorIS2_EEED2Ev(ptr noundef nonnull align 8 dereferenceable(32) %this) unnamed_addr #9 comdat align 2 personality ptr @__gxx_personality_v0 {
invoke.cont:
  %nStored.le.i = getelementptr inbounds i8, ptr %this, i64 24
  store i64 0, ptr %nStored.le.i, align 8
  %ptr = getelementptr inbounds i8, ptr %this, i64 8
  %0 = load ptr, ptr %ptr, align 8
  %tobool.not.i.i.i = icmp eq ptr %0, null
  br i1 %tobool.not.i.i.i, label %invoke.cont2, label %if.end.i.i.i

if.end.i.i.i:                                     ; preds = %invoke.cont
  %nAlloc = getelementptr inbounds i8, ptr %this, i64 16
  %1 = load i64, ptr %nAlloc, align 8
  %mul.i = shl i64 %1, 3
  %2 = load ptr, ptr %this, align 8
  %vtable.i.i.i = load ptr, ptr %2, align 8
  %vfn.i.i.i = getelementptr inbounds i8, ptr %vtable.i.i.i, i64 24
  %3 = load ptr, ptr %vfn.i.i.i, align 8
  invoke void %3(ptr noundef nonnull align 8 dereferenceable(8) %2, ptr noundef nonnull %0, i64 noundef %mul.i, i64 noundef 8)
          to label %invoke.cont2 unwind label %terminate.lpad

invoke.cont2:                                     ; preds = %invoke.cont, %if.end.i.i.i
  ret void

terminate.lpad:                                   ; preds = %if.end.i.i.i
  %4 = landingpad { ptr, i32 }
          catch ptr null
  %5 = extractvalue { ptr, i32 } %4, 0
  tail call void @__clang_call_terminate(ptr %5) #26
  unreachable
}

; Function Attrs: mustprogress nounwind uwtable
define linkonce_odr dso_local void @_ZN4pbrt13NamedTexturesD2Ev(ptr noundef nonnull align 8 dereferenceable(192) %this) unnamed_addr #9 comdat align 2 personality ptr @__gxx_personality_v0 {
entry:
  %illuminantSpectrumTextures = getelementptr inbounds i8, ptr %this, i64 144
  %_M_parent.i.i.i.i = getelementptr inbounds i8, ptr %this, i64 160
  %0 = load ptr, ptr %_M_parent.i.i.i.i, align 8
  invoke void @_ZNSt8_Rb_treeINSt7__cxx1112basic_stringIcSt11char_traitsIcESaIcEEESt4pairIKS5_N4pbrt15SpectrumTextureEESt10_Select1stISA_ESt4lessIS5_ESaISA_EE8_M_eraseEPSt13_Rb_tree_nodeISA_E(ptr noundef nonnull align 8 dereferenceable(48) %illuminantSpectrumTextures, ptr noundef %0)
          to label %_ZNSt3mapINSt7__cxx1112basic_stringIcSt11char_traitsIcESaIcEEEN4pbrt15SpectrumTextureESt4lessIS5_ESaISt4pairIKS5_S7_EEED2Ev.exit unwind label %terminate.lpad.i.i

terminate.lpad.i.i:                               ; preds = %entry
  %1 = landingpad { ptr, i32 }
          catch ptr null
  %2 = extractvalue { ptr, i32 } %1, 0
  tail call void @__clang_call_terminate(ptr %2) #26
  unreachable

_ZNSt3mapINSt7__cxx1112basic_stringIcSt11char_traitsIcESaIcEEEN4pbrt15SpectrumTextureESt4lessIS5_ESaISt4pairIKS5_S7_EEED2Ev.exit: ; preds = %entry
  %unboundedSpectrumTextures = getelementptr inbounds i8, ptr %this, i64 96
  %_M_parent.i.i.i.i1 = getelementptr inbounds i8, ptr %this, i64 112
  %3 = load ptr, ptr %_M_parent.i.i.i.i1, align 8
  invoke void @_ZNSt8_Rb_treeINSt7__cxx1112basic_stringIcSt11char_traitsIcESaIcEEESt4pairIKS5_N4pbrt15SpectrumTextureEESt10_Select1stISA_ESt4lessIS5_ESaISA_EE8_M_eraseEPSt13_Rb_tree_nodeISA_E(ptr noundef nonnull align 8 dereferenceable(48) %unboundedSpectrumTextures, ptr noundef %3)
          to label %_ZNSt3mapINSt7__cxx1112basic_stringIcSt11char_traitsIcESaIcEEEN4pbrt15SpectrumTextureESt4lessIS5_ESaISt4pairIKS5_S7_EEED2Ev.exit3 unwind label %terminate.lpad.i.i2

terminate.lpad.i.i2:                              ; preds = %_ZNSt3mapINSt7__cxx1112basic_stringIcSt11char_traitsIcESaIcEEEN4pbrt15SpectrumTextureESt4lessIS5_ESaISt4pairIKS5_S7_EEED2Ev.exit
  %4 = landingpad { ptr, i32 }
          catch ptr null
  %5 = extractvalue { ptr, i32 } %4, 0
  tail call void @__clang_call_terminate(ptr %5) #26
  unreachable

_ZNSt3mapINSt7__cxx1112basic_stringIcSt11char_traitsIcESaIcEEEN4pbrt15SpectrumTextureESt4lessIS5_ESaISt4pairIKS5_S7_EEED2Ev.exit3: ; preds = %_ZNSt3mapINSt7__cxx1112basic_stringIcSt11char_traitsIcESaIcEEEN4pbrt15SpectrumTextureESt4lessIS5_ESaISt4pairIKS5_S7_EEED2Ev.exit
  %albedoSpectrumTextures = getelementptr inbounds i8, ptr %this, i64 48
  %_M_parent.i.i.i.i4 = getelementptr inbounds i8, ptr %this, i64 64
  %6 = load ptr, ptr %_M_parent.i.i.i.i4, align 8
  invoke void @_ZNSt8_Rb_treeINSt7__cxx1112basic_stringIcSt11char_traitsIcESaIcEEESt4pairIKS5_N4pbrt15SpectrumTextureEESt10_Select1stISA_ESt4lessIS5_ESaISA_EE8_M_eraseEPSt13_Rb_tree_nodeISA_E(ptr noundef nonnull align 8 dereferenceable(48) %albedoSpectrumTextures, ptr noundef %6)
          to label %_ZNSt3mapINSt7__cxx1112basic_stringIcSt11char_traitsIcESaIcEEEN4pbrt15SpectrumTextureESt4lessIS5_ESaISt4pairIKS5_S7_EEED2Ev.exit6 unwind label %terminate.lpad.i.i5

terminate.lpad.i.i5:                              ; preds = %_ZNSt3mapINSt7__cxx1112basic_stringIcSt11char_traitsIcESaIcEEEN4pbrt15SpectrumTextureESt4lessIS5_ESaISt4pairIKS5_S7_EEED2Ev.exit3
  %7 = landingpad { ptr, i32 }
          catch ptr null
  %8 = extractvalue { ptr, i32 } %7, 0
  tail call void @__clang_call_terminate(ptr %8) #26
  unreachable

_ZNSt3mapINSt7__cxx1112basic_stringIcSt11char_traitsIcESaIcEEEN4pbrt15SpectrumTextureESt4lessIS5_ESaISt4pairIKS5_S7_EEED2Ev.exit6: ; preds = %_ZNSt3mapINSt7__cxx1112basic_stringIcSt11char_traitsIcESaIcEEEN4pbrt15SpectrumTextureESt4lessIS5_ESaISt4pairIKS5_S7_EEED2Ev.exit3
  %_M_parent.i.i.i.i7 = getelementptr inbounds i8, ptr %this, i64 16
  %9 = load ptr, ptr %_M_parent.i.i.i.i7, align 8
  invoke void @_ZNSt8_Rb_treeINSt7__cxx1112basic_stringIcSt11char_traitsIcESaIcEEESt4pairIKS5_N4pbrt12FloatTextureEESt10_Select1stISA_ESt4lessIS5_ESaISA_EE8_M_eraseEPSt13_Rb_tree_nodeISA_E(ptr noundef nonnull align 8 dereferenceable(48) %this, ptr noundef %9)
          to label %_ZNSt3mapINSt7__cxx1112basic_stringIcSt11char_traitsIcESaIcEEEN4pbrt12FloatTextureESt4lessIS5_ESaISt4pairIKS5_S7_EEED2Ev.exit unwind label %terminate.lpad.i.i8

terminate.lpad.i.i8:                              ; preds = %_ZNSt3mapINSt7__cxx1112basic_stringIcSt11char_traitsIcESaIcEEEN4pbrt15SpectrumTextureESt4lessIS5_ESaISt4pairIKS5_S7_EEED2Ev.exit6
  %10 = landingpad { ptr, i32 }
          catch ptr null
  %11 = extractvalue { ptr, i32 } %10, 0
  tail call void @__clang_call_terminate(ptr %11) #26
  unreachable

_ZNSt3mapINSt7__cxx1112basic_stringIcSt11char_traitsIcESaIcEEEN4pbrt12FloatTextureESt4lessIS5_ESaISt4pairIKS5_S7_EEED2Ev.exit: ; preds = %_ZNSt3mapINSt7__cxx1112basic_stringIcSt11char_traitsIcESaIcEEEN4pbrt15SpectrumTextureESt4lessIS5_ESaISt4pairIKS5_S7_EEED2Ev.exit6
  ret void
}

; Function Attrs: mustprogress nounwind uwtable
define linkonce_odr dso_local void @_ZNSt3mapINSt7__cxx1112basic_stringIcSt11char_traitsIcESaIcEEEN4pbrt6MediumESt4lessIS5_ESaISt4pairIKS5_S7_EEED2Ev(ptr noundef nonnull align 8 dereferenceable(48) %this) unnamed_addr #9 comdat align 2 personality ptr @__gxx_personality_v0 {
entry:
  %_M_parent.i.i.i = getelementptr inbounds i8, ptr %this, i64 16
  %0 = load ptr, ptr %_M_parent.i.i.i, align 8
  invoke void @_ZNSt8_Rb_treeINSt7__cxx1112basic_stringIcSt11char_traitsIcESaIcEEESt4pairIKS5_N4pbrt6MediumEESt10_Select1stISA_ESt4lessIS5_ESaISA_EE8_M_eraseEPSt13_Rb_tree_nodeISA_E(ptr noundef nonnull align 8 dereferenceable(48) %this, ptr noundef %0)
          to label %_ZNSt8_Rb_treeINSt7__cxx1112basic_stringIcSt11char_traitsIcESaIcEEESt4pairIKS5_N4pbrt6MediumEESt10_Select1stISA_ESt4lessIS5_ESaISA_EED2Ev.exit unwind label %terminate.lpad.i

terminate.lpad.i:                                 ; preds = %entry
  %1 = landingpad { ptr, i32 }
          catch ptr null
  %2 = extractvalue { ptr, i32 } %1, 0
  tail call void @__clang_call_terminate(ptr %2) #26
  unreachable

_ZNSt8_Rb_treeINSt7__cxx1112basic_stringIcSt11char_traitsIcESaIcEEESt4pairIKS5_N4pbrt6MediumEESt10_Select1stISA_ESt4lessIS5_ESaISA_EED2Ev.exit: ; preds = %entry
  ret void
}

; Function Attrs: mustprogress nounwind uwtable
define linkonce_odr dso_local void @_ZN4pbrt11ThreadLocalIN4pstd3pmr21polymorphic_allocatorISt4byteEEED2Ev(ptr noundef nonnull align 8 dereferenceable(112) %this) unnamed_addr #9 comdat align 2 personality ptr @__gxx_personality_v0 {
entry:
  %_M_manager.i.i = getelementptr inbounds i8, ptr %this, i64 96
  %0 = load ptr, ptr %_M_manager.i.i, align 8
  %tobool.not.i.i = icmp eq ptr %0, null
  br i1 %tobool.not.i.i, label %_ZNSt8functionIFN4pstd3pmr21polymorphic_allocatorISt4byteEEvEED2Ev.exit, label %if.then.i.i

if.then.i.i:                                      ; preds = %entry
  %create = getelementptr inbounds i8, ptr %this, i64 80
  %call.i.i = invoke noundef zeroext i1 %0(ptr noundef nonnull align 8 dereferenceable(16) %create, ptr noundef nonnull align 8 dereferenceable(16) %create, i32 noundef 3)
          to label %_ZNSt8functionIFN4pstd3pmr21polymorphic_allocatorISt4byteEEvEED2Ev.exit unwind label %terminate.lpad.i.i

terminate.lpad.i.i:                               ; preds = %if.then.i.i
  %1 = landingpad { ptr, i32 }
          catch ptr null
  %2 = extractvalue { ptr, i32 } %1, 0
  tail call void @__clang_call_terminate(ptr %2) #26
  unreachable

_ZNSt8functionIFN4pstd3pmr21polymorphic_allocatorISt4byteEEvEED2Ev.exit: ; preds = %entry, %if.then.i.i
  %hashTable = getelementptr inbounds i8, ptr %this, i64 56
  %3 = load ptr, ptr %hashTable, align 8
  %_M_finish.i = getelementptr inbounds i8, ptr %this, i64 64
  %4 = load ptr, ptr %_M_finish.i, align 8
  %cmp.not3.i.i.i.i = icmp eq ptr %3, %4
  br i1 %cmp.not3.i.i.i.i, label %invoke.cont.i, label %for.body.i.i.i.i

for.body.i.i.i.i:                                 ; preds = %_ZNSt8functionIFN4pstd3pmr21polymorphic_allocatorISt4byteEEvEED2Ev.exit, %_ZSt8_DestroyIN4pstd8optionalIN4pbrt11ThreadLocalINS0_3pmr21polymorphic_allocatorISt4byteEEE5EntryEEEEvPT_.exit.i.i.i.i
  %__first.addr.04.i.i.i.i = phi ptr [ %incdec.ptr.i.i.i.i, %_ZSt8_DestroyIN4pstd8optionalIN4pbrt11ThreadLocalINS0_3pmr21polymorphic_allocatorISt4byteEEE5EntryEEEEvPT_.exit.i.i.i.i ], [ %3, %_ZNSt8functionIFN4pstd3pmr21polymorphic_allocatorISt4byteEEvEED2Ev.exit ]
  %set.i.i.i.i.i.i.i = getelementptr inbounds i8, ptr %__first.addr.04.i.i.i.i, i64 16
  %5 = load i8, ptr %set.i.i.i.i.i.i.i, align 8
  %6 = and i8 %5, 1
  %tobool.not.i.i.i.i.i.i.i = icmp eq i8 %6, 0
  br i1 %tobool.not.i.i.i.i.i.i.i, label %_ZSt8_DestroyIN4pstd8optionalIN4pbrt11ThreadLocalINS0_3pmr21polymorphic_allocatorISt4byteEEE5EntryEEEEvPT_.exit.i.i.i.i, label %_ZN4pstd8optionalIN4pbrt11ThreadLocalINS_3pmr21polymorphic_allocatorISt4byteEEE5EntryEE5valueEv.exit.i.i.i.i.i.i.i

_ZN4pstd8optionalIN4pbrt11ThreadLocalINS_3pmr21polymorphic_allocatorISt4byteEEE5EntryEE5valueEv.exit.i.i.i.i.i.i.i: ; preds = %for.body.i.i.i.i
  store i8 0, ptr %set.i.i.i.i.i.i.i, align 8
  br label %_ZSt8_DestroyIN4pstd8optionalIN4pbrt11ThreadLocalINS0_3pmr21polymorphic_allocatorISt4byteEEE5EntryEEEEvPT_.exit.i.i.i.i

_ZSt8_DestroyIN4pstd8optionalIN4pbrt11ThreadLocalINS0_3pmr21polymorphic_allocatorISt4byteEEE5EntryEEEEvPT_.exit.i.i.i.i: ; preds = %_ZN4pstd8optionalIN4pbrt11ThreadLocalINS_3pmr21polymorphic_allocatorISt4byteEEE5EntryEE5valueEv.exit.i.i.i.i.i.i.i, %for.body.i.i.i.i
  %incdec.ptr.i.i.i.i = getelementptr inbounds i8, ptr %__first.addr.04.i.i.i.i, i64 24
  %cmp.not.i.i.i.i = icmp eq ptr %incdec.ptr.i.i.i.i, %4
  br i1 %cmp.not.i.i.i.i, label %invoke.contthread-pre-split.i, label %for.body.i.i.i.i, !llvm.loop !21

invoke.contthread-pre-split.i:                    ; preds = %_ZSt8_DestroyIN4pstd8optionalIN4pbrt11ThreadLocalINS0_3pmr21polymorphic_allocatorISt4byteEEE5EntryEEEEvPT_.exit.i.i.i.i
  %.pr.i = load ptr, ptr %hashTable, align 8
  br label %invoke.cont.i

invoke.cont.i:                                    ; preds = %invoke.contthread-pre-split.i, %_ZNSt8functionIFN4pstd3pmr21polymorphic_allocatorISt4byteEEvEED2Ev.exit
  %7 = phi ptr [ %.pr.i, %invoke.contthread-pre-split.i ], [ %3, %_ZNSt8functionIFN4pstd3pmr21polymorphic_allocatorISt4byteEEvEED2Ev.exit ]
  %tobool.not.i.i.i = icmp eq ptr %7, null
  br i1 %tobool.not.i.i.i, label %_ZNSt6vectorIN4pstd8optionalIN4pbrt11ThreadLocalINS0_3pmr21polymorphic_allocatorISt4byteEEE5EntryEEESaISA_EED2Ev.exit, label %if.then.i.i.i

if.then.i.i.i:                                    ; preds = %invoke.cont.i
  tail call void @_ZdlPv(ptr noundef nonnull %7) #29
  br label %_ZNSt6vectorIN4pstd8optionalIN4pbrt11ThreadLocalINS0_3pmr21polymorphic_allocatorISt4byteEEE5EntryEEESaISA_EED2Ev.exit

_ZNSt6vectorIN4pstd8optionalIN4pbrt11ThreadLocalINS0_3pmr21polymorphic_allocatorISt4byteEEE5EntryEEESaISA_EED2Ev.exit: ; preds = %invoke.cont.i, %if.then.i.i.i
  ret void
}

; Function Attrs: mustprogress uwtable
define dso_local noundef float @_ZN4pbrt23WavefrontPathIntegrator6RenderEv(ptr noundef nonnull align 8 dereferenceable(648) %this) local_unnamed_addr #3 align 2 personality ptr @__gxx_personality_v0 {
entry:
  %agg.tmp.i.i195 = alloca %"class.std::function.360", align 8
  %agg.tmp.i = alloca %"class.std::function.358", align 8
  %s.i188 = alloca %"class.std::__cxx11::basic_string", align 8
  %s.i182 = alloca %"class.std::__cxx11::basic_string", align 8
  %s.i176 = alloca %"class.std::__cxx11::basic_string", align 8
  %agg.tmp.i.i.i124 = alloca %"class.std::function.360", align 8
  %q.addr.i.i125 = alloca ptr, align 8
  %agg.tmp.i.i126 = alloca %"class.std::function.358", align 8
  %ref.tmp.i127 = alloca %class.anon.193, align 8
  %agg.tmp.i.i.i = alloca %"class.std::function.360", align 8
  %q.addr.i.i = alloca ptr, align 8
  %agg.tmp.i.i = alloca %"class.std::function.358", align 8
  %ref.tmp.i115 = alloca %class.anon.192, align 8
  %s.i = alloca %"class.std::__cxx11::basic_string", align 8
  %ref.tmp.i = alloca %"class.pbrt::Transform", align 4
  %ref.tmp2.i = alloca %"class.pbrt::Transform", align 4
  %renderFromCamera = alloca %"class.pbrt::Transform", align 4
  %cameraFromRender = alloca %"class.pbrt::Transform", align 4
  %cameraFromWorld = alloca %"class.pbrt::Transform", align 4
  %agg.tmp = alloca %"class.std::__cxx11::basic_string", align 8
  %agg.tmp14 = alloca %"class.pbrt::Bounds3", align 8
  %values = alloca %"class.std::vector.168", align 8
  %progress = alloca %"class.pbrt::ProgressReporter", align 8
  %agg.tmp45 = alloca %"class.std::__cxx11::basic_string", align 8
  %ref.tmp = alloca %"class.std::allocator.96", align 1
  %sampleIndex = alloca i32, align 4
  %_ = alloca %"class.pbrt::CheckCallbackScope", align 1
  %agg.tmp60 = alloca %"class.std::function.177", align 8
  %cameraMotion = alloca %"class.pbrt::Transform", align 8
  %ref.tmp81 = alloca %"class.pbrt::Transform", align 4
  %ref.tmp82 = alloca %"class.pbrt::Transform", align 4
  %ref.tmp83 = alloca %"class.pbrt::Transform", align 4
  %cfw = alloca %"class.pbrt::SquareMatrix.101", align 4
  %ref.tmp148 = alloca %"class.pbrt::Transform", align 4
  %ref.tmp149 = alloca %"class.pbrt::Transform", align 4
  %ref.tmp150 = alloca %"class.pbrt::Transform", align 4
  %film = getelementptr inbounds i8, ptr %this, i64 56
  %0 = load i64, ptr %film, align 8
  %and.i.i.i = and i64 %0, 144115188075855871
  %1 = inttoptr i64 %and.i.i.i to ptr
  %retval.sroa.2.0.copyload.i.i15.pn.in.i.i.i = getelementptr inbounds i8, ptr %1, i64 16
  %retval.sroa.2.0.copyload.i.i15.pn.i.i.i = load i64, ptr %retval.sroa.2.0.copyload.i.i15.pn.in.i.i.i, align 8
  %retval.sroa.0.0.copyload.i.i13.pn.in.i.i.i = getelementptr inbounds i8, ptr %1, i64 8
  %retval.sroa.0.0.copyload.i.i13.pn.i.i.i = load i64, ptr %retval.sroa.0.0.copyload.i.i13.pn.in.i.i.i, align 8
  %pixelBounds.sroa.0.sroa.5.0.extract.shift = lshr i64 %retval.sroa.0.0.copyload.i.i13.pn.i.i.i, 32
  %pixelBounds.sroa.0.sroa.5.0.extract.trunc = trunc i64 %pixelBounds.sroa.0.sroa.5.0.extract.shift to i32
  %sub.i.i = sub i64 %retval.sroa.2.0.copyload.i.i15.pn.i.i.i, %retval.sroa.0.0.copyload.i.i13.pn.i.i.i
  %pixelBounds.sroa.6.12.extract.shift223 = lshr i64 %retval.sroa.2.0.copyload.i.i15.pn.i.i.i, 32
  %pixelBounds.sroa.6.12.extract.trunc224 = trunc i64 %pixelBounds.sroa.6.12.extract.shift223 to i32
  %sub4.i.i = sub nsw i32 %pixelBounds.sroa.6.12.extract.trunc224, %pixelBounds.sroa.0.sroa.5.0.extract.trunc
  %retval.sroa.2.0.insert.ext.i.i = zext i32 %sub4.i.i to i64
  %retval.sroa.2.0.insert.shift.i.i = shl nuw i64 %retval.sroa.2.0.insert.ext.i.i, 32
  %retval.sroa.0.0.insert.ext.i.i = and i64 %sub.i.i, 4294967295
  %retval.sroa.0.0.insert.insert.i.i = or disjoint i64 %retval.sroa.2.0.insert.shift.i.i, %retval.sroa.0.0.insert.ext.i.i
  %resolution.sroa.0.0.extract.trunc = trunc i64 %sub.i.i to i32
  %camera = getelementptr inbounds i8, ptr %this, i64 72
  %2 = load i64, ptr %camera, align 8
  %and.i.i.i48 = and i64 %2, 144115188075855871
  %3 = inttoptr i64 %and.i.i.i48 to ptr
  call void @llvm.memcpy.p0.p0.i64(ptr noundef nonnull align 4 dereferenceable(128) %renderFromCamera, ptr noundef nonnull align 4 dereferenceable(128) %3, i64 128, i1 false)
  %mInv.i.i = getelementptr inbounds i8, ptr %renderFromCamera, i64 64
  call void @llvm.memcpy.p0.p0.i64(ptr noundef nonnull align 4 dereferenceable(64) %cameraFromRender, ptr noundef nonnull align 4 dereferenceable(64) %mInv.i.i, i64 64, i1 false)
  %mInv3.i.i = getelementptr inbounds i8, ptr %cameraFromRender, i64 64
  call void @llvm.memcpy.p0.p0.i64(ptr noundef nonnull align 4 dereferenceable(64) %mInv3.i.i, ptr noundef nonnull align 4 dereferenceable(64) %renderFromCamera, i64 64, i1 false)
  %shutterOpen.i.i19.i.i.i = getelementptr inbounds i8, ptr %3, i64 824
  %4 = load float, ptr %shutterOpen.i.i19.i.i.i, align 8
  %shutterClose.i.i20.i.i.i = getelementptr inbounds i8, ptr %3, i64 828
