; ModuleID = 'bench/pbrt-v4/original/loopsubdiv.cpp.ll'
source_filename = "bench/pbrt-v4/original/loopsubdiv.cpp.ll"
target datalayout = "e-m:e-p270:32:32-p271:32:32-p272:64:64-i64:64-i128:128-f80:128-n8:16:32:64-S128"
target triple = "x86_64-unknown-linux-gnu"

%"class.pstd::span.0" = type { ptr, i64 }
%"class.pbrt::InlinedVector" = type { %"class.pstd::pmr::polymorphic_allocator.69", ptr, %union.anon, i64, i64 }
%"class.pstd::pmr::polymorphic_allocator.69" = type { ptr }
%union.anon = type { [16 x %"class.pbrt::Point3"] }
%"class.pbrt::Point3" = type { %"class.pbrt::Tuple3" }
%"class.pbrt::Tuple3" = type { float, float, float }
%"class.pstd::pmr::polymorphic_allocator" = type { ptr }
%"class.std::set" = type { %"class.std::_Rb_tree" }
%"class.std::_Rb_tree" = type { %"struct.std::_Rb_tree<pbrt::SDEdge, pbrt::SDEdge, std::_Identity<pbrt::SDEdge>, std::less<pbrt::SDEdge>>::_Rb_tree_impl" }
%"struct.std::_Rb_tree<pbrt::SDEdge, pbrt::SDEdge, std::_Identity<pbrt::SDEdge>, std::less<pbrt::SDEdge>>::_Rb_tree_impl" = type { %"struct.std::_Rb_tree_key_compare", %"struct.std::_Rb_tree_header" }
%"struct.std::_Rb_tree_key_compare" = type { %"struct.std::less" }
%"struct.std::less" = type { i8 }
%"struct.std::_Rb_tree_header" = type { %"struct.std::_Rb_tree_node_base", i64 }
%"struct.std::_Rb_tree_node_base" = type { i32, ptr, ptr, ptr }
%"class.pstd::pmr::monotonic_buffer_resource" = type { %"class.pstd::pmr::memory_resource", ptr, i64, ptr, i64, ptr, [16 x i8] }
%"class.pstd::pmr::memory_resource" = type { ptr }
%"class.std::map" = type { %"class.std::_Rb_tree.20" }
%"class.std::_Rb_tree.20" = type { %"struct.std::_Rb_tree<pbrt::SDEdge, std::pair<const pbrt::SDEdge, pbrt::SDVertex *>, std::_Select1st<std::pair<const pbrt::SDEdge, pbrt::SDVertex *>>, std::less<pbrt::SDEdge>>::_Rb_tree_impl" }
%"struct.std::_Rb_tree<pbrt::SDEdge, std::pair<const pbrt::SDEdge, pbrt::SDVertex *>, std::_Select1st<std::pair<const pbrt::SDEdge, pbrt::SDVertex *>>, std::less<pbrt::SDEdge>>::_Rb_tree_impl" = type { %"struct.std::_Rb_tree_key_compare", %"struct.std::_Rb_tree_header" }
%"class.std::vector.24" = type { %"struct.std::_Vector_base.25" }
%"struct.std::_Vector_base.25" = type { %"struct.std::_Vector_base<pbrt::Point3<float>, std::allocator<pbrt::Point3<float>>>::_Vector_impl" }
%"struct.std::_Vector_base<pbrt::Point3<float>, std::allocator<pbrt::Point3<float>>>::_Vector_impl" = type { %"struct.std::_Vector_base<pbrt::Point3<float>, std::allocator<pbrt::Point3<float>>>::_Vector_impl_data" }
%"struct.std::_Vector_base<pbrt::Point3<float>, std::allocator<pbrt::Point3<float>>>::_Vector_impl_data" = type { ptr, ptr, ptr }
%"class.std::vector.29" = type { %"struct.std::_Vector_base.30" }
%"struct.std::_Vector_base.30" = type { %"struct.std::_Vector_base<pbrt::Normal3<float>, std::allocator<pbrt::Normal3<float>>>::_Vector_impl" }
%"struct.std::_Vector_base<pbrt::Normal3<float>, std::allocator<pbrt::Normal3<float>>>::_Vector_impl" = type { %"struct.std::_Vector_base<pbrt::Normal3<float>, std::allocator<pbrt::Normal3<float>>>::_Vector_impl_data" }
%"struct.std::_Vector_base<pbrt::Normal3<float>, std::allocator<pbrt::Normal3<float>>>::_Vector_impl_data" = type { ptr, ptr, ptr }
%"class.std::vector.36" = type { %"struct.std::_Vector_base.37" }
%"struct.std::_Vector_base.37" = type { %"struct.std::_Vector_base<int, std::allocator<int>>::_Vector_impl" }
%"struct.std::_Vector_base<int, std::allocator<int>>::_Vector_impl" = type { %"struct.std::_Vector_base<int, std::allocator<int>>::_Vector_impl_data" }
%"struct.std::_Vector_base<int, std::allocator<int>>::_Vector_impl_data" = type { ptr, ptr, ptr }
%"class.std::map.41" = type { %"class.std::_Rb_tree.42" }
%"class.std::_Rb_tree.42" = type { %"struct.std::_Rb_tree<pbrt::SDVertex *, std::pair<pbrt::SDVertex *const, int>, std::_Select1st<std::pair<pbrt::SDVertex *const, int>>, std::less<pbrt::SDVertex *>>::_Rb_tree_impl" }
%"struct.std::_Rb_tree<pbrt::SDVertex *, std::pair<pbrt::SDVertex *const, int>, std::_Select1st<std::pair<pbrt::SDVertex *const, int>>, std::less<pbrt::SDVertex *>>::_Rb_tree_impl" = type { %"struct.std::_Rb_tree_key_compare.46", %"struct.std::_Rb_tree_header" }
%"struct.std::_Rb_tree_key_compare.46" = type { %"struct.std::less.47" }
%"struct.std::less.47" = type { i8 }
%"class.std::vector.50" = type { %"struct.std::_Vector_base.51" }
%"struct.std::_Vector_base.51" = type { %"struct.std::_Vector_base<pbrt::Vector3<float>, std::allocator<pbrt::Vector3<float>>>::_Vector_impl" }
%"struct.std::_Vector_base<pbrt::Vector3<float>, std::allocator<pbrt::Vector3<float>>>::_Vector_impl" = type { %"struct.std::_Vector_base<pbrt::Vector3<float>, std::allocator<pbrt::Vector3<float>>>::_Vector_impl_data" }
%"struct.std::_Vector_base<pbrt::Vector3<float>, std::allocator<pbrt::Vector3<float>>>::_Vector_impl_data" = type { ptr, ptr, ptr }
%"class.std::vector.55" = type { %"struct.std::_Vector_base.56" }
%"struct.std::_Vector_base.56" = type { %"struct.std::_Vector_base<pbrt::Point2<float>, std::allocator<pbrt::Point2<float>>>::_Vector_impl" }
%"struct.std::_Vector_base<pbrt::Point2<float>, std::allocator<pbrt::Point2<float>>>::_Vector_impl" = type { %"struct.std::_Vector_base<pbrt::Point2<float>, std::allocator<pbrt::Point2<float>>>::_Vector_impl_data" }
%"struct.std::_Vector_base<pbrt::Point2<float>, std::allocator<pbrt::Point2<float>>>::_Vector_impl_data" = type { ptr, ptr, ptr }
%"struct.pbrt::SDVertex" = type <{ %"class.pbrt::Point3", [4 x i8], ptr, ptr, i8, i8, [6 x i8] }>
%"struct.pbrt::SDFace" = type { [3 x ptr], [3 x ptr], [4 x ptr] }
%"struct.std::_Rb_tree_node.67" = type { %"struct.std::_Rb_tree_node_base", %"struct.__gnu_cxx::__aligned_membuf.68" }
%"struct.__gnu_cxx::__aligned_membuf.68" = type { [40 x i8] }
%"struct.std::_Rb_tree_node" = type { %"struct.std::_Rb_tree_node_base", %"struct.__gnu_cxx::__aligned_membuf" }
%"struct.__gnu_cxx::__aligned_membuf" = type { [48 x i8] }
%"class.pbrt::Normal3" = type { %"class.pbrt::Tuple3.35" }
%"class.pbrt::Tuple3.35" = type { float, float, float }
%"struct.std::_Rb_tree_node.62" = type { %"struct.std::_Rb_tree_node_base", %"struct.__gnu_cxx::__aligned_membuf.63" }
%"struct.__gnu_cxx::__aligned_membuf.63" = type { [16 x i8] }
%"struct.pstd::pmr::monotonic_buffer_resource::block" = type { ptr, i64, ptr }

$_ZN4pbrt8SDVertex7valenceEv = comdat any

$_ZNSt3mapIPN4pbrt8SDVertexEiSt4lessIS2_ESaISt4pairIKS2_iEEEixERS6_ = comdat any

$_ZNSt3mapIPN4pbrt8SDVertexEiSt4lessIS2_ESaISt4pairIKS2_iEEED2Ev = comdat any

$__clang_call_terminate = comdat any

$_ZNSt8_Rb_treeIN4pbrt6SDEdgeESt4pairIKS1_PNS0_8SDVertexEESt10_Select1stIS6_ESt4lessIS1_ESaIS6_EE8_M_eraseEPSt13_Rb_tree_nodeIS6_E = comdat any

$_ZNSt8_Rb_treeIPN4pbrt8SDVertexESt4pairIKS2_iESt10_Select1stIS5_ESt4lessIS2_ESaIS5_EE8_M_eraseEPSt13_Rb_tree_nodeIS5_E = comdat any

$_ZNSt8_Rb_treeIN4pbrt6SDEdgeES1_St9_IdentityIS1_ESt4lessIS1_ESaIS1_EE8_M_eraseEPSt13_Rb_tree_nodeIS1_E = comdat any

$_ZN4pbrt13InlinedVectorINS_6Point3IfEELi16EN4pstd3pmr21polymorphic_allocatorIS2_EEED2Ev = comdat any

$_ZNSt8_Rb_treeIN4pbrt6SDEdgeESt4pairIKS1_PNS0_8SDVertexEESt10_Select1stIS6_ESt4lessIS1_ESaIS6_EE29_M_get_insert_hint_unique_posESt23_Rb_tree_const_iteratorIS6_ERS3_ = comdat any

$_ZNSt8_Rb_treeIPN4pbrt8SDVertexESt4pairIKS2_iESt10_Select1stIS5_ESt4lessIS2_ESaIS5_EE29_M_get_insert_hint_unique_posESt23_Rb_tree_const_iteratorIS5_ERS4_ = comdat any

$_ZN4pstd3pmr21polymorphic_allocatorISt4byteE9constructIN4pbrt12TriangleMeshEJRKNS5_9TransformERbRSt6vectorIiSaIiEERSB_INS5_6Point3IfEESaISG_EESB_INS5_7Vector3IfEESaISL_EERSB_INS5_7Normal3IfEESaISP_EESB_INS5_6Point2IfEESaISU_EESD_RS3_EEEvPT_DpOT0_ = comdat any

@_ZTVN4pstd3pmr25monotonic_buffer_resourceE = external unnamed_addr constant { [7 x ptr] }, align 8
@.str = private unnamed_addr constant [122 x i8] c"generated/home/dtcxzyw/WorkSpace/Projects/compilers/llvm-opt-benchmark/bench/pbrt-v4/pbrt-v4/src/pbrt/util/loopsubdiv.cpp\00", align 1
@.str.2 = private unnamed_addr constant [41 x i8] c"Basic logic error in SDFace::otherVert()\00", align 1
@.str.3 = private unnamed_addr constant [36 x i8] c"Basic logic error in SDFace::vnum()\00", align 1
@.str.4 = private unnamed_addr constant [26 x i8] c"vector::_M_realloc_insert\00", align 1
@.str.5 = private unnamed_addr constant [49 x i8] c"cannot create std::vector larger than max_size()\00", align 1
@.str.7 = private unnamed_addr constant [26 x i8] c"vector::_M_default_append\00", align 1
@llvm.global_ctors = appending global [0 x { i32, ptr, ptr }] zeroinitializer

; Function Attrs: mustprogress uwtable
define dso_local noundef ptr @_ZN4pbrt13LoopSubdivideEPKNS_9TransformEbiN4pstd4spanIKiEENS4_IKNS_6Point3IfEEEENS3_3pmr21polymorphic_allocatorISt4byteEE(ptr noundef %renderFromObject, i1 noundef zeroext %reverseOrientation, i32 noundef %nLevels, ptr nocapture readonly %vertexIndices.coerce0, i64 %vertexIndices.coerce1, ptr nocapture noundef readonly byval(%"class.pstd::span.0") align 8 %p, ptr %alloc.coerce) local_unnamed_addr #0 personality ptr @__gxx_personality_v0 {
entry:
  %pRing.i1005 = alloca %"class.pbrt::InlinedVector", align 8
  %pRing.i918 = alloca %"class.pbrt::InlinedVector", align 8
  %pRing.i475 = alloca %"class.pbrt::InlinedVector", align 8
  %pRing.i386 = alloca %"class.pbrt::InlinedVector", align 8
  %pRing.i = alloca %"class.pbrt::InlinedVector", align 8
  %alloc = alloca %"class.pstd::pmr::polymorphic_allocator", align 8
  %reverseOrientation.addr = alloca i8, align 1
  %ref.tmp.sroa.0 = alloca <{ %"class.pbrt::Point3", [4 x i8], ptr, ptr, i8, i8 }>, align 8
  %edges = alloca %"class.std::set", align 8
  %resource = alloca %"class.pstd::pmr::monotonic_buffer_resource", align 64
  %edgeVerts = alloca %"class.std::map", align 8
  %edge.sroa.14 = alloca [2 x ptr], align 8
  %pLimit = alloca %"class.std::vector.24", align 8
  %Ns = alloca %"class.std::vector.29", align 8
  %verts890 = alloca %"class.std::vector.36", align 8
  %usedVerts = alloca %"class.std::map.41", align 8
  %ref.tmp931 = alloca %"class.std::vector.50", align 8
  %ref.tmp932 = alloca %"class.std::vector.55", align 8
  %ref.tmp933 = alloca %"class.std::vector.36", align 8
  store ptr %alloc.coerce, ptr %alloc, align 8
  %frombool = zext i1 %reverseOrientation to i8
  store i8 %frombool, ptr %reverseOrientation.addr, align 1
  %n.i = getelementptr inbounds %"class.pstd::span.0", ptr %p, i64 0, i32 1
  %0 = load i64, ptr %n.i, align 8
  %1 = tail call { i64, i1 } @llvm.umul.with.overflow.i64(i64 %0, i64 40)
  %2 = extractvalue { i64, i1 } %1, 1
  %3 = extractvalue { i64, i1 } %1, 0
  %4 = select i1 %2, i64 -1, i64 %3
  %call.i193 = tail call noalias noundef nonnull ptr @_Znam(i64 noundef %4) #17
  %isempty.i = icmp eq i64 %0, 0
  br i1 %isempty.i, label %for.end, label %new.ctorloop.i

new.ctorloop.i:                                   ; preds = %entry
  %arrayctor.end.i = getelementptr inbounds %"struct.pbrt::SDVertex", ptr %call.i193, i64 %0
  br label %invoke.cont.i

invoke.cont.i:                                    ; preds = %invoke.cont.i, %new.ctorloop.i
  %arrayctor.cur.i = phi ptr [ %call.i193, %new.ctorloop.i ], [ %arrayctor.next.i, %invoke.cont.i ]
  store <2 x float> zeroinitializer, ptr %arrayctor.cur.i, align 8, !noalias !5
  %ref.tmp.sroa.3.0.arrayctor.cur.sroa_idx.i = getelementptr inbounds i8, ptr %arrayctor.cur.i, i64 8
  store float 0.000000e+00, ptr %ref.tmp.sroa.3.0.arrayctor.cur.sroa_idx.i, align 8, !noalias !5
  %startFace.i.i = getelementptr inbounds %"struct.pbrt::SDVertex", ptr %arrayctor.cur.i, i64 0, i32 2
  tail call void @llvm.memset.p0.i64(ptr noundef nonnull align 8 dereferenceable(18) %startFace.i.i, i8 0, i64 18, i1 false), !noalias !5
  %arrayctor.next.i = getelementptr inbounds %"struct.pbrt::SDVertex", ptr %arrayctor.cur.i, i64 1
  %arrayctor.done.i = icmp eq ptr %arrayctor.next.i, %arrayctor.end.i
  br i1 %arrayctor.done.i, label %_ZSt11make_uniqueIA_N4pbrt8SDVertexEENSt8__detail9_MakeUniqIT_E7__arrayEm.exit, label %invoke.cont.i

_ZSt11make_uniqueIA_N4pbrt8SDVertexEENSt8__detail9_MakeUniqIT_E7__arrayEm.exit: ; preds = %invoke.cont.i
  br i1 %isempty.i, label %for.end, label %for.body.lr.ph

for.body.lr.ph:                                   ; preds = %_ZSt11make_uniqueIA_N4pbrt8SDVertexEENSt8__detail9_MakeUniqIT_E7__arrayEm.exit
  %ref.tmp.sroa.0.16.startFace.i.sroa_idx3639 = getelementptr inbounds i8, ptr %ref.tmp.sroa.0, i64 16
  br label %for.body

for.body:                                         ; preds = %for.body.lr.ph, %for.inc
  %indvars.iv = phi i64 [ 0, %for.body.lr.ph ], [ %indvars.iv.next, %for.inc ]
  %vertices.sroa.0.02625 = phi ptr [ null, %for.body.lr.ph ], [ %vertices.sroa.0.1, %for.inc ]
  %vertices.sroa.9.02624 = phi ptr [ null, %for.body.lr.ph ], [ %vertices.sroa.9.1, %for.inc ]
  %vertices.sroa.15.02623 = phi ptr [ null, %for.body.lr.ph ], [ %vertices.sroa.15.1, %for.inc ]
  %5 = load ptr, ptr %p, align 8
  %arrayidx.i = getelementptr inbounds %"class.pbrt::Point3", ptr %5, i64 %indvars.iv
  call void @llvm.memcpy.p0.p0.i64(ptr noundef nonnull align 8 dereferenceable(12) %ref.tmp.sroa.0, ptr noundef nonnull align 4 dereferenceable(12) %arrayidx.i, i64 12, i1 false)
  call void @llvm.memset.p0.i64(ptr noundef nonnull align 8 dereferenceable(18) %ref.tmp.sroa.0.16.startFace.i.sroa_idx3639, i8 0, i64 18, i1 false)
  %arrayidx.i195 = getelementptr inbounds %"struct.pbrt::SDVertex", ptr %call.i193, i64 %indvars.iv
  call void @llvm.memcpy.p0.p0.i64(ptr noundef nonnull align 8 dereferenceable(34) %arrayidx.i195, ptr noundef nonnull align 8 dereferenceable(34) %ref.tmp.sroa.0, i64 34, i1 false)
  %cmp.not.i.i = icmp eq ptr %vertices.sroa.9.02624, %vertices.sroa.15.02623
  br i1 %cmp.not.i.i, label %if.else.i.i, label %if.then.i.i

if.then.i.i:                                      ; preds = %for.body
  store ptr %arrayidx.i195, ptr %vertices.sroa.9.02624, align 8
  br label %for.inc

if.else.i.i:                                      ; preds = %for.body
  %sub.ptr.lhs.cast.i.i.i.i.i = ptrtoint ptr %vertices.sroa.9.02624 to i64
  %sub.ptr.rhs.cast.i.i.i.i.i = ptrtoint ptr %vertices.sroa.0.02625 to i64
  %sub.ptr.sub.i.i.i.i.i = sub i64 %sub.ptr.lhs.cast.i.i.i.i.i, %sub.ptr.rhs.cast.i.i.i.i.i
  %cmp.i.i.i.i = icmp eq i64 %sub.ptr.sub.i.i.i.i.i, 9223372036854775800
  br i1 %cmp.i.i.i.i, label %if.then.i.i.i.i, label %_ZNKSt6vectorIPN4pbrt8SDVertexESaIS2_EE12_M_check_lenEmPKc.exit.i.i.i

if.then.i.i.i.i:                                  ; preds = %if.else.i.i
  invoke void @_ZSt20__throw_length_errorPKc(ptr noundef nonnull @.str.4) #18
          to label %.noexc unwind label %ehcleanup951.thread2207.loopexit.split-lp

.noexc:                                           ; preds = %if.then.i.i.i.i
  unreachable

_ZNKSt6vectorIPN4pbrt8SDVertexESaIS2_EE12_M_check_lenEmPKc.exit.i.i.i: ; preds = %if.else.i.i
  %sub.ptr.div.i.i.i.i.i = ashr exact i64 %sub.ptr.sub.i.i.i.i.i, 3
  %.sroa.speculated.i.i.i.i = tail call i64 @llvm.umax.i64(i64 %sub.ptr.div.i.i.i.i.i, i64 1)
  %add.i.i.i.i = add i64 %.sroa.speculated.i.i.i.i, %sub.ptr.div.i.i.i.i.i
  %cmp7.i.i.i.i = icmp ult i64 %add.i.i.i.i, %sub.ptr.div.i.i.i.i.i
  %cmp9.i.i.i.i = icmp ugt i64 %add.i.i.i.i, 1152921504606846975
  %or.cond.i.i.i.i = or i1 %cmp7.i.i.i.i, %cmp9.i.i.i.i
  %cond.i.i.i.i = select i1 %or.cond.i.i.i.i, i64 1152921504606846975, i64 %add.i.i.i.i
  %cmp.not.i.i.i.i = icmp eq i64 %cond.i.i.i.i, 0
  br i1 %cmp.not.i.i.i.i, label %_ZNSt12_Vector_baseIPN4pbrt8SDVertexESaIS2_EE11_M_allocateEm.exit.i.i.i, label %_ZNSt16allocator_traitsISaIPN4pbrt8SDVertexEEE8allocateERS3_m.exit.i.i.i.i

_ZNSt16allocator_traitsISaIPN4pbrt8SDVertexEEE8allocateERS3_m.exit.i.i.i.i: ; preds = %_ZNKSt6vectorIPN4pbrt8SDVertexESaIS2_EE12_M_check_lenEmPKc.exit.i.i.i
  %mul.i.i.i.i.i.i = shl nuw nsw i64 %cond.i.i.i.i, 3
  %call5.i.i.i.i.i.i197 = invoke noalias noundef nonnull ptr @_Znwm(i64 noundef %mul.i.i.i.i.i.i) #17
          to label %_ZNSt12_Vector_baseIPN4pbrt8SDVertexESaIS2_EE11_M_allocateEm.exit.i.i.i unwind label %ehcleanup951.thread2207.loopexit

_ZNSt12_Vector_baseIPN4pbrt8SDVertexESaIS2_EE11_M_allocateEm.exit.i.i.i: ; preds = %_ZNSt16allocator_traitsISaIPN4pbrt8SDVertexEEE8allocateERS3_m.exit.i.i.i.i, %_ZNKSt6vectorIPN4pbrt8SDVertexESaIS2_EE12_M_check_lenEmPKc.exit.i.i.i
  %cond.i10.i.i.i = phi ptr [ null, %_ZNKSt6vectorIPN4pbrt8SDVertexESaIS2_EE12_M_check_lenEmPKc.exit.i.i.i ], [ %call5.i.i.i.i.i.i197, %_ZNSt16allocator_traitsISaIPN4pbrt8SDVertexEEE8allocateERS3_m.exit.i.i.i.i ]
  %add.ptr.i.i.i = getelementptr inbounds ptr, ptr %cond.i10.i.i.i, i64 %sub.ptr.div.i.i.i.i.i
  store ptr %arrayidx.i195, ptr %add.ptr.i.i.i, align 8
  %cmp.i.i.i11.i.i.i = icmp sgt i64 %sub.ptr.div.i.i.i.i.i, 0
  br i1 %cmp.i.i.i11.i.i.i, label %if.then.i.i.i12.i.i.i, label %_ZNSt6vectorIPN4pbrt8SDVertexESaIS2_EE11_S_relocateEPS2_S5_S5_RS3_.exit20.i.i.i

if.then.i.i.i12.i.i.i:                            ; preds = %_ZNSt12_Vector_baseIPN4pbrt8SDVertexESaIS2_EE11_M_allocateEm.exit.i.i.i
  tail call void @llvm.memmove.p0.p0.i64(ptr nonnull align 8 %cond.i10.i.i.i, ptr align 8 %vertices.sroa.0.02625, i64 %sub.ptr.sub.i.i.i.i.i, i1 false)
  br label %_ZNSt6vectorIPN4pbrt8SDVertexESaIS2_EE11_S_relocateEPS2_S5_S5_RS3_.exit20.i.i.i

_ZNSt6vectorIPN4pbrt8SDVertexESaIS2_EE11_S_relocateEPS2_S5_S5_RS3_.exit20.i.i.i: ; preds = %if.then.i.i.i12.i.i.i, %_ZNSt12_Vector_baseIPN4pbrt8SDVertexESaIS2_EE11_M_allocateEm.exit.i.i.i
  %tobool.not.i.i.i.i = icmp eq ptr %vertices.sroa.0.02625, null
  br i1 %tobool.not.i.i.i.i, label %_ZNSt6vectorIPN4pbrt8SDVertexESaIS2_EE17_M_realloc_insertIJS2_EEEvN9__gnu_cxx17__normal_iteratorIPS2_S4_EEDpOT_.exit.i.i, label %if.then.i21.i.i.i

if.then.i21.i.i.i:                                ; preds = %_ZNSt6vectorIPN4pbrt8SDVertexESaIS2_EE11_S_relocateEPS2_S5_S5_RS3_.exit20.i.i.i
  tail call void @_ZdlPv(ptr noundef nonnull %vertices.sroa.0.02625) #19
  br label %_ZNSt6vectorIPN4pbrt8SDVertexESaIS2_EE17_M_realloc_insertIJS2_EEEvN9__gnu_cxx17__normal_iteratorIPS2_S4_EEDpOT_.exit.i.i

_ZNSt6vectorIPN4pbrt8SDVertexESaIS2_EE17_M_realloc_insertIJS2_EEEvN9__gnu_cxx17__normal_iteratorIPS2_S4_EEDpOT_.exit.i.i: ; preds = %if.then.i21.i.i.i, %_ZNSt6vectorIPN4pbrt8SDVertexESaIS2_EE11_S_relocateEPS2_S5_S5_RS3_.exit20.i.i.i
  %add.ptr19.i.i.i = getelementptr inbounds ptr, ptr %cond.i10.i.i.i, i64 %cond.i.i.i.i
  br label %for.inc

for.inc:                                          ; preds = %_ZNSt6vectorIPN4pbrt8SDVertexESaIS2_EE17_M_realloc_insertIJS2_EEEvN9__gnu_cxx17__normal_iteratorIPS2_S4_EEDpOT_.exit.i.i, %if.then.i.i
  %vertices.sroa.15.1 = phi ptr [ %add.ptr19.i.i.i, %_ZNSt6vectorIPN4pbrt8SDVertexESaIS2_EE17_M_realloc_insertIJS2_EEEvN9__gnu_cxx17__normal_iteratorIPS2_S4_EEDpOT_.exit.i.i ], [ %vertices.sroa.15.02623, %if.then.i.i ]
  %add.ptr.i.i.i.pn = phi ptr [ %add.ptr.i.i.i, %_ZNSt6vectorIPN4pbrt8SDVertexESaIS2_EE17_M_realloc_insertIJS2_EEEvN9__gnu_cxx17__normal_iteratorIPS2_S4_EEDpOT_.exit.i.i ], [ %vertices.sroa.9.02624, %if.then.i.i ]
  %vertices.sroa.0.1 = phi ptr [ %cond.i10.i.i.i, %_ZNSt6vectorIPN4pbrt8SDVertexESaIS2_EE17_M_realloc_insertIJS2_EEEvN9__gnu_cxx17__normal_iteratorIPS2_S4_EEDpOT_.exit.i.i ], [ %vertices.sroa.0.02625, %if.then.i.i ]
  %vertices.sroa.9.1 = getelementptr inbounds ptr, ptr %add.ptr.i.i.i.pn, i64 1
  %indvars.iv.next = add nuw i64 %indvars.iv, 1
  %6 = load i64, ptr %n.i, align 8
  %cmp = icmp ugt i64 %6, %indvars.iv.next
  br i1 %cmp, label %for.body, label %for.end, !llvm.loop !8

ehcleanup951.thread2207.loopexit:                 ; preds = %_ZNSt16allocator_traitsISaIPN4pbrt8SDVertexEEE8allocateERS3_m.exit.i.i.i.i
  %lpad.loopexit2253 = landingpad { ptr, i32 }
          cleanup
  br label %ehcleanup951.thread2207

ehcleanup951.thread2207.loopexit.split-lp:        ; preds = %for.end, %if.then.i.i.i.i
  %vertices.sroa.0.02619 = phi ptr [ %vertices.sroa.0.0.lcssa, %for.end ], [ %vertices.sroa.0.02625, %if.then.i.i.i.i ]
  %lpad.loopexit.split-lp2254 = landingpad { ptr, i32 }
          cleanup
  br label %ehcleanup951.thread2207

ehcleanup951.thread2207:                          ; preds = %ehcleanup951.thread2207.loopexit.split-lp, %ehcleanup951.thread2207.loopexit
  %vertices.sroa.0.02618 = phi ptr [ %vertices.sroa.0.02625, %ehcleanup951.thread2207.loopexit ], [ %vertices.sroa.0.02619, %ehcleanup951.thread2207.loopexit.split-lp ]
  %lpad.phi2255 = phi { ptr, i32 } [ %lpad.loopexit2253, %ehcleanup951.thread2207.loopexit ], [ %lpad.loopexit.split-lp2254, %ehcleanup951.thread2207.loopexit.split-lp ]
  tail call void @_ZdaPv(ptr noundef nonnull %call.i193) #19
  br label %_ZNSt6vectorIPN4pbrt6SDFaceESaIS2_EED2Ev.exit1616

for.end:                                          ; preds = %for.inc, %entry, %_ZSt11make_uniqueIA_N4pbrt8SDVertexEENSt8__detail9_MakeUniqIT_E7__arrayEm.exit
  %vertices.sroa.9.0.lcssa = phi ptr [ null, %_ZSt11make_uniqueIA_N4pbrt8SDVertexEENSt8__detail9_MakeUniqIT_E7__arrayEm.exit ], [ null, %entry ], [ %vertices.sroa.9.1, %for.inc ]
  %vertices.sroa.0.0.lcssa = phi ptr [ null, %_ZSt11make_uniqueIA_N4pbrt8SDVertexEENSt8__detail9_MakeUniqIT_E7__arrayEm.exit ], [ null, %entry ], [ %vertices.sroa.0.1, %for.inc ]
  %div = udiv i64 %vertexIndices.coerce1, 3
  %7 = tail call { i64, i1 } @llvm.umul.with.overflow.i64(i64 %div, i64 80)
  %8 = extractvalue { i64, i1 } %7, 1
  %9 = extractvalue { i64, i1 } %7, 0
  %10 = select i1 %8, i64 -1, i64 %9
  %call.i202 = invoke noalias noundef nonnull ptr @_Znam(i64 noundef %10) #17
          to label %call.i.noexc201 unwind label %ehcleanup951.thread2207.loopexit.split-lp

call.i.noexc201:                                  ; preds = %for.end
  %isempty.i199 = icmp ult i64 %vertexIndices.coerce1, 3
  br i1 %isempty.i199, label %for.end54.thread, label %for.body24.preheader

for.body24.preheader:                             ; preds = %call.i.noexc201
  %11 = add i64 %9, -80
  %12 = urem i64 %11, 80
  %13 = sub i64 %9, %12
  tail call void @llvm.memset.p0.i64(ptr nonnull align 8 %call.i202, i8 0, i64 %13, i1 false), !noalias !10
  br label %for.body24

for.cond37.preheader:                             ; preds = %for.inc31
  br i1 %isempty.i199, label %for.end54.thread, label %for.body39

for.body24:                                       ; preds = %for.body24.preheader, %for.inc31
  %indvars.iv2956 = phi i64 [ 0, %for.body24.preheader ], [ %indvars.iv.next2957, %for.inc31 ]
  %faces.sroa.0.02632 = phi ptr [ null, %for.body24.preheader ], [ %faces.sroa.0.1, %for.inc31 ]
  %faces.sroa.9.02631 = phi ptr [ null, %for.body24.preheader ], [ %faces.sroa.9.1, %for.inc31 ]
  %faces.sroa.15.02630 = phi ptr [ null, %for.body24.preheader ], [ %faces.sroa.15.1, %for.inc31 ]
  %arrayidx.i203 = getelementptr inbounds %"struct.pbrt::SDFace", ptr %call.i202, i64 %indvars.iv2956
  %cmp.not.i.i206 = icmp eq ptr %faces.sroa.9.02631, %faces.sroa.15.02630
  br i1 %cmp.not.i.i206, label %if.else.i.i209, label %if.then.i.i207

if.then.i.i207:                                   ; preds = %for.body24
  store ptr %arrayidx.i203, ptr %faces.sroa.9.02631, align 8
  br label %for.inc31

if.else.i.i209:                                   ; preds = %for.body24
  %sub.ptr.lhs.cast.i.i.i.i.i210 = ptrtoint ptr %faces.sroa.9.02631 to i64
  %sub.ptr.rhs.cast.i.i.i.i.i211 = ptrtoint ptr %faces.sroa.0.02632 to i64
  %sub.ptr.sub.i.i.i.i.i212 = sub i64 %sub.ptr.lhs.cast.i.i.i.i.i210, %sub.ptr.rhs.cast.i.i.i.i.i211
  %cmp.i.i.i.i213 = icmp eq i64 %sub.ptr.sub.i.i.i.i.i212, 9223372036854775800
  br i1 %cmp.i.i.i.i213, label %if.then.i.i.i.i231, label %_ZNKSt6vectorIPN4pbrt6SDFaceESaIS2_EE12_M_check_lenEmPKc.exit.i.i.i

if.then.i.i.i.i231:                               ; preds = %if.else.i.i209
  invoke void @_ZSt20__throw_length_errorPKc(ptr noundef nonnull @.str.4) #18
          to label %.noexc232 unwind label %lpad27.loopexit.split-lp

.noexc232:                                        ; preds = %if.then.i.i.i.i231
  unreachable

_ZNKSt6vectorIPN4pbrt6SDFaceESaIS2_EE12_M_check_lenEmPKc.exit.i.i.i: ; preds = %if.else.i.i209
  %sub.ptr.div.i.i.i.i.i214 = ashr exact i64 %sub.ptr.sub.i.i.i.i.i212, 3
  %.sroa.speculated.i.i.i.i215 = tail call i64 @llvm.umax.i64(i64 %sub.ptr.div.i.i.i.i.i214, i64 1)
  %add.i.i.i.i216 = add i64 %.sroa.speculated.i.i.i.i215, %sub.ptr.div.i.i.i.i.i214
  %cmp7.i.i.i.i217 = icmp ult i64 %add.i.i.i.i216, %sub.ptr.div.i.i.i.i.i214
  %cmp9.i.i.i.i218 = icmp ugt i64 %add.i.i.i.i216, 1152921504606846975
  %or.cond.i.i.i.i219 = or i1 %cmp7.i.i.i.i217, %cmp9.i.i.i.i218
  %cond.i.i.i.i220 = select i1 %or.cond.i.i.i.i219, i64 1152921504606846975, i64 %add.i.i.i.i216
  %cmp.not.i.i.i.i221 = icmp eq i64 %cond.i.i.i.i220, 0
  br i1 %cmp.not.i.i.i.i221, label %_ZNSt12_Vector_baseIPN4pbrt6SDFaceESaIS2_EE11_M_allocateEm.exit.i.i.i, label %_ZNSt16allocator_traitsISaIPN4pbrt6SDFaceEEE8allocateERS3_m.exit.i.i.i.i

_ZNSt16allocator_traitsISaIPN4pbrt6SDFaceEEE8allocateERS3_m.exit.i.i.i.i: ; preds = %_ZNKSt6vectorIPN4pbrt6SDFaceESaIS2_EE12_M_check_lenEmPKc.exit.i.i.i
  %mul.i.i.i.i.i.i222 = shl nuw nsw i64 %cond.i.i.i.i220, 3
  %call5.i.i.i.i.i.i234 = invoke noalias noundef nonnull ptr @_Znwm(i64 noundef %mul.i.i.i.i.i.i222) #17
          to label %_ZNSt12_Vector_baseIPN4pbrt6SDFaceESaIS2_EE11_M_allocateEm.exit.i.i.i unwind label %lpad27.loopexit

_ZNSt12_Vector_baseIPN4pbrt6SDFaceESaIS2_EE11_M_allocateEm.exit.i.i.i: ; preds = %_ZNSt16allocator_traitsISaIPN4pbrt6SDFaceEEE8allocateERS3_m.exit.i.i.i.i, %_ZNKSt6vectorIPN4pbrt6SDFaceESaIS2_EE12_M_check_lenEmPKc.exit.i.i.i
  %cond.i10.i.i.i223 = phi ptr [ null, %_ZNKSt6vectorIPN4pbrt6SDFaceESaIS2_EE12_M_check_lenEmPKc.exit.i.i.i ], [ %call5.i.i.i.i.i.i234, %_ZNSt16allocator_traitsISaIPN4pbrt6SDFaceEEE8allocateERS3_m.exit.i.i.i.i ]
  %add.ptr.i.i.i224 = getelementptr inbounds ptr, ptr %cond.i10.i.i.i223, i64 %sub.ptr.div.i.i.i.i.i214
  store ptr %arrayidx.i203, ptr %add.ptr.i.i.i224, align 8
  %cmp.i.i.i11.i.i.i225 = icmp sgt i64 %sub.ptr.div.i.i.i.i.i214, 0
  br i1 %cmp.i.i.i11.i.i.i225, label %if.then.i.i.i12.i.i.i230, label %_ZNSt6vectorIPN4pbrt6SDFaceESaIS2_EE11_S_relocateEPS2_S5_S5_RS3_.exit20.i.i.i

if.then.i.i.i12.i.i.i230:                         ; preds = %_ZNSt12_Vector_baseIPN4pbrt6SDFaceESaIS2_EE11_M_allocateEm.exit.i.i.i
  tail call void @llvm.memmove.p0.p0.i64(ptr nonnull align 8 %cond.i10.i.i.i223, ptr align 8 %faces.sroa.0.02632, i64 %sub.ptr.sub.i.i.i.i.i212, i1 false)
  br label %_ZNSt6vectorIPN4pbrt6SDFaceESaIS2_EE11_S_relocateEPS2_S5_S5_RS3_.exit20.i.i.i

_ZNSt6vectorIPN4pbrt6SDFaceESaIS2_EE11_S_relocateEPS2_S5_S5_RS3_.exit20.i.i.i: ; preds = %if.then.i.i.i12.i.i.i230, %_ZNSt12_Vector_baseIPN4pbrt6SDFaceESaIS2_EE11_M_allocateEm.exit.i.i.i
  %tobool.not.i.i.i.i227 = icmp eq ptr %faces.sroa.0.02632, null
  br i1 %tobool.not.i.i.i.i227, label %_ZNSt6vectorIPN4pbrt6SDFaceESaIS2_EE17_M_realloc_insertIJS2_EEEvN9__gnu_cxx17__normal_iteratorIPS2_S4_EEDpOT_.exit.i.i, label %if.then.i21.i.i.i228

if.then.i21.i.i.i228:                             ; preds = %_ZNSt6vectorIPN4pbrt6SDFaceESaIS2_EE11_S_relocateEPS2_S5_S5_RS3_.exit20.i.i.i
  tail call void @_ZdlPv(ptr noundef nonnull %faces.sroa.0.02632) #19
  br label %_ZNSt6vectorIPN4pbrt6SDFaceESaIS2_EE17_M_realloc_insertIJS2_EEEvN9__gnu_cxx17__normal_iteratorIPS2_S4_EEDpOT_.exit.i.i

_ZNSt6vectorIPN4pbrt6SDFaceESaIS2_EE17_M_realloc_insertIJS2_EEEvN9__gnu_cxx17__normal_iteratorIPS2_S4_EEDpOT_.exit.i.i: ; preds = %if.then.i21.i.i.i228, %_ZNSt6vectorIPN4pbrt6SDFaceESaIS2_EE11_S_relocateEPS2_S5_S5_RS3_.exit20.i.i.i
  %add.ptr19.i.i.i229 = getelementptr inbounds ptr, ptr %cond.i10.i.i.i223, i64 %cond.i.i.i.i220
  br label %for.inc31

for.inc31:                                        ; preds = %_ZNSt6vectorIPN4pbrt6SDFaceESaIS2_EE17_M_realloc_insertIJS2_EEEvN9__gnu_cxx17__normal_iteratorIPS2_S4_EEDpOT_.exit.i.i, %if.then.i.i207
  %faces.sroa.15.1 = phi ptr [ %add.ptr19.i.i.i229, %_ZNSt6vectorIPN4pbrt6SDFaceESaIS2_EE17_M_realloc_insertIJS2_EEEvN9__gnu_cxx17__normal_iteratorIPS2_S4_EEDpOT_.exit.i.i ], [ %faces.sroa.15.02630, %if.then.i.i207 ]
  %add.ptr.i.i.i224.pn = phi ptr [ %add.ptr.i.i.i224, %_ZNSt6vectorIPN4pbrt6SDFaceESaIS2_EE17_M_realloc_insertIJS2_EEEvN9__gnu_cxx17__normal_iteratorIPS2_S4_EEDpOT_.exit.i.i ], [ %faces.sroa.9.02631, %if.then.i.i207 ]
  %faces.sroa.0.1 = phi ptr [ %cond.i10.i.i.i223, %_ZNSt6vectorIPN4pbrt6SDFaceESaIS2_EE17_M_realloc_insertIJS2_EEEvN9__gnu_cxx17__normal_iteratorIPS2_S4_EEDpOT_.exit.i.i ], [ %faces.sroa.0.02632, %if.then.i.i207 ]
  %faces.sroa.9.1 = getelementptr inbounds ptr, ptr %add.ptr.i.i.i224.pn, i64 1
  %indvars.iv.next2957 = add nuw nsw i64 %indvars.iv2956, 1
  %exitcond.not = icmp eq i64 %indvars.iv.next2957, %div
  br i1 %exitcond.not, label %for.cond37.preheader, label %for.body24, !llvm.loop !13

lpad27.loopexit:                                  ; preds = %_ZNSt16allocator_traitsISaIPN4pbrt6SDFaceEEE8allocateERS3_m.exit.i.i.i.i
  %lpad.loopexit2250 = landingpad { ptr, i32 }
          cleanup
  br label %ehcleanup951

lpad27.loopexit.split-lp:                         ; preds = %if.then.i.i.i.i231
  %lpad.loopexit.split-lp2251 = landingpad { ptr, i32 }
          cleanup
  br label %ehcleanup951

for.body39:                                       ; preds = %for.cond37.preheader, %for.inc52
  %vp.02640 = phi ptr [ %add.ptr, %for.inc52 ], [ %vertexIndices.coerce0, %for.cond37.preheader ]
  %i36.02639 = phi i64 [ %inc53, %for.inc52 ], [ 0, %for.cond37.preheader ]
  %add.ptr.i = getelementptr inbounds ptr, ptr %faces.sroa.0.1, i64 %i36.02639
  %14 = load ptr, ptr %add.ptr.i, align 8
  br label %for.body43

for.body43:                                       ; preds = %for.body39, %for.body43
  %indvars.iv2959 = phi i64 [ 0, %for.body39 ], [ %indvars.iv.next2960, %for.body43 ]
  %arrayidx = getelementptr inbounds i32, ptr %vp.02640, i64 %indvars.iv2959
  %15 = load i32, ptr %arrayidx, align 4
  %conv44 = sext i32 %15 to i64
  %add.ptr.i235 = getelementptr inbounds ptr, ptr %vertices.sroa.0.0.lcssa, i64 %conv44
  %16 = load ptr, ptr %add.ptr.i235, align 8
  %arrayidx48 = getelementptr inbounds [3 x ptr], ptr %14, i64 0, i64 %indvars.iv2959
  store ptr %16, ptr %arrayidx48, align 8
  %startFace = getelementptr inbounds %"struct.pbrt::SDVertex", ptr %16, i64 0, i32 2
  store ptr %14, ptr %startFace, align 8
  %indvars.iv.next2960 = add nuw nsw i64 %indvars.iv2959, 1
  %exitcond2962.not = icmp eq i64 %indvars.iv.next2960, 3
  br i1 %exitcond2962.not, label %for.inc52, label %for.body43, !llvm.loop !14

for.inc52:                                        ; preds = %for.body43
  %inc53 = add nuw nsw i64 %i36.02639, 1
  %add.ptr = getelementptr inbounds i32, ptr %vp.02640, i64 3
  %exitcond2963.not = icmp eq i64 %inc53, %div
  br i1 %exitcond2963.not, label %for.end54, label %for.body39, !llvm.loop !15

for.end54.thread:                                 ; preds = %for.cond37.preheader, %call.i.noexc201
  %faces.sroa.0.0.lcssa3036.ph = phi ptr [ %faces.sroa.0.1, %for.cond37.preheader ], [ null, %call.i.noexc201 ]
  %faces.sroa.9.0.lcssa3035.ph = phi ptr [ %faces.sroa.9.1, %for.cond37.preheader ], [ null, %call.i.noexc201 ]
  %17 = getelementptr inbounds i8, ptr %edges, i64 8
  store i32 0, ptr %17, align 8
  %_M_parent.i.i.i.i.i3048 = getelementptr inbounds i8, ptr %edges, i64 16
  store ptr null, ptr %_M_parent.i.i.i.i.i3048, align 8
  %_M_left.i.i.i.i.i3049 = getelementptr inbounds i8, ptr %edges, i64 24
  store ptr %17, ptr %_M_left.i.i.i.i.i3049, align 8
  %_M_right.i.i.i.i.i3050 = getelementptr inbounds i8, ptr %edges, i64 32
  store ptr %17, ptr %_M_right.i.i.i.i.i3050, align 8
  %_M_node_count.i.i.i.i.i3051 = getelementptr inbounds i8, ptr %edges, i64 40
  store i64 0, ptr %_M_node_count.i.i.i.i.i3051, align 8
  br label %for.cond111.preheader

for.end54:                                        ; preds = %for.inc52
  %18 = getelementptr inbounds i8, ptr %edges, i64 8
  store i32 0, ptr %18, align 8
  %_M_parent.i.i.i.i.i = getelementptr inbounds i8, ptr %edges, i64 16
  store ptr null, ptr %_M_parent.i.i.i.i.i, align 8
  %_M_left.i.i.i.i.i = getelementptr inbounds i8, ptr %edges, i64 24
  store ptr %18, ptr %_M_left.i.i.i.i.i, align 8
  %_M_right.i.i.i.i.i = getelementptr inbounds i8, ptr %edges, i64 32
  store ptr %18, ptr %_M_right.i.i.i.i.i, align 8
  %_M_node_count.i.i.i.i.i = getelementptr inbounds i8, ptr %edges, i64 40
  store i64 0, ptr %_M_node_count.i.i.i.i.i, align 8
  br i1 %isempty.i199, label %for.cond111.preheader, label %for.body59

for.cond111.preheader:                            ; preds = %for.inc107, %for.end54.thread, %for.end54
  %_M_parent.i.i.i.i.i3055 = phi ptr [ %_M_parent.i.i.i.i.i3048, %for.end54.thread ], [ %_M_parent.i.i.i.i.i, %for.end54 ], [ %_M_parent.i.i.i.i.i, %for.inc107 ]
  %faces.sroa.9.0.lcssa30353053 = phi ptr [ %faces.sroa.9.0.lcssa3035.ph, %for.end54.thread ], [ %faces.sroa.9.1, %for.end54 ], [ %faces.sroa.9.1, %for.inc107 ]
  %faces.sroa.0.0.lcssa30363052 = phi ptr [ %faces.sroa.0.0.lcssa3036.ph, %for.end54.thread ], [ %faces.sroa.0.1, %for.end54 ], [ %faces.sroa.0.1, %for.inc107 ]
  %19 = load i64, ptr %n.i, align 8
  %cmp1142647.not = icmp eq i64 %19, 0
  br i1 %cmp1142647.not, label %for.end147, label %for.body115

for.body59:                                       ; preds = %for.end54, %for.inc107
  %indvars.iv2968 = phi i64 [ %indvars.iv.next2969, %for.inc107 ], [ 0, %for.end54 ]
  %add.ptr.i236 = getelementptr inbounds ptr, ptr %faces.sroa.0.1, i64 %indvars.iv2968
  %20 = load ptr, ptr %add.ptr.i236, align 8
  br label %invoke.cont73

invoke.cont73:                                    ; preds = %for.body59, %for.inc104
  %indvars.iv2964 = phi i64 [ 0, %for.body59 ], [ %indvars.iv.next2965, %for.inc104 ]
  %indvars.iv.next2965 = add nuw nsw i64 %indvars.iv2964, 1
  %21 = icmp eq i64 %indvars.iv.next2965, 3
  %22 = and i64 %indvars.iv.next2965, 4294967295
  %arrayidx68 = getelementptr inbounds [3 x ptr], ptr %20, i64 0, i64 %indvars.iv2964
  %23 = load ptr, ptr %arrayidx68, align 8
  %idxprom70 = select i1 %21, i64 0, i64 %22
  %arrayidx71 = getelementptr inbounds [3 x ptr], ptr %20, i64 0, i64 %idxprom70
  %24 = load ptr, ptr %arrayidx71, align 8
  %cmp.i.i = icmp ult ptr %24, %23
  %.sroa.speculated6.i = select i1 %cmp.i.i, ptr %24, ptr %23
  %cmp.i1.i = icmp ult ptr %23, %24
  %.sroa.speculated.i = select i1 %cmp.i1.i, ptr %24, ptr %23
  %25 = load ptr, ptr %_M_parent.i.i.i.i.i, align 8
  %cmp.not5.i.i.i = icmp eq ptr %25, null
  br i1 %cmp.not5.i.i.i, label %if.then.i.i1636, label %while.body.i.i.i

while.body.i.i.i:                                 ; preds = %invoke.cont73, %while.body.i.i.i
  %__x.addr.07.i.i.i = phi ptr [ %__x.addr.1.i.i.i, %while.body.i.i.i ], [ %25, %invoke.cont73 ]
  %__y.addr.06.i.i.i = phi ptr [ %__y.addr.1.i.i.i, %while.body.i.i.i ], [ %18, %invoke.cont73 ]
  %_M_storage.i.i.i.i.i = getelementptr inbounds %"struct.std::_Rb_tree_node.67", ptr %__x.addr.07.i.i.i, i64 0, i32 1
  %26 = load ptr, ptr %_M_storage.i.i.i.i.i, align 8
  %cmp.i.i.i.i.i = icmp eq ptr %26, %.sroa.speculated6.i
  %arrayidx5.i.i.i.i.i = getelementptr inbounds %"struct.std::_Rb_tree_node.67", ptr %__x.addr.07.i.i.i, i64 0, i32 1, i32 0, i64 8
  %27 = load ptr, ptr %arrayidx5.i.i.i.i.i, align 8
  %cmp8.i.i.i.i.i = icmp ult ptr %27, %.sroa.speculated.i
  %cmp13.i.i.i.i.i = icmp ult ptr %26, %.sroa.speculated6.i
  %retval.0.i.i.i.i.i = select i1 %cmp.i.i.i.i.i, i1 %cmp8.i.i.i.i.i, i1 %cmp13.i.i.i.i.i
  %_M_right.i.i.i.i = getelementptr inbounds %"struct.std::_Rb_tree_node_base", ptr %__x.addr.07.i.i.i, i64 0, i32 3
  %_M_left.i.i.i.i = getelementptr inbounds %"struct.std::_Rb_tree_node_base", ptr %__x.addr.07.i.i.i, i64 0, i32 2
  %__y.addr.1.i.i.i = select i1 %retval.0.i.i.i.i.i, ptr %__y.addr.06.i.i.i, ptr %__x.addr.07.i.i.i
  %__x.addr.1.in.i.i.i = select i1 %retval.0.i.i.i.i.i, ptr %_M_right.i.i.i.i, ptr %_M_left.i.i.i.i
  %__x.addr.1.i.i.i = load ptr, ptr %__x.addr.1.in.i.i.i, align 8
  %cmp.not.i.i.i = icmp eq ptr %__x.addr.1.i.i.i, null
  br i1 %cmp.not.i.i.i, label %_ZNSt8_Rb_treeIN4pbrt6SDEdgeES1_St9_IdentityIS1_ESt4lessIS1_ESaIS1_EE14_M_lower_boundEPSt13_Rb_tree_nodeIS1_EPSt18_Rb_tree_node_baseRKS1_.exit.i.i, label %while.body.i.i.i, !llvm.loop !16

_ZNSt8_Rb_treeIN4pbrt6SDEdgeES1_St9_IdentityIS1_ESt4lessIS1_ESaIS1_EE14_M_lower_boundEPSt13_Rb_tree_nodeIS1_EPSt18_Rb_tree_node_baseRKS1_.exit.i.i: ; preds = %while.body.i.i.i
  %cmp.i.i.i = icmp eq ptr %__y.addr.1.i.i.i, %18
  br i1 %cmp.i.i.i, label %while.body.i.i1624.preheader, label %invoke.cont75

invoke.cont75:                                    ; preds = %_ZNSt8_Rb_treeIN4pbrt6SDEdgeES1_St9_IdentityIS1_ESt4lessIS1_ESaIS1_EE14_M_lower_boundEPSt13_Rb_tree_nodeIS1_EPSt18_Rb_tree_node_baseRKS1_.exit.i.i
  %arrayidx5.i.i.i.i.i.le = getelementptr inbounds %"struct.std::_Rb_tree_node.67", ptr %__x.addr.07.i.i.i, i64 0, i32 1, i32 0, i64 8
  %_M_storage.i.i.i.i.i.le = getelementptr inbounds %"struct.std::_Rb_tree_node.67", ptr %__x.addr.07.i.i.i, i64 0, i32 1
  %__y.addr.06.i.i.i.sroa.gep = getelementptr inbounds %"struct.std::_Rb_tree_node.67", ptr %__y.addr.06.i.i.i, i64 0, i32 1
  %__y.addr.1.i.i.i.sroa.sel = select i1 %retval.0.i.i.i.i.i, ptr %__y.addr.06.i.i.i.sroa.gep, ptr %_M_storage.i.i.i.i.i.le
  %28 = load ptr, ptr %__y.addr.1.i.i.i.sroa.sel, align 8
  %cmp.i.i.i.i238 = icmp eq ptr %.sroa.speculated6.i, %28
  %__y.addr.06.i.i.i.sroa.gep2156 = getelementptr inbounds %"struct.std::_Rb_tree_node.67", ptr %__y.addr.06.i.i.i, i64 0, i32 1, i32 0, i64 8
  %__y.addr.1.i.i.i.sroa.sel2158 = select i1 %retval.0.i.i.i.i.i, ptr %__y.addr.06.i.i.i.sroa.gep2156, ptr %arrayidx5.i.i.i.i.i.le
  %29 = load ptr, ptr %__y.addr.1.i.i.i.sroa.sel2158, align 8
  %cmp8.i.i.i.i = icmp ult ptr %.sroa.speculated.i, %29
  %cmp13.i.i.i.i = icmp ult ptr %.sroa.speculated6.i, %28
  %retval.0.i.i.i.i = select i1 %cmp.i.i.i.i238, i1 %cmp8.i.i.i.i, i1 %cmp13.i.i.i.i
  br i1 %retval.0.i.i.i.i, label %while.body.i.i1624.preheader, label %while.body.i.i.i246

while.body.i.i1624.preheader:                     ; preds = %_ZNSt8_Rb_treeIN4pbrt6SDEdgeES1_St9_IdentityIS1_ESt4lessIS1_ESaIS1_EE14_M_lower_boundEPSt13_Rb_tree_nodeIS1_EPSt18_Rb_tree_node_baseRKS1_.exit.i.i, %invoke.cont75
  br label %while.body.i.i1624

while.body.i.i1624:                               ; preds = %while.body.i.i1624.preheader, %while.body.i.i1624
  %__x.025.i.i = phi ptr [ %__x.0.i.i, %while.body.i.i1624 ], [ %25, %while.body.i.i1624.preheader ]
  %_M_storage.i.i.i.i = getelementptr inbounds %"struct.std::_Rb_tree_node.67", ptr %__x.025.i.i, i64 0, i32 1
  %30 = load ptr, ptr %_M_storage.i.i.i.i, align 8
  %cmp.i.i.i.i1625 = icmp eq ptr %.sroa.speculated6.i, %30
  %arrayidx7.i.i.i.i1626 = getelementptr inbounds %"struct.std::_Rb_tree_node.67", ptr %__x.025.i.i, i64 0, i32 1, i32 0, i64 8
  %31 = load ptr, ptr %arrayidx7.i.i.i.i1626, align 8
  %cmp8.i.i.i.i1627 = icmp ult ptr %.sroa.speculated.i, %31
  %cmp13.i.i.i.i1628 = icmp ult ptr %.sroa.speculated6.i, %30
  %retval.0.i.i.i.i1629 = select i1 %cmp.i.i.i.i1625, i1 %cmp8.i.i.i.i1627, i1 %cmp13.i.i.i.i1628
  %_M_left.i.i.i = getelementptr inbounds %"struct.std::_Rb_tree_node_base", ptr %__x.025.i.i, i64 0, i32 2
  %_M_right.i.i.i = getelementptr inbounds %"struct.std::_Rb_tree_node_base", ptr %__x.025.i.i, i64 0, i32 3
  %cond.in.i.i = select i1 %retval.0.i.i.i.i1629, ptr %_M_left.i.i.i, ptr %_M_right.i.i.i
  %__x.0.i.i = load ptr, ptr %cond.in.i.i, align 8
  %cmp.not.i.i1630 = icmp eq ptr %__x.0.i.i, null
  br i1 %cmp.not.i.i1630, label %while.end.i.i, label %while.body.i.i1624, !llvm.loop !17

while.end.i.i:                                    ; preds = %while.body.i.i1624
  br i1 %retval.0.i.i.i.i1629, label %if.then.i.i1636, label %if.end12.i.i

if.then.i.i1636:                                  ; preds = %invoke.cont73, %while.end.i.i
  %__y.0.lcssa29.i.i = phi ptr [ %__x.025.i.i, %while.end.i.i ], [ %18, %invoke.cont73 ]
  %32 = load ptr, ptr %_M_left.i.i.i.i.i, align 8
  %cmp.i.i.i1637 = icmp eq ptr %__y.0.lcssa29.i.i, %32
  br i1 %cmp.i.i.i1637, label %if.then.i1633, label %if.else.i.i1638

if.else.i.i1638:                                  ; preds = %if.then.i.i1636
  %call.i.i.i = call noundef ptr @_ZSt18_Rb_tree_decrementPSt18_Rb_tree_node_base(ptr noundef nonnull %__y.0.lcssa29.i.i) #20
  %_M_storage.i.i.i.i.phi.trans.insert.i = getelementptr inbounds %"struct.std::_Rb_tree_node.67", ptr %call.i.i.i, i64 0, i32 1
  %.pre.i1639 = load ptr, ptr %_M_storage.i.i.i.i.phi.trans.insert.i, align 8
  %arrayidx5.i.i5.i.phi.trans.insert.i = getelementptr inbounds %"struct.std::_Rb_tree_node.67", ptr %call.i.i.i, i64 0, i32 1, i32 0, i64 8
  %.pre22.i = load ptr, ptr %arrayidx5.i.i5.i.phi.trans.insert.i, align 8
  br label %if.end12.i.i

if.end12.i.i:                                     ; preds = %if.else.i.i1638, %while.end.i.i
  %33 = phi ptr [ %.pre22.i, %if.else.i.i1638 ], [ %31, %while.end.i.i ]
  %34 = phi ptr [ %.pre.i1639, %if.else.i.i1638 ], [ %30, %while.end.i.i ]
  %__y.0.lcssa30.i.i = phi ptr [ %__y.0.lcssa29.i.i, %if.else.i.i1638 ], [ %__x.025.i.i, %while.end.i.i ]
  %cmp.i.i4.i.i = icmp eq ptr %34, %.sroa.speculated6.i
  %cmp8.i.i7.i.i = icmp ult ptr %33, %.sroa.speculated.i
  %cmp13.i.i8.i.i = icmp ult ptr %34, %.sroa.speculated6.i
  %retval.0.i.i9.i.i = select i1 %cmp.i.i4.i.i, i1 %cmp8.i.i7.i.i, i1 %cmp13.i.i8.i.i
  br i1 %retval.0.i.i9.i.i, label %if.then.i1633, label %for.inc104

if.then.i1633:                                    ; preds = %if.end12.i.i, %if.then.i.i1636
  %retval.sroa.4.0.i.ph.i = phi ptr [ %__y.0.lcssa29.i.i, %if.then.i.i1636 ], [ %__y.0.lcssa30.i.i, %if.end12.i.i ]
  %cmp2.i.i1634 = icmp eq ptr %18, %retval.sroa.4.0.i.ph.i
  br i1 %cmp2.i.i1634, label %_ZNSt8_Rb_treeIN4pbrt6SDEdgeES1_St9_IdentityIS1_ESt4lessIS1_ESaIS1_EE10_M_insert_IRKS1_NS7_11_Alloc_nodeEEESt17_Rb_tree_iteratorIS1_EPSt18_Rb_tree_node_baseSF_OT_RT0_.exit.i, label %lor.rhs.i.i

lor.rhs.i.i:                                      ; preds = %if.then.i1633
  %_M_storage.i.i.i.i6.i = getelementptr inbounds %"struct.std::_Rb_tree_node.67", ptr %retval.sroa.4.0.i.ph.i, i64 0, i32 1
  %35 = load ptr, ptr %_M_storage.i.i.i.i6.i, align 8
  %cmp.i.i.i7.i = icmp eq ptr %.sroa.speculated6.i, %35
  %arrayidx7.i.i.i9.i = getelementptr inbounds %"struct.std::_Rb_tree_node.67", ptr %retval.sroa.4.0.i.ph.i, i64 0, i32 1, i32 0, i64 8
  %36 = load ptr, ptr %arrayidx7.i.i.i9.i, align 8
  %cmp8.i.i.i10.i = icmp ult ptr %.sroa.speculated.i, %36
  %cmp13.i.i.i11.i = icmp ult ptr %.sroa.speculated6.i, %35
  %retval.0.i.i.i12.i = select i1 %cmp.i.i.i7.i, i1 %cmp8.i.i.i10.i, i1 %cmp13.i.i.i11.i
  br label %_ZNSt8_Rb_treeIN4pbrt6SDEdgeES1_St9_IdentityIS1_ESt4lessIS1_ESaIS1_EE10_M_insert_IRKS1_NS7_11_Alloc_nodeEEESt17_Rb_tree_iteratorIS1_EPSt18_Rb_tree_node_baseSF_OT_RT0_.exit.i

_ZNSt8_Rb_treeIN4pbrt6SDEdgeES1_St9_IdentityIS1_ESt4lessIS1_ESaIS1_EE10_M_insert_IRKS1_NS7_11_Alloc_nodeEEESt17_Rb_tree_iteratorIS1_EPSt18_Rb_tree_node_baseSF_OT_RT0_.exit.i: ; preds = %lor.rhs.i.i, %if.then.i1633
  %37 = phi i1 [ true, %if.then.i1633 ], [ %retval.0.i.i.i12.i, %lor.rhs.i.i ]
  %call5.i.i.i.i.i.i.i1641 = invoke noalias noundef nonnull dereferenceable(72) ptr @_Znwm(i64 noundef 72) #17
          to label %call5.i.i.i.i.i.i.i.noexc1640 unwind label %lpad72.loopexit.split-lp.loopexit

call5.i.i.i.i.i.i.i.noexc1640:                    ; preds = %_ZNSt8_Rb_treeIN4pbrt6SDEdgeES1_St9_IdentityIS1_ESt4lessIS1_ESaIS1_EE10_M_insert_IRKS1_NS7_11_Alloc_nodeEEESt17_Rb_tree_iteratorIS1_EPSt18_Rb_tree_node_baseSF_OT_RT0_.exit.i
  %_M_storage.i.i.i.i.i.i1635 = getelementptr inbounds %"struct.std::_Rb_tree_node.67", ptr %call5.i.i.i.i.i.i.i1641, i64 0, i32 1
  store ptr %.sroa.speculated6.i, ptr %_M_storage.i.i.i.i.i.i1635, align 8
  %e.sroa.9.0._M_storage.i.i.i.i.i.i1635.sroa_idx = getelementptr inbounds %"struct.std::_Rb_tree_node.67", ptr %call5.i.i.i.i.i.i.i1641, i64 0, i32 1, i32 0, i64 8
  store ptr %.sroa.speculated.i, ptr %e.sroa.9.0._M_storage.i.i.i.i.i.i1635.sroa_idx, align 8
  %e.sroa.16.0._M_storage.i.i.i.i.i.i1635.sroa_idx = getelementptr inbounds %"struct.std::_Rb_tree_node.67", ptr %call5.i.i.i.i.i.i.i1641, i64 0, i32 1, i32 0, i64 16
  store ptr %20, ptr %e.sroa.16.0._M_storage.i.i.i.i.i.i1635.sroa_idx, align 8
  %e.sroa.20.0._M_storage.i.i.i.i.i.i1635.sroa_idx = getelementptr inbounds %"struct.std::_Rb_tree_node.67", ptr %call5.i.i.i.i.i.i.i1641, i64 0, i32 1, i32 0, i64 24
  store ptr null, ptr %e.sroa.20.0._M_storage.i.i.i.i.i.i1635.sroa_idx, align 8
  %e.sroa.202154.0._M_storage.i.i.i.i.i.i1635.sroa_idx = getelementptr inbounds %"struct.std::_Rb_tree_node.67", ptr %call5.i.i.i.i.i.i.i1641, i64 0, i32 1, i32 0, i64 32
  %38 = trunc i64 %indvars.iv2964 to i32
  store i32 %38, ptr %e.sroa.202154.0._M_storage.i.i.i.i.i.i1635.sroa_idx, align 8
  call void @_ZSt29_Rb_tree_insert_and_rebalancebPSt18_Rb_tree_node_baseS0_RS_(i1 noundef zeroext %37, ptr noundef nonnull %call5.i.i.i.i.i.i.i1641, ptr noundef nonnull %retval.sroa.4.0.i.ph.i, ptr noundef nonnull align 8 dereferenceable(32) %18) #21
  %39 = load i64, ptr %_M_node_count.i.i.i.i.i, align 8
  %inc.i.i = add i64 %39, 1
  br label %for.inc104.sink.split

lpad72.loopexit:                                  ; preds = %land.lhs.true, %land.lhs.true135
  %lpad.loopexit2243 = landingpad { ptr, i32 }
          cleanup
  br label %ehcleanup948

lpad72.loopexit.split-lp.loopexit:                ; preds = %_ZNSt8_Rb_treeIN4pbrt6SDEdgeES1_St9_IdentityIS1_ESt4lessIS1_ESaIS1_EE10_M_insert_IRKS1_NS7_11_Alloc_nodeEEESt17_Rb_tree_iteratorIS1_EPSt18_Rb_tree_node_baseSF_OT_RT0_.exit.i
  %lpad.loopexit2247 = landingpad { ptr, i32 }
          cleanup
  br label %ehcleanup948

lpad72.loopexit.split-lp.loopexit.split-lp:       ; preds = %_ZNSt16allocator_traitsISaIPN4pbrt6SDFaceEEE8allocateERS3_m.exit.i.i.i.i281, %if.then3.i.i.i.i.i.i, %for.end.i.i
  %lpad.loopexit.split-lp2248 = landingpad { ptr, i32 }
          cleanup
  br label %ehcleanup948

while.body.i.i.i246:                              ; preds = %invoke.cont75, %while.body.i.i.i246
  %__x.addr.07.i.i.i247 = phi ptr [ %__x.addr.1.i.i.i259, %while.body.i.i.i246 ], [ %25, %invoke.cont75 ]
  %__y.addr.06.i.i.i248 = phi ptr [ %__y.addr.1.i.i.i257, %while.body.i.i.i246 ], [ %18, %invoke.cont75 ]
  %_M_storage.i.i.i.i.i249 = getelementptr inbounds %"struct.std::_Rb_tree_node.67", ptr %__x.addr.07.i.i.i247, i64 0, i32 1
  %40 = load ptr, ptr %_M_storage.i.i.i.i.i249, align 8
  %cmp.i.i.i.i.i250 = icmp eq ptr %40, %.sroa.speculated6.i
  %arrayidx5.i.i.i.i.i251 = getelementptr inbounds %"struct.std::_Rb_tree_node.67", ptr %__x.addr.07.i.i.i247, i64 0, i32 1, i32 0, i64 8
  %41 = load ptr, ptr %arrayidx5.i.i.i.i.i251, align 8
  %cmp8.i.i.i.i.i252 = icmp ult ptr %41, %.sroa.speculated.i
  %cmp13.i.i.i.i.i253 = icmp ult ptr %40, %.sroa.speculated6.i
  %retval.0.i.i.i.i.i254 = select i1 %cmp.i.i.i.i.i250, i1 %cmp8.i.i.i.i.i252, i1 %cmp13.i.i.i.i.i253
  %_M_right.i.i.i.i255 = getelementptr inbounds %"struct.std::_Rb_tree_node_base", ptr %__x.addr.07.i.i.i247, i64 0, i32 3
  %_M_left.i.i.i.i256 = getelementptr inbounds %"struct.std::_Rb_tree_node_base", ptr %__x.addr.07.i.i.i247, i64 0, i32 2
  %__y.addr.1.i.i.i257 = select i1 %retval.0.i.i.i.i.i254, ptr %__y.addr.06.i.i.i248, ptr %__x.addr.07.i.i.i247
  %__x.addr.1.in.i.i.i258 = select i1 %retval.0.i.i.i.i.i254, ptr %_M_right.i.i.i.i255, ptr %_M_left.i.i.i.i256
  %__x.addr.1.i.i.i259 = load ptr, ptr %__x.addr.1.in.i.i.i258, align 8
  %cmp.not.i.i.i260 = icmp eq ptr %__x.addr.1.i.i.i259, null
  br i1 %cmp.not.i.i.i260, label %_ZNSt8_Rb_treeIN4pbrt6SDEdgeES1_St9_IdentityIS1_ESt4lessIS1_ESaIS1_EE14_M_lower_boundEPSt13_Rb_tree_nodeIS1_EPSt18_Rb_tree_node_baseRKS1_.exit.i.i261, label %while.body.i.i.i246, !llvm.loop !16

_ZNSt8_Rb_treeIN4pbrt6SDEdgeES1_St9_IdentityIS1_ESt4lessIS1_ESaIS1_EE14_M_lower_boundEPSt13_Rb_tree_nodeIS1_EPSt18_Rb_tree_node_baseRKS1_.exit.i.i261: ; preds = %while.body.i.i.i246
  %cmp.i.i.i262 = icmp eq ptr %__y.addr.1.i.i.i257, %18
  br i1 %cmp.i.i.i262, label %invoke.cont87, label %lor.lhs.false.i.i263

lor.lhs.false.i.i263:                             ; preds = %_ZNSt8_Rb_treeIN4pbrt6SDEdgeES1_St9_IdentityIS1_ESt4lessIS1_ESaIS1_EE14_M_lower_boundEPSt13_Rb_tree_nodeIS1_EPSt18_Rb_tree_node_baseRKS1_.exit.i.i261
  %arrayidx5.i.i.i.i.i251.le = getelementptr inbounds %"struct.std::_Rb_tree_node.67", ptr %__x.addr.07.i.i.i247, i64 0, i32 1, i32 0, i64 8
  %_M_storage.i.i.i.i.i249.le = getelementptr inbounds %"struct.std::_Rb_tree_node.67", ptr %__x.addr.07.i.i.i247, i64 0, i32 1
  %__y.addr.06.i.i.i248.sroa.gep = getelementptr inbounds %"struct.std::_Rb_tree_node.67", ptr %__y.addr.06.i.i.i248, i64 0, i32 1
  %__y.addr.1.i.i.i257.sroa.sel = select i1 %retval.0.i.i.i.i.i254, ptr %__y.addr.06.i.i.i248.sroa.gep, ptr %_M_storage.i.i.i.i.i249.le
  %42 = load ptr, ptr %__y.addr.1.i.i.i257.sroa.sel, align 8
  %cmp.i.i.i.i265 = icmp eq ptr %.sroa.speculated6.i, %42
  %__y.addr.06.i.i.i248.sroa.gep2159 = getelementptr inbounds %"struct.std::_Rb_tree_node.67", ptr %__y.addr.06.i.i.i248, i64 0, i32 1, i32 0, i64 8
  %__y.addr.1.i.i.i257.sroa.sel2161 = select i1 %retval.0.i.i.i.i.i254, ptr %__y.addr.06.i.i.i248.sroa.gep2159, ptr %arrayidx5.i.i.i.i.i251.le
  %43 = load ptr, ptr %__y.addr.1.i.i.i257.sroa.sel2161, align 8
  %cmp8.i.i.i.i267 = icmp ult ptr %.sroa.speculated.i, %43
  %cmp13.i.i.i.i268 = icmp ult ptr %.sroa.speculated6.i, %42
  %retval.0.i.i.i.i269 = select i1 %cmp.i.i.i.i265, i1 %cmp8.i.i.i.i267, i1 %cmp13.i.i.i.i268
  %spec.select.i.i270 = select i1 %retval.0.i.i.i.i269, ptr %18, ptr %__y.addr.1.i.i.i257
  br label %invoke.cont87

invoke.cont87:                                    ; preds = %lor.lhs.false.i.i263, %_ZNSt8_Rb_treeIN4pbrt6SDEdgeES1_St9_IdentityIS1_ESt4lessIS1_ESaIS1_EE14_M_lower_boundEPSt13_Rb_tree_nodeIS1_EPSt18_Rb_tree_node_baseRKS1_.exit.i.i261
  %retval.sroa.0.0.i.i271 = phi ptr [ %18, %_ZNSt8_Rb_treeIN4pbrt6SDEdgeES1_St9_IdentityIS1_ESt4lessIS1_ESaIS1_EE14_M_lower_boundEPSt13_Rb_tree_nodeIS1_EPSt18_Rb_tree_node_baseRKS1_.exit.i.i261 ], [ %spec.select.i.i270, %lor.lhs.false.i.i263 ]
  %_M_storage.i.i = getelementptr inbounds %"struct.std::_Rb_tree_node.67", ptr %retval.sroa.0.0.i.i271, i64 0, i32 1
  %e.sroa.0.0.copyload2145 = load ptr, ptr %_M_storage.i.i, align 8
  %e.sroa.9.0._M_storage.i.i.sroa_idx = getelementptr inbounds %"struct.std::_Rb_tree_node.67", ptr %retval.sroa.0.0.i.i271, i64 0, i32 1, i32 0, i64 8
  %e.sroa.9.0.copyload2146 = load ptr, ptr %e.sroa.9.0._M_storage.i.i.sroa_idx, align 8
  %e.sroa.16.0._M_storage.i.i.sroa_idx = getelementptr inbounds %"struct.std::_Rb_tree_node.67", ptr %retval.sroa.0.0.i.i271, i64 0, i32 1, i32 0, i64 16
  %e.sroa.16.0.copyload2151 = load ptr, ptr %e.sroa.16.0._M_storage.i.i.sroa_idx, align 8
  %e.sroa.202154.0._M_storage.i.i.sroa_idx = getelementptr inbounds %"struct.std::_Rb_tree_node.67", ptr %retval.sroa.0.0.i.i271, i64 0, i32 1, i32 0, i64 32
  %e.sroa.202154.0.copyload2155 = load i32, ptr %e.sroa.202154.0._M_storage.i.i.sroa_idx, align 8
  %idxprom95 = sext i32 %e.sroa.202154.0.copyload2155 to i64
  %arrayidx96 = getelementptr inbounds %"struct.pbrt::SDFace", ptr %e.sroa.16.0.copyload2151, i64 0, i32 1, i64 %idxprom95
  store ptr %20, ptr %arrayidx96, align 8
  %arrayidx101 = getelementptr inbounds %"struct.pbrt::SDFace", ptr %20, i64 0, i32 1, i64 %indvars.iv2964
  store ptr %e.sroa.16.0.copyload2151, ptr %arrayidx101, align 8
  %__x.050.i.i = load ptr, ptr %_M_parent.i.i.i.i.i, align 8
  %cmp.not51.i.i = icmp eq ptr %__x.050.i.i, null
  br i1 %cmp.not51.i.i, label %_ZNSt8_Rb_treeIN4pbrt6SDEdgeES1_St9_IdentityIS1_ESt4lessIS1_ESaIS1_EE11equal_rangeERKS1_.exit.i, label %while.body.i.i1646

while.body.i.i1646:                               ; preds = %invoke.cont87, %if.end19.i.i
  %__x.053.i.i = phi ptr [ %__x.0.i.i1677, %if.end19.i.i ], [ %__x.050.i.i, %invoke.cont87 ]
  %__y.052.i.i = phi ptr [ %__y.1.i.i, %if.end19.i.i ], [ %18, %invoke.cont87 ]
  %_M_storage.i.i.i.i1647 = getelementptr inbounds %"struct.std::_Rb_tree_node.67", ptr %__x.053.i.i, i64 0, i32 1
  %44 = load ptr, ptr %_M_storage.i.i.i.i1647, align 8
  %cmp.i.i.i.i1648 = icmp eq ptr %44, %e.sroa.0.0.copyload2145
  %arrayidx5.i.i.i.i1649 = getelementptr inbounds %"struct.std::_Rb_tree_node.67", ptr %__x.053.i.i, i64 0, i32 1, i32 0, i64 8
  %45 = load ptr, ptr %arrayidx5.i.i.i.i1649, align 8
  %cmp8.i.i.i.i1650 = icmp ult ptr %45, %e.sroa.9.0.copyload2146
  %cmp13.i.i.i.i1651 = icmp ult ptr %44, %e.sroa.0.0.copyload2145
  %retval.0.i.i.i.i1652 = select i1 %cmp.i.i.i.i1648, i1 %cmp8.i.i.i.i1650, i1 %cmp13.i.i.i.i1651
  br i1 %retval.0.i.i.i.i1652, label %if.then.i.i1679, label %if.else.i.i1653

if.then.i.i1679:                                  ; preds = %while.body.i.i1646
  %_M_right.i.i.i1680 = getelementptr inbounds %"struct.std::_Rb_tree_node_base", ptr %__x.053.i.i, i64 0, i32 3
  br label %if.end19.i.i

if.else.i.i1653:                                  ; preds = %while.body.i.i1646
  %cmp8.i.i21.i.i = icmp ult ptr %e.sroa.9.0.copyload2146, %45
  %cmp13.i.i22.i.i = icmp ult ptr %e.sroa.0.0.copyload2145, %44
  %retval.0.i.i23.i.i = select i1 %cmp.i.i.i.i1648, i1 %cmp8.i.i21.i.i, i1 %cmp13.i.i22.i.i
  %_M_left.i.i.i1676 = getelementptr inbounds %"struct.std::_Rb_tree_node_base", ptr %__x.053.i.i, i64 0, i32 2
  br i1 %retval.0.i.i23.i.i, label %if.end19.i.i, label %if.else12.i.i

if.else12.i.i:                                    ; preds = %if.else.i.i1653
  %46 = load ptr, ptr %_M_left.i.i.i1676, align 8
  %_M_right.i25.i.i = getelementptr inbounds %"struct.std::_Rb_tree_node_base", ptr %__x.053.i.i, i64 0, i32 3
  %47 = load ptr, ptr %_M_right.i25.i.i, align 8
  %cmp.not5.i.i.i1654 = icmp eq ptr %46, null
  br i1 %cmp.not5.i.i.i1654, label %_ZNSt8_Rb_treeIN4pbrt6SDEdgeES1_St9_IdentityIS1_ESt4lessIS1_ESaIS1_EE14_M_lower_boundEPSt13_Rb_tree_nodeIS1_EPSt18_Rb_tree_node_baseRKS1_.exit.i.i1670, label %while.body.i.i.i1655

while.body.i.i.i1655:                             ; preds = %if.else12.i.i, %while.body.i.i.i1655
  %__x.addr.07.i.i.i1656 = phi ptr [ %__x.addr.1.i.i.i1668, %while.body.i.i.i1655 ], [ %46, %if.else12.i.i ]
  %__y.addr.06.i.i.i1657 = phi ptr [ %__y.addr.1.i.i.i1666, %while.body.i.i.i1655 ], [ %__x.053.i.i, %if.else12.i.i ]
  %_M_storage.i.i.i.i.i1658 = getelementptr inbounds %"struct.std::_Rb_tree_node.67", ptr %__x.addr.07.i.i.i1656, i64 0, i32 1
  %48 = load ptr, ptr %_M_storage.i.i.i.i.i1658, align 8
  %cmp.i.i.i.i.i1659 = icmp eq ptr %48, %e.sroa.0.0.copyload2145
  %arrayidx5.i.i.i.i.i1660 = getelementptr inbounds %"struct.std::_Rb_tree_node.67", ptr %__x.addr.07.i.i.i1656, i64 0, i32 1, i32 0, i64 8
  %49 = load ptr, ptr %arrayidx5.i.i.i.i.i1660, align 8
  %cmp8.i.i.i.i.i1661 = icmp ult ptr %49, %e.sroa.9.0.copyload2146
  %cmp13.i.i.i.i.i1662 = icmp ult ptr %48, %e.sroa.0.0.copyload2145
  %retval.0.i.i.i.i.i1663 = select i1 %cmp.i.i.i.i.i1659, i1 %cmp8.i.i.i.i.i1661, i1 %cmp13.i.i.i.i.i1662
  %_M_right.i.i.i.i1664 = getelementptr inbounds %"struct.std::_Rb_tree_node_base", ptr %__x.addr.07.i.i.i1656, i64 0, i32 3
  %_M_left.i.i.i.i1665 = getelementptr inbounds %"struct.std::_Rb_tree_node_base", ptr %__x.addr.07.i.i.i1656, i64 0, i32 2
  %__y.addr.1.i.i.i1666 = select i1 %retval.0.i.i.i.i.i1663, ptr %__y.addr.06.i.i.i1657, ptr %__x.addr.07.i.i.i1656
  %__x.addr.1.in.i.i.i1667 = select i1 %retval.0.i.i.i.i.i1663, ptr %_M_right.i.i.i.i1664, ptr %_M_left.i.i.i.i1665
  %__x.addr.1.i.i.i1668 = load ptr, ptr %__x.addr.1.in.i.i.i1667, align 8
  %cmp.not.i.i.i1669 = icmp eq ptr %__x.addr.1.i.i.i1668, null
  br i1 %cmp.not.i.i.i1669, label %_ZNSt8_Rb_treeIN4pbrt6SDEdgeES1_St9_IdentityIS1_ESt4lessIS1_ESaIS1_EE14_M_lower_boundEPSt13_Rb_tree_nodeIS1_EPSt18_Rb_tree_node_baseRKS1_.exit.i.i1670, label %while.body.i.i.i1655, !llvm.loop !16

_ZNSt8_Rb_treeIN4pbrt6SDEdgeES1_St9_IdentityIS1_ESt4lessIS1_ESaIS1_EE14_M_lower_boundEPSt13_Rb_tree_nodeIS1_EPSt18_Rb_tree_node_baseRKS1_.exit.i.i1670: ; preds = %while.body.i.i.i1655, %if.else12.i.i
  %__y.addr.0.lcssa.i.i.i = phi ptr [ %__x.053.i.i, %if.else12.i.i ], [ %__y.addr.1.i.i.i1666, %while.body.i.i.i1655 ]
  %cmp.not5.i26.i.i = icmp eq ptr %47, null
  br i1 %cmp.not5.i26.i.i, label %_ZNSt8_Rb_treeIN4pbrt6SDEdgeES1_St9_IdentityIS1_ESt4lessIS1_ESaIS1_EE11equal_rangeERKS1_.exit.i, label %while.body.i29.i.i

while.body.i29.i.i:                               ; preds = %_ZNSt8_Rb_treeIN4pbrt6SDEdgeES1_St9_IdentityIS1_ESt4lessIS1_ESaIS1_EE14_M_lower_boundEPSt13_Rb_tree_nodeIS1_EPSt18_Rb_tree_node_baseRKS1_.exit.i.i1670, %while.body.i29.i.i
  %__x.addr.07.i30.i.i = phi ptr [ %__x.addr.1.i42.i.i, %while.body.i29.i.i ], [ %47, %_ZNSt8_Rb_treeIN4pbrt6SDEdgeES1_St9_IdentityIS1_ESt4lessIS1_ESaIS1_EE14_M_lower_boundEPSt13_Rb_tree_nodeIS1_EPSt18_Rb_tree_node_baseRKS1_.exit.i.i1670 ]
  %__y.addr.06.i31.i.i = phi ptr [ %__y.addr.1.i40.i.i, %while.body.i29.i.i ], [ %__y.052.i.i, %_ZNSt8_Rb_treeIN4pbrt6SDEdgeES1_St9_IdentityIS1_ESt4lessIS1_ESaIS1_EE14_M_lower_boundEPSt13_Rb_tree_nodeIS1_EPSt18_Rb_tree_node_baseRKS1_.exit.i.i1670 ]
  %_M_storage.i.i.i32.i.i = getelementptr inbounds %"struct.std::_Rb_tree_node.67", ptr %__x.addr.07.i30.i.i, i64 0, i32 1
  %50 = load ptr, ptr %_M_storage.i.i.i32.i.i, align 8
  %cmp.i.i.i33.i.i = icmp eq ptr %e.sroa.0.0.copyload2145, %50
  %arrayidx7.i.i.i34.i.i = getelementptr inbounds %"struct.std::_Rb_tree_node.67", ptr %__x.addr.07.i30.i.i, i64 0, i32 1, i32 0, i64 8
  %51 = load ptr, ptr %arrayidx7.i.i.i34.i.i, align 8
  %cmp8.i.i.i35.i.i = icmp ult ptr %e.sroa.9.0.copyload2146, %51
  %cmp13.i.i.i36.i.i = icmp ult ptr %e.sroa.0.0.copyload2145, %50
  %retval.0.i.i.i37.i.i = select i1 %cmp.i.i.i33.i.i, i1 %cmp8.i.i.i35.i.i, i1 %cmp13.i.i.i36.i.i
  %_M_left.i.i38.i.i = getelementptr inbounds %"struct.std::_Rb_tree_node_base", ptr %__x.addr.07.i30.i.i, i64 0, i32 2
  %_M_right.i.i39.i.i = getelementptr inbounds %"struct.std::_Rb_tree_node_base", ptr %__x.addr.07.i30.i.i, i64 0, i32 3
  %__y.addr.1.i40.i.i = select i1 %retval.0.i.i.i37.i.i, ptr %__x.addr.07.i30.i.i, ptr %__y.addr.06.i31.i.i
  %__x.addr.1.in.i41.i.i = select i1 %retval.0.i.i.i37.i.i, ptr %_M_left.i.i38.i.i, ptr %_M_right.i.i39.i.i
  %__x.addr.1.i42.i.i = load ptr, ptr %__x.addr.1.in.i41.i.i, align 8
  %cmp.not.i43.i.i = icmp eq ptr %__x.addr.1.i42.i.i, null
  br i1 %cmp.not.i43.i.i, label %_ZNSt8_Rb_treeIN4pbrt6SDEdgeES1_St9_IdentityIS1_ESt4lessIS1_ESaIS1_EE11equal_rangeERKS1_.exit.i, label %while.body.i29.i.i, !llvm.loop !18

if.end19.i.i:                                     ; preds = %if.else.i.i1653, %if.then.i.i1679
  %__y.1.i.i = phi ptr [ %__y.052.i.i, %if.then.i.i1679 ], [ %__x.053.i.i, %if.else.i.i1653 ]
  %__x.1.in.i.i = phi ptr [ %_M_right.i.i.i1680, %if.then.i.i1679 ], [ %_M_left.i.i.i1676, %if.else.i.i1653 ]
  %__x.0.i.i1677 = load ptr, ptr %__x.1.in.i.i, align 8
  %cmp.not.i.i1678 = icmp eq ptr %__x.0.i.i1677, null
  br i1 %cmp.not.i.i1678, label %_ZNSt8_Rb_treeIN4pbrt6SDEdgeES1_St9_IdentityIS1_ESt4lessIS1_ESaIS1_EE11equal_rangeERKS1_.exit.i, label %while.body.i.i1646, !llvm.loop !19

_ZNSt8_Rb_treeIN4pbrt6SDEdgeES1_St9_IdentityIS1_ESt4lessIS1_ESaIS1_EE11equal_rangeERKS1_.exit.i: ; preds = %if.end19.i.i, %while.body.i29.i.i, %_ZNSt8_Rb_treeIN4pbrt6SDEdgeES1_St9_IdentityIS1_ESt4lessIS1_ESaIS1_EE14_M_lower_boundEPSt13_Rb_tree_nodeIS1_EPSt18_Rb_tree_node_baseRKS1_.exit.i.i1670, %invoke.cont87
  %retval.sroa.0.0.i.i1671 = phi ptr [ %__y.addr.0.lcssa.i.i.i, %_ZNSt8_Rb_treeIN4pbrt6SDEdgeES1_St9_IdentityIS1_ESt4lessIS1_ESaIS1_EE14_M_lower_boundEPSt13_Rb_tree_nodeIS1_EPSt18_Rb_tree_node_baseRKS1_.exit.i.i1670 ], [ %18, %invoke.cont87 ], [ %__y.addr.0.lcssa.i.i.i, %while.body.i29.i.i ], [ %__y.1.i.i, %if.end19.i.i ]
  %retval.sroa.3.0.i.i = phi ptr [ %__y.052.i.i, %_ZNSt8_Rb_treeIN4pbrt6SDEdgeES1_St9_IdentityIS1_ESt4lessIS1_ESaIS1_EE14_M_lower_boundEPSt13_Rb_tree_nodeIS1_EPSt18_Rb_tree_node_baseRKS1_.exit.i.i1670 ], [ %18, %invoke.cont87 ], [ %__y.addr.1.i40.i.i, %while.body.i29.i.i ], [ %__y.1.i.i, %if.end19.i.i ]
  %52 = load ptr, ptr %_M_left.i.i.i.i.i, align 8
  %cmp.i.i.i1673 = icmp eq ptr %52, %retval.sroa.0.0.i.i1671
  %cmp.i1.i.i = icmp eq ptr %18, %retval.sroa.3.0.i.i
  %or.cond.i.i = select i1 %cmp.i.i.i1673, i1 %cmp.i1.i.i, i1 false
  br i1 %or.cond.i.i, label %if.then.i6.i, label %if.else.i3.i

if.then.i6.i:                                     ; preds = %_ZNSt8_Rb_treeIN4pbrt6SDEdgeES1_St9_IdentityIS1_ESt4lessIS1_ESaIS1_EE11equal_rangeERKS1_.exit.i
  invoke void @_ZNSt8_Rb_treeIN4pbrt6SDEdgeES1_St9_IdentityIS1_ESt4lessIS1_ESaIS1_EE8_M_eraseEPSt13_Rb_tree_nodeIS1_E(ptr noundef nonnull align 8 dereferenceable(48) %edges, ptr noundef %__x.050.i.i)
          to label %_ZNSt8_Rb_treeIN4pbrt6SDEdgeES1_St9_IdentityIS1_ESt4lessIS1_ESaIS1_EE5clearEv.exit.i.i unwind label %terminate.lpad.i.i.i

terminate.lpad.i.i.i:                             ; preds = %if.then.i6.i
  %53 = landingpad { ptr, i32 }
          catch ptr null
  %54 = extractvalue { ptr, i32 } %53, 0
  call void @__clang_call_terminate(ptr %54) #22
  unreachable

_ZNSt8_Rb_treeIN4pbrt6SDEdgeES1_St9_IdentityIS1_ESt4lessIS1_ESaIS1_EE5clearEv.exit.i.i: ; preds = %if.then.i6.i
  store ptr null, ptr %_M_parent.i.i.i.i.i, align 8
  store ptr %18, ptr %_M_left.i.i.i.i.i, align 8
  store ptr %18, ptr %_M_right.i.i.i.i.i, align 8
  br label %for.inc104.sink.split

if.else.i3.i:                                     ; preds = %_ZNSt8_Rb_treeIN4pbrt6SDEdgeES1_St9_IdentityIS1_ESt4lessIS1_ESaIS1_EE11equal_rangeERKS1_.exit.i
  %cmp.i3.not8.i.i = icmp eq ptr %retval.sroa.0.0.i.i1671, %retval.sroa.3.0.i.i
  br i1 %cmp.i3.not8.i.i, label %for.inc104, label %while.body.i5.i

while.body.i5.i:                                  ; preds = %if.else.i3.i, %while.body.i5.i
  %__first.sroa.0.09.i.i = phi ptr [ %call.i.i.i1674, %while.body.i5.i ], [ %retval.sroa.0.0.i.i1671, %if.else.i3.i ]
  %call.i.i.i1674 = call noundef ptr @_ZSt18_Rb_tree_incrementPKSt18_Rb_tree_node_base(ptr noundef %__first.sroa.0.09.i.i) #20
  %call.i5.i.i = call noundef nonnull ptr @_ZSt28_Rb_tree_rebalance_for_erasePSt18_Rb_tree_node_baseRS_(ptr noundef %__first.sroa.0.09.i.i, ptr noundef nonnull align 8 dereferenceable(32) %18) #21
  call void @_ZdlPv(ptr noundef nonnull %call.i5.i.i) #19
  %55 = load i64, ptr %_M_node_count.i.i.i.i.i, align 8
  %dec.i.i.i = add i64 %55, -1
  store i64 %dec.i.i.i, ptr %_M_node_count.i.i.i.i.i, align 8
  %cmp.i3.not.i.i = icmp eq ptr %call.i.i.i1674, %retval.sroa.3.0.i.i
  br i1 %cmp.i3.not.i.i, label %for.inc104, label %while.body.i5.i, !llvm.loop !20

for.inc104.sink.split:                            ; preds = %_ZNSt8_Rb_treeIN4pbrt6SDEdgeES1_St9_IdentityIS1_ESt4lessIS1_ESaIS1_EE5clearEv.exit.i.i, %call5.i.i.i.i.i.i.i.noexc1640
  %inc.i.i.sink = phi i64 [ %inc.i.i, %call5.i.i.i.i.i.i.i.noexc1640 ], [ 0, %_ZNSt8_Rb_treeIN4pbrt6SDEdgeES1_St9_IdentityIS1_ESt4lessIS1_ESaIS1_EE5clearEv.exit.i.i ]
  store i64 %inc.i.i.sink, ptr %_M_node_count.i.i.i.i.i, align 8
  br label %for.inc104

for.inc104:                                       ; preds = %while.body.i5.i, %for.inc104.sink.split, %if.end12.i.i, %if.else.i3.i
  %exitcond2967.not = icmp eq i64 %indvars.iv.next2965, 3
  br i1 %exitcond2967.not, label %for.inc107, label %invoke.cont73, !llvm.loop !21

for.inc107:                                       ; preds = %for.inc104
  %indvars.iv.next2969 = add nuw nsw i64 %indvars.iv2968, 1
  %exitcond2971.not = icmp eq i64 %indvars.iv.next2969, %div
  br i1 %exitcond2971.not, label %for.cond111.preheader, label %for.body59, !llvm.loop !22

for.body115:                                      ; preds = %for.cond111.preheader, %for.inc145
  %i110.02648 = phi i64 [ %inc146, %for.inc145 ], [ 0, %for.cond111.preheader ]
  %add.ptr.i276 = getelementptr inbounds ptr, ptr %vertices.sroa.0.0.lcssa, i64 %i110.02648
  %56 = load ptr, ptr %add.ptr.i276, align 8
  %startFace119 = getelementptr inbounds %"struct.pbrt::SDVertex", ptr %56, i64 0, i32 2
  %57 = load ptr, ptr %startFace119, align 8
  br label %do.body

do.body:                                          ; preds = %land.rhs, %for.body115
  %f118.0 = phi ptr [ %57, %for.body115 ], [ %59, %land.rhs ]
  br label %for.body.i.i

for.body.i.i:                                     ; preds = %for.inc.i.i, %do.body
  %indvars.iv.i.i = phi i64 [ 0, %do.body ], [ %indvars.iv.next.i.i, %for.inc.i.i ]
  %arrayidx.i.i = getelementptr inbounds [3 x ptr], ptr %f118.0, i64 0, i64 %indvars.iv.i.i
  %58 = load ptr, ptr %arrayidx.i.i, align 8
  %cmp2.i.i = icmp eq ptr %58, %56
  br i1 %cmp2.i.i, label %invoke.cont120, label %for.inc.i.i

for.inc.i.i:                                      ; preds = %for.body.i.i
  %indvars.iv.next.i.i = add nuw nsw i64 %indvars.iv.i.i, 1
  %exitcond.not.i.i = icmp eq i64 %indvars.iv.next.i.i, 3
  br i1 %exitcond.not.i.i, label %for.end.i.i, label %for.body.i.i, !llvm.loop !23

for.end.i.i:                                      ; preds = %for.inc.i.i
  invoke void @_ZN4pbrt8LogFatalENS_8LogLevelEPKciS2_(i32 noundef 2, ptr noundef nonnull @.str, i32 noundef 58, ptr noundef nonnull @.str.3) #18
          to label %.noexc278 unwind label %lpad72.loopexit.split-lp.loopexit.split-lp

.noexc278:                                        ; preds = %for.end.i.i
  unreachable

invoke.cont120:                                   ; preds = %for.body.i.i
  %sext.i = shl i64 %indvars.iv.i.i, 32
  %idxprom.i = ashr exact i64 %sext.i, 32
  %arrayidx.i277 = getelementptr inbounds %"struct.pbrt::SDFace", ptr %f118.0, i64 0, i32 1, i64 %idxprom.i
  %59 = load ptr, ptr %arrayidx.i277, align 8
  %cmp122.not = icmp eq ptr %59, null
  br i1 %cmp122.not, label %if.else132.thread, label %land.rhs

if.else132.thread:                                ; preds = %invoke.cont120
  %boundary2190 = getelementptr inbounds %"struct.pbrt::SDVertex", ptr %56, i64 0, i32 5
  store i8 1, ptr %boundary2190, align 1
  br label %land.lhs.true135

land.rhs:                                         ; preds = %invoke.cont120
  %cmp124.not = icmp eq ptr %59, %57
  br i1 %cmp124.not, label %land.lhs.true, label %do.body, !llvm.loop !24

land.lhs.true:                                    ; preds = %land.rhs
  %boundary = getelementptr inbounds %"struct.pbrt::SDVertex", ptr %56, i64 0, i32 5
  store i8 0, ptr %boundary, align 1
  %call129 = invoke noundef i32 @_ZN4pbrt8SDVertex7valenceEv(ptr noundef nonnull align 8 dereferenceable(34) %56)
          to label %invoke.cont128 unwind label %lpad72.loopexit

invoke.cont128:                                   ; preds = %land.lhs.true
  %cmp130 = icmp eq i32 %call129, 6
  br i1 %cmp130, label %for.inc145, label %if.else132

if.else132:                                       ; preds = %invoke.cont128
  %.pre = load i8, ptr %boundary, align 1
  %60 = and i8 %.pre, 1
  %tobool134.not = icmp eq i8 %60, 0
  br i1 %tobool134.not, label %if.else141, label %land.lhs.true135

land.lhs.true135:                                 ; preds = %if.else132.thread, %if.else132
  %call137 = invoke noundef i32 @_ZN4pbrt8SDVertex7valenceEv(ptr noundef nonnull align 8 dereferenceable(34) %56)
          to label %invoke.cont136 unwind label %lpad72.loopexit

invoke.cont136:                                   ; preds = %land.lhs.true135
  %cmp138 = icmp eq i32 %call137, 4
  br i1 %cmp138, label %for.inc145, label %if.else141

if.else141:                                       ; preds = %invoke.cont136, %if.else132
  br label %for.inc145

for.inc145:                                       ; preds = %invoke.cont136, %invoke.cont128, %if.else141
  %.sink = phi i8 [ 0, %if.else141 ], [ 1, %invoke.cont128 ], [ 1, %invoke.cont136 ]
  %regular = getelementptr inbounds %"struct.pbrt::SDVertex", ptr %56, i64 0, i32 4
  store i8 %.sink, ptr %regular, align 8
  %inc146 = add nuw i64 %i110.02648, 1
  %exitcond2972.not = icmp eq i64 %inc146, %19
  br i1 %exitcond2972.not, label %for.end147, label %for.body115, !llvm.loop !25

for.end147:                                       ; preds = %for.inc145, %for.cond111.preheader
  %sub.ptr.lhs.cast.i.i = ptrtoint ptr %faces.sroa.9.0.lcssa30353053 to i64
  %sub.ptr.rhs.cast.i.i = ptrtoint ptr %faces.sroa.0.0.lcssa30363052 to i64
  %sub.ptr.sub.i.i = sub i64 %sub.ptr.lhs.cast.i.i, %sub.ptr.rhs.cast.i.i
  %sub.ptr.div.i.i = ashr exact i64 %sub.ptr.sub.i.i, 3
  %cmp.not.i.i.i.i280 = icmp eq ptr %faces.sroa.9.0.lcssa30353053, %faces.sroa.0.0.lcssa30363052
  br i1 %cmp.not.i.i.i.i280, label %invoke.cont149, label %cond.true.i.i.i.i

cond.true.i.i.i.i:                                ; preds = %for.end147
  %cmp.i.i.i.i.i.i = icmp ugt i64 %sub.ptr.div.i.i, 1152921504606846975
  br i1 %cmp.i.i.i.i.i.i, label %if.then3.i.i.i.i.i.i, label %_ZNSt16allocator_traitsISaIPN4pbrt6SDFaceEEE8allocateERS3_m.exit.i.i.i.i281

if.then3.i.i.i.i.i.i:                             ; preds = %cond.true.i.i.i.i
  invoke void @_ZSt28__throw_bad_array_new_lengthv() #18
          to label %.noexc285 unwind label %lpad72.loopexit.split-lp.loopexit.split-lp

.noexc285:                                        ; preds = %if.then3.i.i.i.i.i.i
  unreachable

_ZNSt16allocator_traitsISaIPN4pbrt6SDFaceEEE8allocateERS3_m.exit.i.i.i.i281: ; preds = %cond.true.i.i.i.i
  %call5.i.i.i.i2.i6.i286 = invoke noalias noundef nonnull ptr @_Znwm(i64 noundef %sub.ptr.sub.i.i) #17
          to label %if.then.i.i.i.i.i.i.i.i.i unwind label %lpad72.loopexit.split-lp.loopexit.split-lp

if.then.i.i.i.i.i.i.i.i.i:                        ; preds = %_ZNSt16allocator_traitsISaIPN4pbrt6SDFaceEEE8allocateERS3_m.exit.i.i.i.i281
  call void @llvm.memmove.p0.p0.i64(ptr nonnull align 8 %call5.i.i.i.i2.i6.i286, ptr align 8 %faces.sroa.0.0.lcssa30363052, i64 %sub.ptr.sub.i.i, i1 false)
  br label %invoke.cont149

invoke.cont149:                                   ; preds = %for.end147, %if.then.i.i.i.i.i.i.i.i.i
  %cond.i.i.i.i2832195 = phi ptr [ %call5.i.i.i.i2.i6.i286, %if.then.i.i.i.i.i.i.i.i.i ], [ null, %for.end147 ]
  %add.ptr.i.i.i2842196 = getelementptr inbounds ptr, ptr %cond.i.i.i.i2832195, i64 %sub.ptr.div.i.i
  %sub.ptr.lhs.cast.i.i288 = ptrtoint ptr %vertices.sroa.9.0.lcssa to i64
  %sub.ptr.rhs.cast.i.i289 = ptrtoint ptr %vertices.sroa.0.0.lcssa to i64
  %sub.ptr.sub.i.i290 = sub i64 %sub.ptr.lhs.cast.i.i288, %sub.ptr.rhs.cast.i.i289
  %sub.ptr.div.i.i291 = ashr exact i64 %sub.ptr.sub.i.i290, 3
  %cmp.not.i.i.i.i292 = icmp eq ptr %vertices.sroa.9.0.lcssa, %vertices.sroa.0.0.lcssa
  br i1 %cmp.not.i.i.i.i292, label %invoke.cont154, label %cond.true.i.i.i.i293

cond.true.i.i.i.i293:                             ; preds = %invoke.cont149
  %cmp.i.i.i.i.i.i294 = icmp ugt i64 %sub.ptr.div.i.i291, 1152921504606846975
  br i1 %cmp.i.i.i.i.i.i294, label %if.then3.i.i.i.i.i.i308, label %_ZNSt16allocator_traitsISaIPN4pbrt8SDVertexEEE8allocateERS3_m.exit.i.i.i.i295

if.then3.i.i.i.i.i.i308:                          ; preds = %cond.true.i.i.i.i293
  invoke void @_ZSt28__throw_bad_array_new_lengthv() #18
          to label %.noexc309 unwind label %lpad151

.noexc309:                                        ; preds = %if.then3.i.i.i.i.i.i308
  unreachable

_ZNSt16allocator_traitsISaIPN4pbrt8SDVertexEEE8allocateERS3_m.exit.i.i.i.i295: ; preds = %cond.true.i.i.i.i293
  %call5.i.i.i.i2.i6.i311 = invoke noalias noundef nonnull ptr @_Znwm(i64 noundef %sub.ptr.sub.i.i290) #17
          to label %if.then.i.i.i.i.i.i.i.i.i305 unwind label %lpad151

if.then.i.i.i.i.i.i.i.i.i305:                     ; preds = %_ZNSt16allocator_traitsISaIPN4pbrt8SDVertexEEE8allocateERS3_m.exit.i.i.i.i295
  call void @llvm.memmove.p0.p0.i64(ptr nonnull align 8 %call5.i.i.i.i2.i6.i311, ptr align 8 %vertices.sroa.0.0.lcssa, i64 %sub.ptr.sub.i.i290, i1 false)
  br label %invoke.cont154

invoke.cont154:                                   ; preds = %invoke.cont149, %if.then.i.i.i.i.i.i.i.i.i305
  %cond.i.i.i.i2972199 = phi ptr [ %call5.i.i.i.i2.i6.i311, %if.then.i.i.i.i.i.i.i.i.i305 ], [ null, %invoke.cont149 ]
  %add.ptr.i.i.i2992200 = getelementptr inbounds ptr, ptr %cond.i.i.i.i2972199, i64 %sub.ptr.div.i.i291
  %call.i = call noundef ptr @_ZN4pstd3pmr20get_default_resourceEv() #21
  store ptr getelementptr inbounds ({ [7 x ptr] }, ptr @_ZTVN4pstd3pmr25monotonic_buffer_resourceE, i64 0, inrange i32 0, i64 2), ptr %resource, align 64
  %upstream2.i.i = getelementptr inbounds %"class.pstd::pmr::monotonic_buffer_resource", ptr %resource, i64 0, i32 1
  store ptr %call.i, ptr %upstream2.i.i, align 8
  %block_size.i.i = getelementptr inbounds %"class.pstd::pmr::monotonic_buffer_resource", ptr %resource, i64 0, i32 2
  store i64 262144, ptr %block_size.i.i, align 16
  %current.i.i = getelementptr inbounds %"class.pstd::pmr::monotonic_buffer_resource", ptr %resource, i64 0, i32 3
  call void @llvm.memset.p0.i64(ptr noundef nonnull align 8 dereferenceable(24) %current.i.i, i8 0, i64 24, i1 false)
  %cmp1592692 = icmp sgt i32 %nLevels, 0
  br i1 %cmp1592692, label %for.cond165.preheader.lr.ph, label %for.end582

for.cond165.preheader.lr.ph:                      ; preds = %invoke.cont154
  %ptr.i.i.i479 = getelementptr inbounds %"class.pbrt::InlinedVector", ptr %pRing.i475, i64 0, i32 1
  %nAlloc.i.i.i480 = getelementptr inbounds %"class.pbrt::InlinedVector", ptr %pRing.i475, i64 0, i32 3
  %nStored.i.i.i481 = getelementptr inbounds %"class.pbrt::InlinedVector", ptr %pRing.i475, i64 0, i32 4
  %61 = getelementptr inbounds %"class.pbrt::InlinedVector", ptr %pRing.i475, i64 0, i32 2
  %.sroa.gep.i = getelementptr inbounds %"class.pbrt::InlinedVector", ptr %pRing.i475, i64 0, i32 2, i32 0, i64 0, i32 0, i32 2
  %ptr.i.i.i = getelementptr inbounds %"class.pbrt::InlinedVector", ptr %pRing.i, i64 0, i32 1
  %nAlloc.i.i.i = getelementptr inbounds %"class.pbrt::InlinedVector", ptr %pRing.i, i64 0, i32 3
  %nStored.i.i.i = getelementptr inbounds %"class.pbrt::InlinedVector", ptr %pRing.i, i64 0, i32 4
  %62 = getelementptr inbounds %"class.pbrt::InlinedVector", ptr %pRing.i, i64 0, i32 2
  %ptr.i.i.i390 = getelementptr inbounds %"class.pbrt::InlinedVector", ptr %pRing.i386, i64 0, i32 1
  %nAlloc.i.i.i391 = getelementptr inbounds %"class.pbrt::InlinedVector", ptr %pRing.i386, i64 0, i32 3
  %nStored.i.i.i392 = getelementptr inbounds %"class.pbrt::InlinedVector", ptr %pRing.i386, i64 0, i32 4
  %63 = getelementptr inbounds %"class.pbrt::InlinedVector", ptr %pRing.i386, i64 0, i32 2
  %64 = getelementptr inbounds i8, ptr %edgeVerts, i64 8
  %_M_parent.i.i.i.i.i531 = getelementptr inbounds i8, ptr %edgeVerts, i64 16
  %_M_left.i.i.i.i.i532 = getelementptr inbounds i8, ptr %edgeVerts, i64 24
  %_M_right.i.i.i.i.i533 = getelementptr inbounds i8, ptr %edgeVerts, i64 32
  %_M_node_count.i.i.i.i.i534 = getelementptr inbounds i8, ptr %edgeVerts, i64 40
  br label %for.cond165.preheader

for.cond165.preheader:                            ; preds = %for.cond165.preheader.lr.ph, %_ZNSt6vectorIPN4pbrt6SDFaceESaIS2_EED2Ev.exit
  %i157.02699 = phi i32 [ 0, %for.cond165.preheader.lr.ph ], [ %inc581, %_ZNSt6vectorIPN4pbrt6SDFaceESaIS2_EED2Ev.exit ]
  %f148.sroa.0.02698 = phi ptr [ %cond.i.i.i.i2832195, %for.cond165.preheader.lr.ph ], [ %f148.sroa.0.5, %_ZNSt6vectorIPN4pbrt6SDFaceESaIS2_EED2Ev.exit ]
  %f148.sroa.14.02697 = phi ptr [ %add.ptr.i.i.i2842196, %for.cond165.preheader.lr.ph ], [ %add.ptr72.i, %_ZNSt6vectorIPN4pbrt6SDFaceESaIS2_EED2Ev.exit ]
  %f148.sroa.24.02696 = phi ptr [ %add.ptr.i.i.i2842196, %for.cond165.preheader.lr.ph ], [ %f148.sroa.24.1, %_ZNSt6vectorIPN4pbrt6SDFaceESaIS2_EED2Ev.exit ]
  %v150.sroa.0.02695 = phi ptr [ %cond.i.i.i.i2972199, %for.cond165.preheader.lr.ph ], [ %v150.sroa.0.1, %_ZNSt6vectorIPN4pbrt6SDFaceESaIS2_EED2Ev.exit ]
  %v150.sroa.23.02694 = phi ptr [ %add.ptr.i.i.i2992200, %for.cond165.preheader.lr.ph ], [ %add.ptr72.i852, %_ZNSt6vectorIPN4pbrt6SDFaceESaIS2_EED2Ev.exit ]
  %v150.sroa.37.02693 = phi ptr [ %add.ptr.i.i.i2992200, %for.cond165.preheader.lr.ph ], [ %v150.sroa.37.1, %_ZNSt6vectorIPN4pbrt6SDFaceESaIS2_EED2Ev.exit ]
  %cmp.i312.not2649 = icmp eq ptr %v150.sroa.0.02695, %v150.sroa.23.02694
  br i1 %cmp.i312.not2649, label %for.cond194.preheader, label %for.body167

for.cond194.preheader:                            ; preds = %for.inc184, %for.cond165.preheader
  %newVertices.sroa.19.1.lcssa = phi ptr [ null, %for.cond165.preheader ], [ %newVertices.sroa.19.2, %for.inc184 ]
  %newVertices.sroa.9.1.lcssa = phi ptr [ null, %for.cond165.preheader ], [ %newVertices.sroa.9.2, %for.inc184 ]
  %newVertices.sroa.0.1.lcssa = phi ptr [ null, %for.cond165.preheader ], [ %newVertices.sroa.0.2, %for.inc184 ]
  %cmp.i323.not2661 = icmp eq ptr %f148.sroa.0.02698, %f148.sroa.14.02697
  br i1 %cmp.i323.not2661, label %for.cond222.preheader, label %for.body196

for.body167:                                      ; preds = %for.cond165.preheader, %for.inc184
  %newVertices.sroa.0.12653 = phi ptr [ %newVertices.sroa.0.2, %for.inc184 ], [ null, %for.cond165.preheader ]
  %newVertices.sroa.9.12652 = phi ptr [ %newVertices.sroa.9.2, %for.inc184 ], [ null, %for.cond165.preheader ]
  %newVertices.sroa.19.12651 = phi ptr [ %newVertices.sroa.19.2, %for.inc184 ], [ null, %for.cond165.preheader ]
  %__begin2.sroa.0.02650 = phi ptr [ %incdec.ptr.i321, %for.inc184 ], [ %v150.sroa.0.02695, %for.cond165.preheader ]
  %65 = load ptr, ptr %__begin2.sroa.0.02650, align 8
  %vtable.i.i.i.i = load ptr, ptr %resource, align 64
  %vfn.i.i.i.i = getelementptr inbounds ptr, ptr %vtable.i.i.i.i, i64 2
  %66 = load ptr, ptr %vfn.i.i.i.i, align 8
  %call.i.i.i.i313 = invoke noundef ptr %66(ptr noundef nonnull align 8 dereferenceable(8) %resource, i64 noundef 40, i64 noundef 8)
          to label %invoke.cont170 unwind label %lpad169.loopexit.split-lp.loopexit.split-lp.loopexit

invoke.cont170:                                   ; preds = %for.body167
  store <2 x float> zeroinitializer, ptr %call.i.i.i.i313, align 8
  %ref.tmp.sroa.3.0.p.sroa_idx.i.i = getelementptr inbounds i8, ptr %call.i.i.i.i313, i64 8
  store float 0.000000e+00, ptr %ref.tmp.sroa.3.0.p.sroa_idx.i.i, align 8
  %startFace.i.i.i = getelementptr inbounds %"struct.pbrt::SDVertex", ptr %call.i.i.i.i313, i64 0, i32 2
  call void @llvm.memset.p0.i64(ptr noundef nonnull align 8 dereferenceable(18) %startFace.i.i.i, i8 0, i64 18, i1 false)
  %child = getelementptr inbounds %"struct.pbrt::SDVertex", ptr %65, i64 0, i32 3
  store ptr %call.i.i.i.i313, ptr %child, align 8
  %regular172 = getelementptr inbounds %"struct.pbrt::SDVertex", ptr %65, i64 0, i32 4
  %67 = load i8, ptr %regular172, align 8
  %68 = and i8 %67, 1
  %regular175 = getelementptr inbounds %"struct.pbrt::SDVertex", ptr %call.i.i.i.i313, i64 0, i32 4
  store i8 %68, ptr %regular175, align 8
  %boundary177 = getelementptr inbounds %"struct.pbrt::SDVertex", ptr %65, i64 0, i32 5
  %69 = load i8, ptr %boundary177, align 1
  %70 = and i8 %69, 1
  %71 = load ptr, ptr %child, align 8
  %boundary180 = getelementptr inbounds %"struct.pbrt::SDVertex", ptr %71, i64 0, i32 5
  store i8 %70, ptr %boundary180, align 1
  %cmp.not.i = icmp eq ptr %newVertices.sroa.9.12652, %newVertices.sroa.19.12651
  br i1 %cmp.not.i, label %if.else.i, label %if.then.i

if.then.i:                                        ; preds = %invoke.cont170
  %72 = load ptr, ptr %child, align 8
  store ptr %72, ptr %newVertices.sroa.9.12652, align 8
  br label %for.inc184

if.else.i:                                        ; preds = %invoke.cont170
  %sub.ptr.lhs.cast.i.i.i.i = ptrtoint ptr %newVertices.sroa.9.12652 to i64
  %sub.ptr.rhs.cast.i.i.i.i = ptrtoint ptr %newVertices.sroa.0.12653 to i64
  %sub.ptr.sub.i.i.i.i = sub i64 %sub.ptr.lhs.cast.i.i.i.i, %sub.ptr.rhs.cast.i.i.i.i
  %cmp.i.i.i315 = icmp eq i64 %sub.ptr.sub.i.i.i.i, 9223372036854775800
  br i1 %cmp.i.i.i315, label %if.then.i.i.i, label %_ZNKSt6vectorIPN4pbrt8SDVertexESaIS2_EE12_M_check_lenEmPKc.exit.i.i

if.then.i.i.i:                                    ; preds = %if.else.i
  invoke void @_ZSt20__throw_length_errorPKc(ptr noundef nonnull @.str.4) #18
          to label %.noexc319 unwind label %lpad169.loopexit.split-lp.loopexit.split-lp.loopexit.split-lp

.noexc319:                                        ; preds = %if.then.i.i.i
  unreachable

_ZNKSt6vectorIPN4pbrt8SDVertexESaIS2_EE12_M_check_lenEmPKc.exit.i.i: ; preds = %if.else.i
  %sub.ptr.div.i.i.i.i = ashr exact i64 %sub.ptr.sub.i.i.i.i, 3
  %.sroa.speculated.i.i.i = call i64 @llvm.umax.i64(i64 %sub.ptr.div.i.i.i.i, i64 1)
  %add.i.i.i = add i64 %.sroa.speculated.i.i.i, %sub.ptr.div.i.i.i.i
  %cmp7.i.i.i = icmp ult i64 %add.i.i.i, %sub.ptr.div.i.i.i.i
  %cmp9.i.i.i = icmp ugt i64 %add.i.i.i, 1152921504606846975
  %or.cond.i.i.i = or i1 %cmp7.i.i.i, %cmp9.i.i.i
  %cond.i.i.i = select i1 %or.cond.i.i.i, i64 1152921504606846975, i64 %add.i.i.i
  %cmp.not.i.i.i316 = icmp eq i64 %cond.i.i.i, 0
  br i1 %cmp.not.i.i.i316, label %_ZNSt12_Vector_baseIPN4pbrt8SDVertexESaIS2_EE11_M_allocateEm.exit.i.i, label %_ZNSt16allocator_traitsISaIPN4pbrt8SDVertexEEE8allocateERS3_m.exit.i.i.i

_ZNSt16allocator_traitsISaIPN4pbrt8SDVertexEEE8allocateERS3_m.exit.i.i.i: ; preds = %_ZNKSt6vectorIPN4pbrt8SDVertexESaIS2_EE12_M_check_lenEmPKc.exit.i.i
  %mul.i.i.i.i.i = shl nuw nsw i64 %cond.i.i.i, 3
  %call5.i.i.i.i.i320 = invoke noalias noundef nonnull ptr @_Znwm(i64 noundef %mul.i.i.i.i.i) #17
          to label %_ZNSt12_Vector_baseIPN4pbrt8SDVertexESaIS2_EE11_M_allocateEm.exit.i.i unwind label %lpad169.loopexit.split-lp.loopexit.split-lp.loopexit

_ZNSt12_Vector_baseIPN4pbrt8SDVertexESaIS2_EE11_M_allocateEm.exit.i.i: ; preds = %_ZNSt16allocator_traitsISaIPN4pbrt8SDVertexEEE8allocateERS3_m.exit.i.i.i, %_ZNKSt6vectorIPN4pbrt8SDVertexESaIS2_EE12_M_check_lenEmPKc.exit.i.i
  %cond.i10.i.i = phi ptr [ null, %_ZNKSt6vectorIPN4pbrt8SDVertexESaIS2_EE12_M_check_lenEmPKc.exit.i.i ], [ %call5.i.i.i.i.i320, %_ZNSt16allocator_traitsISaIPN4pbrt8SDVertexEEE8allocateERS3_m.exit.i.i.i ]
  %add.ptr.i.i317 = getelementptr inbounds ptr, ptr %cond.i10.i.i, i64 %sub.ptr.div.i.i.i.i
  %73 = load ptr, ptr %child, align 8
  store ptr %73, ptr %add.ptr.i.i317, align 8
  %cmp.i.i.i11.i.i = icmp sgt i64 %sub.ptr.div.i.i.i.i, 0
  br i1 %cmp.i.i.i11.i.i, label %if.then.i.i.i12.i.i, label %_ZNSt6vectorIPN4pbrt8SDVertexESaIS2_EE11_S_relocateEPS2_S5_S5_RS3_.exit20.i.i

if.then.i.i.i12.i.i:                              ; preds = %_ZNSt12_Vector_baseIPN4pbrt8SDVertexESaIS2_EE11_M_allocateEm.exit.i.i
  call void @llvm.memmove.p0.p0.i64(ptr nonnull align 8 %cond.i10.i.i, ptr align 8 %newVertices.sroa.0.12653, i64 %sub.ptr.sub.i.i.i.i, i1 false)
  br label %_ZNSt6vectorIPN4pbrt8SDVertexESaIS2_EE11_S_relocateEPS2_S5_S5_RS3_.exit20.i.i

_ZNSt6vectorIPN4pbrt8SDVertexESaIS2_EE11_S_relocateEPS2_S5_S5_RS3_.exit20.i.i: ; preds = %if.then.i.i.i12.i.i, %_ZNSt12_Vector_baseIPN4pbrt8SDVertexESaIS2_EE11_M_allocateEm.exit.i.i
  %tobool.not.i.i.i = icmp eq ptr %newVertices.sroa.0.12653, null
  br i1 %tobool.not.i.i.i, label %_ZNSt6vectorIPN4pbrt8SDVertexESaIS2_EE17_M_realloc_insertIJRKS2_EEEvN9__gnu_cxx17__normal_iteratorIPS2_S4_EEDpOT_.exit.i, label %if.then.i21.i.i

if.then.i21.i.i:                                  ; preds = %_ZNSt6vectorIPN4pbrt8SDVertexESaIS2_EE11_S_relocateEPS2_S5_S5_RS3_.exit20.i.i
  call void @_ZdlPv(ptr noundef nonnull %newVertices.sroa.0.12653) #19
  br label %_ZNSt6vectorIPN4pbrt8SDVertexESaIS2_EE17_M_realloc_insertIJRKS2_EEEvN9__gnu_cxx17__normal_iteratorIPS2_S4_EEDpOT_.exit.i

_ZNSt6vectorIPN4pbrt8SDVertexESaIS2_EE17_M_realloc_insertIJRKS2_EEEvN9__gnu_cxx17__normal_iteratorIPS2_S4_EEDpOT_.exit.i: ; preds = %if.then.i21.i.i, %_ZNSt6vectorIPN4pbrt8SDVertexESaIS2_EE11_S_relocateEPS2_S5_S5_RS3_.exit20.i.i
  %add.ptr19.i.i = getelementptr inbounds ptr, ptr %cond.i10.i.i, i64 %cond.i.i.i
  br label %for.inc184

for.inc184:                                       ; preds = %_ZNSt6vectorIPN4pbrt8SDVertexESaIS2_EE17_M_realloc_insertIJRKS2_EEEvN9__gnu_cxx17__normal_iteratorIPS2_S4_EEDpOT_.exit.i, %if.then.i
  %newVertices.sroa.19.2 = phi ptr [ %add.ptr19.i.i, %_ZNSt6vectorIPN4pbrt8SDVertexESaIS2_EE17_M_realloc_insertIJRKS2_EEEvN9__gnu_cxx17__normal_iteratorIPS2_S4_EEDpOT_.exit.i ], [ %newVertices.sroa.19.12651, %if.then.i ]
  %add.ptr.i.i317.pn = phi ptr [ %add.ptr.i.i317, %_ZNSt6vectorIPN4pbrt8SDVertexESaIS2_EE17_M_realloc_insertIJRKS2_EEEvN9__gnu_cxx17__normal_iteratorIPS2_S4_EEDpOT_.exit.i ], [ %newVertices.sroa.9.12652, %if.then.i ]
  %newVertices.sroa.0.2 = phi ptr [ %cond.i10.i.i, %_ZNSt6vectorIPN4pbrt8SDVertexESaIS2_EE17_M_realloc_insertIJRKS2_EEEvN9__gnu_cxx17__normal_iteratorIPS2_S4_EEDpOT_.exit.i ], [ %newVertices.sroa.0.12653, %if.then.i ]
  %newVertices.sroa.9.2 = getelementptr inbounds ptr, ptr %add.ptr.i.i317.pn, i64 1
  %incdec.ptr.i321 = getelementptr inbounds ptr, ptr %__begin2.sroa.0.02650, i64 1
  %cmp.i312.not = icmp eq ptr %incdec.ptr.i321, %v150.sroa.23.02694
  br i1 %cmp.i312.not, label %for.cond194.preheader, label %for.body167

lpad151:                                          ; preds = %_ZNSt16allocator_traitsISaIPN4pbrt8SDVertexEEE8allocateERS3_m.exit.i.i.i.i295, %if.then3.i.i.i.i.i.i308
  %74 = landingpad { ptr, i32 }
          cleanup
  br label %ehcleanup947

lpad169.loopexit:                                 ; preds = %for.body200, %_ZNSt16allocator_traitsISaIPN4pbrt6SDFaceEEE8allocateERS3_m.exit.i.i.i
  %lpad.loopexit2230 = landingpad { ptr, i32 }
          cleanup
  br label %ehcleanup

lpad169.loopexit.split-lp.loopexit:               ; preds = %_ZN4pbrt13InlinedVectorINS_6Point3IfEELi16EN4pstd3pmr21polymorphic_allocatorIS2_EEE7reserveEm.exit.i.i.thread.i521, %_ZN4pbrt13InlinedVectorINS_6Point3IfEELi16EN4pstd3pmr21polymorphic_allocatorIS2_EEE7reserveEm.exit.i.i.thread.i465, %_ZN4pbrt13InlinedVectorINS_6Point3IfEELi16EN4pstd3pmr21polymorphic_allocatorIS2_EEE7reserveEm.exit.i.i.thread.i
  %lpad.loopexit2233 = landingpad { ptr, i32 }
          cleanup
  br label %ehcleanup

lpad169.loopexit.split-lp.loopexit.split-lp.loopexit: ; preds = %for.body167, %_ZNSt16allocator_traitsISaIPN4pbrt8SDVertexEEE8allocateERS3_m.exit.i.i.i
  %lpad.loopexit2236 = landingpad { ptr, i32 }
          cleanup
  br label %ehcleanup

lpad169.loopexit.split-lp.loopexit.split-lp.loopexit.split-lp: ; preds = %for.end.i.i.i.invoke, %if.then.i.i.i, %if.then.i.i.i354
  %newVertices.sroa.0.12266 = phi ptr [ %newVertices.sroa.0.1.lcssa, %if.then.i.i.i354 ], [ %newVertices.sroa.0.12653, %if.then.i.i.i ], [ %newVertices.sroa.0.1.lcssa, %for.end.i.i.i.invoke ]
  %newFaces.sroa.0.1.ph.ph.ph = phi ptr [ %newFaces.sroa.0.62659, %if.then.i.i.i354 ], [ null, %if.then.i.i.i ], [ %newFaces.sroa.0.5.lcssa, %for.end.i.i.i.invoke ]
  %lpad.loopexit.split-lp2237 = landingpad { ptr, i32 }
          cleanup
  br label %ehcleanup

for.cond222.preheader:                            ; preds = %for.inc212, %for.cond194.preheader
  %newFaces.sroa.7.1.lcssa = phi ptr [ null, %for.cond194.preheader ], [ %newFaces.sroa.7.3, %for.inc212 ]
  %newFaces.sroa.0.5.lcssa = phi ptr [ null, %for.cond194.preheader ], [ %newFaces.sroa.0.7, %for.inc212 ]
  br i1 %cmp.i312.not2649, label %for.end263, label %for.body224

for.body196:                                      ; preds = %for.cond194.preheader, %for.inc212
  %newFaces.sroa.0.52665 = phi ptr [ %newFaces.sroa.0.7, %for.inc212 ], [ null, %for.cond194.preheader ]
  %newFaces.sroa.7.12664 = phi ptr [ %newFaces.sroa.7.3, %for.inc212 ], [ null, %for.cond194.preheader ]
  %newFaces.sroa.13.12663 = phi ptr [ %newFaces.sroa.13.3, %for.inc212 ], [ null, %for.cond194.preheader ]
  %__begin2188.sroa.0.02662 = phi ptr [ %incdec.ptr.i358, %for.inc212 ], [ %f148.sroa.0.02698, %for.cond194.preheader ]
  %75 = load ptr, ptr %__begin2188.sroa.0.02662, align 8
  br label %for.body200

for.body200:                                      ; preds = %for.body196, %for.inc209
  %indvars.iv2973 = phi i64 [ 0, %for.body196 ], [ %indvars.iv.next2974, %for.inc209 ]
  %newFaces.sroa.0.62659 = phi ptr [ %newFaces.sroa.0.52665, %for.body196 ], [ %newFaces.sroa.0.7, %for.inc209 ]
  %newFaces.sroa.7.22658 = phi ptr [ %newFaces.sroa.7.12664, %for.body196 ], [ %newFaces.sroa.7.3, %for.inc209 ]
  %newFaces.sroa.13.22657 = phi ptr [ %newFaces.sroa.13.12663, %for.body196 ], [ %newFaces.sroa.13.3, %for.inc209 ]
  %vtable.i.i.i.i324 = load ptr, ptr %resource, align 64
  %vfn.i.i.i.i325 = getelementptr inbounds ptr, ptr %vtable.i.i.i.i324, i64 2
  %76 = load ptr, ptr %vfn.i.i.i.i325, align 8
  %call.i.i.i.i326 = invoke noundef ptr %76(ptr noundef nonnull align 8 dereferenceable(8) %resource, i64 noundef 80, i64 noundef 8)
          to label %invoke.cont201 unwind label %lpad169.loopexit

invoke.cont201:                                   ; preds = %for.body200
  call void @llvm.memset.p0.i64(ptr noundef nonnull align 8 dereferenceable(80) %call.i.i.i.i326, i8 0, i64 80, i1 false)
  %arrayidx204 = getelementptr inbounds %"struct.pbrt::SDFace", ptr %75, i64 0, i32 2, i64 %indvars.iv2973
  store ptr %call.i.i.i.i326, ptr %arrayidx204, align 8
  %cmp.not.i329 = icmp eq ptr %newFaces.sroa.7.22658, %newFaces.sroa.13.22657
  br i1 %cmp.not.i329, label %if.else.i332, label %if.then.i330

if.then.i330:                                     ; preds = %invoke.cont201
  store ptr %call.i.i.i.i326, ptr %newFaces.sroa.7.22658, align 8
  br label %for.inc209

if.else.i332:                                     ; preds = %invoke.cont201
  %sub.ptr.lhs.cast.i.i.i.i333 = ptrtoint ptr %newFaces.sroa.7.22658 to i64
  %sub.ptr.rhs.cast.i.i.i.i334 = ptrtoint ptr %newFaces.sroa.0.62659 to i64
  %sub.ptr.sub.i.i.i.i335 = sub i64 %sub.ptr.lhs.cast.i.i.i.i333, %sub.ptr.rhs.cast.i.i.i.i334
  %cmp.i.i.i336 = icmp eq i64 %sub.ptr.sub.i.i.i.i335, 9223372036854775800
  br i1 %cmp.i.i.i336, label %if.then.i.i.i354, label %_ZNKSt6vectorIPN4pbrt6SDFaceESaIS2_EE12_M_check_lenEmPKc.exit.i.i

if.then.i.i.i354:                                 ; preds = %if.else.i332
  invoke void @_ZSt20__throw_length_errorPKc(ptr noundef nonnull @.str.4) #18
          to label %.noexc355 unwind label %lpad169.loopexit.split-lp.loopexit.split-lp.loopexit.split-lp

.noexc355:                                        ; preds = %if.then.i.i.i354
  unreachable

_ZNKSt6vectorIPN4pbrt6SDFaceESaIS2_EE12_M_check_lenEmPKc.exit.i.i: ; preds = %if.else.i332
  %sub.ptr.div.i.i.i.i337 = ashr exact i64 %sub.ptr.sub.i.i.i.i335, 3
  %.sroa.speculated.i.i.i338 = call i64 @llvm.umax.i64(i64 %sub.ptr.div.i.i.i.i337, i64 1)
  %add.i.i.i339 = add i64 %.sroa.speculated.i.i.i338, %sub.ptr.div.i.i.i.i337
  %cmp7.i.i.i340 = icmp ult i64 %add.i.i.i339, %sub.ptr.div.i.i.i.i337
  %cmp9.i.i.i341 = icmp ugt i64 %add.i.i.i339, 1152921504606846975
  %or.cond.i.i.i342 = or i1 %cmp7.i.i.i340, %cmp9.i.i.i341
  %cond.i.i.i343 = select i1 %or.cond.i.i.i342, i64 1152921504606846975, i64 %add.i.i.i339
  %cmp.not.i.i.i344 = icmp eq i64 %cond.i.i.i343, 0
  br i1 %cmp.not.i.i.i344, label %_ZNSt12_Vector_baseIPN4pbrt6SDFaceESaIS2_EE11_M_allocateEm.exit.i.i, label %_ZNSt16allocator_traitsISaIPN4pbrt6SDFaceEEE8allocateERS3_m.exit.i.i.i

_ZNSt16allocator_traitsISaIPN4pbrt6SDFaceEEE8allocateERS3_m.exit.i.i.i: ; preds = %_ZNKSt6vectorIPN4pbrt6SDFaceESaIS2_EE12_M_check_lenEmPKc.exit.i.i
  %mul.i.i.i.i.i345 = shl nuw nsw i64 %cond.i.i.i343, 3
  %call5.i.i.i.i.i357 = invoke noalias noundef nonnull ptr @_Znwm(i64 noundef %mul.i.i.i.i.i345) #17
          to label %_ZNSt16allocator_traitsISaIPN4pbrt6SDFaceEEE8allocateERS3_m.exit.i.i.i._ZNSt12_Vector_baseIPN4pbrt6SDFaceESaIS2_EE11_M_allocateEm.exit.i.i_crit_edge unwind label %lpad169.loopexit

_ZNSt16allocator_traitsISaIPN4pbrt6SDFaceEEE8allocateERS3_m.exit.i.i.i._ZNSt12_Vector_baseIPN4pbrt6SDFaceESaIS2_EE11_M_allocateEm.exit.i.i_crit_edge: ; preds = %_ZNSt16allocator_traitsISaIPN4pbrt6SDFaceEEE8allocateERS3_m.exit.i.i.i
  %.pre3023 = load ptr, ptr %arrayidx204, align 8
  br label %_ZNSt12_Vector_baseIPN4pbrt6SDFaceESaIS2_EE11_M_allocateEm.exit.i.i

_ZNSt12_Vector_baseIPN4pbrt6SDFaceESaIS2_EE11_M_allocateEm.exit.i.i: ; preds = %_ZNSt16allocator_traitsISaIPN4pbrt6SDFaceEEE8allocateERS3_m.exit.i.i.i._ZNSt12_Vector_baseIPN4pbrt6SDFaceESaIS2_EE11_M_allocateEm.exit.i.i_crit_edge, %_ZNKSt6vectorIPN4pbrt6SDFaceESaIS2_EE12_M_check_lenEmPKc.exit.i.i
  %77 = phi ptr [ %call.i.i.i.i326, %_ZNKSt6vectorIPN4pbrt6SDFaceESaIS2_EE12_M_check_lenEmPKc.exit.i.i ], [ %.pre3023, %_ZNSt16allocator_traitsISaIPN4pbrt6SDFaceEEE8allocateERS3_m.exit.i.i.i._ZNSt12_Vector_baseIPN4pbrt6SDFaceESaIS2_EE11_M_allocateEm.exit.i.i_crit_edge ]
  %cond.i10.i.i346 = phi ptr [ null, %_ZNKSt6vectorIPN4pbrt6SDFaceESaIS2_EE12_M_check_lenEmPKc.exit.i.i ], [ %call5.i.i.i.i.i357, %_ZNSt16allocator_traitsISaIPN4pbrt6SDFaceEEE8allocateERS3_m.exit.i.i.i._ZNSt12_Vector_baseIPN4pbrt6SDFaceESaIS2_EE11_M_allocateEm.exit.i.i_crit_edge ]
  %add.ptr.i.i347 = getelementptr inbounds ptr, ptr %cond.i10.i.i346, i64 %sub.ptr.div.i.i.i.i337
  store ptr %77, ptr %add.ptr.i.i347, align 8
  %cmp.i.i.i11.i.i348 = icmp sgt i64 %sub.ptr.div.i.i.i.i337, 0
  br i1 %cmp.i.i.i11.i.i348, label %if.then.i.i.i12.i.i353, label %_ZNSt6vectorIPN4pbrt6SDFaceESaIS2_EE11_S_relocateEPS2_S5_S5_RS3_.exit20.i.i

if.then.i.i.i12.i.i353:                           ; preds = %_ZNSt12_Vector_baseIPN4pbrt6SDFaceESaIS2_EE11_M_allocateEm.exit.i.i
  call void @llvm.memmove.p0.p0.i64(ptr nonnull align 8 %cond.i10.i.i346, ptr align 8 %newFaces.sroa.0.62659, i64 %sub.ptr.sub.i.i.i.i335, i1 false)
  br label %_ZNSt6vectorIPN4pbrt6SDFaceESaIS2_EE11_S_relocateEPS2_S5_S5_RS3_.exit20.i.i

_ZNSt6vectorIPN4pbrt6SDFaceESaIS2_EE11_S_relocateEPS2_S5_S5_RS3_.exit20.i.i: ; preds = %if.then.i.i.i12.i.i353, %_ZNSt12_Vector_baseIPN4pbrt6SDFaceESaIS2_EE11_M_allocateEm.exit.i.i
  %tobool.not.i.i.i350 = icmp eq ptr %newFaces.sroa.0.62659, null
  br i1 %tobool.not.i.i.i350, label %_ZNSt6vectorIPN4pbrt6SDFaceESaIS2_EE17_M_realloc_insertIJRKS2_EEEvN9__gnu_cxx17__normal_iteratorIPS2_S4_EEDpOT_.exit.i, label %if.then.i21.i.i351

if.then.i21.i.i351:                               ; preds = %_ZNSt6vectorIPN4pbrt6SDFaceESaIS2_EE11_S_relocateEPS2_S5_S5_RS3_.exit20.i.i
  call void @_ZdlPv(ptr noundef nonnull %newFaces.sroa.0.62659) #19
  br label %_ZNSt6vectorIPN4pbrt6SDFaceESaIS2_EE17_M_realloc_insertIJRKS2_EEEvN9__gnu_cxx17__normal_iteratorIPS2_S4_EEDpOT_.exit.i

_ZNSt6vectorIPN4pbrt6SDFaceESaIS2_EE17_M_realloc_insertIJRKS2_EEEvN9__gnu_cxx17__normal_iteratorIPS2_S4_EEDpOT_.exit.i: ; preds = %if.then.i21.i.i351, %_ZNSt6vectorIPN4pbrt6SDFaceESaIS2_EE11_S_relocateEPS2_S5_S5_RS3_.exit20.i.i
  %add.ptr19.i.i352 = getelementptr inbounds ptr, ptr %cond.i10.i.i346, i64 %cond.i.i.i343
  br label %for.inc209

for.inc209:                                       ; preds = %_ZNSt6vectorIPN4pbrt6SDFaceESaIS2_EE17_M_realloc_insertIJRKS2_EEEvN9__gnu_cxx17__normal_iteratorIPS2_S4_EEDpOT_.exit.i, %if.then.i330
  %newFaces.sroa.13.3 = phi ptr [ %add.ptr19.i.i352, %_ZNSt6vectorIPN4pbrt6SDFaceESaIS2_EE17_M_realloc_insertIJRKS2_EEEvN9__gnu_cxx17__normal_iteratorIPS2_S4_EEDpOT_.exit.i ], [ %newFaces.sroa.13.22657, %if.then.i330 ]
  %add.ptr.i.i347.pn = phi ptr [ %add.ptr.i.i347, %_ZNSt6vectorIPN4pbrt6SDFaceESaIS2_EE17_M_realloc_insertIJRKS2_EEEvN9__gnu_cxx17__normal_iteratorIPS2_S4_EEDpOT_.exit.i ], [ %newFaces.sroa.7.22658, %if.then.i330 ]
  %newFaces.sroa.0.7 = phi ptr [ %cond.i10.i.i346, %_ZNSt6vectorIPN4pbrt6SDFaceESaIS2_EE17_M_realloc_insertIJRKS2_EEEvN9__gnu_cxx17__normal_iteratorIPS2_S4_EEDpOT_.exit.i ], [ %newFaces.sroa.0.62659, %if.then.i330 ]
  %newFaces.sroa.7.3 = getelementptr inbounds ptr, ptr %add.ptr.i.i347.pn, i64 1
  %indvars.iv.next2974 = add nuw nsw i64 %indvars.iv2973, 1
  %exitcond2976.not = icmp eq i64 %indvars.iv.next2974, 4
  br i1 %exitcond2976.not, label %for.inc212, label %for.body200, !llvm.loop !26

for.inc212:                                       ; preds = %for.inc209
  %incdec.ptr.i358 = getelementptr inbounds ptr, ptr %__begin2188.sroa.0.02662, i64 1
  %cmp.i323.not = icmp eq ptr %incdec.ptr.i358, %f148.sroa.14.02697
  br i1 %cmp.i323.not, label %for.cond222.preheader, label %for.body196

for.body224:                                      ; preds = %for.cond222.preheader, %for.inc261
  %__begin2216.sroa.0.02669 = phi ptr [ %incdec.ptr.i530, %for.inc261 ], [ %v150.sroa.0.02695, %for.cond222.preheader ]
  %78 = load ptr, ptr %__begin2216.sroa.0.02669, align 8
  %boundary227 = getelementptr inbounds %"struct.pbrt::SDVertex", ptr %78, i64 0, i32 5
  %79 = load i8, ptr %boundary227, align 1
  %80 = and i8 %79, 1
  %tobool228.not = icmp eq i8 %80, 0
  br i1 %tobool228.not, label %if.then229, label %while.cond4.i1814.preheader

if.then229:                                       ; preds = %for.body224
  %regular230 = getelementptr inbounds %"struct.pbrt::SDVertex", ptr %78, i64 0, i32 4
  %81 = load i8, ptr %regular230, align 8
  %82 = and i8 %81, 1
  %tobool231.not = icmp eq i8 %82, 0
  br i1 %tobool231.not, label %if.else239, label %while.cond.i1724.preheader

while.cond.i1724.preheader:                       ; preds = %if.then229
  call void @llvm.lifetime.start.p0(i64 224, ptr nonnull %pRing.i)
  %startFace.i1681 = getelementptr inbounds %"struct.pbrt::SDVertex", ptr %78, i64 0, i32 2
  %83 = load ptr, ptr %startFace.i1681, align 8
  br label %while.cond.i1724

while.cond.i1724:                                 ; preds = %while.cond.i1724.preheader, %while.body.i1740
  %f.0.i1725 = phi ptr [ %85, %while.body.i1740 ], [ %83, %while.cond.i1724.preheader ]
  %nf.0.i1726 = phi i32 [ %inc.i1741, %while.body.i1740 ], [ 1, %while.cond.i1724.preheader ]
  br label %for.body.i.i.i1727

for.body.i.i.i1727:                               ; preds = %for.inc.i.i.i1731, %while.cond.i1724
  %indvars.iv.i.i.i1728 = phi i64 [ 0, %while.cond.i1724 ], [ %indvars.iv.next.i.i.i1732, %for.inc.i.i.i1731 ]
  %arrayidx.i.i.i1729 = getelementptr inbounds [3 x ptr], ptr %f.0.i1725, i64 0, i64 %indvars.iv.i.i.i1728
  %84 = load ptr, ptr %arrayidx.i.i.i1729, align 8
  %cmp2.i.i.i1730 = icmp eq ptr %84, %78
  br i1 %cmp2.i.i.i1730, label %_ZN4pbrt6SDFace8nextFaceEPNS_8SDVertexE.exit.i1735, label %for.inc.i.i.i1731

for.inc.i.i.i1731:                                ; preds = %for.body.i.i.i1727
  %indvars.iv.next.i.i.i1732 = add nuw nsw i64 %indvars.iv.i.i.i1728, 1
  %exitcond.not.i.i.i1733 = icmp eq i64 %indvars.iv.next.i.i.i1732, 3
  br i1 %exitcond.not.i.i.i1733, label %for.end.i.i.i.invoke, label %for.body.i.i.i1727, !llvm.loop !23

_ZN4pbrt6SDFace8nextFaceEPNS_8SDVertexE.exit.i1735: ; preds = %for.body.i.i.i1727
  %sext.i.i1736 = shl i64 %indvars.iv.i.i.i1728, 32
  %idxprom.i.i1737 = ashr exact i64 %sext.i.i1736, 32
  %arrayidx.i.i1738 = getelementptr inbounds %"struct.pbrt::SDFace", ptr %f.0.i1725, i64 0, i32 1, i64 %idxprom.i.i1737
  %85 = load ptr, ptr %arrayidx.i.i1738, align 8
  %cmp.not.i1739 = icmp eq ptr %85, %83
  br i1 %cmp.not.i1739, label %call.i361.noexc, label %while.body.i1740

while.body.i1740:                                 ; preds = %_ZN4pbrt6SDFace8nextFaceEPNS_8SDVertexE.exit.i1735
  %inc.i1741 = add nuw nsw i32 %nf.0.i1726, 1
  br label %while.cond.i1724, !llvm.loop !27

call.i361.noexc:                                  ; preds = %_ZN4pbrt6SDFace8nextFaceEPNS_8SDVertexE.exit.i1735
  %conv.i = zext nneg i32 %nf.0.i1726 to i64
  %call.i.i = call noundef ptr @_ZN4pstd3pmr19new_delete_resourceEv() #21
  store ptr %call.i.i, ptr %pRing.i, align 8
  store ptr null, ptr %ptr.i.i.i, align 8
  %cmp.not.i.i.i.i362 = icmp ugt i32 %nf.0.i1726, 16
  store i64 0, ptr %nAlloc.i.i.i, align 8
  br i1 %cmp.not.i.i.i.i362, label %_ZN4pbrt13InlinedVectorINS_6Point3IfEELi16EN4pstd3pmr21polymorphic_allocatorIS2_EEE7reserveEm.exit.i.i.thread.i, label %for.body.i.i.i.preheader

_ZN4pbrt13InlinedVectorINS_6Point3IfEELi16EN4pstd3pmr21polymorphic_allocatorIS2_EEE7reserveEm.exit.i.i.thread.i: ; preds = %call.i361.noexc
  %mul.i.i.i.i.i370 = mul nuw nsw i64 %conv.i, 12
  %vtable.i.i.i.i.i.i.i = load ptr, ptr %call.i.i, align 8
  %vfn.i.i.i.i.i.i.i = getelementptr inbounds ptr, ptr %vtable.i.i.i.i.i.i.i, i64 2
  %86 = load ptr, ptr %vfn.i.i.i.i.i.i.i, align 8
  %call.i.i.i.i.i.i.i372 = invoke noundef ptr %86(ptr noundef nonnull align 8 dereferenceable(8) %call.i.i, i64 noundef %mul.i.i.i.i.i370, i64 noundef 4)
          to label %call.i.i.i.i.i.i.i.noexc unwind label %lpad169.loopexit.split-lp.loopexit

call.i.i.i.i.i.i.i.noexc:                         ; preds = %_ZN4pbrt13InlinedVectorINS_6Point3IfEELi16EN4pstd3pmr21polymorphic_allocatorIS2_EEE7reserveEm.exit.i.i.thread.i
  store i64 %conv.i, ptr %nAlloc.i.i.i, align 8
  store ptr %call.i.i.i.i.i.i.i372, ptr %ptr.i.i.i, align 8
  br label %for.body.i.i.i.preheader

for.body.i.i.i.preheader:                         ; preds = %call.i361.noexc, %call.i.i.i.i.i.i.i.noexc
  br label %for.body.i.i.i

for.body.i.i.i:                                   ; preds = %for.body.i.i.i.preheader, %for.body.i.i.i
  %i.09.i.i.i = phi i64 [ %inc.i.i.i, %for.body.i.i.i ], [ 0, %for.body.i.i.i.preheader ]
  %87 = load ptr, ptr %ptr.i.i.i, align 8
  %tobool.not.i.i.i.i363 = icmp eq ptr %87, null
  %cond.i.i.i.i364 = select i1 %tobool.not.i.i.i.i363, ptr %62, ptr %87
  %add.ptr.i.i.i365 = getelementptr inbounds %"class.pbrt::Point3", ptr %cond.i.i.i.i364, i64 %i.09.i.i.i
  store <2 x float> zeroinitializer, ptr %add.ptr.i.i.i365, align 4
  %ref.tmp.sroa.4.0.add.ptr.i.sroa_idx.i.i = getelementptr inbounds i8, ptr %add.ptr.i.i.i365, i64 8
  store float 0.000000e+00, ptr %ref.tmp.sroa.4.0.add.ptr.i.sroa_idx.i.i, align 4
  %inc.i.i.i = add nuw i64 %i.09.i.i.i, 1
  %exitcond.not.i.i.i = icmp eq i64 %inc.i.i.i, %conv.i
  br i1 %exitcond.not.i.i.i, label %_ZN4pbrt13InlinedVectorINS_6Point3IfEELi16EN4pstd3pmr21polymorphic_allocatorIS2_EEEC2EmRKS6_.exit.i, label %for.body.i.i.i, !llvm.loop !28

_ZN4pbrt13InlinedVectorINS_6Point3IfEELi16EN4pstd3pmr21polymorphic_allocatorIS2_EEEC2EmRKS6_.exit.i: ; preds = %for.body.i.i.i
  %.pre.i = load ptr, ptr %ptr.i.i.i, align 8
  store i64 %conv.i, ptr %nStored.i.i.i, align 8
  %tobool.not.i.i = icmp eq ptr %.pre.i, null
  %cond.i.i = select i1 %tobool.not.i.i, ptr %62, ptr %.pre.i
  invoke void @_ZN4pbrt8SDVertex7oneRingEPNS_6Point3IfEE(ptr noundef nonnull align 8 dereferenceable(34) %78, ptr noundef nonnull %cond.i.i)
          to label %invoke.cont11.lr.ph.i unwind label %lpad.i

invoke.cont11.lr.ph.i:                            ; preds = %_ZN4pbrt13InlinedVectorINS_6Point3IfEELi16EN4pstd3pmr21polymorphic_allocatorIS2_EEEC2EmRKS6_.exit.i
  %conv3.i = sitofp i32 %nf.0.i1726 to float
  %mul.i = fmul float %conv3.i, 6.250000e-02
  %sub.i = fsub float 1.000000e+00, %mul.i
  %agg.tmp.sroa.0.0.copyload.i = load <2 x float>, ptr %78, align 8
  %agg.tmp.sroa.2.0.p.sroa_idx.i = getelementptr inbounds i8, ptr %78, i64 8
  %agg.tmp.sroa.2.0.copyload.i = load float, ptr %agg.tmp.sroa.2.0.p.sroa_idx.i, align 8
  %88 = insertelement <2 x float> poison, float %sub.i, i64 0
  %89 = shufflevector <2 x float> %88, <2 x float> poison, <2 x i32> zeroinitializer
  %90 = fmul <2 x float> %89, %agg.tmp.sroa.0.0.copyload.i
  %mul3.i.i.i = fmul float %sub.i, %agg.tmp.sroa.2.0.copyload.i
  %.pre29.i = load ptr, ptr %ptr.i.i.i, align 8
  %tobool.not.i.i.i367 = icmp eq ptr %.pre29.i, null
  %cond.i.i.i368 = select i1 %tobool.not.i.i.i367, ptr %62, ptr %.pre29.i
  %wide.trip.count.i = zext nneg i32 %nf.0.i1726 to i64
  br label %invoke.cont11.i

invoke.cont11.i:                                  ; preds = %invoke.cont11.i, %invoke.cont11.lr.ph.i
  %indvars.iv.i = phi i64 [ 0, %invoke.cont11.lr.ph.i ], [ %indvars.iv.next.i, %invoke.cont11.i ]
  %retval.sroa.6.025.i = phi float [ %mul3.i.i.i, %invoke.cont11.lr.ph.i ], [ %add6.i.i, %invoke.cont11.i ]
  %retval.sroa.0.024.i = phi <2 x float> [ %90, %invoke.cont11.lr.ph.i ], [ %92, %invoke.cont11.i ]
  %arrayidx.i.i369 = getelementptr inbounds %"class.pbrt::Point3", ptr %cond.i.i.i368, i64 %indvars.iv.i
  %agg.tmp7.sroa.0.0.copyload.i = load <2 x float>, ptr %arrayidx.i.i369, align 4
  %agg.tmp7.sroa.2.0.call10.sroa_idx.i = getelementptr inbounds i8, ptr %arrayidx.i.i369, i64 8
  %agg.tmp7.sroa.2.0.copyload.i = load float, ptr %agg.tmp7.sroa.2.0.call10.sroa_idx.i, align 4
  %mul3.i.i13.i = fmul float %agg.tmp7.sroa.2.0.copyload.i, 6.250000e-02
  %91 = fmul <2 x float> %agg.tmp7.sroa.0.0.copyload.i, <float 6.250000e-02, float 6.250000e-02>
  %92 = fadd <2 x float> %retval.sroa.0.024.i, %91
  %add6.i.i = fadd float %retval.sroa.6.025.i, %mul3.i.i13.i
  %indvars.iv.next.i = add nuw nsw i64 %indvars.iv.i, 1
  %exitcond.not.i = icmp eq i64 %indvars.iv.next.i, %wide.trip.count.i
  br i1 %exitcond.not.i, label %for.end.i, label %invoke.cont11.i, !llvm.loop !29

lpad.i:                                           ; preds = %_ZN4pbrt13InlinedVectorINS_6Point3IfEELi16EN4pstd3pmr21polymorphic_allocatorIS2_EEEC2EmRKS6_.exit.i
  %93 = landingpad { ptr, i32 }
          cleanup
  call void @_ZN4pbrt13InlinedVectorINS_6Point3IfEELi16EN4pstd3pmr21polymorphic_allocatorIS2_EEED2Ev(ptr noundef nonnull align 8 dereferenceable(224) %pRing.i) #21
  br label %ehcleanup

for.end.i:                                        ; preds = %invoke.cont11.i
  br i1 %tobool.not.i.i.i367, label %invoke.cont234, label %if.end.i.i.i.i.i

if.end.i.i.i.i.i:                                 ; preds = %for.end.i
  %94 = load i64, ptr %nAlloc.i.i.i, align 8
  %mul.i.i19.i = mul i64 %94, 12
  %95 = load ptr, ptr %pRing.i, align 8
  %vtable.i.i.i.i.i = load ptr, ptr %95, align 8
  %vfn.i.i.i.i.i = getelementptr inbounds ptr, ptr %vtable.i.i.i.i.i, i64 3
  %96 = load ptr, ptr %vfn.i.i.i.i.i, align 8
  invoke void %96(ptr noundef nonnull align 8 dereferenceable(8) %95, ptr noundef nonnull %.pre29.i, i64 noundef %mul.i.i19.i, i64 noundef 4)
          to label %invoke.cont234 unwind label %terminate.lpad.i.i

terminate.lpad.i.i:                               ; preds = %if.end.i.i.i.i.i
  %97 = landingpad { ptr, i32 }
          catch ptr null
  %98 = extractvalue { ptr, i32 } %97, 0
  call void @__clang_call_terminate(ptr %98) #22
  unreachable

invoke.cont234:                                   ; preds = %if.end.i.i.i.i.i, %for.end.i
  call void @llvm.lifetime.end.p0(i64 224, ptr nonnull %pRing.i)
  %child237 = getelementptr inbounds %"struct.pbrt::SDVertex", ptr %78, i64 0, i32 3
  %99 = load ptr, ptr %child237, align 8
  store <2 x float> %92, ptr %99, align 8
  br label %for.inc261

if.else239:                                       ; preds = %if.then229
  %startFace.i373 = getelementptr inbounds %"struct.pbrt::SDVertex", ptr %78, i64 0, i32 2
  %100 = load ptr, ptr %startFace.i373, align 8
  br label %while.cond.i

while.cond.i:                                     ; preds = %if.else239, %while.body.i
  %f.0.i = phi ptr [ %102, %while.body.i ], [ %100, %if.else239 ]
  %nf.0.i = phi i32 [ %inc.i, %while.body.i ], [ 1, %if.else239 ]
  br label %for.body.i.i.i375

for.body.i.i.i375:                                ; preds = %for.inc.i.i.i, %while.cond.i
  %indvars.iv.i.i.i = phi i64 [ 0, %while.cond.i ], [ %indvars.iv.next.i.i.i, %for.inc.i.i.i ]
  %arrayidx.i.i.i = getelementptr inbounds [3 x ptr], ptr %f.0.i, i64 0, i64 %indvars.iv.i.i.i
  %101 = load ptr, ptr %arrayidx.i.i.i, align 8
  %cmp2.i.i.i = icmp eq ptr %101, %78
  br i1 %cmp2.i.i.i, label %_ZN4pbrt6SDFace8nextFaceEPNS_8SDVertexE.exit.i, label %for.inc.i.i.i

for.inc.i.i.i:                                    ; preds = %for.body.i.i.i375
  %indvars.iv.next.i.i.i = add nuw nsw i64 %indvars.iv.i.i.i, 1
  %exitcond.not.i.i.i376 = icmp eq i64 %indvars.iv.next.i.i.i, 3
  br i1 %exitcond.not.i.i.i376, label %for.end.i.i.i.invoke, label %for.body.i.i.i375, !llvm.loop !23

for.end.i.i.i.invoke:                             ; preds = %for.inc.i.i10.i1821, %for.inc.i.i22.i1839, %for.inc.i.i.i1731, %for.inc.i.i.i, %for.inc.i.i.i1796
  invoke void @_ZN4pbrt8LogFatalENS_8LogLevelEPKciS2_(i32 noundef 2, ptr noundef nonnull @.str, i32 noundef 58, ptr noundef nonnull @.str.3) #18
          to label %for.end.i.i.i.cont unwind label %lpad169.loopexit.split-lp.loopexit.split-lp.loopexit.split-lp

for.end.i.i.i.cont:                               ; preds = %for.end.i.i.i.invoke
  unreachable

_ZN4pbrt6SDFace8nextFaceEPNS_8SDVertexE.exit.i:   ; preds = %for.body.i.i.i375
  %sext.i.i = shl i64 %indvars.iv.i.i.i, 32
  %idxprom.i.i = ashr exact i64 %sext.i.i, 32
  %arrayidx.i.i377 = getelementptr inbounds %"struct.pbrt::SDFace", ptr %f.0.i, i64 0, i32 1, i64 %idxprom.i.i
  %102 = load ptr, ptr %arrayidx.i.i377, align 8
  %cmp.not.i378 = icmp eq ptr %102, %100
  br i1 %cmp.not.i378, label %while.cond.i1789.preheader, label %while.body.i

while.body.i:                                     ; preds = %_ZN4pbrt6SDFace8nextFaceEPNS_8SDVertexE.exit.i
  %inc.i = add nuw nsw i32 %nf.0.i, 1
  br label %while.cond.i, !llvm.loop !27

while.cond.i1789.preheader:                       ; preds = %_ZN4pbrt6SDFace8nextFaceEPNS_8SDVertexE.exit.i
  %cmp.i382 = icmp eq i32 %nf.0.i, 3
  %conv.i383 = sitofp i32 %nf.0.i to float
  %mul.i384 = fmul float %conv.i383, 8.000000e+00
  %div.i = fdiv float 3.000000e+00, %mul.i384
  %retval.0.i385 = select i1 %cmp.i382, float 1.875000e-01, float %div.i
  call void @llvm.lifetime.start.p0(i64 224, ptr nonnull %pRing.i386)
  br label %while.cond.i1789

while.cond.i1789:                                 ; preds = %while.cond.i1789.preheader, %while.body.i1805
  %f.0.i1790 = phi ptr [ %104, %while.body.i1805 ], [ %100, %while.cond.i1789.preheader ]
  %nf.0.i1791 = phi i32 [ %inc.i1806, %while.body.i1805 ], [ 1, %while.cond.i1789.preheader ]
  br label %for.body.i.i.i1792

for.body.i.i.i1792:                               ; preds = %for.inc.i.i.i1796, %while.cond.i1789
  %indvars.iv.i.i.i1793 = phi i64 [ 0, %while.cond.i1789 ], [ %indvars.iv.next.i.i.i1797, %for.inc.i.i.i1796 ]
  %arrayidx.i.i.i1794 = getelementptr inbounds [3 x ptr], ptr %f.0.i1790, i64 0, i64 %indvars.iv.i.i.i1793
  %103 = load ptr, ptr %arrayidx.i.i.i1794, align 8
  %cmp2.i.i.i1795 = icmp eq ptr %103, %78
  br i1 %cmp2.i.i.i1795, label %_ZN4pbrt6SDFace8nextFaceEPNS_8SDVertexE.exit.i1800, label %for.inc.i.i.i1796

for.inc.i.i.i1796:                                ; preds = %for.body.i.i.i1792
  %indvars.iv.next.i.i.i1797 = add nuw nsw i64 %indvars.iv.i.i.i1793, 1
  %exitcond.not.i.i.i1798 = icmp eq i64 %indvars.iv.next.i.i.i1797, 3
  br i1 %exitcond.not.i.i.i1798, label %for.end.i.i.i.invoke, label %for.body.i.i.i1792, !llvm.loop !23

_ZN4pbrt6SDFace8nextFaceEPNS_8SDVertexE.exit.i1800: ; preds = %for.body.i.i.i1792
  %sext.i.i1801 = shl i64 %indvars.iv.i.i.i1793, 32
  %idxprom.i.i1802 = ashr exact i64 %sext.i.i1801, 32
  %arrayidx.i.i1803 = getelementptr inbounds %"struct.pbrt::SDFace", ptr %f.0.i1790, i64 0, i32 1, i64 %idxprom.i.i1802
  %104 = load ptr, ptr %arrayidx.i.i1803, align 8
  %cmp.not.i1804 = icmp eq ptr %104, %100
  br i1 %cmp.not.i1804, label %call.i387.noexc, label %while.body.i1805

while.body.i1805:                                 ; preds = %_ZN4pbrt6SDFace8nextFaceEPNS_8SDVertexE.exit.i1800
  %inc.i1806 = add nuw nsw i32 %nf.0.i1791, 1
  br label %while.cond.i1789, !llvm.loop !27

call.i387.noexc:                                  ; preds = %_ZN4pbrt6SDFace8nextFaceEPNS_8SDVertexE.exit.i1800
  %conv.i388 = zext nneg i32 %nf.0.i1791 to i64
  %call.i.i389 = call noundef ptr @_ZN4pstd3pmr19new_delete_resourceEv() #21
  store ptr %call.i.i389, ptr %pRing.i386, align 8
  store ptr null, ptr %ptr.i.i.i390, align 8
  %cmp.not.i.i.i.i393 = icmp ugt i32 %nf.0.i1791, 16
  store i64 0, ptr %nAlloc.i.i.i391, align 8
  br i1 %cmp.not.i.i.i.i393, label %_ZN4pbrt13InlinedVectorINS_6Point3IfEELi16EN4pstd3pmr21polymorphic_allocatorIS2_EEE7reserveEm.exit.i.i.thread.i465, label %for.body.i.i.i397.preheader

_ZN4pbrt13InlinedVectorINS_6Point3IfEELi16EN4pstd3pmr21polymorphic_allocatorIS2_EEE7reserveEm.exit.i.i.thread.i465: ; preds = %call.i387.noexc
  %mul.i.i.i.i.i466 = mul nuw nsw i64 %conv.i388, 12
  %vtable.i.i.i.i.i.i.i467 = load ptr, ptr %call.i.i389, align 8
  %vfn.i.i.i.i.i.i.i468 = getelementptr inbounds ptr, ptr %vtable.i.i.i.i.i.i.i467, i64 2
  %105 = load ptr, ptr %vfn.i.i.i.i.i.i.i468, align 8
  %call.i.i.i.i.i.i.i471 = invoke noundef ptr %105(ptr noundef nonnull align 8 dereferenceable(8) %call.i.i389, i64 noundef %mul.i.i.i.i.i466, i64 noundef 4)
          to label %call.i.i.i.i.i.i.i.noexc470 unwind label %lpad169.loopexit.split-lp.loopexit

call.i.i.i.i.i.i.i.noexc470:                      ; preds = %_ZN4pbrt13InlinedVectorINS_6Point3IfEELi16EN4pstd3pmr21polymorphic_allocatorIS2_EEE7reserveEm.exit.i.i.thread.i465
  store i64 %conv.i388, ptr %nAlloc.i.i.i391, align 8
  store ptr %call.i.i.i.i.i.i.i471, ptr %ptr.i.i.i390, align 8
  br label %for.body.i.i.i397.preheader

for.body.i.i.i397.preheader:                      ; preds = %call.i387.noexc, %call.i.i.i.i.i.i.i.noexc470
  br label %for.body.i.i.i397

for.body.i.i.i397:                                ; preds = %for.body.i.i.i397.preheader, %for.body.i.i.i397
  %i.09.i.i.i398 = phi i64 [ %inc.i.i.i404, %for.body.i.i.i397 ], [ 0, %for.body.i.i.i397.preheader ]
  %106 = load ptr, ptr %ptr.i.i.i390, align 8
  %tobool.not.i.i.i.i399 = icmp eq ptr %106, null
  %cond.i.i.i.i400 = select i1 %tobool.not.i.i.i.i399, ptr %63, ptr %106
  %add.ptr.i.i.i401 = getelementptr inbounds %"class.pbrt::Point3", ptr %cond.i.i.i.i400, i64 %i.09.i.i.i398
  store <2 x float> zeroinitializer, ptr %add.ptr.i.i.i401, align 4
  %ref.tmp.sroa.4.0.add.ptr.i.sroa_idx.i.i403 = getelementptr inbounds i8, ptr %add.ptr.i.i.i401, i64 8
  store float 0.000000e+00, ptr %ref.tmp.sroa.4.0.add.ptr.i.sroa_idx.i.i403, align 4
  %inc.i.i.i404 = add nuw i64 %i.09.i.i.i398, 1
  %exitcond.not.i.i.i405 = icmp eq i64 %inc.i.i.i404, %conv.i388
  br i1 %exitcond.not.i.i.i405, label %_ZN4pbrt13InlinedVectorINS_6Point3IfEELi16EN4pstd3pmr21polymorphic_allocatorIS2_EEEC2EmRKS6_.exit.i408, label %for.body.i.i.i397, !llvm.loop !28

_ZN4pbrt13InlinedVectorINS_6Point3IfEELi16EN4pstd3pmr21polymorphic_allocatorIS2_EEEC2EmRKS6_.exit.i408: ; preds = %for.body.i.i.i397
  %.pre.i407 = load ptr, ptr %ptr.i.i.i390, align 8
  store i64 %conv.i388, ptr %nStored.i.i.i392, align 8
  %tobool.not.i.i409 = icmp eq ptr %.pre.i407, null
  %cond.i.i410 = select i1 %tobool.not.i.i409, ptr %63, ptr %.pre.i407
  invoke void @_ZN4pbrt8SDVertex7oneRingEPNS_6Point3IfEE(ptr noundef nonnull align 8 dereferenceable(34) %78, ptr noundef nonnull %cond.i.i410)
          to label %invoke.cont11.lr.ph.i439 unwind label %lpad.i411

invoke.cont11.lr.ph.i439:                         ; preds = %_ZN4pbrt13InlinedVectorINS_6Point3IfEELi16EN4pstd3pmr21polymorphic_allocatorIS2_EEEC2EmRKS6_.exit.i408
  %conv3.i413 = sitofp i32 %nf.0.i1791 to float
  %mul.i414 = fmul float %retval.0.i385, %conv3.i413
  %sub.i415 = fsub float 1.000000e+00, %mul.i414
  %agg.tmp.sroa.0.0.copyload.i416 = load <2 x float>, ptr %78, align 8
  %agg.tmp.sroa.2.0.p.sroa_idx.i417 = getelementptr inbounds i8, ptr %78, i64 8
  %agg.tmp.sroa.2.0.copyload.i418 = load float, ptr %agg.tmp.sroa.2.0.p.sroa_idx.i417, align 8
  %107 = insertelement <2 x float> poison, float %sub.i415, i64 0
  %108 = shufflevector <2 x float> %107, <2 x float> poison, <2 x i32> zeroinitializer
  %109 = fmul <2 x float> %108, %agg.tmp.sroa.0.0.copyload.i416
  %mul3.i.i.i423 = fmul float %sub.i415, %agg.tmp.sroa.2.0.copyload.i418
  %.pre29.i427 = load ptr, ptr %ptr.i.i.i390, align 8
  %tobool.not.i.i.i440 = icmp eq ptr %.pre29.i427, null
  %cond.i.i.i441 = select i1 %tobool.not.i.i.i440, ptr %63, ptr %.pre29.i427
  %wide.trip.count.i442 = zext nneg i32 %nf.0.i1791 to i64
  %110 = insertelement <2 x float> poison, float %retval.0.i385, i64 0
  %111 = shufflevector <2 x float> %110, <2 x float> poison, <2 x i32> zeroinitializer
  br label %invoke.cont11.i443

invoke.cont11.i443:                               ; preds = %invoke.cont11.i443, %invoke.cont11.lr.ph.i439
  %indvars.iv.i444 = phi i64 [ 0, %invoke.cont11.lr.ph.i439 ], [ %indvars.iv.next.i463, %invoke.cont11.i443 ]
  %retval.sroa.6.025.i445 = phi float [ %mul3.i.i.i423, %invoke.cont11.lr.ph.i439 ], [ %add6.i.i462, %invoke.cont11.i443 ]
  %retval.sroa.0.024.i446 = phi <2 x float> [ %109, %invoke.cont11.lr.ph.i439 ], [ %113, %invoke.cont11.i443 ]
  %arrayidx.i.i447 = getelementptr inbounds %"class.pbrt::Point3", ptr %cond.i.i.i441, i64 %indvars.iv.i444
  %agg.tmp7.sroa.0.0.copyload.i448 = load <2 x float>, ptr %arrayidx.i.i447, align 4
  %agg.tmp7.sroa.2.0.call10.sroa_idx.i449 = getelementptr inbounds i8, ptr %arrayidx.i.i447, i64 8
  %agg.tmp7.sroa.2.0.copyload.i450 = load float, ptr %agg.tmp7.sroa.2.0.call10.sroa_idx.i449, align 4
  %mul3.i.i13.i455 = fmul float %retval.0.i385, %agg.tmp7.sroa.2.0.copyload.i450
  %112 = fmul <2 x float> %111, %agg.tmp7.sroa.0.0.copyload.i448
  %113 = fadd <2 x float> %retval.sroa.0.024.i446, %112
  %add6.i.i462 = fadd float %retval.sroa.6.025.i445, %mul3.i.i13.i455
  %indvars.iv.next.i463 = add nuw nsw i64 %indvars.iv.i444, 1
  %exitcond.not.i464 = icmp eq i64 %indvars.iv.next.i463, %wide.trip.count.i442
  br i1 %exitcond.not.i464, label %for.end.i428, label %invoke.cont11.i443, !llvm.loop !29

lpad.i411:                                        ; preds = %_ZN4pbrt13InlinedVectorINS_6Point3IfEELi16EN4pstd3pmr21polymorphic_allocatorIS2_EEEC2EmRKS6_.exit.i408
  %114 = landingpad { ptr, i32 }
          cleanup
  call void @_ZN4pbrt13InlinedVectorINS_6Point3IfEELi16EN4pstd3pmr21polymorphic_allocatorIS2_EEED2Ev(ptr noundef nonnull align 8 dereferenceable(224) %pRing.i386) #21
  br label %ehcleanup

for.end.i428:                                     ; preds = %invoke.cont11.i443
  br i1 %tobool.not.i.i.i440, label %invoke.cont245, label %if.end.i.i.i.i.i432

if.end.i.i.i.i.i432:                              ; preds = %for.end.i428
  %115 = load i64, ptr %nAlloc.i.i.i391, align 8
  %mul.i.i19.i433 = mul i64 %115, 12
  %116 = load ptr, ptr %pRing.i386, align 8
  %vtable.i.i.i.i.i434 = load ptr, ptr %116, align 8
  %vfn.i.i.i.i.i435 = getelementptr inbounds ptr, ptr %vtable.i.i.i.i.i434, i64 3
  %117 = load ptr, ptr %vfn.i.i.i.i.i435, align 8
  invoke void %117(ptr noundef nonnull align 8 dereferenceable(8) %116, ptr noundef nonnull %.pre29.i427, i64 noundef %mul.i.i19.i433, i64 noundef 4)
          to label %invoke.cont245 unwind label %terminate.lpad.i.i436

terminate.lpad.i.i436:                            ; preds = %if.end.i.i.i.i.i432
  %118 = landingpad { ptr, i32 }
          catch ptr null
  %119 = extractvalue { ptr, i32 } %118, 0
  call void @__clang_call_terminate(ptr %119) #22
  unreachable

invoke.cont245:                                   ; preds = %if.end.i.i.i.i.i432, %for.end.i428
  call void @llvm.lifetime.end.p0(i64 224, ptr nonnull %pRing.i386)
  %child249 = getelementptr inbounds %"struct.pbrt::SDVertex", ptr %78, i64 0, i32 3
  %120 = load ptr, ptr %child249, align 8
  store <2 x float> %113, ptr %120, align 8
  br label %for.inc261

while.cond4.i1814.preheader:                      ; preds = %for.body224
  call void @llvm.lifetime.start.p0(i64 224, ptr nonnull %pRing.i475)
  %startFace.i1811 = getelementptr inbounds %"struct.pbrt::SDVertex", ptr %78, i64 0, i32 2
  %121 = load ptr, ptr %startFace.i1811, align 8
  br label %while.cond4.i1814

while.cond4.i1814:                                ; preds = %while.cond4.i1814.preheader, %while.body7.i1830
  %f.1.i1815 = phi ptr [ %123, %while.body7.i1830 ], [ %121, %while.cond4.i1814.preheader ]
  %nf3.0.i1816 = phi i32 [ %inc8.i1831, %while.body7.i1830 ], [ 1, %while.cond4.i1814.preheader ]
  br label %for.body.i.i6.i1817

for.body.i.i6.i1817:                              ; preds = %for.inc.i.i10.i1821, %while.cond4.i1814
  %indvars.iv.i.i7.i1818 = phi i64 [ 0, %while.cond4.i1814 ], [ %indvars.iv.next.i.i11.i1822, %for.inc.i.i10.i1821 ]
  %arrayidx.i.i8.i1819 = getelementptr inbounds [3 x ptr], ptr %f.1.i1815, i64 0, i64 %indvars.iv.i.i7.i1818
  %122 = load ptr, ptr %arrayidx.i.i8.i1819, align 8
  %cmp2.i.i9.i1820 = icmp eq ptr %122, %78
  br i1 %cmp2.i.i9.i1820, label %_ZN4pbrt6SDFace8nextFaceEPNS_8SDVertexE.exit17.i1825, label %for.inc.i.i10.i1821

for.inc.i.i10.i1821:                              ; preds = %for.body.i.i6.i1817
  %indvars.iv.next.i.i11.i1822 = add nuw nsw i64 %indvars.iv.i.i7.i1818, 1
  %exitcond.not.i.i12.i1823 = icmp eq i64 %indvars.iv.next.i.i11.i1822, 3
  br i1 %exitcond.not.i.i12.i1823, label %for.end.i.i.i.invoke, label %for.body.i.i6.i1817, !llvm.loop !23

_ZN4pbrt6SDFace8nextFaceEPNS_8SDVertexE.exit17.i1825: ; preds = %for.body.i.i6.i1817
  %sext.i14.i1826 = shl i64 %indvars.iv.i.i7.i1818, 32
  %idxprom.i15.i1827 = ashr exact i64 %sext.i14.i1826, 32
  %arrayidx.i16.i1828 = getelementptr inbounds %"struct.pbrt::SDFace", ptr %f.1.i1815, i64 0, i32 1, i64 %idxprom.i15.i1827
  %123 = load ptr, ptr %arrayidx.i16.i1828, align 8
  %cmp6.not.i1829 = icmp eq ptr %123, null
  br i1 %cmp6.not.i1829, label %while.cond11.i1832, label %while.body7.i1830

while.body7.i1830:                                ; preds = %_ZN4pbrt6SDFace8nextFaceEPNS_8SDVertexE.exit17.i1825
  %inc8.i1831 = add nuw nsw i32 %nf3.0.i1816, 1
  br label %while.cond4.i1814, !llvm.loop !30

while.cond11.i1832:                               ; preds = %_ZN4pbrt6SDFace8nextFaceEPNS_8SDVertexE.exit17.i1825, %_ZN4pbrt6SDFace8prevFaceEPNS_8SDVertexE.exit.i1843
  %f.2.i1833 = phi ptr [ %126, %_ZN4pbrt6SDFace8prevFaceEPNS_8SDVertexE.exit.i1843 ], [ %121, %_ZN4pbrt6SDFace8nextFaceEPNS_8SDVertexE.exit17.i1825 ]
  %nf3.1.i1834 = phi i32 [ %add.i1852, %_ZN4pbrt6SDFace8prevFaceEPNS_8SDVertexE.exit.i1843 ], [ %nf3.0.i1816, %_ZN4pbrt6SDFace8nextFaceEPNS_8SDVertexE.exit17.i1825 ]
  br label %for.body.i.i18.i1835

for.body.i.i18.i1835:                             ; preds = %for.inc.i.i22.i1839, %while.cond11.i1832
  %indvars.iv.i.i19.i1836 = phi i64 [ 0, %while.cond11.i1832 ], [ %indvars.iv.next.i.i23.i1840, %for.inc.i.i22.i1839 ]
  %arrayidx.i.i20.i1837 = getelementptr inbounds [3 x ptr], ptr %f.2.i1833, i64 0, i64 %indvars.iv.i.i19.i1836
  %124 = load ptr, ptr %arrayidx.i.i20.i1837, align 8
  %cmp2.i.i21.i1838 = icmp eq ptr %124, %78
  br i1 %cmp2.i.i21.i1838, label %_ZN4pbrt6SDFace8prevFaceEPNS_8SDVertexE.exit.i1843, label %for.inc.i.i22.i1839

for.inc.i.i22.i1839:                              ; preds = %for.body.i.i18.i1835
  %indvars.iv.next.i.i23.i1840 = add nuw nsw i64 %indvars.iv.i.i19.i1836, 1
  %exitcond.not.i.i24.i1841 = icmp eq i64 %indvars.iv.next.i.i23.i1840, 3
  br i1 %exitcond.not.i.i24.i1841, label %for.end.i.i.i.invoke, label %for.body.i.i18.i1835, !llvm.loop !23

_ZN4pbrt6SDFace8prevFaceEPNS_8SDVertexE.exit.i1843: ; preds = %for.body.i.i18.i1835
  %125 = trunc i64 %indvars.iv.i.i19.i1836 to i32
  %add.i.i1844 = add nsw i32 %125, 2
  %rem.i.i1845 = srem i32 %add.i.i1844, 3
  %idxprom.i26.i1846 = sext i32 %rem.i.i1845 to i64
  %arrayidx.i27.i1847 = getelementptr inbounds %"struct.pbrt::SDFace", ptr %f.2.i1833, i64 0, i32 1, i64 %idxprom.i26.i1846
  %126 = load ptr, ptr %arrayidx.i27.i1847, align 8
  %cmp13.not.i1848 = icmp eq ptr %126, null
  %add.i1852 = add nuw nsw i32 %nf3.1.i1834, 1
  br i1 %cmp13.not.i1848, label %call.i476.noexc, label %while.cond11.i1832, !llvm.loop !31

call.i476.noexc:                                  ; preds = %_ZN4pbrt6SDFace8prevFaceEPNS_8SDVertexE.exit.i1843
  %conv.i477 = zext nneg i32 %add.i1852 to i64
  %call.i.i478 = call noundef ptr @_ZN4pstd3pmr19new_delete_resourceEv() #21
  store ptr %call.i.i478, ptr %pRing.i475, align 8
  store ptr null, ptr %ptr.i.i.i479, align 8
  %cmp.not.i.i.i.i482 = icmp ugt i32 %nf3.1.i1834, 15
  store i64 0, ptr %nAlloc.i.i.i480, align 8
  br i1 %cmp.not.i.i.i.i482, label %_ZN4pbrt13InlinedVectorINS_6Point3IfEELi16EN4pstd3pmr21polymorphic_allocatorIS2_EEE7reserveEm.exit.i.i.thread.i521, label %for.body.i.i.i486.preheader

_ZN4pbrt13InlinedVectorINS_6Point3IfEELi16EN4pstd3pmr21polymorphic_allocatorIS2_EEE7reserveEm.exit.i.i.thread.i521: ; preds = %call.i476.noexc
  %mul.i.i.i.i.i522 = mul nuw nsw i64 %conv.i477, 12
  %vtable.i.i.i.i.i.i.i523 = load ptr, ptr %call.i.i478, align 8
  %vfn.i.i.i.i.i.i.i524 = getelementptr inbounds ptr, ptr %vtable.i.i.i.i.i.i.i523, i64 2
  %127 = load ptr, ptr %vfn.i.i.i.i.i.i.i524, align 8
  %call.i.i.i.i.i.i.i527 = invoke noundef ptr %127(ptr noundef nonnull align 8 dereferenceable(8) %call.i.i478, i64 noundef %mul.i.i.i.i.i522, i64 noundef 4)
          to label %call.i.i.i.i.i.i.i.noexc526 unwind label %lpad169.loopexit.split-lp.loopexit

call.i.i.i.i.i.i.i.noexc526:                      ; preds = %_ZN4pbrt13InlinedVectorINS_6Point3IfEELi16EN4pstd3pmr21polymorphic_allocatorIS2_EEE7reserveEm.exit.i.i.thread.i521
  store i64 %conv.i477, ptr %nAlloc.i.i.i480, align 8
  store ptr %call.i.i.i.i.i.i.i527, ptr %ptr.i.i.i479, align 8
  br label %for.body.i.i.i486.preheader

for.body.i.i.i486.preheader:                      ; preds = %call.i476.noexc, %call.i.i.i.i.i.i.i.noexc526
  br label %for.body.i.i.i486

for.body.i.i.i486:                                ; preds = %for.body.i.i.i486.preheader, %for.body.i.i.i486
  %i.09.i.i.i487 = phi i64 [ %inc.i.i.i493, %for.body.i.i.i486 ], [ 0, %for.body.i.i.i486.preheader ]
  %128 = load ptr, ptr %ptr.i.i.i479, align 8
  %tobool.not.i.i.i.i488 = icmp eq ptr %128, null
  %cond.i.i.i.i489 = select i1 %tobool.not.i.i.i.i488, ptr %61, ptr %128
  %add.ptr.i.i.i490 = getelementptr inbounds %"class.pbrt::Point3", ptr %cond.i.i.i.i489, i64 %i.09.i.i.i487
  store <2 x float> zeroinitializer, ptr %add.ptr.i.i.i490, align 4
  %ref.tmp.sroa.4.0.add.ptr.i.sroa_idx.i.i492 = getelementptr inbounds i8, ptr %add.ptr.i.i.i490, i64 8
  store float 0.000000e+00, ptr %ref.tmp.sroa.4.0.add.ptr.i.sroa_idx.i.i492, align 4
  %inc.i.i.i493 = add nuw i64 %i.09.i.i.i487, 1
  %exitcond.not.i.i.i494 = icmp eq i64 %inc.i.i.i493, %conv.i477
  br i1 %exitcond.not.i.i.i494, label %_ZN4pbrt13InlinedVectorINS_6Point3IfEELi16EN4pstd3pmr21polymorphic_allocatorIS2_EEEC2EmRKS6_.exit.i497, label %for.body.i.i.i486, !llvm.loop !28

_ZN4pbrt13InlinedVectorINS_6Point3IfEELi16EN4pstd3pmr21polymorphic_allocatorIS2_EEEC2EmRKS6_.exit.i497: ; preds = %for.body.i.i.i486
  %.pre.i496 = load ptr, ptr %ptr.i.i.i479, align 8
  store i64 %conv.i477, ptr %nStored.i.i.i481, align 8
  %tobool.not.i.i498 = icmp eq ptr %.pre.i496, null
  %cond.i.i499 = select i1 %tobool.not.i.i498, ptr %61, ptr %.pre.i496
  invoke void @_ZN4pbrt8SDVertex7oneRingEPNS_6Point3IfEE(ptr noundef nonnull align 8 dereferenceable(34) %78, ptr noundef nonnull %cond.i.i499)
          to label %invoke.cont18.i unwind label %lpad.i500

invoke.cont18.i:                                  ; preds = %_ZN4pbrt13InlinedVectorINS_6Point3IfEELi16EN4pstd3pmr21polymorphic_allocatorIS2_EEEC2EmRKS6_.exit.i497
  %agg.tmp.sroa.0.0.copyload.i501 = load <2 x float>, ptr %78, align 8
  %agg.tmp.sroa.2.0.p.sroa_idx.i502 = getelementptr inbounds i8, ptr %78, i64 8
  %agg.tmp.sroa.2.0.copyload.i503 = load float, ptr %agg.tmp.sroa.2.0.p.sroa_idx.i502, align 8
  %129 = load ptr, ptr %ptr.i.i.i479, align 8
  %tobool.not.i.i.i504 = icmp eq ptr %129, null
  %cond.i.i.i505 = select i1 %tobool.not.i.i.i504, ptr %61, ptr %129
  %agg.tmp5.sroa.0.0.copyload.i = load <2 x float>, ptr %cond.i.i.i505, align 4
  %.sroa.gep37.i = getelementptr inbounds i8, ptr %129, i64 8
  %cond.i.i.sroa.sel.i = select i1 %tobool.not.i.i.i504, ptr %.sroa.gep.i, ptr %.sroa.gep37.i
  %agg.tmp5.sroa.2.0.copyload.i = load float, ptr %cond.i.i.sroa.sel.i, align 4
  %130 = getelementptr %"class.pbrt::Point3", ptr %cond.i.i.i505, i64 %conv.i477
  %arrayidx.i.i506 = getelementptr %"class.pbrt::Point3", ptr %130, i64 -1
  %agg.tmp14.sroa.0.0.copyload.i = load <2 x float>, ptr %arrayidx.i.i506, align 4
  %agg.tmp14.sroa.2.0.call17.sroa_idx.i = getelementptr %"class.pbrt::Point3", ptr %130, i64 -1, i32 0, i32 2
  %agg.tmp14.sroa.2.0.copyload.i = load float, ptr %agg.tmp14.sroa.2.0.call17.sroa_idx.i, align 4
  br i1 %tobool.not.i.i.i504, label %invoke.cont254, label %if.end.i.i.i.i.i507

if.end.i.i.i.i.i507:                              ; preds = %invoke.cont18.i
  %131 = load i64, ptr %nAlloc.i.i.i480, align 8
  %mul.i.i36.i = mul i64 %131, 12
  %132 = load ptr, ptr %pRing.i475, align 8
  %vtable.i.i.i.i.i508 = load ptr, ptr %132, align 8
  %vfn.i.i.i.i.i509 = getelementptr inbounds ptr, ptr %vtable.i.i.i.i.i508, i64 3
  %133 = load ptr, ptr %vfn.i.i.i.i.i509, align 8
  invoke void %133(ptr noundef nonnull align 8 dereferenceable(8) %132, ptr noundef nonnull %129, i64 noundef %mul.i.i36.i, i64 noundef 4)
          to label %invoke.cont254 unwind label %terminate.lpad.i.i510

terminate.lpad.i.i510:                            ; preds = %if.end.i.i.i.i.i507
  %134 = landingpad { ptr, i32 }
          catch ptr null
  %135 = extractvalue { ptr, i32 } %134, 0
  call void @__clang_call_terminate(ptr %135) #22
  unreachable

lpad.i500:                                        ; preds = %_ZN4pbrt13InlinedVectorINS_6Point3IfEELi16EN4pstd3pmr21polymorphic_allocatorIS2_EEEC2EmRKS6_.exit.i497
  %136 = landingpad { ptr, i32 }
          cleanup
  call void @_ZN4pbrt13InlinedVectorINS_6Point3IfEELi16EN4pstd3pmr21polymorphic_allocatorIS2_EEED2Ev(ptr noundef nonnull align 8 dereferenceable(224) %pRing.i475) #21
  br label %ehcleanup

invoke.cont254:                                   ; preds = %if.end.i.i.i.i.i507, %invoke.cont18.i
  %mul3.i.i.i511 = fmul float %agg.tmp.sroa.2.0.copyload.i503, 7.500000e-01
  %mul3.i.i11.i = fmul float %agg.tmp5.sroa.2.0.copyload.i, 1.250000e-01
  %add6.i.i512 = fadd float %mul3.i.i.i511, %mul3.i.i11.i
  %mul3.i.i23.i = fmul float %agg.tmp14.sroa.2.0.copyload.i, 1.250000e-01
  %add6.i34.i = fadd float %add6.i.i512, %mul3.i.i23.i
  %137 = fmul <2 x float> %agg.tmp14.sroa.0.0.copyload.i, <float 1.250000e-01, float 1.250000e-01>
  %138 = fmul <2 x float> %agg.tmp5.sroa.0.0.copyload.i, <float 1.250000e-01, float 1.250000e-01>
  %139 = fmul <2 x float> %agg.tmp.sroa.0.0.copyload.i501, <float 7.500000e-01, float 7.500000e-01>
  %140 = fadd <2 x float> %139, %138
  %141 = fadd <2 x float> %140, %137
  call void @llvm.lifetime.end.p0(i64 224, ptr nonnull %pRing.i475)
  %child258 = getelementptr inbounds %"struct.pbrt::SDVertex", ptr %78, i64 0, i32 3
  %142 = load ptr, ptr %child258, align 8
  store <2 x float> %141, ptr %142, align 8
  br label %for.inc261

for.inc261:                                       ; preds = %invoke.cont254, %invoke.cont245, %invoke.cont234
  %.sink3247 = phi ptr [ %142, %invoke.cont254 ], [ %120, %invoke.cont245 ], [ %99, %invoke.cont234 ]
  %add6.i34.i.sink = phi float [ %add6.i34.i, %invoke.cont254 ], [ %add6.i.i462, %invoke.cont245 ], [ %add6.i.i, %invoke.cont234 ]
  %ref.tmp253.sroa.2.0.p259.sroa_idx = getelementptr inbounds i8, ptr %.sink3247, i64 8
  store float %add6.i34.i.sink, ptr %ref.tmp253.sroa.2.0.p259.sroa_idx, align 8
  %incdec.ptr.i530 = getelementptr inbounds ptr, ptr %__begin2216.sroa.0.02669, i64 1
  %cmp.i360.not = icmp eq ptr %incdec.ptr.i530, %v150.sroa.23.02694
  br i1 %cmp.i360.not, label %for.end263, label %for.body224

for.end263:                                       ; preds = %for.inc261, %for.cond222.preheader
  store i32 0, ptr %64, align 8
  store ptr null, ptr %_M_parent.i.i.i.i.i531, align 8
  store ptr %64, ptr %_M_left.i.i.i.i.i532, align 8
  store ptr %64, ptr %_M_right.i.i.i.i.i533, align 8
  store i64 0, ptr %_M_node_count.i.i.i.i.i534, align 8
  br i1 %cmp.i323.not2661, label %for.cond406.preheader, label %for.body273

for.cond406.preheader:                            ; preds = %for.inc396, %for.end263
  %newVertices.sroa.9.3.lcssa = phi ptr [ %newVertices.sroa.9.1.lcssa, %for.end263 ], [ %newVertices.sroa.9.6, %for.inc396 ]
  %newVertices.sroa.0.3.lcssa = phi ptr [ %newVertices.sroa.0.1.lcssa, %for.end263 ], [ %newVertices.sroa.0.10, %for.inc396 ]
  br i1 %cmp.i312.not2649, label %for.cond430.preheader, label %for.body408

for.body273:                                      ; preds = %for.end263, %for.inc396
  %newVertices.sroa.0.32680 = phi ptr [ %newVertices.sroa.0.10, %for.inc396 ], [ %newVertices.sroa.0.1.lcssa, %for.end263 ]
  %newVertices.sroa.9.32679 = phi ptr [ %newVertices.sroa.9.6, %for.inc396 ], [ %newVertices.sroa.9.1.lcssa, %for.end263 ]
  %newVertices.sroa.19.32678 = phi ptr [ %newVertices.sroa.19.6, %for.inc396 ], [ %newVertices.sroa.19.1.lcssa, %for.end263 ]
  %__begin2265.sroa.0.02677 = phi ptr [ %incdec.ptr.i725, %for.inc396 ], [ %f148.sroa.0.02698, %for.end263 ]
  %143 = load ptr, ptr %__begin2265.sroa.0.02677, align 8
  %arrayidx305 = getelementptr inbounds %"struct.pbrt::SDFace", ptr %143, i64 0, i32 2, i64 3
  br label %invoke.cont289

invoke.cont289:                                   ; preds = %for.body273, %for.inc393
  %indvars.iv2977 = phi i64 [ 0, %for.body273 ], [ %indvars.iv.next2978, %for.inc393 ]
  %newVertices.sroa.0.42674 = phi ptr [ %newVertices.sroa.0.32680, %for.body273 ], [ %newVertices.sroa.0.10, %for.inc393 ]
  %newVertices.sroa.9.42673 = phi ptr [ %newVertices.sroa.9.32679, %for.body273 ], [ %newVertices.sroa.9.6, %for.inc393 ]
  %newVertices.sroa.19.42672 = phi ptr [ %newVertices.sroa.19.32678, %for.body273 ], [ %newVertices.sroa.19.6, %for.inc393 ]
  %arrayidx282 = getelementptr inbounds [3 x ptr], ptr %143, i64 0, i64 %indvars.iv2977
  %144 = load ptr, ptr %arrayidx282, align 8
  %indvars.iv.next2978 = add nuw nsw i64 %indvars.iv2977, 1
  %145 = icmp eq i64 %indvars.iv.next2978, 3
  %146 = and i64 %indvars.iv.next2978, 4294967295
  %idxprom286 = select i1 %145, i64 0, i64 %146
  %arrayidx287 = getelementptr inbounds [3 x ptr], ptr %143, i64 0, i64 %idxprom286
  %147 = load ptr, ptr %arrayidx287, align 8
  %cmp.i.i537 = icmp ult ptr %147, %144
  %.sroa.speculated6.i538 = select i1 %cmp.i.i537, ptr %147, ptr %144
  %cmp.i1.i539 = icmp ult ptr %144, %147
  %.sroa.speculated.i540 = select i1 %cmp.i1.i539, ptr %147, ptr %144
  call void @llvm.memset.p0.i64(ptr noundef nonnull align 8 dereferenceable(16) %edge.sroa.14, i8 0, i64 16, i1 false)
  %148 = load ptr, ptr %_M_parent.i.i.i.i.i531, align 8
  %cmp.not5.i.i.i.i = icmp eq ptr %148, null
  br i1 %cmp.not5.i.i.i.i, label %if.then.i551, label %while.body.i.i.i.i

while.body.i.i.i.i:                               ; preds = %invoke.cont289, %while.body.i.i.i.i
  %__x.addr.07.i.i.i.i = phi ptr [ %__x.addr.1.i.i.i.i, %while.body.i.i.i.i ], [ %148, %invoke.cont289 ]
  %__y.addr.06.i.i.i.i = phi ptr [ %__y.addr.1.i.i.i.i, %while.body.i.i.i.i ], [ %64, %invoke.cont289 ]
  %_M_storage.i.i.i.i.i.i = getelementptr inbounds %"struct.std::_Rb_tree_node", ptr %__x.addr.07.i.i.i.i, i64 0, i32 1
  %149 = load ptr, ptr %_M_storage.i.i.i.i.i.i, align 8
  %cmp.i.i.i.i.i.i545 = icmp eq ptr %149, %.sroa.speculated6.i538
  %arrayidx5.i.i.i.i.i.i = getelementptr inbounds %"struct.std::_Rb_tree_node", ptr %__x.addr.07.i.i.i.i, i64 0, i32 1, i32 0, i64 8
  %150 = load ptr, ptr %arrayidx5.i.i.i.i.i.i, align 8
  %cmp8.i.i.i.i.i.i = icmp ult ptr %150, %.sroa.speculated.i540
  %cmp13.i.i.i.i.i.i = icmp ult ptr %149, %.sroa.speculated6.i538
  %retval.0.i.i.i.i.i.i = select i1 %cmp.i.i.i.i.i.i545, i1 %cmp8.i.i.i.i.i.i, i1 %cmp13.i.i.i.i.i.i
  %_M_right.i.i.i.i.i546 = getelementptr inbounds %"struct.std::_Rb_tree_node_base", ptr %__x.addr.07.i.i.i.i, i64 0, i32 3
  %_M_left.i.i.i.i.i547 = getelementptr inbounds %"struct.std::_Rb_tree_node_base", ptr %__x.addr.07.i.i.i.i, i64 0, i32 2
  %__y.addr.1.i.i.i.i = select i1 %retval.0.i.i.i.i.i.i, ptr %__y.addr.06.i.i.i.i, ptr %__x.addr.07.i.i.i.i
  %__x.addr.1.in.i.i.i.i = select i1 %retval.0.i.i.i.i.i.i, ptr %_M_right.i.i.i.i.i546, ptr %_M_left.i.i.i.i.i547
  %__x.addr.1.i.i.i.i = load ptr, ptr %__x.addr.1.in.i.i.i.i, align 8
  %cmp.not.i.i.i.i548 = icmp eq ptr %__x.addr.1.i.i.i.i, null
  br i1 %cmp.not.i.i.i.i548, label %_ZNSt3mapIN4pbrt6SDEdgeEPNS0_8SDVertexESt4lessIS1_ESaISt4pairIKS1_S3_EEE11lower_boundERS7_.exit.i, label %while.body.i.i.i.i, !llvm.loop !32

_ZNSt3mapIN4pbrt6SDEdgeEPNS0_8SDVertexESt4lessIS1_ESaISt4pairIKS1_S3_EEE11lower_boundERS7_.exit.i: ; preds = %while.body.i.i.i.i
  %cmp.i.i549 = icmp eq ptr %__y.addr.1.i.i.i.i, %64
  br i1 %cmp.i.i549, label %if.then.i551, label %lor.rhs.i

lor.rhs.i:                                        ; preds = %_ZNSt3mapIN4pbrt6SDEdgeEPNS0_8SDVertexESt4lessIS1_ESaISt4pairIKS1_S3_EEE11lower_boundERS7_.exit.i
  %arrayidx5.i.i.i.i.i.i.le = getelementptr inbounds %"struct.std::_Rb_tree_node", ptr %__x.addr.07.i.i.i.i, i64 0, i32 1, i32 0, i64 8
  %_M_storage.i.i.i.i.i.i.le = getelementptr inbounds %"struct.std::_Rb_tree_node", ptr %__x.addr.07.i.i.i.i, i64 0, i32 1
  %__y.addr.06.i.i.i.i.sroa.gep = getelementptr inbounds %"struct.std::_Rb_tree_node", ptr %__y.addr.06.i.i.i.i, i64 0, i32 1
  %__y.addr.1.i.i.i.i.sroa.sel = select i1 %retval.0.i.i.i.i.i.i, ptr %__y.addr.06.i.i.i.i.sroa.gep, ptr %_M_storage.i.i.i.i.i.i.le
  %151 = load ptr, ptr %__y.addr.1.i.i.i.i.sroa.sel, align 8
  %cmp.i.i.i550 = icmp eq ptr %.sroa.speculated6.i538, %151
  %__y.addr.06.i.i.i.i.sroa.gep2069 = getelementptr inbounds %"struct.std::_Rb_tree_node", ptr %__y.addr.06.i.i.i.i, i64 0, i32 1, i32 0, i64 8
  %__y.addr.1.i.i.i.i.sroa.sel2071 = select i1 %retval.0.i.i.i.i.i.i, ptr %__y.addr.06.i.i.i.i.sroa.gep2069, ptr %arrayidx5.i.i.i.i.i.i.le
  %152 = load ptr, ptr %__y.addr.1.i.i.i.i.sroa.sel2071, align 8
  %cmp8.i.i.i = icmp ult ptr %.sroa.speculated.i540, %152
  %cmp13.i.i.i = icmp ult ptr %.sroa.speculated6.i538, %151
  %retval.0.i.i.i = select i1 %cmp.i.i.i550, i1 %cmp8.i.i.i, i1 %cmp13.i.i.i
  br i1 %retval.0.i.i.i, label %if.then.i551, label %invoke.cont290

if.then.i551:                                     ; preds = %lor.rhs.i, %_ZNSt3mapIN4pbrt6SDEdgeEPNS0_8SDVertexESt4lessIS1_ESaISt4pairIKS1_S3_EEE11lower_boundERS7_.exit.i, %invoke.cont289
  %__y.addr.0.lcssa.i.i.i9.i = phi ptr [ %64, %_ZNSt3mapIN4pbrt6SDEdgeEPNS0_8SDVertexESt4lessIS1_ESaISt4pairIKS1_S3_EEE11lower_boundERS7_.exit.i ], [ %__y.addr.1.i.i.i.i, %lor.rhs.i ], [ %64, %invoke.cont289 ]
  %call5.i.i.i.i.i.i1893 = invoke noalias noundef nonnull dereferenceable(80) ptr @_Znwm(i64 noundef 80) #17
          to label %call5.i.i.i.i.i.i.noexc1892 unwind label %lpad288.loopexit.split-lp.loopexit

call5.i.i.i.i.i.i.noexc1892:                      ; preds = %if.then.i551
  %_M_storage.i.i.i.i.i1877 = getelementptr inbounds %"struct.std::_Rb_tree_node", ptr %call5.i.i.i.i.i.i1893, i64 0, i32 1
  store ptr %.sroa.speculated6.i538, ptr %_M_storage.i.i.i.i.i1877, align 8
  %edge.sroa.8.0._M_storage.i.i.i.i.i1877.sroa_idx = getelementptr inbounds %"struct.std::_Rb_tree_node", ptr %call5.i.i.i.i.i.i1893, i64 0, i32 1, i32 0, i64 8
  store ptr %.sroa.speculated.i540, ptr %edge.sroa.8.0._M_storage.i.i.i.i.i1877.sroa_idx, align 8
  %edge.sroa.14.0._M_storage.i.i.i.i.i1877.sroa_idx = getelementptr inbounds %"struct.std::_Rb_tree_node", ptr %call5.i.i.i.i.i.i1893, i64 0, i32 1, i32 0, i64 16
  call void @llvm.memset.p0.i64(ptr noundef nonnull align 8 dereferenceable(16) %edge.sroa.14.0._M_storage.i.i.i.i.i1877.sroa_idx, i8 0, i64 16, i1 false)
  %edge.sroa.15.0._M_storage.i.i.i.i.i1877.sroa_idx = getelementptr inbounds %"struct.std::_Rb_tree_node", ptr %call5.i.i.i.i.i.i1893, i64 0, i32 1, i32 0, i64 32
  store i32 -1, ptr %edge.sroa.15.0._M_storage.i.i.i.i.i1877.sroa_idx, align 8
  %second.i.i.i.i.i.i.i.i = getelementptr inbounds %"struct.std::_Rb_tree_node", ptr %call5.i.i.i.i.i.i1893, i64 0, i32 1, i32 0, i64 40
  store ptr null, ptr %second.i.i.i.i.i.i.i.i, align 8
  %call8.i = invoke { ptr, ptr } @_ZNSt8_Rb_treeIN4pbrt6SDEdgeESt4pairIKS1_PNS0_8SDVertexEESt10_Select1stIS6_ESt4lessIS1_ESaIS6_EE29_M_get_insert_hint_unique_posESt23_Rb_tree_const_iteratorIS6_ERS3_(ptr noundef nonnull align 8 dereferenceable(48) %edgeVerts, ptr %__y.addr.0.lcssa.i.i.i9.i, ptr noundef nonnull align 8 dereferenceable(36) %_M_storage.i.i.i.i.i1877)
          to label %invoke.cont7.i unwind label %_ZNSt8_Rb_treeIN4pbrt6SDEdgeESt4pairIKS1_PNS0_8SDVertexEESt10_Select1stIS6_ESt4lessIS1_ESaIS6_EE10_Auto_nodeD2Ev.exit.i

invoke.cont7.i:                                   ; preds = %call5.i.i.i.i.i.i.noexc1892
  %153 = extractvalue { ptr, ptr } %call8.i, 0
  %154 = extractvalue { ptr, ptr } %call8.i, 1
  %tobool.not.i1878 = icmp eq ptr %154, null
  br i1 %tobool.not.i1878, label %if.then.i7.i, label %if.then.i1879

if.then.i1879:                                    ; preds = %invoke.cont7.i
  %cmp.not.i.i.i1880 = icmp ne ptr %153, null
  %cmp2.i.i.i1882 = icmp eq ptr %64, %154
  %or.cond.i.i.i1883 = or i1 %cmp.not.i.i.i1880, %cmp2.i.i.i1882
  br i1 %or.cond.i.i.i1883, label %cleanup.thread.i, label %lor.rhs.i.i.i

lor.rhs.i.i.i:                                    ; preds = %if.then.i1879
  %_M_storage.i.i.i.i.i.i1884 = getelementptr inbounds %"struct.std::_Rb_tree_node", ptr %154, i64 0, i32 1
  %155 = load ptr, ptr %_M_storage.i.i.i.i.i1877, align 8
  %156 = load ptr, ptr %_M_storage.i.i.i.i.i.i1884, align 8
  %cmp.i.i.i.i.i1885 = icmp eq ptr %155, %156
  %arrayidx5.i.i.i.i.i1886 = getelementptr inbounds %"struct.std::_Rb_tree_node", ptr %call5.i.i.i.i.i.i1893, i64 0, i32 1, i32 0, i64 8
  %157 = load ptr, ptr %arrayidx5.i.i.i.i.i1886, align 8
  %arrayidx7.i.i.i.i.i1887 = getelementptr inbounds %"struct.std::_Rb_tree_node", ptr %154, i64 0, i32 1, i32 0, i64 8
  %158 = load ptr, ptr %arrayidx7.i.i.i.i.i1887, align 8
  %cmp8.i.i.i.i.i1888 = icmp ult ptr %157, %158
  %cmp13.i.i.i.i.i1889 = icmp ult ptr %155, %156
  %retval.0.i.i.i.i.i1890 = select i1 %cmp.i.i.i.i.i1885, i1 %cmp8.i.i.i.i.i1888, i1 %cmp13.i.i.i.i.i1889
  br label %cleanup.thread.i

cleanup.thread.i:                                 ; preds = %lor.rhs.i.i.i, %if.then.i1879
  %159 = phi i1 [ true, %if.then.i1879 ], [ %retval.0.i.i.i.i.i1890, %lor.rhs.i.i.i ]
  call void @_ZSt29_Rb_tree_insert_and_rebalancebPSt18_Rb_tree_node_baseS0_RS_(i1 noundef zeroext %159, ptr noundef nonnull %call5.i.i.i.i.i.i1893, ptr noundef nonnull %154, ptr noundef nonnull align 8 dereferenceable(32) %64) #21
  %160 = load i64, ptr %_M_node_count.i.i.i.i.i534, align 8
  %inc.i.i.i1891 = add i64 %160, 1
  store i64 %inc.i.i.i1891, ptr %_M_node_count.i.i.i.i.i534, align 8
  br label %invoke.cont290

_ZNSt8_Rb_treeIN4pbrt6SDEdgeESt4pairIKS1_PNS0_8SDVertexEESt10_Select1stIS6_ESt4lessIS1_ESaIS6_EE10_Auto_nodeD2Ev.exit.i: ; preds = %call5.i.i.i.i.i.i.noexc1892
  %161 = landingpad { ptr, i32 }
          cleanup
  call void @_ZdlPv(ptr noundef nonnull %call5.i.i.i.i.i.i1893) #19
  br label %lpad288.body

if.then.i7.i:                                     ; preds = %invoke.cont7.i
  call void @_ZdlPv(ptr noundef nonnull %call5.i.i.i.i.i.i1893) #19
  br label %invoke.cont290

invoke.cont290:                                   ; preds = %lor.rhs.i, %if.then.i7.i, %cleanup.thread.i
  %__i.sroa.0.0.i = phi ptr [ %__y.addr.1.i.i.i.i, %lor.rhs.i ], [ %call5.i.i.i.i.i.i1893, %cleanup.thread.i ], [ %153, %if.then.i7.i ]
  %second.i = getelementptr inbounds %"struct.std::_Rb_tree_node", ptr %__i.sroa.0.0.i, i64 0, i32 1, i32 0, i64 40
  %162 = load ptr, ptr %second.i, align 8
  %cmp292 = icmp eq ptr %162, null
  br i1 %cmp292, label %if.then293, label %for.inc393

if.then293:                                       ; preds = %invoke.cont290
  %vtable.i.i.i.i553 = load ptr, ptr %resource, align 64
  %vfn.i.i.i.i554 = getelementptr inbounds ptr, ptr %vtable.i.i.i.i553, i64 2
  %163 = load ptr, ptr %vfn.i.i.i.i554, align 8
  %call.i.i.i.i558 = invoke noundef ptr %163(ptr noundef nonnull align 8 dereferenceable(8) %resource, i64 noundef 40, i64 noundef 8)
          to label %invoke.cont294 unwind label %lpad288.loopexit.split-lp.loopexit

invoke.cont294:                                   ; preds = %if.then293
  store <2 x float> zeroinitializer, ptr %call.i.i.i.i558, align 8
  %ref.tmp.sroa.3.0.p.sroa_idx.i.i556 = getelementptr inbounds i8, ptr %call.i.i.i.i558, i64 8
  store float 0.000000e+00, ptr %ref.tmp.sroa.3.0.p.sroa_idx.i.i556, align 8
  %startFace.i.i.i557 = getelementptr inbounds %"struct.pbrt::SDVertex", ptr %call.i.i.i.i558, i64 0, i32 2
  call void @llvm.memset.p0.i64(ptr noundef nonnull align 8 dereferenceable(18) %startFace.i.i.i557, i8 0, i64 18, i1 false)
  %cmp.not.i562 = icmp eq ptr %newVertices.sroa.9.42673, %newVertices.sroa.19.42672
  br i1 %cmp.not.i562, label %if.else.i565, label %if.then.i563

if.then.i563:                                     ; preds = %invoke.cont294
  store ptr %call.i.i.i.i558, ptr %newVertices.sroa.9.42673, align 8
  br label %invoke.cont296

if.else.i565:                                     ; preds = %invoke.cont294
  %sub.ptr.lhs.cast.i.i.i.i566 = ptrtoint ptr %newVertices.sroa.9.42673 to i64
  %sub.ptr.rhs.cast.i.i.i.i567 = ptrtoint ptr %newVertices.sroa.0.42674 to i64
  %sub.ptr.sub.i.i.i.i568 = sub i64 %sub.ptr.lhs.cast.i.i.i.i566, %sub.ptr.rhs.cast.i.i.i.i567
  %cmp.i.i.i569 = icmp eq i64 %sub.ptr.sub.i.i.i.i568, 9223372036854775800
  br i1 %cmp.i.i.i569, label %if.then.i.i.i592, label %_ZNKSt6vectorIPN4pbrt8SDVertexESaIS2_EE12_M_check_lenEmPKc.exit.i.i570

if.then.i.i.i592:                                 ; preds = %if.else.i565
  invoke void @_ZSt20__throw_length_errorPKc(ptr noundef nonnull @.str.4) #18
          to label %.noexc593 unwind label %lpad288.loopexit.split-lp.loopexit.split-lp.loopexit.split-lp

.noexc593:                                        ; preds = %if.then.i.i.i592
  unreachable

_ZNKSt6vectorIPN4pbrt8SDVertexESaIS2_EE12_M_check_lenEmPKc.exit.i.i570: ; preds = %if.else.i565
  %sub.ptr.div.i.i.i.i571 = ashr exact i64 %sub.ptr.sub.i.i.i.i568, 3
  %.sroa.speculated.i.i.i572 = call i64 @llvm.umax.i64(i64 %sub.ptr.div.i.i.i.i571, i64 1)
  %add.i.i.i573 = add i64 %.sroa.speculated.i.i.i572, %sub.ptr.div.i.i.i.i571
  %cmp7.i.i.i574 = icmp ult i64 %add.i.i.i573, %sub.ptr.div.i.i.i.i571
  %cmp9.i.i.i575 = icmp ugt i64 %add.i.i.i573, 1152921504606846975
  %or.cond.i.i.i576 = or i1 %cmp7.i.i.i574, %cmp9.i.i.i575
  %cond.i.i.i577 = select i1 %or.cond.i.i.i576, i64 1152921504606846975, i64 %add.i.i.i573
  %cmp.not.i.i.i578 = icmp eq i64 %cond.i.i.i577, 0
  br i1 %cmp.not.i.i.i578, label %_ZNSt12_Vector_baseIPN4pbrt8SDVertexESaIS2_EE11_M_allocateEm.exit.i.i581, label %_ZNSt16allocator_traitsISaIPN4pbrt8SDVertexEEE8allocateERS3_m.exit.i.i.i579

_ZNSt16allocator_traitsISaIPN4pbrt8SDVertexEEE8allocateERS3_m.exit.i.i.i579: ; preds = %_ZNKSt6vectorIPN4pbrt8SDVertexESaIS2_EE12_M_check_lenEmPKc.exit.i.i570
  %mul.i.i.i.i.i580 = shl nuw nsw i64 %cond.i.i.i577, 3
  %call5.i.i.i.i.i595 = invoke noalias noundef nonnull ptr @_Znwm(i64 noundef %mul.i.i.i.i.i580) #17
          to label %_ZNSt12_Vector_baseIPN4pbrt8SDVertexESaIS2_EE11_M_allocateEm.exit.i.i581 unwind label %lpad288.loopexit.split-lp.loopexit

_ZNSt12_Vector_baseIPN4pbrt8SDVertexESaIS2_EE11_M_allocateEm.exit.i.i581: ; preds = %_ZNSt16allocator_traitsISaIPN4pbrt8SDVertexEEE8allocateERS3_m.exit.i.i.i579, %_ZNKSt6vectorIPN4pbrt8SDVertexESaIS2_EE12_M_check_lenEmPKc.exit.i.i570
  %cond.i10.i.i582 = phi ptr [ null, %_ZNKSt6vectorIPN4pbrt8SDVertexESaIS2_EE12_M_check_lenEmPKc.exit.i.i570 ], [ %call5.i.i.i.i.i595, %_ZNSt16allocator_traitsISaIPN4pbrt8SDVertexEEE8allocateERS3_m.exit.i.i.i579 ]
  %add.ptr.i.i583 = getelementptr inbounds ptr, ptr %cond.i10.i.i582, i64 %sub.ptr.div.i.i.i.i571
  store ptr %call.i.i.i.i558, ptr %add.ptr.i.i583, align 8
  %cmp.i.i.i11.i.i584 = icmp sgt i64 %sub.ptr.div.i.i.i.i571, 0
  br i1 %cmp.i.i.i11.i.i584, label %if.then.i.i.i12.i.i591, label %_ZNSt6vectorIPN4pbrt8SDVertexESaIS2_EE11_S_relocateEPS2_S5_S5_RS3_.exit20.i.i585

if.then.i.i.i12.i.i591:                           ; preds = %_ZNSt12_Vector_baseIPN4pbrt8SDVertexESaIS2_EE11_M_allocateEm.exit.i.i581
  call void @llvm.memmove.p0.p0.i64(ptr nonnull align 8 %cond.i10.i.i582, ptr align 8 %newVertices.sroa.0.42674, i64 %sub.ptr.sub.i.i.i.i568, i1 false)
  br label %_ZNSt6vectorIPN4pbrt8SDVertexESaIS2_EE11_S_relocateEPS2_S5_S5_RS3_.exit20.i.i585

_ZNSt6vectorIPN4pbrt8SDVertexESaIS2_EE11_S_relocateEPS2_S5_S5_RS3_.exit20.i.i585: ; preds = %if.then.i.i.i12.i.i591, %_ZNSt12_Vector_baseIPN4pbrt8SDVertexESaIS2_EE11_M_allocateEm.exit.i.i581
  %tobool.not.i.i.i587 = icmp eq ptr %newVertices.sroa.0.42674, null
  br i1 %tobool.not.i.i.i587, label %_ZNSt6vectorIPN4pbrt8SDVertexESaIS2_EE17_M_realloc_insertIJRKS2_EEEvN9__gnu_cxx17__normal_iteratorIPS2_S4_EEDpOT_.exit.i589, label %if.then.i21.i.i588

if.then.i21.i.i588:                               ; preds = %_ZNSt6vectorIPN4pbrt8SDVertexESaIS2_EE11_S_relocateEPS2_S5_S5_RS3_.exit20.i.i585
  call void @_ZdlPv(ptr noundef nonnull %newVertices.sroa.0.42674) #19
  br label %_ZNSt6vectorIPN4pbrt8SDVertexESaIS2_EE17_M_realloc_insertIJRKS2_EEEvN9__gnu_cxx17__normal_iteratorIPS2_S4_EEDpOT_.exit.i589

_ZNSt6vectorIPN4pbrt8SDVertexESaIS2_EE17_M_realloc_insertIJRKS2_EEEvN9__gnu_cxx17__normal_iteratorIPS2_S4_EEDpOT_.exit.i589: ; preds = %if.then.i21.i.i588, %_ZNSt6vectorIPN4pbrt8SDVertexESaIS2_EE11_S_relocateEPS2_S5_S5_RS3_.exit20.i.i585
  %add.ptr19.i.i590 = getelementptr inbounds ptr, ptr %cond.i10.i.i582, i64 %cond.i.i.i577
  br label %invoke.cont296

invoke.cont296:                                   ; preds = %_ZNSt6vectorIPN4pbrt8SDVertexESaIS2_EE17_M_realloc_insertIJRKS2_EEEvN9__gnu_cxx17__normal_iteratorIPS2_S4_EEDpOT_.exit.i589, %if.then.i563
  %newVertices.sroa.19.5 = phi ptr [ %add.ptr19.i.i590, %_ZNSt6vectorIPN4pbrt8SDVertexESaIS2_EE17_M_realloc_insertIJRKS2_EEEvN9__gnu_cxx17__normal_iteratorIPS2_S4_EEDpOT_.exit.i589 ], [ %newVertices.sroa.19.42672, %if.then.i563 ]
  %add.ptr.i.i583.pn = phi ptr [ %add.ptr.i.i583, %_ZNSt6vectorIPN4pbrt8SDVertexESaIS2_EE17_M_realloc_insertIJRKS2_EEEvN9__gnu_cxx17__normal_iteratorIPS2_S4_EEDpOT_.exit.i589 ], [ %newVertices.sroa.9.42673, %if.then.i563 ]
  %newVertices.sroa.0.5 = phi ptr [ %cond.i10.i.i582, %_ZNSt6vectorIPN4pbrt8SDVertexESaIS2_EE17_M_realloc_insertIJRKS2_EEEvN9__gnu_cxx17__normal_iteratorIPS2_S4_EEDpOT_.exit.i589 ], [ %newVertices.sroa.0.42674, %if.then.i563 ]
  %newVertices.sroa.9.5 = getelementptr inbounds ptr, ptr %add.ptr.i.i583.pn, i64 1
  %regular297 = getelementptr inbounds %"struct.pbrt::SDVertex", ptr %call.i.i.i.i558, i64 0, i32 4
  store i8 1, ptr %regular297, align 8
  %arrayidx300 = getelementptr inbounds %"struct.pbrt::SDFace", ptr %143, i64 0, i32 1, i64 %indvars.iv2977
  %164 = load ptr, ptr %arrayidx300, align 8
  %cmp301 = icmp eq ptr %164, null
  %boundary302 = getelementptr inbounds %"struct.pbrt::SDVertex", ptr %call.i.i.i.i558, i64 0, i32 5
  %frombool303 = zext i1 %cmp301 to i8
  store i8 %frombool303, ptr %boundary302, align 1
  %165 = load ptr, ptr %arrayidx305, align 8
  store ptr %165, ptr %startFace.i.i.i557, align 8
  %agg.tmp.sroa.0.0.copyload = load <2 x float>, ptr %.sroa.speculated6.i538, align 8
  %agg.tmp.sroa.2.0.p313.sroa_idx = getelementptr inbounds i8, ptr %.sroa.speculated6.i538, i64 8
  %agg.tmp.sroa.2.0.copyload = load float, ptr %agg.tmp.sroa.2.0.p313.sroa_idx, align 8
  %agg.tmp320.sroa.2.0.p323.sroa_idx = getelementptr inbounds i8, ptr %.sroa.speculated.i540, i64 8
  br i1 %cmp301, label %invoke.cont324, label %invoke.cont347

invoke.cont324:                                   ; preds = %invoke.cont296
  %166 = fmul <2 x float> %agg.tmp.sroa.0.0.copyload, <float 5.000000e-01, float 5.000000e-01>
  %mul3.i.i = fmul float %agg.tmp.sroa.2.0.copyload, 5.000000e-01
  store <2 x float> %166, ptr %call.i.i.i.i558, align 8
  store float %mul3.i.i, ptr %ref.tmp.sroa.3.0.p.sroa_idx.i.i556, align 8
  %agg.tmp320.sroa.0.0.copyload = load <2 x float>, ptr %.sroa.speculated.i540, align 8
  %167 = fmul <2 x float> %agg.tmp320.sroa.0.0.copyload, <float 5.000000e-01, float 5.000000e-01>
  br label %if.end389

lpad288.loopexit:                                 ; preds = %if.then.i804
  %lpad.loopexit2223 = landingpad { ptr, i32 }
          cleanup
  br label %lpad288.body

lpad288.loopexit.split-lp.loopexit:               ; preds = %if.then.i720, %if.then.i551, %_ZNSt16allocator_traitsISaIPN4pbrt8SDVertexEEE8allocateERS3_m.exit.i.i.i579, %if.then293
  %newVertices.sroa.0.6.ph.ph = phi ptr [ %newVertices.sroa.0.5, %if.then.i720 ], [ %newVertices.sroa.0.42674, %_ZNSt16allocator_traitsISaIPN4pbrt8SDVertexEEE8allocateERS3_m.exit.i.i.i579 ], [ %newVertices.sroa.0.42674, %if.then293 ], [ %newVertices.sroa.0.42674, %if.then.i551 ]
  %lpad.loopexit2227 = landingpad { ptr, i32 }
          cleanup
  br label %lpad288.body

lpad288.loopexit.split-lp.loopexit.split-lp.loopexit: ; preds = %_ZNSt12_Vector_baseIPN4pbrt6SDFaceESaIS2_EE11_M_allocateEm.exit.i.i824, %_ZNSt12_Vector_baseIPN4pbrt8SDVertexESaIS2_EE11_M_allocateEm.exit.i.i875
  %f148.sroa.0.1.ph.ph.ph = phi ptr [ %f148.sroa.0.02698, %_ZNSt12_Vector_baseIPN4pbrt6SDFaceESaIS2_EE11_M_allocateEm.exit.i.i824 ], [ %f148.sroa.0.5, %_ZNSt12_Vector_baseIPN4pbrt8SDVertexESaIS2_EE11_M_allocateEm.exit.i.i875 ]
  %lpad.loopexit2240 = landingpad { ptr, i32 }
          cleanup
  br label %lpad288.body

lpad288.loopexit.split-lp.loopexit.split-lp.loopexit.split-lp: ; preds = %for.end.i733.invoke, %for.end.i640.invoke, %if.then.i.i.i592, %if.then3.i.i.i.i.i, %if.then3.i.i.i.i.i881
  %newVertices.sroa.0.6.ph.ph2226.ph = phi ptr [ %newVertices.sroa.0.3.lcssa, %if.then3.i.i.i.i.i881 ], [ %newVertices.sroa.0.3.lcssa, %if.then3.i.i.i.i.i ], [ %newVertices.sroa.0.42674, %if.then.i.i.i592 ], [ %newVertices.sroa.0.5, %for.end.i640.invoke ], [ %newVertices.sroa.0.3.lcssa, %for.end.i733.invoke ]
  %f148.sroa.0.1.ph.ph.ph2239 = phi ptr [ %f148.sroa.0.5, %if.then3.i.i.i.i.i881 ], [ %f148.sroa.0.02698, %if.then3.i.i.i.i.i ], [ %f148.sroa.0.02698, %if.then.i.i.i592 ], [ %f148.sroa.0.02698, %for.end.i640.invoke ], [ %f148.sroa.0.02698, %for.end.i733.invoke ]
  %lpad.loopexit.split-lp2241 = landingpad { ptr, i32 }
          cleanup
  br label %lpad288.body

lpad288.body:                                     ; preds = %lpad288.loopexit, %lpad288.loopexit.split-lp.loopexit.split-lp.loopexit, %lpad288.loopexit.split-lp.loopexit.split-lp.loopexit.split-lp, %lpad288.loopexit.split-lp.loopexit, %_ZNSt8_Rb_treeIN4pbrt6SDEdgeESt4pairIKS1_PNS0_8SDVertexEESt10_Select1stIS6_ESt4lessIS1_ESaIS6_EE10_Auto_nodeD2Ev.exit.i1899, %_ZNSt8_Rb_treeIN4pbrt6SDEdgeESt4pairIKS1_PNS0_8SDVertexEESt10_Select1stIS6_ESt4lessIS1_ESaIS6_EE10_Auto_nodeD2Ev.exit.i1929, %_ZNSt8_Rb_treeIN4pbrt6SDEdgeESt4pairIKS1_PNS0_8SDVertexEESt10_Select1stIS6_ESt4lessIS1_ESaIS6_EE10_Auto_nodeD2Ev.exit.i
  %newVertices.sroa.0.9 = phi ptr [ %newVertices.sroa.0.42674, %_ZNSt8_Rb_treeIN4pbrt6SDEdgeESt4pairIKS1_PNS0_8SDVertexEESt10_Select1stIS6_ESt4lessIS1_ESaIS6_EE10_Auto_nodeD2Ev.exit.i ], [ %newVertices.sroa.0.5, %_ZNSt8_Rb_treeIN4pbrt6SDEdgeESt4pairIKS1_PNS0_8SDVertexEESt10_Select1stIS6_ESt4lessIS1_ESaIS6_EE10_Auto_nodeD2Ev.exit.i1899 ], [ %newVertices.sroa.0.3.lcssa, %_ZNSt8_Rb_treeIN4pbrt6SDEdgeESt4pairIKS1_PNS0_8SDVertexEESt10_Select1stIS6_ESt4lessIS1_ESaIS6_EE10_Auto_nodeD2Ev.exit.i1929 ], [ %newVertices.sroa.0.3.lcssa, %lpad288.loopexit ], [ %newVertices.sroa.0.6.ph.ph, %lpad288.loopexit.split-lp.loopexit ], [ %newVertices.sroa.0.3.lcssa, %lpad288.loopexit.split-lp.loopexit.split-lp.loopexit ], [ %newVertices.sroa.0.6.ph.ph2226.ph, %lpad288.loopexit.split-lp.loopexit.split-lp.loopexit.split-lp ]
  %f148.sroa.0.4 = phi ptr [ %f148.sroa.0.02698, %_ZNSt8_Rb_treeIN4pbrt6SDEdgeESt4pairIKS1_PNS0_8SDVertexEESt10_Select1stIS6_ESt4lessIS1_ESaIS6_EE10_Auto_nodeD2Ev.exit.i ], [ %f148.sroa.0.02698, %_ZNSt8_Rb_treeIN4pbrt6SDEdgeESt4pairIKS1_PNS0_8SDVertexEESt10_Select1stIS6_ESt4lessIS1_ESaIS6_EE10_Auto_nodeD2Ev.exit.i1899 ], [ %f148.sroa.0.02698, %_ZNSt8_Rb_treeIN4pbrt6SDEdgeESt4pairIKS1_PNS0_8SDVertexEESt10_Select1stIS6_ESt4lessIS1_ESaIS6_EE10_Auto_nodeD2Ev.exit.i1929 ], [ %f148.sroa.0.02698, %lpad288.loopexit ], [ %f148.sroa.0.02698, %lpad288.loopexit.split-lp.loopexit ], [ %f148.sroa.0.1.ph.ph.ph, %lpad288.loopexit.split-lp.loopexit.split-lp.loopexit ], [ %f148.sroa.0.1.ph.ph.ph2239, %lpad288.loopexit.split-lp.loopexit.split-lp.loopexit.split-lp ]
  %eh.lpad-body1894 = phi { ptr, i32 } [ %161, %_ZNSt8_Rb_treeIN4pbrt6SDEdgeESt4pairIKS1_PNS0_8SDVertexEESt10_Select1stIS6_ESt4lessIS1_ESaIS6_EE10_Auto_nodeD2Ev.exit.i ], [ %196, %_ZNSt8_Rb_treeIN4pbrt6SDEdgeESt4pairIKS1_PNS0_8SDVertexEESt10_Select1stIS6_ESt4lessIS1_ESaIS6_EE10_Auto_nodeD2Ev.exit.i1899 ], [ %242, %_ZNSt8_Rb_treeIN4pbrt6SDEdgeESt4pairIKS1_PNS0_8SDVertexEESt10_Select1stIS6_ESt4lessIS1_ESaIS6_EE10_Auto_nodeD2Ev.exit.i1929 ], [ %lpad.loopexit2223, %lpad288.loopexit ], [ %lpad.loopexit2227, %lpad288.loopexit.split-lp.loopexit ], [ %lpad.loopexit2240, %lpad288.loopexit.split-lp.loopexit.split-lp.loopexit ], [ %lpad.loopexit.split-lp2241, %lpad288.loopexit.split-lp.loopexit.split-lp.loopexit.split-lp ]
  %168 = load ptr, ptr %_M_parent.i.i.i.i.i531, align 8
  invoke void @_ZNSt8_Rb_treeIN4pbrt6SDEdgeESt4pairIKS1_PNS0_8SDVertexEESt10_Select1stIS6_ESt4lessIS1_ESaIS6_EE8_M_eraseEPSt13_Rb_tree_nodeIS6_E(ptr noundef nonnull align 8 dereferenceable(48) %edgeVerts, ptr noundef %168)
          to label %ehcleanup unwind label %terminate.lpad.i.i608

terminate.lpad.i.i608:                            ; preds = %lpad288.body
  %169 = landingpad { ptr, i32 }
          catch ptr null
  %170 = extractvalue { ptr, i32 } %169, 0
  call void @__clang_call_terminate(ptr %170) #22
  unreachable

invoke.cont347:                                   ; preds = %invoke.cont296
  %171 = fmul <2 x float> %agg.tmp.sroa.0.0.copyload, <float 3.750000e-01, float 3.750000e-01>
  %mul3.i.i613 = fmul float %agg.tmp.sroa.2.0.copyload, 3.750000e-01
  store <2 x float> %171, ptr %call.i.i.i.i558, align 8
  store float %mul3.i.i613, ptr %ref.tmp.sroa.3.0.p.sroa_idx.i.i556, align 8
  %agg.tmp343.sroa.0.0.copyload = load <2 x float>, ptr %.sroa.speculated.i540, align 8
  %agg.tmp343.sroa.2.0.copyload = load float, ptr %agg.tmp320.sroa.2.0.p323.sroa_idx, align 8
  %mul3.i.i622 = fmul float %agg.tmp343.sroa.2.0.copyload, 3.750000e-01
  %172 = fmul <2 x float> %agg.tmp343.sroa.0.0.copyload, <float 3.750000e-01, float 3.750000e-01>
  %173 = fadd <2 x float> %172, %171
  store <2 x float> %173, ptr %call.i.i.i.i558, align 4
  %add6.i633 = fadd float %mul3.i.i613, %mul3.i.i622
  store float %add6.i633, ptr %ref.tmp.sroa.3.0.p.sroa_idx.i.i556, align 4
  br label %for.body.i

for.cond.i:                                       ; preds = %for.body.i
  %indvars.iv.next.i638 = add nuw nsw i64 %indvars.iv.i634, 1
  %exitcond.not.i639 = icmp eq i64 %indvars.iv.next.i638, 3
  br i1 %exitcond.not.i639, label %for.end.i640.invoke, label %for.body.i, !llvm.loop !33

for.body.i:                                       ; preds = %for.cond.i, %invoke.cont347
  %indvars.iv.i634 = phi i64 [ 0, %invoke.cont347 ], [ %indvars.iv.next.i638, %for.cond.i ]
  %arrayidx.i635 = getelementptr inbounds [3 x ptr], ptr %143, i64 0, i64 %indvars.iv.i634
  %174 = load ptr, ptr %arrayidx.i635, align 8
  %cmp2.not.i = icmp eq ptr %174, %.sroa.speculated6.i538
  %cmp6.not.i636 = icmp eq ptr %174, %.sroa.speculated.i540
  %or.cond.i = or i1 %cmp2.not.i, %cmp6.not.i636
  br i1 %or.cond.i, label %for.cond.i, label %invoke.cont363

for.end.i640.invoke:                              ; preds = %for.cond.i, %for.cond.i665
  invoke void @_ZN4pbrt8LogFatalENS_8LogLevelEPKciS2_(i32 noundef 2, ptr noundef nonnull @.str, i32 noundef 69, ptr noundef nonnull @.str.2) #18
          to label %for.end.i640.cont unwind label %lpad288.loopexit.split-lp.loopexit.split-lp.loopexit.split-lp

for.end.i640.cont:                                ; preds = %for.end.i640.invoke
  unreachable

invoke.cont363:                                   ; preds = %for.body.i
  %agg.tmp355.sroa.0.0.copyload = load <2 x float>, ptr %174, align 8
  %agg.tmp355.sroa.2.0.p362.sroa_idx = getelementptr inbounds i8, ptr %174, i64 8
  %agg.tmp355.sroa.2.0.copyload = load float, ptr %agg.tmp355.sroa.2.0.p362.sroa_idx, align 8
  %mul3.i.i646 = fmul float %agg.tmp355.sroa.2.0.copyload, 1.250000e-01
  %175 = fmul <2 x float> %agg.tmp355.sroa.0.0.copyload, <float 1.250000e-01, float 1.250000e-01>
  %176 = fadd <2 x float> %173, %175
  store <2 x float> %176, ptr %call.i.i.i.i558, align 4
  %add6.i657 = fadd float %add6.i633, %mul3.i.i646
  store float %add6.i657, ptr %ref.tmp.sroa.3.0.p.sroa_idx.i.i556, align 4
  %177 = load ptr, ptr %arrayidx300, align 8
  br label %for.body.i658

for.cond.i665:                                    ; preds = %for.body.i658
  %indvars.iv.next.i666 = add nuw nsw i64 %indvars.iv.i659, 1
  %exitcond.not.i667 = icmp eq i64 %indvars.iv.next.i666, 3
  br i1 %exitcond.not.i667, label %for.end.i640.invoke, label %for.body.i658, !llvm.loop !33

for.body.i658:                                    ; preds = %for.cond.i665, %invoke.cont363
  %indvars.iv.i659 = phi i64 [ 0, %invoke.cont363 ], [ %indvars.iv.next.i666, %for.cond.i665 ]
  %arrayidx.i660 = getelementptr inbounds [3 x ptr], ptr %177, i64 0, i64 %indvars.iv.i659
  %178 = load ptr, ptr %arrayidx.i660, align 8
  %cmp2.not.i661 = icmp eq ptr %178, %.sroa.speculated6.i538
  %cmp6.not.i662 = icmp eq ptr %178, %.sroa.speculated.i540
  %or.cond.i663 = or i1 %cmp2.not.i661, %cmp6.not.i662
  br i1 %or.cond.i663, label %for.cond.i665, label %invoke.cont382

invoke.cont382:                                   ; preds = %for.body.i658
  %agg.tmp371.sroa.0.0.copyload = load <2 x float>, ptr %178, align 8
  %agg.tmp371.sroa.2.0.p381.sroa_idx = getelementptr inbounds i8, ptr %178, i64 8
  %179 = fmul <2 x float> %agg.tmp371.sroa.0.0.copyload, <float 1.250000e-01, float 1.250000e-01>
  br label %if.end389

if.end389:                                        ; preds = %invoke.cont382, %invoke.cont324
  %.sink3248 = phi float [ 1.250000e-01, %invoke.cont382 ], [ 5.000000e-01, %invoke.cont324 ]
  %agg.tmp371.sroa.2.0.copyload.sink.in = phi ptr [ %agg.tmp371.sroa.2.0.p381.sroa_idx, %invoke.cont382 ], [ %agg.tmp320.sroa.2.0.p323.sroa_idx, %invoke.cont324 ]
  %add6.i657.sink = phi float [ %add6.i657, %invoke.cont382 ], [ %mul3.i.i, %invoke.cont324 ]
  %180 = phi <2 x float> [ %176, %invoke.cont382 ], [ %167, %invoke.cont324 ]
  %181 = phi <2 x float> [ %179, %invoke.cont382 ], [ %166, %invoke.cont324 ]
  %agg.tmp371.sroa.2.0.copyload.sink = load float, ptr %agg.tmp371.sroa.2.0.copyload.sink.in, align 8
  %mul3.i.i675 = fmul float %agg.tmp371.sroa.2.0.copyload.sink, %.sink3248
  %182 = fadd <2 x float> %180, %181
  store <2 x float> %182, ptr %call.i.i.i.i558, align 4
  %add6.i686 = fadd float %add6.i657.sink, %mul3.i.i675
  store float %add6.i686, ptr %ref.tmp.sroa.3.0.p.sroa_idx.i.i556, align 4
  %183 = load ptr, ptr %_M_parent.i.i.i.i.i531, align 8
  %cmp.not5.i.i.i.i691 = icmp eq ptr %183, null
  br i1 %cmp.not5.i.i.i.i691, label %if.then.i720, label %while.body.i.i.i.i694

while.body.i.i.i.i694:                            ; preds = %if.end389, %while.body.i.i.i.i694
  %__x.addr.07.i.i.i.i695 = phi ptr [ %__x.addr.1.i.i.i.i707, %while.body.i.i.i.i694 ], [ %183, %if.end389 ]
  %__y.addr.06.i.i.i.i696 = phi ptr [ %__y.addr.1.i.i.i.i705, %while.body.i.i.i.i694 ], [ %64, %if.end389 ]
  %_M_storage.i.i.i.i.i.i697 = getelementptr inbounds %"struct.std::_Rb_tree_node", ptr %__x.addr.07.i.i.i.i695, i64 0, i32 1
  %184 = load ptr, ptr %_M_storage.i.i.i.i.i.i697, align 8
  %cmp.i.i.i.i.i.i698 = icmp eq ptr %184, %.sroa.speculated6.i538
  %arrayidx5.i.i.i.i.i.i699 = getelementptr inbounds %"struct.std::_Rb_tree_node", ptr %__x.addr.07.i.i.i.i695, i64 0, i32 1, i32 0, i64 8
  %185 = load ptr, ptr %arrayidx5.i.i.i.i.i.i699, align 8
  %cmp8.i.i.i.i.i.i700 = icmp ult ptr %185, %.sroa.speculated.i540
  %cmp13.i.i.i.i.i.i701 = icmp ult ptr %184, %.sroa.speculated6.i538
  %retval.0.i.i.i.i.i.i702 = select i1 %cmp.i.i.i.i.i.i698, i1 %cmp8.i.i.i.i.i.i700, i1 %cmp13.i.i.i.i.i.i701
  %_M_right.i.i.i.i.i703 = getelementptr inbounds %"struct.std::_Rb_tree_node_base", ptr %__x.addr.07.i.i.i.i695, i64 0, i32 3
  %_M_left.i.i.i.i.i704 = getelementptr inbounds %"struct.std::_Rb_tree_node_base", ptr %__x.addr.07.i.i.i.i695, i64 0, i32 2
  %__y.addr.1.i.i.i.i705 = select i1 %retval.0.i.i.i.i.i.i702, ptr %__y.addr.06.i.i.i.i696, ptr %__x.addr.07.i.i.i.i695
  %__x.addr.1.in.i.i.i.i706 = select i1 %retval.0.i.i.i.i.i.i702, ptr %_M_right.i.i.i.i.i703, ptr %_M_left.i.i.i.i.i704
  %__x.addr.1.i.i.i.i707 = load ptr, ptr %__x.addr.1.in.i.i.i.i706, align 8
  %cmp.not.i.i.i.i708 = icmp eq ptr %__x.addr.1.i.i.i.i707, null
  br i1 %cmp.not.i.i.i.i708, label %_ZNSt3mapIN4pbrt6SDEdgeEPNS0_8SDVertexESt4lessIS1_ESaISt4pairIKS1_S3_EEE11lower_boundERS7_.exit.i709, label %while.body.i.i.i.i694, !llvm.loop !32

_ZNSt3mapIN4pbrt6SDEdgeEPNS0_8SDVertexESt4lessIS1_ESaISt4pairIKS1_S3_EEE11lower_boundERS7_.exit.i709: ; preds = %while.body.i.i.i.i694
  %cmp.i.i710 = icmp eq ptr %__y.addr.1.i.i.i.i705, %64
  br i1 %cmp.i.i710, label %if.then.i720, label %lor.rhs.i711

lor.rhs.i711:                                     ; preds = %_ZNSt3mapIN4pbrt6SDEdgeEPNS0_8SDVertexESt4lessIS1_ESaISt4pairIKS1_S3_EEE11lower_boundERS7_.exit.i709
  %arrayidx5.i.i.i.i.i.i699.le = getelementptr inbounds %"struct.std::_Rb_tree_node", ptr %__x.addr.07.i.i.i.i695, i64 0, i32 1, i32 0, i64 8
  %_M_storage.i.i.i.i.i.i697.le = getelementptr inbounds %"struct.std::_Rb_tree_node", ptr %__x.addr.07.i.i.i.i695, i64 0, i32 1
  %__y.addr.06.i.i.i.i696.sroa.gep = getelementptr inbounds %"struct.std::_Rb_tree_node", ptr %__y.addr.06.i.i.i.i696, i64 0, i32 1
  %__y.addr.1.i.i.i.i705.sroa.sel = select i1 %retval.0.i.i.i.i.i.i702, ptr %__y.addr.06.i.i.i.i696.sroa.gep, ptr %_M_storage.i.i.i.i.i.i697.le
  %186 = load ptr, ptr %__y.addr.1.i.i.i.i705.sroa.sel, align 8
  %cmp.i.i.i713 = icmp eq ptr %.sroa.speculated6.i538, %186
  %__y.addr.06.i.i.i.i696.sroa.gep2072 = getelementptr inbounds %"struct.std::_Rb_tree_node", ptr %__y.addr.06.i.i.i.i696, i64 0, i32 1, i32 0, i64 8
  %__y.addr.1.i.i.i.i705.sroa.sel2074 = select i1 %retval.0.i.i.i.i.i.i702, ptr %__y.addr.06.i.i.i.i696.sroa.gep2072, ptr %arrayidx5.i.i.i.i.i.i699.le
  %187 = load ptr, ptr %__y.addr.1.i.i.i.i705.sroa.sel2074, align 8
  %cmp8.i.i.i715 = icmp ult ptr %.sroa.speculated.i540, %187
  %cmp13.i.i.i716 = icmp ult ptr %.sroa.speculated6.i538, %186
  %retval.0.i.i.i717 = select i1 %cmp.i.i.i713, i1 %cmp8.i.i.i715, i1 %cmp13.i.i.i716
  br i1 %retval.0.i.i.i717, label %if.then.i720, label %invoke.cont390

if.then.i720:                                     ; preds = %lor.rhs.i711, %_ZNSt3mapIN4pbrt6SDEdgeEPNS0_8SDVertexESt4lessIS1_ESaISt4pairIKS1_S3_EEE11lower_boundERS7_.exit.i709, %if.end389
  %__y.addr.0.lcssa.i.i.i9.i721 = phi ptr [ %64, %_ZNSt3mapIN4pbrt6SDEdgeEPNS0_8SDVertexESt4lessIS1_ESaISt4pairIKS1_S3_EEE11lower_boundERS7_.exit.i709 ], [ %__y.addr.1.i.i.i.i705, %lor.rhs.i711 ], [ %64, %if.end389 ]
  %call5.i.i.i.i.i.i1921 = invoke noalias noundef nonnull dereferenceable(80) ptr @_Znwm(i64 noundef 80) #17
          to label %call5.i.i.i.i.i.i.noexc1920 unwind label %lpad288.loopexit.split-lp.loopexit

call5.i.i.i.i.i.i.noexc1920:                      ; preds = %if.then.i720
  %_M_storage.i.i.i.i.i1896 = getelementptr inbounds %"struct.std::_Rb_tree_node", ptr %call5.i.i.i.i.i.i1921, i64 0, i32 1
  store ptr %.sroa.speculated6.i538, ptr %_M_storage.i.i.i.i.i1896, align 8
  %edge.sroa.8.0._M_storage.i.i.i.i.i1896.sroa_idx = getelementptr inbounds %"struct.std::_Rb_tree_node", ptr %call5.i.i.i.i.i.i1921, i64 0, i32 1, i32 0, i64 8
  store ptr %.sroa.speculated.i540, ptr %edge.sroa.8.0._M_storage.i.i.i.i.i1896.sroa_idx, align 8
  %edge.sroa.14.0._M_storage.i.i.i.i.i1896.sroa_idx = getelementptr inbounds %"struct.std::_Rb_tree_node", ptr %call5.i.i.i.i.i.i1921, i64 0, i32 1, i32 0, i64 16
  call void @llvm.memcpy.p0.p0.i64(ptr noundef nonnull align 8 dereferenceable(16) %edge.sroa.14.0._M_storage.i.i.i.i.i1896.sroa_idx, ptr noundef nonnull align 8 dereferenceable(16) %edge.sroa.14, i64 16, i1 false)
  %edge.sroa.15.0._M_storage.i.i.i.i.i1896.sroa_idx = getelementptr inbounds %"struct.std::_Rb_tree_node", ptr %call5.i.i.i.i.i.i1921, i64 0, i32 1, i32 0, i64 32
  store i32 -1, ptr %edge.sroa.15.0._M_storage.i.i.i.i.i1896.sroa_idx, align 8
  %second.i.i.i.i.i.i.i.i1897 = getelementptr inbounds %"struct.std::_Rb_tree_node", ptr %call5.i.i.i.i.i.i1921, i64 0, i32 1, i32 0, i64 40
  store ptr null, ptr %second.i.i.i.i.i.i.i.i1897, align 8
  %call8.i1898 = invoke { ptr, ptr } @_ZNSt8_Rb_treeIN4pbrt6SDEdgeESt4pairIKS1_PNS0_8SDVertexEESt10_Select1stIS6_ESt4lessIS1_ESaIS6_EE29_M_get_insert_hint_unique_posESt23_Rb_tree_const_iteratorIS6_ERS3_(ptr noundef nonnull align 8 dereferenceable(48) %edgeVerts, ptr %__y.addr.0.lcssa.i.i.i9.i721, ptr noundef nonnull align 8 dereferenceable(36) %_M_storage.i.i.i.i.i1896)
          to label %invoke.cont7.i1900 unwind label %_ZNSt8_Rb_treeIN4pbrt6SDEdgeESt4pairIKS1_PNS0_8SDVertexEESt10_Select1stIS6_ESt4lessIS1_ESaIS6_EE10_Auto_nodeD2Ev.exit.i1899

invoke.cont7.i1900:                               ; preds = %call5.i.i.i.i.i.i.noexc1920
  %188 = extractvalue { ptr, ptr } %call8.i1898, 0
  %189 = extractvalue { ptr, ptr } %call8.i1898, 1
  %tobool.not.i1901 = icmp eq ptr %189, null
  br i1 %tobool.not.i1901, label %if.then.i7.i1919, label %if.then.i1902

if.then.i1902:                                    ; preds = %invoke.cont7.i1900
  %cmp.not.i.i.i1903 = icmp ne ptr %188, null
  %cmp2.i.i.i1905 = icmp eq ptr %64, %189
  %or.cond.i.i.i1906 = or i1 %cmp.not.i.i.i1903, %cmp2.i.i.i1905
  br i1 %or.cond.i.i.i1906, label %cleanup.thread.i1915, label %lor.rhs.i.i.i1907

lor.rhs.i.i.i1907:                                ; preds = %if.then.i1902
  %_M_storage.i.i.i.i.i.i1908 = getelementptr inbounds %"struct.std::_Rb_tree_node", ptr %189, i64 0, i32 1
  %190 = load ptr, ptr %_M_storage.i.i.i.i.i1896, align 8
  %191 = load ptr, ptr %_M_storage.i.i.i.i.i.i1908, align 8
  %cmp.i.i.i.i.i1909 = icmp eq ptr %190, %191
  %arrayidx5.i.i.i.i.i1910 = getelementptr inbounds %"struct.std::_Rb_tree_node", ptr %call5.i.i.i.i.i.i1921, i64 0, i32 1, i32 0, i64 8
  %192 = load ptr, ptr %arrayidx5.i.i.i.i.i1910, align 8
  %arrayidx7.i.i.i.i.i1911 = getelementptr inbounds %"struct.std::_Rb_tree_node", ptr %189, i64 0, i32 1, i32 0, i64 8
  %193 = load ptr, ptr %arrayidx7.i.i.i.i.i1911, align 8
  %cmp8.i.i.i.i.i1912 = icmp ult ptr %192, %193
  %cmp13.i.i.i.i.i1913 = icmp ult ptr %190, %191
  %retval.0.i.i.i.i.i1914 = select i1 %cmp.i.i.i.i.i1909, i1 %cmp8.i.i.i.i.i1912, i1 %cmp13.i.i.i.i.i1913
  br label %cleanup.thread.i1915

cleanup.thread.i1915:                             ; preds = %lor.rhs.i.i.i1907, %if.then.i1902
  %194 = phi i1 [ true, %if.then.i1902 ], [ %retval.0.i.i.i.i.i1914, %lor.rhs.i.i.i1907 ]
  call void @_ZSt29_Rb_tree_insert_and_rebalancebPSt18_Rb_tree_node_baseS0_RS_(i1 noundef zeroext %194, ptr noundef nonnull %call5.i.i.i.i.i.i1921, ptr noundef nonnull %189, ptr noundef nonnull align 8 dereferenceable(32) %64) #21
  %195 = load i64, ptr %_M_node_count.i.i.i.i.i534, align 8
  %inc.i.i.i1917 = add i64 %195, 1
  store i64 %inc.i.i.i1917, ptr %_M_node_count.i.i.i.i.i534, align 8
  br label %invoke.cont390

_ZNSt8_Rb_treeIN4pbrt6SDEdgeESt4pairIKS1_PNS0_8SDVertexEESt10_Select1stIS6_ESt4lessIS1_ESaIS6_EE10_Auto_nodeD2Ev.exit.i1899: ; preds = %call5.i.i.i.i.i.i.noexc1920
  %196 = landingpad { ptr, i32 }
          cleanup
  call void @_ZdlPv(ptr noundef nonnull %call5.i.i.i.i.i.i1921) #19
  br label %lpad288.body

if.then.i7.i1919:                                 ; preds = %invoke.cont7.i1900
  call void @_ZdlPv(ptr noundef nonnull %call5.i.i.i.i.i.i1921) #19
  br label %invoke.cont390

invoke.cont390:                                   ; preds = %lor.rhs.i711, %if.then.i7.i1919, %cleanup.thread.i1915
  %__i.sroa.0.0.i718 = phi ptr [ %__y.addr.1.i.i.i.i705, %lor.rhs.i711 ], [ %call5.i.i.i.i.i.i1921, %cleanup.thread.i1915 ], [ %188, %if.then.i7.i1919 ]
  %second.i719 = getelementptr inbounds %"struct.std::_Rb_tree_node", ptr %__i.sroa.0.0.i718, i64 0, i32 1, i32 0, i64 40
  store ptr %call.i.i.i.i558, ptr %second.i719, align 8
  br label %for.inc393

for.inc393:                                       ; preds = %invoke.cont290, %invoke.cont390
  %newVertices.sroa.19.6 = phi ptr [ %newVertices.sroa.19.5, %invoke.cont390 ], [ %newVertices.sroa.19.42672, %invoke.cont290 ]
  %newVertices.sroa.9.6 = phi ptr [ %newVertices.sroa.9.5, %invoke.cont390 ], [ %newVertices.sroa.9.42673, %invoke.cont290 ]
  %newVertices.sroa.0.10 = phi ptr [ %newVertices.sroa.0.5, %invoke.cont390 ], [ %newVertices.sroa.0.42674, %invoke.cont290 ]
  %exitcond2980.not = icmp eq i64 %indvars.iv.next2978, 3
  br i1 %exitcond2980.not, label %for.inc396, label %invoke.cont289, !llvm.loop !34

for.inc396:                                       ; preds = %for.inc393
  %incdec.ptr.i725 = getelementptr inbounds ptr, ptr %__begin2265.sroa.0.02677, i64 1
  %cmp.i536.not = icmp eq ptr %incdec.ptr.i725, %f148.sroa.14.02697
  br i1 %cmp.i536.not, label %for.cond406.preheader, label %for.body273

for.cond430.preheader:                            ; preds = %invoke.cont412, %for.cond406.preheader
  br i1 %cmp.i323.not2661, label %for.end574, label %for.body432

for.body408:                                      ; preds = %for.cond406.preheader, %invoke.cont412
  %__begin2400.sroa.0.02684 = phi ptr [ %incdec.ptr.i736, %invoke.cont412 ], [ %v150.sroa.0.02695, %for.cond406.preheader ]
  %197 = load ptr, ptr %__begin2400.sroa.0.02684, align 8
  %startFace411 = getelementptr inbounds %"struct.pbrt::SDVertex", ptr %197, i64 0, i32 2
  %198 = load ptr, ptr %startFace411, align 8
  br label %for.body.i728

for.body.i728:                                    ; preds = %for.inc.i, %for.body408
  %indvars.iv.i729 = phi i64 [ 0, %for.body408 ], [ %indvars.iv.next.i731, %for.inc.i ]
  %arrayidx.i730 = getelementptr inbounds [3 x ptr], ptr %198, i64 0, i64 %indvars.iv.i729
  %199 = load ptr, ptr %arrayidx.i730, align 8
  %cmp2.i = icmp eq ptr %199, %197
  br i1 %cmp2.i, label %invoke.cont412, label %for.inc.i

for.inc.i:                                        ; preds = %for.body.i728
  %indvars.iv.next.i731 = add nuw nsw i64 %indvars.iv.i729, 1
  %exitcond.not.i732 = icmp eq i64 %indvars.iv.next.i731, 3
  br i1 %exitcond.not.i732, label %for.end.i733.invoke, label %for.body.i728, !llvm.loop !23

for.end.i733.invoke:                              ; preds = %for.inc.i, %for.inc.i743, %for.inc.i754
  invoke void @_ZN4pbrt8LogFatalENS_8LogLevelEPKciS2_(i32 noundef 2, ptr noundef nonnull @.str, i32 noundef 58, ptr noundef nonnull @.str.3) #18
          to label %for.end.i733.cont unwind label %lpad288.loopexit.split-lp.loopexit.split-lp.loopexit.split-lp

for.end.i733.cont:                                ; preds = %for.end.i733.invoke
  unreachable

invoke.cont412:                                   ; preds = %for.body.i728
  %sext2218 = shl i64 %indvars.iv.i729, 32
  %idxprom416 = ashr exact i64 %sext2218, 32
  %arrayidx417 = getelementptr inbounds %"struct.pbrt::SDFace", ptr %198, i64 0, i32 2, i64 %idxprom416
  %200 = load ptr, ptr %arrayidx417, align 8
  %child418 = getelementptr inbounds %"struct.pbrt::SDVertex", ptr %197, i64 0, i32 3
  %201 = load ptr, ptr %child418, align 8
  %startFace419 = getelementptr inbounds %"struct.pbrt::SDVertex", ptr %201, i64 0, i32 2
  store ptr %200, ptr %startFace419, align 8
  %incdec.ptr.i736 = getelementptr inbounds ptr, ptr %__begin2400.sroa.0.02684, i64 1
  %cmp.i727.not = icmp eq ptr %incdec.ptr.i736, %v150.sroa.23.02694
  br i1 %cmp.i727.not, label %for.cond430.preheader, label %for.body408

for.cond516.preheader:                            ; preds = %for.inc506
  br i1 %cmp.i323.not2661, label %for.end574, label %for.body518

for.body432:                                      ; preds = %for.cond430.preheader, %for.inc506
  %__begin2424.sroa.0.02687 = phi ptr [ %incdec.ptr.i761, %for.inc506 ], [ %f148.sroa.0.02698, %for.cond430.preheader ]
  %202 = load ptr, ptr %__begin2424.sroa.0.02687, align 8
  %arrayidx445 = getelementptr inbounds %"struct.pbrt::SDFace", ptr %202, i64 0, i32 2, i64 3
  br label %for.body438

for.body438:                                      ; preds = %for.body432, %cond.end493
  %indvars.iv2981 = phi i64 [ 0, %for.body432 ], [ %indvars.iv.next2982, %cond.end493 ]
  %indvars.iv.next2982 = add nuw nsw i64 %indvars.iv2981, 1
  %203 = icmp eq i64 %indvars.iv.next2982, 3
  %204 = and i64 %indvars.iv.next2982, 4294967295
  %idxprom442 = select i1 %203, i64 0, i64 %204
  %arrayidx443 = getelementptr inbounds %"struct.pbrt::SDFace", ptr %202, i64 0, i32 2, i64 %idxprom442
  %205 = load ptr, ptr %arrayidx443, align 8
  %206 = load ptr, ptr %arrayidx445, align 8
  %arrayidx448 = getelementptr inbounds %"struct.pbrt::SDFace", ptr %206, i64 0, i32 1, i64 %indvars.iv2981
  store ptr %205, ptr %arrayidx448, align 8
  %207 = load ptr, ptr %arrayidx445, align 8
  %arrayidx453 = getelementptr inbounds %"struct.pbrt::SDFace", ptr %202, i64 0, i32 2, i64 %indvars.iv2981
  %208 = load ptr, ptr %arrayidx453, align 8
  %arrayidx458 = getelementptr inbounds %"struct.pbrt::SDFace", ptr %208, i64 0, i32 1, i64 %idxprom442
  store ptr %207, ptr %arrayidx458, align 8
  %arrayidx461 = getelementptr inbounds %"struct.pbrt::SDFace", ptr %202, i64 0, i32 1, i64 %indvars.iv2981
  %209 = load ptr, ptr %arrayidx461, align 8
  %cmp462.not = icmp eq ptr %209, null
  br i1 %cmp462.not, label %cond.end, label %cond.true

cond.true:                                        ; preds = %for.body438
  %arrayidx466 = getelementptr inbounds [3 x ptr], ptr %202, i64 0, i64 %indvars.iv2981
  %210 = load ptr, ptr %arrayidx466, align 8
  br label %for.body.i739

for.body.i739:                                    ; preds = %for.inc.i743, %cond.true
  %indvars.iv.i740 = phi i64 [ 0, %cond.true ], [ %indvars.iv.next.i744, %for.inc.i743 ]
  %arrayidx.i741 = getelementptr inbounds [3 x ptr], ptr %209, i64 0, i64 %indvars.iv.i740
  %211 = load ptr, ptr %arrayidx.i741, align 8
  %cmp2.i742 = icmp eq ptr %211, %210
  br i1 %cmp2.i742, label %invoke.cont467, label %for.inc.i743

for.inc.i743:                                     ; preds = %for.body.i739
  %indvars.iv.next.i744 = add nuw nsw i64 %indvars.iv.i740, 1
  %exitcond.not.i745 = icmp eq i64 %indvars.iv.next.i744, 3
  br i1 %exitcond.not.i745, label %for.end.i733.invoke, label %for.body.i739, !llvm.loop !23

invoke.cont467:                                   ; preds = %for.body.i739
  %sext = shl i64 %indvars.iv.i740, 32
  %idxprom469 = ashr exact i64 %sext, 32
  %arrayidx470 = getelementptr inbounds %"struct.pbrt::SDFace", ptr %209, i64 0, i32 2, i64 %idxprom469
  %212 = load ptr, ptr %arrayidx470, align 8
  br label %cond.end

cond.end:                                         ; preds = %for.body438, %invoke.cont467
  %cond = phi ptr [ %212, %invoke.cont467 ], [ null, %for.body438 ]
  %213 = load ptr, ptr %arrayidx453, align 8
  %arrayidx476 = getelementptr inbounds %"struct.pbrt::SDFace", ptr %213, i64 0, i32 1, i64 %indvars.iv2981
  store ptr %cond, ptr %arrayidx476, align 8
  %214 = trunc i64 %indvars.iv2981 to i32
  %215 = add i32 %214, 2
  %rem479 = urem i32 %215, 3
  %idxprom480 = zext nneg i32 %rem479 to i64
  %arrayidx481 = getelementptr inbounds %"struct.pbrt::SDFace", ptr %202, i64 0, i32 1, i64 %idxprom480
  %216 = load ptr, ptr %arrayidx481, align 8
  %cmp482.not = icmp eq ptr %216, null
  br i1 %cmp482.not, label %cond.end493, label %cond.true483

cond.true483:                                     ; preds = %cond.end
  %arrayidx487 = getelementptr inbounds [3 x ptr], ptr %202, i64 0, i64 %indvars.iv2981
  %217 = load ptr, ptr %arrayidx487, align 8
  br label %for.body.i750

for.body.i750:                                    ; preds = %for.inc.i754, %cond.true483
  %indvars.iv.i751 = phi i64 [ 0, %cond.true483 ], [ %indvars.iv.next.i755, %for.inc.i754 ]
  %arrayidx.i752 = getelementptr inbounds [3 x ptr], ptr %216, i64 0, i64 %indvars.iv.i751
  %218 = load ptr, ptr %arrayidx.i752, align 8
  %cmp2.i753 = icmp eq ptr %218, %217
  br i1 %cmp2.i753, label %invoke.cont488, label %for.inc.i754

for.inc.i754:                                     ; preds = %for.body.i750
  %indvars.iv.next.i755 = add nuw nsw i64 %indvars.iv.i751, 1
  %exitcond.not.i756 = icmp eq i64 %indvars.iv.next.i755, 3
  br i1 %exitcond.not.i756, label %for.end.i733.invoke, label %for.body.i750, !llvm.loop !23

invoke.cont488:                                   ; preds = %for.body.i750
  %sext2217 = shl i64 %indvars.iv.i751, 32
  %idxprom490 = ashr exact i64 %sext2217, 32
  %arrayidx491 = getelementptr inbounds %"struct.pbrt::SDFace", ptr %216, i64 0, i32 2, i64 %idxprom490
  %219 = load ptr, ptr %arrayidx491, align 8
  br label %cond.end493

cond.end493:                                      ; preds = %cond.end, %invoke.cont488
  %cond494 = phi ptr [ %219, %invoke.cont488 ], [ null, %cond.end ]
  %220 = load ptr, ptr %arrayidx453, align 8
  %arrayidx502 = getelementptr inbounds %"struct.pbrt::SDFace", ptr %220, i64 0, i32 1, i64 %idxprom480
  store ptr %cond494, ptr %arrayidx502, align 8
  %exitcond2985.not = icmp eq i64 %indvars.iv.next2982, 3
  br i1 %exitcond2985.not, label %for.inc506, label %for.body438, !llvm.loop !35

for.inc506:                                       ; preds = %cond.end493
  %incdec.ptr.i761 = getelementptr inbounds ptr, ptr %__begin2424.sroa.0.02687, i64 1
  %cmp.i738.not = icmp eq ptr %incdec.ptr.i761, %f148.sroa.14.02697
  br i1 %cmp.i738.not, label %for.cond516.preheader, label %for.body432

for.body518:                                      ; preds = %for.cond516.preheader, %for.inc572
  %__begin2510.sroa.0.02691 = phi ptr [ %incdec.ptr.i808, %for.inc572 ], [ %f148.sroa.0.02698, %for.cond516.preheader ]
  %221 = load ptr, ptr %__begin2510.sroa.0.02691, align 8
  %arrayidx565 = getelementptr inbounds %"struct.pbrt::SDFace", ptr %221, i64 0, i32 2, i64 3
  br label %invoke.cont545

invoke.cont545:                                   ; preds = %for.body518, %invoke.cont546
  %indvars.iv2986 = phi i64 [ 0, %for.body518 ], [ %indvars.iv.next2987, %invoke.cont546 ]
  %arrayidx527 = getelementptr inbounds [3 x ptr], ptr %221, i64 0, i64 %indvars.iv2986
  %222 = load ptr, ptr %arrayidx527, align 8
  %child528 = getelementptr inbounds %"struct.pbrt::SDVertex", ptr %222, i64 0, i32 3
  %223 = load ptr, ptr %child528, align 8
  %arrayidx531 = getelementptr inbounds %"struct.pbrt::SDFace", ptr %221, i64 0, i32 2, i64 %indvars.iv2986
  %224 = load ptr, ptr %arrayidx531, align 8
  %arrayidx534 = getelementptr inbounds [3 x ptr], ptr %224, i64 0, i64 %indvars.iv2986
  store ptr %223, ptr %arrayidx534, align 8
  %225 = load ptr, ptr %arrayidx527, align 8
  %indvars.iv.next2987 = add nuw nsw i64 %indvars.iv2986, 1
  %226 = icmp eq i64 %indvars.iv.next2987, 3
  %227 = and i64 %indvars.iv.next2987, 4294967295
  %idxprom543 = select i1 %226, i64 0, i64 %227
  %arrayidx544 = getelementptr inbounds [3 x ptr], ptr %221, i64 0, i64 %idxprom543
  %228 = load ptr, ptr %arrayidx544, align 8
  %cmp.i.i764 = icmp ult ptr %228, %225
  %.sroa.speculated6.i765 = select i1 %cmp.i.i764, ptr %228, ptr %225
  %cmp.i1.i766 = icmp ult ptr %225, %228
  %.sroa.speculated.i767 = select i1 %cmp.i1.i766, ptr %228, ptr %225
  %229 = load ptr, ptr %_M_parent.i.i.i.i.i531, align 8
  %cmp.not5.i.i.i.i775 = icmp eq ptr %229, null
  br i1 %cmp.not5.i.i.i.i775, label %if.then.i804, label %while.body.i.i.i.i778

while.body.i.i.i.i778:                            ; preds = %invoke.cont545, %while.body.i.i.i.i778
  %__x.addr.07.i.i.i.i779 = phi ptr [ %__x.addr.1.i.i.i.i791, %while.body.i.i.i.i778 ], [ %229, %invoke.cont545 ]
  %__y.addr.06.i.i.i.i780 = phi ptr [ %__y.addr.1.i.i.i.i789, %while.body.i.i.i.i778 ], [ %64, %invoke.cont545 ]
  %_M_storage.i.i.i.i.i.i781 = getelementptr inbounds %"struct.std::_Rb_tree_node", ptr %__x.addr.07.i.i.i.i779, i64 0, i32 1
  %230 = load ptr, ptr %_M_storage.i.i.i.i.i.i781, align 8
  %cmp.i.i.i.i.i.i782 = icmp eq ptr %230, %.sroa.speculated6.i765
  %arrayidx5.i.i.i.i.i.i783 = getelementptr inbounds %"struct.std::_Rb_tree_node", ptr %__x.addr.07.i.i.i.i779, i64 0, i32 1, i32 0, i64 8
  %231 = load ptr, ptr %arrayidx5.i.i.i.i.i.i783, align 8
  %cmp8.i.i.i.i.i.i784 = icmp ult ptr %231, %.sroa.speculated.i767
  %cmp13.i.i.i.i.i.i785 = icmp ult ptr %230, %.sroa.speculated6.i765
  %retval.0.i.i.i.i.i.i786 = select i1 %cmp.i.i.i.i.i.i782, i1 %cmp8.i.i.i.i.i.i784, i1 %cmp13.i.i.i.i.i.i785
  %_M_right.i.i.i.i.i787 = getelementptr inbounds %"struct.std::_Rb_tree_node_base", ptr %__x.addr.07.i.i.i.i779, i64 0, i32 3
  %_M_left.i.i.i.i.i788 = getelementptr inbounds %"struct.std::_Rb_tree_node_base", ptr %__x.addr.07.i.i.i.i779, i64 0, i32 2
  %__y.addr.1.i.i.i.i789 = select i1 %retval.0.i.i.i.i.i.i786, ptr %__y.addr.06.i.i.i.i780, ptr %__x.addr.07.i.i.i.i779
  %__x.addr.1.in.i.i.i.i790 = select i1 %retval.0.i.i.i.i.i.i786, ptr %_M_right.i.i.i.i.i787, ptr %_M_left.i.i.i.i.i788
  %__x.addr.1.i.i.i.i791 = load ptr, ptr %__x.addr.1.in.i.i.i.i790, align 8
  %cmp.not.i.i.i.i792 = icmp eq ptr %__x.addr.1.i.i.i.i791, null
  br i1 %cmp.not.i.i.i.i792, label %_ZNSt3mapIN4pbrt6SDEdgeEPNS0_8SDVertexESt4lessIS1_ESaISt4pairIKS1_S3_EEE11lower_boundERS7_.exit.i793, label %while.body.i.i.i.i778, !llvm.loop !32

_ZNSt3mapIN4pbrt6SDEdgeEPNS0_8SDVertexESt4lessIS1_ESaISt4pairIKS1_S3_EEE11lower_boundERS7_.exit.i793: ; preds = %while.body.i.i.i.i778
  %cmp.i.i794 = icmp eq ptr %__y.addr.1.i.i.i.i789, %64
  br i1 %cmp.i.i794, label %if.then.i804, label %lor.rhs.i795

lor.rhs.i795:                                     ; preds = %_ZNSt3mapIN4pbrt6SDEdgeEPNS0_8SDVertexESt4lessIS1_ESaISt4pairIKS1_S3_EEE11lower_boundERS7_.exit.i793
  %arrayidx5.i.i.i.i.i.i783.le = getelementptr inbounds %"struct.std::_Rb_tree_node", ptr %__x.addr.07.i.i.i.i779, i64 0, i32 1, i32 0, i64 8
  %_M_storage.i.i.i.i.i.i781.le = getelementptr inbounds %"struct.std::_Rb_tree_node", ptr %__x.addr.07.i.i.i.i779, i64 0, i32 1
  %__y.addr.06.i.i.i.i780.sroa.gep = getelementptr inbounds %"struct.std::_Rb_tree_node", ptr %__y.addr.06.i.i.i.i780, i64 0, i32 1
  %__y.addr.1.i.i.i.i789.sroa.sel = select i1 %retval.0.i.i.i.i.i.i786, ptr %__y.addr.06.i.i.i.i780.sroa.gep, ptr %_M_storage.i.i.i.i.i.i781.le
  %232 = load ptr, ptr %__y.addr.1.i.i.i.i789.sroa.sel, align 8
  %cmp.i.i.i797 = icmp eq ptr %.sroa.speculated6.i765, %232
  %__y.addr.06.i.i.i.i780.sroa.gep2075 = getelementptr inbounds %"struct.std::_Rb_tree_node", ptr %__y.addr.06.i.i.i.i780, i64 0, i32 1, i32 0, i64 8
  %__y.addr.1.i.i.i.i789.sroa.sel2077 = select i1 %retval.0.i.i.i.i.i.i786, ptr %__y.addr.06.i.i.i.i780.sroa.gep2075, ptr %arrayidx5.i.i.i.i.i.i783.le
  %233 = load ptr, ptr %__y.addr.1.i.i.i.i789.sroa.sel2077, align 8
  %cmp8.i.i.i799 = icmp ult ptr %.sroa.speculated.i767, %233
  %cmp13.i.i.i800 = icmp ult ptr %.sroa.speculated6.i765, %232
  %retval.0.i.i.i801 = select i1 %cmp.i.i.i797, i1 %cmp8.i.i.i799, i1 %cmp13.i.i.i800
  br i1 %retval.0.i.i.i801, label %if.then.i804, label %invoke.cont546

if.then.i804:                                     ; preds = %lor.rhs.i795, %_ZNSt3mapIN4pbrt6SDEdgeEPNS0_8SDVertexESt4lessIS1_ESaISt4pairIKS1_S3_EEE11lower_boundERS7_.exit.i793, %invoke.cont545
  %__y.addr.0.lcssa.i.i.i9.i805 = phi ptr [ %64, %_ZNSt3mapIN4pbrt6SDEdgeEPNS0_8SDVertexESt4lessIS1_ESaISt4pairIKS1_S3_EEE11lower_boundERS7_.exit.i793 ], [ %__y.addr.1.i.i.i.i789, %lor.rhs.i795 ], [ %64, %invoke.cont545 ]
  %call5.i.i.i.i.i.i1951 = invoke noalias noundef nonnull dereferenceable(80) ptr @_Znwm(i64 noundef 80) #17
          to label %call5.i.i.i.i.i.i.noexc1950 unwind label %lpad288.loopexit

call5.i.i.i.i.i.i.noexc1950:                      ; preds = %if.then.i804
  %_M_storage.i.i.i.i.i1926 = getelementptr inbounds %"struct.std::_Rb_tree_node", ptr %call5.i.i.i.i.i.i1951, i64 0, i32 1
  store ptr %.sroa.speculated6.i765, ptr %_M_storage.i.i.i.i.i1926, align 8
  %ref.tmp536.sroa.2.0._M_storage.i.i.i.i.i1926.sroa_idx = getelementptr inbounds %"struct.std::_Rb_tree_node", ptr %call5.i.i.i.i.i.i1951, i64 0, i32 1, i32 0, i64 8
  store ptr %.sroa.speculated.i767, ptr %ref.tmp536.sroa.2.0._M_storage.i.i.i.i.i1926.sroa_idx, align 8
  %ref.tmp536.sroa.3.0._M_storage.i.i.i.i.i1926.sroa_idx = getelementptr inbounds %"struct.std::_Rb_tree_node", ptr %call5.i.i.i.i.i.i1951, i64 0, i32 1, i32 0, i64 16
  call void @llvm.memset.p0.i64(ptr noundef nonnull align 8 dereferenceable(16) %ref.tmp536.sroa.3.0._M_storage.i.i.i.i.i1926.sroa_idx, i8 0, i64 16, i1 false)
  %ref.tmp536.sroa.4.0._M_storage.i.i.i.i.i1926.sroa_idx = getelementptr inbounds %"struct.std::_Rb_tree_node", ptr %call5.i.i.i.i.i.i1951, i64 0, i32 1, i32 0, i64 32
  store i32 -1, ptr %ref.tmp536.sroa.4.0._M_storage.i.i.i.i.i1926.sroa_idx, align 8
  %second.i.i.i.i.i.i.i.i1927 = getelementptr inbounds %"struct.std::_Rb_tree_node", ptr %call5.i.i.i.i.i.i1951, i64 0, i32 1, i32 0, i64 40
  store ptr null, ptr %second.i.i.i.i.i.i.i.i1927, align 8
  %call8.i1928 = invoke { ptr, ptr } @_ZNSt8_Rb_treeIN4pbrt6SDEdgeESt4pairIKS1_PNS0_8SDVertexEESt10_Select1stIS6_ESt4lessIS1_ESaIS6_EE29_M_get_insert_hint_unique_posESt23_Rb_tree_const_iteratorIS6_ERS3_(ptr noundef nonnull align 8 dereferenceable(48) %edgeVerts, ptr %__y.addr.0.lcssa.i.i.i9.i805, ptr noundef nonnull align 8 dereferenceable(36) %_M_storage.i.i.i.i.i1926)
          to label %invoke.cont7.i1930 unwind label %_ZNSt8_Rb_treeIN4pbrt6SDEdgeESt4pairIKS1_PNS0_8SDVertexEESt10_Select1stIS6_ESt4lessIS1_ESaIS6_EE10_Auto_nodeD2Ev.exit.i1929

invoke.cont7.i1930:                               ; preds = %call5.i.i.i.i.i.i.noexc1950
  %234 = extractvalue { ptr, ptr } %call8.i1928, 0
  %235 = extractvalue { ptr, ptr } %call8.i1928, 1
  %tobool.not.i1931 = icmp eq ptr %235, null
  br i1 %tobool.not.i1931, label %if.then.i7.i1949, label %if.then.i1932

if.then.i1932:                                    ; preds = %invoke.cont7.i1930
  %cmp.not.i.i.i1933 = icmp ne ptr %234, null
  %cmp2.i.i.i1935 = icmp eq ptr %64, %235
  %or.cond.i.i.i1936 = or i1 %cmp.not.i.i.i1933, %cmp2.i.i.i1935
  br i1 %or.cond.i.i.i1936, label %cleanup.thread.i1945, label %lor.rhs.i.i.i1937

lor.rhs.i.i.i1937:                                ; preds = %if.then.i1932
  %_M_storage.i.i.i.i.i.i1938 = getelementptr inbounds %"struct.std::_Rb_tree_node", ptr %235, i64 0, i32 1
  %236 = load ptr, ptr %_M_storage.i.i.i.i.i1926, align 8
  %237 = load ptr, ptr %_M_storage.i.i.i.i.i.i1938, align 8
  %cmp.i.i.i.i.i1939 = icmp eq ptr %236, %237
  %arrayidx5.i.i.i.i.i1940 = getelementptr inbounds %"struct.std::_Rb_tree_node", ptr %call5.i.i.i.i.i.i1951, i64 0, i32 1, i32 0, i64 8
  %238 = load ptr, ptr %arrayidx5.i.i.i.i.i1940, align 8
  %arrayidx7.i.i.i.i.i1941 = getelementptr inbounds %"struct.std::_Rb_tree_node", ptr %235, i64 0, i32 1, i32 0, i64 8
  %239 = load ptr, ptr %arrayidx7.i.i.i.i.i1941, align 8
  %cmp8.i.i.i.i.i1942 = icmp ult ptr %238, %239
  %cmp13.i.i.i.i.i1943 = icmp ult ptr %236, %237
  %retval.0.i.i.i.i.i1944 = select i1 %cmp.i.i.i.i.i1939, i1 %cmp8.i.i.i.i.i1942, i1 %cmp13.i.i.i.i.i1943
  br label %cleanup.thread.i1945

cleanup.thread.i1945:                             ; preds = %lor.rhs.i.i.i1937, %if.then.i1932
  %240 = phi i1 [ true, %if.then.i1932 ], [ %retval.0.i.i.i.i.i1944, %lor.rhs.i.i.i1937 ]
  call void @_ZSt29_Rb_tree_insert_and_rebalancebPSt18_Rb_tree_node_baseS0_RS_(i1 noundef zeroext %240, ptr noundef nonnull %call5.i.i.i.i.i.i1951, ptr noundef nonnull %235, ptr noundef nonnull align 8 dereferenceable(32) %64) #21
  %241 = load i64, ptr %_M_node_count.i.i.i.i.i534, align 8
  %inc.i.i.i1947 = add i64 %241, 1
  store i64 %inc.i.i.i1947, ptr %_M_node_count.i.i.i.i.i534, align 8
  br label %invoke.cont546

_ZNSt8_Rb_treeIN4pbrt6SDEdgeESt4pairIKS1_PNS0_8SDVertexEESt10_Select1stIS6_ESt4lessIS1_ESaIS6_EE10_Auto_nodeD2Ev.exit.i1929: ; preds = %call5.i.i.i.i.i.i.noexc1950
  %242 = landingpad { ptr, i32 }
          cleanup
  call void @_ZdlPv(ptr noundef nonnull %call5.i.i.i.i.i.i1951) #19
  br label %lpad288.body

if.then.i7.i1949:                                 ; preds = %invoke.cont7.i1930
  call void @_ZdlPv(ptr noundef nonnull %call5.i.i.i.i.i.i1951) #19
  br label %invoke.cont546

invoke.cont546:                                   ; preds = %lor.rhs.i795, %if.then.i7.i1949, %cleanup.thread.i1945
  %__i.sroa.0.0.i802 = phi ptr [ %__y.addr.1.i.i.i.i789, %lor.rhs.i795 ], [ %call5.i.i.i.i.i.i1951, %cleanup.thread.i1945 ], [ %234, %if.then.i7.i1949 ]
  %second.i803 = getelementptr inbounds %"struct.std::_Rb_tree_node", ptr %__i.sroa.0.0.i802, i64 0, i32 1, i32 0, i64 40
  %243 = load ptr, ptr %second.i803, align 8
  %244 = load ptr, ptr %arrayidx531, align 8
  %arrayidx555 = getelementptr inbounds [3 x ptr], ptr %244, i64 0, i64 %idxprom543
  store ptr %243, ptr %arrayidx555, align 8
  %arrayidx560 = getelementptr inbounds %"struct.pbrt::SDFace", ptr %221, i64 0, i32 2, i64 %idxprom543
  %245 = load ptr, ptr %arrayidx560, align 8
  %arrayidx563 = getelementptr inbounds [3 x ptr], ptr %245, i64 0, i64 %indvars.iv2986
  store ptr %243, ptr %arrayidx563, align 8
  %246 = load ptr, ptr %arrayidx565, align 8
  %arrayidx568 = getelementptr inbounds [3 x ptr], ptr %246, i64 0, i64 %indvars.iv2986
  store ptr %243, ptr %arrayidx568, align 8
  %exitcond2989.not = icmp eq i64 %indvars.iv.next2987, 3
  br i1 %exitcond2989.not, label %for.inc572, label %invoke.cont545, !llvm.loop !36

for.inc572:                                       ; preds = %invoke.cont546
  %incdec.ptr.i808 = getelementptr inbounds ptr, ptr %__begin2510.sroa.0.02691, i64 1
  %cmp.i763.not = icmp eq ptr %incdec.ptr.i808, %f148.sroa.14.02697
  br i1 %cmp.i763.not, label %for.end574, label %for.body518

for.end574:                                       ; preds = %for.inc572, %for.cond430.preheader, %for.cond516.preheader
  %sub.ptr.lhs.cast.i.i811 = ptrtoint ptr %newFaces.sroa.7.1.lcssa to i64
  %sub.ptr.rhs.cast.i.i812 = ptrtoint ptr %newFaces.sroa.0.5.lcssa to i64
  %sub.ptr.sub.i.i813 = sub i64 %sub.ptr.lhs.cast.i.i811, %sub.ptr.rhs.cast.i.i812
  %sub.ptr.div.i.i814 = ashr exact i64 %sub.ptr.sub.i.i813, 3
  %sub.ptr.lhs.cast.i14.i = ptrtoint ptr %f148.sroa.24.02696 to i64
  %sub.ptr.rhs.cast.i15.i = ptrtoint ptr %f148.sroa.0.02698 to i64
  %sub.ptr.sub.i16.i = sub i64 %sub.ptr.lhs.cast.i14.i, %sub.ptr.rhs.cast.i15.i
  %sub.ptr.div.i17.i = ashr exact i64 %sub.ptr.sub.i16.i, 3
  %cmp3.i = icmp ugt i64 %sub.ptr.div.i.i814, %sub.ptr.div.i17.i
  br i1 %cmp3.i, label %cond.true.i.i.i, label %if.else.i816

cond.true.i.i.i:                                  ; preds = %for.end574
  %cmp.i.i.i.i.i823 = icmp ugt i64 %sub.ptr.div.i.i814, 1152921504606846975
  br i1 %cmp.i.i.i.i.i823, label %if.then3.i.i.i.i.i, label %_ZNSt12_Vector_baseIPN4pbrt6SDFaceESaIS2_EE11_M_allocateEm.exit.i.i824

if.then3.i.i.i.i.i:                               ; preds = %cond.true.i.i.i
  invoke void @_ZSt28__throw_bad_array_new_lengthv() #18
          to label %.noexc828 unwind label %lpad288.loopexit.split-lp.loopexit.split-lp.loopexit.split-lp

.noexc828:                                        ; preds = %if.then3.i.i.i.i.i
  unreachable

_ZNSt12_Vector_baseIPN4pbrt6SDFaceESaIS2_EE11_M_allocateEm.exit.i.i824: ; preds = %cond.true.i.i.i
  %call5.i.i.i.i.i830 = invoke noalias noundef nonnull ptr @_Znwm(i64 noundef %sub.ptr.sub.i.i813) #17
          to label %call5.i.i.i.i.i.noexc829 unwind label %lpad288.loopexit.split-lp.loopexit.split-lp.loopexit

call5.i.i.i.i.i.noexc829:                         ; preds = %_ZNSt12_Vector_baseIPN4pbrt6SDFaceESaIS2_EE11_M_allocateEm.exit.i.i824
  %tobool.not.i.i.i.i.i.i.i.i.i.i = icmp eq ptr %newFaces.sroa.7.1.lcssa, %newFaces.sroa.0.5.lcssa
  br i1 %tobool.not.i.i.i.i.i.i.i.i.i.i, label %_ZNSt6vectorIPN4pbrt6SDFaceESaIS2_EE20_M_allocate_and_copyIN9__gnu_cxx17__normal_iteratorIPKS2_S4_EEEEPS2_mT_SC_.exit.i, label %if.then.i.i.i.i.i.i.i.i.i.i

if.then.i.i.i.i.i.i.i.i.i.i:                      ; preds = %call5.i.i.i.i.i.noexc829
  call void @llvm.memcpy.p0.p0.i64(ptr nonnull align 8 %call5.i.i.i.i.i830, ptr align 8 %newFaces.sroa.0.5.lcssa, i64 %sub.ptr.sub.i.i813, i1 false)
  br label %_ZNSt6vectorIPN4pbrt6SDFaceESaIS2_EE20_M_allocate_and_copyIN9__gnu_cxx17__normal_iteratorIPKS2_S4_EEEEPS2_mT_SC_.exit.i

_ZNSt6vectorIPN4pbrt6SDFaceESaIS2_EE20_M_allocate_and_copyIN9__gnu_cxx17__normal_iteratorIPKS2_S4_EEEEPS2_mT_SC_.exit.i: ; preds = %if.then.i.i.i.i.i.i.i.i.i.i, %call5.i.i.i.i.i.noexc829
  %tobool.not.i.i825 = icmp eq ptr %f148.sroa.0.02698, null
  br i1 %tobool.not.i.i825, label %_ZNSt12_Vector_baseIPN4pbrt6SDFaceESaIS2_EE13_M_deallocateEPS2_m.exit.i, label %if.then.i.i826

if.then.i.i826:                                   ; preds = %_ZNSt6vectorIPN4pbrt6SDFaceESaIS2_EE20_M_allocate_and_copyIN9__gnu_cxx17__normal_iteratorIPKS2_S4_EEEEPS2_mT_SC_.exit.i
  call void @_ZdlPv(ptr noundef nonnull %f148.sroa.0.02698) #19
  br label %_ZNSt12_Vector_baseIPN4pbrt6SDFaceESaIS2_EE13_M_deallocateEPS2_m.exit.i

_ZNSt12_Vector_baseIPN4pbrt6SDFaceESaIS2_EE13_M_deallocateEPS2_m.exit.i: ; preds = %if.then.i.i826, %_ZNSt6vectorIPN4pbrt6SDFaceESaIS2_EE20_M_allocate_and_copyIN9__gnu_cxx17__normal_iteratorIPKS2_S4_EEEEPS2_mT_SC_.exit.i
  %add.ptr.i827 = getelementptr inbounds ptr, ptr %call5.i.i.i.i.i830, i64 %sub.ptr.div.i.i814
  br label %invoke.cont575

if.else.i816:                                     ; preds = %for.end574
  %sub.ptr.lhs.cast.i20.i = ptrtoint ptr %f148.sroa.14.02697 to i64
  %sub.ptr.sub.i22.i = sub i64 %sub.ptr.lhs.cast.i20.i, %sub.ptr.rhs.cast.i15.i
  %sub.ptr.div.i23.i = ashr exact i64 %sub.ptr.sub.i22.i, 3
  %cmp26.not.i = icmp ult i64 %sub.ptr.div.i23.i, %sub.ptr.div.i.i814
  br i1 %cmp26.not.i, label %if.else49.i, label %if.then27.i

if.then27.i:                                      ; preds = %if.else.i816
  %tobool.not.i.i.i.i.i.i = icmp eq ptr %newFaces.sroa.7.1.lcssa, %newFaces.sroa.0.5.lcssa
  br i1 %tobool.not.i.i.i.i.i.i, label %invoke.cont575, label %if.then.i.i.i.i.i.i

if.then.i.i.i.i.i.i:                              ; preds = %if.then27.i
  call void @llvm.memmove.p0.p0.i64(ptr align 8 %f148.sroa.0.02698, ptr align 8 %newFaces.sroa.0.5.lcssa, i64 %sub.ptr.sub.i.i813, i1 false)
  br label %invoke.cont575

if.else49.i:                                      ; preds = %if.else.i816
  br i1 %cmp.i323.not2661, label %_ZSt4copyIPPN4pbrt6SDFaceES3_ET0_T_S5_S4_.exit.i, label %if.then.i.i.i.i.i35.i

if.then.i.i.i.i.i35.i:                            ; preds = %if.else49.i
  call void @llvm.memmove.p0.p0.i64(ptr align 8 %f148.sroa.0.02698, ptr align 8 %newFaces.sroa.0.5.lcssa, i64 %sub.ptr.sub.i22.i, i1 false)
  br label %_ZSt4copyIPPN4pbrt6SDFaceES3_ET0_T_S5_S4_.exit.i

_ZSt4copyIPPN4pbrt6SDFaceES3_ET0_T_S5_S4_.exit.i: ; preds = %if.else49.i, %if.then.i.i.i.i.i35.i
  %sub.ptr.div.i42.i.pre-phi = phi i64 [ %sub.ptr.div.i23.i, %if.then.i.i.i.i.i35.i ], [ 0, %if.else49.i ]
  %247 = phi ptr [ %f148.sroa.14.02697, %if.then.i.i.i.i.i35.i ], [ %f148.sroa.0.02698, %if.else49.i ]
  %add.ptr62.i = getelementptr inbounds ptr, ptr %newFaces.sroa.0.5.lcssa, i64 %sub.ptr.div.i42.i.pre-phi
  %tobool.not.i.i.i.i.i.i.i.i.i818 = icmp eq ptr %newFaces.sroa.7.1.lcssa, %add.ptr62.i
  br i1 %tobool.not.i.i.i.i.i.i.i.i.i818, label %invoke.cont575, label %if.then.i.i.i.i.i.i.i.i.i819

if.then.i.i.i.i.i.i.i.i.i819:                     ; preds = %_ZSt4copyIPPN4pbrt6SDFaceES3_ET0_T_S5_S4_.exit.i
  %sub.ptr.rhs.cast.i.i.i.i.i.i.i.i.i821 = ptrtoint ptr %add.ptr62.i to i64
  %sub.ptr.sub.i.i.i.i.i.i.i.i.i822 = sub i64 %sub.ptr.lhs.cast.i.i811, %sub.ptr.rhs.cast.i.i.i.i.i.i.i.i.i821
  call void @llvm.memmove.p0.p0.i64(ptr align 8 %247, ptr align 8 %add.ptr62.i, i64 %sub.ptr.sub.i.i.i.i.i.i.i.i.i822, i1 false)
  br label %invoke.cont575

invoke.cont575:                                   ; preds = %if.then.i.i.i.i.i.i.i.i.i819, %_ZSt4copyIPPN4pbrt6SDFaceES3_ET0_T_S5_S4_.exit.i, %if.then.i.i.i.i.i.i, %if.then27.i, %_ZNSt12_Vector_baseIPN4pbrt6SDFaceESaIS2_EE13_M_deallocateEPS2_m.exit.i
  %f148.sroa.24.1 = phi ptr [ %add.ptr.i827, %_ZNSt12_Vector_baseIPN4pbrt6SDFaceESaIS2_EE13_M_deallocateEPS2_m.exit.i ], [ %f148.sroa.24.02696, %_ZSt4copyIPPN4pbrt6SDFaceES3_ET0_T_S5_S4_.exit.i ], [ %f148.sroa.24.02696, %if.then.i.i.i.i.i.i.i.i.i819 ], [ %f148.sroa.24.02696, %if.then27.i ], [ %f148.sroa.24.02696, %if.then.i.i.i.i.i.i ]
  %f148.sroa.0.5 = phi ptr [ %call5.i.i.i.i.i830, %_ZNSt12_Vector_baseIPN4pbrt6SDFaceESaIS2_EE13_M_deallocateEPS2_m.exit.i ], [ %f148.sroa.0.02698, %_ZSt4copyIPPN4pbrt6SDFaceES3_ET0_T_S5_S4_.exit.i ], [ %f148.sroa.0.02698, %if.then.i.i.i.i.i.i.i.i.i819 ], [ %f148.sroa.0.02698, %if.then27.i ], [ %f148.sroa.0.02698, %if.then.i.i.i.i.i.i ]
  %add.ptr72.i = getelementptr inbounds ptr, ptr %f148.sroa.0.5, i64 %sub.ptr.div.i.i814
  %sub.ptr.lhs.cast.i.i833 = ptrtoint ptr %newVertices.sroa.9.3.lcssa to i64
  %sub.ptr.rhs.cast.i.i834 = ptrtoint ptr %newVertices.sroa.0.3.lcssa to i64
  %sub.ptr.sub.i.i835 = sub i64 %sub.ptr.lhs.cast.i.i833, %sub.ptr.rhs.cast.i.i834
  %sub.ptr.div.i.i836 = ashr exact i64 %sub.ptr.sub.i.i835, 3
  %sub.ptr.lhs.cast.i14.i838 = ptrtoint ptr %v150.sroa.37.02693 to i64
  %sub.ptr.rhs.cast.i15.i839 = ptrtoint ptr %v150.sroa.0.02695 to i64
  %sub.ptr.sub.i16.i840 = sub i64 %sub.ptr.lhs.cast.i14.i838, %sub.ptr.rhs.cast.i15.i839
  %sub.ptr.div.i17.i841 = ashr exact i64 %sub.ptr.sub.i16.i840, 3
  %cmp3.i842 = icmp ugt i64 %sub.ptr.div.i.i836, %sub.ptr.div.i17.i841
  br i1 %cmp3.i842, label %cond.true.i.i.i873, label %if.else.i843

cond.true.i.i.i873:                               ; preds = %invoke.cont575
  %cmp.i.i.i.i.i874 = icmp ugt i64 %sub.ptr.div.i.i836, 1152921504606846975
  br i1 %cmp.i.i.i.i.i874, label %if.then3.i.i.i.i.i881, label %_ZNSt12_Vector_baseIPN4pbrt8SDVertexESaIS2_EE11_M_allocateEm.exit.i.i875

if.then3.i.i.i.i.i881:                            ; preds = %cond.true.i.i.i873
  invoke void @_ZSt28__throw_bad_array_new_lengthv() #18
          to label %.noexc882 unwind label %lpad288.loopexit.split-lp.loopexit.split-lp.loopexit.split-lp

.noexc882:                                        ; preds = %if.then3.i.i.i.i.i881
  unreachable

_ZNSt12_Vector_baseIPN4pbrt8SDVertexESaIS2_EE11_M_allocateEm.exit.i.i875: ; preds = %cond.true.i.i.i873
  %call5.i.i.i.i.i884 = invoke noalias noundef nonnull ptr @_Znwm(i64 noundef %sub.ptr.sub.i.i835) #17
          to label %call5.i.i.i.i.i.noexc883 unwind label %lpad288.loopexit.split-lp.loopexit.split-lp.loopexit

call5.i.i.i.i.i.noexc883:                         ; preds = %_ZNSt12_Vector_baseIPN4pbrt8SDVertexESaIS2_EE11_M_allocateEm.exit.i.i875
  %tobool.not.i.i.i.i.i.i.i.i.i.i876 = icmp eq ptr %newVertices.sroa.9.3.lcssa, %newVertices.sroa.0.3.lcssa
  br i1 %tobool.not.i.i.i.i.i.i.i.i.i.i876, label %_ZNSt6vectorIPN4pbrt8SDVertexESaIS2_EE20_M_allocate_and_copyIN9__gnu_cxx17__normal_iteratorIPKS2_S4_EEEEPS2_mT_SC_.exit.i, label %if.then.i.i.i.i.i.i.i.i.i.i877

if.then.i.i.i.i.i.i.i.i.i.i877:                   ; preds = %call5.i.i.i.i.i.noexc883
  call void @llvm.memcpy.p0.p0.i64(ptr nonnull align 8 %call5.i.i.i.i.i884, ptr align 8 %newVertices.sroa.0.3.lcssa, i64 %sub.ptr.sub.i.i835, i1 false)
  br label %_ZNSt6vectorIPN4pbrt8SDVertexESaIS2_EE20_M_allocate_and_copyIN9__gnu_cxx17__normal_iteratorIPKS2_S4_EEEEPS2_mT_SC_.exit.i

_ZNSt6vectorIPN4pbrt8SDVertexESaIS2_EE20_M_allocate_and_copyIN9__gnu_cxx17__normal_iteratorIPKS2_S4_EEEEPS2_mT_SC_.exit.i: ; preds = %if.then.i.i.i.i.i.i.i.i.i.i877, %call5.i.i.i.i.i.noexc883
  %tobool.not.i.i878 = icmp eq ptr %v150.sroa.0.02695, null
  br i1 %tobool.not.i.i878, label %_ZNSt12_Vector_baseIPN4pbrt8SDVertexESaIS2_EE13_M_deallocateEPS2_m.exit.i, label %if.then.i.i879

if.then.i.i879:                                   ; preds = %_ZNSt6vectorIPN4pbrt8SDVertexESaIS2_EE20_M_allocate_and_copyIN9__gnu_cxx17__normal_iteratorIPKS2_S4_EEEEPS2_mT_SC_.exit.i
  call void @_ZdlPv(ptr noundef nonnull %v150.sroa.0.02695) #19
  br label %_ZNSt12_Vector_baseIPN4pbrt8SDVertexESaIS2_EE13_M_deallocateEPS2_m.exit.i

_ZNSt12_Vector_baseIPN4pbrt8SDVertexESaIS2_EE13_M_deallocateEPS2_m.exit.i: ; preds = %if.then.i.i879, %_ZNSt6vectorIPN4pbrt8SDVertexESaIS2_EE20_M_allocate_and_copyIN9__gnu_cxx17__normal_iteratorIPKS2_S4_EEEEPS2_mT_SC_.exit.i
  %add.ptr.i880 = getelementptr inbounds ptr, ptr %call5.i.i.i.i.i884, i64 %sub.ptr.div.i.i836
  br label %invoke.cont577

if.else.i843:                                     ; preds = %invoke.cont575
  %sub.ptr.lhs.cast.i20.i845 = ptrtoint ptr %v150.sroa.23.02694 to i64
  %sub.ptr.sub.i22.i846 = sub i64 %sub.ptr.lhs.cast.i20.i845, %sub.ptr.rhs.cast.i15.i839
  %sub.ptr.div.i23.i847 = ashr exact i64 %sub.ptr.sub.i22.i846, 3
  %cmp26.not.i848 = icmp ult i64 %sub.ptr.div.i23.i847, %sub.ptr.div.i.i836
  br i1 %cmp26.not.i848, label %if.else49.i854, label %if.then27.i849

if.then27.i849:                                   ; preds = %if.else.i843
  %tobool.not.i.i.i.i.i.i850 = icmp eq ptr %newVertices.sroa.9.3.lcssa, %newVertices.sroa.0.3.lcssa
  br i1 %tobool.not.i.i.i.i.i.i850, label %invoke.cont577, label %if.then.i.i.i.i.i.i851

if.then.i.i.i.i.i.i851:                           ; preds = %if.then27.i849
  call void @llvm.memmove.p0.p0.i64(ptr align 8 %v150.sroa.0.02695, ptr align 8 %newVertices.sroa.0.3.lcssa, i64 %sub.ptr.sub.i.i835, i1 false)
  br label %invoke.cont577

if.else49.i854:                                   ; preds = %if.else.i843
  br i1 %cmp.i312.not2649, label %_ZSt4copyIPPN4pbrt8SDVertexES3_ET0_T_S5_S4_.exit.i, label %if.then.i.i.i.i.i35.i856

if.then.i.i.i.i.i35.i856:                         ; preds = %if.else49.i854
  call void @llvm.memmove.p0.p0.i64(ptr align 8 %v150.sroa.0.02695, ptr align 8 %newVertices.sroa.0.3.lcssa, i64 %sub.ptr.sub.i22.i846, i1 false)
  br label %_ZSt4copyIPPN4pbrt8SDVertexES3_ET0_T_S5_S4_.exit.i

_ZSt4copyIPPN4pbrt8SDVertexES3_ET0_T_S5_S4_.exit.i: ; preds = %if.else49.i854, %if.then.i.i.i.i.i35.i856
  %sub.ptr.div.i42.i866.pre-phi = phi i64 [ %sub.ptr.div.i23.i847, %if.then.i.i.i.i.i35.i856 ], [ 0, %if.else49.i854 ]
  %248 = phi ptr [ %v150.sroa.23.02694, %if.then.i.i.i.i.i35.i856 ], [ %v150.sroa.0.02695, %if.else49.i854 ]
  %add.ptr62.i867 = getelementptr inbounds ptr, ptr %newVertices.sroa.0.3.lcssa, i64 %sub.ptr.div.i42.i866.pre-phi
  %tobool.not.i.i.i.i.i.i.i.i.i868 = icmp eq ptr %newVertices.sroa.9.3.lcssa, %add.ptr62.i867
  br i1 %tobool.not.i.i.i.i.i.i.i.i.i868, label %invoke.cont577, label %if.then.i.i.i.i.i.i.i.i.i869

if.then.i.i.i.i.i.i.i.i.i869:                     ; preds = %_ZSt4copyIPPN4pbrt8SDVertexES3_ET0_T_S5_S4_.exit.i
  %sub.ptr.rhs.cast.i.i.i.i.i.i.i.i.i871 = ptrtoint ptr %add.ptr62.i867 to i64
  %sub.ptr.sub.i.i.i.i.i.i.i.i.i872 = sub i64 %sub.ptr.lhs.cast.i.i833, %sub.ptr.rhs.cast.i.i.i.i.i.i.i.i.i871
  call void @llvm.memmove.p0.p0.i64(ptr align 8 %248, ptr align 8 %add.ptr62.i867, i64 %sub.ptr.sub.i.i.i.i.i.i.i.i.i872, i1 false)
  br label %invoke.cont577

invoke.cont577:                                   ; preds = %if.then.i.i.i.i.i.i.i.i.i869, %_ZSt4copyIPPN4pbrt8SDVertexES3_ET0_T_S5_S4_.exit.i, %if.then.i.i.i.i.i.i851, %if.then27.i849, %_ZNSt12_Vector_baseIPN4pbrt8SDVertexESaIS2_EE13_M_deallocateEPS2_m.exit.i
  %v150.sroa.37.1 = phi ptr [ %add.ptr.i880, %_ZNSt12_Vector_baseIPN4pbrt8SDVertexESaIS2_EE13_M_deallocateEPS2_m.exit.i ], [ %v150.sroa.37.02693, %_ZSt4copyIPPN4pbrt8SDVertexES3_ET0_T_S5_S4_.exit.i ], [ %v150.sroa.37.02693, %if.then.i.i.i.i.i.i.i.i.i869 ], [ %v150.sroa.37.02693, %if.then27.i849 ], [ %v150.sroa.37.02693, %if.then.i.i.i.i.i.i851 ]
  %v150.sroa.0.1 = phi ptr [ %call5.i.i.i.i.i884, %_ZNSt12_Vector_baseIPN4pbrt8SDVertexESaIS2_EE13_M_deallocateEPS2_m.exit.i ], [ %v150.sroa.0.02695, %_ZSt4copyIPPN4pbrt8SDVertexES3_ET0_T_S5_S4_.exit.i ], [ %v150.sroa.0.02695, %if.then.i.i.i.i.i.i.i.i.i869 ], [ %v150.sroa.0.02695, %if.then27.i849 ], [ %v150.sroa.0.02695, %if.then.i.i.i.i.i.i851 ]
  %add.ptr72.i852 = getelementptr inbounds ptr, ptr %v150.sroa.0.1, i64 %sub.ptr.div.i.i836
  %249 = load ptr, ptr %_M_parent.i.i.i.i.i531, align 8
  invoke void @_ZNSt8_Rb_treeIN4pbrt6SDEdgeESt4pairIKS1_PNS0_8SDVertexEESt10_Select1stIS6_ESt4lessIS1_ESaIS6_EE8_M_eraseEPSt13_Rb_tree_nodeIS6_E(ptr noundef nonnull align 8 dereferenceable(48) %edgeVerts, ptr noundef %249)
          to label %_ZNSt3mapIN4pbrt6SDEdgeEPNS0_8SDVertexESt4lessIS1_ESaISt4pairIKS1_S3_EEED2Ev.exit887 unwind label %terminate.lpad.i.i886

terminate.lpad.i.i886:                            ; preds = %invoke.cont577
  %250 = landingpad { ptr, i32 }
          catch ptr null
  %251 = extractvalue { ptr, i32 } %250, 0
  call void @__clang_call_terminate(ptr %251) #22
  unreachable

_ZNSt3mapIN4pbrt6SDEdgeEPNS0_8SDVertexESt4lessIS1_ESaISt4pairIKS1_S3_EEED2Ev.exit887: ; preds = %invoke.cont577
  %tobool.not.i.i.i889 = icmp eq ptr %newVertices.sroa.0.3.lcssa, null
  br i1 %tobool.not.i.i.i889, label %_ZNSt6vectorIPN4pbrt8SDVertexESaIS2_EED2Ev.exit, label %if.then.i.i.i890

if.then.i.i.i890:                                 ; preds = %_ZNSt3mapIN4pbrt6SDEdgeEPNS0_8SDVertexESt4lessIS1_ESaISt4pairIKS1_S3_EEED2Ev.exit887
  call void @_ZdlPv(ptr noundef nonnull %newVertices.sroa.0.3.lcssa) #19
  br label %_ZNSt6vectorIPN4pbrt8SDVertexESaIS2_EED2Ev.exit

_ZNSt6vectorIPN4pbrt8SDVertexESaIS2_EED2Ev.exit:  ; preds = %_ZNSt3mapIN4pbrt6SDEdgeEPNS0_8SDVertexESt4lessIS1_ESaISt4pairIKS1_S3_EEED2Ev.exit887, %if.then.i.i.i890
  %tobool.not.i.i.i892 = icmp eq ptr %newFaces.sroa.0.5.lcssa, null
  br i1 %tobool.not.i.i.i892, label %_ZNSt6vectorIPN4pbrt6SDFaceESaIS2_EED2Ev.exit, label %if.then.i.i.i893

if.then.i.i.i893:                                 ; preds = %_ZNSt6vectorIPN4pbrt8SDVertexESaIS2_EED2Ev.exit
  call void @_ZdlPv(ptr noundef nonnull %newFaces.sroa.0.5.lcssa) #19
  br label %_ZNSt6vectorIPN4pbrt6SDFaceESaIS2_EED2Ev.exit

_ZNSt6vectorIPN4pbrt6SDFaceESaIS2_EED2Ev.exit:    ; preds = %_ZNSt6vectorIPN4pbrt8SDVertexESaIS2_EED2Ev.exit, %if.then.i.i.i893
  %inc581 = add nuw nsw i32 %i157.02699, 1
  %exitcond2990.not = icmp eq i32 %inc581, %nLevels
  br i1 %exitcond2990.not, label %for.end582, label %for.cond165.preheader, !llvm.loop !37

ehcleanup:                                        ; preds = %lpad169.loopexit, %lpad169.loopexit.split-lp.loopexit.split-lp.loopexit, %lpad169.loopexit.split-lp.loopexit.split-lp.loopexit.split-lp, %lpad169.loopexit.split-lp.loopexit, %lpad288.body, %lpad.i, %lpad.i500, %lpad.i411
  %newVertices.sroa.0.11 = phi ptr [ %newVertices.sroa.0.1.lcssa, %lpad.i411 ], [ %newVertices.sroa.0.1.lcssa, %lpad.i500 ], [ %newVertices.sroa.0.1.lcssa, %lpad.i ], [ %newVertices.sroa.0.9, %lpad288.body ], [ %newVertices.sroa.0.1.lcssa, %lpad169.loopexit ], [ %newVertices.sroa.0.1.lcssa, %lpad169.loopexit.split-lp.loopexit ], [ %newVertices.sroa.0.12653, %lpad169.loopexit.split-lp.loopexit.split-lp.loopexit ], [ %newVertices.sroa.0.12266, %lpad169.loopexit.split-lp.loopexit.split-lp.loopexit.split-lp ]
  %newFaces.sroa.0.8 = phi ptr [ %newFaces.sroa.0.5.lcssa, %lpad.i411 ], [ %newFaces.sroa.0.5.lcssa, %lpad.i500 ], [ %newFaces.sroa.0.5.lcssa, %lpad.i ], [ %newFaces.sroa.0.5.lcssa, %lpad288.body ], [ %newFaces.sroa.0.62659, %lpad169.loopexit ], [ %newFaces.sroa.0.5.lcssa, %lpad169.loopexit.split-lp.loopexit ], [ null, %lpad169.loopexit.split-lp.loopexit.split-lp.loopexit ], [ %newFaces.sroa.0.1.ph.ph.ph, %lpad169.loopexit.split-lp.loopexit.split-lp.loopexit.split-lp ]
  %f148.sroa.0.6 = phi ptr [ %f148.sroa.0.02698, %lpad.i411 ], [ %f148.sroa.0.02698, %lpad.i500 ], [ %f148.sroa.0.02698, %lpad.i ], [ %f148.sroa.0.4, %lpad288.body ], [ %f148.sroa.0.02698, %lpad169.loopexit ], [ %f148.sroa.0.02698, %lpad169.loopexit.split-lp.loopexit ], [ %f148.sroa.0.02698, %lpad169.loopexit.split-lp.loopexit.split-lp.loopexit ], [ %f148.sroa.0.02698, %lpad169.loopexit.split-lp.loopexit.split-lp.loopexit.split-lp ]
  %.pn181 = phi { ptr, i32 } [ %114, %lpad.i411 ], [ %136, %lpad.i500 ], [ %93, %lpad.i ], [ %eh.lpad-body1894, %lpad288.body ], [ %lpad.loopexit2230, %lpad169.loopexit ], [ %lpad.loopexit2233, %lpad169.loopexit.split-lp.loopexit ], [ %lpad.loopexit2236, %lpad169.loopexit.split-lp.loopexit.split-lp.loopexit ], [ %lpad.loopexit.split-lp2237, %lpad169.loopexit.split-lp.loopexit.split-lp.loopexit.split-lp ]
  %tobool.not.i.i.i895 = icmp eq ptr %newVertices.sroa.0.11, null
  br i1 %tobool.not.i.i.i895, label %_ZNSt6vectorIPN4pbrt8SDVertexESaIS2_EED2Ev.exit897, label %if.then.i.i.i896

if.then.i.i.i896:                                 ; preds = %ehcleanup
  call void @_ZdlPv(ptr noundef nonnull %newVertices.sroa.0.11) #19
  br label %_ZNSt6vectorIPN4pbrt8SDVertexESaIS2_EED2Ev.exit897

_ZNSt6vectorIPN4pbrt8SDVertexESaIS2_EED2Ev.exit897: ; preds = %ehcleanup, %if.then.i.i.i896
  %tobool.not.i.i.i899 = icmp eq ptr %newFaces.sroa.0.8, null
  br i1 %tobool.not.i.i.i899, label %ehcleanup945, label %if.then.i.i.i900

if.then.i.i.i900:                                 ; preds = %_ZNSt6vectorIPN4pbrt8SDVertexESaIS2_EED2Ev.exit897
  call void @_ZdlPv(ptr noundef nonnull %newFaces.sroa.0.8) #19
  br label %ehcleanup945

for.end582:                                       ; preds = %_ZNSt6vectorIPN4pbrt6SDFaceESaIS2_EED2Ev.exit, %invoke.cont154
  %v150.sroa.23.0.lcssa = phi ptr [ %add.ptr.i.i.i2992200, %invoke.cont154 ], [ %add.ptr72.i852, %_ZNSt6vectorIPN4pbrt6SDFaceESaIS2_EED2Ev.exit ]
  %v150.sroa.0.0.lcssa = phi ptr [ %cond.i.i.i.i2972199, %invoke.cont154 ], [ %v150.sroa.0.1, %_ZNSt6vectorIPN4pbrt6SDFaceESaIS2_EED2Ev.exit ]
  %f148.sroa.14.0.lcssa = phi ptr [ %add.ptr.i.i.i2842196, %invoke.cont154 ], [ %add.ptr72.i, %_ZNSt6vectorIPN4pbrt6SDFaceESaIS2_EED2Ev.exit ]
  %f148.sroa.0.0.lcssa = phi ptr [ %cond.i.i.i.i2832195, %invoke.cont154 ], [ %f148.sroa.0.5, %_ZNSt6vectorIPN4pbrt6SDFaceESaIS2_EED2Ev.exit ]
  %sub.ptr.lhs.cast.i = ptrtoint ptr %v150.sroa.23.0.lcssa to i64
  %sub.ptr.rhs.cast.i = ptrtoint ptr %v150.sroa.0.0.lcssa to i64
  %sub.ptr.sub.i = sub i64 %sub.ptr.lhs.cast.i, %sub.ptr.rhs.cast.i
  %sub.ptr.div.i = ashr exact i64 %sub.ptr.sub.i, 3
  %cmp.i.i903 = icmp ugt i64 %sub.ptr.div.i, 768614336404564650
  br i1 %cmp.i.i903, label %if.then.i.i908, label %_ZNSt6vectorIN4pbrt6Point3IfEESaIS2_EE17_S_check_init_lenEmRKS3_.exit.i

if.then.i.i908:                                   ; preds = %for.end582
  invoke void @_ZSt20__throw_length_errorPKc(ptr noundef nonnull @.str.5) #18
          to label %.noexc909 unwind label %lpad585

.noexc909:                                        ; preds = %if.then.i.i908
  unreachable

_ZNSt6vectorIN4pbrt6Point3IfEESaIS2_EE17_S_check_init_lenEmRKS3_.exit.i: ; preds = %for.end582
  call void @llvm.memset.p0.i64(ptr noundef nonnull align 8 dereferenceable(24) %pLimit, i8 0, i64 24, i1 false)
  %cmp.not.i.i.i.i904 = icmp eq ptr %v150.sroa.23.0.lcssa, %v150.sroa.0.0.lcssa
  br i1 %cmp.not.i.i.i.i904, label %for.cond623.preheader.thread, label %for.body.preheader.i.i.i.i.i

for.cond623.preheader.thread:                     ; preds = %_ZNSt6vectorIN4pbrt6Point3IfEESaIS2_EE17_S_check_init_lenEmRKS3_.exit.i
  call void @llvm.memset.p0.i64(ptr noundef nonnull align 8 dereferenceable(24) %pLimit, i8 0, i64 24, i1 false)
  br label %if.end.i

for.body.preheader.i.i.i.i.i:                     ; preds = %_ZNSt6vectorIN4pbrt6Point3IfEESaIS2_EE17_S_check_init_lenEmRKS3_.exit.i
  %mul.i.i.i.i.i.i905 = mul nuw nsw i64 %sub.ptr.div.i, 12
  %call5.i.i.i.i2.i.i910 = invoke noalias noundef nonnull ptr @_Znwm(i64 noundef %mul.i.i.i.i.i.i905) #17
          to label %for.body592.lr.ph unwind label %lpad585

for.body592.lr.ph:                                ; preds = %for.body.preheader.i.i.i.i.i
  store ptr %call5.i.i.i.i2.i.i910, ptr %pLimit, align 8
  %add.ptr.i.i.i906 = getelementptr inbounds %"class.pbrt::Point3", ptr %call5.i.i.i.i2.i.i910, i64 %sub.ptr.div.i
  call void @llvm.memset.p0.i64(ptr nonnull align 4 %call5.i.i.i.i2.i.i910, i8 0, i64 %mul.i.i.i.i.i.i905, i1 false)
  %scevgep.i.i.i.i.i = getelementptr i8, ptr %call5.i.i.i.i2.i.i910, i64 %mul.i.i.i.i.i.i905
  %_M_finish.i.i7.i = getelementptr inbounds %"struct.std::_Vector_base<pbrt::Point3<float>, std::allocator<pbrt::Point3<float>>>::_Vector_impl_data", ptr %pLimit, i64 0, i32 1
  %252 = getelementptr inbounds %"struct.std::_Vector_base<pbrt::Point3<float>, std::allocator<pbrt::Point3<float>>>::_Vector_impl_data", ptr %pLimit, i64 0, i32 2
  store ptr %add.ptr.i.i.i906, ptr %252, align 8
  store ptr %scevgep.i.i.i.i.i, ptr %_M_finish.i.i7.i, align 8
  %ptr.i.i.i922 = getelementptr inbounds %"class.pbrt::InlinedVector", ptr %pRing.i918, i64 0, i32 1
  %nAlloc.i.i.i923 = getelementptr inbounds %"class.pbrt::InlinedVector", ptr %pRing.i918, i64 0, i32 3
  %nStored.i.i.i924 = getelementptr inbounds %"class.pbrt::InlinedVector", ptr %pRing.i918, i64 0, i32 4
  %253 = getelementptr inbounds %"class.pbrt::InlinedVector", ptr %pRing.i918, i64 0, i32 2
  %.sroa.gep.i951 = getelementptr inbounds %"class.pbrt::InlinedVector", ptr %pRing.i918, i64 0, i32 2, i32 0, i64 0, i32 0, i32 2
  %ptr.i.i.i1009 = getelementptr inbounds %"class.pbrt::InlinedVector", ptr %pRing.i1005, i64 0, i32 1
  %nAlloc.i.i.i1010 = getelementptr inbounds %"class.pbrt::InlinedVector", ptr %pRing.i1005, i64 0, i32 3
  %nStored.i.i.i1011 = getelementptr inbounds %"class.pbrt::InlinedVector", ptr %pRing.i1005, i64 0, i32 4
  %254 = getelementptr inbounds %"class.pbrt::InlinedVector", ptr %pRing.i1005, i64 0, i32 2
  %umax = call i64 @llvm.umax.i64(i64 %sub.ptr.div.i, i64 1)
  br label %for.body592

for.cond623.preheader:                            ; preds = %for.inc619
  br i1 %cmp.not.i.i.i.i904, label %if.end.i, label %for.body626.preheader

for.body626.preheader:                            ; preds = %for.cond623.preheader
  %umax2992 = call i64 @llvm.umax.i64(i64 %sub.ptr.div.i, i64 1)
  br label %for.body626

for.body592:                                      ; preds = %for.body592.lr.ph, %for.inc619
  %i588.02705 = phi i64 [ 0, %for.body592.lr.ph ], [ %inc620, %for.inc619 ]
  %add.ptr.i916 = getelementptr inbounds ptr, ptr %v150.sroa.0.0.lcssa, i64 %i588.02705
  %255 = load ptr, ptr %add.ptr.i916, align 8
  %boundary594 = getelementptr inbounds %"struct.pbrt::SDVertex", ptr %255, i64 0, i32 5
  %256 = load i8, ptr %boundary594, align 1
  %257 = and i8 %256, 1
  %tobool595.not = icmp eq i8 %257, 0
  br i1 %tobool595.not, label %if.else605, label %if.then596

if.then596:                                       ; preds = %for.body592
  call void @llvm.lifetime.start.p0(i64 224, ptr nonnull %pRing.i918)
  %call.i919992 = invoke noundef i32 @_ZN4pbrt8SDVertex7valenceEv(ptr noundef nonnull align 8 dereferenceable(34) %255)
          to label %call.i919.noexc unwind label %lpad599

call.i919.noexc:                                  ; preds = %if.then596
  %conv.i920 = sext i32 %call.i919992 to i64
  %call.i.i921 = call noundef ptr @_ZN4pstd3pmr19new_delete_resourceEv() #21
  store ptr %call.i.i921, ptr %pRing.i918, align 8
  store ptr null, ptr %ptr.i.i.i922, align 8
  %cmp.not.i.i.i.i925 = icmp ugt i32 %call.i919992, 16
  store i64 0, ptr %nAlloc.i.i.i923, align 8
  br i1 %cmp.not.i.i.i.i925, label %_ZN4pbrt13InlinedVectorINS_6Point3IfEELi16EN4pstd3pmr21polymorphic_allocatorIS2_EEE7reserveEm.exit.i.i.thread.i988, label %_ZN4pbrt13InlinedVectorINS_6Point3IfEELi16EN4pstd3pmr21polymorphic_allocatorIS2_EEE7reserveEm.exit.i.i.i926

_ZN4pbrt13InlinedVectorINS_6Point3IfEELi16EN4pstd3pmr21polymorphic_allocatorIS2_EEE7reserveEm.exit.i.i.thread.i988: ; preds = %call.i919.noexc
  %mul.i.i.i.i.i989 = mul nsw i64 %conv.i920, 12
  %vtable.i.i.i.i.i.i.i990 = load ptr, ptr %call.i.i921, align 8
  %vfn.i.i.i.i.i.i.i991 = getelementptr inbounds ptr, ptr %vtable.i.i.i.i.i.i.i990, i64 2
  %258 = load ptr, ptr %vfn.i.i.i.i.i.i.i991, align 8
  %call.i.i.i.i.i.i.i994 = invoke noundef ptr %258(ptr noundef nonnull align 8 dereferenceable(8) %call.i.i921, i64 noundef %mul.i.i.i.i.i989, i64 noundef 4)
          to label %call.i.i.i.i.i.i.i.noexc993 unwind label %lpad599

call.i.i.i.i.i.i.i.noexc993:                      ; preds = %_ZN4pbrt13InlinedVectorINS_6Point3IfEELi16EN4pstd3pmr21polymorphic_allocatorIS2_EEE7reserveEm.exit.i.i.thread.i988
  store i64 %conv.i920, ptr %nAlloc.i.i.i923, align 8
  store ptr %call.i.i.i.i.i.i.i994, ptr %ptr.i.i.i922, align 8
  br label %for.body.i.i.i929.preheader

_ZN4pbrt13InlinedVectorINS_6Point3IfEELi16EN4pstd3pmr21polymorphic_allocatorIS2_EEE7reserveEm.exit.i.i.i926: ; preds = %call.i919.noexc
  %cmp8.not.i.i.i927 = icmp eq i32 %call.i919992, 0
  br i1 %cmp8.not.i.i.i927, label %_ZN4pbrt13InlinedVectorINS_6Point3IfEELi16EN4pstd3pmr21polymorphic_allocatorIS2_EEEC2EmRKS6_.exit.i940, label %for.body.i.i.i929.preheader

for.body.i.i.i929.preheader:                      ; preds = %_ZN4pbrt13InlinedVectorINS_6Point3IfEELi16EN4pstd3pmr21polymorphic_allocatorIS2_EEE7reserveEm.exit.i.i.i926, %call.i.i.i.i.i.i.i.noexc993
  br label %for.body.i.i.i929

for.body.i.i.i929:                                ; preds = %for.body.i.i.i929.preheader, %for.body.i.i.i929
  %i.09.i.i.i930 = phi i64 [ %inc.i.i.i936, %for.body.i.i.i929 ], [ 0, %for.body.i.i.i929.preheader ]
  %259 = load ptr, ptr %ptr.i.i.i922, align 8
  %tobool.not.i.i.i.i931 = icmp eq ptr %259, null
  %cond.i.i.i.i932 = select i1 %tobool.not.i.i.i.i931, ptr %253, ptr %259
  %add.ptr.i.i.i933 = getelementptr inbounds %"class.pbrt::Point3", ptr %cond.i.i.i.i932, i64 %i.09.i.i.i930
  store <2 x float> zeroinitializer, ptr %add.ptr.i.i.i933, align 4
  %ref.tmp.sroa.4.0.add.ptr.i.sroa_idx.i.i935 = getelementptr inbounds i8, ptr %add.ptr.i.i.i933, i64 8
  store float 0.000000e+00, ptr %ref.tmp.sroa.4.0.add.ptr.i.sroa_idx.i.i935, align 4
  %inc.i.i.i936 = add nuw i64 %i.09.i.i.i930, 1
  %exitcond.not.i.i.i937 = icmp eq i64 %inc.i.i.i936, %conv.i920
  br i1 %exitcond.not.i.i.i937, label %_ZN4pbrt13InlinedVectorINS_6Point3IfEELi16EN4pstd3pmr21polymorphic_allocatorIS2_EEEC2EmRKS6_.exit.loopexit.i938, label %for.body.i.i.i929, !llvm.loop !28

_ZN4pbrt13InlinedVectorINS_6Point3IfEELi16EN4pstd3pmr21polymorphic_allocatorIS2_EEEC2EmRKS6_.exit.loopexit.i938: ; preds = %for.body.i.i.i929
  %.pre.i939 = load ptr, ptr %ptr.i.i.i922, align 8
  br label %_ZN4pbrt13InlinedVectorINS_6Point3IfEELi16EN4pstd3pmr21polymorphic_allocatorIS2_EEEC2EmRKS6_.exit.i940

_ZN4pbrt13InlinedVectorINS_6Point3IfEELi16EN4pstd3pmr21polymorphic_allocatorIS2_EEEC2EmRKS6_.exit.i940: ; preds = %_ZN4pbrt13InlinedVectorINS_6Point3IfEELi16EN4pstd3pmr21polymorphic_allocatorIS2_EEEC2EmRKS6_.exit.loopexit.i938, %_ZN4pbrt13InlinedVectorINS_6Point3IfEELi16EN4pstd3pmr21polymorphic_allocatorIS2_EEE7reserveEm.exit.i.i.i926
  %260 = phi ptr [ %.pre.i939, %_ZN4pbrt13InlinedVectorINS_6Point3IfEELi16EN4pstd3pmr21polymorphic_allocatorIS2_EEEC2EmRKS6_.exit.loopexit.i938 ], [ null, %_ZN4pbrt13InlinedVectorINS_6Point3IfEELi16EN4pstd3pmr21polymorphic_allocatorIS2_EEE7reserveEm.exit.i.i.i926 ]
  store i64 %conv.i920, ptr %nStored.i.i.i924, align 8
  %tobool.not.i.i941 = icmp eq ptr %260, null
  %cond.i.i942 = select i1 %tobool.not.i.i941, ptr %253, ptr %260
  invoke void @_ZN4pbrt8SDVertex7oneRingEPNS_6Point3IfEE(ptr noundef nonnull align 8 dereferenceable(34) %255, ptr noundef nonnull %cond.i.i942)
          to label %invoke.cont18.i944 unwind label %lpad.i943

invoke.cont18.i944:                               ; preds = %_ZN4pbrt13InlinedVectorINS_6Point3IfEELi16EN4pstd3pmr21polymorphic_allocatorIS2_EEEC2EmRKS6_.exit.i940
  %agg.tmp.sroa.0.0.copyload.i945 = load <2 x float>, ptr %255, align 8
  %agg.tmp.sroa.2.0.p.sroa_idx.i946 = getelementptr inbounds i8, ptr %255, i64 8
  %agg.tmp.sroa.2.0.copyload.i947 = load float, ptr %agg.tmp.sroa.2.0.p.sroa_idx.i946, align 8
  %261 = load ptr, ptr %ptr.i.i.i922, align 8
  %tobool.not.i.i.i948 = icmp eq ptr %261, null
  %cond.i.i.i949 = select i1 %tobool.not.i.i.i948, ptr %253, ptr %261
  %agg.tmp5.sroa.0.0.copyload.i950 = load <2 x float>, ptr %cond.i.i.i949, align 4
  %.sroa.gep37.i952 = getelementptr inbounds i8, ptr %261, i64 8
  %cond.i.i.sroa.sel.i953 = select i1 %tobool.not.i.i.i948, ptr %.sroa.gep.i951, ptr %.sroa.gep37.i952
  %agg.tmp5.sroa.2.0.copyload.i954 = load float, ptr %cond.i.i.sroa.sel.i953, align 4
  %262 = getelementptr %"class.pbrt::Point3", ptr %cond.i.i.i949, i64 %conv.i920
  %arrayidx.i.i955 = getelementptr %"class.pbrt::Point3", ptr %262, i64 -1
  %agg.tmp14.sroa.0.0.copyload.i956 = load <2 x float>, ptr %arrayidx.i.i955, align 4
  %agg.tmp14.sroa.2.0.call17.sroa_idx.i957 = getelementptr %"class.pbrt::Point3", ptr %262, i64 -1, i32 0, i32 2
  %agg.tmp14.sroa.2.0.copyload.i958 = load float, ptr %agg.tmp14.sroa.2.0.call17.sroa_idx.i957, align 4
  br i1 %tobool.not.i.i.i948, label %invoke.cont600, label %if.end.i.i.i.i.i959

if.end.i.i.i.i.i959:                              ; preds = %invoke.cont18.i944
  %263 = load i64, ptr %nAlloc.i.i.i923, align 8
  %mul.i.i36.i960 = mul i64 %263, 12
  %264 = load ptr, ptr %pRing.i918, align 8
  %vtable.i.i.i.i.i961 = load ptr, ptr %264, align 8
  %vfn.i.i.i.i.i962 = getelementptr inbounds ptr, ptr %vtable.i.i.i.i.i961, i64 3
  %265 = load ptr, ptr %vfn.i.i.i.i.i962, align 8
  invoke void %265(ptr noundef nonnull align 8 dereferenceable(8) %264, ptr noundef nonnull %261, i64 noundef %mul.i.i36.i960, i64 noundef 4)
          to label %invoke.cont600 unwind label %terminate.lpad.i.i963

terminate.lpad.i.i963:                            ; preds = %if.end.i.i.i.i.i959
  %266 = landingpad { ptr, i32 }
          catch ptr null
  %267 = extractvalue { ptr, i32 } %266, 0
  call void @__clang_call_terminate(ptr %267) #22
  unreachable

lpad.i943:                                        ; preds = %_ZN4pbrt13InlinedVectorINS_6Point3IfEELi16EN4pstd3pmr21polymorphic_allocatorIS2_EEEC2EmRKS6_.exit.i940
  %268 = landingpad { ptr, i32 }
          cleanup
  call void @_ZN4pbrt13InlinedVectorINS_6Point3IfEELi16EN4pstd3pmr21polymorphic_allocatorIS2_EEED2Ev(ptr noundef nonnull align 8 dereferenceable(224) %pRing.i918) #21
  br label %ehcleanup944

invoke.cont600:                                   ; preds = %if.end.i.i.i.i.i959, %invoke.cont18.i944
  %mul3.i.i.i964 = fmul float %agg.tmp.sroa.2.0.copyload.i947, 0x3FE3333340000000
  %mul3.i.i11.i965 = fmul float %agg.tmp5.sroa.2.0.copyload.i954, 0x3FC99999A0000000
  %add6.i.i966 = fadd float %mul3.i.i.i964, %mul3.i.i11.i965
  %mul3.i.i23.i967 = fmul float %agg.tmp14.sroa.2.0.copyload.i958, 0x3FC99999A0000000
  %add6.i34.i968 = fadd float %add6.i.i966, %mul3.i.i23.i967
  %269 = shufflevector <2 x float> %agg.tmp.sroa.0.0.copyload.i945, <2 x float> %agg.tmp14.sroa.0.0.copyload.i956, <2 x i32> <i32 1, i32 3>
  %270 = fmul <2 x float> %269, <float 0x3FE3333340000000, float 0x3FC99999A0000000>
  %t.sroa.0.0.vec.extract.i19.i977 = extractelement <2 x float> %agg.tmp14.sroa.0.0.copyload.i956, i64 0
  %mul.i.i20.i978 = fmul float %t.sroa.0.0.vec.extract.i19.i977, 0x3FC99999A0000000
  %t.sroa.0.0.vec.extract.i.i981 = extractelement <2 x float> %agg.tmp.sroa.0.0.copyload.i945, i64 0
  %mul.i.i.i982 = fmul float %t.sroa.0.0.vec.extract.i.i981, 0x3FE3333340000000
  %271 = fmul <2 x float> %agg.tmp5.sroa.0.0.copyload.i950, <float 0x3FC99999A0000000, float 0x3FC99999A0000000>
  %272 = shufflevector <2 x float> %270, <2 x float> poison, <2 x i32> <i32 poison, i32 0>
  %273 = insertelement <2 x float> %272, float %mul.i.i.i982, i64 0
  %274 = fadd <2 x float> %273, %271
  %275 = insertelement <2 x float> %270, float %mul.i.i20.i978, i64 0
  %276 = fadd <2 x float> %274, %275
  call void @llvm.lifetime.end.p0(i64 224, ptr nonnull %pRing.i918)
  br label %for.inc619

lpad585:                                          ; preds = %for.body.preheader.i.i.i.i.i, %if.then.i.i908
  %277 = landingpad { ptr, i32 }
          cleanup
  br label %ehcleanup945

lpad599:                                          ; preds = %_ZN4pbrt13InlinedVectorINS_6Point3IfEELi16EN4pstd3pmr21polymorphic_allocatorIS2_EEE7reserveEm.exit.i.i.thread.i1084, %invoke.cont609, %_ZN4pbrt13InlinedVectorINS_6Point3IfEELi16EN4pstd3pmr21polymorphic_allocatorIS2_EEE7reserveEm.exit.i.i.thread.i988, %if.then596, %if.else605
  %278 = landingpad { ptr, i32 }
          cleanup
  br label %ehcleanup944

if.else605:                                       ; preds = %for.body592
  %call610 = invoke noundef i32 @_ZN4pbrt8SDVertex7valenceEv(ptr noundef nonnull align 8 dereferenceable(34) %255)
          to label %invoke.cont609 unwind label %lpad599

invoke.cont609:                                   ; preds = %if.else605
  %conv.i1000 = sitofp i32 %call610 to float
  %cmp.i.i1001 = icmp eq i32 %call610, 3
  %mul.i.i1002 = fmul float %conv.i1000, 8.000000e+00
  %div.i.i = fdiv float 3.000000e+00, %mul.i.i1002
  %279 = fmul float %div.i.i, 8.000000e+00
  %280 = fdiv float 3.000000e+00, %279
  %div.i1003 = select i1 %cmp.i.i1001, float 2.000000e+00, float %280
  %add.i1004 = fadd float %div.i1003, %conv.i1000
  %div1.i = fdiv float 1.000000e+00, %add.i1004
  call void @llvm.lifetime.start.p0(i64 224, ptr nonnull %pRing.i1005)
  %call.i10061088 = invoke noundef i32 @_ZN4pbrt8SDVertex7valenceEv(ptr noundef nonnull align 8 dereferenceable(34) %255)
          to label %call.i1006.noexc unwind label %lpad599

call.i1006.noexc:                                 ; preds = %invoke.cont609
  %conv.i1007 = sext i32 %call.i10061088 to i64
  %call.i.i1008 = call noundef ptr @_ZN4pstd3pmr19new_delete_resourceEv() #21
  store ptr %call.i.i1008, ptr %pRing.i1005, align 8
  store ptr null, ptr %ptr.i.i.i1009, align 8
  %cmp.not.i.i.i.i1012 = icmp ugt i32 %call.i10061088, 16
  store i64 0, ptr %nAlloc.i.i.i1010, align 8
  br i1 %cmp.not.i.i.i.i1012, label %_ZN4pbrt13InlinedVectorINS_6Point3IfEELi16EN4pstd3pmr21polymorphic_allocatorIS2_EEE7reserveEm.exit.i.i.thread.i1084, label %_ZN4pbrt13InlinedVectorINS_6Point3IfEELi16EN4pstd3pmr21polymorphic_allocatorIS2_EEE7reserveEm.exit.i.i.i1013

_ZN4pbrt13InlinedVectorINS_6Point3IfEELi16EN4pstd3pmr21polymorphic_allocatorIS2_EEE7reserveEm.exit.i.i.thread.i1084: ; preds = %call.i1006.noexc
  %mul.i.i.i.i.i1085 = mul nsw i64 %conv.i1007, 12
  %vtable.i.i.i.i.i.i.i1086 = load ptr, ptr %call.i.i1008, align 8
  %vfn.i.i.i.i.i.i.i1087 = getelementptr inbounds ptr, ptr %vtable.i.i.i.i.i.i.i1086, i64 2
  %281 = load ptr, ptr %vfn.i.i.i.i.i.i.i1087, align 8
  %call.i.i.i.i.i.i.i1090 = invoke noundef ptr %281(ptr noundef nonnull align 8 dereferenceable(8) %call.i.i1008, i64 noundef %mul.i.i.i.i.i1085, i64 noundef 4)
          to label %call.i.i.i.i.i.i.i.noexc1089 unwind label %lpad599

call.i.i.i.i.i.i.i.noexc1089:                     ; preds = %_ZN4pbrt13InlinedVectorINS_6Point3IfEELi16EN4pstd3pmr21polymorphic_allocatorIS2_EEE7reserveEm.exit.i.i.thread.i1084
  store i64 %conv.i1007, ptr %nAlloc.i.i.i1010, align 8
  store ptr %call.i.i.i.i.i.i.i1090, ptr %ptr.i.i.i1009, align 8
  br label %for.body.i.i.i1016.preheader

_ZN4pbrt13InlinedVectorINS_6Point3IfEELi16EN4pstd3pmr21polymorphic_allocatorIS2_EEE7reserveEm.exit.i.i.i1013: ; preds = %call.i1006.noexc
  %cmp8.not.i.i.i1014 = icmp eq i32 %call.i10061088, 0
  br i1 %cmp8.not.i.i.i1014, label %_ZN4pbrt13InlinedVectorINS_6Point3IfEELi16EN4pstd3pmr21polymorphic_allocatorIS2_EEEC2EmRKS6_.exit.i1027, label %for.body.i.i.i1016.preheader

for.body.i.i.i1016.preheader:                     ; preds = %_ZN4pbrt13InlinedVectorINS_6Point3IfEELi16EN4pstd3pmr21polymorphic_allocatorIS2_EEE7reserveEm.exit.i.i.i1013, %call.i.i.i.i.i.i.i.noexc1089
  br label %for.body.i.i.i1016

for.body.i.i.i1016:                               ; preds = %for.body.i.i.i1016.preheader, %for.body.i.i.i1016
  %i.09.i.i.i1017 = phi i64 [ %inc.i.i.i1023, %for.body.i.i.i1016 ], [ 0, %for.body.i.i.i1016.preheader ]
  %282 = load ptr, ptr %ptr.i.i.i1009, align 8
  %tobool.not.i.i.i.i1018 = icmp eq ptr %282, null
  %cond.i.i.i.i1019 = select i1 %tobool.not.i.i.i.i1018, ptr %254, ptr %282
  %add.ptr.i.i.i1020 = getelementptr inbounds %"class.pbrt::Point3", ptr %cond.i.i.i.i1019, i64 %i.09.i.i.i1017
  store <2 x float> zeroinitializer, ptr %add.ptr.i.i.i1020, align 4
  %ref.tmp.sroa.4.0.add.ptr.i.sroa_idx.i.i1022 = getelementptr inbounds i8, ptr %add.ptr.i.i.i1020, i64 8
  store float 0.000000e+00, ptr %ref.tmp.sroa.4.0.add.ptr.i.sroa_idx.i.i1022, align 4
  %inc.i.i.i1023 = add nuw i64 %i.09.i.i.i1017, 1
  %exitcond.not.i.i.i1024 = icmp eq i64 %inc.i.i.i1023, %conv.i1007
  br i1 %exitcond.not.i.i.i1024, label %_ZN4pbrt13InlinedVectorINS_6Point3IfEELi16EN4pstd3pmr21polymorphic_allocatorIS2_EEEC2EmRKS6_.exit.loopexit.i1025, label %for.body.i.i.i1016, !llvm.loop !28

_ZN4pbrt13InlinedVectorINS_6Point3IfEELi16EN4pstd3pmr21polymorphic_allocatorIS2_EEEC2EmRKS6_.exit.loopexit.i1025: ; preds = %for.body.i.i.i1016
  %.pre.i1026 = load ptr, ptr %ptr.i.i.i1009, align 8
  br label %_ZN4pbrt13InlinedVectorINS_6Point3IfEELi16EN4pstd3pmr21polymorphic_allocatorIS2_EEEC2EmRKS6_.exit.i1027

_ZN4pbrt13InlinedVectorINS_6Point3IfEELi16EN4pstd3pmr21polymorphic_allocatorIS2_EEEC2EmRKS6_.exit.i1027: ; preds = %_ZN4pbrt13InlinedVectorINS_6Point3IfEELi16EN4pstd3pmr21polymorphic_allocatorIS2_EEEC2EmRKS6_.exit.loopexit.i1025, %_ZN4pbrt13InlinedVectorINS_6Point3IfEELi16EN4pstd3pmr21polymorphic_allocatorIS2_EEE7reserveEm.exit.i.i.i1013
  %283 = phi ptr [ %.pre.i1026, %_ZN4pbrt13InlinedVectorINS_6Point3IfEELi16EN4pstd3pmr21polymorphic_allocatorIS2_EEEC2EmRKS6_.exit.loopexit.i1025 ], [ null, %_ZN4pbrt13InlinedVectorINS_6Point3IfEELi16EN4pstd3pmr21polymorphic_allocatorIS2_EEE7reserveEm.exit.i.i.i1013 ]
  store i64 %conv.i1007, ptr %nStored.i.i.i1011, align 8
  %tobool.not.i.i1028 = icmp eq ptr %283, null
  %cond.i.i1029 = select i1 %tobool.not.i.i1028, ptr %254, ptr %283
  invoke void @_ZN4pbrt8SDVertex7oneRingEPNS_6Point3IfEE(ptr noundef nonnull align 8 dereferenceable(34) %255, ptr noundef nonnull %cond.i.i1029)
          to label %invoke.cont4.i1031 unwind label %lpad.i1030

invoke.cont4.i1031:                               ; preds = %_ZN4pbrt13InlinedVectorINS_6Point3IfEELi16EN4pstd3pmr21polymorphic_allocatorIS2_EEEC2EmRKS6_.exit.i1027
  %conv3.i1032 = sitofp i32 %call.i10061088 to float
  %mul.i1033 = fmul float %div1.i, %conv3.i1032
  %sub.i1034 = fsub float 1.000000e+00, %mul.i1033
  %agg.tmp.sroa.0.0.copyload.i1035 = load <2 x float>, ptr %255, align 8
  %agg.tmp.sroa.2.0.p.sroa_idx.i1036 = getelementptr inbounds i8, ptr %255, i64 8
  %agg.tmp.sroa.2.0.copyload.i1037 = load float, ptr %agg.tmp.sroa.2.0.p.sroa_idx.i1036, align 8
  %284 = insertelement <2 x float> poison, float %sub.i1034, i64 0
  %285 = shufflevector <2 x float> %284, <2 x float> poison, <2 x i32> zeroinitializer
  %286 = fmul <2 x float> %285, %agg.tmp.sroa.0.0.copyload.i1035
  %mul3.i.i.i1042 = fmul float %sub.i1034, %agg.tmp.sroa.2.0.copyload.i1037
  %cmp23.i1045 = icmp sgt i32 %call.i10061088, 0
  %.pre29.i1046 = load ptr, ptr %ptr.i.i.i1009, align 8
  br i1 %cmp23.i1045, label %invoke.cont11.lr.ph.i1058, label %for.end.i1047

invoke.cont11.lr.ph.i1058:                        ; preds = %invoke.cont4.i1031
  %tobool.not.i.i.i1059 = icmp eq ptr %.pre29.i1046, null
  %cond.i.i.i1060 = select i1 %tobool.not.i.i.i1059, ptr %254, ptr %.pre29.i1046
  %wide.trip.count.i1061 = zext nneg i32 %call.i10061088 to i64
  %287 = insertelement <2 x float> poison, float %div1.i, i64 0
  %288 = shufflevector <2 x float> %287, <2 x float> poison, <2 x i32> zeroinitializer
  br label %invoke.cont11.i1062

invoke.cont11.i1062:                              ; preds = %invoke.cont11.i1062, %invoke.cont11.lr.ph.i1058
  %indvars.iv.i1063 = phi i64 [ 0, %invoke.cont11.lr.ph.i1058 ], [ %indvars.iv.next.i1082, %invoke.cont11.i1062 ]
  %retval.sroa.6.025.i1064 = phi float [ %mul3.i.i.i1042, %invoke.cont11.lr.ph.i1058 ], [ %add6.i.i1081, %invoke.cont11.i1062 ]
  %retval.sroa.0.024.i1065 = phi <2 x float> [ %286, %invoke.cont11.lr.ph.i1058 ], [ %290, %invoke.cont11.i1062 ]
  %arrayidx.i.i1066 = getelementptr inbounds %"class.pbrt::Point3", ptr %cond.i.i.i1060, i64 %indvars.iv.i1063
  %agg.tmp7.sroa.0.0.copyload.i1067 = load <2 x float>, ptr %arrayidx.i.i1066, align 4
  %agg.tmp7.sroa.2.0.call10.sroa_idx.i1068 = getelementptr inbounds i8, ptr %arrayidx.i.i1066, i64 8
  %agg.tmp7.sroa.2.0.copyload.i1069 = load float, ptr %agg.tmp7.sroa.2.0.call10.sroa_idx.i1068, align 4
  %mul3.i.i13.i1074 = fmul float %div1.i, %agg.tmp7.sroa.2.0.copyload.i1069
  %289 = fmul <2 x float> %288, %agg.tmp7.sroa.0.0.copyload.i1067
  %290 = fadd <2 x float> %retval.sroa.0.024.i1065, %289
  %add6.i.i1081 = fadd float %retval.sroa.6.025.i1064, %mul3.i.i13.i1074
  %indvars.iv.next.i1082 = add nuw nsw i64 %indvars.iv.i1063, 1
  %exitcond.not.i1083 = icmp eq i64 %indvars.iv.next.i1082, %wide.trip.count.i1061
  br i1 %exitcond.not.i1083, label %for.end.i1047, label %invoke.cont11.i1062, !llvm.loop !29

lpad.i1030:                                       ; preds = %_ZN4pbrt13InlinedVectorINS_6Point3IfEELi16EN4pstd3pmr21polymorphic_allocatorIS2_EEEC2EmRKS6_.exit.i1027
  %291 = landingpad { ptr, i32 }
          cleanup
  call void @_ZN4pbrt13InlinedVectorINS_6Point3IfEELi16EN4pstd3pmr21polymorphic_allocatorIS2_EEED2Ev(ptr noundef nonnull align 8 dereferenceable(224) %pRing.i1005) #21
  br label %ehcleanup944

for.end.i1047:                                    ; preds = %invoke.cont11.i1062, %invoke.cont4.i1031
  %retval.sroa.0.0.lcssa.i1048 = phi <2 x float> [ %286, %invoke.cont4.i1031 ], [ %290, %invoke.cont11.i1062 ]
  %retval.sroa.6.0.lcssa.i1049 = phi float [ %mul3.i.i.i1042, %invoke.cont4.i1031 ], [ %add6.i.i1081, %invoke.cont11.i1062 ]
  %tobool.not.i.i.i.i.i1050 = icmp eq ptr %.pre29.i1046, null
  br i1 %tobool.not.i.i.i.i.i1050, label %invoke.cont613, label %if.end.i.i.i.i.i1051

if.end.i.i.i.i.i1051:                             ; preds = %for.end.i1047
  %292 = load i64, ptr %nAlloc.i.i.i1010, align 8
  %mul.i.i19.i1052 = mul i64 %292, 12
  %293 = load ptr, ptr %pRing.i1005, align 8
  %vtable.i.i.i.i.i1053 = load ptr, ptr %293, align 8
  %vfn.i.i.i.i.i1054 = getelementptr inbounds ptr, ptr %vtable.i.i.i.i.i1053, i64 3
  %294 = load ptr, ptr %vfn.i.i.i.i.i1054, align 8
  invoke void %294(ptr noundef nonnull align 8 dereferenceable(8) %293, ptr noundef nonnull %.pre29.i1046, i64 noundef %mul.i.i19.i1052, i64 noundef 4)
          to label %invoke.cont613 unwind label %terminate.lpad.i.i1055

terminate.lpad.i.i1055:                           ; preds = %if.end.i.i.i.i.i1051
  %295 = landingpad { ptr, i32 }
          catch ptr null
  %296 = extractvalue { ptr, i32 } %295, 0
  call void @__clang_call_terminate(ptr %296) #22
  unreachable

invoke.cont613:                                   ; preds = %if.end.i.i.i.i.i1051, %for.end.i1047
  call void @llvm.lifetime.end.p0(i64 224, ptr nonnull %pRing.i1005)
  br label %for.inc619

for.inc619:                                       ; preds = %invoke.cont600, %invoke.cont613
  %retval.sroa.0.4.vec.insert48.i985.sink = phi <2 x float> [ %276, %invoke.cont600 ], [ %retval.sroa.0.0.lcssa.i1048, %invoke.cont613 ]
  %add6.i34.i968.sink = phi float [ %add6.i34.i968, %invoke.cont600 ], [ %retval.sroa.6.0.lcssa.i1049, %invoke.cont613 ]
  %.sink3431 = load ptr, ptr %pLimit, align 8
  %add.ptr.i997 = getelementptr inbounds %"class.pbrt::Point3", ptr %.sink3431, i64 %i588.02705
  store <2 x float> %retval.sroa.0.4.vec.insert48.i985.sink, ptr %add.ptr.i997, align 4
  %ref.tmp597.sroa.2.0.call604.sroa_idx = getelementptr inbounds %"class.pbrt::Point3", ptr %.sink3431, i64 %i588.02705, i32 0, i32 2
  store float %add6.i34.i968.sink, ptr %ref.tmp597.sroa.2.0.call604.sroa_idx, align 4
  %inc620 = add nuw i64 %i588.02705, 1
  %exitcond2991.not = icmp eq i64 %inc620, %umax
  br i1 %exitcond2991.not, label %for.cond623.preheader, label %for.body592, !llvm.loop !38

for.body626:                                      ; preds = %for.body626.preheader, %for.body626
  %i622.02707 = phi i64 [ %inc631, %for.body626 ], [ 0, %for.body626.preheader ]
  %297 = load ptr, ptr %pLimit, align 8
  %add.ptr.i1100 = getelementptr inbounds %"class.pbrt::Point3", ptr %297, i64 %i622.02707
  %add.ptr.i1101 = getelementptr inbounds ptr, ptr %v150.sroa.0.0.lcssa, i64 %i622.02707
  %298 = load ptr, ptr %add.ptr.i1101, align 8
  call void @llvm.memcpy.p0.p0.i64(ptr noundef nonnull align 8 dereferenceable(12) %298, ptr noundef nonnull align 4 dereferenceable(12) %add.ptr.i1100, i64 12, i1 false)
  %inc631 = add nuw i64 %i622.02707, 1
  %exitcond2993.not = icmp eq i64 %inc631, %umax2992
  br i1 %exitcond2993.not, label %if.end.i, label %for.body626, !llvm.loop !39

if.end.i:                                         ; preds = %for.body626, %for.cond623.preheader.thread, %for.cond623.preheader
  call void @llvm.memset.p0.i64(ptr noundef nonnull align 8 dereferenceable(24) %Ns, i8 0, i64 24, i1 false)
  %_M_end_of_storage.i.i1108 = getelementptr inbounds %"struct.std::_Vector_base<pbrt::Normal3<float>, std::allocator<pbrt::Normal3<float>>>::_Vector_impl_data", ptr %Ns, i64 0, i32 2
  %cmp3.i1113.not = icmp eq ptr %v150.sroa.23.0.lcssa, %v150.sroa.0.0.lcssa
  br i1 %cmp3.i1113.not, label %invoke.cont635, label %_ZNSt12_Vector_baseIN4pbrt7Normal3IfEESaIS2_EE11_M_allocateEm.exit.i

_ZNSt12_Vector_baseIN4pbrt7Normal3IfEESaIS2_EE11_M_allocateEm.exit.i: ; preds = %if.end.i
  %mul.i.i.i.i = mul nuw nsw i64 %sub.ptr.div.i, 12
  %call5.i.i.i.i1122 = invoke noalias noundef nonnull ptr @_Znwm(i64 noundef %mul.i.i.i.i) #17
          to label %_ZNSt12_Vector_baseIN4pbrt7Normal3IfEESaIS2_EE13_M_deallocateEPS2_m.exit.i unwind label %lpad634

_ZNSt12_Vector_baseIN4pbrt7Normal3IfEESaIS2_EE13_M_deallocateEPS2_m.exit.i: ; preds = %_ZNSt12_Vector_baseIN4pbrt7Normal3IfEESaIS2_EE11_M_allocateEm.exit.i
  %_M_finish.i.i1114 = getelementptr inbounds %"struct.std::_Vector_base<pbrt::Normal3<float>, std::allocator<pbrt::Normal3<float>>>::_Vector_impl_data", ptr %Ns, i64 0, i32 1
  store ptr %call5.i.i.i.i1122, ptr %Ns, align 8
  store ptr %call5.i.i.i.i1122, ptr %_M_finish.i.i1114, align 8
  %add.ptr21.i = getelementptr inbounds %"class.pbrt::Normal3", ptr %call5.i.i.i.i1122, i64 %sub.ptr.div.i
  store ptr %add.ptr21.i, ptr %_M_end_of_storage.i.i1108, align 8
  br label %invoke.cont635

invoke.cont635:                                   ; preds = %_ZNSt12_Vector_baseIN4pbrt7Normal3IfEESaIS2_EE13_M_deallocateEPS2_m.exit.i, %if.end.i
  %call5.i.i.i.i2.i.i1130 = invoke noalias noundef nonnull dereferenceable(192) ptr @_Znwm(i64 noundef 192) #17
          to label %call5.i.i.i.i2.i.i.noexc1129 unwind label %lpad638

call5.i.i.i.i2.i.i.noexc1129:                     ; preds = %invoke.cont635
  call void @llvm.memset.p0.i64(ptr noundef nonnull align 4 dereferenceable(192) %call5.i.i.i.i2.i.i1130, i8 0, i64 192, i1 false)
  br i1 %cmp.not.i.i.i.i904, label %for.end888, label %invoke.cont652.lr.ph

invoke.cont652.lr.ph:                             ; preds = %call5.i.i.i.i2.i.i.noexc1129
  %add.ptr.i.i.i1125 = getelementptr inbounds %"class.pbrt::Point3", ptr %call5.i.i.i.i2.i.i1130, i64 16
  %_M_finish.i.i1406 = getelementptr inbounds %"struct.std::_Vector_base<pbrt::Normal3<float>, std::allocator<pbrt::Normal3<float>>>::_Vector_impl_data", ptr %Ns, i64 0, i32 1
  br label %invoke.cont652

invoke.cont652:                                   ; preds = %invoke.cont652.lr.ph, %for.inc886
  %__begin1.sroa.0.02731 = phi ptr [ %v150.sroa.0.0.lcssa, %invoke.cont652.lr.ph ], [ %incdec.ptr.i1437, %for.inc886 ]
  %pRing.sroa.31.02730 = phi ptr [ %add.ptr.i.i.i1125, %invoke.cont652.lr.ph ], [ %pRing.sroa.31.3, %for.inc886 ]
  %pRing.sroa.23.02729 = phi ptr [ %add.ptr.i.i.i1125, %invoke.cont652.lr.ph ], [ %pRing.sroa.23.3, %for.inc886 ]
  %pRing.sroa.0.02728 = phi ptr [ %call5.i.i.i.i2.i.i1130, %invoke.cont652.lr.ph ], [ %pRing.sroa.0.4, %for.inc886 ]
  %299 = load ptr, ptr %__begin1.sroa.0.02731, align 8
  %call654 = invoke noundef i32 @_ZN4pbrt8SDVertex7valenceEv(ptr noundef nonnull align 8 dereferenceable(34) %299)
          to label %invoke.cont653 unwind label %lpad650.loopexit

invoke.cont653:                                   ; preds = %invoke.cont652
  %sub.ptr.lhs.cast.i1136 = ptrtoint ptr %pRing.sroa.23.02729 to i64
  %sub.ptr.rhs.cast.i1137 = ptrtoint ptr %pRing.sroa.0.02728 to i64
  %sub.ptr.sub.i1138 = sub i64 %sub.ptr.lhs.cast.i1136, %sub.ptr.rhs.cast.i1137
  %sub.ptr.div.i1139 = sdiv exact i64 %sub.ptr.sub.i1138, 12
  %conv656 = trunc i64 %sub.ptr.div.i1139 to i32
  %cmp657 = icmp sgt i32 %call654, %conv656
  br i1 %cmp657, label %if.then658, label %if.end661

if.then658:                                       ; preds = %invoke.cont653
  %conv659 = sext i32 %call654 to i64
  %cmp.i1145 = icmp ult i64 %sub.ptr.div.i1139, %conv659
  br i1 %cmp.i1145, label %if.then.i1149, label %if.else.i1146

if.then.i1149:                                    ; preds = %if.then658
  %sub.i1150 = sub nsw i64 %conv659, %sub.ptr.div.i1139
  %sub.ptr.lhs.cast.i1962 = ptrtoint ptr %pRing.sroa.31.02730 to i64
  %sub.ptr.sub.i1963 = sub i64 %sub.ptr.lhs.cast.i1962, %sub.ptr.lhs.cast.i1136
  %sub.ptr.div.i1964 = sdiv exact i64 %sub.ptr.sub.i1963, 12
  %cmp4.i1965 = icmp ult i64 %sub.ptr.div.i1139, 768614336404564651
  call void @llvm.assume(i1 %cmp4.i1965)
  %sub.i1966 = sub nuw nsw i64 768614336404564650, %sub.ptr.div.i1139
  %cmp6.i = icmp ule i64 %sub.ptr.div.i1964, %sub.i1966
  call void @llvm.assume(i1 %cmp6.i)
  %cmp8.not.i = icmp ult i64 %sub.ptr.div.i1964, %sub.i1150
  br i1 %cmp8.not.i, label %if.else.i1967, label %_ZSt27__uninitialized_default_n_aIPN4pbrt6Point3IfEEmS2_ET_S4_T0_RSaIT1_E.exit.i

_ZSt27__uninitialized_default_n_aIPN4pbrt6Point3IfEEmS2_ET_S4_T0_RSaIT1_E.exit.i: ; preds = %if.then.i1149
  %300 = mul nuw i64 %sub.i1150, 12
  call void @llvm.memset.p0.i64(ptr align 4 %pRing.sroa.23.02729, i8 0, i64 %300, i1 false)
  %scevgep.i.i.i.i = getelementptr i8, ptr %pRing.sroa.23.02729, i64 %300
  br label %if.end661

if.else.i1967:                                    ; preds = %if.then.i1149
  %cmp.i.i1968 = icmp ult i64 %sub.i1966, %sub.i1150
  br i1 %cmp.i.i1968, label %if.then.i.i1982, label %_ZNKSt6vectorIN4pbrt6Point3IfEESaIS2_EE12_M_check_lenEmPKc.exit.i

if.then.i.i1982:                                  ; preds = %if.else.i1967
  invoke void @_ZSt20__throw_length_errorPKc(ptr noundef nonnull @.str.7) #18
          to label %.noexc1983 unwind label %lpad650.loopexit.split-lp

.noexc1983:                                       ; preds = %if.then.i.i1982
  unreachable

_ZNKSt6vectorIN4pbrt6Point3IfEESaIS2_EE12_M_check_lenEmPKc.exit.i: ; preds = %if.else.i1967
  %.sroa.speculated.i.i = call i64 @llvm.umax.i64(i64 %sub.ptr.div.i1139, i64 %sub.i1150)
  %add.i.i1969 = add nsw i64 %.sroa.speculated.i.i, %sub.ptr.div.i1139
  %cmp7.i.i = icmp ult i64 %add.i.i1969, %sub.ptr.div.i1139
  %cmp9.i.i = icmp ugt i64 %add.i.i1969, 768614336404564650
  %or.cond.i.i1970 = or i1 %cmp7.i.i, %cmp9.i.i
  %cond.i.i1971 = select i1 %or.cond.i.i1970, i64 768614336404564650, i64 %add.i.i1969
  %cmp.not.i.i1972 = icmp eq i64 %cond.i.i1971, 0
  br i1 %cmp.not.i.i1972, label %try.cont.i, label %_ZNSt16allocator_traitsISaIN4pbrt6Point3IfEEEE8allocateERS3_m.exit.i.i

_ZNSt16allocator_traitsISaIN4pbrt6Point3IfEEEE8allocateERS3_m.exit.i.i: ; preds = %_ZNKSt6vectorIN4pbrt6Point3IfEESaIS2_EE12_M_check_lenEmPKc.exit.i
  %mul.i.i.i.i1973 = mul nuw nsw i64 %cond.i.i1971, 12
  %call5.i.i.i.i1985 = invoke noalias noundef nonnull ptr @_Znwm(i64 noundef %mul.i.i.i.i1973) #17
          to label %try.cont.i unwind label %lpad650.loopexit

try.cont.i:                                       ; preds = %_ZNSt16allocator_traitsISaIN4pbrt6Point3IfEEEE8allocateERS3_m.exit.i.i, %_ZNKSt6vectorIN4pbrt6Point3IfEESaIS2_EE12_M_check_lenEmPKc.exit.i
  %cond.i19.i = phi ptr [ null, %_ZNKSt6vectorIN4pbrt6Point3IfEESaIS2_EE12_M_check_lenEmPKc.exit.i ], [ %call5.i.i.i.i1985, %_ZNSt16allocator_traitsISaIN4pbrt6Point3IfEEEE8allocateERS3_m.exit.i.i ]
  %add.ptr.i1974 = getelementptr inbounds %"class.pbrt::Point3", ptr %cond.i19.i, i64 %sub.ptr.div.i1139
  %301 = mul nuw i64 %sub.i1150, 12
  call void @llvm.memset.p0.i64(ptr align 4 %add.ptr.i1974, i8 0, i64 %301, i1 false)
  %cmp.not5.i.i.i.i1975 = icmp eq ptr %pRing.sroa.0.02728, %pRing.sroa.23.02729
  br i1 %cmp.not5.i.i.i.i1975, label %_ZNSt6vectorIN4pbrt6Point3IfEESaIS2_EE11_S_relocateEPS2_S5_S5_RS3_.exit.i, label %for.body.i.i.i.i1976

for.body.i.i.i.i1976:                             ; preds = %try.cont.i, %for.body.i.i.i.i1976
  %__cur.07.i.i.i.i1977 = phi ptr [ %incdec.ptr1.i.i.i.i1980, %for.body.i.i.i.i1976 ], [ %cond.i19.i, %try.cont.i ]
  %__first.addr.06.i.i.i.i1978 = phi ptr [ %incdec.ptr.i.i.i.i1979, %for.body.i.i.i.i1976 ], [ %pRing.sroa.0.02728, %try.cont.i ]
  call void @llvm.memcpy.p0.p0.i64(ptr noundef nonnull align 4 dereferenceable(12) %__cur.07.i.i.i.i1977, ptr noundef nonnull align 4 dereferenceable(12) %__first.addr.06.i.i.i.i1978, i64 12, i1 false), !alias.scope !40
  %incdec.ptr.i.i.i.i1979 = getelementptr inbounds %"class.pbrt::Point3", ptr %__first.addr.06.i.i.i.i1978, i64 1
  %incdec.ptr1.i.i.i.i1980 = getelementptr inbounds %"class.pbrt::Point3", ptr %__cur.07.i.i.i.i1977, i64 1
  %cmp.not.i.i.i.i1981 = icmp eq ptr %incdec.ptr.i.i.i.i1979, %pRing.sroa.23.02729
  br i1 %cmp.not.i.i.i.i1981, label %_ZNSt6vectorIN4pbrt6Point3IfEESaIS2_EE11_S_relocateEPS2_S5_S5_RS3_.exit.i, label %for.body.i.i.i.i1976, !llvm.loop !44

_ZNSt6vectorIN4pbrt6Point3IfEESaIS2_EE11_S_relocateEPS2_S5_S5_RS3_.exit.i: ; preds = %for.body.i.i.i.i1976, %try.cont.i
  %tobool.not.i27.i = icmp eq ptr %pRing.sroa.0.02728, null
  br i1 %tobool.not.i27.i, label %_ZNSt12_Vector_baseIN4pbrt6Point3IfEESaIS2_EE13_M_deallocateEPS2_m.exit29.i, label %if.then.i28.i

if.then.i28.i:                                    ; preds = %_ZNSt6vectorIN4pbrt6Point3IfEESaIS2_EE11_S_relocateEPS2_S5_S5_RS3_.exit.i
  call void @_ZdlPv(ptr noundef nonnull %pRing.sroa.0.02728) #19
  br label %_ZNSt12_Vector_baseIN4pbrt6Point3IfEESaIS2_EE13_M_deallocateEPS2_m.exit29.i

_ZNSt12_Vector_baseIN4pbrt6Point3IfEESaIS2_EE13_M_deallocateEPS2_m.exit29.i: ; preds = %if.then.i28.i, %_ZNSt6vectorIN4pbrt6Point3IfEESaIS2_EE11_S_relocateEPS2_S5_S5_RS3_.exit.i
  %add.ptr37.i = getelementptr inbounds %"class.pbrt::Point3", ptr %cond.i19.i, i64 %conv659
  %add.ptr40.i = getelementptr inbounds %"class.pbrt::Point3", ptr %cond.i19.i, i64 %cond.i.i1971
  br label %if.end661

if.else.i1146:                                    ; preds = %if.then658
  %cmp4.i = icmp ugt i64 %sub.ptr.div.i1139, %conv659
  %add.ptr.i1147 = getelementptr inbounds %"class.pbrt::Point3", ptr %pRing.sroa.0.02728, i64 %conv659
  %spec.select = select i1 %cmp4.i, ptr %add.ptr.i1147, ptr %pRing.sroa.23.02729
  br label %if.end661

lpad634:                                          ; preds = %_ZNSt12_Vector_baseIN4pbrt7Normal3IfEESaIS2_EE11_M_allocateEm.exit.i
  %302 = landingpad { ptr, i32 }
          cleanup
  br label %ehcleanup943

lpad638:                                          ; preds = %invoke.cont635
  %303 = landingpad { ptr, i32 }
          cleanup
  br label %ehcleanup943

