; ModuleID = 'bench/pbrt-v4/original/parser.cpp.ll'
source_filename = "bench/pbrt-v4/original/parser.cpp.ll"
target datalayout = "e-m:e-p270:32:32-p271:32:32-p272:64:64-i64:64-i128:128-f80:128-n8:16:32:64-S128"
target triple = "x86_64-unknown-linux-gnu"

%"class.pbrt::StatRegisterer" = type { i8 }
%"class.std::ios_base::Init" = type { i8 }
%"class.double_conversion::StringToDoubleConverter" = type <{ i32, [4 x i8], double, double, ptr, ptr, i16, [6 x i8] }>
%"class.std::basic_ostream" = type { ptr, %"class.std::basic_ios" }
%"class.std::basic_ios" = type { %"class.std::ios_base", ptr, i8, i8, ptr, ptr, ptr, ptr }
%"class.std::ios_base" = type { ptr, i64, i64, i32, i32, i32, ptr, %"struct.std::ios_base::_Words", [8 x %"struct.std::ios_base::_Words"], i32, ptr, %"class.std::locale" }
%"struct.std::ios_base::_Words" = type { ptr, i64 }
%"class.std::locale" = type { ptr }
%"struct.std::piecewise_construct_t" = type { i8 }
%"class.pbrt::ParsedParameter" = type <{ %"class.std::__cxx11::basic_string", %"class.std::__cxx11::basic_string", %"struct.pbrt::FileLoc", %"class.pstd::vector", %"class.pstd::vector.4", %"class.pstd::vector.6", %"class.pstd::vector.8", i8, [7 x i8], ptr, i8, [7 x i8] }>
%"class.std::__cxx11::basic_string" = type { %"struct.std::__cxx11::basic_string<char>::_Alloc_hider", i64, %union.anon }
%"struct.std::__cxx11::basic_string<char>::_Alloc_hider" = type { ptr }
%union.anon = type { i64, [8 x i8] }
%"struct.pbrt::FileLoc" = type { %"class.std::basic_string_view", i32, i32 }
%"class.std::basic_string_view" = type { i64, ptr }
%"class.pstd::vector" = type { %"class.pstd::pmr::polymorphic_allocator", ptr, i64, i64 }
%"class.pstd::pmr::polymorphic_allocator" = type { ptr }
%"class.pstd::vector.4" = type { %"class.pstd::pmr::polymorphic_allocator.5", ptr, i64, i64 }
%"class.pstd::pmr::polymorphic_allocator.5" = type { ptr }
%"class.pstd::vector.6" = type { %"class.pstd::pmr::polymorphic_allocator.7", ptr, i64, i64 }
%"class.pstd::pmr::polymorphic_allocator.7" = type { ptr }
%"class.pstd::vector.8" = type { %"class.pstd::pmr::polymorphic_allocator.9", ptr, i64, i64 }
%"class.pstd::pmr::polymorphic_allocator.9" = type { ptr }
%"class.std::allocator" = type { i8 }
%"struct.pbrt::Token" = type { %"class.std::basic_string_view", %"struct.pbrt::FileLoc" }
%"class.std::unique_ptr" = type { %"struct.std::__uniq_ptr_data" }
%"struct.std::__uniq_ptr_data" = type { %"class.std::__uniq_ptr_impl" }
%"class.std::__uniq_ptr_impl" = type { %"class.std::tuple" }
%"class.std::tuple" = type { %"struct.std::_Tuple_impl" }
%"struct.std::_Tuple_impl" = type { %"struct.std::_Head_base.13" }
%"struct.std::_Head_base.13" = type { ptr }
%struct.stat = type { i64, i64, i64, i32, i32, i32, i32, i64, i64, i64, i64, %struct.timespec, %struct.timespec, %struct.timespec, [3 x i64] }
%struct.timespec = type { i64, i64 }
%"class.std::_Function_base" = type { %"union.std::_Any_data", ptr }
%"union.std::_Any_data" = type { %"union.std::_Nocopy_types" }
%"union.std::_Nocopy_types" = type { { i64, i64 } }
%"class.std::function" = type { %"class.std::_Function_base", ptr }
%"class.pbrt::Tokenizer" = type { %"struct.pbrt::FileLoc", %"class.std::function", ptr, i64, %"class.std::__cxx11::basic_string", ptr, ptr, %"class.std::__cxx11::basic_string" }
%"class.pstd::optional" = type { %"union.std::aligned_storage<40, 8>::type", i8, [7 x i8] }
%"union.std::aligned_storage<40, 8>::type" = type { [40 x i8] }
%"class.std::_Bind" = type { %class.anon.75, %"class.std::tuple.134" }
%class.anon.75 = type { %class.anon.22, ptr }
%class.anon.22 = type { i8 }
%"class.std::tuple.134" = type { %"struct.std::_Tuple_impl.135" }
%"struct.std::_Tuple_impl.135" = type { %"struct.std::_Head_base.136" }
%"struct.std::_Head_base.136" = type { %"class.std::__cxx11::basic_string" }
%"class.std::unique_lock" = type <{ ptr, i8, [7 x i8] }>
%"class.std::vector.17" = type { %"struct.std::_Vector_base.18" }
%"struct.std::_Vector_base.18" = type { %"struct.std::_Vector_base<std::unique_ptr<pbrt::Tokenizer>, std::allocator<std::unique_ptr<pbrt::Tokenizer>>>::_Vector_impl" }
%"struct.std::_Vector_base<std::unique_ptr<pbrt::Tokenizer>, std::allocator<std::unique_ptr<pbrt::Tokenizer>>>::_Vector_impl" = type { %"struct.std::_Vector_base<std::unique_ptr<pbrt::Tokenizer>, std::allocator<std::unique_ptr<pbrt::Tokenizer>>>::_Vector_impl_data" }
%"struct.std::_Vector_base<std::unique_ptr<pbrt::Tokenizer>, std::allocator<std::unique_ptr<pbrt::Tokenizer>>>::_Vector_impl_data" = type { ptr, ptr, ptr }
%"class.std::function.24" = type { %"class.std::_Function_base", ptr }
%class.anon.27 = type { ptr }
%class.anon.28 = type { ptr, ptr, ptr, ptr, ptr }
%"class.pbrt::InlinedVector" = type { %"class.pstd::pmr::polymorphic_allocator.40", ptr, %union.anon.41, i64, i64 }
%"class.pstd::pmr::polymorphic_allocator.40" = type { ptr }
%union.anon.41 = type { [8 x ptr] }
%"class.std::function.76" = type { %"class.std::_Function_base", ptr }
%"class.pbrt::BasicSceneBuilder" = type { %"class.pbrt::ParserTarget.base", ptr, i32, [4 x i8], %"struct.pbrt::BasicSceneBuilder::GraphicsState", %"class.std::map.43", %"class.pbrt::Transform", [32 x i8], %"class.pbrt::InternCache", %"class.std::vector.51", %"class.std::vector.56", ptr, %"class.std::vector.61", %"class.std::vector.66", %"class.std::set", %"class.std::set", %"class.std::set", %"class.std::set", %"class.std::set", i32, i32, %"struct.pbrt::SceneEntity", %"struct.pbrt::SceneEntity", %"struct.pbrt::SceneEntity", %"struct.pbrt::SceneEntity", %"struct.pbrt::SceneEntity", %"struct.pbrt::CameraSceneEntity", [40 x i8] }
%"class.pbrt::ParserTarget.base" = type <{ ptr, i8 }>
%"struct.pbrt::BasicSceneBuilder::GraphicsState" = type <{ %"class.std::__cxx11::basic_string", %"class.std::__cxx11::basic_string", i32, [4 x i8], %"class.std::__cxx11::basic_string", %"class.std::__cxx11::basic_string", %"class.pbrt::ParameterDictionary", %"struct.pbrt::FileLoc", %"class.pbrt::InlinedVector", %"class.pbrt::InlinedVector", %"class.pbrt::InlinedVector", %"class.pbrt::InlinedVector", %"class.pbrt::InlinedVector", i8, [7 x i8], ptr, %"struct.pbrt::TransformSet", i32, float, float, [4 x i8] }>
%"class.pbrt::ParameterDictionary" = type <{ %"class.pbrt::InlinedVector", ptr, i32, [4 x i8] }>
%"struct.pbrt::TransformSet" = type { [2 x %"class.pbrt::Transform"] }
%"class.std::map.43" = type { %"class.std::_Rb_tree.44" }
%"class.std::_Rb_tree.44" = type { %"struct.std::_Rb_tree<std::__cxx11::basic_string<char>, std::pair<const std::__cxx11::basic_string<char>, pbrt::TransformSet>, std::_Select1st<std::pair<const std::__cxx11::basic_string<char>, pbrt::TransformSet>>, std::less<std::__cxx11::basic_string<char>>>::_Rb_tree_impl" }
%"struct.std::_Rb_tree<std::__cxx11::basic_string<char>, std::pair<const std::__cxx11::basic_string<char>, pbrt::TransformSet>, std::_Select1st<std::pair<const std::__cxx11::basic_string<char>, pbrt::TransformSet>>, std::less<std::__cxx11::basic_string<char>>>::_Rb_tree_impl" = type { %"struct.std::_Rb_tree_key_compare", %"struct.std::_Rb_tree_header" }
%"struct.std::_Rb_tree_key_compare" = type { %"struct.std::less" }
%"struct.std::less" = type { i8 }
%"struct.std::_Rb_tree_header" = type { %"struct.std::_Rb_tree_node_base", i64 }
%"struct.std::_Rb_tree_node_base" = type { i32, ptr, ptr, ptr }
%"class.pbrt::Transform" = type { %"class.pbrt::SquareMatrix.42", %"class.pbrt::SquareMatrix.42" }
%"class.pbrt::SquareMatrix.42" = type { [4 x [4 x float]] }
%"class.pbrt::InternCache" = type { %"class.pstd::pmr::monotonic_buffer_resource", %"class.pstd::pmr::polymorphic_allocator.48", i64, %"class.pstd::vector.49", %"class.std::shared_mutex", [24 x i8] }
%"class.pstd::pmr::monotonic_buffer_resource" = type { %"class.pstd::pmr::memory_resource", ptr, i64, ptr, i64, ptr, [16 x i8] }
%"class.pstd::pmr::memory_resource" = type { ptr }
%"class.pstd::pmr::polymorphic_allocator.48" = type { ptr }
%"class.pstd::vector.49" = type { %"class.pstd::pmr::polymorphic_allocator.50", ptr, i64, i64 }
%"class.pstd::pmr::polymorphic_allocator.50" = type { ptr }
%"class.std::shared_mutex" = type { %"class.std::__shared_mutex_pthread" }
%"class.std::__shared_mutex_pthread" = type { %union.pthread_rwlock_t }
%union.pthread_rwlock_t = type { %struct.__pthread_rwlock_arch_t }
%struct.__pthread_rwlock_arch_t = type { i32, i32, i32, i32, i32, i32, i32, i32, i8, [7 x i8], i64, i32 }
%"class.std::vector.51" = type { %"struct.std::_Vector_base.52" }
%"struct.std::_Vector_base.52" = type { %"struct.std::_Vector_base<pbrt::BasicSceneBuilder::GraphicsState, std::allocator<pbrt::BasicSceneBuilder::GraphicsState>>::_Vector_impl" }
%"struct.std::_Vector_base<pbrt::BasicSceneBuilder::GraphicsState, std::allocator<pbrt::BasicSceneBuilder::GraphicsState>>::_Vector_impl" = type { %"struct.std::_Vector_base<pbrt::BasicSceneBuilder::GraphicsState, std::allocator<pbrt::BasicSceneBuilder::GraphicsState>>::_Vector_impl_data" }
%"struct.std::_Vector_base<pbrt::BasicSceneBuilder::GraphicsState, std::allocator<pbrt::BasicSceneBuilder::GraphicsState>>::_Vector_impl_data" = type { ptr, ptr, ptr }
%"class.std::vector.56" = type { %"struct.std::_Vector_base.57" }
%"struct.std::_Vector_base.57" = type { %"struct.std::_Vector_base<std::pair<char, pbrt::FileLoc>, std::allocator<std::pair<char, pbrt::FileLoc>>>::_Vector_impl" }
%"struct.std::_Vector_base<std::pair<char, pbrt::FileLoc>, std::allocator<std::pair<char, pbrt::FileLoc>>>::_Vector_impl" = type { %"struct.std::_Vector_base<std::pair<char, pbrt::FileLoc>, std::allocator<std::pair<char, pbrt::FileLoc>>>::_Vector_impl_data" }
%"struct.std::_Vector_base<std::pair<char, pbrt::FileLoc>, std::allocator<std::pair<char, pbrt::FileLoc>>>::_Vector_impl_data" = type { ptr, ptr, ptr }
%"class.std::vector.61" = type { %"struct.std::_Vector_base.62" }
%"struct.std::_Vector_base.62" = type { %"struct.std::_Vector_base<pbrt::ShapeSceneEntity, std::allocator<pbrt::ShapeSceneEntity>>::_Vector_impl" }
%"struct.std::_Vector_base<pbrt::ShapeSceneEntity, std::allocator<pbrt::ShapeSceneEntity>>::_Vector_impl" = type { %"struct.std::_Vector_base<pbrt::ShapeSceneEntity, std::allocator<pbrt::ShapeSceneEntity>>::_Vector_impl_data" }
%"struct.std::_Vector_base<pbrt::ShapeSceneEntity, std::allocator<pbrt::ShapeSceneEntity>>::_Vector_impl_data" = type { ptr, ptr, ptr }
%"class.std::vector.66" = type { %"struct.std::_Vector_base.67" }
%"struct.std::_Vector_base.67" = type { %"struct.std::_Vector_base<pbrt::InstanceSceneEntity, std::allocator<pbrt::InstanceSceneEntity>>::_Vector_impl" }
%"struct.std::_Vector_base<pbrt::InstanceSceneEntity, std::allocator<pbrt::InstanceSceneEntity>>::_Vector_impl" = type { %"struct.std::_Vector_base<pbrt::InstanceSceneEntity, std::allocator<pbrt::InstanceSceneEntity>>::_Vector_impl_data" }
%"struct.std::_Vector_base<pbrt::InstanceSceneEntity, std::allocator<pbrt::InstanceSceneEntity>>::_Vector_impl_data" = type { ptr, ptr, ptr }
%"class.std::set" = type { %"class.std::_Rb_tree.71" }
%"class.std::_Rb_tree.71" = type { %"struct.std::_Rb_tree<std::__cxx11::basic_string<char>, std::__cxx11::basic_string<char>, std::_Identity<std::__cxx11::basic_string<char>>, std::less<std::__cxx11::basic_string<char>>>::_Rb_tree_impl" }
%"struct.std::_Rb_tree<std::__cxx11::basic_string<char>, std::__cxx11::basic_string<char>, std::_Identity<std::__cxx11::basic_string<char>>, std::less<std::__cxx11::basic_string<char>>>::_Rb_tree_impl" = type { %"struct.std::_Rb_tree_key_compare", %"struct.std::_Rb_tree_header" }
%"struct.pbrt::SceneEntity" = type { %"class.pbrt::InternedString", %"struct.pbrt::FileLoc", %"class.pbrt::ParameterDictionary" }
%"class.pbrt::InternedString" = type { ptr }
%"struct.pbrt::CameraSceneEntity" = type { %"struct.pbrt::SceneEntity", %"class.pbrt::CameraTransform", %"class.std::__cxx11::basic_string" }
%"class.pbrt::CameraTransform" = type { %"class.pbrt::AnimatedTransform", %"class.pbrt::Transform" }
%"class.pbrt::AnimatedTransform" = type { %"class.pbrt::Transform", %"class.pbrt::Transform", float, float, i8, [2 x %"class.pbrt::Vector3"], [2 x %"class.pbrt::Quaternion"], [2 x %"class.pbrt::SquareMatrix.42"], i8, [3 x %"struct.pbrt::AnimatedTransform::DerivativeTerm"], [3 x %"struct.pbrt::AnimatedTransform::DerivativeTerm"], [3 x %"struct.pbrt::AnimatedTransform::DerivativeTerm"], [3 x %"struct.pbrt::AnimatedTransform::DerivativeTerm"], [3 x %"struct.pbrt::AnimatedTransform::DerivativeTerm"] }
%"class.pbrt::Vector3" = type { %"class.pbrt::Tuple3" }
%"class.pbrt::Tuple3" = type { float, float, float }
%"class.pbrt::Quaternion" = type { %"class.pbrt::Vector3", float }
%"struct.pbrt::AnimatedTransform::DerivativeTerm" = type { float, float, float, float }
%"class.pbrt::ParallelJob" = type <{ ptr, i32, [4 x i8], ptr, ptr, i8, [7 x i8] }>
%"class.pbrt::AsyncJob" = type { %"class.pbrt::ParallelJob.base", %"class.std::function.80", i8, [3 x i8], %"class.pstd::optional.82", %"class.std::mutex", %"class.std::condition_variable" }
%"class.pbrt::ParallelJob.base" = type <{ ptr, i32, [4 x i8], ptr, ptr, i8 }>
%"class.std::function.80" = type { %"class.std::_Function_base", ptr }
%"class.pstd::optional.82" = type { %"union.std::aligned_storage<4, 4>::type", i8, [3 x i8] }
%"union.std::aligned_storage<4, 4>::type" = type { [4 x i8] }
%"class.std::mutex" = type { %"class.std::__mutex_base" }
%"class.std::__mutex_base" = type { %union.pthread_mutex_t }
%union.pthread_mutex_t = type { %struct.__pthread_mutex_s }
%struct.__pthread_mutex_s = type { i32, i32, i32, i32, i32, i16, i16, %struct.__pthread_internal_list }
%struct.__pthread_internal_list = type { ptr, ptr }
%"class.std::condition_variable" = type { %"class.std::__condvar" }
%"class.std::__condvar" = type { %union.pthread_cond_t }
%union.pthread_cond_t = type { %struct.__pthread_cond_s }
%struct.__pthread_cond_s = type { %union.__atomic_wide_counter, %union.__atomic_wide_counter, [2 x i32], [2 x i32], i32, i32, [2 x i32] }
%union.__atomic_wide_counter = type { i64 }
%"struct.std::pair" = type { ptr, ptr }
%"class.pbrt::FormattingParserTarget" = type { %"class.pbrt::ParserTarget.base", i32, i8, i8, %"class.std::map", %"class.std::map", %"class.std::map.35", %"class.std::map" }
%"class.std::map.35" = type { %"class.std::_Rb_tree.36" }
%"class.std::_Rb_tree.36" = type { %"struct.std::_Rb_tree<std::__cxx11::basic_string<char>, std::pair<const std::__cxx11::basic_string<char>, pbrt::ParameterDictionary>, std::_Select1st<std::pair<const std::__cxx11::basic_string<char>, pbrt::ParameterDictionary>>, std::less<std::__cxx11::basic_string<char>>>::_Rb_tree_impl" }
%"struct.std::_Rb_tree<std::__cxx11::basic_string<char>, std::pair<const std::__cxx11::basic_string<char>, pbrt::ParameterDictionary>, std::_Select1st<std::pair<const std::__cxx11::basic_string<char>, pbrt::ParameterDictionary>>, std::less<std::__cxx11::basic_string<char>>>::_Rb_tree_impl" = type { %"struct.std::_Rb_tree_key_compare", %"struct.std::_Rb_tree_header" }
%"class.std::map" = type { %"class.std::_Rb_tree" }
%"class.std::_Rb_tree" = type { %"struct.std::_Rb_tree<std::__cxx11::basic_string<char>, std::pair<const std::__cxx11::basic_string<char>, std::__cxx11::basic_string<char>>, std::_Select1st<std::pair<const std::__cxx11::basic_string<char>, std::__cxx11::basic_string<char>>>, std::less<std::__cxx11::basic_string<char>>>::_Rb_tree_impl" }
%"struct.std::_Rb_tree<std::__cxx11::basic_string<char>, std::pair<const std::__cxx11::basic_string<char>, std::__cxx11::basic_string<char>>, std::_Select1st<std::pair<const std::__cxx11::basic_string<char>, std::__cxx11::basic_string<char>>>, std::less<std::__cxx11::basic_string<char>>>::_Rb_tree_impl" = type { %"struct.std::_Rb_tree_key_compare", %"struct.std::_Rb_tree_header" }
%class.anon.164 = type { ptr, ptr, ptr }
%"class.pbrt::ParserTarget" = type <{ ptr, i8, [7 x i8] }>
%"class.std::vector.90" = type { %"struct.std::_Vector_base.91" }
%"struct.std::_Vector_base.91" = type { %"struct.std::_Vector_base<float, std::allocator<float>>::_Vector_impl" }
%"struct.std::_Vector_base<float, std::allocator<float>>::_Vector_impl" = type { %"struct.std::_Vector_base<float, std::allocator<float>>::_Vector_impl_data" }
%"struct.std::_Vector_base<float, std::allocator<float>>::_Vector_impl_data" = type { ptr, ptr, ptr }
%"class.std::vector.95" = type { %"struct.std::_Vector_base.96" }
%"struct.std::_Vector_base.96" = type { %"struct.std::_Vector_base<int, std::allocator<int>>::_Vector_impl" }
%"struct.std::_Vector_base<int, std::allocator<int>>::_Vector_impl" = type { %"struct.std::_Vector_base<int, std::allocator<int>>::_Vector_impl_data" }
%"struct.std::_Vector_base<int, std::allocator<int>>::_Vector_impl_data" = type { ptr, ptr, ptr }
%"class.std::vector.100" = type { %"struct.std::_Vector_base.101" }
%"struct.std::_Vector_base.101" = type { %"struct.std::_Vector_base<unsigned char, std::allocator<unsigned char>>::_Vector_impl" }
%"struct.std::_Vector_base<unsigned char, std::allocator<unsigned char>>::_Vector_impl" = type { %"struct.std::_Vector_base<unsigned char, std::allocator<unsigned char>>::_Vector_impl_data" }
%"struct.std::_Vector_base<unsigned char, std::allocator<unsigned char>>::_Vector_impl_data" = type { ptr, ptr, ptr }
%"struct.std::_Rb_tree_node" = type { %"struct.std::_Rb_tree_node_base", %"struct.__gnu_cxx::__aligned_membuf" }
%"struct.__gnu_cxx::__aligned_membuf" = type { [64 x i8] }
%"class.std::tuple.170" = type { %"struct.std::_Tuple_impl.171" }
%"struct.std::_Tuple_impl.171" = type { %"struct.std::_Head_base.172" }
%"struct.std::_Head_base.172" = type { ptr }
%"class.std::tuple.143" = type { i8 }
%class.anon.105 = type { ptr, ptr, ptr }
%"class.std::vector.106" = type { %"struct.std::_Vector_base.107" }
%"struct.std::_Vector_base.107" = type { %"struct.std::_Vector_base<pbrt::Spectrum, std::allocator<pbrt::Spectrum>>::_Vector_impl" }
%"struct.std::_Vector_base<pbrt::Spectrum, std::allocator<pbrt::Spectrum>>::_Vector_impl" = type { %"struct.std::_Vector_base<pbrt::Spectrum, std::allocator<pbrt::Spectrum>>::_Vector_impl_data" }
%"struct.std::_Vector_base<pbrt::Spectrum, std::allocator<pbrt::Spectrum>>::_Vector_impl_data" = type { ptr, ptr, ptr }
%"class.pstd::optional.111" = type { %"union.std::aligned_storage<12, 4>::type", i8, [3 x i8] }
%"union.std::aligned_storage<12, 4>::type" = type { [12 x i8] }
%"class.pbrt::RGB" = type { float, float, float }
%"struct.std::_Rb_tree_node.147" = type { %"struct.std::_Rb_tree_node_base", %"struct.__gnu_cxx::__aligned_membuf.148" }
%"struct.__gnu_cxx::__aligned_membuf.148" = type { [144 x i8] }
%struct._Guard = type { ptr }
%"class.std::vector.152" = type { %"struct.std::_Vector_base.153" }
%"struct.std::_Vector_base.153" = type { %"struct.std::_Vector_base<pbrt::Point2<float>, std::allocator<pbrt::Point2<float>>>::_Vector_impl" }
%"struct.std::_Vector_base<pbrt::Point2<float>, std::allocator<pbrt::Point2<float>>>::_Vector_impl" = type { %"struct.std::_Vector_base<pbrt::Point2<float>, std::allocator<pbrt::Point2<float>>>::_Vector_impl_data" }
%"struct.std::_Vector_base<pbrt::Point2<float>, std::allocator<pbrt::Point2<float>>>::_Vector_impl_data" = type { ptr, ptr, ptr }
%class.anon.157 = type { ptr, ptr }
%"class.std::vector.114" = type { %"struct.std::_Vector_base.115" }
%"struct.std::_Vector_base.115" = type { %"struct.std::_Vector_base<pbrt::Point3<float>, std::allocator<pbrt::Point3<float>>>::_Vector_impl" }
%"struct.std::_Vector_base<pbrt::Point3<float>, std::allocator<pbrt::Point3<float>>>::_Vector_impl" = type { %"struct.std::_Vector_base<pbrt::Point3<float>, std::allocator<pbrt::Point3<float>>>::_Vector_impl_data" }
%"struct.std::_Vector_base<pbrt::Point3<float>, std::allocator<pbrt::Point3<float>>>::_Vector_impl_data" = type { ptr, ptr, ptr }
%"class.pbrt::Point2" = type { %"class.pbrt::Tuple2" }
%"class.pbrt::Tuple2" = type { float, float }
%"class.std::__cxx11::basic_stringstream" = type { %"class.std::basic_iostream.base", %"class.std::__cxx11::basic_stringbuf", %"class.std::basic_ios" }
%"class.std::basic_iostream.base" = type { %"class.std::basic_istream.base", %"class.std::basic_ostream.base" }
%"class.std::basic_istream.base" = type { ptr, i64 }
%"class.std::basic_ostream.base" = type { ptr }
%"class.std::__cxx11::basic_stringbuf" = type { %"class.std::basic_streambuf", i32, %"class.std::__cxx11::basic_string" }
%"class.std::basic_streambuf" = type { ptr, ptr, ptr, ptr, ptr, ptr, ptr, %"class.std::locale" }
%class.anon.26 = type { ptr, ptr, ptr, ptr, ptr }
%"struct.std::_Rb_tree<std::__cxx11::basic_string<char>, std::pair<const std::__cxx11::basic_string<char>, std::__cxx11::basic_string<char>>, std::_Select1st<std::pair<const std::__cxx11::basic_string<char>, std::__cxx11::basic_string<char>>>, std::less<std::__cxx11::basic_string<char>>>::_Auto_node" = type { ptr, ptr }
%"struct.std::_Rb_tree<std::__cxx11::basic_string<char>, std::pair<const std::__cxx11::basic_string<char>, pbrt::ParameterDictionary>, std::_Select1st<std::pair<const std::__cxx11::basic_string<char>, pbrt::ParameterDictionary>>, std::less<std::__cxx11::basic_string<char>>>::_Auto_node" = type { ptr, ptr }

$_ZN4pbrt8LogFatalIJRA49_KcEEEvNS_8LogLevelEPS1_iS5_DpOT_ = comdat any

$_ZN4pbrt8LogFatalIJRA51_KcEEEvNS_8LogLevelEPS1_iS5_DpOT_ = comdat any

$_ZN4pbrt8LogFatalIJRA48_KcEEEvNS_8LogLevelEPS1_iS5_DpOT_ = comdat any

$_ZN4pstd6vectorINSt7__cxx1112basic_stringIcSt11char_traitsIcESaIcEEENS_3pmr21polymorphic_allocatorIS6_EEE9push_backEOS6_ = comdat any

$_ZNSt7__cxx1112basic_stringIcSt11char_traitsIcESaIcEEC2IPKcvEET_S8_RKS3_ = comdat any

$_ZN4pbrt8LogFatalIJRA50_KcEEEvNS_8LogLevelEPS1_iS5_DpOT_ = comdat any

$_ZNSt7__cxx1112basic_stringIcSt11char_traitsIcESaIcEEC2IS3_EEPKcRKS3_ = comdat any

$_ZStplIcSt11char_traitsIcESaIcEENSt7__cxx1112basic_stringIT_T0_T1_EES5_RKS8_ = comdat any

$_ZSt11make_uniqueIN4pbrt9TokenizerEJNSt7__cxx1112basic_stringIcSt11char_traitsIcESaIcEEERA8_KcSt8functionIFvPS8_PKNS0_7FileLocEEEEENSt8__detail9_MakeUniqIT_E15__single_objectEDpOT0_ = comdat any

$_ZSt11make_uniqueIN4pbrt9TokenizerEJNSt7__cxx1112basic_stringIcSt11char_traitsIcESaIcEEERKS7_St8functionIFvPKcPKNS0_7FileLocEEEEENSt8__detail9_MakeUniqIT_E15__single_objectEDpOT0_ = comdat any

$_ZNKSt8functionIFvPKcPKN4pbrt7FileLocEEEclES1_S5_ = comdat any

$_ZN4pbrt12StringPrintfIJRKNSt7__cxx1112basic_stringIcSt11char_traitsIcESaIcEEES6_EEES6_PKcDpOT_ = comdat any

$_ZSt11make_uniqueIN4pbrt9TokenizerEJRPvRmRKNSt7__cxx1112basic_stringIcSt11char_traitsIcESaIcEEESt8functionIFvPKcPKNS0_7FileLocEEEEENSt8__detail9_MakeUniqIT_E15__single_objectEDpOT0_ = comdat any

$__clang_call_terminate = comdat any

$_ZN4pbrt8LogFatalIJRA2_KcRA4_S1_S3_RPS1_S5_S7_EEEvNS_8LogLevelES6_iS6_DpOT_ = comdat any

$_ZNK4pbrt22FormattingParserTarget6indentB5cxx11Ei = comdat any

$_ZNSt10unique_ptrIN4pbrt9TokenizerESt14default_deleteIS1_EED2Ev = comdat any

$_ZN4pbrt8LogFatalIJRA8_KcEEEvNS_8LogLevelEPS1_iS5_DpOT_ = comdat any

$_ZN4pbrt13InlinedVectorIPNS_15ParsedParameterELi8EN4pstd3pmr21polymorphic_allocatorIS2_EEED2Ev = comdat any

$_ZN4pbrt8AsyncJobIiE4WaitEv = comdat any

$_ZNSt6vectorISt10unique_ptrIN4pbrt9TokenizerESt14default_deleteIS2_EESaIS5_EED2Ev = comdat any

$_ZN4pbrt9ErrorExitIJEEEvPKcDpOT_ = comdat any

$_ZN4pbrt19ParameterDictionaryD2Ev = comdat any

$_ZNSt3mapINSt7__cxx1112basic_stringIcSt11char_traitsIcESaIcEEES5_St4lessIS5_ESaISt4pairIKS5_S5_EEEixERS9_ = comdat any

$_ZNK4pbrt12ParserTarget17ErrorExitDeferredIJRKNSt7__cxx1112basic_stringIcSt11char_traitsIcESaIcEEEEEEvPKNS_7FileLocEPKcDpOT_ = comdat any

$_ZNK4pbrt12ParserTarget17ErrorExitDeferredIJRNSt7__cxx1112basic_stringIcSt11char_traitsIcESaIcEEEEEEvPKNS_7FileLocEPKcDpOT_ = comdat any

$_ZNSt3mapINSt7__cxx1112basic_stringIcSt11char_traitsIcESaIcEEEN4pbrt19ParameterDictionaryESt4lessIS5_ESaISt4pairIKS5_S7_EEEixERSB_ = comdat any

$_ZN4pbrt9ErrorExitIJRNSt7__cxx1112basic_stringIcSt11char_traitsIcESaIcEEEEEEvPKNS_7FileLocEPKcDpOT_ = comdat any

$_ZN4pbrt9ErrorExitIJRiEEEvPKNS_7FileLocEPKcDpOT_ = comdat any

$_ZN4pbrt6detail21stringPrintfRecursiveIRNSt7__cxx1112basic_stringIcSt11char_traitsIcESaIcEEEJRPKcEEEvPS7_SA_OT_DpOT0_ = comdat any

$_ZN4pbrt6detail9formatOneIPKcEENSt9enable_ifIXntsr3stdE10is_class_vINSt5decayIT_E4typeEEENSt7__cxx1112basic_stringIcSt11char_traitsIcESaIcEEEE4typeES3_OS6_ = comdat any

$_ZN4pbrt6detail21stringPrintfRecursiveIRPKcJEEEvPNSt7__cxx1112basic_stringIcSt11char_traitsIcESaIcEEES3_OT_DpOT0_ = comdat any

$_ZN4pbrt8LogFatalIJPKcRS2_EEEvNS_8LogLevelES2_iS2_DpOT_ = comdat any

$_ZN4pbrt6detail21stringPrintfRecursiveIPKcJRS3_EEEvPNSt7__cxx1112basic_stringIcSt11char_traitsIcESaIcEEES3_OT_DpOT0_ = comdat any

$_ZN4pbrt6detail9formatOneIRPKcEENSt9enable_ifIXntsr3stdE10is_class_vINSt5decayIT_E4typeEEENSt7__cxx1112basic_stringIcSt11char_traitsIcESaIcEEEE4typeES3_OS7_ = comdat any

$_ZN4pbrt9ErrorExitIJRPKcEEEvPKNS_7FileLocES2_DpOT_ = comdat any

$_ZN4pbrt9ErrorExitIJNSt7__cxx1112basic_stringIcSt11char_traitsIcESaIcEEEEEEvPKNS_7FileLocEPKcDpOT_ = comdat any

$_ZN4pbrt9ErrorExitIJRKcEEEvPKNS_7FileLocEPS1_DpOT_ = comdat any

$_ZN4pbrt6detail21stringPrintfRecursiveIRKcJEEEvPNSt7__cxx1112basic_stringIcSt11char_traitsIcESaIcEEEPS2_OT_DpOT0_ = comdat any

$_ZN4pbrt6detail9formatOneIRKcEENSt9enable_ifIXntsr3stdE10is_class_vINSt5decayIT_E4typeEEENSt7__cxx1112basic_stringIcSt11char_traitsIcESaIcEEEE4typeEPS2_OS6_ = comdat any

$_ZN4pbrt8AsyncJobIiE6DoWorkEv = comdat any

$_ZN4pbrt6detail21stringPrintfRecursiveIRNSt7__cxx1112basic_stringIcSt11char_traitsIcESaIcEEEJdEEEvPS7_PKcOT_DpOT0_ = comdat any

$_ZN4pbrt6detail21stringPrintfRecursiveIdJEEEvPNSt7__cxx1112basic_stringIcSt11char_traitsIcESaIcEEEPKcOT_DpOT0_ = comdat any

$_ZN4pbrt6detail9formatOneIdEENSt9enable_ifIXntsr3stdE10is_class_vINSt5decayIT_E4typeEEENSt7__cxx1112basic_stringIcSt11char_traitsIcESaIcEEEE4typeEPKcOS4_ = comdat any

$_ZN4pbrt8AsyncJobIiED2Ev = comdat any

$_ZN4pbrt8AsyncJobIiED0Ev = comdat any

$_ZNK4pbrt8AsyncJobIiE8HaveWorkEv = comdat any

$_ZN4pbrt8AsyncJobIiE7RunStepEPSt11unique_lockISt5mutexE = comdat any

$_ZNK4pbrt8AsyncJobIiE8ToStringB5cxx11Ev = comdat any

$_ZN4pbrt11ParallelJobD2Ev = comdat any

$_ZN4pbrt11ParallelJobD0Ev = comdat any

$_ZN4pbrt8LogFatalIJRA4_KcEEEvNS_8LogLevelEPS1_iS5_DpOT_ = comdat any

$_ZN4pbrt6detail21stringPrintfRecursiveIRA4_KcJEEEvPNSt7__cxx1112basic_stringIcSt11char_traitsIcESaIcEEEPS2_OT_DpOT0_ = comdat any

$_ZN4pbrt6detail9formatOneIRA4_KcEENSt9enable_ifIXntsr3stdE10is_class_vINSt5decayIT_E4typeEEENSt7__cxx1112basic_stringIcSt11char_traitsIcESaIcEEEE4typeEPS2_OS7_ = comdat any

$_ZN4pbrt6detail21stringPrintfRecursiveIRKbJEEEvPNSt7__cxx1112basic_stringIcSt11char_traitsIcESaIcEEEPKcOT_DpOT0_ = comdat any

$_ZN4pbrt6detail9formatOneIRKbEENSt9enable_ifIXntsr3stdE10is_class_vINSt5decayIT_E4typeEEENSt7__cxx1112basic_stringIcSt11char_traitsIcESaIcEEEE4typeEPKcOS6_ = comdat any

$_ZN4pbrt8LogFatalIJRA20_KcEEEvNS_8LogLevelEPS1_iS5_DpOT_ = comdat any

$_ZN4pbrt6detail21stringPrintfRecursiveIRA20_KcJEEEvPNSt7__cxx1112basic_stringIcSt11char_traitsIcESaIcEEEPS2_OT_DpOT0_ = comdat any

$_ZN4pbrt6detail9formatOneIRA20_KcEENSt9enable_ifIXntsr3stdE10is_class_vINSt5decayIT_E4typeEEENSt7__cxx1112basic_stringIcSt11char_traitsIcESaIcEEEE4typeEPS2_OS7_ = comdat any

$_ZN4pbrt8LogFatalIJRA24_KcEEEvNS_8LogLevelEPS1_iS5_DpOT_ = comdat any

$_ZN4pbrt6detail21stringPrintfRecursiveIRA24_KcJEEEvPNSt7__cxx1112basic_stringIcSt11char_traitsIcESaIcEEEPS2_OT_DpOT0_ = comdat any

$_ZN4pbrt6detail9formatOneIRA24_KcEENSt9enable_ifIXntsr3stdE10is_class_vINSt5decayIT_E4typeEEENSt7__cxx1112basic_stringIcSt11char_traitsIcESaIcEEEE4typeEPS2_OS7_ = comdat any

$_ZNSt8_Rb_treeINSt7__cxx1112basic_stringIcSt11char_traitsIcESaIcEEESt4pairIKS5_S5_ESt10_Select1stIS8_ESt4lessIS5_ESaIS8_EE8_M_eraseEPSt13_Rb_tree_nodeIS8_E = comdat any

$_ZNSt8_Rb_treeINSt7__cxx1112basic_stringIcSt11char_traitsIcESaIcEEESt4pairIKS5_N4pbrt19ParameterDictionaryEESt10_Select1stISA_ESt4lessIS5_ESaISA_EE8_M_eraseEPSt13_Rb_tree_nodeISA_E = comdat any

$_ZN4pbrt6detail21stringPrintfRecursiveIRNSt7__cxx1112basic_stringIcSt11char_traitsIcESaIcEEEJS7_EEEvPS7_PKcOT_DpOT0_ = comdat any

$_ZN4pbrt6detail21stringPrintfRecursiveINSt7__cxx1112basic_stringIcSt11char_traitsIcESaIcEEEJEEEvPS7_PKcOT_DpOT0_ = comdat any

$_ZN4pbrt13InlinedVectorIPNS_15ParsedParameterELi8EN4pstd3pmr21polymorphic_allocatorIS2_EEEaSEOS7_ = comdat any

$_ZNSt6vectorIN4pbrt6Point2IfEESaIS2_EEaSERKS4_ = comdat any

$_ZN4pbrt6detail21stringPrintfRecursiveIRfJS2_EEEvPNSt7__cxx1112basic_stringIcSt11char_traitsIcESaIcEEEPKcOT_DpOT0_ = comdat any

$_ZN4pbrt6detail9formatOneIRfEENSt9enable_ifIXntsr3stdE10is_class_vINSt5decayIT_E4typeEEENSt7__cxx1112basic_stringIcSt11char_traitsIcESaIcEEEE4typeEPKcOS5_ = comdat any

$_ZN4pbrt6detail21stringPrintfRecursiveIRfJEEEvPNSt7__cxx1112basic_stringIcSt11char_traitsIcESaIcEEEPKcOT_DpOT0_ = comdat any

$_ZNSt7__cxx1112basic_stringIcSt11char_traitsIcESaIcEE12_M_constructIPKcEEvT_S8_St20forward_iterator_tag = comdat any

$_ZZNSt7__cxx1112basic_stringIcSt11char_traitsIcESaIcEE12_M_constructIPKcEEvT_S8_St20forward_iterator_tagEN6_GuardD2Ev = comdat any

$_ZN4pbrt6detail21stringPrintfRecursiveIRA49_KcJEEEvPNSt7__cxx1112basic_stringIcSt11char_traitsIcESaIcEEEPS2_OT_DpOT0_ = comdat any

$_ZN4pbrt6detail9formatOneIRA49_KcEENSt9enable_ifIXntsr3stdE10is_class_vINSt5decayIT_E4typeEEENSt7__cxx1112basic_stringIcSt11char_traitsIcESaIcEEEE4typeEPS2_OS7_ = comdat any

$_ZN4pbrt6detail21stringPrintfRecursiveIRA51_KcJEEEvPNSt7__cxx1112basic_stringIcSt11char_traitsIcESaIcEEEPS2_OT_DpOT0_ = comdat any

$_ZN4pbrt6detail9formatOneIRA51_KcEENSt9enable_ifIXntsr3stdE10is_class_vINSt5decayIT_E4typeEEENSt7__cxx1112basic_stringIcSt11char_traitsIcESaIcEEEE4typeEPS2_OS7_ = comdat any

$_ZN4pbrt6detail21stringPrintfRecursiveIRA48_KcJEEEvPNSt7__cxx1112basic_stringIcSt11char_traitsIcESaIcEEEPS2_OT_DpOT0_ = comdat any

$_ZN4pbrt6detail9formatOneIRA48_KcEENSt9enable_ifIXntsr3stdE10is_class_vINSt5decayIT_E4typeEEENSt7__cxx1112basic_stringIcSt11char_traitsIcESaIcEEEE4typeEPS2_OS7_ = comdat any

$_ZN4pbrt6detail21stringPrintfRecursiveIRA50_KcJEEEvPNSt7__cxx1112basic_stringIcSt11char_traitsIcESaIcEEEPS2_OT_DpOT0_ = comdat any

$_ZN4pbrt6detail9formatOneIRA50_KcEENSt9enable_ifIXntsr3stdE10is_class_vINSt5decayIT_E4typeEEENSt7__cxx1112basic_stringIcSt11char_traitsIcESaIcEEEE4typeEPS2_OS7_ = comdat any

$_ZN4pbrt6detail21stringPrintfRecursiveIRiJEEEvPNSt7__cxx1112basic_stringIcSt11char_traitsIcESaIcEEEPKcOT_DpOT0_ = comdat any

$_ZN4pbrt6detail9formatOneIRiEENSt9enable_ifIXntsr3stdE10is_class_vINSt5decayIT_E4typeEEENSt7__cxx1112basic_stringIcSt11char_traitsIcESaIcEEEE4typeEPKcOS5_ = comdat any

$_ZN4pbrt6detail21stringPrintfRecursiveINSt7__cxx1112basic_stringIcSt11char_traitsIcESaIcEEEJRKNS_7FileLocEEEEvPS7_PKcOT_DpOT0_ = comdat any

$_ZN4pbrt6detail21stringPrintfRecursiveIRKNS_7FileLocEJEEEvPNSt7__cxx1112basic_stringIcSt11char_traitsIcESaIcEEEPKcOT_DpOT0_ = comdat any

$_ZN4pbrt6detail21stringPrintfRecursiveIRKNSt7__cxx1112basic_stringIcSt11char_traitsIcESaIcEEEJS7_EEEvPS7_PKcOT_DpOT0_ = comdat any

$_ZN4pbrt6detail21stringPrintfRecursiveIRA2_KcJRA4_S2_S4_RPS2_S6_S8_EEEvPNSt7__cxx1112basic_stringIcSt11char_traitsIcESaIcEEES7_OT_DpOT0_ = comdat any

$_ZN4pbrt6detail9formatOneIRA2_KcEENSt9enable_ifIXntsr3stdE10is_class_vINSt5decayIT_E4typeEEENSt7__cxx1112basic_stringIcSt11char_traitsIcESaIcEEEE4typeEPS2_OS7_ = comdat any

$_ZN4pbrt6detail21stringPrintfRecursiveIRA4_KcJRA2_S2_RPS2_S4_S8_EEEvPNSt7__cxx1112basic_stringIcSt11char_traitsIcESaIcEEES7_OT_DpOT0_ = comdat any

$_ZN4pbrt6detail21stringPrintfRecursiveIRA2_KcJRPS2_RA4_S2_S6_EEEvPNSt7__cxx1112basic_stringIcSt11char_traitsIcESaIcEEES5_OT_DpOT0_ = comdat any

$_ZN4pbrt6detail21stringPrintfRecursiveIRPKcJRA4_S2_S4_EEEvPNSt7__cxx1112basic_stringIcSt11char_traitsIcESaIcEEES3_OT_DpOT0_ = comdat any

$_ZN4pbrt6detail21stringPrintfRecursiveIRA4_KcJRPS2_EEEvPNSt7__cxx1112basic_stringIcSt11char_traitsIcESaIcEEES5_OT_DpOT0_ = comdat any

$_ZN4pbrt6detail21stringPrintfRecursiveIRKNSt7__cxx1112basic_stringIcSt11char_traitsIcESaIcEEEJEEEvPS7_PKcOT_DpOT0_ = comdat any

$_ZN4pbrt6detail21stringPrintfRecursiveINSt7__cxx1112basic_stringIcSt11char_traitsIcESaIcEEEJRS7_EEEvPS7_PKcOT_DpOT0_ = comdat any

$_ZN4pbrt6detail21stringPrintfRecursiveIRNSt7__cxx1112basic_stringIcSt11char_traitsIcESaIcEEEJEEEvPS7_PKcOT_DpOT0_ = comdat any

$_ZN4pbrt6detail21stringPrintfRecursiveIRA8_KcJEEEvPNSt7__cxx1112basic_stringIcSt11char_traitsIcESaIcEEEPS2_OT_DpOT0_ = comdat any

$_ZN4pbrt6detail9formatOneIRA8_KcEENSt9enable_ifIXntsr3stdE10is_class_vINSt5decayIT_E4typeEEENSt7__cxx1112basic_stringIcSt11char_traitsIcESaIcEEEE4typeEPS2_OS7_ = comdat any

$_ZN4pbrt6detail21stringPrintfRecursiveINSt7__cxx1112basic_stringIcSt11char_traitsIcESaIcEEEJRKS7_S9_EEEvPS7_PKcOT_DpOT0_ = comdat any

$_ZN4pbrt6detail21stringPrintfRecursiveIRKNSt7__cxx1112basic_stringIcSt11char_traitsIcESaIcEEEJS9_EEEvPS7_PKcOT_DpOT0_ = comdat any

$_ZN4pbrt6detail21stringPrintfRecursiveINSt7__cxx1112basic_stringIcSt11char_traitsIcESaIcEEEJRfS8_S8_EEEvPS7_PKcOT_DpOT0_ = comdat any

$_ZN4pbrt6detail21stringPrintfRecursiveIRfJS2_S2_EEEvPNSt7__cxx1112basic_stringIcSt11char_traitsIcESaIcEEEPKcOT_DpOT0_ = comdat any

$_ZN4pbrt6detail21stringPrintfRecursiveINSt7__cxx1112basic_stringIcSt11char_traitsIcESaIcEEEJRfS8_S8_S8_EEEvPS7_PKcOT_DpOT0_ = comdat any

$_ZN4pbrt6detail21stringPrintfRecursiveIRfJS2_S2_S2_EEEvPNSt7__cxx1112basic_stringIcSt11char_traitsIcESaIcEEEPKcOT_DpOT0_ = comdat any

$_ZN4pbrt6detail21stringPrintfRecursiveINSt7__cxx1112basic_stringIcSt11char_traitsIcESaIcEEEJRfS8_S8_S7_S8_S8_S8_S7_S8_S8_S8_EEEvPS7_PKcOT_DpOT0_ = comdat any

$_ZN4pbrt6detail21stringPrintfRecursiveIRfJS2_S2_NSt7__cxx1112basic_stringIcSt11char_traitsIcESaIcEEES2_S2_S2_S8_S2_S2_S2_EEEvPS8_PKcOT_DpOT0_ = comdat any

$_ZN4pbrt6detail21stringPrintfRecursiveIRfJS2_NSt7__cxx1112basic_stringIcSt11char_traitsIcESaIcEEES2_S2_S2_S8_S2_S2_S2_EEEvPS8_PKcOT_DpOT0_ = comdat any

$_ZN4pbrt6detail21stringPrintfRecursiveIRfJNSt7__cxx1112basic_stringIcSt11char_traitsIcESaIcEEES2_S2_S2_S8_S2_S2_S2_EEEvPS8_PKcOT_DpOT0_ = comdat any

$_ZN4pbrt6detail21stringPrintfRecursiveINSt7__cxx1112basic_stringIcSt11char_traitsIcESaIcEEEJRfS8_S8_S7_S8_S8_S8_EEEvPS7_PKcOT_DpOT0_ = comdat any

$_ZN4pbrt6detail21stringPrintfRecursiveIRfJS2_S2_NSt7__cxx1112basic_stringIcSt11char_traitsIcESaIcEEES2_S2_S2_EEEvPS8_PKcOT_DpOT0_ = comdat any

$_ZN4pbrt6detail21stringPrintfRecursiveIRfJS2_NSt7__cxx1112basic_stringIcSt11char_traitsIcESaIcEEES2_S2_S2_EEEvPS8_PKcOT_DpOT0_ = comdat any

$_ZN4pbrt6detail21stringPrintfRecursiveIRfJNSt7__cxx1112basic_stringIcSt11char_traitsIcESaIcEEES2_S2_S2_EEEvPS8_PKcOT_DpOT0_ = comdat any

$_ZN4pbrt6detail21stringPrintfRecursiveINSt7__cxx1112basic_stringIcSt11char_traitsIcESaIcEEEJRKS7_EEEvPS7_PKcOT_DpOT0_ = comdat any

$_ZN4pbrt6detail21stringPrintfRecursiveINSt7__cxx1112basic_stringIcSt11char_traitsIcESaIcEEEJRfS8_EEEvPS7_PKcOT_DpOT0_ = comdat any

$_ZN4pbrt6detail21stringPrintfRecursiveINSt7__cxx1112basic_stringIcSt11char_traitsIcESaIcEEEJRfEEEvPS7_PKcOT_DpOT0_ = comdat any

$_ZN4pbrt6detail21stringPrintfRecursiveINSt7__cxx1112basic_stringIcSt11char_traitsIcESaIcEEEJfEEEvPS7_PKcOT_DpOT0_ = comdat any

$_ZN4pbrt6detail21stringPrintfRecursiveIfJEEEvPNSt7__cxx1112basic_stringIcSt11char_traitsIcESaIcEEEPKcOT_DpOT0_ = comdat any

$_ZN4pbrt6detail9formatOneIfEENSt9enable_ifIXntsr3stdE10is_class_vINSt5decayIT_E4typeEEENSt7__cxx1112basic_stringIcSt11char_traitsIcESaIcEEEE4typeEPKcOS4_ = comdat any

$_ZN4pbrt6detail21stringPrintfRecursiveINSt7__cxx1112basic_stringIcSt11char_traitsIcESaIcEEEJRKS7_S7_EEEvPS7_PKcOT_DpOT0_ = comdat any

$_ZN4pbrt6detail21stringPrintfRecursiveINSt7__cxx1112basic_stringIcSt11char_traitsIcESaIcEEEJRA12_KcS7_EEEvPS7_PS8_OT_DpOT0_ = comdat any

$_ZN4pbrt6detail21stringPrintfRecursiveIRA12_KcJNSt7__cxx1112basic_stringIcSt11char_traitsIcESaIcEEEEEEvPSA_PS2_OT_DpOT0_ = comdat any

$_ZN4pbrt6detail9formatOneIRA12_KcEENSt9enable_ifIXntsr3stdE10is_class_vINSt5decayIT_E4typeEEENSt7__cxx1112basic_stringIcSt11char_traitsIcESaIcEEEE4typeEPS2_OS7_ = comdat any

$_ZNSt8_Rb_treeINSt7__cxx1112basic_stringIcSt11char_traitsIcESaIcEEESt4pairIKS5_S5_ESt10_Select1stIS8_ESt4lessIS5_ESaIS8_EE22_M_emplace_hint_uniqueIJRKSt21piecewise_construct_tSt5tupleIJRS7_EESJ_IJEEEEESt17_Rb_tree_iteratorIS8_ESt23_Rb_tree_const_iteratorIS8_EDpOT_ = comdat any

$_ZNSt8_Rb_treeINSt7__cxx1112basic_stringIcSt11char_traitsIcESaIcEEESt4pairIKS5_S5_ESt10_Select1stIS8_ESt4lessIS5_ESaIS8_EE29_M_get_insert_hint_unique_posESt23_Rb_tree_const_iteratorIS8_ERS7_ = comdat any

$_ZNSt8_Rb_treeINSt7__cxx1112basic_stringIcSt11char_traitsIcESaIcEEESt4pairIKS5_S5_ESt10_Select1stIS8_ESt4lessIS5_ESaIS8_EE10_Auto_nodeD2Ev = comdat any

$_ZNSt8_Rb_treeINSt7__cxx1112basic_stringIcSt11char_traitsIcESaIcEEESt4pairIKS5_S5_ESt10_Select1stIS8_ESt4lessIS5_ESaIS8_EE14_M_create_nodeIJRKSt21piecewise_construct_tSt5tupleIJRS7_EESJ_IJEEEEEPSt13_Rb_tree_nodeIS8_EDpOT_ = comdat any

$_ZN4pbrt6detail21stringPrintfRecursiveIRKNSt7__cxx1112basic_stringIcSt11char_traitsIcESaIcEEEJiEEEvPS7_PKcOT_DpOT0_ = comdat any

$_ZN4pbrt6detail21stringPrintfRecursiveIiJEEEvPNSt7__cxx1112basic_stringIcSt11char_traitsIcESaIcEEEPKcOT_DpOT0_ = comdat any

$_ZN4pbrt6detail9formatOneIiEENSt9enable_ifIXntsr3stdE10is_class_vINSt5decayIT_E4typeEEENSt7__cxx1112basic_stringIcSt11char_traitsIcESaIcEEEE4typeEPKcOS4_ = comdat any

$_ZN4pbrt6detail21stringPrintfRecursiveINSt7__cxx1112basic_stringIcSt11char_traitsIcESaIcEEEJRS7_RKS7_EEEvPS7_PKcOT_DpOT0_ = comdat any

$_ZN4pbrt6detail21stringPrintfRecursiveIRNSt7__cxx1112basic_stringIcSt11char_traitsIcESaIcEEEJRKS7_EEEvPS7_PKcOT_DpOT0_ = comdat any

$_ZN4pbrt6detail21stringPrintfRecursiveINSt7__cxx1112basic_stringIcSt11char_traitsIcESaIcEEEJRS7_RKS7_SA_EEEvPS7_PKcOT_DpOT0_ = comdat any

$_ZN4pbrt6detail21stringPrintfRecursiveIRNSt7__cxx1112basic_stringIcSt11char_traitsIcESaIcEEEJRKS7_SA_EEEvPS7_PKcOT_DpOT0_ = comdat any

$_ZN4pbrt6detail21stringPrintfRecursiveINSt7__cxx1112basic_stringIcSt11char_traitsIcESaIcEEEJRKS7_S9_S9_EEEvPS7_PKcOT_DpOT0_ = comdat any

$_ZN4pbrt6detail21stringPrintfRecursiveIRKNSt7__cxx1112basic_stringIcSt11char_traitsIcESaIcEEEJS9_S9_EEEvPS7_PKcOT_DpOT0_ = comdat any

$_ZN4pbrt6detail21stringPrintfRecursiveIRNSt7__cxx1112basic_stringIcSt11char_traitsIcESaIcEEEJS8_EEEvPS7_PKcOT_DpOT0_ = comdat any

$_ZNSt8_Rb_treeINSt7__cxx1112basic_stringIcSt11char_traitsIcESaIcEEESt4pairIKS5_N4pbrt19ParameterDictionaryEESt10_Select1stISA_ESt4lessIS5_ESaISA_EE22_M_emplace_hint_uniqueIJRKSt21piecewise_construct_tSt5tupleIJRS7_EESL_IJEEEEESt17_Rb_tree_iteratorISA_ESt23_Rb_tree_const_iteratorISA_EDpOT_ = comdat any

$_ZNSt8_Rb_treeINSt7__cxx1112basic_stringIcSt11char_traitsIcESaIcEEESt4pairIKS5_N4pbrt19ParameterDictionaryEESt10_Select1stISA_ESt4lessIS5_ESaISA_EE29_M_get_insert_hint_unique_posESt23_Rb_tree_const_iteratorISA_ERS7_ = comdat any

$_ZNSt8_Rb_treeINSt7__cxx1112basic_stringIcSt11char_traitsIcESaIcEEESt4pairIKS5_N4pbrt19ParameterDictionaryEESt10_Select1stISA_ESt4lessIS5_ESaISA_EE10_Auto_nodeD2Ev = comdat any

$_ZNSt8_Rb_treeINSt7__cxx1112basic_stringIcSt11char_traitsIcESaIcEEESt4pairIKS5_N4pbrt19ParameterDictionaryEESt10_Select1stISA_ESt4lessIS5_ESaISA_EE14_M_create_nodeIJRKSt21piecewise_construct_tSt5tupleIJRS7_EESL_IJEEEEEPSt13_Rb_tree_nodeISA_EDpOT_ = comdat any

$_ZN4pbrt6detail21stringPrintfRecursiveIRPKcJiEEEvPNSt7__cxx1112basic_stringIcSt11char_traitsIcESaIcEEES3_OT_DpOT0_ = comdat any

$_ZN4pbrt6detail21stringPrintfRecursiveINSt7__cxx1112basic_stringIcSt11char_traitsIcESaIcEEEJRiEEEvPS7_PKcOT_DpOT0_ = comdat any

$_ZTSNSt7__cxx1112basic_stringIcSt11char_traitsIcESaIcEEE = comdat any

$_ZTVN4pbrt8AsyncJobIiEE = comdat any

$_ZTSN4pbrt8AsyncJobIiEE = comdat any

$_ZTSN4pbrt11ParallelJobE = comdat any

$_ZTIN4pbrt11ParallelJobE = comdat any

$_ZTIN4pbrt8AsyncJobIiEE = comdat any

$_ZTVN4pbrt11ParallelJobE = comdat any

$_ZTSN4pbrt7FileLocE = comdat any

$_ZSt19piecewise_construct = comdat any

@_ZN4pbrtL24STATS_REGprimitiveMemoryE = internal global %"class.pbrt::StatRegisterer" zeroinitializer, align 1
@_ZN4pbrtL29STATS_REGredundantBufferBytesE = internal global %"class.pbrt::StatRegisterer" zeroinitializer, align 1
@_ZN4pbrtL25STATS_REGnBufferCacheHitsE = internal global %"class.pbrt::StatRegisterer" zeroinitializer, align 1
@_ZStL8__ioinit = internal global %"class.std::ios_base::Init" zeroinitializer, align 1
@__dso_handle = external hidden global i8
@.str = private unnamed_addr constant [113 x i8] c"generated/home/dtcxzyw/WorkSpace/Projects/compilers/llvm-opt-benchmark/bench/pbrt-v4/pbrt-v4/src/pbrt/parser.cpp\00", align 1
@.str.6 = private unnamed_addr constant [17 x i8] c"Check failed: %s\00", align 1
@.str.7 = private unnamed_addr constant [49 x i8] c"ints.empty() && strings.empty() && bools.empty()\00", align 1
@.str.8 = private unnamed_addr constant [51 x i8] c"floats.empty() && strings.empty() && bools.empty()\00", align 1
@.str.9 = private unnamed_addr constant [48 x i8] c"floats.empty() && ints.empty() && bools.empty()\00", align 1
@.str.10 = private unnamed_addr constant [50 x i8] c"floats.empty() && ints.empty() && strings.empty()\00", align 1
@.str.11 = private unnamed_addr constant [2 x i8] c"\22\00", align 1
@.str.12 = private unnamed_addr constant [2 x i8] c" \00", align 1
@.str.13 = private unnamed_addr constant [5 x i8] c"\22 [ \00", align 1
@.str.14 = private unnamed_addr constant [4 x i8] c"%f \00", align 1
@.str.15 = private unnamed_addr constant [4 x i8] c"%d \00", align 1
@.str.16 = private unnamed_addr constant [3 x i8] c"\22 \00", align 1
@.str.17 = private unnamed_addr constant [6 x i8] c"true \00", align 1
@.str.18 = private unnamed_addr constant [7 x i8] c"false \00", align 1
@.str.19 = private unnamed_addr constant [3 x i8] c"] \00", align 1
@.str.20 = private unnamed_addr constant [28 x i8] c"[ Token token: %s loc: %s ]\00", align 1
@_ZN4pbrtL24STATS_REGtokenizerMemoryE = internal global %"class.pbrt::StatRegisterer" zeroinitializer, align 1
@_ZN4pbrtL11floatParserE = internal global %"class.double_conversion::StringToDoubleConverter" zeroinitializer, align 8
@.str.23 = private unnamed_addr constant [2 x i8] c"-\00", align 1
@.str.24 = private unnamed_addr constant [8 x i8] c"<stdin>\00", align 1
@.str.25 = private unnamed_addr constant [4 x i8] c".gz\00", align 1
@.str.26 = private unnamed_addr constant [7 x i8] c"%s: %s\00", align 1
@_ZN4pbrtL15tokenizerMemoryE = internal thread_local global i64 0, align 8
@.str.27 = private unnamed_addr constant [11 x i8] c"munmap: %s\00", align 1
@.str.28 = private unnamed_addr constant [115 x i8] c"File is encoded with UTF-16, which is not currently supported by pbrt (https://github.com/mmp/pbrt-v4/issues/136).\00", align 1
@.str.29 = private unnamed_addr constant [14 x i8] c"premature EOF\00", align 1
@.str.30 = private unnamed_addr constant [20 x i8] c"unterminated string\00", align 1
@.str.31 = private unnamed_addr constant [44 x i8] c"Check failed: %s < %s with %s = %s, %s = %s\00", align 1
@.str.32 = private unnamed_addr constant [2 x i8] c"p\00", align 1
@.str.33 = private unnamed_addr constant [4 x i8] c"pos\00", align 1
@_ZTVN10__cxxabiv117__class_type_infoE = external global [0 x ptr]
@_ZTSN4pbrt12ParserTargetE = dso_local constant [22 x i8] c"N4pbrt12ParserTargetE\00", align 1
@_ZTIN4pbrt12ParserTargetE = dso_local constant { ptr, ptr } { ptr getelementptr inbounds (ptr, ptr @_ZTVN10__cxxabiv117__class_type_infoE, i64 2), ptr @_ZTSN4pbrt12ParserTargetE }, align 8
@_ZTVN10__cxxabiv120__si_class_type_infoE = external global [0 x ptr]
@_ZTSN4pbrt22FormattingParserTargetE = dso_local constant [32 x i8] c"N4pbrt22FormattingParserTargetE\00", align 1
@_ZTIN4pbrt22FormattingParserTargetE = dso_local constant { ptr, ptr, ptr } { ptr getelementptr inbounds (ptr, ptr @_ZTVN10__cxxabiv120__si_class_type_infoE, i64 2), ptr @_ZTSN4pbrt22FormattingParserTargetE, ptr @_ZTIN4pbrt12ParserTargetE }, align 8
@_ZZN4pbrt5parseEPNS_12ParserTargetESt10unique_ptrINS_9TokenizerESt14default_deleteIS3_EEE33warnedTransformBeginEndDeprecated.0 = internal unnamed_addr global i8 0, align 1
@_ZN4pbrt7logging8logLevelE = external local_unnamed_addr global i32, align 4
@.str.34 = private unnamed_addr constant [19 x i8] c"Started parsing %s\00", align 1
@.str.35 = private unnamed_addr constant [15 x i8] c"AttributeBegin\00", align 1
@.str.36 = private unnamed_addr constant [13 x i8] c"AttributeEnd\00", align 1
@.str.37 = private unnamed_addr constant [10 x i8] c"Attribute\00", align 1
@.str.38 = private unnamed_addr constant [16 x i8] c"ActiveTransform\00", align 1
@.str.39 = private unnamed_addr constant [4 x i8] c"All\00", align 1
@.str.40 = private unnamed_addr constant [8 x i8] c"EndTime\00", align 1
@.str.41 = private unnamed_addr constant [10 x i8] c"StartTime\00", align 1
@.str.42 = private unnamed_addr constant [16 x i8] c"AreaLightSource\00", align 1
@.str.43 = private unnamed_addr constant [12 x i8] c"Accelerator\00", align 1
@.str.44 = private unnamed_addr constant [16 x i8] c"ConcatTransform\00", align 1
@.str.47 = private unnamed_addr constant [17 x i8] c"CoordinateSystem\00", align 1
@.str.48 = private unnamed_addr constant [18 x i8] c"CoordSysTransform\00", align 1
@.str.49 = private unnamed_addr constant [11 x i8] c"ColorSpace\00", align 1
@.str.50 = private unnamed_addr constant [7 x i8] c"Camera\00", align 1
@.str.51 = private unnamed_addr constant [5 x i8] c"Film\00", align 1
@.str.52 = private unnamed_addr constant [11 x i8] c"Integrator\00", align 1
@.str.53 = private unnamed_addr constant [8 x i8] c"Include\00", align 1
@.str.54 = private unnamed_addr constant [16 x i8] c"%sInclude \22%s\22\0A\00", align 1
@.str.55 = private unnamed_addr constant [7 x i8] c"Import\00", align 1
@.str.56 = private unnamed_addr constant [15 x i8] c"%sImport \22%s\22\0A\00", align 1
@_ZTIN4pbrt17BasicSceneBuilderE = external constant ptr
@.str.57 = private unnamed_addr constant [8 x i8] c"builder\00", align 1
@.str.58 = private unnamed_addr constant [61 x i8] c"Import statement only allowed inside world definition block.\00", align 1
@.str.59 = private unnamed_addr constant [9 x i8] c"Identity\00", align 1
@.str.60 = private unnamed_addr constant [12 x i8] c"LightSource\00", align 1
@.str.61 = private unnamed_addr constant [7 x i8] c"LookAt\00", align 1
@.str.62 = private unnamed_addr constant [18 x i8] c"MakeNamedMaterial\00", align 1
@.str.63 = private unnamed_addr constant [16 x i8] c"MakeNamedMedium\00", align 1
@.str.64 = private unnamed_addr constant [9 x i8] c"Material\00", align 1
@.str.65 = private unnamed_addr constant [16 x i8] c"MediumInterface\00", align 1
@.str.66 = private unnamed_addr constant [14 x i8] c"NamedMaterial\00", align 1
@.str.67 = private unnamed_addr constant [12 x i8] c"ObjectBegin\00", align 1
@.str.68 = private unnamed_addr constant [10 x i8] c"ObjectEnd\00", align 1
@.str.69 = private unnamed_addr constant [15 x i8] c"ObjectInstance\00", align 1
@.str.70 = private unnamed_addr constant [7 x i8] c"Option\00", align 1
@.str.71 = private unnamed_addr constant [12 x i8] c"PixelFilter\00", align 1
@.str.72 = private unnamed_addr constant [19 x i8] c"ReverseOrientation\00", align 1
@.str.73 = private unnamed_addr constant [7 x i8] c"Rotate\00", align 1
@.str.74 = private unnamed_addr constant [6 x i8] c"Shape\00", align 1
@.str.75 = private unnamed_addr constant [8 x i8] c"Sampler\00", align 1
@.str.76 = private unnamed_addr constant [6 x i8] c"Scale\00", align 1
@.str.77 = private unnamed_addr constant [15 x i8] c"TransformBegin\00", align 1
@.str.78 = private unnamed_addr constant [81 x i8] c"TransformBegin/End are deprecated and should be replaced with AttributeBegin/End\00", align 1
@.str.79 = private unnamed_addr constant [13 x i8] c"TransformEnd\00", align 1
@.str.80 = private unnamed_addr constant [10 x i8] c"Transform\00", align 1
@.str.81 = private unnamed_addr constant [10 x i8] c"Translate\00", align 1
@.str.82 = private unnamed_addr constant [15 x i8] c"TransformTimes\00", align 1
@.str.83 = private unnamed_addr constant [8 x i8] c"Texture\00", align 1
@.str.84 = private unnamed_addr constant [11 x i8] c"WorldBegin\00", align 1
@.str.85 = private unnamed_addr constant [9 x i8] c"WorldEnd\00", align 1
@_ZTVN4pbrt22FormattingParserTargetE = dso_local unnamed_addr constant { [43 x ptr] } { [43 x ptr] [ptr null, ptr @_ZTIN4pbrt22FormattingParserTargetE, ptr @_ZN4pbrt22FormattingParserTarget5ScaleEfffNS_7FileLocE, ptr @_ZN4pbrt22FormattingParserTarget5ShapeERKNSt7__cxx1112basic_stringIcSt11char_traitsIcESaIcEEENS_13InlinedVectorIPNS_15ParsedParameterELi8EN4pstd3pmr21polymorphic_allocatorISB_EEEENS_7FileLocE, ptr @_ZN4pbrt22FormattingParserTargetD2Ev, ptr @_ZN4pbrt22FormattingParserTargetD0Ev, ptr @_ZN4pbrt22FormattingParserTarget6OptionERKNSt7__cxx1112basic_stringIcSt11char_traitsIcESaIcEEES8_NS_7FileLocE, ptr @_ZN4pbrt22FormattingParserTarget8IdentityENS_7FileLocE, ptr @_ZN4pbrt22FormattingParserTarget9TranslateEfffNS_7FileLocE, ptr @_ZN4pbrt22FormattingParserTarget6RotateEffffNS_7FileLocE, ptr @_ZN4pbrt22FormattingParserTarget6LookAtEfffffffffNS_7FileLocE, ptr @_ZN4pbrt22FormattingParserTarget15ConcatTransformEPfNS_7FileLocE, ptr @_ZN4pbrt22FormattingParserTarget9TransformEPfNS_7FileLocE, ptr @_ZN4pbrt22FormattingParserTarget16CoordinateSystemERKNSt7__cxx1112basic_stringIcSt11char_traitsIcESaIcEEENS_7FileLocE, ptr @_ZN4pbrt22FormattingParserTarget17CoordSysTransformERKNSt7__cxx1112basic_stringIcSt11char_traitsIcESaIcEEENS_7FileLocE, ptr @_ZN4pbrt22FormattingParserTarget18ActiveTransformAllENS_7FileLocE, ptr @_ZN4pbrt22FormattingParserTarget22ActiveTransformEndTimeENS_7FileLocE, ptr @_ZN4pbrt22FormattingParserTarget24ActiveTransformStartTimeENS_7FileLocE, ptr @_ZN4pbrt22FormattingParserTarget14TransformTimesEffNS_7FileLocE, ptr @_ZN4pbrt22FormattingParserTarget10ColorSpaceERKNSt7__cxx1112basic_stringIcSt11char_traitsIcESaIcEEENS_7FileLocE, ptr @_ZN4pbrt22FormattingParserTarget11PixelFilterERKNSt7__cxx1112basic_stringIcSt11char_traitsIcESaIcEEENS_13InlinedVectorIPNS_15ParsedParameterELi8EN4pstd3pmr21polymorphic_allocatorISB_EEEENS_7FileLocE, ptr @_ZN4pbrt22FormattingParserTarget4FilmERKNSt7__cxx1112basic_stringIcSt11char_traitsIcESaIcEEENS_13InlinedVectorIPNS_15ParsedParameterELi8EN4pstd3pmr21polymorphic_allocatorISB_EEEENS_7FileLocE, ptr @_ZN4pbrt22FormattingParserTarget11AcceleratorERKNSt7__cxx1112basic_stringIcSt11char_traitsIcESaIcEEENS_13InlinedVectorIPNS_15ParsedParameterELi8EN4pstd3pmr21polymorphic_allocatorISB_EEEENS_7FileLocE, ptr @_ZN4pbrt22FormattingParserTarget10IntegratorERKNSt7__cxx1112basic_stringIcSt11char_traitsIcESaIcEEENS_13InlinedVectorIPNS_15ParsedParameterELi8EN4pstd3pmr21polymorphic_allocatorISB_EEEENS_7FileLocE, ptr @_ZN4pbrt22FormattingParserTarget6CameraERKNSt7__cxx1112basic_stringIcSt11char_traitsIcESaIcEEENS_13InlinedVectorIPNS_15ParsedParameterELi8EN4pstd3pmr21polymorphic_allocatorISB_EEEENS_7FileLocE, ptr @_ZN4pbrt22FormattingParserTarget15MakeNamedMediumERKNSt7__cxx1112basic_stringIcSt11char_traitsIcESaIcEEENS_13InlinedVectorIPNS_15ParsedParameterELi8EN4pstd3pmr21polymorphic_allocatorISB_EEEENS_7FileLocE, ptr @_ZN4pbrt22FormattingParserTarget15MediumInterfaceERKNSt7__cxx1112basic_stringIcSt11char_traitsIcESaIcEEES8_NS_7FileLocE, ptr @_ZN4pbrt22FormattingParserTarget7SamplerERKNSt7__cxx1112basic_stringIcSt11char_traitsIcESaIcEEENS_13InlinedVectorIPNS_15ParsedParameterELi8EN4pstd3pmr21polymorphic_allocatorISB_EEEENS_7FileLocE, ptr @_ZN4pbrt22FormattingParserTarget10WorldBeginENS_7FileLocE, ptr @_ZN4pbrt22FormattingParserTarget14AttributeBeginENS_7FileLocE, ptr @_ZN4pbrt22FormattingParserTarget12AttributeEndENS_7FileLocE, ptr @_ZN4pbrt22FormattingParserTarget9AttributeERKNSt7__cxx1112basic_stringIcSt11char_traitsIcESaIcEEENS_13InlinedVectorIPNS_15ParsedParameterELi8EN4pstd3pmr21polymorphic_allocatorISB_EEEENS_7FileLocE, ptr @_ZN4pbrt22FormattingParserTarget7TextureERKNSt7__cxx1112basic_stringIcSt11char_traitsIcESaIcEEES8_S8_NS_13InlinedVectorIPNS_15ParsedParameterELi8EN4pstd3pmr21polymorphic_allocatorISB_EEEENS_7FileLocE, ptr @_ZN4pbrt22FormattingParserTarget8MaterialERKNSt7__cxx1112basic_stringIcSt11char_traitsIcESaIcEEENS_13InlinedVectorIPNS_15ParsedParameterELi8EN4pstd3pmr21polymorphic_allocatorISB_EEEENS_7FileLocE, ptr @_ZN4pbrt22FormattingParserTarget17MakeNamedMaterialERKNSt7__cxx1112basic_stringIcSt11char_traitsIcESaIcEEENS_13InlinedVectorIPNS_15ParsedParameterELi8EN4pstd3pmr21polymorphic_allocatorISB_EEEENS_7FileLocE, ptr @_ZN4pbrt22FormattingParserTarget13NamedMaterialERKNSt7__cxx1112basic_stringIcSt11char_traitsIcESaIcEEENS_7FileLocE, ptr @_ZN4pbrt22FormattingParserTarget11LightSourceERKNSt7__cxx1112basic_stringIcSt11char_traitsIcESaIcEEENS_13InlinedVectorIPNS_15ParsedParameterELi8EN4pstd3pmr21polymorphic_allocatorISB_EEEENS_7FileLocE, ptr @_ZN4pbrt22FormattingParserTarget15AreaLightSourceERKNSt7__cxx1112basic_stringIcSt11char_traitsIcESaIcEEENS_13InlinedVectorIPNS_15ParsedParameterELi8EN4pstd3pmr21polymorphic_allocatorISB_EEEENS_7FileLocE, ptr @_ZN4pbrt22FormattingParserTarget18ReverseOrientationENS_7FileLocE, ptr @_ZN4pbrt22FormattingParserTarget11ObjectBeginERKNSt7__cxx1112basic_stringIcSt11char_traitsIcESaIcEEENS_7FileLocE, ptr @_ZN4pbrt22FormattingParserTarget9ObjectEndENS_7FileLocE, ptr @_ZN4pbrt22FormattingParserTarget14ObjectInstanceERKNSt7__cxx1112basic_stringIcSt11char_traitsIcESaIcEEENS_7FileLocE, ptr @_ZN4pbrt22FormattingParserTarget10EndOfFilesEv] }, align 8
@.str.86 = private unnamed_addr constant [36 x i8] c"Fatal errors during scene updating.\00", align 1
@.str.87 = private unnamed_addr constant [18 x i8] c"%sOption \22%s\22 %s\0A\00", align 1
@.str.88 = private unnamed_addr constant [12 x i8] c"%sIdentity\0A\00", align 1
@.str.89 = private unnamed_addr constant [22 x i8] c"%sTranslate %f %f %f\0A\00", align 1
@.str.90 = private unnamed_addr constant [22 x i8] c"%sRotate %f %f %f %f\0A\00", align 1
@.str.91 = private unnamed_addr constant [18 x i8] c"%sScale %f %f %f\0A\00", align 1
@.str.92 = private unnamed_addr constant [49 x i8] c"%sLookAt %f %f %f\0A%s    %f %f %f\0A%s    %f %f %f\0A\00", align 1
@.str.93 = private unnamed_addr constant [21 x i8] c"%sConcatTransform [ \00", align 1
@.str.94 = private unnamed_addr constant [4 x i8] c" ]\0A\00", align 1
@.str.95 = private unnamed_addr constant [15 x i8] c"%sTransform [ \00", align 1
@.str.96 = private unnamed_addr constant [25 x i8] c"%sCoordinateSystem \22%s\22\0A\00", align 1
@.str.97 = private unnamed_addr constant [26 x i8] c"%sCoordSysTransform \22%s\22\0A\00", align 1
@.str.98 = private unnamed_addr constant [23 x i8] c"%sActiveTransform All\0A\00", align 1
@.str.99 = private unnamed_addr constant [27 x i8] c"%sActiveTransform EndTime\0A\00", align 1
@.str.100 = private unnamed_addr constant [29 x i8] c"%sActiveTransform StartTime\0A\00", align 1
@.str.101 = private unnamed_addr constant [24 x i8] c"%sTransformTimes %f %f\0A\00", align 1
@.str.102 = private unnamed_addr constant [19 x i8] c"%sColorSpace \22%s\22\0A\00", align 1
@_ZN4pbrt13RGBColorSpace4sRGBE = external local_unnamed_addr global ptr, align 8
@.str.103 = private unnamed_addr constant [7 x i8] c"xwidth\00", align 1
@.str.104 = private unnamed_addr constant [26 x i8] c"%s\22float xradius\22 [ %f ]\0A\00", align 1
@.str.105 = private unnamed_addr constant [7 x i8] c"ywidth\00", align 1
@.str.106 = private unnamed_addr constant [26 x i8] c"%s\22float yradius\22 [ %f ]\0A\00", align 1
@.str.107 = private unnamed_addr constant [9 x i8] c"gaussian\00", align 1
@.str.108 = private unnamed_addr constant [6 x i8] c"alpha\00", align 1
@.str.109 = private unnamed_addr constant [24 x i8] c"%s\22float sigma\22 [ %f ]\0A\00", align 1
@.str.110 = private unnamed_addr constant [20 x i8] c"%sPixelFilter \22%s\22\0A\00", align 1
@_ZSt4cout = external global %"class.std::basic_ostream", align 8
@.str.111 = private unnamed_addr constant [19 x i8] c"maxsampleluminance\00", align 1
@.str.112 = private unnamed_addr constant [36 x i8] c"%s\22float maxcomponentvalue\22 [ %f ]\0A\00", align 1
@.str.113 = private unnamed_addr constant [6 x i8] c"scale\00", align 1
@.str.114 = private unnamed_addr constant [22 x i8] c"%s\22float iso\22 [ %f ]\0A\00", align 1
@.str.115 = private unnamed_addr constant [6 x i8] c"image\00", align 1
@.str.116 = private unnamed_addr constant [14 x i8] c"%sFilm \22rgb\22\0A\00", align 1
@.str.117 = private unnamed_addr constant [13 x i8] c"%sFilm \22%s\22\0A\00", align 1
@.str.118 = private unnamed_addr constant [15 x i8] c"lowdiscrepancy\00", align 1
@.str.119 = private unnamed_addr constant [11 x i8] c"02sequence\00", align 1
@.str.120 = private unnamed_addr constant [25 x i8] c"%sSampler \22paddedsobol\22\0A\00", align 1
@.str.121 = private unnamed_addr constant [11 x i8] c"maxmindist\00", align 1
@.str.122 = private unnamed_addr constant [21 x i8] c"%sSampler \22pmj02bn\22\0A\00", align 1
@.str.123 = private unnamed_addr constant [7 x i8] c"random\00", align 1
@.str.124 = private unnamed_addr constant [25 x i8] c"%sSampler \22independent\22\0A\00", align 1
@.str.125 = private unnamed_addr constant [16 x i8] c"%sSampler \22%s\22\0A\00", align 1
@.str.126 = private unnamed_addr constant [22 x i8] c"%sAccelerator \22%s\22\0A%s\00", align 1
@.str.127 = private unnamed_addr constant [12 x i8] c"rrthreshold\00", align 1
@.str.128 = private unnamed_addr constant [5 x i8] c"sppm\00", align 1
@.str.129 = private unnamed_addr constant [20 x i8] c"imagewritefrequency\00", align 1
@.str.130 = private unnamed_addr constant [14 x i8] c"numiterations\00", align 1
@.str.131 = private unnamed_addr constant [130 x i8] c"The SPPM integrator no longer takes a \22numiterations\22 parameter. This value is now set via the Sampler's number of pixel samples.\00", align 1
@.str.132 = private unnamed_addr constant [20 x i8] c"lightsamplestrategy\00", align 1
@.str.133 = private unnamed_addr constant [1 x i8] zeroinitializer, align 1
@.str.134 = private unnamed_addr constant [8 x i8] c"spatial\00", align 1
@.str.135 = private unnamed_addr constant [36 x i8] c"\22string lightsamplestrategy\22 \22bvh\22\0A\00", align 1
@.str.136 = private unnamed_addr constant [15 x i8] c"directlighting\00", align 1
@.str.137 = private unnamed_addr constant [21 x i8] c"%sIntegrator \22path\22\0A\00", align 1
@.str.138 = private unnamed_addr constant [26 x i8] c"\22integer maxdepth\22 [ 1 ]\0A\00", align 1
@.str.139 = private unnamed_addr constant [19 x i8] c"%sIntegrator \22%s\22\0A\00", align 1
@.str.140 = private unnamed_addr constant [12 x i8] c"environment\00", align 1
@.str.141 = private unnamed_addr constant [57 x i8] c"%sCamera \22spherical\22 \22string mapping\22 \22equirectangular\22\0A\00", align 1
@.str.142 = private unnamed_addr constant [15 x i8] c"%sCamera \22%s\22\0A\00", align 1
@.str.143 = private unnamed_addr constant [10 x i8] c"realistic\00", align 1
@.str.144 = private unnamed_addr constant [16 x i8] c"simpleweighting\00", align 1
@.str.145 = private unnamed_addr constant [14 x i8] c"heterogeneous\00", align 1
@.str.146 = private unnamed_addr constant [27 x i8] c"%sMakeNamedMedium \22%s\22\0A%s\0A\00", align 1
@.str.147 = private unnamed_addr constant [12 x i8] c"uniformgrid\00", align 1
@.str.148 = private unnamed_addr constant [29 x i8] c"%sMediumInterface \22%s\22 \22%s\22\0A\00", align 1
@.str.149 = private unnamed_addr constant [15 x i8] c"\0A\0AWorldBegin\0A\0A\00", align 1
@.str.150 = private unnamed_addr constant [19 x i8] c"\0A%sAttributeBegin\0A\00", align 1
@.str.151 = private unnamed_addr constant [16 x i8] c"%sAttributeEnd\0A\00", align 1
@.str.152 = private unnamed_addr constant [18 x i8] c"%sAttribute \22%s\22 \00", align 1
@.str.153 = private unnamed_addr constant [48 x i8] c"Rewriting \22TransformBegin\22 to \22AttributeBegin\22.\00", align 1
@.str.154 = private unnamed_addr constant [18 x i8] c"%sAttributeBegin\0A\00", align 1
@.str.155 = private unnamed_addr constant [44 x i8] c"Rewriting \22TransformEnd\22 to \22AttributeEnd\22.\00", align 1
@_ZZN4pbrt22FormattingParserTarget7TextureERKNSt7__cxx1112basic_stringIcSt11char_traitsIcESaIcEEES8_S8_NS_13InlinedVectorIPNS_15ParsedParameterELi8EN4pstd3pmr21polymorphic_allocatorISB_EEEENS_7FileLocEE5count = internal unnamed_addr global i32 0, align 4
@.str.156 = private unnamed_addr constant [38 x i8] c"%s: renaming multiply-defined texture\00", align 1
@.str.157 = private unnamed_addr constant [14 x i8] c"%s-renamed-%d\00", align 1
@.str.158 = private unnamed_addr constant [6 x i8] c"float\00", align 1
@.str.159 = private unnamed_addr constant [5 x i8] c"tex1\00", align 1
@.str.160 = private unnamed_addr constant [4 x i8] c"tex\00", align 1
@.str.161 = private unnamed_addr constant [5 x i8] c"tex2\00", align 1
@.str.162 = private unnamed_addr constant [4 x i8] c"rgb\00", align 1
@.str.163 = private unnamed_addr constant [93 x i8] c"Two \22rgb\22 textures found for \22scale\22 texture \22%s\22. Please manually edit the file to upgrade.\00", align 1
@.str.164 = private unnamed_addr constant [37 x i8] c"Didn't find 3 values for \22rgb\22 \22%s\22.\00", align 1
@.str.165 = private unnamed_addr constant [109 x i8] c"Non-constant \22rgb\22 value found for \22scale\22 texture parameter \22%s\22. Please manually edit the file to upgrade.\00", align 1
@.str.166 = private unnamed_addr constant [87 x i8] c"Two textures found for \22scale\22 texture \22%s\22. Please manually edit the file to upgrade.\00", align 1
@.str.167 = private unnamed_addr constant [9 x i8] c"imagemap\00", align 1
@.str.168 = private unnamed_addr constant [10 x i8] c"trilinear\00", align 1
@.str.169 = private unnamed_addr constant [17 x i8] c"\22string filter\22 \00", align 1
@.str.170 = private unnamed_addr constant [13 x i8] c"\22trilinear\22\0A\00", align 1
@.str.171 = private unnamed_addr constant [12 x i8] c"\22bilinear\22\0A\00", align 1
@.str.172 = private unnamed_addr constant [5 x i8] c"ptex\00", align 1
@.str.173 = private unnamed_addr constant [6 x i8] c"gamma\00", align 1
@.str.174 = private unnamed_addr constant [31 x i8] c"\22string encoding \22 \22gamma %f\22 \00", align 1
@.str.175 = private unnamed_addr constant [19 x i8] c"\22string encoding\22 \00", align 1
@.str.176 = private unnamed_addr constant [8 x i8] c"\22sRGB\22\0A\00", align 1
@.str.177 = private unnamed_addr constant [10 x i8] c"\22linear\22\0A\00", align 1
@.str.178 = private unnamed_addr constant [6 x i8] c"color\00", align 1
@.str.179 = private unnamed_addr constant [32 x i8] c"%sTexture \22%s\22 \22spectrum\22 \22%s\22\0A\00", align 1
@.str.180 = private unnamed_addr constant [26 x i8] c"%sTexture \22%s\22 \22%s\22 \22%s\22\0A\00", align 1
@.str.181 = private unnamed_addr constant [6 x i8] c"glass\00", align 1
@.str.182 = private unnamed_addr constant [5 x i8] c"uber\00", align 1
@.str.183 = private unnamed_addr constant [6 x i8] c"index\00", align 1
@.str.184 = private unnamed_addr constant [4 x i8] c"eta\00", align 1
@.str.185 = private unnamed_addr constant [53 x i8] c"Material \22%s\22 has both \22index\22 and \22eta\22 parameters.\00", align 1
@.str.186 = private unnamed_addr constant [20 x i8] c"\22texture eta\22 \22%s\22\0A\00", align 1
@.str.187 = private unnamed_addr constant [48 x i8] c"Multiple values provided for \22index\22 parameter.\00", align 1
@.str.188 = private unnamed_addr constant [20 x i8] c"\22float eta\22 [ %f ]\0A\00", align 1
@.str.189 = private unnamed_addr constant [8 x i8] c"bumpmap\00", align 1
@.str.190 = private unnamed_addr constant [13 x i8] c"displacement\00", align 1
@.str.191 = private unnamed_addr constant [14 x i8] c"coateddiffuse\00", align 1
@.str.192 = private unnamed_addr constant [3 x i8] c"Ks\00", align 1
@.str.193 = private unnamed_addr constant [8 x i8] c"diffuse\00", align 1
@.str.194 = private unnamed_addr constant [10 x i8] c"roughness\00", align 1
@.str.195 = private unnamed_addr constant [3 x i8] c"Kr\00", align 1
@.str.196 = private unnamed_addr constant [3 x i8] c"Kt\00", align 1
@.str.197 = private unnamed_addr constant [3 x i8] c"Kd\00", align 1
@.str.198 = private unnamed_addr constant [12 x i8] c"reflectance\00", align 1
@.str.199 = private unnamed_addr constant [8 x i8] c"opacity\00", align 1
@.str.200 = private unnamed_addr constant [105 x i8] c"Non-opaque \22opacity\22 texture in \22uber\22 material not supported in pbrt-v4. Please edit the file manually.\00", align 1
@.str.201 = private unnamed_addr constant [106 x i8] c"A non-opaque \22opacity\22 in the \22uber\22 material is not supported in pbrt-v4. Please edit the file manually.\00", align 1
@.str.202 = private unnamed_addr constant [4 x i8] c"mix\00", align 1
@.str.203 = private unnamed_addr constant [7 x i8] c"amount\00", align 1
@.str.204 = private unnamed_addr constant [23 x i8] c"\22float amount\22 [ %f ]\0A\00", align 1
@.str.205 = private unnamed_addr constant [56 x i8] c"Changing RGB \22amount\22 (%f, %f, %f) to scalar average %f\00", align 1
@.str.206 = private unnamed_addr constant [59 x i8] c"Unable to update non-RGB spectrum \22amount\22 to a scalar: %s\00", align 1
@.str.207 = private unnamed_addr constant [15 x i8] c"namedmaterial1\00", align 1
@.str.208 = private unnamed_addr constant [59 x i8] c"Didn't find \22namedmaterial1\22 parameter for \22mix\22 material.\00", align 1
@.str.209 = private unnamed_addr constant [15 x i8] c"namedmaterial2\00", align 1
@.str.210 = private unnamed_addr constant [59 x i8] c"Didn't find \22namedmaterial2\22 parameter for \22mix\22 material.\00", align 1
@.str.211 = private unnamed_addr constant [34 x i8] c"\22string materials\22 [ \22%s\22 \22%s\22 ]\0A\00", align 1
@.str.212 = private unnamed_addr constant [10 x i8] c"substrate\00", align 1
@.str.213 = private unnamed_addr constant [11 x i8] c"dielectric\00", align 1
@.str.214 = private unnamed_addr constant [8 x i8] c"plastic\00", align 1
@.str.215 = private unnamed_addr constant [8 x i8] c"fourier\00", align 1
@.str.216 = private unnamed_addr constant [70 x i8] c"\22fourier\22 material is no longer supported. (But there is \22measured\22!)\00", align 1
@.str.217 = private unnamed_addr constant [13 x i8] c"kdsubsurface\00", align 1
@.str.218 = private unnamed_addr constant [11 x i8] c"subsurface\00", align 1
@.str.219 = private unnamed_addr constant [6 x i8] c"matte\00", align 1
@.str.220 = private unnamed_addr constant [6 x i8] c"sigma\00", align 1
@.str.221 = private unnamed_addr constant [6 x i8] c"metal\00", align 1
@.str.222 = private unnamed_addr constant [10 x i8] c"conductor\00", align 1
@.str.223 = private unnamed_addr constant [12 x i8] c"translucent\00", align 1
@.str.224 = private unnamed_addr constant [20 x i8] c"diffusetransmission\00", align 1
@.str.225 = private unnamed_addr constant [14 x i8] c"transmittance\00", align 1
@.str.226 = private unnamed_addr constant [8 x i8] c"reflect\00", align 1
@.str.227 = private unnamed_addr constant [9 x i8] c"transmit\00", align 1
@.str.228 = private unnamed_addr constant [7 x i8] c"mirror\00", align 1
@.str.229 = private unnamed_addr constant [25 x i8] c"\22float roughness\22 [ 0 ]\0A\00", align 1
@.str.230 = private unnamed_addr constant [35 x i8] c"\22spectrum eta\22 [ \22metal-Ag-eta\22 ]\0A\00", align 1
@.str.231 = private unnamed_addr constant [31 x i8] c"\22spectrum k\22 [ \22metal-Ag-k\22 ]\0A\00", align 1
@.str.232 = private unnamed_addr constant [7 x i8] c"disney\00", align 1
@.str.233 = private unnamed_addr constant [5 x i8] c"hair\00", align 1
@.str.234 = private unnamed_addr constant [5 x i8] c"none\00", align 1
@.str.235 = private unnamed_addr constant [10 x i8] c"interface\00", align 1
@.str.236 = private unnamed_addr constant [17 x i8] c"%sMaterial \22%s\22\0A\00", align 1
@_ZZN4pbrt22FormattingParserTarget17MakeNamedMaterialERKNSt7__cxx1112basic_stringIcSt11char_traitsIcESaIcEEENS_13InlinedVectorIPNS_15ParsedParameterELi8EN4pstd3pmr21polymorphic_allocatorISB_EEEENS_7FileLocEE5count = internal unnamed_addr global i32 0, align 4
@.str.237 = private unnamed_addr constant [45 x i8] c"%s: renaming multiply-defined named material\00", align 1
@.str.238 = private unnamed_addr constant [26 x i8] c"%sMakeNamedMaterial \22%s\22\0A\00", align 1
@.str.239 = private unnamed_addr constant [5 x i8] c"type\00", align 1
@.str.240 = private unnamed_addr constant [24 x i8] c"\22string type\22 [ \22%s\22 ]\0A\00", align 1
@.str.241 = private unnamed_addr constant [22 x i8] c"%sNamedMaterial \22%s\22\0A\00", align 1
@.str.242 = private unnamed_addr constant [20 x i8] c"%sLightSource \22%s\22\0A\00", align 1
@.str.243 = private unnamed_addr constant [101 x i8] c"In pbrt-v4, \22scale\22 is a \22float\22 parameter to light sources. Please modify your scene file manually.\00", align 1
@.str.244 = private unnamed_addr constant [8 x i8] c"samples\00", align 1
@.str.245 = private unnamed_addr constant [8 x i8] c"mapname\00", align 1
@.str.246 = private unnamed_addr constant [9 x i8] c"infinite\00", align 1
@.str.247 = private unnamed_addr constant [2 x i8] c"L\00", align 1
@.str.248 = private unnamed_addr constant [129 x i8] c"Non-constant \22L\22 is no longer supported with \22mapname\22 for the \22infinite\22 light source. Please upgrade your scene file manually.\00", align 1
@.str.249 = private unnamed_addr constant [11 x i8] c"projection\00", align 1
@.str.250 = private unnamed_addr constant [2 x i8] c"I\00", align 1
@.str.251 = private unnamed_addr constant [118 x i8] c"\22I\22 is no longer supported with \22mapname\22 for the \22projection\22 light source. Please upgrade your scene file manually.\00", align 1
@.str.252 = private unnamed_addr constant [22 x i8] c"%s\22float scale\22 [%f]\0A\00", align 1
@.str.253 = private unnamed_addr constant [5 x i8] c"area\00", align 1
@.str.254 = private unnamed_addr constant [29 x i8] c"%sAreaLightSource \22diffuse\22\0A\00", align 1
@.str.255 = private unnamed_addr constant [24 x i8] c"%sAreaLightSource \22%s\22\0A\00", align 1
@.str.256 = private unnamed_addr constant [9 x i8] c"nsamples\00", align 1
@.str.257 = private unnamed_addr constant [13 x i8] c"trianglemesh\00", align 1
@.str.258 = private unnamed_addr constant [8 x i8] c"indices\00", align 1
@.str.259 = private unnamed_addr constant [14 x i8] c"%sShape \22%s\22\0A\00", align 1
@_ZZN4pbrt22FormattingParserTarget5ShapeERKNSt7__cxx1112basic_stringIcSt11char_traitsIcESaIcEEENS_13InlinedVectorIPNS_15ParsedParameterELi8EN4pstd3pmr21polymorphic_allocatorISB_EEEENS_7FileLocEE5count = internal unnamed_addr global i32 1, align 4
@.str.260 = private unnamed_addr constant [11 x i8] c"PLY_PREFIX\00", align 1
@.str.261 = private unnamed_addr constant [5 x i8] c"mesh\00", align 1
@.str.262 = private unnamed_addr constant [12 x i8] c"%s_%05d.ply\00", align 1
@.str.263 = private unnamed_addr constant [30 x i8] c"%s: unable to write PLY file.\00", align 1
@.str.264 = private unnamed_addr constant [2 x i8] c"P\00", align 1
@.str.265 = private unnamed_addr constant [3 x i8] c"uv\00", align 1
@.str.266 = private unnamed_addr constant [2 x i8] c"N\00", align 1
@.str.267 = private unnamed_addr constant [2 x i8] c"S\00", align 1
@.str.268 = private unnamed_addr constant [12 x i8] c"faceIndices\00", align 1
@.str.269 = private unnamed_addr constant [42 x i8] c"%sShape \22plymesh\22 \22string filename\22 \22%s\22\0A\00", align 1
@.str.270 = private unnamed_addr constant [13 x i8] c"bilinearmesh\00", align 1
@.str.271 = private unnamed_addr constant [11 x i8] c"loopsubdiv\00", align 1
@.str.272 = private unnamed_addr constant [8 x i8] c"nlevels\00", align 1
@.str.273 = private unnamed_addr constant [27 x i8] c"%s\22integer levels\22 [ %d ]\0A\00", align 1
@.str.274 = private unnamed_addr constant [8 x i8] c"plymesh\00", align 1
@.str.275 = private unnamed_addr constant [21 x i8] c"discarddegenerateUVs\00", align 1
@.str.276 = private unnamed_addr constant [12 x i8] c"shadowalpha\00", align 1
@.str.277 = private unnamed_addr constant [22 x i8] c"%sReverseOrientation\0A\00", align 1
@_ZZN4pbrt22FormattingParserTarget11ObjectBeginERKNSt7__cxx1112basic_stringIcSt11char_traitsIcESaIcEEENS_7FileLocEE5count = internal unnamed_addr global i32 0, align 4
@.str.278 = private unnamed_addr constant [46 x i8] c"%s: renaming multiply-defined object instance\00", align 1
@.str.279 = private unnamed_addr constant [20 x i8] c"%sObjectBegin \22%s\22\0A\00", align 1
@.str.280 = private unnamed_addr constant [13 x i8] c"%sObjectEnd\0A\00", align 1
@.str.281 = private unnamed_addr constant [23 x i8] c"%sObjectInstance \22%s\22\0A\00", align 1
@_ZTVN4pbrt12ParserTargetE = dso_local unnamed_addr constant { [43 x ptr] } { [43 x ptr] [ptr null, ptr @_ZTIN4pbrt12ParserTargetE, ptr @__cxa_pure_virtual, ptr @__cxa_pure_virtual, ptr @_ZN4pbrt12ParserTargetD2Ev, ptr @_ZN4pbrt12ParserTargetD0Ev, ptr @__cxa_pure_virtual, ptr @__cxa_pure_virtual, ptr @__cxa_pure_virtual, ptr @__cxa_pure_virtual, ptr @__cxa_pure_virtual, ptr @__cxa_pure_virtual, ptr @__cxa_pure_virtual, ptr @__cxa_pure_virtual, ptr @__cxa_pure_virtual, ptr @__cxa_pure_virtual, ptr @__cxa_pure_virtual, ptr @__cxa_pure_virtual, ptr @__cxa_pure_virtual, ptr @__cxa_pure_virtual, ptr @__cxa_pure_virtual, ptr @__cxa_pure_virtual, ptr @__cxa_pure_virtual, ptr @__cxa_pure_virtual, ptr @__cxa_pure_virtual, ptr @__cxa_pure_virtual, ptr @__cxa_pure_virtual, ptr @__cxa_pure_virtual, ptr @__cxa_pure_virtual, ptr @__cxa_pure_virtual, ptr @__cxa_pure_virtual, ptr @__cxa_pure_virtual, ptr @__cxa_pure_virtual, ptr @__cxa_pure_virtual, ptr @__cxa_pure_virtual, ptr @__cxa_pure_virtual, ptr @__cxa_pure_virtual, ptr @__cxa_pure_virtual, ptr @__cxa_pure_virtual, ptr @__cxa_pure_virtual, ptr @__cxa_pure_virtual, ptr @__cxa_pure_virtual, ptr @__cxa_pure_virtual] }, align 8
@.str.282 = private unnamed_addr constant [18 x i8] c"Memory/Primitives\00", align 1
@_ZN4pbrtL15primitiveMemoryE = internal thread_local global i64 0, align 8
@.str.283 = private unnamed_addr constant [42 x i8] c"Memory/Redundant vertex and index buffers\00", align 1
@_ZN4pbrtL20redundantBufferBytesE = internal thread_local global i64 0, align 8
@.str.284 = private unnamed_addr constant [27 x i8] c"Geometry/Buffer cache hits\00", align 1
@_ZN4pbrtL16nBufferCacheHitsE = internal thread_local global i64 0, align 8
@_ZN4pbrtL19nBufferCacheLookupsE = internal thread_local global i64 0, align 8
@.str.285 = private unnamed_addr constant [25 x i8] c"Memory/Tokenizer buffers\00", align 1
@.str.286 = private unnamed_addr constant [41 x i8] c"premature EOF after character escape '\\'\00", align 1
@.str.287 = private unnamed_addr constant [34 x i8] c"unexpected escaped character \22%c\22\00", align 1
@.str.288 = private unnamed_addr constant [115 x i8] c"generated/home/dtcxzyw/WorkSpace/Projects/compilers/llvm-opt-benchmark/bench/pbrt-v4/pbrt-v4/src/pbrt/util/print.h\00", align 1
@.str.289 = private unnamed_addr constant [42 x i8] c"Non-integral type provided for %* format.\00", align 1
@.str.290 = private unnamed_addr constant [39 x i8] c"Non-integral type passed to %d format.\00", align 1
@.str.291 = private unnamed_addr constant [32 x i8] c"Excess values passed to Printf.\00", align 1
@.str.292 = private unnamed_addr constant [54 x i8] c"Printf: Non-basic type %s passed for format string %s\00", align 1
@_ZTSNSt7__cxx1112basic_stringIcSt11char_traitsIcESaIcEEE = linkonce_odr dso_local constant [53 x i8] c"NSt7__cxx1112basic_stringIcSt11char_traitsIcESaIcEEE\00", comdat, align 1
@.str.293 = private unnamed_addr constant [3 x i8] c"%s\00", align 1
@"_ZTSZZN4pbrt5parseEPNS_12ParserTargetESt10unique_ptrINS_9TokenizerESt14default_deleteIS3_EEENK3$_1clEMS0_FvRKNSt7__cxx1112basic_stringIcSt11char_traitsIcESaIcEEENS_13InlinedVectorIPNS_15ParsedParameterELi8EN4pstd3pmr21polymorphic_allocatorISI_EEEENS_7FileLocEESO_EUlRKNS_5TokenEPKcE_" = internal constant [280 x i8] c"ZZN4pbrt5parseEPNS_12ParserTargetESt10unique_ptrINS_9TokenizerESt14default_deleteIS3_EEENK3$_1clEMS0_FvRKNSt7__cxx1112basic_stringIcSt11char_traitsIcESaIcEEENS_13InlinedVectorIPNS_15ParsedParameterELi8EN4pstd3pmr21polymorphic_allocatorISI_EEEENS_7FileLocEESO_EUlRKNS_5TokenEPKcE_\00", align 1
@"_ZTIZZN4pbrt5parseEPNS_12ParserTargetESt10unique_ptrINS_9TokenizerESt14default_deleteIS3_EEENK3$_1clEMS0_FvRKNSt7__cxx1112basic_stringIcSt11char_traitsIcESaIcEEENS_13InlinedVectorIPNS_15ParsedParameterELi8EN4pstd3pmr21polymorphic_allocatorISI_EEEENS_7FileLocEESO_EUlRKNS_5TokenEPKcE_" = internal constant { ptr, ptr } { ptr getelementptr inbounds (ptr, ptr @_ZTVN10__cxxabiv117__class_type_infoE, i64 2), ptr @"_ZTSZZN4pbrt5parseEPNS_12ParserTargetESt10unique_ptrINS_9TokenizerESt14default_deleteIS3_EEENK3$_1clEMS0_FvRKNSt7__cxx1112basic_stringIcSt11char_traitsIcESaIcEEENS_13InlinedVectorIPNS_15ParsedParameterELi8EN4pstd3pmr21polymorphic_allocatorISI_EEEENS_7FileLocEESO_EUlRKNS_5TokenEPKcE_" }, align 8
@.str.294 = private unnamed_addr constant [22 x i8] c"Unknown directive: %s\00", align 1
@.str.295 = private unnamed_addr constant [24 x i8] c"\22%c\22: expected a number\00", align 1
@_ZZN4pbrtL10parseFloatERKNS_5TokenEE7numTrue = internal thread_local global i64 0, align 8
@_ZZN4pbrtL10parseFloatERKNS_5TokenEE5total = internal thread_local global i64 0, align 8
@_ZZN4pbrtL10parseFloatERKNS_5TokenEE3reg = internal global %"class.pbrt::StatRegisterer" zeroinitializer, align 1
@_ZGVZN4pbrtL10parseFloatERKNS_5TokenEE3reg = internal global i64 0, align 8
@.str.296 = private unnamed_addr constant [22 x i8] c"%s: expected a number\00", align 1
@.str.297 = private unnamed_addr constant [4 x i8] c"MEH\00", align 1
@.str.298 = private unnamed_addr constant [2 x i8] c"d\00", align 1
@.str.299 = private unnamed_addr constant [171 x i8] c"generated/home/dtcxzyw/WorkSpace/Projects/compilers/llvm-opt-benchmark/bench/pbrt-v4/pbrt-v4/src/pbrt/parser.cpp 380: CHECK_RARE failed: t.token.size() + 1 >= sizeof(buf)\00", align 1
@.str.300 = private unnamed_addr constant [29 x i8] c"\22%s\22: expected quoted string\00", align 1
@_ZN4pbrt11ParallelJob10threadPoolE = external local_unnamed_addr global ptr, align 8
@.str.301 = private unnamed_addr constant [34 x i8] c"Elapsed time to parse \22%s\22: %.2fs\00", align 1
@"_ZTSZN4pbrt5parseEPNS_12ParserTargetESt10unique_ptrINS_9TokenizerESt14default_deleteIS3_EEE3$_2" = internal constant [92 x i8] c"ZN4pbrt5parseEPNS_12ParserTargetESt10unique_ptrINS_9TokenizerESt14default_deleteIS3_EEE3$_2\00", align 1
@"_ZTIZN4pbrt5parseEPNS_12ParserTargetESt10unique_ptrINS_9TokenizerESt14default_deleteIS3_EEE3$_2" = internal constant { ptr, ptr } { ptr getelementptr inbounds (ptr, ptr @_ZTVN10__cxxabiv117__class_type_infoE, i64 2), ptr @"_ZTSZN4pbrt5parseEPNS_12ParserTargetESt10unique_ptrINS_9TokenizerESt14default_deleteIS3_EEE3$_2" }, align 8
@.str.302 = private unnamed_addr constant [3 x i8] c"%f\00", align 1
@"_ZTSSt5_BindIFZN4pbrt5parseEPNS0_12ParserTargetESt10unique_ptrINS0_9TokenizerESt14default_deleteIS4_EEE3$_3NSt7__cxx1112basic_stringIcSt11char_traitsIcESaIcEEEEE" = internal constant [158 x i8] c"St5_BindIFZN4pbrt5parseEPNS0_12ParserTargetESt10unique_ptrINS0_9TokenizerESt14default_deleteIS4_EEE3$_3NSt7__cxx1112basic_stringIcSt11char_traitsIcESaIcEEEEE\00", align 1
@"_ZTSSt17_Weak_result_typeIZN4pbrt5parseEPNS0_12ParserTargetESt10unique_ptrINS0_9TokenizerESt14default_deleteIS4_EEE3$_3E" = internal constant [117 x i8] c"St17_Weak_result_typeIZN4pbrt5parseEPNS0_12ParserTargetESt10unique_ptrINS0_9TokenizerESt14default_deleteIS4_EEE3$_3E\00", align 1
@"_ZTSSt24_Weak_result_type_memfunIZN4pbrt5parseEPNS0_12ParserTargetESt10unique_ptrINS0_9TokenizerESt14default_deleteIS4_EEE3$_3Lb0EE" = internal constant [128 x i8] c"St24_Weak_result_type_memfunIZN4pbrt5parseEPNS0_12ParserTargetESt10unique_ptrINS0_9TokenizerESt14default_deleteIS4_EEE3$_3Lb0EE\00", align 1
@"_ZTSSt22_Weak_result_type_implIZN4pbrt5parseEPNS0_12ParserTargetESt10unique_ptrINS0_9TokenizerESt14default_deleteIS4_EEE3$_3E" = internal constant [122 x i8] c"St22_Weak_result_type_implIZN4pbrt5parseEPNS0_12ParserTargetESt10unique_ptrINS0_9TokenizerESt14default_deleteIS4_EEE3$_3E\00", align 1
@"_ZTSSt22_Maybe_get_result_typeIZN4pbrt5parseEPNS0_12ParserTargetESt10unique_ptrINS0_9TokenizerESt14default_deleteIS4_EEE3$_3vE" = internal constant [123 x i8] c"St22_Maybe_get_result_typeIZN4pbrt5parseEPNS0_12ParserTargetESt10unique_ptrINS0_9TokenizerESt14default_deleteIS4_EEE3$_3vE\00", align 1
@"_ZTISt22_Maybe_get_result_typeIZN4pbrt5parseEPNS0_12ParserTargetESt10unique_ptrINS0_9TokenizerESt14default_deleteIS4_EEE3$_3vE" = internal constant { ptr, ptr } { ptr getelementptr inbounds (ptr, ptr @_ZTVN10__cxxabiv117__class_type_infoE, i64 2), ptr @"_ZTSSt22_Maybe_get_result_typeIZN4pbrt5parseEPNS0_12ParserTargetESt10unique_ptrINS0_9TokenizerESt14default_deleteIS4_EEE3$_3vE" }, align 8
@"_ZTISt22_Weak_result_type_implIZN4pbrt5parseEPNS0_12ParserTargetESt10unique_ptrINS0_9TokenizerESt14default_deleteIS4_EEE3$_3E" = internal constant { ptr, ptr, ptr } { ptr getelementptr inbounds (ptr, ptr @_ZTVN10__cxxabiv120__si_class_type_infoE, i64 2), ptr @"_ZTSSt22_Weak_result_type_implIZN4pbrt5parseEPNS0_12ParserTargetESt10unique_ptrINS0_9TokenizerESt14default_deleteIS4_EEE3$_3E", ptr @"_ZTISt22_Maybe_get_result_typeIZN4pbrt5parseEPNS0_12ParserTargetESt10unique_ptrINS0_9TokenizerESt14default_deleteIS4_EEE3$_3vE" }, align 8
@"_ZTISt24_Weak_result_type_memfunIZN4pbrt5parseEPNS0_12ParserTargetESt10unique_ptrINS0_9TokenizerESt14default_deleteIS4_EEE3$_3Lb0EE" = internal constant { ptr, ptr, ptr } { ptr getelementptr inbounds (ptr, ptr @_ZTVN10__cxxabiv120__si_class_type_infoE, i64 2), ptr @"_ZTSSt24_Weak_result_type_memfunIZN4pbrt5parseEPNS0_12ParserTargetESt10unique_ptrINS0_9TokenizerESt14default_deleteIS4_EEE3$_3Lb0EE", ptr @"_ZTISt22_Weak_result_type_implIZN4pbrt5parseEPNS0_12ParserTargetESt10unique_ptrINS0_9TokenizerESt14default_deleteIS4_EEE3$_3E" }, align 8
@"_ZTISt17_Weak_result_typeIZN4pbrt5parseEPNS0_12ParserTargetESt10unique_ptrINS0_9TokenizerESt14default_deleteIS4_EEE3$_3E" = internal constant { ptr, ptr, ptr } { ptr getelementptr inbounds (ptr, ptr @_ZTVN10__cxxabiv120__si_class_type_infoE, i64 2), ptr @"_ZTSSt17_Weak_result_typeIZN4pbrt5parseEPNS0_12ParserTargetESt10unique_ptrINS0_9TokenizerESt14default_deleteIS4_EEE3$_3E", ptr @"_ZTISt24_Weak_result_type_memfunIZN4pbrt5parseEPNS0_12ParserTargetESt10unique_ptrINS0_9TokenizerESt14default_deleteIS4_EEE3$_3Lb0EE" }, align 8
@"_ZTISt5_BindIFZN4pbrt5parseEPNS0_12ParserTargetESt10unique_ptrINS0_9TokenizerESt14default_deleteIS4_EEE3$_3NSt7__cxx1112basic_stringIcSt11char_traitsIcESaIcEEEEE" = internal constant { ptr, ptr, ptr } { ptr getelementptr inbounds (ptr, ptr @_ZTVN10__cxxabiv120__si_class_type_infoE, i64 2), ptr @"_ZTSSt5_BindIFZN4pbrt5parseEPNS0_12ParserTargetESt10unique_ptrINS0_9TokenizerESt14default_deleteIS4_EEE3$_3NSt7__cxx1112basic_stringIcSt11char_traitsIcESaIcEEEEE", ptr @"_ZTISt17_Weak_result_typeIZN4pbrt5parseEPNS0_12ParserTargetESt10unique_ptrINS0_9TokenizerESt14default_deleteIS4_EEE3$_3E" }, align 8
@_ZTVN4pbrt8AsyncJobIiEE = linkonce_odr dso_local unnamed_addr constant { [7 x ptr] } { [7 x ptr] [ptr null, ptr @_ZTIN4pbrt8AsyncJobIiEE, ptr @_ZN4pbrt8AsyncJobIiED2Ev, ptr @_ZN4pbrt8AsyncJobIiED0Ev, ptr @_ZNK4pbrt8AsyncJobIiE8HaveWorkEv, ptr @_ZN4pbrt8AsyncJobIiE7RunStepEPSt11unique_lockISt5mutexE, ptr @_ZNK4pbrt8AsyncJobIiE8ToStringB5cxx11Ev] }, comdat, align 8
@_ZTSN4pbrt8AsyncJobIiEE = linkonce_odr dso_local constant [20 x i8] c"N4pbrt8AsyncJobIiEE\00", comdat, align 1
@_ZTSN4pbrt11ParallelJobE = linkonce_odr dso_local constant [21 x i8] c"N4pbrt11ParallelJobE\00", comdat, align 1
@_ZTIN4pbrt11ParallelJobE = linkonce_odr dso_local constant { ptr, ptr } { ptr getelementptr inbounds (ptr, ptr @_ZTVN10__cxxabiv117__class_type_infoE, i64 2), ptr @_ZTSN4pbrt11ParallelJobE }, comdat, align 8
@_ZTIN4pbrt8AsyncJobIiEE = linkonce_odr dso_local constant { ptr, ptr, ptr } { ptr getelementptr inbounds (ptr, ptr @_ZTVN10__cxxabiv120__si_class_type_infoE, i64 2), ptr @_ZTSN4pbrt8AsyncJobIiEE, ptr @_ZTIN4pbrt11ParallelJobE }, comdat, align 8
@_ZTVN4pbrt11ParallelJobE = linkonce_odr dso_local unnamed_addr constant { [7 x ptr] } { [7 x ptr] [ptr null, ptr @_ZTIN4pbrt11ParallelJobE, ptr @_ZN4pbrt11ParallelJobD2Ev, ptr @_ZN4pbrt11ParallelJobD0Ev, ptr @__cxa_pure_virtual, ptr @__cxa_pure_virtual, ptr @__cxa_pure_virtual] }, comdat, align 8
@.str.303 = private unnamed_addr constant [114 x i8] c"generated/home/dtcxzyw/WorkSpace/Projects/compilers/llvm-opt-benchmark/bench/pbrt-v4/pbrt-v4/src/pbrt/util/pstd.h\00", align 1
@.str.304 = private unnamed_addr constant [4 x i8] c"set\00", align 1
@.str.305 = private unnamed_addr constant [25 x i8] c"[ AsyncJob started: %s ]\00", align 1
@.str.306 = private unnamed_addr constant [5 x i8] c"true\00", align 1
@.str.307 = private unnamed_addr constant [6 x i8] c"false\00", align 1
@.str.308 = private unnamed_addr constant [118 x i8] c"generated/home/dtcxzyw/WorkSpace/Projects/compilers/llvm-opt-benchmark/bench/pbrt-v4/pbrt-v4/src/pbrt/util/parallel.h\00", align 1
@.str.309 = private unnamed_addr constant [20 x i8] c"!result.has_value()\00", align 1
@.str.310 = private unnamed_addr constant [24 x i8] c"!ungetToken.has_value()\00", align 1
@.str.311 = private unnamed_addr constant [64 x i8] c"Parameter is being removed when converting to \22%s\22 material: %s\00", align 1
@.str.312 = private unnamed_addr constant [24 x i8] c"\22string filename\22 \22%s\22\0A\00", align 1
@.str.313 = private unnamed_addr constant [3 x i8] c"st\00", align 1
@.str.314 = private unnamed_addr constant [15 x i8] c"\22point2 uv\22 [ \00", align 1
@.str.315 = private unnamed_addr constant [7 x i8] c"%f %f \00", align 1
@.str.316 = private unnamed_addr constant [2 x i8] c"\0A\00", align 1
@.str.317 = private unnamed_addr constant [3 x i8] c"]\0A\00", align 1
@.str.318 = private unnamed_addr constant [16 x i8] c"vector::reserve\00", align 1
@.str.319 = private unnamed_addr constant [26 x i8] c"vector::_M_realloc_insert\00", align 1
@.str.320 = private unnamed_addr constant [50 x i8] c"basic_string: construction from null is not valid\00", align 1
@_ZTSN4pbrt7FileLocE = linkonce_odr dso_local constant [16 x i8] c"N4pbrt7FileLocE\00", comdat, align 1
@.str.321 = private unnamed_addr constant [22 x i8] c"premature end of file\00", align 1
@.str.322 = private unnamed_addr constant [20 x i8] c"Finished parsing %s\00", align 1
@.str.323 = private unnamed_addr constant [6 x i8] c"%s%s\0A\00", align 1
@"_ZTSZN4pbrt5parseEPNS_12ParserTargetESt10unique_ptrINS_9TokenizerESt14default_deleteIS3_EEE3$_0" = internal constant [92 x i8] c"ZN4pbrt5parseEPNS_12ParserTargetESt10unique_ptrINS_9TokenizerESt14default_deleteIS3_EEE3$_0\00", align 1
@"_ZTIZN4pbrt5parseEPNS_12ParserTargetESt10unique_ptrINS_9TokenizerESt14default_deleteIS3_EEE3$_0" = internal constant { ptr, ptr } { ptr getelementptr inbounds (ptr, ptr @_ZTVN10__cxxabiv117__class_type_infoE, i64 2), ptr @"_ZTSZN4pbrt5parseEPNS_12ParserTargetESt10unique_ptrINS_9TokenizerESt14default_deleteIS3_EEE3$_0" }, align 8
@.str.324 = private unnamed_addr constant [49 x i8] c"Parameter \22%s\22 doesn't have a type declaration?!\00", align 1
@.str.325 = private unnamed_addr constant [6 x i8] c"point\00", align 1
@.str.326 = private unnamed_addr constant [7 x i8] c"point3\00", align 1
@.str.327 = private unnamed_addr constant [7 x i8] c"vector\00", align 1
@.str.328 = private unnamed_addr constant [8 x i8] c"vector3\00", align 1
@.str.329 = private unnamed_addr constant [40 x i8] c"Unable to find parameter name from \22%s\22\00", align 1
@.str.330 = private unnamed_addr constant [8 x i8] c"integer\00", align 1
@.str.331 = private unnamed_addr constant [5 x i8] c"bool\00", align 1
@.str.332 = private unnamed_addr constant [55 x i8] c"%s: neither \22true\22 nor \22false\22 in bool parameter list.\00", align 1
@.str.333 = private unnamed_addr constant [30 x i8] c"expected floating-point value\00", align 1
@.str.334 = private unnamed_addr constant [23 x i8] c"expected integer value\00", align 1
@.str.335 = private unnamed_addr constant [23 x i8] c"expected Boolean value\00", align 1
@.str.336 = private unnamed_addr constant [22 x i8] c"expected string value\00", align 1
@.str.337 = private unnamed_addr constant [58 x i8] c"Numeric value too large to represent as a 32-bit integer.\00", align 1
@.str.338 = private unnamed_addr constant [59 x i8] c"Numeric value %d too low to represent as a 32-bit integer.\00", align 1
@stdout = external local_unnamed_addr global ptr, align 8
@"_ZTSZN4pbrt5parseEPNS_12ParserTargetESt10unique_ptrINS_9TokenizerESt14default_deleteIS3_EEE3$_4" = internal constant [92 x i8] c"ZN4pbrt5parseEPNS_12ParserTargetESt10unique_ptrINS_9TokenizerESt14default_deleteIS3_EEE3$_4\00", align 1
@"_ZTIZN4pbrt5parseEPNS_12ParserTargetESt10unique_ptrINS_9TokenizerESt14default_deleteIS3_EEE3$_4" = internal constant { ptr, ptr } { ptr getelementptr inbounds (ptr, ptr @_ZTVN10__cxxabiv117__class_type_infoE, i64 2), ptr @"_ZTSZN4pbrt5parseEPNS_12ParserTargetESt10unique_ptrINS_9TokenizerESt14default_deleteIS3_EEE3$_4" }, align 8
@"_ZTSZN4pbrt10ParseFilesEPNS_12ParserTargetEN4pstd4spanIKNSt7__cxx1112basic_stringIcSt11char_traitsIcESaIcEEEEEE3$_0" = internal constant [112 x i8] c"ZN4pbrt10ParseFilesEPNS_12ParserTargetEN4pstd4spanIKNSt7__cxx1112basic_stringIcSt11char_traitsIcESaIcEEEEEE3$_0\00", align 1
@"_ZTIZN4pbrt10ParseFilesEPNS_12ParserTargetEN4pstd4spanIKNSt7__cxx1112basic_stringIcSt11char_traitsIcESaIcEEEEEE3$_0" = internal constant { ptr, ptr } { ptr getelementptr inbounds (ptr, ptr @_ZTVN10__cxxabiv117__class_type_infoE, i64 2), ptr @"_ZTSZN4pbrt10ParseFilesEPNS_12ParserTargetEN4pstd4spanIKNSt7__cxx1112basic_stringIcSt11char_traitsIcESaIcEEEEEE3$_0" }, align 8
@"_ZTSZN4pbrt11ParseStringEPNS_12ParserTargetENSt7__cxx1112basic_stringIcSt11char_traitsIcESaIcEEEE3$_0" = internal constant [98 x i8] c"ZN4pbrt11ParseStringEPNS_12ParserTargetENSt7__cxx1112basic_stringIcSt11char_traitsIcESaIcEEEE3$_0\00", align 1
@"_ZTIZN4pbrt11ParseStringEPNS_12ParserTargetENSt7__cxx1112basic_stringIcSt11char_traitsIcESaIcEEEE3$_0" = internal constant { ptr, ptr } { ptr getelementptr inbounds (ptr, ptr @_ZTVN10__cxxabiv117__class_type_infoE, i64 2), ptr @"_ZTSZN4pbrt11ParseStringEPNS_12ParserTargetENSt7__cxx1112basic_stringIcSt11char_traitsIcESaIcEEEE3$_0" }, align 8
@_ZSt19piecewise_construct = linkonce_odr dso_local constant %"struct.std::piecewise_construct_t" zeroinitializer, comdat, align 1
@llvm.global_ctors = appending global [1 x { i32, ptr, ptr }] [{ i32, ptr, ptr } { i32 65535, ptr @_GLOBAL__sub_I_parser.cpp, ptr null }]

@_ZN4pbrt12ParserTargetD1Ev = dso_local unnamed_addr alias void (ptr), ptr @_ZN4pbrt12ParserTargetD2Ev
@_ZN4pbrt9TokenizerC1ENSt7__cxx1112basic_stringIcSt11char_traitsIcESaIcEEES6_St8functionIFvPKcPKNS_7FileLocEEE = dso_local unnamed_addr alias void (ptr, ptr, ptr, ptr), ptr @_ZN4pbrt9TokenizerC2ENSt7__cxx1112basic_stringIcSt11char_traitsIcESaIcEEES6_St8functionIFvPKcPKNS_7FileLocEEE
@_ZN4pbrt9TokenizerC1EPvmNSt7__cxx1112basic_stringIcSt11char_traitsIcESaIcEEESt8functionIFvPKcPKNS_7FileLocEEE = dso_local unnamed_addr alias void (ptr, ptr, i64, ptr, ptr), ptr @_ZN4pbrt9TokenizerC2EPvmNSt7__cxx1112basic_stringIcSt11char_traitsIcESaIcEEESt8functionIFvPKcPKNS_7FileLocEEE
@_ZN4pbrt9TokenizerD1Ev = dso_local unnamed_addr alias void (ptr), ptr @_ZN4pbrt9TokenizerD2Ev
@_ZN4pbrt22FormattingParserTargetD1Ev = dso_local unnamed_addr alias void (ptr), ptr @_ZN4pbrt22FormattingParserTargetD2Ev

declare void @_ZN4pbrt14StatRegistererC1EPFvRNS_16StatsAccumulatorEEPFvNS_6Point2IiEEiRNS_21PixelStatsAccumulatorEE(ptr noundef nonnull align 1 dereferenceable(1), ptr noundef, ptr noundef) unnamed_addr #0

declare void @_ZNSt8ios_base4InitC1Ev(ptr noundef nonnull align 1 dereferenceable(1)) unnamed_addr #0

; Function Attrs: nounwind
declare void @_ZNSt8ios_base4InitD1Ev(ptr noundef nonnull align 1 dereferenceable(1)) unnamed_addr #1

; Function Attrs: nofree nounwind
declare i32 @__cxa_atexit(ptr, ptr, ptr) local_unnamed_addr #2

; Function Attrs: mustprogress uwtable
define dso_local void @_ZN4pbrt15ParsedParameter8AddFloatEf(ptr nocapture noundef nonnull align 8 dereferenceable(233) %this, float noundef %v) local_unnamed_addr #3 align 2 {
entry:
  %nStored.i.i = getelementptr inbounds %"class.pbrt::ParsedParameter", ptr %this, i64 0, i32 4, i32 3
  %0 = load i64, ptr %nStored.i.i, align 8
  %cmp.i = icmp eq i64 %0, 0
  %nStored.i.i1 = getelementptr inbounds %"class.pbrt::ParsedParameter", ptr %this, i64 0, i32 5, i32 3
  %1 = load i64, ptr %nStored.i.i1, align 8
  %cmp.i2 = icmp eq i64 %1, 0
  %or.cond = select i1 %cmp.i, i1 %cmp.i2, i1 false
  %nStored.i.i3 = getelementptr inbounds %"class.pbrt::ParsedParameter", ptr %this, i64 0, i32 6, i32 3
  %2 = load i64, ptr %nStored.i.i3, align 8
  %cmp.i4 = icmp eq i64 %2, 0
  %or.cond6 = select i1 %or.cond, i1 %cmp.i4, i1 false
  br i1 %or.cond6, label %land.end, label %land.rhs

land.rhs:                                         ; preds = %entry
  tail call void @_ZN4pbrt8LogFatalIJRA49_KcEEEvNS_8LogLevelEPS1_iS5_DpOT_(i32 noundef 2, ptr noundef nonnull @.str, i32 noundef 48, ptr noundef nonnull @.str.6, ptr noundef nonnull align 1 dereferenceable(49) @.str.7) #31
  unreachable

land.end:                                         ; preds = %entry
  %floats = getelementptr inbounds %"class.pbrt::ParsedParameter", ptr %this, i64 0, i32 3
  %nAlloc.i = getelementptr inbounds %"class.pbrt::ParsedParameter", ptr %this, i64 0, i32 3, i32 2
  %3 = load i64, ptr %nAlloc.i, align 8
  %nStored.i = getelementptr inbounds %"class.pbrt::ParsedParameter", ptr %this, i64 0, i32 3, i32 3
  %4 = load i64, ptr %nStored.i, align 8
  %cmp.i5 = icmp eq i64 %3, %4
  br i1 %cmp.i5, label %if.then.i, label %_ZN4pstd6vectorIfNS_3pmr21polymorphic_allocatorIfEEE9push_backERKf.exit

if.then.i:                                        ; preds = %land.end
  %cmp3.i = icmp eq i64 %3, 0
  %mul.i = shl i64 %3, 1
  %spec.select.i = select i1 %cmp3.i, i64 4, i64 %mul.i
  %cmp.not.i.i = icmp ult i64 %3, %spec.select.i
  br i1 %cmp.not.i.i, label %if.end.i.i, label %_ZN4pstd6vectorIfNS_3pmr21polymorphic_allocatorIfEEE9push_backERKf.exit

if.end.i.i:                                       ; preds = %if.then.i
  %mul.i.i.i = shl i64 %spec.select.i, 2
  %cmp.i.i.i.i.i = icmp eq i64 %mul.i.i.i, 0
  br i1 %cmp.i.i.i.i.i, label %_ZN4pstd3pmr21polymorphic_allocatorIfE15allocate_objectIfEEPT_m.exit.i.i, label %if.end.i.i.i.i.i

if.end.i.i.i.i.i:                                 ; preds = %if.end.i.i
  %5 = load ptr, ptr %floats, align 8
  %vtable.i.i.i.i.i = load ptr, ptr %5, align 8
  %vfn.i.i.i.i.i = getelementptr inbounds ptr, ptr %vtable.i.i.i.i.i, i64 2
  %6 = load ptr, ptr %vfn.i.i.i.i.i, align 8
  %call.i.i.i.i.i = tail call noundef ptr %6(ptr noundef nonnull align 8 dereferenceable(8) %5, i64 noundef %mul.i.i.i, i64 noundef 4)
  %.pre.i = load i64, ptr %nStored.i, align 8
  br label %_ZN4pstd3pmr21polymorphic_allocatorIfE15allocate_objectIfEEPT_m.exit.i.i

_ZN4pstd3pmr21polymorphic_allocatorIfE15allocate_objectIfEEPT_m.exit.i.i: ; preds = %if.end.i.i.i.i.i, %if.end.i.i
  %.pre14.i = phi i64 [ %.pre.i, %if.end.i.i.i.i.i ], [ %3, %if.end.i.i ]
  %retval.0.i.i.i.i.i = phi ptr [ %call.i.i.i.i.i, %if.end.i.i.i.i.i ], [ null, %if.end.i.i ]
  %cmp213.not.i.i = icmp eq i64 %.pre14.i, 0
  br i1 %cmp213.not.i.i, label %for.end.i.i, label %for.body.lr.ph.i.i

for.body.lr.ph.i.i:                               ; preds = %_ZN4pstd3pmr21polymorphic_allocatorIfE15allocate_objectIfEEPT_m.exit.i.i
  %ptr.i.i.i = getelementptr inbounds %"class.pbrt::ParsedParameter", ptr %this, i64 0, i32 3, i32 1
  br label %for.body.i.i

for.body.i.i:                                     ; preds = %for.body.i.i, %for.body.lr.ph.i.i
  %indvars.iv.i.i = phi i64 [ 0, %for.body.lr.ph.i.i ], [ %indvars.iv.next.i.i, %for.body.i.i ]
  %add.ptr.i.i = getelementptr inbounds float, ptr %retval.0.i.i.i.i.i, i64 %indvars.iv.i.i
  %7 = load ptr, ptr %ptr.i.i.i, align 8
  %arrayidx.i.i = getelementptr inbounds float, ptr %7, i64 %indvars.iv.i.i
  %8 = load float, ptr %arrayidx.i.i, align 4
  store float %8, ptr %add.ptr.i.i, align 4
  %indvars.iv.next.i.i = add nuw nsw i64 %indvars.iv.i.i, 1
  %9 = load i64, ptr %nStored.i, align 8
  %cmp2.i.i = icmp ugt i64 %9, %indvars.iv.next.i.i
  br i1 %cmp2.i.i, label %for.body.i.i, label %for.end.i.i, !llvm.loop !5

for.end.i.i:                                      ; preds = %for.body.i.i, %_ZN4pstd3pmr21polymorphic_allocatorIfE15allocate_objectIfEEPT_m.exit.i.i
  %.pre13.i = phi i64 [ 0, %_ZN4pstd3pmr21polymorphic_allocatorIfE15allocate_objectIfEEPT_m.exit.i.i ], [ %9, %for.body.i.i ]
  %ptr.i.i = getelementptr inbounds %"class.pbrt::ParsedParameter", ptr %this, i64 0, i32 3, i32 1
  %10 = load ptr, ptr %ptr.i.i, align 8
  %tobool.not.i.i.i.i.i = icmp eq ptr %10, null
  br i1 %tobool.not.i.i.i.i.i, label %_ZN4pstd3pmr21polymorphic_allocatorIfE17deallocate_objectIfEEvPT_m.exit.i.i, label %if.end.i.i.i9.i.i

if.end.i.i.i9.i.i:                                ; preds = %for.end.i.i
  %11 = load i64, ptr %nAlloc.i, align 8
  %mul.i10.i.i = shl i64 %11, 2
  %12 = load ptr, ptr %floats, align 8
  %vtable.i.i.i11.i.i = load ptr, ptr %12, align 8
  %vfn.i.i.i12.i.i = getelementptr inbounds ptr, ptr %vtable.i.i.i11.i.i, i64 3
  %13 = load ptr, ptr %vfn.i.i.i12.i.i, align 8
  tail call void %13(ptr noundef nonnull align 8 dereferenceable(8) %12, ptr noundef nonnull %10, i64 noundef %mul.i10.i.i, i64 noundef 4)
  %.pre1.pre.i = load i64, ptr %nStored.i, align 8
  br label %_ZN4pstd3pmr21polymorphic_allocatorIfE17deallocate_objectIfEEvPT_m.exit.i.i

_ZN4pstd3pmr21polymorphic_allocatorIfE17deallocate_objectIfEEvPT_m.exit.i.i: ; preds = %if.end.i.i.i9.i.i, %for.end.i.i
  %.pre1.i = phi i64 [ %.pre1.pre.i, %if.end.i.i.i9.i.i ], [ %.pre13.i, %for.end.i.i ]
  store i64 %spec.select.i, ptr %nAlloc.i, align 8
  store ptr %retval.0.i.i.i.i.i, ptr %ptr.i.i, align 8
  br label %_ZN4pstd6vectorIfNS_3pmr21polymorphic_allocatorIfEEE9push_backERKf.exit

_ZN4pstd6vectorIfNS_3pmr21polymorphic_allocatorIfEEE9push_backERKf.exit: ; preds = %land.end, %if.then.i, %_ZN4pstd3pmr21polymorphic_allocatorIfE17deallocate_objectIfEEvPT_m.exit.i.i
  %14 = phi i64 [ %.pre1.i, %_ZN4pstd3pmr21polymorphic_allocatorIfE17deallocate_objectIfEEvPT_m.exit.i.i ], [ %3, %if.then.i ], [ %4, %land.end ]
  %ptr.i = getelementptr inbounds %"class.pbrt::ParsedParameter", ptr %this, i64 0, i32 3, i32 1
  %15 = load ptr, ptr %ptr.i, align 8
  %add.ptr.i = getelementptr inbounds float, ptr %15, i64 %14
  store float %v, ptr %add.ptr.i, align 4
  %16 = load i64, ptr %nStored.i, align 8
  %inc.i = add i64 %16, 1
  store i64 %inc.i, ptr %nStored.i, align 8
  ret void
}

; Function Attrs: mustprogress noreturn uwtable
define linkonce_odr dso_local void @_ZN4pbrt8LogFatalIJRA49_KcEEEvNS_8LogLevelEPS1_iS5_DpOT_(i32 noundef %level, ptr noundef %file, i32 noundef %line, ptr noundef %fmt, ptr noundef nonnull align 1 dereferenceable(49) %args) local_unnamed_addr #4 comdat personality ptr @__gxx_personality_v0 {
entry:
  %s = alloca %"class.std::__cxx11::basic_string", align 8
  call void @_ZNSt7__cxx1112basic_stringIcSt11char_traitsIcESaIcEEC1Ev(ptr noundef nonnull align 8 dereferenceable(32) %s) #32
  invoke void @_ZN4pbrt6detail21stringPrintfRecursiveIRA49_KcJEEEvPNSt7__cxx1112basic_stringIcSt11char_traitsIcESaIcEEEPS2_OT_DpOT0_(ptr noundef nonnull %s, ptr noundef %fmt, ptr noundef nonnull align 1 dereferenceable(49) %args)
          to label %_ZN4pbrt12StringPrintfIJRA49_KcEEENSt7__cxx1112basic_stringIcSt11char_traitsIcESaIcEEEPS1_DpOT_.exit unwind label %lpad.i

common.resume:                                    ; preds = %lpad, %lpad.i
  %common.resume.op = phi { ptr, i32 } [ %0, %lpad.i ], [ %1, %lpad ]
  call void @_ZNSt7__cxx1112basic_stringIcSt11char_traitsIcESaIcEED1Ev(ptr noundef nonnull align 8 dereferenceable(32) %s) #32
  resume { ptr, i32 } %common.resume.op

lpad.i:                                           ; preds = %entry
  %0 = landingpad { ptr, i32 }
          cleanup
  br label %common.resume

_ZN4pbrt12StringPrintfIJRA49_KcEEENSt7__cxx1112basic_stringIcSt11char_traitsIcESaIcEEEPS1_DpOT_.exit: ; preds = %entry
  %call = call noundef ptr @_ZNKSt7__cxx1112basic_stringIcSt11char_traitsIcESaIcEE5c_strEv(ptr noundef nonnull align 8 dereferenceable(32) %s) #32
  invoke void @_ZN4pbrt8LogFatalENS_8LogLevelEPKciS2_(i32 noundef %level, ptr noundef %file, i32 noundef %line, ptr noundef %call) #31
          to label %invoke.cont unwind label %lpad

invoke.cont:                                      ; preds = %_ZN4pbrt12StringPrintfIJRA49_KcEEENSt7__cxx1112basic_stringIcSt11char_traitsIcESaIcEEEPS1_DpOT_.exit
  unreachable

lpad:                                             ; preds = %_ZN4pbrt12StringPrintfIJRA49_KcEEENSt7__cxx1112basic_stringIcSt11char_traitsIcESaIcEEEPS1_DpOT_.exit
  %1 = landingpad { ptr, i32 }
          cleanup
  br label %common.resume
}

; Function Attrs: mustprogress uwtable
define dso_local void @_ZN4pbrt15ParsedParameter6AddIntEi(ptr nocapture noundef nonnull align 8 dereferenceable(233) %this, i32 noundef %i) local_unnamed_addr #3 align 2 {
entry:
  %nStored.i.i = getelementptr inbounds %"class.pbrt::ParsedParameter", ptr %this, i64 0, i32 3, i32 3
  %0 = load i64, ptr %nStored.i.i, align 8
  %cmp.i = icmp eq i64 %0, 0
  %nStored.i.i1 = getelementptr inbounds %"class.pbrt::ParsedParameter", ptr %this, i64 0, i32 5, i32 3
  %1 = load i64, ptr %nStored.i.i1, align 8
  %cmp.i2 = icmp eq i64 %1, 0
  %or.cond = select i1 %cmp.i, i1 %cmp.i2, i1 false
  %nStored.i.i3 = getelementptr inbounds %"class.pbrt::ParsedParameter", ptr %this, i64 0, i32 6, i32 3
  %2 = load i64, ptr %nStored.i.i3, align 8
  %cmp.i4 = icmp eq i64 %2, 0
  %or.cond6 = select i1 %or.cond, i1 %cmp.i4, i1 false
  br i1 %or.cond6, label %land.end, label %land.rhs

land.rhs:                                         ; preds = %entry
  tail call void @_ZN4pbrt8LogFatalIJRA51_KcEEEvNS_8LogLevelEPS1_iS5_DpOT_(i32 noundef 2, ptr noundef nonnull @.str, i32 noundef 53, ptr noundef nonnull @.str.6, ptr noundef nonnull align 1 dereferenceable(51) @.str.8) #31
  unreachable

land.end:                                         ; preds = %entry
  %ints = getelementptr inbounds %"class.pbrt::ParsedParameter", ptr %this, i64 0, i32 4
  %nAlloc.i = getelementptr inbounds %"class.pbrt::ParsedParameter", ptr %this, i64 0, i32 4, i32 2
  %3 = load i64, ptr %nAlloc.i, align 8
  %nStored.i = getelementptr inbounds %"class.pbrt::ParsedParameter", ptr %this, i64 0, i32 4, i32 3
  %4 = load i64, ptr %nStored.i, align 8
  %cmp.i5 = icmp eq i64 %3, %4
  br i1 %cmp.i5, label %if.then.i, label %_ZN4pstd6vectorIiNS_3pmr21polymorphic_allocatorIiEEE9push_backERKi.exit

if.then.i:                                        ; preds = %land.end
  %cmp3.i = icmp eq i64 %3, 0
  %mul.i = shl i64 %3, 1
  %spec.select.i = select i1 %cmp3.i, i64 4, i64 %mul.i
  %cmp.not.i.i = icmp ult i64 %3, %spec.select.i
  br i1 %cmp.not.i.i, label %if.end.i.i, label %_ZN4pstd6vectorIiNS_3pmr21polymorphic_allocatorIiEEE9push_backERKi.exit

if.end.i.i:                                       ; preds = %if.then.i
  %mul.i.i.i = shl i64 %spec.select.i, 2
  %cmp.i.i.i.i.i = icmp eq i64 %mul.i.i.i, 0
  br i1 %cmp.i.i.i.i.i, label %_ZN4pstd3pmr21polymorphic_allocatorIiE15allocate_objectIiEEPT_m.exit.i.i, label %if.end.i.i.i.i.i

if.end.i.i.i.i.i:                                 ; preds = %if.end.i.i
  %5 = load ptr, ptr %ints, align 8
  %vtable.i.i.i.i.i = load ptr, ptr %5, align 8
  %vfn.i.i.i.i.i = getelementptr inbounds ptr, ptr %vtable.i.i.i.i.i, i64 2
  %6 = load ptr, ptr %vfn.i.i.i.i.i, align 8
  %call.i.i.i.i.i = tail call noundef ptr %6(ptr noundef nonnull align 8 dereferenceable(8) %5, i64 noundef %mul.i.i.i, i64 noundef 4)
  %.pre.i = load i64, ptr %nStored.i, align 8
  br label %_ZN4pstd3pmr21polymorphic_allocatorIiE15allocate_objectIiEEPT_m.exit.i.i

_ZN4pstd3pmr21polymorphic_allocatorIiE15allocate_objectIiEEPT_m.exit.i.i: ; preds = %if.end.i.i.i.i.i, %if.end.i.i
  %.pre14.i = phi i64 [ %.pre.i, %if.end.i.i.i.i.i ], [ %3, %if.end.i.i ]
  %retval.0.i.i.i.i.i = phi ptr [ %call.i.i.i.i.i, %if.end.i.i.i.i.i ], [ null, %if.end.i.i ]
  %cmp213.not.i.i = icmp eq i64 %.pre14.i, 0
  br i1 %cmp213.not.i.i, label %for.end.i.i, label %for.body.lr.ph.i.i

for.body.lr.ph.i.i:                               ; preds = %_ZN4pstd3pmr21polymorphic_allocatorIiE15allocate_objectIiEEPT_m.exit.i.i
  %ptr.i.i.i = getelementptr inbounds %"class.pbrt::ParsedParameter", ptr %this, i64 0, i32 4, i32 1
  br label %for.body.i.i

for.body.i.i:                                     ; preds = %for.body.i.i, %for.body.lr.ph.i.i
  %indvars.iv.i.i = phi i64 [ 0, %for.body.lr.ph.i.i ], [ %indvars.iv.next.i.i, %for.body.i.i ]
  %add.ptr.i.i = getelementptr inbounds i32, ptr %retval.0.i.i.i.i.i, i64 %indvars.iv.i.i
  %7 = load ptr, ptr %ptr.i.i.i, align 8
  %arrayidx.i.i = getelementptr inbounds i32, ptr %7, i64 %indvars.iv.i.i
  %8 = load i32, ptr %arrayidx.i.i, align 4
  store i32 %8, ptr %add.ptr.i.i, align 4
  %indvars.iv.next.i.i = add nuw nsw i64 %indvars.iv.i.i, 1
  %9 = load i64, ptr %nStored.i, align 8
  %cmp2.i.i = icmp ugt i64 %9, %indvars.iv.next.i.i
  br i1 %cmp2.i.i, label %for.body.i.i, label %for.end.i.i, !llvm.loop !7

for.end.i.i:                                      ; preds = %for.body.i.i, %_ZN4pstd3pmr21polymorphic_allocatorIiE15allocate_objectIiEEPT_m.exit.i.i
  %.pre13.i = phi i64 [ 0, %_ZN4pstd3pmr21polymorphic_allocatorIiE15allocate_objectIiEEPT_m.exit.i.i ], [ %9, %for.body.i.i ]
  %ptr.i.i = getelementptr inbounds %"class.pbrt::ParsedParameter", ptr %this, i64 0, i32 4, i32 1
  %10 = load ptr, ptr %ptr.i.i, align 8
  %tobool.not.i.i.i.i.i = icmp eq ptr %10, null
  br i1 %tobool.not.i.i.i.i.i, label %_ZN4pstd3pmr21polymorphic_allocatorIiE17deallocate_objectIiEEvPT_m.exit.i.i, label %if.end.i.i.i9.i.i

if.end.i.i.i9.i.i:                                ; preds = %for.end.i.i
  %11 = load i64, ptr %nAlloc.i, align 8
  %mul.i10.i.i = shl i64 %11, 2
  %12 = load ptr, ptr %ints, align 8
  %vtable.i.i.i11.i.i = load ptr, ptr %12, align 8
  %vfn.i.i.i12.i.i = getelementptr inbounds ptr, ptr %vtable.i.i.i11.i.i, i64 3
  %13 = load ptr, ptr %vfn.i.i.i12.i.i, align 8
  tail call void %13(ptr noundef nonnull align 8 dereferenceable(8) %12, ptr noundef nonnull %10, i64 noundef %mul.i10.i.i, i64 noundef 4)
  %.pre1.pre.i = load i64, ptr %nStored.i, align 8
  br label %_ZN4pstd3pmr21polymorphic_allocatorIiE17deallocate_objectIiEEvPT_m.exit.i.i

_ZN4pstd3pmr21polymorphic_allocatorIiE17deallocate_objectIiEEvPT_m.exit.i.i: ; preds = %if.end.i.i.i9.i.i, %for.end.i.i
  %.pre1.i = phi i64 [ %.pre1.pre.i, %if.end.i.i.i9.i.i ], [ %.pre13.i, %for.end.i.i ]
  store i64 %spec.select.i, ptr %nAlloc.i, align 8
  store ptr %retval.0.i.i.i.i.i, ptr %ptr.i.i, align 8
  br label %_ZN4pstd6vectorIiNS_3pmr21polymorphic_allocatorIiEEE9push_backERKi.exit

_ZN4pstd6vectorIiNS_3pmr21polymorphic_allocatorIiEEE9push_backERKi.exit: ; preds = %land.end, %if.then.i, %_ZN4pstd3pmr21polymorphic_allocatorIiE17deallocate_objectIiEEvPT_m.exit.i.i
  %14 = phi i64 [ %.pre1.i, %_ZN4pstd3pmr21polymorphic_allocatorIiE17deallocate_objectIiEEvPT_m.exit.i.i ], [ %3, %if.then.i ], [ %4, %land.end ]
  %ptr.i = getelementptr inbounds %"class.pbrt::ParsedParameter", ptr %this, i64 0, i32 4, i32 1
  %15 = load ptr, ptr %ptr.i, align 8
  %add.ptr.i = getelementptr inbounds i32, ptr %15, i64 %14
  store i32 %i, ptr %add.ptr.i, align 4
  %16 = load i64, ptr %nStored.i, align 8
  %inc.i = add i64 %16, 1
  store i64 %inc.i, ptr %nStored.i, align 8
  ret void
}

; Function Attrs: mustprogress noreturn uwtable
define linkonce_odr dso_local void @_ZN4pbrt8LogFatalIJRA51_KcEEEvNS_8LogLevelEPS1_iS5_DpOT_(i32 noundef %level, ptr noundef %file, i32 noundef %line, ptr noundef %fmt, ptr noundef nonnull align 1 dereferenceable(51) %args) local_unnamed_addr #4 comdat personality ptr @__gxx_personality_v0 {
entry:
  %s = alloca %"class.std::__cxx11::basic_string", align 8
  call void @_ZNSt7__cxx1112basic_stringIcSt11char_traitsIcESaIcEEC1Ev(ptr noundef nonnull align 8 dereferenceable(32) %s) #32
  invoke void @_ZN4pbrt6detail21stringPrintfRecursiveIRA51_KcJEEEvPNSt7__cxx1112basic_stringIcSt11char_traitsIcESaIcEEEPS2_OT_DpOT0_(ptr noundef nonnull %s, ptr noundef %fmt, ptr noundef nonnull align 1 dereferenceable(51) %args)
          to label %_ZN4pbrt12StringPrintfIJRA51_KcEEENSt7__cxx1112basic_stringIcSt11char_traitsIcESaIcEEEPS1_DpOT_.exit unwind label %lpad.i

common.resume:                                    ; preds = %lpad, %lpad.i
  %common.resume.op = phi { ptr, i32 } [ %0, %lpad.i ], [ %1, %lpad ]
  call void @_ZNSt7__cxx1112basic_stringIcSt11char_traitsIcESaIcEED1Ev(ptr noundef nonnull align 8 dereferenceable(32) %s) #32
  resume { ptr, i32 } %common.resume.op

lpad.i:                                           ; preds = %entry
  %0 = landingpad { ptr, i32 }
          cleanup
  br label %common.resume

_ZN4pbrt12StringPrintfIJRA51_KcEEENSt7__cxx1112basic_stringIcSt11char_traitsIcESaIcEEEPS1_DpOT_.exit: ; preds = %entry
  %call = call noundef ptr @_ZNKSt7__cxx1112basic_stringIcSt11char_traitsIcESaIcEE5c_strEv(ptr noundef nonnull align 8 dereferenceable(32) %s) #32
  invoke void @_ZN4pbrt8LogFatalENS_8LogLevelEPKciS2_(i32 noundef %level, ptr noundef %file, i32 noundef %line, ptr noundef %call) #31
          to label %invoke.cont unwind label %lpad

invoke.cont:                                      ; preds = %_ZN4pbrt12StringPrintfIJRA51_KcEEENSt7__cxx1112basic_stringIcSt11char_traitsIcESaIcEEEPS1_DpOT_.exit
  unreachable

lpad:                                             ; preds = %_ZN4pbrt12StringPrintfIJRA51_KcEEENSt7__cxx1112basic_stringIcSt11char_traitsIcESaIcEEEPS1_DpOT_.exit
  %1 = landingpad { ptr, i32 }
          cleanup
  br label %common.resume
}

; Function Attrs: mustprogress uwtable
define dso_local void @_ZN4pbrt15ParsedParameter9AddStringESt17basic_string_viewIcSt11char_traitsIcEE(ptr noundef nonnull align 8 dereferenceable(233) %this, i64 %str.coerce0, ptr %str.coerce1) local_unnamed_addr #3 align 2 personality ptr @__gxx_personality_v0 {
entry:
  %ref.tmp = alloca %"class.std::__cxx11::basic_string", align 8
  %ref.tmp7 = alloca %"class.std::allocator", align 1
  %nStored.i.i = getelementptr inbounds %"class.pbrt::ParsedParameter", ptr %this, i64 0, i32 3, i32 3
  %0 = load i64, ptr %nStored.i.i, align 8
  %cmp.i = icmp eq i64 %0, 0
  %nStored.i.i2 = getelementptr inbounds %"class.pbrt::ParsedParameter", ptr %this, i64 0, i32 4, i32 3
  %1 = load i64, ptr %nStored.i.i2, align 8
  %cmp.i3 = icmp eq i64 %1, 0
  %or.cond = select i1 %cmp.i, i1 %cmp.i3, i1 false
  %nStored.i.i4 = getelementptr inbounds %"class.pbrt::ParsedParameter", ptr %this, i64 0, i32 6, i32 3
  %2 = load i64, ptr %nStored.i.i4, align 8
  %cmp.i5 = icmp eq i64 %2, 0
  %or.cond9 = select i1 %or.cond, i1 %cmp.i5, i1 false
  br i1 %or.cond9, label %land.end, label %land.rhs

land.rhs:                                         ; preds = %entry
  tail call void @_ZN4pbrt8LogFatalIJRA48_KcEEEvNS_8LogLevelEPS1_iS5_DpOT_(i32 noundef 2, ptr noundef nonnull @.str, i32 noundef 58, ptr noundef nonnull @.str.6, ptr noundef nonnull align 1 dereferenceable(48) @.str.9) #31
  unreachable

land.end:                                         ; preds = %entry
  %add.ptr.i = getelementptr inbounds i8, ptr %str.coerce1, i64 %str.coerce0
  call void @_ZNSaIcEC1Ev(ptr noundef nonnull align 1 dereferenceable(1) %ref.tmp7) #32
  %call.i7 = invoke noundef ptr @_ZNSt7__cxx1112basic_stringIcSt11char_traitsIcESaIcEE13_M_local_dataEv(ptr noundef nonnull align 8 dereferenceable(32) %ref.tmp)
          to label %call.i.noexc unwind label %lpad

call.i.noexc:                                     ; preds = %land.end
  invoke void @_ZNSt7__cxx1112basic_stringIcSt11char_traitsIcESaIcEE12_Alloc_hiderC1EPcRKS3_(ptr noundef nonnull align 8 dereferenceable(8) %ref.tmp, ptr noundef %call.i7, ptr noundef nonnull align 1 dereferenceable(1) %ref.tmp7)
          to label %.noexc unwind label %lpad

.noexc:                                           ; preds = %call.i.noexc
  %_M_string_length.i = getelementptr inbounds %"class.std::__cxx11::basic_string", ptr %ref.tmp, i64 0, i32 1
  store i64 0, ptr %_M_string_length.i, align 8
  invoke void @_ZNSt7__cxx1112basic_stringIcSt11char_traitsIcESaIcEE12_M_constructIPKcEEvT_S8_St20forward_iterator_tag(ptr noundef nonnull align 8 dereferenceable(32) %ref.tmp, ptr noundef %str.coerce1, ptr noundef %add.ptr.i)
          to label %invoke.cont unwind label %lpad.i

lpad.i:                                           ; preds = %.noexc
  %3 = landingpad { ptr, i32 }
          cleanup
  call void @_ZNSaIcED2Ev(ptr noundef nonnull align 1 dereferenceable(1) %ref.tmp) #32
  br label %ehcleanup

invoke.cont:                                      ; preds = %.noexc
  %strings = getelementptr inbounds %"class.pbrt::ParsedParameter", ptr %this, i64 0, i32 5
  invoke void @_ZN4pstd6vectorINSt7__cxx1112basic_stringIcSt11char_traitsIcESaIcEEENS_3pmr21polymorphic_allocatorIS6_EEE9push_backEOS6_(ptr noundef nonnull align 8 dereferenceable(32) %strings, ptr noundef nonnull align 8 dereferenceable(32) %ref.tmp)
          to label %invoke.cont9 unwind label %lpad8

invoke.cont9:                                     ; preds = %invoke.cont
  call void @_ZNSt7__cxx1112basic_stringIcSt11char_traitsIcESaIcEED1Ev(ptr noundef nonnull align 8 dereferenceable(32) %ref.tmp) #32
  call void @_ZNSaIcED1Ev(ptr noundef nonnull align 1 dereferenceable(1) %ref.tmp7) #32
  ret void

lpad:                                             ; preds = %call.i.noexc, %land.end
  %4 = landingpad { ptr, i32 }
          cleanup
  br label %ehcleanup

lpad8:                                            ; preds = %invoke.cont
  %5 = landingpad { ptr, i32 }
          cleanup
  call void @_ZNSt7__cxx1112basic_stringIcSt11char_traitsIcESaIcEED1Ev(ptr noundef nonnull align 8 dereferenceable(32) %ref.tmp) #32
  br label %ehcleanup

ehcleanup:                                        ; preds = %lpad, %lpad.i, %lpad8
  %.pn = phi { ptr, i32 } [ %5, %lpad8 ], [ %4, %lpad ], [ %3, %lpad.i ]
  call void @_ZNSaIcED1Ev(ptr noundef nonnull align 1 dereferenceable(1) %ref.tmp7) #32
  resume { ptr, i32 } %.pn
}

; Function Attrs: mustprogress noreturn uwtable
define linkonce_odr dso_local void @_ZN4pbrt8LogFatalIJRA48_KcEEEvNS_8LogLevelEPS1_iS5_DpOT_(i32 noundef %level, ptr noundef %file, i32 noundef %line, ptr noundef %fmt, ptr noundef nonnull align 1 dereferenceable(48) %args) local_unnamed_addr #4 comdat personality ptr @__gxx_personality_v0 {
entry:
  %s = alloca %"class.std::__cxx11::basic_string", align 8
  call void @_ZNSt7__cxx1112basic_stringIcSt11char_traitsIcESaIcEEC1Ev(ptr noundef nonnull align 8 dereferenceable(32) %s) #32
  invoke void @_ZN4pbrt6detail21stringPrintfRecursiveIRA48_KcJEEEvPNSt7__cxx1112basic_stringIcSt11char_traitsIcESaIcEEEPS2_OT_DpOT0_(ptr noundef nonnull %s, ptr noundef %fmt, ptr noundef nonnull align 1 dereferenceable(48) %args)
          to label %_ZN4pbrt12StringPrintfIJRA48_KcEEENSt7__cxx1112basic_stringIcSt11char_traitsIcESaIcEEEPS1_DpOT_.exit unwind label %lpad.i

common.resume:                                    ; preds = %lpad, %lpad.i
  %common.resume.op = phi { ptr, i32 } [ %0, %lpad.i ], [ %1, %lpad ]
  call void @_ZNSt7__cxx1112basic_stringIcSt11char_traitsIcESaIcEED1Ev(ptr noundef nonnull align 8 dereferenceable(32) %s) #32
  resume { ptr, i32 } %common.resume.op

lpad.i:                                           ; preds = %entry
  %0 = landingpad { ptr, i32 }
          cleanup
  br label %common.resume

_ZN4pbrt12StringPrintfIJRA48_KcEEENSt7__cxx1112basic_stringIcSt11char_traitsIcESaIcEEEPS1_DpOT_.exit: ; preds = %entry
  %call = call noundef ptr @_ZNKSt7__cxx1112basic_stringIcSt11char_traitsIcESaIcEE5c_strEv(ptr noundef nonnull align 8 dereferenceable(32) %s) #32
  invoke void @_ZN4pbrt8LogFatalENS_8LogLevelEPKciS2_(i32 noundef %level, ptr noundef %file, i32 noundef %line, ptr noundef %call) #31
          to label %invoke.cont unwind label %lpad

invoke.cont:                                      ; preds = %_ZN4pbrt12StringPrintfIJRA48_KcEEENSt7__cxx1112basic_stringIcSt11char_traitsIcESaIcEEEPS1_DpOT_.exit
  unreachable

lpad:                                             ; preds = %_ZN4pbrt12StringPrintfIJRA48_KcEEENSt7__cxx1112basic_stringIcSt11char_traitsIcESaIcEEEPS1_DpOT_.exit
  %1 = landingpad { ptr, i32 }
          cleanup
  br label %common.resume
}

; Function Attrs: mustprogress uwtable
define linkonce_odr dso_local void @_ZN4pstd6vectorINSt7__cxx1112basic_stringIcSt11char_traitsIcESaIcEEENS_3pmr21polymorphic_allocatorIS6_EEE9push_backEOS6_(ptr noundef nonnull align 8 dereferenceable(32) %this, ptr noundef nonnull align 8 dereferenceable(32) %value) local_unnamed_addr #3 comdat align 2 {
entry:
  %nAlloc = getelementptr inbounds %"class.pstd::vector.6", ptr %this, i64 0, i32 2
  %0 = load i64, ptr %nAlloc, align 8
  %nStored = getelementptr inbounds %"class.pstd::vector.6", ptr %this, i64 0, i32 3
  %1 = load i64, ptr %nStored, align 8
  %cmp = icmp eq i64 %0, %1
  br i1 %cmp, label %if.then, label %if.end

if.then:                                          ; preds = %entry
  %cmp3 = icmp eq i64 %0, 0
  %mul = shl i64 %0, 1
  %spec.select = select i1 %cmp3, i64 4, i64 %mul
  %cmp.not.i = icmp ult i64 %0, %spec.select
  br i1 %cmp.not.i, label %if.end.i, label %if.end

if.end.i:                                         ; preds = %if.then
  %mul.i.i = shl i64 %spec.select, 5
  %cmp.i.i.i.i = icmp eq i64 %mul.i.i, 0
  br i1 %cmp.i.i.i.i, label %_ZN4pstd3pmr21polymorphic_allocatorINSt7__cxx1112basic_stringIcSt11char_traitsIcESaIcEEEE15allocate_objectIS7_EEPT_m.exit.i, label %if.end.i.i.i.i

if.end.i.i.i.i:                                   ; preds = %if.end.i
  %2 = load ptr, ptr %this, align 8
  %vtable.i.i.i.i = load ptr, ptr %2, align 8
  %vfn.i.i.i.i = getelementptr inbounds ptr, ptr %vtable.i.i.i.i, i64 2
  %3 = load ptr, ptr %vfn.i.i.i.i, align 8
  %call.i.i.i.i = tail call noundef ptr %3(ptr noundef nonnull align 8 dereferenceable(8) %2, i64 noundef %mul.i.i, i64 noundef 8)
  %.pre = load i64, ptr %nStored, align 8
  br label %_ZN4pstd3pmr21polymorphic_allocatorINSt7__cxx1112basic_stringIcSt11char_traitsIcESaIcEEEE15allocate_objectIS7_EEPT_m.exit.i

_ZN4pstd3pmr21polymorphic_allocatorINSt7__cxx1112basic_stringIcSt11char_traitsIcESaIcEEEE15allocate_objectIS7_EEPT_m.exit.i: ; preds = %if.end.i.i.i.i, %if.end.i
  %.pre14 = phi i64 [ %.pre, %if.end.i.i.i.i ], [ %0, %if.end.i ]
  %retval.0.i.i.i.i = phi ptr [ %call.i.i.i.i, %if.end.i.i.i.i ], [ null, %if.end.i ]
  %cmp213.not.i = icmp eq i64 %.pre14, 0
  br i1 %cmp213.not.i, label %for.end.i, label %for.body.lr.ph.i

for.body.lr.ph.i:                                 ; preds = %_ZN4pstd3pmr21polymorphic_allocatorINSt7__cxx1112basic_stringIcSt11char_traitsIcESaIcEEEE15allocate_objectIS7_EEPT_m.exit.i
  %ptr.i.i = getelementptr inbounds %"class.pstd::vector.6", ptr %this, i64 0, i32 1
  br label %for.body.i

for.body.i:                                       ; preds = %for.body.i, %for.body.lr.ph.i
  %indvars.iv.i = phi i64 [ 0, %for.body.lr.ph.i ], [ %indvars.iv.next.i, %for.body.i ]
  %add.ptr.i = getelementptr inbounds %"class.std::__cxx11::basic_string", ptr %retval.0.i.i.i.i, i64 %indvars.iv.i
  %4 = load ptr, ptr %ptr.i.i, align 8
  %arrayidx.i = getelementptr inbounds %"class.std::__cxx11::basic_string", ptr %4, i64 %indvars.iv.i
  tail call void @_ZNSt7__cxx1112basic_stringIcSt11char_traitsIcESaIcEEC1EOS4_(ptr noundef nonnull align 8 dereferenceable(32) %add.ptr.i, ptr noundef nonnull align 8 dereferenceable(32) %arrayidx.i) #32
  %5 = load ptr, ptr %ptr.i.i, align 8
  %add.ptr8.i = getelementptr inbounds %"class.std::__cxx11::basic_string", ptr %5, i64 %indvars.iv.i
  tail call void @_ZNSt7__cxx1112basic_stringIcSt11char_traitsIcESaIcEED1Ev(ptr noundef nonnull align 8 dereferenceable(32) %add.ptr8.i) #32
  %indvars.iv.next.i = add nuw i64 %indvars.iv.i, 1
  %6 = load i64, ptr %nStored, align 8
  %cmp2.i = icmp ugt i64 %6, %indvars.iv.next.i
  br i1 %cmp2.i, label %for.body.i, label %for.end.i, !llvm.loop !8

for.end.i:                                        ; preds = %for.body.i, %_ZN4pstd3pmr21polymorphic_allocatorINSt7__cxx1112basic_stringIcSt11char_traitsIcESaIcEEEE15allocate_objectIS7_EEPT_m.exit.i
  %.pre13 = phi i64 [ 0, %_ZN4pstd3pmr21polymorphic_allocatorINSt7__cxx1112basic_stringIcSt11char_traitsIcESaIcEEEE15allocate_objectIS7_EEPT_m.exit.i ], [ %6, %for.body.i ]
  %ptr.i = getelementptr inbounds %"class.pstd::vector.6", ptr %this, i64 0, i32 1
  %7 = load ptr, ptr %ptr.i, align 8
  %tobool.not.i.i.i.i = icmp eq ptr %7, null
  br i1 %tobool.not.i.i.i.i, label %_ZN4pstd3pmr21polymorphic_allocatorINSt7__cxx1112basic_stringIcSt11char_traitsIcESaIcEEEE17deallocate_objectIS7_EEvPT_m.exit.i, label %if.end.i.i.i9.i

if.end.i.i.i9.i:                                  ; preds = %for.end.i
  %8 = load i64, ptr %nAlloc, align 8
  %mul.i10.i = shl i64 %8, 5
  %9 = load ptr, ptr %this, align 8
  %vtable.i.i.i11.i = load ptr, ptr %9, align 8
  %vfn.i.i.i12.i = getelementptr inbounds ptr, ptr %vtable.i.i.i11.i, i64 3
  %10 = load ptr, ptr %vfn.i.i.i12.i, align 8
  tail call void %10(ptr noundef nonnull align 8 dereferenceable(8) %9, ptr noundef nonnull %7, i64 noundef %mul.i10.i, i64 noundef 8)
  %.pre1.pre = load i64, ptr %nStored, align 8
  br label %_ZN4pstd3pmr21polymorphic_allocatorINSt7__cxx1112basic_stringIcSt11char_traitsIcESaIcEEEE17deallocate_objectIS7_EEvPT_m.exit.i

_ZN4pstd3pmr21polymorphic_allocatorINSt7__cxx1112basic_stringIcSt11char_traitsIcESaIcEEEE17deallocate_objectIS7_EEvPT_m.exit.i: ; preds = %if.end.i.i.i9.i, %for.end.i
  %.pre1 = phi i64 [ %.pre1.pre, %if.end.i.i.i9.i ], [ %.pre13, %for.end.i ]
  store i64 %spec.select, ptr %nAlloc, align 8
  store ptr %retval.0.i.i.i.i, ptr %ptr.i, align 8
  br label %if.end

if.end:                                           ; preds = %_ZN4pstd3pmr21polymorphic_allocatorINSt7__cxx1112basic_stringIcSt11char_traitsIcESaIcEEEE17deallocate_objectIS7_EEvPT_m.exit.i, %if.then, %entry
  %11 = phi i64 [ %.pre1, %_ZN4pstd3pmr21polymorphic_allocatorINSt7__cxx1112basic_stringIcSt11char_traitsIcESaIcEEEE17deallocate_objectIS7_EEvPT_m.exit.i ], [ %0, %if.then ], [ %1, %entry ]
  %ptr = getelementptr inbounds %"class.pstd::vector.6", ptr %this, i64 0, i32 1
  %12 = load ptr, ptr %ptr, align 8
  %add.ptr = getelementptr inbounds %"class.std::__cxx11::basic_string", ptr %12, i64 %11
  tail call void @_ZNSt7__cxx1112basic_stringIcSt11char_traitsIcESaIcEEC1EOS4_(ptr noundef nonnull align 8 dereferenceable(32) %add.ptr, ptr noundef nonnull align 8 dereferenceable(32) %value) #32
  %13 = load i64, ptr %nStored, align 8
  %inc = add i64 %13, 1
  store i64 %inc, ptr %nStored, align 8
  ret void
}

; Function Attrs: nounwind
declare void @_ZNSaIcEC1Ev(ptr noundef nonnull align 1 dereferenceable(1)) unnamed_addr #1

; Function Attrs: mustprogress uwtable
define linkonce_odr dso_local void @_ZNSt7__cxx1112basic_stringIcSt11char_traitsIcESaIcEEC2IPKcvEET_S8_RKS3_(ptr noundef nonnull align 8 dereferenceable(32) %this, ptr noundef %__beg, ptr noundef %__end, ptr noundef nonnull align 1 dereferenceable(1) %__a) unnamed_addr #3 comdat align 2 personality ptr @__gxx_personality_v0 {
entry:
  %call = tail call noundef ptr @_ZNSt7__cxx1112basic_stringIcSt11char_traitsIcESaIcEE13_M_local_dataEv(ptr noundef nonnull align 8 dereferenceable(32) %this)
  tail call void @_ZNSt7__cxx1112basic_stringIcSt11char_traitsIcESaIcEE12_Alloc_hiderC1EPcRKS3_(ptr noundef nonnull align 8 dereferenceable(8) %this, ptr noundef %call, ptr noundef nonnull align 1 dereferenceable(1) %__a)
  %_M_string_length = getelementptr inbounds %"class.std::__cxx11::basic_string", ptr %this, i64 0, i32 1
  store i64 0, ptr %_M_string_length, align 8
  invoke void @_ZNSt7__cxx1112basic_stringIcSt11char_traitsIcESaIcEE12_M_constructIPKcEEvT_S8_St20forward_iterator_tag(ptr noundef nonnull align 8 dereferenceable(32) %this, ptr noundef %__beg, ptr noundef %__end)
          to label %invoke.cont unwind label %lpad

invoke.cont:                                      ; preds = %entry
  ret void

lpad:                                             ; preds = %entry
  %0 = landingpad { ptr, i32 }
          cleanup
  tail call void @_ZNSaIcED2Ev(ptr noundef nonnull align 1 dereferenceable(1) %this) #32
  resume { ptr, i32 } %0
}

declare i32 @__gxx_personality_v0(...)

; Function Attrs: nounwind
declare void @_ZNSt7__cxx1112basic_stringIcSt11char_traitsIcESaIcEED1Ev(ptr noundef nonnull align 8 dereferenceable(32)) unnamed_addr #1

; Function Attrs: nounwind
declare void @_ZNSaIcED1Ev(ptr noundef nonnull align 1 dereferenceable(1)) unnamed_addr #1

; Function Attrs: mustprogress uwtable
define dso_local void @_ZN4pbrt15ParsedParameter7AddBoolEb(ptr nocapture noundef nonnull align 8 dereferenceable(233) %this, i1 noundef zeroext %v) local_unnamed_addr #3 align 2 {
entry:
  %nStored.i.i = getelementptr inbounds %"class.pbrt::ParsedParameter", ptr %this, i64 0, i32 3, i32 3
  %0 = load i64, ptr %nStored.i.i, align 8
  %cmp.i = icmp eq i64 %0, 0
  %nStored.i.i1 = getelementptr inbounds %"class.pbrt::ParsedParameter", ptr %this, i64 0, i32 4, i32 3
  %1 = load i64, ptr %nStored.i.i1, align 8
  %cmp.i2 = icmp eq i64 %1, 0
  %or.cond = select i1 %cmp.i, i1 %cmp.i2, i1 false
  %nStored.i.i3 = getelementptr inbounds %"class.pbrt::ParsedParameter", ptr %this, i64 0, i32 5, i32 3
  %2 = load i64, ptr %nStored.i.i3, align 8
  %cmp.i4 = icmp eq i64 %2, 0
  %or.cond6 = select i1 %or.cond, i1 %cmp.i4, i1 false
  br i1 %or.cond6, label %land.end, label %land.rhs

land.rhs:                                         ; preds = %entry
  tail call void @_ZN4pbrt8LogFatalIJRA50_KcEEEvNS_8LogLevelEPS1_iS5_DpOT_(i32 noundef 2, ptr noundef nonnull @.str, i32 noundef 63, ptr noundef nonnull @.str.6, ptr noundef nonnull align 1 dereferenceable(50) @.str.10) #31
  unreachable

land.end:                                         ; preds = %entry
  %bools = getelementptr inbounds %"class.pbrt::ParsedParameter", ptr %this, i64 0, i32 6
  %nAlloc.i = getelementptr inbounds %"class.pbrt::ParsedParameter", ptr %this, i64 0, i32 6, i32 2
  %3 = load i64, ptr %nAlloc.i, align 8
  %nStored.i = getelementptr inbounds %"class.pbrt::ParsedParameter", ptr %this, i64 0, i32 6, i32 3
  %4 = load i64, ptr %nStored.i, align 8
  %cmp.i5 = icmp eq i64 %3, %4
  br i1 %cmp.i5, label %if.then.i, label %_ZN4pstd6vectorIhNS_3pmr21polymorphic_allocatorIhEEE9push_backEOh.exit

if.then.i:                                        ; preds = %land.end
  %cmp3.i = icmp eq i64 %3, 0
  %mul.i = shl i64 %3, 1
  %spec.select.i = select i1 %cmp3.i, i64 4, i64 %mul.i
  %cmp.not.i.i = icmp ult i64 %3, %spec.select.i
  br i1 %cmp.not.i.i, label %_ZN4pstd3pmr21polymorphic_allocatorIhE15allocate_objectIhEEPT_m.exit.i.i, label %_ZN4pstd6vectorIhNS_3pmr21polymorphic_allocatorIhEEE9push_backEOh.exit

_ZN4pstd3pmr21polymorphic_allocatorIhE15allocate_objectIhEEPT_m.exit.i.i: ; preds = %if.then.i
  %5 = load ptr, ptr %bools, align 8
  %vtable.i.i.i.i.i = load ptr, ptr %5, align 8
  %vfn.i.i.i.i.i = getelementptr inbounds ptr, ptr %vtable.i.i.i.i.i, i64 2
  %6 = load ptr, ptr %vfn.i.i.i.i.i, align 8
  %call.i.i.i.i.i = tail call noundef ptr %6(ptr noundef nonnull align 8 dereferenceable(8) %5, i64 noundef %spec.select.i, i64 noundef 1)
  %7 = load i64, ptr %nStored.i, align 8
  %cmp212.not.i.i = icmp eq i64 %7, 0
  br i1 %cmp212.not.i.i, label %for.end.i.i, label %for.body.lr.ph.i.i

for.body.lr.ph.i.i:                               ; preds = %_ZN4pstd3pmr21polymorphic_allocatorIhE15allocate_objectIhEEPT_m.exit.i.i
  %ptr.i.i.i = getelementptr inbounds %"class.pbrt::ParsedParameter", ptr %this, i64 0, i32 6, i32 1
  br label %for.body.i.i

for.body.i.i:                                     ; preds = %for.body.i.i, %for.body.lr.ph.i.i
  %indvars.iv.i.i = phi i64 [ 0, %for.body.lr.ph.i.i ], [ %indvars.iv.next.i.i, %for.body.i.i ]
  %add.ptr.i.i = getelementptr inbounds i8, ptr %call.i.i.i.i.i, i64 %indvars.iv.i.i
  %8 = load ptr, ptr %ptr.i.i.i, align 8
  %arrayidx.i.i = getelementptr inbounds i8, ptr %8, i64 %indvars.iv.i.i
  %9 = load i8, ptr %arrayidx.i.i, align 1
  store i8 %9, ptr %add.ptr.i.i, align 1
  %indvars.iv.next.i.i = add nuw nsw i64 %indvars.iv.i.i, 1
  %10 = load i64, ptr %nStored.i, align 8
  %cmp2.i.i = icmp ugt i64 %10, %indvars.iv.next.i.i
  br i1 %cmp2.i.i, label %for.body.i.i, label %for.end.i.i, !llvm.loop !9

for.end.i.i:                                      ; preds = %for.body.i.i, %_ZN4pstd3pmr21polymorphic_allocatorIhE15allocate_objectIhEEPT_m.exit.i.i
  %.pre2.i = phi i64 [ 0, %_ZN4pstd3pmr21polymorphic_allocatorIhE15allocate_objectIhEEPT_m.exit.i.i ], [ %10, %for.body.i.i ]
  %ptr.i.i = getelementptr inbounds %"class.pbrt::ParsedParameter", ptr %this, i64 0, i32 6, i32 1
  %11 = load ptr, ptr %ptr.i.i, align 8
  %tobool.not.i.i.i.i.i = icmp eq ptr %11, null
  br i1 %tobool.not.i.i.i.i.i, label %_ZN4pstd3pmr21polymorphic_allocatorIhE17deallocate_objectIhEEvPT_m.exit.i.i, label %if.end.i.i.i9.i.i

if.end.i.i.i9.i.i:                                ; preds = %for.end.i.i
  %12 = load i64, ptr %nAlloc.i, align 8
  %13 = load ptr, ptr %bools, align 8
  %vtable.i.i.i10.i.i = load ptr, ptr %13, align 8
  %vfn.i.i.i11.i.i = getelementptr inbounds ptr, ptr %vtable.i.i.i10.i.i, i64 3
  %14 = load ptr, ptr %vfn.i.i.i11.i.i, align 8
  tail call void %14(ptr noundef nonnull align 8 dereferenceable(8) %13, ptr noundef nonnull %11, i64 noundef %12, i64 noundef 1)
  %.pre.pre.i = load i64, ptr %nStored.i, align 8
  br label %_ZN4pstd3pmr21polymorphic_allocatorIhE17deallocate_objectIhEEvPT_m.exit.i.i

_ZN4pstd3pmr21polymorphic_allocatorIhE17deallocate_objectIhEEvPT_m.exit.i.i: ; preds = %if.end.i.i.i9.i.i, %for.end.i.i
  %.pre.i = phi i64 [ %.pre.pre.i, %if.end.i.i.i9.i.i ], [ %.pre2.i, %for.end.i.i ]
  store i64 %spec.select.i, ptr %nAlloc.i, align 8
  store ptr %call.i.i.i.i.i, ptr %ptr.i.i, align 8
  br label %_ZN4pstd6vectorIhNS_3pmr21polymorphic_allocatorIhEEE9push_backEOh.exit

_ZN4pstd6vectorIhNS_3pmr21polymorphic_allocatorIhEEE9push_backEOh.exit: ; preds = %land.end, %if.then.i, %_ZN4pstd3pmr21polymorphic_allocatorIhE17deallocate_objectIhEEvPT_m.exit.i.i
  %15 = phi i64 [ %.pre.i, %_ZN4pstd3pmr21polymorphic_allocatorIhE17deallocate_objectIhEEvPT_m.exit.i.i ], [ %3, %if.then.i ], [ %4, %land.end ]
  %frombool = zext i1 %v to i8
  %ptr.i = getelementptr inbounds %"class.pbrt::ParsedParameter", ptr %this, i64 0, i32 6, i32 1
  %16 = load ptr, ptr %ptr.i, align 8
  %add.ptr.i = getelementptr inbounds i8, ptr %16, i64 %15
  store i8 %frombool, ptr %add.ptr.i, align 1
  %17 = load i64, ptr %nStored.i, align 8
  %inc.i = add i64 %17, 1
  store i64 %inc.i, ptr %nStored.i, align 8
  ret void
}

; Function Attrs: mustprogress noreturn uwtable
define linkonce_odr dso_local void @_ZN4pbrt8LogFatalIJRA50_KcEEEvNS_8LogLevelEPS1_iS5_DpOT_(i32 noundef %level, ptr noundef %file, i32 noundef %line, ptr noundef %fmt, ptr noundef nonnull align 1 dereferenceable(50) %args) local_unnamed_addr #4 comdat personality ptr @__gxx_personality_v0 {
entry:
  %s = alloca %"class.std::__cxx11::basic_string", align 8
  call void @_ZNSt7__cxx1112basic_stringIcSt11char_traitsIcESaIcEEC1Ev(ptr noundef nonnull align 8 dereferenceable(32) %s) #32
  invoke void @_ZN4pbrt6detail21stringPrintfRecursiveIRA50_KcJEEEvPNSt7__cxx1112basic_stringIcSt11char_traitsIcESaIcEEEPS2_OT_DpOT0_(ptr noundef nonnull %s, ptr noundef %fmt, ptr noundef nonnull align 1 dereferenceable(50) %args)
          to label %_ZN4pbrt12StringPrintfIJRA50_KcEEENSt7__cxx1112basic_stringIcSt11char_traitsIcESaIcEEEPS1_DpOT_.exit unwind label %lpad.i

common.resume:                                    ; preds = %lpad, %lpad.i
  %common.resume.op = phi { ptr, i32 } [ %0, %lpad.i ], [ %1, %lpad ]
  call void @_ZNSt7__cxx1112basic_stringIcSt11char_traitsIcESaIcEED1Ev(ptr noundef nonnull align 8 dereferenceable(32) %s) #32
  resume { ptr, i32 } %common.resume.op

lpad.i:                                           ; preds = %entry
  %0 = landingpad { ptr, i32 }
          cleanup
  br label %common.resume

_ZN4pbrt12StringPrintfIJRA50_KcEEENSt7__cxx1112basic_stringIcSt11char_traitsIcESaIcEEEPS1_DpOT_.exit: ; preds = %entry
  %call = call noundef ptr @_ZNKSt7__cxx1112basic_stringIcSt11char_traitsIcESaIcEE5c_strEv(ptr noundef nonnull align 8 dereferenceable(32) %s) #32
  invoke void @_ZN4pbrt8LogFatalENS_8LogLevelEPKciS2_(i32 noundef %level, ptr noundef %file, i32 noundef %line, ptr noundef %call) #31
          to label %invoke.cont unwind label %lpad

invoke.cont:                                      ; preds = %_ZN4pbrt12StringPrintfIJRA50_KcEEENSt7__cxx1112basic_stringIcSt11char_traitsIcESaIcEEEPS1_DpOT_.exit
  unreachable

lpad:                                             ; preds = %_ZN4pbrt12StringPrintfIJRA50_KcEEENSt7__cxx1112basic_stringIcSt11char_traitsIcESaIcEEEPS1_DpOT_.exit
  %1 = landingpad { ptr, i32 }
          cleanup
  br label %common.resume
}

; Function Attrs: mustprogress uwtable
define dso_local void @_ZNK4pbrt15ParsedParameter8ToStringB5cxx11Ev(ptr noalias nonnull sret(%"class.std::__cxx11::basic_string") align 8 %agg.result, ptr noundef nonnull align 8 dereferenceable(233) %this) local_unnamed_addr #3 align 2 personality ptr @__gxx_personality_v0 {
entry:
  %ref.tmp = alloca %"class.std::__cxx11::basic_string", align 8
  %ref.tmp2 = alloca %"class.std::__cxx11::basic_string", align 8
  %ref.tmp3 = alloca %"class.std::__cxx11::basic_string", align 8
  %ref.tmp4 = alloca %"class.std::__cxx11::basic_string", align 8
  %ref.tmp5 = alloca %"class.std::__cxx11::basic_string", align 8
  %ref.tmp6 = alloca %"class.std::allocator", align 1
  %ref.tmp13 = alloca %"class.std::__cxx11::basic_string", align 8
  %ref.tmp14 = alloca %"class.std::allocator", align 1
  %d = alloca float, align 4
  %ref.tmp35 = alloca %"class.std::__cxx11::basic_string", align 8
  %i = alloca i32, align 4
  %ref.tmp52 = alloca %"class.std::__cxx11::basic_string", align 8
  %ref.tmp73 = alloca %"class.std::__cxx11::basic_string", align 8
  %ref.tmp74 = alloca %"class.std::__cxx11::basic_string", align 8
  tail call void @_ZNSt7__cxx1112basic_stringIcSt11char_traitsIcESaIcEEC1Ev(ptr noundef nonnull align 8 dereferenceable(32) %agg.result) #32
  call void @_ZNSaIcEC1Ev(ptr noundef nonnull align 1 dereferenceable(1) %ref.tmp6) #32
  %call.i23 = invoke noundef ptr @_ZNSt7__cxx1112basic_stringIcSt11char_traitsIcESaIcEE13_M_local_dataEv(ptr noundef nonnull align 8 dereferenceable(32) %ref.tmp5)
          to label %call.i.noexc unwind label %lpad

call.i.noexc:                                     ; preds = %entry
  invoke void @_ZNSt7__cxx1112basic_stringIcSt11char_traitsIcESaIcEE12_Alloc_hiderC1EPcRKS3_(ptr noundef nonnull align 8 dereferenceable(8) %ref.tmp5, ptr noundef %call.i23, ptr noundef nonnull align 1 dereferenceable(1) %ref.tmp6)
          to label %.noexc unwind label %lpad

.noexc:                                           ; preds = %call.i.noexc
  invoke void @_ZNSt7__cxx1112basic_stringIcSt11char_traitsIcESaIcEE12_M_constructIPKcEEvT_S8_St20forward_iterator_tag(ptr noundef nonnull align 8 dereferenceable(32) %ref.tmp5, ptr noundef nonnull @.str.11, ptr noundef nonnull getelementptr inbounds ([2 x i8], ptr @.str.11, i64 0, i64 1))
          to label %invoke.cont unwind label %lpad.i

lpad.i:                                           ; preds = %.noexc
  %0 = landingpad { ptr, i32 }
          cleanup
  call void @_ZNSaIcED2Ev(ptr noundef nonnull align 1 dereferenceable(1) %ref.tmp5) #32
  br label %ehcleanup26

invoke.cont:                                      ; preds = %.noexc
  %call.i25 = invoke noundef nonnull align 8 dereferenceable(32) ptr @_ZNSt7__cxx1112basic_stringIcSt11char_traitsIcESaIcEE6appendERKS4_(ptr noundef nonnull align 8 dereferenceable(32) %ref.tmp5, ptr noundef nonnull align 8 dereferenceable(32) %this)
          to label %invoke.cont8 unwind label %lpad7

invoke.cont8:                                     ; preds = %invoke.cont
  call void @_ZNSt7__cxx1112basic_stringIcSt11char_traitsIcESaIcEEC1EOS4_(ptr noundef nonnull align 8 dereferenceable(32) %ref.tmp4, ptr noundef nonnull align 8 dereferenceable(32) %call.i25) #32
  %call.i27 = invoke noundef nonnull align 8 dereferenceable(32) ptr @_ZNSt7__cxx1112basic_stringIcSt11char_traitsIcESaIcEE6appendEPKc(ptr noundef nonnull align 8 dereferenceable(32) %ref.tmp4, ptr noundef nonnull @.str.12)
          to label %invoke.cont10 unwind label %lpad9

invoke.cont10:                                    ; preds = %invoke.cont8
  call void @_ZNSt7__cxx1112basic_stringIcSt11char_traitsIcESaIcEEC1EOS4_(ptr noundef nonnull align 8 dereferenceable(32) %ref.tmp3, ptr noundef nonnull align 8 dereferenceable(32) %call.i27) #32
  %name = getelementptr inbounds %"class.pbrt::ParsedParameter", ptr %this, i64 0, i32 1
  %call.i29 = invoke noundef nonnull align 8 dereferenceable(32) ptr @_ZNSt7__cxx1112basic_stringIcSt11char_traitsIcESaIcEE6appendERKS4_(ptr noundef nonnull align 8 dereferenceable(32) %ref.tmp3, ptr noundef nonnull align 8 dereferenceable(32) %name)
          to label %invoke.cont12 unwind label %lpad11

invoke.cont12:                                    ; preds = %invoke.cont10
  call void @_ZNSt7__cxx1112basic_stringIcSt11char_traitsIcESaIcEEC1EOS4_(ptr noundef nonnull align 8 dereferenceable(32) %ref.tmp2, ptr noundef nonnull align 8 dereferenceable(32) %call.i29) #32
  call void @_ZNSaIcEC1Ev(ptr noundef nonnull align 1 dereferenceable(1) %ref.tmp14) #32
  %call.i35 = invoke noundef ptr @_ZNSt7__cxx1112basic_stringIcSt11char_traitsIcESaIcEE13_M_local_dataEv(ptr noundef nonnull align 8 dereferenceable(32) %ref.tmp13)
          to label %call.i.noexc34 unwind label %lpad15

call.i.noexc34:                                   ; preds = %invoke.cont12
  invoke void @_ZNSt7__cxx1112basic_stringIcSt11char_traitsIcESaIcEE12_Alloc_hiderC1EPcRKS3_(ptr noundef nonnull align 8 dereferenceable(8) %ref.tmp13, ptr noundef %call.i35, ptr noundef nonnull align 1 dereferenceable(1) %ref.tmp14)
          to label %.noexc36 unwind label %lpad15

.noexc36:                                         ; preds = %call.i.noexc34
  invoke void @_ZNSt7__cxx1112basic_stringIcSt11char_traitsIcESaIcEE12_M_constructIPKcEEvT_S8_St20forward_iterator_tag(ptr noundef nonnull align 8 dereferenceable(32) %ref.tmp13, ptr noundef nonnull @.str.13, ptr noundef nonnull getelementptr inbounds ([5 x i8], ptr @.str.13, i64 0, i64 4))
          to label %invoke.cont16 unwind label %lpad.i33

lpad.i33:                                         ; preds = %.noexc36
  %1 = landingpad { ptr, i32 }
          cleanup
  call void @_ZNSaIcED2Ev(ptr noundef nonnull align 1 dereferenceable(1) %ref.tmp13) #32
  br label %ehcleanup21

invoke.cont16:                                    ; preds = %.noexc36
  %call.i = call noundef i64 @_ZNKSt7__cxx1112basic_stringIcSt11char_traitsIcESaIcEE4sizeEv(ptr noundef nonnull align 8 dereferenceable(32) %ref.tmp2) #32, !noalias !10
  %call1.i = call noundef i64 @_ZNKSt7__cxx1112basic_stringIcSt11char_traitsIcESaIcEE4sizeEv(ptr noundef nonnull align 8 dereferenceable(32) %ref.tmp13) #32, !noalias !10
  %add.i = add i64 %call1.i, %call.i
  %call2.i = call noundef i64 @_ZNKSt7__cxx1112basic_stringIcSt11char_traitsIcESaIcEE8capacityEv(ptr noundef nonnull align 8 dereferenceable(32) %ref.tmp2) #32, !noalias !10
  %cmp.i = icmp ugt i64 %add.i, %call2.i
  br i1 %cmp.i, label %land.lhs.true.i, label %if.end7.i

land.lhs.true.i:                                  ; preds = %invoke.cont16
  %call3.i = call noundef i64 @_ZNKSt7__cxx1112basic_stringIcSt11char_traitsIcESaIcEE8capacityEv(ptr noundef nonnull align 8 dereferenceable(32) %ref.tmp13) #32, !noalias !10
  %cmp4.not.i = icmp ugt i64 %add.i, %call3.i
  br i1 %cmp4.not.i, label %if.end7.i, label %if.then5.i

if.then5.i:                                       ; preds = %land.lhs.true.i
  %call6.i39 = invoke noundef nonnull align 8 dereferenceable(32) ptr @_ZNSt7__cxx1112basic_stringIcSt11char_traitsIcESaIcEE6insertEmRKS4_(ptr noundef nonnull align 8 dereferenceable(32) %ref.tmp13, i64 noundef 0, ptr noundef nonnull align 8 dereferenceable(32) %ref.tmp2)
          to label %invoke.cont18 unwind label %lpad17

if.end7.i:                                        ; preds = %land.lhs.true.i, %invoke.cont16
  %call8.i40 = invoke noundef nonnull align 8 dereferenceable(32) ptr @_ZNSt7__cxx1112basic_stringIcSt11char_traitsIcESaIcEE6appendERKS4_(ptr noundef nonnull align 8 dereferenceable(32) %ref.tmp2, ptr noundef nonnull align 8 dereferenceable(32) %ref.tmp13)
          to label %invoke.cont18 unwind label %lpad17

invoke.cont18:                                    ; preds = %if.then5.i, %if.end7.i
  %call8.sink.i = phi ptr [ %call6.i39, %if.then5.i ], [ %call8.i40, %if.end7.i ]
  call void @_ZNSt7__cxx1112basic_stringIcSt11char_traitsIcESaIcEEC1EOS4_(ptr noundef nonnull align 8 dereferenceable(32) %ref.tmp, ptr noundef nonnull align 8 dereferenceable(32) %call8.sink.i) #32
  %call = invoke noundef nonnull align 8 dereferenceable(32) ptr @_ZNSt7__cxx1112basic_stringIcSt11char_traitsIcESaIcEEpLERKS4_(ptr noundef nonnull align 8 dereferenceable(32) %agg.result, ptr noundef nonnull align 8 dereferenceable(32) %ref.tmp)
          to label %invoke.cont20 unwind label %lpad19

invoke.cont20:                                    ; preds = %invoke.cont18
  call void @_ZNSt7__cxx1112basic_stringIcSt11char_traitsIcESaIcEED1Ev(ptr noundef nonnull align 8 dereferenceable(32) %ref.tmp) #32
  call void @_ZNSt7__cxx1112basic_stringIcSt11char_traitsIcESaIcEED1Ev(ptr noundef nonnull align 8 dereferenceable(32) %ref.tmp13) #32
  call void @_ZNSaIcED1Ev(ptr noundef nonnull align 1 dereferenceable(1) %ref.tmp14) #32
  call void @_ZNSt7__cxx1112basic_stringIcSt11char_traitsIcESaIcEED1Ev(ptr noundef nonnull align 8 dereferenceable(32) %ref.tmp2) #32
  call void @_ZNSt7__cxx1112basic_stringIcSt11char_traitsIcESaIcEED1Ev(ptr noundef nonnull align 8 dereferenceable(32) %ref.tmp3) #32
  call void @_ZNSt7__cxx1112basic_stringIcSt11char_traitsIcESaIcEED1Ev(ptr noundef nonnull align 8 dereferenceable(32) %ref.tmp4) #32
  call void @_ZNSt7__cxx1112basic_stringIcSt11char_traitsIcESaIcEED1Ev(ptr noundef nonnull align 8 dereferenceable(32) %ref.tmp5) #32
  call void @_ZNSaIcED1Ev(ptr noundef nonnull align 1 dereferenceable(1) %ref.tmp6) #32
  %nStored.i.i = getelementptr inbounds %"class.pbrt::ParsedParameter", ptr %this, i64 0, i32 3, i32 3
  %2 = load i64, ptr %nStored.i.i, align 8
  %cmp.i41 = icmp eq i64 %2, 0
  br i1 %cmp.i41, label %invoke.cont41, label %for.body.preheader

for.body.preheader:                               ; preds = %invoke.cont20
  %ptr.i = getelementptr inbounds %"class.pbrt::ParsedParameter", ptr %this, i64 0, i32 3, i32 1
  %3 = load ptr, ptr %ptr.i, align 8
  %add.ptr.i43 = getelementptr inbounds float, ptr %3, i64 %2
  br label %for.body

for.body:                                         ; preds = %for.body.preheader, %invoke.cont38
  %__begin2.077 = phi ptr [ %incdec.ptr, %invoke.cont38 ], [ %3, %for.body.preheader ]
  %4 = load float, ptr %__begin2.077, align 4
  store float %4, ptr %d, align 4
  call void @_ZNSt7__cxx1112basic_stringIcSt11char_traitsIcESaIcEEC1Ev(ptr noundef nonnull align 8 dereferenceable(32) %ref.tmp35) #32
  invoke void @_ZN4pbrt6detail21stringPrintfRecursiveIRfJEEEvPNSt7__cxx1112basic_stringIcSt11char_traitsIcESaIcEEEPKcOT_DpOT0_(ptr noundef nonnull %ref.tmp35, ptr noundef nonnull @.str.14, ptr noundef nonnull align 4 dereferenceable(4) %d)
          to label %invoke.cont36 unwind label %lpad.i44

lpad.i44:                                         ; preds = %for.body
  %5 = landingpad { ptr, i32 }
          cleanup
  call void @_ZNSt7__cxx1112basic_stringIcSt11char_traitsIcESaIcEED1Ev(ptr noundef nonnull align 8 dereferenceable(32) %ref.tmp35) #32
  br label %ehcleanup109

invoke.cont36:                                    ; preds = %for.body
  %call39 = invoke noundef nonnull align 8 dereferenceable(32) ptr @_ZNSt7__cxx1112basic_stringIcSt11char_traitsIcESaIcEEpLERKS4_(ptr noundef nonnull align 8 dereferenceable(32) %agg.result, ptr noundef nonnull align 8 dereferenceable(32) %ref.tmp35)
          to label %invoke.cont38 unwind label %lpad37

invoke.cont38:                                    ; preds = %invoke.cont36
  call void @_ZNSt7__cxx1112basic_stringIcSt11char_traitsIcESaIcEED1Ev(ptr noundef nonnull align 8 dereferenceable(32) %ref.tmp35) #32
  %incdec.ptr = getelementptr inbounds float, ptr %__begin2.077, i64 1
  %cmp.not = icmp eq ptr %incdec.ptr, %add.ptr.i43
  br i1 %cmp.not, label %if.end106, label %for.body

lpad:                                             ; preds = %call.i.noexc, %entry
  %6 = landingpad { ptr, i32 }
          cleanup
  br label %ehcleanup26

lpad7:                                            ; preds = %invoke.cont
  %7 = landingpad { ptr, i32 }
          cleanup
  br label %ehcleanup25

lpad9:                                            ; preds = %invoke.cont8
  %8 = landingpad { ptr, i32 }
          cleanup
  br label %ehcleanup24

lpad11:                                           ; preds = %invoke.cont10
  %9 = landingpad { ptr, i32 }
          cleanup
  br label %ehcleanup23

lpad15:                                           ; preds = %call.i.noexc34, %invoke.cont12
  %10 = landingpad { ptr, i32 }
          cleanup
  br label %ehcleanup21

lpad17:                                           ; preds = %if.end7.i, %if.then5.i
  %11 = landingpad { ptr, i32 }
          cleanup
  br label %ehcleanup

lpad19:                                           ; preds = %invoke.cont18
  %12 = landingpad { ptr, i32 }
          cleanup
  call void @_ZNSt7__cxx1112basic_stringIcSt11char_traitsIcESaIcEED1Ev(ptr noundef nonnull align 8 dereferenceable(32) %ref.tmp) #32
  br label %ehcleanup

ehcleanup:                                        ; preds = %lpad19, %lpad17
  %.pn = phi { ptr, i32 } [ %12, %lpad19 ], [ %11, %lpad17 ]
  call void @_ZNSt7__cxx1112basic_stringIcSt11char_traitsIcESaIcEED1Ev(ptr noundef nonnull align 8 dereferenceable(32) %ref.tmp13) #32
  br label %ehcleanup21

ehcleanup21:                                      ; preds = %lpad15, %lpad.i33, %ehcleanup
  %.pn.pn = phi { ptr, i32 } [ %.pn, %ehcleanup ], [ %10, %lpad15 ], [ %1, %lpad.i33 ]
  call void @_ZNSaIcED1Ev(ptr noundef nonnull align 1 dereferenceable(1) %ref.tmp14) #32
  call void @_ZNSt7__cxx1112basic_stringIcSt11char_traitsIcESaIcEED1Ev(ptr noundef nonnull align 8 dereferenceable(32) %ref.tmp2) #32
  br label %ehcleanup23

ehcleanup23:                                      ; preds = %ehcleanup21, %lpad11
  %.pn.pn.pn = phi { ptr, i32 } [ %.pn.pn, %ehcleanup21 ], [ %9, %lpad11 ]
  call void @_ZNSt7__cxx1112basic_stringIcSt11char_traitsIcESaIcEED1Ev(ptr noundef nonnull align 8 dereferenceable(32) %ref.tmp3) #32
  br label %ehcleanup24

ehcleanup24:                                      ; preds = %ehcleanup23, %lpad9
  %.pn.pn.pn.pn = phi { ptr, i32 } [ %.pn.pn.pn, %ehcleanup23 ], [ %8, %lpad9 ]
  call void @_ZNSt7__cxx1112basic_stringIcSt11char_traitsIcESaIcEED1Ev(ptr noundef nonnull align 8 dereferenceable(32) %ref.tmp4) #32
  br label %ehcleanup25

ehcleanup25:                                      ; preds = %ehcleanup24, %lpad7
  %.pn.pn.pn.pn.pn = phi { ptr, i32 } [ %.pn.pn.pn.pn, %ehcleanup24 ], [ %7, %lpad7 ]
  call void @_ZNSt7__cxx1112basic_stringIcSt11char_traitsIcESaIcEED1Ev(ptr noundef nonnull align 8 dereferenceable(32) %ref.tmp5) #32
  br label %ehcleanup26

ehcleanup26:                                      ; preds = %lpad, %lpad.i, %ehcleanup25
  %.pn.pn.pn.pn.pn.pn = phi { ptr, i32 } [ %.pn.pn.pn.pn.pn, %ehcleanup25 ], [ %6, %lpad ], [ %0, %lpad.i ]
  call void @_ZNSaIcED1Ev(ptr noundef nonnull align 1 dereferenceable(1) %ref.tmp6) #32
  br label %ehcleanup109

lpad27.loopexit:                                  ; preds = %for.body97
  %lpad.loopexit = landingpad { ptr, i32 }
          cleanup
  br label %ehcleanup109

lpad27.loopexit.split-lp.loopexit:                ; preds = %for.body72
  %lpad.loopexit71 = landingpad { ptr, i32 }
          cleanup
  br label %ehcleanup109

lpad27.loopexit.split-lp.loopexit.split-lp:       ; preds = %if.end106
  %lpad.loopexit.split-lp72 = landingpad { ptr, i32 }
          cleanup
  br label %ehcleanup109

lpad37:                                           ; preds = %invoke.cont36
  %13 = landingpad { ptr, i32 }
          cleanup
  call void @_ZNSt7__cxx1112basic_stringIcSt11char_traitsIcESaIcEED1Ev(ptr noundef nonnull align 8 dereferenceable(32) %ref.tmp35) #32
  br label %ehcleanup109

invoke.cont41:                                    ; preds = %invoke.cont20
  %nStored.i.i46 = getelementptr inbounds %"class.pbrt::ParsedParameter", ptr %this, i64 0, i32 4, i32 3
  %14 = load i64, ptr %nStored.i.i46, align 8
  %cmp.i47 = icmp eq i64 %14, 0
  br i1 %cmp.i47, label %invoke.cont62, label %for.body51.preheader

for.body51.preheader:                             ; preds = %invoke.cont41
  %ptr.i48 = getelementptr inbounds %"class.pbrt::ParsedParameter", ptr %this, i64 0, i32 4, i32 1
  %15 = load ptr, ptr %ptr.i48, align 8
  %add.ptr.i51 = getelementptr inbounds i32, ptr %15, i64 %14
  br label %for.body51

for.body51:                                       ; preds = %for.body51.preheader, %invoke.cont55
  %__begin3.079 = phi ptr [ %incdec.ptr59, %invoke.cont55 ], [ %15, %for.body51.preheader ]
  %16 = load i32, ptr %__begin3.079, align 4
  store i32 %16, ptr %i, align 4
  call void @_ZNSt7__cxx1112basic_stringIcSt11char_traitsIcESaIcEEC1Ev(ptr noundef nonnull align 8 dereferenceable(32) %ref.tmp52) #32
  invoke void @_ZN4pbrt6detail21stringPrintfRecursiveIRiJEEEvPNSt7__cxx1112basic_stringIcSt11char_traitsIcESaIcEEEPKcOT_DpOT0_(ptr noundef nonnull %ref.tmp52, ptr noundef nonnull @.str.15, ptr noundef nonnull align 4 dereferenceable(4) %i)
          to label %invoke.cont53 unwind label %lpad.i52

lpad.i52:                                         ; preds = %for.body51
  %17 = landingpad { ptr, i32 }
          cleanup
  call void @_ZNSt7__cxx1112basic_stringIcSt11char_traitsIcESaIcEED1Ev(ptr noundef nonnull align 8 dereferenceable(32) %ref.tmp52) #32
  br label %ehcleanup109

invoke.cont53:                                    ; preds = %for.body51
  %call56 = invoke noundef nonnull align 8 dereferenceable(32) ptr @_ZNSt7__cxx1112basic_stringIcSt11char_traitsIcESaIcEEpLERKS4_(ptr noundef nonnull align 8 dereferenceable(32) %agg.result, ptr noundef nonnull align 8 dereferenceable(32) %ref.tmp52)
          to label %invoke.cont55 unwind label %lpad54

invoke.cont55:                                    ; preds = %invoke.cont53
  call void @_ZNSt7__cxx1112basic_stringIcSt11char_traitsIcESaIcEED1Ev(ptr noundef nonnull align 8 dereferenceable(32) %ref.tmp52) #32
  %incdec.ptr59 = getelementptr inbounds i32, ptr %__begin3.079, i64 1
  %cmp50.not = icmp eq ptr %incdec.ptr59, %add.ptr.i51
  br i1 %cmp50.not, label %if.end106, label %for.body51

lpad54:                                           ; preds = %invoke.cont53
  %18 = landingpad { ptr, i32 }
          cleanup
  call void @_ZNSt7__cxx1112basic_stringIcSt11char_traitsIcESaIcEED1Ev(ptr noundef nonnull align 8 dereferenceable(32) %ref.tmp52) #32
  br label %ehcleanup109

invoke.cont62:                                    ; preds = %invoke.cont41
  %nStored.i.i55 = getelementptr inbounds %"class.pbrt::ParsedParameter", ptr %this, i64 0, i32 5, i32 3
  %19 = load i64, ptr %nStored.i.i55, align 8
  %cmp.i56 = icmp eq i64 %19, 0
  br i1 %cmp.i56, label %invoke.cont87, label %for.body72.preheader

for.body72.preheader:                             ; preds = %invoke.cont62
  %ptr.i57 = getelementptr inbounds %"class.pbrt::ParsedParameter", ptr %this, i64 0, i32 5, i32 1
  %20 = load ptr, ptr %ptr.i57, align 8
  %add.ptr.i60 = getelementptr inbounds %"class.std::__cxx11::basic_string", ptr %20, i64 %19
  br label %for.body72

for.body72:                                       ; preds = %for.body72.preheader, %invoke.cont79
  %__begin4.081 = phi ptr [ %incdec.ptr84, %invoke.cont79 ], [ %20, %for.body72.preheader ]
  invoke void @_ZStplIcSt11char_traitsIcESaIcEENSt7__cxx1112basic_stringIT_T0_T1_EES5_RKS8_(ptr nonnull sret(%"class.std::__cxx11::basic_string") align 8 %ref.tmp74, i8 noundef signext 34, ptr noundef nonnull align 8 dereferenceable(32) %__begin4.081)
          to label %invoke.cont75 unwind label %lpad27.loopexit.split-lp.loopexit

invoke.cont75:                                    ; preds = %for.body72
  %call.i6162 = invoke noundef nonnull align 8 dereferenceable(32) ptr @_ZNSt7__cxx1112basic_stringIcSt11char_traitsIcESaIcEE6appendEPKc(ptr noundef nonnull align 8 dereferenceable(32) %ref.tmp74, ptr noundef nonnull @.str.16)
          to label %invoke.cont77 unwind label %lpad76

invoke.cont77:                                    ; preds = %invoke.cont75
  call void @_ZNSt7__cxx1112basic_stringIcSt11char_traitsIcESaIcEEC1EOS4_(ptr noundef nonnull align 8 dereferenceable(32) %ref.tmp73, ptr noundef nonnull align 8 dereferenceable(32) %call.i6162) #32
  %call80 = invoke noundef nonnull align 8 dereferenceable(32) ptr @_ZNSt7__cxx1112basic_stringIcSt11char_traitsIcESaIcEEpLERKS4_(ptr noundef nonnull align 8 dereferenceable(32) %agg.result, ptr noundef nonnull align 8 dereferenceable(32) %ref.tmp73)
          to label %invoke.cont79 unwind label %lpad78

invoke.cont79:                                    ; preds = %invoke.cont77
  call void @_ZNSt7__cxx1112basic_stringIcSt11char_traitsIcESaIcEED1Ev(ptr noundef nonnull align 8 dereferenceable(32) %ref.tmp73) #32
  call void @_ZNSt7__cxx1112basic_stringIcSt11char_traitsIcESaIcEED1Ev(ptr noundef nonnull align 8 dereferenceable(32) %ref.tmp74) #32
  %incdec.ptr84 = getelementptr inbounds %"class.std::__cxx11::basic_string", ptr %__begin4.081, i64 1
  %cmp71.not = icmp eq ptr %incdec.ptr84, %add.ptr.i60
  br i1 %cmp71.not, label %if.end106, label %for.body72

lpad76:                                           ; preds = %invoke.cont75
  %21 = landingpad { ptr, i32 }
          cleanup
  br label %ehcleanup82

lpad78:                                           ; preds = %invoke.cont77
  %22 = landingpad { ptr, i32 }
          cleanup
  call void @_ZNSt7__cxx1112basic_stringIcSt11char_traitsIcESaIcEED1Ev(ptr noundef nonnull align 8 dereferenceable(32) %ref.tmp73) #32
  br label %ehcleanup82

ehcleanup82:                                      ; preds = %lpad78, %lpad76
  %.pn19 = phi { ptr, i32 } [ %22, %lpad78 ], [ %21, %lpad76 ]
  call void @_ZNSt7__cxx1112basic_stringIcSt11char_traitsIcESaIcEED1Ev(ptr noundef nonnull align 8 dereferenceable(32) %ref.tmp74) #32
  br label %ehcleanup109

invoke.cont87:                                    ; preds = %invoke.cont62
  %nStored.i.i64 = getelementptr inbounds %"class.pbrt::ParsedParameter", ptr %this, i64 0, i32 6, i32 3
  %23 = load i64, ptr %nStored.i.i64, align 8
  %cmp.i65 = icmp eq i64 %23, 0
  br i1 %cmp.i65, label %if.end106, label %for.body97.preheader

for.body97.preheader:                             ; preds = %invoke.cont87
  %ptr.i66 = getelementptr inbounds %"class.pbrt::ParsedParameter", ptr %this, i64 0, i32 6, i32 1
  %24 = load ptr, ptr %ptr.i66, align 8
  %add.ptr.i69 = getelementptr inbounds i8, ptr %24, i64 %23
  br label %for.body97

for.body97:                                       ; preds = %for.body97.preheader, %for.inc101
  %__begin5.083 = phi ptr [ %incdec.ptr102, %for.inc101 ], [ %24, %for.body97.preheader ]
  %25 = load i8, ptr %__begin5.083, align 1
  %tobool.not = icmp eq i8 %25, 0
  %cond = select i1 %tobool.not, ptr @.str.18, ptr @.str.17
  %call100 = invoke noundef nonnull align 8 dereferenceable(32) ptr @_ZNSt7__cxx1112basic_stringIcSt11char_traitsIcESaIcEEpLEPKc(ptr noundef nonnull align 8 dereferenceable(32) %agg.result, ptr noundef nonnull %cond)
          to label %for.inc101 unwind label %lpad27.loopexit

for.inc101:                                       ; preds = %for.body97
  %incdec.ptr102 = getelementptr inbounds i8, ptr %__begin5.083, i64 1
  %cmp96.not = icmp eq ptr %incdec.ptr102, %add.ptr.i69
  br i1 %cmp96.not, label %if.end106, label %for.body97

if.end106:                                        ; preds = %invoke.cont38, %invoke.cont55, %invoke.cont79, %for.inc101, %invoke.cont87
  %call108 = invoke noundef nonnull align 8 dereferenceable(32) ptr @_ZNSt7__cxx1112basic_stringIcSt11char_traitsIcESaIcEEpLEPKc(ptr noundef nonnull align 8 dereferenceable(32) %agg.result, ptr noundef nonnull @.str.19)
          to label %nrvo.skipdtor unwind label %lpad27.loopexit.split-lp.loopexit.split-lp

nrvo.skipdtor:                                    ; preds = %if.end106
  ret void

ehcleanup109:                                     ; preds = %lpad27.loopexit, %lpad27.loopexit.split-lp.loopexit.split-lp, %lpad27.loopexit.split-lp.loopexit, %lpad.i44, %lpad.i52, %ehcleanup82, %lpad54, %lpad37, %ehcleanup26
  %.pn21 = phi { ptr, i32 } [ %.pn19, %ehcleanup82 ], [ %18, %lpad54 ], [ %13, %lpad37 ], [ %.pn.pn.pn.pn.pn.pn, %ehcleanup26 ], [ %5, %lpad.i44 ], [ %17, %lpad.i52 ], [ %lpad.loopexit, %lpad27.loopexit ], [ %lpad.loopexit71, %lpad27.loopexit.split-lp.loopexit ], [ %lpad.loopexit.split-lp72, %lpad27.loopexit.split-lp.loopexit.split-lp ]
  call void @_ZNSt7__cxx1112basic_stringIcSt11char_traitsIcESaIcEED1Ev(ptr noundef nonnull align 8 dereferenceable(32) %agg.result) #32
  resume { ptr, i32 } %.pn21
}

; Function Attrs: nounwind
declare void @_ZNSt7__cxx1112basic_stringIcSt11char_traitsIcESaIcEEC1Ev(ptr noundef nonnull align 8 dereferenceable(32)) unnamed_addr #1

; Function Attrs: mustprogress uwtable
define linkonce_odr dso_local void @_ZNSt7__cxx1112basic_stringIcSt11char_traitsIcESaIcEEC2IS3_EEPKcRKS3_(ptr noundef nonnull align 8 dereferenceable(32) %this, ptr noundef %__s, ptr noundef nonnull align 1 dereferenceable(1) %__a) unnamed_addr #3 comdat align 2 personality ptr @__gxx_personality_v0 {
entry:
  %call = tail call noundef ptr @_ZNSt7__cxx1112basic_stringIcSt11char_traitsIcESaIcEE13_M_local_dataEv(ptr noundef nonnull align 8 dereferenceable(32) %this)
  tail call void @_ZNSt7__cxx1112basic_stringIcSt11char_traitsIcESaIcEE12_Alloc_hiderC1EPcRKS3_(ptr noundef nonnull align 8 dereferenceable(8) %this, ptr noundef %call, ptr noundef nonnull align 1 dereferenceable(1) %__a)
  %cmp = icmp eq ptr %__s, null
  br i1 %cmp, label %if.then, label %if.end

if.then:                                          ; preds = %entry
  invoke void @_ZSt19__throw_logic_errorPKc(ptr noundef nonnull @.str.320) #31
          to label %invoke.cont unwind label %lpad

invoke.cont:                                      ; preds = %if.then
  unreachable

lpad:                                             ; preds = %if.end, %if.then
  %0 = landingpad { ptr, i32 }
          cleanup
  tail call void @_ZNSaIcED2Ev(ptr noundef nonnull align 1 dereferenceable(1) %this) #32
  resume { ptr, i32 } %0

if.end:                                           ; preds = %entry
  %call.i = tail call noundef i64 @strlen(ptr noundef nonnull dereferenceable(1) %__s) #32
  %add.ptr = getelementptr inbounds i8, ptr %__s, i64 %call.i
  invoke void @_ZNSt7__cxx1112basic_stringIcSt11char_traitsIcESaIcEE12_M_constructIPKcEEvT_S8_St20forward_iterator_tag(ptr noundef nonnull align 8 dereferenceable(32) %this, ptr noundef nonnull %__s, ptr noundef nonnull %add.ptr)
          to label %invoke.cont3 unwind label %lpad

invoke.cont3:                                     ; preds = %if.end
  ret void
}

declare noundef nonnull align 8 dereferenceable(32) ptr @_ZNSt7__cxx1112basic_stringIcSt11char_traitsIcESaIcEEpLERKS4_(ptr noundef nonnull align 8 dereferenceable(32), ptr noundef nonnull align 8 dereferenceable(32)) local_unnamed_addr #0

; Function Attrs: mustprogress uwtable
define linkonce_odr dso_local void @_ZStplIcSt11char_traitsIcESaIcEENSt7__cxx1112basic_stringIT_T0_T1_EES5_RKS8_(ptr noalias sret(%"class.std::__cxx11::basic_string") align 8 %agg.result, i8 noundef signext %__lhs, ptr noundef nonnull align 8 dereferenceable(32) %__rhs) local_unnamed_addr #3 comdat personality ptr @__gxx_personality_v0 {
invoke.cont:
  %ref.tmp = alloca %"class.std::allocator", align 1
  %ref.tmp1 = alloca %"class.std::allocator", align 1
  call void @_ZNKSt7__cxx1112basic_stringIcSt11char_traitsIcESaIcEE13get_allocatorEv(ptr nonnull sret(%"class.std::allocator") align 1 %ref.tmp1, ptr noundef nonnull align 8 dereferenceable(32) %__rhs) #32
  call void @_ZNSaIcEC1ERKS_(ptr noundef nonnull align 1 dereferenceable(1) %ref.tmp, ptr noundef nonnull align 1 dereferenceable(1) %ref.tmp1) #32
  call void @_ZNSt7__cxx1112basic_stringIcSt11char_traitsIcESaIcEEC1ERKS3_(ptr noundef nonnull align 8 dereferenceable(32) %agg.result, ptr noundef nonnull align 1 dereferenceable(1) %ref.tmp) #32
  call void @_ZNSaIcED1Ev(ptr noundef nonnull align 1 dereferenceable(1) %ref.tmp) #32
  call void @_ZNSaIcED1Ev(ptr noundef nonnull align 1 dereferenceable(1) %ref.tmp1) #32
  %call = call noundef i64 @_ZNKSt7__cxx1112basic_stringIcSt11char_traitsIcESaIcEE4sizeEv(ptr noundef nonnull align 8 dereferenceable(32) %__rhs) #32
  %add = add i64 %call, 1
  invoke void @_ZNSt7__cxx1112basic_stringIcSt11char_traitsIcESaIcEE7reserveEm(ptr noundef nonnull align 8 dereferenceable(32) %agg.result, i64 noundef %add)
          to label %invoke.cont3 unwind label %lpad2

invoke.cont3:                                     ; preds = %invoke.cont
  %call5 = invoke noundef nonnull align 8 dereferenceable(32) ptr @_ZNSt7__cxx1112basic_stringIcSt11char_traitsIcESaIcEE6appendEmc(ptr noundef nonnull align 8 dereferenceable(32) %agg.result, i64 noundef 1, i8 noundef signext %__lhs)
          to label %invoke.cont4 unwind label %lpad2

invoke.cont4:                                     ; preds = %invoke.cont3
  %call7 = invoke noundef nonnull align 8 dereferenceable(32) ptr @_ZNSt7__cxx1112basic_stringIcSt11char_traitsIcESaIcEE6appendERKS4_(ptr noundef nonnull align 8 dereferenceable(32) %agg.result, ptr noundef nonnull align 8 dereferenceable(32) %__rhs)
          to label %nrvo.skipdtor unwind label %lpad2

lpad2:                                            ; preds = %invoke.cont4, %invoke.cont3, %invoke.cont
  %0 = landingpad { ptr, i32 }
          cleanup
  call void @_ZNSt7__cxx1112basic_stringIcSt11char_traitsIcESaIcEED1Ev(ptr noundef nonnull align 8 dereferenceable(32) %agg.result) #32
  resume { ptr, i32 } %0

nrvo.skipdtor:                                    ; preds = %invoke.cont4
  ret void
}

declare noundef nonnull align 8 dereferenceable(32) ptr @_ZNSt7__cxx1112basic_stringIcSt11char_traitsIcESaIcEEpLEPKc(ptr noundef nonnull align 8 dereferenceable(32), ptr noundef) local_unnamed_addr #0

; Function Attrs: mustprogress nofree norecurse nosync nounwind willreturn memory(none) uwtable
define dso_local void @_ZN4pbrt12ParserTargetD2Ev(ptr nocapture nonnull readnone align 8 %this) unnamed_addr #5 align 2 {
entry:
  ret void
}

; Function Attrs: mustprogress noreturn nounwind memory(inaccessiblemem: write) uwtable
define dso_local void @_ZN4pbrt12ParserTargetD0Ev(ptr nocapture nonnull readnone align 8 %this) unnamed_addr #6 align 2 {
entry:
  tail call void @llvm.trap() #33
  unreachable
}

; Function Attrs: cold noreturn nounwind memory(inaccessiblemem: write)
declare void @llvm.trap() #7

; Function Attrs: mustprogress uwtable
define dso_local void @_ZNK4pbrt5Token8ToStringB5cxx11Ev(ptr noalias sret(%"class.std::__cxx11::basic_string") align 8 %agg.result, ptr noundef nonnull align 8 dereferenceable(40) %this) local_unnamed_addr #3 align 2 personality ptr @__gxx_personality_v0 {
entry:
  %ref.tmp.i = alloca %"class.std::allocator", align 1
  %ref.tmp = alloca %"class.std::__cxx11::basic_string", align 8
  %agg.tmp.sroa.0.0.copyload = load i64, ptr %this, align 8
  %agg.tmp.sroa.2.0.token.sroa_idx = getelementptr inbounds i8, ptr %this, i64 8
  %agg.tmp.sroa.2.0.copyload = load ptr, ptr %agg.tmp.sroa.2.0.token.sroa_idx, align 8
  call void @llvm.lifetime.start.p0(i64 1, ptr nonnull %ref.tmp.i)
  call void @_ZNSaIcEC1Ev(ptr noundef nonnull align 1 dereferenceable(1) %ref.tmp.i) #32, !noalias !13
  invoke void @_ZNSt7__cxx1112basic_stringIcSt11char_traitsIcESaIcEEC1EPKcmRKS3_(ptr noundef nonnull align 8 dereferenceable(32) %ref.tmp, ptr noundef %agg.tmp.sroa.2.0.copyload, i64 noundef %agg.tmp.sroa.0.0.copyload, ptr noundef nonnull align 1 dereferenceable(1) %ref.tmp.i)
          to label %_ZN4pbrtL8toStringB5cxx11ESt17basic_string_viewIcSt11char_traitsIcEE.exit unwind label %lpad.i

common.resume:                                    ; preds = %lpad.i1, %lpad.i
  %common.resume.op = phi { ptr, i32 } [ %0, %lpad.i ], [ %1, %lpad.i1 ]
  resume { ptr, i32 } %common.resume.op

lpad.i:                                           ; preds = %entry
  %0 = landingpad { ptr, i32 }
          cleanup
  call void @_ZNSaIcED1Ev(ptr noundef nonnull align 1 dereferenceable(1) %ref.tmp.i) #32
  br label %common.resume

_ZN4pbrtL8toStringB5cxx11ESt17basic_string_viewIcSt11char_traitsIcEE.exit: ; preds = %entry
  call void @_ZNSaIcED1Ev(ptr noundef nonnull align 1 dereferenceable(1) %ref.tmp.i) #32
  call void @llvm.lifetime.end.p0(i64 1, ptr nonnull %ref.tmp.i)
  %loc = getelementptr inbounds %"struct.pbrt::Token", ptr %this, i64 0, i32 1
  call void @_ZNSt7__cxx1112basic_stringIcSt11char_traitsIcESaIcEEC1Ev(ptr noundef nonnull align 8 dereferenceable(32) %agg.result) #32
  invoke void @_ZN4pbrt6detail21stringPrintfRecursiveINSt7__cxx1112basic_stringIcSt11char_traitsIcESaIcEEEJRKNS_7FileLocEEEEvPS7_PKcOT_DpOT0_(ptr noundef nonnull %agg.result, ptr noundef nonnull @.str.20, ptr noundef nonnull align 8 dereferenceable(32) %ref.tmp, ptr noundef nonnull align 8 dereferenceable(24) %loc)
          to label %invoke.cont unwind label %lpad.i1

lpad.i1:                                          ; preds = %_ZN4pbrtL8toStringB5cxx11ESt17basic_string_viewIcSt11char_traitsIcEE.exit
  %1 = landingpad { ptr, i32 }
          cleanup
  call void @_ZNSt7__cxx1112basic_stringIcSt11char_traitsIcESaIcEED1Ev(ptr noundef nonnull align 8 dereferenceable(32) %agg.result) #32
  call void @_ZNSt7__cxx1112basic_stringIcSt11char_traitsIcESaIcEED1Ev(ptr noundef nonnull align 8 dereferenceable(32) %ref.tmp) #32
  br label %common.resume

invoke.cont:                                      ; preds = %_ZN4pbrtL8toStringB5cxx11ESt17basic_string_viewIcSt11char_traitsIcEE.exit
  call void @_ZNSt7__cxx1112basic_stringIcSt11char_traitsIcESaIcEED1Ev(ptr noundef nonnull align 8 dereferenceable(32) %ref.tmp) #32
  ret void
}

; Function Attrs: mustprogress uwtable
define internal fastcc void @_ZN4pbrtL8toStringB5cxx11ESt17basic_string_viewIcSt11char_traitsIcEE(ptr noalias align 8 %agg.result, i64 %s.coerce0, ptr %s.coerce1) unnamed_addr #3 personality ptr @__gxx_personality_v0 {
entry:
  %ref.tmp = alloca %"class.std::allocator", align 1
  call void @_ZNSaIcEC1Ev(ptr noundef nonnull align 1 dereferenceable(1) %ref.tmp) #32
  invoke void @_ZNSt7__cxx1112basic_stringIcSt11char_traitsIcESaIcEEC1EPKcmRKS3_(ptr noundef nonnull align 8 dereferenceable(32) %agg.result, ptr noundef %s.coerce1, i64 noundef %s.coerce0, ptr noundef nonnull align 1 dereferenceable(1) %ref.tmp)
          to label %invoke.cont unwind label %lpad

invoke.cont:                                      ; preds = %entry
  call void @_ZNSaIcED1Ev(ptr noundef nonnull align 1 dereferenceable(1) %ref.tmp) #32
  ret void

lpad:                                             ; preds = %entry
  %0 = landingpad { ptr, i32 }
          cleanup
  call void @_ZNSaIcED1Ev(ptr noundef nonnull align 1 dereferenceable(1) %ref.tmp) #32
  resume { ptr, i32 } %0
}

; Function Attrs: mustprogress nocallback nofree nounwind willreturn memory(argmem: readwrite)
declare void @llvm.memcpy.p0.p0.i64(ptr noalias nocapture writeonly, ptr noalias nocapture readonly, i64, i1 immarg) #8

; Function Attrs: mustprogress uwtable
define dso_local void @_ZN4pbrt9Tokenizer14CreateFromFileERKNSt7__cxx1112basic_stringIcSt11char_traitsIcESaIcEEESt8functionIFvPKcPKNS_7FileLocEEE(ptr noalias sret(%"class.std::unique_ptr") align 8 %agg.result, ptr noundef nonnull align 8 dereferenceable(32) %filename, ptr noundef %errorCallback) local_unnamed_addr #3 align 2 personality ptr @__gxx_personality_v0 {
entry:
  %__args.addr.i36 = alloca ptr, align 8
  %__args.addr2.i37 = alloca ptr, align 8
  %__args.addr.i = alloca ptr, align 8
  %__args.addr2.i = alloca ptr, align 8
  %str = alloca %"class.std::__cxx11::basic_string", align 8
  %agg.tmp = alloca %"class.std::__cxx11::basic_string", align 8
  %agg.tmp4 = alloca %"class.std::__cxx11::basic_string", align 8
  %ref.tmp = alloca %"class.std::allocator", align 1
  %str12 = alloca %"class.std::__cxx11::basic_string", align 8
  %agg.tmp13 = alloca %"class.std::__cxx11::basic_string", align 8
  %ref.tmp25 = alloca %"class.std::__cxx11::basic_string", align 8
  %ref.tmp26 = alloca %"class.std::__cxx11::basic_string", align 8
  %stat = alloca %struct.stat, align 8
  %ref.tmp39 = alloca %"class.std::__cxx11::basic_string", align 8
  %ref.tmp40 = alloca %"class.std::__cxx11::basic_string", align 8
  %len = alloca i64, align 8
  %str53 = alloca %"class.std::__cxx11::basic_string", align 8
  %agg.tmp54 = alloca %"class.std::__cxx11::basic_string", align 8
  %ptr = alloca ptr, align 8
  %ref.tmp65 = alloca %"class.std::__cxx11::basic_string", align 8
  %ref.tmp66 = alloca %"class.std::__cxx11::basic_string", align 8
  %ref.tmp79 = alloca %"class.std::__cxx11::basic_string", align 8
  %ref.tmp80 = alloca %"class.std::__cxx11::basic_string", align 8
  %call.i = tail call noundef i32 @_ZNKSt7__cxx1112basic_stringIcSt11char_traitsIcESaIcEE7compareEPKc(ptr noundef nonnull align 8 dereferenceable(32) %filename, ptr noundef nonnull @.str.23) #32
  %cmp.i = icmp eq i32 %call.i, 0
  br i1 %cmp.i, label %if.then, label %if.end

if.then:                                          ; preds = %entry
  call void @_ZNSt7__cxx1112basic_stringIcSt11char_traitsIcESaIcEEC1Ev(ptr noundef nonnull align 8 dereferenceable(32) %str) #32
  br label %while.cond

while.cond:                                       ; preds = %while.body, %if.then
  %call1 = call i32 @getchar()
  %cmp.not = icmp eq i32 %call1, -1
  br i1 %cmp.not, label %while.end, label %while.body

while.body:                                       ; preds = %while.cond
  %conv = trunc i32 %call1 to i8
  invoke void @_ZNSt7__cxx1112basic_stringIcSt11char_traitsIcESaIcEE9push_backEc(ptr noundef nonnull align 8 dereferenceable(32) %str, i8 noundef signext %conv)
          to label %while.cond unwind label %lpad.loopexit, !llvm.loop !16

lpad.loopexit:                                    ; preds = %while.body
  %lpad.loopexit46 = landingpad { ptr, i32 }
          cleanup
  br label %eh.resume

lpad.loopexit.split-lp:                           ; preds = %while.end
  %lpad.loopexit.split-lp47 = landingpad { ptr, i32 }
          cleanup
  br label %eh.resume

while.end:                                        ; preds = %while.cond
  invoke void @_ZSt11make_uniqueIN4pbrt9TokenizerEJNSt7__cxx1112basic_stringIcSt11char_traitsIcESaIcEEERA8_KcSt8functionIFvPS8_PKNS0_7FileLocEEEEENSt8__detail9_MakeUniqIT_E15__single_objectEDpOT0_(ptr sret(%"class.std::unique_ptr") align 8 %agg.result, ptr noundef nonnull align 8 dereferenceable(32) %str, ptr noundef nonnull align 1 dereferenceable(8) @.str.24, ptr noundef nonnull align 8 dereferenceable(32) %errorCallback)
          to label %invoke.cont3 unwind label %lpad.loopexit.split-lp

invoke.cont3:                                     ; preds = %while.end
  call void @_ZNSt7__cxx1112basic_stringIcSt11char_traitsIcESaIcEED1Ev(ptr noundef nonnull align 8 dereferenceable(32) %str) #32
  br label %return

if.end:                                           ; preds = %entry
  call void @_ZNSt7__cxx1112basic_stringIcSt11char_traitsIcESaIcEEC1ERKS4_(ptr noundef nonnull align 8 dereferenceable(32) %agg.tmp, ptr noundef nonnull align 8 dereferenceable(32) %filename)
  call void @_ZNSaIcEC1Ev(ptr noundef nonnull align 1 dereferenceable(1) %ref.tmp) #32
  %call.i2728 = invoke noundef ptr @_ZNSt7__cxx1112basic_stringIcSt11char_traitsIcESaIcEE13_M_local_dataEv(ptr noundef nonnull align 8 dereferenceable(32) %agg.tmp4)
          to label %call.i27.noexc unwind label %lpad5

call.i27.noexc:                                   ; preds = %if.end
  invoke void @_ZNSt7__cxx1112basic_stringIcSt11char_traitsIcESaIcEE12_Alloc_hiderC1EPcRKS3_(ptr noundef nonnull align 8 dereferenceable(8) %agg.tmp4, ptr noundef %call.i2728, ptr noundef nonnull align 1 dereferenceable(1) %ref.tmp)
          to label %.noexc unwind label %lpad5

.noexc:                                           ; preds = %call.i27.noexc
  invoke void @_ZNSt7__cxx1112basic_stringIcSt11char_traitsIcESaIcEE12_M_constructIPKcEEvT_S8_St20forward_iterator_tag(ptr noundef nonnull align 8 dereferenceable(32) %agg.tmp4, ptr noundef nonnull @.str.25, ptr noundef nonnull getelementptr inbounds ([4 x i8], ptr @.str.25, i64 0, i64 3))
          to label %invoke.cont6 unwind label %lpad.i

lpad.i:                                           ; preds = %.noexc
  %0 = landingpad { ptr, i32 }
          cleanup
  call void @_ZNSaIcED2Ev(ptr noundef nonnull align 1 dereferenceable(1) %agg.tmp4) #32
  br label %ehcleanup

invoke.cont6:                                     ; preds = %.noexc
  %call9 = invoke noundef zeroext i1 @_ZN4pbrt12HasExtensionENSt7__cxx1112basic_stringIcSt11char_traitsIcESaIcEEES5_(ptr noundef nonnull %agg.tmp, ptr noundef nonnull %agg.tmp4)
          to label %invoke.cont8 unwind label %lpad7

invoke.cont8:                                     ; preds = %invoke.cont6
  call void @_ZNSt7__cxx1112basic_stringIcSt11char_traitsIcESaIcEED1Ev(ptr noundef nonnull align 8 dereferenceable(32) %agg.tmp4) #32
  call void @_ZNSaIcED1Ev(ptr noundef nonnull align 1 dereferenceable(1) %ref.tmp) #32
  call void @_ZNSt7__cxx1112basic_stringIcSt11char_traitsIcESaIcEED1Ev(ptr noundef nonnull align 8 dereferenceable(32) %agg.tmp) #32
  br i1 %call9, label %if.then11, label %if.end20

if.then11:                                        ; preds = %invoke.cont8
  call void @_ZNSt7__cxx1112basic_stringIcSt11char_traitsIcESaIcEEC1ERKS4_(ptr noundef nonnull align 8 dereferenceable(32) %agg.tmp13, ptr noundef nonnull align 8 dereferenceable(32) %filename)
  invoke void @_ZN4pbrt28ReadDecompressedFileContentsENSt7__cxx1112basic_stringIcSt11char_traitsIcESaIcEEE(ptr nonnull sret(%"class.std::__cxx11::basic_string") align 8 %str12, ptr noundef nonnull %agg.tmp13)
          to label %invoke.cont15 unwind label %lpad14

invoke.cont15:                                    ; preds = %if.then11
  call void @_ZNSt7__cxx1112basic_stringIcSt11char_traitsIcESaIcEED1Ev(ptr noundef nonnull align 8 dereferenceable(32) %agg.tmp13) #32
  invoke void @_ZSt11make_uniqueIN4pbrt9TokenizerEJNSt7__cxx1112basic_stringIcSt11char_traitsIcESaIcEEERKS7_St8functionIFvPKcPKNS0_7FileLocEEEEENSt8__detail9_MakeUniqIT_E15__single_objectEDpOT0_(ptr sret(%"class.std::unique_ptr") align 8 %agg.result, ptr noundef nonnull align 8 dereferenceable(32) %str12, ptr noundef nonnull align 8 dereferenceable(32) %filename, ptr noundef nonnull align 8 dereferenceable(32) %errorCallback)
          to label %invoke.cont18 unwind label %lpad17

invoke.cont18:                                    ; preds = %invoke.cont15
  call void @_ZNSt7__cxx1112basic_stringIcSt11char_traitsIcESaIcEED1Ev(ptr noundef nonnull align 8 dereferenceable(32) %str12) #32
  br label %return

lpad5:                                            ; preds = %call.i27.noexc, %if.end
  %1 = landingpad { ptr, i32 }
          cleanup
  br label %ehcleanup

lpad7:                                            ; preds = %invoke.cont6
  %2 = landingpad { ptr, i32 }
          cleanup
  call void @_ZNSt7__cxx1112basic_stringIcSt11char_traitsIcESaIcEED1Ev(ptr noundef nonnull align 8 dereferenceable(32) %agg.tmp4) #32
  br label %ehcleanup

ehcleanup:                                        ; preds = %lpad5, %lpad.i, %lpad7
  %.pn = phi { ptr, i32 } [ %2, %lpad7 ], [ %1, %lpad5 ], [ %0, %lpad.i ]
  call void @_ZNSaIcED1Ev(ptr noundef nonnull align 1 dereferenceable(1) %ref.tmp) #32
  br label %eh.resume

lpad14:                                           ; preds = %if.then11
  %3 = landingpad { ptr, i32 }
          cleanup
  br label %eh.resume

lpad17:                                           ; preds = %invoke.cont15
  %4 = landingpad { ptr, i32 }
          cleanup
  br label %eh.resume

if.end20:                                         ; preds = %invoke.cont8
  %call21 = call noundef ptr @_ZNKSt7__cxx1112basic_stringIcSt11char_traitsIcESaIcEE5c_strEv(ptr noundef nonnull align 8 dereferenceable(32) %filename) #32
  %call22 = call i32 (ptr, i32, ...) @open(ptr noundef %call21, i32 noundef 0)
  %cmp23 = icmp eq i32 %call22, -1
  br i1 %cmp23, label %if.then24, label %if.end35

if.then24:                                        ; preds = %if.end20
  %call27 = call noundef i32 @_ZN4pbrt9LastErrorEv()
  call void @_ZN4pbrt11ErrorStringB5cxx11Ei(ptr nonnull sret(%"class.std::__cxx11::basic_string") align 8 %ref.tmp26, i32 noundef %call27)
  call void @_ZNSt7__cxx1112basic_stringIcSt11char_traitsIcESaIcEEC1Ev(ptr noundef nonnull align 8 dereferenceable(32) %ref.tmp25) #32
  invoke void @_ZN4pbrt6detail21stringPrintfRecursiveIRKNSt7__cxx1112basic_stringIcSt11char_traitsIcESaIcEEEJS7_EEEvPS7_PKcOT_DpOT0_(ptr noundef nonnull %ref.tmp25, ptr noundef nonnull @.str.26, ptr noundef nonnull align 8 dereferenceable(32) %filename, ptr noundef nonnull align 8 dereferenceable(32) %ref.tmp26)
          to label %invoke.cont29 unwind label %lpad.i29

lpad.i29:                                         ; preds = %if.then24
  %5 = landingpad { ptr, i32 }
          cleanup
  br label %ehcleanup34

invoke.cont29:                                    ; preds = %if.then24
  %call30 = call noundef ptr @_ZNKSt7__cxx1112basic_stringIcSt11char_traitsIcESaIcEE5c_strEv(ptr noundef nonnull align 8 dereferenceable(32) %ref.tmp25) #32
  call void @llvm.lifetime.start.p0(i64 8, ptr nonnull %__args.addr.i)
  call void @llvm.lifetime.start.p0(i64 8, ptr nonnull %__args.addr2.i)
  store ptr %call30, ptr %__args.addr.i, align 8
  store ptr null, ptr %__args.addr2.i, align 8
  %_M_manager.i.i = getelementptr inbounds %"class.std::_Function_base", ptr %errorCallback, i64 0, i32 1
  %6 = load ptr, ptr %_M_manager.i.i, align 8
  %tobool.not.i.i = icmp eq ptr %6, null
  br i1 %tobool.not.i.i, label %if.then.i, label %if.end.i

if.then.i:                                        ; preds = %invoke.cont29
  invoke void @_ZSt25__throw_bad_function_callv() #31
          to label %.noexc31 unwind label %lpad31

.noexc31:                                         ; preds = %if.then.i
  unreachable

if.end.i:                                         ; preds = %invoke.cont29
  %_M_invoker.i = getelementptr inbounds %"class.std::function", ptr %errorCallback, i64 0, i32 1
  %7 = load ptr, ptr %_M_invoker.i, align 8
  invoke void %7(ptr noundef nonnull align 8 dereferenceable(16) %errorCallback, ptr noundef nonnull align 8 dereferenceable(8) %__args.addr.i, ptr noundef nonnull align 8 dereferenceable(8) %__args.addr2.i)
          to label %invoke.cont32 unwind label %lpad31

invoke.cont32:                                    ; preds = %if.end.i
  call void @llvm.lifetime.end.p0(i64 8, ptr nonnull %__args.addr.i)
  call void @llvm.lifetime.end.p0(i64 8, ptr nonnull %__args.addr2.i)
  call void @_ZNSt7__cxx1112basic_stringIcSt11char_traitsIcESaIcEED1Ev(ptr noundef nonnull align 8 dereferenceable(32) %ref.tmp25) #32
  call void @_ZNSt7__cxx1112basic_stringIcSt11char_traitsIcESaIcEED1Ev(ptr noundef nonnull align 8 dereferenceable(32) %ref.tmp26) #32
  store ptr null, ptr %agg.result, align 8
  br label %return

lpad31:                                           ; preds = %if.end.i, %if.then.i
  %8 = landingpad { ptr, i32 }
          cleanup
  br label %ehcleanup34

ehcleanup34:                                      ; preds = %lpad.i29, %lpad31
  %.pn23 = phi { ptr, i32 } [ %8, %lpad31 ], [ %5, %lpad.i29 ]
  call void @_ZNSt7__cxx1112basic_stringIcSt11char_traitsIcESaIcEED1Ev(ptr noundef nonnull align 8 dereferenceable(32) %ref.tmp25) #32
  br label %eh.resume

if.end35:                                         ; preds = %if.end20
  %call36 = call i32 @fstat(i32 noundef %call22, ptr noundef nonnull %stat) #32
  %cmp37.not = icmp eq i32 %call36, 0
  br i1 %cmp37.not, label %if.end49, label %if.then38

if.then38:                                        ; preds = %if.end35
  %call41 = call noundef i32 @_ZN4pbrt9LastErrorEv()
  call void @_ZN4pbrt11ErrorStringB5cxx11Ei(ptr nonnull sret(%"class.std::__cxx11::basic_string") align 8 %ref.tmp40, i32 noundef %call41)
  call void @_ZNSt7__cxx1112basic_stringIcSt11char_traitsIcESaIcEEC1Ev(ptr noundef nonnull align 8 dereferenceable(32) %ref.tmp39) #32
  invoke void @_ZN4pbrt6detail21stringPrintfRecursiveIRKNSt7__cxx1112basic_stringIcSt11char_traitsIcESaIcEEEJS7_EEEvPS7_PKcOT_DpOT0_(ptr noundef nonnull %ref.tmp39, ptr noundef nonnull @.str.26, ptr noundef nonnull align 8 dereferenceable(32) %filename, ptr noundef nonnull align 8 dereferenceable(32) %ref.tmp40)
          to label %invoke.cont43 unwind label %lpad.i33

lpad.i33:                                         ; preds = %if.then38
  %9 = landingpad { ptr, i32 }
          cleanup
  br label %ehcleanup48

invoke.cont43:                                    ; preds = %if.then38
  %call44 = call noundef ptr @_ZNKSt7__cxx1112basic_stringIcSt11char_traitsIcESaIcEE5c_strEv(ptr noundef nonnull align 8 dereferenceable(32) %ref.tmp39) #32
  call void @llvm.lifetime.start.p0(i64 8, ptr nonnull %__args.addr.i36)
  call void @llvm.lifetime.start.p0(i64 8, ptr nonnull %__args.addr2.i37)
  store ptr %call44, ptr %__args.addr.i36, align 8
  store ptr null, ptr %__args.addr2.i37, align 8
  %_M_manager.i.i38 = getelementptr inbounds %"class.std::_Function_base", ptr %errorCallback, i64 0, i32 1
  %10 = load ptr, ptr %_M_manager.i.i38, align 8
  %tobool.not.i.i39 = icmp eq ptr %10, null
  br i1 %tobool.not.i.i39, label %if.then.i42, label %if.end.i40

if.then.i42:                                      ; preds = %invoke.cont43
  invoke void @_ZSt25__throw_bad_function_callv() #31
          to label %.noexc43 unwind label %lpad45

.noexc43:                                         ; preds = %if.then.i42
  unreachable

if.end.i40:                                       ; preds = %invoke.cont43
  %_M_invoker.i41 = getelementptr inbounds %"class.std::function", ptr %errorCallback, i64 0, i32 1
  %11 = load ptr, ptr %_M_invoker.i41, align 8
  invoke void %11(ptr noundef nonnull align 8 dereferenceable(16) %errorCallback, ptr noundef nonnull align 8 dereferenceable(8) %__args.addr.i36, ptr noundef nonnull align 8 dereferenceable(8) %__args.addr2.i37)
          to label %invoke.cont46 unwind label %lpad45

invoke.cont46:                                    ; preds = %if.end.i40
  call void @llvm.lifetime.end.p0(i64 8, ptr nonnull %__args.addr.i36)
  call void @llvm.lifetime.end.p0(i64 8, ptr nonnull %__args.addr2.i37)
  call void @_ZNSt7__cxx1112basic_stringIcSt11char_traitsIcESaIcEED1Ev(ptr noundef nonnull align 8 dereferenceable(32) %ref.tmp39) #32
  call void @_ZNSt7__cxx1112basic_stringIcSt11char_traitsIcESaIcEED1Ev(ptr noundef nonnull align 8 dereferenceable(32) %ref.tmp40) #32
  store ptr null, ptr %agg.result, align 8
  br label %return

lpad45:                                           ; preds = %if.end.i40, %if.then.i42
  %12 = landingpad { ptr, i32 }
          cleanup
  br label %ehcleanup48

ehcleanup48:                                      ; preds = %lpad.i33, %lpad45
  %.pn21 = phi { ptr, i32 } [ %12, %lpad45 ], [ %9, %lpad.i33 ]
  call void @_ZNSt7__cxx1112basic_stringIcSt11char_traitsIcESaIcEED1Ev(ptr noundef nonnull align 8 dereferenceable(32) %ref.tmp39) #32
  br label %eh.resume

if.end49:                                         ; preds = %if.end35
  %st_size = getelementptr inbounds %struct.stat, ptr %stat, i64 0, i32 8
  %13 = load i64, ptr %st_size, align 8
  store i64 %13, ptr %len, align 8
  %cmp50 = icmp ult i64 %13, 16777216
  br i1 %cmp50, label %if.then51, label %if.end61

if.then51:                                        ; preds = %if.end49
  %call52 = call i32 @close(i32 noundef %call22)
  call void @_ZNSt7__cxx1112basic_stringIcSt11char_traitsIcESaIcEEC1ERKS4_(ptr noundef nonnull align 8 dereferenceable(32) %agg.tmp54, ptr noundef nonnull align 8 dereferenceable(32) %filename)
  invoke void @_ZN4pbrt16ReadFileContentsENSt7__cxx1112basic_stringIcSt11char_traitsIcESaIcEEE(ptr nonnull sret(%"class.std::__cxx11::basic_string") align 8 %str53, ptr noundef nonnull %agg.tmp54)
          to label %invoke.cont56 unwind label %lpad55

invoke.cont56:                                    ; preds = %if.then51
  call void @_ZNSt7__cxx1112basic_stringIcSt11char_traitsIcESaIcEED1Ev(ptr noundef nonnull align 8 dereferenceable(32) %agg.tmp54) #32
  invoke void @_ZSt11make_uniqueIN4pbrt9TokenizerEJNSt7__cxx1112basic_stringIcSt11char_traitsIcESaIcEEERKS7_St8functionIFvPKcPKNS0_7FileLocEEEEENSt8__detail9_MakeUniqIT_E15__single_objectEDpOT0_(ptr sret(%"class.std::unique_ptr") align 8 %agg.result, ptr noundef nonnull align 8 dereferenceable(32) %str53, ptr noundef nonnull align 8 dereferenceable(32) %filename, ptr noundef nonnull align 8 dereferenceable(32) %errorCallback)
          to label %invoke.cont59 unwind label %lpad58

invoke.cont59:                                    ; preds = %invoke.cont56
  call void @_ZNSt7__cxx1112basic_stringIcSt11char_traitsIcESaIcEED1Ev(ptr noundef nonnull align 8 dereferenceable(32) %str53) #32
  br label %return

lpad55:                                           ; preds = %if.then51
  %14 = landingpad { ptr, i32 }
          cleanup
  br label %eh.resume

lpad58:                                           ; preds = %invoke.cont56
  %15 = landingpad { ptr, i32 }
          cleanup
  br label %eh.resume

if.end61:                                         ; preds = %if.end49
  %call62 = call ptr @mmap(ptr noundef null, i64 noundef %13, i32 noundef 1, i32 noundef 16386, i32 noundef %call22, i64 noundef 0) #32
  store ptr %call62, ptr %ptr, align 8
  %cmp63 = icmp eq ptr %call62, inttoptr (i64 -1 to ptr)
  br i1 %cmp63, label %if.then64, label %if.end75

if.then64:                                        ; preds = %if.end61
  %call67 = call noundef i32 @_ZN4pbrt9LastErrorEv()
  call void @_ZN4pbrt11ErrorStringB5cxx11Ei(ptr nonnull sret(%"class.std::__cxx11::basic_string") align 8 %ref.tmp66, i32 noundef %call67)
  invoke void @_ZN4pbrt12StringPrintfIJRKNSt7__cxx1112basic_stringIcSt11char_traitsIcESaIcEEES6_EEES6_PKcDpOT_(ptr nonnull sret(%"class.std::__cxx11::basic_string") align 8 %ref.tmp65, ptr noundef nonnull @.str.26, ptr noundef nonnull align 8 dereferenceable(32) %filename, ptr noundef nonnull align 8 dereferenceable(32) %ref.tmp66)
          to label %invoke.cont69 unwind label %lpad68

invoke.cont69:                                    ; preds = %if.then64
  %call70 = call noundef ptr @_ZNKSt7__cxx1112basic_stringIcSt11char_traitsIcESaIcEE5c_strEv(ptr noundef nonnull align 8 dereferenceable(32) %ref.tmp65) #32
  invoke void @_ZNKSt8functionIFvPKcPKN4pbrt7FileLocEEEclES1_S5_(ptr noundef nonnull align 8 dereferenceable(32) %errorCallback, ptr noundef %call70, ptr noundef null)
          to label %invoke.cont72 unwind label %lpad71

invoke.cont72:                                    ; preds = %invoke.cont69
  call void @_ZNSt7__cxx1112basic_stringIcSt11char_traitsIcESaIcEED1Ev(ptr noundef nonnull align 8 dereferenceable(32) %ref.tmp65) #32
  call void @_ZNSt7__cxx1112basic_stringIcSt11char_traitsIcESaIcEED1Ev(ptr noundef nonnull align 8 dereferenceable(32) %ref.tmp66) #32
  br label %if.end75

lpad68:                                           ; preds = %if.then64
  %16 = landingpad { ptr, i32 }
          cleanup
  br label %eh.resume

lpad71:                                           ; preds = %invoke.cont69
  %17 = landingpad { ptr, i32 }
          cleanup
  call void @_ZNSt7__cxx1112basic_stringIcSt11char_traitsIcESaIcEED1Ev(ptr noundef nonnull align 8 dereferenceable(32) %ref.tmp65) #32
  br label %eh.resume

if.end75:                                         ; preds = %invoke.cont72, %if.end61
  %call76 = call i32 @close(i32 noundef %call22)
  %cmp77.not = icmp eq i32 %call76, 0
  br i1 %cmp77.not, label %if.end89, label %if.then78

if.then78:                                        ; preds = %if.end75
  %call81 = call noundef i32 @_ZN4pbrt9LastErrorEv()
  call void @_ZN4pbrt11ErrorStringB5cxx11Ei(ptr nonnull sret(%"class.std::__cxx11::basic_string") align 8 %ref.tmp80, i32 noundef %call81)
  invoke void @_ZN4pbrt12StringPrintfIJRKNSt7__cxx1112basic_stringIcSt11char_traitsIcESaIcEEES6_EEES6_PKcDpOT_(ptr nonnull sret(%"class.std::__cxx11::basic_string") align 8 %ref.tmp79, ptr noundef nonnull @.str.26, ptr noundef nonnull align 8 dereferenceable(32) %filename, ptr noundef nonnull align 8 dereferenceable(32) %ref.tmp80)
          to label %invoke.cont83 unwind label %lpad82

invoke.cont83:                                    ; preds = %if.then78
  %call84 = call noundef ptr @_ZNKSt7__cxx1112basic_stringIcSt11char_traitsIcESaIcEE5c_strEv(ptr noundef nonnull align 8 dereferenceable(32) %ref.tmp79) #32
  invoke void @_ZNKSt8functionIFvPKcPKN4pbrt7FileLocEEEclES1_S5_(ptr noundef nonnull align 8 dereferenceable(32) %errorCallback, ptr noundef %call84, ptr noundef null)
          to label %invoke.cont86 unwind label %lpad85

invoke.cont86:                                    ; preds = %invoke.cont83
  call void @_ZNSt7__cxx1112basic_stringIcSt11char_traitsIcESaIcEED1Ev(ptr noundef nonnull align 8 dereferenceable(32) %ref.tmp79) #32
  call void @_ZNSt7__cxx1112basic_stringIcSt11char_traitsIcESaIcEED1Ev(ptr noundef nonnull align 8 dereferenceable(32) %ref.tmp80) #32
  store ptr null, ptr %agg.result, align 8
  br label %return

lpad82:                                           ; preds = %if.then78
  %18 = landingpad { ptr, i32 }
          cleanup
  br label %eh.resume

lpad85:                                           ; preds = %invoke.cont83
  %19 = landingpad { ptr, i32 }
          cleanup
  call void @_ZNSt7__cxx1112basic_stringIcSt11char_traitsIcESaIcEED1Ev(ptr noundef nonnull align 8 dereferenceable(32) %ref.tmp79) #32
  br label %eh.resume

if.end89:                                         ; preds = %if.end75
  call void @_ZSt11make_uniqueIN4pbrt9TokenizerEJRPvRmRKNSt7__cxx1112basic_stringIcSt11char_traitsIcESaIcEEESt8functionIFvPKcPKNS0_7FileLocEEEEENSt8__detail9_MakeUniqIT_E15__single_objectEDpOT0_(ptr sret(%"class.std::unique_ptr") align 8 %agg.result, ptr noundef nonnull align 8 dereferenceable(8) %ptr, ptr noundef nonnull align 8 dereferenceable(8) %len, ptr noundef nonnull align 8 dereferenceable(32) %filename, ptr noundef nonnull align 8 dereferenceable(32) %errorCallback)
  br label %return

return:                                           ; preds = %if.end89, %invoke.cont86, %invoke.cont59, %invoke.cont46, %invoke.cont32, %invoke.cont18, %invoke.cont3
  ret void

eh.resume:                                        ; preds = %lpad82, %lpad85, %lpad68, %lpad71, %lpad.loopexit, %lpad.loopexit.split-lp, %lpad58, %lpad55, %ehcleanup48, %ehcleanup34, %lpad17, %lpad14, %ehcleanup
  %ref.tmp80.sink = phi ptr [ %str53, %lpad58 ], [ %agg.tmp54, %lpad55 ], [ %ref.tmp40, %ehcleanup48 ], [ %ref.tmp26, %ehcleanup34 ], [ %str12, %lpad17 ], [ %agg.tmp13, %lpad14 ], [ %agg.tmp, %ehcleanup ], [ %str, %lpad.loopexit.split-lp ], [ %str, %lpad.loopexit ], [ %ref.tmp66, %lpad71 ], [ %ref.tmp66, %lpad68 ], [ %ref.tmp80, %lpad85 ], [ %ref.tmp80, %lpad82 ]
  %.pn25 = phi { ptr, i32 } [ %15, %lpad58 ], [ %14, %lpad55 ], [ %.pn21, %ehcleanup48 ], [ %.pn23, %ehcleanup34 ], [ %4, %lpad17 ], [ %3, %lpad14 ], [ %.pn, %ehcleanup ], [ %lpad.loopexit.split-lp47, %lpad.loopexit.split-lp ], [ %lpad.loopexit46, %lpad.loopexit ], [ %17, %lpad71 ], [ %16, %lpad68 ], [ %19, %lpad85 ], [ %18, %lpad82 ]
  call void @_ZNSt7__cxx1112basic_stringIcSt11char_traitsIcESaIcEED1Ev(ptr noundef nonnull align 8 dereferenceable(32) %ref.tmp80.sink) #32
  resume { ptr, i32 } %.pn25
}

; Function Attrs: nofree nounwind
declare noundef i32 @getchar() local_unnamed_addr #9

declare void @_ZNSt7__cxx1112basic_stringIcSt11char_traitsIcESaIcEE9push_backEc(ptr noundef nonnull align 8 dereferenceable(32), i8 noundef signext) local_unnamed_addr #0

; Function Attrs: mustprogress uwtable
define linkonce_odr dso_local void @_ZSt11make_uniqueIN4pbrt9TokenizerEJNSt7__cxx1112basic_stringIcSt11char_traitsIcESaIcEEERA8_KcSt8functionIFvPS8_PKNS0_7FileLocEEEEENSt8__detail9_MakeUniqIT_E15__single_objectEDpOT0_(ptr noalias sret(%"class.std::unique_ptr") align 8 %agg.result, ptr noundef nonnull align 8 dereferenceable(32) %__args, ptr noundef nonnull align 1 dereferenceable(8) %__args1, ptr noundef nonnull align 8 dereferenceable(32) %__args3) local_unnamed_addr #3 comdat personality ptr @__gxx_personality_v0 {
entry:
  %agg.tmp = alloca %"class.std::__cxx11::basic_string", align 8
  %agg.tmp5 = alloca %"class.std::__cxx11::basic_string", align 8
  %ref.tmp = alloca %"class.std::allocator", align 1
  %agg.tmp6 = alloca %"class.std::function", align 8
  %call = tail call noalias noundef nonnull dereferenceable(152) ptr @_Znwm(i64 noundef 152) #34
  call void @_ZNSt7__cxx1112basic_stringIcSt11char_traitsIcESaIcEEC1EOS4_(ptr noundef nonnull align 8 dereferenceable(32) %agg.tmp, ptr noundef nonnull align 8 dereferenceable(32) %__args) #32
  call void @_ZNSaIcEC1Ev(ptr noundef nonnull align 1 dereferenceable(1) %ref.tmp) #32
  %call.i2 = invoke noundef ptr @_ZNSt7__cxx1112basic_stringIcSt11char_traitsIcESaIcEE13_M_local_dataEv(ptr noundef nonnull align 8 dereferenceable(32) %agg.tmp5)
          to label %call.i.noexc unwind label %lpad

call.i.noexc:                                     ; preds = %entry
  invoke void @_ZNSt7__cxx1112basic_stringIcSt11char_traitsIcESaIcEE12_Alloc_hiderC1EPcRKS3_(ptr noundef nonnull align 8 dereferenceable(8) %agg.tmp5, ptr noundef %call.i2, ptr noundef nonnull align 1 dereferenceable(1) %ref.tmp)
          to label %.noexc unwind label %lpad

.noexc:                                           ; preds = %call.i.noexc
  %call.i.i = call noundef i64 @strlen(ptr noundef nonnull dereferenceable(1) %__args1) #32
  %add.ptr.i = getelementptr inbounds i8, ptr %__args1, i64 %call.i.i
  invoke void @_ZNSt7__cxx1112basic_stringIcSt11char_traitsIcESaIcEE12_M_constructIPKcEEvT_S8_St20forward_iterator_tag(ptr noundef nonnull align 8 dereferenceable(32) %agg.tmp5, ptr noundef nonnull %__args1, ptr noundef nonnull %add.ptr.i)
          to label %invoke.cont unwind label %lpad.i

lpad.i:                                           ; preds = %.noexc
  %0 = landingpad { ptr, i32 }
          cleanup
  call void @_ZNSaIcED2Ev(ptr noundef nonnull align 1 dereferenceable(1) %agg.tmp5) #32
  br label %ehcleanup

invoke.cont:                                      ; preds = %.noexc
  %_M_invoker.i = getelementptr inbounds %"class.std::function", ptr %agg.tmp6, i64 0, i32 1
  %_M_invoker2.i = getelementptr inbounds %"class.std::function", ptr %__args3, i64 0, i32 1
  call void @llvm.memset.p0.i64(ptr noundef nonnull align 8 dereferenceable(24) %agg.tmp6, i8 0, i64 24, i1 false)
  %1 = load ptr, ptr %_M_invoker2.i, align 8
  store ptr %1, ptr %_M_invoker.i, align 8
  %_M_manager.i.i.i = getelementptr inbounds %"class.std::_Function_base", ptr %__args3, i64 0, i32 1
  %2 = load ptr, ptr %_M_manager.i.i.i, align 8
  %tobool.not.i.i.not.i = icmp eq ptr %2, null
  br i1 %tobool.not.i.i.not.i, label %_ZNSt8functionIFvPKcPKN4pbrt7FileLocEEEC2EOS7_.exit, label %if.then.i

if.then.i:                                        ; preds = %invoke.cont
  %_M_manager.i.i = getelementptr inbounds %"class.std::_Function_base", ptr %agg.tmp6, i64 0, i32 1
  call void @llvm.memcpy.p0.p0.i64(ptr noundef nonnull align 8 dereferenceable(16) %agg.tmp6, ptr noundef nonnull align 8 dereferenceable(16) %__args3, i64 16, i1 false)
  store ptr %2, ptr %_M_manager.i.i, align 8
  call void @llvm.memset.p0.i64(ptr noundef nonnull align 8 dereferenceable(16) %_M_manager.i.i.i, i8 0, i64 16, i1 false)
  br label %_ZNSt8functionIFvPKcPKN4pbrt7FileLocEEEC2EOS7_.exit

_ZNSt8functionIFvPKcPKN4pbrt7FileLocEEEC2EOS7_.exit: ; preds = %invoke.cont, %if.then.i
  invoke void @_ZN4pbrt9TokenizerC2ENSt7__cxx1112basic_stringIcSt11char_traitsIcESaIcEEES6_St8functionIFvPKcPKNS_7FileLocEEE(ptr noundef nonnull align 8 dereferenceable(152) %call, ptr noundef nonnull %agg.tmp, ptr noundef nonnull %agg.tmp5, ptr noundef nonnull %agg.tmp6)
          to label %invoke.cont8 unwind label %lpad7

invoke.cont8:                                     ; preds = %_ZNSt8functionIFvPKcPKN4pbrt7FileLocEEEC2EOS7_.exit
  store ptr %call, ptr %agg.result, align 8
  %_M_manager.i.i3 = getelementptr inbounds %"class.std::_Function_base", ptr %agg.tmp6, i64 0, i32 1
  %3 = load ptr, ptr %_M_manager.i.i3, align 8
  %tobool.not.i.i = icmp eq ptr %3, null
  br i1 %tobool.not.i.i, label %_ZNSt8functionIFvPKcPKN4pbrt7FileLocEEED2Ev.exit, label %if.then.i.i

if.then.i.i:                                      ; preds = %invoke.cont8
  %call.i.i4 = invoke noundef zeroext i1 %3(ptr noundef nonnull align 8 dereferenceable(16) %agg.tmp6, ptr noundef nonnull align 8 dereferenceable(16) %agg.tmp6, i32 noundef 3)
          to label %_ZNSt8functionIFvPKcPKN4pbrt7FileLocEEED2Ev.exit unwind label %terminate.lpad.i.i

terminate.lpad.i.i:                               ; preds = %if.then.i.i
  %4 = landingpad { ptr, i32 }
          catch ptr null
  %5 = extractvalue { ptr, i32 } %4, 0
  call void @__clang_call_terminate(ptr %5) #33
  unreachable

_ZNSt8functionIFvPKcPKN4pbrt7FileLocEEED2Ev.exit: ; preds = %invoke.cont8, %if.then.i.i
  call void @_ZNSt7__cxx1112basic_stringIcSt11char_traitsIcESaIcEED1Ev(ptr noundef nonnull align 8 dereferenceable(32) %agg.tmp5) #32
  call void @_ZNSaIcED1Ev(ptr noundef nonnull align 1 dereferenceable(1) %ref.tmp) #32
  call void @_ZNSt7__cxx1112basic_stringIcSt11char_traitsIcESaIcEED1Ev(ptr noundef nonnull align 8 dereferenceable(32) %agg.tmp) #32
  ret void

lpad:                                             ; preds = %call.i.noexc, %entry
  %6 = landingpad { ptr, i32 }
          cleanup
  br label %ehcleanup

lpad7:                                            ; preds = %_ZNSt8functionIFvPKcPKN4pbrt7FileLocEEEC2EOS7_.exit
  %7 = landingpad { ptr, i32 }
          cleanup
  %_M_manager.i.i5 = getelementptr inbounds %"class.std::_Function_base", ptr %agg.tmp6, i64 0, i32 1
  %8 = load ptr, ptr %_M_manager.i.i5, align 8
  %tobool.not.i.i6 = icmp eq ptr %8, null
  br i1 %tobool.not.i.i6, label %_ZNSt8functionIFvPKcPKN4pbrt7FileLocEEED2Ev.exit10, label %if.then.i.i7

if.then.i.i7:                                     ; preds = %lpad7
  %call.i.i8 = invoke noundef zeroext i1 %8(ptr noundef nonnull align 8 dereferenceable(16) %agg.tmp6, ptr noundef nonnull align 8 dereferenceable(16) %agg.tmp6, i32 noundef 3)
          to label %_ZNSt8functionIFvPKcPKN4pbrt7FileLocEEED2Ev.exit10 unwind label %terminate.lpad.i.i9

terminate.lpad.i.i9:                              ; preds = %if.then.i.i7
  %9 = landingpad { ptr, i32 }
          catch ptr null
  %10 = extractvalue { ptr, i32 } %9, 0
  call void @__clang_call_terminate(ptr %10) #33
  unreachable

_ZNSt8functionIFvPKcPKN4pbrt7FileLocEEED2Ev.exit10: ; preds = %lpad7, %if.then.i.i7
  call void @_ZNSt7__cxx1112basic_stringIcSt11char_traitsIcESaIcEED1Ev(ptr noundef nonnull align 8 dereferenceable(32) %agg.tmp5) #32
  br label %ehcleanup

ehcleanup:                                        ; preds = %lpad, %lpad.i, %_ZNSt8functionIFvPKcPKN4pbrt7FileLocEEED2Ev.exit10
  %.pn = phi { ptr, i32 } [ %7, %_ZNSt8functionIFvPKcPKN4pbrt7FileLocEEED2Ev.exit10 ], [ %6, %lpad ], [ %0, %lpad.i ]
  call void @_ZNSaIcED1Ev(ptr noundef nonnull align 1 dereferenceable(1) %ref.tmp) #32
  call void @_ZNSt7__cxx1112basic_stringIcSt11char_traitsIcESaIcEED1Ev(ptr noundef nonnull align 8 dereferenceable(32) %agg.tmp) #32
  call void @_ZdlPv(ptr noundef nonnull %call) #35
  resume { ptr, i32 } %.pn
}

declare noundef zeroext i1 @_ZN4pbrt12HasExtensionENSt7__cxx1112basic_stringIcSt11char_traitsIcESaIcEEES5_(ptr noundef, ptr noundef) local_unnamed_addr #0

declare void @_ZNSt7__cxx1112basic_stringIcSt11char_traitsIcESaIcEEC1ERKS4_(ptr noundef nonnull align 8 dereferenceable(32), ptr noundef nonnull align 8 dereferenceable(32)) unnamed_addr #0

declare void @_ZN4pbrt28ReadDecompressedFileContentsENSt7__cxx1112basic_stringIcSt11char_traitsIcESaIcEEE(ptr sret(%"class.std::__cxx11::basic_string") align 8, ptr noundef) local_unnamed_addr #0

; Function Attrs: mustprogress uwtable
define linkonce_odr dso_local void @_ZSt11make_uniqueIN4pbrt9TokenizerEJNSt7__cxx1112basic_stringIcSt11char_traitsIcESaIcEEERKS7_St8functionIFvPKcPKNS0_7FileLocEEEEENSt8__detail9_MakeUniqIT_E15__single_objectEDpOT0_(ptr noalias sret(%"class.std::unique_ptr") align 8 %agg.result, ptr noundef nonnull align 8 dereferenceable(32) %__args, ptr noundef nonnull align 8 dereferenceable(32) %__args1, ptr noundef nonnull align 8 dereferenceable(32) %__args3) local_unnamed_addr #3 comdat personality ptr @__gxx_personality_v0 {
entry:
  %agg.tmp = alloca %"class.std::__cxx11::basic_string", align 8
  %agg.tmp5 = alloca %"class.std::__cxx11::basic_string", align 8
  %agg.tmp6 = alloca %"class.std::function", align 8
  %call = tail call noalias noundef nonnull dereferenceable(152) ptr @_Znwm(i64 noundef 152) #34
  call void @_ZNSt7__cxx1112basic_stringIcSt11char_traitsIcESaIcEEC1EOS4_(ptr noundef nonnull align 8 dereferenceable(32) %agg.tmp, ptr noundef nonnull align 8 dereferenceable(32) %__args) #32
  invoke void @_ZNSt7__cxx1112basic_stringIcSt11char_traitsIcESaIcEEC1ERKS4_(ptr noundef nonnull align 8 dereferenceable(32) %agg.tmp5, ptr noundef nonnull align 8 dereferenceable(32) %__args1)
          to label %invoke.cont unwind label %lpad

invoke.cont:                                      ; preds = %entry
  %_M_invoker.i = getelementptr inbounds %"class.std::function", ptr %agg.tmp6, i64 0, i32 1
  %_M_invoker2.i = getelementptr inbounds %"class.std::function", ptr %__args3, i64 0, i32 1
  call void @llvm.memset.p0.i64(ptr noundef nonnull align 8 dereferenceable(24) %agg.tmp6, i8 0, i64 24, i1 false)
  %0 = load ptr, ptr %_M_invoker2.i, align 8
  store ptr %0, ptr %_M_invoker.i, align 8
  %_M_manager.i.i.i = getelementptr inbounds %"class.std::_Function_base", ptr %__args3, i64 0, i32 1
  %1 = load ptr, ptr %_M_manager.i.i.i, align 8
  %tobool.not.i.i.not.i = icmp eq ptr %1, null
  br i1 %tobool.not.i.i.not.i, label %_ZNSt8functionIFvPKcPKN4pbrt7FileLocEEEC2EOS7_.exit, label %if.then.i

if.then.i:                                        ; preds = %invoke.cont
  %_M_manager.i.i = getelementptr inbounds %"class.std::_Function_base", ptr %agg.tmp6, i64 0, i32 1
  call void @llvm.memcpy.p0.p0.i64(ptr noundef nonnull align 8 dereferenceable(16) %agg.tmp6, ptr noundef nonnull align 8 dereferenceable(16) %__args3, i64 16, i1 false)
  store ptr %1, ptr %_M_manager.i.i, align 8
  call void @llvm.memset.p0.i64(ptr noundef nonnull align 8 dereferenceable(16) %_M_manager.i.i.i, i8 0, i64 16, i1 false)
  br label %_ZNSt8functionIFvPKcPKN4pbrt7FileLocEEEC2EOS7_.exit

_ZNSt8functionIFvPKcPKN4pbrt7FileLocEEEC2EOS7_.exit: ; preds = %invoke.cont, %if.then.i
  invoke void @_ZN4pbrt9TokenizerC2ENSt7__cxx1112basic_stringIcSt11char_traitsIcESaIcEEES6_St8functionIFvPKcPKNS_7FileLocEEE(ptr noundef nonnull align 8 dereferenceable(152) %call, ptr noundef nonnull %agg.tmp, ptr noundef nonnull %agg.tmp5, ptr noundef nonnull %agg.tmp6)
          to label %invoke.cont8 unwind label %lpad7

invoke.cont8:                                     ; preds = %_ZNSt8functionIFvPKcPKN4pbrt7FileLocEEEC2EOS7_.exit
  store ptr %call, ptr %agg.result, align 8
  %_M_manager.i.i2 = getelementptr inbounds %"class.std::_Function_base", ptr %agg.tmp6, i64 0, i32 1
  %2 = load ptr, ptr %_M_manager.i.i2, align 8
  %tobool.not.i.i = icmp eq ptr %2, null
  br i1 %tobool.not.i.i, label %_ZNSt8functionIFvPKcPKN4pbrt7FileLocEEED2Ev.exit, label %if.then.i.i

if.then.i.i:                                      ; preds = %invoke.cont8
  %call.i.i = invoke noundef zeroext i1 %2(ptr noundef nonnull align 8 dereferenceable(16) %agg.tmp6, ptr noundef nonnull align 8 dereferenceable(16) %agg.tmp6, i32 noundef 3)
          to label %_ZNSt8functionIFvPKcPKN4pbrt7FileLocEEED2Ev.exit unwind label %terminate.lpad.i.i

terminate.lpad.i.i:                               ; preds = %if.then.i.i
  %3 = landingpad { ptr, i32 }
          catch ptr null
  %4 = extractvalue { ptr, i32 } %3, 0
  call void @__clang_call_terminate(ptr %4) #33
  unreachable

_ZNSt8functionIFvPKcPKN4pbrt7FileLocEEED2Ev.exit: ; preds = %invoke.cont8, %if.then.i.i
  call void @_ZNSt7__cxx1112basic_stringIcSt11char_traitsIcESaIcEED1Ev(ptr noundef nonnull align 8 dereferenceable(32) %agg.tmp5) #32
  call void @_ZNSt7__cxx1112basic_stringIcSt11char_traitsIcESaIcEED1Ev(ptr noundef nonnull align 8 dereferenceable(32) %agg.tmp) #32
  ret void

lpad:                                             ; preds = %entry
  %5 = landingpad { ptr, i32 }
          cleanup
  br label %ehcleanup

lpad7:                                            ; preds = %_ZNSt8functionIFvPKcPKN4pbrt7FileLocEEEC2EOS7_.exit
  %6 = landingpad { ptr, i32 }
          cleanup
  %_M_manager.i.i3 = getelementptr inbounds %"class.std::_Function_base", ptr %agg.tmp6, i64 0, i32 1
  %7 = load ptr, ptr %_M_manager.i.i3, align 8
  %tobool.not.i.i4 = icmp eq ptr %7, null
  br i1 %tobool.not.i.i4, label %_ZNSt8functionIFvPKcPKN4pbrt7FileLocEEED2Ev.exit8, label %if.then.i.i5

if.then.i.i5:                                     ; preds = %lpad7
  %call.i.i6 = invoke noundef zeroext i1 %7(ptr noundef nonnull align 8 dereferenceable(16) %agg.tmp6, ptr noundef nonnull align 8 dereferenceable(16) %agg.tmp6, i32 noundef 3)
          to label %_ZNSt8functionIFvPKcPKN4pbrt7FileLocEEED2Ev.exit8 unwind label %terminate.lpad.i.i7

terminate.lpad.i.i7:                              ; preds = %if.then.i.i5
  %8 = landingpad { ptr, i32 }
          catch ptr null
  %9 = extractvalue { ptr, i32 } %8, 0
  call void @__clang_call_terminate(ptr %9) #33
  unreachable

_ZNSt8functionIFvPKcPKN4pbrt7FileLocEEED2Ev.exit8: ; preds = %lpad7, %if.then.i.i5
  call void @_ZNSt7__cxx1112basic_stringIcSt11char_traitsIcESaIcEED1Ev(ptr noundef nonnull align 8 dereferenceable(32) %agg.tmp5) #32
  br label %ehcleanup

ehcleanup:                                        ; preds = %_ZNSt8functionIFvPKcPKN4pbrt7FileLocEEED2Ev.exit8, %lpad
  %.pn = phi { ptr, i32 } [ %6, %_ZNSt8functionIFvPKcPKN4pbrt7FileLocEEED2Ev.exit8 ], [ %5, %lpad ]
  call void @_ZNSt7__cxx1112basic_stringIcSt11char_traitsIcESaIcEED1Ev(ptr noundef nonnull align 8 dereferenceable(32) %agg.tmp) #32
  call void @_ZdlPv(ptr noundef nonnull %call) #35
  resume { ptr, i32 } %.pn
}

; Function Attrs: nofree
declare noundef i32 @open(ptr nocapture noundef readonly, i32 noundef, ...) local_unnamed_addr #10

; Function Attrs: nounwind
declare noundef ptr @_ZNKSt7__cxx1112basic_stringIcSt11char_traitsIcESaIcEE5c_strEv(ptr noundef nonnull align 8 dereferenceable(32)) local_unnamed_addr #1

; Function Attrs: mustprogress uwtable
define linkonce_odr dso_local void @_ZNKSt8functionIFvPKcPKN4pbrt7FileLocEEEclES1_S5_(ptr noundef nonnull align 8 dereferenceable(32) %this, ptr noundef %__args, ptr noundef %__args1) local_unnamed_addr #3 comdat align 2 {
entry:
  %__args.addr = alloca ptr, align 8
  %__args.addr2 = alloca ptr, align 8
  store ptr %__args, ptr %__args.addr, align 8
  store ptr %__args1, ptr %__args.addr2, align 8
  %_M_manager.i = getelementptr inbounds %"class.std::_Function_base", ptr %this, i64 0, i32 1
  %0 = load ptr, ptr %_M_manager.i, align 8
  %tobool.not.i = icmp eq ptr %0, null
  br i1 %tobool.not.i, label %if.then, label %if.end

if.then:                                          ; preds = %entry
  tail call void @_ZSt25__throw_bad_function_callv() #31
  unreachable

if.end:                                           ; preds = %entry
  %_M_invoker = getelementptr inbounds %"class.std::function", ptr %this, i64 0, i32 1
  %1 = load ptr, ptr %_M_invoker, align 8
  call void %1(ptr noundef nonnull align 8 dereferenceable(16) %this, ptr noundef nonnull align 8 dereferenceable(8) %__args.addr, ptr noundef nonnull align 8 dereferenceable(8) %__args.addr2)
  ret void
}

; Function Attrs: mustprogress uwtable
define linkonce_odr dso_local void @_ZN4pbrt12StringPrintfIJRKNSt7__cxx1112basic_stringIcSt11char_traitsIcESaIcEEES6_EEES6_PKcDpOT_(ptr noalias sret(%"class.std::__cxx11::basic_string") align 8 %agg.result, ptr noundef %fmt, ptr noundef nonnull align 8 dereferenceable(32) %args, ptr noundef nonnull align 8 dereferenceable(32) %args1) local_unnamed_addr #3 comdat personality ptr @__gxx_personality_v0 {
entry:
  tail call void @_ZNSt7__cxx1112basic_stringIcSt11char_traitsIcESaIcEEC1Ev(ptr noundef nonnull align 8 dereferenceable(32) %agg.result) #32
  invoke void @_ZN4pbrt6detail21stringPrintfRecursiveIRKNSt7__cxx1112basic_stringIcSt11char_traitsIcESaIcEEEJS7_EEEvPS7_PKcOT_DpOT0_(ptr noundef nonnull %agg.result, ptr noundef %fmt, ptr noundef nonnull align 8 dereferenceable(32) %args, ptr noundef nonnull align 8 dereferenceable(32) %args1)
          to label %nrvo.skipdtor unwind label %lpad

lpad:                                             ; preds = %entry
  %0 = landingpad { ptr, i32 }
          cleanup
  tail call void @_ZNSt7__cxx1112basic_stringIcSt11char_traitsIcESaIcEED1Ev(ptr noundef nonnull align 8 dereferenceable(32) %agg.result) #32
  resume { ptr, i32 } %0

nrvo.skipdtor:                                    ; preds = %entry
  ret void
}

declare void @_ZN4pbrt11ErrorStringB5cxx11Ei(ptr sret(%"class.std::__cxx11::basic_string") align 8, i32 noundef) local_unnamed_addr #0

declare noundef i32 @_ZN4pbrt9LastErrorEv() local_unnamed_addr #0

; Function Attrs: nofree nounwind
declare noundef i32 @fstat(i32 noundef, ptr nocapture noundef) local_unnamed_addr #9

declare i32 @close(i32 noundef) local_unnamed_addr #0

declare void @_ZN4pbrt16ReadFileContentsENSt7__cxx1112basic_stringIcSt11char_traitsIcESaIcEEE(ptr sret(%"class.std::__cxx11::basic_string") align 8, ptr noundef) local_unnamed_addr #0

; Function Attrs: nounwind
declare ptr @mmap(ptr noundef, i64 noundef, i32 noundef, i32 noundef, i32 noundef, i64 noundef) local_unnamed_addr #1

; Function Attrs: mustprogress uwtable
define linkonce_odr dso_local void @_ZSt11make_uniqueIN4pbrt9TokenizerEJRPvRmRKNSt7__cxx1112basic_stringIcSt11char_traitsIcESaIcEEESt8functionIFvPKcPKNS0_7FileLocEEEEENSt8__detail9_MakeUniqIT_E15__single_objectEDpOT0_(ptr noalias sret(%"class.std::unique_ptr") align 8 %agg.result, ptr noundef nonnull align 8 dereferenceable(8) %__args, ptr noundef nonnull align 8 dereferenceable(8) %__args1, ptr noundef nonnull align 8 dereferenceable(32) %__args3, ptr noundef nonnull align 8 dereferenceable(32) %__args5) local_unnamed_addr #3 comdat personality ptr @__gxx_personality_v0 {
entry:
  %agg.tmp = alloca %"class.std::__cxx11::basic_string", align 8
  %agg.tmp7 = alloca %"class.std::function", align 8
  %call = tail call noalias noundef nonnull dereferenceable(152) ptr @_Znwm(i64 noundef 152) #34
  %0 = load ptr, ptr %__args, align 8
  %1 = load i64, ptr %__args1, align 8
  invoke void @_ZNSt7__cxx1112basic_stringIcSt11char_traitsIcESaIcEEC1ERKS4_(ptr noundef nonnull align 8 dereferenceable(32) %agg.tmp, ptr noundef nonnull align 8 dereferenceable(32) %__args3)
          to label %invoke.cont unwind label %lpad

invoke.cont:                                      ; preds = %entry
  %_M_invoker.i = getelementptr inbounds %"class.std::function", ptr %agg.tmp7, i64 0, i32 1
  %_M_invoker2.i = getelementptr inbounds %"class.std::function", ptr %__args5, i64 0, i32 1
  call void @llvm.memset.p0.i64(ptr noundef nonnull align 8 dereferenceable(24) %agg.tmp7, i8 0, i64 24, i1 false)
  %2 = load ptr, ptr %_M_invoker2.i, align 8
  store ptr %2, ptr %_M_invoker.i, align 8
  %_M_manager.i.i.i = getelementptr inbounds %"class.std::_Function_base", ptr %__args5, i64 0, i32 1
  %3 = load ptr, ptr %_M_manager.i.i.i, align 8
  %tobool.not.i.i.not.i = icmp eq ptr %3, null
  br i1 %tobool.not.i.i.not.i, label %_ZNSt8functionIFvPKcPKN4pbrt7FileLocEEEC2EOS7_.exit, label %if.then.i

if.then.i:                                        ; preds = %invoke.cont
  %_M_manager.i.i = getelementptr inbounds %"class.std::_Function_base", ptr %agg.tmp7, i64 0, i32 1
  call void @llvm.memcpy.p0.p0.i64(ptr noundef nonnull align 8 dereferenceable(16) %agg.tmp7, ptr noundef nonnull align 8 dereferenceable(16) %__args5, i64 16, i1 false)
  store ptr %3, ptr %_M_manager.i.i, align 8
  call void @llvm.memset.p0.i64(ptr noundef nonnull align 8 dereferenceable(16) %_M_manager.i.i.i, i8 0, i64 16, i1 false)
  br label %_ZNSt8functionIFvPKcPKN4pbrt7FileLocEEEC2EOS7_.exit

_ZNSt8functionIFvPKcPKN4pbrt7FileLocEEEC2EOS7_.exit: ; preds = %invoke.cont, %if.then.i
  invoke void @_ZN4pbrt9TokenizerC2EPvmNSt7__cxx1112basic_stringIcSt11char_traitsIcESaIcEEESt8functionIFvPKcPKNS_7FileLocEEE(ptr noundef nonnull align 8 dereferenceable(152) %call, ptr noundef %0, i64 noundef %1, ptr noundef nonnull %agg.tmp, ptr noundef nonnull %agg.tmp7)
          to label %invoke.cont9 unwind label %lpad8

invoke.cont9:                                     ; preds = %_ZNSt8functionIFvPKcPKN4pbrt7FileLocEEEC2EOS7_.exit
  store ptr %call, ptr %agg.result, align 8
  %_M_manager.i.i2 = getelementptr inbounds %"class.std::_Function_base", ptr %agg.tmp7, i64 0, i32 1
  %4 = load ptr, ptr %_M_manager.i.i2, align 8
  %tobool.not.i.i = icmp eq ptr %4, null
  br i1 %tobool.not.i.i, label %_ZNSt8functionIFvPKcPKN4pbrt7FileLocEEED2Ev.exit, label %if.then.i.i

if.then.i.i:                                      ; preds = %invoke.cont9
  %call.i.i = invoke noundef zeroext i1 %4(ptr noundef nonnull align 8 dereferenceable(16) %agg.tmp7, ptr noundef nonnull align 8 dereferenceable(16) %agg.tmp7, i32 noundef 3)
          to label %_ZNSt8functionIFvPKcPKN4pbrt7FileLocEEED2Ev.exit unwind label %terminate.lpad.i.i

terminate.lpad.i.i:                               ; preds = %if.then.i.i
  %5 = landingpad { ptr, i32 }
          catch ptr null
  %6 = extractvalue { ptr, i32 } %5, 0
  call void @__clang_call_terminate(ptr %6) #33
  unreachable

_ZNSt8functionIFvPKcPKN4pbrt7FileLocEEED2Ev.exit: ; preds = %invoke.cont9, %if.then.i.i
  call void @_ZNSt7__cxx1112basic_stringIcSt11char_traitsIcESaIcEED1Ev(ptr noundef nonnull align 8 dereferenceable(32) %agg.tmp) #32
  ret void

lpad:                                             ; preds = %entry
  %7 = landingpad { ptr, i32 }
          cleanup
  br label %cleanup.action

lpad8:                                            ; preds = %_ZNSt8functionIFvPKcPKN4pbrt7FileLocEEEC2EOS7_.exit
  %8 = landingpad { ptr, i32 }
          cleanup
  %_M_manager.i.i3 = getelementptr inbounds %"class.std::_Function_base", ptr %agg.tmp7, i64 0, i32 1
  %9 = load ptr, ptr %_M_manager.i.i3, align 8
  %tobool.not.i.i4 = icmp eq ptr %9, null
  br i1 %tobool.not.i.i4, label %_ZNSt8functionIFvPKcPKN4pbrt7FileLocEEED2Ev.exit8, label %if.then.i.i5

if.then.i.i5:                                     ; preds = %lpad8
  %call.i.i6 = invoke noundef zeroext i1 %9(ptr noundef nonnull align 8 dereferenceable(16) %agg.tmp7, ptr noundef nonnull align 8 dereferenceable(16) %agg.tmp7, i32 noundef 3)
          to label %_ZNSt8functionIFvPKcPKN4pbrt7FileLocEEED2Ev.exit8 unwind label %terminate.lpad.i.i7

terminate.lpad.i.i7:                              ; preds = %if.then.i.i5
  %10 = landingpad { ptr, i32 }
          catch ptr null
  %11 = extractvalue { ptr, i32 } %10, 0
  call void @__clang_call_terminate(ptr %11) #33
  unreachable

_ZNSt8functionIFvPKcPKN4pbrt7FileLocEEED2Ev.exit8: ; preds = %lpad8, %if.then.i.i5
  call void @_ZNSt7__cxx1112basic_stringIcSt11char_traitsIcESaIcEED1Ev(ptr noundef nonnull align 8 dereferenceable(32) %agg.tmp) #32
  br label %cleanup.action

cleanup.action:                                   ; preds = %lpad, %_ZNSt8functionIFvPKcPKN4pbrt7FileLocEEED2Ev.exit8
  %.pn = phi { ptr, i32 } [ %8, %_ZNSt8functionIFvPKcPKN4pbrt7FileLocEEED2Ev.exit8 ], [ %7, %lpad ]
  call void @_ZdlPv(ptr noundef nonnull %call) #35
  resume { ptr, i32 } %.pn
}

; Function Attrs: mustprogress uwtable
define dso_local void @_ZN4pbrt9Tokenizer16CreateFromStringENSt7__cxx1112basic_stringIcSt11char_traitsIcESaIcEEESt8functionIFvPKcPKNS_7FileLocEEE(ptr noalias sret(%"class.std::unique_ptr") align 8 %agg.result, ptr noundef nonnull %str, ptr noundef nonnull %errorCallback) local_unnamed_addr #3 align 2 {
entry:
  tail call void @_ZSt11make_uniqueIN4pbrt9TokenizerEJNSt7__cxx1112basic_stringIcSt11char_traitsIcESaIcEEERA8_KcSt8functionIFvPS8_PKNS0_7FileLocEEEEENSt8__detail9_MakeUniqIT_E15__single_objectEDpOT0_(ptr sret(%"class.std::unique_ptr") align 8 %agg.result, ptr noundef nonnull align 8 dereferenceable(32) %str, ptr noundef nonnull align 1 dereferenceable(8) @.str.24, ptr noundef nonnull align 8 dereferenceable(32) %errorCallback)
  ret void
}

; Function Attrs: mustprogress uwtable
define dso_local void @_ZN4pbrt9TokenizerC2ENSt7__cxx1112basic_stringIcSt11char_traitsIcESaIcEEES6_St8functionIFvPKcPKNS_7FileLocEEE(ptr noundef nonnull align 8 dereferenceable(152) %this, ptr noundef %str, ptr noundef %filename, ptr nocapture noundef %errorCallback) unnamed_addr #3 align 2 personality ptr @__gxx_personality_v0 {
entry:
  %__args.addr.i.i = alloca ptr, align 8
  %__args.addr2.i.i = alloca ptr, align 8
  tail call void @llvm.memset.p0.i64(ptr noundef nonnull align 8 dereferenceable(16) %this, i8 0, i64 16, i1 false)
  %line.i = getelementptr inbounds %"struct.pbrt::FileLoc", ptr %this, i64 0, i32 1
  store i32 1, ptr %line.i, align 8
  %column.i = getelementptr inbounds %"struct.pbrt::FileLoc", ptr %this, i64 0, i32 2
  %errorCallback2 = getelementptr inbounds %"class.pbrt::Tokenizer", ptr %this, i64 0, i32 1
  %_M_invoker.i = getelementptr inbounds %"class.pbrt::Tokenizer", ptr %this, i64 0, i32 1, i32 1
  %_M_invoker2.i = getelementptr inbounds %"class.std::function", ptr %errorCallback, i64 0, i32 1
  tail call void @llvm.memset.p0.i64(ptr noundef nonnull align 4 dereferenceable(28) %column.i, i8 0, i64 28, i1 false)
  %0 = load ptr, ptr %_M_invoker2.i, align 8
  store ptr %0, ptr %_M_invoker.i, align 8
  %_M_manager.i.i.i = getelementptr inbounds %"class.std::_Function_base", ptr %errorCallback, i64 0, i32 1
  %1 = load ptr, ptr %_M_manager.i.i.i, align 8
  %tobool.not.i.i.not.i = icmp eq ptr %1, null
  br i1 %tobool.not.i.i.not.i, label %_ZNSt8functionIFvPKcPKN4pbrt7FileLocEEEC2EOS7_.exit, label %if.then.i

if.then.i:                                        ; preds = %entry
  %_M_manager.i.i = getelementptr inbounds %"class.pbrt::Tokenizer", ptr %this, i64 0, i32 1, i32 0, i32 1
  tail call void @llvm.memcpy.p0.p0.i64(ptr noundef nonnull align 8 dereferenceable(16) %errorCallback2, ptr noundef nonnull align 8 dereferenceable(16) %errorCallback, i64 16, i1 false)
  %2 = load ptr, ptr %_M_manager.i.i.i, align 8
  store ptr %2, ptr %_M_manager.i.i, align 8
  tail call void @llvm.memset.p0.i64(ptr noundef nonnull align 8 dereferenceable(16) %_M_manager.i.i.i, i8 0, i64 16, i1 false)
  br label %_ZNSt8functionIFvPKcPKN4pbrt7FileLocEEEC2EOS7_.exit

_ZNSt8functionIFvPKcPKN4pbrt7FileLocEEEC2EOS7_.exit: ; preds = %entry, %if.then.i
  %unmapPtr = getelementptr inbounds %"class.pbrt::Tokenizer", ptr %this, i64 0, i32 2
  %contents = getelementptr inbounds %"class.pbrt::Tokenizer", ptr %this, i64 0, i32 4
  tail call void @llvm.memset.p0.i64(ptr noundef nonnull align 8 dereferenceable(16) %unmapPtr, i8 0, i64 16, i1 false)
  tail call void @_ZNSt7__cxx1112basic_stringIcSt11char_traitsIcESaIcEEC1EOS4_(ptr noundef nonnull align 8 dereferenceable(32) %contents, ptr noundef nonnull align 8 dereferenceable(32) %str) #32
  %sEscaped = getelementptr inbounds %"class.pbrt::Tokenizer", ptr %this, i64 0, i32 7
  tail call void @_ZNSt7__cxx1112basic_stringIcSt11char_traitsIcESaIcEEC1Ev(ptr noundef nonnull align 8 dereferenceable(32) %sEscaped) #32
  %call = invoke noalias noundef nonnull dereferenceable(32) ptr @_Znwm(i64 noundef 32) #34
          to label %invoke.cont unwind label %lpad

invoke.cont:                                      ; preds = %_ZNSt8functionIFvPKcPKN4pbrt7FileLocEEEC2EOS7_.exit
  invoke void @_ZNSt7__cxx1112basic_stringIcSt11char_traitsIcESaIcEEC1ERKS4_(ptr noundef nonnull align 8 dereferenceable(32) %call, ptr noundef nonnull align 8 dereferenceable(32) %filename)
          to label %invoke.cont4 unwind label %lpad3

invoke.cont4:                                     ; preds = %invoke.cont
  %call5 = tail call { i64, ptr } @_ZNKSt7__cxx1112basic_stringIcSt11char_traitsIcESaIcEEcvSt17basic_string_viewIcS2_EEv(ptr noundef nonnull align 8 dereferenceable(32) %call) #32
  %3 = extractvalue { i64, ptr } %call5, 0
  %4 = extractvalue { i64, ptr } %call5, 1
  store i64 %3, ptr %this, align 8
  %ref.tmp.sroa.2.0.this.sroa_idx = getelementptr inbounds i8, ptr %this, i64 8
  store ptr %4, ptr %ref.tmp.sroa.2.0.this.sroa_idx, align 8
  store i32 1, ptr %line.i, align 8
  store i32 0, ptr %column.i, align 4
  %call9 = tail call noundef ptr @_ZNSt7__cxx1112basic_stringIcSt11char_traitsIcESaIcEE4dataEv(ptr noundef nonnull align 8 dereferenceable(32) %contents) #32
  %pos = getelementptr inbounds %"class.pbrt::Tokenizer", ptr %this, i64 0, i32 5
  store ptr %call9, ptr %pos, align 8
  %call12 = tail call noundef i64 @_ZNKSt7__cxx1112basic_stringIcSt11char_traitsIcESaIcEE4sizeEv(ptr noundef nonnull align 8 dereferenceable(32) %contents) #32
  %add.ptr = getelementptr inbounds i8, ptr %call9, i64 %call12
  %end = getelementptr inbounds %"class.pbrt::Tokenizer", ptr %this, i64 0, i32 6
  store ptr %add.ptr, ptr %end, align 8
  %call14 = tail call noundef i64 @_ZNKSt7__cxx1112basic_stringIcSt11char_traitsIcESaIcEE4sizeEv(ptr noundef nonnull align 8 dereferenceable(32) %contents) #32
  %5 = tail call align 8 ptr @llvm.threadlocal.address.p0(ptr align 8 @_ZN4pbrtL15tokenizerMemoryE)
  %6 = load i64, ptr %5, align 8
  %add = add i64 %6, %call14
  store i64 %add, ptr %5, align 8
  %call16 = tail call noundef ptr @_ZNSt7__cxx1112basic_stringIcSt11char_traitsIcESaIcEE4dataEv(ptr noundef nonnull align 8 dereferenceable(32) %contents) #32
  %call18 = tail call noundef i64 @_ZNKSt7__cxx1112basic_stringIcSt11char_traitsIcESaIcEE4sizeEv(ptr noundef nonnull align 8 dereferenceable(32) %contents) #32
  %conv = trunc i64 %call18 to i32
  %cmp.i = icmp sgt i32 %conv, 1
  br i1 %cmp.i, label %land.lhs.true.i, label %invoke.cont19

land.lhs.true.i:                                  ; preds = %invoke.cont4
  %7 = load i8, ptr %call16, align 1
  switch i8 %7, label %invoke.cont19 [
    i8 -2, label %land.lhs.true3.i
    i8 -1, label %land.lhs.true10.i
  ]

land.lhs.true3.i:                                 ; preds = %land.lhs.true.i
  %arrayidx4.i = getelementptr inbounds i8, ptr %call16, i64 1
  %8 = load i8, ptr %arrayidx4.i, align 1
  %cmp6.i = icmp eq i8 %8, -1
  br i1 %cmp6.i, label %if.then.i4, label %invoke.cont19

land.lhs.true10.i:                                ; preds = %land.lhs.true.i
  %arrayidx11.i = getelementptr inbounds i8, ptr %call16, i64 1
  %9 = load i8, ptr %arrayidx11.i, align 1
  %cmp13.i = icmp eq i8 %9, -2
  br i1 %cmp13.i, label %if.then.i4, label %invoke.cont19

if.then.i4:                                       ; preds = %land.lhs.true10.i, %land.lhs.true3.i
  call void @llvm.lifetime.start.p0(i64 8, ptr nonnull %__args.addr.i.i)
  call void @llvm.lifetime.start.p0(i64 8, ptr nonnull %__args.addr2.i.i)
  store ptr @.str.28, ptr %__args.addr.i.i, align 8
  store ptr %this, ptr %__args.addr2.i.i, align 8
  %_M_manager.i.i.i5 = getelementptr inbounds %"class.pbrt::Tokenizer", ptr %this, i64 0, i32 1, i32 0, i32 1
  %10 = load ptr, ptr %_M_manager.i.i.i5, align 8
  %tobool.not.i.i.i = icmp eq ptr %10, null
  br i1 %tobool.not.i.i.i, label %if.then.i.i, label %_ZNKSt8functionIFvPKcPKN4pbrt7FileLocEEEclES1_S5_.exit.i

if.then.i.i:                                      ; preds = %if.then.i4
  invoke void @_ZSt25__throw_bad_function_callv() #31
          to label %.noexc unwind label %lpad

.noexc:                                           ; preds = %if.then.i.i
  unreachable

_ZNKSt8functionIFvPKcPKN4pbrt7FileLocEEEclES1_S5_.exit.i: ; preds = %if.then.i4
  %11 = load ptr, ptr %_M_invoker.i, align 8
  invoke void %11(ptr noundef nonnull align 8 dereferenceable(16) %errorCallback2, ptr noundef nonnull align 8 dereferenceable(8) %__args.addr.i.i, ptr noundef nonnull align 8 dereferenceable(8) %__args.addr2.i.i)
          to label %.noexc6 unwind label %lpad

.noexc6:                                          ; preds = %_ZNKSt8functionIFvPKcPKN4pbrt7FileLocEEEclES1_S5_.exit.i
  call void @llvm.lifetime.end.p0(i64 8, ptr nonnull %__args.addr.i.i)
  call void @llvm.lifetime.end.p0(i64 8, ptr nonnull %__args.addr2.i.i)
  br label %invoke.cont19

invoke.cont19:                                    ; preds = %.noexc6, %land.lhs.true10.i, %land.lhs.true3.i, %land.lhs.true.i, %invoke.cont4
  ret void

lpad:                                             ; preds = %_ZNKSt8functionIFvPKcPKN4pbrt7FileLocEEEclES1_S5_.exit.i, %if.then.i.i, %_ZNSt8functionIFvPKcPKN4pbrt7FileLocEEEC2EOS7_.exit
  %12 = landingpad { ptr, i32 }
          cleanup
  br label %ehcleanup

lpad3:                                            ; preds = %invoke.cont
  %13 = landingpad { ptr, i32 }
          cleanup
  tail call void @_ZdlPv(ptr noundef nonnull %call) #35
  br label %ehcleanup

ehcleanup:                                        ; preds = %lpad3, %lpad
  %.pn = phi { ptr, i32 } [ %12, %lpad ], [ %13, %lpad3 ]
  call void @_ZNSt7__cxx1112basic_stringIcSt11char_traitsIcESaIcEED1Ev(ptr noundef nonnull align 8 dereferenceable(32) %sEscaped) #32
  call void @_ZNSt7__cxx1112basic_stringIcSt11char_traitsIcESaIcEED1Ev(ptr noundef nonnull align 8 dereferenceable(32) %contents) #32
  %_M_manager.i.i7 = getelementptr inbounds %"class.pbrt::Tokenizer", ptr %this, i64 0, i32 1, i32 0, i32 1
  %14 = load ptr, ptr %_M_manager.i.i7, align 8
  %tobool.not.i.i = icmp eq ptr %14, null
  br i1 %tobool.not.i.i, label %_ZNSt8functionIFvPKcPKN4pbrt7FileLocEEED2Ev.exit, label %if.then.i.i8

if.then.i.i8:                                     ; preds = %ehcleanup
  %call.i.i = invoke noundef zeroext i1 %14(ptr noundef nonnull align 8 dereferenceable(16) %errorCallback2, ptr noundef nonnull align 8 dereferenceable(16) %errorCallback2, i32 noundef 3)
          to label %_ZNSt8functionIFvPKcPKN4pbrt7FileLocEEED2Ev.exit unwind label %terminate.lpad.i.i

terminate.lpad.i.i:                               ; preds = %if.then.i.i8
  %15 = landingpad { ptr, i32 }
          catch ptr null
  %16 = extractvalue { ptr, i32 } %15, 0
  call void @__clang_call_terminate(ptr %16) #33
  unreachable

_ZNSt8functionIFvPKcPKN4pbrt7FileLocEEED2Ev.exit: ; preds = %ehcleanup, %if.then.i.i8
  resume { ptr, i32 } %.pn
}

; Function Attrs: nounwind
declare void @_ZNSt7__cxx1112basic_stringIcSt11char_traitsIcESaIcEEC1EOS4_(ptr noundef nonnull align 8 dereferenceable(32), ptr noundef nonnull align 8 dereferenceable(32)) unnamed_addr #1

; Function Attrs: nobuiltin allocsize(0)
declare noundef nonnull ptr @_Znwm(i64 noundef) local_unnamed_addr #11

; Function Attrs: nobuiltin nounwind
declare void @_ZdlPv(ptr noundef) local_unnamed_addr #12

; Function Attrs: nounwind
declare { i64, ptr } @_ZNKSt7__cxx1112basic_stringIcSt11char_traitsIcESaIcEEcvSt17basic_string_viewIcS2_EEv(ptr noundef nonnull align 8 dereferenceable(32)) local_unnamed_addr #1

; Function Attrs: nounwind
declare noundef ptr @_ZNSt7__cxx1112basic_stringIcSt11char_traitsIcESaIcEE4dataEv(ptr noundef nonnull align 8 dereferenceable(32)) local_unnamed_addr #1

; Function Attrs: nounwind
declare noundef i64 @_ZNKSt7__cxx1112basic_stringIcSt11char_traitsIcESaIcEE4sizeEv(ptr noundef nonnull align 8 dereferenceable(32)) local_unnamed_addr #1

; Function Attrs: mustprogress nocallback nofree nosync nounwind speculatable willreturn memory(none)
declare nonnull ptr @llvm.threadlocal.address.p0(ptr nonnull) #13

; Function Attrs: mustprogress uwtable
define dso_local void @_ZNK4pbrt9Tokenizer8CheckUTFEPKvi(ptr noundef nonnull align 8 dereferenceable(152) %this, ptr nocapture noundef readonly %ptr, i32 noundef %len) local_unnamed_addr #3 align 2 {
entry:
  %__args.addr.i = alloca ptr, align 8
  %__args.addr2.i = alloca ptr, align 8
  %cmp = icmp sgt i32 %len, 1
  br i1 %cmp, label %land.lhs.true, label %if.end

land.lhs.true:                                    ; preds = %entry
  %0 = load i8, ptr %ptr, align 1
  switch i8 %0, label %if.end [
    i8 -2, label %land.lhs.true3
    i8 -1, label %land.lhs.true10
  ]

land.lhs.true3:                                   ; preds = %land.lhs.true
  %arrayidx4 = getelementptr inbounds i8, ptr %ptr, i64 1
  %1 = load i8, ptr %arrayidx4, align 1
  %cmp6 = icmp eq i8 %1, -1
  br i1 %cmp6, label %if.then, label %if.end

land.lhs.true10:                                  ; preds = %land.lhs.true
  %arrayidx11 = getelementptr inbounds i8, ptr %ptr, i64 1
  %2 = load i8, ptr %arrayidx11, align 1
  %cmp13 = icmp eq i8 %2, -2
  br i1 %cmp13, label %if.then, label %if.end

if.then:                                          ; preds = %land.lhs.true10, %land.lhs.true3
  call void @llvm.lifetime.start.p0(i64 8, ptr nonnull %__args.addr.i)
  call void @llvm.lifetime.start.p0(i64 8, ptr nonnull %__args.addr2.i)
  store ptr @.str.28, ptr %__args.addr.i, align 8
  store ptr %this, ptr %__args.addr2.i, align 8
  %_M_manager.i.i = getelementptr inbounds %"class.pbrt::Tokenizer", ptr %this, i64 0, i32 1, i32 0, i32 1
  %3 = load ptr, ptr %_M_manager.i.i, align 8
  %tobool.not.i.i = icmp eq ptr %3, null
  br i1 %tobool.not.i.i, label %if.then.i, label %_ZNKSt8functionIFvPKcPKN4pbrt7FileLocEEEclES1_S5_.exit

if.then.i:                                        ; preds = %if.then
  tail call void @_ZSt25__throw_bad_function_callv() #31
  unreachable

_ZNKSt8functionIFvPKcPKN4pbrt7FileLocEEEclES1_S5_.exit: ; preds = %if.then
  %errorCallback = getelementptr inbounds %"class.pbrt::Tokenizer", ptr %this, i64 0, i32 1
  %_M_invoker.i = getelementptr inbounds %"class.pbrt::Tokenizer", ptr %this, i64 0, i32 1, i32 1
  %4 = load ptr, ptr %_M_invoker.i, align 8
  call void %4(ptr noundef nonnull align 8 dereferenceable(16) %errorCallback, ptr noundef nonnull align 8 dereferenceable(8) %__args.addr.i, ptr noundef nonnull align 8 dereferenceable(8) %__args.addr2.i)
  call void @llvm.lifetime.end.p0(i64 8, ptr nonnull %__args.addr.i)
  call void @llvm.lifetime.end.p0(i64 8, ptr nonnull %__args.addr2.i)
  br label %if.end

if.end:                                           ; preds = %land.lhs.true, %land.lhs.true3, %_ZNKSt8functionIFvPKcPKN4pbrt7FileLocEEEclES1_S5_.exit, %land.lhs.true10, %entry
  ret void
}

; Function Attrs: mustprogress uwtable
define dso_local void @_ZN4pbrt9TokenizerC2EPvmNSt7__cxx1112basic_stringIcSt11char_traitsIcESaIcEEESt8functionIFvPKcPKNS_7FileLocEEE(ptr noundef nonnull align 8 dereferenceable(152) %this, ptr noundef %ptr, i64 noundef %len, ptr noundef %filename, ptr nocapture noundef %errorCallback) unnamed_addr #3 align 2 personality ptr @__gxx_personality_v0 {
entry:
  %__args.addr.i.i = alloca ptr, align 8
  %__args.addr2.i.i = alloca ptr, align 8
  tail call void @llvm.memset.p0.i64(ptr noundef nonnull align 8 dereferenceable(16) %this, i8 0, i64 16, i1 false)
  %line.i = getelementptr inbounds %"struct.pbrt::FileLoc", ptr %this, i64 0, i32 1
  store i32 1, ptr %line.i, align 8
  %column.i = getelementptr inbounds %"struct.pbrt::FileLoc", ptr %this, i64 0, i32 2
  %errorCallback2 = getelementptr inbounds %"class.pbrt::Tokenizer", ptr %this, i64 0, i32 1
  %_M_invoker.i = getelementptr inbounds %"class.pbrt::Tokenizer", ptr %this, i64 0, i32 1, i32 1
  %_M_invoker2.i = getelementptr inbounds %"class.std::function", ptr %errorCallback, i64 0, i32 1
  tail call void @llvm.memset.p0.i64(ptr noundef nonnull align 4 dereferenceable(28) %column.i, i8 0, i64 28, i1 false)
  %0 = load ptr, ptr %_M_invoker2.i, align 8
  store ptr %0, ptr %_M_invoker.i, align 8
  %_M_manager.i.i.i = getelementptr inbounds %"class.std::_Function_base", ptr %errorCallback, i64 0, i32 1
  %1 = load ptr, ptr %_M_manager.i.i.i, align 8
  %tobool.not.i.i.not.i = icmp eq ptr %1, null
  br i1 %tobool.not.i.i.not.i, label %_ZNSt8functionIFvPKcPKN4pbrt7FileLocEEEC2EOS7_.exit, label %if.then.i

if.then.i:                                        ; preds = %entry
  %_M_manager.i.i = getelementptr inbounds %"class.pbrt::Tokenizer", ptr %this, i64 0, i32 1, i32 0, i32 1
  tail call void @llvm.memcpy.p0.p0.i64(ptr noundef nonnull align 8 dereferenceable(16) %errorCallback2, ptr noundef nonnull align 8 dereferenceable(16) %errorCallback, i64 16, i1 false)
  %2 = load ptr, ptr %_M_manager.i.i.i, align 8
  store ptr %2, ptr %_M_manager.i.i, align 8
  tail call void @llvm.memset.p0.i64(ptr noundef nonnull align 8 dereferenceable(16) %_M_manager.i.i.i, i8 0, i64 16, i1 false)
  br label %_ZNSt8functionIFvPKcPKN4pbrt7FileLocEEEC2EOS7_.exit

_ZNSt8functionIFvPKcPKN4pbrt7FileLocEEEC2EOS7_.exit: ; preds = %entry, %if.then.i
  %unmapPtr = getelementptr inbounds %"class.pbrt::Tokenizer", ptr %this, i64 0, i32 2
  store ptr %ptr, ptr %unmapPtr, align 8
  %unmapLength = getelementptr inbounds %"class.pbrt::Tokenizer", ptr %this, i64 0, i32 3
  store i64 %len, ptr %unmapLength, align 8
  %contents = getelementptr inbounds %"class.pbrt::Tokenizer", ptr %this, i64 0, i32 4
  tail call void @_ZNSt7__cxx1112basic_stringIcSt11char_traitsIcESaIcEEC1Ev(ptr noundef nonnull align 8 dereferenceable(32) %contents) #32
  %sEscaped = getelementptr inbounds %"class.pbrt::Tokenizer", ptr %this, i64 0, i32 7
  tail call void @_ZNSt7__cxx1112basic_stringIcSt11char_traitsIcESaIcEEC1Ev(ptr noundef nonnull align 8 dereferenceable(32) %sEscaped) #32
  %call = invoke noalias noundef nonnull dereferenceable(32) ptr @_Znwm(i64 noundef 32) #34
          to label %invoke.cont unwind label %lpad

invoke.cont:                                      ; preds = %_ZNSt8functionIFvPKcPKN4pbrt7FileLocEEEC2EOS7_.exit
  invoke void @_ZNSt7__cxx1112basic_stringIcSt11char_traitsIcESaIcEEC1ERKS4_(ptr noundef nonnull align 8 dereferenceable(32) %call, ptr noundef nonnull align 8 dereferenceable(32) %filename)
          to label %invoke.cont4 unwind label %lpad3

invoke.cont4:                                     ; preds = %invoke.cont
  %call5 = tail call { i64, ptr } @_ZNKSt7__cxx1112basic_stringIcSt11char_traitsIcESaIcEEcvSt17basic_string_viewIcS2_EEv(ptr noundef nonnull align 8 dereferenceable(32) %call) #32
  %3 = extractvalue { i64, ptr } %call5, 0
  %4 = extractvalue { i64, ptr } %call5, 1
  store i64 %3, ptr %this, align 8
  %ref.tmp.sroa.2.0.this.sroa_idx = getelementptr inbounds i8, ptr %this, i64 8
  store ptr %4, ptr %ref.tmp.sroa.2.0.this.sroa_idx, align 8
  store i32 1, ptr %line.i, align 8
  store i32 0, ptr %column.i, align 4
  %pos = getelementptr inbounds %"class.pbrt::Tokenizer", ptr %this, i64 0, i32 5
  store ptr %ptr, ptr %pos, align 8
  %add.ptr = getelementptr inbounds i8, ptr %ptr, i64 %len
  %end = getelementptr inbounds %"class.pbrt::Tokenizer", ptr %this, i64 0, i32 6
  store ptr %add.ptr, ptr %end, align 8
  %conv = trunc i64 %len to i32
  %cmp.i = icmp sgt i32 %conv, 1
  br i1 %cmp.i, label %land.lhs.true.i, label %invoke.cont9

land.lhs.true.i:                                  ; preds = %invoke.cont4
  %5 = load i8, ptr %ptr, align 1
  switch i8 %5, label %invoke.cont9 [
    i8 -2, label %land.lhs.true3.i
    i8 -1, label %land.lhs.true10.i
  ]

land.lhs.true3.i:                                 ; preds = %land.lhs.true.i
  %arrayidx4.i = getelementptr inbounds i8, ptr %ptr, i64 1
  %6 = load i8, ptr %arrayidx4.i, align 1
  %cmp6.i = icmp eq i8 %6, -1
  br i1 %cmp6.i, label %if.then.i8, label %invoke.cont9

land.lhs.true10.i:                                ; preds = %land.lhs.true.i
  %arrayidx11.i = getelementptr inbounds i8, ptr %ptr, i64 1
  %7 = load i8, ptr %arrayidx11.i, align 1
  %cmp13.i = icmp eq i8 %7, -2
  br i1 %cmp13.i, label %if.then.i8, label %invoke.cont9

if.then.i8:                                       ; preds = %land.lhs.true10.i, %land.lhs.true3.i
  call void @llvm.lifetime.start.p0(i64 8, ptr nonnull %__args.addr.i.i)
  call void @llvm.lifetime.start.p0(i64 8, ptr nonnull %__args.addr2.i.i)
  store ptr @.str.28, ptr %__args.addr.i.i, align 8
  store ptr %this, ptr %__args.addr2.i.i, align 8
  %_M_manager.i.i.i9 = getelementptr inbounds %"class.pbrt::Tokenizer", ptr %this, i64 0, i32 1, i32 0, i32 1
  %8 = load ptr, ptr %_M_manager.i.i.i9, align 8
  %tobool.not.i.i.i = icmp eq ptr %8, null
  br i1 %tobool.not.i.i.i, label %if.then.i.i, label %_ZNKSt8functionIFvPKcPKN4pbrt7FileLocEEEclES1_S5_.exit.i

if.then.i.i:                                      ; preds = %if.then.i8
  invoke void @_ZSt25__throw_bad_function_callv() #31
          to label %.noexc unwind label %lpad

.noexc:                                           ; preds = %if.then.i.i
  unreachable

_ZNKSt8functionIFvPKcPKN4pbrt7FileLocEEEclES1_S5_.exit.i: ; preds = %if.then.i8
  %9 = load ptr, ptr %_M_invoker.i, align 8
  invoke void %9(ptr noundef nonnull align 8 dereferenceable(16) %errorCallback2, ptr noundef nonnull align 8 dereferenceable(8) %__args.addr.i.i, ptr noundef nonnull align 8 dereferenceable(8) %__args.addr2.i.i)
          to label %.noexc10 unwind label %lpad

.noexc10:                                         ; preds = %_ZNKSt8functionIFvPKcPKN4pbrt7FileLocEEEclES1_S5_.exit.i
  call void @llvm.lifetime.end.p0(i64 8, ptr nonnull %__args.addr.i.i)
  call void @llvm.lifetime.end.p0(i64 8, ptr nonnull %__args.addr2.i.i)
  br label %invoke.cont9

invoke.cont9:                                     ; preds = %.noexc10, %land.lhs.true10.i, %land.lhs.true3.i, %land.lhs.true.i, %invoke.cont4
  ret void

lpad:                                             ; preds = %_ZNKSt8functionIFvPKcPKN4pbrt7FileLocEEEclES1_S5_.exit.i, %if.then.i.i, %_ZNSt8functionIFvPKcPKN4pbrt7FileLocEEEC2EOS7_.exit
  %10 = landingpad { ptr, i32 }
          cleanup
  br label %ehcleanup

lpad3:                                            ; preds = %invoke.cont
  %11 = landingpad { ptr, i32 }
          cleanup
  tail call void @_ZdlPv(ptr noundef nonnull %call) #35
  br label %ehcleanup

ehcleanup:                                        ; preds = %lpad3, %lpad
  %.pn = phi { ptr, i32 } [ %10, %lpad ], [ %11, %lpad3 ]
  call void @_ZNSt7__cxx1112basic_stringIcSt11char_traitsIcESaIcEED1Ev(ptr noundef nonnull align 8 dereferenceable(32) %sEscaped) #32
  call void @_ZNSt7__cxx1112basic_stringIcSt11char_traitsIcESaIcEED1Ev(ptr noundef nonnull align 8 dereferenceable(32) %contents) #32
  %_M_manager.i.i11 = getelementptr inbounds %"class.pbrt::Tokenizer", ptr %this, i64 0, i32 1, i32 0, i32 1
  %12 = load ptr, ptr %_M_manager.i.i11, align 8
  %tobool.not.i.i = icmp eq ptr %12, null
  br i1 %tobool.not.i.i, label %_ZNSt8functionIFvPKcPKN4pbrt7FileLocEEED2Ev.exit, label %if.then.i.i12

if.then.i.i12:                                    ; preds = %ehcleanup
  %call.i.i = invoke noundef zeroext i1 %12(ptr noundef nonnull align 8 dereferenceable(16) %errorCallback2, ptr noundef nonnull align 8 dereferenceable(16) %errorCallback2, i32 noundef 3)
          to label %_ZNSt8functionIFvPKcPKN4pbrt7FileLocEEED2Ev.exit unwind label %terminate.lpad.i.i

terminate.lpad.i.i:                               ; preds = %if.then.i.i12
  %13 = landingpad { ptr, i32 }
          catch ptr null
  %14 = extractvalue { ptr, i32 } %13, 0
  call void @__clang_call_terminate(ptr %14) #33
  unreachable

_ZNSt8functionIFvPKcPKN4pbrt7FileLocEEED2Ev.exit: ; preds = %ehcleanup, %if.then.i.i12
  resume { ptr, i32 } %.pn
}

; Function Attrs: mustprogress nounwind uwtable
define dso_local void @_ZN4pbrt9TokenizerD2Ev(ptr noundef nonnull align 8 dereferenceable(152) %this) unnamed_addr #14 align 2 personality ptr @__gxx_personality_v0 {
entry:
  %__args.addr.i = alloca ptr, align 8
  %__args.addr2.i = alloca ptr, align 8
  %ref.tmp = alloca %"class.std::__cxx11::basic_string", align 8
  %ref.tmp6 = alloca %"class.std::__cxx11::basic_string", align 8
  %unmapPtr = getelementptr inbounds %"class.pbrt::Tokenizer", ptr %this, i64 0, i32 2
  %0 = load ptr, ptr %unmapPtr, align 8
  %tobool.not = icmp eq ptr %0, null
  br i1 %tobool.not, label %if.end12, label %land.lhs.true

land.lhs.true:                                    ; preds = %entry
  %unmapLength = getelementptr inbounds %"class.pbrt::Tokenizer", ptr %this, i64 0, i32 3
  %1 = load i64, ptr %unmapLength, align 8
  %cmp.not = icmp eq i64 %1, 0
  br i1 %cmp.not, label %if.end12, label %if.then

if.then:                                          ; preds = %land.lhs.true
  %call = tail call i32 @munmap(ptr noundef nonnull %0, i64 noundef %1) #32
  %cmp4.not = icmp eq i32 %call, 0
  br i1 %cmp4.not, label %if.end12, label %if.then5

if.then5:                                         ; preds = %if.then
  %errorCallback = getelementptr inbounds %"class.pbrt::Tokenizer", ptr %this, i64 0, i32 1
  %call7 = invoke noundef i32 @_ZN4pbrt9LastErrorEv()
          to label %invoke.cont unwind label %terminate.lpad

invoke.cont:                                      ; preds = %if.then5
  invoke void @_ZN4pbrt11ErrorStringB5cxx11Ei(ptr nonnull sret(%"class.std::__cxx11::basic_string") align 8 %ref.tmp6, i32 noundef %call7)
          to label %invoke.cont8 unwind label %terminate.lpad

invoke.cont8:                                     ; preds = %invoke.cont
  call void @_ZNSt7__cxx1112basic_stringIcSt11char_traitsIcESaIcEEC1Ev(ptr noundef nonnull align 8 dereferenceable(32) %ref.tmp) #32
  invoke void @_ZN4pbrt6detail21stringPrintfRecursiveINSt7__cxx1112basic_stringIcSt11char_traitsIcESaIcEEEJEEEvPS7_PKcOT_DpOT0_(ptr noundef nonnull %ref.tmp, ptr noundef nonnull @.str.27, ptr noundef nonnull align 8 dereferenceable(32) %ref.tmp6)
          to label %invoke.cont9 unwind label %lpad.i

lpad.i:                                           ; preds = %invoke.cont8
  %2 = landingpad { ptr, i32 }
          catch ptr null
  call void @_ZNSt7__cxx1112basic_stringIcSt11char_traitsIcESaIcEED1Ev(ptr noundef nonnull align 8 dereferenceable(32) %ref.tmp) #32
  br label %terminate.lpad.body

invoke.cont9:                                     ; preds = %invoke.cont8
  %call10 = call noundef ptr @_ZNKSt7__cxx1112basic_stringIcSt11char_traitsIcESaIcEE5c_strEv(ptr noundef nonnull align 8 dereferenceable(32) %ref.tmp) #32
  call void @llvm.lifetime.start.p0(i64 8, ptr nonnull %__args.addr.i)
  call void @llvm.lifetime.start.p0(i64 8, ptr nonnull %__args.addr2.i)
  store ptr %call10, ptr %__args.addr.i, align 8
  store ptr null, ptr %__args.addr2.i, align 8
  %_M_manager.i.i = getelementptr inbounds %"class.pbrt::Tokenizer", ptr %this, i64 0, i32 1, i32 0, i32 1
  %3 = load ptr, ptr %_M_manager.i.i, align 8
  %tobool.not.i.i = icmp eq ptr %3, null
  br i1 %tobool.not.i.i, label %if.then.i, label %if.end.i

if.then.i:                                        ; preds = %invoke.cont9
  invoke void @_ZSt25__throw_bad_function_callv() #31
          to label %.noexc unwind label %terminate.lpad

.noexc:                                           ; preds = %if.then.i
  unreachable

if.end.i:                                         ; preds = %invoke.cont9
  %_M_invoker.i = getelementptr inbounds %"class.pbrt::Tokenizer", ptr %this, i64 0, i32 1, i32 1
  %4 = load ptr, ptr %_M_invoker.i, align 8
  invoke void %4(ptr noundef nonnull align 8 dereferenceable(16) %errorCallback, ptr noundef nonnull align 8 dereferenceable(8) %__args.addr.i, ptr noundef nonnull align 8 dereferenceable(8) %__args.addr2.i)
          to label %invoke.cont11 unwind label %terminate.lpad

invoke.cont11:                                    ; preds = %if.end.i
  call void @llvm.lifetime.end.p0(i64 8, ptr nonnull %__args.addr.i)
  call void @llvm.lifetime.end.p0(i64 8, ptr nonnull %__args.addr2.i)
  call void @_ZNSt7__cxx1112basic_stringIcSt11char_traitsIcESaIcEED1Ev(ptr noundef nonnull align 8 dereferenceable(32) %ref.tmp) #32
  call void @_ZNSt7__cxx1112basic_stringIcSt11char_traitsIcESaIcEED1Ev(ptr noundef nonnull align 8 dereferenceable(32) %ref.tmp6) #32
  br label %if.end12

if.end12:                                         ; preds = %if.then, %invoke.cont11, %land.lhs.true, %entry
  %sEscaped = getelementptr inbounds %"class.pbrt::Tokenizer", ptr %this, i64 0, i32 7
  call void @_ZNSt7__cxx1112basic_stringIcSt11char_traitsIcESaIcEED1Ev(ptr noundef nonnull align 8 dereferenceable(32) %sEscaped) #32
  %contents = getelementptr inbounds %"class.pbrt::Tokenizer", ptr %this, i64 0, i32 4
  call void @_ZNSt7__cxx1112basic_stringIcSt11char_traitsIcESaIcEED1Ev(ptr noundef nonnull align 8 dereferenceable(32) %contents) #32
  %_M_manager.i.i3 = getelementptr inbounds %"class.pbrt::Tokenizer", ptr %this, i64 0, i32 1, i32 0, i32 1
  %5 = load ptr, ptr %_M_manager.i.i3, align 8
  %tobool.not.i.i4 = icmp eq ptr %5, null
  br i1 %tobool.not.i.i4, label %_ZNSt8functionIFvPKcPKN4pbrt7FileLocEEED2Ev.exit, label %if.then.i.i

if.then.i.i:                                      ; preds = %if.end12
  %errorCallback13 = getelementptr inbounds %"class.pbrt::Tokenizer", ptr %this, i64 0, i32 1
  %call.i.i = invoke noundef zeroext i1 %5(ptr noundef nonnull align 8 dereferenceable(16) %errorCallback13, ptr noundef nonnull align 8 dereferenceable(16) %errorCallback13, i32 noundef 3)
          to label %_ZNSt8functionIFvPKcPKN4pbrt7FileLocEEED2Ev.exit unwind label %terminate.lpad.i.i

terminate.lpad.i.i:                               ; preds = %if.then.i.i
  %6 = landingpad { ptr, i32 }
          catch ptr null
  %7 = extractvalue { ptr, i32 } %6, 0
  call void @__clang_call_terminate(ptr %7) #33
  unreachable

_ZNSt8functionIFvPKcPKN4pbrt7FileLocEEED2Ev.exit: ; preds = %if.end12, %if.then.i.i
  ret void

terminate.lpad:                                   ; preds = %if.end.i, %if.then.i, %invoke.cont, %if.then5
  %8 = landingpad { ptr, i32 }
          catch ptr null
  br label %terminate.lpad.body

terminate.lpad.body:                              ; preds = %lpad.i, %terminate.lpad
  %eh.lpad-body = phi { ptr, i32 } [ %8, %terminate.lpad ], [ %2, %lpad.i ]
  %9 = extractvalue { ptr, i32 } %eh.lpad-body, 0
  call void @__clang_call_terminate(ptr %9) #33
  unreachable
}

; Function Attrs: nounwind
declare i32 @munmap(ptr noundef, i64 noundef) local_unnamed_addr #1

; Function Attrs: noreturn nounwind uwtable
define linkonce_odr hidden void @__clang_call_terminate(ptr noundef %0) local_unnamed_addr #15 comdat {
  %2 = tail call ptr @__cxa_begin_catch(ptr %0) #32
  tail call void @_ZSt9terminatev() #33
  unreachable
}

declare ptr @__cxa_begin_catch(ptr) local_unnamed_addr

declare void @_ZSt9terminatev() local_unnamed_addr

; Function Attrs: mustprogress uwtable
define dso_local void @_ZN4pbrt9Tokenizer4NextEv(ptr noalias nocapture writeonly sret(%"class.pstd::optional") align 8 %agg.result, ptr noundef nonnull align 8 dereferenceable(152) %this) local_unnamed_addr #3 align 2 {
entry:
  %ch.addr.i = alloca i32, align 4
  %__args.addr.i87 = alloca ptr, align 8
  %__args.addr2.i88 = alloca ptr, align 8
  %__args.addr.i62 = alloca ptr, align 8
  %__args.addr2.i63 = alloca ptr, align 8
  %__args.addr.i = alloca ptr, align 8
  %__args.addr2.i = alloca ptr, align 8
  %startLoc = alloca %"struct.pbrt::FileLoc", align 8
  %va = alloca ptr, align 8
  %vb = alloca ptr, align 8
  %pos = getelementptr inbounds %"class.pbrt::Tokenizer", ptr %this, i64 0, i32 5
  %end.i = getelementptr inbounds %"class.pbrt::Tokenizer", ptr %this, i64 0, i32 6
  %0 = load ptr, ptr %end.i, align 8
  %pos.promoted = load ptr, ptr %pos, align 8
  call void @llvm.memcpy.p0.p0.i64(ptr noundef nonnull align 8 dereferenceable(24) %startLoc, ptr noundef nonnull align 8 dereferenceable(24) %this, i64 24, i1 false)
  %cmp.i199 = icmp eq ptr %pos.promoted, %0
  br i1 %cmp.i199, label %if.then, label %if.end.i.lr.ph

if.end.i.lr.ph:                                   ; preds = %entry
  %column7.i = getelementptr inbounds %"struct.pbrt::FileLoc", ptr %this, i64 0, i32 2
  %line.i = getelementptr inbounds %"struct.pbrt::FileLoc", ptr %this, i64 0, i32 1
  %column7.i.promoted = load i32, ptr %column7.i, align 4
  %line.i.promoted = load i32, ptr %line.i, align 8
  br label %if.end.i

if.end.i:                                         ; preds = %if.end.i.lr.ph, %while.body.backedge
  %inc.i204 = phi i32 [ %line.i.promoted, %if.end.i.lr.ph ], [ %2, %while.body.backedge ]
  %inc8.i201 = phi i32 [ %column7.i.promoted, %if.end.i.lr.ph ], [ %column7.i144.promoted229, %while.body.backedge ]
  %incdec.ptr.i198200 = phi ptr [ %pos.promoted, %if.end.i.lr.ph ], [ %incdec.ptr.i, %while.body.backedge ]
  %incdec.ptr.i = getelementptr inbounds i8, ptr %incdec.ptr.i198200, i64 1
  store ptr %incdec.ptr.i, ptr %pos, align 8
  %1 = load i8, ptr %incdec.ptr.i198200, align 1
  %cmp3.i = icmp eq i8 %1, 10
  br i1 %cmp3.i, label %_ZN4pbrt9Tokenizer7getCharEv.exit.thread, label %_ZN4pbrt9Tokenizer7getCharEv.exit

_ZN4pbrt9Tokenizer7getCharEv.exit.thread:         ; preds = %if.end.i
  %inc.i = add nsw i32 %inc.i204, 1
  store i32 %inc.i, ptr %line.i, align 8
  store i32 0, ptr %column7.i, align 4
  br label %while.body.backedge

_ZN4pbrt9Tokenizer7getCharEv.exit:                ; preds = %if.end.i
  %inc8.i = add nsw i32 %inc8.i201, 1
  store i32 %inc8.i, ptr %column7.i, align 4
  switch i8 %1, label %while.cond87 [
    i8 -1, label %if.then
    i8 32, label %while.body.backedge
    i8 13, label %while.body.backedge
    i8 35, label %while.cond69
    i8 9, label %while.body.backedge
