target datalayout = "e-m:e-p270:32:32-p271:32:32-p272:64:64-i64:64-i128:128-f80:128-n8:16:32:64-S128"
target triple = "x86_64-unknown-linux-gnu"

%"class.std::ios_base::Init" = type { i8 }
%"struct.std::piecewise_construct_t" = type { i8 }
%"struct.absl::lts_20230802::container_internal::PolicyFunctions" = type { i64, ptr, ptr, ptr }
%"class.std::basic_string_view" = type { i64, ptr }
%"struct.std::in_place_t" = type { i8 }
%"struct.std::nullopt_t" = type { i8 }
%"struct.std::in_place_index_t" = type { i8 }
%"struct.std::in_place_index_t.144" = type { i8 }
%"struct.google::protobuf::internal::ThreadSafeArena::ThreadCache" = type { i64, i64, ptr, [8 x i8] }
%"struct.absl::lts_20230802::base_internal::SpinLockWaitTransition" = type { i32, i32, i8 }
%"class.std::unique_ptr" = type { %"struct.std::__uniq_ptr_data" }
%"struct.std::__uniq_ptr_data" = type { %"class.std::__uniq_ptr_impl" }
%"class.std::__uniq_ptr_impl" = type { %"class.std::tuple" }
%"class.std::tuple" = type { %"struct.std::_Tuple_impl" }
%"struct.std::_Tuple_impl" = type { %"struct.std::_Head_base.1" }
%"struct.std::_Head_base.1" = type { ptr }
%"class.std::unique_ptr.2" = type { %"struct.std::__uniq_ptr_data.3" }
%"struct.std::__uniq_ptr_data.3" = type { %"class.std::__uniq_ptr_impl.4" }
%"class.std::__uniq_ptr_impl.4" = type { %"class.std::tuple.5" }
%"class.std::tuple.5" = type { %"struct.std::_Tuple_impl.6" }
%"struct.std::_Tuple_impl.6" = type { %"struct.std::_Head_base.9" }
%"struct.std::_Head_base.9" = type { ptr }
%"class.std::unique_ptr.20" = type { %"struct.std::__uniq_ptr_data.21" }
%"struct.std::__uniq_ptr_data.21" = type { %"class.std::__uniq_ptr_impl.22" }
%"class.std::__uniq_ptr_impl.22" = type { %"class.std::tuple.23" }
%"class.std::tuple.23" = type { %"struct.std::_Tuple_impl.24" }
%"struct.std::_Tuple_impl.24" = type { %"struct.std::_Head_base.27" }
%"struct.std::_Head_base.27" = type { ptr }
%"class.google::protobuf::compiler::cpp::FieldGeneratorBase" = type <{ ptr, ptr, ptr, ptr, %"class.absl::lts_20230802::flat_hash_map", i8, i8, i8, i8, i8, i8, i8, i8, i8, i8, i8, i8, i8, [3 x i8], i32, i8, [3 x i8] }>
%"class.absl::lts_20230802::flat_hash_map" = type { %"class.absl::lts_20230802::container_internal::raw_hash_map" }
%"class.absl::lts_20230802::container_internal::raw_hash_map" = type { %"class.absl::lts_20230802::container_internal::raw_hash_set.28" }
%"class.absl::lts_20230802::container_internal::raw_hash_set.28" = type { %"class.absl::lts_20230802::container_internal::CompressedTuple.29" }
%"class.absl::lts_20230802::container_internal::CompressedTuple.29" = type { %"struct.absl::lts_20230802::container_internal::internal_compressed_tuple::CompressedTupleImpl.30" }
%"struct.absl::lts_20230802::container_internal::internal_compressed_tuple::CompressedTupleImpl.30" = type { %"struct.absl::lts_20230802::container_internal::internal_compressed_tuple::Storage" }
%"struct.absl::lts_20230802::container_internal::internal_compressed_tuple::Storage" = type { %"class.absl::lts_20230802::container_internal::CommonFields" }
%"class.absl::lts_20230802::container_internal::CommonFields" = type { ptr, ptr, i64, %"class.absl::lts_20230802::container_internal::CompressedTuple.10" }
%"class.absl::lts_20230802::container_internal::CompressedTuple.10" = type { %"struct.absl::lts_20230802::container_internal::internal_compressed_tuple::CompressedTupleImpl.11" }
%"struct.absl::lts_20230802::container_internal::internal_compressed_tuple::CompressedTupleImpl.11" = type { %"struct.absl::lts_20230802::container_internal::internal_compressed_tuple::Storage.12" }
%"struct.absl::lts_20230802::container_internal::internal_compressed_tuple::Storage.12" = type { i64 }
%"class.std::__cxx11::basic_string" = type { %"struct.std::__cxx11::basic_string<char>::_Alloc_hider", i64, %union.anon }
%"struct.std::__cxx11::basic_string<char>::_Alloc_hider" = type { ptr }
%union.anon = type { i64, [8 x i8] }
%"class.absl::lts_20230802::AlphaNum" = type { %"class.std::basic_string_view", [32 x i8] }
%"class.std::vector" = type { %"struct.std::_Vector_base" }
%"struct.std::_Vector_base" = type { %"struct.std::_Vector_base<google::protobuf::io::Printer::Sub, std::allocator<google::protobuf::io::Printer::Sub>>::_Vector_impl" }
%"struct.std::_Vector_base<google::protobuf::io::Printer::Sub, std::allocator<google::protobuf::io::Printer::Sub>>::_Vector_impl" = type { %"struct.std::_Vector_base<google::protobuf::io::Printer::Sub, std::allocator<google::protobuf::io::Printer::Sub>>::_Vector_impl_data" }
%"struct.std::_Vector_base<google::protobuf::io::Printer::Sub, std::allocator<google::protobuf::io::Printer::Sub>>::_Vector_impl_data" = type { ptr, ptr, ptr }
%"class.google::protobuf::compiler::cpp::Formatter" = type { ptr, %"class.absl::lts_20230802::flat_hash_map" }
%"class.std::tuple.146" = type { %"struct.std::_Tuple_impl.147" }
%"struct.std::_Tuple_impl.147" = type { %"struct.std::_Tuple_impl.148", %"struct.std::_Head_base.150" }
%"struct.std::_Tuple_impl.148" = type { %"struct.std::_Head_base.149" }
%"struct.std::_Head_base.149" = type { i32 }
%"struct.std::_Head_base.150" = type { ptr }
%"class.absl::lts_20230802::Cleanup.179" = type { %"class.absl::lts_20230802::cleanup_internal::Storage.180" }
%"class.absl::lts_20230802::cleanup_internal::Storage.180" = type { i8, [7 x i8], [8 x i8] }
%"class.absl::lts_20230802::log_internal::Voidify" = type { i8 }
%"class.absl::lts_20230802::log_internal::LogMessageFatal" = type { %"class.absl::lts_20230802::log_internal::LogMessage" }
%"class.absl::lts_20230802::log_internal::LogMessage" = type { %"class.absl::lts_20230802::base_internal::ErrnoSaver", %"class.std::unique_ptr.159" }
%"class.absl::lts_20230802::base_internal::ErrnoSaver" = type { i32 }
%"class.std::unique_ptr.159" = type { %"struct.std::__uniq_ptr_data.160" }
%"struct.std::__uniq_ptr_data.160" = type { %"class.std::__uniq_ptr_impl.161" }
%"class.std::__uniq_ptr_impl.161" = type { %"class.std::tuple.162" }
%"class.std::tuple.162" = type { %"struct.std::_Tuple_impl.163" }
%"struct.std::_Tuple_impl.163" = type { %"struct.std::_Head_base.166" }
%"struct.std::_Head_base.166" = type { ptr }
%"class.absl::lts_20230802::Span.184" = type { ptr, i64 }
%"class.std::initializer_list.185" = type { ptr, i64 }
%"class.google::protobuf::io::Printer::Sub" = type { %"class.std::__cxx11::basic_string", %"struct.google::protobuf::io::Printer::ValueImpl.186", %"class.std::optional.208" }
%"struct.google::protobuf::io::Printer::ValueImpl.186" = type <{ %"class.std::variant.187", %"class.std::__cxx11::basic_string", i8, [7 x i8] }>
%"class.std::variant.187" = type { %"struct.std::__detail::__variant::_Variant_base.base.202", [7 x i8] }
%"struct.std::__detail::__variant::_Variant_base.base.202" = type { %"struct.std::__detail::__variant::_Move_assign_base.base.201" }
%"struct.std::__detail::__variant::_Move_assign_base.base.201" = type { %"struct.std::__detail::__variant::_Copy_assign_base.base.200" }
%"struct.std::__detail::__variant::_Copy_assign_base.base.200" = type { %"struct.std::__detail::__variant::_Move_ctor_base.base.199" }
%"struct.std::__detail::__variant::_Move_ctor_base.base.199" = type { %"struct.std::__detail::__variant::_Copy_ctor_base.base.198" }
%"struct.std::__detail::__variant::_Copy_ctor_base.base.198" = type { %"struct.std::__detail::__variant::_Variant_storage.base.197" }
%"struct.std::__detail::__variant::_Variant_storage.base.197" = type { %"union.std::__detail::__variant::_Variadic_union.194", i8 }
%"union.std::__detail::__variant::_Variadic_union.194" = type { %"struct.std::__detail::__variant::_Uninitialized.195" }
%"struct.std::__detail::__variant::_Uninitialized.195" = type { %"struct.__gnu_cxx::__aligned_membuf.196" }
%"struct.__gnu_cxx::__aligned_membuf.196" = type { [32 x i8] }
%"class.std::optional.208" = type { %"struct.std::_Optional_base.209" }
%"struct.std::_Optional_base.209" = type { %"struct.std::_Optional_payload.211" }
%"struct.std::_Optional_payload.211" = type { %"struct.std::_Optional_payload.base.223", [7 x i8] }
%"struct.std::_Optional_payload.base.223" = type { %"struct.std::_Optional_payload_base.base.222" }
%"struct.std::_Optional_payload_base.base.222" = type <{ %"union.std::_Optional_payload_base<google::protobuf::io::Printer::AnnotationRecord>::_Storage", i8 }>
%"union.std::_Optional_payload_base<google::protobuf::io::Printer::AnnotationRecord>::_Storage" = type { %"struct.google::protobuf::io::Printer::AnnotationRecord" }
%"struct.google::protobuf::io::Printer::AnnotationRecord" = type { %"class.std::vector.151", %"class.std::__cxx11::basic_string", %"class.std::optional.214" }
%"class.std::vector.151" = type { %"struct.std::_Vector_base.152" }
%"struct.std::_Vector_base.152" = type { %"struct.std::_Vector_base<int, std::allocator<int>>::_Vector_impl" }
%"struct.std::_Vector_base<int, std::allocator<int>>::_Vector_impl" = type { %"struct.std::_Vector_base<int, std::allocator<int>>::_Vector_impl_data" }
%"struct.std::_Vector_base<int, std::allocator<int>>::_Vector_impl_data" = type { ptr, ptr, ptr }
%"class.std::optional.214" = type { %"struct.std::_Optional_base.215" }
%"struct.std::_Optional_base.215" = type { %"struct.std::_Optional_payload.217" }
%"struct.std::_Optional_payload.217" = type { %"struct.std::_Optional_payload_base.base.219", [3 x i8] }
%"struct.std::_Optional_payload_base.base.219" = type <{ %"union.std::_Optional_payload_base<google::protobuf::io::AnnotationCollector::Semantic>::_Storage", i8 }>
%"union.std::_Optional_payload_base<google::protobuf::io::AnnotationCollector::Semantic>::_Storage" = type { i32 }
%"class.std::allocator" = type { i8 }
%"class.absl::lts_20230802::substitute_internal::Arg" = type { %"class.std::basic_string_view", [32 x i8] }
%"class.google::protobuf::FieldDescriptor" = type { %"class.google::protobuf::internal::SymbolBase", i8, i8, i8, i32, ptr, ptr, ptr, ptr, %union.anon.38, %union.anon.39, ptr, ptr, ptr, %union.anon.40 }
%"class.google::protobuf::internal::SymbolBase" = type { i8 }
%union.anon.38 = type { ptr }
%union.anon.39 = type { ptr }
%union.anon.40 = type { i64 }
%"struct.std::pair" = type <{ %"class.absl::lts_20230802::container_internal::raw_hash_set<absl::lts_20230802::container_internal::FlatHashMapPolicy<std::basic_string_view<char>, std::__cxx11::basic_string<char>>, absl::lts_20230802::container_internal::StringHash, absl::lts_20230802::container_internal::StringEq, std::allocator<std::pair<const std::basic_string_view<char>, std::__cxx11::basic_string<char>>>>::iterator", i8, [7 x i8] }>
%"class.absl::lts_20230802::container_internal::raw_hash_set<absl::lts_20230802::container_internal::FlatHashMapPolicy<std::basic_string_view<char>, std::__cxx11::basic_string<char>>, absl::lts_20230802::container_internal::StringHash, absl::lts_20230802::container_internal::StringEq, std::allocator<std::pair<const std::basic_string_view<char>, std::__cxx11::basic_string<char>>>>::iterator" = type { ptr, %union.anon.41 }
%union.anon.41 = type { ptr }
%"struct.google::protobuf::compiler::cpp::Options" = type <{ ptr, ptr, %"class.std::__cxx11::basic_string", %"class.std::__cxx11::basic_string", %"class.std::__cxx11::basic_string", %"class.std::__cxx11::basic_string", %"struct.google::protobuf::compiler::cpp::FieldListenerOptions", i32, i32, i8, i8, i8, i8, i8, i8, i8, i8, i8, i8, i8, i8, i8, i8, [2 x i8] }>
%"struct.google::protobuf::compiler::cpp::FieldListenerOptions" = type { i8, %"class.absl::lts_20230802::flat_hash_set" }
%"class.absl::lts_20230802::flat_hash_set" = type { %"class.absl::lts_20230802::container_internal::raw_hash_set" }
%"class.absl::lts_20230802::container_internal::raw_hash_set" = type { %"class.absl::lts_20230802::container_internal::CompressedTuple" }
%"class.absl::lts_20230802::container_internal::CompressedTuple" = type { %"struct.absl::lts_20230802::container_internal::internal_compressed_tuple::CompressedTupleImpl" }
%"struct.absl::lts_20230802::container_internal::internal_compressed_tuple::CompressedTupleImpl" = type { %"struct.absl::lts_20230802::container_internal::internal_compressed_tuple::Storage" }
%"struct.std::pair.42" = type { %"class.std::basic_string_view", %"class.std::__cxx11::basic_string" }
%"struct.std::pair.44" = type <{ i64, i8, [7 x i8] }>
%"class.std::tuple.47" = type { %"struct.std::_Tuple_impl.48" }
%"struct.std::_Tuple_impl.48" = type { %"struct.std::_Head_base.49" }
%"struct.std::_Head_base.49" = type { ptr }
%"class.std::tuple.50" = type { i8 }
%"class.absl::lts_20230802::container_internal::probe_seq" = type { i64, i64, i64 }
%"struct.absl::lts_20230802::container_internal::GroupSse2Impl" = type { <2 x i64> }
%"class.absl::lts_20230802::container_internal::BitMask" = type { %"class.absl::lts_20230802::container_internal::NonIterableBitMask" }
%"class.absl::lts_20230802::container_internal::NonIterableBitMask" = type { i32 }
%"struct.absl::lts_20230802::container_internal::raw_hash_set<absl::lts_20230802::container_internal::FlatHashMapPolicy<std::basic_string_view<char>, std::__cxx11::basic_string<char>>, absl::lts_20230802::container_internal::StringHash, absl::lts_20230802::container_internal::StringEq, std::allocator<std::pair<const std::basic_string_view<char>, std::__cxx11::basic_string<char>>>>::EqualElement" = type { ptr, ptr }
%"union.absl::lts_20230802::container_internal::map_slot_type" = type { %"struct.std::pair.42" }
%"struct.absl::lts_20230802::hash_internal::Hash" = type { i8 }
%"struct.absl::lts_20230802::container_internal::FindInfo" = type { i64, i64 }
%"class.absl::lts_20230802::hash_internal::MixingHashState" = type { i64 }
%"struct.std::pair.53" = type { i64, i64 }
%"struct.std::pair.55" = type { %"class.std::tuple.57", %"class.std::tuple.60" }
%"class.std::tuple.57" = type { %"struct.std::_Tuple_impl.58" }
%"struct.std::_Tuple_impl.58" = type { %"struct.std::_Head_base.59" }
%"struct.std::_Head_base.59" = type { ptr }
%"class.std::tuple.60" = type { %"struct.std::_Tuple_impl.61" }
%"struct.std::_Tuple_impl.61" = type { %"struct.std::_Head_base.62" }
%"struct.std::_Head_base.62" = type { ptr }
%"struct.absl::lts_20230802::container_internal::raw_hash_set<absl::lts_20230802::container_internal::FlatHashMapPolicy<std::basic_string_view<char>, std::__cxx11::basic_string<char>>, absl::lts_20230802::container_internal::StringHash, absl::lts_20230802::container_internal::StringEq, std::allocator<std::pair<const std::basic_string_view<char>, std::__cxx11::basic_string<char>>>>::HashElement" = type { ptr }
%"class.std::allocator.63" = type { i8 }
%"class.absl::lts_20230802::container_internal::HashtablezInfoHandle" = type { i8 }
%"struct.std::pair.51" = type { %"class.std::basic_string_view", %"class.std::__cxx11::basic_string" }
%"class.std::tuple.67" = type { %"struct.std::_Tuple_impl.68" }
%"struct.std::_Tuple_impl.68" = type { %"struct.std::_Head_base.69" }
%"struct.std::_Head_base.69" = type { ptr }
%"struct.absl::lts_20230802::container_internal::raw_hash_set<absl::lts_20230802::container_internal::FlatHashMapPolicy<std::basic_string_view<char>, std::__cxx11::basic_string<char>>, absl::lts_20230802::container_internal::StringHash, absl::lts_20230802::container_internal::StringEq, std::allocator<std::pair<const std::basic_string_view<char>, std::__cxx11::basic_string<char>>>>::EqualElement.70" = type { ptr, ptr }
%"class.std::tuple.71" = type { %"struct.std::_Tuple_impl.72" }
%"struct.std::_Tuple_impl.72" = type { %"struct.std::_Head_base.73" }
%"struct.std::_Head_base.73" = type { ptr }
%"struct.absl::lts_20230802::container_internal::raw_hash_set<absl::lts_20230802::container_internal::FlatHashMapPolicy<std::basic_string_view<char>, std::__cxx11::basic_string<char>>, absl::lts_20230802::container_internal::StringHash, absl::lts_20230802::container_internal::StringEq, std::allocator<std::pair<const std::basic_string_view<char>, std::__cxx11::basic_string<char>>>>::EqualElement.74" = type { ptr, ptr }
%"class.std::tuple.75" = type { %"struct.std::_Tuple_impl.76" }
%"struct.std::_Tuple_impl.76" = type { %"struct.std::_Head_base.77" }
%"struct.std::_Head_base.77" = type { ptr }
%"struct.absl::lts_20230802::container_internal::raw_hash_set<absl::lts_20230802::container_internal::FlatHashMapPolicy<std::basic_string_view<char>, std::__cxx11::basic_string<char>>, absl::lts_20230802::container_internal::StringHash, absl::lts_20230802::container_internal::StringEq, std::allocator<std::pair<const std::basic_string_view<char>, std::__cxx11::basic_string<char>>>>::EqualElement.78" = type { ptr, ptr }
%"class.std::tuple.79" = type { %"struct.std::_Tuple_impl.80" }
%"struct.std::_Tuple_impl.80" = type { %"struct.std::_Head_base.81" }
%"struct.std::_Head_base.81" = type { ptr }
%"struct.absl::lts_20230802::container_internal::raw_hash_set<absl::lts_20230802::container_internal::FlatHashMapPolicy<std::basic_string_view<char>, std::__cxx11::basic_string<char>>, absl::lts_20230802::container_internal::StringHash, absl::lts_20230802::container_internal::StringEq, std::allocator<std::pair<const std::basic_string_view<char>, std::__cxx11::basic_string<char>>>>::EqualElement.82" = type { ptr, ptr }
%"class.std::tuple.83" = type { %"struct.std::_Tuple_impl.84" }
%"struct.std::_Tuple_impl.84" = type { %"struct.std::_Head_base.85" }
%"struct.std::_Head_base.85" = type { ptr }
%"struct.absl::lts_20230802::container_internal::raw_hash_set<absl::lts_20230802::container_internal::FlatHashMapPolicy<std::basic_string_view<char>, std::__cxx11::basic_string<char>>, absl::lts_20230802::container_internal::StringHash, absl::lts_20230802::container_internal::StringEq, std::allocator<std::pair<const std::basic_string_view<char>, std::__cxx11::basic_string<char>>>>::EqualElement.86" = type { ptr, ptr }
%"class.absl::lts_20230802::Span" = type { ptr, i64 }
%"class.std::allocator.32" = type { i8 }
%"class.absl::lts_20230802::container_internal::raw_hash_set<absl::lts_20230802::container_internal::FlatHashMapPolicy<std::basic_string_view<char>, std::__cxx11::basic_string<char>>, absl::lts_20230802::container_internal::StringHash, absl::lts_20230802::container_internal::StringEq, std::allocator<std::pair<const std::basic_string_view<char>, std::__cxx11::basic_string<char>>>>::const_iterator" = type { %"class.absl::lts_20230802::container_internal::raw_hash_set<absl::lts_20230802::container_internal::FlatHashMapPolicy<std::basic_string_view<char>, std::__cxx11::basic_string<char>>, absl::lts_20230802::container_internal::StringHash, absl::lts_20230802::container_internal::StringEq, std::allocator<std::pair<const std::basic_string_view<char>, std::__cxx11::basic_string<char>>>>::iterator" }
%"struct.google::protobuf::io::Printer::PrintOptions" = type { %"class.std::optional.113", i8, i8, i8, i8, i8, i8, i8 }
%"class.std::optional.113" = type { %"struct.std::_Optional_base.114" }
%"struct.std::_Optional_base.114" = type { %"struct.std::_Optional_payload.116" }
%"struct.std::_Optional_payload.116" = type { %"struct.std::_Optional_payload_base.117" }
%"struct.std::_Optional_payload_base.117" = type { %"union.std::_Optional_payload_base<google::protobuf::io::Printer::SourceLocation>::_Storage", i8 }
%"union.std::_Optional_payload_base<google::protobuf::io::Printer::SourceLocation>::_Storage" = type { %"struct.std::_Optional_payload_base<google::protobuf::io::Printer::SourceLocation>::_Empty_byte" }
%"struct.std::_Optional_payload_base<google::protobuf::io::Printer::SourceLocation>::_Empty_byte" = type { i8 }
%"class.absl::lts_20230802::Cleanup" = type { %"class.absl::lts_20230802::cleanup_internal::Storage" }
%"class.absl::lts_20230802::cleanup_internal::Storage" = type { i8, [7 x i8], [8 x i8] }
%class.anon = type { ptr }
%class.anon.119 = type { ptr }
%"class.google::protobuf::io::Printer" = type { %"class.google::protobuf::io::zc_sink_internal::ZeroCopyStreamByteSink", %"struct.google::protobuf::io::Printer::Options", i64, i8, i8, i64, %"class.std::vector.87", %"class.std::vector.92", %"class.std::vector.97", %"class.absl::lts_20230802::flat_hash_map.102", %"class.std::vector.111" }
%"class.google::protobuf::io::zc_sink_internal::ZeroCopyStreamByteSink" = type <{ ptr, ptr, i64, i64, i8, [7 x i8] }>
%"struct.google::protobuf::io::Printer::Options" = type <{ i8, [7 x i8], ptr, %"class.std::basic_string_view", %"class.std::basic_string_view", i64, %"class.std::optional", [6 x i8] }>
%"class.std::optional" = type { %"struct.std::_Optional_base" }
%"struct.std::_Optional_base" = type { %"struct.std::_Optional_payload" }
%"struct.std::_Optional_payload" = type { %"struct.std::_Optional_payload_base" }
%"struct.std::_Optional_payload_base" = type { %"union.std::_Optional_payload_base<bool>::_Storage", i8 }
%"union.std::_Optional_payload_base<bool>::_Storage" = type { %"struct.std::_Optional_payload_base<bool>::_Empty_byte" }
%"struct.std::_Optional_payload_base<bool>::_Empty_byte" = type { i8 }
%"class.std::vector.87" = type { %"struct.std::_Vector_base.88" }
%"struct.std::_Vector_base.88" = type { %"struct.std::_Vector_base<unsigned long, std::allocator<unsigned long>>::_Vector_impl" }
%"struct.std::_Vector_base<unsigned long, std::allocator<unsigned long>>::_Vector_impl" = type { %"struct.std::_Vector_base<unsigned long, std::allocator<unsigned long>>::_Vector_impl_data" }
%"struct.std::_Vector_base<unsigned long, std::allocator<unsigned long>>::_Vector_impl_data" = type { ptr, ptr, ptr }
%"class.std::vector.92" = type { %"struct.std::_Vector_base.93" }
%"struct.std::_Vector_base.93" = type { %"struct.std::_Vector_base<std::function<std::optional<google::protobuf::io::Printer::ValueImpl<false>> (std::basic_string_view<char>)>, std::allocator<std::function<std::optional<google::protobuf::io::Printer::ValueImpl<false>> (std::basic_string_view<char>)>>>::_Vector_impl" }
%"struct.std::_Vector_base<std::function<std::optional<google::protobuf::io::Printer::ValueImpl<false>> (std::basic_string_view<char>)>, std::allocator<std::function<std::optional<google::protobuf::io::Printer::ValueImpl<false>> (std::basic_string_view<char>)>>>::_Vector_impl" = type { %"struct.std::_Vector_base<std::function<std::optional<google::protobuf::io::Printer::ValueImpl<false>> (std::basic_string_view<char>)>, std::allocator<std::function<std::optional<google::protobuf::io::Printer::ValueImpl<false>> (std::basic_string_view<char>)>>>::_Vector_impl_data" }
%"struct.std::_Vector_base<std::function<std::optional<google::protobuf::io::Printer::ValueImpl<false>> (std::basic_string_view<char>)>, std::allocator<std::function<std::optional<google::protobuf::io::Printer::ValueImpl<false>> (std::basic_string_view<char>)>>>::_Vector_impl_data" = type { ptr, ptr, ptr }
%"class.std::vector.97" = type { %"struct.std::_Vector_base.98" }
%"struct.std::_Vector_base.98" = type { %"struct.std::_Vector_base<std::function<std::optional<google::protobuf::io::Printer::AnnotationRecord> (std::basic_string_view<char>)>, std::allocator<std::function<std::optional<google::protobuf::io::Printer::AnnotationRecord> (std::basic_string_view<char>)>>>::_Vector_impl" }
%"struct.std::_Vector_base<std::function<std::optional<google::protobuf::io::Printer::AnnotationRecord> (std::basic_string_view<char>)>, std::allocator<std::function<std::optional<google::protobuf::io::Printer::AnnotationRecord> (std::basic_string_view<char>)>>>::_Vector_impl" = type { %"struct.std::_Vector_base<std::function<std::optional<google::protobuf::io::Printer::AnnotationRecord> (std::basic_string_view<char>)>, std::allocator<std::function<std::optional<google::protobuf::io::Printer::AnnotationRecord> (std::basic_string_view<char>)>>>::_Vector_impl_data" }
%"struct.std::_Vector_base<std::function<std::optional<google::protobuf::io::Printer::AnnotationRecord> (std::basic_string_view<char>)>, std::allocator<std::function<std::optional<google::protobuf::io::Printer::AnnotationRecord> (std::basic_string_view<char>)>>>::_Vector_impl_data" = type { ptr, ptr, ptr }
%"class.absl::lts_20230802::flat_hash_map.102" = type { %"class.absl::lts_20230802::container_internal::raw_hash_map.103" }
%"class.absl::lts_20230802::container_internal::raw_hash_map.103" = type { %"class.absl::lts_20230802::container_internal::raw_hash_set.104" }
%"class.absl::lts_20230802::container_internal::raw_hash_set.104" = type { %"class.absl::lts_20230802::container_internal::CompressedTuple.105" }
%"class.absl::lts_20230802::container_internal::CompressedTuple.105" = type { %"struct.absl::lts_20230802::container_internal::internal_compressed_tuple::CompressedTupleImpl.106" }
%"struct.absl::lts_20230802::container_internal::internal_compressed_tuple::CompressedTupleImpl.106" = type { %"struct.absl::lts_20230802::container_internal::internal_compressed_tuple::Storage" }
%"class.std::vector.111" = type { %"struct.std::_Vector_base.112" }
%"struct.std::_Vector_base.112" = type { %"struct.std::_Vector_base<std::__cxx11::basic_string<char>, std::allocator<std::__cxx11::basic_string<char>>>::_Vector_impl" }
%"struct.std::_Vector_base<std::__cxx11::basic_string<char>, std::allocator<std::__cxx11::basic_string<char>>>::_Vector_impl" = type { %"struct.std::_Vector_base<std::__cxx11::basic_string<char>, std::allocator<std::__cxx11::basic_string<char>>>::_Vector_impl_data" }
%"struct.std::_Vector_base<std::__cxx11::basic_string<char>, std::allocator<std::__cxx11::basic_string<char>>>::_Vector_impl_data" = type { ptr, ptr, ptr }
%"class.__gnu_cxx::__normal_iterator" = type { ptr }
%"class.std::function" = type { %"class.std::_Function_base", ptr }
%"class.std::_Function_base" = type { %"union.std::_Any_data", ptr }
%"union.std::_Any_data" = type { %"union.std::_Nocopy_types" }
%"union.std::_Nocopy_types" = type { { i64, i64 } }
%"class.std::optional.120" = type { %"struct.std::_Optional_base.121" }
%"struct.std::_Optional_base.121" = type { %"struct.std::_Optional_payload.123" }
%"struct.std::_Optional_payload.123" = type { %"struct.std::_Optional_payload.base", [7 x i8] }
%"struct.std::_Optional_payload.base" = type { %"struct.std::_Optional_payload_base.base" }
%"struct.std::_Optional_payload_base.base" = type { %"union.std::_Optional_payload_base<google::protobuf::io::Printer::ValueImpl<false>>::_Storage", i8 }
%"union.std::_Optional_payload_base<google::protobuf::io::Printer::ValueImpl<false>>::_Storage" = type { %"struct.google::protobuf::io::Printer::ValueImpl" }
%"struct.google::protobuf::io::Printer::ValueImpl" = type <{ %"class.std::variant", %"class.std::__cxx11::basic_string", i8, [7 x i8] }>
%"class.std::variant" = type { %"struct.std::__detail::__variant::_Variant_base.base", [7 x i8] }
%"struct.std::__detail::__variant::_Variant_base.base" = type { %"struct.std::__detail::__variant::_Move_assign_base.base" }
%"struct.std::__detail::__variant::_Move_assign_base.base" = type { %"struct.std::__detail::__variant::_Copy_assign_base.base" }
%"struct.std::__detail::__variant::_Copy_assign_base.base" = type { %"struct.std::__detail::__variant::_Move_ctor_base.base" }
%"struct.std::__detail::__variant::_Move_ctor_base.base" = type { %"struct.std::__detail::__variant::_Copy_ctor_base.base" }
%"struct.std::__detail::__variant::_Copy_ctor_base.base" = type { %"struct.std::__detail::__variant::_Variant_storage.base" }
%"struct.std::__detail::__variant::_Variant_storage.base" = type <{ %"union.std::__detail::__variant::_Variadic_union", i8 }>
%"union.std::__detail::__variant::_Variadic_union" = type { %"struct.std::__detail::__variant::_Uninitialized", [16 x i8] }
%"struct.std::__detail::__variant::_Uninitialized" = type { %"class.std::basic_string_view" }
%"struct.absl::lts_20230802::container_internal::raw_hash_set<absl::lts_20230802::container_internal::FlatHashMapPolicy<std::basic_string_view<char>, std::__cxx11::basic_string<char>>, absl::lts_20230802::container_internal::StringHash, absl::lts_20230802::container_internal::StringEq, std::allocator<std::pair<const std::basic_string_view<char>, std::__cxx11::basic_string<char>>>>::EqualElement.133" = type { ptr, ptr }
%"struct.std::_Optional_payload_base.125" = type { %"union.std::_Optional_payload_base<google::protobuf::io::Printer::ValueImpl<false>>::_Storage", i8, [7 x i8] }
%"struct.std::__detail::__variant::_Variant_storage" = type <{ %"union.std::__detail::__variant::_Variadic_union", i8, [7 x i8] }>
%class.anon.134 = type { i8 }
%class.anon.135 = type { i8 }
%"struct.std::__detail::__variant::_Uninitialized.127" = type { %"struct.__gnu_cxx::__aligned_membuf" }
%"struct.__gnu_cxx::__aligned_membuf" = type { [32 x i8] }
%class.anon.139 = type { ptr }
%class.anon.140 = type { i8 }
%"struct.std::integral_constant.142" = type { i8 }
%"struct.std::integral_constant.143" = type { i8 }
%"struct.std::__detail::__variant::__variant_cookie" = type { i8 }
%"struct.std::integral_constant.145" = type { i8 }
%"class.std::function.137" = type { %"class.std::_Function_base", ptr }
%"class.std::initializer_list" = type { ptr, i64 }
%"class.google::protobuf::GeneratedCodeInfo_Annotation" = type { %"class.google::protobuf::Message", %union.anon.156 }
%"class.google::protobuf::Message" = type { %"class.google::protobuf::MessageLite" }
%"class.google::protobuf::MessageLite" = type { ptr, %"class.google::protobuf::internal::InternalMetadata" }
%"class.google::protobuf::internal::InternalMetadata" = type { i64 }
%union.anon.156 = type { %"struct.google::protobuf::GeneratedCodeInfo_Annotation::Impl_" }
%"struct.google::protobuf::GeneratedCodeInfo_Annotation::Impl_" = type <{ %"class.google::protobuf::internal::HasBits", %"class.google::protobuf::internal::CachedSize", %"class.google::protobuf::RepeatedField", %"class.google::protobuf::internal::CachedSize", [4 x i8], %"struct.google::protobuf::internal::ArenaStringPtr", i32, i32, i32, [4 x i8] }>
%"class.google::protobuf::internal::HasBits" = type { [1 x i32] }
%"class.google::protobuf::RepeatedField" = type { i32, i32, ptr }
%"class.google::protobuf::internal::CachedSize" = type { i32 }
%"struct.google::protobuf::internal::ArenaStringPtr" = type { %"class.google::protobuf::internal::TaggedStringPtr" }
%"class.google::protobuf::internal::TaggedStringPtr" = type { ptr }
%"class.__gnu_cxx::__normal_iterator.157" = type { ptr }
%"class.google::protobuf::FileDescriptor" = type { %"class.google::protobuf::internal::SymbolBase", i8, i8, i32, ptr, ptr, ptr, i32, ptr, i32, i32, i32, i32, i32, i32, ptr, ptr, ptr, ptr, ptr, ptr, ptr, ptr, ptr, ptr, ptr, ptr }
%"class.absl::lts_20230802::log_internal::NullStream" = type { i8 }
%"struct.google::protobuf::internal::SizedPtr" = type { ptr, i64 }
%"struct.google::protobuf::RepeatedField<int>::Rep" = type { %union.anon.158 }
%union.anon.158 = type { ptr }
%"struct.google::protobuf::internal::ArenaAlign" = type { i64 }
%"class.google::protobuf::Arena" = type { %"class.google::protobuf::internal::ThreadSafeArena" }
%"class.google::protobuf::internal::ThreadSafeArena" = type { i64, %"class.google::protobuf::internal::TaggedAllocationPolicyPtr", %"class.google::protobuf::internal::ThreadSafeArenaStatsHandle", %"class.absl::lts_20230802::Mutex", %"struct.std::atomic.169", ptr, %"class.google::protobuf::internal::SerialArena" }
%"class.google::protobuf::internal::TaggedAllocationPolicyPtr" = type { i64 }
%"class.google::protobuf::internal::ThreadSafeArenaStatsHandle" = type { i8 }
%"class.absl::lts_20230802::Mutex" = type { %"struct.std::atomic.167" }
%"struct.std::atomic.167" = type { %"struct.std::__atomic_base.168" }
%"struct.std::__atomic_base.168" = type { i64 }
%"struct.std::atomic.169" = type { %"struct.std::__atomic_base.170" }
%"struct.std::__atomic_base.170" = type { ptr }
%"class.google::protobuf::internal::SerialArena" = type { %"struct.std::atomic.171", ptr, ptr, ptr, %"struct.std::atomic.173", %"struct.std::atomic.175", %"struct.std::atomic.177", %"struct.std::atomic.175", %"struct.std::atomic.175", ptr, i8, ptr }
%"struct.std::atomic.171" = type { %"struct.std::__atomic_base.172" }
%"struct.std::__atomic_base.172" = type { ptr }
%"struct.std::atomic.173" = type { %"struct.std::__atomic_base.174" }
%"struct.std::__atomic_base.174" = type { ptr }
%"struct.std::atomic.177" = type { %"struct.std::__atomic_base.178" }
%"struct.std::__atomic_base.178" = type { ptr }
%"struct.std::atomic.175" = type { %"struct.std::__atomic_base.176" }
%"struct.std::__atomic_base.176" = type { i64 }
%"struct.google::protobuf::internal::SerialArena::CachedBlock" = type { ptr }
%class.anon.181 = type { %"class.absl::lts_20230802::flat_hash_map" }
%class.anon.182 = type { ptr }
%struct._Guard = type { ptr }
%"struct.std::__detail::__variant::_Variant_storage.193" = type { %"union.std::__detail::__variant::_Variadic_union.194", i8, [7 x i8] }
%class.anon.226 = type { i8 }
%class.anon.228 = type { i8 }
%"struct.std::_Optional_payload_base.213" = type <{ %"union.std::_Optional_payload_base<google::protobuf::io::Printer::AnnotationRecord>::_Storage", i8, [7 x i8] }>
%"class.absl::lts_20230802::once_flag" = type { %"struct.std::atomic.230" }
%"struct.std::atomic.230" = type { %"struct.std::__atomic_base.231" }
%"struct.std::__atomic_base.231" = type { i32 }
%"class.absl::lts_20230802::base_internal::SchedulingHelper" = type <{ i32, i8, [3 x i8] }>

$_ZN6google8protobuf8compiler3cpp18FieldGeneratorBaseD2Ev = comdat any

$_ZNK6google8protobuf8compiler3cpp18FieldGeneratorBase13RequiresArenaENS3_17GeneratorFunctionE = comdat any

$_ZNK6google8protobuf8compiler3cpp18FieldGeneratorBase8MakeVarsEv = comdat any

$_ZNK6google8protobuf8compiler3cpp18FieldGeneratorBase21GenerateStaticMembersEPNS0_2io7PrinterE = comdat any

$_ZNK6google8protobuf8compiler3cpp18FieldGeneratorBase36GenerateNonInlineAccessorDefinitionsEPNS0_2io7PrinterE = comdat any

$_ZNK6google8protobuf8compiler3cpp18FieldGeneratorBase27GenerateMessageClearingCodeEPNS0_2io7PrinterE = comdat any

$_ZNK6google8protobuf8compiler3cpp18FieldGeneratorBase22GenerateDestructorCodeEPNS0_2io7PrinterE = comdat any

$_ZNK6google8protobuf8compiler3cpp18FieldGeneratorBase21GenerateIsInitializedEPNS0_2io7PrinterE = comdat any

$_ZNK6google8protobuf8compiler3cpp18FieldGeneratorBase9IsInlinedEv = comdat any

$_ZN4absl12lts_202308028AlphaNumC2EPKc = comdat any

$_ZNK6google8protobuf15FieldDescriptor20default_value_stringB5cxx11Ev = comdat any

$_ZN4absl12lts_202308028AlphaNumC2ISaIcEEERKNSt7__cxx1112basic_stringIcSt11char_traitsIcET_EE = comdat any

$_ZN4absl12lts_2023080218container_internal12raw_hash_mapINS1_17FlatHashMapPolicyISt17basic_string_viewIcSt11char_traitsIcEENSt7__cxx1112basic_stringIcS6_SaIcEEEEENS1_10StringHashENS1_8StringEqESaISt4pairIKS7_SB_EEEixIA8_cSC_EEDTclsrT0_5valueclL_ZSt9addressofISH_EPT_RSO_EclL_ZSt7declvalIRSH_EDTcl9__declvalISO_ELi0EEEvEEEEERKSO_ = comdat any

$_ZN4absl12lts_202308026StrCatB5cxx11ERKNS0_8AlphaNumE = comdat any

$_ZN4absl12lts_202308028AlphaNumC2Em = comdat any

$_ZN4absl12lts_2023080218container_internal12raw_hash_mapINS1_17FlatHashMapPolicyISt17basic_string_viewIcSt11char_traitsIcEENSt7__cxx1112basic_stringIcS6_SaIcEEEEENS1_10StringHashENS1_8StringEqESaISt4pairIKS7_SB_EEEixIA15_cSC_EEDTclsrT0_5valueclL_ZSt9addressofISH_EPT_RSO_EclL_ZSt7declvalIRSH_EDTcl9__declvalISO_ELi0EEEvEEEEERKSO_ = comdat any

$_ZNK6google8protobuf15FieldDescriptor9full_nameB5cxx11Ev = comdat any

$_ZN4absl12lts_2023080218container_internal12raw_hash_mapINS1_17FlatHashMapPolicyISt17basic_string_viewIcSt11char_traitsIcEENSt7__cxx1112basic_stringIcS6_SaIcEEEEENS1_10StringHashENS1_8StringEqESaISt4pairIKS7_SB_EEEixIA10_cSC_EEDTclsrT0_5valueclL_ZSt9addressofISH_EPT_RSO_EclL_ZSt7declvalIRSH_EDTcl9__declvalISO_ELi0EEEvEEEEERKSO_ = comdat any

$_ZN6google8protobuf8compiler3cpp15MakeDefaultNameB5cxx11EPKNS0_15FieldDescriptorE = comdat any

$_ZN4absl12lts_2023080218container_internal12raw_hash_mapINS1_17FlatHashMapPolicyISt17basic_string_viewIcSt11char_traitsIcEENSt7__cxx1112basic_stringIcS6_SaIcEEEEENS1_10StringHashENS1_8StringEqESaISt4pairIKS7_SB_EEEixIA22_cSC_EEDTclsrT0_5valueclL_ZSt9addressofISH_EPT_RSO_EclL_ZSt7declvalIRSH_EDTcl9__declvalISO_ELi0EEEvEEEEERKSO_ = comdat any

$_ZN6google8protobuf8compiler3cpp20MakeDefaultFieldNameB5cxx11EPKNS0_15FieldDescriptorE = comdat any

$_ZN4absl12lts_2023080218container_internal12raw_hash_mapINS1_17FlatHashMapPolicyISt17basic_string_viewIcSt11char_traitsIcEENSt7__cxx1112basic_stringIcS6_SaIcEEEEENS1_10StringHashENS1_8StringEqESaISt4pairIKS7_SB_EEEixIA23_cSC_EEDTclsrT0_5valueclL_ZSt9addressofISH_EPT_RSO_EclL_ZSt7declvalIRSH_EDTcl9__declvalISO_ELi0EEEvEEEEERKSO_ = comdat any

$_ZN6google8protobuf8compiler3cpp17ProtobufNamespaceERKNS2_7OptionsE = comdat any

$_ZN4absl12lts_202308028AlphaNumC2ESt17basic_string_viewIcSt11char_traitsIcEE = comdat any

$_ZNK6google8protobuf15FieldDescriptor15containing_typeEv = comdat any

$_ZN4absl12lts_2023080218container_internal12raw_hash_mapINS1_17FlatHashMapPolicyISt17basic_string_viewIcSt11char_traitsIcEENSt7__cxx1112basic_stringIcS6_SaIcEEEEENS1_10StringHashENS1_8StringEqESaISt4pairIKS7_SB_EEEixIA17_cSC_EEDTclsrT0_5valueclL_ZSt9addressofISH_EPT_RSO_EclL_ZSt7declvalIRSH_EDTcl9__declvalISO_ELi0EEEvEEEEERKSO_ = comdat any

$_ZN4absl12lts_2023080218NullSafeStringViewEPKc = comdat any

$_ZNSt17basic_string_viewIcSt11char_traitsIcEEC2EPKc = comdat any

$_ZNSt17basic_string_viewIcSt11char_traitsIcEEC2Ev = comdat any

$_ZNSt11char_traitsIcE6lengthEPKc = comdat any

$__clang_call_terminate = comdat any

$_ZN4absl12lts_2023080218container_internal17FlatHashMapPolicyISt17basic_string_viewIcSt11char_traitsIcEENSt7__cxx1112basic_stringIcS5_SaIcEEEE5valueEPSt4pairIKS6_SA_E = comdat any

$_ZN4absl12lts_2023080218container_internal12raw_hash_mapINS1_17FlatHashMapPolicyISt17basic_string_viewIcSt11char_traitsIcEENSt7__cxx1112basic_stringIcS6_SaIcEEEEENS1_10StringHashENS1_8StringEqESaISt4pairIKS7_SB_EEE11try_emplaceIA8_cJETnNSt9enable_ifIXntsr3std14is_convertibleIT_NS1_12raw_hash_setISC_SD_SE_SI_E14const_iteratorEEE5valueEiE4typeELi0EEESF_INSP_8iteratorEbERKSN_DpOT0_ = comdat any

$_ZNK4absl12lts_2023080218container_internal12raw_hash_setINS1_17FlatHashMapPolicyISt17basic_string_viewIcSt11char_traitsIcEENSt7__cxx1112basic_stringIcS6_SaIcEEEEENS1_10StringHashENS1_8StringEqESaISt4pairIKS7_SB_EEE8iteratordeEv = comdat any

$_ZN4absl12lts_2023080218container_internal12raw_hash_mapINS1_17FlatHashMapPolicyISt17basic_string_viewIcSt11char_traitsIcEENSt7__cxx1112basic_stringIcS6_SaIcEEEEENS1_10StringHashENS1_8StringEqESaISt4pairIKS7_SB_EEE16try_emplace_implIRA8_KcJEEESF_INS1_12raw_hash_setISC_SD_SE_SI_E8iteratorEbEOT_DpOT0_ = comdat any

$_ZN4absl12lts_2023080218container_internal12raw_hash_setINS1_17FlatHashMapPolicyISt17basic_string_viewIcSt11char_traitsIcEENSt7__cxx1112basic_stringIcS6_SaIcEEEEENS1_10StringHashENS1_8StringEqESaISt4pairIKS7_SB_EEE22find_or_prepare_insertIA8_cEESF_ImbERKT_ = comdat any

$_ZN4absl12lts_2023080218container_internal12raw_hash_setINS1_17FlatHashMapPolicyISt17basic_string_viewIcSt11char_traitsIcEENSt7__cxx1112basic_stringIcS6_SaIcEEEEENS1_10StringHashENS1_8StringEqESaISt4pairIKS7_SB_EEE10emplace_atIJRKSt21piecewise_construct_tSt5tupleIJRA8_KcEESO_IJEEEEEvmDpOT_ = comdat any

$_ZSt16forward_as_tupleIJRA8_KcEESt5tupleIJDpOT_EES6_ = comdat any

$_ZSt16forward_as_tupleIJEESt5tupleIJDpOT_EES3_ = comdat any

$_ZN4absl12lts_2023080218container_internal12raw_hash_setINS1_17FlatHashMapPolicyISt17basic_string_viewIcSt11char_traitsIcEENSt7__cxx1112basic_stringIcS6_SaIcEEEEENS1_10StringHashENS1_8StringEqESaISt4pairIKS7_SB_EEE11iterator_atEm = comdat any

$_ZNSt4pairIN4absl12lts_2023080218container_internal12raw_hash_setINS2_17FlatHashMapPolicyISt17basic_string_viewIcSt11char_traitsIcEENSt7__cxx1112basic_stringIcS7_SaIcEEEEENS2_10StringHashENS2_8StringEqESaIS_IKS8_SC_EEE8iteratorEbEC2ISK_RbTnNSt9enable_ifIXaaclsr5_PCCPE22_MoveConstructiblePairIT_T0_EEclsr5_PCCPE30_ImplicitlyMoveConvertiblePairISP_SQ_EEEbE4typeELb1EEEOSP_OSQ_ = comdat any

$_ZNK4absl12lts_2023080218container_internal12raw_hash_setINS1_17FlatHashMapPolicyISt17basic_string_viewIcSt11char_traitsIcEENSt7__cxx1112basic_stringIcS6_SaIcEEEEENS1_10StringHashENS1_8StringEqESaISt4pairIKS7_SB_EEE19prefetch_heap_blockEv = comdat any

$_ZN4absl12lts_2023080218container_internal12raw_hash_setINS1_17FlatHashMapPolicyISt17basic_string_viewIcSt11char_traitsIcEENSt7__cxx1112basic_stringIcS6_SaIcEEEEENS1_10StringHashENS1_8StringEqESaISt4pairIKS7_SB_EEE8hash_refEv = comdat any

$_ZNK4absl12lts_2023080218container_internal10StringHashclESt17basic_string_viewIcSt11char_traitsIcEE = comdat any

$_ZN4absl12lts_2023080218container_internal5probeERKNS1_12CommonFieldsEm = comdat any

$_ZN4absl12lts_2023080218container_internal12raw_hash_setINS1_17FlatHashMapPolicyISt17basic_string_viewIcSt11char_traitsIcEENSt7__cxx1112basic_stringIcS6_SaIcEEEEENS1_10StringHashENS1_8StringEqESaISt4pairIKS7_SB_EEE6commonEv = comdat any

$_ZNK4absl12lts_2023080218container_internal12raw_hash_setINS1_17FlatHashMapPolicyISt17basic_string_viewIcSt11char_traitsIcEENSt7__cxx1112basic_stringIcS6_SaIcEEEEENS1_10StringHashENS1_8StringEqESaISt4pairIKS7_SB_EEE7controlEv = comdat any

$_ZNK4absl12lts_2023080218container_internal9probe_seqILm16EE6offsetEv = comdat any

$_ZN4absl12lts_2023080218container_internal13GroupSse2ImplC2EPKNS1_6ctrl_tE = comdat any

$_ZNK4absl12lts_2023080218container_internal13GroupSse2Impl5MatchEh = comdat any

$_ZN4absl12lts_2023080218container_internal2H2Em = comdat any

$_ZNK4absl12lts_2023080218container_internal7BitMaskIjLi16ELi0EE5beginEv = comdat any

$_ZNK4absl12lts_2023080218container_internal7BitMaskIjLi16ELi0EE3endEv = comdat any

$_ZN4absl12lts_2023080218container_internalneERKNS1_7BitMaskIjLi16ELi0EEES5_ = comdat any

$_ZNK4absl12lts_2023080218container_internal7BitMaskIjLi16ELi0EEdeEv = comdat any

$_ZN4absl12lts_2023080218container_internal18hash_policy_traitsINS1_17FlatHashMapPolicyISt17basic_string_viewIcSt11char_traitsIcEENSt7__cxx1112basic_stringIcS6_SaIcEEEEEvE5applyINS1_12raw_hash_setISC_NS1_10StringHashENS1_8StringEqESaISt4pairIKS7_SB_EEE12EqualElementIA8_cEEJRSK_ESC_EEDTclsrT1_5applyclsr3stdE7forwardIT_Efp_Espclsr3stdE7forwardIT0_Efp0_EEEOSS_DpOST_ = comdat any

$_ZN4absl12lts_2023080218container_internal12raw_hash_setINS1_17FlatHashMapPolicyISt17basic_string_viewIcSt11char_traitsIcEENSt7__cxx1112basic_stringIcS6_SaIcEEEEENS1_10StringHashENS1_8StringEqESaISt4pairIKS7_SB_EEE6eq_refEv = comdat any

$_ZN4absl12lts_2023080218container_internal20common_policy_traitsINS1_17FlatHashMapPolicyISt17basic_string_viewIcSt11char_traitsIcEENSt7__cxx1112basic_stringIcS6_SaIcEEEEEvE7elementISC_EEDTclsrT_7elementfp_EEPNS1_13map_slot_typeIS7_SB_EE = comdat any

$_ZNK4absl12lts_2023080218container_internal12raw_hash_setINS1_17FlatHashMapPolicyISt17basic_string_viewIcSt11char_traitsIcEENSt7__cxx1112basic_stringIcS6_SaIcEEEEENS1_10StringHashENS1_8StringEqESaISt4pairIKS7_SB_EEE10slot_arrayEv = comdat any

$_ZNK4absl12lts_2023080218container_internal9probe_seqILm16EE6offsetEm = comdat any

$_ZNSt4pairImbEC2ImbTnNSt9enable_ifIXaaclsr5_PCCPE22_MoveConstructiblePairIT_T0_EEclsr5_PCCPE30_ImplicitlyMoveConvertiblePairIS3_S4_EEEbE4typeELb1EEEOS3_OS4_ = comdat any

$_ZN4absl12lts_2023080218container_internal7BitMaskIjLi16ELi0EEppEv = comdat any

$_ZNK4absl12lts_2023080218container_internal13GroupSse2Impl9MaskEmptyEv = comdat any

$_ZNK4absl12lts_2023080218container_internal18NonIterableBitMaskIjLi16ELi0EEcvbEv = comdat any

$_ZN4absl12lts_2023080218container_internal9probe_seqILm16EE4nextEv = comdat any

$_ZN4absl12lts_2023080218container_internal12raw_hash_setINS1_17FlatHashMapPolicyISt17basic_string_viewIcSt11char_traitsIcEENSt7__cxx1112basic_stringIcS6_SaIcEEEEENS1_10StringHashENS1_8StringEqESaISt4pairIKS7_SB_EEE14prepare_insertEm = comdat any

$_ZNR4absl12lts_2023080218container_internal15CompressedTupleIJNS1_12CommonFieldsENS1_10StringHashENS1_8StringEqESaISt4pairIKSt17basic_string_viewIcSt11char_traitsIcEENSt7__cxx1112basic_stringIcS9_SaIcEEEEEEE3getILi1EEERNS1_25internal_compressed_tuple4ElemISI_XT_EE4typeEv = comdat any

$_ZNR4absl12lts_2023080218container_internal25internal_compressed_tuple7StorageINS1_10StringHashELm1ELb1EE3getEv = comdat any

$_ZNK4absl12lts_2023080213hash_internal8HashImplISt17basic_string_viewIcSt11char_traitsIcEEEclERKS6_ = comdat any

$_ZN4absl12lts_2023080213hash_internal15MixingHashState4hashISt17basic_string_viewIcSt11char_traitsIcEETnNSt9enable_ifIXntsr16IntegralFastPathIT_EE5valueEiE4typeELi0EEEmRKS9_ = comdat any

$_ZN4absl12lts_2023080213hash_internal13HashStateBaseINS1_15MixingHashStateEE7combineISt17basic_string_viewIcSt11char_traitsIcEEJEEES3_S3_RKT_DpRKT0_ = comdat any

$_ZN4absl12lts_2023080213hash_internal15MixingHashStateC2Ev = comdat any

$_ZN4absl12lts_2023080213hash_internal13HashStateBaseINS1_15MixingHashStateEE7combineES3_ = comdat any

$_ZN4absl12lts_2023080213hash_internal10HashSelect14HashValueProbe6InvokeINS1_15MixingHashStateESt17basic_string_viewIcSt11char_traitsIcEEEENSt9enable_ifIXsr3std7is_sameIT_DTcl13AbslHashValueclsr3stdE4movefp_Efp0_EEEE5valueESB_E4typeESB_RKT0_ = comdat any

$_ZN4absl12lts_2023080213hash_internal13AbslHashValueINS1_15MixingHashStateEEET_S4_St17basic_string_viewIcSt11char_traitsIcEE = comdat any

$_ZN4absl12lts_2023080213hash_internal13HashStateBaseINS1_15MixingHashStateEE7combineImJEEES3_S3_RKT_DpRKT0_ = comdat any

$_ZN4absl12lts_2023080213hash_internal13HashStateBaseINS1_15MixingHashStateEE18combine_contiguousIcEES3_S3_PKT_m = comdat any

$_ZNKSt17basic_string_viewIcSt11char_traitsIcEE4dataEv = comdat any

$_ZNKSt17basic_string_viewIcSt11char_traitsIcEE4sizeEv = comdat any

$_ZN4absl12lts_2023080213hash_internal10HashSelect24UniquelyRepresentedProbe6InvokeINS1_15MixingHashStateEmEENSt9enable_ifIXsr23is_uniquely_representedIT0_EE5valueET_E4typeES8_RKS7_ = comdat any

$_ZN4absl12lts_2023080213hash_internal10hash_bytesINS1_15MixingHashStateEmEET_S4_RKT0_ = comdat any

$_ZN4absl12lts_2023080213hash_internal15MixingHashState18combine_contiguousES2_PKhm = comdat any

$_ZN4absl12lts_2023080213hash_internal15MixingHashState21CombineContiguousImplEmPKhmSt17integral_constantIiLi8EE = comdat any

$_ZN4absl12lts_2023080213hash_internal15MixingHashStateC2Em = comdat any

$_ZN4absl12lts_2023080213hash_internal18PiecewiseChunkSizeEv = comdat any

$_ZN4absl12lts_2023080213hash_internal15MixingHashState9Read9To16EPKhm = comdat any

$_ZN4absl12lts_202308024rotrImEENSt9enable_ifIXsr3std11is_unsignedIT_EE5valueES3_E4typeES3_i = comdat any

$_ZN4absl12lts_2023080213hash_internal15MixingHashState8Read4To8EPKhm = comdat any

$_ZN4absl12lts_2023080213hash_internal15MixingHashState8Read1To3EPKhm = comdat any

$_ZN4absl12lts_2023080213base_internal15UnalignedLoad64EPKv = comdat any

$_ZNSt4pairImmEC2IRmS2_TnNSt9enable_ifIXaaclsr5_PCCPE22_MoveConstructiblePairIT_T0_EEclsr5_PCCPE30_ImplicitlyMoveConvertiblePairIS4_S5_EEEbE4typeELb1EEEOS4_OS5_ = comdat any

$_ZN4absl12lts_2023080213base_internal15UnalignedLoad32EPKv = comdat any

$_ZN4absl12lts_2023080213hash_internal19hash_range_or_bytesINS1_15MixingHashStateEcEENSt9enable_ifIXsr23is_uniquely_representedIT0_EE5valueET_E4typeES6_PKS5_m = comdat any

$_ZN4absl12lts_2023080218container_internal5probeEPKNS1_6ctrl_tEmm = comdat any

$_ZNK4absl12lts_2023080218container_internal12CommonFields7controlEv = comdat any

$_ZNK4absl12lts_2023080218container_internal12CommonFields8capacityEv = comdat any

$_ZN4absl12lts_2023080218container_internal2H1EmPKNS1_6ctrl_tE = comdat any

$_ZN4absl12lts_2023080218container_internal9probe_seqILm16EEC2Emm = comdat any

$_ZN4absl12lts_2023080218container_internal12PerTableSaltEPKNS1_6ctrl_tE = comdat any

$_ZNR4absl12lts_2023080218container_internal15CompressedTupleIJNS1_12CommonFieldsENS1_10StringHashENS1_8StringEqESaISt4pairIKSt17basic_string_viewIcSt11char_traitsIcEENSt7__cxx1112basic_stringIcS9_SaIcEEEEEEE3getILi0EEERNS1_25internal_compressed_tuple4ElemISI_XT_EE4typeEv = comdat any

$_ZNR4absl12lts_2023080218container_internal25internal_compressed_tuple7StorageINS1_12CommonFieldsELm0ELb0EE3getEv = comdat any

$_ZNK4absl12lts_2023080218container_internal12raw_hash_setINS1_17FlatHashMapPolicyISt17basic_string_viewIcSt11char_traitsIcEENSt7__cxx1112basic_stringIcS6_SaIcEEEEENS1_10StringHashENS1_8StringEqESaISt4pairIKS7_SB_EEE6commonEv = comdat any

$_ZNKR4absl12lts_2023080218container_internal15CompressedTupleIJNS1_12CommonFieldsENS1_10StringHashENS1_8StringEqESaISt4pairIKSt17basic_string_viewIcSt11char_traitsIcEENSt7__cxx1112basic_stringIcS9_SaIcEEEEEEE3getILi0EEERKNS1_25internal_compressed_tuple4ElemISI_XT_EE4typeEv = comdat any

$_ZNKR4absl12lts_2023080218container_internal25internal_compressed_tuple7StorageINS1_12CommonFieldsELm0ELb0EE3getEv = comdat any

$_ZN4absl12lts_2023080218container_internal7BitMaskIjLi16ELi0EEC2Ej = comdat any

$_ZNK4absl12lts_2023080218container_internal18NonIterableBitMaskIjLi16ELi0EE12LowestBitSetEv = comdat any

$_ZN4absl12lts_2023080218container_internal13TrailingZerosIjEEjT_ = comdat any

$_ZN4absl12lts_2023080211countr_zeroIjEENSt9enable_ifIXsr3std11is_unsignedIT_EE5valueEiE4typeES3_ = comdat any

$_ZN4absl12lts_2023080218container_internal17FlatHashMapPolicyISt17basic_string_viewIcSt11char_traitsIcEENSt7__cxx1112basic_stringIcS5_SaIcEEEE5applyINS1_12raw_hash_setISB_NS1_10StringHashENS1_8StringEqESaISt4pairIKS6_SA_EEE12EqualElementIA8_cEEJRSI_EEEDTclsr4absl18container_internalE13DecomposePairclsr3stdE7declvalIT_EEspclsr3stdE7declvalIT0_EEEEOSP_DpOSQ_ = comdat any

$_ZN4absl12lts_2023080218container_internal13DecomposePairINS1_12raw_hash_setINS1_17FlatHashMapPolicyISt17basic_string_viewIcSt11char_traitsIcEENSt7__cxx1112basic_stringIcS7_SaIcEEEEENS1_10StringHashENS1_8StringEqESaISt4pairIKS8_SC_EEE12EqualElementIA8_cEEJRSI_EEEDTclsr15memory_internalE17DecomposePairImplclsr3stdE7forwardIT_Efp_Ecl8PairArgsspclsr3stdE7forwardIT0_Efp0_EEEEOSP_DpOSQ_ = comdat any

$_ZN4absl12lts_2023080218container_internal15memory_internal17DecomposePairImplINS1_12raw_hash_setINS1_17FlatHashMapPolicyISt17basic_string_viewIcSt11char_traitsIcEENSt7__cxx1112basic_stringIcS8_SaIcEEEEENS1_10StringHashENS1_8StringEqESaISt4pairIKS9_SD_EEE12EqualElementIA8_cEERSI_St5tupleIJRKSD_EEEEDTclclsr3stdE7declvalIT_EEclsr3stdE7declvalIRKT0_EEL_ZSt19piecewise_constructEclsr3stdE7declvalISQ_IJSV_EEEEclsr3stdE7declvalIT1_EEEEOSU_SH_ISY_SZ_E = comdat any

$_ZN4absl12lts_2023080218container_internal8PairArgsIKSt17basic_string_viewIcSt11char_traitsIcEENSt7__cxx1112basic_stringIcS5_SaIcEEEEESt4pairISt5tupleIJRKT_EESD_IJRKT0_EEERKSC_ISE_SI_E = comdat any

$_ZSt3getILm0EJRKSt17basic_string_viewIcSt11char_traitsIcEEEERNSt13tuple_elementIXT_ESt5tupleIJDpT0_EEE4typeERSA_ = comdat any

$_ZNK4absl12lts_2023080218container_internal12raw_hash_setINS1_17FlatHashMapPolicyISt17basic_string_viewIcSt11char_traitsIcEENSt7__cxx1112basic_stringIcS6_SaIcEEEEENS1_10StringHashENS1_8StringEqESaISt4pairIKS7_SB_EEE12EqualElementIA8_cEclIS7_JRKSt21piecewise_construct_tSt5tupleIJRSG_EESR_IJRKSB_EEEEEbRKT_DpOT0_ = comdat any

$_ZSt12__get_helperILm0ERKSt17basic_string_viewIcSt11char_traitsIcEEJEERT0_RSt11_Tuple_implIXT_EJS6_DpT1_EE = comdat any

$_ZNSt11_Tuple_implILm0EJRKSt17basic_string_viewIcSt11char_traitsIcEEEE7_M_headERS6_ = comdat any

$_ZNSt10_Head_baseILm0ERKSt17basic_string_viewIcSt11char_traitsIcEELb0EE7_M_headERS6_ = comdat any

$_ZNK4absl12lts_2023080218container_internal8StringEqclESt17basic_string_viewIcSt11char_traitsIcEES6_ = comdat any

$_ZSteqIcSt11char_traitsIcEEbSt17basic_string_viewIT_T0_ES5_ = comdat any

$_ZNKSt17basic_string_viewIcSt11char_traitsIcEE7compareES2_ = comdat any

$_ZSt3minImERKT_S2_S2_ = comdat any

$_ZNSt11char_traitsIcE7compareEPKcS2_m = comdat any

$_ZNSt17basic_string_viewIcSt11char_traitsIcEE10_S_compareEmm = comdat any

$_ZN4absl12lts_2023080218container_internal8PairArgsIRKSt17basic_string_viewIcSt11char_traitsIcEERKNSt7__cxx1112basic_stringIcS5_SaIcEEEEESt4pairISt5tupleIJOT_EESG_IJOT0_EEESI_SL_ = comdat any

$_ZSt16forward_as_tupleIJRKSt17basic_string_viewIcSt11char_traitsIcEEEESt5tupleIJDpOT_EES9_ = comdat any

$_ZSt16forward_as_tupleIJRKNSt7__cxx1112basic_stringIcSt11char_traitsIcESaIcEEEEESt5tupleIJDpOT_EESB_ = comdat any

$_ZNSt4pairISt5tupleIJRKSt17basic_string_viewIcSt11char_traitsIcEEEES0_IJRKNSt7__cxx1112basic_stringIcS3_SaIcEEEEEEC2IJS6_EJSD_EEESt21piecewise_construct_tS0_IJDpT_EES0_IJDpT0_EE = comdat any

$_ZNSt5tupleIJRKSt17basic_string_viewIcSt11char_traitsIcEEEEC2ILb1ETnNSt9enable_ifIXclsr4_TCCIXT_EEE29__is_implicitly_constructibleIS5_EEEbE4typeELb1EEES5_ = comdat any

$_ZNSt11_Tuple_implILm0EJRKSt17basic_string_viewIcSt11char_traitsIcEEEEC2ES5_ = comdat any

$_ZNSt10_Head_baseILm0ERKSt17basic_string_viewIcSt11char_traitsIcEELb0EEC2ES5_ = comdat any

$_ZNSt5tupleIJRKNSt7__cxx1112basic_stringIcSt11char_traitsIcESaIcEEEEEC2ILb1ETnNSt9enable_ifIXclsr4_TCCIXT_EEE29__is_implicitly_constructibleIS7_EEEbE4typeELb1EEES7_ = comdat any

$_ZNSt11_Tuple_implILm0EJRKNSt7__cxx1112basic_stringIcSt11char_traitsIcESaIcEEEEEC2ES7_ = comdat any

$_ZNSt10_Head_baseILm0ERKNSt7__cxx1112basic_stringIcSt11char_traitsIcESaIcEEELb0EEC2ES7_ = comdat any

$_ZNSt4pairISt5tupleIJRKSt17basic_string_viewIcSt11char_traitsIcEEEES0_IJRKNSt7__cxx1112basic_stringIcS3_SaIcEEEEEEC2IJS6_EJLm0EEJSD_EJLm0EEEERS0_IJDpT_EERS0_IJDpT1_EESt12_Index_tupleIJXspT0_EEESP_IJXspT2_EEE = comdat any

$_ZSt3getILm0EJRKNSt7__cxx1112basic_stringIcSt11char_traitsIcESaIcEEEEERNSt13tuple_elementIXT_ESt5tupleIJDpT0_EEE4typeERSC_ = comdat any

$_ZSt12__get_helperILm0ERKNSt7__cxx1112basic_stringIcSt11char_traitsIcESaIcEEEJEERT0_RSt11_Tuple_implIXT_EJS8_DpT1_EE = comdat any

$_ZNSt11_Tuple_implILm0EJRKNSt7__cxx1112basic_stringIcSt11char_traitsIcESaIcEEEEE7_M_headERS8_ = comdat any

$_ZNSt10_Head_baseILm0ERKNSt7__cxx1112basic_stringIcSt11char_traitsIcESaIcEEELb0EE7_M_headERS8_ = comdat any

$_ZNR4absl12lts_2023080218container_internal15CompressedTupleIJNS1_12CommonFieldsENS1_10StringHashENS1_8StringEqESaISt4pairIKSt17basic_string_viewIcSt11char_traitsIcEENSt7__cxx1112basic_stringIcS9_SaIcEEEEEEE3getILi2EEERNS1_25internal_compressed_tuple4ElemISI_XT_EE4typeEv = comdat any

$_ZNR4absl12lts_2023080218container_internal25internal_compressed_tuple7StorageINS1_8StringEqELm2ELb1EE3getEv = comdat any

$_ZN4absl12lts_2023080218container_internal17FlatHashMapPolicyISt17basic_string_viewIcSt11char_traitsIcEENSt7__cxx1112basic_stringIcS5_SaIcEEEE7elementEPNS1_13map_slot_typeIS6_SA_EE = comdat any

$_ZNK4absl12lts_2023080218container_internal12CommonFields10slot_arrayEv = comdat any

$_ZN4absl12lts_2023080218container_internal18NonIterableBitMaskIjLi16ELi0EEC2Ej = comdat any

$_ZNK4absl12lts_2023080218container_internal12CommonFields41should_rehash_for_bug_detection_on_insertEv = comdat any

$_ZNK4absl12lts_2023080218container_internal12raw_hash_setINS1_17FlatHashMapPolicyISt17basic_string_viewIcSt11char_traitsIcEENSt7__cxx1112basic_stringIcS6_SaIcEEEEENS1_10StringHashENS1_8StringEqESaISt4pairIKS7_SB_EEE8capacityEv = comdat any

$_ZN4absl12lts_2023080218container_internal12raw_hash_setINS1_17FlatHashMapPolicyISt17basic_string_viewIcSt11char_traitsIcEENSt7__cxx1112basic_stringIcS6_SaIcEEEEENS1_10StringHashENS1_8StringEqESaISt4pairIKS7_SB_EEE6resizeEm = comdat any

$_ZNK4absl12lts_2023080218container_internal12raw_hash_setINS1_17FlatHashMapPolicyISt17basic_string_viewIcSt11char_traitsIcEENSt7__cxx1112basic_stringIcS6_SaIcEEEEENS1_10StringHashENS1_8StringEqESaISt4pairIKS7_SB_EEE11growth_leftEv = comdat any

$_ZN4absl12lts_2023080218container_internal12NextCapacityEm = comdat any

$_ZN4absl12lts_2023080218container_internal9IsDeletedENS1_6ctrl_tE = comdat any

$_ZN4absl12lts_2023080218container_internal12raw_hash_setINS1_17FlatHashMapPolicyISt17basic_string_viewIcSt11char_traitsIcEENSt7__cxx1112basic_stringIcS6_SaIcEEEEENS1_10StringHashENS1_8StringEqESaISt4pairIKS7_SB_EEE28rehash_and_grow_if_necessaryEv = comdat any

$_ZN4absl12lts_2023080218container_internal12CommonFields8set_sizeEm = comdat any

$_ZNK4absl12lts_2023080218container_internal12CommonFields4sizeEv = comdat any

$_ZN4absl12lts_2023080218container_internal12raw_hash_setINS1_17FlatHashMapPolicyISt17basic_string_viewIcSt11char_traitsIcEENSt7__cxx1112basic_stringIcS6_SaIcEEEEENS1_10StringHashENS1_8StringEqESaISt4pairIKS7_SB_EEE15set_growth_leftEm = comdat any

$_ZN4absl12lts_2023080218container_internal7IsEmptyENS1_6ctrl_tE = comdat any

$_ZN4absl12lts_2023080218container_internal7SetCtrlERKNS1_12CommonFieldsEmhm = comdat any

$_ZN4absl12lts_2023080218container_internal34CommonFieldsGenerationInfoDisabled36maybe_increment_generation_on_insertEv = comdat any

$_ZN4absl12lts_2023080218container_internal12raw_hash_setINS1_17FlatHashMapPolicyISt17basic_string_viewIcSt11char_traitsIcEENSt7__cxx1112basic_stringIcS6_SaIcEEEEENS1_10StringHashENS1_8StringEqESaISt4pairIKS7_SB_EEE5infozEv = comdat any

$_ZN4absl12lts_2023080218container_internal20HashtablezInfoHandle12RecordInsertEmm = comdat any

$_ZNK4absl12lts_2023080218container_internal34CommonFieldsGenerationInfoDisabled41should_rehash_for_bug_detection_on_insertEPKNS1_6ctrl_tEm = comdat any

$_ZN4absl12lts_2023080218container_internal12CommonFields12set_capacityEm = comdat any

$_ZN4absl12lts_2023080218container_internal12raw_hash_setINS1_17FlatHashMapPolicyISt17basic_string_viewIcSt11char_traitsIcEENSt7__cxx1112basic_stringIcS6_SaIcEEEEENS1_10StringHashENS1_8StringEqESaISt4pairIKS7_SB_EEE16initialize_slotsEv = comdat any

$_ZN4absl12lts_2023080218container_internal6IsFullENS1_6ctrl_tE = comdat any

$_ZN4absl12lts_2023080218container_internal18hash_policy_traitsINS1_17FlatHashMapPolicyISt17basic_string_viewIcSt11char_traitsIcEENSt7__cxx1112basic_stringIcS6_SaIcEEEEEvE5applyINS1_12raw_hash_setISC_NS1_10StringHashENS1_8StringEqESaISt4pairIKS7_SB_EEE11HashElementEJRSK_ESC_EEDTclsrT1_5applyclsr3stdE7forwardIT_Efp_Espclsr3stdE7forwardIT0_Efp0_EEEOSQ_DpOSR_ = comdat any

$_ZN4absl12lts_2023080218container_internal20common_policy_traitsINS1_17FlatHashMapPolicyISt17basic_string_viewIcSt11char_traitsIcEENSt7__cxx1112basic_stringIcS6_SaIcEEEEEvE8transferISaISt4pairIKS7_SB_EEEEvPT_PNS1_13map_slot_typeIS7_SB_EESN_ = comdat any

$_ZN4absl12lts_2023080218container_internal12raw_hash_setINS1_17FlatHashMapPolicyISt17basic_string_viewIcSt11char_traitsIcEENSt7__cxx1112basic_stringIcS6_SaIcEEEEENS1_10StringHashENS1_8StringEqESaISt4pairIKS7_SB_EEE9alloc_refEv = comdat any

$_ZN4absl12lts_2023080218container_internal29SanitizerUnpoisonMemoryRegionEPKvm = comdat any

$_ZN4absl12lts_2023080218container_internal10DeallocateILm8ESaISt4pairIKSt17basic_string_viewIcSt11char_traitsIcEENSt7__cxx1112basic_stringIcS6_SaIcEEEEEEEvPT0_Pvm = comdat any

$_ZN4absl12lts_2023080218container_internal13ControlOffsetEv = comdat any

$_ZN4absl12lts_2023080218container_internal9AllocSizeEmmm = comdat any

$_ZN4absl12lts_2023080218container_internal20HashtablezInfoHandle12RecordRehashEm = comdat any

$_ZN4absl12lts_2023080218container_internal15InitializeSlotsISaIcELm48ELm8EEEvRNS1_12CommonFieldsET_ = comdat any

$_ZNSaIcEC2ISt4pairIKSt17basic_string_viewIcSt11char_traitsIcEENSt7__cxx1112basic_stringIcS4_S_EEEEERKSaIT_E = comdat any

$_ZN4absl12lts_2023080218container_internal8AllocateILm8ESaIcEEEPvPT0_m = comdat any

$_ZNK4absl12lts_2023080218container_internal34CommonFieldsGenerationInfoDisabled10generationEv = comdat any

$_ZN4absl12lts_2023080218container_internal34CommonFieldsGenerationInfoDisabled18set_generation_ptrEPh = comdat any

$_ZN4absl12lts_2023080218container_internal16GenerationOffsetEm = comdat any

$_ZN4absl12lts_2023080218container_internal34CommonFieldsGenerationInfoDisabled14set_generationEh = comdat any

$_ZN4absl12lts_2023080218container_internal14NextGenerationEh = comdat any

$_ZN4absl12lts_2023080218container_internal12CommonFields11set_controlEPNS1_6ctrl_tE = comdat any

$_ZN4absl12lts_2023080218container_internal12CommonFields9set_slotsEPv = comdat any

$_ZN4absl12lts_2023080218container_internal10SlotOffsetEmm = comdat any

$_ZN4absl12lts_2023080218container_internal9ResetCtrlERNS1_12CommonFieldsEm = comdat any

$_ZN4absl12lts_2023080218container_internal6SampleEm = comdat any

$_ZN4absl12lts_2023080218container_internal12CommonFields5infozEv = comdat any

$_ZN4absl12lts_2023080218container_internal20HashtablezInfoHandle20RecordStorageChangedEmm = comdat any

$_ZNSaIN4absl12lts_2023080218container_internal11AlignedTypeILm8EEEEC2IcEERKSaIT_E = comdat any

$_ZNSt16allocator_traitsISaIN4absl12lts_2023080218container_internal11AlignedTypeILm8EEEEE8allocateERS5_m = comdat any

$_ZNSaIN4absl12lts_2023080218container_internal11AlignedTypeILm8EEEED2Ev = comdat any

$_ZNSt15__new_allocatorIN4absl12lts_2023080218container_internal11AlignedTypeILm8EEEEC2Ev = comdat any

$_ZNSt15__new_allocatorIN4absl12lts_2023080218container_internal11AlignedTypeILm8EEEE8allocateEmPKv = comdat any

$_ZNKSt15__new_allocatorIN4absl12lts_2023080218container_internal11AlignedTypeILm8EEEE11_M_max_sizeEv = comdat any

$_ZNSt15__new_allocatorIN4absl12lts_2023080218container_internal11AlignedTypeILm8EEEED2Ev = comdat any

$_ZN4absl12lts_2023080218container_internal14NumClonedBytesEv = comdat any

$_ZN4absl12lts_2023080218container_internal23SentinelEmptyGenerationEv = comdat any

$_ZN4absl12lts_2023080218container_internal18NumGenerationBytesEv = comdat any

$_ZN4absl12lts_2023080218container_internal27SanitizerPoisonMemoryRegionEPKvm = comdat any

$_ZN4absl12lts_2023080218container_internal15ResetGrowthLeftERNS1_12CommonFieldsE = comdat any

$_ZN4absl12lts_2023080218container_internal12CommonFields15set_growth_leftEm = comdat any

$_ZN4absl12lts_2023080218container_internal16CapacityToGrowthEm = comdat any

$_ZNK4absl12lts_2023080218container_internal12CommonFields19backing_array_startEv = comdat any

$_ZN4absl12lts_2023080218container_internal20HashtablezInfoHandleC2EDn = comdat any

$_ZNR4absl12lts_2023080218container_internal15CompressedTupleIJmNS1_20HashtablezInfoHandleEEE3getILi1EEERNS1_25internal_compressed_tuple4ElemIS4_XT_EE4typeEv = comdat any

$_ZNR4absl12lts_2023080218container_internal25internal_compressed_tuple7StorageINS1_20HashtablezInfoHandleELm1ELb1EE3getEv = comdat any

$_ZNSt15__new_allocatorIcEC2Ev = comdat any

$_ZN4absl12lts_2023080218container_internal17FlatHashMapPolicyISt17basic_string_viewIcSt11char_traitsIcEENSt7__cxx1112basic_stringIcS5_SaIcEEEE5applyINS1_12raw_hash_setISB_NS1_10StringHashENS1_8StringEqESaISt4pairIKS6_SA_EEE11HashElementEJRSI_EEEDTclsr4absl18container_internalE13DecomposePairclsr3stdE7declvalIT_EEspclsr3stdE7declvalIT0_EEEEOSN_DpOSO_ = comdat any

$_ZN4absl12lts_2023080218container_internal13DecomposePairINS1_12raw_hash_setINS1_17FlatHashMapPolicyISt17basic_string_viewIcSt11char_traitsIcEENSt7__cxx1112basic_stringIcS7_SaIcEEEEENS1_10StringHashENS1_8StringEqESaISt4pairIKS8_SC_EEE11HashElementEJRSI_EEEDTclsr15memory_internalE17DecomposePairImplclsr3stdE7forwardIT_Efp_Ecl8PairArgsspclsr3stdE7forwardIT0_Efp0_EEEEOSN_DpOSO_ = comdat any

$_ZN4absl12lts_2023080218container_internal15memory_internal17DecomposePairImplINS1_12raw_hash_setINS1_17FlatHashMapPolicyISt17basic_string_viewIcSt11char_traitsIcEENSt7__cxx1112basic_stringIcS8_SaIcEEEEENS1_10StringHashENS1_8StringEqESaISt4pairIKS9_SD_EEE11HashElementERSI_St5tupleIJRKSD_EEEEDTclclsr3stdE7declvalIT_EEclsr3stdE7declvalIRKT0_EEL_ZSt19piecewise_constructEclsr3stdE7declvalISO_IJST_EEEEclsr3stdE7declvalIT1_EEEEOSS_SH_ISW_SX_E = comdat any

$_ZNK4absl12lts_2023080218container_internal12raw_hash_setINS1_17FlatHashMapPolicyISt17basic_string_viewIcSt11char_traitsIcEENSt7__cxx1112basic_stringIcS6_SaIcEEEEENS1_10StringHashENS1_8StringEqESaISt4pairIKS7_SB_EEE11HashElementclIS7_JRKSt21piecewise_construct_tSt5tupleIJRSG_EESP_IJRKSB_EEEEEmRKT_DpOT0_ = comdat any

$_ZN4absl12lts_2023080218container_internal20common_policy_traitsINS1_17FlatHashMapPolicyISt17basic_string_viewIcSt11char_traitsIcEENSt7__cxx1112basic_stringIcS6_SaIcEEEEEvE13transfer_implISaISt4pairIKS7_SB_EESC_EEDTcvvclsrT0_8transferfp_fp0_fp1_EEPT_PNS1_13map_slot_typeIS7_SB_EESP_NSD_5Rank0E = comdat any

$_ZN4absl12lts_2023080218container_internal17FlatHashMapPolicyISt17basic_string_viewIcSt11char_traitsIcEENSt7__cxx1112basic_stringIcS5_SaIcEEEE8transferISaISt4pairIKS6_SA_EEEEvPT_PNS1_13map_slot_typeIS6_SA_EESL_ = comdat any

$_ZN4absl12lts_2023080218container_internal15map_slot_policyISt17basic_string_viewIcSt11char_traitsIcEENSt7__cxx1112basic_stringIcS5_SaIcEEEE8transferISaISt4pairIKS6_SA_EEEEvPT_PNS1_13map_slot_typeIS6_SA_EESL_ = comdat any

$_ZN4absl12lts_2023080218container_internal15map_slot_policyISt17basic_string_viewIcSt11char_traitsIcEENSt7__cxx1112basic_stringIcS5_SaIcEEEE7emplaceEPNS1_13map_slot_typeIS6_SA_EE = comdat any

$_ZNSt16allocator_traitsISaISt4pairIKSt17basic_string_viewIcSt11char_traitsIcEENSt7__cxx1112basic_stringIcS3_SaIcEEEEEE9constructIS0_IS4_S9_EJSE_EEEvRSB_PT_DpOT0_ = comdat any

$_ZN4absl12lts_2023080218container_internal15map_slot_policyISt17basic_string_viewIcSt11char_traitsIcEENSt7__cxx1112basic_stringIcS5_SaIcEEEE7destroyISaISt4pairIKS6_SA_EEEEvPT_PNS1_13map_slot_typeIS6_SA_EE = comdat any

$_ZN4absl12lts_2023080218container_internal13map_slot_typeISt17basic_string_viewIcSt11char_traitsIcEENSt7__cxx1112basic_stringIcS5_SaIcEEEEC2Ev = comdat any

$_ZNSt15__new_allocatorISt4pairIKSt17basic_string_viewIcSt11char_traitsIcEENSt7__cxx1112basic_stringIcS3_SaIcEEEEE9constructIS0_IS4_S9_EJSD_EEEvPT_DpOT0_ = comdat any

$_ZNSt4pairISt17basic_string_viewIcSt11char_traitsIcEENSt7__cxx1112basic_stringIcS2_SaIcEEEEC2EOS8_ = comdat any

$_ZNSt16allocator_traitsISaISt4pairIKSt17basic_string_viewIcSt11char_traitsIcEENSt7__cxx1112basic_stringIcS3_SaIcEEEEEE7destroyIS0_IS4_S9_EEEvRSB_PT_ = comdat any

$_ZNSt15__new_allocatorISt4pairIKSt17basic_string_viewIcSt11char_traitsIcEENSt7__cxx1112basic_stringIcS3_SaIcEEEEE7destroyIS0_IS4_S9_EEEvPT_ = comdat any

$_ZNSt4pairISt17basic_string_viewIcSt11char_traitsIcEENSt7__cxx1112basic_stringIcS2_SaIcEEEED2Ev = comdat any

$_ZNR4absl12lts_2023080218container_internal15CompressedTupleIJNS1_12CommonFieldsENS1_10StringHashENS1_8StringEqESaISt4pairIKSt17basic_string_viewIcSt11char_traitsIcEENSt7__cxx1112basic_stringIcS9_SaIcEEEEEEE3getILi3EEERNS1_25internal_compressed_tuple4ElemISI_XT_EE4typeEv = comdat any

$_ZNR4absl12lts_2023080218container_internal25internal_compressed_tuple7StorageISaISt4pairIKSt17basic_string_viewIcSt11char_traitsIcEENSt7__cxx1112basic_stringIcS7_SaIcEEEEELm3ELb1EE3getEv = comdat any

$_ZNSaIN4absl12lts_2023080218container_internal11AlignedTypeILm8EEEEC2ISt4pairIKSt17basic_string_viewIcSt11char_traitsIcEENSt7__cxx1112basic_stringIcS9_SaIcEEEEEERKSaIT_E = comdat any

$_ZNSt16allocator_traitsISaIN4absl12lts_2023080218container_internal11AlignedTypeILm8EEEEE10deallocateERS5_PS4_m = comdat any

$_ZNSt15__new_allocatorIN4absl12lts_2023080218container_internal11AlignedTypeILm8EEEE10deallocateEPS4_m = comdat any

$_ZNK4absl12lts_2023080218container_internal12CommonFields11growth_leftEv = comdat any

$_ZNK4absl12lts_2023080218container_internal12raw_hash_setINS1_17FlatHashMapPolicyISt17basic_string_viewIcSt11char_traitsIcEENSt7__cxx1112basic_stringIcS6_SaIcEEEEENS1_10StringHashENS1_8StringEqESaISt4pairIKS7_SB_EEE4sizeEv = comdat any

$_ZN4absl12lts_2023080218container_internal12raw_hash_setINS1_17FlatHashMapPolicyISt17basic_string_viewIcSt11char_traitsIcEENSt7__cxx1112basic_stringIcS6_SaIcEEEEENS1_10StringHashENS1_8StringEqESaISt4pairIKS7_SB_EEE27drop_deletes_without_resizeEv = comdat any

$_ZN4absl12lts_2023080218container_internal12raw_hash_setINS1_17FlatHashMapPolicyISt17basic_string_viewIcSt11char_traitsIcEENSt7__cxx1112basic_stringIcS6_SaIcEEEEENS1_10StringHashENS1_8StringEqESaISt4pairIKS7_SB_EEE18GetPolicyFunctionsEv = comdat any

$_ZN4absl12lts_2023080218container_internal12raw_hash_setINS1_17FlatHashMapPolicyISt17basic_string_viewIcSt11char_traitsIcEENSt7__cxx1112basic_stringIcS6_SaIcEEEEENS1_10StringHashENS1_8StringEqESaISt4pairIKS7_SB_EEE12hash_slot_fnEPvSK_ = comdat any

$_ZN4absl12lts_2023080218container_internal12raw_hash_setINS1_17FlatHashMapPolicyISt17basic_string_viewIcSt11char_traitsIcEENSt7__cxx1112basic_stringIcS6_SaIcEEEEENS1_10StringHashENS1_8StringEqESaISt4pairIKS7_SB_EEE16transfer_slot_fnEPvSK_SK_ = comdat any

$_ZN4absl12lts_2023080218container_internal18DeallocateStandardILm8EEEvRNS1_12CommonFieldsERKNS1_15PolicyFunctionsE = comdat any

$_ZN4absl12lts_2023080218container_internal10DeallocateILm8ESaIcEEEvPT0_Pvm = comdat any

$_ZNK4absl12lts_2023080218container_internal12CommonFields10alloc_sizeEmm = comdat any

$_ZNR4absl12lts_2023080218container_internal15CompressedTupleIJmNS1_20HashtablezInfoHandleEEE3getILi0EEERNS1_25internal_compressed_tuple4ElemIS4_XT_EE4typeEv = comdat any

$_ZNR4absl12lts_2023080218container_internal25internal_compressed_tuple7StorageImLm0ELb0EE3getEv = comdat any

$_ZNKR4absl12lts_2023080218container_internal15CompressedTupleIJmNS1_20HashtablezInfoHandleEEE3getILi0EEERKNS1_25internal_compressed_tuple4ElemIS4_XT_EE4typeEv = comdat any

$_ZNKR4absl12lts_2023080218container_internal25internal_compressed_tuple7StorageImLm0ELb0EE3getEv = comdat any

$_ZN4absl12lts_2023080218container_internal7SetCtrlERKNS1_12CommonFieldsEmNS1_6ctrl_tEm = comdat any

$_ZN4absl12lts_2023080218container_internal20common_policy_traitsINS1_17FlatHashMapPolicyISt17basic_string_viewIcSt11char_traitsIcEENSt7__cxx1112basic_stringIcS6_SaIcEEEEEvE9constructISaISt4pairIKS7_SB_EEJRKSt21piecewise_construct_tSt5tupleIJRA8_KcEESM_IJEEEEEvPT_PNS1_13map_slot_typeIS7_SB_EEDpOT0_ = comdat any

$_ZN4absl12lts_2023080218container_internal17FlatHashMapPolicyISt17basic_string_viewIcSt11char_traitsIcEENSt7__cxx1112basic_stringIcS5_SaIcEEEE9constructISaISt4pairIKS6_SA_EEJRKSt21piecewise_construct_tSt5tupleIJRA8_KcEESK_IJEEEEEvPT_PNS1_13map_slot_typeIS6_SA_EEDpOT0_ = comdat any

$_ZN4absl12lts_2023080218container_internal15map_slot_policyISt17basic_string_viewIcSt11char_traitsIcEENSt7__cxx1112basic_stringIcS5_SaIcEEEE9constructISaISt4pairIKS6_SA_EEJRKSt21piecewise_construct_tSt5tupleIJRA8_KcEESK_IJEEEEEvPT_PNS1_13map_slot_typeIS6_SA_EEDpOT0_ = comdat any

$_ZNSt16allocator_traitsISaISt4pairIKSt17basic_string_viewIcSt11char_traitsIcEENSt7__cxx1112basic_stringIcS3_SaIcEEEEEE9constructIS0_IS4_S9_EJRKSt21piecewise_construct_tSt5tupleIJRA8_KcEESI_IJEEEEEvRSB_PT_DpOT0_ = comdat any

$_ZNSt15__new_allocatorISt4pairIKSt17basic_string_viewIcSt11char_traitsIcEENSt7__cxx1112basic_stringIcS3_SaIcEEEEE9constructIS0_IS4_S9_EJRKSt21piecewise_construct_tSt5tupleIJRA8_KcEESH_IJEEEEEvPT_DpOT0_ = comdat any

$_ZNSt5tupleIJRA8_KcEEC2EOS3_ = comdat any

$_ZNSt4pairISt17basic_string_viewIcSt11char_traitsIcEENSt7__cxx1112basic_stringIcS2_SaIcEEEEC2IJRA8_KcEJEEESt21piecewise_construct_tSt5tupleIJDpT_EESE_IJDpT0_EE = comdat any

$_ZNSt11_Tuple_implILm0EJRA8_KcEEC2EOS3_ = comdat any

$_ZNSt4pairISt17basic_string_viewIcSt11char_traitsIcEENSt7__cxx1112basic_stringIcS2_SaIcEEEEC2IJRA8_KcEJLm0EEJETpTnmJEEERSt5tupleIJDpT_EERSD_IJDpT1_EESt12_Index_tupleIJXspT0_EEESM_IJXspT2_EEE = comdat any

$_ZSt3getILm0EJRA8_KcEERNSt13tuple_elementIXT_ESt5tupleIJDpT0_EEE4typeERS7_ = comdat any

$_ZSt12__get_helperILm0ERA8_KcJEERT0_RSt11_Tuple_implIXT_EJS3_DpT1_EE = comdat any

$_ZNSt11_Tuple_implILm0EJRA8_KcEE7_M_headERS3_ = comdat any

$_ZNSt10_Head_baseILm0ERA8_KcLb0EE7_M_headERS3_ = comdat any

$_ZNSt5tupleIJRA8_KcEEC2ILb1ETnNSt9enable_ifIXclsr4_TCCIXT_EEE29__is_implicitly_constructibleIS2_EEEbE4typeELb1EEES2_ = comdat any

$_ZNSt11_Tuple_implILm0EJRA8_KcEEC2ES2_ = comdat any

$_ZNSt10_Head_baseILm0ERA8_KcLb0EEC2ES2_ = comdat any

$_ZNK4absl12lts_2023080218container_internal34CommonFieldsGenerationInfoDisabled14generation_ptrEv = comdat any

$_ZN4absl12lts_2023080218container_internal12raw_hash_setINS1_17FlatHashMapPolicyISt17basic_string_viewIcSt11char_traitsIcEENSt7__cxx1112basic_stringIcS6_SaIcEEEEENS1_10StringHashENS1_8StringEqESaISt4pairIKS7_SB_EEE8iteratorC2EPNS1_6ctrl_tEPNS1_13map_slot_typeIS7_SB_EEPKh = comdat any

$_ZN4absl12lts_2023080218container_internal37HashSetIteratorGenerationInfoDisabledC2EPKh = comdat any

$_ZN4absl12lts_2023080218container_internal12AssertIsFullEPKNS1_6ctrl_tEhPKhPKc = comdat any

$_ZNK4absl12lts_2023080218container_internal37HashSetIteratorGenerationInfoDisabled10generationEv = comdat any

$_ZNK4absl12lts_2023080218container_internal37HashSetIteratorGenerationInfoDisabled14generation_ptrEv = comdat any

$_ZNK4absl12lts_202308028AlphaNum4dataEv = comdat any

$_ZNK4absl12lts_202308028AlphaNum4sizeEv = comdat any

$_ZNSt17basic_string_viewIcSt11char_traitsIcEEC2EPKcm = comdat any

$_ZN4absl12lts_2023080218container_internal12raw_hash_mapINS1_17FlatHashMapPolicyISt17basic_string_viewIcSt11char_traitsIcEENSt7__cxx1112basic_stringIcS6_SaIcEEEEENS1_10StringHashENS1_8StringEqESaISt4pairIKS7_SB_EEE11try_emplaceIA15_cJETnNSt9enable_ifIXntsr3std14is_convertibleIT_NS1_12raw_hash_setISC_SD_SE_SI_E14const_iteratorEEE5valueEiE4typeELi0EEESF_INSP_8iteratorEbERKSN_DpOT0_ = comdat any

$_ZN4absl12lts_2023080218container_internal12raw_hash_mapINS1_17FlatHashMapPolicyISt17basic_string_viewIcSt11char_traitsIcEENSt7__cxx1112basic_stringIcS6_SaIcEEEEENS1_10StringHashENS1_8StringEqESaISt4pairIKS7_SB_EEE16try_emplace_implIRA15_KcJEEESF_INS1_12raw_hash_setISC_SD_SE_SI_E8iteratorEbEOT_DpOT0_ = comdat any

$_ZN4absl12lts_2023080218container_internal12raw_hash_setINS1_17FlatHashMapPolicyISt17basic_string_viewIcSt11char_traitsIcEENSt7__cxx1112basic_stringIcS6_SaIcEEEEENS1_10StringHashENS1_8StringEqESaISt4pairIKS7_SB_EEE22find_or_prepare_insertIA15_cEESF_ImbERKT_ = comdat any

$_ZN4absl12lts_2023080218container_internal12raw_hash_setINS1_17FlatHashMapPolicyISt17basic_string_viewIcSt11char_traitsIcEENSt7__cxx1112basic_stringIcS6_SaIcEEEEENS1_10StringHashENS1_8StringEqESaISt4pairIKS7_SB_EEE10emplace_atIJRKSt21piecewise_construct_tSt5tupleIJRA15_KcEESO_IJEEEEEvmDpOT_ = comdat any

$_ZSt16forward_as_tupleIJRA15_KcEESt5tupleIJDpOT_EES6_ = comdat any

$_ZN4absl12lts_2023080218container_internal18hash_policy_traitsINS1_17FlatHashMapPolicyISt17basic_string_viewIcSt11char_traitsIcEENSt7__cxx1112basic_stringIcS6_SaIcEEEEEvE5applyINS1_12raw_hash_setISC_NS1_10StringHashENS1_8StringEqESaISt4pairIKS7_SB_EEE12EqualElementIA15_cEEJRSK_ESC_EEDTclsrT1_5applyclsr3stdE7forwardIT_Efp_Espclsr3stdE7forwardIT0_Efp0_EEEOSS_DpOST_ = comdat any

$_ZN4absl12lts_2023080218container_internal17FlatHashMapPolicyISt17basic_string_viewIcSt11char_traitsIcEENSt7__cxx1112basic_stringIcS5_SaIcEEEE5applyINS1_12raw_hash_setISB_NS1_10StringHashENS1_8StringEqESaISt4pairIKS6_SA_EEE12EqualElementIA15_cEEJRSI_EEEDTclsr4absl18container_internalE13DecomposePairclsr3stdE7declvalIT_EEspclsr3stdE7declvalIT0_EEEEOSP_DpOSQ_ = comdat any

$_ZN4absl12lts_2023080218container_internal13DecomposePairINS1_12raw_hash_setINS1_17FlatHashMapPolicyISt17basic_string_viewIcSt11char_traitsIcEENSt7__cxx1112basic_stringIcS7_SaIcEEEEENS1_10StringHashENS1_8StringEqESaISt4pairIKS8_SC_EEE12EqualElementIA15_cEEJRSI_EEEDTclsr15memory_internalE17DecomposePairImplclsr3stdE7forwardIT_Efp_Ecl8PairArgsspclsr3stdE7forwardIT0_Efp0_EEEEOSP_DpOSQ_ = comdat any

$_ZN4absl12lts_2023080218container_internal15memory_internal17DecomposePairImplINS1_12raw_hash_setINS1_17FlatHashMapPolicyISt17basic_string_viewIcSt11char_traitsIcEENSt7__cxx1112basic_stringIcS8_SaIcEEEEENS1_10StringHashENS1_8StringEqESaISt4pairIKS9_SD_EEE12EqualElementIA15_cEERSI_St5tupleIJRKSD_EEEEDTclclsr3stdE7declvalIT_EEclsr3stdE7declvalIRKT0_EEL_ZSt19piecewise_constructEclsr3stdE7declvalISQ_IJSV_EEEEclsr3stdE7declvalIT1_EEEEOSU_SH_ISY_SZ_E = comdat any

$_ZNK4absl12lts_2023080218container_internal12raw_hash_setINS1_17FlatHashMapPolicyISt17basic_string_viewIcSt11char_traitsIcEENSt7__cxx1112basic_stringIcS6_SaIcEEEEENS1_10StringHashENS1_8StringEqESaISt4pairIKS7_SB_EEE12EqualElementIA15_cEclIS7_JRKSt21piecewise_construct_tSt5tupleIJRSG_EESR_IJRKSB_EEEEEbRKT_DpOT0_ = comdat any

$_ZN4absl12lts_2023080218container_internal20common_policy_traitsINS1_17FlatHashMapPolicyISt17basic_string_viewIcSt11char_traitsIcEENSt7__cxx1112basic_stringIcS6_SaIcEEEEEvE9constructISaISt4pairIKS7_SB_EEJRKSt21piecewise_construct_tSt5tupleIJRA15_KcEESM_IJEEEEEvPT_PNS1_13map_slot_typeIS7_SB_EEDpOT0_ = comdat any

$_ZN4absl12lts_2023080218container_internal17FlatHashMapPolicyISt17basic_string_viewIcSt11char_traitsIcEENSt7__cxx1112basic_stringIcS5_SaIcEEEE9constructISaISt4pairIKS6_SA_EEJRKSt21piecewise_construct_tSt5tupleIJRA15_KcEESK_IJEEEEEvPT_PNS1_13map_slot_typeIS6_SA_EEDpOT0_ = comdat any

$_ZN4absl12lts_2023080218container_internal15map_slot_policyISt17basic_string_viewIcSt11char_traitsIcEENSt7__cxx1112basic_stringIcS5_SaIcEEEE9constructISaISt4pairIKS6_SA_EEJRKSt21piecewise_construct_tSt5tupleIJRA15_KcEESK_IJEEEEEvPT_PNS1_13map_slot_typeIS6_SA_EEDpOT0_ = comdat any

$_ZNSt16allocator_traitsISaISt4pairIKSt17basic_string_viewIcSt11char_traitsIcEENSt7__cxx1112basic_stringIcS3_SaIcEEEEEE9constructIS0_IS4_S9_EJRKSt21piecewise_construct_tSt5tupleIJRA15_KcEESI_IJEEEEEvRSB_PT_DpOT0_ = comdat any

$_ZNSt15__new_allocatorISt4pairIKSt17basic_string_viewIcSt11char_traitsIcEENSt7__cxx1112basic_stringIcS3_SaIcEEEEE9constructIS0_IS4_S9_EJRKSt21piecewise_construct_tSt5tupleIJRA15_KcEESH_IJEEEEEvPT_DpOT0_ = comdat any

$_ZNSt5tupleIJRA15_KcEEC2EOS3_ = comdat any

$_ZNSt4pairISt17basic_string_viewIcSt11char_traitsIcEENSt7__cxx1112basic_stringIcS2_SaIcEEEEC2IJRA15_KcEJEEESt21piecewise_construct_tSt5tupleIJDpT_EESE_IJDpT0_EE = comdat any

$_ZNSt11_Tuple_implILm0EJRA15_KcEEC2EOS3_ = comdat any

$_ZNSt4pairISt17basic_string_viewIcSt11char_traitsIcEENSt7__cxx1112basic_stringIcS2_SaIcEEEEC2IJRA15_KcEJLm0EEJETpTnmJEEERSt5tupleIJDpT_EERSD_IJDpT1_EESt12_Index_tupleIJXspT0_EEESM_IJXspT2_EEE = comdat any

$_ZSt3getILm0EJRA15_KcEERNSt13tuple_elementIXT_ESt5tupleIJDpT0_EEE4typeERS7_ = comdat any

$_ZSt12__get_helperILm0ERA15_KcJEERT0_RSt11_Tuple_implIXT_EJS3_DpT1_EE = comdat any

$_ZNSt11_Tuple_implILm0EJRA15_KcEE7_M_headERS3_ = comdat any

$_ZNSt10_Head_baseILm0ERA15_KcLb0EE7_M_headERS3_ = comdat any

$_ZNSt5tupleIJRA15_KcEEC2ILb1ETnNSt9enable_ifIXclsr4_TCCIXT_EEE29__is_implicitly_constructibleIS2_EEEbE4typeELb1EEES2_ = comdat any

$_ZNSt11_Tuple_implILm0EJRA15_KcEEC2ES2_ = comdat any

$_ZNSt10_Head_baseILm0ERA15_KcLb0EEC2ES2_ = comdat any

$_ZN4absl12lts_2023080218container_internal12raw_hash_mapINS1_17FlatHashMapPolicyISt17basic_string_viewIcSt11char_traitsIcEENSt7__cxx1112basic_stringIcS6_SaIcEEEEENS1_10StringHashENS1_8StringEqESaISt4pairIKS7_SB_EEE11try_emplaceIA10_cJETnNSt9enable_ifIXntsr3std14is_convertibleIT_NS1_12raw_hash_setISC_SD_SE_SI_E14const_iteratorEEE5valueEiE4typeELi0EEESF_INSP_8iteratorEbERKSN_DpOT0_ = comdat any

$_ZN4absl12lts_2023080218container_internal12raw_hash_mapINS1_17FlatHashMapPolicyISt17basic_string_viewIcSt11char_traitsIcEENSt7__cxx1112basic_stringIcS6_SaIcEEEEENS1_10StringHashENS1_8StringEqESaISt4pairIKS7_SB_EEE16try_emplace_implIRA10_KcJEEESF_INS1_12raw_hash_setISC_SD_SE_SI_E8iteratorEbEOT_DpOT0_ = comdat any

$_ZN4absl12lts_2023080218container_internal12raw_hash_setINS1_17FlatHashMapPolicyISt17basic_string_viewIcSt11char_traitsIcEENSt7__cxx1112basic_stringIcS6_SaIcEEEEENS1_10StringHashENS1_8StringEqESaISt4pairIKS7_SB_EEE22find_or_prepare_insertIA10_cEESF_ImbERKT_ = comdat any

$_ZN4absl12lts_2023080218container_internal12raw_hash_setINS1_17FlatHashMapPolicyISt17basic_string_viewIcSt11char_traitsIcEENSt7__cxx1112basic_stringIcS6_SaIcEEEEENS1_10StringHashENS1_8StringEqESaISt4pairIKS7_SB_EEE10emplace_atIJRKSt21piecewise_construct_tSt5tupleIJRA10_KcEESO_IJEEEEEvmDpOT_ = comdat any

$_ZSt16forward_as_tupleIJRA10_KcEESt5tupleIJDpOT_EES6_ = comdat any

$_ZN4absl12lts_2023080218container_internal18hash_policy_traitsINS1_17FlatHashMapPolicyISt17basic_string_viewIcSt11char_traitsIcEENSt7__cxx1112basic_stringIcS6_SaIcEEEEEvE5applyINS1_12raw_hash_setISC_NS1_10StringHashENS1_8StringEqESaISt4pairIKS7_SB_EEE12EqualElementIA10_cEEJRSK_ESC_EEDTclsrT1_5applyclsr3stdE7forwardIT_Efp_Espclsr3stdE7forwardIT0_Efp0_EEEOSS_DpOST_ = comdat any

$_ZN4absl12lts_2023080218container_internal17FlatHashMapPolicyISt17basic_string_viewIcSt11char_traitsIcEENSt7__cxx1112basic_stringIcS5_SaIcEEEE5applyINS1_12raw_hash_setISB_NS1_10StringHashENS1_8StringEqESaISt4pairIKS6_SA_EEE12EqualElementIA10_cEEJRSI_EEEDTclsr4absl18container_internalE13DecomposePairclsr3stdE7declvalIT_EEspclsr3stdE7declvalIT0_EEEEOSP_DpOSQ_ = comdat any

$_ZN4absl12lts_2023080218container_internal13DecomposePairINS1_12raw_hash_setINS1_17FlatHashMapPolicyISt17basic_string_viewIcSt11char_traitsIcEENSt7__cxx1112basic_stringIcS7_SaIcEEEEENS1_10StringHashENS1_8StringEqESaISt4pairIKS8_SC_EEE12EqualElementIA10_cEEJRSI_EEEDTclsr15memory_internalE17DecomposePairImplclsr3stdE7forwardIT_Efp_Ecl8PairArgsspclsr3stdE7forwardIT0_Efp0_EEEEOSP_DpOSQ_ = comdat any

$_ZN4absl12lts_2023080218container_internal15memory_internal17DecomposePairImplINS1_12raw_hash_setINS1_17FlatHashMapPolicyISt17basic_string_viewIcSt11char_traitsIcEENSt7__cxx1112basic_stringIcS8_SaIcEEEEENS1_10StringHashENS1_8StringEqESaISt4pairIKS9_SD_EEE12EqualElementIA10_cEERSI_St5tupleIJRKSD_EEEEDTclclsr3stdE7declvalIT_EEclsr3stdE7declvalIRKT0_EEL_ZSt19piecewise_constructEclsr3stdE7declvalISQ_IJSV_EEEEclsr3stdE7declvalIT1_EEEEOSU_SH_ISY_SZ_E = comdat any

$_ZNK4absl12lts_2023080218container_internal12raw_hash_setINS1_17FlatHashMapPolicyISt17basic_string_viewIcSt11char_traitsIcEENSt7__cxx1112basic_stringIcS6_SaIcEEEEENS1_10StringHashENS1_8StringEqESaISt4pairIKS7_SB_EEE12EqualElementIA10_cEclIS7_JRKSt21piecewise_construct_tSt5tupleIJRSG_EESR_IJRKSB_EEEEEbRKT_DpOT0_ = comdat any

$_ZN4absl12lts_2023080218container_internal20common_policy_traitsINS1_17FlatHashMapPolicyISt17basic_string_viewIcSt11char_traitsIcEENSt7__cxx1112basic_stringIcS6_SaIcEEEEEvE9constructISaISt4pairIKS7_SB_EEJRKSt21piecewise_construct_tSt5tupleIJRA10_KcEESM_IJEEEEEvPT_PNS1_13map_slot_typeIS7_SB_EEDpOT0_ = comdat any

$_ZN4absl12lts_2023080218container_internal17FlatHashMapPolicyISt17basic_string_viewIcSt11char_traitsIcEENSt7__cxx1112basic_stringIcS5_SaIcEEEE9constructISaISt4pairIKS6_SA_EEJRKSt21piecewise_construct_tSt5tupleIJRA10_KcEESK_IJEEEEEvPT_PNS1_13map_slot_typeIS6_SA_EEDpOT0_ = comdat any

$_ZN4absl12lts_2023080218container_internal15map_slot_policyISt17basic_string_viewIcSt11char_traitsIcEENSt7__cxx1112basic_stringIcS5_SaIcEEEE9constructISaISt4pairIKS6_SA_EEJRKSt21piecewise_construct_tSt5tupleIJRA10_KcEESK_IJEEEEEvPT_PNS1_13map_slot_typeIS6_SA_EEDpOT0_ = comdat any

$_ZNSt16allocator_traitsISaISt4pairIKSt17basic_string_viewIcSt11char_traitsIcEENSt7__cxx1112basic_stringIcS3_SaIcEEEEEE9constructIS0_IS4_S9_EJRKSt21piecewise_construct_tSt5tupleIJRA10_KcEESI_IJEEEEEvRSB_PT_DpOT0_ = comdat any

$_ZNSt15__new_allocatorISt4pairIKSt17basic_string_viewIcSt11char_traitsIcEENSt7__cxx1112basic_stringIcS3_SaIcEEEEE9constructIS0_IS4_S9_EJRKSt21piecewise_construct_tSt5tupleIJRA10_KcEESH_IJEEEEEvPT_DpOT0_ = comdat any

$_ZNSt5tupleIJRA10_KcEEC2EOS3_ = comdat any

$_ZNSt4pairISt17basic_string_viewIcSt11char_traitsIcEENSt7__cxx1112basic_stringIcS2_SaIcEEEEC2IJRA10_KcEJEEESt21piecewise_construct_tSt5tupleIJDpT_EESE_IJDpT0_EE = comdat any

$_ZNSt11_Tuple_implILm0EJRA10_KcEEC2EOS3_ = comdat any

$_ZNSt4pairISt17basic_string_viewIcSt11char_traitsIcEENSt7__cxx1112basic_stringIcS2_SaIcEEEEC2IJRA10_KcEJLm0EEJETpTnmJEEERSt5tupleIJDpT_EERSD_IJDpT1_EESt12_Index_tupleIJXspT0_EEESM_IJXspT2_EEE = comdat any

$_ZSt3getILm0EJRA10_KcEERNSt13tuple_elementIXT_ESt5tupleIJDpT0_EEE4typeERS7_ = comdat any

$_ZSt12__get_helperILm0ERA10_KcJEERT0_RSt11_Tuple_implIXT_EJS3_DpT1_EE = comdat any

$_ZNSt11_Tuple_implILm0EJRA10_KcEE7_M_headERS3_ = comdat any

$_ZNSt10_Head_baseILm0ERA10_KcLb0EE7_M_headERS3_ = comdat any

$_ZNSt5tupleIJRA10_KcEEC2ILb1ETnNSt9enable_ifIXclsr4_TCCIXT_EEE29__is_implicitly_constructibleIS2_EEEbE4typeELb1EEES2_ = comdat any

$_ZNSt11_Tuple_implILm0EJRA10_KcEEC2ES2_ = comdat any

$_ZNSt10_Head_baseILm0ERA10_KcLb0EEC2ES2_ = comdat any

$_ZN4absl12lts_2023080218container_internal12raw_hash_mapINS1_17FlatHashMapPolicyISt17basic_string_viewIcSt11char_traitsIcEENSt7__cxx1112basic_stringIcS6_SaIcEEEEENS1_10StringHashENS1_8StringEqESaISt4pairIKS7_SB_EEE11try_emplaceIA22_cJETnNSt9enable_ifIXntsr3std14is_convertibleIT_NS1_12raw_hash_setISC_SD_SE_SI_E14const_iteratorEEE5valueEiE4typeELi0EEESF_INSP_8iteratorEbERKSN_DpOT0_ = comdat any

$_ZN4absl12lts_2023080218container_internal12raw_hash_mapINS1_17FlatHashMapPolicyISt17basic_string_viewIcSt11char_traitsIcEENSt7__cxx1112basic_stringIcS6_SaIcEEEEENS1_10StringHashENS1_8StringEqESaISt4pairIKS7_SB_EEE16try_emplace_implIRA22_KcJEEESF_INS1_12raw_hash_setISC_SD_SE_SI_E8iteratorEbEOT_DpOT0_ = comdat any

$_ZN4absl12lts_2023080218container_internal12raw_hash_setINS1_17FlatHashMapPolicyISt17basic_string_viewIcSt11char_traitsIcEENSt7__cxx1112basic_stringIcS6_SaIcEEEEENS1_10StringHashENS1_8StringEqESaISt4pairIKS7_SB_EEE22find_or_prepare_insertIA22_cEESF_ImbERKT_ = comdat any

$_ZN4absl12lts_2023080218container_internal12raw_hash_setINS1_17FlatHashMapPolicyISt17basic_string_viewIcSt11char_traitsIcEENSt7__cxx1112basic_stringIcS6_SaIcEEEEENS1_10StringHashENS1_8StringEqESaISt4pairIKS7_SB_EEE10emplace_atIJRKSt21piecewise_construct_tSt5tupleIJRA22_KcEESO_IJEEEEEvmDpOT_ = comdat any

$_ZSt16forward_as_tupleIJRA22_KcEESt5tupleIJDpOT_EES6_ = comdat any

$_ZN4absl12lts_2023080218container_internal18hash_policy_traitsINS1_17FlatHashMapPolicyISt17basic_string_viewIcSt11char_traitsIcEENSt7__cxx1112basic_stringIcS6_SaIcEEEEEvE5applyINS1_12raw_hash_setISC_NS1_10StringHashENS1_8StringEqESaISt4pairIKS7_SB_EEE12EqualElementIA22_cEEJRSK_ESC_EEDTclsrT1_5applyclsr3stdE7forwardIT_Efp_Espclsr3stdE7forwardIT0_Efp0_EEEOSS_DpOST_ = comdat any

$_ZN4absl12lts_2023080218container_internal17FlatHashMapPolicyISt17basic_string_viewIcSt11char_traitsIcEENSt7__cxx1112basic_stringIcS5_SaIcEEEE5applyINS1_12raw_hash_setISB_NS1_10StringHashENS1_8StringEqESaISt4pairIKS6_SA_EEE12EqualElementIA22_cEEJRSI_EEEDTclsr4absl18container_internalE13DecomposePairclsr3stdE7declvalIT_EEspclsr3stdE7declvalIT0_EEEEOSP_DpOSQ_ = comdat any

$_ZN4absl12lts_2023080218container_internal13DecomposePairINS1_12raw_hash_setINS1_17FlatHashMapPolicyISt17basic_string_viewIcSt11char_traitsIcEENSt7__cxx1112basic_stringIcS7_SaIcEEEEENS1_10StringHashENS1_8StringEqESaISt4pairIKS8_SC_EEE12EqualElementIA22_cEEJRSI_EEEDTclsr15memory_internalE17DecomposePairImplclsr3stdE7forwardIT_Efp_Ecl8PairArgsspclsr3stdE7forwardIT0_Efp0_EEEEOSP_DpOSQ_ = comdat any

$_ZN4absl12lts_2023080218container_internal15memory_internal17DecomposePairImplINS1_12raw_hash_setINS1_17FlatHashMapPolicyISt17basic_string_viewIcSt11char_traitsIcEENSt7__cxx1112basic_stringIcS8_SaIcEEEEENS1_10StringHashENS1_8StringEqESaISt4pairIKS9_SD_EEE12EqualElementIA22_cEERSI_St5tupleIJRKSD_EEEEDTclclsr3stdE7declvalIT_EEclsr3stdE7declvalIRKT0_EEL_ZSt19piecewise_constructEclsr3stdE7declvalISQ_IJSV_EEEEclsr3stdE7declvalIT1_EEEEOSU_SH_ISY_SZ_E = comdat any

$_ZNK4absl12lts_2023080218container_internal12raw_hash_setINS1_17FlatHashMapPolicyISt17basic_string_viewIcSt11char_traitsIcEENSt7__cxx1112basic_stringIcS6_SaIcEEEEENS1_10StringHashENS1_8StringEqESaISt4pairIKS7_SB_EEE12EqualElementIA22_cEclIS7_JRKSt21piecewise_construct_tSt5tupleIJRSG_EESR_IJRKSB_EEEEEbRKT_DpOT0_ = comdat any

$_ZN4absl12lts_2023080218container_internal20common_policy_traitsINS1_17FlatHashMapPolicyISt17basic_string_viewIcSt11char_traitsIcEENSt7__cxx1112basic_stringIcS6_SaIcEEEEEvE9constructISaISt4pairIKS7_SB_EEJRKSt21piecewise_construct_tSt5tupleIJRA22_KcEESM_IJEEEEEvPT_PNS1_13map_slot_typeIS7_SB_EEDpOT0_ = comdat any

$_ZN4absl12lts_2023080218container_internal17FlatHashMapPolicyISt17basic_string_viewIcSt11char_traitsIcEENSt7__cxx1112basic_stringIcS5_SaIcEEEE9constructISaISt4pairIKS6_SA_EEJRKSt21piecewise_construct_tSt5tupleIJRA22_KcEESK_IJEEEEEvPT_PNS1_13map_slot_typeIS6_SA_EEDpOT0_ = comdat any

$_ZN4absl12lts_2023080218container_internal15map_slot_policyISt17basic_string_viewIcSt11char_traitsIcEENSt7__cxx1112basic_stringIcS5_SaIcEEEE9constructISaISt4pairIKS6_SA_EEJRKSt21piecewise_construct_tSt5tupleIJRA22_KcEESK_IJEEEEEvPT_PNS1_13map_slot_typeIS6_SA_EEDpOT0_ = comdat any

$_ZNSt16allocator_traitsISaISt4pairIKSt17basic_string_viewIcSt11char_traitsIcEENSt7__cxx1112basic_stringIcS3_SaIcEEEEEE9constructIS0_IS4_S9_EJRKSt21piecewise_construct_tSt5tupleIJRA22_KcEESI_IJEEEEEvRSB_PT_DpOT0_ = comdat any

$_ZNSt15__new_allocatorISt4pairIKSt17basic_string_viewIcSt11char_traitsIcEENSt7__cxx1112basic_stringIcS3_SaIcEEEEE9constructIS0_IS4_S9_EJRKSt21piecewise_construct_tSt5tupleIJRA22_KcEESH_IJEEEEEvPT_DpOT0_ = comdat any

$_ZNSt5tupleIJRA22_KcEEC2EOS3_ = comdat any

$_ZNSt4pairISt17basic_string_viewIcSt11char_traitsIcEENSt7__cxx1112basic_stringIcS2_SaIcEEEEC2IJRA22_KcEJEEESt21piecewise_construct_tSt5tupleIJDpT_EESE_IJDpT0_EE = comdat any

$_ZNSt11_Tuple_implILm0EJRA22_KcEEC2EOS3_ = comdat any

$_ZNSt4pairISt17basic_string_viewIcSt11char_traitsIcEENSt7__cxx1112basic_stringIcS2_SaIcEEEEC2IJRA22_KcEJLm0EEJETpTnmJEEERSt5tupleIJDpT_EERSD_IJDpT1_EESt12_Index_tupleIJXspT0_EEESM_IJXspT2_EEE = comdat any

$_ZSt3getILm0EJRA22_KcEERNSt13tuple_elementIXT_ESt5tupleIJDpT0_EEE4typeERS7_ = comdat any

$_ZSt12__get_helperILm0ERA22_KcJEERT0_RSt11_Tuple_implIXT_EJS3_DpT1_EE = comdat any

$_ZNSt11_Tuple_implILm0EJRA22_KcEE7_M_headERS3_ = comdat any

$_ZNSt10_Head_baseILm0ERA22_KcLb0EE7_M_headERS3_ = comdat any

$_ZNSt5tupleIJRA22_KcEEC2ILb1ETnNSt9enable_ifIXclsr4_TCCIXT_EEE29__is_implicitly_constructibleIS2_EEEbE4typeELb1EEES2_ = comdat any

$_ZNSt11_Tuple_implILm0EJRA22_KcEEC2ES2_ = comdat any

$_ZNSt10_Head_baseILm0ERA22_KcLb0EEC2ES2_ = comdat any

$_ZN4absl12lts_2023080218container_internal12raw_hash_mapINS1_17FlatHashMapPolicyISt17basic_string_viewIcSt11char_traitsIcEENSt7__cxx1112basic_stringIcS6_SaIcEEEEENS1_10StringHashENS1_8StringEqESaISt4pairIKS7_SB_EEE11try_emplaceIA23_cJETnNSt9enable_ifIXntsr3std14is_convertibleIT_NS1_12raw_hash_setISC_SD_SE_SI_E14const_iteratorEEE5valueEiE4typeELi0EEESF_INSP_8iteratorEbERKSN_DpOT0_ = comdat any

$_ZN4absl12lts_2023080218container_internal12raw_hash_mapINS1_17FlatHashMapPolicyISt17basic_string_viewIcSt11char_traitsIcEENSt7__cxx1112basic_stringIcS6_SaIcEEEEENS1_10StringHashENS1_8StringEqESaISt4pairIKS7_SB_EEE16try_emplace_implIRA23_KcJEEESF_INS1_12raw_hash_setISC_SD_SE_SI_E8iteratorEbEOT_DpOT0_ = comdat any

$_ZN4absl12lts_2023080218container_internal12raw_hash_setINS1_17FlatHashMapPolicyISt17basic_string_viewIcSt11char_traitsIcEENSt7__cxx1112basic_stringIcS6_SaIcEEEEENS1_10StringHashENS1_8StringEqESaISt4pairIKS7_SB_EEE22find_or_prepare_insertIA23_cEESF_ImbERKT_ = comdat any

$_ZN4absl12lts_2023080218container_internal12raw_hash_setINS1_17FlatHashMapPolicyISt17basic_string_viewIcSt11char_traitsIcEENSt7__cxx1112basic_stringIcS6_SaIcEEEEENS1_10StringHashENS1_8StringEqESaISt4pairIKS7_SB_EEE10emplace_atIJRKSt21piecewise_construct_tSt5tupleIJRA23_KcEESO_IJEEEEEvmDpOT_ = comdat any

$_ZSt16forward_as_tupleIJRA23_KcEESt5tupleIJDpOT_EES6_ = comdat any

$_ZN4absl12lts_2023080218container_internal18hash_policy_traitsINS1_17FlatHashMapPolicyISt17basic_string_viewIcSt11char_traitsIcEENSt7__cxx1112basic_stringIcS6_SaIcEEEEEvE5applyINS1_12raw_hash_setISC_NS1_10StringHashENS1_8StringEqESaISt4pairIKS7_SB_EEE12EqualElementIA23_cEEJRSK_ESC_EEDTclsrT1_5applyclsr3stdE7forwardIT_Efp_Espclsr3stdE7forwardIT0_Efp0_EEEOSS_DpOST_ = comdat any

$_ZN4absl12lts_2023080218container_internal17FlatHashMapPolicyISt17basic_string_viewIcSt11char_traitsIcEENSt7__cxx1112basic_stringIcS5_SaIcEEEE5applyINS1_12raw_hash_setISB_NS1_10StringHashENS1_8StringEqESaISt4pairIKS6_SA_EEE12EqualElementIA23_cEEJRSI_EEEDTclsr4absl18container_internalE13DecomposePairclsr3stdE7declvalIT_EEspclsr3stdE7declvalIT0_EEEEOSP_DpOSQ_ = comdat any

$_ZN4absl12lts_2023080218container_internal13DecomposePairINS1_12raw_hash_setINS1_17FlatHashMapPolicyISt17basic_string_viewIcSt11char_traitsIcEENSt7__cxx1112basic_stringIcS7_SaIcEEEEENS1_10StringHashENS1_8StringEqESaISt4pairIKS8_SC_EEE12EqualElementIA23_cEEJRSI_EEEDTclsr15memory_internalE17DecomposePairImplclsr3stdE7forwardIT_Efp_Ecl8PairArgsspclsr3stdE7forwardIT0_Efp0_EEEEOSP_DpOSQ_ = comdat any

$_ZN4absl12lts_2023080218container_internal15memory_internal17DecomposePairImplINS1_12raw_hash_setINS1_17FlatHashMapPolicyISt17basic_string_viewIcSt11char_traitsIcEENSt7__cxx1112basic_stringIcS8_SaIcEEEEENS1_10StringHashENS1_8StringEqESaISt4pairIKS9_SD_EEE12EqualElementIA23_cEERSI_St5tupleIJRKSD_EEEEDTclclsr3stdE7declvalIT_EEclsr3stdE7declvalIRKT0_EEL_ZSt19piecewise_constructEclsr3stdE7declvalISQ_IJSV_EEEEclsr3stdE7declvalIT1_EEEEOSU_SH_ISY_SZ_E = comdat any

$_ZNK4absl12lts_2023080218container_internal12raw_hash_setINS1_17FlatHashMapPolicyISt17basic_string_viewIcSt11char_traitsIcEENSt7__cxx1112basic_stringIcS6_SaIcEEEEENS1_10StringHashENS1_8StringEqESaISt4pairIKS7_SB_EEE12EqualElementIA23_cEclIS7_JRKSt21piecewise_construct_tSt5tupleIJRSG_EESR_IJRKSB_EEEEEbRKT_DpOT0_ = comdat any

$_ZN4absl12lts_2023080218container_internal20common_policy_traitsINS1_17FlatHashMapPolicyISt17basic_string_viewIcSt11char_traitsIcEENSt7__cxx1112basic_stringIcS6_SaIcEEEEEvE9constructISaISt4pairIKS7_SB_EEJRKSt21piecewise_construct_tSt5tupleIJRA23_KcEESM_IJEEEEEvPT_PNS1_13map_slot_typeIS7_SB_EEDpOT0_ = comdat any

$_ZN4absl12lts_2023080218container_internal17FlatHashMapPolicyISt17basic_string_viewIcSt11char_traitsIcEENSt7__cxx1112basic_stringIcS5_SaIcEEEE9constructISaISt4pairIKS6_SA_EEJRKSt21piecewise_construct_tSt5tupleIJRA23_KcEESK_IJEEEEEvPT_PNS1_13map_slot_typeIS6_SA_EEDpOT0_ = comdat any

$_ZN4absl12lts_2023080218container_internal15map_slot_policyISt17basic_string_viewIcSt11char_traitsIcEENSt7__cxx1112basic_stringIcS5_SaIcEEEE9constructISaISt4pairIKS6_SA_EEJRKSt21piecewise_construct_tSt5tupleIJRA23_KcEESK_IJEEEEEvPT_PNS1_13map_slot_typeIS6_SA_EEDpOT0_ = comdat any

$_ZNSt16allocator_traitsISaISt4pairIKSt17basic_string_viewIcSt11char_traitsIcEENSt7__cxx1112basic_stringIcS3_SaIcEEEEEE9constructIS0_IS4_S9_EJRKSt21piecewise_construct_tSt5tupleIJRA23_KcEESI_IJEEEEEvRSB_PT_DpOT0_ = comdat any

$_ZNSt15__new_allocatorISt4pairIKSt17basic_string_viewIcSt11char_traitsIcEENSt7__cxx1112basic_stringIcS3_SaIcEEEEE9constructIS0_IS4_S9_EJRKSt21piecewise_construct_tSt5tupleIJRA23_KcEESH_IJEEEEEvPT_DpOT0_ = comdat any

$_ZNSt5tupleIJRA23_KcEEC2EOS3_ = comdat any

$_ZNSt4pairISt17basic_string_viewIcSt11char_traitsIcEENSt7__cxx1112basic_stringIcS2_SaIcEEEEC2IJRA23_KcEJEEESt21piecewise_construct_tSt5tupleIJDpT_EESE_IJDpT0_EE = comdat any

$_ZNSt11_Tuple_implILm0EJRA23_KcEEC2EOS3_ = comdat any

$_ZNSt4pairISt17basic_string_viewIcSt11char_traitsIcEENSt7__cxx1112basic_stringIcS2_SaIcEEEEC2IJRA23_KcEJLm0EEJETpTnmJEEERSt5tupleIJDpT_EERSD_IJDpT1_EESt12_Index_tupleIJXspT0_EEESM_IJXspT2_EEE = comdat any

$_ZSt3getILm0EJRA23_KcEERNSt13tuple_elementIXT_ESt5tupleIJDpT0_EEE4typeERS7_ = comdat any

$_ZSt12__get_helperILm0ERA23_KcJEERT0_RSt11_Tuple_implIXT_EJS3_DpT1_EE = comdat any

$_ZNSt11_Tuple_implILm0EJRA23_KcEE7_M_headERS3_ = comdat any

$_ZNSt10_Head_baseILm0ERA23_KcLb0EE7_M_headERS3_ = comdat any

$_ZNSt5tupleIJRA23_KcEEC2ILb1ETnNSt9enable_ifIXclsr4_TCCIXT_EEE29__is_implicitly_constructibleIS2_EEEbE4typeELb1EEES2_ = comdat any

$_ZNSt11_Tuple_implILm0EJRA23_KcEEC2ES2_ = comdat any

$_ZNSt10_Head_baseILm0ERA23_KcLb0EEC2ES2_ = comdat any

$_ZN4absl12lts_2023080218container_internal12raw_hash_mapINS1_17FlatHashMapPolicyISt17basic_string_viewIcSt11char_traitsIcEENSt7__cxx1112basic_stringIcS6_SaIcEEEEENS1_10StringHashENS1_8StringEqESaISt4pairIKS7_SB_EEE11try_emplaceIA17_cJETnNSt9enable_ifIXntsr3std14is_convertibleIT_NS1_12raw_hash_setISC_SD_SE_SI_E14const_iteratorEEE5valueEiE4typeELi0EEESF_INSP_8iteratorEbERKSN_DpOT0_ = comdat any

$_ZN4absl12lts_2023080218container_internal12raw_hash_mapINS1_17FlatHashMapPolicyISt17basic_string_viewIcSt11char_traitsIcEENSt7__cxx1112basic_stringIcS6_SaIcEEEEENS1_10StringHashENS1_8StringEqESaISt4pairIKS7_SB_EEE16try_emplace_implIRA17_KcJEEESF_INS1_12raw_hash_setISC_SD_SE_SI_E8iteratorEbEOT_DpOT0_ = comdat any

$_ZN4absl12lts_2023080218container_internal12raw_hash_setINS1_17FlatHashMapPolicyISt17basic_string_viewIcSt11char_traitsIcEENSt7__cxx1112basic_stringIcS6_SaIcEEEEENS1_10StringHashENS1_8StringEqESaISt4pairIKS7_SB_EEE22find_or_prepare_insertIA17_cEESF_ImbERKT_ = comdat any

$_ZN4absl12lts_2023080218container_internal12raw_hash_setINS1_17FlatHashMapPolicyISt17basic_string_viewIcSt11char_traitsIcEENSt7__cxx1112basic_stringIcS6_SaIcEEEEENS1_10StringHashENS1_8StringEqESaISt4pairIKS7_SB_EEE10emplace_atIJRKSt21piecewise_construct_tSt5tupleIJRA17_KcEESO_IJEEEEEvmDpOT_ = comdat any

$_ZSt16forward_as_tupleIJRA17_KcEESt5tupleIJDpOT_EES6_ = comdat any

$_ZN4absl12lts_2023080218container_internal18hash_policy_traitsINS1_17FlatHashMapPolicyISt17basic_string_viewIcSt11char_traitsIcEENSt7__cxx1112basic_stringIcS6_SaIcEEEEEvE5applyINS1_12raw_hash_setISC_NS1_10StringHashENS1_8StringEqESaISt4pairIKS7_SB_EEE12EqualElementIA17_cEEJRSK_ESC_EEDTclsrT1_5applyclsr3stdE7forwardIT_Efp_Espclsr3stdE7forwardIT0_Efp0_EEEOSS_DpOST_ = comdat any

$_ZN4absl12lts_2023080218container_internal17FlatHashMapPolicyISt17basic_string_viewIcSt11char_traitsIcEENSt7__cxx1112basic_stringIcS5_SaIcEEEE5applyINS1_12raw_hash_setISB_NS1_10StringHashENS1_8StringEqESaISt4pairIKS6_SA_EEE12EqualElementIA17_cEEJRSI_EEEDTclsr4absl18container_internalE13DecomposePairclsr3stdE7declvalIT_EEspclsr3stdE7declvalIT0_EEEEOSP_DpOSQ_ = comdat any

$_ZN4absl12lts_2023080218container_internal13DecomposePairINS1_12raw_hash_setINS1_17FlatHashMapPolicyISt17basic_string_viewIcSt11char_traitsIcEENSt7__cxx1112basic_stringIcS7_SaIcEEEEENS1_10StringHashENS1_8StringEqESaISt4pairIKS8_SC_EEE12EqualElementIA17_cEEJRSI_EEEDTclsr15memory_internalE17DecomposePairImplclsr3stdE7forwardIT_Efp_Ecl8PairArgsspclsr3stdE7forwardIT0_Efp0_EEEEOSP_DpOSQ_ = comdat any

$_ZN4absl12lts_2023080218container_internal15memory_internal17DecomposePairImplINS1_12raw_hash_setINS1_17FlatHashMapPolicyISt17basic_string_viewIcSt11char_traitsIcEENSt7__cxx1112basic_stringIcS8_SaIcEEEEENS1_10StringHashENS1_8StringEqESaISt4pairIKS9_SD_EEE12EqualElementIA17_cEERSI_St5tupleIJRKSD_EEEEDTclclsr3stdE7declvalIT_EEclsr3stdE7declvalIRKT0_EEL_ZSt19piecewise_constructEclsr3stdE7declvalISQ_IJSV_EEEEclsr3stdE7declvalIT1_EEEEOSU_SH_ISY_SZ_E = comdat any

$_ZNK4absl12lts_2023080218container_internal12raw_hash_setINS1_17FlatHashMapPolicyISt17basic_string_viewIcSt11char_traitsIcEENSt7__cxx1112basic_stringIcS6_SaIcEEEEENS1_10StringHashENS1_8StringEqESaISt4pairIKS7_SB_EEE12EqualElementIA17_cEclIS7_JRKSt21piecewise_construct_tSt5tupleIJRSG_EESR_IJRKSB_EEEEEbRKT_DpOT0_ = comdat any

$_ZN4absl12lts_2023080218container_internal20common_policy_traitsINS1_17FlatHashMapPolicyISt17basic_string_viewIcSt11char_traitsIcEENSt7__cxx1112basic_stringIcS6_SaIcEEEEEvE9constructISaISt4pairIKS7_SB_EEJRKSt21piecewise_construct_tSt5tupleIJRA17_KcEESM_IJEEEEEvPT_PNS1_13map_slot_typeIS7_SB_EEDpOT0_ = comdat any

$_ZN4absl12lts_2023080218container_internal17FlatHashMapPolicyISt17basic_string_viewIcSt11char_traitsIcEENSt7__cxx1112basic_stringIcS5_SaIcEEEE9constructISaISt4pairIKS6_SA_EEJRKSt21piecewise_construct_tSt5tupleIJRA17_KcEESK_IJEEEEEvPT_PNS1_13map_slot_typeIS6_SA_EEDpOT0_ = comdat any

$_ZN4absl12lts_2023080218container_internal15map_slot_policyISt17basic_string_viewIcSt11char_traitsIcEENSt7__cxx1112basic_stringIcS5_SaIcEEEE9constructISaISt4pairIKS6_SA_EEJRKSt21piecewise_construct_tSt5tupleIJRA17_KcEESK_IJEEEEEvPT_PNS1_13map_slot_typeIS6_SA_EEDpOT0_ = comdat any

$_ZNSt16allocator_traitsISaISt4pairIKSt17basic_string_viewIcSt11char_traitsIcEENSt7__cxx1112basic_stringIcS3_SaIcEEEEEE9constructIS0_IS4_S9_EJRKSt21piecewise_construct_tSt5tupleIJRA17_KcEESI_IJEEEEEvRSB_PT_DpOT0_ = comdat any

$_ZNSt15__new_allocatorISt4pairIKSt17basic_string_viewIcSt11char_traitsIcEENSt7__cxx1112basic_stringIcS3_SaIcEEEEE9constructIS0_IS4_S9_EJRKSt21piecewise_construct_tSt5tupleIJRA17_KcEESH_IJEEEEEvPT_DpOT0_ = comdat any

$_ZNSt5tupleIJRA17_KcEEC2EOS3_ = comdat any

$_ZNSt4pairISt17basic_string_viewIcSt11char_traitsIcEENSt7__cxx1112basic_stringIcS2_SaIcEEEEC2IJRA17_KcEJEEESt21piecewise_construct_tSt5tupleIJDpT_EESE_IJDpT0_EE = comdat any

$_ZNSt11_Tuple_implILm0EJRA17_KcEEC2EOS3_ = comdat any

$_ZNSt4pairISt17basic_string_viewIcSt11char_traitsIcEENSt7__cxx1112basic_stringIcS2_SaIcEEEEC2IJRA17_KcEJLm0EEJETpTnmJEEERSt5tupleIJDpT_EERSD_IJDpT1_EESt12_Index_tupleIJXspT0_EEESM_IJXspT2_EEE = comdat any

$_ZSt3getILm0EJRA17_KcEERNSt13tuple_elementIXT_ESt5tupleIJDpT0_EEE4typeERS7_ = comdat any

$_ZSt12__get_helperILm0ERA17_KcJEERT0_RSt11_Tuple_implIXT_EJS3_DpT1_EE = comdat any

$_ZNSt11_Tuple_implILm0EJRA17_KcEE7_M_headERS3_ = comdat any

$_ZNSt10_Head_baseILm0ERA17_KcLb0EE7_M_headERS3_ = comdat any

$_ZNSt5tupleIJRA17_KcEEC2ILb1ETnNSt9enable_ifIXclsr4_TCCIXT_EEE29__is_implicitly_constructibleIS2_EEEbE4typeELb1EEES2_ = comdat any

$_ZNSt11_Tuple_implILm0EJRA17_KcEEC2ES2_ = comdat any

$_ZNSt10_Head_baseILm0ERA17_KcLb0EEC2ES2_ = comdat any

$_ZN4absl12lts_2023080213flat_hash_mapISt17basic_string_viewIcSt11char_traitsIcEENSt7__cxx1112basic_stringIcS4_SaIcEEENS0_18container_internal10StringHashENSA_8StringEqESaISt4pairIKS5_S9_EEED2Ev = comdat any

$_ZN4absl12lts_2023080218container_internal12raw_hash_mapINS1_17FlatHashMapPolicyISt17basic_string_viewIcSt11char_traitsIcEENSt7__cxx1112basic_stringIcS6_SaIcEEEEENS1_10StringHashENS1_8StringEqESaISt4pairIKS7_SB_EEED2Ev = comdat any

$_ZN4absl12lts_2023080218container_internal12raw_hash_setINS1_17FlatHashMapPolicyISt17basic_string_viewIcSt11char_traitsIcEENSt7__cxx1112basic_stringIcS6_SaIcEEEEENS1_10StringHashENS1_8StringEqESaISt4pairIKS7_SB_EEED2Ev = comdat any

$_ZN4absl12lts_2023080218container_internal12raw_hash_setINS1_17FlatHashMapPolicyISt17basic_string_viewIcSt11char_traitsIcEENSt7__cxx1112basic_stringIcS6_SaIcEEEEENS1_10StringHashENS1_8StringEqESaISt4pairIKS7_SB_EEE13destroy_slotsEv = comdat any

$_ZN4absl12lts_2023080218container_internal20HashtablezInfoHandle10UnregisterEv = comdat any

$_ZN4absl12lts_2023080218container_internal15CompressedTupleIJNS1_12CommonFieldsENS1_10StringHashENS1_8StringEqESaISt4pairIKSt17basic_string_viewIcSt11char_traitsIcEENSt7__cxx1112basic_stringIcS9_SaIcEEEEEEED2Ev = comdat any

$_ZN4absl12lts_2023080218container_internal20common_policy_traitsINS1_17FlatHashMapPolicyISt17basic_string_viewIcSt11char_traitsIcEENSt7__cxx1112basic_stringIcS6_SaIcEEEEEvE7destroyISaISt4pairIKS7_SB_EEEEvPT_PNS1_13map_slot_typeIS7_SB_EE = comdat any

$_ZN4absl12lts_2023080218container_internal17FlatHashMapPolicyISt17basic_string_viewIcSt11char_traitsIcEENSt7__cxx1112basic_stringIcS5_SaIcEEEE7destroyISaISt4pairIKS6_SA_EEEEvPT_PNS1_13map_slot_typeIS6_SA_EE = comdat any

$_ZN4absl12lts_2023080218container_internal25internal_compressed_tuple19CompressedTupleImplINS1_15CompressedTupleIJNS1_12CommonFieldsENS1_10StringHashENS1_8StringEqESaISt4pairIKSt17basic_string_viewIcSt11char_traitsIcEENSt7__cxx1112basic_stringIcSB_SaIcEEEEEEEENS0_16integer_sequenceImJLm0ELm1ELm2ELm3EEEELb1EED2Ev = comdat any

$_ZN4absl12lts_2023080218container_internal25internal_compressed_tuple7StorageISaISt4pairIKSt17basic_string_viewIcSt11char_traitsIcEENSt7__cxx1112basic_stringIcS7_SaIcEEEEELm3ELb1EED2Ev = comdat any

$_ZNSt15__new_allocatorISt4pairIKSt17basic_string_viewIcSt11char_traitsIcEENSt7__cxx1112basic_stringIcS3_SaIcEEEEED2Ev = comdat any

$_ZNSt6vectorIN6google8protobuf2io7Printer3SubESaIS4_EEC2Ev = comdat any

$_ZNSt12_Vector_baseIN6google8protobuf2io7Printer3SubESaIS4_EEC2Ev = comdat any

$_ZNSt12_Vector_baseIN6google8protobuf2io7Printer3SubESaIS4_EE12_Vector_implC2Ev = comdat any

$_ZNSaIN6google8protobuf2io7Printer3SubEEC2Ev = comdat any

$_ZNSt12_Vector_baseIN6google8protobuf2io7Printer3SubESaIS4_EE17_Vector_impl_dataC2Ev = comdat any

$_ZNSt15__new_allocatorIN6google8protobuf2io7Printer3SubEEC2Ev = comdat any

$_ZN6google8protobuf8compiler3cpp9FormatterC2EPNS0_2io7PrinterERKN4absl12lts_2023080213flat_hash_mapISt17basic_string_viewIcSt11char_traitsIcEENSt7__cxx1112basic_stringIcSC_SaIcEEENS8_18container_internal10StringHashENSI_8StringEqESaISt4pairIKSD_SH_EEEE = comdat any

$_ZNK6google8protobuf8compiler3cpp9FormatterclIJEEEvPKcDpRKT_ = comdat any

$_ZN6google8protobuf8compiler3cpp9FormatterD2Ev = comdat any

$_ZN4absl12lts_2023080213flat_hash_mapISt17basic_string_viewIcSt11char_traitsIcEENSt7__cxx1112basic_stringIcS4_SaIcEEENS0_18container_internal10StringHashENSA_8StringEqESaISt4pairIKS5_S9_EEEC2ERKSH_ = comdat any

$_ZN4absl12lts_2023080218container_internal12raw_hash_mapINS1_17FlatHashMapPolicyISt17basic_string_viewIcSt11char_traitsIcEENSt7__cxx1112basic_stringIcS6_SaIcEEEEENS1_10StringHashENS1_8StringEqESaISt4pairIKS7_SB_EEEC2ERKSJ_ = comdat any

$_ZN4absl12lts_2023080218container_internal12raw_hash_setINS1_17FlatHashMapPolicyISt17basic_string_viewIcSt11char_traitsIcEENSt7__cxx1112basic_stringIcS6_SaIcEEEEENS1_10StringHashENS1_8StringEqESaISt4pairIKS7_SB_EEEC2ERKSJ_ = comdat any

$_ZNSt16allocator_traitsISaISt4pairIKSt17basic_string_viewIcSt11char_traitsIcEENSt7__cxx1112basic_stringIcS3_SaIcEEEEEE37select_on_container_copy_constructionERKSB_ = comdat any

$_ZNK4absl12lts_2023080218container_internal12raw_hash_setINS1_17FlatHashMapPolicyISt17basic_string_viewIcSt11char_traitsIcEENSt7__cxx1112basic_stringIcS6_SaIcEEEEENS1_10StringHashENS1_8StringEqESaISt4pairIKS7_SB_EEE9alloc_refEv = comdat any

$_ZN4absl12lts_2023080218container_internal12raw_hash_setINS1_17FlatHashMapPolicyISt17basic_string_viewIcSt11char_traitsIcEENSt7__cxx1112basic_stringIcS6_SaIcEEEEENS1_10StringHashENS1_8StringEqESaISt4pairIKS7_SB_EEEC2ERKSJ_RKSI_ = comdat any

$_ZNSaISt4pairIKSt17basic_string_viewIcSt11char_traitsIcEENSt7__cxx1112basic_stringIcS2_SaIcEEEEED2Ev = comdat any

$_ZNSaISt4pairIKSt17basic_string_viewIcSt11char_traitsIcEENSt7__cxx1112basic_stringIcS2_SaIcEEEEEC2ERKSA_ = comdat any

$_ZNSt15__new_allocatorISt4pairIKSt17basic_string_viewIcSt11char_traitsIcEENSt7__cxx1112basic_stringIcS3_SaIcEEEEEC2ERKSB_ = comdat any

$_ZNKR4absl12lts_2023080218container_internal15CompressedTupleIJNS1_12CommonFieldsENS1_10StringHashENS1_8StringEqESaISt4pairIKSt17basic_string_viewIcSt11char_traitsIcEENSt7__cxx1112basic_stringIcS9_SaIcEEEEEEE3getILi3EEERKNS1_25internal_compressed_tuple4ElemISI_XT_EE4typeEv = comdat any

$_ZNKR4absl12lts_2023080218container_internal25internal_compressed_tuple7StorageISaISt4pairIKSt17basic_string_viewIcSt11char_traitsIcEENSt7__cxx1112basic_stringIcS7_SaIcEEEEELm3ELb1EE3getEv = comdat any

$_ZNK4absl12lts_2023080218container_internal12raw_hash_setINS1_17FlatHashMapPolicyISt17basic_string_viewIcSt11char_traitsIcEENSt7__cxx1112basic_stringIcS6_SaIcEEEEENS1_10StringHashENS1_8StringEqESaISt4pairIKS7_SB_EEE8hash_refEv = comdat any

$_ZNK4absl12lts_2023080218container_internal12raw_hash_setINS1_17FlatHashMapPolicyISt17basic_string_viewIcSt11char_traitsIcEENSt7__cxx1112basic_stringIcS6_SaIcEEEEENS1_10StringHashENS1_8StringEqESaISt4pairIKS7_SB_EEE6eq_refEv = comdat any

$_ZN4absl12lts_2023080218container_internal12raw_hash_setINS1_17FlatHashMapPolicyISt17basic_string_viewIcSt11char_traitsIcEENSt7__cxx1112basic_stringIcS6_SaIcEEEEENS1_10StringHashENS1_8StringEqESaISt4pairIKS7_SB_EEEC2EmRKSD_RKSE_RKSI_ = comdat any

$_ZN4absl12lts_2023080218container_internal12raw_hash_setINS1_17FlatHashMapPolicyISt17basic_string_viewIcSt11char_traitsIcEENSt7__cxx1112basic_stringIcS6_SaIcEEEEENS1_10StringHashENS1_8StringEqESaISt4pairIKS7_SB_EEE7reserveEm = comdat any

$_ZNK4absl12lts_2023080218container_internal12raw_hash_setINS1_17FlatHashMapPolicyISt17basic_string_viewIcSt11char_traitsIcEENSt7__cxx1112basic_stringIcS6_SaIcEEEEENS1_10StringHashENS1_8StringEqESaISt4pairIKS7_SB_EEE5beginEv = comdat any

$_ZNK4absl12lts_2023080218container_internal12raw_hash_setINS1_17FlatHashMapPolicyISt17basic_string_viewIcSt11char_traitsIcEENSt7__cxx1112basic_stringIcS6_SaIcEEEEENS1_10StringHashENS1_8StringEqESaISt4pairIKS7_SB_EEE3endEv = comdat any

$_ZN4absl12lts_2023080218container_internalneERKNS1_12raw_hash_setINS1_17FlatHashMapPolicyISt17basic_string_viewIcSt11char_traitsIcEENSt7__cxx1112basic_stringIcS6_SaIcEEEEENS1_10StringHashENS1_8StringEqESaISt4pairIKS7_SB_EEE14const_iteratorESM_ = comdat any

$_ZNK4absl12lts_2023080218container_internal12raw_hash_setINS1_17FlatHashMapPolicyISt17basic_string_viewIcSt11char_traitsIcEENSt7__cxx1112basic_stringIcS6_SaIcEEEEENS1_10StringHashENS1_8StringEqESaISt4pairIKS7_SB_EEE14const_iteratordeEv = comdat any

$_ZN4absl12lts_2023080218container_internal18hash_policy_traitsINS1_17FlatHashMapPolicyISt17basic_string_viewIcSt11char_traitsIcEENSt7__cxx1112basic_stringIcS6_SaIcEEEEEvE5applyINS1_12raw_hash_setISC_NS1_10StringHashENS1_8StringEqESaISt4pairIKS7_SB_EEE11HashElementEJRKSK_ESC_EEDTclsrT1_5applyclsr3stdE7forwardIT_Efp_Espclsr3stdE7forwardIT0_Efp0_EEEOSR_DpOSS_ = comdat any

$_ZN4absl12lts_2023080218container_internal12raw_hash_setINS1_17FlatHashMapPolicyISt17basic_string_viewIcSt11char_traitsIcEENSt7__cxx1112basic_stringIcS6_SaIcEEEEENS1_10StringHashENS1_8StringEqESaISt4pairIKS7_SB_EEE10emplace_atIJRKSH_EEEvmDpOT_ = comdat any

$_ZN4absl12lts_2023080218container_internal12raw_hash_setINS1_17FlatHashMapPolicyISt17basic_string_viewIcSt11char_traitsIcEENSt7__cxx1112basic_stringIcS6_SaIcEEEEENS1_10StringHashENS1_8StringEqESaISt4pairIKS7_SB_EEE14const_iteratorppEv = comdat any

$_ZNKR4absl12lts_2023080218container_internal15CompressedTupleIJNS1_12CommonFieldsENS1_10StringHashENS1_8StringEqESaISt4pairIKSt17basic_string_viewIcSt11char_traitsIcEENSt7__cxx1112basic_stringIcS9_SaIcEEEEEEE3getILi1EEERKNS1_25internal_compressed_tuple4ElemISI_XT_EE4typeEv = comdat any

$_ZNKR4absl12lts_2023080218container_internal25internal_compressed_tuple7StorageINS1_10StringHashELm1ELb1EE3getEv = comdat any

$_ZNKR4absl12lts_2023080218container_internal15CompressedTupleIJNS1_12CommonFieldsENS1_10StringHashENS1_8StringEqESaISt4pairIKSt17basic_string_viewIcSt11char_traitsIcEENSt7__cxx1112basic_stringIcS9_SaIcEEEEEEE3getILi2EEERKNS1_25internal_compressed_tuple4ElemISI_XT_EE4typeEv = comdat any

$_ZNKR4absl12lts_2023080218container_internal25internal_compressed_tuple7StorageINS1_8StringEqELm2ELb1EE3getEv = comdat any

$_ZN4absl12lts_2023080218container_internal12CommonFieldsC2Ev = comdat any

$_ZN4absl12lts_2023080218container_internal15CompressedTupleIJNS1_12CommonFieldsENS1_10StringHashENS1_8StringEqESaISt4pairIKSt17basic_string_viewIcSt11char_traitsIcEENSt7__cxx1112basic_stringIcS9_SaIcEEEEEEEC2IS3_JRKS4_RKS5_RKSH_ETnNSt9enable_ifIXsr4absl11conjunctionINS0_8negationISt7is_sameIFvSI_EFvNSt5decayIT_E4typeEEEEENS1_25internal_compressed_tuple27TupleItemsMoveConstructibleISI_JSV_DpT0_EEEEE5valueEbE4typeELb1EEEOSV_DpOS13_ = comdat any

$_ZN4absl12lts_2023080218container_internal17NormalizeCapacityEm = comdat any

$_ZN4absl12lts_2023080218container_internal10EmptyGroupEv = comdat any

$_ZN4absl12lts_2023080218container_internal15CompressedTupleIJmNS1_20HashtablezInfoHandleEEEC2IjJS3_ETnNSt9enable_ifIXsr4absl11conjunctionINS0_8negationISt7is_sameIFvS4_EFvNSt5decayIT_E4typeEEEEENS1_25internal_compressed_tuple27TupleItemsMoveConstructibleIS4_JSB_DpT0_EEEEE5valueEbE4typeELb1EEEOSB_DpOSJ_ = comdat any

$_ZN4absl12lts_202308027forwardIjEEOT_RNSt16remove_referenceIS2_E4typeE = comdat any

$_ZN4absl12lts_202308027forwardINS0_18container_internal20HashtablezInfoHandleEEEOT_RNSt16remove_referenceIS4_E4typeE = comdat any

$_ZN4absl12lts_2023080218container_internal25internal_compressed_tuple19CompressedTupleImplINS1_15CompressedTupleIJmNS1_20HashtablezInfoHandleEEEENS0_16integer_sequenceImJLm0ELm1EEEELb1EEC2IJjS5_EEESt10in_place_tDpOT_ = comdat any

$_ZN4absl12lts_2023080218container_internal25internal_compressed_tuple7StorageImLm0ELb0EEC2IjEESt10in_place_tOT_ = comdat any

$_ZN4absl12lts_2023080218container_internal25internal_compressed_tuple7StorageINS1_20HashtablezInfoHandleELm1ELb1EEC2IS4_EESt10in_place_tOT_ = comdat any

$_ZN4absl12lts_202308027forwardINS0_18container_internal12CommonFieldsEEEOT_RNSt16remove_referenceIS4_E4typeE = comdat any

$_ZN4absl12lts_202308027forwardIRKNS0_18container_internal10StringHashEEEOT_RNSt16remove_referenceIS6_E4typeE = comdat any

$_ZN4absl12lts_202308027forwardIRKNS0_18container_internal8StringEqEEEOT_RNSt16remove_referenceIS6_E4typeE = comdat any

$_ZN4absl12lts_202308027forwardIRKSaISt4pairIKSt17basic_string_viewIcSt11char_traitsIcEENSt7__cxx1112basic_stringIcS5_SaIcEEEEEEEOT_RNSt16remove_referenceISG_E4typeE = comdat any

$_ZN4absl12lts_2023080218container_internal25internal_compressed_tuple19CompressedTupleImplINS1_15CompressedTupleIJNS1_12CommonFieldsENS1_10StringHashENS1_8StringEqESaISt4pairIKSt17basic_string_viewIcSt11char_traitsIcEENSt7__cxx1112basic_stringIcSB_SaIcEEEEEEEENS0_16integer_sequenceImJLm0ELm1ELm2ELm3EEEELb1EEC2IJS5_RKS6_RKS7_RKSJ_EEESt10in_place_tDpOT_ = comdat any

$_ZN4absl12lts_2023080218container_internal25internal_compressed_tuple7StorageINS1_12CommonFieldsELm0ELb0EEC2IS4_EESt10in_place_tOT_ = comdat any

$_ZN4absl12lts_2023080218container_internal25internal_compressed_tuple7StorageINS1_10StringHashELm1ELb1EEC2IRKS4_EESt10in_place_tOT_ = comdat any

$_ZN4absl12lts_2023080218container_internal25internal_compressed_tuple7StorageINS1_8StringEqELm2ELb1EEC2IRKS4_EESt10in_place_tOT_ = comdat any

$_ZN4absl12lts_2023080218container_internal25internal_compressed_tuple7StorageISaISt4pairIKSt17basic_string_viewIcSt11char_traitsIcEENSt7__cxx1112basic_stringIcS7_SaIcEEEEELm3ELb1EEC2IRKSF_EESt10in_place_tOT_ = comdat any

$_ZN4absl12lts_2023080218container_internal12CommonFieldsC2EOS2_ = comdat any

$_ZN4absl12lts_2023080218container_internal15CompressedTupleIJmNS1_20HashtablezInfoHandleEEEC2ImJS3_ETnNSt9enable_ifIXsr4absl11conjunctionINS0_8negationISt7is_sameIFvS4_EFvNSt5decayIT_E4typeEEEEENS1_25internal_compressed_tuple27TupleItemsMoveConstructibleIS4_JSB_DpT0_EEEEE5valueEbE4typeELb1EEEOSB_DpOSJ_ = comdat any

$_ZN4absl12lts_202308027forwardImEEOT_RNSt16remove_referenceIS2_E4typeE = comdat any

$_ZN4absl12lts_2023080218container_internal25internal_compressed_tuple19CompressedTupleImplINS1_15CompressedTupleIJmNS1_20HashtablezInfoHandleEEEENS0_16integer_sequenceImJLm0ELm1EEEELb1EEC2IJmS5_EEESt10in_place_tDpOT_ = comdat any

$_ZN4absl12lts_2023080218container_internal25internal_compressed_tuple7StorageImLm0ELb0EEC2ImEESt10in_place_tOT_ = comdat any

$_ZN4absl12lts_2023080211countl_zeroImEENSt9enable_ifIXsr3std11is_unsignedIT_EE5valueEiE4typeES3_ = comdat any

$_ZN4absl12lts_2023080218container_internal26GrowthToLowerboundCapacityEm = comdat any

$_ZN4absl12lts_2023080218container_internal20HashtablezInfoHandle17RecordReservationEm = comdat any

$_ZN4absl12lts_2023080218container_internal12CommonFields21reset_reserved_growthEm = comdat any

$_ZN4absl12lts_2023080218container_internal34CommonFieldsGenerationInfoDisabled20set_reservation_sizeEm = comdat any

$_ZN4absl12lts_2023080218container_internal34CommonFieldsGenerationInfoDisabled21reset_reserved_growthEmm = comdat any

$_ZN4absl12lts_2023080218container_internal12raw_hash_setINS1_17FlatHashMapPolicyISt17basic_string_viewIcSt11char_traitsIcEENSt7__cxx1112basic_stringIcS6_SaIcEEEEENS1_10StringHashENS1_8StringEqESaISt4pairIKS7_SB_EEE5beginEv = comdat any

$_ZN4absl12lts_2023080218container_internal12raw_hash_setINS1_17FlatHashMapPolicyISt17basic_string_viewIcSt11char_traitsIcEENSt7__cxx1112basic_stringIcS6_SaIcEEEEENS1_10StringHashENS1_8StringEqESaISt4pairIKS7_SB_EEE14const_iteratorC2ENSJ_8iteratorE = comdat any

$_ZN4absl12lts_2023080218container_internal12raw_hash_setINS1_17FlatHashMapPolicyISt17basic_string_viewIcSt11char_traitsIcEENSt7__cxx1112basic_stringIcS6_SaIcEEEEENS1_10StringHashENS1_8StringEqESaISt4pairIKS7_SB_EEE8iterator21skip_empty_or_deletedEv = comdat any

$_ZN4absl12lts_2023080218container_internal16IsEmptyOrDeletedENS1_6ctrl_tE = comdat any

$_ZNK4absl12lts_2023080218container_internal13GroupSse2Impl26CountLeadingEmptyOrDeletedEv = comdat any

$_ZN4absl12lts_2023080218container_internal20_mm_cmpgt_epi8_fixedEDv2_xS2_ = comdat any

$_ZN4absl12lts_2023080218container_internal12raw_hash_setINS1_17FlatHashMapPolicyISt17basic_string_viewIcSt11char_traitsIcEENSt7__cxx1112basic_stringIcS6_SaIcEEEEENS1_10StringHashENS1_8StringEqESaISt4pairIKS7_SB_EEE8iteratorC2EPKh = comdat any

$_ZN4absl12lts_2023080218container_internaleqERKNS1_12raw_hash_setINS1_17FlatHashMapPolicyISt17basic_string_viewIcSt11char_traitsIcEENSt7__cxx1112basic_stringIcS6_SaIcEEEEENS1_10StringHashENS1_8StringEqESaISt4pairIKS7_SB_EEE14const_iteratorESM_ = comdat any

$_ZN4absl12lts_2023080218container_internaleqERKNS1_12raw_hash_setINS1_17FlatHashMapPolicyISt17basic_string_viewIcSt11char_traitsIcEENSt7__cxx1112basic_stringIcS6_SaIcEEEEENS1_10StringHashENS1_8StringEqESaISt4pairIKS7_SB_EEE8iteratorESM_ = comdat any

$_ZN4absl12lts_2023080218container_internal26AssertIsValidForComparisonEPKNS1_6ctrl_tEhPKh = comdat any

$_ZN4absl12lts_2023080218container_internal19AssertSameContainerEPKNS1_6ctrl_tES4_RKPKvS8_PKhSA_ = comdat any

$_ZN4absl12lts_2023080218container_internal17FlatHashMapPolicyISt17basic_string_viewIcSt11char_traitsIcEENSt7__cxx1112basic_stringIcS5_SaIcEEEE5applyINS1_12raw_hash_setISB_NS1_10StringHashENS1_8StringEqESaISt4pairIKS6_SA_EEE11HashElementEJRKSI_EEEDTclsr4absl18container_internalE13DecomposePairclsr3stdE7declvalIT_EEspclsr3stdE7declvalIT0_EEEEOSO_DpOSP_ = comdat any

$_ZN4absl12lts_2023080218container_internal13DecomposePairINS1_12raw_hash_setINS1_17FlatHashMapPolicyISt17basic_string_viewIcSt11char_traitsIcEENSt7__cxx1112basic_stringIcS7_SaIcEEEEENS1_10StringHashENS1_8StringEqESaISt4pairIKS8_SC_EEE11HashElementEJRKSI_EEEDTclsr15memory_internalE17DecomposePairImplclsr3stdE7forwardIT_Efp_Ecl8PairArgsspclsr3stdE7forwardIT0_Efp0_EEEEOSO_DpOSP_ = comdat any

$_ZN4absl12lts_2023080218container_internal20common_policy_traitsINS1_17FlatHashMapPolicyISt17basic_string_viewIcSt11char_traitsIcEENSt7__cxx1112basic_stringIcS6_SaIcEEEEEvE9constructISaISt4pairIKS7_SB_EEJRKSH_EEEvPT_PNS1_13map_slot_typeIS7_SB_EEDpOT0_ = comdat any

$_ZN4absl12lts_2023080218container_internal17FlatHashMapPolicyISt17basic_string_viewIcSt11char_traitsIcEENSt7__cxx1112basic_stringIcS5_SaIcEEEE9constructISaISt4pairIKS6_SA_EEJRKSF_EEEvPT_PNS1_13map_slot_typeIS6_SA_EEDpOT0_ = comdat any

$_ZN4absl12lts_2023080218container_internal15map_slot_policyISt17basic_string_viewIcSt11char_traitsIcEENSt7__cxx1112basic_stringIcS5_SaIcEEEE9constructISaISt4pairIKS6_SA_EEJRKSF_EEEvPT_PNS1_13map_slot_typeIS6_SA_EEDpOT0_ = comdat any

$_ZNSt16allocator_traitsISaISt4pairIKSt17basic_string_viewIcSt11char_traitsIcEENSt7__cxx1112basic_stringIcS3_SaIcEEEEEE9constructIS0_IS4_S9_EJRKSA_EEEvRSB_PT_DpOT0_ = comdat any

$_ZNSt15__new_allocatorISt4pairIKSt17basic_string_viewIcSt11char_traitsIcEENSt7__cxx1112basic_stringIcS3_SaIcEEEEE9constructIS0_IS4_S9_EJRKSA_EEEvPT_DpOT0_ = comdat any

$_ZNSt4pairISt17basic_string_viewIcSt11char_traitsIcEENSt7__cxx1112basic_stringIcS2_SaIcEEEEC2IKS3_S7_TnNSt9enable_ifIXaaclsr6_PCCFPIT_T0_EE18_ConstructiblePairISC_SD_EEclsr6_PCCFPISC_SD_EE26_ImplicitlyConvertiblePairISC_SD_EEEbE4typeELb1EEERKS_ISC_SD_E = comdat any

$_ZN4absl12lts_2023080218container_internal12raw_hash_setINS1_17FlatHashMapPolicyISt17basic_string_viewIcSt11char_traitsIcEENSt7__cxx1112basic_stringIcS6_SaIcEEEEENS1_10StringHashENS1_8StringEqESaISt4pairIKS7_SB_EEE8iteratorppEv = comdat any

$_ZN6google8protobuf2io7Printer14FormatInternalIN4absl12lts_2023080213flat_hash_mapISt17basic_string_viewIcSt11char_traitsIcEENSt7__cxx1112basic_stringIcS9_SaIcEEENS5_18container_internal10StringHashENSF_8StringEqESaISt4pairIKSA_SE_EEEEEEvNS5_4SpanIKSE_EERKT_SA_ = comdat any

$_ZN4absl12lts_202308024SpanIKNSt7__cxx1112basic_stringIcSt11char_traitsIcESaIcEEEEC2Ev = comdat any

$_ZN6google8protobuf2io7Printer12PrintOptionsC2Ev = comdat any

$_ZN6google8protobuf2io7Printer8WithVarsIN4absl12lts_2023080213flat_hash_mapISt17basic_string_viewIcSt11char_traitsIcEENSt7__cxx1112basic_stringIcS9_SaIcEEENS5_18container_internal10StringHashENSF_8StringEqESaISt4pairIKSA_SE_EEEEEEDaPKT_ = comdat any

$_ZN4absl12lts_202308027CleanupINS0_16cleanup_internal3TagEZN6google8protobuf2io7Printer8WithVarsINS0_13flat_hash_mapISt17basic_string_viewIcSt11char_traitsIcEENSt7__cxx1112basic_stringIcSC_SaIcEEENS0_18container_internal10StringHashENSI_8StringEqESaISt4pairIKSD_SH_EEEEEEDaPKT_EUlvE_ED2Ev = comdat any

$_ZNSt8optionalIN6google8protobuf2io7Printer14SourceLocationEEC2Ev = comdat any

$_ZNSt14_Optional_baseIN6google8protobuf2io7Printer14SourceLocationELb1ELb1EEC2Ev = comdat any

$_ZNSt17_Optional_payloadIN6google8protobuf2io7Printer14SourceLocationELb1ELb1ELb1EEC2Ev = comdat any

$_ZNSt22_Optional_payload_baseIN6google8protobuf2io7Printer14SourceLocationEEC2Ev = comdat any

$_ZNSt22_Optional_payload_baseIN6google8protobuf2io7Printer14SourceLocationEE8_StorageIS4_Lb1EEC2Ev = comdat any

$_ZNSt6vectorISt8functionIFSt8optionalIN6google8protobuf2io7Printer9ValueImplILb0EEEESt17basic_string_viewIcSt11char_traitsIcEEEESaISE_EE12emplace_backIJZNS5_8WithVarsIN4absl12lts_2023080213flat_hash_mapISC_NSt7__cxx1112basic_stringIcSB_SaIcEEENSK_18container_internal10StringHashENSQ_8StringEqESaISt4pairIKSC_SP_EEEEEEDaPKT_EUlSC_E_EEERSE_DpOT_ = comdat any

$_ZN4absl12lts_2023080211MakeCleanupIJEZN6google8protobuf2io7Printer8WithVarsINS0_13flat_hash_mapISt17basic_string_viewIcSt11char_traitsIcEENSt7__cxx1112basic_stringIcSA_SaIcEEENS0_18container_internal10StringHashENSG_8StringEqESaISt4pairIKSB_SF_EEEEEEDaPKT_EUlvE_EENS0_7CleanupINS0_16cleanup_internal3TagET0_EESV_ = comdat any

$_ZNSt16allocator_traitsISaISt8functionIFSt8optionalIN6google8protobuf2io7Printer9ValueImplILb0EEEESt17basic_string_viewIcSt11char_traitsIcEEEEEE9constructISE_JZNS5_8WithVarsIN4absl12lts_2023080213flat_hash_mapISC_NSt7__cxx1112basic_stringIcSB_SaIcEEENSK_18container_internal10StringHashENSQ_8StringEqESaISt4pairIKSC_SP_EEEEEEDaPKT_EUlSC_E_EEEvRSF_PSY_DpOT0_ = comdat any

$_ZNSt6vectorISt8functionIFSt8optionalIN6google8protobuf2io7Printer9ValueImplILb0EEEESt17basic_string_viewIcSt11char_traitsIcEEEESaISE_EE17_M_realloc_insertIJZNS5_8WithVarsIN4absl12lts_2023080213flat_hash_mapISC_NSt7__cxx1112basic_stringIcSB_SaIcEEENSK_18container_internal10StringHashENSQ_8StringEqESaISt4pairIKSC_SP_EEEEEEDaPKT_EUlSC_E_EEEvN9__gnu_cxx17__normal_iteratorIPSE_SG_EEDpOT_ = comdat any

$_ZNSt6vectorISt8functionIFSt8optionalIN6google8protobuf2io7Printer9ValueImplILb0EEEESt17basic_string_viewIcSt11char_traitsIcEEEESaISE_EE3endEv = comdat any

$_ZNSt6vectorISt8functionIFSt8optionalIN6google8protobuf2io7Printer9ValueImplILb0EEEESt17basic_string_viewIcSt11char_traitsIcEEEESaISE_EE4backEv = comdat any

$_ZNSt15__new_allocatorISt8functionIFSt8optionalIN6google8protobuf2io7Printer9ValueImplILb0EEEESt17basic_string_viewIcSt11char_traitsIcEEEEE9constructISE_JZNS5_8WithVarsIN4absl12lts_2023080213flat_hash_mapISC_NSt7__cxx1112basic_stringIcSB_SaIcEEENSJ_18container_internal10StringHashENSP_8StringEqESaISt4pairIKSC_SO_EEEEEEDaPKT_EUlSC_E_EEEvPSX_DpOT0_ = comdat any

$_ZNSt8functionIFSt8optionalIN6google8protobuf2io7Printer9ValueImplILb0EEEESt17basic_string_viewIcSt11char_traitsIcEEEEC2IZNS4_8WithVarsIN4absl12lts_2023080213flat_hash_mapISB_NSt7__cxx1112basic_stringIcSA_SaIcEEENSH_18container_internal10StringHashENSN_8StringEqESaISt4pairIKSB_SM_EEEEEEDaPKT_EUlSB_E_vEEOSV_ = comdat any

$_ZNSt14_Function_baseC2Ev = comdat any

$_ZNSt14_Function_base13_Base_managerIZN6google8protobuf2io7Printer8WithVarsIN4absl12lts_2023080213flat_hash_mapISt17basic_string_viewIcSt11char_traitsIcEENSt7__cxx1112basic_stringIcSB_SaIcEEENS7_18container_internal10StringHashENSH_8StringEqESaISt4pairIKSC_SG_EEEEEEDaPKT_EUlSC_E_E21_M_not_empty_functionISS_EEbRSQ_ = comdat any

$_ZNSt14_Function_base13_Base_managerIZN6google8protobuf2io7Printer8WithVarsIN4absl12lts_2023080213flat_hash_mapISt17basic_string_viewIcSt11char_traitsIcEENSt7__cxx1112basic_stringIcSB_SaIcEEENS7_18container_internal10StringHashENSH_8StringEqESaISt4pairIKSC_SG_EEEEEEDaPKT_EUlSC_E_E15_M_init_functorISS_EEvRSt9_Any_dataOSP_ = comdat any

$_ZNSt17_Function_handlerIFSt8optionalIN6google8protobuf2io7Printer9ValueImplILb0EEEESt17basic_string_viewIcSt11char_traitsIcEEEZNS4_8WithVarsIN4absl12lts_2023080213flat_hash_mapISB_NSt7__cxx1112basic_stringIcSA_SaIcEEENSF_18container_internal10StringHashENSL_8StringEqESaISt4pairIKSB_SK_EEEEEEDaPKT_EUlSB_E_E9_M_invokeERKSt9_Any_dataOSB_ = comdat any

$_ZNSt17_Function_handlerIFSt8optionalIN6google8protobuf2io7Printer9ValueImplILb0EEEESt17basic_string_viewIcSt11char_traitsIcEEEZNS4_8WithVarsIN4absl12lts_2023080213flat_hash_mapISB_NSt7__cxx1112basic_stringIcSA_SaIcEEENSF_18container_internal10StringHashENSL_8StringEqESaISt4pairIKSB_SK_EEEEEEDaPKT_EUlSB_E_E10_M_managerERSt9_Any_dataRKSY_St18_Manager_operation = comdat any

$_ZNSt14_Function_base13_Base_managerIZN6google8protobuf2io7Printer8WithVarsIN4absl12lts_2023080213flat_hash_mapISt17basic_string_viewIcSt11char_traitsIcEENSt7__cxx1112basic_stringIcSB_SaIcEEENS7_18container_internal10StringHashENSH_8StringEqESaISt4pairIKSC_SG_EEEEEEDaPKT_EUlSC_E_E9_M_createISS_EEvRSt9_Any_dataOSP_St17integral_constantIbLb1EE = comdat any

$_ZNSt9_Any_data9_M_accessEv = comdat any

$_ZSt10__invoke_rISt8optionalIN6google8protobuf2io7Printer9ValueImplILb0EEEERZNS4_8WithVarsIN4absl12lts_2023080213flat_hash_mapISt17basic_string_viewIcSt11char_traitsIcEENSt7__cxx1112basic_stringIcSE_SaIcEEENSA_18container_internal10StringHashENSK_8StringEqESaISt4pairIKSF_SJ_EEEEEEDaPKT_EUlSF_E_JSF_EENSt9enable_ifIX16is_invocable_r_vISS_T0_DpT1_EESS_E4typeEOSY_DpOSZ_ = comdat any

$_ZNSt14_Function_base13_Base_managerIZN6google8protobuf2io7Printer8WithVarsIN4absl12lts_2023080213flat_hash_mapISt17basic_string_viewIcSt11char_traitsIcEENSt7__cxx1112basic_stringIcSB_SaIcEEENS7_18container_internal10StringHashENSH_8StringEqESaISt4pairIKSC_SG_EEEEEEDaPKT_EUlSC_E_E14_M_get_pointerERKSt9_Any_data = comdat any

$_ZSt13__invoke_implISt8optionalIN6google8protobuf2io7Printer9ValueImplILb0EEEERZNS4_8WithVarsIN4absl12lts_2023080213flat_hash_mapISt17basic_string_viewIcSt11char_traitsIcEENSt7__cxx1112basic_stringIcSE_SaIcEEENSA_18container_internal10StringHashENSK_8StringEqESaISt4pairIKSF_SJ_EEEEEEDaPKT_EUlSF_E_JSF_EESS_St14__invoke_otherOT0_DpOT1_ = comdat any

$_ZZN6google8protobuf2io7Printer8WithVarsIN4absl12lts_2023080213flat_hash_mapISt17basic_string_viewIcSt11char_traitsIcEENSt7__cxx1112basic_stringIcS9_SaIcEEENS5_18container_internal10StringHashENSF_8StringEqESaISt4pairIKSA_SE_EEEEEEDaPKT_ENKUlSA_E_clESA_ = comdat any

$_ZNK4absl12lts_2023080218container_internal12raw_hash_setINS1_17FlatHashMapPolicyISt17basic_string_viewIcSt11char_traitsIcEENSt7__cxx1112basic_stringIcS6_SaIcEEEEENS1_10StringHashENS1_8StringEqESaISt4pairIKS7_SB_EEE4findIS7_EENSJ_14const_iteratorERKT_ = comdat any

$_ZN6google8protobuf2io7Printer11ToStringKeyIN4absl12lts_2023080213flat_hash_mapISt17basic_string_viewIcSt11char_traitsIcEENSt7__cxx1112basic_stringIcS9_SaIcEEENS5_18container_internal10StringHashENSF_8StringEqESaISt4pairIKSA_SE_EEEEvEESA_SA_ = comdat any

$_ZNSt8optionalIN6google8protobuf2io7Printer9ValueImplILb0EEEEC2ESt9nullopt_t = comdat any

$_ZNK4absl12lts_2023080218container_internal12raw_hash_setINS1_17FlatHashMapPolicyISt17basic_string_viewIcSt11char_traitsIcEENSt7__cxx1112basic_stringIcS6_SaIcEEEEENS1_10StringHashENS1_8StringEqESaISt4pairIKS7_SB_EEE14const_iteratorptEv = comdat any

$_ZN6google8protobuf2io7Printer9ValueImplILb0EEC2IRKNSt7__cxx1112basic_stringIcSt11char_traitsIcESaIcEEEvEEOT_ = comdat any

$_ZNSt8optionalIN6google8protobuf2io7Printer9ValueImplILb0EEEEC2IS5_TnNSt9enable_ifIX7__and_vISt6__not_ISt7is_sameIS6_NSt9remove_cvINSt16remove_referenceIT_E4typeEE4typeEEES9_ISA_ISt10in_place_tSH_EESt16is_constructibleIS5_JSD_EESt14is_convertibleISD_S5_EEEbE4typeELb1EEEOSD_ = comdat any

$_ZN6google8protobuf2io7Printer9ValueImplILb0EED2Ev = comdat any

$_ZNK4absl12lts_2023080218container_internal12raw_hash_setINS1_17FlatHashMapPolicyISt17basic_string_viewIcSt11char_traitsIcEENSt7__cxx1112basic_stringIcS6_SaIcEEEEENS1_10StringHashENS1_8StringEqESaISt4pairIKS7_SB_EEE4findIS7_EENSJ_14const_iteratorERKT_m = comdat any

$_ZN4absl12lts_2023080218container_internal12raw_hash_setINS1_17FlatHashMapPolicyISt17basic_string_viewIcSt11char_traitsIcEENSt7__cxx1112basic_stringIcS6_SaIcEEEEENS1_10StringHashENS1_8StringEqESaISt4pairIKS7_SB_EEE4findIS7_EENSJ_8iteratorERKT_m = comdat any

$_ZN4absl12lts_2023080218container_internal18hash_policy_traitsINS1_17FlatHashMapPolicyISt17basic_string_viewIcSt11char_traitsIcEENSt7__cxx1112basic_stringIcS6_SaIcEEEEEvE5applyINS1_12raw_hash_setISC_NS1_10StringHashENS1_8StringEqESaISt4pairIKS7_SB_EEE12EqualElementIS7_EEJRSK_ESC_EEDTclsrT1_5applyclsr3stdE7forwardIT_Efp_Espclsr3stdE7forwardIT0_Efp0_EEEOSR_DpOSS_ = comdat any

$_ZN4absl12lts_2023080218container_internal12raw_hash_setINS1_17FlatHashMapPolicyISt17basic_string_viewIcSt11char_traitsIcEENSt7__cxx1112basic_stringIcS6_SaIcEEEEENS1_10StringHashENS1_8StringEqESaISt4pairIKS7_SB_EEE3endEv = comdat any

$_ZN4absl12lts_2023080218container_internal17FlatHashMapPolicyISt17basic_string_viewIcSt11char_traitsIcEENSt7__cxx1112basic_stringIcS5_SaIcEEEE5applyINS1_12raw_hash_setISB_NS1_10StringHashENS1_8StringEqESaISt4pairIKS6_SA_EEE12EqualElementIS6_EEJRSI_EEEDTclsr4absl18container_internalE13DecomposePairclsr3stdE7declvalIT_EEspclsr3stdE7declvalIT0_EEEEOSO_DpOSP_ = comdat any

$_ZN4absl12lts_2023080218container_internal13DecomposePairINS1_12raw_hash_setINS1_17FlatHashMapPolicyISt17basic_string_viewIcSt11char_traitsIcEENSt7__cxx1112basic_stringIcS7_SaIcEEEEENS1_10StringHashENS1_8StringEqESaISt4pairIKS8_SC_EEE12EqualElementIS8_EEJRSI_EEEDTclsr15memory_internalE17DecomposePairImplclsr3stdE7forwardIT_Efp_Ecl8PairArgsspclsr3stdE7forwardIT0_Efp0_EEEEOSO_DpOSP_ = comdat any

$_ZN4absl12lts_2023080218container_internal15memory_internal17DecomposePairImplINS1_12raw_hash_setINS1_17FlatHashMapPolicyISt17basic_string_viewIcSt11char_traitsIcEENSt7__cxx1112basic_stringIcS8_SaIcEEEEENS1_10StringHashENS1_8StringEqESaISt4pairIKS9_SD_EEE12EqualElementIS9_EERSI_St5tupleIJRKSD_EEEEDTclclsr3stdE7declvalIT_EEclsr3stdE7declvalIRKT0_EEL_ZSt19piecewise_constructEclsr3stdE7declvalISP_IJSU_EEEEclsr3stdE7declvalIT1_EEEEOST_SH_ISX_SY_E = comdat any

$_ZNK4absl12lts_2023080218container_internal12raw_hash_setINS1_17FlatHashMapPolicyISt17basic_string_viewIcSt11char_traitsIcEENSt7__cxx1112basic_stringIcS6_SaIcEEEEENS1_10StringHashENS1_8StringEqESaISt4pairIKS7_SB_EEE12EqualElementIS7_EclIS7_JRKSt21piecewise_construct_tSt5tupleIJRSG_EESQ_IJRKSB_EEEEEbRKT_DpOT0_ = comdat any

$_ZNSt14_Optional_baseIN6google8protobuf2io7Printer9ValueImplILb0EEELb0ELb0EEC2Ev = comdat any

$_ZNSt17_Optional_payloadIN6google8protobuf2io7Printer9ValueImplILb0EEELb0ELb0ELb0EEC2Ev = comdat any

$_ZNSt17_Optional_payloadIN6google8protobuf2io7Printer9ValueImplILb0EEELb1ELb0ELb0EEC2Ev = comdat any

$_ZNSt22_Optional_payload_baseIN6google8protobuf2io7Printer9ValueImplILb0EEEEC2Ev = comdat any

$_ZNSt22_Optional_payload_baseIN6google8protobuf2io7Printer9ValueImplILb0EEEE8_StorageIS5_Lb0EEC2Ev = comdat any

$_ZNK4absl12lts_2023080218container_internal12raw_hash_setINS1_17FlatHashMapPolicyISt17basic_string_viewIcSt11char_traitsIcEENSt7__cxx1112basic_stringIcS6_SaIcEEEEENS1_10StringHashENS1_8StringEqESaISt4pairIKS7_SB_EEE8iteratorptEv = comdat any

$_ZN6google8protobuf2io7Printer9ValueImplILb0EE18ToStringOrCallbackESt17basic_string_viewIcSt11char_traitsIcEENS4_5Rank1E = comdat any

$_ZSt17holds_alternativeISt8functionIFbvEEJSt17basic_string_viewIcSt11char_traitsIcEES2_EEbRKSt7variantIJDpT0_EE = comdat any

$_ZNSt7variantIJSt17basic_string_viewIcSt11char_traitsIcEESt8functionIFbvEEEED2Ev = comdat any

$_ZNSt7variantIJSt17basic_string_viewIcSt11char_traitsIcEESt8functionIFbvEEEEC2IS3_vvS3_vEEOT_ = comdat any

$_ZNSt7variantIJSt17basic_string_viewIcSt11char_traitsIcEESt8functionIFbvEEEEC2ILm0EJS3_ES3_vEESt16in_place_index_tIXT_EEDpOT0_ = comdat any

$_ZNSt8__detail9__variant13_Variant_baseIJSt17basic_string_viewIcSt11char_traitsIcEESt8functionIFbvEEEEC2ILm0EJS5_EEESt16in_place_index_tIXT_EEDpOT0_ = comdat any

$_ZNSt27_Enable_default_constructorILb1ESt7variantIJSt17basic_string_viewIcSt11char_traitsIcEESt8functionIFbvEEEEEC2ESt31_Enable_default_constructor_tag = comdat any

$_ZNSt8__detail9__variant13_Variant_baseIJSt17basic_string_viewIcSt11char_traitsIcEESt8functionIFbvEEEED2Ev = comdat any

$_ZNSt8__detail9__variant17_Move_assign_baseILb0EJSt17basic_string_viewIcSt11char_traitsIcEESt8functionIFbvEEEECI2NS0_16_Variant_storageILb0EJS5_S8_EEEILm0EJS5_EEESt16in_place_index_tIXT_EEDpOT0_ = comdat any

$_ZNSt8__detail9__variant17_Copy_assign_baseILb0EJSt17basic_string_viewIcSt11char_traitsIcEESt8functionIFbvEEEECI2NS0_16_Variant_storageILb0EJS5_S8_EEEILm0EJS5_EEESt16in_place_index_tIXT_EEDpOT0_ = comdat any

$_ZNSt8__detail9__variant15_Move_ctor_baseILb0EJSt17basic_string_viewIcSt11char_traitsIcEESt8functionIFbvEEEECI2NS0_16_Variant_storageILb0EJS5_S8_EEEILm0EJS5_EEESt16in_place_index_tIXT_EEDpOT0_ = comdat any

$_ZNSt8__detail9__variant15_Copy_ctor_baseILb0EJSt17basic_string_viewIcSt11char_traitsIcEESt8functionIFbvEEEECI2NS0_16_Variant_storageILb0EJS5_S8_EEEILm0EJS5_EEESt16in_place_index_tIXT_EEDpOT0_ = comdat any

$_ZNSt8__detail9__variant16_Variant_storageILb0EJSt17basic_string_viewIcSt11char_traitsIcEESt8functionIFbvEEEEC2ILm0EJS5_EEESt16in_place_index_tIXT_EEDpOT0_ = comdat any

$_ZNSt8__detail9__variant15_Variadic_unionIJSt17basic_string_viewIcSt11char_traitsIcEESt8functionIFbvEEEEC2IJS5_EEESt16in_place_index_tILm0EEDpOT_ = comdat any

$_ZNSt8__detail9__variant14_UninitializedISt17basic_string_viewIcSt11char_traitsIcEELb1EEC2IJS5_EEESt16in_place_index_tILm0EEDpOT_ = comdat any

$_ZNSt8__detail9__variant17_Move_assign_baseILb0EJSt17basic_string_viewIcSt11char_traitsIcEESt8functionIFbvEEEED2Ev = comdat any

$_ZNSt8__detail9__variant17_Copy_assign_baseILb0EJSt17basic_string_viewIcSt11char_traitsIcEESt8functionIFbvEEEED2Ev = comdat any

$_ZNSt8__detail9__variant15_Move_ctor_baseILb0EJSt17basic_string_viewIcSt11char_traitsIcEESt8functionIFbvEEEED2Ev = comdat any

$_ZNSt8__detail9__variant15_Copy_ctor_baseILb0EJSt17basic_string_viewIcSt11char_traitsIcEESt8functionIFbvEEEED2Ev = comdat any

$_ZNSt8__detail9__variant16_Variant_storageILb0EJSt17basic_string_viewIcSt11char_traitsIcEESt8functionIFbvEEEED2Ev = comdat any

$_ZNSt8__detail9__variant16_Variant_storageILb0EJSt17basic_string_viewIcSt11char_traitsIcEESt8functionIFbvEEEE8_M_resetEv = comdat any

$_ZNKSt8__detail9__variant16_Variant_storageILb0EJSt17basic_string_viewIcSt11char_traitsIcEESt8functionIFbvEEEE8_M_validEv = comdat any

$_ZSt10__do_visitIvZNSt8__detail9__variant16_Variant_storageILb0EJSt17basic_string_viewIcSt11char_traitsIcEESt8functionIFbvEEEE8_M_resetEvEUlOT_E_JRSt7variantIJS6_S9_EEEEDcOT0_DpOT1_ = comdat any

$_ZSt14__variant_castIJSt17basic_string_viewIcSt11char_traitsIcEESt8functionIFbvEEERNSt8__detail9__variant16_Variant_storageILb0EJS3_S6_EEEEDcOT0_ = comdat any

$_ZZSt10__do_visitIvZNSt8__detail9__variant16_Variant_storageILb0EJSt17basic_string_viewIcSt11char_traitsIcEESt8functionIFbvEEEE8_M_resetEvEUlOT_E_JRSt7variantIJS6_S9_EEEEDcOT0_DpOT1_ENKUlSG_zE_clESG_z = comdat any

$_ZNKSt7variantIJSt17basic_string_viewIcSt11char_traitsIcEESt8functionIFbvEEEE5indexEv = comdat any

$_ZNSt8__detail9__variant17__gen_vtable_implINS0_12_Multi_arrayIPFvOZNS0_16_Variant_storageILb0EJSt17basic_string_viewIcSt11char_traitsIcEESt8functionIFbvEEEE8_M_resetEvEUlOT_E_RSt7variantIJS7_SA_EEEJEEESt16integer_sequenceImJLm0EEEE14__visit_invokeESF_SI_ = comdat any

$_ZNSt8__detail9__variant17__gen_vtable_implINS0_12_Multi_arrayIPFvOZNS0_16_Variant_storageILb0EJSt17basic_string_viewIcSt11char_traitsIcEESt8functionIFbvEEEE8_M_resetEvEUlOT_E_RSt7variantIJS7_SA_EEEJEEESt16integer_sequenceImJLm1EEEE14__visit_invokeESF_SI_ = comdat any

$_ZSt10__invoke_rIvZNSt8__detail9__variant16_Variant_storageILb0EJSt17basic_string_viewIcSt11char_traitsIcEESt8functionIFbvEEEE8_M_resetEvEUlOT_E_JRS6_EENSt9enable_ifIX16is_invocable_r_vISB_T0_DpT1_EESB_E4typeEOSG_DpOSH_ = comdat any

$_ZNSt8__detail9__variant5__getILm0ERSt7variantIJSt17basic_string_viewIcSt11char_traitsIcEESt8functionIFbvEEEEEEDcOT0_ = comdat any

$_ZSt13__invoke_implIvZNSt8__detail9__variant16_Variant_storageILb0EJSt17basic_string_viewIcSt11char_traitsIcEESt8functionIFbvEEEE8_M_resetEvEUlOT_E_JRS6_EESB_St14__invoke_otherOT0_DpOT1_ = comdat any

$_ZZNSt8__detail9__variant16_Variant_storageILb0EJSt17basic_string_viewIcSt11char_traitsIcEESt8functionIFbvEEEE8_M_resetEvENUlOT_E_clIRS5_EEDaSB_ = comdat any

$_ZSt8_DestroyISt17basic_string_viewIcSt11char_traitsIcEEEvPT_ = comdat any

$_ZNSt8__detail9__variant7__get_nILm0ERNS0_15_Variadic_unionIJSt17basic_string_viewIcSt11char_traitsIcEESt8functionIFbvEEEEEEEDcOT0_ = comdat any

$_ZNRSt8__detail9__variant14_UninitializedISt17basic_string_viewIcSt11char_traitsIcEELb1EE6_M_getEv = comdat any

$_ZSt10__invoke_rIvZNSt8__detail9__variant16_Variant_storageILb0EJSt17basic_string_viewIcSt11char_traitsIcEESt8functionIFbvEEEE8_M_resetEvEUlOT_E_JRS9_EENSt9enable_ifIX16is_invocable_r_vISB_T0_DpT1_EESB_E4typeEOSG_DpOSH_ = comdat any

$_ZNSt8__detail9__variant5__getILm1ERSt7variantIJSt17basic_string_viewIcSt11char_traitsIcEESt8functionIFbvEEEEEEDcOT0_ = comdat any

$_ZSt13__invoke_implIvZNSt8__detail9__variant16_Variant_storageILb0EJSt17basic_string_viewIcSt11char_traitsIcEESt8functionIFbvEEEE8_M_resetEvEUlOT_E_JRS9_EESB_St14__invoke_otherOT0_DpOT1_ = comdat any

$_ZZNSt8__detail9__variant16_Variant_storageILb0EJSt17basic_string_viewIcSt11char_traitsIcEESt8functionIFbvEEEE8_M_resetEvENUlOT_E_clIRS8_EEDaSB_ = comdat any

$_ZSt8_DestroyISt8functionIFbvEEEvPT_ = comdat any

$_ZNSt8functionIFbvEED2Ev = comdat any

$_ZNSt14_Function_baseD2Ev = comdat any

$_ZNSt8__detail9__variant7__get_nILm1ERNS0_15_Variadic_unionIJSt17basic_string_viewIcSt11char_traitsIcEESt8functionIFbvEEEEEEEDcOT0_ = comdat any

$_ZNRSt8__detail9__variant14_UninitializedISt8functionIFbvEELb0EE6_M_getEv = comdat any

$_ZN9__gnu_cxx16__aligned_membufISt8functionIFbvEEE6_M_ptrEv = comdat any

$_ZN9__gnu_cxx16__aligned_membufISt8functionIFbvEEE7_M_addrEv = comdat any

$_ZSt24__find_uniq_type_in_packISt8functionIFbvEEJSt17basic_string_viewIcSt11char_traitsIcEES2_EEmv = comdat any

$_ZNSt14_Optional_baseIN6google8protobuf2io7Printer9ValueImplILb0EEELb0ELb0EEC2IJS5_ETnNSt9enable_ifIX18is_constructible_vIS5_DpT_EEbE4typeELb0EEESt10in_place_tDpOS9_ = comdat any

$_ZNSt17_Optional_payloadIN6google8protobuf2io7Printer9ValueImplILb0EEELb0ELb0ELb0EECI2St22_Optional_payload_baseIS5_EIJS5_EEESt10in_place_tDpOT_ = comdat any

$_ZNSt17_Optional_payloadIN6google8protobuf2io7Printer9ValueImplILb0EEELb1ELb0ELb0EECI2St22_Optional_payload_baseIS5_EIJS5_EEESt10in_place_tDpOT_ = comdat any

$_ZNSt22_Optional_payload_baseIN6google8protobuf2io7Printer9ValueImplILb0EEEEC2IJS5_EEESt10in_place_tDpOT_ = comdat any

$_ZNSt22_Optional_payload_baseIN6google8protobuf2io7Printer9ValueImplILb0EEEE8_StorageIS5_Lb0EEC2IJS5_EEESt10in_place_tDpOT_ = comdat any

$_ZN6google8protobuf2io7Printer9ValueImplILb0EEC2EOS4_ = comdat any

$_ZNSt7variantIJSt17basic_string_viewIcSt11char_traitsIcEESt8functionIFbvEEEEC2EOS7_ = comdat any

$_ZNSt8__detail9__variant13_Variant_baseIJSt17basic_string_viewIcSt11char_traitsIcEESt8functionIFbvEEEEC2EOS9_ = comdat any

$_ZNSt8__detail9__variant17_Move_assign_baseILb0EJSt17basic_string_viewIcSt11char_traitsIcEESt8functionIFbvEEEEC2EOS9_ = comdat any

$_ZNSt8__detail9__variant17_Copy_assign_baseILb0EJSt17basic_string_viewIcSt11char_traitsIcEESt8functionIFbvEEEEC2EOS9_ = comdat any

$_ZNSt8__detail9__variant15_Move_ctor_baseILb0EJSt17basic_string_viewIcSt11char_traitsIcEESt8functionIFbvEEEEC2EOS9_ = comdat any

$_ZNSt8__detail9__variant15_Copy_ctor_baseILb0EJSt17basic_string_viewIcSt11char_traitsIcEESt8functionIFbvEEEEC2Ev = comdat any

$_ZNSt8__detail9__variant15__raw_idx_visitIZNS0_15_Move_ctor_baseILb0EJSt17basic_string_viewIcSt11char_traitsIcEESt8functionIFbvEEEEC1EOSA_EUlOT_T0_E_JSt7variantIJS6_S9_EEEEEvSD_DpOT0_ = comdat any

$_ZSt14__variant_castIJSt17basic_string_viewIcSt11char_traitsIcEESt8functionIFbvEEENSt8__detail9__variant15_Move_ctor_baseILb0EJS3_S6_EEEEDcOT0_ = comdat any

$_ZNSt8__detail9__variant16_Variant_storageILb0EJSt17basic_string_viewIcSt11char_traitsIcEESt8functionIFbvEEEEC2Ev = comdat any

$_ZNSt8__detail9__variant15_Variadic_unionIJSt17basic_string_viewIcSt11char_traitsIcEESt8functionIFbvEEEEC2Ev = comdat any

$_ZNSt8__detail9__variant15_Variadic_unionIJSt8functionIFbvEEEEC2Ev = comdat any

$_ZSt10__do_visitINSt8__detail9__variant20__variant_idx_cookieEZNS1_15_Move_ctor_baseILb0EJSt17basic_string_viewIcSt11char_traitsIcEESt8functionIFbvEEEEC1EOSB_EUlOT_T0_E_JSt7variantIJS7_SA_EEEEDcOSF_DpOT1_ = comdat any

$_ZZSt10__do_visitINSt8__detail9__variant20__variant_idx_cookieEZNS1_15_Move_ctor_baseILb0EJSt17basic_string_viewIcSt11char_traitsIcEESt8functionIFbvEEEEC1EOSB_EUlOT_T0_E_JSt7variantIJS7_SA_EEEEDcOSF_DpOT1_ENKUlRSI_zE_clESN_z = comdat any

$_ZNSt8__detail9__variant17__gen_vtable_implINS0_12_Multi_arrayIPFNS0_20__variant_idx_cookieEOZNS0_15_Move_ctor_baseILb0EJSt17basic_string_viewIcSt11char_traitsIcEESt8functionIFbvEEEEC1EOSC_EUlOT_T0_E_OSt7variantIJS8_SB_EEEJEEESt16integer_sequenceImJLm0EEEE14__visit_invokeESI_SL_ = comdat any

$_ZNSt8__detail9__variant17__gen_vtable_implINS0_12_Multi_arrayIPFNS0_20__variant_idx_cookieEOZNS0_15_Move_ctor_baseILb0EJSt17basic_string_viewIcSt11char_traitsIcEESt8functionIFbvEEEEC1EOSC_EUlOT_T0_E_OSt7variantIJS8_SB_EEEJEEESt16integer_sequenceImJLm1EEEE14__visit_invokeESI_SL_ = comdat any

$_ZNSt8__detail9__variant17__gen_vtable_implINS0_12_Multi_arrayIPFNS0_20__variant_idx_cookieEOZNS0_15_Move_ctor_baseILb0EJSt17basic_string_viewIcSt11char_traitsIcEESt8functionIFbvEEEEC1EOSC_EUlOT_T0_E_OSt7variantIJS8_SB_EEEJEEESt16integer_sequenceImJLm18446744073709551615EEEE14__visit_invokeESI_SL_ = comdat any

$_ZSt8__invokeIZNSt8__detail9__variant15_Move_ctor_baseILb0EJSt17basic_string_viewIcSt11char_traitsIcEESt8functionIFbvEEEEC1EOSA_EUlOT_T0_E_JS6_St17integral_constantImLm0EEEENSt15__invoke_resultISC_JDpT0_EE4typeESD_DpOSJ_ = comdat any

$_ZNSt8__detail9__variant17__gen_vtable_implINS0_12_Multi_arrayIPFNS0_20__variant_idx_cookieEOZNS0_15_Move_ctor_baseILb0EJSt17basic_string_viewIcSt11char_traitsIcEESt8functionIFbvEEEEC1EOSC_EUlOT_T0_E_OSt7variantIJS8_SB_EEEJEEESt16integer_sequenceImJLm0EEEE28__element_by_index_or_cookieILm0ESK_EEDcOSG_ = comdat any

$_ZSt13__invoke_implIvZNSt8__detail9__variant15_Move_ctor_baseILb0EJSt17basic_string_viewIcSt11char_traitsIcEESt8functionIFbvEEEEC1EOSA_EUlOT_T0_E_JS6_St17integral_constantImLm0EEEESC_St14__invoke_otherOSE_DpOT1_ = comdat any

$_ZZNSt8__detail9__variant15_Move_ctor_baseILb0EJSt17basic_string_viewIcSt11char_traitsIcEESt8functionIFbvEEEEC1EOS9_ENUlOT_T0_E_clIS5_St17integral_constantImLm0EEEEDaSC_SD_ = comdat any

$_ZSt10_ConstructINSt8__detail9__variant15_Variadic_unionIJSt17basic_string_viewIcSt11char_traitsIcEESt8functionIFbvEEEEEJRKSt16in_place_index_tILm0EES6_EEvPT_DpOT0_ = comdat any

$_ZNSt8__detail9__variant5__getILm0ESt7variantIJSt17basic_string_viewIcSt11char_traitsIcEESt8functionIFbvEEEEEEDcOT0_ = comdat any

$_ZNSt8__detail9__variant7__get_nILm0ENS0_15_Variadic_unionIJSt17basic_string_viewIcSt11char_traitsIcEESt8functionIFbvEEEEEEEDcOT0_ = comdat any

$_ZNOSt8__detail9__variant14_UninitializedISt17basic_string_viewIcSt11char_traitsIcEELb1EE6_M_getEv = comdat any

$_ZSt8__invokeIZNSt8__detail9__variant15_Move_ctor_baseILb0EJSt17basic_string_viewIcSt11char_traitsIcEESt8functionIFbvEEEEC1EOSA_EUlOT_T0_E_JS9_St17integral_constantImLm1EEEENSt15__invoke_resultISC_JDpT0_EE4typeESD_DpOSJ_ = comdat any

$_ZNSt8__detail9__variant17__gen_vtable_implINS0_12_Multi_arrayIPFNS0_20__variant_idx_cookieEOZNS0_15_Move_ctor_baseILb0EJSt17basic_string_viewIcSt11char_traitsIcEESt8functionIFbvEEEEC1EOSC_EUlOT_T0_E_OSt7variantIJS8_SB_EEEJEEESt16integer_sequenceImJLm1EEEE28__element_by_index_or_cookieILm1ESK_EEDcOSG_ = comdat any

$_ZSt13__invoke_implIvZNSt8__detail9__variant15_Move_ctor_baseILb0EJSt17basic_string_viewIcSt11char_traitsIcEESt8functionIFbvEEEEC1EOSA_EUlOT_T0_E_JS9_St17integral_constantImLm1EEEESC_St14__invoke_otherOSE_DpOT1_ = comdat any

$_ZZNSt8__detail9__variant15_Move_ctor_baseILb0EJSt17basic_string_viewIcSt11char_traitsIcEESt8functionIFbvEEEEC1EOS9_ENUlOT_T0_E_clIS8_St17integral_constantImLm1EEEEDaSC_SD_ = comdat any

$_ZSt10_ConstructINSt8__detail9__variant15_Variadic_unionIJSt17basic_string_viewIcSt11char_traitsIcEESt8functionIFbvEEEEEJRKSt16in_place_index_tILm1EES9_EEvPT_DpOT0_ = comdat any

$_ZNSt8__detail9__variant15_Variadic_unionIJSt17basic_string_viewIcSt11char_traitsIcEESt8functionIFbvEEEEC2ILm1EJS8_EEESt16in_place_index_tIXT_EEDpOT0_ = comdat any

$_ZNSt8__detail9__variant15_Variadic_unionIJSt8functionIFbvEEEEC2IJS4_EEESt16in_place_index_tILm0EEDpOT_ = comdat any

$_ZNSt8__detail9__variant14_UninitializedISt8functionIFbvEELb0EEC2IJS4_EEESt16in_place_index_tILm0EEDpOT_ = comdat any

$_ZNSt8functionIFbvEEC2EOS1_ = comdat any

$_ZNKSt8functionIFbvEEcvbEv = comdat any

$_ZNKSt14_Function_base8_M_emptyEv = comdat any

$_ZNSt8__detail9__variant5__getILm1ESt7variantIJSt17basic_string_viewIcSt11char_traitsIcEESt8functionIFbvEEEEEEDcOT0_ = comdat any

$_ZNSt8__detail9__variant7__get_nILm1ENS0_15_Variadic_unionIJSt17basic_string_viewIcSt11char_traitsIcEESt8functionIFbvEEEEEEEDcOT0_ = comdat any

$_ZNOSt8__detail9__variant14_UninitializedISt8functionIFbvEELb0EE6_M_getEv = comdat any

$_ZSt8__invokeIZNSt8__detail9__variant15_Move_ctor_baseILb0EJSt17basic_string_viewIcSt11char_traitsIcEESt8functionIFbvEEEEC1EOSA_EUlOT_T0_E_JNS1_16__variant_cookieESt17integral_constantImLm18446744073709551615EEEENSt15__invoke_resultISC_JDpT0_EE4typeESD_DpOSK_ = comdat any

$_ZNSt8__detail9__variant17__gen_vtable_implINS0_12_Multi_arrayIPFNS0_20__variant_idx_cookieEOZNS0_15_Move_ctor_baseILb0EJSt17basic_string_viewIcSt11char_traitsIcEESt8functionIFbvEEEEC1EOSC_EUlOT_T0_E_OSt7variantIJS8_SB_EEEJEEESt16integer_sequenceImJLm18446744073709551615EEEE28__element_by_index_or_cookieILm18446744073709551615ESK_EEDcOSG_ = comdat any

$_ZSt13__invoke_implIvZNSt8__detail9__variant15_Move_ctor_baseILb0EJSt17basic_string_viewIcSt11char_traitsIcEESt8functionIFbvEEEEC1EOSA_EUlOT_T0_E_JNS1_16__variant_cookieESt17integral_constantImLm18446744073709551615EEEESC_St14__invoke_otherOSE_DpOT1_ = comdat any

$_ZZNSt8__detail9__variant15_Move_ctor_baseILb0EJSt17basic_string_viewIcSt11char_traitsIcEESt8functionIFbvEEEEC1EOS9_ENUlOT_T0_E_clINS0_16__variant_cookieESt17integral_constantImLm18446744073709551615EEEEDaSC_SD_ = comdat any

$_ZNKSt9_Any_data9_M_accessIZN6google8protobuf2io7Printer8WithVarsIN4absl12lts_2023080213flat_hash_mapISt17basic_string_viewIcSt11char_traitsIcEENSt7__cxx1112basic_stringIcSB_SaIcEEENS7_18container_internal10StringHashENSH_8StringEqESaISt4pairIKSC_SG_EEEEEEDaPKT_EUlSC_E_EERSQ_v = comdat any

$_ZNKSt9_Any_data9_M_accessEv = comdat any

$_ZNSt9_Any_data9_M_accessIPKSt9type_infoEERT_v = comdat any

$_ZNSt9_Any_data9_M_accessIPZN6google8protobuf2io7Printer8WithVarsIN4absl12lts_2023080213flat_hash_mapISt17basic_string_viewIcSt11char_traitsIcEENSt7__cxx1112basic_stringIcSB_SaIcEEENS7_18container_internal10StringHashENSH_8StringEqESaISt4pairIKSC_SG_EEEEEEDaPKT_EUlSC_E_EERSP_v = comdat any

$_ZNSt14_Function_base13_Base_managerIZN6google8protobuf2io7Printer8WithVarsIN4absl12lts_2023080213flat_hash_mapISt17basic_string_viewIcSt11char_traitsIcEENSt7__cxx1112basic_stringIcSB_SaIcEEENS7_18container_internal10StringHashENSH_8StringEqESaISt4pairIKSC_SG_EEEEEEDaPKT_EUlSC_E_E10_M_managerERSt9_Any_dataRKSU_St18_Manager_operation = comdat any

$_ZNSt14_Function_base13_Base_managerIZN6google8protobuf2io7Printer8WithVarsIN4absl12lts_2023080213flat_hash_mapISt17basic_string_viewIcSt11char_traitsIcEENSt7__cxx1112basic_stringIcSB_SaIcEEENS7_18container_internal10StringHashENSH_8StringEqESaISt4pairIKSC_SG_EEEEEEDaPKT_EUlSC_E_E15_M_init_functorIRKSS_EEvRSt9_Any_dataOSP_ = comdat any

$_ZNSt14_Function_base13_Base_managerIZN6google8protobuf2io7Printer8WithVarsIN4absl12lts_2023080213flat_hash_mapISt17basic_string_viewIcSt11char_traitsIcEENSt7__cxx1112basic_stringIcSB_SaIcEEENS7_18container_internal10StringHashENSH_8StringEqESaISt4pairIKSC_SG_EEEEEEDaPKT_EUlSC_E_E10_M_destroyERSt9_Any_dataSt17integral_constantIbLb1EE = comdat any

$_ZNSt14_Function_base13_Base_managerIZN6google8protobuf2io7Printer8WithVarsIN4absl12lts_2023080213flat_hash_mapISt17basic_string_viewIcSt11char_traitsIcEENSt7__cxx1112basic_stringIcSB_SaIcEEENS7_18container_internal10StringHashENSH_8StringEqESaISt4pairIKSC_SG_EEEEEEDaPKT_EUlSC_E_E9_M_createIRKSS_EEvRSt9_Any_dataOSP_St17integral_constantIbLb1EE = comdat any

$_ZNSt9_Any_data9_M_accessIZN6google8protobuf2io7Printer8WithVarsIN4absl12lts_2023080213flat_hash_mapISt17basic_string_viewIcSt11char_traitsIcEENSt7__cxx1112basic_stringIcSB_SaIcEEENS7_18container_internal10StringHashENSH_8StringEqESaISt4pairIKSC_SG_EEEEEEDaPKT_EUlSC_E_EERSP_v = comdat any

$_ZNKSt6vectorISt8functionIFSt8optionalIN6google8protobuf2io7Printer9ValueImplILb0EEEESt17basic_string_viewIcSt11char_traitsIcEEEESaISE_EE12_M_check_lenEmPKc = comdat any

$_ZN9__gnu_cxxmiIPSt8functionIFSt8optionalIN6google8protobuf2io7Printer9ValueImplILb0EEEESt17basic_string_viewIcSt11char_traitsIcEEEESt6vectorISF_SaISF_EEEENS_17__normal_iteratorIT_T0_E15difference_typeERKSN_SQ_ = comdat any

$_ZNSt6vectorISt8functionIFSt8optionalIN6google8protobuf2io7Printer9ValueImplILb0EEEESt17basic_string_viewIcSt11char_traitsIcEEEESaISE_EE5beginEv = comdat any

$_ZNSt12_Vector_baseISt8functionIFSt8optionalIN6google8protobuf2io7Printer9ValueImplILb0EEEESt17basic_string_viewIcSt11char_traitsIcEEEESaISE_EE11_M_allocateEm = comdat any

$_ZNSt6vectorISt8functionIFSt8optionalIN6google8protobuf2io7Printer9ValueImplILb0EEEESt17basic_string_viewIcSt11char_traitsIcEEEESaISE_EE11_S_relocateEPSE_SH_SH_RSF_ = comdat any

$_ZNK9__gnu_cxx17__normal_iteratorIPSt8functionIFSt8optionalIN6google8protobuf2io7Printer9ValueImplILb0EEEESt17basic_string_viewIcSt11char_traitsIcEEEESt6vectorISF_SaISF_EEE4baseEv = comdat any

$_ZNSt12_Vector_baseISt8functionIFSt8optionalIN6google8protobuf2io7Printer9ValueImplILb0EEEESt17basic_string_viewIcSt11char_traitsIcEEEESaISE_EE19_M_get_Tp_allocatorEv = comdat any

$_ZNSt12_Vector_baseISt8functionIFSt8optionalIN6google8protobuf2io7Printer9ValueImplILb0EEEESt17basic_string_viewIcSt11char_traitsIcEEEESaISE_EE13_M_deallocateEPSE_m = comdat any

$_ZNKSt6vectorISt8functionIFSt8optionalIN6google8protobuf2io7Printer9ValueImplILb0EEEESt17basic_string_viewIcSt11char_traitsIcEEEESaISE_EE8max_sizeEv = comdat any

$_ZNKSt6vectorISt8functionIFSt8optionalIN6google8protobuf2io7Printer9ValueImplILb0EEEESt17basic_string_viewIcSt11char_traitsIcEEEESaISE_EE4sizeEv = comdat any

$_ZSt3maxImERKT_S2_S2_ = comdat any

$_ZNSt6vectorISt8functionIFSt8optionalIN6google8protobuf2io7Printer9ValueImplILb0EEEESt17basic_string_viewIcSt11char_traitsIcEEEESaISE_EE11_S_max_sizeERKSF_ = comdat any

$_ZNKSt12_Vector_baseISt8functionIFSt8optionalIN6google8protobuf2io7Printer9ValueImplILb0EEEESt17basic_string_viewIcSt11char_traitsIcEEEESaISE_EE19_M_get_Tp_allocatorEv = comdat any

$_ZNSt16allocator_traitsISaISt8functionIFSt8optionalIN6google8protobuf2io7Printer9ValueImplILb0EEEESt17basic_string_viewIcSt11char_traitsIcEEEEEE8max_sizeERKSF_ = comdat any

$_ZNKSt15__new_allocatorISt8functionIFSt8optionalIN6google8protobuf2io7Printer9ValueImplILb0EEEESt17basic_string_viewIcSt11char_traitsIcEEEEE8max_sizeEv = comdat any

$_ZNKSt15__new_allocatorISt8functionIFSt8optionalIN6google8protobuf2io7Printer9ValueImplILb0EEEESt17basic_string_viewIcSt11char_traitsIcEEEEE11_M_max_sizeEv = comdat any

$_ZN9__gnu_cxx17__normal_iteratorIPSt8functionIFSt8optionalIN6google8protobuf2io7Printer9ValueImplILb0EEEESt17basic_string_viewIcSt11char_traitsIcEEEESt6vectorISF_SaISF_EEEC2ERKSG_ = comdat any

$_ZNSt16allocator_traitsISaISt8functionIFSt8optionalIN6google8protobuf2io7Printer9ValueImplILb0EEEESt17basic_string_viewIcSt11char_traitsIcEEEEEE8allocateERSF_m = comdat any

$_ZNSt15__new_allocatorISt8functionIFSt8optionalIN6google8protobuf2io7Printer9ValueImplILb0EEEESt17basic_string_viewIcSt11char_traitsIcEEEEE8allocateEmPKv = comdat any

$_ZSt12__relocate_aIPSt8functionIFSt8optionalIN6google8protobuf2io7Printer9ValueImplILb0EEEESt17basic_string_viewIcSt11char_traitsIcEEEESF_SaISE_EET0_T_SI_SH_RT1_ = comdat any

$_ZSt14__relocate_a_1IPSt8functionIFSt8optionalIN6google8protobuf2io7Printer9ValueImplILb0EEEESt17basic_string_viewIcSt11char_traitsIcEEEESF_SaISE_EET0_T_SI_SH_RT1_ = comdat any

$_ZSt12__niter_baseIPSt8functionIFSt8optionalIN6google8protobuf2io7Printer9ValueImplILb0EEEESt17basic_string_viewIcSt11char_traitsIcEEEEET_SG_ = comdat any

$_ZSt19__relocate_object_aISt8functionIFSt8optionalIN6google8protobuf2io7Printer9ValueImplILb0EEEESt17basic_string_viewIcSt11char_traitsIcEEEESE_SaISE_EEvPT_PT0_RT1_ = comdat any

$_ZNSt16allocator_traitsISaISt8functionIFSt8optionalIN6google8protobuf2io7Printer9ValueImplILb0EEEESt17basic_string_viewIcSt11char_traitsIcEEEEEE9constructISE_JSE_EEEvRSF_PT_DpOT0_ = comdat any

$_ZNSt16allocator_traitsISaISt8functionIFSt8optionalIN6google8protobuf2io7Printer9ValueImplILb0EEEESt17basic_string_viewIcSt11char_traitsIcEEEEEE7destroyISE_EEvRSF_PT_ = comdat any

$_ZNSt15__new_allocatorISt8functionIFSt8optionalIN6google8protobuf2io7Printer9ValueImplILb0EEEESt17basic_string_viewIcSt11char_traitsIcEEEEE9constructISE_JSE_EEEvPT_DpOT0_ = comdat any

$_ZNSt8functionIFSt8optionalIN6google8protobuf2io7Printer9ValueImplILb0EEEESt17basic_string_viewIcSt11char_traitsIcEEEEC2EOSD_ = comdat any

$_ZNKSt8functionIFSt8optionalIN6google8protobuf2io7Printer9ValueImplILb0EEEESt17basic_string_viewIcSt11char_traitsIcEEEEcvbEv = comdat any

$_ZNSt15__new_allocatorISt8functionIFSt8optionalIN6google8protobuf2io7Printer9ValueImplILb0EEEESt17basic_string_viewIcSt11char_traitsIcEEEEE7destroyISE_EEvPT_ = comdat any

$_ZNSt8functionIFSt8optionalIN6google8protobuf2io7Printer9ValueImplILb0EEEESt17basic_string_viewIcSt11char_traitsIcEEEED2Ev = comdat any

$_ZNSt16allocator_traitsISaISt8functionIFSt8optionalIN6google8protobuf2io7Printer9ValueImplILb0EEEESt17basic_string_viewIcSt11char_traitsIcEEEEEE10deallocateERSF_PSE_m = comdat any

$_ZNSt15__new_allocatorISt8functionIFSt8optionalIN6google8protobuf2io7Printer9ValueImplILb0EEEESt17basic_string_viewIcSt11char_traitsIcEEEEE10deallocateEPSE_m = comdat any

$_ZNK9__gnu_cxx17__normal_iteratorIPSt8functionIFSt8optionalIN6google8protobuf2io7Printer9ValueImplILb0EEEESt17basic_string_viewIcSt11char_traitsIcEEEESt6vectorISF_SaISF_EEEmiEl = comdat any

$_ZNK9__gnu_cxx17__normal_iteratorIPSt8functionIFSt8optionalIN6google8protobuf2io7Printer9ValueImplILb0EEEESt17basic_string_viewIcSt11char_traitsIcEEEESt6vectorISF_SaISF_EEEdeEv = comdat any

$_ZN4absl12lts_202308027CleanupINS0_16cleanup_internal3TagEZN6google8protobuf2io7Printer8WithVarsINS0_13flat_hash_mapISt17basic_string_viewIcSt11char_traitsIcEENSt7__cxx1112basic_stringIcSC_SaIcEEENS0_18container_internal10StringHashENSI_8StringEqESaISt4pairIKSD_SH_EEEEEEDaPKT_EUlvE_EC2EST_ = comdat any

$_ZN4absl12lts_2023080216cleanup_internal7StorageIZN6google8protobuf2io7Printer8WithVarsINS0_13flat_hash_mapISt17basic_string_viewIcSt11char_traitsIcEENSt7__cxx1112basic_stringIcSB_SaIcEEENS0_18container_internal10StringHashENSH_8StringEqESaISt4pairIKSC_SG_EEEEEEDaPKT_EUlvE_EC2ESS_ = comdat any

$_ZN4absl12lts_2023080216cleanup_internal7StorageIZN6google8protobuf2io7Printer8WithVarsINS0_13flat_hash_mapISt17basic_string_viewIcSt11char_traitsIcEENSt7__cxx1112basic_stringIcSB_SaIcEEENS0_18container_internal10StringHashENSH_8StringEqESaISt4pairIKSC_SG_EEEEEEDaPKT_EUlvE_E17GetCallbackBufferEv = comdat any

$_ZNK4absl12lts_2023080216cleanup_internal7StorageIZN6google8protobuf2io7Printer8WithVarsINS0_13flat_hash_mapISt17basic_string_viewIcSt11char_traitsIcEENSt7__cxx1112basic_stringIcSB_SaIcEEENS0_18container_internal10StringHashENSH_8StringEqESaISt4pairIKSC_SG_EEEEEEDaPKT_EUlvE_E17IsCallbackEngagedEv = comdat any

$_ZN4absl12lts_2023080216cleanup_internal7StorageIZN6google8protobuf2io7Printer8WithVarsINS0_13flat_hash_mapISt17basic_string_viewIcSt11char_traitsIcEENSt7__cxx1112basic_stringIcSB_SaIcEEENS0_18container_internal10StringHashENSH_8StringEqESaISt4pairIKSC_SG_EEEEEEDaPKT_EUlvE_E14InvokeCallbackEv = comdat any

$_ZN4absl12lts_2023080216cleanup_internal7StorageIZN6google8protobuf2io7Printer8WithVarsINS0_13flat_hash_mapISt17basic_string_viewIcSt11char_traitsIcEENSt7__cxx1112basic_stringIcSB_SaIcEEENS0_18container_internal10StringHashENSH_8StringEqESaISt4pairIKSC_SG_EEEEEEDaPKT_EUlvE_E15DestroyCallbackEv = comdat any

$_ZN4absl12lts_2023080216cleanup_internal7StorageIZN6google8protobuf2io7Printer8WithVarsINS0_13flat_hash_mapISt17basic_string_viewIcSt11char_traitsIcEENSt7__cxx1112basic_stringIcSB_SaIcEEENS0_18container_internal10StringHashENSH_8StringEqESaISt4pairIKSC_SG_EEEEEEDaPKT_EUlvE_E11GetCallbackEv = comdat any

$_ZZN6google8protobuf2io7Printer8WithVarsIN4absl12lts_2023080213flat_hash_mapISt17basic_string_viewIcSt11char_traitsIcEENSt7__cxx1112basic_stringIcS9_SaIcEEENS5_18container_internal10StringHashENSF_8StringEqESaISt4pairIKSA_SE_EEEEEEDaPKT_ENKUlvE_clEv = comdat any

$_ZNSt6vectorISt8functionIFSt8optionalIN6google8protobuf2io7Printer9ValueImplILb0EEEESt17basic_string_viewIcSt11char_traitsIcEEEESaISE_EE8pop_backEv = comdat any

$_ZN4absl12lts_202308024SpanIKNSt7__cxx1112basic_stringIcSt11char_traitsIcESaIcEEEEC2EPS8_m = comdat any

$_ZNK6google8protobuf8compiler3cpp9FormatterclIJPKNS0_15FieldDescriptorEEEEvPKcDpRKT_ = comdat any

$_ZNK6google8protobuf8compiler3cpp9FormatterclIJSt5tupleIJPKNS0_15FieldDescriptorENS0_37GeneratedCodeInfo_Annotation_SemanticEEEEEEvPKcDpRKT_ = comdat any

$_ZSt10make_tupleIJRKPKN6google8protobuf15FieldDescriptorERKNS1_37GeneratedCodeInfo_Annotation_SemanticEEESt5tupleIJDpNSt25__strip_reference_wrapperINSt5decayIT_E4typeEE6__typeEEEDpOSD_ = comdat any

$_ZN6google8protobuf8compiler3cpp9Formatter8ToStringB5cxx11EPKNS0_15FieldDescriptorE = comdat any

$_ZN4absl12lts_202308024SpanIKNSt7__cxx1112basic_stringIcSt11char_traitsIcESaIcEEEEC2IS8_S8_EESt16initializer_listIS7_E = comdat any

$_ZN6google8protobuf8compiler3cpp9Formatter7PayloadINS0_15FieldDescriptorEEENSt7__cxx1112basic_stringIcSt11char_traitsIcESaIcEEEPKT_NS0_37GeneratedCodeInfo_Annotation_SemanticE = comdat any

$_ZNSt6vectorIiSaIiEEC2Ev = comdat any

$_ZN6google8protobuf28GeneratedCodeInfo_AnnotationC2Ev = comdat any

$_ZNSt6vectorIiSaIiEE5beginEv = comdat any

$_ZNSt6vectorIiSaIiEE3endEv = comdat any

$_ZN9__gnu_cxxneIPiSt6vectorIiSaIiEEEEbRKNS_17__normal_iteratorIT_T0_EESA_ = comdat any

$_ZNK9__gnu_cxx17__normal_iteratorIPiSt6vectorIiSaIiEEEdeEv = comdat any

$_ZN6google8protobuf28GeneratedCodeInfo_Annotation8add_pathEi = comdat any

$_ZN9__gnu_cxx17__normal_iteratorIPiSt6vectorIiSaIiEEEppEv = comdat any

$_ZNK6google8protobuf15FieldDescriptor4fileEv = comdat any

$_ZNK6google8protobuf14FileDescriptor4nameB5cxx11Ev = comdat any

$_ZN6google8protobuf28GeneratedCodeInfo_Annotation12set_semanticENS0_37GeneratedCodeInfo_Annotation_SemanticE = comdat any

$_ZNSt6vectorIiSaIiEED2Ev = comdat any

$_ZNSt12_Vector_baseIiSaIiEEC2Ev = comdat any

$_ZNSt12_Vector_baseIiSaIiEE12_Vector_implC2Ev = comdat any

$_ZNSaIiEC2Ev = comdat any

$_ZNSt12_Vector_baseIiSaIiEE17_Vector_impl_dataC2Ev = comdat any

$_ZNSt15__new_allocatorIiEC2Ev = comdat any

$_ZN9__gnu_cxx17__normal_iteratorIPiSt6vectorIiSaIiEEEC2ERKS1_ = comdat any

$_ZNK9__gnu_cxx17__normal_iteratorIPiSt6vectorIiSaIiEEE4baseEv = comdat any

$_ZN6google8protobuf28GeneratedCodeInfo_Annotation22_internal_mutable_pathEv = comdat any

$_ZN6google8protobuf13RepeatedFieldIiE3AddEi = comdat any

$_ZNK6google8protobuf13RepeatedFieldIiE15unsafe_elementsEv = comdat any

$_ZN6google8protobuf13RepeatedFieldIiE4GrowEii = comdat any

$_ZN6google8protobuf13RepeatedFieldIiE19ExchangeCurrentSizeEi = comdat any

$_ZNK6google8protobuf13RepeatedFieldIiE12AnnotateSizeEii = comdat any

$_ZN6google8protobuf13RepeatedFieldIiE14GrowNoAnnotateEii = comdat any

$_ZN4absl12lts_2023080212log_internal10NullStream14InternalStreamEv = comdat any

$_ZN6google8protobuf13RepeatedFieldIiE8GetArenaEv = comdat any

$_ZN6google8protobuf8internal20CalculateReserveSizeIiLi8EEEiii = comdat any

$_ZN4absl12lts_2023080212log_internallsIA48_cEERNS1_10NullStreamES5_RKT_ = comdat any

$_ZN4absl12lts_2023080212log_internallsIA59_cEERNS1_10NullStreamES5_RKT_ = comdat any

$_ZN6google8protobuf8internal15AllocateAtLeastEm = comdat any

$_ZNSt14numeric_limitsIiE3maxEv = comdat any

$_ZN6google8protobuf13RepeatedFieldIiE3Rep8elementsEv = comdat any

$_ZNK6google8protobuf13RepeatedFieldIiE8elementsEv = comdat any

$_ZN6google8protobuf13RepeatedFieldIiE18InternalDeallocateILb0EEEvv = comdat any

$_ZNK6google8protobuf13RepeatedFieldIiE3repEv = comdat any

$_ZSt3maxIiERKT_S2_S2_ = comdat any

$_ZN4absl12lts_2023080212log_internal12Check_LEImplImmEEPNSt7__cxx1112basic_stringIcSt11char_traitsIcESaIcEEERKT_RKT0_PKc = comdat any

$_ZN4absl12lts_2023080212log_internal21GetReferenceableValueEm = comdat any

$_ZNSt14numeric_limitsImE3maxEv = comdat any

$_ZN4absl12lts_2023080212log_internal10LogMessage14InternalStreamEv = comdat any

$_ZN4absl12lts_2023080212log_internal10LogMessagelsILi48EEERS2_RAT__Kc = comdat any

$_ZN6google8protobuf5Arena23AllocateAlignedForArrayEmm = comdat any

$_ZN6google8protobuf8internal12ArenaAlignAsEm = comdat any

$_ZNK6google8protobuf8internal10ArenaAlign4CeilIvEEPT_S5_ = comdat any

$_ZNK6google8protobuf8internal10ArenaAlign6PaddedEm = comdat any

$_ZN6google8protobuf8internal11SizedDeleteEPvm = comdat any

$_ZN6google8protobuf5Arena17ReturnArrayMemoryEPvm = comdat any

$_ZN6google8protobuf8internal15ThreadSafeArena17ReturnArrayMemoryEPvm = comdat any

$_ZN6google8protobuf8internal11SerialArena17ReturnArrayMemoryEPvm = comdat any

$_ZN6google8protobuf8internal15ThreadSafeArena12thread_cacheEv = comdat any

$_ZN4absl12lts_202308029bit_widthImEENSt9enable_ifIXsr3std11is_unsignedIT_EE5valueEiE4typeES3_ = comdat any

$_ZSt4copyIPPN6google8protobuf8internal11SerialArena11CachedBlockES6_ET0_T_S8_S7_ = comdat any

$_ZSt4fillIPPN6google8protobuf8internal11SerialArena11CachedBlockEDnEvT_S7_RKT0_ = comdat any

$_ZSt13__copy_move_aILb0EPPN6google8protobuf8internal11SerialArena11CachedBlockES6_ET1_T0_S8_S7_ = comdat any

$_ZSt12__miter_baseIPPN6google8protobuf8internal11SerialArena11CachedBlockEET_S7_ = comdat any

$_ZSt12__niter_wrapIPPN6google8protobuf8internal11SerialArena11CachedBlockEET_RKS7_S7_ = comdat any

$_ZSt14__copy_move_a1ILb0EPPN6google8protobuf8internal11SerialArena11CachedBlockES6_ET1_T0_S8_S7_ = comdat any

$_ZSt12__niter_baseIPPN6google8protobuf8internal11SerialArena11CachedBlockEET_S7_ = comdat any

$_ZSt14__copy_move_a2ILb0EPPN6google8protobuf8internal11SerialArena11CachedBlockES6_ET1_T0_S8_S7_ = comdat any

$_ZNSt11__copy_moveILb0ELb1ESt26random_access_iterator_tagE8__copy_mIPN6google8protobuf8internal11SerialArena11CachedBlockEEEPT_PKS9_SC_SA_ = comdat any

$_ZSt8__fill_aIPPN6google8protobuf8internal11SerialArena11CachedBlockEDnEvT_S7_RKT0_ = comdat any

$_ZSt9__fill_a1IPPN6google8protobuf8internal11SerialArena11CachedBlockEDnEN9__gnu_cxx11__enable_ifIXntsr11__is_scalarIT0_EE7__valueEvE6__typeET_SC_RKS9_ = comdat any

$_ZNK6google8protobuf11MessageLite8GetArenaEv = comdat any

$_ZNK6google8protobuf8internal16InternalMetadata8PtrValueINS2_13ContainerBaseEEEPT_v = comdat any

$_ZNK6google8protobuf8internal16InternalMetadata8PtrValueINS0_5ArenaEEEPT_v = comdat any

$_ZN6google8protobuf28GeneratedCodeInfo_Annotation22_internal_set_semanticENS0_37GeneratedCodeInfo_Annotation_SemanticE = comdat any

$_ZSt8_DestroyIPiiEvT_S1_RSaIT0_E = comdat any

$_ZNSt12_Vector_baseIiSaIiEE19_M_get_Tp_allocatorEv = comdat any

$_ZNSt12_Vector_baseIiSaIiEED2Ev = comdat any

$_ZSt8_DestroyIPiEvT_S1_ = comdat any

$_ZNSt12_Destroy_auxILb1EE9__destroyIPiEEvT_S3_ = comdat any

$_ZNSt12_Vector_baseIiSaIiEE13_M_deallocateEPim = comdat any

$_ZNSt12_Vector_baseIiSaIiEE12_Vector_implD2Ev = comdat any

$_ZNSt16allocator_traitsISaIiEE10deallocateERS0_Pim = comdat any

$_ZNSt15__new_allocatorIiE10deallocateEPim = comdat any

$_ZNSaIiED2Ev = comdat any

$_ZNSt15__new_allocatorIiED2Ev = comdat any

$_ZNKSt16initializer_listINSt7__cxx1112basic_stringIcSt11char_traitsIcESaIcEEEE5beginEv = comdat any

$_ZNKSt16initializer_listINSt7__cxx1112basic_stringIcSt11char_traitsIcESaIcEEEE4sizeEv = comdat any

$_ZN6google8protobuf8compiler3cpp9Formatter8ToStringB5cxx11ESt5tupleIJPKNS0_15FieldDescriptorENS0_37GeneratedCodeInfo_Annotation_SemanticEEE = comdat any

$_ZSt3getILm0EJPKN6google8protobuf15FieldDescriptorENS1_37GeneratedCodeInfo_Annotation_SemanticEEERNSt13tuple_elementIXT_ESt5tupleIJDpT0_EEE4typeERSA_ = comdat any

$_ZSt3getILm1EJPKN6google8protobuf15FieldDescriptorENS1_37GeneratedCodeInfo_Annotation_SemanticEEERNSt13tuple_elementIXT_ESt5tupleIJDpT0_EEE4typeERSA_ = comdat any

$_ZSt12__get_helperILm0EPKN6google8protobuf15FieldDescriptorEJNS1_37GeneratedCodeInfo_Annotation_SemanticEEERT0_RSt11_Tuple_implIXT_EJS6_DpT1_EE = comdat any

$_ZNSt11_Tuple_implILm0EJPKN6google8protobuf15FieldDescriptorENS1_37GeneratedCodeInfo_Annotation_SemanticEEE7_M_headERS6_ = comdat any

$_ZNSt10_Head_baseILm0EPKN6google8protobuf15FieldDescriptorELb0EE7_M_headERS5_ = comdat any

$_ZSt12__get_helperILm1EN6google8protobuf37GeneratedCodeInfo_Annotation_SemanticEJEERT0_RSt11_Tuple_implIXT_EJS3_DpT1_EE = comdat any

$_ZNSt11_Tuple_implILm1EJN6google8protobuf37GeneratedCodeInfo_Annotation_SemanticEEE7_M_headERS3_ = comdat any

$_ZNSt10_Head_baseILm1EN6google8protobuf37GeneratedCodeInfo_Annotation_SemanticELb0EE7_M_headERS3_ = comdat any

$_ZNSt5tupleIJPKN6google8protobuf15FieldDescriptorENS1_37GeneratedCodeInfo_Annotation_SemanticEEEC2ILb1ETnNSt9enable_ifIXclsr4_TCCIXT_EEE29__is_implicitly_constructibleIRKS4_RKS5_EEEbE4typeELb1EEESA_SC_ = comdat any

$_ZNSt11_Tuple_implILm0EJPKN6google8protobuf15FieldDescriptorENS1_37GeneratedCodeInfo_Annotation_SemanticEEEC2ERKS4_RKS5_ = comdat any

$_ZNSt11_Tuple_implILm1EJN6google8protobuf37GeneratedCodeInfo_Annotation_SemanticEEEC2ERKS2_ = comdat any

$_ZNSt10_Head_baseILm0EPKN6google8protobuf15FieldDescriptorELb0EEC2ERKS4_ = comdat any

$_ZNSt10_Head_baseILm1EN6google8protobuf37GeneratedCodeInfo_Annotation_SemanticELb0EEC2ERKS2_ = comdat any

$_ZN6google8protobuf2io7Printer8WithVarsIRKN4absl12lts_2023080213flat_hash_mapISt17basic_string_viewIcSt11char_traitsIcEENSt7__cxx1112basic_stringIcS9_SaIcEEENS5_18container_internal10StringHashENSF_8StringEqESaISt4pairIKSA_SE_EEEEvvEEDaOT_ = comdat any

$_ZN6google8protobuf2io7Printer4EmitESt17basic_string_viewIcSt11char_traitsIcEENS2_14SourceLocationE = comdat any

$_ZN6google8protobuf2io7Printer14SourceLocation7currentEv = comdat any

$_ZN4absl12lts_202308027CleanupINS0_16cleanup_internal3TagEZN6google8protobuf2io7Printer8WithVarsIRKNS0_13flat_hash_mapISt17basic_string_viewIcSt11char_traitsIcEENSt7__cxx1112basic_stringIcSC_SaIcEEENS0_18container_internal10StringHashENSI_8StringEqESaISt4pairIKSD_SH_EEEEvvEEDaOT_EUlvE_ED2Ev = comdat any

$_ZNSt6vectorISt8functionIFSt8optionalIN6google8protobuf2io7Printer9ValueImplILb0EEEESt17basic_string_viewIcSt11char_traitsIcEEEESaISE_EE12emplace_backIJZNS5_8WithVarsIRKN4absl12lts_2023080213flat_hash_mapISC_NSt7__cxx1112basic_stringIcSB_SaIcEEENSK_18container_internal10StringHashENSQ_8StringEqESaISt4pairIKSC_SP_EEEEvvEEDaOT_EUlSC_E_EEERSE_DpOT_ = comdat any

$_ZZN6google8protobuf2io7Printer8WithVarsIRKN4absl12lts_2023080213flat_hash_mapISt17basic_string_viewIcSt11char_traitsIcEENSt7__cxx1112basic_stringIcS9_SaIcEEENS5_18container_internal10StringHashENSF_8StringEqESaISt4pairIKSA_SE_EEEEvvEEDaOT_ENUlSA_E_D2Ev = comdat any

$_ZN4absl12lts_2023080211MakeCleanupIJEZN6google8protobuf2io7Printer8WithVarsIRKNS0_13flat_hash_mapISt17basic_string_viewIcSt11char_traitsIcEENSt7__cxx1112basic_stringIcSA_SaIcEEENS0_18container_internal10StringHashENSG_8StringEqESaISt4pairIKSB_SF_EEEEvvEEDaOT_EUlvE_EENS0_7CleanupINS0_16cleanup_internal3TagET0_EESW_ = comdat any

$_ZNSt16allocator_traitsISaISt8functionIFSt8optionalIN6google8protobuf2io7Printer9ValueImplILb0EEEESt17basic_string_viewIcSt11char_traitsIcEEEEEE9constructISE_JZNS5_8WithVarsIRKN4absl12lts_2023080213flat_hash_mapISC_NSt7__cxx1112basic_stringIcSB_SaIcEEENSK_18container_internal10StringHashENSQ_8StringEqESaISt4pairIKSC_SP_EEEEvvEEDaOT_EUlSC_E_EEEvRSF_PS10_DpOT0_ = comdat any

$_ZNSt6vectorISt8functionIFSt8optionalIN6google8protobuf2io7Printer9ValueImplILb0EEEESt17basic_string_viewIcSt11char_traitsIcEEEESaISE_EE17_M_realloc_insertIJZNS5_8WithVarsIRKN4absl12lts_2023080213flat_hash_mapISC_NSt7__cxx1112basic_stringIcSB_SaIcEEENSK_18container_internal10StringHashENSQ_8StringEqESaISt4pairIKSC_SP_EEEEvvEEDaOT_EUlSC_E_EEEvN9__gnu_cxx17__normal_iteratorIPSE_SG_EEDpOT_ = comdat any

$_ZNSt15__new_allocatorISt8functionIFSt8optionalIN6google8protobuf2io7Printer9ValueImplILb0EEEESt17basic_string_viewIcSt11char_traitsIcEEEEE9constructISE_JZNS5_8WithVarsIRKN4absl12lts_2023080213flat_hash_mapISC_NSt7__cxx1112basic_stringIcSB_SaIcEEENSJ_18container_internal10StringHashENSP_8StringEqESaISt4pairIKSC_SO_EEEEvvEEDaOT_EUlSC_E_EEEvPSZ_DpOT0_ = comdat any

$_ZNSt8functionIFSt8optionalIN6google8protobuf2io7Printer9ValueImplILb0EEEESt17basic_string_viewIcSt11char_traitsIcEEEEC2IZNS4_8WithVarsIRKN4absl12lts_2023080213flat_hash_mapISB_NSt7__cxx1112basic_stringIcSA_SaIcEEENSH_18container_internal10StringHashENSN_8StringEqESaISt4pairIKSB_SM_EEEEvvEEDaOT_EUlSB_E_vEESY_ = comdat any

$_ZNSt14_Function_base13_Base_managerIZN6google8protobuf2io7Printer8WithVarsIRKN4absl12lts_2023080213flat_hash_mapISt17basic_string_viewIcSt11char_traitsIcEENSt7__cxx1112basic_stringIcSB_SaIcEEENS7_18container_internal10StringHashENSH_8StringEqESaISt4pairIKSC_SG_EEEEvvEEDaOT_EUlSC_E_E21_M_not_empty_functionIST_EEbRKSR_ = comdat any

$_ZNSt14_Function_base13_Base_managerIZN6google8protobuf2io7Printer8WithVarsIRKN4absl12lts_2023080213flat_hash_mapISt17basic_string_viewIcSt11char_traitsIcEENSt7__cxx1112basic_stringIcSB_SaIcEEENS7_18container_internal10StringHashENSH_8StringEqESaISt4pairIKSC_SG_EEEEvvEEDaOT_EUlSC_E_E15_M_init_functorIST_EEvRSt9_Any_dataSS_ = comdat any

$_ZNSt17_Function_handlerIFSt8optionalIN6google8protobuf2io7Printer9ValueImplILb0EEEESt17basic_string_viewIcSt11char_traitsIcEEEZNS4_8WithVarsIRKN4absl12lts_2023080213flat_hash_mapISB_NSt7__cxx1112basic_stringIcSA_SaIcEEENSF_18container_internal10StringHashENSL_8StringEqESaISt4pairIKSB_SK_EEEEvvEEDaOT_EUlSB_E_E9_M_invokeERKSt9_Any_dataOSB_ = comdat any

$_ZNSt17_Function_handlerIFSt8optionalIN6google8protobuf2io7Printer9ValueImplILb0EEEESt17basic_string_viewIcSt11char_traitsIcEEEZNS4_8WithVarsIRKN4absl12lts_2023080213flat_hash_mapISB_NSt7__cxx1112basic_stringIcSA_SaIcEEENSF_18container_internal10StringHashENSL_8StringEqESaISt4pairIKSB_SK_EEEEvvEEDaOT_EUlSB_E_E10_M_managerERSt9_Any_dataRKSZ_St18_Manager_operation = comdat any

$_ZNSt14_Function_base13_Base_managerIZN6google8protobuf2io7Printer8WithVarsIRKN4absl12lts_2023080213flat_hash_mapISt17basic_string_viewIcSt11char_traitsIcEENSt7__cxx1112basic_stringIcSB_SaIcEEENS7_18container_internal10StringHashENSH_8StringEqESaISt4pairIKSC_SG_EEEEvvEEDaOT_EUlSC_E_E9_M_createIST_EEvRSt9_Any_dataSS_St17integral_constantIbLb0EE = comdat any

$_ZZN6google8protobuf2io7Printer8WithVarsIRKN4absl12lts_2023080213flat_hash_mapISt17basic_string_viewIcSt11char_traitsIcEENSt7__cxx1112basic_stringIcS9_SaIcEEENS5_18container_internal10StringHashENSF_8StringEqESaISt4pairIKSA_SE_EEEEvvEEDaOT_ENUlSA_E_C2EOSR_ = comdat any

$_ZNSt9_Any_data9_M_accessIPZN6google8protobuf2io7Printer8WithVarsIRKN4absl12lts_2023080213flat_hash_mapISt17basic_string_viewIcSt11char_traitsIcEENSt7__cxx1112basic_stringIcSB_SaIcEEENS7_18container_internal10StringHashENSH_8StringEqESaISt4pairIKSC_SG_EEEEvvEEDaOT_EUlSC_E_EERSR_v = comdat any

$_ZN4absl12lts_2023080213flat_hash_mapISt17basic_string_viewIcSt11char_traitsIcEENSt7__cxx1112basic_stringIcS4_SaIcEEENS0_18container_internal10StringHashENSA_8StringEqESaISt4pairIKS5_S9_EEEC2EOSH_ = comdat any

$_ZN4absl12lts_2023080218container_internal12raw_hash_mapINS1_17FlatHashMapPolicyISt17basic_string_viewIcSt11char_traitsIcEENSt7__cxx1112basic_stringIcS6_SaIcEEEEENS1_10StringHashENS1_8StringEqESaISt4pairIKS7_SB_EEEC2EOSJ_ = comdat any

$_ZN4absl12lts_2023080218container_internal12raw_hash_setINS1_17FlatHashMapPolicyISt17basic_string_viewIcSt11char_traitsIcEENSt7__cxx1112basic_stringIcS6_SaIcEEEEENS1_10StringHashENS1_8StringEqESaISt4pairIKS7_SB_EEEC2EOSJ_ = comdat any

$_ZN4absl12lts_202308028exchangeINS0_18container_internal12CommonFieldsES3_EET_RS4_OT0_ = comdat any

$_ZN4absl12lts_2023080218container_internal15CompressedTupleIJNS1_12CommonFieldsENS1_10StringHashENS1_8StringEqESaISt4pairIKSt17basic_string_viewIcSt11char_traitsIcEENSt7__cxx1112basic_stringIcS9_SaIcEEEEEEEC2IS3_JRS4_RS5_RSH_ETnNSt9enable_ifIXsr4absl11conjunctionINS0_8negationISt7is_sameIFvSI_EFvNSt5decayIT_E4typeEEEEENS1_25internal_compressed_tuple27TupleItemsMoveConstructibleISI_JSS_DpT0_EEEEE5valueEbE4typeELb1EEEOSS_DpOS10_ = comdat any

$_ZN4absl12lts_202308024moveIRNS0_18container_internal12CommonFieldsEEEONSt16remove_referenceIT_E4typeEOS6_ = comdat any

$_ZN4absl12lts_202308027forwardIRNS0_18container_internal10StringHashEEEOT_RNSt16remove_referenceIS5_E4typeE = comdat any

$_ZN4absl12lts_202308027forwardIRNS0_18container_internal8StringEqEEEOT_RNSt16remove_referenceIS5_E4typeE = comdat any

$_ZN4absl12lts_202308027forwardIRSaISt4pairIKSt17basic_string_viewIcSt11char_traitsIcEENSt7__cxx1112basic_stringIcS5_SaIcEEEEEEEOT_RNSt16remove_referenceISF_E4typeE = comdat any

$_ZN4absl12lts_2023080218container_internal25internal_compressed_tuple19CompressedTupleImplINS1_15CompressedTupleIJNS1_12CommonFieldsENS1_10StringHashENS1_8StringEqESaISt4pairIKSt17basic_string_viewIcSt11char_traitsIcEENSt7__cxx1112basic_stringIcSB_SaIcEEEEEEEENS0_16integer_sequenceImJLm0ELm1ELm2ELm3EEEELb1EEC2IJS5_RS6_RS7_RSJ_EEESt10in_place_tDpOT_ = comdat any

$_ZN4absl12lts_2023080218container_internal25internal_compressed_tuple7StorageINS1_10StringHashELm1ELb1EEC2IRS4_EESt10in_place_tOT_ = comdat any

$_ZN4absl12lts_2023080218container_internal25internal_compressed_tuple7StorageINS1_8StringEqELm2ELb1EEC2IRS4_EESt10in_place_tOT_ = comdat any

$_ZN4absl12lts_2023080218container_internal25internal_compressed_tuple7StorageISaISt4pairIKSt17basic_string_viewIcSt11char_traitsIcEENSt7__cxx1112basic_stringIcS7_SaIcEEEEELm3ELb1EEC2IRSF_EESt10in_place_tOT_ = comdat any

$_ZSt10__invoke_rISt8optionalIN6google8protobuf2io7Printer9ValueImplILb0EEEERZNS4_8WithVarsIRKN4absl12lts_2023080213flat_hash_mapISt17basic_string_viewIcSt11char_traitsIcEENSt7__cxx1112basic_stringIcSE_SaIcEEENSA_18container_internal10StringHashENSK_8StringEqESaISt4pairIKSF_SJ_EEEEvvEEDaOT_EUlSF_E_JSF_EENSt9enable_ifIX16is_invocable_r_vISU_T0_DpT1_EESU_E4typeEOSZ_DpOS10_ = comdat any

$_ZNSt14_Function_base13_Base_managerIZN6google8protobuf2io7Printer8WithVarsIRKN4absl12lts_2023080213flat_hash_mapISt17basic_string_viewIcSt11char_traitsIcEENSt7__cxx1112basic_stringIcSB_SaIcEEENS7_18container_internal10StringHashENSH_8StringEqESaISt4pairIKSC_SG_EEEEvvEEDaOT_EUlSC_E_E14_M_get_pointerERKSt9_Any_data = comdat any

$_ZSt13__invoke_implISt8optionalIN6google8protobuf2io7Printer9ValueImplILb0EEEERZNS4_8WithVarsIRKN4absl12lts_2023080213flat_hash_mapISt17basic_string_viewIcSt11char_traitsIcEENSt7__cxx1112basic_stringIcSE_SaIcEEENSA_18container_internal10StringHashENSK_8StringEqESaISt4pairIKSF_SJ_EEEEvvEEDaOT_EUlSF_E_JSF_EESU_St14__invoke_otherOT0_DpOT1_ = comdat any

$_ZZN6google8protobuf2io7Printer8WithVarsIRKN4absl12lts_2023080213flat_hash_mapISt17basic_string_viewIcSt11char_traitsIcEENSt7__cxx1112basic_stringIcS9_SaIcEEENS5_18container_internal10StringHashENSF_8StringEqESaISt4pairIKSA_SE_EEEEvvEEDaOT_ENKUlSA_E_clESA_ = comdat any

$_ZN6google8protobuf2io7Printer11ToStringKeyIRKN4absl12lts_2023080213flat_hash_mapISt17basic_string_viewIcSt11char_traitsIcEENSt7__cxx1112basic_stringIcS9_SaIcEEENS5_18container_internal10StringHashENSF_8StringEqESaISt4pairIKSA_SE_EEEEvEESA_SA_ = comdat any

$_ZNKSt9_Any_data9_M_accessIPZN6google8protobuf2io7Printer8WithVarsIRKN4absl12lts_2023080213flat_hash_mapISt17basic_string_viewIcSt11char_traitsIcEENSt7__cxx1112basic_stringIcSB_SaIcEEENS7_18container_internal10StringHashENSH_8StringEqESaISt4pairIKSC_SG_EEEEvvEEDaOT_EUlSC_E_EERKSR_v = comdat any

$_ZNSt14_Function_base13_Base_managerIZN6google8protobuf2io7Printer8WithVarsIRKN4absl12lts_2023080213flat_hash_mapISt17basic_string_viewIcSt11char_traitsIcEENSt7__cxx1112basic_stringIcSB_SaIcEEENS7_18container_internal10StringHashENSH_8StringEqESaISt4pairIKSC_SG_EEEEvvEEDaOT_EUlSC_E_E10_M_managerERSt9_Any_dataRKSV_St18_Manager_operation = comdat any

$_ZNSt14_Function_base13_Base_managerIZN6google8protobuf2io7Printer8WithVarsIRKN4absl12lts_2023080213flat_hash_mapISt17basic_string_viewIcSt11char_traitsIcEENSt7__cxx1112basic_stringIcSB_SaIcEEENS7_18container_internal10StringHashENSH_8StringEqESaISt4pairIKSC_SG_EEEEvvEEDaOT_EUlSC_E_E15_M_init_functorIRKST_EEvRSt9_Any_dataSS_ = comdat any

$_ZNSt14_Function_base13_Base_managerIZN6google8protobuf2io7Printer8WithVarsIRKN4absl12lts_2023080213flat_hash_mapISt17basic_string_viewIcSt11char_traitsIcEENSt7__cxx1112basic_stringIcSB_SaIcEEENS7_18container_internal10StringHashENSH_8StringEqESaISt4pairIKSC_SG_EEEEvvEEDaOT_EUlSC_E_E10_M_destroyERSt9_Any_dataSt17integral_constantIbLb0EE = comdat any

$_ZNSt14_Function_base13_Base_managerIZN6google8protobuf2io7Printer8WithVarsIRKN4absl12lts_2023080213flat_hash_mapISt17basic_string_viewIcSt11char_traitsIcEENSt7__cxx1112basic_stringIcSB_SaIcEEENS7_18container_internal10StringHashENSH_8StringEqESaISt4pairIKSC_SG_EEEEvvEEDaOT_EUlSC_E_E9_M_createIRKST_EEvRSt9_Any_dataSS_St17integral_constantIbLb0EE = comdat any

$_ZZN6google8protobuf2io7Printer8WithVarsIRKN4absl12lts_2023080213flat_hash_mapISt17basic_string_viewIcSt11char_traitsIcEENSt7__cxx1112basic_stringIcS9_SaIcEEENS5_18container_internal10StringHashENSF_8StringEqESaISt4pairIKSA_SE_EEEEvvEEDaOT_ENUlSA_E_C2ERKSR_ = comdat any

$_ZSt8_DestroyIPSt8functionIFSt8optionalIN6google8protobuf2io7Printer9ValueImplILb0EEEESt17basic_string_viewIcSt11char_traitsIcEEEESE_EvT_SG_RSaIT0_E = comdat any

$_ZSt8_DestroyIPSt8functionIFSt8optionalIN6google8protobuf2io7Printer9ValueImplILb0EEEESt17basic_string_viewIcSt11char_traitsIcEEEEEvT_SG_ = comdat any

$_ZNSt12_Destroy_auxILb0EE9__destroyIPSt8functionIFSt8optionalIN6google8protobuf2io7Printer9ValueImplILb0EEEESt17basic_string_viewIcSt11char_traitsIcEEEEEEvT_SI_ = comdat any

$_ZSt8_DestroyISt8functionIFSt8optionalIN6google8protobuf2io7Printer9ValueImplILb0EEEESt17basic_string_viewIcSt11char_traitsIcEEEEEvPT_ = comdat any

$_ZN4absl12lts_202308027CleanupINS0_16cleanup_internal3TagEZN6google8protobuf2io7Printer8WithVarsIRKNS0_13flat_hash_mapISt17basic_string_viewIcSt11char_traitsIcEENSt7__cxx1112basic_stringIcSC_SaIcEEENS0_18container_internal10StringHashENSI_8StringEqESaISt4pairIKSD_SH_EEEEvvEEDaOT_EUlvE_EC2ESU_ = comdat any

$_ZN4absl12lts_2023080216cleanup_internal7StorageIZN6google8protobuf2io7Printer8WithVarsIRKNS0_13flat_hash_mapISt17basic_string_viewIcSt11char_traitsIcEENSt7__cxx1112basic_stringIcSB_SaIcEEENS0_18container_internal10StringHashENSH_8StringEqESaISt4pairIKSC_SG_EEEEvvEEDaOT_EUlvE_EC2EST_ = comdat any

$_ZN4absl12lts_2023080216cleanup_internal7StorageIZN6google8protobuf2io7Printer8WithVarsIRKNS0_13flat_hash_mapISt17basic_string_viewIcSt11char_traitsIcEENSt7__cxx1112basic_stringIcSB_SaIcEEENS0_18container_internal10StringHashENSH_8StringEqESaISt4pairIKSC_SG_EEEEvvEEDaOT_EUlvE_E17GetCallbackBufferEv = comdat any

$_ZN4absl12lts_202308024SpanIKN6google8protobuf2io7Printer3SubEEC2Ev = comdat any

$_ZN4absl12lts_202308024SpanIKN6google8protobuf2io7Printer3SubEEC2EPS7_m = comdat any

$_ZNK4absl12lts_2023080216cleanup_internal7StorageIZN6google8protobuf2io7Printer8WithVarsIRKNS0_13flat_hash_mapISt17basic_string_viewIcSt11char_traitsIcEENSt7__cxx1112basic_stringIcSB_SaIcEEENS0_18container_internal10StringHashENSH_8StringEqESaISt4pairIKSC_SG_EEEEvvEEDaOT_EUlvE_E17IsCallbackEngagedEv = comdat any

$_ZN4absl12lts_2023080216cleanup_internal7StorageIZN6google8protobuf2io7Printer8WithVarsIRKNS0_13flat_hash_mapISt17basic_string_viewIcSt11char_traitsIcEENSt7__cxx1112basic_stringIcSB_SaIcEEENS0_18container_internal10StringHashENSH_8StringEqESaISt4pairIKSC_SG_EEEEvvEEDaOT_EUlvE_E14InvokeCallbackEv = comdat any

$_ZN4absl12lts_2023080216cleanup_internal7StorageIZN6google8protobuf2io7Printer8WithVarsIRKNS0_13flat_hash_mapISt17basic_string_viewIcSt11char_traitsIcEENSt7__cxx1112basic_stringIcSB_SaIcEEENS0_18container_internal10StringHashENSH_8StringEqESaISt4pairIKSC_SG_EEEEvvEEDaOT_EUlvE_E15DestroyCallbackEv = comdat any

$_ZN4absl12lts_2023080216cleanup_internal7StorageIZN6google8protobuf2io7Printer8WithVarsIRKNS0_13flat_hash_mapISt17basic_string_viewIcSt11char_traitsIcEENSt7__cxx1112basic_stringIcSB_SaIcEEENS0_18container_internal10StringHashENSH_8StringEqESaISt4pairIKSC_SG_EEEEvvEEDaOT_EUlvE_E11GetCallbackEv = comdat any

$_ZZN6google8protobuf2io7Printer8WithVarsIRKN4absl12lts_2023080213flat_hash_mapISt17basic_string_viewIcSt11char_traitsIcEENSt7__cxx1112basic_stringIcS9_SaIcEEENS5_18container_internal10StringHashENSF_8StringEqESaISt4pairIKSA_SE_EEEEvvEEDaOT_ENKUlvE_clEv = comdat any

$_ZNK6google8protobuf8compiler3cpp18FieldGeneratorBase12should_splitEv = comdat any

$_ZNKO4absl12lts_2023080212log_internal7VoidifyaaINS1_10LogMessageEEEvRKT_ = comdat any

$_ZNSt7__cxx1112basic_stringIcSt11char_traitsIcESaIcEEC2IS3_EEPKcRKS3_ = comdat any

$_ZN6google8protobuf2io7Printer3SubC2IPKcEENSt7__cxx1112basic_stringIcSt11char_traitsIcESaIcEEEOT_ = comdat any

$_ZN4absl12lts_202308024SpanIKN6google8protobuf2io7Printer3SubEEC2IS7_S7_EESt16initializer_listIS6_E = comdat any

$_ZN6google8protobuf2io7Printer3SubD2Ev = comdat any

$_ZNSt7__cxx1112basic_stringIcSt11char_traitsIcESaIcEE12_M_constructIPKcEEvT_S8_St20forward_iterator_tag = comdat any

$_ZNSt7__cxx1112basic_stringIcSt11char_traitsIcESaIcEE12_Alloc_hiderD2Ev = comdat any

$_ZSt8distanceIPKcENSt15iterator_traitsIT_E15difference_typeES3_S3_ = comdat any

$_ZZNSt7__cxx1112basic_stringIcSt11char_traitsIcESaIcEE12_M_constructIPKcEEvT_S8_St20forward_iterator_tagEN6_GuardC2EPS4_ = comdat any

$_ZZNSt7__cxx1112basic_stringIcSt11char_traitsIcESaIcEE12_M_constructIPKcEEvT_S8_St20forward_iterator_tagEN6_GuardD2Ev = comdat any

$_ZSt10__distanceIPKcENSt15iterator_traitsIT_E15difference_typeES3_S3_St26random_access_iterator_tag = comdat any

$_ZSt19__iterator_categoryIPKcENSt15iterator_traitsIT_E17iterator_categoryERKS3_ = comdat any

$_ZN6google8protobuf2io7Printer9ValueImplILb1EEC2IPKcvEEOT_ = comdat any

$_ZNSt8optionalIN6google8protobuf2io7Printer16AnnotationRecordEEC2ESt9nullopt_t = comdat any

$_ZN6google8protobuf2io7Printer9ValueImplILb1EE18ToStringOrCallbackENSt7__cxx1112basic_stringIcSt11char_traitsIcESaIcEEENS4_5Rank1E = comdat any

$_ZSt17holds_alternativeISt8functionIFbvEEJNSt7__cxx1112basic_stringIcSt11char_traitsIcESaIcEEES2_EEbRKSt7variantIJDpT0_EE = comdat any

$_ZNSt7variantIJNSt7__cxx1112basic_stringIcSt11char_traitsIcESaIcEEESt8functionIFbvEEEED2Ev = comdat any

$_ZNSt7variantIJNSt7__cxx1112basic_stringIcSt11char_traitsIcESaIcEEESt8functionIFbvEEEEC2IS5_vvS5_vEEOT_ = comdat any

$_ZNSt7variantIJNSt7__cxx1112basic_stringIcSt11char_traitsIcESaIcEEESt8functionIFbvEEEEC2ILm0EJS5_ES5_vEESt16in_place_index_tIXT_EEDpOT0_ = comdat any

$_ZNSt8__detail9__variant13_Variant_baseIJNSt7__cxx1112basic_stringIcSt11char_traitsIcESaIcEEESt8functionIFbvEEEEC2ILm0EJS7_EEESt16in_place_index_tIXT_EEDpOT0_ = comdat any

$_ZNSt27_Enable_default_constructorILb1ESt7variantIJNSt7__cxx1112basic_stringIcSt11char_traitsIcESaIcEEESt8functionIFbvEEEEEC2ESt31_Enable_default_constructor_tag = comdat any

$_ZNSt8__detail9__variant13_Variant_baseIJNSt7__cxx1112basic_stringIcSt11char_traitsIcESaIcEEESt8functionIFbvEEEED2Ev = comdat any

$_ZNSt8__detail9__variant17_Move_assign_baseILb0EJNSt7__cxx1112basic_stringIcSt11char_traitsIcESaIcEEESt8functionIFbvEEEECI2NS0_16_Variant_storageILb0EJS7_SA_EEEILm0EJS7_EEESt16in_place_index_tIXT_EEDpOT0_ = comdat any

$_ZNSt8__detail9__variant17_Copy_assign_baseILb0EJNSt7__cxx1112basic_stringIcSt11char_traitsIcESaIcEEESt8functionIFbvEEEECI2NS0_16_Variant_storageILb0EJS7_SA_EEEILm0EJS7_EEESt16in_place_index_tIXT_EEDpOT0_ = comdat any

$_ZNSt8__detail9__variant15_Move_ctor_baseILb0EJNSt7__cxx1112basic_stringIcSt11char_traitsIcESaIcEEESt8functionIFbvEEEECI2NS0_16_Variant_storageILb0EJS7_SA_EEEILm0EJS7_EEESt16in_place_index_tIXT_EEDpOT0_ = comdat any

$_ZNSt8__detail9__variant15_Copy_ctor_baseILb0EJNSt7__cxx1112basic_stringIcSt11char_traitsIcESaIcEEESt8functionIFbvEEEECI2NS0_16_Variant_storageILb0EJS7_SA_EEEILm0EJS7_EEESt16in_place_index_tIXT_EEDpOT0_ = comdat any

$_ZNSt8__detail9__variant16_Variant_storageILb0EJNSt7__cxx1112basic_stringIcSt11char_traitsIcESaIcEEESt8functionIFbvEEEEC2ILm0EJS7_EEESt16in_place_index_tIXT_EEDpOT0_ = comdat any

$_ZNSt8__detail9__variant15_Variadic_unionIJNSt7__cxx1112basic_stringIcSt11char_traitsIcESaIcEEESt8functionIFbvEEEEC2IJS7_EEESt16in_place_index_tILm0EEDpOT_ = comdat any

$_ZNSt8__detail9__variant14_UninitializedINSt7__cxx1112basic_stringIcSt11char_traitsIcESaIcEEELb0EEC2IJS7_EEESt16in_place_index_tILm0EEDpOT_ = comdat any

$_ZNSt8__detail9__variant17_Move_assign_baseILb0EJNSt7__cxx1112basic_stringIcSt11char_traitsIcESaIcEEESt8functionIFbvEEEED2Ev = comdat any

$_ZNSt8__detail9__variant17_Copy_assign_baseILb0EJNSt7__cxx1112basic_stringIcSt11char_traitsIcESaIcEEESt8functionIFbvEEEED2Ev = comdat any

$_ZNSt8__detail9__variant15_Move_ctor_baseILb0EJNSt7__cxx1112basic_stringIcSt11char_traitsIcESaIcEEESt8functionIFbvEEEED2Ev = comdat any

$_ZNSt8__detail9__variant15_Copy_ctor_baseILb0EJNSt7__cxx1112basic_stringIcSt11char_traitsIcESaIcEEESt8functionIFbvEEEED2Ev = comdat any

$_ZNSt8__detail9__variant16_Variant_storageILb0EJNSt7__cxx1112basic_stringIcSt11char_traitsIcESaIcEEESt8functionIFbvEEEED2Ev = comdat any

$_ZNSt8__detail9__variant16_Variant_storageILb0EJNSt7__cxx1112basic_stringIcSt11char_traitsIcESaIcEEESt8functionIFbvEEEE8_M_resetEv = comdat any

$_ZNKSt8__detail9__variant16_Variant_storageILb0EJNSt7__cxx1112basic_stringIcSt11char_traitsIcESaIcEEESt8functionIFbvEEEE8_M_validEv = comdat any

$_ZSt10__do_visitIvZNSt8__detail9__variant16_Variant_storageILb0EJNSt7__cxx1112basic_stringIcSt11char_traitsIcESaIcEEESt8functionIFbvEEEE8_M_resetEvEUlOT_E_JRSt7variantIJS8_SB_EEEEDcOT0_DpOT1_ = comdat any

$_ZSt14__variant_castIJNSt7__cxx1112basic_stringIcSt11char_traitsIcESaIcEEESt8functionIFbvEEERNSt8__detail9__variant16_Variant_storageILb0EJS5_S8_EEEEDcOT0_ = comdat any

$_ZZSt10__do_visitIvZNSt8__detail9__variant16_Variant_storageILb0EJNSt7__cxx1112basic_stringIcSt11char_traitsIcESaIcEEESt8functionIFbvEEEE8_M_resetEvEUlOT_E_JRSt7variantIJS8_SB_EEEEDcOT0_DpOT1_ENKUlSI_zE_clB5cxx11ESI_z = comdat any

$_ZNKSt7variantIJNSt7__cxx1112basic_stringIcSt11char_traitsIcESaIcEEESt8functionIFbvEEEE5indexEv = comdat any

$_ZNSt8__detail9__variant17__gen_vtable_implINS0_12_Multi_arrayIPFvOZNS0_16_Variant_storageILb0EJNSt7__cxx1112basic_stringIcSt11char_traitsIcESaIcEEESt8functionIFbvEEEE8_M_resetEvEUlOT_E_RSt7variantIJS9_SC_EEEJEEESt16integer_sequenceImJLm0EEEE14__visit_invokeESH_SK_ = comdat any

$_ZNSt8__detail9__variant17__gen_vtable_implINS0_12_Multi_arrayIPFvOZNS0_16_Variant_storageILb0EJNSt7__cxx1112basic_stringIcSt11char_traitsIcESaIcEEESt8functionIFbvEEEE8_M_resetEvEUlOT_E_RSt7variantIJS9_SC_EEEJEEESt16integer_sequenceImJLm1EEEE14__visit_invokeESH_SK_ = comdat any

$_ZSt10__invoke_rIvZNSt8__detail9__variant16_Variant_storageILb0EJNSt7__cxx1112basic_stringIcSt11char_traitsIcESaIcEEESt8functionIFbvEEEE8_M_resetEvEUlOT_E_JRS8_EENSt9enable_ifIX16is_invocable_r_vISD_T0_DpT1_EESD_E4typeEOSI_DpOSJ_ = comdat any

$_ZNSt8__detail9__variant5__getILm0ERSt7variantIJNSt7__cxx1112basic_stringIcSt11char_traitsIcESaIcEEESt8functionIFbvEEEEEEDcOT0_ = comdat any

$_ZSt13__invoke_implIvZNSt8__detail9__variant16_Variant_storageILb0EJNSt7__cxx1112basic_stringIcSt11char_traitsIcESaIcEEESt8functionIFbvEEEE8_M_resetEvEUlOT_E_JRS8_EESD_St14__invoke_otherOT0_DpOT1_ = comdat any

$_ZZNSt8__detail9__variant16_Variant_storageILb0EJNSt7__cxx1112basic_stringIcSt11char_traitsIcESaIcEEESt8functionIFbvEEEE8_M_resetEvENUlOT_E_clIRS7_EEDaSD_ = comdat any

$_ZSt8_DestroyINSt7__cxx1112basic_stringIcSt11char_traitsIcESaIcEEEEvPT_ = comdat any

$_ZNSt8__detail9__variant7__get_nILm0ERNS0_15_Variadic_unionIJNSt7__cxx1112basic_stringIcSt11char_traitsIcESaIcEEESt8functionIFbvEEEEEEEDcOT0_ = comdat any

$_ZNRSt8__detail9__variant14_UninitializedINSt7__cxx1112basic_stringIcSt11char_traitsIcESaIcEEELb0EE6_M_getEv = comdat any

$_ZN9__gnu_cxx16__aligned_membufINSt7__cxx1112basic_stringIcSt11char_traitsIcESaIcEEEE6_M_ptrEv = comdat any

$_ZN9__gnu_cxx16__aligned_membufINSt7__cxx1112basic_stringIcSt11char_traitsIcESaIcEEEE7_M_addrEv = comdat any

$_ZSt10__invoke_rIvZNSt8__detail9__variant16_Variant_storageILb0EJNSt7__cxx1112basic_stringIcSt11char_traitsIcESaIcEEESt8functionIFbvEEEE8_M_resetEvEUlOT_E_JRSB_EENSt9enable_ifIX16is_invocable_r_vISD_T0_DpT1_EESD_E4typeEOSI_DpOSJ_ = comdat any

$_ZNSt8__detail9__variant5__getILm1ERSt7variantIJNSt7__cxx1112basic_stringIcSt11char_traitsIcESaIcEEESt8functionIFbvEEEEEEDcOT0_ = comdat any

$_ZSt13__invoke_implIvZNSt8__detail9__variant16_Variant_storageILb0EJNSt7__cxx1112basic_stringIcSt11char_traitsIcESaIcEEESt8functionIFbvEEEE8_M_resetEvEUlOT_E_JRSB_EESD_St14__invoke_otherOT0_DpOT1_ = comdat any

$_ZZNSt8__detail9__variant16_Variant_storageILb0EJNSt7__cxx1112basic_stringIcSt11char_traitsIcESaIcEEESt8functionIFbvEEEE8_M_resetEvENUlOT_E_clIRSA_EEDaSD_ = comdat any

$_ZNSt8__detail9__variant7__get_nILm1ERNS0_15_Variadic_unionIJNSt7__cxx1112basic_stringIcSt11char_traitsIcESaIcEEESt8functionIFbvEEEEEEEDcOT0_ = comdat any

$_ZSt24__find_uniq_type_in_packISt8functionIFbvEEJNSt7__cxx1112basic_stringIcSt11char_traitsIcESaIcEEES2_EEmv = comdat any

$_ZNSt14_Optional_baseIN6google8protobuf2io7Printer16AnnotationRecordELb0ELb0EEC2Ev = comdat any

$_ZNSt17_Optional_payloadIN6google8protobuf2io7Printer16AnnotationRecordELb0ELb0ELb0EEC2Ev = comdat any

$_ZNSt17_Optional_payloadIN6google8protobuf2io7Printer16AnnotationRecordELb1ELb0ELb0EEC2Ev = comdat any

$_ZNSt22_Optional_payload_baseIN6google8protobuf2io7Printer16AnnotationRecordEEC2Ev = comdat any

$_ZNSt22_Optional_payload_baseIN6google8protobuf2io7Printer16AnnotationRecordEE8_StorageIS4_Lb0EEC2Ev = comdat any

$_ZNKSt16initializer_listIN6google8protobuf2io7Printer3SubEE5beginEv = comdat any

$_ZNKSt16initializer_listIN6google8protobuf2io7Printer3SubEE4sizeEv = comdat any

$_ZNSt8optionalIN6google8protobuf2io7Printer16AnnotationRecordEED2Ev = comdat any

$_ZN6google8protobuf2io7Printer9ValueImplILb1EED2Ev = comdat any

$_ZNSt14_Optional_baseIN6google8protobuf2io7Printer16AnnotationRecordELb0ELb0EED2Ev = comdat any

$_ZNSt17_Optional_payloadIN6google8protobuf2io7Printer16AnnotationRecordELb0ELb0ELb0EED2Ev = comdat any

$_ZNSt22_Optional_payload_baseIN6google8protobuf2io7Printer16AnnotationRecordEE8_M_resetEv = comdat any

$_ZNSt17_Optional_payloadIN6google8protobuf2io7Printer16AnnotationRecordELb1ELb0ELb0EED2Ev = comdat any

$_ZNSt22_Optional_payload_baseIN6google8protobuf2io7Printer16AnnotationRecordEE10_M_destroyEv = comdat any

$_ZN6google8protobuf2io7Printer16AnnotationRecordD2Ev = comdat any

$_ZNSt22_Optional_payload_baseIN6google8protobuf2io7Printer16AnnotationRecordEED2Ev = comdat any

$_ZNSt22_Optional_payload_baseIN6google8protobuf2io7Printer16AnnotationRecordEE8_StorageIS4_Lb0EED2Ev = comdat any

$_ZNK6google8protobuf15FieldDescriptor4typeEv = comdat any

$_ZN4absl12lts_2023080210SubstituteB5cxx11ESt17basic_string_viewIcSt11char_traitsIcEERKNS0_19substitute_internal3ArgE = comdat any

$_ZN4absl12lts_2023080219substitute_internal3ArgC2ESt17basic_string_viewIcSt11char_traitsIcEE = comdat any

$_ZN4absl12lts_202308029call_onceIPFvPKN6google8protobuf15FieldDescriptorEEJS6_EEEvRNS0_9once_flagEOT_DpOT0_ = comdat any

$_ZN4absl12lts_2023080213base_internal11ControlWordEPNS0_9once_flagE = comdat any

$_ZN4absl12lts_2023080213base_internal12CallOnceImplIPFvPKN6google8protobuf15FieldDescriptorEEJS7_EEEvPSt6atomicIjENS1_14SchedulingModeEOT_DpOT0_ = comdat any

$_ZStanSt12memory_orderSt23__memory_order_modifier = comdat any

$_ZN4absl12lts_2023080213base_internal16SchedulingHelperC2ENS1_14SchedulingModeE = comdat any

$_ZSt6invokeIPFvPKN6google8protobuf15FieldDescriptorEEJS4_EENSt13invoke_resultIT_JDpT0_EE4typeEOS8_DpOS9_ = comdat any

$_ZN4absl12lts_2023080213base_internal12SpinLockWakeEPSt6atomicIjEb = comdat any

$_ZN4absl12lts_2023080213base_internal16SchedulingHelperD2Ev = comdat any

$_ZN4absl12lts_2023080213base_internal15SchedulingGuard19DisableReschedulingEv = comdat any

$_ZSt23__cmpexch_failure_orderSt12memory_order = comdat any

$_ZStorSt12memory_orderSt23__memory_order_modifier = comdat any

$_ZSt24__cmpexch_failure_order2St12memory_order = comdat any

$_ZSt8__invokeIPFvPKN6google8protobuf15FieldDescriptorEEJS4_EENSt15__invoke_resultIT_JDpT0_EE4typeEOS8_DpOS9_ = comdat any

$_ZSt13__invoke_implIvPFvPKN6google8protobuf15FieldDescriptorEEJS4_EET_St14__invoke_otherOT0_DpOT1_ = comdat any

$_ZN4absl12lts_2023080213base_internal15SchedulingGuard18EnableReschedulingEb = comdat any

$_ZN4absl12lts_2023080219SubstituteAndAppendEPNSt7__cxx1112basic_stringIcSt11char_traitsIcESaIcEEESt17basic_string_viewIcS4_ERKNS0_19substitute_internal3ArgE = comdat any

$_ZNK4absl12lts_2023080219substitute_internal3Arg5pieceEv = comdat any

$_ZNSt10_Head_baseILm0EPN6google8protobuf8compiler3cpp18FieldGeneratorBaseELb0EEC2IRS5_EEOT_ = comdat any

$_ZSt19piecewise_construct = comdat any

$_ZZN4absl12lts_2023080218container_internal12raw_hash_setINS1_17FlatHashMapPolicyISt17basic_string_viewIcSt11char_traitsIcEENSt7__cxx1112basic_stringIcS6_SaIcEEEEENS1_10StringHashENS1_8StringEqESaISt4pairIKS7_SB_EEE18GetPolicyFunctionsEvE5value = comdat any

$_ZSt8in_place = comdat any

$_ZSt7nullopt = comdat any

$_ZSt14in_place_indexILm0EE = comdat any

$_ZSt14in_place_indexILm1EE = comdat any

$_ZTSZN6google8protobuf2io7Printer8WithVarsIN4absl12lts_2023080213flat_hash_mapISt17basic_string_viewIcSt11char_traitsIcEENSt7__cxx1112basic_stringIcS9_SaIcEEENS5_18container_internal10StringHashENSF_8StringEqESaISt4pairIKSA_SE_EEEEEEDaPKT_EUlSA_E_ = comdat any

$_ZTIZN6google8protobuf2io7Printer8WithVarsIN4absl12lts_2023080213flat_hash_mapISt17basic_string_viewIcSt11char_traitsIcEENSt7__cxx1112basic_stringIcS9_SaIcEEENS5_18container_internal10StringHashENSF_8StringEqESaISt4pairIKSA_SE_EEEEEEDaPKT_EUlSA_E_ = comdat any

$_ZN6google8protobuf28GeneratedCodeInfo_Annotation3SETE = comdat any

$_ZTSZN6google8protobuf2io7Printer8WithVarsIRKN4absl12lts_2023080213flat_hash_mapISt17basic_string_viewIcSt11char_traitsIcEENSt7__cxx1112basic_stringIcS9_SaIcEEENS5_18container_internal10StringHashENSF_8StringEqESaISt4pairIKSA_SE_EEEEvvEEDaOT_EUlSA_E_ = comdat any

$_ZTIZN6google8protobuf2io7Printer8WithVarsIRKN4absl12lts_2023080213flat_hash_mapISt17basic_string_viewIcSt11char_traitsIcEENSt7__cxx1112basic_stringIcS9_SaIcEEENS5_18container_internal10StringHashENSF_8StringEqESaISt4pairIKSA_SE_EEEEvvEEDaOT_EUlSA_E_ = comdat any

$_ZZN4absl12lts_2023080213base_internal12CallOnceImplIPFvPKN6google8protobuf15FieldDescriptorEEJS7_EEEvPSt6atomicIjENS1_14SchedulingModeEOT_DpOT0_E5trans = comdat any

@_ZStL8__ioinit = internal global %"class.std::ios_base::Init" zeroinitializer, align 1
@__dso_handle = external hidden global i8
@_ZTVN6google8protobuf8compiler3cpp12_GLOBAL__N_118CordFieldGeneratorE = internal unnamed_addr constant { [31 x ptr] } { [31 x ptr] [ptr null, ptr @_ZTIN6google8protobuf8compiler3cpp12_GLOBAL__N_118CordFieldGeneratorE, ptr @_ZN6google8protobuf8compiler3cpp12_GLOBAL__N_118CordFieldGeneratorD2Ev, ptr @_ZN6google8protobuf8compiler3cpp12_GLOBAL__N_118CordFieldGeneratorD0Ev, ptr @_ZNK6google8protobuf8compiler3cpp18FieldGeneratorBase13RequiresArenaENS3_17GeneratorFunctionE, ptr @_ZNK6google8protobuf8compiler3cpp18FieldGeneratorBase8MakeVarsEv, ptr @_ZNK6google8protobuf8compiler3cpp12_GLOBAL__N_118CordFieldGenerator22GeneratePrivateMembersEPNS0_2io7PrinterE, ptr @_ZNK6google8protobuf8compiler3cpp18FieldGeneratorBase21GenerateStaticMembersEPNS0_2io7PrinterE, ptr @_ZNK6google8protobuf8compiler3cpp12_GLOBAL__N_118CordFieldGenerator28GenerateAccessorDeclarationsEPNS0_2io7PrinterE, ptr @_ZNK6google8protobuf8compiler3cpp12_GLOBAL__N_118CordFieldGenerator33GenerateInlineAccessorDefinitionsEPNS0_2io7PrinterE, ptr @_ZNK6google8protobuf8compiler3cpp18FieldGeneratorBase36GenerateNonInlineAccessorDefinitionsEPNS0_2io7PrinterE, ptr @_ZNK6google8protobuf8compiler3cpp12_GLOBAL__N_118CordFieldGenerator20GenerateClearingCodeEPNS0_2io7PrinterE, ptr @_ZNK6google8protobuf8compiler3cpp18FieldGeneratorBase27GenerateMessageClearingCodeEPNS0_2io7PrinterE, ptr @_ZNK6google8protobuf8compiler3cpp12_GLOBAL__N_118CordFieldGenerator19GenerateMergingCodeEPNS0_2io7PrinterE, ptr @_ZNK6google8protobuf8compiler3cpp18FieldGeneratorBase27GenerateCopyConstructorCodeEPNS0_2io7PrinterE, ptr @_ZNK6google8protobuf8compiler3cpp12_GLOBAL__N_118CordFieldGenerator20GenerateSwappingCodeEPNS0_2io7PrinterE, ptr @_ZNK6google8protobuf8compiler3cpp12_GLOBAL__N_118CordFieldGenerator23GenerateConstructorCodeEPNS0_2io7PrinterE, ptr @_ZNK6google8protobuf8compiler3cpp18FieldGeneratorBase22GenerateDestructorCodeEPNS0_2io7PrinterE, ptr @_ZNK6google8protobuf8compiler3cpp12_GLOBAL__N_118CordFieldGenerator27GenerateArenaDestructorCodeEPNS0_2io7PrinterE, ptr @_ZNK6google8protobuf8compiler3cpp12_GLOBAL__N_118CordFieldGenerator34GenerateMemberConstexprConstructorEPNS0_2io7PrinterE, ptr @_ZNK6google8protobuf8compiler3cpp12_GLOBAL__N_118CordFieldGenerator25GenerateMemberConstructorEPNS0_2io7PrinterE, ptr @_ZNK6google8protobuf8compiler3cpp12_GLOBAL__N_118CordFieldGenerator29GenerateMemberCopyConstructorEPNS0_2io7PrinterE, ptr @_ZNK6google8protobuf8compiler3cpp12_GLOBAL__N_118CordFieldGenerator26GenerateOneofCopyConstructEPNS0_2io7PrinterE, ptr @_ZNK6google8protobuf8compiler3cpp12_GLOBAL__N_118CordFieldGenerator28GenerateAggregateInitializerEPNS0_2io7PrinterE, ptr @_ZNK6google8protobuf8compiler3cpp12_GLOBAL__N_118CordFieldGenerator37GenerateConstexprAggregateInitializerEPNS0_2io7PrinterE, ptr @_ZNK6google8protobuf8compiler3cpp18FieldGeneratorBase32GenerateCopyAggregateInitializerEPNS0_2io7PrinterE, ptr @_ZNK6google8protobuf8compiler3cpp12_GLOBAL__N_118CordFieldGenerator39GenerateSerializeWithCachedSizesToArrayEPNS0_2io7PrinterE, ptr @_ZNK6google8protobuf8compiler3cpp12_GLOBAL__N_118CordFieldGenerator16GenerateByteSizeEPNS0_2io7PrinterE, ptr @_ZNK6google8protobuf8compiler3cpp18FieldGeneratorBase21GenerateIsInitializedEPNS0_2io7PrinterE, ptr @_ZNK6google8protobuf8compiler3cpp18FieldGeneratorBase9IsInlinedEv, ptr @_ZNK6google8protobuf8compiler3cpp12_GLOBAL__N_118CordFieldGenerator20NeedsArenaDestructorEv] }, align 8
@_ZTVN10__cxxabiv120__si_class_type_infoE = external global [0 x ptr]
@_ZTSN6google8protobuf8compiler3cpp12_GLOBAL__N_118CordFieldGeneratorE = internal constant [66 x i8] c"N6google8protobuf8compiler3cpp12_GLOBAL__N_118CordFieldGeneratorE\00", align 1
@_ZTIN6google8protobuf8compiler3cpp18FieldGeneratorBaseE = external constant ptr
@_ZTIN6google8protobuf8compiler3cpp12_GLOBAL__N_118CordFieldGeneratorE = internal constant { ptr, ptr, ptr } { ptr getelementptr inbounds (ptr, ptr @_ZTVN10__cxxabiv120__si_class_type_infoE, i64 2), ptr @_ZTSN6google8protobuf8compiler3cpp12_GLOBAL__N_118CordFieldGeneratorE, ptr @_ZTIN6google8protobuf8compiler3cpp18FieldGeneratorBaseE }, align 8
@.str = private unnamed_addr constant [2 x i8] c"\22\00", align 1
@.str.1 = private unnamed_addr constant [8 x i8] c"default\00", align 1
@.str.2 = private unnamed_addr constant [15 x i8] c"default_length\00", align 1
@.str.3 = private unnamed_addr constant [10 x i8] c"full_name\00", align 1
@.str.4 = private unnamed_addr constant [22 x i8] c"default_variable_name\00", align 1
@.str.5 = private unnamed_addr constant [23 x i8] c"default_variable_field\00", align 1
@.str.6 = private unnamed_addr constant [3 x i8] c"::\00", align 1
@.str.7 = private unnamed_addr constant [40 x i8] c"::internal::GetEmptyCordAlreadyInited()\00", align 1
@.str.8 = private unnamed_addr constant [17 x i8] c"default_variable\00", align 1
@_ZSt19piecewise_construct = linkonce_odr constant %"struct.std::piecewise_construct_t" zeroinitializer, comdat, align 1
@_ZN4absl12lts_2023080213hash_internal15MixingHashState5kSeedE = external constant ptr, align 8
@_ZZN4absl12lts_2023080218container_internal12raw_hash_setINS1_17FlatHashMapPolicyISt17basic_string_viewIcSt11char_traitsIcEENSt7__cxx1112basic_stringIcS6_SaIcEEEEENS1_10StringHashENS1_8StringEqESaISt4pairIKS7_SB_EEE18GetPolicyFunctionsEvE5value = linkonce_odr hidden constant %"struct.absl::lts_20230802::container_internal::PolicyFunctions" { i64 48, ptr @_ZN4absl12lts_2023080218container_internal12raw_hash_setINS1_17FlatHashMapPolicyISt17basic_string_viewIcSt11char_traitsIcEENSt7__cxx1112basic_stringIcS6_SaIcEEEEENS1_10StringHashENS1_8StringEqESaISt4pairIKS7_SB_EEE12hash_slot_fnEPvSK_, ptr @_ZN4absl12lts_2023080218container_internal12raw_hash_setINS1_17FlatHashMapPolicyISt17basic_string_viewIcSt11char_traitsIcEENSt7__cxx1112basic_stringIcS6_SaIcEEEEENS1_10StringHashENS1_8StringEqESaISt4pairIKS7_SB_EEE16transfer_slot_fnEPvSK_SK_, ptr @_ZN4absl12lts_2023080218container_internal18DeallocateStandardILm8EEEvRNS1_12CommonFieldsERKNS1_15PolicyFunctionsE }, comdat, align 8
@.str.9 = private unnamed_addr constant [12 x i8] c"operator*()\00", align 1
@.str.10 = private unnamed_addr constant [47 x i8] c"_i_give_permission_to_break_this_code_default_\00", align 1
@.str.11 = private unnamed_addr constant [2 x i8] c"_\00", align 1
@.str.12 = private unnamed_addr constant [8 x i8] c"Impl_::\00", align 1
@.str.13 = private unnamed_addr constant [7 x i8] c"proto2\00", align 1
@__const._ZN6google8protobuf8compiler3cpp17ProtobufNamespaceERKNS2_7OptionsE.kGoogle3Ns = private unnamed_addr constant %"class.std::basic_string_view" { i64 6, ptr @.str.13 }, align 8
@.str.14 = private unnamed_addr constant [17 x i8] c"google::protobuf\00", align 1
@__const._ZN6google8protobuf8compiler3cpp17ProtobufNamespaceERKNS2_7OptionsE.kOssNs = private unnamed_addr constant %"class.std::basic_string_view" { i64 16, ptr @.str.14 }, align 8
@_ZTVN6google8protobuf8compiler3cpp18FieldGeneratorBaseE = external unnamed_addr constant { [31 x ptr] }, align 8
@.str.15 = private unnamed_addr constant [23 x i8] c"::absl::Cord $name$_;\0A\00", align 1
@.str.16 = private unnamed_addr constant [149 x i8] c"struct _default_$name$_func_ {\0A  constexpr absl::string_view operator()() const {\0A    return absl::string_view($default$, $default_length$);\0A  }\0A};\0A\00", align 1
@_ZN4absl12lts_2023080218container_internal11kEmptyGroupE = external constant [32 x i8], align 16
@_ZSt8in_place = linkonce_odr constant %"struct.std::in_place_t" zeroinitializer, comdat, align 1
@.str.17 = private unnamed_addr constant [11 x i8] c"operator++\00", align 1
@_ZSt7nullopt = linkonce_odr constant %"struct.std::nullopt_t" undef, comdat, align 1
@.str.18 = private unnamed_addr constant [11 x i8] c"operator->\00", align 1
@.str.19 = private unnamed_addr constant [3 x i8] c";,\00", align 1
@_ZSt14in_place_indexILm0EE = linkonce_odr constant %"struct.std::in_place_index_t" zeroinitializer, comdat, align 1
@__const._ZSt24__find_uniq_type_in_packISt8functionIFbvEEJSt17basic_string_viewIcSt11char_traitsIcEES2_EEmv.__found = private unnamed_addr constant [2 x i8] c"\00\01", align 1
@_ZSt14in_place_indexILm1EE = linkonce_odr constant %"struct.std::in_place_index_t.144" zeroinitializer, comdat, align 1
@_ZTVN10__cxxabiv117__class_type_infoE = external global [0 x ptr]
@_ZTSZN6google8protobuf2io7Printer8WithVarsIN4absl12lts_2023080213flat_hash_mapISt17basic_string_viewIcSt11char_traitsIcEENSt7__cxx1112basic_stringIcS9_SaIcEEENS5_18container_internal10StringHashENSF_8StringEqESaISt4pairIKSA_SE_EEEEEEDaPKT_EUlSA_E_ = linkonce_odr hidden constant [244 x i8] c"ZN6google8protobuf2io7Printer8WithVarsIN4absl12lts_2023080213flat_hash_mapISt17basic_string_viewIcSt11char_traitsIcEENSt7__cxx1112basic_stringIcS9_SaIcEEENS5_18container_internal10StringHashENSF_8StringEqESaISt4pairIKSA_SE_EEEEEEDaPKT_EUlSA_E_\00", comdat, align 1
@_ZTIZN6google8protobuf2io7Printer8WithVarsIN4absl12lts_2023080213flat_hash_mapISt17basic_string_viewIcSt11char_traitsIcEENSt7__cxx1112basic_stringIcS9_SaIcEEENS5_18container_internal10StringHashENSF_8StringEqESaISt4pairIKSA_SE_EEEEEEDaPKT_EUlSA_E_ = linkonce_odr hidden constant { ptr, ptr } { ptr getelementptr inbounds (ptr, ptr @_ZTVN10__cxxabiv117__class_type_infoE, i64 2), ptr @_ZTSZN6google8protobuf2io7Printer8WithVarsIN4absl12lts_2023080213flat_hash_mapISt17basic_string_viewIcSt11char_traitsIcEENSt7__cxx1112basic_stringIcS9_SaIcEEENS5_18container_internal10StringHashENSF_8StringEqESaISt4pairIKSA_SE_EEEEEEDaPKT_EUlSA_E_ }, comdat, align 8
@.str.20 = private unnamed_addr constant [26 x i8] c"vector::_M_realloc_insert\00", align 1
@.str.21 = private unnamed_addr constant [61 x i8] c"$deprecated_attr$const ::absl::Cord& ${1$$name$$}$() const;\0A\00", align 1
@.str.22 = private unnamed_addr constant [137 x i8] c"$deprecated_attr$void ${1$set_$name$$}$(const ::absl::Cord& value);\0A$deprecated_attr$void ${1$set_$name$$}$(::absl::string_view value);\0A\00", align 1
@_ZN6google8protobuf28GeneratedCodeInfo_Annotation3SETE = linkonce_odr hidden constant i32 1, comdat, align 4
@.str.23 = private unnamed_addr constant [181 x i8] c"private:\0Aconst ::absl::Cord& ${1$_internal_$name$$}$() const;\0Avoid ${1$_internal_set_$name$$}$(const ::absl::Cord& value);\0A::absl::Cord* ${1$_internal_mutable_$name$$}$();\0Apublic:\0A\00", align 1
@.str.24 = private unnamed_addr constant [48 x i8] c"Requested size is too large to fit into size_t.\00", align 1
@.str.25 = private unnamed_addr constant [59 x i8] c"Requested size is too large to fit element count into int.\00", align 1
@.str.26 = private unnamed_addr constant [63 x i8] c"num_elements <= std::numeric_limits<size_t>::max() / sizeof(T)\00", align 1
@.str.27 = private unnamed_addr constant [123 x i8] c"generated/home/dtcxzyw/WorkSpace/Projects/compilers/llvm-opt-benchmark/bench/protobuf/protobuf/src/google/protobuf/arena.h\00", align 1
@_ZN6google8protobuf8internal15ThreadSafeArena13thread_cache_E = external thread_local global %"struct.google::protobuf::internal::ThreadSafeArena::ThreadCache", align 32
@.str.28 = private unnamed_addr constant [103 x i8] c"\0A    inline const ::absl::Cord& $classname$::_internal_$name$() const {\0A      return $field$;\0A    }\0A  \00", align 1
@.str.29 = private unnamed_addr constant [221 x i8] c"\0A    inline const ::absl::Cord& $classname$::$name$() const\0A        ABSL_ATTRIBUTE_LIFETIME_BOUND {\0A      $annotate_get$;\0A      // @@protoc_insertion_point(field_get:$full_name$)\0A      return _internal_$name$();\0A    }\0A  \00", align 1
@.str.30 = private unnamed_addr constant [132 x i8] c"\0A    inline void $classname$::_internal_set_$name$(const ::absl::Cord& value) {\0A      $set_hasbit$;\0A      $field$ = value;\0A    }\0A  \00", align 1
@.str.31 = private unnamed_addr constant [223 x i8] c"\0A    inline void $classname$::set_$name$(const ::absl::Cord& value) {\0A      $PrepareSplitMessageForWrite$ _internal_set_$name$(value);\0A      $annotate_set$;\0A      // @@protoc_insertion_point(field_set:$full_name$)\0A    }\0A  \00", align 1
@.str.32 = private unnamed_addr constant [251 x i8] c"\0A    inline void $classname$::set_$name$(::absl::string_view value) {\0A      $PrepareSplitMessageForWrite$;\0A      $set_hasbit$;\0A      $field$ = value;\0A      $annotate_set$;\0A      // @@protoc_insertion_point(field_set_string_piece:$full_name$)\0A    }\0A  \00", align 1
@.str.33 = private unnamed_addr constant [120 x i8] c"\0A    inline ::absl::Cord* $classname$::_internal_mutable_$name$() {\0A      $set_hasbit$;\0A      return &$field$;\0A    }\0A  \00", align 1
@_ZTSZN6google8protobuf2io7Printer8WithVarsIRKN4absl12lts_2023080213flat_hash_mapISt17basic_string_viewIcSt11char_traitsIcEENSt7__cxx1112basic_stringIcS9_SaIcEEENS5_18container_internal10StringHashENSF_8StringEqESaISt4pairIKSA_SE_EEEEvvEEDaOT_EUlSA_E_ = linkonce_odr hidden constant [247 x i8] c"ZN6google8protobuf2io7Printer8WithVarsIRKN4absl12lts_2023080213flat_hash_mapISt17basic_string_viewIcSt11char_traitsIcEENSt7__cxx1112basic_stringIcS9_SaIcEEENS5_18container_internal10StringHashENSF_8StringEqESaISt4pairIKSA_SE_EEEEvvEEDaOT_EUlSA_E_\00", comdat, align 1
@_ZTIZN6google8protobuf2io7Printer8WithVarsIRKN4absl12lts_2023080213flat_hash_mapISt17basic_string_viewIcSt11char_traitsIcEENSt7__cxx1112basic_stringIcS9_SaIcEEENS5_18container_internal10StringHashENSF_8StringEqESaISt4pairIKSA_SE_EEEEvvEEDaOT_EUlSA_E_ = linkonce_odr hidden constant { ptr, ptr } { ptr getelementptr inbounds (ptr, ptr @_ZTVN10__cxxabiv117__class_type_infoE, i64 2), ptr @_ZTSZN6google8protobuf2io7Printer8WithVarsIRKN4absl12lts_2023080213flat_hash_mapISt17basic_string_viewIcSt11char_traitsIcEENSt7__cxx1112basic_stringIcS9_SaIcEEENS5_18container_internal10StringHashENSF_8StringEqESaISt4pairIKSA_SE_EEEEvvEEDaOT_EUlSA_E_ }, comdat, align 8
@.str.34 = private unnamed_addr constant [18 x i8] c"$field$.Clear();\0A\00", align 1
@.str.35 = private unnamed_addr constant [61 x i8] c"$field$ = ::absl::string_view($default$, $default_length$);\0A\00", align 1
@.str.36 = private unnamed_addr constant [55 x i8] c"_this->_internal_set_$name$(from._internal_$name$());\0A\00", align 1
@.str.37 = private unnamed_addr constant [31 x i8] c"$field$.swap(other->$field$);\0A\00", align 1
@.str.38 = private unnamed_addr constant [159 x i8] c"generated/home/dtcxzyw/WorkSpace/Projects/compilers/llvm-opt-benchmark/bench/protobuf/protobuf/src/google/protobuf/compiler/cpp/field_generators/cord_field.cc\00", align 1
@.str.39 = private unnamed_addr constant [16 x i8] c"!should_split()\00", align 1
@.str.40 = private unnamed_addr constant [41 x i8] c"_this->$field$. ::absl::Cord::~Cord ();\0A\00", align 1
@.str.41 = private unnamed_addr constant [10 x i8] c"$name$_{}\00", align 1
@.str.42 = private unnamed_addr constant [6 x i8] c"Split\00", align 1
@.str.43 = private unnamed_addr constant [8 x i8] c"Split::\00", align 1
@.str.44 = private unnamed_addr constant [1 x i8] zeroinitializer, align 1
@.str.45 = private unnamed_addr constant [106 x i8] c"$name$_{::absl::strings_internal::MakeStringConstant($classname$::Impl_::$Split$_default_$name$_func_{})}\00", align 1
@.str.46 = private unnamed_addr constant [50 x i8] c"basic_string: construction from null is not valid\00", align 1
@__const._ZSt24__find_uniq_type_in_packISt8functionIFbvEEJNSt7__cxx1112basic_stringIcSt11char_traitsIcESaIcEEES2_EEmv.__found = private unnamed_addr constant [2 x i8] c"\00\01", align 1
@.str.47 = private unnamed_addr constant [58 x i8] c"$name$_{::absl::string_view($default$, $default_length$)}\00", align 1
@.str.48 = private unnamed_addr constant [22 x i8] c"$name$_{from.$name$_}\00", align 1
@.str.49 = private unnamed_addr constant [85 x i8] c"\0A      $field$ = ::$proto_ns$::Arena::Create<absl::Cord>(arena, *from.$field$);\0A    \00", align 1
@.str.50 = private unnamed_addr constant [47 x i8] c"\0A      decltype(Impl_::Split::$name$_){},\0A    \00", align 1
@.str.51 = private unnamed_addr constant [33 x i8] c"\0A      decltype($field$){},\0A    \00", align 1
@.str.52 = private unnamed_addr constant [38 x i8] c"\0A      /*decltype($field$)*/ {},\0A    \00", align 1
@.str.53 = private unnamed_addr constant [157 x i8] c"\0A          /*decltype($field$)*/ {::absl::strings_internal::MakeStringConstant(\0A              $classname$::Impl_::$Split$_default_$name$_func_{})},\0A        \00", align 1
@.str.54 = private unnamed_addr constant [23 x i8] c"this->_internal_$0(), \00", align 1
@.str.55 = private unnamed_addr constant [5 x i8] c"name\00", align 1
@.str.56 = private unnamed_addr constant [84 x i8] c"target = stream->Write$declared_type$($number$, this->_internal_$name$(), target);\0A\00", align 1
@_ZZN4absl12lts_2023080213base_internal12CallOnceImplIPFvPKN6google8protobuf15FieldDescriptorEEJS7_EEEvPSt6atomicIjENS1_14SchedulingModeEOT_DpOT0_E5trans = linkonce_odr hidden constant [3 x %"struct.absl::lts_20230802::base_internal::SpinLockWaitTransition"] [%"struct.absl::lts_20230802::base_internal::SpinLockWaitTransition" { i32 0, i32 1707250555, i8 1 }, %"struct.absl::lts_20230802::base_internal::SpinLockWaitTransition" { i32 1707250555, i32 94570706, i8 0 }, %"struct.absl::lts_20230802::base_internal::SpinLockWaitTransition" { i32 221, i32 221, i8 1 }], comdat, align 16
@.str.57 = private unnamed_addr constant [122 x i8] c"total_size += $tag_size$ +\0A  ::$proto_ns$::internal::WireFormatLite::$declared_type$Size(\0A    this->_internal_$name$());\0A\00", align 1
@_ZTVN6google8protobuf8compiler3cpp12_GLOBAL__N_123CordOneofFieldGeneratorE = internal unnamed_addr constant { [31 x ptr] } { [31 x ptr] [ptr null, ptr @_ZTIN6google8protobuf8compiler3cpp12_GLOBAL__N_123CordOneofFieldGeneratorE, ptr @_ZN6google8protobuf8compiler3cpp12_GLOBAL__N_123CordOneofFieldGeneratorD2Ev, ptr @_ZN6google8protobuf8compiler3cpp12_GLOBAL__N_123CordOneofFieldGeneratorD0Ev, ptr @_ZNK6google8protobuf8compiler3cpp12_GLOBAL__N_123CordOneofFieldGenerator13RequiresArenaENS2_18FieldGeneratorBase17GeneratorFunctionE, ptr @_ZNK6google8protobuf8compiler3cpp18FieldGeneratorBase8MakeVarsEv, ptr @_ZNK6google8protobuf8compiler3cpp12_GLOBAL__N_123CordOneofFieldGenerator22GeneratePrivateMembersEPNS0_2io7PrinterE, ptr @_ZNK6google8protobuf8compiler3cpp12_GLOBAL__N_123CordOneofFieldGenerator21GenerateStaticMembersEPNS0_2io7PrinterE, ptr @_ZNK6google8protobuf8compiler3cpp12_GLOBAL__N_118CordFieldGenerator28GenerateAccessorDeclarationsEPNS0_2io7PrinterE, ptr @_ZNK6google8protobuf8compiler3cpp12_GLOBAL__N_123CordOneofFieldGenerator33GenerateInlineAccessorDefinitionsEPNS0_2io7PrinterE, ptr @_ZNK6google8protobuf8compiler3cpp12_GLOBAL__N_123CordOneofFieldGenerator36GenerateNonInlineAccessorDefinitionsEPNS0_2io7PrinterE, ptr @_ZNK6google8protobuf8compiler3cpp12_GLOBAL__N_123CordOneofFieldGenerator20GenerateClearingCodeEPNS0_2io7PrinterE, ptr @_ZNK6google8protobuf8compiler3cpp18FieldGeneratorBase27GenerateMessageClearingCodeEPNS0_2io7PrinterE, ptr @_ZNK6google8protobuf8compiler3cpp12_GLOBAL__N_123CordOneofFieldGenerator19GenerateMergingCodeEPNS0_2io7PrinterE, ptr @_ZNK6google8protobuf8compiler3cpp18FieldGeneratorBase27GenerateCopyConstructorCodeEPNS0_2io7PrinterE, ptr @_ZNK6google8protobuf8compiler3cpp12_GLOBAL__N_123CordOneofFieldGenerator20GenerateSwappingCodeEPNS0_2io7PrinterE, ptr @_ZNK6google8protobuf8compiler3cpp12_GLOBAL__N_123CordOneofFieldGenerator23GenerateConstructorCodeEPNS0_2io7PrinterE, ptr @_ZNK6google8protobuf8compiler3cpp18FieldGeneratorBase22GenerateDestructorCodeEPNS0_2io7PrinterE, ptr @_ZNK6google8protobuf8compiler3cpp12_GLOBAL__N_123CordOneofFieldGenerator27GenerateArenaDestructorCodeEPNS0_2io7PrinterE, ptr @_ZNK6google8protobuf8compiler3cpp12_GLOBAL__N_118CordFieldGenerator34GenerateMemberConstexprConstructorEPNS0_2io7PrinterE, ptr @_ZNK6google8protobuf8compiler3cpp12_GLOBAL__N_118CordFieldGenerator25GenerateMemberConstructorEPNS0_2io7PrinterE, ptr @_ZNK6google8protobuf8compiler3cpp12_GLOBAL__N_118CordFieldGenerator29GenerateMemberCopyConstructorEPNS0_2io7PrinterE, ptr @_ZNK6google8protobuf8compiler3cpp12_GLOBAL__N_118CordFieldGenerator26GenerateOneofCopyConstructEPNS0_2io7PrinterE, ptr @_ZNK6google8protobuf8compiler3cpp12_GLOBAL__N_118CordFieldGenerator28GenerateAggregateInitializerEPNS0_2io7PrinterE, ptr @_ZNK6google8protobuf8compiler3cpp12_GLOBAL__N_118CordFieldGenerator37GenerateConstexprAggregateInitializerEPNS0_2io7PrinterE, ptr @_ZNK6google8protobuf8compiler3cpp18FieldGeneratorBase32GenerateCopyAggregateInitializerEPNS0_2io7PrinterE, ptr @_ZNK6google8protobuf8compiler3cpp12_GLOBAL__N_118CordFieldGenerator39GenerateSerializeWithCachedSizesToArrayEPNS0_2io7PrinterE, ptr @_ZNK6google8protobuf8compiler3cpp12_GLOBAL__N_118CordFieldGenerator16GenerateByteSizeEPNS0_2io7PrinterE, ptr @_ZNK6google8protobuf8compiler3cpp18FieldGeneratorBase21GenerateIsInitializedEPNS0_2io7PrinterE, ptr @_ZNK6google8protobuf8compiler3cpp18FieldGeneratorBase9IsInlinedEv, ptr @_ZNK6google8protobuf8compiler3cpp12_GLOBAL__N_123CordOneofFieldGenerator20NeedsArenaDestructorEv] }, align 8
@_ZTSN6google8protobuf8compiler3cpp12_GLOBAL__N_123CordOneofFieldGeneratorE = internal constant [71 x i8] c"N6google8protobuf8compiler3cpp12_GLOBAL__N_123CordOneofFieldGeneratorE\00", align 1
@_ZTIN6google8protobuf8compiler3cpp12_GLOBAL__N_123CordOneofFieldGeneratorE = internal constant { ptr, ptr, ptr } { ptr getelementptr inbounds (ptr, ptr @_ZTVN10__cxxabiv120__si_class_type_infoE, i64 2), ptr @_ZTSN6google8protobuf8compiler3cpp12_GLOBAL__N_123CordOneofFieldGeneratorE, ptr @_ZTIN6google8protobuf8compiler3cpp12_GLOBAL__N_118CordFieldGeneratorE }, align 8
@.str.58 = private unnamed_addr constant [24 x i8] c"::absl::Cord *$name$_;\0A\00", align 1
@.str.59 = private unnamed_addr constant [199 x i8] c"struct _default_$name$_func_ {\0A  constexpr absl::string_view operator()() const {\0A    return absl::string_view($default$, $default_length$);\0A  }\0A};static const ::absl::Cord $default_variable_name$;\0A\00", align 1
@.str.60 = private unnamed_addr constant [172 x i8] c"\0A    inline const ::absl::Cord& $classname$::_internal_$name$() const {\0A      if ($has_field$) {\0A        return *$field$;\0A      }\0A      return $default_variable$;\0A    }\0A  \00", align 1
@.str.61 = private unnamed_addr constant [433 x i8] c"\0A    inline void $classname$::set_$name$(const ::absl::Cord& value) {\0A      if ($not_has_field$) {\0A        clear_$oneof_name$();\0A        set_has_$name$();\0A        $field$ = new ::absl::Cord;\0A        ::$proto_ns$::Arena* arena = GetArena();\0A        if (arena != nullptr) {\0A          arena->Own($field$);\0A        }\0A      }\0A      *$field$ = value;\0A      $annotate_set$;\0A      // @@protoc_insertion_point(field_set:$full_name$)\0A    }\0A  \00", align 1
@.str.62 = private unnamed_addr constant [446 x i8] c"\0A    inline void $classname$::set_$name$(::absl::string_view value) {\0A      if ($not_has_field$) {\0A        clear_$oneof_name$();\0A        set_has_$name$();\0A        $field$ = new ::absl::Cord;\0A        ::$proto_ns$::Arena* arena = GetArena();\0A        if (arena != nullptr) {\0A          arena->Own($field$);\0A        }\0A      }\0A      *$field$ = value;\0A      $annotate_set$;\0A      // @@protoc_insertion_point(field_set_string_piece:$full_name$)\0A    }\0A  \00", align 1
@.str.63 = private unnamed_addr constant [350 x i8] c"\0A    inline ::absl::Cord* $classname$::_internal_mutable_$name$() {\0A      if ($not_has_field$) {\0A        clear_$oneof_name$();\0A        set_has_$name$();\0A        $field$ = new ::absl::Cord;\0A        ::$proto_ns$::Arena* arena = GetArena();\0A        if (arena != nullptr) {\0A          arena->Own($field$);\0A        }\0A      }\0A      return $field$;\0A    }\0A  \00", align 1
@.str.64 = private unnamed_addr constant [187 x i8] c"PROTOBUF_ATTRIBUTE_NO_DESTROY PROTOBUF_CONSTINIT const ::absl::Cord $classname$::$default_variable_field$(\0A  ::absl::strings_internal::MakeStringConstant(\0A    _default_$name$_func_{}));\0A\00", align 1
@.str.65 = private unnamed_addr constant [50 x i8] c"if (GetArena() == nullptr) {\0A  delete $field$;\0A}\0A\00", align 1
@.str.66 = private unnamed_addr constant [146 x i8] c"\0A    if (oneof_needs_init) {\0A      _this->$field$ = ::$proto_ns$::Arena::Create<absl::Cord>(arena);\0A    }\0A    *_this->$field$ = *from.$field$;\0A  \00", align 1
@llvm.global_ctors = appending global [1 x { i32, ptr, ptr }] [{ i32, ptr, ptr } { i32 65535, ptr @_GLOBAL__sub_I_cord_field.cc, ptr null }]

; Function Attrs: uwtable
define internal void @__cxx_global_var_init() #0 section ".text.startup" {
entry:
  call void @_ZNSt8ios_base4InitC1Ev(ptr noundef nonnull align 1 dereferenceable(1) @_ZStL8__ioinit)
  %0 = call i32 @__cxa_atexit(ptr @_ZNSt8ios_base4InitD1Ev, ptr @_ZStL8__ioinit, ptr @__dso_handle) #3
  ret void
}

declare void @_ZNSt8ios_base4InitC1Ev(ptr noundef nonnull align 1 dereferenceable(1)) unnamed_addr #1

; Function Attrs: nounwind
declare void @_ZNSt8ios_base4InitD1Ev(ptr noundef nonnull align 1 dereferenceable(1)) unnamed_addr #2

; Function Attrs: nounwind
declare i32 @__cxa_atexit(ptr, ptr, ptr) #3

; Function Attrs: mustprogress uwtable
define hidden void @_ZN6google8protobuf8compiler3cpp25MakeSingularCordGeneratorEPKNS0_15FieldDescriptorERKNS2_7OptionsEPNS2_18MessageSCCAnalyzerE(ptr noalias sret(%"class.std::unique_ptr") align 8 %agg.result, ptr noundef %desc, ptr noundef nonnull align 8 dereferenceable(206) %options, ptr noundef %scc) #4 {
entry:
  %result.ptr = alloca ptr, align 8
  %desc.addr = alloca ptr, align 8
  %options.addr = alloca ptr, align 8
  %scc.addr = alloca ptr, align 8
  %ref.tmp = alloca %"class.std::unique_ptr.2", align 8
  store ptr %agg.result, ptr %result.ptr, align 8
  store ptr %desc, ptr %desc.addr, align 8
  store ptr %options, ptr %options.addr, align 8
  store ptr %scc, ptr %scc.addr, align 8
  %0 = load ptr, ptr %options.addr, align 8
  call void @_ZSt11make_uniqueIN6google8protobuf8compiler3cpp12_GLOBAL__N_118CordFieldGeneratorEJRPKNS1_15FieldDescriptorERKNS3_7OptionsERPNS3_18MessageSCCAnalyzerEEENSt8__detail9_MakeUniqIT_E15__single_objectEDpOT0_(ptr sret(%"class.std::unique_ptr.2") align 8 %ref.tmp, ptr noundef nonnull align 8 dereferenceable(8) %desc.addr, ptr noundef nonnull align 8 dereferenceable(206) %0, ptr noundef nonnull align 8 dereferenceable(8) %scc.addr)
  call void @_ZNSt10unique_ptrIN6google8protobuf8compiler3cpp18FieldGeneratorBaseESt14default_deleteIS4_EEC2INS3_12_GLOBAL__N_118CordFieldGeneratorES5_ISA_EvEEOS_IT_T0_E(ptr noundef nonnull align 8 dereferenceable(8) %agg.result, ptr noundef nonnull align 8 dereferenceable(8) %ref.tmp) #3
  call void @_ZNSt10unique_ptrIN6google8protobuf8compiler3cpp12_GLOBAL__N_118CordFieldGeneratorESt14default_deleteIS5_EED2Ev(ptr noundef nonnull align 8 dereferenceable(8) %ref.tmp) #3
  ret void
}

; Function Attrs: mustprogress uwtable
define internal void @_ZSt11make_uniqueIN6google8protobuf8compiler3cpp12_GLOBAL__N_118CordFieldGeneratorEJRPKNS1_15FieldDescriptorERKNS3_7OptionsERPNS3_18MessageSCCAnalyzerEEENSt8__detail9_MakeUniqIT_E15__single_objectEDpOT0_(ptr noalias sret(%"class.std::unique_ptr.2") align 8 %agg.result, ptr noundef nonnull align 8 dereferenceable(8) %__args, ptr noundef nonnull align 8 dereferenceable(206) %__args1, ptr noundef nonnull align 8 dereferenceable(8) %__args3) #4 personality ptr @__gxx_personality_v0 {
entry:
  %result.ptr = alloca ptr, align 8
  %__args.addr = alloca ptr, align 8
  %__args.addr2 = alloca ptr, align 8
  %__args.addr4 = alloca ptr, align 8
  %exn.slot = alloca ptr, align 8
  %ehselector.slot = alloca i32, align 4
  store ptr %agg.result, ptr %result.ptr, align 8
  store ptr %__args, ptr %__args.addr, align 8
  store ptr %__args1, ptr %__args.addr2, align 8
  store ptr %__args3, ptr %__args.addr4, align 8
  %call = call noalias noundef nonnull ptr @_Znwm(i64 noundef 88) #19
  %0 = load ptr, ptr %__args.addr, align 8
  %1 = load ptr, ptr %0, align 8
  %2 = load ptr, ptr %__args.addr2, align 8
  %3 = load ptr, ptr %__args.addr4, align 8
  %4 = load ptr, ptr %3, align 8
  invoke void @_ZN6google8protobuf8compiler3cpp12_GLOBAL__N_118CordFieldGeneratorC2EPKNS0_15FieldDescriptorERKNS2_7OptionsEPNS2_18MessageSCCAnalyzerE(ptr noundef nonnull align 8 dereferenceable(85) %call, ptr noundef %1, ptr noundef nonnull align 8 dereferenceable(206) %2, ptr noundef %4)
          to label %invoke.cont unwind label %lpad

invoke.cont:                                      ; preds = %entry
  call void @_ZNSt10unique_ptrIN6google8protobuf8compiler3cpp12_GLOBAL__N_118CordFieldGeneratorESt14default_deleteIS5_EEC2IS7_vEEPS5_(ptr noundef nonnull align 8 dereferenceable(8) %agg.result, ptr noundef %call) #3
  ret void

lpad:                                             ; preds = %entry
  %5 = landingpad { ptr, i32 }
          cleanup
  %6 = extractvalue { ptr, i32 } %5, 0
  store ptr %6, ptr %exn.slot, align 8
  %7 = extractvalue { ptr, i32 } %5, 1
  store i32 %7, ptr %ehselector.slot, align 4
  call void @_ZdlPv(ptr noundef %call) #20
  br label %eh.resume

eh.resume:                                        ; preds = %lpad
  %exn = load ptr, ptr %exn.slot, align 8
  %sel = load i32, ptr %ehselector.slot, align 4
  %lpad.val = insertvalue { ptr, i32 } poison, ptr %exn, 0
  %lpad.val5 = insertvalue { ptr, i32 } %lpad.val, i32 %sel, 1
  resume { ptr, i32 } %lpad.val5
}

; Function Attrs: mustprogress nounwind uwtable
define internal void @_ZNSt10unique_ptrIN6google8protobuf8compiler3cpp18FieldGeneratorBaseESt14default_deleteIS4_EEC2INS3_12_GLOBAL__N_118CordFieldGeneratorES5_ISA_EvEEOS_IT_T0_E(ptr noundef nonnull align 8 dereferenceable(8) %this, ptr noundef nonnull align 8 dereferenceable(8) %__u) unnamed_addr #5 align 2 personality ptr @__gxx_personality_v0 {
entry:
  %this.addr = alloca ptr, align 8
  %__u.addr = alloca ptr, align 8
  store ptr %this, ptr %this.addr, align 8
  store ptr %__u, ptr %__u.addr, align 8
  %this1 = load ptr, ptr %this.addr, align 8
  %_M_t = getelementptr inbounds %"class.std::unique_ptr", ptr %this1, i32 0, i32 0
  %0 = load ptr, ptr %__u.addr, align 8
  %call = call noundef ptr @_ZNSt10unique_ptrIN6google8protobuf8compiler3cpp12_GLOBAL__N_118CordFieldGeneratorESt14default_deleteIS5_EE7releaseEv(ptr noundef nonnull align 8 dereferenceable(8) %0) #3
  %1 = load ptr, ptr %__u.addr, align 8
  %call2 = call noundef nonnull align 1 dereferenceable(1) ptr @_ZNSt10unique_ptrIN6google8protobuf8compiler3cpp12_GLOBAL__N_118CordFieldGeneratorESt14default_deleteIS5_EE11get_deleterEv(ptr noundef nonnull align 8 dereferenceable(8) %1) #3
  invoke void @_ZNSt15__uniq_ptr_dataIN6google8protobuf8compiler3cpp18FieldGeneratorBaseESt14default_deleteIS4_ELb1ELb1EECI2St15__uniq_ptr_implIS4_S6_EIS5_INS3_12_GLOBAL__N_118CordFieldGeneratorEEEEPS4_OT_(ptr noundef nonnull align 8 dereferenceable(8) %_M_t, ptr noundef %call, ptr noundef nonnull align 1 dereferenceable(1) %call2)
          to label %invoke.cont unwind label %terminate.lpad

invoke.cont:                                      ; preds = %entry
  ret void

terminate.lpad:                                   ; preds = %entry
  %2 = landingpad { ptr, i32 }
          catch ptr null
  %3 = extractvalue { ptr, i32 } %2, 0
  call void @__clang_call_terminate(ptr %3) #21
  unreachable
}

; Function Attrs: mustprogress nounwind uwtable
define internal void @_ZNSt10unique_ptrIN6google8protobuf8compiler3cpp12_GLOBAL__N_118CordFieldGeneratorESt14default_deleteIS5_EED2Ev(ptr noundef nonnull align 8 dereferenceable(8) %this) unnamed_addr #5 align 2 personality ptr @__gxx_personality_v0 {
entry:
  %this.addr = alloca ptr, align 8
  %__ptr = alloca ptr, align 8
  store ptr %this, ptr %this.addr, align 8
  %this1 = load ptr, ptr %this.addr, align 8
  %_M_t = getelementptr inbounds %"class.std::unique_ptr.2", ptr %this1, i32 0, i32 0
  %call = call noundef nonnull align 8 dereferenceable(8) ptr @_ZNSt15__uniq_ptr_implIN6google8protobuf8compiler3cpp12_GLOBAL__N_118CordFieldGeneratorESt14default_deleteIS5_EE6_M_ptrEv(ptr noundef nonnull align 8 dereferenceable(8) %_M_t) #3
  store ptr %call, ptr %__ptr, align 8
  %0 = load ptr, ptr %__ptr, align 8
  %1 = load ptr, ptr %0, align 8
  %cmp = icmp ne ptr %1, null
  br i1 %cmp, label %if.then, label %if.end

if.then:                                          ; preds = %entry
  %call2 = call noundef nonnull align 1 dereferenceable(1) ptr @_ZNSt10unique_ptrIN6google8protobuf8compiler3cpp12_GLOBAL__N_118CordFieldGeneratorESt14default_deleteIS5_EE11get_deleterEv(ptr noundef nonnull align 8 dereferenceable(8) %this1) #3
  %2 = load ptr, ptr %__ptr, align 8
  %3 = load ptr, ptr %2, align 8
  invoke void @_ZNKSt14default_deleteIN6google8protobuf8compiler3cpp12_GLOBAL__N_118CordFieldGeneratorEEclEPS5_(ptr noundef nonnull align 1 dereferenceable(1) %call2, ptr noundef %3)
          to label %invoke.cont unwind label %terminate.lpad

invoke.cont:                                      ; preds = %if.then
  br label %if.end

if.end:                                           ; preds = %invoke.cont, %entry
  %4 = load ptr, ptr %__ptr, align 8
  store ptr null, ptr %4, align 8
  ret void

terminate.lpad:                                   ; preds = %if.then
  %5 = landingpad { ptr, i32 }
          catch ptr null
  %6 = extractvalue { ptr, i32 } %5, 0
  call void @__clang_call_terminate(ptr %6) #21
  unreachable
}

; Function Attrs: mustprogress uwtable
define hidden void @_ZN6google8protobuf8compiler3cpp22MakeOneofCordGeneratorEPKNS0_15FieldDescriptorERKNS2_7OptionsEPNS2_18MessageSCCAnalyzerE(ptr noalias sret(%"class.std::unique_ptr") align 8 %agg.result, ptr noundef %desc, ptr noundef nonnull align 8 dereferenceable(206) %options, ptr noundef %scc) #4 {
entry:
  %result.ptr = alloca ptr, align 8
  %desc.addr = alloca ptr, align 8
  %options.addr = alloca ptr, align 8
  %scc.addr = alloca ptr, align 8
  %ref.tmp = alloca %"class.std::unique_ptr.20", align 8
  store ptr %agg.result, ptr %result.ptr, align 8
  store ptr %desc, ptr %desc.addr, align 8
  store ptr %options, ptr %options.addr, align 8
  store ptr %scc, ptr %scc.addr, align 8
  %0 = load ptr, ptr %options.addr, align 8
  call void @_ZSt11make_uniqueIN6google8protobuf8compiler3cpp12_GLOBAL__N_123CordOneofFieldGeneratorEJRPKNS1_15FieldDescriptorERKNS3_7OptionsERPNS3_18MessageSCCAnalyzerEEENSt8__detail9_MakeUniqIT_E15__single_objectEDpOT0_(ptr sret(%"class.std::unique_ptr.20") align 8 %ref.tmp, ptr noundef nonnull align 8 dereferenceable(8) %desc.addr, ptr noundef nonnull align 8 dereferenceable(206) %0, ptr noundef nonnull align 8 dereferenceable(8) %scc.addr)
  call void @_ZNSt10unique_ptrIN6google8protobuf8compiler3cpp18FieldGeneratorBaseESt14default_deleteIS4_EEC2INS3_12_GLOBAL__N_123CordOneofFieldGeneratorES5_ISA_EvEEOS_IT_T0_E(ptr noundef nonnull align 8 dereferenceable(8) %agg.result, ptr noundef nonnull align 8 dereferenceable(8) %ref.tmp) #3
  call void @_ZNSt10unique_ptrIN6google8protobuf8compiler3cpp12_GLOBAL__N_123CordOneofFieldGeneratorESt14default_deleteIS5_EED2Ev(ptr noundef nonnull align 8 dereferenceable(8) %ref.tmp) #3
  ret void
}

; Function Attrs: mustprogress uwtable
define internal void @_ZSt11make_uniqueIN6google8protobuf8compiler3cpp12_GLOBAL__N_123CordOneofFieldGeneratorEJRPKNS1_15FieldDescriptorERKNS3_7OptionsERPNS3_18MessageSCCAnalyzerEEENSt8__detail9_MakeUniqIT_E15__single_objectEDpOT0_(ptr noalias sret(%"class.std::unique_ptr.20") align 8 %agg.result, ptr noundef nonnull align 8 dereferenceable(8) %__args, ptr noundef nonnull align 8 dereferenceable(206) %__args1, ptr noundef nonnull align 8 dereferenceable(8) %__args3) #4 personality ptr @__gxx_personality_v0 {
entry:
  %result.ptr = alloca ptr, align 8
  %__args.addr = alloca ptr, align 8
  %__args.addr2 = alloca ptr, align 8
  %__args.addr4 = alloca ptr, align 8
  %exn.slot = alloca ptr, align 8
  %ehselector.slot = alloca i32, align 4
  store ptr %agg.result, ptr %result.ptr, align 8
  store ptr %__args, ptr %__args.addr, align 8
  store ptr %__args1, ptr %__args.addr2, align 8
  store ptr %__args3, ptr %__args.addr4, align 8
  %call = call noalias noundef nonnull ptr @_Znwm(i64 noundef 88) #19
  %0 = load ptr, ptr %__args.addr, align 8
  %1 = load ptr, ptr %0, align 8
  %2 = load ptr, ptr %__args.addr2, align 8
  %3 = load ptr, ptr %__args.addr4, align 8
  %4 = load ptr, ptr %3, align 8
  invoke void @_ZN6google8protobuf8compiler3cpp12_GLOBAL__N_123CordOneofFieldGeneratorC2EPKNS0_15FieldDescriptorERKNS2_7OptionsEPNS2_18MessageSCCAnalyzerE(ptr noundef nonnull align 8 dereferenceable(85) %call, ptr noundef %1, ptr noundef nonnull align 8 dereferenceable(206) %2, ptr noundef %4)
          to label %invoke.cont unwind label %lpad

invoke.cont:                                      ; preds = %entry
  call void @_ZNSt10unique_ptrIN6google8protobuf8compiler3cpp12_GLOBAL__N_123CordOneofFieldGeneratorESt14default_deleteIS5_EEC2IS7_vEEPS5_(ptr noundef nonnull align 8 dereferenceable(8) %agg.result, ptr noundef %call) #3
  ret void

lpad:                                             ; preds = %entry
  %5 = landingpad { ptr, i32 }
          cleanup
  %6 = extractvalue { ptr, i32 } %5, 0
  store ptr %6, ptr %exn.slot, align 8
  %7 = extractvalue { ptr, i32 } %5, 1
  store i32 %7, ptr %ehselector.slot, align 4
  call void @_ZdlPv(ptr noundef %call) #20
  br label %eh.resume

eh.resume:                                        ; preds = %lpad
  %exn = load ptr, ptr %exn.slot, align 8
  %sel = load i32, ptr %ehselector.slot, align 4
  %lpad.val = insertvalue { ptr, i32 } poison, ptr %exn, 0
  %lpad.val5 = insertvalue { ptr, i32 } %lpad.val, i32 %sel, 1
  resume { ptr, i32 } %lpad.val5
}

; Function Attrs: mustprogress nounwind uwtable
define internal void @_ZNSt10unique_ptrIN6google8protobuf8compiler3cpp18FieldGeneratorBaseESt14default_deleteIS4_EEC2INS3_12_GLOBAL__N_123CordOneofFieldGeneratorES5_ISA_EvEEOS_IT_T0_E(ptr noundef nonnull align 8 dereferenceable(8) %this, ptr noundef nonnull align 8 dereferenceable(8) %__u) unnamed_addr #5 align 2 personality ptr @__gxx_personality_v0 {
entry:
  %this.addr = alloca ptr, align 8
  %__u.addr = alloca ptr, align 8
  store ptr %this, ptr %this.addr, align 8
  store ptr %__u, ptr %__u.addr, align 8
  %this1 = load ptr, ptr %this.addr, align 8
  %_M_t = getelementptr inbounds %"class.std::unique_ptr", ptr %this1, i32 0, i32 0
  %0 = load ptr, ptr %__u.addr, align 8
  %call = call noundef ptr @_ZNSt10unique_ptrIN6google8protobuf8compiler3cpp12_GLOBAL__N_123CordOneofFieldGeneratorESt14default_deleteIS5_EE7releaseEv(ptr noundef nonnull align 8 dereferenceable(8) %0) #3
  %1 = load ptr, ptr %__u.addr, align 8
  %call2 = call noundef nonnull align 1 dereferenceable(1) ptr @_ZNSt10unique_ptrIN6google8protobuf8compiler3cpp12_GLOBAL__N_123CordOneofFieldGeneratorESt14default_deleteIS5_EE11get_deleterEv(ptr noundef nonnull align 8 dereferenceable(8) %1) #3
  invoke void @_ZNSt15__uniq_ptr_dataIN6google8protobuf8compiler3cpp18FieldGeneratorBaseESt14default_deleteIS4_ELb1ELb1EECI2St15__uniq_ptr_implIS4_S6_EIS5_INS3_12_GLOBAL__N_123CordOneofFieldGeneratorEEEEPS4_OT_(ptr noundef nonnull align 8 dereferenceable(8) %_M_t, ptr noundef %call, ptr noundef nonnull align 1 dereferenceable(1) %call2)
          to label %invoke.cont unwind label %terminate.lpad

invoke.cont:                                      ; preds = %entry
  ret void

terminate.lpad:                                   ; preds = %entry
  %2 = landingpad { ptr, i32 }
          catch ptr null
  %3 = extractvalue { ptr, i32 } %2, 0
  call void @__clang_call_terminate(ptr %3) #21
  unreachable
}

; Function Attrs: mustprogress nounwind uwtable
define internal void @_ZNSt10unique_ptrIN6google8protobuf8compiler3cpp12_GLOBAL__N_123CordOneofFieldGeneratorESt14default_deleteIS5_EED2Ev(ptr noundef nonnull align 8 dereferenceable(8) %this) unnamed_addr #5 align 2 personality ptr @__gxx_personality_v0 {
entry:
  %this.addr = alloca ptr, align 8
  %__ptr = alloca ptr, align 8
  store ptr %this, ptr %this.addr, align 8
  %this1 = load ptr, ptr %this.addr, align 8
  %_M_t = getelementptr inbounds %"class.std::unique_ptr.20", ptr %this1, i32 0, i32 0
  %call = call noundef nonnull align 8 dereferenceable(8) ptr @_ZNSt15__uniq_ptr_implIN6google8protobuf8compiler3cpp12_GLOBAL__N_123CordOneofFieldGeneratorESt14default_deleteIS5_EE6_M_ptrEv(ptr noundef nonnull align 8 dereferenceable(8) %_M_t) #3
  store ptr %call, ptr %__ptr, align 8
  %0 = load ptr, ptr %__ptr, align 8
  %1 = load ptr, ptr %0, align 8
  %cmp = icmp ne ptr %1, null
  br i1 %cmp, label %if.then, label %if.end

if.then:                                          ; preds = %entry
  %call2 = call noundef nonnull align 1 dereferenceable(1) ptr @_ZNSt10unique_ptrIN6google8protobuf8compiler3cpp12_GLOBAL__N_123CordOneofFieldGeneratorESt14default_deleteIS5_EE11get_deleterEv(ptr noundef nonnull align 8 dereferenceable(8) %this1) #3
  %2 = load ptr, ptr %__ptr, align 8
  %3 = load ptr, ptr %2, align 8
  invoke void @_ZNKSt14default_deleteIN6google8protobuf8compiler3cpp12_GLOBAL__N_123CordOneofFieldGeneratorEEclEPS5_(ptr noundef nonnull align 1 dereferenceable(1) %call2, ptr noundef %3)
          to label %invoke.cont unwind label %terminate.lpad

invoke.cont:                                      ; preds = %if.then
  br label %if.end

if.end:                                           ; preds = %invoke.cont, %entry
  %4 = load ptr, ptr %__ptr, align 8
  store ptr null, ptr %4, align 8
  ret void

terminate.lpad:                                   ; preds = %if.then
  %5 = landingpad { ptr, i32 }
          catch ptr null
  %6 = extractvalue { ptr, i32 } %5, 0
  call void @__clang_call_terminate(ptr %6) #21
  unreachable
}

; Function Attrs: nobuiltin allocsize(0)
declare noundef nonnull ptr @_Znwm(i64 noundef) #6

; Function Attrs: mustprogress uwtable
define internal void @_ZN6google8protobuf8compiler3cpp12_GLOBAL__N_118CordFieldGeneratorC2EPKNS0_15FieldDescriptorERKNS2_7OptionsEPNS2_18MessageSCCAnalyzerE(ptr noundef nonnull align 8 dereferenceable(85) %this, ptr noundef %descriptor, ptr noundef nonnull align 8 dereferenceable(206) %options, ptr noundef %scc) unnamed_addr #4 align 2 personality ptr @__gxx_personality_v0 {
entry:
  %this.addr = alloca ptr, align 8
  %descriptor.addr = alloca ptr, align 8
  %options.addr = alloca ptr, align 8
  %scc.addr = alloca ptr, align 8
  %exn.slot = alloca ptr, align 8
  %ehselector.slot = alloca i32, align 4
  store ptr %this, ptr %this.addr, align 8
  store ptr %descriptor, ptr %descriptor.addr, align 8
  store ptr %options, ptr %options.addr, align 8
  store ptr %scc, ptr %scc.addr, align 8
  %this1 = load ptr, ptr %this.addr, align 8
  %0 = load ptr, ptr %descriptor.addr, align 8
  %1 = load ptr, ptr %options.addr, align 8
  %2 = load ptr, ptr %scc.addr, align 8
  call void @_ZN6google8protobuf8compiler3cpp18FieldGeneratorBaseC2EPKNS0_15FieldDescriptorERKNS2_7OptionsEPNS2_18MessageSCCAnalyzerE(ptr noundef nonnull align 8 dereferenceable(85) %this1, ptr noundef %0, ptr noundef nonnull align 8 dereferenceable(206) %1, ptr noundef %2)
  store ptr getelementptr inbounds ({ [31 x ptr] }, ptr @_ZTVN6google8protobuf8compiler3cpp12_GLOBAL__N_118CordFieldGeneratorE, i32 0, inrange i32 0, i32 2), ptr %this1, align 8
  %3 = load ptr, ptr %descriptor.addr, align 8
  %variables_ = getelementptr inbounds %"class.google::protobuf::compiler::cpp::FieldGeneratorBase", ptr %this1, i32 0, i32 4
  %4 = load ptr, ptr %options.addr, align 8
  invoke void @_ZN6google8protobuf8compiler3cpp12_GLOBAL__N_116SetCordVariablesEPKNS0_15FieldDescriptorEPN4absl12lts_2023080213flat_hash_mapISt17basic_string_viewIcSt11char_traitsIcEENSt7__cxx1112basic_stringIcSC_SaIcEEENS8_18container_internal10StringHashENSI_8StringEqESaISt4pairIKSD_SH_EEEERKNS2_7OptionsE(ptr noundef %3, ptr noundef %variables_, ptr noundef nonnull align 8 dereferenceable(206) %4)
          to label %invoke.cont unwind label %lpad

invoke.cont:                                      ; preds = %entry
  ret void

lpad:                                             ; preds = %entry
  %5 = landingpad { ptr, i32 }
          cleanup
  %6 = extractvalue { ptr, i32 } %5, 0
  store ptr %6, ptr %exn.slot, align 8
  %7 = extractvalue { ptr, i32 } %5, 1
  store i32 %7, ptr %ehselector.slot, align 4
  call void @_ZN6google8protobuf8compiler3cpp18FieldGeneratorBaseD2Ev(ptr noundef nonnull align 8 dereferenceable(85) %this1) #3
  br label %eh.resume

eh.resume:                                        ; preds = %lpad
  %exn = load ptr, ptr %exn.slot, align 8
  %sel = load i32, ptr %ehselector.slot, align 4
  %lpad.val = insertvalue { ptr, i32 } poison, ptr %exn, 0
  %lpad.val2 = insertvalue { ptr, i32 } %lpad.val, i32 %sel, 1
  resume { ptr, i32 } %lpad.val2
}

declare i32 @__gxx_personality_v0(...)

; Function Attrs: nobuiltin nounwind
declare void @_ZdlPv(ptr noundef) #7

; Function Attrs: mustprogress nounwind uwtable
define internal void @_ZNSt10unique_ptrIN6google8protobuf8compiler3cpp12_GLOBAL__N_118CordFieldGeneratorESt14default_deleteIS5_EEC2IS7_vEEPS5_(ptr noundef nonnull align 8 dereferenceable(8) %this, ptr noundef %__p) unnamed_addr #5 align 2 personality ptr @__gxx_personality_v0 {
entry:
  %this.addr = alloca ptr, align 8
  %__p.addr = alloca ptr, align 8
  store ptr %this, ptr %this.addr, align 8
  store ptr %__p, ptr %__p.addr, align 8
  %this1 = load ptr, ptr %this.addr, align 8
  %_M_t = getelementptr inbounds %"class.std::unique_ptr.2", ptr %this1, i32 0, i32 0
  %0 = load ptr, ptr %__p.addr, align 8
  invoke void @_ZNSt15__uniq_ptr_dataIN6google8protobuf8compiler3cpp12_GLOBAL__N_118CordFieldGeneratorESt14default_deleteIS5_ELb1ELb1EECI2St15__uniq_ptr_implIS5_S7_EEPS5_(ptr noundef nonnull align 8 dereferenceable(8) %_M_t, ptr noundef %0)
          to label %invoke.cont unwind label %terminate.lpad

invoke.cont:                                      ; preds = %entry
  ret void

terminate.lpad:                                   ; preds = %entry
  %1 = landingpad { ptr, i32 }
          catch ptr null
  %2 = extractvalue { ptr, i32 } %1, 0
  call void @__clang_call_terminate(ptr %2) #21
  unreachable
}

declare void @_ZN6google8protobuf8compiler3cpp18FieldGeneratorBaseC2EPKNS0_15FieldDescriptorERKNS2_7OptionsEPNS2_18MessageSCCAnalyzerE(ptr noundef nonnull align 8 dereferenceable(85), ptr noundef, ptr noundef nonnull align 8 dereferenceable(206), ptr noundef) unnamed_addr #1

; Function Attrs: mustprogress uwtable
define internal void @_ZN6google8protobuf8compiler3cpp12_GLOBAL__N_116SetCordVariablesEPKNS0_15FieldDescriptorEPN4absl12lts_2023080213flat_hash_mapISt17basic_string_viewIcSt11char_traitsIcEENSt7__cxx1112basic_stringIcSC_SaIcEEENS8_18container_internal10StringHashENSI_8StringEqESaISt4pairIKSD_SH_EEEERKNS2_7OptionsE(ptr noundef %descriptor, ptr noundef %variables, ptr noundef nonnull align 8 dereferenceable(206) %options) #4 personality ptr @__gxx_personality_v0 {
entry:
  %descriptor.addr = alloca ptr, align 8
  %variables.addr = alloca ptr, align 8
  %options.addr = alloca ptr, align 8
  %ref.tmp = alloca %"class.std::__cxx11::basic_string", align 8
  %ref.tmp1 = alloca %"class.absl::lts_20230802::AlphaNum", align 8
  %ref.tmp2 = alloca %"class.absl::lts_20230802::AlphaNum", align 8
  %ref.tmp3 = alloca %"class.std::__cxx11::basic_string", align 8
  %agg.tmp = alloca %"class.std::basic_string_view", align 8
  %exn.slot = alloca ptr, align 8
  %ehselector.slot = alloca i32, align 4
  %ref.tmp5 = alloca %"class.absl::lts_20230802::AlphaNum", align 8
  %ref.tmp12 = alloca %"class.std::__cxx11::basic_string", align 8
  %ref.tmp13 = alloca %"class.absl::lts_20230802::AlphaNum", align 8
  %ref.tmp24 = alloca %"class.std::__cxx11::basic_string", align 8
  %ref.tmp30 = alloca %"class.std::__cxx11::basic_string", align 8
  %ref.tmp36 = alloca %"class.std::__cxx11::basic_string", align 8
  %ref.tmp39 = alloca %"class.absl::lts_20230802::AlphaNum", align 8
  %ref.tmp40 = alloca %"class.absl::lts_20230802::AlphaNum", align 8
  %agg.tmp41 = alloca %"class.std::basic_string_view", align 8
  %ref.tmp43 = alloca %"class.absl::lts_20230802::AlphaNum", align 8
  %ref.tmp44 = alloca %"class.absl::lts_20230802::AlphaNum", align 8
  %ref.tmp45 = alloca %"class.std::__cxx11::basic_string", align 8
  %cleanup.cond = alloca i1, align 1
  %ref.tmp49 = alloca %"class.absl::lts_20230802::AlphaNum", align 8
  %ref.tmp51 = alloca %"class.absl::lts_20230802::AlphaNum", align 8
  %ref.tmp52 = alloca %"class.std::__cxx11::basic_string", align 8
  %cleanup.cond54 = alloca i1, align 1
  store ptr %descriptor, ptr %descriptor.addr, align 8
  store ptr %variables, ptr %variables.addr, align 8
  store ptr %options, ptr %options.addr, align 8
  call void @_ZN4absl12lts_202308028AlphaNumC2EPKc(ptr noundef nonnull align 8 dereferenceable(48) %ref.tmp1, ptr noundef @.str)
  %0 = load ptr, ptr %descriptor.addr, align 8
  %call = call noundef nonnull align 8 dereferenceable(32) ptr @_ZNK6google8protobuf15FieldDescriptor20default_value_stringB5cxx11Ev(ptr noundef nonnull align 8 dereferenceable(88) %0)
  %call4 = call { i64, ptr } @_ZNKSt7__cxx1112basic_stringIcSt11char_traitsIcESaIcEEcvSt17basic_string_viewIcS2_EEv(ptr noundef nonnull align 8 dereferenceable(32) %call) #3
  %1 = getelementptr inbounds { i64, ptr }, ptr %agg.tmp, i32 0, i32 0
  %2 = extractvalue { i64, ptr } %call4, 0
  store i64 %2, ptr %1, align 8
  %3 = getelementptr inbounds { i64, ptr }, ptr %agg.tmp, i32 0, i32 1
  %4 = extractvalue { i64, ptr } %call4, 1
  store ptr %4, ptr %3, align 8
  %5 = getelementptr inbounds { i64, ptr }, ptr %agg.tmp, i32 0, i32 0
  %6 = load i64, ptr %5, align 8
  %7 = getelementptr inbounds { i64, ptr }, ptr %agg.tmp, i32 0, i32 1
  %8 = load ptr, ptr %7, align 8
  call void @_ZN4absl12lts_202308027CEscapeB5cxx11ESt17basic_string_viewIcSt11char_traitsIcEE(ptr sret(%"class.std::__cxx11::basic_string") align 8 %ref.tmp3, i64 %6, ptr %8)
  invoke void @_ZN4absl12lts_202308028AlphaNumC2ISaIcEEERKNSt7__cxx1112basic_stringIcSt11char_traitsIcET_EE(ptr noundef nonnull align 8 dereferenceable(48) %ref.tmp2, ptr noundef nonnull align 8 dereferenceable(32) %ref.tmp3)
          to label %invoke.cont unwind label %lpad

invoke.cont:                                      ; preds = %entry
  invoke void @_ZN4absl12lts_202308028AlphaNumC2EPKc(ptr noundef nonnull align 8 dereferenceable(48) %ref.tmp5, ptr noundef @.str)
          to label %invoke.cont6 unwind label %lpad

invoke.cont6:                                     ; preds = %invoke.cont
  invoke void @_ZN4absl12lts_202308026StrCatB5cxx11ERKNS0_8AlphaNumES3_S3_(ptr sret(%"class.std::__cxx11::basic_string") align 8 %ref.tmp, ptr noundef nonnull align 8 dereferenceable(48) %ref.tmp1, ptr noundef nonnull align 8 dereferenceable(48) %ref.tmp2, ptr noundef nonnull align 8 dereferenceable(48) %ref.tmp5)
          to label %invoke.cont7 unwind label %lpad

invoke.cont7:                                     ; preds = %invoke.cont6
  %9 = load ptr, ptr %variables.addr, align 8
  %call10 = invoke noundef nonnull align 8 dereferenceable(32) ptr @_ZN4absl12lts_2023080218container_internal12raw_hash_mapINS1_17FlatHashMapPolicyISt17basic_string_viewIcSt11char_traitsIcEENSt7__cxx1112basic_stringIcS6_SaIcEEEEENS1_10StringHashENS1_8StringEqESaISt4pairIKS7_SB_EEEixIA8_cSC_EEDTclsrT0_5valueclL_ZSt9addressofISH_EPT_RSO_EclL_ZSt7declvalIRSH_EDTcl9__declvalISO_ELi0EEEvEEEEERKSO_(ptr noundef nonnull align 8 dereferenceable(32) %9, ptr noundef nonnull align 1 dereferenceable(8) @.str.1)
          to label %invoke.cont9 unwind label %lpad8

invoke.cont9:                                     ; preds = %invoke.cont7
  %call11 = call noundef nonnull align 8 dereferenceable(32) ptr @_ZNSt7__cxx1112basic_stringIcSt11char_traitsIcESaIcEEaSEOS4_(ptr noundef nonnull align 8 dereferenceable(32) %call10, ptr noundef nonnull align 8 dereferenceable(32) %ref.tmp) #3
  call void @_ZNSt7__cxx1112basic_stringIcSt11char_traitsIcESaIcEED1Ev(ptr noundef nonnull align 8 dereferenceable(32) %ref.tmp) #3
  call void @_ZNSt7__cxx1112basic_stringIcSt11char_traitsIcESaIcEED1Ev(ptr noundef nonnull align 8 dereferenceable(32) %ref.tmp3) #3
  %10 = load ptr, ptr %descriptor.addr, align 8
  %call14 = call noundef nonnull align 8 dereferenceable(32) ptr @_ZNK6google8protobuf15FieldDescriptor20default_value_stringB5cxx11Ev(ptr noundef nonnull align 8 dereferenceable(88) %10)
  %call15 = call noundef i64 @_ZNKSt7__cxx1112basic_stringIcSt11char_traitsIcESaIcEE6lengthEv(ptr noundef nonnull align 8 dereferenceable(32) %call14) #3
  call void @_ZN4absl12lts_202308028AlphaNumC2Em(ptr noundef nonnull align 8 dereferenceable(48) %ref.tmp13, i64 noundef %call15)
  call void @_ZN4absl12lts_202308026StrCatB5cxx11ERKNS0_8AlphaNumE(ptr sret(%"class.std::__cxx11::basic_string") align 8 %ref.tmp12, ptr noundef nonnull align 8 dereferenceable(48) %ref.tmp13)
  %11 = load ptr, ptr %variables.addr, align 8
  %call18 = invoke noundef nonnull align 8 dereferenceable(32) ptr @_ZN4absl12lts_2023080218container_internal12raw_hash_mapINS1_17FlatHashMapPolicyISt17basic_string_viewIcSt11char_traitsIcEENSt7__cxx1112basic_stringIcS6_SaIcEEEEENS1_10StringHashENS1_8StringEqESaISt4pairIKS7_SB_EEEixIA15_cSC_EEDTclsrT0_5valueclL_ZSt9addressofISH_EPT_RSO_EclL_ZSt7declvalIRSH_EDTcl9__declvalISO_ELi0EEEvEEEEERKSO_(ptr noundef nonnull align 8 dereferenceable(32) %11, ptr noundef nonnull align 1 dereferenceable(15) @.str.2)
          to label %invoke.cont17 unwind label %lpad16

invoke.cont17:                                    ; preds = %invoke.cont9
  %call19 = call noundef nonnull align 8 dereferenceable(32) ptr @_ZNSt7__cxx1112basic_stringIcSt11char_traitsIcESaIcEEaSEOS4_(ptr noundef nonnull align 8 dereferenceable(32) %call18, ptr noundef nonnull align 8 dereferenceable(32) %ref.tmp12) #3
  call void @_ZNSt7__cxx1112basic_stringIcSt11char_traitsIcESaIcEED1Ev(ptr noundef nonnull align 8 dereferenceable(32) %ref.tmp12) #3
  %12 = load ptr, ptr %descriptor.addr, align 8
  %call21 = call noundef nonnull align 8 dereferenceable(32) ptr @_ZNK6google8protobuf15FieldDescriptor9full_nameB5cxx11Ev(ptr noundef nonnull align 8 dereferenceable(88) %12)
  %13 = load ptr, ptr %variables.addr, align 8
  %call22 = call noundef nonnull align 8 dereferenceable(32) ptr @_ZN4absl12lts_2023080218container_internal12raw_hash_mapINS1_17FlatHashMapPolicyISt17basic_string_viewIcSt11char_traitsIcEENSt7__cxx1112basic_stringIcS6_SaIcEEEEENS1_10StringHashENS1_8StringEqESaISt4pairIKS7_SB_EEEixIA10_cSC_EEDTclsrT0_5valueclL_ZSt9addressofISH_EPT_RSO_EclL_ZSt7declvalIRSH_EDTcl9__declvalISO_ELi0EEEvEEEEERKSO_(ptr noundef nonnull align 8 dereferenceable(32) %13, ptr noundef nonnull align 1 dereferenceable(10) @.str.3)
  %call23 = call noundef nonnull align 8 dereferenceable(32) ptr @_ZNSt7__cxx1112basic_stringIcSt11char_traitsIcESaIcEEaSERKS4_(ptr noundef nonnull align 8 dereferenceable(32) %call22, ptr noundef nonnull align 8 dereferenceable(32) %call21)
  %14 = load ptr, ptr %descriptor.addr, align 8
  call void @_ZN6google8protobuf8compiler3cpp15MakeDefaultNameB5cxx11EPKNS0_15FieldDescriptorE(ptr sret(%"class.std::__cxx11::basic_string") align 8 %ref.tmp24, ptr noundef %14)
  %15 = load ptr, ptr %variables.addr, align 8
  %call27 = invoke noundef nonnull align 8 dereferenceable(32) ptr @_ZN4absl12lts_2023080218container_internal12raw_hash_mapINS1_17FlatHashMapPolicyISt17basic_string_viewIcSt11char_traitsIcEENSt7__cxx1112basic_stringIcS6_SaIcEEEEENS1_10StringHashENS1_8StringEqESaISt4pairIKS7_SB_EEEixIA22_cSC_EEDTclsrT0_5valueclL_ZSt9addressofISH_EPT_RSO_EclL_ZSt7declvalIRSH_EDTcl9__declvalISO_ELi0EEEvEEEEERKSO_(ptr noundef nonnull align 8 dereferenceable(32) %15, ptr noundef nonnull align 1 dereferenceable(22) @.str.4)
          to label %invoke.cont26 unwind label %lpad25

invoke.cont26:                                    ; preds = %invoke.cont17
  %call28 = call noundef nonnull align 8 dereferenceable(32) ptr @_ZNSt7__cxx1112basic_stringIcSt11char_traitsIcESaIcEEaSEOS4_(ptr noundef nonnull align 8 dereferenceable(32) %call27, ptr noundef nonnull align 8 dereferenceable(32) %ref.tmp24) #3
  call void @_ZNSt7__cxx1112basic_stringIcSt11char_traitsIcESaIcEED1Ev(ptr noundef nonnull align 8 dereferenceable(32) %ref.tmp24) #3
  %16 = load ptr, ptr %descriptor.addr, align 8
  call void @_ZN6google8protobuf8compiler3cpp20MakeDefaultFieldNameB5cxx11EPKNS0_15FieldDescriptorE(ptr sret(%"class.std::__cxx11::basic_string") align 8 %ref.tmp30, ptr noundef %16)
  %17 = load ptr, ptr %variables.addr, align 8
  %call33 = invoke noundef nonnull align 8 dereferenceable(32) ptr @_ZN4absl12lts_2023080218container_internal12raw_hash_mapINS1_17FlatHashMapPolicyISt17basic_string_viewIcSt11char_traitsIcEENSt7__cxx1112basic_stringIcS6_SaIcEEEEENS1_10StringHashENS1_8StringEqESaISt4pairIKS7_SB_EEEixIA23_cSC_EEDTclsrT0_5valueclL_ZSt9addressofISH_EPT_RSO_EclL_ZSt7declvalIRSH_EDTcl9__declvalISO_ELi0EEEvEEEEERKSO_(ptr noundef nonnull align 8 dereferenceable(32) %17, ptr noundef nonnull align 1 dereferenceable(23) @.str.5)
          to label %invoke.cont32 unwind label %lpad31

invoke.cont32:                                    ; preds = %invoke.cont26
  %call34 = call noundef nonnull align 8 dereferenceable(32) ptr @_ZNSt7__cxx1112basic_stringIcSt11char_traitsIcESaIcEEaSEOS4_(ptr noundef nonnull align 8 dereferenceable(32) %call33, ptr noundef nonnull align 8 dereferenceable(32) %ref.tmp30) #3
  call void @_ZNSt7__cxx1112basic_stringIcSt11char_traitsIcESaIcEED1Ev(ptr noundef nonnull align 8 dereferenceable(32) %ref.tmp30) #3
  %18 = load ptr, ptr %descriptor.addr, align 8
  %call37 = call noundef nonnull align 8 dereferenceable(32) ptr @_ZNK6google8protobuf15FieldDescriptor20default_value_stringB5cxx11Ev(ptr noundef nonnull align 8 dereferenceable(88) %18)
  %call38 = call noundef zeroext i1 @_ZNKSt7__cxx1112basic_stringIcSt11char_traitsIcESaIcEE5emptyEv(ptr noundef nonnull align 8 dereferenceable(32) %call37) #3
  store i1 false, ptr %cleanup.cond, align 1
  store i1 false, ptr %cleanup.cond54, align 1
  br i1 %call38, label %cond.true, label %cond.false

cond.true:                                        ; preds = %invoke.cont32
  call void @_ZN4absl12lts_202308028AlphaNumC2EPKc(ptr noundef nonnull align 8 dereferenceable(48) %ref.tmp39, ptr noundef @.str.6)
  %19 = load ptr, ptr %options.addr, align 8
  %call42 = call { i64, ptr } @_ZN6google8protobuf8compiler3cpp17ProtobufNamespaceERKNS2_7OptionsE(ptr noundef nonnull align 8 dereferenceable(206) %19)
  %20 = getelementptr inbounds { i64, ptr }, ptr %agg.tmp41, i32 0, i32 0
  %21 = extractvalue { i64, ptr } %call42, 0
  store i64 %21, ptr %20, align 8
  %22 = getelementptr inbounds { i64, ptr }, ptr %agg.tmp41, i32 0, i32 1
  %23 = extractvalue { i64, ptr } %call42, 1
  store ptr %23, ptr %22, align 8
  %24 = getelementptr inbounds { i64, ptr }, ptr %agg.tmp41, i32 0, i32 0
  %25 = load i64, ptr %24, align 8
  %26 = getelementptr inbounds { i64, ptr }, ptr %agg.tmp41, i32 0, i32 1
  %27 = load ptr, ptr %26, align 8
  call void @_ZN4absl12lts_202308028AlphaNumC2ESt17basic_string_viewIcSt11char_traitsIcEE(ptr noundef nonnull align 8 dereferenceable(48) %ref.tmp40, i64 %25, ptr %27)
  call void @_ZN4absl12lts_202308028AlphaNumC2EPKc(ptr noundef nonnull align 8 dereferenceable(48) %ref.tmp43, ptr noundef @.str.7)
  call void @_ZN4absl12lts_202308026StrCatB5cxx11ERKNS0_8AlphaNumES3_S3_(ptr sret(%"class.std::__cxx11::basic_string") align 8 %ref.tmp36, ptr noundef nonnull align 8 dereferenceable(48) %ref.tmp39, ptr noundef nonnull align 8 dereferenceable(48) %ref.tmp40, ptr noundef nonnull align 8 dereferenceable(48) %ref.tmp43)
  br label %cond.end

cond.false:                                       ; preds = %invoke.cont32
  %28 = load ptr, ptr %descriptor.addr, align 8
  %call46 = call noundef ptr @_ZNK6google8protobuf15FieldDescriptor15containing_typeEv(ptr noundef nonnull align 8 dereferenceable(88) %28)
  %29 = load ptr, ptr %options.addr, align 8
  call void @_ZN6google8protobuf8compiler3cpp18QualifiedClassNameB5cxx11EPKNS0_10DescriptorERKNS2_7OptionsE(ptr sret(%"class.std::__cxx11::basic_string") align 8 %ref.tmp45, ptr noundef %call46, ptr noundef nonnull align 8 dereferenceable(206) %29)
  store i1 true, ptr %cleanup.cond, align 1
  invoke void @_ZN4absl12lts_202308028AlphaNumC2ISaIcEEERKNSt7__cxx1112basic_stringIcSt11char_traitsIcET_EE(ptr noundef nonnull align 8 dereferenceable(48) %ref.tmp44, ptr noundef nonnull align 8 dereferenceable(32) %ref.tmp45)
          to label %invoke.cont48 unwind label %lpad47

invoke.cont48:                                    ; preds = %cond.false
  invoke void @_ZN4absl12lts_202308028AlphaNumC2EPKc(ptr noundef nonnull align 8 dereferenceable(48) %ref.tmp49, ptr noundef @.str.6)
          to label %invoke.cont50 unwind label %lpad47

invoke.cont50:                                    ; preds = %invoke.cont48
  %30 = load ptr, ptr %descriptor.addr, align 8
  invoke void @_ZN6google8protobuf8compiler3cpp20MakeDefaultFieldNameB5cxx11EPKNS0_15FieldDescriptorE(ptr sret(%"class.std::__cxx11::basic_string") align 8 %ref.tmp52, ptr noundef %30)
          to label %invoke.cont53 unwind label %lpad47

invoke.cont53:                                    ; preds = %invoke.cont50
  store i1 true, ptr %cleanup.cond54, align 1
  invoke void @_ZN4absl12lts_202308028AlphaNumC2ISaIcEEERKNSt7__cxx1112basic_stringIcSt11char_traitsIcET_EE(ptr noundef nonnull align 8 dereferenceable(48) %ref.tmp51, ptr noundef nonnull align 8 dereferenceable(32) %ref.tmp52)
          to label %invoke.cont56 unwind label %lpad55

invoke.cont56:                                    ; preds = %invoke.cont53
  invoke void @_ZN4absl12lts_202308026StrCatB5cxx11ERKNS0_8AlphaNumES3_S3_(ptr sret(%"class.std::__cxx11::basic_string") align 8 %ref.tmp36, ptr noundef nonnull align 8 dereferenceable(48) %ref.tmp44, ptr noundef nonnull align 8 dereferenceable(48) %ref.tmp49, ptr noundef nonnull align 8 dereferenceable(48) %ref.tmp51)
          to label %invoke.cont57 unwind label %lpad55

invoke.cont57:                                    ; preds = %invoke.cont56
  br label %cond.end

cond.end:                                         ; preds = %invoke.cont57, %cond.true
  %31 = load ptr, ptr %variables.addr, align 8
  %call60 = invoke noundef nonnull align 8 dereferenceable(32) ptr @_ZN4absl12lts_2023080218container_internal12raw_hash_mapINS1_17FlatHashMapPolicyISt17basic_string_viewIcSt11char_traitsIcEENSt7__cxx1112basic_stringIcS6_SaIcEEEEENS1_10StringHashENS1_8StringEqESaISt4pairIKS7_SB_EEEixIA17_cSC_EEDTclsrT0_5valueclL_ZSt9addressofISH_EPT_RSO_EclL_ZSt7declvalIRSH_EDTcl9__declvalISO_ELi0EEEvEEEEERKSO_(ptr noundef nonnull align 8 dereferenceable(32) %31, ptr noundef nonnull align 1 dereferenceable(17) @.str.8)
          to label %invoke.cont59 unwind label %lpad58

invoke.cont59:                                    ; preds = %cond.end
  %call61 = call noundef nonnull align 8 dereferenceable(32) ptr @_ZNSt7__cxx1112basic_stringIcSt11char_traitsIcESaIcEEaSEOS4_(ptr noundef nonnull align 8 dereferenceable(32) %call60, ptr noundef nonnull align 8 dereferenceable(32) %ref.tmp36) #3
  call void @_ZNSt7__cxx1112basic_stringIcSt11char_traitsIcESaIcEED1Ev(ptr noundef nonnull align 8 dereferenceable(32) %ref.tmp36) #3
  %cleanup.is_active = load i1, ptr %cleanup.cond54, align 1
  br i1 %cleanup.is_active, label %cleanup.action, label %cleanup.done

cleanup.action:                                   ; preds = %invoke.cont59
  call void @_ZNSt7__cxx1112basic_stringIcSt11char_traitsIcESaIcEED1Ev(ptr noundef nonnull align 8 dereferenceable(32) %ref.tmp52) #3
  br label %cleanup.done

cleanup.done:                                     ; preds = %cleanup.action, %invoke.cont59
  %cleanup.is_active67 = load i1, ptr %cleanup.cond, align 1
  br i1 %cleanup.is_active67, label %cleanup.action68, label %cleanup.done69

cleanup.action68:                                 ; preds = %cleanup.done
  call void @_ZNSt7__cxx1112basic_stringIcSt11char_traitsIcESaIcEED1Ev(ptr noundef nonnull align 8 dereferenceable(32) %ref.tmp45) #3
  br label %cleanup.done69

cleanup.done69:                                   ; preds = %cleanup.action68, %cleanup.done
  ret void

lpad:                                             ; preds = %invoke.cont6, %invoke.cont, %entry
  %32 = landingpad { ptr, i32 }
          cleanup
  %33 = extractvalue { ptr, i32 } %32, 0
  store ptr %33, ptr %exn.slot, align 8
  %34 = extractvalue { ptr, i32 } %32, 1
  store i32 %34, ptr %ehselector.slot, align 4
  br label %ehcleanup

lpad8:                                            ; preds = %invoke.cont7
  %35 = landingpad { ptr, i32 }
          cleanup
  %36 = extractvalue { ptr, i32 } %35, 0
  store ptr %36, ptr %exn.slot, align 8
  %37 = extractvalue { ptr, i32 } %35, 1
  store i32 %37, ptr %ehselector.slot, align 4
  call void @_ZNSt7__cxx1112basic_stringIcSt11char_traitsIcESaIcEED1Ev(ptr noundef nonnull align 8 dereferenceable(32) %ref.tmp) #3
  br label %ehcleanup

ehcleanup:                                        ; preds = %lpad8, %lpad
  call void @_ZNSt7__cxx1112basic_stringIcSt11char_traitsIcESaIcEED1Ev(ptr noundef nonnull align 8 dereferenceable(32) %ref.tmp3) #3
  br label %eh.resume

lpad16:                                           ; preds = %invoke.cont9
  %38 = landingpad { ptr, i32 }
          cleanup
  %39 = extractvalue { ptr, i32 } %38, 0
  store ptr %39, ptr %exn.slot, align 8
  %40 = extractvalue { ptr, i32 } %38, 1
  store i32 %40, ptr %ehselector.slot, align 4
  call void @_ZNSt7__cxx1112basic_stringIcSt11char_traitsIcESaIcEED1Ev(ptr noundef nonnull align 8 dereferenceable(32) %ref.tmp12) #3
  br label %eh.resume

lpad25:                                           ; preds = %invoke.cont17
  %41 = landingpad { ptr, i32 }
          cleanup
  %42 = extractvalue { ptr, i32 } %41, 0
  store ptr %42, ptr %exn.slot, align 8
  %43 = extractvalue { ptr, i32 } %41, 1
  store i32 %43, ptr %ehselector.slot, align 4
  call void @_ZNSt7__cxx1112basic_stringIcSt11char_traitsIcESaIcEED1Ev(ptr noundef nonnull align 8 dereferenceable(32) %ref.tmp24) #3
  br label %eh.resume

lpad31:                                           ; preds = %invoke.cont26
  %44 = landingpad { ptr, i32 }
          cleanup
  %45 = extractvalue { ptr, i32 } %44, 0
  store ptr %45, ptr %exn.slot, align 8
  %46 = extractvalue { ptr, i32 } %44, 1
  store i32 %46, ptr %ehselector.slot, align 4
  call void @_ZNSt7__cxx1112basic_stringIcSt11char_traitsIcESaIcEED1Ev(ptr noundef nonnull align 8 dereferenceable(32) %ref.tmp30) #3
  br label %eh.resume

lpad47:                                           ; preds = %invoke.cont50, %invoke.cont48, %cond.false
  %47 = landingpad { ptr, i32 }
          cleanup
  %48 = extractvalue { ptr, i32 } %47, 0
  store ptr %48, ptr %exn.slot, align 8
  %49 = extractvalue { ptr, i32 } %47, 1
  store i32 %49, ptr %ehselector.slot, align 4
  br label %ehcleanup70

lpad55:                                           ; preds = %invoke.cont56, %invoke.cont53
  %50 = landingpad { ptr, i32 }
          cleanup
  %51 = extractvalue { ptr, i32 } %50, 0
  store ptr %51, ptr %exn.slot, align 8
  %52 = extractvalue { ptr, i32 } %50, 1
  store i32 %52, ptr %ehselector.slot, align 4
  br label %ehcleanup63

lpad58:                                           ; preds = %cond.end
  %53 = landingpad { ptr, i32 }
          cleanup
  %54 = extractvalue { ptr, i32 } %53, 0
  store ptr %54, ptr %exn.slot, align 8
  %55 = extractvalue { ptr, i32 } %53, 1
  store i32 %55, ptr %ehselector.slot, align 4
  call void @_ZNSt7__cxx1112basic_stringIcSt11char_traitsIcESaIcEED1Ev(ptr noundef nonnull align 8 dereferenceable(32) %ref.tmp36) #3
  br label %ehcleanup63

ehcleanup63:                                      ; preds = %lpad58, %lpad55
  %cleanup.is_active64 = load i1, ptr %cleanup.cond54, align 1
  br i1 %cleanup.is_active64, label %cleanup.action65, label %cleanup.done66

cleanup.action65:                                 ; preds = %ehcleanup63
  call void @_ZNSt7__cxx1112basic_stringIcSt11char_traitsIcESaIcEED1Ev(ptr noundef nonnull align 8 dereferenceable(32) %ref.tmp52) #3
  br label %cleanup.done66

cleanup.done66:                                   ; preds = %cleanup.action65, %ehcleanup63
  br label %ehcleanup70

ehcleanup70:                                      ; preds = %cleanup.done66, %lpad47
  %cleanup.is_active71 = load i1, ptr %cleanup.cond, align 1
  br i1 %cleanup.is_active71, label %cleanup.action72, label %cleanup.done73

cleanup.action72:                                 ; preds = %ehcleanup70
  call void @_ZNSt7__cxx1112basic_stringIcSt11char_traitsIcESaIcEED1Ev(ptr noundef nonnull align 8 dereferenceable(32) %ref.tmp45) #3
  br label %cleanup.done73

cleanup.done73:                                   ; preds = %cleanup.action72, %ehcleanup70
  br label %eh.resume

eh.resume:                                        ; preds = %cleanup.done73, %lpad31, %lpad25, %lpad16, %ehcleanup
  %exn = load ptr, ptr %exn.slot, align 8
  %sel = load i32, ptr %ehselector.slot, align 4
  %lpad.val = insertvalue { ptr, i32 } poison, ptr %exn, 0
  %lpad.val74 = insertvalue { ptr, i32 } %lpad.val, i32 %sel, 1
  resume { ptr, i32 } %lpad.val74
}

; Function Attrs: mustprogress nounwind uwtable
define linkonce_odr hidden void @_ZN6google8protobuf8compiler3cpp18FieldGeneratorBaseD2Ev(ptr noundef nonnull align 8 dereferenceable(85) %this) unnamed_addr #5 comdat align 2 {
entry:
  %this.addr = alloca ptr, align 8
  store ptr %this, ptr %this.addr, align 8
  %this1 = load ptr, ptr %this.addr, align 8
  store ptr getelementptr inbounds ({ [31 x ptr] }, ptr @_ZTVN6google8protobuf8compiler3cpp18FieldGeneratorBaseE, i32 0, inrange i32 0, i32 2), ptr %this1, align 8
  %variables_ = getelementptr inbounds %"class.google::protobuf::compiler::cpp::FieldGeneratorBase", ptr %this1, i32 0, i32 4
  call void @_ZN4absl12lts_2023080213flat_hash_mapISt17basic_string_viewIcSt11char_traitsIcEENSt7__cxx1112basic_stringIcS4_SaIcEEENS0_18container_internal10StringHashENSA_8StringEqESaISt4pairIKS5_S9_EEED2Ev(ptr noundef nonnull align 8 dereferenceable(32) %variables_) #3
  ret void
}

; Function Attrs: mustprogress nounwind uwtable
define internal void @_ZN6google8protobuf8compiler3cpp12_GLOBAL__N_118CordFieldGeneratorD2Ev(ptr noundef nonnull align 8 dereferenceable(85) %this) unnamed_addr #5 align 2 {
entry:
  %this.addr = alloca ptr, align 8
  store ptr %this, ptr %this.addr, align 8
  %this1 = load ptr, ptr %this.addr, align 8
  call void @_ZN6google8protobuf8compiler3cpp18FieldGeneratorBaseD2Ev(ptr noundef nonnull align 8 dereferenceable(85) %this1) #3
  ret void
}

; Function Attrs: mustprogress nounwind uwtable
define internal void @_ZN6google8protobuf8compiler3cpp12_GLOBAL__N_118CordFieldGeneratorD0Ev(ptr noundef nonnull align 8 dereferenceable(85) %this) unnamed_addr #5 align 2 {
entry:
  %this.addr = alloca ptr, align 8
  store ptr %this, ptr %this.addr, align 8
  %this1 = load ptr, ptr %this.addr, align 8
  call void @_ZN6google8protobuf8compiler3cpp12_GLOBAL__N_118CordFieldGeneratorD2Ev(ptr noundef nonnull align 8 dereferenceable(85) %this1) #3
  call void @_ZdlPv(ptr noundef %this1) #20
  ret void
}

; Function Attrs: mustprogress nounwind uwtable
define linkonce_odr hidden noundef zeroext i1 @_ZNK6google8protobuf8compiler3cpp18FieldGeneratorBase13RequiresArenaENS3_17GeneratorFunctionE(ptr noundef nonnull align 8 dereferenceable(85) %this, i32 noundef %0) unnamed_addr #5 comdat align 2 {
entry:
  %this.addr = alloca ptr, align 8
  %.addr = alloca i32, align 4
  store ptr %this, ptr %this.addr, align 8
  store i32 %0, ptr %.addr, align 4
  ret i1 false
}

; Function Attrs: mustprogress nounwind uwtable
define linkonce_odr hidden void @_ZNK6google8protobuf8compiler3cpp18FieldGeneratorBase8MakeVarsEv(ptr noalias sret(%"class.std::vector") align 8 %agg.result, ptr noundef nonnull align 8 dereferenceable(85) %this) unnamed_addr #5 comdat align 2 {
entry:
  %result.ptr = alloca ptr, align 8
  %this.addr = alloca ptr, align 8
  store ptr %agg.result, ptr %result.ptr, align 8
  store ptr %this, ptr %this.addr, align 8
  call void @llvm.memset.p0.i64(ptr align 8 %agg.result, i8 0, i64 24, i1 false)
  call void @_ZNSt6vectorIN6google8protobuf2io7Printer3SubESaIS4_EEC2Ev(ptr noundef nonnull align 8 dereferenceable(24) %agg.result) #3
  ret void
}

; Function Attrs: mustprogress uwtable
define internal void @_ZNK6google8protobuf8compiler3cpp12_GLOBAL__N_118CordFieldGenerator22GeneratePrivateMembersEPNS0_2io7PrinterE(ptr noundef nonnull align 8 dereferenceable(85) %this, ptr noundef %printer) unnamed_addr #4 align 2 personality ptr @__gxx_personality_v0 {
entry:
  %this.addr = alloca ptr, align 8
  %printer.addr = alloca ptr, align 8
  %format = alloca %"class.google::protobuf::compiler::cpp::Formatter", align 8
  %exn.slot = alloca ptr, align 8
  %ehselector.slot = alloca i32, align 4
  store ptr %this, ptr %this.addr, align 8
  store ptr %printer, ptr %printer.addr, align 8
  %this1 = load ptr, ptr %this.addr, align 8
  %0 = load ptr, ptr %printer.addr, align 8
  %variables_ = getelementptr inbounds %"class.google::protobuf::compiler::cpp::FieldGeneratorBase", ptr %this1, i32 0, i32 4
  call void @_ZN6google8protobuf8compiler3cpp9FormatterC2EPNS0_2io7PrinterERKN4absl12lts_2023080213flat_hash_mapISt17basic_string_viewIcSt11char_traitsIcEENSt7__cxx1112basic_stringIcSC_SaIcEEENS8_18container_internal10StringHashENSI_8StringEqESaISt4pairIKSD_SH_EEEE(ptr noundef nonnull align 8 dereferenceable(40) %format, ptr noundef %0, ptr noundef nonnull align 8 dereferenceable(32) %variables_)
  invoke void @_ZNK6google8protobuf8compiler3cpp9FormatterclIJEEEvPKcDpRKT_(ptr noundef nonnull align 8 dereferenceable(40) %format, ptr noundef @.str.15)
          to label %invoke.cont unwind label %lpad

invoke.cont:                                      ; preds = %entry
  %descriptor_ = getelementptr inbounds %"class.google::protobuf::compiler::cpp::FieldGeneratorBase", ptr %this1, i32 0, i32 1
  %1 = load ptr, ptr %descriptor_, align 8
  %call = call noundef nonnull align 8 dereferenceable(32) ptr @_ZNK6google8protobuf15FieldDescriptor20default_value_stringB5cxx11Ev(ptr noundef nonnull align 8 dereferenceable(88) %1)
  %call2 = call noundef zeroext i1 @_ZNKSt7__cxx1112basic_stringIcSt11char_traitsIcESaIcEE5emptyEv(ptr noundef nonnull align 8 dereferenceable(32) %call) #3
  br i1 %call2, label %if.end, label %if.then

if.then:                                          ; preds = %invoke.cont
  invoke void @_ZNK6google8protobuf8compiler3cpp9FormatterclIJEEEvPKcDpRKT_(ptr noundef nonnull align 8 dereferenceable(40) %format, ptr noundef @.str.16)
          to label %invoke.cont3 unwind label %lpad

invoke.cont3:                                     ; preds = %if.then
  br label %if.end

lpad:                                             ; preds = %if.then, %entry
  %2 = landingpad { ptr, i32 }
          cleanup
  %3 = extractvalue { ptr, i32 } %2, 0
  store ptr %3, ptr %exn.slot, align 8
  %4 = extractvalue { ptr, i32 } %2, 1
  store i32 %4, ptr %ehselector.slot, align 4
  call void @_ZN6google8protobuf8compiler3cpp9FormatterD2Ev(ptr noundef nonnull align 8 dereferenceable(40) %format) #3
  br label %eh.resume

if.end:                                           ; preds = %invoke.cont3, %invoke.cont
  call void @_ZN6google8protobuf8compiler3cpp9FormatterD2Ev(ptr noundef nonnull align 8 dereferenceable(40) %format) #3
  ret void

eh.resume:                                        ; preds = %lpad
  %exn = load ptr, ptr %exn.slot, align 8
  %sel = load i32, ptr %ehselector.slot, align 4
  %lpad.val = insertvalue { ptr, i32 } poison, ptr %exn, 0
  %lpad.val4 = insertvalue { ptr, i32 } %lpad.val, i32 %sel, 1
  resume { ptr, i32 } %lpad.val4
}

; Function Attrs: mustprogress nounwind uwtable
define linkonce_odr hidden void @_ZNK6google8protobuf8compiler3cpp18FieldGeneratorBase21GenerateStaticMembersEPNS0_2io7PrinterE(ptr noundef nonnull align 8 dereferenceable(85) %this, ptr noundef %p) unnamed_addr #5 comdat align 2 {
entry:
  %this.addr = alloca ptr, align 8
  %p.addr = alloca ptr, align 8
  store ptr %this, ptr %this.addr, align 8
  store ptr %p, ptr %p.addr, align 8
  ret void
}

; Function Attrs: mustprogress uwtable
define internal void @_ZNK6google8protobuf8compiler3cpp12_GLOBAL__N_118CordFieldGenerator28GenerateAccessorDeclarationsEPNS0_2io7PrinterE(ptr noundef nonnull align 8 dereferenceable(85) %this, ptr noundef %printer) unnamed_addr #4 align 2 personality ptr @__gxx_personality_v0 {
entry:
  %this.addr = alloca ptr, align 8
  %printer.addr = alloca ptr, align 8
  %format = alloca %"class.google::protobuf::compiler::cpp::Formatter", align 8
  %exn.slot = alloca ptr, align 8
  %ehselector.slot = alloca i32, align 4
  %ref.tmp = alloca %"class.std::tuple.146", align 8
  store ptr %this, ptr %this.addr, align 8
  store ptr %printer, ptr %printer.addr, align 8
  %this1 = load ptr, ptr %this.addr, align 8
  %0 = load ptr, ptr %printer.addr, align 8
  %variables_ = getelementptr inbounds %"class.google::protobuf::compiler::cpp::FieldGeneratorBase", ptr %this1, i32 0, i32 4
  call void @_ZN6google8protobuf8compiler3cpp9FormatterC2EPNS0_2io7PrinterERKN4absl12lts_2023080213flat_hash_mapISt17basic_string_viewIcSt11char_traitsIcEENSt7__cxx1112basic_stringIcSC_SaIcEEENS8_18container_internal10StringHashENSI_8StringEqESaISt4pairIKSD_SH_EEEE(ptr noundef nonnull align 8 dereferenceable(40) %format, ptr noundef %0, ptr noundef nonnull align 8 dereferenceable(32) %variables_)
  %descriptor_ = getelementptr inbounds %"class.google::protobuf::compiler::cpp::FieldGeneratorBase", ptr %this1, i32 0, i32 1
  invoke void @_ZNK6google8protobuf8compiler3cpp9FormatterclIJPKNS0_15FieldDescriptorEEEEvPKcDpRKT_(ptr noundef nonnull align 8 dereferenceable(40) %format, ptr noundef @.str.21, ptr noundef nonnull align 8 dereferenceable(8) %descriptor_)
          to label %invoke.cont unwind label %lpad

invoke.cont:                                      ; preds = %entry
  %descriptor_2 = getelementptr inbounds %"class.google::protobuf::compiler::cpp::FieldGeneratorBase", ptr %this1, i32 0, i32 1
  invoke void @_ZSt10make_tupleIJRKPKN6google8protobuf15FieldDescriptorERKNS1_37GeneratedCodeInfo_Annotation_SemanticEEESt5tupleIJDpNSt25__strip_reference_wrapperINSt5decayIT_E4typeEE6__typeEEEDpOSD_(ptr sret(%"class.std::tuple.146") align 8 %ref.tmp, ptr noundef nonnull align 8 dereferenceable(8) %descriptor_2, ptr noundef nonnull align 4 dereferenceable(4) @_ZN6google8protobuf28GeneratedCodeInfo_Annotation3SETE)
          to label %invoke.cont3 unwind label %lpad

invoke.cont3:                                     ; preds = %invoke.cont
  invoke void @_ZNK6google8protobuf8compiler3cpp9FormatterclIJSt5tupleIJPKNS0_15FieldDescriptorENS0_37GeneratedCodeInfo_Annotation_SemanticEEEEEEvPKcDpRKT_(ptr noundef nonnull align 8 dereferenceable(40) %format, ptr noundef @.str.22, ptr noundef nonnull align 8 dereferenceable(16) %ref.tmp)
          to label %invoke.cont4 unwind label %lpad

invoke.cont4:                                     ; preds = %invoke.cont3
  %descriptor_5 = getelementptr inbounds %"class.google::protobuf::compiler::cpp::FieldGeneratorBase", ptr %this1, i32 0, i32 1
  invoke void @_ZNK6google8protobuf8compiler3cpp9FormatterclIJPKNS0_15FieldDescriptorEEEEvPKcDpRKT_(ptr noundef nonnull align 8 dereferenceable(40) %format, ptr noundef @.str.23, ptr noundef nonnull align 8 dereferenceable(8) %descriptor_5)
          to label %invoke.cont6 unwind label %lpad

invoke.cont6:                                     ; preds = %invoke.cont4
  call void @_ZN6google8protobuf8compiler3cpp9FormatterD2Ev(ptr noundef nonnull align 8 dereferenceable(40) %format) #3
  ret void

lpad:                                             ; preds = %invoke.cont4, %invoke.cont3, %invoke.cont, %entry
  %1 = landingpad { ptr, i32 }
          cleanup
  %2 = extractvalue { ptr, i32 } %1, 0
  store ptr %2, ptr %exn.slot, align 8
  %3 = extractvalue { ptr, i32 } %1, 1
  store i32 %3, ptr %ehselector.slot, align 4
  call void @_ZN6google8protobuf8compiler3cpp9FormatterD2Ev(ptr noundef nonnull align 8 dereferenceable(40) %format) #3
  br label %eh.resume

eh.resume:                                        ; preds = %lpad
  %exn = load ptr, ptr %exn.slot, align 8
  %sel = load i32, ptr %ehselector.slot, align 4
  %lpad.val = insertvalue { ptr, i32 } poison, ptr %exn, 0
  %lpad.val7 = insertvalue { ptr, i32 } %lpad.val, i32 %sel, 1
  resume { ptr, i32 } %lpad.val7
}

; Function Attrs: mustprogress uwtable
define internal void @_ZNK6google8protobuf8compiler3cpp12_GLOBAL__N_118CordFieldGenerator33GenerateInlineAccessorDefinitionsEPNS0_2io7PrinterE(ptr noundef nonnull align 8 dereferenceable(85) %this, ptr noundef %printer) unnamed_addr #4 align 2 personality ptr @__gxx_personality_v0 {
entry:
  %this.addr = alloca ptr, align 8
  %printer.addr = alloca ptr, align 8
  %v = alloca %"class.absl::lts_20230802::Cleanup.179", align 8
  %agg.tmp = alloca %"class.std::basic_string_view", align 8
  %exn.slot = alloca ptr, align 8
  %ehselector.slot = alloca i32, align 4
  %agg.tmp4 = alloca %"class.std::basic_string_view", align 8
  %agg.tmp9 = alloca %"class.std::basic_string_view", align 8
  %agg.tmp14 = alloca %"class.std::basic_string_view", align 8
  %agg.tmp19 = alloca %"class.std::basic_string_view", align 8
  %agg.tmp24 = alloca %"class.std::basic_string_view", align 8
  store ptr %this, ptr %this.addr, align 8
  store ptr %printer, ptr %printer.addr, align 8
  %this1 = load ptr, ptr %this.addr, align 8
  %0 = load ptr, ptr %printer.addr, align 8
  %variables_ = getelementptr inbounds %"class.google::protobuf::compiler::cpp::FieldGeneratorBase", ptr %this1, i32 0, i32 4
  call void @_ZN6google8protobuf2io7Printer8WithVarsIRKN4absl12lts_2023080213flat_hash_mapISt17basic_string_viewIcSt11char_traitsIcEENSt7__cxx1112basic_stringIcS9_SaIcEEENS5_18container_internal10StringHashENSF_8StringEqESaISt4pairIKSA_SE_EEEEvvEEDaOT_(ptr sret(%"class.absl::lts_20230802::Cleanup.179") align 8 %v, ptr noundef nonnull align 8 dereferenceable(256) %0, ptr noundef nonnull align 8 dereferenceable(32) %variables_)
  %1 = load ptr, ptr %printer.addr, align 8
  call void @_ZNSt17basic_string_viewIcSt11char_traitsIcEEC2EPKc(ptr noundef nonnull align 8 dereferenceable(16) %agg.tmp, ptr noundef @.str.28) #3
  invoke void @_ZN6google8protobuf2io7Printer14SourceLocation7currentEv()
          to label %invoke.cont unwind label %lpad

invoke.cont:                                      ; preds = %entry
  %2 = getelementptr inbounds { i64, ptr }, ptr %agg.tmp, i32 0, i32 0
  %3 = load i64, ptr %2, align 8
  %4 = getelementptr inbounds { i64, ptr }, ptr %agg.tmp, i32 0, i32 1
  %5 = load ptr, ptr %4, align 8
  invoke void @_ZN6google8protobuf2io7Printer4EmitESt17basic_string_viewIcSt11char_traitsIcEENS2_14SourceLocationE(ptr noundef nonnull align 8 dereferenceable(256) %1, i64 %3, ptr %5)
          to label %invoke.cont3 unwind label %lpad

invoke.cont3:                                     ; preds = %invoke.cont
  %6 = load ptr, ptr %printer.addr, align 8
  call void @_ZNSt17basic_string_viewIcSt11char_traitsIcEEC2EPKc(ptr noundef nonnull align 8 dereferenceable(16) %agg.tmp4, ptr noundef @.str.29) #3
  invoke void @_ZN6google8protobuf2io7Printer14SourceLocation7currentEv()
          to label %invoke.cont6 unwind label %lpad

invoke.cont6:                                     ; preds = %invoke.cont3
  %7 = getelementptr inbounds { i64, ptr }, ptr %agg.tmp4, i32 0, i32 0
  %8 = load i64, ptr %7, align 8
  %9 = getelementptr inbounds { i64, ptr }, ptr %agg.tmp4, i32 0, i32 1
  %10 = load ptr, ptr %9, align 8
  invoke void @_ZN6google8protobuf2io7Printer4EmitESt17basic_string_viewIcSt11char_traitsIcEENS2_14SourceLocationE(ptr noundef nonnull align 8 dereferenceable(256) %6, i64 %8, ptr %10)
          to label %invoke.cont8 unwind label %lpad

invoke.cont8:                                     ; preds = %invoke.cont6
  %11 = load ptr, ptr %printer.addr, align 8
  call void @_ZNSt17basic_string_viewIcSt11char_traitsIcEEC2EPKc(ptr noundef nonnull align 8 dereferenceable(16) %agg.tmp9, ptr noundef @.str.30) #3
  invoke void @_ZN6google8protobuf2io7Printer14SourceLocation7currentEv()
          to label %invoke.cont11 unwind label %lpad

invoke.cont11:                                    ; preds = %invoke.cont8
  %12 = getelementptr inbounds { i64, ptr }, ptr %agg.tmp9, i32 0, i32 0
  %13 = load i64, ptr %12, align 8
  %14 = getelementptr inbounds { i64, ptr }, ptr %agg.tmp9, i32 0, i32 1
  %15 = load ptr, ptr %14, align 8
  invoke void @_ZN6google8protobuf2io7Printer4EmitESt17basic_string_viewIcSt11char_traitsIcEENS2_14SourceLocationE(ptr noundef nonnull align 8 dereferenceable(256) %11, i64 %13, ptr %15)
          to label %invoke.cont13 unwind label %lpad

invoke.cont13:                                    ; preds = %invoke.cont11
  %16 = load ptr, ptr %printer.addr, align 8
  call void @_ZNSt17basic_string_viewIcSt11char_traitsIcEEC2EPKc(ptr noundef nonnull align 8 dereferenceable(16) %agg.tmp14, ptr noundef @.str.31) #3
  invoke void @_ZN6google8protobuf2io7Printer14SourceLocation7currentEv()
          to label %invoke.cont16 unwind label %lpad

invoke.cont16:                                    ; preds = %invoke.cont13
  %17 = getelementptr inbounds { i64, ptr }, ptr %agg.tmp14, i32 0, i32 0
  %18 = load i64, ptr %17, align 8
  %19 = getelementptr inbounds { i64, ptr }, ptr %agg.tmp14, i32 0, i32 1
  %20 = load ptr, ptr %19, align 8
  invoke void @_ZN6google8protobuf2io7Printer4EmitESt17basic_string_viewIcSt11char_traitsIcEENS2_14SourceLocationE(ptr noundef nonnull align 8 dereferenceable(256) %16, i64 %18, ptr %20)
          to label %invoke.cont18 unwind label %lpad

invoke.cont18:                                    ; preds = %invoke.cont16
  %21 = load ptr, ptr %printer.addr, align 8
  call void @_ZNSt17basic_string_viewIcSt11char_traitsIcEEC2EPKc(ptr noundef nonnull align 8 dereferenceable(16) %agg.tmp19, ptr noundef @.str.32) #3
  invoke void @_ZN6google8protobuf2io7Printer14SourceLocation7currentEv()
          to label %invoke.cont21 unwind label %lpad

invoke.cont21:                                    ; preds = %invoke.cont18
  %22 = getelementptr inbounds { i64, ptr }, ptr %agg.tmp19, i32 0, i32 0
  %23 = load i64, ptr %22, align 8
  %24 = getelementptr inbounds { i64, ptr }, ptr %agg.tmp19, i32 0, i32 1
  %25 = load ptr, ptr %24, align 8
  invoke void @_ZN6google8protobuf2io7Printer4EmitESt17basic_string_viewIcSt11char_traitsIcEENS2_14SourceLocationE(ptr noundef nonnull align 8 dereferenceable(256) %21, i64 %23, ptr %25)
          to label %invoke.cont23 unwind label %lpad

invoke.cont23:                                    ; preds = %invoke.cont21
  %26 = load ptr, ptr %printer.addr, align 8
  call void @_ZNSt17basic_string_viewIcSt11char_traitsIcEEC2EPKc(ptr noundef nonnull align 8 dereferenceable(16) %agg.tmp24, ptr noundef @.str.33) #3
  invoke void @_ZN6google8protobuf2io7Printer14SourceLocation7currentEv()
          to label %invoke.cont26 unwind label %lpad

invoke.cont26:                                    ; preds = %invoke.cont23
  %27 = getelementptr inbounds { i64, ptr }, ptr %agg.tmp24, i32 0, i32 0
  %28 = load i64, ptr %27, align 8
  %29 = getelementptr inbounds { i64, ptr }, ptr %agg.tmp24, i32 0, i32 1
  %30 = load ptr, ptr %29, align 8
  invoke void @_ZN6google8protobuf2io7Printer4EmitESt17basic_string_viewIcSt11char_traitsIcEENS2_14SourceLocationE(ptr noundef nonnull align 8 dereferenceable(256) %26, i64 %28, ptr %30)
          to label %invoke.cont28 unwind label %lpad

invoke.cont28:                                    ; preds = %invoke.cont26
  call void @_ZN4absl12lts_202308027CleanupINS0_16cleanup_internal3TagEZN6google8protobuf2io7Printer8WithVarsIRKNS0_13flat_hash_mapISt17basic_string_viewIcSt11char_traitsIcEENSt7__cxx1112basic_stringIcSC_SaIcEEENS0_18container_internal10StringHashENSI_8StringEqESaISt4pairIKSD_SH_EEEEvvEEDaOT_EUlvE_ED2Ev(ptr noundef nonnull align 8 dereferenceable(16) %v) #3
  ret void

lpad:                                             ; preds = %invoke.cont26, %invoke.cont23, %invoke.cont21, %invoke.cont18, %invoke.cont16, %invoke.cont13, %invoke.cont11, %invoke.cont8, %invoke.cont6, %invoke.cont3, %invoke.cont, %entry
  %31 = landingpad { ptr, i32 }
          cleanup
  %32 = extractvalue { ptr, i32 } %31, 0
  store ptr %32, ptr %exn.slot, align 8
  %33 = extractvalue { ptr, i32 } %31, 1
  store i32 %33, ptr %ehselector.slot, align 4
  call void @_ZN4absl12lts_202308027CleanupINS0_16cleanup_internal3TagEZN6google8protobuf2io7Printer8WithVarsIRKNS0_13flat_hash_mapISt17basic_string_viewIcSt11char_traitsIcEENSt7__cxx1112basic_stringIcSC_SaIcEEENS0_18container_internal10StringHashENSI_8StringEqESaISt4pairIKSD_SH_EEEEvvEEDaOT_EUlvE_ED2Ev(ptr noundef nonnull align 8 dereferenceable(16) %v) #3
  br label %eh.resume

eh.resume:                                        ; preds = %lpad
  %exn = load ptr, ptr %exn.slot, align 8
  %sel = load i32, ptr %ehselector.slot, align 4
  %lpad.val = insertvalue { ptr, i32 } poison, ptr %exn, 0
  %lpad.val29 = insertvalue { ptr, i32 } %lpad.val, i32 %sel, 1
  resume { ptr, i32 } %lpad.val29
}

; Function Attrs: mustprogress nounwind uwtable
define linkonce_odr hidden void @_ZNK6google8protobuf8compiler3cpp18FieldGeneratorBase36GenerateNonInlineAccessorDefinitionsEPNS0_2io7PrinterE(ptr noundef nonnull align 8 dereferenceable(85) %this, ptr noundef %p) unnamed_addr #5 comdat align 2 {
entry:
  %this.addr = alloca ptr, align 8
  %p.addr = alloca ptr, align 8
  store ptr %this, ptr %this.addr, align 8
  store ptr %p, ptr %p.addr, align 8
  ret void
}

; Function Attrs: mustprogress uwtable
define internal void @_ZNK6google8protobuf8compiler3cpp12_GLOBAL__N_118CordFieldGenerator20GenerateClearingCodeEPNS0_2io7PrinterE(ptr noundef nonnull align 8 dereferenceable(85) %this, ptr noundef %printer) unnamed_addr #4 align 2 personality ptr @__gxx_personality_v0 {
entry:
  %this.addr = alloca ptr, align 8
  %printer.addr = alloca ptr, align 8
  %format = alloca %"class.google::protobuf::compiler::cpp::Formatter", align 8
  %exn.slot = alloca ptr, align 8
  %ehselector.slot = alloca i32, align 4
  store ptr %this, ptr %this.addr, align 8
  store ptr %printer, ptr %printer.addr, align 8
  %this1 = load ptr, ptr %this.addr, align 8
  %0 = load ptr, ptr %printer.addr, align 8
  %variables_ = getelementptr inbounds %"class.google::protobuf::compiler::cpp::FieldGeneratorBase", ptr %this1, i32 0, i32 4
  call void @_ZN6google8protobuf8compiler3cpp9FormatterC2EPNS0_2io7PrinterERKN4absl12lts_2023080213flat_hash_mapISt17basic_string_viewIcSt11char_traitsIcEENSt7__cxx1112basic_stringIcSC_SaIcEEENS8_18container_internal10StringHashENSI_8StringEqESaISt4pairIKSD_SH_EEEE(ptr noundef nonnull align 8 dereferenceable(40) %format, ptr noundef %0, ptr noundef nonnull align 8 dereferenceable(32) %variables_)
  %descriptor_ = getelementptr inbounds %"class.google::protobuf::compiler::cpp::FieldGeneratorBase", ptr %this1, i32 0, i32 1
  %1 = load ptr, ptr %descriptor_, align 8
  %call = call noundef nonnull align 8 dereferenceable(32) ptr @_ZNK6google8protobuf15FieldDescriptor20default_value_stringB5cxx11Ev(ptr noundef nonnull align 8 dereferenceable(88) %1)
  %call2 = call noundef zeroext i1 @_ZNKSt7__cxx1112basic_stringIcSt11char_traitsIcESaIcEE5emptyEv(ptr noundef nonnull align 8 dereferenceable(32) %call) #3
  br i1 %call2, label %if.then, label %if.else

if.then:                                          ; preds = %entry
  invoke void @_ZNK6google8protobuf8compiler3cpp9FormatterclIJEEEvPKcDpRKT_(ptr noundef nonnull align 8 dereferenceable(40) %format, ptr noundef @.str.34)
          to label %invoke.cont unwind label %lpad

invoke.cont:                                      ; preds = %if.then
  br label %if.end

lpad:                                             ; preds = %if.else, %if.then
  %2 = landingpad { ptr, i32 }
          cleanup
  %3 = extractvalue { ptr, i32 } %2, 0
  store ptr %3, ptr %exn.slot, align 8
  %4 = extractvalue { ptr, i32 } %2, 1
  store i32 %4, ptr %ehselector.slot, align 4
  call void @_ZN6google8protobuf8compiler3cpp9FormatterD2Ev(ptr noundef nonnull align 8 dereferenceable(40) %format) #3
  br label %eh.resume

if.else:                                          ; preds = %entry
  invoke void @_ZNK6google8protobuf8compiler3cpp9FormatterclIJEEEvPKcDpRKT_(ptr noundef nonnull align 8 dereferenceable(40) %format, ptr noundef @.str.35)
          to label %invoke.cont3 unwind label %lpad

invoke.cont3:                                     ; preds = %if.else
  br label %if.end

if.end:                                           ; preds = %invoke.cont3, %invoke.cont
  call void @_ZN6google8protobuf8compiler3cpp9FormatterD2Ev(ptr noundef nonnull align 8 dereferenceable(40) %format) #3
  ret void

eh.resume:                                        ; preds = %lpad
  %exn = load ptr, ptr %exn.slot, align 8
  %sel = load i32, ptr %ehselector.slot, align 4
  %lpad.val = insertvalue { ptr, i32 } poison, ptr %exn, 0
  %lpad.val4 = insertvalue { ptr, i32 } %lpad.val, i32 %sel, 1
  resume { ptr, i32 } %lpad.val4
}

; Function Attrs: mustprogress uwtable
define linkonce_odr hidden void @_ZNK6google8protobuf8compiler3cpp18FieldGeneratorBase27GenerateMessageClearingCodeEPNS0_2io7PrinterE(ptr noundef nonnull align 8 dereferenceable(85) %this, ptr noundef %p) unnamed_addr #4 comdat align 2 {
entry:
  %this.addr = alloca ptr, align 8
  %p.addr = alloca ptr, align 8
  store ptr %this, ptr %this.addr, align 8
  store ptr %p, ptr %p.addr, align 8
  %this1 = load ptr, ptr %this.addr, align 8
  %0 = load ptr, ptr %p.addr, align 8
  %vtable = load ptr, ptr %this1, align 8
  %vfn = getelementptr inbounds ptr, ptr %vtable, i64 9
  %1 = load ptr, ptr %vfn, align 8
  call void %1(ptr noundef nonnull align 8 dereferenceable(85) %this1, ptr noundef %0)
  ret void
}

; Function Attrs: mustprogress uwtable
define internal void @_ZNK6google8protobuf8compiler3cpp12_GLOBAL__N_118CordFieldGenerator19GenerateMergingCodeEPNS0_2io7PrinterE(ptr noundef nonnull align 8 dereferenceable(85) %this, ptr noundef %printer) unnamed_addr #4 align 2 personality ptr @__gxx_personality_v0 {
entry:
  %this.addr = alloca ptr, align 8
  %printer.addr = alloca ptr, align 8
  %format = alloca %"class.google::protobuf::compiler::cpp::Formatter", align 8
  %exn.slot = alloca ptr, align 8
  %ehselector.slot = alloca i32, align 4
  store ptr %this, ptr %this.addr, align 8
  store ptr %printer, ptr %printer.addr, align 8
  %this1 = load ptr, ptr %this.addr, align 8
  %0 = load ptr, ptr %printer.addr, align 8
  %variables_ = getelementptr inbounds %"class.google::protobuf::compiler::cpp::FieldGeneratorBase", ptr %this1, i32 0, i32 4
  call void @_ZN6google8protobuf8compiler3cpp9FormatterC2EPNS0_2io7PrinterERKN4absl12lts_2023080213flat_hash_mapISt17basic_string_viewIcSt11char_traitsIcEENSt7__cxx1112basic_stringIcSC_SaIcEEENS8_18container_internal10StringHashENSI_8StringEqESaISt4pairIKSD_SH_EEEE(ptr noundef nonnull align 8 dereferenceable(40) %format, ptr noundef %0, ptr noundef nonnull align 8 dereferenceable(32) %variables_)
  invoke void @_ZNK6google8protobuf8compiler3cpp9FormatterclIJEEEvPKcDpRKT_(ptr noundef nonnull align 8 dereferenceable(40) %format, ptr noundef @.str.36)
          to label %invoke.cont unwind label %lpad

invoke.cont:                                      ; preds = %entry
  call void @_ZN6google8protobuf8compiler3cpp9FormatterD2Ev(ptr noundef nonnull align 8 dereferenceable(40) %format) #3
  ret void

lpad:                                             ; preds = %entry
  %1 = landingpad { ptr, i32 }
          cleanup
  %2 = extractvalue { ptr, i32 } %1, 0
  store ptr %2, ptr %exn.slot, align 8
  %3 = extractvalue { ptr, i32 } %1, 1
  store i32 %3, ptr %ehselector.slot, align 4
  call void @_ZN6google8protobuf8compiler3cpp9FormatterD2Ev(ptr noundef nonnull align 8 dereferenceable(40) %format) #3
  br label %eh.resume

eh.resume:                                        ; preds = %lpad
  %exn = load ptr, ptr %exn.slot, align 8
  %sel = load i32, ptr %ehselector.slot, align 4
  %lpad.val = insertvalue { ptr, i32 } poison, ptr %exn, 0
  %lpad.val2 = insertvalue { ptr, i32 } %lpad.val, i32 %sel, 1
  resume { ptr, i32 } %lpad.val2
}

declare void @_ZNK6google8protobuf8compiler3cpp18FieldGeneratorBase27GenerateCopyConstructorCodeEPNS0_2io7PrinterE(ptr noundef nonnull align 8 dereferenceable(85), ptr noundef) unnamed_addr #1

; Function Attrs: mustprogress uwtable
define internal void @_ZNK6google8protobuf8compiler3cpp12_GLOBAL__N_118CordFieldGenerator20GenerateSwappingCodeEPNS0_2io7PrinterE(ptr noundef nonnull align 8 dereferenceable(85) %this, ptr noundef %printer) unnamed_addr #4 align 2 personality ptr @__gxx_personality_v0 {
entry:
  %this.addr = alloca ptr, align 8
  %printer.addr = alloca ptr, align 8
  %format = alloca %"class.google::protobuf::compiler::cpp::Formatter", align 8
  %exn.slot = alloca ptr, align 8
  %ehselector.slot = alloca i32, align 4
  store ptr %this, ptr %this.addr, align 8
  store ptr %printer, ptr %printer.addr, align 8
  %this1 = load ptr, ptr %this.addr, align 8
  %0 = load ptr, ptr %printer.addr, align 8
  %variables_ = getelementptr inbounds %"class.google::protobuf::compiler::cpp::FieldGeneratorBase", ptr %this1, i32 0, i32 4
  call void @_ZN6google8protobuf8compiler3cpp9FormatterC2EPNS0_2io7PrinterERKN4absl12lts_2023080213flat_hash_mapISt17basic_string_viewIcSt11char_traitsIcEENSt7__cxx1112basic_stringIcSC_SaIcEEENS8_18container_internal10StringHashENSI_8StringEqESaISt4pairIKSD_SH_EEEE(ptr noundef nonnull align 8 dereferenceable(40) %format, ptr noundef %0, ptr noundef nonnull align 8 dereferenceable(32) %variables_)
  invoke void @_ZNK6google8protobuf8compiler3cpp9FormatterclIJEEEvPKcDpRKT_(ptr noundef nonnull align 8 dereferenceable(40) %format, ptr noundef @.str.37)
          to label %invoke.cont unwind label %lpad

invoke.cont:                                      ; preds = %entry
  call void @_ZN6google8protobuf8compiler3cpp9FormatterD2Ev(ptr noundef nonnull align 8 dereferenceable(40) %format) #3
  ret void

lpad:                                             ; preds = %entry
  %1 = landingpad { ptr, i32 }
          cleanup
  %2 = extractvalue { ptr, i32 } %1, 0
  store ptr %2, ptr %exn.slot, align 8
  %3 = extractvalue { ptr, i32 } %1, 1
  store i32 %3, ptr %ehselector.slot, align 4
  call void @_ZN6google8protobuf8compiler3cpp9FormatterD2Ev(ptr noundef nonnull align 8 dereferenceable(40) %format) #3
  br label %eh.resume

eh.resume:                                        ; preds = %lpad
  %exn = load ptr, ptr %exn.slot, align 8
  %sel = load i32, ptr %ehselector.slot, align 4
  %lpad.val = insertvalue { ptr, i32 } poison, ptr %exn, 0
  %lpad.val2 = insertvalue { ptr, i32 } %lpad.val, i32 %sel, 1
  resume { ptr, i32 } %lpad.val2
}

; Function Attrs: mustprogress uwtable
define internal void @_ZNK6google8protobuf8compiler3cpp12_GLOBAL__N_118CordFieldGenerator23GenerateConstructorCodeEPNS0_2io7PrinterE(ptr noundef nonnull align 8 dereferenceable(85) %this, ptr noundef %printer) unnamed_addr #4 align 2 personality ptr @__gxx_personality_v0 {
entry:
  %this.addr = alloca ptr, align 8
  %printer.addr = alloca ptr, align 8
  %ref.tmp = alloca %"class.absl::lts_20230802::log_internal::Voidify", align 1
  %ref.tmp3 = alloca %"class.absl::lts_20230802::log_internal::LogMessageFatal", align 8
  %agg.tmp = alloca %"class.std::basic_string_view", align 8
  %cleanup.cond = alloca i1, align 1
  %exn.slot = alloca ptr, align 8
  %ehselector.slot = alloca i32, align 4
  %format = alloca %"class.google::protobuf::compiler::cpp::Formatter", align 8
  store ptr %this, ptr %this.addr, align 8
  store ptr %printer, ptr %printer.addr, align 8
  %this1 = load ptr, ptr %this.addr, align 8
  %call = call noundef zeroext i1 @_ZNK6google8protobuf8compiler3cpp18FieldGeneratorBase12should_splitEv(ptr noundef nonnull align 8 dereferenceable(85) %this1)
  %lnot = xor i1 %call, true
  %lnot2 = xor i1 %lnot, true
  store i1 false, ptr %cleanup.cond, align 1
  br i1 %lnot2, label %cond.false, label %cond.true

cond.true:                                        ; preds = %entry
  br label %cond.end

cond.false:                                       ; preds = %entry
  call void @_ZNSt17basic_string_viewIcSt11char_traitsIcEEC2EPKc(ptr noundef nonnull align 8 dereferenceable(16) %agg.tmp, ptr noundef @.str.39) #3
  %0 = getelementptr inbounds { i64, ptr }, ptr %agg.tmp, i32 0, i32 0
  %1 = load i64, ptr %0, align 8
  %2 = getelementptr inbounds { i64, ptr }, ptr %agg.tmp, i32 0, i32 1
  %3 = load ptr, ptr %2, align 8
  call void @_ZN4absl12lts_2023080212log_internal15LogMessageFatalC1EPKciSt17basic_string_viewIcSt11char_traitsIcEE(ptr noundef nonnull align 8 dereferenceable(16) %ref.tmp3, ptr noundef @.str.38, i32 noundef 239, i64 %1, ptr %3) #22
  store i1 true, ptr %cleanup.cond, align 1
  %call4 = call noundef nonnull align 8 dereferenceable(16) ptr @_ZN4absl12lts_2023080212log_internal10LogMessage14InternalStreamEv(ptr noundef nonnull align 8 dereferenceable(16) %ref.tmp3)
  invoke void @_ZNKO4absl12lts_2023080212log_internal7VoidifyaaINS1_10LogMessageEEEvRKT_(ptr noundef nonnull align 1 dereferenceable(1) %ref.tmp, ptr noundef nonnull align 8 dereferenceable(16) %call4)
          to label %invoke.cont unwind label %lpad

invoke.cont:                                      ; preds = %cond.false
  br label %cond.end

cond.end:                                         ; preds = %invoke.cont, %cond.true
  %cleanup.is_active = load i1, ptr %cleanup.cond, align 1
  br i1 %cleanup.is_active, label %cleanup.action, label %cleanup.done

cleanup.action:                                   ; preds = %cond.end
  call void @_ZN4absl12lts_2023080212log_internal15LogMessageFatalD1Ev(ptr noundef nonnull align 8 dereferenceable(16) %ref.tmp3) #21
  unreachable

lpad:                                             ; preds = %cond.false
  %4 = landingpad { ptr, i32 }
          cleanup
  %5 = extractvalue { ptr, i32 } %4, 0
  store ptr %5, ptr %exn.slot, align 8
  %6 = extractvalue { ptr, i32 } %4, 1
  store i32 %6, ptr %ehselector.slot, align 4
  %cleanup.is_active5 = load i1, ptr %cleanup.cond, align 1
  br i1 %cleanup.is_active5, label %cleanup.action6, label %cleanup.done7

7:                                                ; No predecessors!
  br label %cleanup.done

cleanup.done:                                     ; preds = %7, %cond.end
  %8 = load ptr, ptr %printer.addr, align 8
  %variables_ = getelementptr inbounds %"class.google::protobuf::compiler::cpp::FieldGeneratorBase", ptr %this1, i32 0, i32 4
  call void @_ZN6google8protobuf8compiler3cpp9FormatterC2EPNS0_2io7PrinterERKN4absl12lts_2023080213flat_hash_mapISt17basic_string_viewIcSt11char_traitsIcEENSt7__cxx1112basic_stringIcSC_SaIcEEENS8_18container_internal10StringHashENSI_8StringEqESaISt4pairIKSD_SH_EEEE(ptr noundef nonnull align 8 dereferenceable(40) %format, ptr noundef %8, ptr noundef nonnull align 8 dereferenceable(32) %variables_)
  %descriptor_ = getelementptr inbounds %"class.google::protobuf::compiler::cpp::FieldGeneratorBase", ptr %this1, i32 0, i32 1
  %9 = load ptr, ptr %descriptor_, align 8
  %call8 = call noundef nonnull align 8 dereferenceable(32) ptr @_ZNK6google8protobuf15FieldDescriptor20default_value_stringB5cxx11Ev(ptr noundef nonnull align 8 dereferenceable(88) %9)
  %call9 = call noundef zeroext i1 @_ZNKSt7__cxx1112basic_stringIcSt11char_traitsIcESaIcEE5emptyEv(ptr noundef nonnull align 8 dereferenceable(32) %call8) #3
  br i1 %call9, label %if.end, label %if.then

if.then:                                          ; preds = %cleanup.done
  invoke void @_ZNK6google8protobuf8compiler3cpp9FormatterclIJEEEvPKcDpRKT_(ptr noundef nonnull align 8 dereferenceable(40) %format, ptr noundef @.str.35)
          to label %invoke.cont11 unwind label %lpad10

invoke.cont11:                                    ; preds = %if.then
  br label %if.end

cleanup.action6:                                  ; preds = %lpad
  call void @_ZN4absl12lts_2023080212log_internal15LogMessageFatalD1Ev(ptr noundef nonnull align 8 dereferenceable(16) %ref.tmp3) #21
  unreachable

10:                                               ; No predecessors!
  br label %cleanup.done7

cleanup.done7:                                    ; preds = %10, %lpad
  br label %eh.resume

lpad10:                                           ; preds = %if.then
  %11 = landingpad { ptr, i32 }
          cleanup
  %12 = extractvalue { ptr, i32 } %11, 0
  store ptr %12, ptr %exn.slot, align 8
  %13 = extractvalue { ptr, i32 } %11, 1
  store i32 %13, ptr %ehselector.slot, align 4
  call void @_ZN6google8protobuf8compiler3cpp9FormatterD2Ev(ptr noundef nonnull align 8 dereferenceable(40) %format) #3
  br label %eh.resume

if.end:                                           ; preds = %invoke.cont11, %cleanup.done
  call void @_ZN6google8protobuf8compiler3cpp9FormatterD2Ev(ptr noundef nonnull align 8 dereferenceable(40) %format) #3
  ret void

eh.resume:                                        ; preds = %lpad10, %cleanup.done7
  %exn = load ptr, ptr %exn.slot, align 8
  %sel = load i32, ptr %ehselector.slot, align 4
  %lpad.val = insertvalue { ptr, i32 } poison, ptr %exn, 0
  %lpad.val12 = insertvalue { ptr, i32 } %lpad.val, i32 %sel, 1
  resume { ptr, i32 } %lpad.val12
}

; Function Attrs: mustprogress nounwind uwtable
define linkonce_odr hidden void @_ZNK6google8protobuf8compiler3cpp18FieldGeneratorBase22GenerateDestructorCodeEPNS0_2io7PrinterE(ptr noundef nonnull align 8 dereferenceable(85) %this, ptr noundef %p) unnamed_addr #5 comdat align 2 {
entry:
  %this.addr = alloca ptr, align 8
  %p.addr = alloca ptr, align 8
  store ptr %this, ptr %this.addr, align 8
  store ptr %p, ptr %p.addr, align 8
  ret void
}

; Function Attrs: mustprogress uwtable
define internal void @_ZNK6google8protobuf8compiler3cpp12_GLOBAL__N_118CordFieldGenerator27GenerateArenaDestructorCodeEPNS0_2io7PrinterE(ptr noundef nonnull align 8 dereferenceable(85) %this, ptr noundef %printer) unnamed_addr #4 align 2 personality ptr @__gxx_personality_v0 {
entry:
  %this.addr = alloca ptr, align 8
  %printer.addr = alloca ptr, align 8
  %format = alloca %"class.google::protobuf::compiler::cpp::Formatter", align 8
  %exn.slot = alloca ptr, align 8
  %ehselector.slot = alloca i32, align 4
  store ptr %this, ptr %this.addr, align 8
  store ptr %printer, ptr %printer.addr, align 8
  %this1 = load ptr, ptr %this.addr, align 8
  %0 = load ptr, ptr %printer.addr, align 8
  %variables_ = getelementptr inbounds %"class.google::protobuf::compiler::cpp::FieldGeneratorBase", ptr %this1, i32 0, i32 4
  call void @_ZN6google8protobuf8compiler3cpp9FormatterC2EPNS0_2io7PrinterERKN4absl12lts_2023080213flat_hash_mapISt17basic_string_viewIcSt11char_traitsIcEENSt7__cxx1112basic_stringIcSC_SaIcEEENS8_18container_internal10StringHashENSI_8StringEqESaISt4pairIKSD_SH_EEEE(ptr noundef nonnull align 8 dereferenceable(40) %format, ptr noundef %0, ptr noundef nonnull align 8 dereferenceable(32) %variables_)
  invoke void @_ZNK6google8protobuf8compiler3cpp9FormatterclIJEEEvPKcDpRKT_(ptr noundef nonnull align 8 dereferenceable(40) %format, ptr noundef @.str.40)
          to label %invoke.cont unwind label %lpad

invoke.cont:                                      ; preds = %entry
  call void @_ZN6google8protobuf8compiler3cpp9FormatterD2Ev(ptr noundef nonnull align 8 dereferenceable(40) %format) #3
  ret void

lpad:                                             ; preds = %entry
  %1 = landingpad { ptr, i32 }
          cleanup
  %2 = extractvalue { ptr, i32 } %1, 0
  store ptr %2, ptr %exn.slot, align 8
  %3 = extractvalue { ptr, i32 } %1, 1
  store i32 %3, ptr %ehselector.slot, align 4
  call void @_ZN6google8protobuf8compiler3cpp9FormatterD2Ev(ptr noundef nonnull align 8 dereferenceable(40) %format) #3
  br label %eh.resume

eh.resume:                                        ; preds = %lpad
  %exn = load ptr, ptr %exn.slot, align 8
  %sel = load i32, ptr %ehselector.slot, align 4
  %lpad.val = insertvalue { ptr, i32 } poison, ptr %exn, 0
  %lpad.val2 = insertvalue { ptr, i32 } %lpad.val, i32 %sel, 1
  resume { ptr, i32 } %lpad.val2
}

; Function Attrs: mustprogress uwtable
define internal void @_ZNK6google8protobuf8compiler3cpp12_GLOBAL__N_118CordFieldGenerator34GenerateMemberConstexprConstructorEPNS0_2io7PrinterE(ptr noundef nonnull align 8 dereferenceable(85) %this, ptr noundef %p) unnamed_addr #4 align 2 personality ptr @__gxx_personality_v0 {
entry:
  %this.addr = alloca ptr, align 8
  %p.addr = alloca ptr, align 8
  %agg.tmp = alloca %"class.std::basic_string_view", align 8
  %agg.tmp4 = alloca %"class.absl::lts_20230802::Span.184", align 8
  %agg.tmp5 = alloca %"class.std::initializer_list.185", align 8
  %ref.tmp = alloca [1 x %"class.google::protobuf::io::Printer::Sub"], align 8
  %arrayinit.endOfInit = alloca ptr, align 8
  %agg.tmp6 = alloca %"class.std::__cxx11::basic_string", align 8
  %ref.tmp7 = alloca %"class.std::allocator", align 1
  %exn.slot = alloca ptr, align 8
  %ehselector.slot = alloca i32, align 4
  %ref.tmp8 = alloca ptr, align 8
  %cleanup.isactive = alloca i1, align 1
  %agg.tmp14 = alloca %"class.std::basic_string_view", align 8
  store ptr %this, ptr %this.addr, align 8
  store ptr %p, ptr %p.addr, align 8
  %this1 = load ptr, ptr %this.addr, align 8
  %descriptor_ = getelementptr inbounds %"class.google::protobuf::compiler::cpp::FieldGeneratorBase", ptr %this1, i32 0, i32 1
  %0 = load ptr, ptr %descriptor_, align 8
  %call = call noundef nonnull align 8 dereferenceable(32) ptr @_ZNK6google8protobuf15FieldDescriptor20default_value_stringB5cxx11Ev(ptr noundef nonnull align 8 dereferenceable(88) %0)
  %call2 = call noundef zeroext i1 @_ZNKSt7__cxx1112basic_stringIcSt11char_traitsIcESaIcEE5emptyEv(ptr noundef nonnull align 8 dereferenceable(32) %call) #3
  br i1 %call2, label %if.then, label %if.else

if.then:                                          ; preds = %entry
  %1 = load ptr, ptr %p.addr, align 8
  call void @_ZNSt17basic_string_viewIcSt11char_traitsIcEEC2EPKc(ptr noundef nonnull align 8 dereferenceable(16) %agg.tmp, ptr noundef @.str.41) #3
  call void @_ZN6google8protobuf2io7Printer14SourceLocation7currentEv()
  %2 = getelementptr inbounds { i64, ptr }, ptr %agg.tmp, i32 0, i32 0
  %3 = load i64, ptr %2, align 8
  %4 = getelementptr inbounds { i64, ptr }, ptr %agg.tmp, i32 0, i32 1
  %5 = load ptr, ptr %4, align 8
  call void @_ZN6google8protobuf2io7Printer4EmitESt17basic_string_viewIcSt11char_traitsIcEENS2_14SourceLocationE(ptr noundef nonnull align 8 dereferenceable(256) %1, i64 %3, ptr %5)
  br label %if.end

if.else:                                          ; preds = %entry
  %6 = load ptr, ptr %p.addr, align 8
  %arrayinit.begin = getelementptr inbounds [1 x %"class.google::protobuf::io::Printer::Sub"], ptr %ref.tmp, i64 0, i64 0
  store i1 true, ptr %cleanup.isactive, align 1
  store ptr %arrayinit.begin, ptr %arrayinit.endOfInit, align 8
  call void @_ZNSaIcEC1Ev(ptr noundef nonnull align 1 dereferenceable(1) %ref.tmp7) #3
  invoke void @_ZNSt7__cxx1112basic_stringIcSt11char_traitsIcESaIcEEC2IS3_EEPKcRKS3_(ptr noundef nonnull align 8 dereferenceable(32) %agg.tmp6, ptr noundef @.str.42, ptr noundef nonnull align 1 dereferenceable(1) %ref.tmp7)
          to label %invoke.cont unwind label %lpad

invoke.cont:                                      ; preds = %if.else
  %descriptor_9 = getelementptr inbounds %"class.google::protobuf::compiler::cpp::FieldGeneratorBase", ptr %this1, i32 0, i32 1
  %7 = load ptr, ptr %descriptor_9, align 8
  %options_ = getelementptr inbounds %"class.google::protobuf::compiler::cpp::FieldGeneratorBase", ptr %this1, i32 0, i32 2
  %8 = load ptr, ptr %options_, align 8
  %call12 = invoke noundef zeroext i1 @_ZN6google8protobuf8compiler3cpp11ShouldSplitEPKNS0_15FieldDescriptorERKNS2_7OptionsE(ptr noundef %7, ptr noundef nonnull align 8 dereferenceable(206) %8)
          to label %invoke.cont11 unwind label %lpad10

invoke.cont11:                                    ; preds = %invoke.cont
  %cond = select i1 %call12, ptr @.str.43, ptr @.str.44
  store ptr %cond, ptr %ref.tmp8, align 8
  invoke void @_ZN6google8protobuf2io7Printer3SubC2IPKcEENSt7__cxx1112basic_stringIcSt11char_traitsIcESaIcEEEOT_(ptr noundef nonnull align 8 dereferenceable(184) %arrayinit.begin, ptr noundef %agg.tmp6, ptr noundef nonnull align 8 dereferenceable(8) %ref.tmp8)
          to label %invoke.cont13 unwind label %lpad10

invoke.cont13:                                    ; preds = %invoke.cont11
  store i1 false, ptr %cleanup.isactive, align 1
  %_M_array = getelementptr inbounds %"class.std::initializer_list.185", ptr %agg.tmp5, i32 0, i32 0
  %arraystart = getelementptr inbounds [1 x %"class.google::protobuf::io::Printer::Sub"], ptr %ref.tmp, i64 0, i64 0
  store ptr %arraystart, ptr %_M_array, align 8
  %_M_len = getelementptr inbounds %"class.std::initializer_list.185", ptr %agg.tmp5, i32 0, i32 1
  store i64 1, ptr %_M_len, align 8
  %9 = getelementptr inbounds { ptr, i64 }, ptr %agg.tmp5, i32 0, i32 0
  %10 = load ptr, ptr %9, align 8
  %11 = getelementptr inbounds { ptr, i64 }, ptr %agg.tmp5, i32 0, i32 1
  %12 = load i64, ptr %11, align 8
  call void @_ZN4absl12lts_202308024SpanIKN6google8protobuf2io7Printer3SubEEC2IS7_S7_EESt16initializer_listIS6_E(ptr noundef nonnull align 8 dereferenceable(16) %agg.tmp4, ptr %10, i64 %12) #3
  call void @_ZNSt17basic_string_viewIcSt11char_traitsIcEEC2EPKc(ptr noundef nonnull align 8 dereferenceable(16) %agg.tmp14, ptr noundef @.str.45) #3
  call void @_ZN6google8protobuf2io7Printer14SourceLocation7currentEv()
  %13 = getelementptr inbounds { ptr, i64 }, ptr %agg.tmp4, i32 0, i32 0
  %14 = load ptr, ptr %13, align 8
  %15 = getelementptr inbounds { ptr, i64 }, ptr %agg.tmp4, i32 0, i32 1
  %16 = load i64, ptr %15, align 8
  %17 = getelementptr inbounds { i64, ptr }, ptr %agg.tmp14, i32 0, i32 0
  %18 = load i64, ptr %17, align 8
  %19 = getelementptr inbounds { i64, ptr }, ptr %agg.tmp14, i32 0, i32 1
  %20 = load ptr, ptr %19, align 8
  invoke void @_ZN6google8protobuf2io7Printer4EmitEN4absl12lts_202308024SpanIKNS2_3SubEEESt17basic_string_viewIcSt11char_traitsIcEENS2_14SourceLocationE(ptr noundef nonnull align 8 dereferenceable(256) %6, ptr %14, i64 %16, i64 %18, ptr %20)
          to label %invoke.cont18 unwind label %lpad17

invoke.cont18:                                    ; preds = %invoke.cont13
  %array.begin = getelementptr inbounds [1 x %"class.google::protobuf::io::Printer::Sub"], ptr %ref.tmp, i32 0, i32 0
  %21 = getelementptr inbounds %"class.google::protobuf::io::Printer::Sub", ptr %array.begin, i64 1
  br label %arraydestroy.body

arraydestroy.body:                                ; preds = %arraydestroy.body, %invoke.cont18
  %arraydestroy.elementPast = phi ptr [ %21, %invoke.cont18 ], [ %arraydestroy.element, %arraydestroy.body ]
  %arraydestroy.element = getelementptr inbounds %"class.google::protobuf::io::Printer::Sub", ptr %arraydestroy.elementPast, i64 -1
  call void @_ZN6google8protobuf2io7Printer3SubD2Ev(ptr noundef nonnull align 8 dereferenceable(184) %arraydestroy.element) #3
  %arraydestroy.done = icmp eq ptr %arraydestroy.element, %array.begin
  br i1 %arraydestroy.done, label %arraydestroy.done19, label %arraydestroy.body

arraydestroy.done19:                              ; preds = %arraydestroy.body
  call void @_ZNSt7__cxx1112basic_stringIcSt11char_traitsIcESaIcEED1Ev(ptr noundef nonnull align 8 dereferenceable(32) %agg.tmp6) #3
  call void @_ZNSaIcED1Ev(ptr noundef nonnull align 1 dereferenceable(1) %ref.tmp7) #3
  br label %if.end

lpad:                                             ; preds = %if.else
  %22 = landingpad { ptr, i32 }
          cleanup
  %23 = extractvalue { ptr, i32 } %22, 0
  store ptr %23, ptr %exn.slot, align 8
  %24 = extractvalue { ptr, i32 } %22, 1
  store i32 %24, ptr %ehselector.slot, align 4
  br label %ehcleanup26

lpad10:                                           ; preds = %invoke.cont11, %invoke.cont
  %25 = landingpad { ptr, i32 }
          cleanup
  %26 = extractvalue { ptr, i32 } %25, 0
  store ptr %26, ptr %exn.slot, align 8
  %27 = extractvalue { ptr, i32 } %25, 1
  store i32 %27, ptr %ehselector.slot, align 4
  br label %ehcleanup

lpad17:                                           ; preds = %invoke.cont13
  %28 = landingpad { ptr, i32 }
          cleanup
  %29 = extractvalue { ptr, i32 } %28, 0
  store ptr %29, ptr %exn.slot, align 8
  %30 = extractvalue { ptr, i32 } %28, 1
  store i32 %30, ptr %ehselector.slot, align 4
  %array.begin20 = getelementptr inbounds [1 x %"class.google::protobuf::io::Printer::Sub"], ptr %ref.tmp, i32 0, i32 0
  %31 = getelementptr inbounds %"class.google::protobuf::io::Printer::Sub", ptr %array.begin20, i64 1
  br label %arraydestroy.body21

arraydestroy.body21:                              ; preds = %arraydestroy.body21, %lpad17
  %arraydestroy.elementPast22 = phi ptr [ %31, %lpad17 ], [ %arraydestroy.element23, %arraydestroy.body21 ]
  %arraydestroy.element23 = getelementptr inbounds %"class.google::protobuf::io::Printer::Sub", ptr %arraydestroy.elementPast22, i64 -1
  call void @_ZN6google8protobuf2io7Printer3SubD2Ev(ptr noundef nonnull align 8 dereferenceable(184) %arraydestroy.element23) #3
  %arraydestroy.done24 = icmp eq ptr %arraydestroy.element23, %array.begin20
  br i1 %arraydestroy.done24, label %arraydestroy.done25, label %arraydestroy.body21

arraydestroy.done25:                              ; preds = %arraydestroy.body21
  br label %ehcleanup

ehcleanup:                                        ; preds = %arraydestroy.done25, %lpad10
  call void @_ZNSt7__cxx1112basic_stringIcSt11char_traitsIcESaIcEED1Ev(ptr noundef nonnull align 8 dereferenceable(32) %agg.tmp6) #3
  br label %ehcleanup26

ehcleanup26:                                      ; preds = %ehcleanup, %lpad
  call void @_ZNSaIcED1Ev(ptr noundef nonnull align 1 dereferenceable(1) %ref.tmp7) #3
  %cleanup.is_active = load i1, ptr %cleanup.isactive, align 1
  br i1 %cleanup.is_active, label %cleanup.action, label %cleanup.done

cleanup.action:                                   ; preds = %ehcleanup26
  %32 = load ptr, ptr %arrayinit.endOfInit, align 8
  %arraydestroy.isempty = icmp eq ptr %arrayinit.begin, %32
  br i1 %arraydestroy.isempty, label %arraydestroy.done32, label %arraydestroy.body28

arraydestroy.body28:                              ; preds = %arraydestroy.body28, %cleanup.action
  %arraydestroy.elementPast29 = phi ptr [ %32, %cleanup.action ], [ %arraydestroy.element30, %arraydestroy.body28 ]
  %arraydestroy.element30 = getelementptr inbounds %"class.google::protobuf::io::Printer::Sub", ptr %arraydestroy.elementPast29, i64 -1
  call void @_ZN6google8protobuf2io7Printer3SubD2Ev(ptr noundef nonnull align 8 dereferenceable(184) %arraydestroy.element30) #3
  %arraydestroy.done31 = icmp eq ptr %arraydestroy.element30, %arrayinit.begin
  br i1 %arraydestroy.done31, label %arraydestroy.done32, label %arraydestroy.body28

arraydestroy.done32:                              ; preds = %arraydestroy.body28, %cleanup.action
  br label %cleanup.done

cleanup.done:                                     ; preds = %arraydestroy.done32, %ehcleanup26
  br label %eh.resume

if.end:                                           ; preds = %arraydestroy.done19, %if.then
  ret void

eh.resume:                                        ; preds = %cleanup.done
  %exn = load ptr, ptr %exn.slot, align 8
  %sel = load i32, ptr %ehselector.slot, align 4
  %lpad.val = insertvalue { ptr, i32 } poison, ptr %exn, 0
  %lpad.val33 = insertvalue { ptr, i32 } %lpad.val, i32 %sel, 1
  resume { ptr, i32 } %lpad.val33
}

; Function Attrs: mustprogress uwtable
define internal void @_ZNK6google8protobuf8compiler3cpp12_GLOBAL__N_118CordFieldGenerator25GenerateMemberConstructorEPNS0_2io7PrinterE(ptr noundef nonnull align 8 dereferenceable(85) %this, ptr noundef %p) unnamed_addr #4 align 2 personality ptr @__gxx_personality_v0 {
entry:
  %this.addr = alloca ptr, align 8
  %p.addr = alloca ptr, align 8
  %vars = alloca %"class.absl::lts_20230802::Cleanup.179", align 8
  %agg.tmp = alloca %"class.std::basic_string_view", align 8
  %exn.slot = alloca ptr, align 8
  %ehselector.slot = alloca i32, align 4
  %agg.tmp4 = alloca %"class.std::basic_string_view", align 8
  store ptr %this, ptr %this.addr, align 8
  store ptr %p, ptr %p.addr, align 8
  %this1 = load ptr, ptr %this.addr, align 8
  %0 = load ptr, ptr %p.addr, align 8
  %variables_ = getelementptr inbounds %"class.google::protobuf::compiler::cpp::FieldGeneratorBase", ptr %this1, i32 0, i32 4
  call void @_ZN6google8protobuf2io7Printer8WithVarsIRKN4absl12lts_2023080213flat_hash_mapISt17basic_string_viewIcSt11char_traitsIcEENSt7__cxx1112basic_stringIcS9_SaIcEEENS5_18container_internal10StringHashENSF_8StringEqESaISt4pairIKSA_SE_EEEEvvEEDaOT_(ptr sret(%"class.absl::lts_20230802::Cleanup.179") align 8 %vars, ptr noundef nonnull align 8 dereferenceable(256) %0, ptr noundef nonnull align 8 dereferenceable(32) %variables_)
  %descriptor_ = getelementptr inbounds %"class.google::protobuf::compiler::cpp::FieldGeneratorBase", ptr %this1, i32 0, i32 1
  %1 = load ptr, ptr %descriptor_, align 8
  %call = call noundef nonnull align 8 dereferenceable(32) ptr @_ZNK6google8protobuf15FieldDescriptor20default_value_stringB5cxx11Ev(ptr noundef nonnull align 8 dereferenceable(88) %1)
  %call2 = call noundef zeroext i1 @_ZNKSt7__cxx1112basic_stringIcSt11char_traitsIcESaIcEE5emptyEv(ptr noundef nonnull align 8 dereferenceable(32) %call) #3
  br i1 %call2, label %if.then, label %if.else

if.then:                                          ; preds = %entry
  %2 = load ptr, ptr %p.addr, align 8
  call void @_ZNSt17basic_string_viewIcSt11char_traitsIcEEC2EPKc(ptr noundef nonnull align 8 dereferenceable(16) %agg.tmp, ptr noundef @.str.41) #3
  call void @_ZN6google8protobuf2io7Printer14SourceLocation7currentEv()
  %3 = getelementptr inbounds { i64, ptr }, ptr %agg.tmp, i32 0, i32 0
  %4 = load i64, ptr %3, align 8
  %5 = getelementptr inbounds { i64, ptr }, ptr %agg.tmp, i32 0, i32 1
  %6 = load ptr, ptr %5, align 8
  invoke void @_ZN6google8protobuf2io7Printer4EmitESt17basic_string_viewIcSt11char_traitsIcEENS2_14SourceLocationE(ptr noundef nonnull align 8 dereferenceable(256) %2, i64 %4, ptr %6)
          to label %invoke.cont unwind label %lpad

invoke.cont:                                      ; preds = %if.then
  br label %if.end

lpad:                                             ; preds = %if.else, %if.then
  %7 = landingpad { ptr, i32 }
          cleanup
  %8 = extractvalue { ptr, i32 } %7, 0
  store ptr %8, ptr %exn.slot, align 8
  %9 = extractvalue { ptr, i32 } %7, 1
  store i32 %9, ptr %ehselector.slot, align 4
  call void @_ZN4absl12lts_202308027CleanupINS0_16cleanup_internal3TagEZN6google8protobuf2io7Printer8WithVarsIRKNS0_13flat_hash_mapISt17basic_string_viewIcSt11char_traitsIcEENSt7__cxx1112basic_stringIcSC_SaIcEEENS0_18container_internal10StringHashENSI_8StringEqESaISt4pairIKSD_SH_EEEEvvEEDaOT_EUlvE_ED2Ev(ptr noundef nonnull align 8 dereferenceable(16) %vars) #3
  br label %eh.resume

if.else:                                          ; preds = %entry
  %10 = load ptr, ptr %p.addr, align 8
  call void @_ZNSt17basic_string_viewIcSt11char_traitsIcEEC2EPKc(ptr noundef nonnull align 8 dereferenceable(16) %agg.tmp4, ptr noundef @.str.47) #3
  call void @_ZN6google8protobuf2io7Printer14SourceLocation7currentEv()
  %11 = getelementptr inbounds { i64, ptr }, ptr %agg.tmp4, i32 0, i32 0
  %12 = load i64, ptr %11, align 8
  %13 = getelementptr inbounds { i64, ptr }, ptr %agg.tmp4, i32 0, i32 1
  %14 = load ptr, ptr %13, align 8
  invoke void @_ZN6google8protobuf2io7Printer4EmitESt17basic_string_viewIcSt11char_traitsIcEENS2_14SourceLocationE(ptr noundef nonnull align 8 dereferenceable(256) %10, i64 %12, ptr %14)
          to label %invoke.cont7 unwind label %lpad

invoke.cont7:                                     ; preds = %if.else
  br label %if.end

if.end:                                           ; preds = %invoke.cont7, %invoke.cont
  call void @_ZN4absl12lts_202308027CleanupINS0_16cleanup_internal3TagEZN6google8protobuf2io7Printer8WithVarsIRKNS0_13flat_hash_mapISt17basic_string_viewIcSt11char_traitsIcEENSt7__cxx1112basic_stringIcSC_SaIcEEENS0_18container_internal10StringHashENSI_8StringEqESaISt4pairIKSD_SH_EEEEvvEEDaOT_EUlvE_ED2Ev(ptr noundef nonnull align 8 dereferenceable(16) %vars) #3
  ret void

eh.resume:                                        ; preds = %lpad
  %exn = load ptr, ptr %exn.slot, align 8
  %sel = load i32, ptr %ehselector.slot, align 4
  %lpad.val = insertvalue { ptr, i32 } poison, ptr %exn, 0
  %lpad.val8 = insertvalue { ptr, i32 } %lpad.val, i32 %sel, 1
  resume { ptr, i32 } %lpad.val8
}

; Function Attrs: mustprogress uwtable
define internal void @_ZNK6google8protobuf8compiler3cpp12_GLOBAL__N_118CordFieldGenerator29GenerateMemberCopyConstructorEPNS0_2io7PrinterE(ptr noundef nonnull align 8 dereferenceable(85) %this, ptr noundef %p) unnamed_addr #4 align 2 personality ptr @__gxx_personality_v0 {
entry:
  %this.addr = alloca ptr, align 8
  %p.addr = alloca ptr, align 8
  %vars = alloca %"class.absl::lts_20230802::Cleanup.179", align 8
  %agg.tmp = alloca %"class.std::basic_string_view", align 8
  %exn.slot = alloca ptr, align 8
  %ehselector.slot = alloca i32, align 4
  store ptr %this, ptr %this.addr, align 8
  store ptr %p, ptr %p.addr, align 8
  %this1 = load ptr, ptr %this.addr, align 8
  %0 = load ptr, ptr %p.addr, align 8
  %variables_ = getelementptr inbounds %"class.google::protobuf::compiler::cpp::FieldGeneratorBase", ptr %this1, i32 0, i32 4
  call void @_ZN6google8protobuf2io7Printer8WithVarsIRKN4absl12lts_2023080213flat_hash_mapISt17basic_string_viewIcSt11char_traitsIcEENSt7__cxx1112basic_stringIcS9_SaIcEEENS5_18container_internal10StringHashENSF_8StringEqESaISt4pairIKSA_SE_EEEEvvEEDaOT_(ptr sret(%"class.absl::lts_20230802::Cleanup.179") align 8 %vars, ptr noundef nonnull align 8 dereferenceable(256) %0, ptr noundef nonnull align 8 dereferenceable(32) %variables_)
  %1 = load ptr, ptr %p.addr, align 8
  call void @_ZNSt17basic_string_viewIcSt11char_traitsIcEEC2EPKc(ptr noundef nonnull align 8 dereferenceable(16) %agg.tmp, ptr noundef @.str.48) #3
  call void @_ZN6google8protobuf2io7Printer14SourceLocation7currentEv()
  %2 = getelementptr inbounds { i64, ptr }, ptr %agg.tmp, i32 0, i32 0
  %3 = load i64, ptr %2, align 8
  %4 = getelementptr inbounds { i64, ptr }, ptr %agg.tmp, i32 0, i32 1
  %5 = load ptr, ptr %4, align 8
  invoke void @_ZN6google8protobuf2io7Printer4EmitESt17basic_string_viewIcSt11char_traitsIcEENS2_14SourceLocationE(ptr noundef nonnull align 8 dereferenceable(256) %1, i64 %3, ptr %5)
          to label %invoke.cont unwind label %lpad

invoke.cont:                                      ; preds = %entry
  call void @_ZN4absl12lts_202308027CleanupINS0_16cleanup_internal3TagEZN6google8protobuf2io7Printer8WithVarsIRKNS0_13flat_hash_mapISt17basic_string_viewIcSt11char_traitsIcEENSt7__cxx1112basic_stringIcSC_SaIcEEENS0_18container_internal10StringHashENSI_8StringEqESaISt4pairIKSD_SH_EEEEvvEEDaOT_EUlvE_ED2Ev(ptr noundef nonnull align 8 dereferenceable(16) %vars) #3
  ret void

lpad:                                             ; preds = %entry
  %6 = landingpad { ptr, i32 }
          cleanup
  %7 = extractvalue { ptr, i32 } %6, 0
  store ptr %7, ptr %exn.slot, align 8
  %8 = extractvalue { ptr, i32 } %6, 1
  store i32 %8, ptr %ehselector.slot, align 4
  call void @_ZN4absl12lts_202308027CleanupINS0_16cleanup_internal3TagEZN6google8protobuf2io7Printer8WithVarsIRKNS0_13flat_hash_mapISt17basic_string_viewIcSt11char_traitsIcEENSt7__cxx1112basic_stringIcSC_SaIcEEENS0_18container_internal10StringHashENSI_8StringEqESaISt4pairIKSD_SH_EEEEvvEEDaOT_EUlvE_ED2Ev(ptr noundef nonnull align 8 dereferenceable(16) %vars) #3
  br label %eh.resume

eh.resume:                                        ; preds = %lpad
  %exn = load ptr, ptr %exn.slot, align 8
  %sel = load i32, ptr %ehselector.slot, align 4
  %lpad.val = insertvalue { ptr, i32 } poison, ptr %exn, 0
  %lpad.val3 = insertvalue { ptr, i32 } %lpad.val, i32 %sel, 1
  resume { ptr, i32 } %lpad.val3
}

; Function Attrs: mustprogress uwtable
define internal void @_ZNK6google8protobuf8compiler3cpp12_GLOBAL__N_118CordFieldGenerator26GenerateOneofCopyConstructEPNS0_2io7PrinterE(ptr noundef nonnull align 8 dereferenceable(85) %this, ptr noundef %p) unnamed_addr #4 align 2 personality ptr @__gxx_personality_v0 {
entry:
  %this.addr = alloca ptr, align 8
  %p.addr = alloca ptr, align 8
  %vars = alloca %"class.absl::lts_20230802::Cleanup.179", align 8
  %agg.tmp = alloca %"class.std::basic_string_view", align 8
  %exn.slot = alloca ptr, align 8
  %ehselector.slot = alloca i32, align 4
  store ptr %this, ptr %this.addr, align 8
  store ptr %p, ptr %p.addr, align 8
  %this1 = load ptr, ptr %this.addr, align 8
  %0 = load ptr, ptr %p.addr, align 8
  %variables_ = getelementptr inbounds %"class.google::protobuf::compiler::cpp::FieldGeneratorBase", ptr %this1, i32 0, i32 4
  call void @_ZN6google8protobuf2io7Printer8WithVarsIRKN4absl12lts_2023080213flat_hash_mapISt17basic_string_viewIcSt11char_traitsIcEENSt7__cxx1112basic_stringIcS9_SaIcEEENS5_18container_internal10StringHashENSF_8StringEqESaISt4pairIKSA_SE_EEEEvvEEDaOT_(ptr sret(%"class.absl::lts_20230802::Cleanup.179") align 8 %vars, ptr noundef nonnull align 8 dereferenceable(256) %0, ptr noundef nonnull align 8 dereferenceable(32) %variables_)
  %1 = load ptr, ptr %p.addr, align 8
  call void @_ZNSt17basic_string_viewIcSt11char_traitsIcEEC2EPKc(ptr noundef nonnull align 8 dereferenceable(16) %agg.tmp, ptr noundef @.str.49) #3
  call void @_ZN6google8protobuf2io7Printer14SourceLocation7currentEv()
  %2 = getelementptr inbounds { i64, ptr }, ptr %agg.tmp, i32 0, i32 0
  %3 = load i64, ptr %2, align 8
  %4 = getelementptr inbounds { i64, ptr }, ptr %agg.tmp, i32 0, i32 1
  %5 = load ptr, ptr %4, align 8
  invoke void @_ZN6google8protobuf2io7Printer4EmitESt17basic_string_viewIcSt11char_traitsIcEENS2_14SourceLocationE(ptr noundef nonnull align 8 dereferenceable(256) %1, i64 %3, ptr %5)
          to label %invoke.cont unwind label %lpad

invoke.cont:                                      ; preds = %entry
  call void @_ZN4absl12lts_202308027CleanupINS0_16cleanup_internal3TagEZN6google8protobuf2io7Printer8WithVarsIRKNS0_13flat_hash_mapISt17basic_string_viewIcSt11char_traitsIcEENSt7__cxx1112basic_stringIcSC_SaIcEEENS0_18container_internal10StringHashENSI_8StringEqESaISt4pairIKSD_SH_EEEEvvEEDaOT_EUlvE_ED2Ev(ptr noundef nonnull align 8 dereferenceable(16) %vars) #3
  ret void

lpad:                                             ; preds = %entry
  %6 = landingpad { ptr, i32 }
          cleanup
  %7 = extractvalue { ptr, i32 } %6, 0
  store ptr %7, ptr %exn.slot, align 8
  %8 = extractvalue { ptr, i32 } %6, 1
  store i32 %8, ptr %ehselector.slot, align 4
  call void @_ZN4absl12lts_202308027CleanupINS0_16cleanup_internal3TagEZN6google8protobuf2io7Printer8WithVarsIRKNS0_13flat_hash_mapISt17basic_string_viewIcSt11char_traitsIcEENSt7__cxx1112basic_stringIcSC_SaIcEEENS0_18container_internal10StringHashENSI_8StringEqESaISt4pairIKSD_SH_EEEEvvEEDaOT_EUlvE_ED2Ev(ptr noundef nonnull align 8 dereferenceable(16) %vars) #3
  br label %eh.resume

eh.resume:                                        ; preds = %lpad
  %exn = load ptr, ptr %exn.slot, align 8
  %sel = load i32, ptr %ehselector.slot, align 4
  %lpad.val = insertvalue { ptr, i32 } poison, ptr %exn, 0
  %lpad.val3 = insertvalue { ptr, i32 } %lpad.val, i32 %sel, 1
  resume { ptr, i32 } %lpad.val3
}

; Function Attrs: mustprogress uwtable
define internal void @_ZNK6google8protobuf8compiler3cpp12_GLOBAL__N_118CordFieldGenerator28GenerateAggregateInitializerEPNS0_2io7PrinterE(ptr noundef nonnull align 8 dereferenceable(85) %this, ptr noundef %p) unnamed_addr #4 align 2 {
entry:
  %this.addr = alloca ptr, align 8
  %p.addr = alloca ptr, align 8
  %agg.tmp = alloca %"class.std::basic_string_view", align 8
  %agg.tmp3 = alloca %"class.std::basic_string_view", align 8
  store ptr %this, ptr %this.addr, align 8
  store ptr %p, ptr %p.addr, align 8
  %this1 = load ptr, ptr %this.addr, align 8
  %call = call noundef zeroext i1 @_ZNK6google8protobuf8compiler3cpp18FieldGeneratorBase12should_splitEv(ptr noundef nonnull align 8 dereferenceable(85) %this1)
  br i1 %call, label %if.then, label %if.else

if.then:                                          ; preds = %entry
  %0 = load ptr, ptr %p.addr, align 8
  call void @_ZNSt17basic_string_viewIcSt11char_traitsIcEEC2EPKc(ptr noundef nonnull align 8 dereferenceable(16) %agg.tmp, ptr noundef @.str.50) #3
  call void @_ZN6google8protobuf2io7Printer14SourceLocation7currentEv()
  %1 = getelementptr inbounds { i64, ptr }, ptr %agg.tmp, i32 0, i32 0
  %2 = load i64, ptr %1, align 8
  %3 = getelementptr inbounds { i64, ptr }, ptr %agg.tmp, i32 0, i32 1
  %4 = load ptr, ptr %3, align 8
  call void @_ZN6google8protobuf2io7Printer4EmitESt17basic_string_viewIcSt11char_traitsIcEENS2_14SourceLocationE(ptr noundef nonnull align 8 dereferenceable(256) %0, i64 %2, ptr %4)
  br label %if.end

if.else:                                          ; preds = %entry
  %5 = load ptr, ptr %p.addr, align 8
  call void @_ZNSt17basic_string_viewIcSt11char_traitsIcEEC2EPKc(ptr noundef nonnull align 8 dereferenceable(16) %agg.tmp3, ptr noundef @.str.51) #3
  call void @_ZN6google8protobuf2io7Printer14SourceLocation7currentEv()
  %6 = getelementptr inbounds { i64, ptr }, ptr %agg.tmp3, i32 0, i32 0
  %7 = load i64, ptr %6, align 8
  %8 = getelementptr inbounds { i64, ptr }, ptr %agg.tmp3, i32 0, i32 1
  %9 = load ptr, ptr %8, align 8
  call void @_ZN6google8protobuf2io7Printer4EmitESt17basic_string_viewIcSt11char_traitsIcEENS2_14SourceLocationE(ptr noundef nonnull align 8 dereferenceable(256) %5, i64 %7, ptr %9)
  br label %if.end

if.end:                                           ; preds = %if.else, %if.then
  ret void
}

; Function Attrs: mustprogress uwtable
define internal void @_ZNK6google8protobuf8compiler3cpp12_GLOBAL__N_118CordFieldGenerator37GenerateConstexprAggregateInitializerEPNS0_2io7PrinterE(ptr noundef nonnull align 8 dereferenceable(85) %this, ptr noundef %p) unnamed_addr #4 align 2 personality ptr @__gxx_personality_v0 {
entry:
  %this.addr = alloca ptr, align 8
  %p.addr = alloca ptr, align 8
  %agg.tmp = alloca %"class.std::basic_string_view", align 8
  %agg.tmp4 = alloca %"class.absl::lts_20230802::Span.184", align 8
  %agg.tmp5 = alloca %"class.std::initializer_list.185", align 8
  %ref.tmp = alloca [1 x %"class.google::protobuf::io::Printer::Sub"], align 8
  %arrayinit.endOfInit = alloca ptr, align 8
  %agg.tmp6 = alloca %"class.std::__cxx11::basic_string", align 8
  %ref.tmp7 = alloca %"class.std::allocator", align 1
  %exn.slot = alloca ptr, align 8
  %ehselector.slot = alloca i32, align 4
  %ref.tmp8 = alloca ptr, align 8
  %cleanup.isactive = alloca i1, align 1
  %agg.tmp12 = alloca %"class.std::basic_string_view", align 8
  store ptr %this, ptr %this.addr, align 8
  store ptr %p, ptr %p.addr, align 8
  %this1 = load ptr, ptr %this.addr, align 8
  %descriptor_ = getelementptr inbounds %"class.google::protobuf::compiler::cpp::FieldGeneratorBase", ptr %this1, i32 0, i32 1
  %0 = load ptr, ptr %descriptor_, align 8
  %call = call noundef nonnull align 8 dereferenceable(32) ptr @_ZNK6google8protobuf15FieldDescriptor20default_value_stringB5cxx11Ev(ptr noundef nonnull align 8 dereferenceable(88) %0)
  %call2 = call noundef zeroext i1 @_ZNKSt7__cxx1112basic_stringIcSt11char_traitsIcESaIcEE5emptyEv(ptr noundef nonnull align 8 dereferenceable(32) %call) #3
  br i1 %call2, label %if.then, label %if.else

if.then:                                          ; preds = %entry
  %1 = load ptr, ptr %p.addr, align 8
  call void @_ZNSt17basic_string_viewIcSt11char_traitsIcEEC2EPKc(ptr noundef nonnull align 8 dereferenceable(16) %agg.tmp, ptr noundef @.str.52) #3
  call void @_ZN6google8protobuf2io7Printer14SourceLocation7currentEv()
  %2 = getelementptr inbounds { i64, ptr }, ptr %agg.tmp, i32 0, i32 0
  %3 = load i64, ptr %2, align 8
  %4 = getelementptr inbounds { i64, ptr }, ptr %agg.tmp, i32 0, i32 1
  %5 = load ptr, ptr %4, align 8
  call void @_ZN6google8protobuf2io7Printer4EmitESt17basic_string_viewIcSt11char_traitsIcEENS2_14SourceLocationE(ptr noundef nonnull align 8 dereferenceable(256) %1, i64 %3, ptr %5)
  br label %if.end

if.else:                                          ; preds = %entry
  %6 = load ptr, ptr %p.addr, align 8
  %arrayinit.begin = getelementptr inbounds [1 x %"class.google::protobuf::io::Printer::Sub"], ptr %ref.tmp, i64 0, i64 0
  store i1 true, ptr %cleanup.isactive, align 1
  store ptr %arrayinit.begin, ptr %arrayinit.endOfInit, align 8
  call void @_ZNSaIcEC1Ev(ptr noundef nonnull align 1 dereferenceable(1) %ref.tmp7) #3
  invoke void @_ZNSt7__cxx1112basic_stringIcSt11char_traitsIcESaIcEEC2IS3_EEPKcRKS3_(ptr noundef nonnull align 8 dereferenceable(32) %agg.tmp6, ptr noundef @.str.42, ptr noundef nonnull align 1 dereferenceable(1) %ref.tmp7)
          to label %invoke.cont unwind label %lpad

invoke.cont:                                      ; preds = %if.else
  %call9 = call noundef zeroext i1 @_ZNK6google8protobuf8compiler3cpp18FieldGeneratorBase12should_splitEv(ptr noundef nonnull align 8 dereferenceable(85) %this1)
  %cond = select i1 %call9, ptr @.str.43, ptr @.str.44
  store ptr %cond, ptr %ref.tmp8, align 8
  invoke void @_ZN6google8protobuf2io7Printer3SubC2IPKcEENSt7__cxx1112basic_stringIcSt11char_traitsIcESaIcEEEOT_(ptr noundef nonnull align 8 dereferenceable(184) %arrayinit.begin, ptr noundef %agg.tmp6, ptr noundef nonnull align 8 dereferenceable(8) %ref.tmp8)
          to label %invoke.cont11 unwind label %lpad10

invoke.cont11:                                    ; preds = %invoke.cont
  store i1 false, ptr %cleanup.isactive, align 1
  %_M_array = getelementptr inbounds %"class.std::initializer_list.185", ptr %agg.tmp5, i32 0, i32 0
  %arraystart = getelementptr inbounds [1 x %"class.google::protobuf::io::Printer::Sub"], ptr %ref.tmp, i64 0, i64 0
  store ptr %arraystart, ptr %_M_array, align 8
  %_M_len = getelementptr inbounds %"class.std::initializer_list.185", ptr %agg.tmp5, i32 0, i32 1
  store i64 1, ptr %_M_len, align 8
  %7 = getelementptr inbounds { ptr, i64 }, ptr %agg.tmp5, i32 0, i32 0
  %8 = load ptr, ptr %7, align 8
  %9 = getelementptr inbounds { ptr, i64 }, ptr %agg.tmp5, i32 0, i32 1
  %10 = load i64, ptr %9, align 8
  call void @_ZN4absl12lts_202308024SpanIKN6google8protobuf2io7Printer3SubEEC2IS7_S7_EESt16initializer_listIS6_E(ptr noundef nonnull align 8 dereferenceable(16) %agg.tmp4, ptr %8, i64 %10) #3
  call void @_ZNSt17basic_string_viewIcSt11char_traitsIcEEC2EPKc(ptr noundef nonnull align 8 dereferenceable(16) %agg.tmp12, ptr noundef @.str.53) #3
  call void @_ZN6google8protobuf2io7Printer14SourceLocation7currentEv()
  %11 = getelementptr inbounds { ptr, i64 }, ptr %agg.tmp4, i32 0, i32 0
  %12 = load ptr, ptr %11, align 8
  %13 = getelementptr inbounds { ptr, i64 }, ptr %agg.tmp4, i32 0, i32 1
  %14 = load i64, ptr %13, align 8
  %15 = getelementptr inbounds { i64, ptr }, ptr %agg.tmp12, i32 0, i32 0
  %16 = load i64, ptr %15, align 8
  %17 = getelementptr inbounds { i64, ptr }, ptr %agg.tmp12, i32 0, i32 1
  %18 = load ptr, ptr %17, align 8
  invoke void @_ZN6google8protobuf2io7Printer4EmitEN4absl12lts_202308024SpanIKNS2_3SubEEESt17basic_string_viewIcSt11char_traitsIcEENS2_14SourceLocationE(ptr noundef nonnull align 8 dereferenceable(256) %6, ptr %12, i64 %14, i64 %16, ptr %18)
          to label %invoke.cont16 unwind label %lpad15

invoke.cont16:                                    ; preds = %invoke.cont11
  %array.begin = getelementptr inbounds [1 x %"class.google::protobuf::io::Printer::Sub"], ptr %ref.tmp, i32 0, i32 0
  %19 = getelementptr inbounds %"class.google::protobuf::io::Printer::Sub", ptr %array.begin, i64 1
  br label %arraydestroy.body

arraydestroy.body:                                ; preds = %arraydestroy.body, %invoke.cont16
  %arraydestroy.elementPast = phi ptr [ %19, %invoke.cont16 ], [ %arraydestroy.element, %arraydestroy.body ]
  %arraydestroy.element = getelementptr inbounds %"class.google::protobuf::io::Printer::Sub", ptr %arraydestroy.elementPast, i64 -1
  call void @_ZN6google8protobuf2io7Printer3SubD2Ev(ptr noundef nonnull align 8 dereferenceable(184) %arraydestroy.element) #3
  %arraydestroy.done = icmp eq ptr %arraydestroy.element, %array.begin
  br i1 %arraydestroy.done, label %arraydestroy.done17, label %arraydestroy.body

arraydestroy.done17:                              ; preds = %arraydestroy.body
  call void @_ZNSt7__cxx1112basic_stringIcSt11char_traitsIcESaIcEED1Ev(ptr noundef nonnull align 8 dereferenceable(32) %agg.tmp6) #3
  call void @_ZNSaIcED1Ev(ptr noundef nonnull align 1 dereferenceable(1) %ref.tmp7) #3
  br label %if.end

lpad:                                             ; preds = %if.else
  %20 = landingpad { ptr, i32 }
          cleanup
  %21 = extractvalue { ptr, i32 } %20, 0
  store ptr %21, ptr %exn.slot, align 8
  %22 = extractvalue { ptr, i32 } %20, 1
  store i32 %22, ptr %ehselector.slot, align 4
  br label %ehcleanup24

lpad10:                                           ; preds = %invoke.cont
  %23 = landingpad { ptr, i32 }
          cleanup
  %24 = extractvalue { ptr, i32 } %23, 0
  store ptr %24, ptr %exn.slot, align 8
  %25 = extractvalue { ptr, i32 } %23, 1
  store i32 %25, ptr %ehselector.slot, align 4
  br label %ehcleanup

lpad15:                                           ; preds = %invoke.cont11
  %26 = landingpad { ptr, i32 }
          cleanup
  %27 = extractvalue { ptr, i32 } %26, 0
  store ptr %27, ptr %exn.slot, align 8
  %28 = extractvalue { ptr, i32 } %26, 1
  store i32 %28, ptr %ehselector.slot, align 4
  %array.begin18 = getelementptr inbounds [1 x %"class.google::protobuf::io::Printer::Sub"], ptr %ref.tmp, i32 0, i32 0
  %29 = getelementptr inbounds %"class.google::protobuf::io::Printer::Sub", ptr %array.begin18, i64 1
  br label %arraydestroy.body19

arraydestroy.body19:                              ; preds = %arraydestroy.body19, %lpad15
  %arraydestroy.elementPast20 = phi ptr [ %29, %lpad15 ], [ %arraydestroy.element21, %arraydestroy.body19 ]
  %arraydestroy.element21 = getelementptr inbounds %"class.google::protobuf::io::Printer::Sub", ptr %arraydestroy.elementPast20, i64 -1
  call void @_ZN6google8protobuf2io7Printer3SubD2Ev(ptr noundef nonnull align 8 dereferenceable(184) %arraydestroy.element21) #3
  %arraydestroy.done22 = icmp eq ptr %arraydestroy.element21, %array.begin18
  br i1 %arraydestroy.done22, label %arraydestroy.done23, label %arraydestroy.body19

arraydestroy.done23:                              ; preds = %arraydestroy.body19
  br label %ehcleanup

ehcleanup:                                        ; preds = %arraydestroy.done23, %lpad10
  call void @_ZNSt7__cxx1112basic_stringIcSt11char_traitsIcESaIcEED1Ev(ptr noundef nonnull align 8 dereferenceable(32) %agg.tmp6) #3
  br label %ehcleanup24

ehcleanup24:                                      ; preds = %ehcleanup, %lpad
  call void @_ZNSaIcED1Ev(ptr noundef nonnull align 1 dereferenceable(1) %ref.tmp7) #3
  %cleanup.is_active = load i1, ptr %cleanup.isactive, align 1
  br i1 %cleanup.is_active, label %cleanup.action, label %cleanup.done

cleanup.action:                                   ; preds = %ehcleanup24
  %30 = load ptr, ptr %arrayinit.endOfInit, align 8
  %arraydestroy.isempty = icmp eq ptr %arrayinit.begin, %30
  br i1 %arraydestroy.isempty, label %arraydestroy.done30, label %arraydestroy.body26

arraydestroy.body26:                              ; preds = %arraydestroy.body26, %cleanup.action
  %arraydestroy.elementPast27 = phi ptr [ %30, %cleanup.action ], [ %arraydestroy.element28, %arraydestroy.body26 ]
  %arraydestroy.element28 = getelementptr inbounds %"class.google::protobuf::io::Printer::Sub", ptr %arraydestroy.elementPast27, i64 -1
  call void @_ZN6google8protobuf2io7Printer3SubD2Ev(ptr noundef nonnull align 8 dereferenceable(184) %arraydestroy.element28) #3
  %arraydestroy.done29 = icmp eq ptr %arraydestroy.element28, %arrayinit.begin
  br i1 %arraydestroy.done29, label %arraydestroy.done30, label %arraydestroy.body26

arraydestroy.done30:                              ; preds = %arraydestroy.body26, %cleanup.action
  br label %cleanup.done

cleanup.done:                                     ; preds = %arraydestroy.done30, %ehcleanup24
  br label %eh.resume

if.end:                                           ; preds = %arraydestroy.done17, %if.then
  ret void

eh.resume:                                        ; preds = %cleanup.done
  %exn = load ptr, ptr %exn.slot, align 8
  %sel = load i32, ptr %ehselector.slot, align 4
  %lpad.val = insertvalue { ptr, i32 } poison, ptr %exn, 0
  %lpad.val31 = insertvalue { ptr, i32 } %lpad.val, i32 %sel, 1
  resume { ptr, i32 } %lpad.val31
}

declare void @_ZNK6google8protobuf8compiler3cpp18FieldGeneratorBase32GenerateCopyAggregateInitializerEPNS0_2io7PrinterE(ptr noundef nonnull align 8 dereferenceable(85), ptr noundef) unnamed_addr #1

; Function Attrs: mustprogress uwtable
define internal void @_ZNK6google8protobuf8compiler3cpp12_GLOBAL__N_118CordFieldGenerator39GenerateSerializeWithCachedSizesToArrayEPNS0_2io7PrinterE(ptr noundef nonnull align 8 dereferenceable(85) %this, ptr noundef %printer) unnamed_addr #4 align 2 personality ptr @__gxx_personality_v0 {
entry:
  %this.addr = alloca ptr, align 8
  %printer.addr = alloca ptr, align 8
  %format = alloca %"class.google::protobuf::compiler::cpp::Formatter", align 8
  %exn.slot = alloca ptr, align 8
  %ehselector.slot = alloca i32, align 4
  %agg.tmp = alloca %"class.std::basic_string_view", align 8
  %ref.tmp = alloca %"class.std::__cxx11::basic_string", align 8
  %agg.tmp3 = alloca %"class.std::basic_string_view", align 8
  %ref.tmp4 = alloca %"class.absl::lts_20230802::substitute_internal::Arg", align 8
  %agg.tmp5 = alloca %"class.std::basic_string_view", align 8
  %agg.tmp6 = alloca %"class.std::basic_string_view", align 8
  store ptr %this, ptr %this.addr, align 8
  store ptr %printer, ptr %printer.addr, align 8
  %this1 = load ptr, ptr %this.addr, align 8
  %0 = load ptr, ptr %printer.addr, align 8
  %variables_ = getelementptr inbounds %"class.google::protobuf::compiler::cpp::FieldGeneratorBase", ptr %this1, i32 0, i32 4
  call void @_ZN6google8protobuf8compiler3cpp9FormatterC2EPNS0_2io7PrinterERKN4absl12lts_2023080213flat_hash_mapISt17basic_string_viewIcSt11char_traitsIcEENSt7__cxx1112basic_stringIcSC_SaIcEEENS8_18container_internal10StringHashENSI_8StringEqESaISt4pairIKSD_SH_EEEE(ptr noundef nonnull align 8 dereferenceable(40) %format, ptr noundef %0, ptr noundef nonnull align 8 dereferenceable(32) %variables_)
  %descriptor_ = getelementptr inbounds %"class.google::protobuf::compiler::cpp::FieldGeneratorBase", ptr %this1, i32 0, i32 1
  %1 = load ptr, ptr %descriptor_, align 8
  %call = invoke noundef i32 @_ZNK6google8protobuf15FieldDescriptor4typeEv(ptr noundef nonnull align 8 dereferenceable(88) %1)
          to label %invoke.cont unwind label %lpad

invoke.cont:                                      ; preds = %entry
  %cmp = icmp eq i32 %call, 9
  br i1 %cmp, label %if.then, label %if.end

if.then:                                          ; preds = %invoke.cont
  %descriptor_2 = getelementptr inbounds %"class.google::protobuf::compiler::cpp::FieldGeneratorBase", ptr %this1, i32 0, i32 1
  %2 = load ptr, ptr %descriptor_2, align 8
  %options_ = getelementptr inbounds %"class.google::protobuf::compiler::cpp::FieldGeneratorBase", ptr %this1, i32 0, i32 2
  %3 = load ptr, ptr %options_, align 8
  call void @_ZNSt17basic_string_viewIcSt11char_traitsIcEEC2EPKc(ptr noundef nonnull align 8 dereferenceable(16) %agg.tmp3, ptr noundef @.str.54) #3
  %4 = load ptr, ptr %printer.addr, align 8
  call void @_ZNSt17basic_string_viewIcSt11char_traitsIcEEC2EPKc(ptr noundef nonnull align 8 dereferenceable(16) %agg.tmp6, ptr noundef @.str.55) #3
  %5 = getelementptr inbounds { i64, ptr }, ptr %agg.tmp6, i32 0, i32 0
  %6 = load i64, ptr %5, align 8
  %7 = getelementptr inbounds { i64, ptr }, ptr %agg.tmp6, i32 0, i32 1
  %8 = load ptr, ptr %7, align 8
  %call8 = invoke { i64, ptr } @_ZN6google8protobuf2io7Printer9LookupVarESt17basic_string_viewIcSt11char_traitsIcEE(ptr noundef nonnull align 8 dereferenceable(256) %4, i64 %6, ptr %8)
          to label %invoke.cont7 unwind label %lpad

invoke.cont7:                                     ; preds = %if.then
  %9 = getelementptr inbounds { i64, ptr }, ptr %agg.tmp5, i32 0, i32 0
  %10 = extractvalue { i64, ptr } %call8, 0
  store i64 %10, ptr %9, align 8
  %11 = getelementptr inbounds { i64, ptr }, ptr %agg.tmp5, i32 0, i32 1
  %12 = extractvalue { i64, ptr } %call8, 1
  store ptr %12, ptr %11, align 8
  %13 = getelementptr inbounds { i64, ptr }, ptr %agg.tmp5, i32 0, i32 0
  %14 = load i64, ptr %13, align 8
  %15 = getelementptr inbounds { i64, ptr }, ptr %agg.tmp5, i32 0, i32 1
  %16 = load ptr, ptr %15, align 8
  invoke void @_ZN4absl12lts_2023080219substitute_internal3ArgC2ESt17basic_string_viewIcSt11char_traitsIcEE(ptr noundef nonnull align 8 dereferenceable(48) %ref.tmp4, i64 %14, ptr %16)
          to label %invoke.cont9 unwind label %lpad

invoke.cont9:                                     ; preds = %invoke.cont7
  %17 = getelementptr inbounds { i64, ptr }, ptr %agg.tmp3, i32 0, i32 0
  %18 = load i64, ptr %17, align 8
  %19 = getelementptr inbounds { i64, ptr }, ptr %agg.tmp3, i32 0, i32 1
  %20 = load ptr, ptr %19, align 8
  invoke void @_ZN4absl12lts_2023080210SubstituteB5cxx11ESt17basic_string_viewIcSt11char_traitsIcEERKNS0_19substitute_internal3ArgE(ptr sret(%"class.std::__cxx11::basic_string") align 8 %ref.tmp, i64 %18, ptr %20, ptr noundef nonnull align 8 dereferenceable(48) %ref.tmp4)
          to label %invoke.cont10 unwind label %lpad

invoke.cont10:                                    ; preds = %invoke.cont9
  %call11 = call { i64, ptr } @_ZNKSt7__cxx1112basic_stringIcSt11char_traitsIcESaIcEEcvSt17basic_string_viewIcS2_EEv(ptr noundef nonnull align 8 dereferenceable(32) %ref.tmp) #3
  %21 = getelementptr inbounds { i64, ptr }, ptr %agg.tmp, i32 0, i32 0
  %22 = extractvalue { i64, ptr } %call11, 0
  store i64 %22, ptr %21, align 8
  %23 = getelementptr inbounds { i64, ptr }, ptr %agg.tmp, i32 0, i32 1
  %24 = extractvalue { i64, ptr } %call11, 1
  store ptr %24, ptr %23, align 8
  %25 = getelementptr inbounds { i64, ptr }, ptr %agg.tmp, i32 0, i32 0
  %26 = load i64, ptr %25, align 8
  %27 = getelementptr inbounds { i64, ptr }, ptr %agg.tmp, i32 0, i32 1
  %28 = load ptr, ptr %27, align 8
  invoke void @_ZN6google8protobuf8compiler3cpp28GenerateUtf8CheckCodeForCordEPKNS0_15FieldDescriptorERKNS2_7OptionsEbSt17basic_string_viewIcSt11char_traitsIcEERKNS2_9FormatterE(ptr noundef %2, ptr noundef nonnull align 8 dereferenceable(206) %3, i1 noundef zeroext false, i64 %26, ptr %28, ptr noundef nonnull align 8 dereferenceable(40) %format)
          to label %invoke.cont13 unwind label %lpad12

invoke.cont13:                                    ; preds = %invoke.cont10
  call void @_ZNSt7__cxx1112basic_stringIcSt11char_traitsIcESaIcEED1Ev(ptr noundef nonnull align 8 dereferenceable(32) %ref.tmp) #3
  br label %if.end

lpad:                                             ; preds = %if.end, %invoke.cont9, %invoke.cont7, %if.then, %entry
  %29 = landingpad { ptr, i32 }
          cleanup
  %30 = extractvalue { ptr, i32 } %29, 0
  store ptr %30, ptr %exn.slot, align 8
  %31 = extractvalue { ptr, i32 } %29, 1
  store i32 %31, ptr %ehselector.slot, align 4
  br label %ehcleanup

lpad12:                                           ; preds = %invoke.cont10
  %32 = landingpad { ptr, i32 }
          cleanup
  %33 = extractvalue { ptr, i32 } %32, 0
  store ptr %33, ptr %exn.slot, align 8
  %34 = extractvalue { ptr, i32 } %32, 1
  store i32 %34, ptr %ehselector.slot, align 4
  call void @_ZNSt7__cxx1112basic_stringIcSt11char_traitsIcESaIcEED1Ev(ptr noundef nonnull align 8 dereferenceable(32) %ref.tmp) #3
  br label %ehcleanup

if.end:                                           ; preds = %invoke.cont13, %invoke.cont
  invoke void @_ZNK6google8protobuf8compiler3cpp9FormatterclIJEEEvPKcDpRKT_(ptr noundef nonnull align 8 dereferenceable(40) %format, ptr noundef @.str.56)
          to label %invoke.cont14 unwind label %lpad

invoke.cont14:                                    ; preds = %if.end
  call void @_ZN6google8protobuf8compiler3cpp9FormatterD2Ev(ptr noundef nonnull align 8 dereferenceable(40) %format) #3
  ret void

ehcleanup:                                        ; preds = %lpad12, %lpad
  call void @_ZN6google8protobuf8compiler3cpp9FormatterD2Ev(ptr noundef nonnull align 8 dereferenceable(40) %format) #3
  br label %eh.resume

eh.resume:                                        ; preds = %ehcleanup
  %exn = load ptr, ptr %exn.slot, align 8
  %sel = load i32, ptr %ehselector.slot, align 4
  %lpad.val = insertvalue { ptr, i32 } poison, ptr %exn, 0
  %lpad.val15 = insertvalue { ptr, i32 } %lpad.val, i32 %sel, 1
  resume { ptr, i32 } %lpad.val15
}

; Function Attrs: mustprogress uwtable
define internal void @_ZNK6google8protobuf8compiler3cpp12_GLOBAL__N_118CordFieldGenerator16GenerateByteSizeEPNS0_2io7PrinterE(ptr noundef nonnull align 8 dereferenceable(85) %this, ptr noundef %printer) unnamed_addr #4 align 2 personality ptr @__gxx_personality_v0 {
entry:
  %this.addr = alloca ptr, align 8
  %printer.addr = alloca ptr, align 8
  %format = alloca %"class.google::protobuf::compiler::cpp::Formatter", align 8
  %exn.slot = alloca ptr, align 8
  %ehselector.slot = alloca i32, align 4
  store ptr %this, ptr %this.addr, align 8
  store ptr %printer, ptr %printer.addr, align 8
  %this1 = load ptr, ptr %this.addr, align 8
  %0 = load ptr, ptr %printer.addr, align 8
  %variables_ = getelementptr inbounds %"class.google::protobuf::compiler::cpp::FieldGeneratorBase", ptr %this1, i32 0, i32 4
  call void @_ZN6google8protobuf8compiler3cpp9FormatterC2EPNS0_2io7PrinterERKN4absl12lts_2023080213flat_hash_mapISt17basic_string_viewIcSt11char_traitsIcEENSt7__cxx1112basic_stringIcSC_SaIcEEENS8_18container_internal10StringHashENSI_8StringEqESaISt4pairIKSD_SH_EEEE(ptr noundef nonnull align 8 dereferenceable(40) %format, ptr noundef %0, ptr noundef nonnull align 8 dereferenceable(32) %variables_)
  invoke void @_ZNK6google8protobuf8compiler3cpp9FormatterclIJEEEvPKcDpRKT_(ptr noundef nonnull align 8 dereferenceable(40) %format, ptr noundef @.str.57)
          to label %invoke.cont unwind label %lpad

invoke.cont:                                      ; preds = %entry
  call void @_ZN6google8protobuf8compiler3cpp9FormatterD2Ev(ptr noundef nonnull align 8 dereferenceable(40) %format) #3
  ret void

lpad:                                             ; preds = %entry
  %1 = landingpad { ptr, i32 }
          cleanup
  %2 = extractvalue { ptr, i32 } %1, 0
  store ptr %2, ptr %exn.slot, align 8
  %3 = extractvalue { ptr, i32 } %1, 1
  store i32 %3, ptr %ehselector.slot, align 4
  call void @_ZN6google8protobuf8compiler3cpp9FormatterD2Ev(ptr noundef nonnull align 8 dereferenceable(40) %format) #3
  br label %eh.resume

eh.resume:                                        ; preds = %lpad
  %exn = load ptr, ptr %exn.slot, align 8
  %sel = load i32, ptr %ehselector.slot, align 4
  %lpad.val = insertvalue { ptr, i32 } poison, ptr %exn, 0
  %lpad.val2 = insertvalue { ptr, i32 } %lpad.val, i32 %sel, 1
  resume { ptr, i32 } %lpad.val2
}

; Function Attrs: mustprogress nounwind uwtable
define linkonce_odr hidden void @_ZNK6google8protobuf8compiler3cpp18FieldGeneratorBase21GenerateIsInitializedEPNS0_2io7PrinterE(ptr noundef nonnull align 8 dereferenceable(85) %this, ptr noundef %p) unnamed_addr #5 comdat align 2 {
entry:
  %this.addr = alloca ptr, align 8
  %p.addr = alloca ptr, align 8
  store ptr %this, ptr %this.addr, align 8
  store ptr %p, ptr %p.addr, align 8
  ret void
}

; Function Attrs: mustprogress nounwind uwtable
define linkonce_odr hidden noundef zeroext i1 @_ZNK6google8protobuf8compiler3cpp18FieldGeneratorBase9IsInlinedEv(ptr noundef nonnull align 8 dereferenceable(85) %this) unnamed_addr #5 comdat align 2 {
entry:
  %this.addr = alloca ptr, align 8
  store ptr %this, ptr %this.addr, align 8
  ret i1 false
}

; Function Attrs: mustprogress nounwind uwtable
define internal noundef i32 @_ZNK6google8protobuf8compiler3cpp12_GLOBAL__N_118CordFieldGenerator20NeedsArenaDestructorEv(ptr noundef nonnull align 8 dereferenceable(85) %this) unnamed_addr #5 align 2 {
entry:
  %this.addr = alloca ptr, align 8
  store ptr %this, ptr %this.addr, align 8
  ret i32 2
}

declare void @_ZN4absl12lts_202308026StrCatB5cxx11ERKNS0_8AlphaNumES3_S3_(ptr sret(%"class.std::__cxx11::basic_string") align 8, ptr noundef nonnull align 8 dereferenceable(48), ptr noundef nonnull align 8 dereferenceable(48), ptr noundef nonnull align 8 dereferenceable(48)) #1

; Function Attrs: mustprogress uwtable
define linkonce_odr hidden void @_ZN4absl12lts_202308028AlphaNumC2EPKc(ptr noundef nonnull align 8 dereferenceable(48) %this, ptr noundef %c_str) unnamed_addr #4 comdat align 2 {
entry:
  %this.addr = alloca ptr, align 8
  %c_str.addr = alloca ptr, align 8
  store ptr %this, ptr %this.addr, align 8
  store ptr %c_str, ptr %c_str.addr, align 8
  %this1 = load ptr, ptr %this.addr, align 8
  %piece_ = getelementptr inbounds %"class.absl::lts_20230802::AlphaNum", ptr %this1, i32 0, i32 0
  %0 = load ptr, ptr %c_str.addr, align 8
  %call = call { i64, ptr } @_ZN4absl12lts_2023080218NullSafeStringViewEPKc(ptr noundef %0)
  %1 = getelementptr inbounds { i64, ptr }, ptr %piece_, i32 0, i32 0
  %2 = extractvalue { i64, ptr } %call, 0
  store i64 %2, ptr %1, align 8
  %3 = getelementptr inbounds { i64, ptr }, ptr %piece_, i32 0, i32 1
  %4 = extractvalue { i64, ptr } %call, 1
  store ptr %4, ptr %3, align 8
  ret void
}

declare void @_ZN4absl12lts_202308027CEscapeB5cxx11ESt17basic_string_viewIcSt11char_traitsIcEE(ptr sret(%"class.std::__cxx11::basic_string") align 8, i64, ptr) #1

; Function Attrs: mustprogress nounwind uwtable
define linkonce_odr hidden noundef nonnull align 8 dereferenceable(32) ptr @_ZNK6google8protobuf15FieldDescriptor20default_value_stringB5cxx11Ev(ptr noundef nonnull align 8 dereferenceable(88) %this) #5 comdat align 2 {
entry:
  %this.addr = alloca ptr, align 8
  store ptr %this, ptr %this.addr, align 8
  %this1 = load ptr, ptr %this.addr, align 8
  %0 = getelementptr inbounds %"class.google::protobuf::FieldDescriptor", ptr %this1, i32 0, i32 14
  %1 = load ptr, ptr %0, align 8
  ret ptr %1
}

; Function Attrs: nounwind
declare { i64, ptr } @_ZNKSt7__cxx1112basic_stringIcSt11char_traitsIcESaIcEEcvSt17basic_string_viewIcS2_EEv(ptr noundef nonnull align 8 dereferenceable(32)) #2

; Function Attrs: mustprogress nounwind uwtable
define linkonce_odr hidden void @_ZN4absl12lts_202308028AlphaNumC2ISaIcEEERKNSt7__cxx1112basic_stringIcSt11char_traitsIcET_EE(ptr noundef nonnull align 8 dereferenceable(48) %this, ptr noundef nonnull align 8 dereferenceable(32) %str) unnamed_addr #5 comdat align 2 {
entry:
  %this.addr = alloca ptr, align 8
  %str.addr = alloca ptr, align 8
  store ptr %this, ptr %this.addr, align 8
  store ptr %str, ptr %str.addr, align 8
  %this1 = load ptr, ptr %this.addr, align 8
  %piece_ = getelementptr inbounds %"class.absl::lts_20230802::AlphaNum", ptr %this1, i32 0, i32 0
  %0 = load ptr, ptr %str.addr, align 8
  %call = call { i64, ptr } @_ZNKSt7__cxx1112basic_stringIcSt11char_traitsIcESaIcEEcvSt17basic_string_viewIcS2_EEv(ptr noundef nonnull align 8 dereferenceable(32) %0) #3
  %1 = getelementptr inbounds { i64, ptr }, ptr %piece_, i32 0, i32 0
  %2 = extractvalue { i64, ptr } %call, 0
  store i64 %2, ptr %1, align 8
  %3 = getelementptr inbounds { i64, ptr }, ptr %piece_, i32 0, i32 1
  %4 = extractvalue { i64, ptr } %call, 1
  store ptr %4, ptr %3, align 8
  ret void
}

; Function Attrs: mustprogress uwtable
define linkonce_odr hidden noundef nonnull align 8 dereferenceable(32) ptr @_ZN4absl12lts_2023080218container_internal12raw_hash_mapINS1_17FlatHashMapPolicyISt17basic_string_viewIcSt11char_traitsIcEENSt7__cxx1112basic_stringIcS6_SaIcEEEEENS1_10StringHashENS1_8StringEqESaISt4pairIKS7_SB_EEEixIA8_cSC_EEDTclsrT0_5valueclL_ZSt9addressofISH_EPT_RSO_EclL_ZSt7declvalIRSH_EDTcl9__declvalISO_ELi0EEEvEEEEERKSO_(ptr noundef nonnull align 8 dereferenceable(32) %this, ptr noundef nonnull align 1 dereferenceable(8) %key) #4 comdat align 2 {
entry:
  %this.addr = alloca ptr, align 8
  %key.addr = alloca ptr, align 8
  %ref.tmp = alloca %"struct.std::pair", align 8
  store ptr %this, ptr %this.addr, align 8
  store ptr %key, ptr %key.addr, align 8
  %this1 = load ptr, ptr %this.addr, align 8
  %0 = load ptr, ptr %key.addr, align 8
  call void @_ZN4absl12lts_2023080218container_internal12raw_hash_mapINS1_17FlatHashMapPolicyISt17basic_string_viewIcSt11char_traitsIcEENSt7__cxx1112basic_stringIcS6_SaIcEEEEENS1_10StringHashENS1_8StringEqESaISt4pairIKS7_SB_EEE11try_emplaceIA8_cJETnNSt9enable_ifIXntsr3std14is_convertibleIT_NS1_12raw_hash_setISC_SD_SE_SI_E14const_iteratorEEE5valueEiE4typeELi0EEESF_INSP_8iteratorEbERKSN_DpOT0_(ptr sret(%"struct.std::pair") align 8 %ref.tmp, ptr noundef nonnull align 8 dereferenceable(32) %this1, ptr noundef nonnull align 1 dereferenceable(8) %0)
  %first = getelementptr inbounds %"struct.std::pair", ptr %ref.tmp, i32 0, i32 0
  %call = call noundef nonnull align 8 dereferenceable(48) ptr @_ZNK4absl12lts_2023080218container_internal12raw_hash_setINS1_17FlatHashMapPolicyISt17basic_string_viewIcSt11char_traitsIcEENSt7__cxx1112basic_stringIcS6_SaIcEEEEENS1_10StringHashENS1_8StringEqESaISt4pairIKS7_SB_EEE8iteratordeEv(ptr noundef nonnull align 8 dereferenceable(16) %first)
  %call2 = call noundef nonnull align 8 dereferenceable(32) ptr @_ZN4absl12lts_2023080218container_internal17FlatHashMapPolicyISt17basic_string_viewIcSt11char_traitsIcEENSt7__cxx1112basic_stringIcS5_SaIcEEEE5valueEPSt4pairIKS6_SA_E(ptr noundef %call)
  ret ptr %call2
}

; Function Attrs: nounwind
declare noundef nonnull align 8 dereferenceable(32) ptr @_ZNSt7__cxx1112basic_stringIcSt11char_traitsIcESaIcEEaSEOS4_(ptr noundef nonnull align 8 dereferenceable(32), ptr noundef nonnull align 8 dereferenceable(32)) #2

; Function Attrs: nounwind
declare void @_ZNSt7__cxx1112basic_stringIcSt11char_traitsIcESaIcEED1Ev(ptr noundef nonnull align 8 dereferenceable(32)) unnamed_addr #2

; Function Attrs: mustprogress uwtable
define linkonce_odr hidden void @_ZN4absl12lts_202308026StrCatB5cxx11ERKNS0_8AlphaNumE(ptr noalias sret(%"class.std::__cxx11::basic_string") align 8 %agg.result, ptr noundef nonnull align 8 dereferenceable(48) %a) #4 comdat personality ptr @__gxx_personality_v0 {
entry:
  %result.ptr = alloca ptr, align 8
  %a.addr = alloca ptr, align 8
  %ref.tmp = alloca %"class.std::allocator", align 1
  %exn.slot = alloca ptr, align 8
  %ehselector.slot = alloca i32, align 4
  store ptr %agg.result, ptr %result.ptr, align 8
  store ptr %a, ptr %a.addr, align 8
  %0 = load ptr, ptr %a.addr, align 8
  %call = call noundef ptr @_ZNK4absl12lts_202308028AlphaNum4dataEv(ptr noundef nonnull align 8 dereferenceable(48) %0)
  %1 = load ptr, ptr %a.addr, align 8
  %call1 = call noundef i64 @_ZNK4absl12lts_202308028AlphaNum4sizeEv(ptr noundef nonnull align 8 dereferenceable(48) %1)
  call void @_ZNSaIcEC1Ev(ptr noundef nonnull align 1 dereferenceable(1) %ref.tmp) #3
  invoke void @_ZNSt7__cxx1112basic_stringIcSt11char_traitsIcESaIcEEC1EPKcmRKS3_(ptr noundef nonnull align 8 dereferenceable(32) %agg.result, ptr noundef %call, i64 noundef %call1, ptr noundef nonnull align 1 dereferenceable(1) %ref.tmp)
          to label %invoke.cont unwind label %lpad

invoke.cont:                                      ; preds = %entry
  call void @_ZNSaIcED1Ev(ptr noundef nonnull align 1 dereferenceable(1) %ref.tmp) #3
  ret void

lpad:                                             ; preds = %entry
  %2 = landingpad { ptr, i32 }
          cleanup
  %3 = extractvalue { ptr, i32 } %2, 0
  store ptr %3, ptr %exn.slot, align 8
  %4 = extractvalue { ptr, i32 } %2, 1
  store i32 %4, ptr %ehselector.slot, align 4
  call void @_ZNSaIcED1Ev(ptr noundef nonnull align 1 dereferenceable(1) %ref.tmp) #3
  br label %eh.resume

eh.resume:                                        ; preds = %lpad
  %exn = load ptr, ptr %exn.slot, align 8
  %sel = load i32, ptr %ehselector.slot, align 4
  %lpad.val = insertvalue { ptr, i32 } poison, ptr %exn, 0
  %lpad.val2 = insertvalue { ptr, i32 } %lpad.val, i32 %sel, 1
  resume { ptr, i32 } %lpad.val2
}

; Function Attrs: nounwind
declare noundef i64 @_ZNKSt7__cxx1112basic_stringIcSt11char_traitsIcESaIcEE6lengthEv(ptr noundef nonnull align 8 dereferenceable(32)) #2

; Function Attrs: mustprogress uwtable
define linkonce_odr hidden void @_ZN4absl12lts_202308028AlphaNumC2Em(ptr noundef nonnull align 8 dereferenceable(48) %this, i64 noundef %x) unnamed_addr #4 comdat align 2 {
entry:
  %this.addr = alloca ptr, align 8
  %x.addr = alloca i64, align 8
  store ptr %this, ptr %this.addr, align 8
  store i64 %x, ptr %x.addr, align 8
  %this1 = load ptr, ptr %this.addr, align 8
  %piece_ = getelementptr inbounds %"class.absl::lts_20230802::AlphaNum", ptr %this1, i32 0, i32 0
  %digits_ = getelementptr inbounds %"class.absl::lts_20230802::AlphaNum", ptr %this1, i32 0, i32 1
  %arraydecay = getelementptr inbounds [32 x i8], ptr %digits_, i64 0, i64 0
  %0 = load i64, ptr %x.addr, align 8
  %digits_2 = getelementptr inbounds %"class.absl::lts_20230802::AlphaNum", ptr %this1, i32 0, i32 1
  %arraydecay3 = getelementptr inbounds [32 x i8], ptr %digits_2, i64 0, i64 0
  %call = call noundef ptr @_ZN4absl12lts_2023080216numbers_internal15FastIntToBufferEmPc(i64 noundef %0, ptr noundef %arraydecay3)
  %digits_4 = getelementptr inbounds %"class.absl::lts_20230802::AlphaNum", ptr %this1, i32 0, i32 1
  %arrayidx = getelementptr inbounds [32 x i8], ptr %digits_4, i64 0, i64 0
  %sub.ptr.lhs.cast = ptrtoint ptr %call to i64
  %sub.ptr.rhs.cast = ptrtoint ptr %arrayidx to i64
  %sub.ptr.sub = sub i64 %sub.ptr.lhs.cast, %sub.ptr.rhs.cast
  call void @_ZNSt17basic_string_viewIcSt11char_traitsIcEEC2EPKcm(ptr noundef nonnull align 8 dereferenceable(16) %piece_, ptr noundef %arraydecay, i64 noundef %sub.ptr.sub) #3
  ret void
}

; Function Attrs: mustprogress uwtable
define linkonce_odr hidden noundef nonnull align 8 dereferenceable(32) ptr @_ZN4absl12lts_2023080218container_internal12raw_hash_mapINS1_17FlatHashMapPolicyISt17basic_string_viewIcSt11char_traitsIcEENSt7__cxx1112basic_stringIcS6_SaIcEEEEENS1_10StringHashENS1_8StringEqESaISt4pairIKS7_SB_EEEixIA15_cSC_EEDTclsrT0_5valueclL_ZSt9addressofISH_EPT_RSO_EclL_ZSt7declvalIRSH_EDTcl9__declvalISO_ELi0EEEvEEEEERKSO_(ptr noundef nonnull align 8 dereferenceable(32) %this, ptr noundef nonnull align 1 dereferenceable(15) %key) #4 comdat align 2 {
entry:
  %this.addr = alloca ptr, align 8
  %key.addr = alloca ptr, align 8
  %ref.tmp = alloca %"struct.std::pair", align 8
  store ptr %this, ptr %this.addr, align 8
  store ptr %key, ptr %key.addr, align 8
  %this1 = load ptr, ptr %this.addr, align 8
  %0 = load ptr, ptr %key.addr, align 8
  call void @_ZN4absl12lts_2023080218container_internal12raw_hash_mapINS1_17FlatHashMapPolicyISt17basic_string_viewIcSt11char_traitsIcEENSt7__cxx1112basic_stringIcS6_SaIcEEEEENS1_10StringHashENS1_8StringEqESaISt4pairIKS7_SB_EEE11try_emplaceIA15_cJETnNSt9enable_ifIXntsr3std14is_convertibleIT_NS1_12raw_hash_setISC_SD_SE_SI_E14const_iteratorEEE5valueEiE4typeELi0EEESF_INSP_8iteratorEbERKSN_DpOT0_(ptr sret(%"struct.std::pair") align 8 %ref.tmp, ptr noundef nonnull align 8 dereferenceable(32) %this1, ptr noundef nonnull align 1 dereferenceable(15) %0)
  %first = getelementptr inbounds %"struct.std::pair", ptr %ref.tmp, i32 0, i32 0
  %call = call noundef nonnull align 8 dereferenceable(48) ptr @_ZNK4absl12lts_2023080218container_internal12raw_hash_setINS1_17FlatHashMapPolicyISt17basic_string_viewIcSt11char_traitsIcEENSt7__cxx1112basic_stringIcS6_SaIcEEEEENS1_10StringHashENS1_8StringEqESaISt4pairIKS7_SB_EEE8iteratordeEv(ptr noundef nonnull align 8 dereferenceable(16) %first)
  %call2 = call noundef nonnull align 8 dereferenceable(32) ptr @_ZN4absl12lts_2023080218container_internal17FlatHashMapPolicyISt17basic_string_viewIcSt11char_traitsIcEENSt7__cxx1112basic_stringIcS5_SaIcEEEE5valueEPSt4pairIKS6_SA_E(ptr noundef %call)
  ret ptr %call2
}

; Function Attrs: mustprogress nounwind uwtable
define linkonce_odr hidden noundef nonnull align 8 dereferenceable(32) ptr @_ZNK6google8protobuf15FieldDescriptor9full_nameB5cxx11Ev(ptr noundef nonnull align 8 dereferenceable(88) %this) #5 comdat align 2 {
entry:
  %this.addr = alloca ptr, align 8
  store ptr %this, ptr %this.addr, align 8
  %this1 = load ptr, ptr %this.addr, align 8
  %all_names_ = getelementptr inbounds %"class.google::protobuf::FieldDescriptor", ptr %this1, i32 0, i32 5
  %0 = load ptr, ptr %all_names_, align 8
  %arrayidx = getelementptr inbounds %"class.std::__cxx11::basic_string", ptr %0, i64 1
  ret ptr %arrayidx
}

; Function Attrs: mustprogress uwtable
define linkonce_odr hidden noundef nonnull align 8 dereferenceable(32) ptr @_ZN4absl12lts_2023080218container_internal12raw_hash_mapINS1_17FlatHashMapPolicyISt17basic_string_viewIcSt11char_traitsIcEENSt7__cxx1112basic_stringIcS6_SaIcEEEEENS1_10StringHashENS1_8StringEqESaISt4pairIKS7_SB_EEEixIA10_cSC_EEDTclsrT0_5valueclL_ZSt9addressofISH_EPT_RSO_EclL_ZSt7declvalIRSH_EDTcl9__declvalISO_ELi0EEEvEEEEERKSO_(ptr noundef nonnull align 8 dereferenceable(32) %this, ptr noundef nonnull align 1 dereferenceable(10) %key) #4 comdat align 2 {
entry:
  %this.addr = alloca ptr, align 8
  %key.addr = alloca ptr, align 8
  %ref.tmp = alloca %"struct.std::pair", align 8
  store ptr %this, ptr %this.addr, align 8
  store ptr %key, ptr %key.addr, align 8
  %this1 = load ptr, ptr %this.addr, align 8
  %0 = load ptr, ptr %key.addr, align 8
  call void @_ZN4absl12lts_2023080218container_internal12raw_hash_mapINS1_17FlatHashMapPolicyISt17basic_string_viewIcSt11char_traitsIcEENSt7__cxx1112basic_stringIcS6_SaIcEEEEENS1_10StringHashENS1_8StringEqESaISt4pairIKS7_SB_EEE11try_emplaceIA10_cJETnNSt9enable_ifIXntsr3std14is_convertibleIT_NS1_12raw_hash_setISC_SD_SE_SI_E14const_iteratorEEE5valueEiE4typeELi0EEESF_INSP_8iteratorEbERKSN_DpOT0_(ptr sret(%"struct.std::pair") align 8 %ref.tmp, ptr noundef nonnull align 8 dereferenceable(32) %this1, ptr noundef nonnull align 1 dereferenceable(10) %0)
  %first = getelementptr inbounds %"struct.std::pair", ptr %ref.tmp, i32 0, i32 0
  %call = call noundef nonnull align 8 dereferenceable(48) ptr @_ZNK4absl12lts_2023080218container_internal12raw_hash_setINS1_17FlatHashMapPolicyISt17basic_string_viewIcSt11char_traitsIcEENSt7__cxx1112basic_stringIcS6_SaIcEEEEENS1_10StringHashENS1_8StringEqESaISt4pairIKS7_SB_EEE8iteratordeEv(ptr noundef nonnull align 8 dereferenceable(16) %first)
  %call2 = call noundef nonnull align 8 dereferenceable(32) ptr @_ZN4absl12lts_2023080218container_internal17FlatHashMapPolicyISt17basic_string_viewIcSt11char_traitsIcEENSt7__cxx1112basic_stringIcS5_SaIcEEEE5valueEPSt4pairIKS6_SA_E(ptr noundef %call)
  ret ptr %call2
}

declare noundef nonnull align 8 dereferenceable(32) ptr @_ZNSt7__cxx1112basic_stringIcSt11char_traitsIcESaIcEEaSERKS4_(ptr noundef nonnull align 8 dereferenceable(32), ptr noundef nonnull align 8 dereferenceable(32)) #1

; Function Attrs: mustprogress uwtable
define linkonce_odr hidden void @_ZN6google8protobuf8compiler3cpp15MakeDefaultNameB5cxx11EPKNS0_15FieldDescriptorE(ptr noalias sret(%"class.std::__cxx11::basic_string") align 8 %agg.result, ptr noundef %field) #4 comdat personality ptr @__gxx_personality_v0 {
entry:
  %result.ptr = alloca ptr, align 8
  %field.addr = alloca ptr, align 8
  %ref.tmp = alloca %"class.absl::lts_20230802::AlphaNum", align 8
  %ref.tmp1 = alloca %"class.absl::lts_20230802::AlphaNum", align 8
  %ref.tmp2 = alloca %"class.std::__cxx11::basic_string", align 8
  %exn.slot = alloca ptr, align 8
  %ehselector.slot = alloca i32, align 4
  %ref.tmp3 = alloca %"class.absl::lts_20230802::AlphaNum", align 8
  store ptr %agg.result, ptr %result.ptr, align 8
  store ptr %field, ptr %field.addr, align 8
  call void @_ZN4absl12lts_202308028AlphaNumC2EPKc(ptr noundef nonnull align 8 dereferenceable(48) %ref.tmp, ptr noundef @.str.10)
  %0 = load ptr, ptr %field.addr, align 8
  call void @_ZN6google8protobuf8compiler3cpp9FieldNameB5cxx11EPKNS0_15FieldDescriptorE(ptr sret(%"class.std::__cxx11::basic_string") align 8 %ref.tmp2, ptr noundef %0)
  invoke void @_ZN4absl12lts_202308028AlphaNumC2ISaIcEEERKNSt7__cxx1112basic_stringIcSt11char_traitsIcET_EE(ptr noundef nonnull align 8 dereferenceable(48) %ref.tmp1, ptr noundef nonnull align 8 dereferenceable(32) %ref.tmp2)
          to label %invoke.cont unwind label %lpad

invoke.cont:                                      ; preds = %entry
  invoke void @_ZN4absl12lts_202308028AlphaNumC2EPKc(ptr noundef nonnull align 8 dereferenceable(48) %ref.tmp3, ptr noundef @.str.11)
          to label %invoke.cont4 unwind label %lpad

invoke.cont4:                                     ; preds = %invoke.cont
  invoke void @_ZN4absl12lts_202308026StrCatB5cxx11ERKNS0_8AlphaNumES3_S3_(ptr sret(%"class.std::__cxx11::basic_string") align 8 %agg.result, ptr noundef nonnull align 8 dereferenceable(48) %ref.tmp, ptr noundef nonnull align 8 dereferenceable(48) %ref.tmp1, ptr noundef nonnull align 8 dereferenceable(48) %ref.tmp3)
          to label %invoke.cont5 unwind label %lpad

invoke.cont5:                                     ; preds = %invoke.cont4
  call void @_ZNSt7__cxx1112basic_stringIcSt11char_traitsIcESaIcEED1Ev(ptr noundef nonnull align 8 dereferenceable(32) %ref.tmp2) #3
  ret void

lpad:                                             ; preds = %invoke.cont4, %invoke.cont, %entry
  %1 = landingpad { ptr, i32 }
          cleanup
  %2 = extractvalue { ptr, i32 } %1, 0
  store ptr %2, ptr %exn.slot, align 8
  %3 = extractvalue { ptr, i32 } %1, 1
  store i32 %3, ptr %ehselector.slot, align 4
  call void @_ZNSt7__cxx1112basic_stringIcSt11char_traitsIcESaIcEED1Ev(ptr noundef nonnull align 8 dereferenceable(32) %ref.tmp2) #3
  br label %eh.resume

eh.resume:                                        ; preds = %lpad
  %exn = load ptr, ptr %exn.slot, align 8
  %sel = load i32, ptr %ehselector.slot, align 4
  %lpad.val = insertvalue { ptr, i32 } poison, ptr %exn, 0
  %lpad.val6 = insertvalue { ptr, i32 } %lpad.val, i32 %sel, 1
  resume { ptr, i32 } %lpad.val6
}

; Function Attrs: mustprogress uwtable
define linkonce_odr hidden noundef nonnull align 8 dereferenceable(32) ptr @_ZN4absl12lts_2023080218container_internal12raw_hash_mapINS1_17FlatHashMapPolicyISt17basic_string_viewIcSt11char_traitsIcEENSt7__cxx1112basic_stringIcS6_SaIcEEEEENS1_10StringHashENS1_8StringEqESaISt4pairIKS7_SB_EEEixIA22_cSC_EEDTclsrT0_5valueclL_ZSt9addressofISH_EPT_RSO_EclL_ZSt7declvalIRSH_EDTcl9__declvalISO_ELi0EEEvEEEEERKSO_(ptr noundef nonnull align 8 dereferenceable(32) %this, ptr noundef nonnull align 1 dereferenceable(22) %key) #4 comdat align 2 {
entry:
  %this.addr = alloca ptr, align 8
  %key.addr = alloca ptr, align 8
  %ref.tmp = alloca %"struct.std::pair", align 8
  store ptr %this, ptr %this.addr, align 8
  store ptr %key, ptr %key.addr, align 8
  %this1 = load ptr, ptr %this.addr, align 8
  %0 = load ptr, ptr %key.addr, align 8
  call void @_ZN4absl12lts_2023080218container_internal12raw_hash_mapINS1_17FlatHashMapPolicyISt17basic_string_viewIcSt11char_traitsIcEENSt7__cxx1112basic_stringIcS6_SaIcEEEEENS1_10StringHashENS1_8StringEqESaISt4pairIKS7_SB_EEE11try_emplaceIA22_cJETnNSt9enable_ifIXntsr3std14is_convertibleIT_NS1_12raw_hash_setISC_SD_SE_SI_E14const_iteratorEEE5valueEiE4typeELi0EEESF_INSP_8iteratorEbERKSN_DpOT0_(ptr sret(%"struct.std::pair") align 8 %ref.tmp, ptr noundef nonnull align 8 dereferenceable(32) %this1, ptr noundef nonnull align 1 dereferenceable(22) %0)
  %first = getelementptr inbounds %"struct.std::pair", ptr %ref.tmp, i32 0, i32 0
  %call = call noundef nonnull align 8 dereferenceable(48) ptr @_ZNK4absl12lts_2023080218container_internal12raw_hash_setINS1_17FlatHashMapPolicyISt17basic_string_viewIcSt11char_traitsIcEENSt7__cxx1112basic_stringIcS6_SaIcEEEEENS1_10StringHashENS1_8StringEqESaISt4pairIKS7_SB_EEE8iteratordeEv(ptr noundef nonnull align 8 dereferenceable(16) %first)
  %call2 = call noundef nonnull align 8 dereferenceable(32) ptr @_ZN4absl12lts_2023080218container_internal17FlatHashMapPolicyISt17basic_string_viewIcSt11char_traitsIcEENSt7__cxx1112basic_stringIcS5_SaIcEEEE5valueEPSt4pairIKS6_SA_E(ptr noundef %call)
  ret ptr %call2
}

; Function Attrs: mustprogress uwtable
define linkonce_odr hidden void @_ZN6google8protobuf8compiler3cpp20MakeDefaultFieldNameB5cxx11EPKNS0_15FieldDescriptorE(ptr noalias sret(%"class.std::__cxx11::basic_string") align 8 %agg.result, ptr noundef %field) #4 comdat personality ptr @__gxx_personality_v0 {
entry:
  %result.ptr = alloca ptr, align 8
  %field.addr = alloca ptr, align 8
  %ref.tmp = alloca %"class.absl::lts_20230802::AlphaNum", align 8
  %ref.tmp1 = alloca %"class.absl::lts_20230802::AlphaNum", align 8
  %ref.tmp2 = alloca %"class.std::__cxx11::basic_string", align 8
  %exn.slot = alloca ptr, align 8
  %ehselector.slot = alloca i32, align 4
  store ptr %agg.result, ptr %result.ptr, align 8
  store ptr %field, ptr %field.addr, align 8
  call void @_ZN4absl12lts_202308028AlphaNumC2EPKc(ptr noundef nonnull align 8 dereferenceable(48) %ref.tmp, ptr noundef @.str.12)
  %0 = load ptr, ptr %field.addr, align 8
  call void @_ZN6google8protobuf8compiler3cpp15MakeDefaultNameB5cxx11EPKNS0_15FieldDescriptorE(ptr sret(%"class.std::__cxx11::basic_string") align 8 %ref.tmp2, ptr noundef %0)
  invoke void @_ZN4absl12lts_202308028AlphaNumC2ISaIcEEERKNSt7__cxx1112basic_stringIcSt11char_traitsIcET_EE(ptr noundef nonnull align 8 dereferenceable(48) %ref.tmp1, ptr noundef nonnull align 8 dereferenceable(32) %ref.tmp2)
          to label %invoke.cont unwind label %lpad

invoke.cont:                                      ; preds = %entry
  invoke void @_ZN4absl12lts_202308026StrCatB5cxx11ERKNS0_8AlphaNumES3_(ptr sret(%"class.std::__cxx11::basic_string") align 8 %agg.result, ptr noundef nonnull align 8 dereferenceable(48) %ref.tmp, ptr noundef nonnull align 8 dereferenceable(48) %ref.tmp1)
          to label %invoke.cont3 unwind label %lpad

invoke.cont3:                                     ; preds = %invoke.cont
  call void @_ZNSt7__cxx1112basic_stringIcSt11char_traitsIcESaIcEED1Ev(ptr noundef nonnull align 8 dereferenceable(32) %ref.tmp2) #3
  ret void

lpad:                                             ; preds = %invoke.cont, %entry
  %1 = landingpad { ptr, i32 }
          cleanup
  %2 = extractvalue { ptr, i32 } %1, 0
  store ptr %2, ptr %exn.slot, align 8
  %3 = extractvalue { ptr, i32 } %1, 1
  store i32 %3, ptr %ehselector.slot, align 4
  call void @_ZNSt7__cxx1112basic_stringIcSt11char_traitsIcESaIcEED1Ev(ptr noundef nonnull align 8 dereferenceable(32) %ref.tmp2) #3
  br label %eh.resume

eh.resume:                                        ; preds = %lpad
  %exn = load ptr, ptr %exn.slot, align 8
  %sel = load i32, ptr %ehselector.slot, align 4
  %lpad.val = insertvalue { ptr, i32 } poison, ptr %exn, 0
  %lpad.val4 = insertvalue { ptr, i32 } %lpad.val, i32 %sel, 1
  resume { ptr, i32 } %lpad.val4
}

; Function Attrs: mustprogress uwtable
define linkonce_odr hidden noundef nonnull align 8 dereferenceable(32) ptr @_ZN4absl12lts_2023080218container_internal12raw_hash_mapINS1_17FlatHashMapPolicyISt17basic_string_viewIcSt11char_traitsIcEENSt7__cxx1112basic_stringIcS6_SaIcEEEEENS1_10StringHashENS1_8StringEqESaISt4pairIKS7_SB_EEEixIA23_cSC_EEDTclsrT0_5valueclL_ZSt9addressofISH_EPT_RSO_EclL_ZSt7declvalIRSH_EDTcl9__declvalISO_ELi0EEEvEEEEERKSO_(ptr noundef nonnull align 8 dereferenceable(32) %this, ptr noundef nonnull align 1 dereferenceable(23) %key) #4 comdat align 2 {
entry:
  %this.addr = alloca ptr, align 8
  %key.addr = alloca ptr, align 8
  %ref.tmp = alloca %"struct.std::pair", align 8
  store ptr %this, ptr %this.addr, align 8
  store ptr %key, ptr %key.addr, align 8
  %this1 = load ptr, ptr %this.addr, align 8
  %0 = load ptr, ptr %key.addr, align 8
  call void @_ZN4absl12lts_2023080218container_internal12raw_hash_mapINS1_17FlatHashMapPolicyISt17basic_string_viewIcSt11char_traitsIcEENSt7__cxx1112basic_stringIcS6_SaIcEEEEENS1_10StringHashENS1_8StringEqESaISt4pairIKS7_SB_EEE11try_emplaceIA23_cJETnNSt9enable_ifIXntsr3std14is_convertibleIT_NS1_12raw_hash_setISC_SD_SE_SI_E14const_iteratorEEE5valueEiE4typeELi0EEESF_INSP_8iteratorEbERKSN_DpOT0_(ptr sret(%"struct.std::pair") align 8 %ref.tmp, ptr noundef nonnull align 8 dereferenceable(32) %this1, ptr noundef nonnull align 1 dereferenceable(23) %0)
  %first = getelementptr inbounds %"struct.std::pair", ptr %ref.tmp, i32 0, i32 0
  %call = call noundef nonnull align 8 dereferenceable(48) ptr @_ZNK4absl12lts_2023080218container_internal12raw_hash_setINS1_17FlatHashMapPolicyISt17basic_string_viewIcSt11char_traitsIcEENSt7__cxx1112basic_stringIcS6_SaIcEEEEENS1_10StringHashENS1_8StringEqESaISt4pairIKS7_SB_EEE8iteratordeEv(ptr noundef nonnull align 8 dereferenceable(16) %first)
  %call2 = call noundef nonnull align 8 dereferenceable(32) ptr @_ZN4absl12lts_2023080218container_internal17FlatHashMapPolicyISt17basic_string_viewIcSt11char_traitsIcEENSt7__cxx1112basic_stringIcS5_SaIcEEEE5valueEPSt4pairIKS6_SA_E(ptr noundef %call)
  ret ptr %call2
}

; Function Attrs: nounwind
declare noundef zeroext i1 @_ZNKSt7__cxx1112basic_stringIcSt11char_traitsIcESaIcEE5emptyEv(ptr noundef nonnull align 8 dereferenceable(32)) #2

; Function Attrs: mustprogress nounwind uwtable
define linkonce_odr hidden { i64, ptr } @_ZN6google8protobuf8compiler3cpp17ProtobufNamespaceERKNS2_7OptionsE(ptr noundef nonnull align 8 dereferenceable(206) %opts) #5 comdat {
entry:
  %retval = alloca %"class.std::basic_string_view", align 8
  %opts.addr = alloca ptr, align 8
  %kGoogle3Ns = alloca %"class.std::basic_string_view", align 8
  %kOssNs = alloca %"class.std::basic_string_view", align 8
  store ptr %opts, ptr %opts.addr, align 8
  call void @llvm.memcpy.p0.p0.i64(ptr align 8 %kGoogle3Ns, ptr align 8 @__const._ZN6google8protobuf8compiler3cpp17ProtobufNamespaceERKNS2_7OptionsE.kGoogle3Ns, i64 16, i1 false)
  call void @llvm.memcpy.p0.p0.i64(ptr align 8 %kOssNs, ptr align 8 @__const._ZN6google8protobuf8compiler3cpp17ProtobufNamespaceERKNS2_7OptionsE.kOssNs, i64 16, i1 false)
  %0 = load ptr, ptr %opts.addr, align 8
  %opensource_runtime = getelementptr inbounds %"struct.google::protobuf::compiler::cpp::Options", ptr %0, i32 0, i32 16
  %1 = load i8, ptr %opensource_runtime, align 1
  %tobool = trunc i8 %1 to i1
  br i1 %tobool, label %cond.true, label %cond.false

cond.true:                                        ; preds = %entry
  br label %cond.end

cond.false:                                       ; preds = %entry
  br label %cond.end

cond.end:                                         ; preds = %cond.false, %cond.true
  %cond-lvalue = phi ptr [ %kOssNs, %cond.true ], [ %kGoogle3Ns, %cond.false ]
  call void @llvm.memcpy.p0.p0.i64(ptr align 8 %retval, ptr align 8 %cond-lvalue, i64 16, i1 false)
  %2 = load { i64, ptr }, ptr %retval, align 8
  ret { i64, ptr } %2
}

; Function Attrs: mustprogress nounwind uwtable
define linkonce_odr hidden void @_ZN4absl12lts_202308028AlphaNumC2ESt17basic_string_viewIcSt11char_traitsIcEE(ptr noundef nonnull align 8 dereferenceable(48) %this, i64 %pc.coerce0, ptr %pc.coerce1) unnamed_addr #5 comdat align 2 {
entry:
  %pc = alloca %"class.std::basic_string_view", align 8
  %this.addr = alloca ptr, align 8
  %0 = getelementptr inbounds { i64, ptr }, ptr %pc, i32 0, i32 0
  store i64 %pc.coerce0, ptr %0, align 8
  %1 = getelementptr inbounds { i64, ptr }, ptr %pc, i32 0, i32 1
  store ptr %pc.coerce1, ptr %1, align 8
  store ptr %this, ptr %this.addr, align 8
  %this1 = load ptr, ptr %this.addr, align 8
  %piece_ = getelementptr inbounds %"class.absl::lts_20230802::AlphaNum", ptr %this1, i32 0, i32 0
  call void @llvm.memcpy.p0.p0.i64(ptr align 8 %piece_, ptr align 8 %pc, i64 16, i1 false)
  ret void
}

declare void @_ZN6google8protobuf8compiler3cpp18QualifiedClassNameB5cxx11EPKNS0_10DescriptorERKNS2_7OptionsE(ptr sret(%"class.std::__cxx11::basic_string") align 8, ptr noundef, ptr noundef nonnull align 8 dereferenceable(206)) #1

; Function Attrs: mustprogress nounwind uwtable
define linkonce_odr hidden noundef ptr @_ZNK6google8protobuf15FieldDescriptor15containing_typeEv(ptr noundef nonnull align 8 dereferenceable(88) %this) #5 comdat align 2 {
entry:
  %this.addr = alloca ptr, align 8
  store ptr %this, ptr %this.addr, align 8
  %this1 = load ptr, ptr %this.addr, align 8
  %containing_type_ = getelementptr inbounds %"class.google::protobuf::FieldDescriptor", ptr %this1, i32 0, i32 8
  %0 = load ptr, ptr %containing_type_, align 8
  ret ptr %0
}

; Function Attrs: mustprogress uwtable
define linkonce_odr hidden noundef nonnull align 8 dereferenceable(32) ptr @_ZN4absl12lts_2023080218container_internal12raw_hash_mapINS1_17FlatHashMapPolicyISt17basic_string_viewIcSt11char_traitsIcEENSt7__cxx1112basic_stringIcS6_SaIcEEEEENS1_10StringHashENS1_8StringEqESaISt4pairIKS7_SB_EEEixIA17_cSC_EEDTclsrT0_5valueclL_ZSt9addressofISH_EPT_RSO_EclL_ZSt7declvalIRSH_EDTcl9__declvalISO_ELi0EEEvEEEEERKSO_(ptr noundef nonnull align 8 dereferenceable(32) %this, ptr noundef nonnull align 1 dereferenceable(17) %key) #4 comdat align 2 {
entry:
  %this.addr = alloca ptr, align 8
  %key.addr = alloca ptr, align 8
  %ref.tmp = alloca %"struct.std::pair", align 8
  store ptr %this, ptr %this.addr, align 8
  store ptr %key, ptr %key.addr, align 8
  %this1 = load ptr, ptr %this.addr, align 8
  %0 = load ptr, ptr %key.addr, align 8
  call void @_ZN4absl12lts_2023080218container_internal12raw_hash_mapINS1_17FlatHashMapPolicyISt17basic_string_viewIcSt11char_traitsIcEENSt7__cxx1112basic_stringIcS6_SaIcEEEEENS1_10StringHashENS1_8StringEqESaISt4pairIKS7_SB_EEE11try_emplaceIA17_cJETnNSt9enable_ifIXntsr3std14is_convertibleIT_NS1_12raw_hash_setISC_SD_SE_SI_E14const_iteratorEEE5valueEiE4typeELi0EEESF_INSP_8iteratorEbERKSN_DpOT0_(ptr sret(%"struct.std::pair") align 8 %ref.tmp, ptr noundef nonnull align 8 dereferenceable(32) %this1, ptr noundef nonnull align 1 dereferenceable(17) %0)
  %first = getelementptr inbounds %"struct.std::pair", ptr %ref.tmp, i32 0, i32 0
  %call = call noundef nonnull align 8 dereferenceable(48) ptr @_ZNK4absl12lts_2023080218container_internal12raw_hash_setINS1_17FlatHashMapPolicyISt17basic_string_viewIcSt11char_traitsIcEENSt7__cxx1112basic_stringIcS6_SaIcEEEEENS1_10StringHashENS1_8StringEqESaISt4pairIKS7_SB_EEE8iteratordeEv(ptr noundef nonnull align 8 dereferenceable(16) %first)
  %call2 = call noundef nonnull align 8 dereferenceable(32) ptr @_ZN4absl12lts_2023080218container_internal17FlatHashMapPolicyISt17basic_string_viewIcSt11char_traitsIcEENSt7__cxx1112basic_stringIcS5_SaIcEEEE5valueEPSt4pairIKS6_SA_E(ptr noundef %call)
  ret ptr %call2
}

; Function Attrs: mustprogress nounwind uwtable
define linkonce_odr hidden { i64, ptr } @_ZN4absl12lts_2023080218NullSafeStringViewEPKc(ptr noundef %p) #5 comdat {
entry:
  %retval = alloca %"class.std::basic_string_view", align 8
  %p.addr = alloca ptr, align 8
  store ptr %p, ptr %p.addr, align 8
  %0 = load ptr, ptr %p.addr, align 8
  %tobool = icmp ne ptr %0, null
  br i1 %tobool, label %cond.true, label %cond.false

cond.true:                                        ; preds = %entry
  %1 = load ptr, ptr %p.addr, align 8
  call void @_ZNSt17basic_string_viewIcSt11char_traitsIcEEC2EPKc(ptr noundef nonnull align 8 dereferenceable(16) %retval, ptr noundef %1) #3
  br label %cond.end

cond.false:                                       ; preds = %entry
  call void @_ZNSt17basic_string_viewIcSt11char_traitsIcEEC2Ev(ptr noundef nonnull align 8 dereferenceable(16) %retval) #3
  br label %cond.end

cond.end:                                         ; preds = %cond.false, %cond.true
  %2 = load { i64, ptr }, ptr %retval, align 8
  ret { i64, ptr } %2
}

; Function Attrs: mustprogress nounwind uwtable
define linkonce_odr hidden void @_ZNSt17basic_string_viewIcSt11char_traitsIcEEC2EPKc(ptr noundef nonnull align 8 dereferenceable(16) %this, ptr noundef nonnull %__str) unnamed_addr #5 comdat align 2 personality ptr @__gxx_personality_v0 {
entry:
  %this.addr = alloca ptr, align 8
  %__str.addr = alloca ptr, align 8
  store ptr %this, ptr %this.addr, align 8
  store ptr %__str, ptr %__str.addr, align 8
  %this1 = load ptr, ptr %this.addr, align 8
  %_M_len = getelementptr inbounds %"class.std::basic_string_view", ptr %this1, i32 0, i32 0
  %0 = load ptr, ptr %__str.addr, align 8
  %call = invoke noundef i64 @_ZNSt11char_traitsIcE6lengthEPKc(ptr noundef %0)
          to label %invoke.cont unwind label %terminate.lpad

invoke.cont:                                      ; preds = %entry
  store i64 %call, ptr %_M_len, align 8
  %_M_str = getelementptr inbounds %"class.std::basic_string_view", ptr %this1, i32 0, i32 1
  %1 = load ptr, ptr %__str.addr, align 8
  store ptr %1, ptr %_M_str, align 8
  ret void

terminate.lpad:                                   ; preds = %entry
  %2 = landingpad { ptr, i32 }
          catch ptr null
  %3 = extractvalue { ptr, i32 } %2, 0
  call void @__clang_call_terminate(ptr %3) #21
  unreachable
}

; Function Attrs: mustprogress nounwind uwtable
define linkonce_odr hidden void @_ZNSt17basic_string_viewIcSt11char_traitsIcEEC2Ev(ptr noundef nonnull align 8 dereferenceable(16) %this) unnamed_addr #5 comdat align 2 {
entry:
  %this.addr = alloca ptr, align 8
  store ptr %this, ptr %this.addr, align 8
  %this1 = load ptr, ptr %this.addr, align 8
  %_M_len = getelementptr inbounds %"class.std::basic_string_view", ptr %this1, i32 0, i32 0
  store i64 0, ptr %_M_len, align 8
  %_M_str = getelementptr inbounds %"class.std::basic_string_view", ptr %this1, i32 0, i32 1
  store ptr null, ptr %_M_str, align 8
  ret void
}

; Function Attrs: mustprogress nounwind uwtable
define linkonce_odr hidden noundef i64 @_ZNSt11char_traitsIcE6lengthEPKc(ptr noundef %__s) #5 comdat align 2 {
entry:
  %__s.addr = alloca ptr, align 8
  store ptr %__s, ptr %__s.addr, align 8
  %0 = load ptr, ptr %__s.addr, align 8
  %call = call i64 @strlen(ptr noundef %0) #3
  ret i64 %call
}

; Function Attrs: noreturn nounwind uwtable
define linkonce_odr hidden void @__clang_call_terminate(ptr noundef %0) #8 comdat {
  %2 = call ptr @__cxa_begin_catch(ptr %0) #3
  call void @_ZSt9terminatev() #21
  unreachable
}

declare ptr @__cxa_begin_catch(ptr)

declare void @_ZSt9terminatev()

; Function Attrs: nounwind
declare i64 @strlen(ptr noundef) #2

; Function Attrs: mustprogress nounwind uwtable
define linkonce_odr hidden noundef nonnull align 8 dereferenceable(32) ptr @_ZN4absl12lts_2023080218container_internal17FlatHashMapPolicyISt17basic_string_viewIcSt11char_traitsIcEENSt7__cxx1112basic_stringIcS5_SaIcEEEE5valueEPSt4pairIKS6_SA_E(ptr noundef %kv) #5 comdat align 2 {
entry:
  %kv.addr = alloca ptr, align 8
  store ptr %kv, ptr %kv.addr, align 8
  %0 = load ptr, ptr %kv.addr, align 8
  %second = getelementptr inbounds %"struct.std::pair.42", ptr %0, i32 0, i32 1
  ret ptr %second
}

; Function Attrs: mustprogress uwtable
define linkonce_odr hidden void @_ZN4absl12lts_2023080218container_internal12raw_hash_mapINS1_17FlatHashMapPolicyISt17basic_string_viewIcSt11char_traitsIcEENSt7__cxx1112basic_stringIcS6_SaIcEEEEENS1_10StringHashENS1_8StringEqESaISt4pairIKS7_SB_EEE11try_emplaceIA8_cJETnNSt9enable_ifIXntsr3std14is_convertibleIT_NS1_12raw_hash_setISC_SD_SE_SI_E14const_iteratorEEE5valueEiE4typeELi0EEESF_INSP_8iteratorEbERKSN_DpOT0_(ptr noalias sret(%"struct.std::pair") align 8 %agg.result, ptr noundef nonnull align 8 dereferenceable(32) %this, ptr noundef nonnull align 1 dereferenceable(8) %k) #4 comdat align 2 {
entry:
  %this.addr = alloca ptr, align 8
  %k.addr = alloca ptr, align 8
  store ptr %this, ptr %this.addr, align 8
  store ptr %k, ptr %k.addr, align 8
  %this1 = load ptr, ptr %this.addr, align 8
  %0 = load ptr, ptr %k.addr, align 8
  call void @_ZN4absl12lts_2023080218container_internal12raw_hash_mapINS1_17FlatHashMapPolicyISt17basic_string_viewIcSt11char_traitsIcEENSt7__cxx1112basic_stringIcS6_SaIcEEEEENS1_10StringHashENS1_8StringEqESaISt4pairIKS7_SB_EEE16try_emplace_implIRA8_KcJEEESF_INS1_12raw_hash_setISC_SD_SE_SI_E8iteratorEbEOT_DpOT0_(ptr sret(%"struct.std::pair") align 8 %agg.result, ptr noundef nonnull align 8 dereferenceable(32) %this1, ptr noundef nonnull align 1 dereferenceable(8) %0)
  ret void
}

; Function Attrs: mustprogress uwtable
define linkonce_odr hidden noundef nonnull align 8 dereferenceable(48) ptr @_ZNK4absl12lts_2023080218container_internal12raw_hash_setINS1_17FlatHashMapPolicyISt17basic_string_viewIcSt11char_traitsIcEENSt7__cxx1112basic_stringIcS6_SaIcEEEEENS1_10StringHashENS1_8StringEqESaISt4pairIKS7_SB_EEE8iteratordeEv(ptr noundef nonnull align 8 dereferenceable(16) %this) #4 comdat align 2 {
entry:
  %this.addr = alloca ptr, align 8
  store ptr %this, ptr %this.addr, align 8
  %this1 = load ptr, ptr %this.addr, align 8
  %ctrl_ = getelementptr inbounds %"class.absl::lts_20230802::container_internal::raw_hash_set<absl::lts_20230802::container_internal::FlatHashMapPolicy<std::basic_string_view<char>, std::__cxx11::basic_string<char>>, absl::lts_20230802::container_internal::StringHash, absl::lts_20230802::container_internal::StringEq, std::allocator<std::pair<const std::basic_string_view<char>, std::__cxx11::basic_string<char>>>>::iterator", ptr %this1, i32 0, i32 0
  %0 = load ptr, ptr %ctrl_, align 8
  %call = call noundef zeroext i8 @_ZNK4absl12lts_2023080218container_internal37HashSetIteratorGenerationInfoDisabled10generationEv(ptr noundef nonnull align 1 dereferenceable(1) %this1)
  %call2 = call noundef ptr @_ZNK4absl12lts_2023080218container_internal37HashSetIteratorGenerationInfoDisabled14generation_ptrEv(ptr noundef nonnull align 1 dereferenceable(1) %this1)
  call void @_ZN4absl12lts_2023080218container_internal12AssertIsFullEPKNS1_6ctrl_tEhPKhPKc(ptr noundef %0, i8 noundef zeroext %call, ptr noundef %call2, ptr noundef @.str.9)
  %1 = getelementptr inbounds %"class.absl::lts_20230802::container_internal::raw_hash_set<absl::lts_20230802::container_internal::FlatHashMapPolicy<std::basic_string_view<char>, std::__cxx11::basic_string<char>>, absl::lts_20230802::container_internal::StringHash, absl::lts_20230802::container_internal::StringEq, std::allocator<std::pair<const std::basic_string_view<char>, std::__cxx11::basic_string<char>>>>::iterator", ptr %this1, i32 0, i32 1
  %2 = load ptr, ptr %1, align 8
  %call3 = call noundef nonnull align 8 dereferenceable(48) ptr @_ZN4absl12lts_2023080218container_internal20common_policy_traitsINS1_17FlatHashMapPolicyISt17basic_string_viewIcSt11char_traitsIcEENSt7__cxx1112basic_stringIcS6_SaIcEEEEEvE7elementISC_EEDTclsrT_7elementfp_EEPNS1_13map_slot_typeIS7_SB_EE(ptr noundef %2)
  ret ptr %call3
}

; Function Attrs: mustprogress uwtable
define linkonce_odr hidden void @_ZN4absl12lts_2023080218container_internal12raw_hash_mapINS1_17FlatHashMapPolicyISt17basic_string_viewIcSt11char_traitsIcEENSt7__cxx1112basic_stringIcS6_SaIcEEEEENS1_10StringHashENS1_8StringEqESaISt4pairIKS7_SB_EEE16try_emplace_implIRA8_KcJEEESF_INS1_12raw_hash_setISC_SD_SE_SI_E8iteratorEbEOT_DpOT0_(ptr noalias sret(%"struct.std::pair") align 8 %agg.result, ptr noundef nonnull align 8 dereferenceable(32) %this, ptr noundef nonnull align 1 dereferenceable(8) %k) #4 comdat align 2 {
entry:
  %this.addr = alloca ptr, align 8
  %k.addr = alloca ptr, align 8
  %res = alloca %"struct.std::pair.44", align 8
  %ref.tmp = alloca %"class.std::tuple.47", align 8
  %ref.tmp2 = alloca %"class.std::tuple.50", align 1
  %ref.tmp3 = alloca %"class.absl::lts_20230802::container_internal::raw_hash_set<absl::lts_20230802::container_internal::FlatHashMapPolicy<std::basic_string_view<char>, std::__cxx11::basic_string<char>>, absl::lts_20230802::container_internal::StringHash, absl::lts_20230802::container_internal::StringEq, std::allocator<std::pair<const std::basic_string_view<char>, std::__cxx11::basic_string<char>>>>::iterator", align 8
  store ptr %this, ptr %this.addr, align 8
  store ptr %k, ptr %k.addr, align 8
  %this1 = load ptr, ptr %this.addr, align 8
  %0 = load ptr, ptr %k.addr, align 8
  %call = call { i64, i8 } @_ZN4absl12lts_2023080218container_internal12raw_hash_setINS1_17FlatHashMapPolicyISt17basic_string_viewIcSt11char_traitsIcEENSt7__cxx1112basic_stringIcS6_SaIcEEEEENS1_10StringHashENS1_8StringEqESaISt4pairIKS7_SB_EEE22find_or_prepare_insertIA8_cEESF_ImbERKT_(ptr noundef nonnull align 8 dereferenceable(32) %this1, ptr noundef nonnull align 1 dereferenceable(8) %0)
  %1 = getelementptr inbounds { i64, i8 }, ptr %res, i32 0, i32 0
  %2 = extractvalue { i64, i8 } %call, 0
  store i64 %2, ptr %1, align 8
  %3 = getelementptr inbounds { i64, i8 }, ptr %res, i32 0, i32 1
  %4 = extractvalue { i64, i8 } %call, 1
  store i8 %4, ptr %3, align 8
  %second = getelementptr inbounds %"struct.std::pair.44", ptr %res, i32 0, i32 1
  %5 = load i8, ptr %second, align 8
  %tobool = trunc i8 %5 to i1
  br i1 %tobool, label %if.then, label %if.end

if.then:                                          ; preds = %entry
  %first = getelementptr inbounds %"struct.std::pair.44", ptr %res, i32 0, i32 0
  %6 = load i64, ptr %first, align 8
  %7 = load ptr, ptr %k.addr, align 8
  call void @_ZSt16forward_as_tupleIJRA8_KcEESt5tupleIJDpOT_EES6_(ptr sret(%"class.std::tuple.47") align 8 %ref.tmp, ptr noundef nonnull align 1 dereferenceable(8) %7) #3
  call void @_ZSt16forward_as_tupleIJEESt5tupleIJDpOT_EES3_() #3
  call void @_ZN4absl12lts_2023080218container_internal12raw_hash_setINS1_17FlatHashMapPolicyISt17basic_string_viewIcSt11char_traitsIcEENSt7__cxx1112basic_stringIcS6_SaIcEEEEENS1_10StringHashENS1_8StringEqESaISt4pairIKS7_SB_EEE10emplace_atIJRKSt21piecewise_construct_tSt5tupleIJRA8_KcEESO_IJEEEEEvmDpOT_(ptr noundef nonnull align 8 dereferenceable(32) %this1, i64 noundef %6, ptr noundef nonnull align 1 dereferenceable(1) @_ZSt19piecewise_construct, ptr noundef nonnull align 8 dereferenceable(8) %ref.tmp, ptr noundef nonnull align 1 dereferenceable(1) %ref.tmp2)
  br label %if.end

if.end:                                           ; preds = %if.then, %entry
  %first4 = getelementptr inbounds %"struct.std::pair.44", ptr %res, i32 0, i32 0
  %8 = load i64, ptr %first4, align 8
  %call5 = call { ptr, ptr } @_ZN4absl12lts_2023080218container_internal12raw_hash_setINS1_17FlatHashMapPolicyISt17basic_string_viewIcSt11char_traitsIcEENSt7__cxx1112basic_stringIcS6_SaIcEEEEENS1_10StringHashENS1_8StringEqESaISt4pairIKS7_SB_EEE11iterator_atEm(ptr noundef nonnull align 8 dereferenceable(32) %this1, i64 noundef %8)
  %9 = getelementptr inbounds { ptr, ptr }, ptr %ref.tmp3, i32 0, i32 0
  %10 = extractvalue { ptr, ptr } %call5, 0
  store ptr %10, ptr %9, align 8
  %11 = getelementptr inbounds { ptr, ptr }, ptr %ref.tmp3, i32 0, i32 1
  %12 = extractvalue { ptr, ptr } %call5, 1
  store ptr %12, ptr %11, align 8
  %second6 = getelementptr inbounds %"struct.std::pair.44", ptr %res, i32 0, i32 1
  call void @_ZNSt4pairIN4absl12lts_2023080218container_internal12raw_hash_setINS2_17FlatHashMapPolicyISt17basic_string_viewIcSt11char_traitsIcEENSt7__cxx1112basic_stringIcS7_SaIcEEEEENS2_10StringHashENS2_8StringEqESaIS_IKS8_SC_EEE8iteratorEbEC2ISK_RbTnNSt9enable_ifIXaaclsr5_PCCPE22_MoveConstructiblePairIT_T0_EEclsr5_PCCPE30_ImplicitlyMoveConvertiblePairISP_SQ_EEEbE4typeELb1EEEOSP_OSQ_(ptr noundef nonnull align 8 dereferenceable(17) %agg.result, ptr noundef nonnull align 8 dereferenceable(16) %ref.tmp3, ptr noundef nonnull align 1 dereferenceable(1) %second6)
  ret void
}

; Function Attrs: mustprogress uwtable
define linkonce_odr hidden { i64, i8 } @_ZN4absl12lts_2023080218container_internal12raw_hash_setINS1_17FlatHashMapPolicyISt17basic_string_viewIcSt11char_traitsIcEENSt7__cxx1112basic_stringIcS6_SaIcEEEEENS1_10StringHashENS1_8StringEqESaISt4pairIKS7_SB_EEE22find_or_prepare_insertIA8_cEESF_ImbERKT_(ptr noundef nonnull align 8 dereferenceable(32) %this, ptr noundef nonnull align 1 dereferenceable(8) %key) #4 comdat align 2 {
entry:
  %retval = alloca %"struct.std::pair.44", align 8
  %this.addr = alloca ptr, align 8
  %key.addr = alloca ptr, align 8
  %hash = alloca i64, align 8
  %agg.tmp = alloca %"class.std::basic_string_view", align 8
  %seq = alloca %"class.absl::lts_20230802::container_internal::probe_seq", align 8
  %ctrl = alloca ptr, align 8
  %g = alloca %"struct.absl::lts_20230802::container_internal::GroupSse2Impl", align 16
  %__range5 = alloca ptr, align 8
  %ref.tmp = alloca %"class.absl::lts_20230802::container_internal::BitMask", align 4
  %__begin0 = alloca %"class.absl::lts_20230802::container_internal::BitMask", align 4
  %__end0 = alloca %"class.absl::lts_20230802::container_internal::BitMask", align 4
  %i = alloca i32, align 4
  %ref.tmp17 = alloca %"struct.absl::lts_20230802::container_internal::raw_hash_set<absl::lts_20230802::container_internal::FlatHashMapPolicy<std::basic_string_view<char>, std::__cxx11::basic_string<char>>, absl::lts_20230802::container_internal::StringHash, absl::lts_20230802::container_internal::StringEq, std::allocator<std::pair<const std::basic_string_view<char>, std::__cxx11::basic_string<char>>>>::EqualElement", align 8
  %ref.tmp25 = alloca i64, align 8
  %ref.tmp28 = alloca i8, align 1
  %ref.tmp30 = alloca %"class.absl::lts_20230802::container_internal::NonIterableBitMask", align 4
  %ref.tmp37 = alloca i64, align 8
  %ref.tmp39 = alloca i8, align 1
  store ptr %this, ptr %this.addr, align 8
  store ptr %key, ptr %key.addr, align 8
  %this1 = load ptr, ptr %this.addr, align 8
  call void @_ZNK4absl12lts_2023080218container_internal12raw_hash_setINS1_17FlatHashMapPolicyISt17basic_string_viewIcSt11char_traitsIcEENSt7__cxx1112basic_stringIcS6_SaIcEEEEENS1_10StringHashENS1_8StringEqESaISt4pairIKS7_SB_EEE19prefetch_heap_blockEv(ptr noundef nonnull align 8 dereferenceable(32) %this1)
  %call = call noundef nonnull align 1 dereferenceable(1) ptr @_ZN4absl12lts_2023080218container_internal12raw_hash_setINS1_17FlatHashMapPolicyISt17basic_string_viewIcSt11char_traitsIcEENSt7__cxx1112basic_stringIcS6_SaIcEEEEENS1_10StringHashENS1_8StringEqESaISt4pairIKS7_SB_EEE8hash_refEv(ptr noundef nonnull align 8 dereferenceable(32) %this1)
  %0 = load ptr, ptr %key.addr, align 8
  %arraydecay = getelementptr inbounds [8 x i8], ptr %0, i64 0, i64 0
  call void @_ZNSt17basic_string_viewIcSt11char_traitsIcEEC2EPKc(ptr noundef nonnull align 8 dereferenceable(16) %agg.tmp, ptr noundef %arraydecay) #3
  %1 = getelementptr inbounds { i64, ptr }, ptr %agg.tmp, i32 0, i32 0
  %2 = load i64, ptr %1, align 8
  %3 = getelementptr inbounds { i64, ptr }, ptr %agg.tmp, i32 0, i32 1
  %4 = load ptr, ptr %3, align 8
  %call2 = call noundef i64 @_ZNK4absl12lts_2023080218container_internal10StringHashclESt17basic_string_viewIcSt11char_traitsIcEE(ptr noundef nonnull align 1 dereferenceable(1) %call, i64 %2, ptr %4)
  store i64 %call2, ptr %hash, align 8
  %call3 = call noundef nonnull align 8 dereferenceable(32) ptr @_ZN4absl12lts_2023080218container_internal12raw_hash_setINS1_17FlatHashMapPolicyISt17basic_string_viewIcSt11char_traitsIcEENSt7__cxx1112basic_stringIcS6_SaIcEEEEENS1_10StringHashENS1_8StringEqESaISt4pairIKS7_SB_EEE6commonEv(ptr noundef nonnull align 8 dereferenceable(32) %this1)
  %5 = load i64, ptr %hash, align 8
  call void @_ZN4absl12lts_2023080218container_internal5probeERKNS1_12CommonFieldsEm(ptr sret(%"class.absl::lts_20230802::container_internal::probe_seq") align 8 %seq, ptr noundef nonnull align 8 dereferenceable(32) %call3, i64 noundef %5)
  %call4 = call noundef ptr @_ZNK4absl12lts_2023080218container_internal12raw_hash_setINS1_17FlatHashMapPolicyISt17basic_string_viewIcSt11char_traitsIcEENSt7__cxx1112basic_stringIcS6_SaIcEEEEENS1_10StringHashENS1_8StringEqESaISt4pairIKS7_SB_EEE7controlEv(ptr noundef nonnull align 8 dereferenceable(32) %this1)
  store ptr %call4, ptr %ctrl, align 8
  br label %while.body

while.body:                                       ; preds = %if.end36, %entry
  %6 = load ptr, ptr %ctrl, align 8
  %call5 = call noundef i64 @_ZNK4absl12lts_2023080218container_internal9probe_seqILm16EE6offsetEv(ptr noundef nonnull align 8 dereferenceable(24) %seq)
  %add.ptr = getelementptr inbounds i8, ptr %6, i64 %call5
  call void @_ZN4absl12lts_2023080218container_internal13GroupSse2ImplC2EPKNS1_6ctrl_tE(ptr noundef nonnull align 16 dereferenceable(16) %g, ptr noundef %add.ptr)
  %7 = load i64, ptr %hash, align 8
  %call6 = call noundef zeroext i8 @_ZN4absl12lts_2023080218container_internal2H2Em(i64 noundef %7)
  %call7 = call i32 @_ZNK4absl12lts_2023080218container_internal13GroupSse2Impl5MatchEh(ptr noundef nonnull align 16 dereferenceable(16) %g, i8 noundef zeroext %call6)
  %coerce.dive = getelementptr inbounds %"class.absl::lts_20230802::container_internal::BitMask", ptr %ref.tmp, i32 0, i32 0
  %coerce.dive8 = getelementptr inbounds %"class.absl::lts_20230802::container_internal::NonIterableBitMask", ptr %coerce.dive, i32 0, i32 0
  store i32 %call7, ptr %coerce.dive8, align 4
  store ptr %ref.tmp, ptr %__range5, align 8
  %8 = load ptr, ptr %__range5, align 8
  %call9 = call i32 @_ZNK4absl12lts_2023080218container_internal7BitMaskIjLi16ELi0EE5beginEv(ptr noundef nonnull align 4 dereferenceable(4) %8)
  %coerce.dive10 = getelementptr inbounds %"class.absl::lts_20230802::container_internal::BitMask", ptr %__begin0, i32 0, i32 0
  %coerce.dive11 = getelementptr inbounds %"class.absl::lts_20230802::container_internal::NonIterableBitMask", ptr %coerce.dive10, i32 0, i32 0
  store i32 %call9, ptr %coerce.dive11, align 4
  %9 = load ptr, ptr %__range5, align 8
  %call12 = call i32 @_ZNK4absl12lts_2023080218container_internal7BitMaskIjLi16ELi0EE3endEv(ptr noundef nonnull align 4 dereferenceable(4) %9)
  %coerce.dive13 = getelementptr inbounds %"class.absl::lts_20230802::container_internal::BitMask", ptr %__end0, i32 0, i32 0
  %coerce.dive14 = getelementptr inbounds %"class.absl::lts_20230802::container_internal::NonIterableBitMask", ptr %coerce.dive13, i32 0, i32 0
  store i32 %call12, ptr %coerce.dive14, align 4
  br label %for.cond

for.cond:                                         ; preds = %for.inc, %while.body
  %call15 = call noundef zeroext i1 @_ZN4absl12lts_2023080218container_internalneERKNS1_7BitMaskIjLi16ELi0EEES5_(ptr noundef nonnull align 4 dereferenceable(4) %__begin0, ptr noundef nonnull align 4 dereferenceable(4) %__end0)
  br i1 %call15, label %for.body, label %for.end

for.body:                                         ; preds = %for.cond
  %call16 = call noundef i32 @_ZNK4absl12lts_2023080218container_internal7BitMaskIjLi16ELi0EEdeEv(ptr noundef nonnull align 4 dereferenceable(4) %__begin0)
  store i32 %call16, ptr %i, align 4
  %rhs = getelementptr inbounds %"struct.absl::lts_20230802::container_internal::raw_hash_set<absl::lts_20230802::container_internal::FlatHashMapPolicy<std::basic_string_view<char>, std::__cxx11::basic_string<char>>, absl::lts_20230802::container_internal::StringHash, absl::lts_20230802::container_internal::StringEq, std::allocator<std::pair<const std::basic_string_view<char>, std::__cxx11::basic_string<char>>>>::EqualElement", ptr %ref.tmp17, i32 0, i32 0
  %10 = load ptr, ptr %key.addr, align 8
  store ptr %10, ptr %rhs, align 8
  %eq = getelementptr inbounds %"struct.absl::lts_20230802::container_internal::raw_hash_set<absl::lts_20230802::container_internal::FlatHashMapPolicy<std::basic_string_view<char>, std::__cxx11::basic_string<char>>, absl::lts_20230802::container_internal::StringHash, absl::lts_20230802::container_internal::StringEq, std::allocator<std::pair<const std::basic_string_view<char>, std::__cxx11::basic_string<char>>>>::EqualElement", ptr %ref.tmp17, i32 0, i32 1
  %call18 = call noundef nonnull align 1 dereferenceable(1) ptr @_ZN4absl12lts_2023080218container_internal12raw_hash_setINS1_17FlatHashMapPolicyISt17basic_string_viewIcSt11char_traitsIcEENSt7__cxx1112basic_stringIcS6_SaIcEEEEENS1_10StringHashENS1_8StringEqESaISt4pairIKS7_SB_EEE6eq_refEv(ptr noundef nonnull align 8 dereferenceable(32) %this1)
  store ptr %call18, ptr %eq, align 8
  %call19 = call noundef ptr @_ZNK4absl12lts_2023080218container_internal12raw_hash_setINS1_17FlatHashMapPolicyISt17basic_string_viewIcSt11char_traitsIcEENSt7__cxx1112basic_stringIcS6_SaIcEEEEENS1_10StringHashENS1_8StringEqESaISt4pairIKS7_SB_EEE10slot_arrayEv(ptr noundef nonnull align 8 dereferenceable(32) %this1)
  %11 = load i32, ptr %i, align 4
  %conv = zext i32 %11 to i64
  %call20 = call noundef i64 @_ZNK4absl12lts_2023080218container_internal9probe_seqILm16EE6offsetEm(ptr noundef nonnull align 8 dereferenceable(24) %seq, i64 noundef %conv)
  %add.ptr21 = getelementptr inbounds %"union.absl::lts_20230802::container_internal::map_slot_type", ptr %call19, i64 %call20
  %call22 = call noundef nonnull align 8 dereferenceable(48) ptr @_ZN4absl12lts_2023080218container_internal20common_policy_traitsINS1_17FlatHashMapPolicyISt17basic_string_viewIcSt11char_traitsIcEENSt7__cxx1112basic_stringIcS6_SaIcEEEEEvE7elementISC_EEDTclsrT_7elementfp_EEPNS1_13map_slot_typeIS7_SB_EE(ptr noundef %add.ptr21)
  %call23 = call noundef zeroext i1 @_ZN4absl12lts_2023080218container_internal18hash_policy_traitsINS1_17FlatHashMapPolicyISt17basic_string_viewIcSt11char_traitsIcEENSt7__cxx1112basic_stringIcS6_SaIcEEEEEvE5applyINS1_12raw_hash_setISC_NS1_10StringHashENS1_8StringEqESaISt4pairIKS7_SB_EEE12EqualElementIA8_cEEJRSK_ESC_EEDTclsrT1_5applyclsr3stdE7forwardIT_Efp_Espclsr3stdE7forwardIT0_Efp0_EEEOSS_DpOST_(ptr noundef nonnull align 8 dereferenceable(16) %ref.tmp17, ptr noundef nonnull align 8 dereferenceable(48) %call22)
  br i1 %call23, label %if.then, label %if.end

if.then:                                          ; preds = %for.body
  %12 = load i32, ptr %i, align 4
  %conv26 = zext i32 %12 to i64
  %call27 = call noundef i64 @_ZNK4absl12lts_2023080218container_internal9probe_seqILm16EE6offsetEm(ptr noundef nonnull align 8 dereferenceable(24) %seq, i64 noundef %conv26)
  store i64 %call27, ptr %ref.tmp25, align 8
  store i8 0, ptr %ref.tmp28, align 1
  call void @_ZNSt4pairImbEC2ImbTnNSt9enable_ifIXaaclsr5_PCCPE22_MoveConstructiblePairIT_T0_EEclsr5_PCCPE30_ImplicitlyMoveConvertiblePairIS3_S4_EEEbE4typeELb1EEEOS3_OS4_(ptr noundef nonnull align 8 dereferenceable(9) %retval, ptr noundef nonnull align 8 dereferenceable(8) %ref.tmp25, ptr noundef nonnull align 1 dereferenceable(1) %ref.tmp28)
  br label %return

if.end:                                           ; preds = %for.body
  br label %for.inc

for.inc:                                          ; preds = %if.end
  %call29 = call noundef nonnull align 4 dereferenceable(4) ptr @_ZN4absl12lts_2023080218container_internal7BitMaskIjLi16ELi0EEppEv(ptr noundef nonnull align 4 dereferenceable(4) %__begin0)
  br label %for.cond

for.end:                                          ; preds = %for.cond
  %call31 = call i32 @_ZNK4absl12lts_2023080218container_internal13GroupSse2Impl9MaskEmptyEv(ptr noundef nonnull align 16 dereferenceable(16) %g)
  %coerce.dive32 = getelementptr inbounds %"class.absl::lts_20230802::container_internal::NonIterableBitMask", ptr %ref.tmp30, i32 0, i32 0
  store i32 %call31, ptr %coerce.dive32, align 4
  %call33 = call noundef zeroext i1 @_ZNK4absl12lts_2023080218container_internal18NonIterableBitMaskIjLi16ELi0EEcvbEv(ptr noundef nonnull align 4 dereferenceable(4) %ref.tmp30)
  br i1 %call33, label %if.then35, label %if.end36

if.then35:                                        ; preds = %for.end
  br label %while.end

if.end36:                                         ; preds = %for.end
  call void @_ZN4absl12lts_2023080218container_internal9probe_seqILm16EE4nextEv(ptr noundef nonnull align 8 dereferenceable(24) %seq)
  br label %while.body, !llvm.loop !4

while.end:                                        ; preds = %if.then35
  %13 = load i64, ptr %hash, align 8
  %call38 = call noundef i64 @_ZN4absl12lts_2023080218container_internal12raw_hash_setINS1_17FlatHashMapPolicyISt17basic_string_viewIcSt11char_traitsIcEENSt7__cxx1112basic_stringIcS6_SaIcEEEEENS1_10StringHashENS1_8StringEqESaISt4pairIKS7_SB_EEE14prepare_insertEm(ptr noundef nonnull align 8 dereferenceable(32) %this1, i64 noundef %13)
  store i64 %call38, ptr %ref.tmp37, align 8
  store i8 1, ptr %ref.tmp39, align 1
  call void @_ZNSt4pairImbEC2ImbTnNSt9enable_ifIXaaclsr5_PCCPE22_MoveConstructiblePairIT_T0_EEclsr5_PCCPE30_ImplicitlyMoveConvertiblePairIS3_S4_EEEbE4typeELb1EEEOS3_OS4_(ptr noundef nonnull align 8 dereferenceable(9) %retval, ptr noundef nonnull align 8 dereferenceable(8) %ref.tmp37, ptr noundef nonnull align 1 dereferenceable(1) %ref.tmp39)
  br label %return

return:                                           ; preds = %while.end, %if.then
  %14 = load { i64, i8 }, ptr %retval, align 8
  ret { i64, i8 } %14
}

; Function Attrs: mustprogress uwtable
define linkonce_odr hidden void @_ZN4absl12lts_2023080218container_internal12raw_hash_setINS1_17FlatHashMapPolicyISt17basic_string_viewIcSt11char_traitsIcEENSt7__cxx1112basic_stringIcS6_SaIcEEEEENS1_10StringHashENS1_8StringEqESaISt4pairIKS7_SB_EEE10emplace_atIJRKSt21piecewise_construct_tSt5tupleIJRA8_KcEESO_IJEEEEEvmDpOT_(ptr noundef nonnull align 8 dereferenceable(32) %this, i64 noundef %i, ptr noundef nonnull align 1 dereferenceable(1) %args, ptr noundef nonnull align 8 dereferenceable(8) %args1, ptr noundef nonnull align 1 dereferenceable(1) %args3) #4 comdat align 2 {
entry:
  %this.addr = alloca ptr, align 8
  %i.addr = alloca i64, align 8
  %args.addr = alloca ptr, align 8
  %args.addr2 = alloca ptr, align 8
  %args.addr4 = alloca ptr, align 8
  store ptr %this, ptr %this.addr, align 8
  store i64 %i, ptr %i.addr, align 8
  store ptr %args, ptr %args.addr, align 8
  store ptr %args1, ptr %args.addr2, align 8
  store ptr %args3, ptr %args.addr4, align 8
  %this5 = load ptr, ptr %this.addr, align 8
  %call = call noundef nonnull align 1 dereferenceable(1) ptr @_ZN4absl12lts_2023080218container_internal12raw_hash_setINS1_17FlatHashMapPolicyISt17basic_string_viewIcSt11char_traitsIcEENSt7__cxx1112basic_stringIcS6_SaIcEEEEENS1_10StringHashENS1_8StringEqESaISt4pairIKS7_SB_EEE9alloc_refEv(ptr noundef nonnull align 8 dereferenceable(32) %this5)
  %call6 = call noundef ptr @_ZNK4absl12lts_2023080218container_internal12raw_hash_setINS1_17FlatHashMapPolicyISt17basic_string_viewIcSt11char_traitsIcEENSt7__cxx1112basic_stringIcS6_SaIcEEEEENS1_10StringHashENS1_8StringEqESaISt4pairIKS7_SB_EEE10slot_arrayEv(ptr noundef nonnull align 8 dereferenceable(32) %this5)
  %0 = load i64, ptr %i.addr, align 8
  %add.ptr = getelementptr inbounds %"union.absl::lts_20230802::container_internal::map_slot_type", ptr %call6, i64 %0
  %1 = load ptr, ptr %args.addr, align 8
  %2 = load ptr, ptr %args.addr2, align 8
  %3 = load ptr, ptr %args.addr4, align 8
  call void @_ZN4absl12lts_2023080218container_internal20common_policy_traitsINS1_17FlatHashMapPolicyISt17basic_string_viewIcSt11char_traitsIcEENSt7__cxx1112basic_stringIcS6_SaIcEEEEEvE9constructISaISt4pairIKS7_SB_EEJRKSt21piecewise_construct_tSt5tupleIJRA8_KcEESM_IJEEEEEvPT_PNS1_13map_slot_typeIS7_SB_EEDpOT0_(ptr noundef %call, ptr noundef %add.ptr, ptr noundef nonnull align 1 dereferenceable(1) %1, ptr noundef nonnull align 8 dereferenceable(8) %2, ptr noundef nonnull align 1 dereferenceable(1) %3)
  ret void
}

; Function Attrs: mustprogress nounwind uwtable
define linkonce_odr void @_ZSt16forward_as_tupleIJRA8_KcEESt5tupleIJDpOT_EES6_(ptr noalias sret(%"class.std::tuple.47") align 8 %agg.result, ptr noundef nonnull align 1 dereferenceable(8) %__args) #5 comdat {
entry:
  %result.ptr = alloca ptr, align 8
  %__args.addr = alloca ptr, align 8
  store ptr %agg.result, ptr %result.ptr, align 8
  store ptr %__args, ptr %__args.addr, align 8
  %0 = load ptr, ptr %__args.addr, align 8
  call void @_ZNSt5tupleIJRA8_KcEEC2ILb1ETnNSt9enable_ifIXclsr4_TCCIXT_EEE29__is_implicitly_constructibleIS2_EEEbE4typeELb1EEES2_(ptr noundef nonnull align 8 dereferenceable(8) %agg.result, ptr noundef nonnull align 1 dereferenceable(8) %0) #3
  ret void
}

; Function Attrs: mustprogress nounwind uwtable
define linkonce_odr void @_ZSt16forward_as_tupleIJEESt5tupleIJDpOT_EES3_() #5 comdat {
entry:
  ret void
}

; Function Attrs: mustprogress uwtable
define linkonce_odr hidden { ptr, ptr } @_ZN4absl12lts_2023080218container_internal12raw_hash_setINS1_17FlatHashMapPolicyISt17basic_string_viewIcSt11char_traitsIcEENSt7__cxx1112basic_stringIcS6_SaIcEEEEENS1_10StringHashENS1_8StringEqESaISt4pairIKS7_SB_EEE11iterator_atEm(ptr noundef nonnull align 8 dereferenceable(32) %this, i64 noundef %i) #4 comdat align 2 {
entry:
  %retval = alloca %"class.absl::lts_20230802::container_internal::raw_hash_set<absl::lts_20230802::container_internal::FlatHashMapPolicy<std::basic_string_view<char>, std::__cxx11::basic_string<char>>, absl::lts_20230802::container_internal::StringHash, absl::lts_20230802::container_internal::StringEq, std::allocator<std::pair<const std::basic_string_view<char>, std::__cxx11::basic_string<char>>>>::iterator", align 8
  %this.addr = alloca ptr, align 8
  %i.addr = alloca i64, align 8
  store ptr %this, ptr %this.addr, align 8
  store i64 %i, ptr %i.addr, align 8
  %this1 = load ptr, ptr %this.addr, align 8
  %call = call noundef ptr @_ZNK4absl12lts_2023080218container_internal12raw_hash_setINS1_17FlatHashMapPolicyISt17basic_string_viewIcSt11char_traitsIcEENSt7__cxx1112basic_stringIcS6_SaIcEEEEENS1_10StringHashENS1_8StringEqESaISt4pairIKS7_SB_EEE7controlEv(ptr noundef nonnull align 8 dereferenceable(32) %this1)
  %0 = load i64, ptr %i.addr, align 8
  %add.ptr = getelementptr inbounds i8, ptr %call, i64 %0
  %call2 = call noundef ptr @_ZNK4absl12lts_2023080218container_internal12raw_hash_setINS1_17FlatHashMapPolicyISt17basic_string_viewIcSt11char_traitsIcEENSt7__cxx1112basic_stringIcS6_SaIcEEEEENS1_10StringHashENS1_8StringEqESaISt4pairIKS7_SB_EEE10slot_arrayEv(ptr noundef nonnull align 8 dereferenceable(32) %this1)
  %1 = load i64, ptr %i.addr, align 8
  %add.ptr3 = getelementptr inbounds %"union.absl::lts_20230802::container_internal::map_slot_type", ptr %call2, i64 %1
  %call4 = call noundef nonnull align 8 dereferenceable(32) ptr @_ZN4absl12lts_2023080218container_internal12raw_hash_setINS1_17FlatHashMapPolicyISt17basic_string_viewIcSt11char_traitsIcEENSt7__cxx1112basic_stringIcS6_SaIcEEEEENS1_10StringHashENS1_8StringEqESaISt4pairIKS7_SB_EEE6commonEv(ptr noundef nonnull align 8 dereferenceable(32) %this1)
  %call5 = call noundef ptr @_ZNK4absl12lts_2023080218container_internal34CommonFieldsGenerationInfoDisabled14generation_ptrEv(ptr noundef nonnull align 1 dereferenceable(1) %call4)
  call void @_ZN4absl12lts_2023080218container_internal12raw_hash_setINS1_17FlatHashMapPolicyISt17basic_string_viewIcSt11char_traitsIcEENSt7__cxx1112basic_stringIcS6_SaIcEEEEENS1_10StringHashENS1_8StringEqESaISt4pairIKS7_SB_EEE8iteratorC2EPNS1_6ctrl_tEPNS1_13map_slot_typeIS7_SB_EEPKh(ptr noundef nonnull align 8 dereferenceable(16) %retval, ptr noundef %add.ptr, ptr noundef %add.ptr3, ptr noundef %call5)
  %2 = load { ptr, ptr }, ptr %retval, align 8
  ret { ptr, ptr } %2
}

; Function Attrs: mustprogress nounwind uwtable
define linkonce_odr hidden void @_ZNSt4pairIN4absl12lts_2023080218container_internal12raw_hash_setINS2_17FlatHashMapPolicyISt17basic_string_viewIcSt11char_traitsIcEENSt7__cxx1112basic_stringIcS7_SaIcEEEEENS2_10StringHashENS2_8StringEqESaIS_IKS8_SC_EEE8iteratorEbEC2ISK_RbTnNSt9enable_ifIXaaclsr5_PCCPE22_MoveConstructiblePairIT_T0_EEclsr5_PCCPE30_ImplicitlyMoveConvertiblePairISP_SQ_EEEbE4typeELb1EEEOSP_OSQ_(ptr noundef nonnull align 8 dereferenceable(17) %this, ptr noundef nonnull align 8 dereferenceable(16) %__x, ptr noundef nonnull align 1 dereferenceable(1) %__y) unnamed_addr #5 comdat align 2 {
entry:
  %this.addr = alloca ptr, align 8
  %__x.addr = alloca ptr, align 8
  %__y.addr = alloca ptr, align 8
  store ptr %this, ptr %this.addr, align 8
  store ptr %__x, ptr %__x.addr, align 8
  store ptr %__y, ptr %__y.addr, align 8
  %this1 = load ptr, ptr %this.addr, align 8
  %first = getelementptr inbounds %"struct.std::pair", ptr %this1, i32 0, i32 0
  %0 = load ptr, ptr %__x.addr, align 8
  call void @llvm.memcpy.p0.p0.i64(ptr align 8 %first, ptr align 8 %0, i64 16, i1 false)
  %second = getelementptr inbounds %"struct.std::pair", ptr %this1, i32 0, i32 1
  %1 = load ptr, ptr %__y.addr, align 8
  %2 = load i8, ptr %1, align 1
  %tobool = trunc i8 %2 to i1
  %frombool = zext i1 %tobool to i8
  store i8 %frombool, ptr %second, align 8
  ret void
}

; Function Attrs: mustprogress uwtable
define linkonce_odr hidden void @_ZNK4absl12lts_2023080218container_internal12raw_hash_setINS1_17FlatHashMapPolicyISt17basic_string_viewIcSt11char_traitsIcEENSt7__cxx1112basic_stringIcS6_SaIcEEEEENS1_10StringHashENS1_8StringEqESaISt4pairIKS7_SB_EEE19prefetch_heap_blockEv(ptr noundef nonnull align 8 dereferenceable(32) %this) #4 comdat align 2 {
entry:
  %this.addr = alloca ptr, align 8
  store ptr %this, ptr %this.addr, align 8
  %this1 = load ptr, ptr %this.addr, align 8
  %call = call noundef ptr @_ZNK4absl12lts_2023080218container_internal12raw_hash_setINS1_17FlatHashMapPolicyISt17basic_string_viewIcSt11char_traitsIcEENSt7__cxx1112basic_stringIcS6_SaIcEEEEENS1_10StringHashENS1_8StringEqESaISt4pairIKS7_SB_EEE7controlEv(ptr noundef nonnull align 8 dereferenceable(32) %this1)
  call void @llvm.prefetch.p0(ptr %call, i32 0, i32 1, i32 1)
  ret void
}

; Function Attrs: mustprogress uwtable
define linkonce_odr hidden noundef nonnull align 1 dereferenceable(1) ptr @_ZN4absl12lts_2023080218container_internal12raw_hash_setINS1_17FlatHashMapPolicyISt17basic_string_viewIcSt11char_traitsIcEENSt7__cxx1112basic_stringIcS6_SaIcEEEEENS1_10StringHashENS1_8StringEqESaISt4pairIKS7_SB_EEE8hash_refEv(ptr noundef nonnull align 8 dereferenceable(32) %this) #4 comdat align 2 {
entry:
  %this.addr = alloca ptr, align 8
  store ptr %this, ptr %this.addr, align 8
  %this1 = load ptr, ptr %this.addr, align 8
  %settings_ = getelementptr inbounds %"class.absl::lts_20230802::container_internal::raw_hash_set.28", ptr %this1, i32 0, i32 0
  %call = call noundef nonnull align 1 dereferenceable(1) ptr @_ZNR4absl12lts_2023080218container_internal15CompressedTupleIJNS1_12CommonFieldsENS1_10StringHashENS1_8StringEqESaISt4pairIKSt17basic_string_viewIcSt11char_traitsIcEENSt7__cxx1112basic_stringIcS9_SaIcEEEEEEE3getILi1EEERNS1_25internal_compressed_tuple4ElemISI_XT_EE4typeEv(ptr noundef nonnull align 8 dereferenceable(32) %settings_)
  ret ptr %call
}

; Function Attrs: mustprogress uwtable
define linkonce_odr hidden noundef i64 @_ZNK4absl12lts_2023080218container_internal10StringHashclESt17basic_string_viewIcSt11char_traitsIcEE(ptr noundef nonnull align 1 dereferenceable(1) %this, i64 %v.coerce0, ptr %v.coerce1) #4 comdat align 2 {
entry:
  %v = alloca %"class.std::basic_string_view", align 8
  %this.addr = alloca ptr, align 8
  %ref.tmp = alloca %"struct.absl::lts_20230802::hash_internal::Hash", align 1
  %0 = getelementptr inbounds { i64, ptr }, ptr %v, i32 0, i32 0
  store i64 %v.coerce0, ptr %0, align 8
  %1 = getelementptr inbounds { i64, ptr }, ptr %v, i32 0, i32 1
  store ptr %v.coerce1, ptr %1, align 8
  store ptr %this, ptr %this.addr, align 8
  %call = call noundef i64 @_ZNK4absl12lts_2023080213hash_internal8HashImplISt17basic_string_viewIcSt11char_traitsIcEEEclERKS6_(ptr noundef nonnull align 1 dereferenceable(1) %ref.tmp, ptr noundef nonnull align 8 dereferenceable(16) %v)
  ret i64 %call
}

; Function Attrs: mustprogress uwtable
define linkonce_odr hidden void @_ZN4absl12lts_2023080218container_internal5probeERKNS1_12CommonFieldsEm(ptr noalias sret(%"class.absl::lts_20230802::container_internal::probe_seq") align 8 %agg.result, ptr noundef nonnull align 8 dereferenceable(32) %common, i64 noundef %hash) #4 comdat {
entry:
  %common.addr = alloca ptr, align 8
  %hash.addr = alloca i64, align 8
  store ptr %common, ptr %common.addr, align 8
  store i64 %hash, ptr %hash.addr, align 8
  %0 = load ptr, ptr %common.addr, align 8
  %call = call noundef ptr @_ZNK4absl12lts_2023080218container_internal12CommonFields7controlEv(ptr noundef nonnull align 8 dereferenceable(32) %0)
  %1 = load ptr, ptr %common.addr, align 8
  %call1 = call noundef i64 @_ZNK4absl12lts_2023080218container_internal12CommonFields8capacityEv(ptr noundef nonnull align 8 dereferenceable(32) %1)
  %2 = load i64, ptr %hash.addr, align 8
  call void @_ZN4absl12lts_2023080218container_internal5probeEPKNS1_6ctrl_tEmm(ptr sret(%"class.absl::lts_20230802::container_internal::probe_seq") align 8 %agg.result, ptr noundef %call, i64 noundef %call1, i64 noundef %2)
  ret void
}

; Function Attrs: mustprogress uwtable
define linkonce_odr hidden noundef nonnull align 8 dereferenceable(32) ptr @_ZN4absl12lts_2023080218container_internal12raw_hash_setINS1_17FlatHashMapPolicyISt17basic_string_viewIcSt11char_traitsIcEENSt7__cxx1112basic_stringIcS6_SaIcEEEEENS1_10StringHashENS1_8StringEqESaISt4pairIKS7_SB_EEE6commonEv(ptr noundef nonnull align 8 dereferenceable(32) %this) #4 comdat align 2 {
entry:
  %this.addr = alloca ptr, align 8
  store ptr %this, ptr %this.addr, align 8
  %this1 = load ptr, ptr %this.addr, align 8
  %settings_ = getelementptr inbounds %"class.absl::lts_20230802::container_internal::raw_hash_set.28", ptr %this1, i32 0, i32 0
  %call = call noundef nonnull align 8 dereferenceable(32) ptr @_ZNR4absl12lts_2023080218container_internal15CompressedTupleIJNS1_12CommonFieldsENS1_10StringHashENS1_8StringEqESaISt4pairIKSt17basic_string_viewIcSt11char_traitsIcEENSt7__cxx1112basic_stringIcS9_SaIcEEEEEEE3getILi0EEERNS1_25internal_compressed_tuple4ElemISI_XT_EE4typeEv(ptr noundef nonnull align 8 dereferenceable(32) %settings_)
  ret ptr %call
}

; Function Attrs: mustprogress uwtable
define linkonce_odr hidden noundef ptr @_ZNK4absl12lts_2023080218container_internal12raw_hash_setINS1_17FlatHashMapPolicyISt17basic_string_viewIcSt11char_traitsIcEENSt7__cxx1112basic_stringIcS6_SaIcEEEEENS1_10StringHashENS1_8StringEqESaISt4pairIKS7_SB_EEE7controlEv(ptr noundef nonnull align 8 dereferenceable(32) %this) #4 comdat align 2 {
entry:
  %this.addr = alloca ptr, align 8
  store ptr %this, ptr %this.addr, align 8
  %this1 = load ptr, ptr %this.addr, align 8
  %call = call noundef nonnull align 8 dereferenceable(32) ptr @_ZNK4absl12lts_2023080218container_internal12raw_hash_setINS1_17FlatHashMapPolicyISt17basic_string_viewIcSt11char_traitsIcEENSt7__cxx1112basic_stringIcS6_SaIcEEEEENS1_10StringHashENS1_8StringEqESaISt4pairIKS7_SB_EEE6commonEv(ptr noundef nonnull align 8 dereferenceable(32) %this1)
  %call2 = call noundef ptr @_ZNK4absl12lts_2023080218container_internal12CommonFields7controlEv(ptr noundef nonnull align 8 dereferenceable(32) %call)
  ret ptr %call2
}

; Function Attrs: mustprogress nounwind uwtable
define linkonce_odr hidden noundef i64 @_ZNK4absl12lts_2023080218container_internal9probe_seqILm16EE6offsetEv(ptr noundef nonnull align 8 dereferenceable(24) %this) #5 comdat align 2 {
entry:
  %this.addr = alloca ptr, align 8
  store ptr %this, ptr %this.addr, align 8
  %this1 = load ptr, ptr %this.addr, align 8
  %offset_ = getelementptr inbounds %"class.absl::lts_20230802::container_internal::probe_seq", ptr %this1, i32 0, i32 1
  %0 = load i64, ptr %offset_, align 8
  ret i64 %0
}

; Function Attrs: mustprogress uwtable
define linkonce_odr hidden void @_ZN4absl12lts_2023080218container_internal13GroupSse2ImplC2EPKNS1_6ctrl_tE(ptr noundef nonnull align 16 dereferenceable(16) %this, ptr noundef %pos) unnamed_addr #9 comdat align 2 {
entry:
  %__p.addr.i = alloca ptr, align 8
  %this.addr = alloca ptr, align 8
  %pos.addr = alloca ptr, align 8
  store ptr %this, ptr %this.addr, align 8
  store ptr %pos, ptr %pos.addr, align 8
  %this1 = load ptr, ptr %this.addr, align 8
  %0 = load ptr, ptr %pos.addr, align 8
  store ptr %0, ptr %__p.addr.i, align 8
  %1 = load ptr, ptr %__p.addr.i, align 8
  %2 = load <2 x i64>, ptr %1, align 1
  %ctrl = getelementptr inbounds %"struct.absl::lts_20230802::container_internal::GroupSse2Impl", ptr %this1, i32 0, i32 0
  store <2 x i64> %2, ptr %ctrl, align 16
  ret void
}

; Function Attrs: mustprogress uwtable
define linkonce_odr hidden i32 @_ZNK4absl12lts_2023080218container_internal13GroupSse2Impl5MatchEh(ptr noundef nonnull align 16 dereferenceable(16) %this, i8 noundef zeroext %hash) #9 comdat align 2 {
entry:
  %__b15.addr.i = alloca i8, align 1
  %__b14.addr.i = alloca i8, align 1
  %__b13.addr.i = alloca i8, align 1
  %__b12.addr.i = alloca i8, align 1
  %__b11.addr.i = alloca i8, align 1
  %__b10.addr.i = alloca i8, align 1
  %__b9.addr.i = alloca i8, align 1
  %__b8.addr.i = alloca i8, align 1
  %__b7.addr.i = alloca i8, align 1
  %__b6.addr.i = alloca i8, align 1
  %__b5.addr.i = alloca i8, align 1
  %__b4.addr.i = alloca i8, align 1
  %__b3.addr.i = alloca i8, align 1
  %__b2.addr.i = alloca i8, align 1
  %__b1.addr.i = alloca i8, align 1
  %__b0.addr.i = alloca i8, align 1
  %.compoundliteral.i = alloca <16 x i8>, align 16
  %__a.addr.i5 = alloca <2 x i64>, align 16
  %__b.addr.i6 = alloca <2 x i64>, align 16
  %__a.addr.i = alloca <2 x i64>, align 16
  %__b.addr.i = alloca i8, align 1
  %retval = alloca %"class.absl::lts_20230802::container_internal::BitMask", align 4
  %this.addr = alloca ptr, align 8
  %hash.addr = alloca i8, align 1
  %match = alloca <2 x i64>, align 16
  store ptr %this, ptr %this.addr, align 8
  store i8 %hash, ptr %hash.addr, align 1
  %this1 = load ptr, ptr %this.addr, align 8
  %0 = load i8, ptr %hash.addr, align 1
  store i8 %0, ptr %__b.addr.i, align 1
  %1 = load i8, ptr %__b.addr.i, align 1
  %2 = load i8, ptr %__b.addr.i, align 1
  %3 = load i8, ptr %__b.addr.i, align 1
  %4 = load i8, ptr %__b.addr.i, align 1
  %5 = load i8, ptr %__b.addr.i, align 1
  %6 = load i8, ptr %__b.addr.i, align 1
  %7 = load i8, ptr %__b.addr.i, align 1
  %8 = load i8, ptr %__b.addr.i, align 1
  %9 = load i8, ptr %__b.addr.i, align 1
  %10 = load i8, ptr %__b.addr.i, align 1
  %11 = load i8, ptr %__b.addr.i, align 1
  %12 = load i8, ptr %__b.addr.i, align 1
  %13 = load i8, ptr %__b.addr.i, align 1
  %14 = load i8, ptr %__b.addr.i, align 1
  %15 = load i8, ptr %__b.addr.i, align 1
  %16 = load i8, ptr %__b.addr.i, align 1
  store i8 %1, ptr %__b15.addr.i, align 1
  store i8 %2, ptr %__b14.addr.i, align 1
  store i8 %3, ptr %__b13.addr.i, align 1
  store i8 %4, ptr %__b12.addr.i, align 1
  store i8 %5, ptr %__b11.addr.i, align 1
  store i8 %6, ptr %__b10.addr.i, align 1
  store i8 %7, ptr %__b9.addr.i, align 1
  store i8 %8, ptr %__b8.addr.i, align 1
  store i8 %9, ptr %__b7.addr.i, align 1
  store i8 %10, ptr %__b6.addr.i, align 1
  store i8 %11, ptr %__b5.addr.i, align 1
  store i8 %12, ptr %__b4.addr.i, align 1
  store i8 %13, ptr %__b3.addr.i, align 1
  store i8 %14, ptr %__b2.addr.i, align 1
  store i8 %15, ptr %__b1.addr.i, align 1
  store i8 %16, ptr %__b0.addr.i, align 1
  %17 = load i8, ptr %__b0.addr.i, align 1
  %vecinit.i = insertelement <16 x i8> undef, i8 %17, i32 0
  %18 = load i8, ptr %__b1.addr.i, align 1
  %vecinit1.i = insertelement <16 x i8> %vecinit.i, i8 %18, i32 1
  %19 = load i8, ptr %__b2.addr.i, align 1
  %vecinit2.i = insertelement <16 x i8> %vecinit1.i, i8 %19, i32 2
  %20 = load i8, ptr %__b3.addr.i, align 1
  %vecinit3.i = insertelement <16 x i8> %vecinit2.i, i8 %20, i32 3
  %21 = load i8, ptr %__b4.addr.i, align 1
  %vecinit4.i = insertelement <16 x i8> %vecinit3.i, i8 %21, i32 4
  %22 = load i8, ptr %__b5.addr.i, align 1
  %vecinit5.i = insertelement <16 x i8> %vecinit4.i, i8 %22, i32 5
  %23 = load i8, ptr %__b6.addr.i, align 1
  %vecinit6.i = insertelement <16 x i8> %vecinit5.i, i8 %23, i32 6
  %24 = load i8, ptr %__b7.addr.i, align 1
  %vecinit7.i = insertelement <16 x i8> %vecinit6.i, i8 %24, i32 7
  %25 = load i8, ptr %__b8.addr.i, align 1
  %vecinit8.i = insertelement <16 x i8> %vecinit7.i, i8 %25, i32 8
  %26 = load i8, ptr %__b9.addr.i, align 1
  %vecinit9.i = insertelement <16 x i8> %vecinit8.i, i8 %26, i32 9
  %27 = load i8, ptr %__b10.addr.i, align 1
  %vecinit10.i = insertelement <16 x i8> %vecinit9.i, i8 %27, i32 10
  %28 = load i8, ptr %__b11.addr.i, align 1
  %vecinit11.i = insertelement <16 x i8> %vecinit10.i, i8 %28, i32 11
  %29 = load i8, ptr %__b12.addr.i, align 1
  %vecinit12.i = insertelement <16 x i8> %vecinit11.i, i8 %29, i32 12
  %30 = load i8, ptr %__b13.addr.i, align 1
  %vecinit13.i = insertelement <16 x i8> %vecinit12.i, i8 %30, i32 13
  %31 = load i8, ptr %__b14.addr.i, align 1
  %vecinit14.i = insertelement <16 x i8> %vecinit13.i, i8 %31, i32 14
  %32 = load i8, ptr %__b15.addr.i, align 1
  %vecinit15.i = insertelement <16 x i8> %vecinit14.i, i8 %32, i32 15
  store <16 x i8> %vecinit15.i, ptr %.compoundliteral.i, align 16
  %33 = load <16 x i8>, ptr %.compoundliteral.i, align 16
  %34 = bitcast <16 x i8> %33 to <2 x i64>
  store <2 x i64> %34, ptr %match, align 16
  %35 = load <2 x i64>, ptr %match, align 16
  %ctrl = getelementptr inbounds %"struct.absl::lts_20230802::container_internal::GroupSse2Impl", ptr %this1, i32 0, i32 0
  %36 = load <2 x i64>, ptr %ctrl, align 16
  store <2 x i64> %35, ptr %__a.addr.i5, align 16
  store <2 x i64> %36, ptr %__b.addr.i6, align 16
  %37 = load <2 x i64>, ptr %__a.addr.i5, align 16
  %38 = bitcast <2 x i64> %37 to <16 x i8>
  %39 = load <2 x i64>, ptr %__b.addr.i6, align 16
  %40 = bitcast <2 x i64> %39 to <16 x i8>
  %cmp.i = icmp eq <16 x i8> %38, %40
  %sext.i = sext <16 x i1> %cmp.i to <16 x i8>
  %41 = bitcast <16 x i8> %sext.i to <2 x i64>
  store <2 x i64> %41, ptr %__a.addr.i, align 16
  %42 = load <2 x i64>, ptr %__a.addr.i, align 16
  %43 = bitcast <2 x i64> %42 to <16 x i8>
  %44 = call noundef i32 @llvm.x86.sse2.pmovmskb.128(<16 x i8> %43)
  call void @_ZN4absl12lts_2023080218container_internal7BitMaskIjLi16ELi0EEC2Ej(ptr noundef nonnull align 4 dereferenceable(4) %retval, i32 noundef %44)
  %coerce.dive = getelementptr inbounds %"class.absl::lts_20230802::container_internal::BitMask", ptr %retval, i32 0, i32 0
  %coerce.dive4 = getelementptr inbounds %"class.absl::lts_20230802::container_internal::NonIterableBitMask", ptr %coerce.dive, i32 0, i32 0
  %45 = load i32, ptr %coerce.dive4, align 4
  ret i32 %45
}

; Function Attrs: mustprogress nounwind uwtable
define linkonce_odr hidden noundef zeroext i8 @_ZN4absl12lts_2023080218container_internal2H2Em(i64 noundef %hash) #5 comdat {
entry:
  %hash.addr = alloca i64, align 8
  store i64 %hash, ptr %hash.addr, align 8
  %0 = load i64, ptr %hash.addr, align 8
  %and = and i64 %0, 127
  %conv = trunc i64 %and to i8
  ret i8 %conv
}

; Function Attrs: mustprogress nounwind uwtable
define linkonce_odr hidden i32 @_ZNK4absl12lts_2023080218container_internal7BitMaskIjLi16ELi0EE5beginEv(ptr noundef nonnull align 4 dereferenceable(4) %this) #5 comdat align 2 {
entry:
  %retval = alloca %"class.absl::lts_20230802::container_internal::BitMask", align 4
  %this.addr = alloca ptr, align 8
  store ptr %this, ptr %this.addr, align 8
  %this1 = load ptr, ptr %this.addr, align 8
  call void @llvm.memcpy.p0.p0.i64(ptr align 4 %retval, ptr align 4 %this1, i64 4, i1 false)
  %coerce.dive = getelementptr inbounds %"class.absl::lts_20230802::container_internal::BitMask", ptr %retval, i32 0, i32 0
  %coerce.dive2 = getelementptr inbounds %"class.absl::lts_20230802::container_internal::NonIterableBitMask", ptr %coerce.dive, i32 0, i32 0
  %0 = load i32, ptr %coerce.dive2, align 4
  ret i32 %0
}

; Function Attrs: mustprogress uwtable
define linkonce_odr hidden i32 @_ZNK4absl12lts_2023080218container_internal7BitMaskIjLi16ELi0EE3endEv(ptr noundef nonnull align 4 dereferenceable(4) %this) #4 comdat align 2 {
entry:
  %retval = alloca %"class.absl::lts_20230802::container_internal::BitMask", align 4
  %this.addr = alloca ptr, align 8
  store ptr %this, ptr %this.addr, align 8
  call void @_ZN4absl12lts_2023080218container_internal7BitMaskIjLi16ELi0EEC2Ej(ptr noundef nonnull align 4 dereferenceable(4) %retval, i32 noundef 0)
  %coerce.dive = getelementptr inbounds %"class.absl::lts_20230802::container_internal::BitMask", ptr %retval, i32 0, i32 0
  %coerce.dive2 = getelementptr inbounds %"class.absl::lts_20230802::container_internal::NonIterableBitMask", ptr %coerce.dive, i32 0, i32 0
  %0 = load i32, ptr %coerce.dive2, align 4
  ret i32 %0
}

; Function Attrs: mustprogress nounwind uwtable
define linkonce_odr hidden noundef zeroext i1 @_ZN4absl12lts_2023080218container_internalneERKNS1_7BitMaskIjLi16ELi0EEES5_(ptr noundef nonnull align 4 dereferenceable(4) %a, ptr noundef nonnull align 4 dereferenceable(4) %b) #5 comdat {
entry:
  %a.addr = alloca ptr, align 8
  %b.addr = alloca ptr, align 8
  store ptr %a, ptr %a.addr, align 8
  store ptr %b, ptr %b.addr, align 8
  %0 = load ptr, ptr %a.addr, align 8
  %mask_ = getelementptr inbounds %"class.absl::lts_20230802::container_internal::NonIterableBitMask", ptr %0, i32 0, i32 0
  %1 = load i32, ptr %mask_, align 4
  %2 = load ptr, ptr %b.addr, align 8
  %mask_1 = getelementptr inbounds %"class.absl::lts_20230802::container_internal::NonIterableBitMask", ptr %2, i32 0, i32 0
  %3 = load i32, ptr %mask_1, align 4
  %cmp = icmp ne i32 %1, %3
  ret i1 %cmp
}

; Function Attrs: mustprogress uwtable
define linkonce_odr hidden noundef i32 @_ZNK4absl12lts_2023080218container_internal7BitMaskIjLi16ELi0EEdeEv(ptr noundef nonnull align 4 dereferenceable(4) %this) #4 comdat align 2 {
entry:
  %this.addr = alloca ptr, align 8
  store ptr %this, ptr %this.addr, align 8
  %this1 = load ptr, ptr %this.addr, align 8
  %call = call noundef i32 @_ZNK4absl12lts_2023080218container_internal18NonIterableBitMaskIjLi16ELi0EE12LowestBitSetEv(ptr noundef nonnull align 4 dereferenceable(4) %this1)
  ret i32 %call
}

; Function Attrs: mustprogress uwtable
define linkonce_odr hidden noundef zeroext i1 @_ZN4absl12lts_2023080218container_internal18hash_policy_traitsINS1_17FlatHashMapPolicyISt17basic_string_viewIcSt11char_traitsIcEENSt7__cxx1112basic_stringIcS6_SaIcEEEEEvE5applyINS1_12raw_hash_setISC_NS1_10StringHashENS1_8StringEqESaISt4pairIKS7_SB_EEE12EqualElementIA8_cEEJRSK_ESC_EEDTclsrT1_5applyclsr3stdE7forwardIT_Efp_Espclsr3stdE7forwardIT0_Efp0_EEEOSS_DpOST_(ptr noundef nonnull align 8 dereferenceable(16) %f, ptr noundef nonnull align 8 dereferenceable(48) %ts) #4 comdat align 2 {
entry:
  %f.addr = alloca ptr, align 8
  %ts.addr = alloca ptr, align 8
  store ptr %f, ptr %f.addr, align 8
  store ptr %ts, ptr %ts.addr, align 8
  %0 = load ptr, ptr %f.addr, align 8
  %1 = load ptr, ptr %ts.addr, align 8
  %call = call noundef zeroext i1 @_ZN4absl12lts_2023080218container_internal17FlatHashMapPolicyISt17basic_string_viewIcSt11char_traitsIcEENSt7__cxx1112basic_stringIcS5_SaIcEEEE5applyINS1_12raw_hash_setISB_NS1_10StringHashENS1_8StringEqESaISt4pairIKS6_SA_EEE12EqualElementIA8_cEEJRSI_EEEDTclsr4absl18container_internalE13DecomposePairclsr3stdE7declvalIT_EEspclsr3stdE7declvalIT0_EEEEOSP_DpOSQ_(ptr noundef nonnull align 8 dereferenceable(16) %0, ptr noundef nonnull align 8 dereferenceable(48) %1)
  ret i1 %call
}

; Function Attrs: mustprogress uwtable
define linkonce_odr hidden noundef nonnull align 1 dereferenceable(1) ptr @_ZN4absl12lts_2023080218container_internal12raw_hash_setINS1_17FlatHashMapPolicyISt17basic_string_viewIcSt11char_traitsIcEENSt7__cxx1112basic_stringIcS6_SaIcEEEEENS1_10StringHashENS1_8StringEqESaISt4pairIKS7_SB_EEE6eq_refEv(ptr noundef nonnull align 8 dereferenceable(32) %this) #4 comdat align 2 {
entry:
  %this.addr = alloca ptr, align 8
  store ptr %this, ptr %this.addr, align 8
  %this1 = load ptr, ptr %this.addr, align 8
  %settings_ = getelementptr inbounds %"class.absl::lts_20230802::container_internal::raw_hash_set.28", ptr %this1, i32 0, i32 0
  %call = call noundef nonnull align 1 dereferenceable(1) ptr @_ZNR4absl12lts_2023080218container_internal15CompressedTupleIJNS1_12CommonFieldsENS1_10StringHashENS1_8StringEqESaISt4pairIKSt17basic_string_viewIcSt11char_traitsIcEENSt7__cxx1112basic_stringIcS9_SaIcEEEEEEE3getILi2EEERNS1_25internal_compressed_tuple4ElemISI_XT_EE4typeEv(ptr noundef nonnull align 8 dereferenceable(32) %settings_)
  ret ptr %call
}

; Function Attrs: mustprogress uwtable
define linkonce_odr hidden noundef nonnull align 8 dereferenceable(48) ptr @_ZN4absl12lts_2023080218container_internal20common_policy_traitsINS1_17FlatHashMapPolicyISt17basic_string_viewIcSt11char_traitsIcEENSt7__cxx1112basic_stringIcS6_SaIcEEEEEvE7elementISC_EEDTclsrT_7elementfp_EEPNS1_13map_slot_typeIS7_SB_EE(ptr noundef %slot) #4 comdat align 2 {
entry:
  %slot.addr = alloca ptr, align 8
  store ptr %slot, ptr %slot.addr, align 8
  %0 = load ptr, ptr %slot.addr, align 8
  %call = call noundef nonnull align 8 dereferenceable(48) ptr @_ZN4absl12lts_2023080218container_internal17FlatHashMapPolicyISt17basic_string_viewIcSt11char_traitsIcEENSt7__cxx1112basic_stringIcS5_SaIcEEEE7elementEPNS1_13map_slot_typeIS6_SA_EE(ptr noundef %0)
  ret ptr %call
}

; Function Attrs: mustprogress uwtable
define linkonce_odr hidden noundef ptr @_ZNK4absl12lts_2023080218container_internal12raw_hash_setINS1_17FlatHashMapPolicyISt17basic_string_viewIcSt11char_traitsIcEENSt7__cxx1112basic_stringIcS6_SaIcEEEEENS1_10StringHashENS1_8StringEqESaISt4pairIKS7_SB_EEE10slot_arrayEv(ptr noundef nonnull align 8 dereferenceable(32) %this) #4 comdat align 2 {
entry:
  %this.addr = alloca ptr, align 8
  store ptr %this, ptr %this.addr, align 8
  %this1 = load ptr, ptr %this.addr, align 8
  %call = call noundef nonnull align 8 dereferenceable(32) ptr @_ZNK4absl12lts_2023080218container_internal12raw_hash_setINS1_17FlatHashMapPolicyISt17basic_string_viewIcSt11char_traitsIcEENSt7__cxx1112basic_stringIcS6_SaIcEEEEENS1_10StringHashENS1_8StringEqESaISt4pairIKS7_SB_EEE6commonEv(ptr noundef nonnull align 8 dereferenceable(32) %this1)
  %call2 = call noundef ptr @_ZNK4absl12lts_2023080218container_internal12CommonFields10slot_arrayEv(ptr noundef nonnull align 8 dereferenceable(32) %call)
  ret ptr %call2
}

; Function Attrs: mustprogress nounwind uwtable
define linkonce_odr hidden noundef i64 @_ZNK4absl12lts_2023080218container_internal9probe_seqILm16EE6offsetEm(ptr noundef nonnull align 8 dereferenceable(24) %this, i64 noundef %i) #5 comdat align 2 {
entry:
  %this.addr = alloca ptr, align 8
  %i.addr = alloca i64, align 8
  store ptr %this, ptr %this.addr, align 8
  store i64 %i, ptr %i.addr, align 8
  %this1 = load ptr, ptr %this.addr, align 8
  %offset_ = getelementptr inbounds %"class.absl::lts_20230802::container_internal::probe_seq", ptr %this1, i32 0, i32 1
  %0 = load i64, ptr %offset_, align 8
  %1 = load i64, ptr %i.addr, align 8
  %add = add i64 %0, %1
  %mask_ = getelementptr inbounds %"class.absl::lts_20230802::container_internal::probe_seq", ptr %this1, i32 0, i32 0
  %2 = load i64, ptr %mask_, align 8
  %and = and i64 %add, %2
  ret i64 %and
}

; Function Attrs: mustprogress nounwind uwtable
define linkonce_odr hidden void @_ZNSt4pairImbEC2ImbTnNSt9enable_ifIXaaclsr5_PCCPE22_MoveConstructiblePairIT_T0_EEclsr5_PCCPE30_ImplicitlyMoveConvertiblePairIS3_S4_EEEbE4typeELb1EEEOS3_OS4_(ptr noundef nonnull align 8 dereferenceable(9) %this, ptr noundef nonnull align 8 dereferenceable(8) %__x, ptr noundef nonnull align 1 dereferenceable(1) %__y) unnamed_addr #5 comdat align 2 {
entry:
  %this.addr = alloca ptr, align 8
  %__x.addr = alloca ptr, align 8
  %__y.addr = alloca ptr, align 8
  store ptr %this, ptr %this.addr, align 8
  store ptr %__x, ptr %__x.addr, align 8
  store ptr %__y, ptr %__y.addr, align 8
  %this1 = load ptr, ptr %this.addr, align 8
  %first = getelementptr inbounds %"struct.std::pair.44", ptr %this1, i32 0, i32 0
  %0 = load ptr, ptr %__x.addr, align 8
  %1 = load i64, ptr %0, align 8
  store i64 %1, ptr %first, align 8
  %second = getelementptr inbounds %"struct.std::pair.44", ptr %this1, i32 0, i32 1
  %2 = load ptr, ptr %__y.addr, align 8
  %3 = load i8, ptr %2, align 1
  %tobool = trunc i8 %3 to i1
  %frombool = zext i1 %tobool to i8
  store i8 %frombool, ptr %second, align 8
  ret void
}

; Function Attrs: mustprogress nounwind uwtable
define linkonce_odr hidden noundef nonnull align 4 dereferenceable(4) ptr @_ZN4absl12lts_2023080218container_internal7BitMaskIjLi16ELi0EEppEv(ptr noundef nonnull align 4 dereferenceable(4) %this) #5 comdat align 2 {
entry:
  %this.addr = alloca ptr, align 8
  store ptr %this, ptr %this.addr, align 8
  %this1 = load ptr, ptr %this.addr, align 8
  %mask_ = getelementptr inbounds %"class.absl::lts_20230802::container_internal::NonIterableBitMask", ptr %this1, i32 0, i32 0
  %0 = load i32, ptr %mask_, align 4
  %sub = sub i32 %0, 1
  %mask_2 = getelementptr inbounds %"class.absl::lts_20230802::container_internal::NonIterableBitMask", ptr %this1, i32 0, i32 0
  %1 = load i32, ptr %mask_2, align 4
  %and = and i32 %1, %sub
  store i32 %and, ptr %mask_2, align 4
  ret ptr %this1
}

; Function Attrs: mustprogress uwtable
define linkonce_odr hidden i32 @_ZNK4absl12lts_2023080218container_internal13GroupSse2Impl9MaskEmptyEv(ptr noundef nonnull align 16 dereferenceable(16) %this) #9 comdat align 2 {
entry:
  %__b15.addr.i = alloca i8, align 1
  %__b14.addr.i = alloca i8, align 1
  %__b13.addr.i = alloca i8, align 1
  %__b12.addr.i = alloca i8, align 1
  %__b11.addr.i = alloca i8, align 1
  %__b10.addr.i = alloca i8, align 1
  %__b9.addr.i = alloca i8, align 1
  %__b8.addr.i = alloca i8, align 1
  %__b7.addr.i = alloca i8, align 1
  %__b6.addr.i = alloca i8, align 1
  %__b5.addr.i = alloca i8, align 1
  %__b4.addr.i = alloca i8, align 1
  %__b3.addr.i = alloca i8, align 1
  %__b2.addr.i = alloca i8, align 1
  %__b1.addr.i = alloca i8, align 1
  %__b0.addr.i = alloca i8, align 1
  %.compoundliteral.i = alloca <16 x i8>, align 16
  %__a.addr.i4 = alloca <2 x i64>, align 16
  %__b.addr.i5 = alloca <2 x i64>, align 16
  %__a.addr.i = alloca <2 x i64>, align 16
  %__b.addr.i = alloca i8, align 1
  %retval = alloca %"class.absl::lts_20230802::container_internal::NonIterableBitMask", align 4
  %this.addr = alloca ptr, align 8
  %match = alloca <2 x i64>, align 16
  store ptr %this, ptr %this.addr, align 8
  %this1 = load ptr, ptr %this.addr, align 8
  store i8 -128, ptr %__b.addr.i, align 1
  %0 = load i8, ptr %__b.addr.i, align 1
  %1 = load i8, ptr %__b.addr.i, align 1
  %2 = load i8, ptr %__b.addr.i, align 1
  %3 = load i8, ptr %__b.addr.i, align 1
  %4 = load i8, ptr %__b.addr.i, align 1
  %5 = load i8, ptr %__b.addr.i, align 1
  %6 = load i8, ptr %__b.addr.i, align 1
  %7 = load i8, ptr %__b.addr.i, align 1
  %8 = load i8, ptr %__b.addr.i, align 1
  %9 = load i8, ptr %__b.addr.i, align 1
  %10 = load i8, ptr %__b.addr.i, align 1
  %11 = load i8, ptr %__b.addr.i, align 1
  %12 = load i8, ptr %__b.addr.i, align 1
  %13 = load i8, ptr %__b.addr.i, align 1
  %14 = load i8, ptr %__b.addr.i, align 1
  %15 = load i8, ptr %__b.addr.i, align 1
  store i8 %0, ptr %__b15.addr.i, align 1
  store i8 %1, ptr %__b14.addr.i, align 1
  store i8 %2, ptr %__b13.addr.i, align 1
  store i8 %3, ptr %__b12.addr.i, align 1
  store i8 %4, ptr %__b11.addr.i, align 1
  store i8 %5, ptr %__b10.addr.i, align 1
  store i8 %6, ptr %__b9.addr.i, align 1
  store i8 %7, ptr %__b8.addr.i, align 1
  store i8 %8, ptr %__b7.addr.i, align 1
  store i8 %9, ptr %__b6.addr.i, align 1
  store i8 %10, ptr %__b5.addr.i, align 1
  store i8 %11, ptr %__b4.addr.i, align 1
  store i8 %12, ptr %__b3.addr.i, align 1
  store i8 %13, ptr %__b2.addr.i, align 1
  store i8 %14, ptr %__b1.addr.i, align 1
  store i8 %15, ptr %__b0.addr.i, align 1
  %16 = load i8, ptr %__b0.addr.i, align 1
  %vecinit.i = insertelement <16 x i8> undef, i8 %16, i32 0
  %17 = load i8, ptr %__b1.addr.i, align 1
  %vecinit1.i = insertelement <16 x i8> %vecinit.i, i8 %17, i32 1
  %18 = load i8, ptr %__b2.addr.i, align 1
  %vecinit2.i = insertelement <16 x i8> %vecinit1.i, i8 %18, i32 2
  %19 = load i8, ptr %__b3.addr.i, align 1
  %vecinit3.i = insertelement <16 x i8> %vecinit2.i, i8 %19, i32 3
  %20 = load i8, ptr %__b4.addr.i, align 1
  %vecinit4.i = insertelement <16 x i8> %vecinit3.i, i8 %20, i32 4
  %21 = load i8, ptr %__b5.addr.i, align 1
  %vecinit5.i = insertelement <16 x i8> %vecinit4.i, i8 %21, i32 5
  %22 = load i8, ptr %__b6.addr.i, align 1
  %vecinit6.i = insertelement <16 x i8> %vecinit5.i, i8 %22, i32 6
  %23 = load i8, ptr %__b7.addr.i, align 1
  %vecinit7.i = insertelement <16 x i8> %vecinit6.i, i8 %23, i32 7
  %24 = load i8, ptr %__b8.addr.i, align 1
  %vecinit8.i = insertelement <16 x i8> %vecinit7.i, i8 %24, i32 8
  %25 = load i8, ptr %__b9.addr.i, align 1
  %vecinit9.i = insertelement <16 x i8> %vecinit8.i, i8 %25, i32 9
  %26 = load i8, ptr %__b10.addr.i, align 1
  %vecinit10.i = insertelement <16 x i8> %vecinit9.i, i8 %26, i32 10
  %27 = load i8, ptr %__b11.addr.i, align 1
  %vecinit11.i = insertelement <16 x i8> %vecinit10.i, i8 %27, i32 11
  %28 = load i8, ptr %__b12.addr.i, align 1
  %vecinit12.i = insertelement <16 x i8> %vecinit11.i, i8 %28, i32 12
  %29 = load i8, ptr %__b13.addr.i, align 1
  %vecinit13.i = insertelement <16 x i8> %vecinit12.i, i8 %29, i32 13
  %30 = load i8, ptr %__b14.addr.i, align 1
  %vecinit14.i = insertelement <16 x i8> %vecinit13.i, i8 %30, i32 14
  %31 = load i8, ptr %__b15.addr.i, align 1
  %vecinit15.i = insertelement <16 x i8> %vecinit14.i, i8 %31, i32 15
  store <16 x i8> %vecinit15.i, ptr %.compoundliteral.i, align 16
  %32 = load <16 x i8>, ptr %.compoundliteral.i, align 16
  %33 = bitcast <16 x i8> %32 to <2 x i64>
  store <2 x i64> %33, ptr %match, align 16
  %34 = load <2 x i64>, ptr %match, align 16
  %ctrl = getelementptr inbounds %"struct.absl::lts_20230802::container_internal::GroupSse2Impl", ptr %this1, i32 0, i32 0
  %35 = load <2 x i64>, ptr %ctrl, align 16
  store <2 x i64> %34, ptr %__a.addr.i4, align 16
  store <2 x i64> %35, ptr %__b.addr.i5, align 16
  %36 = load <2 x i64>, ptr %__a.addr.i4, align 16
  %37 = bitcast <2 x i64> %36 to <16 x i8>
  %38 = load <2 x i64>, ptr %__b.addr.i5, align 16
  %39 = bitcast <2 x i64> %38 to <16 x i8>
  %cmp.i = icmp eq <16 x i8> %37, %39
  %sext.i = sext <16 x i1> %cmp.i to <16 x i8>
  %40 = bitcast <16 x i8> %sext.i to <2 x i64>
  store <2 x i64> %40, ptr %__a.addr.i, align 16
  %41 = load <2 x i64>, ptr %__a.addr.i, align 16
  %42 = bitcast <2 x i64> %41 to <16 x i8>
  %43 = call noundef i32 @llvm.x86.sse2.pmovmskb.128(<16 x i8> %42)
  call void @_ZN4absl12lts_2023080218container_internal18NonIterableBitMaskIjLi16ELi0EEC2Ej(ptr noundef nonnull align 4 dereferenceable(4) %retval, i32 noundef %43)
  %coerce.dive = getelementptr inbounds %"class.absl::lts_20230802::container_internal::NonIterableBitMask", ptr %retval, i32 0, i32 0
  %44 = load i32, ptr %coerce.dive, align 4
  ret i32 %44
}

; Function Attrs: mustprogress nounwind uwtable
define linkonce_odr hidden noundef zeroext i1 @_ZNK4absl12lts_2023080218container_internal18NonIterableBitMaskIjLi16ELi0EEcvbEv(ptr noundef nonnull align 4 dereferenceable(4) %this) #5 comdat align 2 {
entry:
  %this.addr = alloca ptr, align 8
  store ptr %this, ptr %this.addr, align 8
  %this1 = load ptr, ptr %this.addr, align 8
  %mask_ = getelementptr inbounds %"class.absl::lts_20230802::container_internal::NonIterableBitMask", ptr %this1, i32 0, i32 0
  %0 = load i32, ptr %mask_, align 4
  %cmp = icmp ne i32 %0, 0
  ret i1 %cmp
}

; Function Attrs: mustprogress nounwind uwtable
define linkonce_odr hidden void @_ZN4absl12lts_2023080218container_internal9probe_seqILm16EE4nextEv(ptr noundef nonnull align 8 dereferenceable(24) %this) #5 comdat align 2 {
entry:
  %this.addr = alloca ptr, align 8
  store ptr %this, ptr %this.addr, align 8
  %this1 = load ptr, ptr %this.addr, align 8
  %index_ = getelementptr inbounds %"class.absl::lts_20230802::container_internal::probe_seq", ptr %this1, i32 0, i32 2
  %0 = load i64, ptr %index_, align 8
  %add = add i64 %0, 16
  store i64 %add, ptr %index_, align 8
  %index_2 = getelementptr inbounds %"class.absl::lts_20230802::container_internal::probe_seq", ptr %this1, i32 0, i32 2
  %1 = load i64, ptr %index_2, align 8
  %offset_ = getelementptr inbounds %"class.absl::lts_20230802::container_internal::probe_seq", ptr %this1, i32 0, i32 1
  %2 = load i64, ptr %offset_, align 8
  %add3 = add i64 %2, %1
  store i64 %add3, ptr %offset_, align 8
  %mask_ = getelementptr inbounds %"class.absl::lts_20230802::container_internal::probe_seq", ptr %this1, i32 0, i32 0
  %3 = load i64, ptr %mask_, align 8
  %offset_4 = getelementptr inbounds %"class.absl::lts_20230802::container_internal::probe_seq", ptr %this1, i32 0, i32 1
  %4 = load i64, ptr %offset_4, align 8
  %and = and i64 %4, %3
  store i64 %and, ptr %offset_4, align 8
  ret void
}

; Function Attrs: mustprogress uwtable
define linkonce_odr hidden noundef i64 @_ZN4absl12lts_2023080218container_internal12raw_hash_setINS1_17FlatHashMapPolicyISt17basic_string_viewIcSt11char_traitsIcEENSt7__cxx1112basic_stringIcS6_SaIcEEEEENS1_10StringHashENS1_8StringEqESaISt4pairIKS7_SB_EEE14prepare_insertEm(ptr noundef nonnull align 8 dereferenceable(32) %this, i64 noundef %hash) #4 comdat align 2 {
entry:
  %this.addr = alloca ptr, align 8
  %hash.addr = alloca i64, align 8
  %rehash_for_bug_detection = alloca i8, align 1
  %cap = alloca i64, align 8
  %target = alloca %"struct.absl::lts_20230802::container_internal::FindInfo", align 8
  %ref.tmp = alloca %"struct.absl::lts_20230802::container_internal::FindInfo", align 8
  store ptr %this, ptr %this.addr, align 8
  store i64 %hash, ptr %hash.addr, align 8
  %this1 = load ptr, ptr %this.addr, align 8
  %call = call noundef nonnull align 8 dereferenceable(32) ptr @_ZN4absl12lts_2023080218container_internal12raw_hash_setINS1_17FlatHashMapPolicyISt17basic_string_viewIcSt11char_traitsIcEENSt7__cxx1112basic_stringIcS6_SaIcEEEEENS1_10StringHashENS1_8StringEqESaISt4pairIKS7_SB_EEE6commonEv(ptr noundef nonnull align 8 dereferenceable(32) %this1)
  %call2 = call noundef zeroext i1 @_ZNK4absl12lts_2023080218container_internal12CommonFields41should_rehash_for_bug_detection_on_insertEv(ptr noundef nonnull align 8 dereferenceable(32) %call)
  %frombool = zext i1 %call2 to i8
  store i8 %frombool, ptr %rehash_for_bug_detection, align 1
  %0 = load i8, ptr %rehash_for_bug_detection, align 1
  %tobool = trunc i8 %0 to i1
  br i1 %tobool, label %if.then, label %if.end

if.then:                                          ; preds = %entry
  %call3 = call noundef i64 @_ZNK4absl12lts_2023080218container_internal12raw_hash_setINS1_17FlatHashMapPolicyISt17basic_string_viewIcSt11char_traitsIcEENSt7__cxx1112basic_stringIcS6_SaIcEEEEENS1_10StringHashENS1_8StringEqESaISt4pairIKS7_SB_EEE8capacityEv(ptr noundef nonnull align 8 dereferenceable(32) %this1)
  store i64 %call3, ptr %cap, align 8
  %call4 = call noundef i64 @_ZNK4absl12lts_2023080218container_internal12raw_hash_setINS1_17FlatHashMapPolicyISt17basic_string_viewIcSt11char_traitsIcEENSt7__cxx1112basic_stringIcS6_SaIcEEEEENS1_10StringHashENS1_8StringEqESaISt4pairIKS7_SB_EEE11growth_leftEv(ptr noundef nonnull align 8 dereferenceable(32) %this1)
  %cmp = icmp ugt i64 %call4, 0
  br i1 %cmp, label %cond.true, label %cond.false

cond.true:                                        ; preds = %if.then
  %1 = load i64, ptr %cap, align 8
  br label %cond.end

cond.false:                                       ; preds = %if.then
  %2 = load i64, ptr %cap, align 8
  %call5 = call noundef i64 @_ZN4absl12lts_2023080218container_internal12NextCapacityEm(i64 noundef %2)
  br label %cond.end

cond.end:                                         ; preds = %cond.false, %cond.true
  %cond = phi i64 [ %1, %cond.true ], [ %call5, %cond.false ]
  call void @_ZN4absl12lts_2023080218container_internal12raw_hash_setINS1_17FlatHashMapPolicyISt17basic_string_viewIcSt11char_traitsIcEENSt7__cxx1112basic_stringIcS6_SaIcEEEEENS1_10StringHashENS1_8StringEqESaISt4pairIKS7_SB_EEE6resizeEm(ptr noundef nonnull align 8 dereferenceable(32) %this1, i64 noundef %cond)
  br label %if.end

if.end:                                           ; preds = %cond.end, %entry
  %call6 = call noundef nonnull align 8 dereferenceable(32) ptr @_ZN4absl12lts_2023080218container_internal12raw_hash_setINS1_17FlatHashMapPolicyISt17basic_string_viewIcSt11char_traitsIcEENSt7__cxx1112basic_stringIcS6_SaIcEEEEENS1_10StringHashENS1_8StringEqESaISt4pairIKS7_SB_EEE6commonEv(ptr noundef nonnull align 8 dereferenceable(32) %this1)
  %3 = load i64, ptr %hash.addr, align 8
  %call7 = call { i64, i64 } @_ZN4absl12lts_2023080218container_internal19find_first_non_fullIvEENS1_8FindInfoERKNS1_12CommonFieldsEm(ptr noundef nonnull align 8 dereferenceable(32) %call6, i64 noundef %3)
  %4 = getelementptr inbounds { i64, i64 }, ptr %target, i32 0, i32 0
  %5 = extractvalue { i64, i64 } %call7, 0
  store i64 %5, ptr %4, align 8
  %6 = getelementptr inbounds { i64, i64 }, ptr %target, i32 0, i32 1
  %7 = extractvalue { i64, i64 } %call7, 1
  store i64 %7, ptr %6, align 8
  %8 = load i8, ptr %rehash_for_bug_detection, align 1
  %tobool8 = trunc i8 %8 to i1
  br i1 %tobool8, label %if.end16, label %land.lhs.true

land.lhs.true:                                    ; preds = %if.end
  %call9 = call noundef i64 @_ZNK4absl12lts_2023080218container_internal12raw_hash_setINS1_17FlatHashMapPolicyISt17basic_string_viewIcSt11char_traitsIcEENSt7__cxx1112basic_stringIcS6_SaIcEEEEENS1_10StringHashENS1_8StringEqESaISt4pairIKS7_SB_EEE11growth_leftEv(ptr noundef nonnull align 8 dereferenceable(32) %this1)
  %cmp10 = icmp eq i64 %call9, 0
  br i1 %cmp10, label %land.rhs, label %land.end

land.rhs:                                         ; preds = %land.lhs.true
  %call11 = call noundef ptr @_ZNK4absl12lts_2023080218container_internal12raw_hash_setINS1_17FlatHashMapPolicyISt17basic_string_viewIcSt11char_traitsIcEENSt7__cxx1112basic_stringIcS6_SaIcEEEEENS1_10StringHashENS1_8StringEqESaISt4pairIKS7_SB_EEE7controlEv(ptr noundef nonnull align 8 dereferenceable(32) %this1)
  %offset = getelementptr inbounds %"struct.absl::lts_20230802::container_internal::FindInfo", ptr %target, i32 0, i32 0
  %9 = load i64, ptr %offset, align 8
  %arrayidx = getelementptr inbounds i8, ptr %call11, i64 %9
  %10 = load i8, ptr %arrayidx, align 1
  %call12 = call noundef zeroext i1 @_ZN4absl12lts_2023080218container_internal9IsDeletedENS1_6ctrl_tE(i8 noundef signext %10)
  %lnot = xor i1 %call12, true
  br label %land.end

land.end:                                         ; preds = %land.rhs, %land.lhs.true
  %11 = phi i1 [ false, %land.lhs.true ], [ %lnot, %land.rhs ]
  br i1 %11, label %if.then13, label %if.end16

if.then13:                                        ; preds = %land.end
  call void @_ZN4absl12lts_2023080218container_internal12raw_hash_setINS1_17FlatHashMapPolicyISt17basic_string_viewIcSt11char_traitsIcEENSt7__cxx1112basic_stringIcS6_SaIcEEEEENS1_10StringHashENS1_8StringEqESaISt4pairIKS7_SB_EEE28rehash_and_grow_if_necessaryEv(ptr noundef nonnull align 8 dereferenceable(32) %this1)
  %call14 = call noundef nonnull align 8 dereferenceable(32) ptr @_ZN4absl12lts_2023080218container_internal12raw_hash_setINS1_17FlatHashMapPolicyISt17basic_string_viewIcSt11char_traitsIcEENSt7__cxx1112basic_stringIcS6_SaIcEEEEENS1_10StringHashENS1_8StringEqESaISt4pairIKS7_SB_EEE6commonEv(ptr noundef nonnull align 8 dereferenceable(32) %this1)
  %12 = load i64, ptr %hash.addr, align 8
  %call15 = call { i64, i64 } @_ZN4absl12lts_2023080218container_internal19find_first_non_fullIvEENS1_8FindInfoERKNS1_12CommonFieldsEm(ptr noundef nonnull align 8 dereferenceable(32) %call14, i64 noundef %12)
  %13 = getelementptr inbounds { i64, i64 }, ptr %ref.tmp, i32 0, i32 0
  %14 = extractvalue { i64, i64 } %call15, 0
  store i64 %14, ptr %13, align 8
  %15 = getelementptr inbounds { i64, i64 }, ptr %ref.tmp, i32 0, i32 1
  %16 = extractvalue { i64, i64 } %call15, 1
  store i64 %16, ptr %15, align 8
  call void @llvm.memcpy.p0.p0.i64(ptr align 8 %target, ptr align 8 %ref.tmp, i64 16, i1 false)
  br label %if.end16

if.end16:                                         ; preds = %if.then13, %land.end, %if.end
  %call17 = call noundef nonnull align 8 dereferenceable(32) ptr @_ZN4absl12lts_2023080218container_internal12raw_hash_setINS1_17FlatHashMapPolicyISt17basic_string_viewIcSt11char_traitsIcEENSt7__cxx1112basic_stringIcS6_SaIcEEEEENS1_10StringHashENS1_8StringEqESaISt4pairIKS7_SB_EEE6commonEv(ptr noundef nonnull align 8 dereferenceable(32) %this1)
  %call18 = call noundef nonnull align 8 dereferenceable(32) ptr @_ZN4absl12lts_2023080218container_internal12raw_hash_setINS1_17FlatHashMapPolicyISt17basic_string_viewIcSt11char_traitsIcEENSt7__cxx1112basic_stringIcS6_SaIcEEEEENS1_10StringHashENS1_8StringEqESaISt4pairIKS7_SB_EEE6commonEv(ptr noundef nonnull align 8 dereferenceable(32) %this1)
  %call19 = call noundef i64 @_ZNK4absl12lts_2023080218container_internal12CommonFields4sizeEv(ptr noundef nonnull align 8 dereferenceable(32) %call18)
  %add = add i64 %call19, 1
  call void @_ZN4absl12lts_2023080218container_internal12CommonFields8set_sizeEm(ptr noundef nonnull align 8 dereferenceable(32) %call17, i64 noundef %add)
  %call20 = call noundef i64 @_ZNK4absl12lts_2023080218container_internal12raw_hash_setINS1_17FlatHashMapPolicyISt17basic_string_viewIcSt11char_traitsIcEENSt7__cxx1112basic_stringIcS6_SaIcEEEEENS1_10StringHashENS1_8StringEqESaISt4pairIKS7_SB_EEE11growth_leftEv(ptr noundef nonnull align 8 dereferenceable(32) %this1)
  %call21 = call noundef ptr @_ZNK4absl12lts_2023080218container_internal12raw_hash_setINS1_17FlatHashMapPolicyISt17basic_string_viewIcSt11char_traitsIcEENSt7__cxx1112basic_stringIcS6_SaIcEEEEENS1_10StringHashENS1_8StringEqESaISt4pairIKS7_SB_EEE7controlEv(ptr noundef nonnull align 8 dereferenceable(32) %this1)
  %offset22 = getelementptr inbounds %"struct.absl::lts_20230802::container_internal::FindInfo", ptr %target, i32 0, i32 0
  %17 = load i64, ptr %offset22, align 8
  %arrayidx23 = getelementptr inbounds i8, ptr %call21, i64 %17
  %18 = load i8, ptr %arrayidx23, align 1
  %call24 = call noundef zeroext i1 @_ZN4absl12lts_2023080218container_internal7IsEmptyENS1_6ctrl_tE(i8 noundef signext %18)
  %conv = zext i1 %call24 to i64
  %sub = sub i64 %call20, %conv
  call void @_ZN4absl12lts_2023080218container_internal12raw_hash_setINS1_17FlatHashMapPolicyISt17basic_string_viewIcSt11char_traitsIcEENSt7__cxx1112basic_stringIcS6_SaIcEEEEENS1_10StringHashENS1_8StringEqESaISt4pairIKS7_SB_EEE15set_growth_leftEm(ptr noundef nonnull align 8 dereferenceable(32) %this1, i64 noundef %sub)
  %call25 = call noundef nonnull align 8 dereferenceable(32) ptr @_ZN4absl12lts_2023080218container_internal12raw_hash_setINS1_17FlatHashMapPolicyISt17basic_string_viewIcSt11char_traitsIcEENSt7__cxx1112basic_stringIcS6_SaIcEEEEENS1_10StringHashENS1_8StringEqESaISt4pairIKS7_SB_EEE6commonEv(ptr noundef nonnull align 8 dereferenceable(32) %this1)
  %offset26 = getelementptr inbounds %"struct.absl::lts_20230802::container_internal::FindInfo", ptr %target, i32 0, i32 0
  %19 = load i64, ptr %offset26, align 8
  %20 = load i64, ptr %hash.addr, align 8
  %call27 = call noundef zeroext i8 @_ZN4absl12lts_2023080218container_internal2H2Em(i64 noundef %20)
  call void @_ZN4absl12lts_2023080218container_internal7SetCtrlERKNS1_12CommonFieldsEmhm(ptr noundef nonnull align 8 dereferenceable(32) %call25, i64 noundef %19, i8 noundef zeroext %call27, i64 noundef 48)
  %call28 = call noundef nonnull align 8 dereferenceable(32) ptr @_ZN4absl12lts_2023080218container_internal12raw_hash_setINS1_17FlatHashMapPolicyISt17basic_string_viewIcSt11char_traitsIcEENSt7__cxx1112basic_stringIcS6_SaIcEEEEENS1_10StringHashENS1_8StringEqESaISt4pairIKS7_SB_EEE6commonEv(ptr noundef nonnull align 8 dereferenceable(32) %this1)
  call void @_ZN4absl12lts_2023080218container_internal34CommonFieldsGenerationInfoDisabled36maybe_increment_generation_on_insertEv(ptr noundef nonnull align 1 dereferenceable(1) %call28)
  %call29 = call noundef nonnull align 1 dereferenceable(1) ptr @_ZN4absl12lts_2023080218container_internal12raw_hash_setINS1_17FlatHashMapPolicyISt17basic_string_viewIcSt11char_traitsIcEENSt7__cxx1112basic_stringIcS6_SaIcEEEEENS1_10StringHashENS1_8StringEqESaISt4pairIKS7_SB_EEE5infozEv(ptr noundef nonnull align 8 dereferenceable(32) %this1)
  %21 = load i64, ptr %hash.addr, align 8
  %probe_length = getelementptr inbounds %"struct.absl::lts_20230802::container_internal::FindInfo", ptr %target, i32 0, i32 1
  %22 = load i64, ptr %probe_length, align 8
  call void @_ZN4absl12lts_2023080218container_internal20HashtablezInfoHandle12RecordInsertEmm(ptr noundef nonnull align 1 dereferenceable(1) %call29, i64 noundef %21, i64 noundef %22)
  %offset30 = getelementptr inbounds %"struct.absl::lts_20230802::container_internal::FindInfo", ptr %target, i32 0, i32 0
  %23 = load i64, ptr %offset30, align 8
  ret i64 %23
}

; Function Attrs: nocallback nofree nosync nounwind willreturn memory(argmem: readwrite, inaccessiblemem: readwrite)
declare void @llvm.prefetch.p0(ptr nocapture readonly, i32 immarg, i32 immarg, i32 immarg) #10

; Function Attrs: mustprogress uwtable
define linkonce_odr hidden noundef nonnull align 1 dereferenceable(1) ptr @_ZNR4absl12lts_2023080218container_internal15CompressedTupleIJNS1_12CommonFieldsENS1_10StringHashENS1_8StringEqESaISt4pairIKSt17basic_string_viewIcSt11char_traitsIcEENSt7__cxx1112basic_stringIcS9_SaIcEEEEEEE3getILi1EEERNS1_25internal_compressed_tuple4ElemISI_XT_EE4typeEv(ptr noundef nonnull align 8 dereferenceable(32) %this) #4 comdat align 2 {
entry:
  %this.addr = alloca ptr, align 8
  store ptr %this, ptr %this.addr, align 8
  %this1 = load ptr, ptr %this.addr, align 8
  %call = call noundef nonnull align 1 dereferenceable(1) ptr @_ZNR4absl12lts_2023080218container_internal25internal_compressed_tuple7StorageINS1_10StringHashELm1ELb1EE3getEv(ptr noundef nonnull align 1 dereferenceable(1) %this1)
  ret ptr %call
}

; Function Attrs: mustprogress nounwind uwtable
define linkonce_odr hidden noundef nonnull align 1 dereferenceable(1) ptr @_ZNR4absl12lts_2023080218container_internal25internal_compressed_tuple7StorageINS1_10StringHashELm1ELb1EE3getEv(ptr noundef nonnull align 1 dereferenceable(1) %this) #5 comdat align 2 {
entry:
  %this.addr = alloca ptr, align 8
  store ptr %this, ptr %this.addr, align 8
  %this1 = load ptr, ptr %this.addr, align 8
  ret ptr %this1
}

; Function Attrs: mustprogress uwtable
define linkonce_odr hidden noundef i64 @_ZNK4absl12lts_2023080213hash_internal8HashImplISt17basic_string_viewIcSt11char_traitsIcEEEclERKS6_(ptr noundef nonnull align 1 dereferenceable(1) %this, ptr noundef nonnull align 8 dereferenceable(16) %value) #4 comdat align 2 {
entry:
  %this.addr = alloca ptr, align 8
  %value.addr = alloca ptr, align 8
  store ptr %this, ptr %this.addr, align 8
  store ptr %value, ptr %value.addr, align 8
  %0 = load ptr, ptr %value.addr, align 8
  %call = call noundef i64 @_ZN4absl12lts_2023080213hash_internal15MixingHashState4hashISt17basic_string_viewIcSt11char_traitsIcEETnNSt9enable_ifIXntsr16IntegralFastPathIT_EE5valueEiE4typeELi0EEEmRKS9_(ptr noundef nonnull align 8 dereferenceable(16) %0)
  ret i64 %call
}

; Function Attrs: mustprogress uwtable
define linkonce_odr hidden noundef i64 @_ZN4absl12lts_2023080213hash_internal15MixingHashState4hashISt17basic_string_viewIcSt11char_traitsIcEETnNSt9enable_ifIXntsr16IntegralFastPathIT_EE5valueEiE4typeELi0EEEmRKS9_(ptr noundef nonnull align 8 dereferenceable(16) %value) #4 comdat align 2 {
entry:
  %value.addr = alloca ptr, align 8
  %ref.tmp = alloca %"class.absl::lts_20230802::hash_internal::MixingHashState", align 8
  %agg.tmp = alloca %"class.absl::lts_20230802::hash_internal::MixingHashState", align 8
  store ptr %value, ptr %value.addr, align 8
  call void @_ZN4absl12lts_2023080213hash_internal15MixingHashStateC2Ev(ptr noundef nonnull align 8 dereferenceable(8) %agg.tmp)
  %0 = load ptr, ptr %value.addr, align 8
  %coerce.dive = getelementptr inbounds %"class.absl::lts_20230802::hash_internal::MixingHashState", ptr %agg.tmp, i32 0, i32 0
  %1 = load i64, ptr %coerce.dive, align 8
  %call = call i64 @_ZN4absl12lts_2023080213hash_internal13HashStateBaseINS1_15MixingHashStateEE7combineISt17basic_string_viewIcSt11char_traitsIcEEJEEES3_S3_RKT_DpRKT0_(i64 %1, ptr noundef nonnull align 8 dereferenceable(16) %0)
  %coerce.dive1 = getelementptr inbounds %"class.absl::lts_20230802::hash_internal::MixingHashState", ptr %ref.tmp, i32 0, i32 0
  store i64 %call, ptr %coerce.dive1, align 8
  %state_ = getelementptr inbounds %"class.absl::lts_20230802::hash_internal::MixingHashState", ptr %ref.tmp, i32 0, i32 0
  %2 = load i64, ptr %state_, align 8
  ret i64 %2
}

; Function Attrs: mustprogress uwtable
define linkonce_odr hidden i64 @_ZN4absl12lts_2023080213hash_internal13HashStateBaseINS1_15MixingHashStateEE7combineISt17basic_string_viewIcSt11char_traitsIcEEJEEES3_S3_RKT_DpRKT0_(i64 %state.coerce, ptr noundef nonnull align 8 dereferenceable(16) %value) #4 comdat align 2 {
entry:
  %retval = alloca %"class.absl::lts_20230802::hash_internal::MixingHashState", align 8
  %state = alloca %"class.absl::lts_20230802::hash_internal::MixingHashState", align 8
  %value.addr = alloca ptr, align 8
  %agg.tmp = alloca %"class.absl::lts_20230802::hash_internal::MixingHashState", align 8
  %agg.tmp1 = alloca %"class.absl::lts_20230802::hash_internal::MixingHashState", align 8
  %coerce.dive = getelementptr inbounds %"class.absl::lts_20230802::hash_internal::MixingHashState", ptr %state, i32 0, i32 0
  store i64 %state.coerce, ptr %coerce.dive, align 8
  store ptr %value, ptr %value.addr, align 8
  call void @llvm.memcpy.p0.p0.i64(ptr align 8 %agg.tmp1, ptr align 8 %state, i64 8, i1 false)
  %0 = load ptr, ptr %value.addr, align 8
  %coerce.dive2 = getelementptr inbounds %"class.absl::lts_20230802::hash_internal::MixingHashState", ptr %agg.tmp1, i32 0, i32 0
  %1 = load i64, ptr %coerce.dive2, align 8
  %call = call i64 @_ZN4absl12lts_2023080213hash_internal10HashSelect14HashValueProbe6InvokeINS1_15MixingHashStateESt17basic_string_viewIcSt11char_traitsIcEEEENSt9enable_ifIXsr3std7is_sameIT_DTcl13AbslHashValueclsr3stdE4movefp_Efp0_EEEE5valueESB_E4typeESB_RKT0_(i64 %1, ptr noundef nonnull align 8 dereferenceable(16) %0)
  %coerce.dive3 = getelementptr inbounds %"class.absl::lts_20230802::hash_internal::MixingHashState", ptr %agg.tmp, i32 0, i32 0
  store i64 %call, ptr %coerce.dive3, align 8
  %coerce.dive4 = getelementptr inbounds %"class.absl::lts_20230802::hash_internal::MixingHashState", ptr %agg.tmp, i32 0, i32 0
  %2 = load i64, ptr %coerce.dive4, align 8
  %call5 = call i64 @_ZN4absl12lts_2023080213hash_internal13HashStateBaseINS1_15MixingHashStateEE7combineES3_(i64 %2)
  %coerce.dive6 = getelementptr inbounds %"class.absl::lts_20230802::hash_internal::MixingHashState", ptr %retval, i32 0, i32 0
  store i64 %call5, ptr %coerce.dive6, align 8
  %coerce.dive7 = getelementptr inbounds %"class.absl::lts_20230802::hash_internal::MixingHashState", ptr %retval, i32 0, i32 0
  %3 = load i64, ptr %coerce.dive7, align 8
  ret i64 %3
}

; Function Attrs: mustprogress uwtable
define linkonce_odr hidden void @_ZN4absl12lts_2023080213hash_internal15MixingHashStateC2Ev(ptr noundef nonnull align 8 dereferenceable(8) %this) unnamed_addr #4 comdat align 2 {
entry:
  %this.addr = alloca ptr, align 8
  store ptr %this, ptr %this.addr, align 8
  %this1 = load ptr, ptr %this.addr, align 8
  %state_ = getelementptr inbounds %"class.absl::lts_20230802::hash_internal::MixingHashState", ptr %this1, i32 0, i32 0
  store i64 ptrtoint (ptr @_ZN4absl12lts_2023080213hash_internal15MixingHashState5kSeedE to i64), ptr %state_, align 8
  ret void
}

; Function Attrs: mustprogress nounwind uwtable
define linkonce_odr hidden i64 @_ZN4absl12lts_2023080213hash_internal13HashStateBaseINS1_15MixingHashStateEE7combineES3_(i64 %state.coerce) #5 comdat align 2 {
entry:
  %retval = alloca %"class.absl::lts_20230802::hash_internal::MixingHashState", align 8
  %state = alloca %"class.absl::lts_20230802::hash_internal::MixingHashState", align 8
  %coerce.dive = getelementptr inbounds %"class.absl::lts_20230802::hash_internal::MixingHashState", ptr %state, i32 0, i32 0
  store i64 %state.coerce, ptr %coerce.dive, align 8
  call void @llvm.memcpy.p0.p0.i64(ptr align 8 %retval, ptr align 8 %state, i64 8, i1 false)
  %coerce.dive1 = getelementptr inbounds %"class.absl::lts_20230802::hash_internal::MixingHashState", ptr %retval, i32 0, i32 0
  %0 = load i64, ptr %coerce.dive1, align 8
  ret i64 %0
}

; Function Attrs: mustprogress uwtable
define linkonce_odr hidden i64 @_ZN4absl12lts_2023080213hash_internal10HashSelect14HashValueProbe6InvokeINS1_15MixingHashStateESt17basic_string_viewIcSt11char_traitsIcEEEENSt9enable_ifIXsr3std7is_sameIT_DTcl13AbslHashValueclsr3stdE4movefp_Efp0_EEEE5valueESB_E4typeESB_RKT0_(i64 %state.coerce, ptr noundef nonnull align 8 dereferenceable(16) %value) #4 comdat align 2 {
entry:
  %retval = alloca %"class.absl::lts_20230802::hash_internal::MixingHashState", align 8
  %state = alloca %"class.absl::lts_20230802::hash_internal::MixingHashState", align 8
  %value.addr = alloca ptr, align 8
  %agg.tmp = alloca %"class.absl::lts_20230802::hash_internal::MixingHashState", align 8
  %agg.tmp1 = alloca %"class.std::basic_string_view", align 8
  %coerce.dive = getelementptr inbounds %"class.absl::lts_20230802::hash_internal::MixingHashState", ptr %state, i32 0, i32 0
  store i64 %state.coerce, ptr %coerce.dive, align 8
  store ptr %value, ptr %value.addr, align 8
  call void @llvm.memcpy.p0.p0.i64(ptr align 8 %agg.tmp, ptr align 8 %state, i64 8, i1 false)
  %0 = load ptr, ptr %value.addr, align 8
  call void @llvm.memcpy.p0.p0.i64(ptr align 8 %agg.tmp1, ptr align 8 %0, i64 16, i1 false)
  %coerce.dive2 = getelementptr inbounds %"class.absl::lts_20230802::hash_internal::MixingHashState", ptr %agg.tmp, i32 0, i32 0
  %1 = load i64, ptr %coerce.dive2, align 8
  %2 = getelementptr inbounds { i64, ptr }, ptr %agg.tmp1, i32 0, i32 0
  %3 = load i64, ptr %2, align 8
  %4 = getelementptr inbounds { i64, ptr }, ptr %agg.tmp1, i32 0, i32 1
  %5 = load ptr, ptr %4, align 8
  %call = call i64 @_ZN4absl12lts_2023080213hash_internal13AbslHashValueINS1_15MixingHashStateEEET_S4_St17basic_string_viewIcSt11char_traitsIcEE(i64 %1, i64 %3, ptr %5)
  %coerce.dive3 = getelementptr inbounds %"class.absl::lts_20230802::hash_internal::MixingHashState", ptr %retval, i32 0, i32 0
  store i64 %call, ptr %coerce.dive3, align 8
  %coerce.dive4 = getelementptr inbounds %"class.absl::lts_20230802::hash_internal::MixingHashState", ptr %retval, i32 0, i32 0
  %6 = load i64, ptr %coerce.dive4, align 8
  ret i64 %6
}

; Function Attrs: nocallback nofree nounwind willreturn memory(argmem: readwrite)
declare void @llvm.memcpy.p0.p0.i64(ptr noalias nocapture writeonly, ptr noalias nocapture readonly, i64, i1 immarg) #11

; Function Attrs: mustprogress uwtable
define linkonce_odr hidden i64 @_ZN4absl12lts_2023080213hash_internal13AbslHashValueINS1_15MixingHashStateEEET_S4_St17basic_string_viewIcSt11char_traitsIcEE(i64 %hash_state.coerce, i64 %str.coerce0, ptr %str.coerce1) #4 comdat {
entry:
  %retval = alloca %"class.absl::lts_20230802::hash_internal::MixingHashState", align 8
  %hash_state = alloca %"class.absl::lts_20230802::hash_internal::MixingHashState", align 8
  %str = alloca %"class.std::basic_string_view", align 8
  %agg.tmp = alloca %"class.absl::lts_20230802::hash_internal::MixingHashState", align 8
  %agg.tmp1 = alloca %"class.absl::lts_20230802::hash_internal::MixingHashState", align 8
  %ref.tmp = alloca i64, align 8
  %coerce.dive = getelementptr inbounds %"class.absl::lts_20230802::hash_internal::MixingHashState", ptr %hash_state, i32 0, i32 0
  store i64 %hash_state.coerce, ptr %coerce.dive, align 8
  %0 = getelementptr inbounds { i64, ptr }, ptr %str, i32 0, i32 0
  store i64 %str.coerce0, ptr %0, align 8
  %1 = getelementptr inbounds { i64, ptr }, ptr %str, i32 0, i32 1
  store ptr %str.coerce1, ptr %1, align 8
  call void @llvm.memcpy.p0.p0.i64(ptr align 8 %agg.tmp1, ptr align 8 %hash_state, i64 8, i1 false)
  %call = call noundef ptr @_ZNKSt17basic_string_viewIcSt11char_traitsIcEE4dataEv(ptr noundef nonnull align 8 dereferenceable(16) %str) #3
  %call2 = call noundef i64 @_ZNKSt17basic_string_viewIcSt11char_traitsIcEE4sizeEv(ptr noundef nonnull align 8 dereferenceable(16) %str) #3
  %coerce.dive3 = getelementptr inbounds %"class.absl::lts_20230802::hash_internal::MixingHashState", ptr %agg.tmp1, i32 0, i32 0
  %2 = load i64, ptr %coerce.dive3, align 8
  %call4 = call i64 @_ZN4absl12lts_2023080213hash_internal13HashStateBaseINS1_15MixingHashStateEE18combine_contiguousIcEES3_S3_PKT_m(i64 %2, ptr noundef %call, i64 noundef %call2)
  %coerce.dive5 = getelementptr inbounds %"class.absl::lts_20230802::hash_internal::MixingHashState", ptr %agg.tmp, i32 0, i32 0
  store i64 %call4, ptr %coerce.dive5, align 8
  %call6 = call noundef i64 @_ZNKSt17basic_string_viewIcSt11char_traitsIcEE4sizeEv(ptr noundef nonnull align 8 dereferenceable(16) %str) #3
  store i64 %call6, ptr %ref.tmp, align 8
  %coerce.dive7 = getelementptr inbounds %"class.absl::lts_20230802::hash_internal::MixingHashState", ptr %agg.tmp, i32 0, i32 0
  %3 = load i64, ptr %coerce.dive7, align 8
  %call8 = call i64 @_ZN4absl12lts_2023080213hash_internal13HashStateBaseINS1_15MixingHashStateEE7combineImJEEES3_S3_RKT_DpRKT0_(i64 %3, ptr noundef nonnull align 8 dereferenceable(8) %ref.tmp)
  %coerce.dive9 = getelementptr inbounds %"class.absl::lts_20230802::hash_internal::MixingHashState", ptr %retval, i32 0, i32 0
  store i64 %call8, ptr %coerce.dive9, align 8
  %coerce.dive10 = getelementptr inbounds %"class.absl::lts_20230802::hash_internal::MixingHashState", ptr %retval, i32 0, i32 0
  %4 = load i64, ptr %coerce.dive10, align 8
  ret i64 %4
}

; Function Attrs: mustprogress uwtable
define linkonce_odr hidden i64 @_ZN4absl12lts_2023080213hash_internal13HashStateBaseINS1_15MixingHashStateEE7combineImJEEES3_S3_RKT_DpRKT0_(i64 %state.coerce, ptr noundef nonnull align 8 dereferenceable(8) %value) #4 comdat align 2 {
entry:
  %retval = alloca %"class.absl::lts_20230802::hash_internal::MixingHashState", align 8
  %state = alloca %"class.absl::lts_20230802::hash_internal::MixingHashState", align 8
  %value.addr = alloca ptr, align 8
  %agg.tmp = alloca %"class.absl::lts_20230802::hash_internal::MixingHashState", align 8
  %agg.tmp1 = alloca %"class.absl::lts_20230802::hash_internal::MixingHashState", align 8
  %coerce.dive = getelementptr inbounds %"class.absl::lts_20230802::hash_internal::MixingHashState", ptr %state, i32 0, i32 0
  store i64 %state.coerce, ptr %coerce.dive, align 8
  store ptr %value, ptr %value.addr, align 8
  call void @llvm.memcpy.p0.p0.i64(ptr align 8 %agg.tmp1, ptr align 8 %state, i64 8, i1 false)
  %0 = load ptr, ptr %value.addr, align 8
  %coerce.dive2 = getelementptr inbounds %"class.absl::lts_20230802::hash_internal::MixingHashState", ptr %agg.tmp1, i32 0, i32 0
  %1 = load i64, ptr %coerce.dive2, align 8
  %call = call i64 @_ZN4absl12lts_2023080213hash_internal10HashSelect24UniquelyRepresentedProbe6InvokeINS1_15MixingHashStateEmEENSt9enable_ifIXsr23is_uniquely_representedIT0_EE5valueET_E4typeES8_RKS7_(i64 %1, ptr noundef nonnull align 8 dereferenceable(8) %0)
  %coerce.dive3 = getelementptr inbounds %"class.absl::lts_20230802::hash_internal::MixingHashState", ptr %agg.tmp, i32 0, i32 0
  store i64 %call, ptr %coerce.dive3, align 8
  %coerce.dive4 = getelementptr inbounds %"class.absl::lts_20230802::hash_internal::MixingHashState", ptr %agg.tmp, i32 0, i32 0
  %2 = load i64, ptr %coerce.dive4, align 8
  %call5 = call i64 @_ZN4absl12lts_2023080213hash_internal13HashStateBaseINS1_15MixingHashStateEE7combineES3_(i64 %2)
  %coerce.dive6 = getelementptr inbounds %"class.absl::lts_20230802::hash_internal::MixingHashState", ptr %retval, i32 0, i32 0
  store i64 %call5, ptr %coerce.dive6, align 8
  %coerce.dive7 = getelementptr inbounds %"class.absl::lts_20230802::hash_internal::MixingHashState", ptr %retval, i32 0, i32 0
  %3 = load i64, ptr %coerce.dive7, align 8
  ret i64 %3
}

; Function Attrs: mustprogress uwtable
define linkonce_odr hidden i64 @_ZN4absl12lts_2023080213hash_internal13HashStateBaseINS1_15MixingHashStateEE18combine_contiguousIcEES3_S3_PKT_m(i64 %state.coerce, ptr noundef %data, i64 noundef %size) #4 comdat align 2 {
entry:
  %retval = alloca %"class.absl::lts_20230802::hash_internal::MixingHashState", align 8
  %state = alloca %"class.absl::lts_20230802::hash_internal::MixingHashState", align 8
  %data.addr = alloca ptr, align 8
  %size.addr = alloca i64, align 8
  %agg.tmp = alloca %"class.absl::lts_20230802::hash_internal::MixingHashState", align 8
  %coerce.dive = getelementptr inbounds %"class.absl::lts_20230802::hash_internal::MixingHashState", ptr %state, i32 0, i32 0
  store i64 %state.coerce, ptr %coerce.dive, align 8
  store ptr %data, ptr %data.addr, align 8
  store i64 %size, ptr %size.addr, align 8
  call void @llvm.memcpy.p0.p0.i64(ptr align 8 %agg.tmp, ptr align 8 %state, i64 8, i1 false)
  %0 = load ptr, ptr %data.addr, align 8
  %1 = load i64, ptr %size.addr, align 8
  %coerce.dive1 = getelementptr inbounds %"class.absl::lts_20230802::hash_internal::MixingHashState", ptr %agg.tmp, i32 0, i32 0
  %2 = load i64, ptr %coerce.dive1, align 8
  %call = call i64 @_ZN4absl12lts_2023080213hash_internal19hash_range_or_bytesINS1_15MixingHashStateEcEENSt9enable_ifIXsr23is_uniquely_representedIT0_EE5valueET_E4typeES6_PKS5_m(i64 %2, ptr noundef %0, i64 noundef %1)
  %coerce.dive2 = getelementptr inbounds %"class.absl::lts_20230802::hash_internal::MixingHashState", ptr %retval, i32 0, i32 0
  store i64 %call, ptr %coerce.dive2, align 8
  %coerce.dive3 = getelementptr inbounds %"class.absl::lts_20230802::hash_internal::MixingHashState", ptr %retval, i32 0, i32 0
  %3 = load i64, ptr %coerce.dive3, align 8
  ret i64 %3
}

; Function Attrs: mustprogress nounwind uwtable
define linkonce_odr hidden noundef ptr @_ZNKSt17basic_string_viewIcSt11char_traitsIcEE4dataEv(ptr noundef nonnull align 8 dereferenceable(16) %this) #5 comdat align 2 {
entry:
  %this.addr = alloca ptr, align 8
  store ptr %this, ptr %this.addr, align 8
  %this1 = load ptr, ptr %this.addr, align 8
  %_M_str = getelementptr inbounds %"class.std::basic_string_view", ptr %this1, i32 0, i32 1
  %0 = load ptr, ptr %_M_str, align 8
  ret ptr %0
}

; Function Attrs: mustprogress nounwind uwtable
define linkonce_odr hidden noundef i64 @_ZNKSt17basic_string_viewIcSt11char_traitsIcEE4sizeEv(ptr noundef nonnull align 8 dereferenceable(16) %this) #5 comdat align 2 {
entry:
  %this.addr = alloca ptr, align 8
  store ptr %this, ptr %this.addr, align 8
  %this1 = load ptr, ptr %this.addr, align 8
  %_M_len = getelementptr inbounds %"class.std::basic_string_view", ptr %this1, i32 0, i32 0
  %0 = load i64, ptr %_M_len, align 8
  ret i64 %0
}

; Function Attrs: mustprogress uwtable
define linkonce_odr hidden i64 @_ZN4absl12lts_2023080213hash_internal10HashSelect24UniquelyRepresentedProbe6InvokeINS1_15MixingHashStateEmEENSt9enable_ifIXsr23is_uniquely_representedIT0_EE5valueET_E4typeES8_RKS7_(i64 %state.coerce, ptr noundef nonnull align 8 dereferenceable(8) %value) #4 comdat align 2 {
entry:
  %retval = alloca %"class.absl::lts_20230802::hash_internal::MixingHashState", align 8
  %state = alloca %"class.absl::lts_20230802::hash_internal::MixingHashState", align 8
  %value.addr = alloca ptr, align 8
  %agg.tmp = alloca %"class.absl::lts_20230802::hash_internal::MixingHashState", align 8
  %coerce.dive = getelementptr inbounds %"class.absl::lts_20230802::hash_internal::MixingHashState", ptr %state, i32 0, i32 0
  store i64 %state.coerce, ptr %coerce.dive, align 8
  store ptr %value, ptr %value.addr, align 8
  call void @llvm.memcpy.p0.p0.i64(ptr align 8 %agg.tmp, ptr align 8 %state, i64 8, i1 false)
  %0 = load ptr, ptr %value.addr, align 8
  %coerce.dive1 = getelementptr inbounds %"class.absl::lts_20230802::hash_internal::MixingHashState", ptr %agg.tmp, i32 0, i32 0
  %1 = load i64, ptr %coerce.dive1, align 8
  %call = call i64 @_ZN4absl12lts_2023080213hash_internal10hash_bytesINS1_15MixingHashStateEmEET_S4_RKT0_(i64 %1, ptr noundef nonnull align 8 dereferenceable(8) %0)
  %coerce.dive2 = getelementptr inbounds %"class.absl::lts_20230802::hash_internal::MixingHashState", ptr %retval, i32 0, i32 0
  store i64 %call, ptr %coerce.dive2, align 8
  %coerce.dive3 = getelementptr inbounds %"class.absl::lts_20230802::hash_internal::MixingHashState", ptr %retval, i32 0, i32 0
  %2 = load i64, ptr %coerce.dive3, align 8
  ret i64 %2
}

; Function Attrs: mustprogress uwtable
define linkonce_odr hidden i64 @_ZN4absl12lts_2023080213hash_internal10hash_bytesINS1_15MixingHashStateEmEET_S4_RKT0_(i64 %hash_state.coerce, ptr noundef nonnull align 8 dereferenceable(8) %value) #4 comdat {
entry:
  %retval = alloca %"class.absl::lts_20230802::hash_internal::MixingHashState", align 8
  %hash_state = alloca %"class.absl::lts_20230802::hash_internal::MixingHashState", align 8
  %value.addr = alloca ptr, align 8
  %start = alloca ptr, align 8
  %agg.tmp = alloca %"class.absl::lts_20230802::hash_internal::MixingHashState", align 8
  %coerce.dive = getelementptr inbounds %"class.absl::lts_20230802::hash_internal::MixingHashState", ptr %hash_state, i32 0, i32 0
  store i64 %hash_state.coerce, ptr %coerce.dive, align 8
  store ptr %value, ptr %value.addr, align 8
  %0 = load ptr, ptr %value.addr, align 8
  store ptr %0, ptr %start, align 8
  call void @llvm.memcpy.p0.p0.i64(ptr align 8 %agg.tmp, ptr align 8 %hash_state, i64 8, i1 false)
  %1 = load ptr, ptr %start, align 8
  %coerce.dive1 = getelementptr inbounds %"class.absl::lts_20230802::hash_internal::MixingHashState", ptr %agg.tmp, i32 0, i32 0
  %2 = load i64, ptr %coerce.dive1, align 8
  %call = call i64 @_ZN4absl12lts_2023080213hash_internal15MixingHashState18combine_contiguousES2_PKhm(i64 %2, ptr noundef %1, i64 noundef 8)
  %coerce.dive2 = getelementptr inbounds %"class.absl::lts_20230802::hash_internal::MixingHashState", ptr %retval, i32 0, i32 0
  store i64 %call, ptr %coerce.dive2, align 8
  %coerce.dive3 = getelementptr inbounds %"class.absl::lts_20230802::hash_internal::MixingHashState", ptr %retval, i32 0, i32 0
  %3 = load i64, ptr %coerce.dive3, align 8
  ret i64 %3
}

; Function Attrs: mustprogress uwtable
define linkonce_odr hidden i64 @_ZN4absl12lts_2023080213hash_internal15MixingHashState18combine_contiguousES2_PKhm(i64 %hash_state.coerce, ptr noundef %first, i64 noundef %size) #4 comdat align 2 {
entry:
  %retval = alloca %"class.absl::lts_20230802::hash_internal::MixingHashState", align 8
  %hash_state = alloca %"class.absl::lts_20230802::hash_internal::MixingHashState", align 8
  %first.addr = alloca ptr, align 8
  %size.addr = alloca i64, align 8
  %coerce.dive = getelementptr inbounds %"class.absl::lts_20230802::hash_internal::MixingHashState", ptr %hash_state, i32 0, i32 0
  store i64 %hash_state.coerce, ptr %coerce.dive, align 8
  store ptr %first, ptr %first.addr, align 8
  store i64 %size, ptr %size.addr, align 8
  %state_ = getelementptr inbounds %"class.absl::lts_20230802::hash_internal::MixingHashState", ptr %hash_state, i32 0, i32 0
  %0 = load i64, ptr %state_, align 8
  %1 = load ptr, ptr %first.addr, align 8
  %2 = load i64, ptr %size.addr, align 8
  %call = call noundef i64 @_ZN4absl12lts_2023080213hash_internal15MixingHashState21CombineContiguousImplEmPKhmSt17integral_constantIiLi8EE(i64 noundef %0, ptr noundef %1, i64 noundef %2)
  call void @_ZN4absl12lts_2023080213hash_internal15MixingHashStateC2Em(ptr noundef nonnull align 8 dereferenceable(8) %retval, i64 noundef %call)
  %coerce.dive1 = getelementptr inbounds %"class.absl::lts_20230802::hash_internal::MixingHashState", ptr %retval, i32 0, i32 0
  %3 = load i64, ptr %coerce.dive1, align 8
  ret i64 %3
}

; Function Attrs: mustprogress uwtable
define linkonce_odr hidden noundef i64 @_ZN4absl12lts_2023080213hash_internal15MixingHashState21CombineContiguousImplEmPKhmSt17integral_constantIiLi8EE(i64 noundef %state, ptr noundef %first, i64 noundef %len) #4 comdat align 2 {
entry:
  %state.addr.i = alloca i64, align 8
  %v.addr.i = alloca i64, align 8
  %m.i = alloca i128, align 16
  %data.addr.i = alloca ptr, align 8
  %len.addr.i = alloca i64, align 8
  %retval = alloca i64, align 8
  %state.addr = alloca i64, align 8
  %first.addr = alloca ptr, align 8
  %len.addr = alloca i64, align 8
  %v = alloca i64, align 8
  %p = alloca %"struct.std::pair.53", align 8
  %lo = alloca i64, align 8
  %hi = alloca i64, align 8
  %m = alloca i128, align 16
  store i64 %state, ptr %state.addr, align 8
  store ptr %first, ptr %first.addr, align 8
  store i64 %len, ptr %len.addr, align 8
  %0 = load i64, ptr %len.addr, align 8
  %cmp = icmp ugt i64 %0, 16
  br i1 %cmp, label %if.then, label %if.else

if.then:                                          ; preds = %entry
  %1 = load i64, ptr %len.addr, align 8
  %call = call noundef i64 @_ZN4absl12lts_2023080213hash_internal18PiecewiseChunkSizeEv()
  %cmp1 = icmp ugt i64 %1, %call
  br i1 %cmp1, label %if.then2, label %if.end

if.then2:                                         ; preds = %if.then
  %2 = load i64, ptr %state.addr, align 8
  %3 = load ptr, ptr %first.addr, align 8
  %4 = load i64, ptr %len.addr, align 8
  %call3 = call noundef i64 @_ZN4absl12lts_2023080213hash_internal15MixingHashState28CombineLargeContiguousImpl64EmPKhm(i64 noundef %2, ptr noundef %3, i64 noundef %4)
  store i64 %call3, ptr %retval, align 8
  br label %return

if.end:                                           ; preds = %if.then
  %5 = load ptr, ptr %first.addr, align 8
  %6 = load i64, ptr %len.addr, align 8
  store ptr %5, ptr %data.addr.i, align 8
  store i64 %6, ptr %len.addr.i, align 8
  %7 = load ptr, ptr %data.addr.i, align 8
  %8 = load i64, ptr %len.addr.i, align 8
  %call.i = call noundef i64 @_ZN4absl12lts_2023080213hash_internal15MixingHashState16LowLevelHashImplEPKhm(ptr noundef %7, i64 noundef %8)
  store i64 %call.i, ptr %v, align 8
  br label %if.end27

if.else:                                          ; preds = %entry
  %9 = load i64, ptr %len.addr, align 8
  %cmp5 = icmp ugt i64 %9, 8
  br i1 %cmp5, label %if.then6, label %if.else14

if.then6:                                         ; preds = %if.else
  %10 = load ptr, ptr %first.addr, align 8
  %11 = load i64, ptr %len.addr, align 8
  %call7 = call { i64, i64 } @_ZN4absl12lts_2023080213hash_internal15MixingHashState9Read9To16EPKhm(ptr noundef %10, i64 noundef %11)
  %12 = getelementptr inbounds { i64, i64 }, ptr %p, i32 0, i32 0
  %13 = extractvalue { i64, i64 } %call7, 0
  store i64 %13, ptr %12, align 8
  %14 = getelementptr inbounds { i64, i64 }, ptr %p, i32 0, i32 1
  %15 = extractvalue { i64, i64 } %call7, 1
  store i64 %15, ptr %14, align 8
  %first8 = getelementptr inbounds %"struct.std::pair.53", ptr %p, i32 0, i32 0
  %16 = load i64, ptr %first8, align 8
  store i64 %16, ptr %lo, align 8
  %second = getelementptr inbounds %"struct.std::pair.53", ptr %p, i32 0, i32 1
  %17 = load i64, ptr %second, align 8
  store i64 %17, ptr %hi, align 8
  %18 = load i64, ptr %lo, align 8
  %call9 = call noundef i64 @_ZN4absl12lts_202308024rotrImEENSt9enable_ifIXsr3std11is_unsignedIT_EE5valueES3_E4typeES3_i(i64 noundef %18, i32 noundef 53) #3
  store i64 %call9, ptr %lo, align 8
  %19 = load i64, ptr %state.addr, align 8
  %add = add i64 %19, -7070675565921424023
  store i64 %add, ptr %state.addr, align 8
  %20 = load i64, ptr %state.addr, align 8
  %21 = load i64, ptr %lo, align 8
  %add10 = add i64 %21, %20
  store i64 %add10, ptr %lo, align 8
  %22 = load i64, ptr %hi, align 8
  %23 = load i64, ptr %state.addr, align 8
  %xor = xor i64 %23, %22
  store i64 %xor, ptr %state.addr, align 8
  %24 = load i64, ptr %state.addr, align 8
  %conv = zext i64 %24 to i128
  store i128 %conv, ptr %m, align 16
  %25 = load i64, ptr %lo, align 8
  %conv11 = zext i64 %25 to i128
  %26 = load i128, ptr %m, align 16
  %mul = mul i128 %26, %conv11
  store i128 %mul, ptr %m, align 16
  %27 = load i128, ptr %m, align 16
  %28 = load i128, ptr %m, align 16
  %shr = lshr i128 %28, 64
  %xor12 = xor i128 %27, %shr
  %conv13 = trunc i128 %xor12 to i64
  store i64 %conv13, ptr %retval, align 8
  br label %return

if.else14:                                        ; preds = %if.else
  %29 = load i64, ptr %len.addr, align 8
  %cmp15 = icmp uge i64 %29, 4
  br i1 %cmp15, label %if.then16, label %if.else18

if.then16:                                        ; preds = %if.else14
  %30 = load ptr, ptr %first.addr, align 8
  %31 = load i64, ptr %len.addr, align 8
  %call17 = call noundef i64 @_ZN4absl12lts_2023080213hash_internal15MixingHashState8Read4To8EPKhm(ptr noundef %30, i64 noundef %31)
  store i64 %call17, ptr %v, align 8
  br label %if.end25

if.else18:                                        ; preds = %if.else14
  %32 = load i64, ptr %len.addr, align 8
  %cmp19 = icmp ugt i64 %32, 0
  br i1 %cmp19, label %if.then20, label %if.else23

if.then20:                                        ; preds = %if.else18
  %33 = load ptr, ptr %first.addr, align 8
  %34 = load i64, ptr %len.addr, align 8
  %call21 = call noundef i32 @_ZN4absl12lts_2023080213hash_internal15MixingHashState8Read1To3EPKhm(ptr noundef %33, i64 noundef %34)
  %conv22 = zext i32 %call21 to i64
  store i64 %conv22, ptr %v, align 8
  br label %if.end24

if.else23:                                        ; preds = %if.else18
  %35 = load i64, ptr %state.addr, align 8
  store i64 %35, ptr %retval, align 8
  br label %return

if.end24:                                         ; preds = %if.then20
  br label %if.end25

if.end25:                                         ; preds = %if.end24, %if.then16
  br label %if.end26

if.end26:                                         ; preds = %if.end25
  br label %if.end27

if.end27:                                         ; preds = %if.end26, %if.end
  %36 = load i64, ptr %state.addr, align 8
  %37 = load i64, ptr %v, align 8
  store i64 %36, ptr %state.addr.i, align 8
  store i64 %37, ptr %v.addr.i, align 8
  %38 = load i64, ptr %state.addr.i, align 8
  %39 = load i64, ptr %v.addr.i, align 8
  %add.i = add i64 %38, %39
  %conv.i = zext i64 %add.i to i128
  store i128 %conv.i, ptr %m.i, align 16
  %40 = load i128, ptr %m.i, align 16
  %mul.i = mul i128 %40, 11376068507788127593
  store i128 %mul.i, ptr %m.i, align 16
  %41 = load i128, ptr %m.i, align 16
  %42 = load i128, ptr %m.i, align 16
  %shr.i = lshr i128 %42, 64
  %xor.i = xor i128 %41, %shr.i
  %conv1.i = trunc i128 %xor.i to i64
  store i64 %conv1.i, ptr %retval, align 8
  br label %return

return:                                           ; preds = %if.end27, %if.else23, %if.then6, %if.then2
  %43 = load i64, ptr %retval, align 8
  ret i64 %43
}

; Function Attrs: mustprogress nounwind uwtable
define linkonce_odr hidden void @_ZN4absl12lts_2023080213hash_internal15MixingHashStateC2Em(ptr noundef nonnull align 8 dereferenceable(8) %this, i64 noundef %state) unnamed_addr #5 comdat align 2 {
entry:
  %this.addr = alloca ptr, align 8
  %state.addr = alloca i64, align 8
  store ptr %this, ptr %this.addr, align 8
  store i64 %state, ptr %state.addr, align 8
  %this1 = load ptr, ptr %this.addr, align 8
  %state_ = getelementptr inbounds %"class.absl::lts_20230802::hash_internal::MixingHashState", ptr %this1, i32 0, i32 0
  %0 = load i64, ptr %state.addr, align 8
  store i64 %0, ptr %state_, align 8
  ret void
}

; Function Attrs: mustprogress nounwind uwtable
define linkonce_odr hidden noundef i64 @_ZN4absl12lts_2023080213hash_internal18PiecewiseChunkSizeEv() #5 comdat {
entry:
  ret i64 1024
}

declare noundef i64 @_ZN4absl12lts_2023080213hash_internal15MixingHashState28CombineLargeContiguousImpl64EmPKhm(i64 noundef, ptr noundef, i64 noundef) #1

; Function Attrs: mustprogress uwtable
define linkonce_odr hidden { i64, i64 } @_ZN4absl12lts_2023080213hash_internal15MixingHashState9Read9To16EPKhm(ptr noundef %p, i64 noundef %len) #4 comdat align 2 {
entry:
  %retval = alloca %"struct.std::pair.53", align 8
  %p.addr = alloca ptr, align 8
  %len.addr = alloca i64, align 8
  %low_mem = alloca i64, align 8
  %high_mem = alloca i64, align 8
  %most_significant = alloca i64, align 8
  %least_significant = alloca i64, align 8
  store ptr %p, ptr %p.addr, align 8
  store i64 %len, ptr %len.addr, align 8
  %0 = load ptr, ptr %p.addr, align 8
  %call = call noundef i64 @_ZN4absl12lts_2023080213base_internal15UnalignedLoad64EPKv(ptr noundef %0)
  store i64 %call, ptr %low_mem, align 8
  %1 = load ptr, ptr %p.addr, align 8
  %2 = load i64, ptr %len.addr, align 8
  %add.ptr = getelementptr inbounds i8, ptr %1, i64 %2
  %add.ptr1 = getelementptr inbounds i8, ptr %add.ptr, i64 -8
  %call2 = call noundef i64 @_ZN4absl12lts_2023080213base_internal15UnalignedLoad64EPKv(ptr noundef %add.ptr1)
  store i64 %call2, ptr %high_mem, align 8
  %3 = load i64, ptr %high_mem, align 8
  store i64 %3, ptr %most_significant, align 8
  %4 = load i64, ptr %low_mem, align 8
  store i64 %4, ptr %least_significant, align 8
  call void @_ZNSt4pairImmEC2IRmS2_TnNSt9enable_ifIXaaclsr5_PCCPE22_MoveConstructiblePairIT_T0_EEclsr5_PCCPE30_ImplicitlyMoveConvertiblePairIS4_S5_EEEbE4typeELb1EEEOS4_OS5_(ptr noundef nonnull align 8 dereferenceable(16) %retval, ptr noundef nonnull align 8 dereferenceable(8) %least_significant, ptr noundef nonnull align 8 dereferenceable(8) %most_significant)
  %5 = load { i64, i64 }, ptr %retval, align 8
  ret { i64, i64 } %5
}

; Function Attrs: mustprogress nounwind uwtable
define linkonce_odr hidden noundef i64 @_ZN4absl12lts_202308024rotrImEENSt9enable_ifIXsr3std11is_unsignedIT_EE5valueES3_E4typeES3_i(i64 noundef %x, i32 noundef %s) #5 comdat {
entry:
  %x.addr.i = alloca i64, align 8
  %s.addr.i = alloca i32, align 4
  %x.addr = alloca i64, align 8
  %s.addr = alloca i32, align 4
  store i64 %x, ptr %x.addr, align 8
  store i32 %s, ptr %s.addr, align 4
  %0 = load i64, ptr %x.addr, align 8
  %1 = load i32, ptr %s.addr, align 4
  store i64 %0, ptr %x.addr.i, align 8
  store i32 %1, ptr %s.addr.i, align 4
  %2 = load i64, ptr %x.addr.i, align 8
  %3 = load i32, ptr %s.addr.i, align 4
  %and.i = and i32 %3, 63
  %sh_prom.i = zext i32 %and.i to i64
  %shr.i = lshr i64 %2, %sh_prom.i
  %4 = load i64, ptr %x.addr.i, align 8
  %5 = load i32, ptr %s.addr.i, align 4
  %sub.i = sub nsw i32 0, %5
  %and1.i = and i32 %sub.i, 63
  %sh_prom2.i = zext i32 %and1.i to i64
  %shl.i = shl i64 %4, %sh_prom2.i
  %or.i = or i64 %shr.i, %shl.i
  ret i64 %or.i
}

; Function Attrs: mustprogress uwtable
define linkonce_odr hidden noundef i64 @_ZN4absl12lts_2023080213hash_internal15MixingHashState8Read4To8EPKhm(ptr noundef %p, i64 noundef %len) #4 comdat align 2 {
entry:
  %p.addr = alloca ptr, align 8
  %len.addr = alloca i64, align 8
  %low_mem = alloca i32, align 4
  %high_mem = alloca i32, align 4
  %most_significant = alloca i32, align 4
  %least_significant = alloca i32, align 4
  store ptr %p, ptr %p.addr, align 8
  store i64 %len, ptr %len.addr, align 8
  %0 = load ptr, ptr %p.addr, align 8
  %call = call noundef i32 @_ZN4absl12lts_2023080213base_internal15UnalignedLoad32EPKv(ptr noundef %0)
  store i32 %call, ptr %low_mem, align 4
  %1 = load ptr, ptr %p.addr, align 8
  %2 = load i64, ptr %len.addr, align 8
  %add.ptr = getelementptr inbounds i8, ptr %1, i64 %2
  %add.ptr1 = getelementptr inbounds i8, ptr %add.ptr, i64 -4
  %call2 = call noundef i32 @_ZN4absl12lts_2023080213base_internal15UnalignedLoad32EPKv(ptr noundef %add.ptr1)
  store i32 %call2, ptr %high_mem, align 4
  %3 = load i32, ptr %high_mem, align 4
  store i32 %3, ptr %most_significant, align 4
  %4 = load i32, ptr %low_mem, align 4
  store i32 %4, ptr %least_significant, align 4
  %5 = load i32, ptr %most_significant, align 4
  %conv = zext i32 %5 to i64
  %6 = load i64, ptr %len.addr, align 8
  %sub = sub i64 %6, 4
  %mul = mul i64 %sub, 8
  %shl = shl i64 %conv, %mul
  %7 = load i32, ptr %least_significant, align 4
  %conv3 = zext i32 %7 to i64
  %or = or i64 %shl, %conv3
  ret i64 %or
}

; Function Attrs: mustprogress nounwind uwtable
define linkonce_odr hidden noundef i32 @_ZN4absl12lts_2023080213hash_internal15MixingHashState8Read1To3EPKhm(ptr noundef %p, i64 noundef %len) #5 comdat align 2 {
entry:
  %p.addr = alloca ptr, align 8
  %len.addr = alloca i64, align 8
  %mem0 = alloca i8, align 1
  %mem1 = alloca i8, align 1
  %mem2 = alloca i8, align 1
  %significant2 = alloca i8, align 1
  %significant1 = alloca i8, align 1
  %significant0 = alloca i8, align 1
  store ptr %p, ptr %p.addr, align 8
  store i64 %len, ptr %len.addr, align 8
  %0 = load ptr, ptr %p.addr, align 8
  %arrayidx = getelementptr inbounds i8, ptr %0, i64 0
  %1 = load i8, ptr %arrayidx, align 1
  store i8 %1, ptr %mem0, align 1
  %2 = load ptr, ptr %p.addr, align 8
  %3 = load i64, ptr %len.addr, align 8
  %div = udiv i64 %3, 2
  %arrayidx1 = getelementptr inbounds i8, ptr %2, i64 %div
  %4 = load i8, ptr %arrayidx1, align 1
  store i8 %4, ptr %mem1, align 1
  %5 = load ptr, ptr %p.addr, align 8
  %6 = load i64, ptr %len.addr, align 8
  %sub = sub i64 %6, 1
  %arrayidx2 = getelementptr inbounds i8, ptr %5, i64 %sub
  %7 = load i8, ptr %arrayidx2, align 1
  store i8 %7, ptr %mem2, align 1
  %8 = load i8, ptr %mem2, align 1
  store i8 %8, ptr %significant2, align 1
  %9 = load i8, ptr %mem1, align 1
  store i8 %9, ptr %significant1, align 1
  %10 = load i8, ptr %mem0, align 1
  store i8 %10, ptr %significant0, align 1
  %11 = load i8, ptr %significant0, align 1
  %conv = zext i8 %11 to i32
  %12 = load i8, ptr %significant1, align 1
  %conv3 = zext i8 %12 to i32
  %13 = load i64, ptr %len.addr, align 8
  %div4 = udiv i64 %13, 2
  %mul = mul i64 %div4, 8
  %sh_prom = trunc i64 %mul to i32
  %shl = shl i32 %conv3, %sh_prom
  %or = or i32 %conv, %shl
  %14 = load i8, ptr %significant2, align 1
  %conv5 = zext i8 %14 to i32
  %15 = load i64, ptr %len.addr, align 8
  %sub6 = sub i64 %15, 1
  %mul7 = mul i64 %sub6, 8
  %sh_prom8 = trunc i64 %mul7 to i32
  %shl9 = shl i32 %conv5, %sh_prom8
  %or10 = or i32 %or, %shl9
  ret i32 %or10
}

declare noundef i64 @_ZN4absl12lts_2023080213hash_internal15MixingHashState16LowLevelHashImplEPKhm(ptr noundef, i64 noundef) #1

; Function Attrs: mustprogress nounwind uwtable
define linkonce_odr hidden noundef i64 @_ZN4absl12lts_2023080213base_internal15UnalignedLoad64EPKv(ptr noundef %p) #5 comdat {
entry:
  %p.addr = alloca ptr, align 8
  %t = alloca i64, align 8
  store ptr %p, ptr %p.addr, align 8
  %0 = load ptr, ptr %p.addr, align 8
  call void @llvm.memcpy.p0.p0.i64(ptr align 8 %t, ptr align 1 %0, i64 8, i1 false)
  %1 = load i64, ptr %t, align 8
  ret i64 %1
}

; Function Attrs: mustprogress nounwind uwtable
define linkonce_odr hidden void @_ZNSt4pairImmEC2IRmS2_TnNSt9enable_ifIXaaclsr5_PCCPE22_MoveConstructiblePairIT_T0_EEclsr5_PCCPE30_ImplicitlyMoveConvertiblePairIS4_S5_EEEbE4typeELb1EEEOS4_OS5_(ptr noundef nonnull align 8 dereferenceable(16) %this, ptr noundef nonnull align 8 dereferenceable(8) %__x, ptr noundef nonnull align 8 dereferenceable(8) %__y) unnamed_addr #5 comdat align 2 {
entry:
  %this.addr = alloca ptr, align 8
  %__x.addr = alloca ptr, align 8
  %__y.addr = alloca ptr, align 8
  store ptr %this, ptr %this.addr, align 8
  store ptr %__x, ptr %__x.addr, align 8
  store ptr %__y, ptr %__y.addr, align 8
  %this1 = load ptr, ptr %this.addr, align 8
  %first = getelementptr inbounds %"struct.std::pair.53", ptr %this1, i32 0, i32 0
  %0 = load ptr, ptr %__x.addr, align 8
  %1 = load i64, ptr %0, align 8
  store i64 %1, ptr %first, align 8
  %second = getelementptr inbounds %"struct.std::pair.53", ptr %this1, i32 0, i32 1
  %2 = load ptr, ptr %__y.addr, align 8
  %3 = load i64, ptr %2, align 8
  store i64 %3, ptr %second, align 8
  ret void
}

; Function Attrs: mustprogress nounwind uwtable
define linkonce_odr hidden noundef i32 @_ZN4absl12lts_2023080213base_internal15UnalignedLoad32EPKv(ptr noundef %p) #5 comdat {
entry:
  %p.addr = alloca ptr, align 8
  %t = alloca i32, align 4
  store ptr %p, ptr %p.addr, align 8
  %0 = load ptr, ptr %p.addr, align 8
  call void @llvm.memcpy.p0.p0.i64(ptr align 4 %t, ptr align 1 %0, i64 4, i1 false)
  %1 = load i32, ptr %t, align 4
  ret i32 %1
}

