target datalayout = "e-m:e-p270:32:32-p271:32:32-p272:64:64-i64:64-i128:128-f80:128-n8:16:32:64-S128"
target triple = "x86_64-unknown-linux-gnu"

%"class.std::ios_base::Init" = type { i8 }
%"class.google::protobuf::internal::ExplicitlyConstructed" = type { %"union.google::protobuf::internal::ExplicitlyConstructed<std::__cxx11::basic_string<char>, 8>::AlignedUnion" }
%"union.google::protobuf::internal::ExplicitlyConstructed<std::__cxx11::basic_string<char>, 8>::AlignedUnion" = type { i64, [24 x i8] }
%"class.google::protobuf::internal::InternalMetadata" = type { i64 }
%"class.google::protobuf::internal::HasBits" = type { [1 x i32] }
%"class.google::protobuf::internal::CachedSize" = type { i32 }
%"struct.google::protobuf::internal::ArenaStringPtr" = type { %"class.google::protobuf::internal::TaggedStringPtr" }
%"class.google::protobuf::internal::TaggedStringPtr" = type { ptr }
%"class.google::protobuf::RepeatedField" = type { i32, i32, ptr }
%union.anon.7 = type { %"struct.google::protobuf::FeatureSet::Impl_" }
%"struct.google::protobuf::FeatureSet::Impl_" = type { %"class.google::protobuf::internal::ExtensionSet", %"class.google::protobuf::internal::HasBits", %"class.google::protobuf::internal::CachedSize", i32, i32, i32, i32, i32, i32 }
%"class.google::protobuf::internal::ExtensionSet" = type { ptr, i16, i16, %"union.google::protobuf::internal::ExtensionSet::AllocatedData" }
%"union.google::protobuf::internal::ExtensionSet::AllocatedData" = type { ptr }
%union.anon.11 = type { %"struct.google::protobuf::EnumDescriptorProto_EnumReservedRange::Impl_" }
%"struct.google::protobuf::EnumDescriptorProto_EnumReservedRange::Impl_" = type { %"class.google::protobuf::internal::HasBits", %"class.google::protobuf::internal::CachedSize", i32, i32 }
%union.anon.13 = type { %"struct.google::protobuf::DescriptorProto_ReservedRange::Impl_" }
%"struct.google::protobuf::DescriptorProto_ReservedRange::Impl_" = type { %"class.google::protobuf::internal::HasBits", %"class.google::protobuf::internal::CachedSize", i32, i32 }
%union.anon.50 = type { %"struct.google::protobuf::OneofDescriptorProto::Impl_" }
%"struct.google::protobuf::OneofDescriptorProto::Impl_" = type { %"class.google::protobuf::internal::HasBits", %"class.google::protobuf::internal::CachedSize", %"struct.google::protobuf::internal::ArenaStringPtr", ptr }
%union.anon.58 = type { %"struct.google::protobuf::DescriptorProto_ExtensionRange::Impl_" }
%"struct.google::protobuf::DescriptorProto_ExtensionRange::Impl_" = type { %"class.google::protobuf::internal::HasBits", %"class.google::protobuf::internal::CachedSize", ptr, i32, i32 }
%"struct.google::protobuf::internal::MigrationSchema" = type { i32, i32, i32, i32 }
%"struct.google::protobuf::Metadata" = type { ptr, ptr }
%"struct.google::protobuf::internal::DescriptorTable" = type { i8, i8, i32, ptr, ptr, ptr, ptr, i32, i32, ptr, ptr, ptr, ptr, ptr, ptr }
%"struct.google::protobuf::MessageLite::DescriptorMethods" = type { ptr, ptr }
%"struct.google::protobuf::internal::TcParseTableBase" = type { i16, i16, i32, i8, i16, i32, i32, i16, i16, i32, ptr, ptr }
%"struct.std::array" = type { [1 x %"struct.google::protobuf::internal::TcParseTableBase::FastFieldEntry"] }
%"struct.google::protobuf::internal::TcParseTableBase::FastFieldEntry" = type { %"struct.std::atomic.81", %"struct.google::protobuf::internal::TcFieldData" }
%"struct.std::atomic.81" = type { %"struct.std::__atomic_base.82" }
%"struct.std::__atomic_base.82" = type { ptr }
%"struct.google::protobuf::internal::TcFieldData" = type { %union.anon.83 }
%union.anon.83 = type { i64 }
%"struct.std::array.84" = type { [2 x i16] }
%"struct.std::array.85" = type { [1 x %"struct.google::protobuf::internal::TcParseTableBase::FieldEntry"] }
%"struct.google::protobuf::internal::TcParseTableBase::FieldEntry" = type { i32, i32, i16, i16 }
%"struct.std::array.86" = type { [1 x %"union.google::protobuf::internal::TcParseTableBase::FieldAux"] }
%"union.google::protobuf::internal::TcParseTableBase::FieldAux" = type { ptr }
%"struct.std::array.87" = type { [1 x i8] }
%"struct.std::array.89" = type { [16 x %"struct.google::protobuf::internal::TcParseTableBase::FastFieldEntry"] }
%"struct.std::array.90" = type { [13 x %"struct.google::protobuf::internal::TcParseTableBase::FieldEntry"] }
%"struct.std::array.91" = type { [7 x %"union.google::protobuf::internal::TcParseTableBase::FieldAux"] }
%"struct.std::array.92" = type { [79 x i8] }
%"struct.std::array.106" = type { [4 x %"struct.google::protobuf::internal::TcParseTableBase::FastFieldEntry"] }
%"struct.std::array.107" = type { [3 x %"struct.google::protobuf::internal::TcParseTableBase::FieldEntry"] }
%"struct.std::array.135" = type { [2 x %"struct.google::protobuf::internal::TcParseTableBase::FastFieldEntry"] }
%"struct.std::array.136" = type { [2 x %"struct.google::protobuf::internal::TcParseTableBase::FieldEntry"] }
%"struct.std::array.95" = type { [10 x %"struct.google::protobuf::internal::TcParseTableBase::FieldEntry"] }
%"struct.std::array.96" = type { [8 x %"union.google::protobuf::internal::TcParseTableBase::FieldAux"] }
%"struct.std::array.97" = type { [65 x i8] }
%"struct.std::array.100" = type { [8 x %"struct.google::protobuf::internal::TcParseTableBase::FastFieldEntry"] }
%"struct.std::array.101" = type { [5 x %"struct.google::protobuf::internal::TcParseTableBase::FieldEntry"] }
%"struct.std::array.149" = type { [71 x i8] }
%"struct.std::array.116" = type { [12 x i16] }
%"struct.std::array.131" = type { [4 x %"struct.google::protobuf::internal::TcParseTableBase::FieldEntry"] }
%struct.anon = type { i16, i16 }
%"struct.std::array.112" = type { [11 x %"struct.google::protobuf::internal::TcParseTableBase::FieldEntry"] }
%"struct.std::array.113" = type { [96 x i8] }
%"struct.std::array.143" = type { [49 x i8] }
%"struct.std::array.102" = type { [3 x %"union.google::protobuf::internal::TcParseTableBase::FieldAux"] }
%"struct.std::array.103" = type { [61 x i8] }
%"struct.std::array.165" = type { [53 x i8] }
%"struct.std::array.108" = type { [2 x %"union.google::protobuf::internal::TcParseTableBase::FieldAux"] }
%"struct.std::array.109" = type { [51 x i8] }
%"struct.std::array.152" = type { [6 x %"struct.google::protobuf::internal::TcParseTableBase::FieldEntry"] }
%"struct.std::array.115" = type { [32 x %"struct.google::protobuf::internal::TcParseTableBase::FastFieldEntry"] }
%"struct.std::array.117" = type { [22 x %"struct.google::protobuf::internal::TcParseTableBase::FieldEntry"] }
%"struct.std::array.118" = type { [202 x i8] }
%"struct.std::array.139" = type { [7 x i16] }
%"struct.std::array.140" = type { [7 x %"struct.google::protobuf::internal::TcParseTableBase::FieldEntry"] }
%"struct.std::array.181" = type { [57 x i8] }
%"struct.std::array.185" = type { [62 x i8] }
%"struct.std::array.156" = type { [75 x i8] }
%"struct.std::array.194" = type { [106 x i8] }
%"struct.std::array.198" = type { [64 x i8] }
%"struct.google::protobuf::internal::ThreadSafeArena::ThreadCache" = type { i64, i64, ptr, [8 x i8] }
%"class.google::protobuf::FileDescriptorSet" = type { %"class.google::protobuf::Message", %union.anon.79 }
%"class.google::protobuf::Message" = type { %"class.google::protobuf::MessageLite" }
%"class.google::protobuf::MessageLite" = type { ptr, %"class.google::protobuf::internal::InternalMetadata" }
%union.anon.79 = type { %"struct.google::protobuf::FileDescriptorSet::Impl_" }
%"struct.google::protobuf::FileDescriptorSet::Impl_" = type <{ %"class.google::protobuf::RepeatedPtrField.78", %"class.google::protobuf::internal::CachedSize", [4 x i8] }>
%"class.google::protobuf::RepeatedPtrField.78" = type { %"class.google::protobuf::internal::RepeatedPtrFieldBase" }
%"class.google::protobuf::internal::RepeatedPtrFieldBase" = type { ptr, i32, i32, ptr }
%"struct.google::protobuf::internal::InternalMetadata::Container" = type { %"struct.google::protobuf::internal::InternalMetadata::ContainerBase", %"class.google::protobuf::UnknownFieldSet" }
%"struct.google::protobuf::internal::InternalMetadata::ContainerBase" = type { ptr }
%"class.google::protobuf::UnknownFieldSet" = type { %"class.std::vector" }
%"class.std::vector" = type { %"struct.std::_Vector_base" }
%"struct.std::_Vector_base" = type { %"struct.std::_Vector_base<google::protobuf::UnknownField, std::allocator<google::protobuf::UnknownField>>::_Vector_impl" }
%"struct.std::_Vector_base<google::protobuf::UnknownField, std::allocator<google::protobuf::UnknownField>>::_Vector_impl" = type { %"struct.std::_Vector_base<google::protobuf::UnknownField, std::allocator<google::protobuf::UnknownField>>::_Vector_impl_data" }
%"struct.std::_Vector_base<google::protobuf::UnknownField, std::allocator<google::protobuf::UnknownField>>::_Vector_impl_data" = type { ptr, ptr, ptr }
%"class.google::protobuf::internal::InternalVisibility" = type { i8 }
%"class.absl::lts_20230802::log_internal::NullStream" = type { i8 }
%"class.google::protobuf::FileDescriptorProto" = type { %"class.google::protobuf::Message", %union.anon.76 }
%union.anon.76 = type { %"struct.google::protobuf::FileDescriptorProto::Impl_" }
%"struct.google::protobuf::FileDescriptorProto::Impl_" = type <{ %"class.google::protobuf::internal::HasBits", %"class.google::protobuf::internal::CachedSize", %"class.google::protobuf::RepeatedPtrField", %"class.google::protobuf::RepeatedPtrField.68", %"class.google::protobuf::RepeatedPtrField.69", %"class.google::protobuf::RepeatedPtrField.75", %"class.google::protobuf::RepeatedPtrField.67", %"class.google::protobuf::RepeatedField", %"class.google::protobuf::RepeatedField", %"struct.google::protobuf::internal::ArenaStringPtr", %"struct.google::protobuf::internal::ArenaStringPtr", %"struct.google::protobuf::internal::ArenaStringPtr", ptr, ptr, i32, [4 x i8] }>
%"class.google::protobuf::RepeatedPtrField" = type { %"class.google::protobuf::internal::RepeatedPtrFieldBase" }
%"class.google::protobuf::RepeatedPtrField.68" = type { %"class.google::protobuf::internal::RepeatedPtrFieldBase" }
%"class.google::protobuf::RepeatedPtrField.69" = type { %"class.google::protobuf::internal::RepeatedPtrFieldBase" }
%"class.google::protobuf::RepeatedPtrField.75" = type { %"class.google::protobuf::internal::RepeatedPtrFieldBase" }
%"class.google::protobuf::RepeatedPtrField.67" = type { %"class.google::protobuf::internal::RepeatedPtrFieldBase" }
%"class.google::protobuf::internal::RepeatedPtrIterator" = type { ptr }
%"class.google::protobuf::internal::RepeatedPtrIterator.215" = type { ptr }
%"class.google::protobuf::FileOptions" = type { %"class.google::protobuf::Message", %union.anon.35 }
%union.anon.35 = type { %"struct.google::protobuf::FileOptions::Impl_" }
%"struct.google::protobuf::FileOptions::Impl_" = type <{ %"class.google::protobuf::internal::ExtensionSet", %"class.google::protobuf::internal::HasBits", %"class.google::protobuf::internal::CachedSize", %"class.google::protobuf::RepeatedPtrField.26", %"struct.google::protobuf::internal::ArenaStringPtr", %"struct.google::protobuf::internal::ArenaStringPtr", %"struct.google::protobuf::internal::ArenaStringPtr", %"struct.google::protobuf::internal::ArenaStringPtr", %"struct.google::protobuf::internal::ArenaStringPtr", %"struct.google::protobuf::internal::ArenaStringPtr", %"struct.google::protobuf::internal::ArenaStringPtr", %"struct.google::protobuf::internal::ArenaStringPtr", %"struct.google::protobuf::internal::ArenaStringPtr", %"struct.google::protobuf::internal::ArenaStringPtr", ptr, i8, i8, i8, i8, i8, i8, i8, i8, i32, i8, [3 x i8] }>
%"class.google::protobuf::RepeatedPtrField.26" = type { %"class.google::protobuf::internal::RepeatedPtrFieldBase" }
%"class.google::protobuf::SourceCodeInfo" = type { %"class.google::protobuf::Message", %union.anon.19 }
%union.anon.19 = type { %"struct.google::protobuf::SourceCodeInfo::Impl_" }
%"struct.google::protobuf::SourceCodeInfo::Impl_" = type <{ %"class.google::protobuf::RepeatedPtrField.18", %"class.google::protobuf::internal::CachedSize", [4 x i8] }>
%"class.google::protobuf::RepeatedPtrField.18" = type { %"class.google::protobuf::internal::RepeatedPtrFieldBase" }
%"class.google::protobuf::io::EpsCopyOutputStream" = type <{ ptr, ptr, [32 x i8], ptr, i8, i8, i8, i8, [4 x i8] }>
%"class.google::protobuf::DescriptorProto" = type { %"class.google::protobuf::Message", %union.anon.73 }
%union.anon.73 = type { %"struct.google::protobuf::DescriptorProto::Impl_" }
%"struct.google::protobuf::DescriptorProto::Impl_" = type { %"class.google::protobuf::internal::HasBits", %"class.google::protobuf::internal::CachedSize", %"class.google::protobuf::RepeatedPtrField.67", %"class.google::protobuf::RepeatedPtrField.68", %"class.google::protobuf::RepeatedPtrField.69", %"class.google::protobuf::RepeatedPtrField.70", %"class.google::protobuf::RepeatedPtrField.67", %"class.google::protobuf::RepeatedPtrField.71", %"class.google::protobuf::RepeatedPtrField.72", %"class.google::protobuf::RepeatedPtrField", %"struct.google::protobuf::internal::ArenaStringPtr", ptr }
%"class.google::protobuf::RepeatedPtrField.70" = type { %"class.google::protobuf::internal::RepeatedPtrFieldBase" }
%"class.google::protobuf::RepeatedPtrField.71" = type { %"class.google::protobuf::internal::RepeatedPtrFieldBase" }
%"class.google::protobuf::RepeatedPtrField.72" = type { %"class.google::protobuf::internal::RepeatedPtrFieldBase" }
%"class.google::protobuf::EnumDescriptorProto" = type { %"class.google::protobuf::Message", %union.anon.65 }
%union.anon.65 = type { %"struct.google::protobuf::EnumDescriptorProto::Impl_" }
%"struct.google::protobuf::EnumDescriptorProto::Impl_" = type { %"class.google::protobuf::internal::HasBits", %"class.google::protobuf::internal::CachedSize", %"class.google::protobuf::RepeatedPtrField.63", %"class.google::protobuf::RepeatedPtrField.64", %"class.google::protobuf::RepeatedPtrField", %"struct.google::protobuf::internal::ArenaStringPtr", ptr }
%"class.google::protobuf::RepeatedPtrField.63" = type { %"class.google::protobuf::internal::RepeatedPtrFieldBase" }
%"class.google::protobuf::RepeatedPtrField.64" = type { %"class.google::protobuf::internal::RepeatedPtrFieldBase" }
%"class.google::protobuf::ServiceDescriptorProto" = type { %"class.google::protobuf::Message", %union.anon.61 }
%union.anon.61 = type { %"struct.google::protobuf::ServiceDescriptorProto::Impl_" }
%"struct.google::protobuf::ServiceDescriptorProto::Impl_" = type { %"class.google::protobuf::internal::HasBits", %"class.google::protobuf::internal::CachedSize", %"class.google::protobuf::RepeatedPtrField.60", %"struct.google::protobuf::internal::ArenaStringPtr", ptr }
%"class.google::protobuf::RepeatedPtrField.60" = type { %"class.google::protobuf::internal::RepeatedPtrFieldBase" }
%"class.google::protobuf::FieldDescriptorProto" = type { %"class.google::protobuf::Message", %union.anon.54 }
%union.anon.54 = type { %"struct.google::protobuf::FieldDescriptorProto::Impl_" }
%"struct.google::protobuf::FieldDescriptorProto::Impl_" = type <{ %"class.google::protobuf::internal::HasBits", %"class.google::protobuf::internal::CachedSize", %"struct.google::protobuf::internal::ArenaStringPtr", %"struct.google::protobuf::internal::ArenaStringPtr", %"struct.google::protobuf::internal::ArenaStringPtr", %"struct.google::protobuf::internal::ArenaStringPtr", %"struct.google::protobuf::internal::ArenaStringPtr", ptr, i32, i32, i8, [3 x i8], i32, i32, [4 x i8] }>
%"class.google::protobuf::internal::RepeatedPtrIterator.124" = type { ptr }
%"class.google::protobuf::internal::RepeatedPtrIterator.125" = type { ptr }
%"class.google::protobuf::internal::RepeatedPtrIterator.126" = type { ptr }
%"class.google::protobuf::internal::RepeatedPtrIterator.127" = type { ptr }
%"class.google::protobuf::internal::RepeatedPtrIterator.216" = type { ptr }
%"class.google::protobuf::internal::RepeatedPtrIterator.217" = type { ptr }
%"class.google::protobuf::internal::RepeatedPtrIterator.218" = type { ptr }
%"class.google::protobuf::internal::RepeatedPtrIterator.219" = type { ptr }
%"class.google::protobuf::DescriptorProto_ExtensionRange" = type { %"class.google::protobuf::Message", %union.anon.58 }
%"class.google::protobuf::ExtensionRangeOptions" = type { %"class.google::protobuf::Message", %union.anon.44 }
%union.anon.44 = type { %"struct.google::protobuf::ExtensionRangeOptions::Impl_" }
%"struct.google::protobuf::ExtensionRangeOptions::Impl_" = type <{ %"class.google::protobuf::internal::ExtensionSet", %"class.google::protobuf::internal::HasBits", %"class.google::protobuf::internal::CachedSize", %"class.google::protobuf::RepeatedPtrField.43", %"class.google::protobuf::RepeatedPtrField.26", ptr, i32, [4 x i8] }>
%"class.google::protobuf::RepeatedPtrField.43" = type { %"class.google::protobuf::internal::RepeatedPtrFieldBase" }
%"class.google::protobuf::DescriptorProto_ReservedRange" = type { %"class.google::protobuf::Message", %union.anon.13 }
%"class.google::protobuf::MessageOptions" = type { %"class.google::protobuf::Message", %union.anon.33 }
%union.anon.33 = type { %"struct.google::protobuf::MessageOptions::Impl_" }
%"struct.google::protobuf::MessageOptions::Impl_" = type <{ %"class.google::protobuf::internal::ExtensionSet", %"class.google::protobuf::internal::HasBits", %"class.google::protobuf::internal::CachedSize", %"class.google::protobuf::RepeatedPtrField.26", ptr, i8, i8, i8, i8, i8, [3 x i8] }>
%"class.google::protobuf::OneofDescriptorProto" = type { %"class.google::protobuf::Message", %union.anon.50 }
%"class.google::protobuf::internal::RepeatedPtrIterator.145" = type { ptr }
%"class.google::protobuf::internal::RepeatedPtrIterator.146" = type { ptr }
%"class.google::protobuf::internal::RepeatedPtrIterator.147" = type { ptr }
%"class.google::protobuf::internal::RepeatedPtrIterator.220" = type { ptr }
%"class.google::protobuf::internal::RepeatedPtrIterator.221" = type { ptr }
%"class.google::protobuf::internal::RepeatedPtrIterator.222" = type { ptr }
%"class.google::protobuf::ExtensionRangeOptions_Declaration" = type { %"class.google::protobuf::Message", %union.anon.9 }
%union.anon.9 = type { %"struct.google::protobuf::ExtensionRangeOptions_Declaration::Impl_" }
%"struct.google::protobuf::ExtensionRangeOptions_Declaration::Impl_" = type <{ %"class.google::protobuf::internal::HasBits", %"class.google::protobuf::internal::CachedSize", %"struct.google::protobuf::internal::ArenaStringPtr", %"struct.google::protobuf::internal::ArenaStringPtr", i32, i8, i8, [2 x i8] }>
%"class.google::protobuf::FeatureSet" = type { %"class.google::protobuf::Message", %union.anon.7 }
%"class.google::protobuf::UninterpretedOption" = type { %"class.google::protobuf::Message", %union.anon.16 }
%union.anon.16 = type { %"struct.google::protobuf::UninterpretedOption::Impl_" }
%"struct.google::protobuf::UninterpretedOption::Impl_" = type { %"class.google::protobuf::internal::HasBits", %"class.google::protobuf::internal::CachedSize", %"class.google::protobuf::RepeatedPtrField.15", %"struct.google::protobuf::internal::ArenaStringPtr", %"struct.google::protobuf::internal::ArenaStringPtr", %"struct.google::protobuf::internal::ArenaStringPtr", i64, i64, double }
%"class.google::protobuf::RepeatedPtrField.15" = type { %"class.google::protobuf::internal::RepeatedPtrFieldBase" }
%"class.google::protobuf::internal::RepeatedPtrIterator.158" = type { ptr }
%"class.google::protobuf::internal::RepeatedPtrIterator.159" = type { ptr }
%"class.google::protobuf::internal::RepeatedPtrIterator.223" = type { ptr }
%"class.google::protobuf::internal::RepeatedPtrIterator.224" = type { ptr }
%"class.google::protobuf::FieldOptions" = type { %"class.google::protobuf::Message", %union.anon.38 }
%union.anon.38 = type { %"struct.google::protobuf::FieldOptions::Impl_" }
%"struct.google::protobuf::FieldOptions::Impl_" = type <{ %"class.google::protobuf::internal::ExtensionSet", %"class.google::protobuf::internal::HasBits", %"class.google::protobuf::internal::CachedSize", %"class.google::protobuf::RepeatedField", %"class.google::protobuf::RepeatedPtrField.37", %"class.google::protobuf::RepeatedPtrField.26", ptr, i32, i32, i8, i8, i8, i8, i8, i8, [2 x i8], i32, [4 x i8] }>
%"class.google::protobuf::RepeatedPtrField.37" = type { %"class.google::protobuf::internal::RepeatedPtrFieldBase" }
%"class.google::protobuf::OneofOptions" = type { %"class.google::protobuf::Message", %union.anon.29 }
%union.anon.29 = type { %"struct.google::protobuf::OneofOptions::Impl_" }
%"struct.google::protobuf::OneofOptions::Impl_" = type { %"class.google::protobuf::internal::ExtensionSet", %"class.google::protobuf::internal::HasBits", %"class.google::protobuf::internal::CachedSize", %"class.google::protobuf::RepeatedPtrField.26", ptr }
%"class.google::protobuf::EnumDescriptorProto_EnumReservedRange" = type { %"class.google::protobuf::Message", %union.anon.11 }
%"class.google::protobuf::EnumOptions" = type { %"class.google::protobuf::Message", %union.anon.48 }
%union.anon.48 = type { %"struct.google::protobuf::EnumOptions::Impl_" }
%"struct.google::protobuf::EnumOptions::Impl_" = type <{ %"class.google::protobuf::internal::ExtensionSet", %"class.google::protobuf::internal::HasBits", %"class.google::protobuf::internal::CachedSize", %"class.google::protobuf::RepeatedPtrField.26", ptr, i8, i8, i8, [5 x i8] }>
%"class.google::protobuf::EnumValueDescriptorProto" = type { %"class.google::protobuf::Message", %union.anon.56 }
%union.anon.56 = type { %"struct.google::protobuf::EnumValueDescriptorProto::Impl_" }
%"struct.google::protobuf::EnumValueDescriptorProto::Impl_" = type <{ %"class.google::protobuf::internal::HasBits", %"class.google::protobuf::internal::CachedSize", %"struct.google::protobuf::internal::ArenaStringPtr", ptr, i32, [4 x i8] }>
%"class.google::protobuf::internal::RepeatedPtrIterator.169" = type { ptr }
%"class.google::protobuf::internal::RepeatedPtrIterator.170" = type { ptr }
%"class.google::protobuf::internal::RepeatedPtrIterator.225" = type { ptr }
%"class.google::protobuf::internal::RepeatedPtrIterator.226" = type { ptr }
%"class.google::protobuf::EnumValueOptions" = type { %"class.google::protobuf::Message", %union.anon.46 }
%union.anon.46 = type { %"struct.google::protobuf::EnumValueOptions::Impl_" }
%"struct.google::protobuf::EnumValueOptions::Impl_" = type <{ %"class.google::protobuf::internal::ExtensionSet", %"class.google::protobuf::internal::HasBits", %"class.google::protobuf::internal::CachedSize", %"class.google::protobuf::RepeatedPtrField.26", ptr, i8, i8, [6 x i8] }>
%"class.google::protobuf::ServiceOptions" = type { %"class.google::protobuf::Message", %union.anon.27 }
%union.anon.27 = type { %"struct.google::protobuf::ServiceOptions::Impl_" }
%"struct.google::protobuf::ServiceOptions::Impl_" = type <{ %"class.google::protobuf::internal::ExtensionSet", %"class.google::protobuf::internal::HasBits", %"class.google::protobuf::internal::CachedSize", %"class.google::protobuf::RepeatedPtrField.26", ptr, i8, [7 x i8] }>
%"class.google::protobuf::MethodDescriptorProto" = type { %"class.google::protobuf::Message", %union.anon.52 }
%union.anon.52 = type { %"struct.google::protobuf::MethodDescriptorProto::Impl_" }
%"struct.google::protobuf::MethodDescriptorProto::Impl_" = type <{ %"class.google::protobuf::internal::HasBits", %"class.google::protobuf::internal::CachedSize", %"struct.google::protobuf::internal::ArenaStringPtr", %"struct.google::protobuf::internal::ArenaStringPtr", %"struct.google::protobuf::internal::ArenaStringPtr", ptr, i8, i8, [6 x i8] }>
%"class.google::protobuf::internal::RepeatedPtrIterator.177" = type { ptr }
%"class.google::protobuf::internal::RepeatedPtrIterator.227" = type { ptr }
%"class.google::protobuf::MethodOptions" = type { %"class.google::protobuf::Message", %union.anon.31 }
%union.anon.31 = type { %"struct.google::protobuf::MethodOptions::Impl_" }
%"struct.google::protobuf::MethodOptions::Impl_" = type { %"class.google::protobuf::internal::ExtensionSet", %"class.google::protobuf::internal::HasBits", %"class.google::protobuf::internal::CachedSize", %"class.google::protobuf::RepeatedPtrField.26", ptr, i8, i32 }
%"class.google::protobuf::FieldOptions_EditionDefault" = type { %"class.google::protobuf::Message", %union.anon.5 }
%union.anon.5 = type { %"struct.google::protobuf::FieldOptions_EditionDefault::Impl_" }
%"struct.google::protobuf::FieldOptions_EditionDefault::Impl_" = type <{ %"class.google::protobuf::internal::HasBits", %"class.google::protobuf::internal::CachedSize", %"struct.google::protobuf::internal::ArenaStringPtr", i32, [4 x i8] }>
%"class.google::protobuf::internal::RepeatedPtrIterator.183" = type { ptr }
%"class.google::protobuf::internal::RepeatedPtrIterator.228" = type { ptr }
%"class.google::protobuf::UninterpretedOption_NamePart" = type { %"class.google::protobuf::Message", %union.anon }
%union.anon = type { %"struct.google::protobuf::UninterpretedOption_NamePart::Impl_" }
%"struct.google::protobuf::UninterpretedOption_NamePart::Impl_" = type <{ %"class.google::protobuf::internal::HasBits", %"class.google::protobuf::internal::CachedSize", %"struct.google::protobuf::internal::ArenaStringPtr", i8, [7 x i8] }>
%"class.google::protobuf::internal::RepeatedPtrIterator.187" = type { ptr }
%"class.google::protobuf::internal::RepeatedPtrIterator.229" = type { ptr }
%"class.google::protobuf::FeatureSetDefaults_FeatureSetEditionDefault" = type { %"class.google::protobuf::Message", %union.anon.24 }
%union.anon.24 = type { %"struct.google::protobuf::FeatureSetDefaults_FeatureSetEditionDefault::Impl_" }
%"struct.google::protobuf::FeatureSetDefaults_FeatureSetEditionDefault::Impl_" = type <{ %"class.google::protobuf::internal::HasBits", %"class.google::protobuf::internal::CachedSize", ptr, i32, [4 x i8] }>
%"class.google::protobuf::FeatureSetDefaults" = type { %"class.google::protobuf::Message", %union.anon.41 }
%union.anon.41 = type { %"struct.google::protobuf::FeatureSetDefaults::Impl_" }
%"struct.google::protobuf::FeatureSetDefaults::Impl_" = type { %"class.google::protobuf::internal::HasBits", %"class.google::protobuf::internal::CachedSize", %"class.google::protobuf::RepeatedPtrField.40", i32, i32 }
%"class.google::protobuf::RepeatedPtrField.40" = type { %"class.google::protobuf::internal::RepeatedPtrFieldBase" }
%"class.google::protobuf::internal::RepeatedPtrIterator.192" = type { ptr }
%"class.google::protobuf::internal::RepeatedPtrIterator.230" = type { ptr }
%"class.google::protobuf::SourceCodeInfo_Location" = type { %"class.google::protobuf::Message", %union.anon.1 }
%union.anon.1 = type { %"struct.google::protobuf::SourceCodeInfo_Location::Impl_" }
%"struct.google::protobuf::SourceCodeInfo_Location::Impl_" = type { %"class.google::protobuf::internal::HasBits", %"class.google::protobuf::internal::CachedSize", %"class.google::protobuf::RepeatedField", %"class.google::protobuf::internal::CachedSize", %"class.google::protobuf::RepeatedField", %"class.google::protobuf::internal::CachedSize", %"class.google::protobuf::RepeatedPtrField", %"struct.google::protobuf::internal::ArenaStringPtr", %"struct.google::protobuf::internal::ArenaStringPtr" }
%"class.google::protobuf::internal::RepeatedPtrIterator.196" = type { ptr }
%"class.google::protobuf::internal::RepeatedPtrIterator.231" = type { ptr }
%"class.google::protobuf::GeneratedCodeInfo_Annotation" = type { %"class.google::protobuf::Message", %union.anon.3 }
%union.anon.3 = type { %"struct.google::protobuf::GeneratedCodeInfo_Annotation::Impl_" }
%"struct.google::protobuf::GeneratedCodeInfo_Annotation::Impl_" = type <{ %"class.google::protobuf::internal::HasBits", %"class.google::protobuf::internal::CachedSize", %"class.google::protobuf::RepeatedField", %"class.google::protobuf::internal::CachedSize", [4 x i8], %"struct.google::protobuf::internal::ArenaStringPtr", i32, i32, i32, [4 x i8] }>
%"class.google::protobuf::GeneratedCodeInfo" = type { %"class.google::protobuf::Message", %union.anon.22 }
%union.anon.22 = type { %"struct.google::protobuf::GeneratedCodeInfo::Impl_" }
%"struct.google::protobuf::GeneratedCodeInfo::Impl_" = type <{ %"class.google::protobuf::RepeatedPtrField.21", %"class.google::protobuf::internal::CachedSize", [4 x i8] }>
%"class.google::protobuf::RepeatedPtrField.21" = type { %"class.google::protobuf::internal::RepeatedPtrFieldBase" }
%"class.google::protobuf::internal::RepeatedPtrIterator.199" = type { ptr }
%"class.google::protobuf::internal::RepeatedPtrIterator.232" = type { ptr }
%"class.absl::lts_20230802::log_internal::LogMessageFatal" = type { %"class.absl::lts_20230802::log_internal::LogMessage" }
%"class.absl::lts_20230802::log_internal::LogMessage" = type { %"class.absl::lts_20230802::base_internal::ErrnoSaver", %"class.std::unique_ptr" }
%"class.absl::lts_20230802::base_internal::ErrnoSaver" = type { i32 }
%"class.std::unique_ptr" = type { %"struct.std::__uniq_ptr_data" }
%"struct.std::__uniq_ptr_data" = type { %"class.std::__uniq_ptr_impl" }
%"class.std::__uniq_ptr_impl" = type { %"class.std::tuple" }
%"class.std::tuple" = type { %"struct.std::_Tuple_impl" }
%"struct.std::_Tuple_impl" = type { %"struct.std::_Head_base.202" }
%"struct.std::_Head_base.202" = type { ptr }
%"class.std::basic_string_view" = type { i64, ptr }
%"struct.google::protobuf::internal::SizedPtr" = type { ptr, i64 }
%"struct.google::protobuf::RepeatedField<int>::Rep" = type { %union.anon.200 }
%union.anon.200 = type { ptr }
%"struct.google::protobuf::internal::ArenaAlign" = type { i64 }
%"class.google::protobuf::Arena" = type { %"class.google::protobuf::internal::ThreadSafeArena" }
%"class.google::protobuf::internal::ThreadSafeArena" = type { i64, %"class.google::protobuf::internal::TaggedAllocationPolicyPtr", %"class.google::protobuf::internal::ThreadSafeArenaStatsHandle", %"class.absl::lts_20230802::Mutex", %"struct.std::atomic.205", ptr, %"class.google::protobuf::internal::SerialArena" }
%"class.google::protobuf::internal::TaggedAllocationPolicyPtr" = type { i64 }
%"class.google::protobuf::internal::ThreadSafeArenaStatsHandle" = type { i8 }
%"class.absl::lts_20230802::Mutex" = type { %"struct.std::atomic.203" }
%"struct.std::atomic.203" = type { %"struct.std::__atomic_base.204" }
%"struct.std::__atomic_base.204" = type { i64 }
%"struct.std::atomic.205" = type { %"struct.std::__atomic_base.206" }
%"struct.std::__atomic_base.206" = type { ptr }
%"class.google::protobuf::internal::SerialArena" = type { %"struct.std::atomic.207", ptr, ptr, ptr, %"struct.std::atomic.209", %"struct.std::atomic.211", %"struct.std::atomic.213", %"struct.std::atomic.211", %"struct.std::atomic.211", ptr, i8, ptr }
%"struct.std::atomic.207" = type { %"struct.std::__atomic_base.208" }
%"struct.std::__atomic_base.208" = type { ptr }
%"struct.std::atomic.209" = type { %"struct.std::__atomic_base.210" }
%"struct.std::__atomic_base.210" = type { ptr }
%"struct.std::atomic.213" = type { %"struct.std::__atomic_base.214" }
%"struct.std::__atomic_base.214" = type { ptr }
%"struct.std::atomic.211" = type { %"struct.std::__atomic_base.212" }
%"struct.std::__atomic_base.212" = type { i64 }
%"struct.google::protobuf::internal::SerialArena::CachedBlock" = type { ptr }
%"struct.google::protobuf::internal::RepeatedPtrFieldBase::Rep" = type { i32, [268435454 x ptr] }

$_ZN6google8protobuf7MessageC2EPNS0_5ArenaE = comdat any

$_ZN6google8protobuf17FileDescriptorSet10SharedCtorEPNS0_5ArenaE = comdat any

$_ZN6google8protobuf7MessageD2Ev = comdat any

$_ZN6google8protobuf11MessageLite19internal_visibilityEv = comdat any

$_ZN6google8protobuf8internal16InternalMetadata6DeleteINS0_15UnknownFieldSetEEEvv = comdat any

$__clang_call_terminate = comdat any

$_ZN6google8protobuf17FileDescriptorSet10SharedDtorEv = comdat any

$_ZN6google8protobuf16RepeatedPtrFieldINS0_19FileDescriptorProtoEE5ClearEv = comdat any

$_ZNK6google8protobuf17FileDescriptorSet19_internal_file_sizeEv = comdat any

$_ZNK6google8protobuf17FileDescriptorSet14_internal_fileEv = comdat any

$_ZNK6google8protobuf16RepeatedPtrFieldINS0_19FileDescriptorProtoEE3GetEi = comdat any

$_ZNK6google8protobuf19FileDescriptorProto13GetCachedSizeEv = comdat any

$_ZNK6google8protobuf16RepeatedPtrFieldINS0_19FileDescriptorProtoEE5beginEv = comdat any

$_ZNK6google8protobuf16RepeatedPtrFieldINS0_19FileDescriptorProtoEE3endEv = comdat any

$_ZN6google8protobuf8internalneERKNS1_19RepeatedPtrIteratorIKNS0_19FileDescriptorProtoEEES7_ = comdat any

$_ZNK6google8protobuf8internal19RepeatedPtrIteratorIKNS0_19FileDescriptorProtoEEdeEv = comdat any

$_ZN6google8protobuf8internal14WireFormatLite11MessageSizeINS0_19FileDescriptorProtoEEEmRKT_ = comdat any

$_ZN6google8protobuf8internal19RepeatedPtrIteratorIKNS0_19FileDescriptorProtoEEppEv = comdat any

$_ZN4absl12lts_2023080212log_internal10NullStream14InternalStreamEv = comdat any

$_ZN6google8protobuf17FileDescriptorSet22_internal_mutable_fileEv = comdat any

$_ZN6google8protobuf16RepeatedPtrFieldINS0_19FileDescriptorProtoEE9MergeFromERKS3_ = comdat any

$_ZN6google8protobuf17FileDescriptorSet9MergeFromERKS1_ = comdat any

$_ZN6google8protobuf8internal17AllAreInitializedINS0_19FileDescriptorProtoEEEbRKNS0_16RepeatedPtrFieldIT_EE = comdat any

$_ZN6google8protobuf16RepeatedPtrFieldINS0_19FileDescriptorProtoEE12InternalSwapEPS3_ = comdat any

$_ZN6google8protobuf19FileDescriptorProto10SharedCtorEPNS0_5ArenaE = comdat any

$_ZN6google8protobuf19FileDescriptorProto10SharedDtorEv = comdat any

$_ZN6google8protobuf16RepeatedPtrFieldINSt7__cxx1112basic_stringIcSt11char_traitsIcESaIcEEEE5ClearEv = comdat any

$_ZN6google8protobuf16RepeatedPtrFieldINS0_15DescriptorProtoEE5ClearEv = comdat any

$_ZN6google8protobuf16RepeatedPtrFieldINS0_19EnumDescriptorProtoEE5ClearEv = comdat any

$_ZN6google8protobuf16RepeatedPtrFieldINS0_22ServiceDescriptorProtoEE5ClearEv = comdat any

$_ZN6google8protobuf16RepeatedPtrFieldINS0_20FieldDescriptorProtoEE5ClearEv = comdat any

$_ZN6google8protobuf13RepeatedFieldIiE5ClearEv = comdat any

$_ZN6google8protobuf8internal14ArenaStringPtr22ClearNonDefaultToEmptyEv = comdat any

$_ZNK6google8protobuf19FileDescriptorProto14_internal_nameB5cxx11Ev = comdat any

$_ZN6google8protobuf8internal10WireFormat26VerifyUTF8StringNamedFieldEPKciNS2_9OperationES4_ = comdat any

$_ZN6google8protobuf2io19EpsCopyOutputStream23WriteStringMaybeAliasedEjRKNSt7__cxx1112basic_stringIcSt11char_traitsIcESaIcEEEPh = comdat any

$_ZNK6google8protobuf19FileDescriptorProto17_internal_packageB5cxx11Ev = comdat any

$_ZNK6google8protobuf19FileDescriptorProto25_internal_dependency_sizeEv = comdat any

$_ZNK6google8protobuf19FileDescriptorProto20_internal_dependencyB5cxx11Ev = comdat any

$_ZNK6google8protobuf16RepeatedPtrFieldINSt7__cxx1112basic_stringIcSt11char_traitsIcESaIcEEEE3GetEi = comdat any

$_ZNK6google8protobuf19FileDescriptorProto27_internal_message_type_sizeEv = comdat any

$_ZNK6google8protobuf19FileDescriptorProto22_internal_message_typeEv = comdat any

$_ZNK6google8protobuf16RepeatedPtrFieldINS0_15DescriptorProtoEE3GetEi = comdat any

$_ZNK6google8protobuf15DescriptorProto13GetCachedSizeEv = comdat any

$_ZNK6google8protobuf19FileDescriptorProto24_internal_enum_type_sizeEv = comdat any

$_ZNK6google8protobuf19FileDescriptorProto19_internal_enum_typeEv = comdat any

$_ZNK6google8protobuf16RepeatedPtrFieldINS0_19EnumDescriptorProtoEE3GetEi = comdat any

$_ZNK6google8protobuf19EnumDescriptorProto13GetCachedSizeEv = comdat any

$_ZNK6google8protobuf19FileDescriptorProto22_internal_service_sizeEv = comdat any

$_ZNK6google8protobuf19FileDescriptorProto17_internal_serviceEv = comdat any

$_ZNK6google8protobuf16RepeatedPtrFieldINS0_22ServiceDescriptorProtoEE3GetEi = comdat any

$_ZNK6google8protobuf22ServiceDescriptorProto13GetCachedSizeEv = comdat any

$_ZNK6google8protobuf19FileDescriptorProto24_internal_extension_sizeEv = comdat any

$_ZNK6google8protobuf19FileDescriptorProto19_internal_extensionEv = comdat any

$_ZNK6google8protobuf16RepeatedPtrFieldINS0_20FieldDescriptorProtoEE3GetEi = comdat any

$_ZNK6google8protobuf20FieldDescriptorProto13GetCachedSizeEv = comdat any

$_ZNK6google8protobuf11FileOptions13GetCachedSizeEv = comdat any

$_ZNK6google8protobuf14SourceCodeInfo13GetCachedSizeEv = comdat any

$_ZNK6google8protobuf19FileDescriptorProto32_internal_public_dependency_sizeEv = comdat any

$_ZN6google8protobuf2io19EpsCopyOutputStream11EnsureSpaceEPh = comdat any

$_ZNK6google8protobuf19FileDescriptorProto27_internal_public_dependencyEv = comdat any

$_ZNK6google8protobuf13RepeatedFieldIiE3GetEi = comdat any

$_ZNK6google8protobuf19FileDescriptorProto30_internal_weak_dependency_sizeEv = comdat any

$_ZNK6google8protobuf19FileDescriptorProto25_internal_weak_dependencyEv = comdat any

$_ZNK6google8protobuf19FileDescriptorProto16_internal_syntaxB5cxx11Ev = comdat any

$_ZNK6google8protobuf19FileDescriptorProto17_internal_editionEv = comdat any

$_ZN6google8protobuf8internal11FromIntSizeEi = comdat any

$_ZNK6google8protobuf16RepeatedPtrFieldINSt7__cxx1112basic_stringIcSt11char_traitsIcESaIcEEEE4sizeEv = comdat any

$_ZN6google8protobuf8internal14WireFormatLite10StringSizeERKNSt7__cxx1112basic_stringIcSt11char_traitsIcESaIcEEE = comdat any

$_ZNK6google8protobuf16RepeatedPtrFieldINS0_15DescriptorProtoEE5beginEv = comdat any

$_ZNK6google8protobuf16RepeatedPtrFieldINS0_15DescriptorProtoEE3endEv = comdat any

$_ZN6google8protobuf8internalneERKNS1_19RepeatedPtrIteratorIKNS0_15DescriptorProtoEEES7_ = comdat any

$_ZNK6google8protobuf8internal19RepeatedPtrIteratorIKNS0_15DescriptorProtoEEdeEv = comdat any

$_ZN6google8protobuf8internal14WireFormatLite11MessageSizeINS0_15DescriptorProtoEEEmRKT_ = comdat any

$_ZN6google8protobuf8internal19RepeatedPtrIteratorIKNS0_15DescriptorProtoEEppEv = comdat any

$_ZNK6google8protobuf16RepeatedPtrFieldINS0_19EnumDescriptorProtoEE5beginEv = comdat any

$_ZNK6google8protobuf16RepeatedPtrFieldINS0_19EnumDescriptorProtoEE3endEv = comdat any

$_ZN6google8protobuf8internalneERKNS1_19RepeatedPtrIteratorIKNS0_19EnumDescriptorProtoEEES7_ = comdat any

$_ZNK6google8protobuf8internal19RepeatedPtrIteratorIKNS0_19EnumDescriptorProtoEEdeEv = comdat any

$_ZN6google8protobuf8internal14WireFormatLite11MessageSizeINS0_19EnumDescriptorProtoEEEmRKT_ = comdat any

$_ZN6google8protobuf8internal19RepeatedPtrIteratorIKNS0_19EnumDescriptorProtoEEppEv = comdat any

$_ZNK6google8protobuf16RepeatedPtrFieldINS0_22ServiceDescriptorProtoEE5beginEv = comdat any

$_ZNK6google8protobuf16RepeatedPtrFieldINS0_22ServiceDescriptorProtoEE3endEv = comdat any

$_ZN6google8protobuf8internalneERKNS1_19RepeatedPtrIteratorIKNS0_22ServiceDescriptorProtoEEES7_ = comdat any

$_ZNK6google8protobuf8internal19RepeatedPtrIteratorIKNS0_22ServiceDescriptorProtoEEdeEv = comdat any

$_ZN6google8protobuf8internal14WireFormatLite11MessageSizeINS0_22ServiceDescriptorProtoEEEmRKT_ = comdat any

$_ZN6google8protobuf8internal19RepeatedPtrIteratorIKNS0_22ServiceDescriptorProtoEEppEv = comdat any

$_ZNK6google8protobuf16RepeatedPtrFieldINS0_20FieldDescriptorProtoEE5beginEv = comdat any

$_ZNK6google8protobuf16RepeatedPtrFieldINS0_20FieldDescriptorProtoEE3endEv = comdat any

$_ZN6google8protobuf8internalneERKNS1_19RepeatedPtrIteratorIKNS0_20FieldDescriptorProtoEEES7_ = comdat any

$_ZNK6google8protobuf8internal19RepeatedPtrIteratorIKNS0_20FieldDescriptorProtoEEdeEv = comdat any

$_ZN6google8protobuf8internal14WireFormatLite11MessageSizeINS0_20FieldDescriptorProtoEEEmRKT_ = comdat any

$_ZN6google8protobuf8internal19RepeatedPtrIteratorIKNS0_20FieldDescriptorProtoEEppEv = comdat any

$_ZN6google8protobuf8internal14WireFormatLite11MessageSizeINS0_11FileOptionsEEEmRKT_ = comdat any

$_ZN6google8protobuf8internal14WireFormatLite11MessageSizeINS0_14SourceCodeInfoEEEmRKT_ = comdat any

$_ZN6google8protobuf8internal14WireFormatLite8EnumSizeEi = comdat any

$_ZNK6google8protobuf11MessageLite8GetArenaEv = comdat any

$_ZN6google8protobuf19FileDescriptorProto28_internal_mutable_dependencyB5cxx11Ev = comdat any

$_ZN6google8protobuf16RepeatedPtrFieldINSt7__cxx1112basic_stringIcSt11char_traitsIcESaIcEEEE9MergeFromERKS8_ = comdat any

$_ZN6google8protobuf19FileDescriptorProto30_internal_mutable_message_typeEv = comdat any

$_ZN6google8protobuf16RepeatedPtrFieldINS0_15DescriptorProtoEE9MergeFromERKS3_ = comdat any

$_ZN6google8protobuf19FileDescriptorProto27_internal_mutable_enum_typeEv = comdat any

$_ZN6google8protobuf16RepeatedPtrFieldINS0_19EnumDescriptorProtoEE9MergeFromERKS3_ = comdat any

$_ZN6google8protobuf19FileDescriptorProto25_internal_mutable_serviceEv = comdat any

$_ZN6google8protobuf16RepeatedPtrFieldINS0_22ServiceDescriptorProtoEE9MergeFromERKS3_ = comdat any

$_ZN6google8protobuf19FileDescriptorProto27_internal_mutable_extensionEv = comdat any

$_ZN6google8protobuf16RepeatedPtrFieldINS0_20FieldDescriptorProtoEE9MergeFromERKS3_ = comdat any

$_ZN6google8protobuf19FileDescriptorProto35_internal_mutable_public_dependencyEv = comdat any

$_ZN6google8protobuf13RepeatedFieldIiE9MergeFromERKS2_ = comdat any

$_ZN6google8protobuf19FileDescriptorProto33_internal_mutable_weak_dependencyEv = comdat any

$_ZN6google8protobuf11FileOptions9MergeFromERKS1_ = comdat any

$_ZN6google8protobuf14SourceCodeInfo9MergeFromERKS1_ = comdat any

$_ZN6google8protobuf19FileDescriptorProto9MergeFromERKS1_ = comdat any

$_ZN6google8protobuf8internal17AllAreInitializedINS0_15DescriptorProtoEEEbRKNS0_16RepeatedPtrFieldIT_EE = comdat any

$_ZN6google8protobuf8internal17AllAreInitializedINS0_19EnumDescriptorProtoEEEbRKNS0_16RepeatedPtrFieldIT_EE = comdat any

$_ZN6google8protobuf8internal17AllAreInitializedINS0_22ServiceDescriptorProtoEEEbRKNS0_16RepeatedPtrFieldIT_EE = comdat any

$_ZN6google8protobuf8internal17AllAreInitializedINS0_20FieldDescriptorProtoEEEbRKNS0_16RepeatedPtrFieldIT_EE = comdat any

$_ZSt4swapIjENSt9enable_ifIXsr6__and_ISt6__not_ISt15__is_tuple_likeIT_EESt21is_move_constructibleIS3_ESt18is_move_assignableIS3_EEE5valueEvE4typeERS3_SC_ = comdat any

$_ZN6google8protobuf16RepeatedPtrFieldINSt7__cxx1112basic_stringIcSt11char_traitsIcESaIcEEEE12InternalSwapEPS8_ = comdat any

$_ZN6google8protobuf16RepeatedPtrFieldINS0_15DescriptorProtoEE12InternalSwapEPS3_ = comdat any

$_ZN6google8protobuf16RepeatedPtrFieldINS0_19EnumDescriptorProtoEE12InternalSwapEPS3_ = comdat any

$_ZN6google8protobuf16RepeatedPtrFieldINS0_22ServiceDescriptorProtoEE12InternalSwapEPS3_ = comdat any

$_ZN6google8protobuf16RepeatedPtrFieldINS0_20FieldDescriptorProtoEE12InternalSwapEPS3_ = comdat any

$_ZN6google8protobuf13RepeatedFieldIiE12InternalSwapEPS2_ = comdat any

$_ZN6google8protobuf8internal7memswapILm20EEEvPcS3_ = comdat any

$_ZN6google8protobuf30DescriptorProto_ExtensionRange10SharedCtorEPNS0_5ArenaE = comdat any

$_ZN6google8protobuf30DescriptorProto_ExtensionRange10SharedDtorEv = comdat any

$_ZN6google8protobuf8internal14WireFormatLite26WriteInt32ToArrayWithFieldILi1EEEPhPNS0_2io19EpsCopyOutputStreamEiS4_ = comdat any

$_ZNK6google8protobuf30DescriptorProto_ExtensionRange15_internal_startEv = comdat any

$_ZN6google8protobuf8internal14WireFormatLite26WriteInt32ToArrayWithFieldILi2EEEPhPNS0_2io19EpsCopyOutputStreamEiS4_ = comdat any

$_ZNK6google8protobuf30DescriptorProto_ExtensionRange13_internal_endEv = comdat any

$_ZNK6google8protobuf21ExtensionRangeOptions13GetCachedSizeEv = comdat any

$_ZN6google8protobuf8internal14WireFormatLite11MessageSizeINS0_21ExtensionRangeOptionsEEEmRKT_ = comdat any

$_ZN6google8protobuf8internal14WireFormatLite16Int32SizePlusOneEi = comdat any

$_ZN6google8protobuf21ExtensionRangeOptions9MergeFromERKS1_ = comdat any

$_ZN6google8protobuf30DescriptorProto_ExtensionRange9MergeFromERKS1_ = comdat any

$_ZN6google8protobuf29DescriptorProto_ReservedRange10SharedCtorEPNS0_5ArenaE = comdat any

$_ZN6google8protobuf29DescriptorProto_ReservedRange9MergeFromERKS1_ = comdat any

$_ZN6google8protobuf29DescriptorProto_ReservedRange10SharedDtorEv = comdat any

$_ZNK6google8protobuf29DescriptorProto_ReservedRange15_internal_startEv = comdat any

$_ZNK6google8protobuf29DescriptorProto_ReservedRange13_internal_endEv = comdat any

$_ZN6google8protobuf8internal7memswapILm8EEEvPcS3_ = comdat any

$_ZN6google8protobuf15DescriptorProto10SharedCtorEPNS0_5ArenaE = comdat any

$_ZN6google8protobuf15DescriptorProto10SharedDtorEv = comdat any

$_ZN6google8protobuf16RepeatedPtrFieldINS0_30DescriptorProto_ExtensionRangeEE5ClearEv = comdat any

$_ZN6google8protobuf16RepeatedPtrFieldINS0_20OneofDescriptorProtoEE5ClearEv = comdat any

$_ZN6google8protobuf16RepeatedPtrFieldINS0_29DescriptorProto_ReservedRangeEE5ClearEv = comdat any

$_ZNK6google8protobuf15DescriptorProto14_internal_nameB5cxx11Ev = comdat any

$_ZNK6google8protobuf15DescriptorProto20_internal_field_sizeEv = comdat any

$_ZNK6google8protobuf15DescriptorProto15_internal_fieldEv = comdat any

$_ZNK6google8protobuf15DescriptorProto26_internal_nested_type_sizeEv = comdat any

$_ZNK6google8protobuf15DescriptorProto21_internal_nested_typeEv = comdat any

$_ZNK6google8protobuf15DescriptorProto24_internal_enum_type_sizeEv = comdat any

$_ZNK6google8protobuf15DescriptorProto19_internal_enum_typeEv = comdat any

$_ZNK6google8protobuf15DescriptorProto30_internal_extension_range_sizeEv = comdat any

$_ZNK6google8protobuf15DescriptorProto25_internal_extension_rangeEv = comdat any

$_ZNK6google8protobuf16RepeatedPtrFieldINS0_30DescriptorProto_ExtensionRangeEE3GetEi = comdat any

$_ZNK6google8protobuf30DescriptorProto_ExtensionRange13GetCachedSizeEv = comdat any

$_ZNK6google8protobuf15DescriptorProto24_internal_extension_sizeEv = comdat any

$_ZNK6google8protobuf15DescriptorProto19_internal_extensionEv = comdat any

$_ZNK6google8protobuf14MessageOptions13GetCachedSizeEv = comdat any

$_ZNK6google8protobuf15DescriptorProto25_internal_oneof_decl_sizeEv = comdat any

$_ZNK6google8protobuf15DescriptorProto20_internal_oneof_declEv = comdat any

$_ZNK6google8protobuf16RepeatedPtrFieldINS0_20OneofDescriptorProtoEE3GetEi = comdat any

$_ZNK6google8protobuf20OneofDescriptorProto13GetCachedSizeEv = comdat any

$_ZNK6google8protobuf15DescriptorProto29_internal_reserved_range_sizeEv = comdat any

$_ZNK6google8protobuf15DescriptorProto24_internal_reserved_rangeEv = comdat any

$_ZNK6google8protobuf16RepeatedPtrFieldINS0_29DescriptorProto_ReservedRangeEE3GetEi = comdat any

$_ZNK6google8protobuf29DescriptorProto_ReservedRange13GetCachedSizeEv = comdat any

$_ZNK6google8protobuf15DescriptorProto28_internal_reserved_name_sizeEv = comdat any

$_ZNK6google8protobuf15DescriptorProto23_internal_reserved_nameB5cxx11Ev = comdat any

$_ZNK6google8protobuf16RepeatedPtrFieldINS0_30DescriptorProto_ExtensionRangeEE5beginEv = comdat any

$_ZNK6google8protobuf16RepeatedPtrFieldINS0_30DescriptorProto_ExtensionRangeEE3endEv = comdat any

$_ZN6google8protobuf8internalneERKNS1_19RepeatedPtrIteratorIKNS0_30DescriptorProto_ExtensionRangeEEES7_ = comdat any

$_ZNK6google8protobuf8internal19RepeatedPtrIteratorIKNS0_30DescriptorProto_ExtensionRangeEEdeEv = comdat any

$_ZN6google8protobuf8internal14WireFormatLite11MessageSizeINS0_30DescriptorProto_ExtensionRangeEEEmRKT_ = comdat any

$_ZN6google8protobuf8internal19RepeatedPtrIteratorIKNS0_30DescriptorProto_ExtensionRangeEEppEv = comdat any

$_ZNK6google8protobuf16RepeatedPtrFieldINS0_20OneofDescriptorProtoEE5beginEv = comdat any

$_ZNK6google8protobuf16RepeatedPtrFieldINS0_20OneofDescriptorProtoEE3endEv = comdat any

$_ZN6google8protobuf8internalneERKNS1_19RepeatedPtrIteratorIKNS0_20OneofDescriptorProtoEEES7_ = comdat any

$_ZNK6google8protobuf8internal19RepeatedPtrIteratorIKNS0_20OneofDescriptorProtoEEdeEv = comdat any

$_ZN6google8protobuf8internal14WireFormatLite11MessageSizeINS0_20OneofDescriptorProtoEEEmRKT_ = comdat any

$_ZN6google8protobuf8internal19RepeatedPtrIteratorIKNS0_20OneofDescriptorProtoEEppEv = comdat any

$_ZNK6google8protobuf16RepeatedPtrFieldINS0_29DescriptorProto_ReservedRangeEE5beginEv = comdat any

$_ZNK6google8protobuf16RepeatedPtrFieldINS0_29DescriptorProto_ReservedRangeEE3endEv = comdat any

$_ZN6google8protobuf8internalneERKNS1_19RepeatedPtrIteratorIKNS0_29DescriptorProto_ReservedRangeEEES7_ = comdat any

$_ZNK6google8protobuf8internal19RepeatedPtrIteratorIKNS0_29DescriptorProto_ReservedRangeEEdeEv = comdat any

$_ZN6google8protobuf8internal14WireFormatLite11MessageSizeINS0_29DescriptorProto_ReservedRangeEEEmRKT_ = comdat any

$_ZN6google8protobuf8internal19RepeatedPtrIteratorIKNS0_29DescriptorProto_ReservedRangeEEppEv = comdat any

$_ZN6google8protobuf8internal14WireFormatLite11MessageSizeINS0_14MessageOptionsEEEmRKT_ = comdat any

$_ZN6google8protobuf15DescriptorProto23_internal_mutable_fieldEv = comdat any

$_ZN6google8protobuf15DescriptorProto29_internal_mutable_nested_typeEv = comdat any

$_ZN6google8protobuf15DescriptorProto27_internal_mutable_enum_typeEv = comdat any

$_ZN6google8protobuf15DescriptorProto33_internal_mutable_extension_rangeEv = comdat any

$_ZN6google8protobuf16RepeatedPtrFieldINS0_30DescriptorProto_ExtensionRangeEE9MergeFromERKS3_ = comdat any

$_ZN6google8protobuf15DescriptorProto27_internal_mutable_extensionEv = comdat any

$_ZN6google8protobuf15DescriptorProto28_internal_mutable_oneof_declEv = comdat any

$_ZN6google8protobuf16RepeatedPtrFieldINS0_20OneofDescriptorProtoEE9MergeFromERKS3_ = comdat any

$_ZN6google8protobuf15DescriptorProto32_internal_mutable_reserved_rangeEv = comdat any

$_ZN6google8protobuf16RepeatedPtrFieldINS0_29DescriptorProto_ReservedRangeEE9MergeFromERKS3_ = comdat any

$_ZN6google8protobuf15DescriptorProto31_internal_mutable_reserved_nameB5cxx11Ev = comdat any

$_ZN6google8protobuf14MessageOptions9MergeFromERKS1_ = comdat any

$_ZN6google8protobuf15DescriptorProto9MergeFromERKS1_ = comdat any

$_ZN6google8protobuf8internal17AllAreInitializedINS0_30DescriptorProto_ExtensionRangeEEEbRKNS0_16RepeatedPtrFieldIT_EE = comdat any

$_ZN6google8protobuf8internal17AllAreInitializedINS0_20OneofDescriptorProtoEEEbRKNS0_16RepeatedPtrFieldIT_EE = comdat any

$_ZN6google8protobuf16RepeatedPtrFieldINS0_30DescriptorProto_ExtensionRangeEE12InternalSwapEPS3_ = comdat any

$_ZN6google8protobuf16RepeatedPtrFieldINS0_20OneofDescriptorProtoEE12InternalSwapEPS3_ = comdat any

$_ZN6google8protobuf16RepeatedPtrFieldINS0_29DescriptorProto_ReservedRangeEE12InternalSwapEPS3_ = comdat any

$_ZSt4swapIPN6google8protobuf14MessageOptionsEENSt9enable_ifIXsr6__and_ISt6__not_ISt15__is_tuple_likeIT_EESt21is_move_constructibleIS7_ESt18is_move_assignableIS7_EEE5valueEvE4typeERS7_SG_ = comdat any

$_ZN6google8protobuf33ExtensionRangeOptions_Declaration10SharedCtorEPNS0_5ArenaE = comdat any

$_ZN6google8protobuf33ExtensionRangeOptions_Declaration10SharedDtorEv = comdat any

$_ZNK6google8protobuf33ExtensionRangeOptions_Declaration16_internal_numberEv = comdat any

$_ZNK6google8protobuf33ExtensionRangeOptions_Declaration19_internal_full_nameB5cxx11Ev = comdat any

$_ZNK6google8protobuf33ExtensionRangeOptions_Declaration14_internal_typeB5cxx11Ev = comdat any

$_ZNK6google8protobuf33ExtensionRangeOptions_Declaration18_internal_reservedEv = comdat any

$_ZNK6google8protobuf33ExtensionRangeOptions_Declaration18_internal_repeatedEv = comdat any

$_ZN6google8protobuf33ExtensionRangeOptions_Declaration9MergeFromERKS1_ = comdat any

$_ZN6google8protobuf8internal7memswapILm6EEEvPcS3_ = comdat any

$_ZN6google8protobuf21ExtensionRangeOptions10SharedCtorEPNS0_5ArenaE = comdat any

$_ZN6google8protobuf21ExtensionRangeOptions10SharedDtorEv = comdat any

$_ZN6google8protobuf16RepeatedPtrFieldINS0_33ExtensionRangeOptions_DeclarationEE5ClearEv = comdat any

$_ZN6google8protobuf16RepeatedPtrFieldINS0_19UninterpretedOptionEE5ClearEv = comdat any

$_ZNK6google8protobuf21ExtensionRangeOptions26_internal_declaration_sizeEv = comdat any

$_ZNK6google8protobuf21ExtensionRangeOptions21_internal_declarationEv = comdat any

$_ZNK6google8protobuf16RepeatedPtrFieldINS0_33ExtensionRangeOptions_DeclarationEE3GetEi = comdat any

$_ZNK6google8protobuf33ExtensionRangeOptions_Declaration13GetCachedSizeEv = comdat any

$_ZNK6google8protobuf21ExtensionRangeOptions22_internal_verificationEv = comdat any

$_ZNK6google8protobuf10FeatureSet13GetCachedSizeEv = comdat any

$_ZNK6google8protobuf21ExtensionRangeOptions35_internal_uninterpreted_option_sizeEv = comdat any

$_ZNK6google8protobuf21ExtensionRangeOptions30_internal_uninterpreted_optionEv = comdat any

$_ZNK6google8protobuf16RepeatedPtrFieldINS0_19UninterpretedOptionEE3GetEi = comdat any

$_ZNK6google8protobuf19UninterpretedOption13GetCachedSizeEv = comdat any

$_ZNK6google8protobuf8internal12ExtensionSet18_InternalSerializeEPKNS0_11MessageLiteEiiPhPNS0_2io19EpsCopyOutputStreamE = comdat any

$_ZN6google8protobuf21ExtensionRangeOptions25internal_default_instanceEv = comdat any

$_ZNK6google8protobuf16RepeatedPtrFieldINS0_33ExtensionRangeOptions_DeclarationEE5beginEv = comdat any

$_ZNK6google8protobuf16RepeatedPtrFieldINS0_33ExtensionRangeOptions_DeclarationEE3endEv = comdat any

$_ZN6google8protobuf8internalneERKNS1_19RepeatedPtrIteratorIKNS0_33ExtensionRangeOptions_DeclarationEEES7_ = comdat any

$_ZNK6google8protobuf8internal19RepeatedPtrIteratorIKNS0_33ExtensionRangeOptions_DeclarationEEdeEv = comdat any

$_ZN6google8protobuf8internal14WireFormatLite11MessageSizeINS0_33ExtensionRangeOptions_DeclarationEEEmRKT_ = comdat any

$_ZN6google8protobuf8internal19RepeatedPtrIteratorIKNS0_33ExtensionRangeOptions_DeclarationEEppEv = comdat any

$_ZNK6google8protobuf16RepeatedPtrFieldINS0_19UninterpretedOptionEE5beginEv = comdat any

$_ZNK6google8protobuf16RepeatedPtrFieldINS0_19UninterpretedOptionEE3endEv = comdat any

$_ZN6google8protobuf8internalneERKNS1_19RepeatedPtrIteratorIKNS0_19UninterpretedOptionEEES7_ = comdat any

$_ZNK6google8protobuf8internal19RepeatedPtrIteratorIKNS0_19UninterpretedOptionEEdeEv = comdat any

$_ZN6google8protobuf8internal14WireFormatLite11MessageSizeINS0_19UninterpretedOptionEEEmRKT_ = comdat any

$_ZN6google8protobuf8internal19RepeatedPtrIteratorIKNS0_19UninterpretedOptionEEppEv = comdat any

$_ZN6google8protobuf8internal14WireFormatLite11MessageSizeINS0_10FeatureSetEEEmRKT_ = comdat any

$_ZN6google8protobuf21ExtensionRangeOptions29_internal_mutable_declarationEv = comdat any

$_ZN6google8protobuf16RepeatedPtrFieldINS0_33ExtensionRangeOptions_DeclarationEE9MergeFromERKS3_ = comdat any

$_ZN6google8protobuf21ExtensionRangeOptions38_internal_mutable_uninterpreted_optionEv = comdat any

$_ZN6google8protobuf16RepeatedPtrFieldINS0_19UninterpretedOptionEE9MergeFromERKS3_ = comdat any

$_ZN6google8protobuf10FeatureSet9MergeFromERKS1_ = comdat any

$_ZN6google8protobuf8internal17AllAreInitializedINS0_19UninterpretedOptionEEEbRKNS0_16RepeatedPtrFieldIT_EE = comdat any

$_ZN6google8protobuf16RepeatedPtrFieldINS0_33ExtensionRangeOptions_DeclarationEE12InternalSwapEPS3_ = comdat any

$_ZN6google8protobuf16RepeatedPtrFieldINS0_19UninterpretedOptionEE12InternalSwapEPS3_ = comdat any

$_ZN6google8protobuf8internal7memswapILm12EEEvPcS3_ = comdat any

$_ZN6google8protobuf20FieldDescriptorProto10SharedCtorEPNS0_5ArenaE = comdat any

$_ZN6google8protobuf20FieldDescriptorProto10SharedDtorEv = comdat any

$_ZNK6google8protobuf20FieldDescriptorProto14_internal_nameB5cxx11Ev = comdat any

$_ZNK6google8protobuf20FieldDescriptorProto18_internal_extendeeB5cxx11Ev = comdat any

$_ZN6google8protobuf8internal14WireFormatLite26WriteInt32ToArrayWithFieldILi3EEEPhPNS0_2io19EpsCopyOutputStreamEiS4_ = comdat any

$_ZNK6google8protobuf20FieldDescriptorProto16_internal_numberEv = comdat any

$_ZNK6google8protobuf20FieldDescriptorProto15_internal_labelEv = comdat any

$_ZNK6google8protobuf20FieldDescriptorProto14_internal_typeEv = comdat any

$_ZNK6google8protobuf20FieldDescriptorProto19_internal_type_nameB5cxx11Ev = comdat any

$_ZNK6google8protobuf20FieldDescriptorProto23_internal_default_valueB5cxx11Ev = comdat any

$_ZNK6google8protobuf12FieldOptions13GetCachedSizeEv = comdat any

$_ZN6google8protobuf8internal14WireFormatLite26WriteInt32ToArrayWithFieldILi9EEEPhPNS0_2io19EpsCopyOutputStreamEiS4_ = comdat any

$_ZNK6google8protobuf20FieldDescriptorProto21_internal_oneof_indexEv = comdat any

$_ZNK6google8protobuf20FieldDescriptorProto19_internal_json_nameB5cxx11Ev = comdat any

$_ZNK6google8protobuf20FieldDescriptorProto25_internal_proto3_optionalEv = comdat any

$_ZN6google8protobuf8internal14WireFormatLite11MessageSizeINS0_12FieldOptionsEEEmRKT_ = comdat any

$_ZN6google8protobuf12FieldOptions9MergeFromERKS1_ = comdat any

$_ZN6google8protobuf20FieldDescriptorProto9MergeFromERKS1_ = comdat any

$_ZN6google8protobuf8internal7memswapILm28EEEvPcS3_ = comdat any

$_ZN6google8protobuf20OneofDescriptorProto10SharedCtorEPNS0_5ArenaE = comdat any

$_ZN6google8protobuf20OneofDescriptorProto10SharedDtorEv = comdat any

$_ZNK6google8protobuf20OneofDescriptorProto14_internal_nameB5cxx11Ev = comdat any

$_ZNK6google8protobuf12OneofOptions13GetCachedSizeEv = comdat any

$_ZN6google8protobuf8internal14WireFormatLite11MessageSizeINS0_12OneofOptionsEEEmRKT_ = comdat any

$_ZN6google8protobuf12OneofOptions9MergeFromERKS1_ = comdat any

$_ZN6google8protobuf20OneofDescriptorProto9MergeFromERKS1_ = comdat any

$_ZSt4swapIPN6google8protobuf12OneofOptionsEENSt9enable_ifIXsr6__and_ISt6__not_ISt15__is_tuple_likeIT_EESt21is_move_constructibleIS7_ESt18is_move_assignableIS7_EEE5valueEvE4typeERS7_SG_ = comdat any

$_ZN6google8protobuf37EnumDescriptorProto_EnumReservedRange10SharedCtorEPNS0_5ArenaE = comdat any

$_ZN6google8protobuf37EnumDescriptorProto_EnumReservedRange9MergeFromERKS1_ = comdat any

$_ZN6google8protobuf37EnumDescriptorProto_EnumReservedRange10SharedDtorEv = comdat any

$_ZNK6google8protobuf37EnumDescriptorProto_EnumReservedRange15_internal_startEv = comdat any

$_ZNK6google8protobuf37EnumDescriptorProto_EnumReservedRange13_internal_endEv = comdat any

$_ZN6google8protobuf19EnumDescriptorProto10SharedCtorEPNS0_5ArenaE = comdat any

$_ZN6google8protobuf19EnumDescriptorProto10SharedDtorEv = comdat any

$_ZN6google8protobuf16RepeatedPtrFieldINS0_24EnumValueDescriptorProtoEE5ClearEv = comdat any

$_ZN6google8protobuf16RepeatedPtrFieldINS0_37EnumDescriptorProto_EnumReservedRangeEE5ClearEv = comdat any

$_ZNK6google8protobuf19EnumDescriptorProto14_internal_nameB5cxx11Ev = comdat any

$_ZNK6google8protobuf19EnumDescriptorProto20_internal_value_sizeEv = comdat any

$_ZNK6google8protobuf19EnumDescriptorProto15_internal_valueEv = comdat any

$_ZNK6google8protobuf16RepeatedPtrFieldINS0_24EnumValueDescriptorProtoEE3GetEi = comdat any

$_ZNK6google8protobuf24EnumValueDescriptorProto13GetCachedSizeEv = comdat any

$_ZNK6google8protobuf11EnumOptions13GetCachedSizeEv = comdat any

$_ZNK6google8protobuf19EnumDescriptorProto29_internal_reserved_range_sizeEv = comdat any

$_ZNK6google8protobuf19EnumDescriptorProto24_internal_reserved_rangeEv = comdat any

$_ZNK6google8protobuf16RepeatedPtrFieldINS0_37EnumDescriptorProto_EnumReservedRangeEE3GetEi = comdat any

$_ZNK6google8protobuf37EnumDescriptorProto_EnumReservedRange13GetCachedSizeEv = comdat any

$_ZNK6google8protobuf19EnumDescriptorProto28_internal_reserved_name_sizeEv = comdat any

$_ZNK6google8protobuf19EnumDescriptorProto23_internal_reserved_nameB5cxx11Ev = comdat any

$_ZNK6google8protobuf16RepeatedPtrFieldINS0_24EnumValueDescriptorProtoEE5beginEv = comdat any

$_ZNK6google8protobuf16RepeatedPtrFieldINS0_24EnumValueDescriptorProtoEE3endEv = comdat any

$_ZN6google8protobuf8internalneERKNS1_19RepeatedPtrIteratorIKNS0_24EnumValueDescriptorProtoEEES7_ = comdat any

$_ZNK6google8protobuf8internal19RepeatedPtrIteratorIKNS0_24EnumValueDescriptorProtoEEdeEv = comdat any

$_ZN6google8protobuf8internal14WireFormatLite11MessageSizeINS0_24EnumValueDescriptorProtoEEEmRKT_ = comdat any

$_ZN6google8protobuf8internal19RepeatedPtrIteratorIKNS0_24EnumValueDescriptorProtoEEppEv = comdat any

$_ZNK6google8protobuf16RepeatedPtrFieldINS0_37EnumDescriptorProto_EnumReservedRangeEE5beginEv = comdat any

$_ZNK6google8protobuf16RepeatedPtrFieldINS0_37EnumDescriptorProto_EnumReservedRangeEE3endEv = comdat any

$_ZN6google8protobuf8internalneERKNS1_19RepeatedPtrIteratorIKNS0_37EnumDescriptorProto_EnumReservedRangeEEES7_ = comdat any

$_ZNK6google8protobuf8internal19RepeatedPtrIteratorIKNS0_37EnumDescriptorProto_EnumReservedRangeEEdeEv = comdat any

$_ZN6google8protobuf8internal14WireFormatLite11MessageSizeINS0_37EnumDescriptorProto_EnumReservedRangeEEEmRKT_ = comdat any

$_ZN6google8protobuf8internal19RepeatedPtrIteratorIKNS0_37EnumDescriptorProto_EnumReservedRangeEEppEv = comdat any

$_ZN6google8protobuf8internal14WireFormatLite11MessageSizeINS0_11EnumOptionsEEEmRKT_ = comdat any

$_ZN6google8protobuf19EnumDescriptorProto23_internal_mutable_valueEv = comdat any

$_ZN6google8protobuf16RepeatedPtrFieldINS0_24EnumValueDescriptorProtoEE9MergeFromERKS3_ = comdat any

$_ZN6google8protobuf19EnumDescriptorProto32_internal_mutable_reserved_rangeEv = comdat any

$_ZN6google8protobuf16RepeatedPtrFieldINS0_37EnumDescriptorProto_EnumReservedRangeEE9MergeFromERKS3_ = comdat any

$_ZN6google8protobuf19EnumDescriptorProto31_internal_mutable_reserved_nameB5cxx11Ev = comdat any

$_ZN6google8protobuf11EnumOptions9MergeFromERKS1_ = comdat any

$_ZN6google8protobuf19EnumDescriptorProto9MergeFromERKS1_ = comdat any

$_ZN6google8protobuf8internal17AllAreInitializedINS0_24EnumValueDescriptorProtoEEEbRKNS0_16RepeatedPtrFieldIT_EE = comdat any

$_ZN6google8protobuf16RepeatedPtrFieldINS0_24EnumValueDescriptorProtoEE12InternalSwapEPS3_ = comdat any

$_ZN6google8protobuf16RepeatedPtrFieldINS0_37EnumDescriptorProto_EnumReservedRangeEE12InternalSwapEPS3_ = comdat any

$_ZSt4swapIPN6google8protobuf11EnumOptionsEENSt9enable_ifIXsr6__and_ISt6__not_ISt15__is_tuple_likeIT_EESt21is_move_constructibleIS7_ESt18is_move_assignableIS7_EEE5valueEvE4typeERS7_SG_ = comdat any

$_ZN6google8protobuf24EnumValueDescriptorProto10SharedCtorEPNS0_5ArenaE = comdat any

$_ZN6google8protobuf24EnumValueDescriptorProto10SharedDtorEv = comdat any

$_ZNK6google8protobuf24EnumValueDescriptorProto14_internal_nameB5cxx11Ev = comdat any

$_ZNK6google8protobuf24EnumValueDescriptorProto16_internal_numberEv = comdat any

$_ZNK6google8protobuf16EnumValueOptions13GetCachedSizeEv = comdat any

$_ZN6google8protobuf8internal14WireFormatLite11MessageSizeINS0_16EnumValueOptionsEEEmRKT_ = comdat any

$_ZN6google8protobuf16EnumValueOptions9MergeFromERKS1_ = comdat any

$_ZN6google8protobuf24EnumValueDescriptorProto9MergeFromERKS1_ = comdat any

$_ZN6google8protobuf22ServiceDescriptorProto10SharedCtorEPNS0_5ArenaE = comdat any

$_ZN6google8protobuf22ServiceDescriptorProto10SharedDtorEv = comdat any

$_ZN6google8protobuf16RepeatedPtrFieldINS0_21MethodDescriptorProtoEE5ClearEv = comdat any

$_ZNK6google8protobuf22ServiceDescriptorProto14_internal_nameB5cxx11Ev = comdat any

$_ZNK6google8protobuf22ServiceDescriptorProto21_internal_method_sizeEv = comdat any

$_ZNK6google8protobuf22ServiceDescriptorProto16_internal_methodEv = comdat any

$_ZNK6google8protobuf16RepeatedPtrFieldINS0_21MethodDescriptorProtoEE3GetEi = comdat any

$_ZNK6google8protobuf21MethodDescriptorProto13GetCachedSizeEv = comdat any

$_ZNK6google8protobuf14ServiceOptions13GetCachedSizeEv = comdat any

$_ZNK6google8protobuf16RepeatedPtrFieldINS0_21MethodDescriptorProtoEE5beginEv = comdat any

$_ZNK6google8protobuf16RepeatedPtrFieldINS0_21MethodDescriptorProtoEE3endEv = comdat any

$_ZN6google8protobuf8internalneERKNS1_19RepeatedPtrIteratorIKNS0_21MethodDescriptorProtoEEES7_ = comdat any

$_ZNK6google8protobuf8internal19RepeatedPtrIteratorIKNS0_21MethodDescriptorProtoEEdeEv = comdat any

$_ZN6google8protobuf8internal14WireFormatLite11MessageSizeINS0_21MethodDescriptorProtoEEEmRKT_ = comdat any

$_ZN6google8protobuf8internal19RepeatedPtrIteratorIKNS0_21MethodDescriptorProtoEEppEv = comdat any

$_ZN6google8protobuf8internal14WireFormatLite11MessageSizeINS0_14ServiceOptionsEEEmRKT_ = comdat any

$_ZN6google8protobuf22ServiceDescriptorProto24_internal_mutable_methodEv = comdat any

$_ZN6google8protobuf16RepeatedPtrFieldINS0_21MethodDescriptorProtoEE9MergeFromERKS3_ = comdat any

$_ZN6google8protobuf14ServiceOptions9MergeFromERKS1_ = comdat any

$_ZN6google8protobuf22ServiceDescriptorProto9MergeFromERKS1_ = comdat any

$_ZN6google8protobuf8internal17AllAreInitializedINS0_21MethodDescriptorProtoEEEbRKNS0_16RepeatedPtrFieldIT_EE = comdat any

$_ZN6google8protobuf16RepeatedPtrFieldINS0_21MethodDescriptorProtoEE12InternalSwapEPS3_ = comdat any

$_ZSt4swapIPN6google8protobuf14ServiceOptionsEENSt9enable_ifIXsr6__and_ISt6__not_ISt15__is_tuple_likeIT_EESt21is_move_constructibleIS7_ESt18is_move_assignableIS7_EEE5valueEvE4typeERS7_SG_ = comdat any

$_ZN6google8protobuf21MethodDescriptorProto10SharedCtorEPNS0_5ArenaE = comdat any

$_ZN6google8protobuf21MethodDescriptorProto10SharedDtorEv = comdat any

$_ZNK6google8protobuf21MethodDescriptorProto14_internal_nameB5cxx11Ev = comdat any

$_ZNK6google8protobuf21MethodDescriptorProto20_internal_input_typeB5cxx11Ev = comdat any

$_ZNK6google8protobuf21MethodDescriptorProto21_internal_output_typeB5cxx11Ev = comdat any

$_ZNK6google8protobuf13MethodOptions13GetCachedSizeEv = comdat any

$_ZNK6google8protobuf21MethodDescriptorProto26_internal_client_streamingEv = comdat any

$_ZNK6google8protobuf21MethodDescriptorProto26_internal_server_streamingEv = comdat any

$_ZN6google8protobuf8internal14WireFormatLite11MessageSizeINS0_13MethodOptionsEEEmRKT_ = comdat any

$_ZN6google8protobuf13MethodOptions9MergeFromERKS1_ = comdat any

$_ZN6google8protobuf21MethodDescriptorProto9MergeFromERKS1_ = comdat any

$_ZN6google8protobuf8internal7memswapILm10EEEvPcS3_ = comdat any

$_ZN6google8protobuf11FileOptions10SharedCtorEPNS0_5ArenaE = comdat any

$_ZN6google8protobuf11FileOptions10SharedDtorEv = comdat any

$_ZNK6google8protobuf11FileOptions22_internal_java_packageB5cxx11Ev = comdat any

$_ZNK6google8protobuf11FileOptions30_internal_java_outer_classnameB5cxx11Ev = comdat any

$_ZNK6google8protobuf11FileOptions22_internal_optimize_forEv = comdat any

$_ZNK6google8protobuf11FileOptions29_internal_java_multiple_filesEv = comdat any

$_ZNK6google8protobuf11FileOptions20_internal_go_packageB5cxx11Ev = comdat any

$_ZNK6google8protobuf11FileOptions29_internal_cc_generic_servicesEv = comdat any

$_ZNK6google8protobuf11FileOptions31_internal_java_generic_servicesEv = comdat any

$_ZNK6google8protobuf11FileOptions29_internal_py_generic_servicesEv = comdat any

$_ZNK6google8protobuf11FileOptions39_internal_java_generate_equals_and_hashEv = comdat any

$_ZNK6google8protobuf11FileOptions20_internal_deprecatedEv = comdat any

$_ZNK6google8protobuf11FileOptions32_internal_java_string_check_utf8Ev = comdat any

$_ZNK6google8protobuf11FileOptions26_internal_cc_enable_arenasEv = comdat any

$_ZNK6google8protobuf11FileOptions27_internal_objc_class_prefixB5cxx11Ev = comdat any

$_ZNK6google8protobuf11FileOptions26_internal_csharp_namespaceB5cxx11Ev = comdat any

$_ZNK6google8protobuf11FileOptions22_internal_swift_prefixB5cxx11Ev = comdat any

$_ZNK6google8protobuf11FileOptions26_internal_php_class_prefixB5cxx11Ev = comdat any

$_ZNK6google8protobuf11FileOptions23_internal_php_namespaceB5cxx11Ev = comdat any

$_ZNK6google8protobuf11FileOptions30_internal_php_generic_servicesEv = comdat any

$_ZNK6google8protobuf11FileOptions32_internal_php_metadata_namespaceB5cxx11Ev = comdat any

$_ZNK6google8protobuf11FileOptions22_internal_ruby_packageB5cxx11Ev = comdat any

$_ZNK6google8protobuf11FileOptions35_internal_uninterpreted_option_sizeEv = comdat any

$_ZNK6google8protobuf11FileOptions30_internal_uninterpreted_optionEv = comdat any

$_ZN6google8protobuf11FileOptions25internal_default_instanceEv = comdat any

$_ZN6google8protobuf11FileOptions38_internal_mutable_uninterpreted_optionEv = comdat any

$_ZN6google8protobuf8internal7memswapILm21EEEvPcS3_ = comdat any

$_ZN6google8protobuf14MessageOptions10SharedCtorEPNS0_5ArenaE = comdat any

$_ZN6google8protobuf14MessageOptions10SharedDtorEv = comdat any

$_ZNK6google8protobuf14MessageOptions33_internal_message_set_wire_formatEv = comdat any

$_ZNK6google8protobuf14MessageOptions41_internal_no_standard_descriptor_accessorEv = comdat any

$_ZNK6google8protobuf14MessageOptions20_internal_deprecatedEv = comdat any

$_ZNK6google8protobuf14MessageOptions19_internal_map_entryEv = comdat any

$_ZNK6google8protobuf14MessageOptions48_internal_deprecated_legacy_json_field_conflictsEv = comdat any

$_ZNK6google8protobuf14MessageOptions35_internal_uninterpreted_option_sizeEv = comdat any

$_ZNK6google8protobuf14MessageOptions30_internal_uninterpreted_optionEv = comdat any

$_ZN6google8protobuf14MessageOptions25internal_default_instanceEv = comdat any

$_ZN6google8protobuf14MessageOptions38_internal_mutable_uninterpreted_optionEv = comdat any

$_ZN6google8protobuf8internal7memswapILm13EEEvPcS3_ = comdat any

$_ZN6google8protobuf27FieldOptions_EditionDefault10SharedCtorEPNS0_5ArenaE = comdat any

$_ZN6google8protobuf27FieldOptions_EditionDefault10SharedDtorEv = comdat any

$_ZNK6google8protobuf27FieldOptions_EditionDefault15_internal_valueB5cxx11Ev = comdat any

$_ZNK6google8protobuf27FieldOptions_EditionDefault17_internal_editionEv = comdat any

$_ZN6google8protobuf27FieldOptions_EditionDefault9MergeFromERKS1_ = comdat any

$_ZSt4swapIiENSt9enable_ifIXsr6__and_ISt6__not_ISt15__is_tuple_likeIT_EESt21is_move_constructibleIS3_ESt18is_move_assignableIS3_EEE5valueEvE4typeERS3_SC_ = comdat any

$_ZN6google8protobuf12FieldOptions10SharedCtorEPNS0_5ArenaE = comdat any

$_ZN6google8protobuf12FieldOptions10SharedDtorEv = comdat any

$_ZN6google8protobuf16RepeatedPtrFieldINS0_27FieldOptions_EditionDefaultEE5ClearEv = comdat any

$_ZNK6google8protobuf12FieldOptions15_internal_ctypeEv = comdat any

$_ZNK6google8protobuf12FieldOptions16_internal_packedEv = comdat any

$_ZNK6google8protobuf12FieldOptions20_internal_deprecatedEv = comdat any

$_ZNK6google8protobuf12FieldOptions14_internal_lazyEv = comdat any

$_ZNK6google8protobuf12FieldOptions16_internal_jstypeEv = comdat any

$_ZNK6google8protobuf12FieldOptions14_internal_weakEv = comdat any

$_ZNK6google8protobuf12FieldOptions25_internal_unverified_lazyEv = comdat any

$_ZNK6google8protobuf12FieldOptions22_internal_debug_redactEv = comdat any

$_ZNK6google8protobuf12FieldOptions19_internal_retentionEv = comdat any

$_ZNK6google8protobuf12FieldOptions22_internal_targets_sizeEv = comdat any

$_ZNK6google8protobuf12FieldOptions17_internal_targetsEv = comdat any

$_ZNK6google8protobuf12FieldOptions31_internal_edition_defaults_sizeEv = comdat any

$_ZNK6google8protobuf12FieldOptions26_internal_edition_defaultsEv = comdat any

$_ZNK6google8protobuf16RepeatedPtrFieldINS0_27FieldOptions_EditionDefaultEE3GetEi = comdat any

$_ZNK6google8protobuf27FieldOptions_EditionDefault13GetCachedSizeEv = comdat any

$_ZNK6google8protobuf12FieldOptions35_internal_uninterpreted_option_sizeEv = comdat any

$_ZNK6google8protobuf12FieldOptions30_internal_uninterpreted_optionEv = comdat any

$_ZN6google8protobuf12FieldOptions25internal_default_instanceEv = comdat any

$_ZNK6google8protobuf16RepeatedPtrFieldINS0_27FieldOptions_EditionDefaultEE5beginEv = comdat any

$_ZNK6google8protobuf16RepeatedPtrFieldINS0_27FieldOptions_EditionDefaultEE3endEv = comdat any

$_ZN6google8protobuf8internalneERKNS1_19RepeatedPtrIteratorIKNS0_27FieldOptions_EditionDefaultEEES7_ = comdat any

$_ZNK6google8protobuf8internal19RepeatedPtrIteratorIKNS0_27FieldOptions_EditionDefaultEEdeEv = comdat any

$_ZN6google8protobuf8internal14WireFormatLite11MessageSizeINS0_27FieldOptions_EditionDefaultEEEmRKT_ = comdat any

$_ZN6google8protobuf8internal19RepeatedPtrIteratorIKNS0_27FieldOptions_EditionDefaultEEppEv = comdat any

$_ZN6google8protobuf12FieldOptions25_internal_mutable_targetsEv = comdat any

$_ZN6google8protobuf12FieldOptions34_internal_mutable_edition_defaultsEv = comdat any

$_ZN6google8protobuf16RepeatedPtrFieldINS0_27FieldOptions_EditionDefaultEE9MergeFromERKS3_ = comdat any

$_ZN6google8protobuf12FieldOptions38_internal_mutable_uninterpreted_optionEv = comdat any

$_ZN6google8protobuf16RepeatedPtrFieldINS0_27FieldOptions_EditionDefaultEE12InternalSwapEPS3_ = comdat any

$_ZN6google8protobuf12OneofOptions10SharedCtorEPNS0_5ArenaE = comdat any

$_ZN6google8protobuf12OneofOptions10SharedDtorEv = comdat any

$_ZNK6google8protobuf12OneofOptions35_internal_uninterpreted_option_sizeEv = comdat any

$_ZNK6google8protobuf12OneofOptions30_internal_uninterpreted_optionEv = comdat any

$_ZN6google8protobuf12OneofOptions25internal_default_instanceEv = comdat any

$_ZN6google8protobuf12OneofOptions38_internal_mutable_uninterpreted_optionEv = comdat any

$_ZSt4swapIPN6google8protobuf10FeatureSetEENSt9enable_ifIXsr6__and_ISt6__not_ISt15__is_tuple_likeIT_EESt21is_move_constructibleIS7_ESt18is_move_assignableIS7_EEE5valueEvE4typeERS7_SG_ = comdat any

$_ZN6google8protobuf11EnumOptions10SharedCtorEPNS0_5ArenaE = comdat any

$_ZN6google8protobuf11EnumOptions10SharedDtorEv = comdat any

$_ZNK6google8protobuf11EnumOptions21_internal_allow_aliasEv = comdat any

$_ZNK6google8protobuf11EnumOptions20_internal_deprecatedEv = comdat any

$_ZNK6google8protobuf11EnumOptions48_internal_deprecated_legacy_json_field_conflictsEv = comdat any

$_ZNK6google8protobuf11EnumOptions35_internal_uninterpreted_option_sizeEv = comdat any

$_ZNK6google8protobuf11EnumOptions30_internal_uninterpreted_optionEv = comdat any

$_ZN6google8protobuf11EnumOptions25internal_default_instanceEv = comdat any

$_ZN6google8protobuf11EnumOptions38_internal_mutable_uninterpreted_optionEv = comdat any

$_ZN6google8protobuf8internal7memswapILm11EEEvPcS3_ = comdat any

$_ZN6google8protobuf16EnumValueOptions10SharedCtorEPNS0_5ArenaE = comdat any

$_ZN6google8protobuf16EnumValueOptions10SharedDtorEv = comdat any

$_ZNK6google8protobuf16EnumValueOptions20_internal_deprecatedEv = comdat any

$_ZNK6google8protobuf16EnumValueOptions22_internal_debug_redactEv = comdat any

$_ZNK6google8protobuf16EnumValueOptions35_internal_uninterpreted_option_sizeEv = comdat any

$_ZNK6google8protobuf16EnumValueOptions30_internal_uninterpreted_optionEv = comdat any

$_ZN6google8protobuf16EnumValueOptions25internal_default_instanceEv = comdat any

$_ZN6google8protobuf16EnumValueOptions38_internal_mutable_uninterpreted_optionEv = comdat any

$_ZN6google8protobuf14ServiceOptions10SharedCtorEPNS0_5ArenaE = comdat any

$_ZN6google8protobuf14ServiceOptions10SharedDtorEv = comdat any

$_ZNK6google8protobuf14ServiceOptions20_internal_deprecatedEv = comdat any

$_ZNK6google8protobuf14ServiceOptions35_internal_uninterpreted_option_sizeEv = comdat any

$_ZNK6google8protobuf14ServiceOptions30_internal_uninterpreted_optionEv = comdat any

$_ZN6google8protobuf14ServiceOptions25internal_default_instanceEv = comdat any

$_ZN6google8protobuf14ServiceOptions38_internal_mutable_uninterpreted_optionEv = comdat any

$_ZN6google8protobuf8internal7memswapILm9EEEvPcS3_ = comdat any

$_ZN6google8protobuf13MethodOptions10SharedCtorEPNS0_5ArenaE = comdat any

$_ZN6google8protobuf13MethodOptions10SharedDtorEv = comdat any

$_ZNK6google8protobuf13MethodOptions20_internal_deprecatedEv = comdat any

$_ZNK6google8protobuf13MethodOptions27_internal_idempotency_levelEv = comdat any

$_ZNK6google8protobuf13MethodOptions35_internal_uninterpreted_option_sizeEv = comdat any

$_ZNK6google8protobuf13MethodOptions30_internal_uninterpreted_optionEv = comdat any

$_ZN6google8protobuf13MethodOptions25internal_default_instanceEv = comdat any

$_ZN6google8protobuf13MethodOptions38_internal_mutable_uninterpreted_optionEv = comdat any

$_ZN6google8protobuf28UninterpretedOption_NamePart10SharedCtorEPNS0_5ArenaE = comdat any

$_ZN6google8protobuf28UninterpretedOption_NamePart10SharedDtorEv = comdat any

$_ZNK6google8protobuf28UninterpretedOption_NamePart19_internal_name_partB5cxx11Ev = comdat any

$_ZNK6google8protobuf28UninterpretedOption_NamePart22_internal_is_extensionEv = comdat any

$_ZN6google8protobuf28UninterpretedOption_NamePart9MergeFromERKS1_ = comdat any

$_ZN6google8protobuf28UninterpretedOption_NamePart9_Internal21MissingRequiredFieldsERKNS0_8internal7HasBitsILi1EEE = comdat any

$_ZSt4swapIbENSt9enable_ifIXsr6__and_ISt6__not_ISt15__is_tuple_likeIT_EESt21is_move_constructibleIS3_ESt18is_move_assignableIS3_EEE5valueEvE4typeERS3_SC_ = comdat any

$_ZN6google8protobuf19UninterpretedOption10SharedCtorEPNS0_5ArenaE = comdat any

$_ZN6google8protobuf19UninterpretedOption10SharedDtorEv = comdat any

$_ZN6google8protobuf16RepeatedPtrFieldINS0_28UninterpretedOption_NamePartEE5ClearEv = comdat any

$_ZNK6google8protobuf19UninterpretedOption19_internal_name_sizeEv = comdat any

$_ZNK6google8protobuf19UninterpretedOption14_internal_nameEv = comdat any

$_ZNK6google8protobuf16RepeatedPtrFieldINS0_28UninterpretedOption_NamePartEE3GetEi = comdat any

$_ZNK6google8protobuf28UninterpretedOption_NamePart13GetCachedSizeEv = comdat any

$_ZNK6google8protobuf19UninterpretedOption26_internal_identifier_valueB5cxx11Ev = comdat any

$_ZNK6google8protobuf19UninterpretedOption28_internal_positive_int_valueEv = comdat any

$_ZN6google8protobuf8internal14WireFormatLite26WriteInt64ToArrayWithFieldILi5EEEPhPNS0_2io19EpsCopyOutputStreamElS4_ = comdat any

$_ZNK6google8protobuf19UninterpretedOption28_internal_negative_int_valueEv = comdat any

$_ZNK6google8protobuf19UninterpretedOption22_internal_double_valueEv = comdat any

$_ZNK6google8protobuf19UninterpretedOption22_internal_string_valueB5cxx11Ev = comdat any

$_ZN6google8protobuf2io19EpsCopyOutputStream22WriteBytesMaybeAliasedEjRKNSt7__cxx1112basic_stringIcSt11char_traitsIcESaIcEEEPh = comdat any

$_ZNK6google8protobuf19UninterpretedOption25_internal_aggregate_valueB5cxx11Ev = comdat any

$_ZNK6google8protobuf16RepeatedPtrFieldINS0_28UninterpretedOption_NamePartEE5beginEv = comdat any

$_ZNK6google8protobuf16RepeatedPtrFieldINS0_28UninterpretedOption_NamePartEE3endEv = comdat any

$_ZN6google8protobuf8internalneERKNS1_19RepeatedPtrIteratorIKNS0_28UninterpretedOption_NamePartEEES7_ = comdat any

$_ZNK6google8protobuf8internal19RepeatedPtrIteratorIKNS0_28UninterpretedOption_NamePartEEdeEv = comdat any

$_ZN6google8protobuf8internal14WireFormatLite11MessageSizeINS0_28UninterpretedOption_NamePartEEEmRKT_ = comdat any

$_ZN6google8protobuf8internal19RepeatedPtrIteratorIKNS0_28UninterpretedOption_NamePartEEppEv = comdat any

$_ZN6google8protobuf8internal14WireFormatLite9BytesSizeERKNSt7__cxx1112basic_stringIcSt11char_traitsIcESaIcEEE = comdat any

$_ZN6google8protobuf8internal14WireFormatLite17UInt64SizePlusOneEm = comdat any

$_ZN6google8protobuf8internal14WireFormatLite16Int64SizePlusOneEl = comdat any

$_ZN6google8protobuf19UninterpretedOption22_internal_mutable_nameEv = comdat any

$_ZN6google8protobuf16RepeatedPtrFieldINS0_28UninterpretedOption_NamePartEE9MergeFromERKS3_ = comdat any

$_ZN6google8protobuf19UninterpretedOption9MergeFromERKS1_ = comdat any

$_ZN6google8protobuf8internal17AllAreInitializedINS0_28UninterpretedOption_NamePartEEEbRKNS0_16RepeatedPtrFieldIT_EE = comdat any

$_ZN6google8protobuf16RepeatedPtrFieldINS0_28UninterpretedOption_NamePartEE12InternalSwapEPS3_ = comdat any

$_ZN6google8protobuf8internal7memswapILm24EEEvPcS3_ = comdat any

$_ZN6google8protobuf10FeatureSet10SharedCtorEPNS0_5ArenaE = comdat any

$_ZN6google8protobuf10FeatureSet10SharedDtorEv = comdat any

$_ZNK6google8protobuf10FeatureSet24_internal_field_presenceEv = comdat any

$_ZNK6google8protobuf10FeatureSet19_internal_enum_typeEv = comdat any

$_ZNK6google8protobuf10FeatureSet33_internal_repeated_field_encodingEv = comdat any

$_ZNK6google8protobuf10FeatureSet25_internal_utf8_validationEv = comdat any

$_ZNK6google8protobuf10FeatureSet26_internal_message_encodingEv = comdat any

$_ZNK6google8protobuf10FeatureSet21_internal_json_formatEv = comdat any

$_ZN6google8protobuf10FeatureSet25internal_default_instanceEv = comdat any

$_ZN6google8protobuf43FeatureSetDefaults_FeatureSetEditionDefault10SharedCtorEPNS0_5ArenaE = comdat any

$_ZN6google8protobuf43FeatureSetDefaults_FeatureSetEditionDefault10SharedDtorEv = comdat any

$_ZNK6google8protobuf43FeatureSetDefaults_FeatureSetEditionDefault17_internal_editionEv = comdat any

$_ZN6google8protobuf43FeatureSetDefaults_FeatureSetEditionDefault9MergeFromERKS1_ = comdat any

$_ZN6google8protobuf18FeatureSetDefaults10SharedCtorEPNS0_5ArenaE = comdat any

$_ZN6google8protobuf18FeatureSetDefaults10SharedDtorEv = comdat any

$_ZN6google8protobuf16RepeatedPtrFieldINS0_43FeatureSetDefaults_FeatureSetEditionDefaultEE5ClearEv = comdat any

$_ZNK6google8protobuf18FeatureSetDefaults23_internal_defaults_sizeEv = comdat any

$_ZNK6google8protobuf18FeatureSetDefaults18_internal_defaultsEv = comdat any

$_ZNK6google8protobuf16RepeatedPtrFieldINS0_43FeatureSetDefaults_FeatureSetEditionDefaultEE3GetEi = comdat any

$_ZNK6google8protobuf43FeatureSetDefaults_FeatureSetEditionDefault13GetCachedSizeEv = comdat any

$_ZNK6google8protobuf18FeatureSetDefaults25_internal_minimum_editionEv = comdat any

$_ZNK6google8protobuf18FeatureSetDefaults25_internal_maximum_editionEv = comdat any

$_ZNK6google8protobuf16RepeatedPtrFieldINS0_43FeatureSetDefaults_FeatureSetEditionDefaultEE5beginEv = comdat any

$_ZNK6google8protobuf16RepeatedPtrFieldINS0_43FeatureSetDefaults_FeatureSetEditionDefaultEE3endEv = comdat any

$_ZN6google8protobuf8internalneERKNS1_19RepeatedPtrIteratorIKNS0_43FeatureSetDefaults_FeatureSetEditionDefaultEEES7_ = comdat any

$_ZNK6google8protobuf8internal19RepeatedPtrIteratorIKNS0_43FeatureSetDefaults_FeatureSetEditionDefaultEEdeEv = comdat any

$_ZN6google8protobuf8internal14WireFormatLite11MessageSizeINS0_43FeatureSetDefaults_FeatureSetEditionDefaultEEEmRKT_ = comdat any

$_ZN6google8protobuf8internal19RepeatedPtrIteratorIKNS0_43FeatureSetDefaults_FeatureSetEditionDefaultEEppEv = comdat any

$_ZN6google8protobuf18FeatureSetDefaults26_internal_mutable_defaultsEv = comdat any

$_ZN6google8protobuf16RepeatedPtrFieldINS0_43FeatureSetDefaults_FeatureSetEditionDefaultEE9MergeFromERKS3_ = comdat any

$_ZN6google8protobuf18FeatureSetDefaults9MergeFromERKS1_ = comdat any

$_ZN6google8protobuf8internal17AllAreInitializedINS0_43FeatureSetDefaults_FeatureSetEditionDefaultEEEbRKNS0_16RepeatedPtrFieldIT_EE = comdat any

$_ZN6google8protobuf16RepeatedPtrFieldINS0_43FeatureSetDefaults_FeatureSetEditionDefaultEE12InternalSwapEPS3_ = comdat any

$_ZN6google8protobuf23SourceCodeInfo_Location10SharedCtorEPNS0_5ArenaE = comdat any

$_ZN6google8protobuf23SourceCodeInfo_Location10SharedDtorEv = comdat any

$_ZNK6google8protobuf8internal10CachedSize3GetEv = comdat any

$_ZNK6google8protobuf23SourceCodeInfo_Location14_internal_pathEv = comdat any

$_ZNK6google8protobuf23SourceCodeInfo_Location14_internal_spanEv = comdat any

$_ZNK6google8protobuf23SourceCodeInfo_Location26_internal_leading_commentsB5cxx11Ev = comdat any

$_ZNK6google8protobuf23SourceCodeInfo_Location27_internal_trailing_commentsB5cxx11Ev = comdat any

$_ZNK6google8protobuf23SourceCodeInfo_Location40_internal_leading_detached_comments_sizeEv = comdat any

$_ZNK6google8protobuf23SourceCodeInfo_Location35_internal_leading_detached_commentsB5cxx11Ev = comdat any

$_ZN6google8protobuf8internal10CachedSize3SetEi = comdat any

$_ZN6google8protobuf8internal12ToCachedSizeEm = comdat any

$_ZN6google8protobuf8internal14WireFormatLite9Int32SizeEi = comdat any

$_ZN6google8protobuf23SourceCodeInfo_Location22_internal_mutable_pathEv = comdat any

$_ZN6google8protobuf23SourceCodeInfo_Location22_internal_mutable_spanEv = comdat any

$_ZN6google8protobuf23SourceCodeInfo_Location43_internal_mutable_leading_detached_commentsB5cxx11Ev = comdat any

$_ZN6google8protobuf23SourceCodeInfo_Location9MergeFromERKS1_ = comdat any

$_ZN6google8protobuf14SourceCodeInfo10SharedCtorEPNS0_5ArenaE = comdat any

$_ZN6google8protobuf14SourceCodeInfo10SharedDtorEv = comdat any

$_ZN6google8protobuf16RepeatedPtrFieldINS0_23SourceCodeInfo_LocationEE5ClearEv = comdat any

$_ZNK6google8protobuf14SourceCodeInfo23_internal_location_sizeEv = comdat any

$_ZNK6google8protobuf14SourceCodeInfo18_internal_locationEv = comdat any

$_ZNK6google8protobuf16RepeatedPtrFieldINS0_23SourceCodeInfo_LocationEE3GetEi = comdat any

$_ZNK6google8protobuf23SourceCodeInfo_Location13GetCachedSizeEv = comdat any

$_ZNK6google8protobuf16RepeatedPtrFieldINS0_23SourceCodeInfo_LocationEE5beginEv = comdat any

$_ZNK6google8protobuf16RepeatedPtrFieldINS0_23SourceCodeInfo_LocationEE3endEv = comdat any

$_ZN6google8protobuf8internalneERKNS1_19RepeatedPtrIteratorIKNS0_23SourceCodeInfo_LocationEEES7_ = comdat any

$_ZNK6google8protobuf8internal19RepeatedPtrIteratorIKNS0_23SourceCodeInfo_LocationEEdeEv = comdat any

$_ZN6google8protobuf8internal14WireFormatLite11MessageSizeINS0_23SourceCodeInfo_LocationEEEmRKT_ = comdat any

$_ZN6google8protobuf8internal19RepeatedPtrIteratorIKNS0_23SourceCodeInfo_LocationEEppEv = comdat any

$_ZN6google8protobuf14SourceCodeInfo26_internal_mutable_locationEv = comdat any

$_ZN6google8protobuf16RepeatedPtrFieldINS0_23SourceCodeInfo_LocationEE9MergeFromERKS3_ = comdat any

$_ZN6google8protobuf16RepeatedPtrFieldINS0_23SourceCodeInfo_LocationEE12InternalSwapEPS3_ = comdat any

$_ZN6google8protobuf28GeneratedCodeInfo_Annotation10SharedCtorEPNS0_5ArenaE = comdat any

$_ZN6google8protobuf28GeneratedCodeInfo_Annotation10SharedDtorEv = comdat any

$_ZNK6google8protobuf28GeneratedCodeInfo_Annotation14_internal_pathEv = comdat any

$_ZNK6google8protobuf28GeneratedCodeInfo_Annotation21_internal_source_fileB5cxx11Ev = comdat any

$_ZNK6google8protobuf28GeneratedCodeInfo_Annotation15_internal_beginEv = comdat any

$_ZN6google8protobuf8internal14WireFormatLite26WriteInt32ToArrayWithFieldILi4EEEPhPNS0_2io19EpsCopyOutputStreamEiS4_ = comdat any

$_ZNK6google8protobuf28GeneratedCodeInfo_Annotation13_internal_endEv = comdat any

$_ZNK6google8protobuf28GeneratedCodeInfo_Annotation18_internal_semanticEv = comdat any

$_ZN6google8protobuf28GeneratedCodeInfo_Annotation22_internal_mutable_pathEv = comdat any

$_ZN6google8protobuf28GeneratedCodeInfo_Annotation9MergeFromERKS1_ = comdat any

$_ZN6google8protobuf17GeneratedCodeInfo10SharedCtorEPNS0_5ArenaE = comdat any

$_ZN6google8protobuf17GeneratedCodeInfo10SharedDtorEv = comdat any

$_ZN6google8protobuf16RepeatedPtrFieldINS0_28GeneratedCodeInfo_AnnotationEE5ClearEv = comdat any

$_ZNK6google8protobuf17GeneratedCodeInfo25_internal_annotation_sizeEv = comdat any

$_ZNK6google8protobuf17GeneratedCodeInfo20_internal_annotationEv = comdat any

$_ZNK6google8protobuf16RepeatedPtrFieldINS0_28GeneratedCodeInfo_AnnotationEE3GetEi = comdat any

$_ZNK6google8protobuf28GeneratedCodeInfo_Annotation13GetCachedSizeEv = comdat any

$_ZNK6google8protobuf16RepeatedPtrFieldINS0_28GeneratedCodeInfo_AnnotationEE5beginEv = comdat any

$_ZNK6google8protobuf16RepeatedPtrFieldINS0_28GeneratedCodeInfo_AnnotationEE3endEv = comdat any

$_ZN6google8protobuf8internalneERKNS1_19RepeatedPtrIteratorIKNS0_28GeneratedCodeInfo_AnnotationEEES7_ = comdat any

$_ZNK6google8protobuf8internal19RepeatedPtrIteratorIKNS0_28GeneratedCodeInfo_AnnotationEEdeEv = comdat any

$_ZN6google8protobuf8internal14WireFormatLite11MessageSizeINS0_28GeneratedCodeInfo_AnnotationEEEmRKT_ = comdat any

$_ZN6google8protobuf8internal19RepeatedPtrIteratorIKNS0_28GeneratedCodeInfo_AnnotationEEppEv = comdat any

$_ZN6google8protobuf17GeneratedCodeInfo28_internal_mutable_annotationEv = comdat any

$_ZN6google8protobuf16RepeatedPtrFieldINS0_28GeneratedCodeInfo_AnnotationEE9MergeFromERKS3_ = comdat any

$_ZN6google8protobuf17GeneratedCodeInfo9MergeFromERKS1_ = comdat any

$_ZN6google8protobuf16RepeatedPtrFieldINS0_28GeneratedCodeInfo_AnnotationEE12InternalSwapEPS3_ = comdat any

$_ZNK6google8protobuf28UninterpretedOption_NamePart3NewEPNS0_5ArenaE = comdat any

$_ZNK6google8protobuf23SourceCodeInfo_Location3NewEPNS0_5ArenaE = comdat any

$_ZNK6google8protobuf28GeneratedCodeInfo_Annotation3NewEPNS0_5ArenaE = comdat any

$_ZNK6google8protobuf27FieldOptions_EditionDefault3NewEPNS0_5ArenaE = comdat any

$_ZNK6google8protobuf10FeatureSet3NewEPNS0_5ArenaE = comdat any

$_ZNK6google8protobuf33ExtensionRangeOptions_Declaration3NewEPNS0_5ArenaE = comdat any

$_ZNK6google8protobuf37EnumDescriptorProto_EnumReservedRange3NewEPNS0_5ArenaE = comdat any

$_ZNK6google8protobuf29DescriptorProto_ReservedRange3NewEPNS0_5ArenaE = comdat any

$_ZNK6google8protobuf19UninterpretedOption3NewEPNS0_5ArenaE = comdat any

$_ZNK6google8protobuf14SourceCodeInfo3NewEPNS0_5ArenaE = comdat any

$_ZNK6google8protobuf17GeneratedCodeInfo3NewEPNS0_5ArenaE = comdat any

$_ZNK6google8protobuf43FeatureSetDefaults_FeatureSetEditionDefault3NewEPNS0_5ArenaE = comdat any

$_ZNK6google8protobuf14ServiceOptions3NewEPNS0_5ArenaE = comdat any

$_ZNK6google8protobuf12OneofOptions3NewEPNS0_5ArenaE = comdat any

$_ZNK6google8protobuf13MethodOptions3NewEPNS0_5ArenaE = comdat any

$_ZNK6google8protobuf14MessageOptions3NewEPNS0_5ArenaE = comdat any

$_ZNK6google8protobuf11FileOptions3NewEPNS0_5ArenaE = comdat any

$_ZNK6google8protobuf12FieldOptions3NewEPNS0_5ArenaE = comdat any

$_ZNK6google8protobuf18FeatureSetDefaults3NewEPNS0_5ArenaE = comdat any

$_ZNK6google8protobuf21ExtensionRangeOptions3NewEPNS0_5ArenaE = comdat any

$_ZNK6google8protobuf16EnumValueOptions3NewEPNS0_5ArenaE = comdat any

$_ZNK6google8protobuf11EnumOptions3NewEPNS0_5ArenaE = comdat any

$_ZNK6google8protobuf20OneofDescriptorProto3NewEPNS0_5ArenaE = comdat any

$_ZNK6google8protobuf21MethodDescriptorProto3NewEPNS0_5ArenaE = comdat any

$_ZNK6google8protobuf20FieldDescriptorProto3NewEPNS0_5ArenaE = comdat any

$_ZNK6google8protobuf24EnumValueDescriptorProto3NewEPNS0_5ArenaE = comdat any

$_ZNK6google8protobuf30DescriptorProto_ExtensionRange3NewEPNS0_5ArenaE = comdat any

$_ZNK6google8protobuf22ServiceDescriptorProto3NewEPNS0_5ArenaE = comdat any

$_ZNK6google8protobuf19EnumDescriptorProto3NewEPNS0_5ArenaE = comdat any

$_ZNK6google8protobuf15DescriptorProto3NewEPNS0_5ArenaE = comdat any

$_ZNK6google8protobuf19FileDescriptorProto3NewEPNS0_5ArenaE = comdat any

$_ZNK6google8protobuf17FileDescriptorSet3NewEPNS0_5ArenaE = comdat any

$_ZN6google8protobuf11MessageLiteC2EPNS0_5ArenaE = comdat any

$_ZN6google8protobuf8internal16InternalMetadataC2EPNS0_5ArenaE = comdat any

$_ZN6google8protobuf11MessageLiteD2Ev = comdat any

$_ZN6google8protobuf11MessageLiteD0Ev = comdat any

$_ZN6google8protobuf11MessageLite14_InternalParseEPKcPNS0_8internal12ParseContextE = comdat any

$_ZN6google8protobuf8internal18InternalVisibilityC2Ev = comdat any

$_ZN6google8protobuf16RepeatedPtrFieldINS0_19FileDescriptorProtoEEC2ENS0_8internal18InternalVisibilityEPNS0_5ArenaERKS3_ = comdat any

$_ZN6google8protobuf8internal10CachedSizeC2Ei = comdat any

$_ZN6google8protobuf16RepeatedPtrFieldINS0_19FileDescriptorProtoEEC2EPNS0_5ArenaERKS3_ = comdat any

$_ZN6google8protobuf8internal20RepeatedPtrFieldBaseC2EPNS0_5ArenaE = comdat any

$_ZN6google8protobuf8internal20RepeatedPtrFieldBaseD2Ev = comdat any

$_ZN6google8protobuf16RepeatedPtrFieldINS0_19FileDescriptorProtoEEC2ENS0_8internal18InternalVisibilityEPNS0_5ArenaE = comdat any

$_ZN6google8protobuf16RepeatedPtrFieldINS0_19FileDescriptorProtoEEC2EPNS0_5ArenaE = comdat any

$_ZN6google8protobuf17FileDescriptorSet5Impl_D2Ev = comdat any

$_ZN6google8protobuf16RepeatedPtrFieldINS0_19FileDescriptorProtoEED2Ev = comdat any

$_ZNK6google8protobuf8internal20RepeatedPtrFieldBase12NeedsDestroyEv = comdat any

$_ZNK6google8protobuf16RepeatedPtrFieldINS0_19FileDescriptorProtoEE4sizeEv = comdat any

$_ZNK6google8protobuf8internal20RepeatedPtrFieldBase4sizeEv = comdat any

$_ZSt4swapIlENSt9enable_ifIXsr6__and_ISt6__not_ISt15__is_tuple_likeIT_EESt21is_move_constructibleIS3_ESt18is_move_assignableIS3_EEE5valueEvE4typeERS3_SC_ = comdat any

$_ZN6google8protobuf16RepeatedPtrFieldINSt7__cxx1112basic_stringIcSt11char_traitsIcESaIcEEEEC2ENS0_8internal18InternalVisibilityEPNS0_5ArenaERKS8_ = comdat any

$_ZN6google8protobuf16RepeatedPtrFieldINS0_15DescriptorProtoEEC2ENS0_8internal18InternalVisibilityEPNS0_5ArenaERKS3_ = comdat any

$_ZN6google8protobuf16RepeatedPtrFieldINS0_19EnumDescriptorProtoEEC2ENS0_8internal18InternalVisibilityEPNS0_5ArenaERKS3_ = comdat any

$_ZN6google8protobuf16RepeatedPtrFieldINS0_22ServiceDescriptorProtoEEC2ENS0_8internal18InternalVisibilityEPNS0_5ArenaERKS3_ = comdat any

$_ZN6google8protobuf16RepeatedPtrFieldINS0_20FieldDescriptorProtoEEC2ENS0_8internal18InternalVisibilityEPNS0_5ArenaERKS3_ = comdat any

$_ZN6google8protobuf13RepeatedFieldIiEC2ENS0_8internal18InternalVisibilityEPNS0_5ArenaERKS2_ = comdat any

$_ZN6google8protobuf8internal14ArenaStringPtrC2EPNS0_5ArenaERKS2_ = comdat any

$_ZN6google8protobuf13RepeatedFieldIiED2Ev = comdat any

$_ZN6google8protobuf16RepeatedPtrFieldINS0_20FieldDescriptorProtoEED2Ev = comdat any

$_ZN6google8protobuf16RepeatedPtrFieldINS0_22ServiceDescriptorProtoEED2Ev = comdat any

$_ZN6google8protobuf16RepeatedPtrFieldINS0_19EnumDescriptorProtoEED2Ev = comdat any

$_ZN6google8protobuf16RepeatedPtrFieldINS0_15DescriptorProtoEED2Ev = comdat any

$_ZN6google8protobuf16RepeatedPtrFieldINSt7__cxx1112basic_stringIcSt11char_traitsIcESaIcEEEED2Ev = comdat any

$_ZN6google8protobuf16RepeatedPtrFieldINSt7__cxx1112basic_stringIcSt11char_traitsIcESaIcEEEEC2EPNS0_5ArenaERKS8_ = comdat any

$_ZN6google8protobuf16RepeatedPtrFieldINS0_15DescriptorProtoEEC2EPNS0_5ArenaERKS3_ = comdat any

$_ZN6google8protobuf16RepeatedPtrFieldINS0_19EnumDescriptorProtoEEC2EPNS0_5ArenaERKS3_ = comdat any

$_ZN6google8protobuf16RepeatedPtrFieldINS0_22ServiceDescriptorProtoEEC2EPNS0_5ArenaERKS3_ = comdat any

$_ZN6google8protobuf16RepeatedPtrFieldINS0_20FieldDescriptorProtoEEC2EPNS0_5ArenaERKS3_ = comdat any

$_ZN6google8protobuf13RepeatedFieldIiEC2EPNS0_5ArenaERKS2_ = comdat any

$_ZN6google8protobuf13RepeatedFieldIiE4GrowEii = comdat any

$_ZN6google8protobuf13RepeatedFieldIiE19ExchangeCurrentSizeEi = comdat any

$_ZN6google8protobuf13RepeatedFieldIiE18UninitializedCopyNEPKiiPi = comdat any

$_ZNK6google8protobuf13RepeatedFieldIiE8elementsEv = comdat any

$_ZNK6google8protobuf13RepeatedFieldIiE15unsafe_elementsEv = comdat any

$_ZNK6google8protobuf13RepeatedFieldIiE12AnnotateSizeEii = comdat any

$_ZN6google8protobuf13RepeatedFieldIiE14GrowNoAnnotateEii = comdat any

$_ZN6google8protobuf13RepeatedFieldIiE8GetArenaEv = comdat any

$_ZN6google8protobuf8internal20CalculateReserveSizeIiLi8EEEiii = comdat any

$_ZN4absl12lts_2023080212log_internallsIA48_cEERNS1_10NullStreamES5_RKT_ = comdat any

$_ZN4absl12lts_2023080212log_internallsIA59_cEERNS1_10NullStreamES5_RKT_ = comdat any

$_ZN6google8protobuf8internal15AllocateAtLeastEm = comdat any

$_ZSt3minImERKT_S2_S2_ = comdat any

$_ZNSt14numeric_limitsIiE3maxEv = comdat any

$_ZN6google8protobuf13RepeatedFieldIiE3Rep8elementsEv = comdat any

$_ZN6google8protobuf13RepeatedFieldIiE18InternalDeallocateILb0EEEvv = comdat any

$_ZNK6google8protobuf13RepeatedFieldIiE3repEv = comdat any

$_ZSt3maxIiERKT_S2_S2_ = comdat any

$_ZN4absl12lts_2023080212log_internal12Check_LEImplImmEEPNSt7__cxx1112basic_stringIcSt11char_traitsIcESaIcEEERKT_RKT0_PKc = comdat any

$_ZN4absl12lts_2023080212log_internal21GetReferenceableValueEm = comdat any

$_ZNSt14numeric_limitsImE3maxEv = comdat any

$_ZN4absl12lts_2023080212log_internal10LogMessage14InternalStreamEv = comdat any

$_ZN4absl12lts_2023080212log_internal10LogMessagelsILi48EEERS2_RAT__Kc = comdat any

$_ZN6google8protobuf5Arena23AllocateAlignedForArrayEmm = comdat any

$_ZNSt17basic_string_viewIcSt11char_traitsIcEEC2EPKc = comdat any

$_ZNSt11char_traitsIcE6lengthEPKc = comdat any

$_ZN6google8protobuf8internal12ArenaAlignAsEm = comdat any

$_ZNK6google8protobuf8internal10ArenaAlign4CeilIvEEPT_S5_ = comdat any

$_ZNK6google8protobuf8internal10ArenaAlign6PaddedEm = comdat any

$_ZN6google8protobuf8internal11SizedDeleteEPvm = comdat any

$_ZN6google8protobuf5Arena17ReturnArrayMemoryEPvm = comdat any

$_ZN6google8protobuf8internal15ThreadSafeArena17ReturnArrayMemoryEPvm = comdat any

$_ZN6google8protobuf8internal11SerialArena17ReturnArrayMemoryEPvm = comdat any

$_ZN6google8protobuf8internal15ThreadSafeArena12thread_cacheEv = comdat any

$_ZN4absl12lts_202308029bit_widthImEENSt9enable_ifIXsr3std11is_unsignedIT_EE5valueEiE4typeES3_ = comdat any

$_ZSt4copyIPPN6google8protobuf8internal11SerialArena11CachedBlockES6_ET0_T_S8_S7_ = comdat any

$_ZSt4fillIPPN6google8protobuf8internal11SerialArena11CachedBlockEDnEvT_S7_RKT0_ = comdat any

$_ZN4absl12lts_2023080211countl_zeroImEENSt9enable_ifIXsr3std11is_unsignedIT_EE5valueEiE4typeES3_ = comdat any

$_ZSt13__copy_move_aILb0EPPN6google8protobuf8internal11SerialArena11CachedBlockES6_ET1_T0_S8_S7_ = comdat any

$_ZSt12__miter_baseIPPN6google8protobuf8internal11SerialArena11CachedBlockEET_S7_ = comdat any

$_ZSt12__niter_wrapIPPN6google8protobuf8internal11SerialArena11CachedBlockEET_RKS7_S7_ = comdat any

$_ZSt14__copy_move_a1ILb0EPPN6google8protobuf8internal11SerialArena11CachedBlockES6_ET1_T0_S8_S7_ = comdat any

$_ZSt12__niter_baseIPPN6google8protobuf8internal11SerialArena11CachedBlockEET_S7_ = comdat any

$_ZSt14__copy_move_a2ILb0EPPN6google8protobuf8internal11SerialArena11CachedBlockES6_ET1_T0_S8_S7_ = comdat any

$_ZNSt11__copy_moveILb0ELb1ESt26random_access_iterator_tagE8__copy_mIPN6google8protobuf8internal11SerialArena11CachedBlockEEEPT_PKS9_SC_SA_ = comdat any

$_ZSt8__fill_aIPPN6google8protobuf8internal11SerialArena11CachedBlockEDnEvT_S7_RKT0_ = comdat any

$_ZSt9__fill_a1IPPN6google8protobuf8internal11SerialArena11CachedBlockEDnEN9__gnu_cxx11__enable_ifIXntsr11__is_scalarIT0_EE7__valueEvE6__typeET_SC_RKS9_ = comdat any

$_ZSt20uninitialized_copy_nIPKiiPiET1_T_T0_S3_ = comdat any

$_ZSt22__uninitialized_copy_nIPKiiPiET1_T_T0_S3_St26random_access_iterator_tag = comdat any

$_ZSt19__iterator_categoryIPKiENSt15iterator_traitsIT_E17iterator_categoryERKS3_ = comdat any

$_ZSt18uninitialized_copyIPKiPiET0_T_S4_S3_ = comdat any

$_ZNSt20__uninitialized_copyILb1EE13__uninit_copyIPKiPiEET0_T_S6_S5_ = comdat any

$_ZSt4copyIPKiPiET0_T_S4_S3_ = comdat any

$_ZSt13__copy_move_aILb0EPKiPiET1_T0_S4_S3_ = comdat any

$_ZSt12__miter_baseIPKiET_S2_ = comdat any

$_ZSt12__niter_wrapIPiET_RKS1_S1_ = comdat any

$_ZSt14__copy_move_a1ILb0EPKiPiET1_T0_S4_S3_ = comdat any

$_ZSt12__niter_baseIPKiET_S2_ = comdat any

$_ZSt12__niter_baseIPiET_S1_ = comdat any

$_ZSt14__copy_move_a2ILb0EPKiPiET1_T0_S4_S3_ = comdat any

$_ZNSt11__copy_moveILb0ELb1ESt26random_access_iterator_tagE8__copy_mIiEEPT_PKS3_S6_S4_ = comdat any

$_ZNK6google8protobuf8internal15TaggedStringPtr4CopyEPNS0_5ArenaE = comdat any

$_ZNK6google8protobuf8internal15TaggedStringPtr9IsDefaultEv = comdat any

$_ZNK6google8protobuf8internal15TaggedStringPtr6as_intEv = comdat any

$_ZN6google8protobuf13RepeatedFieldIiE7DestroyEPKiS4_ = comdat any

$_ZN6google8protobuf13RepeatedFieldIiE18InternalDeallocateILb1EEEvv = comdat any

$_ZN6google8protobuf8internal20RepeatedPtrFieldBase7DestroyINS1_18GenericTypeHandlerINSt7__cxx1112basic_stringIcSt11char_traitsIcESaIcEEEEEEEvv = comdat any

$_ZNK6google8protobuf8internal20RepeatedPtrFieldBase14allocated_sizeEv = comdat any

$_ZN6google8protobuf8internal20RepeatedPtrFieldBase8elementsEv = comdat any

$_ZN6google8protobuf8internal20RepeatedPtrFieldBase6DeleteINS1_18GenericTypeHandlerINSt7__cxx1112basic_stringIcSt11char_traitsIcESaIcEEEEEEEvPvPNS0_5ArenaE = comdat any

$_ZNK6google8protobuf8internal20RepeatedPtrFieldBase9using_ssoEv = comdat any

$_ZN6google8protobuf8internal20RepeatedPtrFieldBase3repEv = comdat any

$_ZNK6google8protobuf8internal20RepeatedPtrFieldBase8CapacityEv = comdat any

$_ZNK6google8protobuf8internal20RepeatedPtrFieldBase3repEv = comdat any

$_ZN6google8protobuf8internal18GenericTypeHandlerINSt7__cxx1112basic_stringIcSt11char_traitsIcESaIcEEEE6DeleteEPS8_PNS0_5ArenaE = comdat any

$_ZN6google8protobuf8internal20RepeatedPtrFieldBase4castINS1_18GenericTypeHandlerINSt7__cxx1112basic_stringIcSt11char_traitsIcESaIcEEEEEEEPNT_4TypeEPv = comdat any

$_ZN6google8protobuf16RepeatedPtrFieldINSt7__cxx1112basic_stringIcSt11char_traitsIcESaIcEEEEC2ENS0_8internal18InternalVisibilityEPNS0_5ArenaE = comdat any

$_ZN6google8protobuf16RepeatedPtrFieldINS0_15DescriptorProtoEEC2ENS0_8internal18InternalVisibilityEPNS0_5ArenaE = comdat any

$_ZN6google8protobuf16RepeatedPtrFieldINS0_19EnumDescriptorProtoEEC2ENS0_8internal18InternalVisibilityEPNS0_5ArenaE = comdat any

$_ZN6google8protobuf16RepeatedPtrFieldINS0_22ServiceDescriptorProtoEEC2ENS0_8internal18InternalVisibilityEPNS0_5ArenaE = comdat any

$_ZN6google8protobuf16RepeatedPtrFieldINS0_20FieldDescriptorProtoEEC2ENS0_8internal18InternalVisibilityEPNS0_5ArenaE = comdat any

$_ZN6google8protobuf13RepeatedFieldIiEC2ENS0_8internal18InternalVisibilityEPNS0_5ArenaE = comdat any

$_ZN6google8protobuf8internal14ArenaStringPtrC2EPNS0_5ArenaE = comdat any

$_ZN6google8protobuf16RepeatedPtrFieldINSt7__cxx1112basic_stringIcSt11char_traitsIcESaIcEEEEC2EPNS0_5ArenaE = comdat any

$_ZN6google8protobuf16RepeatedPtrFieldINS0_15DescriptorProtoEEC2EPNS0_5ArenaE = comdat any

$_ZN6google8protobuf16RepeatedPtrFieldINS0_19EnumDescriptorProtoEEC2EPNS0_5ArenaE = comdat any

$_ZN6google8protobuf16RepeatedPtrFieldINS0_22ServiceDescriptorProtoEEC2EPNS0_5ArenaE = comdat any

$_ZN6google8protobuf16RepeatedPtrFieldINS0_20FieldDescriptorProtoEEC2EPNS0_5ArenaE = comdat any

$_ZN6google8protobuf13RepeatedFieldIiEC2EPNS0_5ArenaE = comdat any

$_ZN6google8protobuf8internal15TaggedStringPtrC2EPNS1_21ExplicitlyConstructedINSt7__cxx1112basic_stringIcSt11char_traitsIcESaIcEEELm8EEE = comdat any

$_ZN6google8protobuf19FileDescriptorProto5Impl_D2Ev = comdat any

$_ZNK6google8protobuf8internal15TaggedStringPtr3GetB5cxx11Ev = comdat any

$_ZN6google8protobuf2io19EpsCopyOutputStream7TagSizeEj = comdat any

$_ZNK6google8protobuf16RepeatedPtrFieldINS0_15DescriptorProtoEE4sizeEv = comdat any

$_ZNK6google8protobuf16RepeatedPtrFieldINS0_19EnumDescriptorProtoEE4sizeEv = comdat any

$_ZNK6google8protobuf16RepeatedPtrFieldINS0_22ServiceDescriptorProtoEE4sizeEv = comdat any

$_ZNK6google8protobuf16RepeatedPtrFieldINS0_20FieldDescriptorProtoEE4sizeEv = comdat any

$_ZNK6google8protobuf13RepeatedFieldIiE4sizeEv = comdat any

$_ZN6google8protobuf8internal14WireFormatLite7MakeTagEiNS2_8WireTypeE = comdat any

$_ZN6google8protobuf2io17CodedOutputStream20WriteVarint32ToArrayEjPh = comdat any

$_ZN6google8protobuf2io17CodedOutputStream32WriteVarint32SignExtendedToArrayEiPh = comdat any

$_ZN6google8protobuf2io17CodedOutputStream20WriteVarint64ToArrayEmPh = comdat any

$_ZN6google8protobuf8internal14WireFormatLite19LengthDelimitedSizeEm = comdat any

$_ZN6google8protobuf2io17CodedOutputStream12VarintSize32Ej = comdat any

$_ZN4absl12lts_2023080211countl_zeroIjEENSt9enable_ifIXsr3std11is_unsignedIT_EE5valueEiE4typeES3_ = comdat any

$_ZN6google8protobuf2io17CodedOutputStream24VarintSize32SignExtendedEi = comdat any

$_ZN6google8protobuf2io17CodedOutputStream12VarintSize64Em = comdat any

$_ZNK6google8protobuf8internal16InternalMetadata8PtrValueINS2_13ContainerBaseEEEPT_v = comdat any

$_ZNK6google8protobuf8internal16InternalMetadata8PtrValueINS0_5ArenaEEEPT_v = comdat any

$_ZSt4swapIN6google8protobuf8internal15TaggedStringPtrEENSt9enable_ifIXsr6__and_ISt6__not_ISt15__is_tuple_likeIT_EESt21is_move_constructibleIS7_ESt18is_move_assignableIS7_EEE5valueEvE4typeERS7_SG_ = comdat any

$_ZN6google8protobuf2io17CodedOutputStream31VarintSize32SignExtendedPlusOneEi = comdat any

$_ZN6google8protobuf2io17CodedOutputStream19VarintSize64PlusOneEm = comdat any

$_ZN6google8protobuf16RepeatedPtrFieldINS0_30DescriptorProto_ExtensionRangeEEC2ENS0_8internal18InternalVisibilityEPNS0_5ArenaERKS3_ = comdat any

$_ZN6google8protobuf16RepeatedPtrFieldINS0_20OneofDescriptorProtoEEC2ENS0_8internal18InternalVisibilityEPNS0_5ArenaERKS3_ = comdat any

$_ZN6google8protobuf16RepeatedPtrFieldINS0_29DescriptorProto_ReservedRangeEEC2ENS0_8internal18InternalVisibilityEPNS0_5ArenaERKS3_ = comdat any

$_ZN6google8protobuf16RepeatedPtrFieldINS0_29DescriptorProto_ReservedRangeEED2Ev = comdat any

$_ZN6google8protobuf16RepeatedPtrFieldINS0_20OneofDescriptorProtoEED2Ev = comdat any

$_ZN6google8protobuf16RepeatedPtrFieldINS0_30DescriptorProto_ExtensionRangeEED2Ev = comdat any

$_ZN6google8protobuf16RepeatedPtrFieldINS0_30DescriptorProto_ExtensionRangeEEC2EPNS0_5ArenaERKS3_ = comdat any

$_ZN6google8protobuf16RepeatedPtrFieldINS0_20OneofDescriptorProtoEEC2EPNS0_5ArenaERKS3_ = comdat any

$_ZN6google8protobuf16RepeatedPtrFieldINS0_29DescriptorProto_ReservedRangeEEC2EPNS0_5ArenaERKS3_ = comdat any

$_ZN6google8protobuf16RepeatedPtrFieldINS0_30DescriptorProto_ExtensionRangeEEC2ENS0_8internal18InternalVisibilityEPNS0_5ArenaE = comdat any

$_ZN6google8protobuf16RepeatedPtrFieldINS0_20OneofDescriptorProtoEEC2ENS0_8internal18InternalVisibilityEPNS0_5ArenaE = comdat any

$_ZN6google8protobuf16RepeatedPtrFieldINS0_29DescriptorProto_ReservedRangeEEC2ENS0_8internal18InternalVisibilityEPNS0_5ArenaE = comdat any

$_ZN6google8protobuf16RepeatedPtrFieldINS0_30DescriptorProto_ExtensionRangeEEC2EPNS0_5ArenaE = comdat any

$_ZN6google8protobuf16RepeatedPtrFieldINS0_20OneofDescriptorProtoEEC2EPNS0_5ArenaE = comdat any

$_ZN6google8protobuf16RepeatedPtrFieldINS0_29DescriptorProto_ReservedRangeEEC2EPNS0_5ArenaE = comdat any

$_ZN6google8protobuf15DescriptorProto5Impl_D2Ev = comdat any

$_ZNK6google8protobuf16RepeatedPtrFieldINS0_30DescriptorProto_ExtensionRangeEE4sizeEv = comdat any

$_ZNK6google8protobuf16RepeatedPtrFieldINS0_20OneofDescriptorProtoEE4sizeEv = comdat any

$_ZNK6google8protobuf16RepeatedPtrFieldINS0_29DescriptorProto_ReservedRangeEE4sizeEv = comdat any

$_ZN6google8protobuf8internal12ExtensionSetC2ENS1_18InternalVisibilityEPNS0_5ArenaE = comdat any

$_ZN6google8protobuf16RepeatedPtrFieldINS0_33ExtensionRangeOptions_DeclarationEEC2ENS0_8internal18InternalVisibilityEPNS0_5ArenaERKS3_ = comdat any

$_ZN6google8protobuf16RepeatedPtrFieldINS0_19UninterpretedOptionEEC2ENS0_8internal18InternalVisibilityEPNS0_5ArenaERKS3_ = comdat any

$_ZN6google8protobuf16RepeatedPtrFieldINS0_33ExtensionRangeOptions_DeclarationEED2Ev = comdat any

$_ZN6google8protobuf8internal12ExtensionSetC2EPNS0_5ArenaE = comdat any

$_ZN6google8protobuf16RepeatedPtrFieldINS0_33ExtensionRangeOptions_DeclarationEEC2EPNS0_5ArenaERKS3_ = comdat any

$_ZN6google8protobuf16RepeatedPtrFieldINS0_19UninterpretedOptionEEC2EPNS0_5ArenaERKS3_ = comdat any

$_ZN6google8protobuf16RepeatedPtrFieldINS0_33ExtensionRangeOptions_DeclarationEEC2ENS0_8internal18InternalVisibilityEPNS0_5ArenaE = comdat any

$_ZN6google8protobuf16RepeatedPtrFieldINS0_19UninterpretedOptionEEC2ENS0_8internal18InternalVisibilityEPNS0_5ArenaE = comdat any

$_ZN6google8protobuf16RepeatedPtrFieldINS0_33ExtensionRangeOptions_DeclarationEEC2EPNS0_5ArenaE = comdat any

$_ZN6google8protobuf16RepeatedPtrFieldINS0_19UninterpretedOptionEEC2EPNS0_5ArenaE = comdat any

$_ZN6google8protobuf21ExtensionRangeOptions5Impl_D2Ev = comdat any

$_ZN6google8protobuf16RepeatedPtrFieldINS0_19UninterpretedOptionEED2Ev = comdat any

$_ZNK6google8protobuf16RepeatedPtrFieldINS0_33ExtensionRangeOptions_DeclarationEE4sizeEv = comdat any

$_ZNK6google8protobuf16RepeatedPtrFieldINS0_19UninterpretedOptionEE4sizeEv = comdat any

$_ZN6google8protobuf16RepeatedPtrFieldINS0_24EnumValueDescriptorProtoEEC2ENS0_8internal18InternalVisibilityEPNS0_5ArenaERKS3_ = comdat any

$_ZN6google8protobuf16RepeatedPtrFieldINS0_37EnumDescriptorProto_EnumReservedRangeEEC2ENS0_8internal18InternalVisibilityEPNS0_5ArenaERKS3_ = comdat any

$_ZN6google8protobuf16RepeatedPtrFieldINS0_37EnumDescriptorProto_EnumReservedRangeEED2Ev = comdat any

$_ZN6google8protobuf16RepeatedPtrFieldINS0_24EnumValueDescriptorProtoEED2Ev = comdat any

$_ZN6google8protobuf16RepeatedPtrFieldINS0_24EnumValueDescriptorProtoEEC2EPNS0_5ArenaERKS3_ = comdat any

$_ZN6google8protobuf16RepeatedPtrFieldINS0_37EnumDescriptorProto_EnumReservedRangeEEC2EPNS0_5ArenaERKS3_ = comdat any

$_ZN6google8protobuf16RepeatedPtrFieldINS0_24EnumValueDescriptorProtoEEC2ENS0_8internal18InternalVisibilityEPNS0_5ArenaE = comdat any

$_ZN6google8protobuf16RepeatedPtrFieldINS0_37EnumDescriptorProto_EnumReservedRangeEEC2ENS0_8internal18InternalVisibilityEPNS0_5ArenaE = comdat any

$_ZN6google8protobuf16RepeatedPtrFieldINS0_24EnumValueDescriptorProtoEEC2EPNS0_5ArenaE = comdat any

$_ZN6google8protobuf16RepeatedPtrFieldINS0_37EnumDescriptorProto_EnumReservedRangeEEC2EPNS0_5ArenaE = comdat any

$_ZN6google8protobuf19EnumDescriptorProto5Impl_D2Ev = comdat any

$_ZNK6google8protobuf16RepeatedPtrFieldINS0_24EnumValueDescriptorProtoEE4sizeEv = comdat any

$_ZNK6google8protobuf16RepeatedPtrFieldINS0_37EnumDescriptorProto_EnumReservedRangeEE4sizeEv = comdat any

$_ZN6google8protobuf16RepeatedPtrFieldINS0_21MethodDescriptorProtoEEC2ENS0_8internal18InternalVisibilityEPNS0_5ArenaERKS3_ = comdat any

$_ZN6google8protobuf16RepeatedPtrFieldINS0_21MethodDescriptorProtoEED2Ev = comdat any

$_ZN6google8protobuf16RepeatedPtrFieldINS0_21MethodDescriptorProtoEEC2EPNS0_5ArenaERKS3_ = comdat any

$_ZN6google8protobuf16RepeatedPtrFieldINS0_21MethodDescriptorProtoEEC2ENS0_8internal18InternalVisibilityEPNS0_5ArenaE = comdat any

$_ZN6google8protobuf16RepeatedPtrFieldINS0_21MethodDescriptorProtoEEC2EPNS0_5ArenaE = comdat any

$_ZN6google8protobuf22ServiceDescriptorProto5Impl_D2Ev = comdat any

$_ZNK6google8protobuf16RepeatedPtrFieldINS0_21MethodDescriptorProtoEE4sizeEv = comdat any

$_ZN6google8protobuf11FileOptions5Impl_D2Ev = comdat any

$_ZN6google8protobuf14MessageOptions5Impl_D2Ev = comdat any

$_ZN6google8protobuf16RepeatedPtrFieldINS0_27FieldOptions_EditionDefaultEEC2ENS0_8internal18InternalVisibilityEPNS0_5ArenaERKS3_ = comdat any

$_ZN6google8protobuf16RepeatedPtrFieldINS0_27FieldOptions_EditionDefaultEED2Ev = comdat any

$_ZN6google8protobuf16RepeatedPtrFieldINS0_27FieldOptions_EditionDefaultEEC2EPNS0_5ArenaERKS3_ = comdat any

$_ZN6google8protobuf16RepeatedPtrFieldINS0_27FieldOptions_EditionDefaultEEC2ENS0_8internal18InternalVisibilityEPNS0_5ArenaE = comdat any

$_ZN6google8protobuf16RepeatedPtrFieldINS0_27FieldOptions_EditionDefaultEEC2EPNS0_5ArenaE = comdat any

$_ZN6google8protobuf12FieldOptions5Impl_D2Ev = comdat any

$_ZNK6google8protobuf16RepeatedPtrFieldINS0_27FieldOptions_EditionDefaultEE4sizeEv = comdat any

$_ZN6google8protobuf12OneofOptions5Impl_D2Ev = comdat any

$_ZN6google8protobuf11EnumOptions5Impl_D2Ev = comdat any

$_ZN6google8protobuf16EnumValueOptions5Impl_D2Ev = comdat any

$_ZN6google8protobuf14ServiceOptions5Impl_D2Ev = comdat any

$_ZN6google8protobuf13MethodOptions5Impl_D2Ev = comdat any

$_ZN6google8protobuf16RepeatedPtrFieldINS0_28UninterpretedOption_NamePartEEC2ENS0_8internal18InternalVisibilityEPNS0_5ArenaERKS3_ = comdat any

$_ZN6google8protobuf16RepeatedPtrFieldINS0_28UninterpretedOption_NamePartEED2Ev = comdat any

$_ZN6google8protobuf16RepeatedPtrFieldINS0_28UninterpretedOption_NamePartEEC2EPNS0_5ArenaERKS3_ = comdat any

$_ZN6google8protobuf16RepeatedPtrFieldINS0_28UninterpretedOption_NamePartEEC2ENS0_8internal18InternalVisibilityEPNS0_5ArenaE = comdat any

$_ZN6google8protobuf16RepeatedPtrFieldINS0_28UninterpretedOption_NamePartEEC2EPNS0_5ArenaE = comdat any

$_ZN6google8protobuf19UninterpretedOption5Impl_D2Ev = comdat any

$_ZNK6google8protobuf16RepeatedPtrFieldINS0_28UninterpretedOption_NamePartEE4sizeEv = comdat any

$_ZN6google8protobuf2io17CodedOutputStream26WriteLittleEndian64ToArrayEmPh = comdat any

$_ZN6google8protobuf8internal14WireFormatLite12EncodeDoubleEd = comdat any

$_ZN4absl12lts_202308028bit_castImdTnNSt9enable_ifIXaaaaeqstT_stT0_sr3std21is_trivially_copyableIS4_EE5valuesr3std21is_trivially_copyableIS3_EE5valueEiE4typeELi0EEES3_RKS4_ = comdat any

$_ZN6google8protobuf10FeatureSet5Impl_D2Ev = comdat any

$_ZN6google8protobuf16RepeatedPtrFieldINS0_43FeatureSetDefaults_FeatureSetEditionDefaultEEC2ENS0_8internal18InternalVisibilityEPNS0_5ArenaERKS3_ = comdat any

$_ZN6google8protobuf16RepeatedPtrFieldINS0_43FeatureSetDefaults_FeatureSetEditionDefaultEEC2EPNS0_5ArenaERKS3_ = comdat any

$_ZN6google8protobuf16RepeatedPtrFieldINS0_43FeatureSetDefaults_FeatureSetEditionDefaultEEC2ENS0_8internal18InternalVisibilityEPNS0_5ArenaE = comdat any

$_ZN6google8protobuf16RepeatedPtrFieldINS0_43FeatureSetDefaults_FeatureSetEditionDefaultEEC2EPNS0_5ArenaE = comdat any

$_ZN6google8protobuf18FeatureSetDefaults5Impl_D2Ev = comdat any

$_ZN6google8protobuf16RepeatedPtrFieldINS0_43FeatureSetDefaults_FeatureSetEditionDefaultEED2Ev = comdat any

$_ZNK6google8protobuf16RepeatedPtrFieldINS0_43FeatureSetDefaults_FeatureSetEditionDefaultEE4sizeEv = comdat any

$_ZN6google8protobuf23SourceCodeInfo_Location5Impl_D2Ev = comdat any

$_ZN6google8protobuf16RepeatedPtrFieldINS0_23SourceCodeInfo_LocationEEC2ENS0_8internal18InternalVisibilityEPNS0_5ArenaERKS3_ = comdat any

$_ZN6google8protobuf16RepeatedPtrFieldINS0_23SourceCodeInfo_LocationEEC2EPNS0_5ArenaERKS3_ = comdat any

$_ZN6google8protobuf16RepeatedPtrFieldINS0_23SourceCodeInfo_LocationEEC2ENS0_8internal18InternalVisibilityEPNS0_5ArenaE = comdat any

$_ZN6google8protobuf16RepeatedPtrFieldINS0_23SourceCodeInfo_LocationEEC2EPNS0_5ArenaE = comdat any

$_ZN6google8protobuf14SourceCodeInfo5Impl_D2Ev = comdat any

$_ZN6google8protobuf16RepeatedPtrFieldINS0_23SourceCodeInfo_LocationEED2Ev = comdat any

$_ZNK6google8protobuf16RepeatedPtrFieldINS0_23SourceCodeInfo_LocationEE4sizeEv = comdat any

$_ZN6google8protobuf28GeneratedCodeInfo_Annotation5Impl_D2Ev = comdat any

$_ZN6google8protobuf16RepeatedPtrFieldINS0_28GeneratedCodeInfo_AnnotationEEC2ENS0_8internal18InternalVisibilityEPNS0_5ArenaERKS3_ = comdat any

$_ZN6google8protobuf16RepeatedPtrFieldINS0_28GeneratedCodeInfo_AnnotationEEC2EPNS0_5ArenaERKS3_ = comdat any

$_ZN6google8protobuf16RepeatedPtrFieldINS0_28GeneratedCodeInfo_AnnotationEEC2ENS0_8internal18InternalVisibilityEPNS0_5ArenaE = comdat any

$_ZN6google8protobuf16RepeatedPtrFieldINS0_28GeneratedCodeInfo_AnnotationEEC2EPNS0_5ArenaE = comdat any

$_ZN6google8protobuf17GeneratedCodeInfo5Impl_D2Ev = comdat any

$_ZN6google8protobuf16RepeatedPtrFieldINS0_28GeneratedCodeInfo_AnnotationEED2Ev = comdat any

$_ZNK6google8protobuf16RepeatedPtrFieldINS0_28GeneratedCodeInfo_AnnotationEE4sizeEv = comdat any

$_ZN6google8protobuf5Arena16DefaultConstructINS0_28UninterpretedOption_NamePartEEEPvPS1_ = comdat any

$_ZN6google8protobuf5Arena15AllocateAlignedEmm = comdat any

$_ZN6google8protobuf5Arena16DefaultConstructINS0_23SourceCodeInfo_LocationEEEPvPS1_ = comdat any

$_ZN6google8protobuf5Arena16DefaultConstructINS0_28GeneratedCodeInfo_AnnotationEEEPvPS1_ = comdat any

$_ZN6google8protobuf5Arena16DefaultConstructINS0_27FieldOptions_EditionDefaultEEEPvPS1_ = comdat any

$_ZN6google8protobuf5Arena16DefaultConstructINS0_10FeatureSetEEEPvPS1_ = comdat any

$_ZN6google8protobuf5Arena16DefaultConstructINS0_33ExtensionRangeOptions_DeclarationEEEPvPS1_ = comdat any

$_ZN6google8protobuf5Arena16DefaultConstructINS0_37EnumDescriptorProto_EnumReservedRangeEEEPvPS1_ = comdat any

$_ZN6google8protobuf5Arena16DefaultConstructINS0_29DescriptorProto_ReservedRangeEEEPvPS1_ = comdat any

$_ZN6google8protobuf5Arena16DefaultConstructINS0_19UninterpretedOptionEEEPvPS1_ = comdat any

$_ZN6google8protobuf5Arena16DefaultConstructINS0_14SourceCodeInfoEEEPvPS1_ = comdat any

$_ZN6google8protobuf5Arena16DefaultConstructINS0_17GeneratedCodeInfoEEEPvPS1_ = comdat any

$_ZN6google8protobuf5Arena16DefaultConstructINS0_43FeatureSetDefaults_FeatureSetEditionDefaultEEEPvPS1_ = comdat any

$_ZN6google8protobuf5Arena16DefaultConstructINS0_14ServiceOptionsEEEPvPS1_ = comdat any

$_ZN6google8protobuf5Arena16DefaultConstructINS0_12OneofOptionsEEEPvPS1_ = comdat any

$_ZN6google8protobuf5Arena16DefaultConstructINS0_13MethodOptionsEEEPvPS1_ = comdat any

$_ZN6google8protobuf5Arena16DefaultConstructINS0_14MessageOptionsEEEPvPS1_ = comdat any

$_ZN6google8protobuf5Arena16DefaultConstructINS0_11FileOptionsEEEPvPS1_ = comdat any

$_ZN6google8protobuf5Arena16DefaultConstructINS0_12FieldOptionsEEEPvPS1_ = comdat any

$_ZN6google8protobuf5Arena16DefaultConstructINS0_18FeatureSetDefaultsEEEPvPS1_ = comdat any

$_ZN6google8protobuf5Arena16DefaultConstructINS0_21ExtensionRangeOptionsEEEPvPS1_ = comdat any

$_ZN6google8protobuf5Arena16DefaultConstructINS0_16EnumValueOptionsEEEPvPS1_ = comdat any

$_ZN6google8protobuf5Arena16DefaultConstructINS0_11EnumOptionsEEEPvPS1_ = comdat any

$_ZN6google8protobuf5Arena16DefaultConstructINS0_20OneofDescriptorProtoEEEPvPS1_ = comdat any

$_ZN6google8protobuf5Arena16DefaultConstructINS0_21MethodDescriptorProtoEEEPvPS1_ = comdat any

$_ZN6google8protobuf5Arena16DefaultConstructINS0_20FieldDescriptorProtoEEEPvPS1_ = comdat any

$_ZN6google8protobuf5Arena16DefaultConstructINS0_24EnumValueDescriptorProtoEEEPvPS1_ = comdat any

$_ZN6google8protobuf5Arena16DefaultConstructINS0_30DescriptorProto_ExtensionRangeEEEPvPS1_ = comdat any

$_ZN6google8protobuf5Arena16DefaultConstructINS0_22ServiceDescriptorProtoEEEPvPS1_ = comdat any

$_ZN6google8protobuf5Arena16DefaultConstructINS0_19EnumDescriptorProtoEEEPvPS1_ = comdat any

$_ZN6google8protobuf5Arena16DefaultConstructINS0_15DescriptorProtoEEEPvPS1_ = comdat any

$_ZN6google8protobuf5Arena16DefaultConstructINS0_19FileDescriptorProtoEEEPvPS1_ = comdat any

$_ZN6google8protobuf5Arena16DefaultConstructINS0_17FileDescriptorSetEEEPvPS1_ = comdat any

$_ZNK6google8protobuf8internal16InternalMetadata8PtrValueINS2_9ContainerINS0_15UnknownFieldSetEEEEEPT_v = comdat any

$_ZN6google8protobuf8internal20RepeatedPtrFieldBase5ClearINS1_18GenericTypeHandlerINS0_19FileDescriptorProtoEEEEEvv = comdat any

$_ZN6google8protobuf8internal20RepeatedPtrFieldBase13ClearNonEmptyINS1_18GenericTypeHandlerINS0_11MessageLiteEEEEEvv = comdat any

$_ZN6google8protobuf8internal18GenericTypeHandlerINS0_11MessageLiteEE5ClearEPS3_ = comdat any

$_ZN6google8protobuf8internal20RepeatedPtrFieldBase4castINS1_18GenericTypeHandlerINS0_11MessageLiteEEEEEPNT_4TypeEPv = comdat any

$_ZN6google8protobuf8internal20RepeatedPtrFieldBase19ExchangeCurrentSizeEi = comdat any

$_ZSt8exchangeIiRiET_RS1_OT0_ = comdat any

$_ZSt10__exchangeIiRiET_RS1_OT0_ = comdat any

$_ZNK6google8protobuf8internal20RepeatedPtrFieldBase3GetINS1_18GenericTypeHandlerINS0_19FileDescriptorProtoEEEEERKNT_4TypeEi = comdat any

$_ZN6google8protobuf8internal20RepeatedPtrFieldBase4castINS1_18GenericTypeHandlerINS0_19FileDescriptorProtoEEEEEPKNT_4TypeEPKv = comdat any

$_ZNK6google8protobuf8internal20RepeatedPtrFieldBase10element_atEi = comdat any

$_ZN6google8protobuf8internal20RepeatedPtrFieldBase10element_atEi = comdat any

$_ZN6google8protobuf8internal20RepeatedPtrFieldBase5ClearINS1_18GenericTypeHandlerINSt7__cxx1112basic_stringIcSt11char_traitsIcESaIcEEEEEEEvv = comdat any

$_ZN6google8protobuf8internal20RepeatedPtrFieldBase13ClearNonEmptyINS1_18GenericTypeHandlerINSt7__cxx1112basic_stringIcSt11char_traitsIcESaIcEEEEEEEvv = comdat any

$_ZN6google8protobuf8internal18GenericTypeHandlerINSt7__cxx1112basic_stringIcSt11char_traitsIcESaIcEEEE5ClearEPS8_ = comdat any

$_ZNK6google8protobuf8internal20RepeatedPtrFieldBase3GetINS1_18GenericTypeHandlerINSt7__cxx1112basic_stringIcSt11char_traitsIcESaIcEEEEEEERKNT_4TypeEi = comdat any

$_ZN6google8protobuf8internal20RepeatedPtrFieldBase4castINS1_18GenericTypeHandlerINSt7__cxx1112basic_stringIcSt11char_traitsIcESaIcEEEEEEEPKNT_4TypeEPKv = comdat any

$_ZN6google8protobuf8internal20RepeatedPtrFieldBase5ClearINS1_18GenericTypeHandlerINS0_15DescriptorProtoEEEEEvv = comdat any

$_ZNK6google8protobuf8internal20RepeatedPtrFieldBase3GetINS1_18GenericTypeHandlerINS0_15DescriptorProtoEEEEERKNT_4TypeEi = comdat any

$_ZN6google8protobuf8internal20RepeatedPtrFieldBase4castINS1_18GenericTypeHandlerINS0_15DescriptorProtoEEEEEPKNT_4TypeEPKv = comdat any

$_ZN6google8protobuf8internal20RepeatedPtrFieldBase5ClearINS1_18GenericTypeHandlerINS0_19EnumDescriptorProtoEEEEEvv = comdat any

$_ZNK6google8protobuf8internal20RepeatedPtrFieldBase3GetINS1_18GenericTypeHandlerINS0_19EnumDescriptorProtoEEEEERKNT_4TypeEi = comdat any

$_ZN6google8protobuf8internal20RepeatedPtrFieldBase4castINS1_18GenericTypeHandlerINS0_19EnumDescriptorProtoEEEEEPKNT_4TypeEPKv = comdat any

$_ZN6google8protobuf8internal20RepeatedPtrFieldBase5ClearINS1_18GenericTypeHandlerINS0_22ServiceDescriptorProtoEEEEEvv = comdat any

$_ZNK6google8protobuf8internal20RepeatedPtrFieldBase3GetINS1_18GenericTypeHandlerINS0_22ServiceDescriptorProtoEEEEERKNT_4TypeEi = comdat any

$_ZN6google8protobuf8internal20RepeatedPtrFieldBase4castINS1_18GenericTypeHandlerINS0_22ServiceDescriptorProtoEEEEEPKNT_4TypeEPKv = comdat any

$_ZN6google8protobuf8internal20RepeatedPtrFieldBase5ClearINS1_18GenericTypeHandlerINS0_20FieldDescriptorProtoEEEEEvv = comdat any

$_ZNK6google8protobuf8internal20RepeatedPtrFieldBase3GetINS1_18GenericTypeHandlerINS0_20FieldDescriptorProtoEEEEERKNT_4TypeEi = comdat any

$_ZN6google8protobuf8internal20RepeatedPtrFieldBase4castINS1_18GenericTypeHandlerINS0_20FieldDescriptorProtoEEEEEPKNT_4TypeEPKv = comdat any

$_ZN6google8protobuf8internal20RepeatedPtrFieldBase5ClearINS1_18GenericTypeHandlerINS0_30DescriptorProto_ExtensionRangeEEEEEvv = comdat any

$_ZNK6google8protobuf8internal20RepeatedPtrFieldBase3GetINS1_18GenericTypeHandlerINS0_30DescriptorProto_ExtensionRangeEEEEERKNT_4TypeEi = comdat any

$_ZN6google8protobuf8internal20RepeatedPtrFieldBase4castINS1_18GenericTypeHandlerINS0_30DescriptorProto_ExtensionRangeEEEEEPKNT_4TypeEPKv = comdat any

$_ZN6google8protobuf8internal20RepeatedPtrFieldBase5ClearINS1_18GenericTypeHandlerINS0_20OneofDescriptorProtoEEEEEvv = comdat any

$_ZNK6google8protobuf8internal20RepeatedPtrFieldBase3GetINS1_18GenericTypeHandlerINS0_20OneofDescriptorProtoEEEEERKNT_4TypeEi = comdat any

$_ZN6google8protobuf8internal20RepeatedPtrFieldBase4castINS1_18GenericTypeHandlerINS0_20OneofDescriptorProtoEEEEEPKNT_4TypeEPKv = comdat any

$_ZN6google8protobuf8internal20RepeatedPtrFieldBase5ClearINS1_18GenericTypeHandlerINS0_29DescriptorProto_ReservedRangeEEEEEvv = comdat any

$_ZNK6google8protobuf8internal20RepeatedPtrFieldBase3GetINS1_18GenericTypeHandlerINS0_29DescriptorProto_ReservedRangeEEEEERKNT_4TypeEi = comdat any

$_ZN6google8protobuf8internal20RepeatedPtrFieldBase4castINS1_18GenericTypeHandlerINS0_29DescriptorProto_ReservedRangeEEEEEPKNT_4TypeEPKv = comdat any

$_ZN6google8protobuf8internal20RepeatedPtrFieldBase5ClearINS1_18GenericTypeHandlerINS0_19UninterpretedOptionEEEEEvv = comdat any

$_ZNK6google8protobuf8internal20RepeatedPtrFieldBase3GetINS1_18GenericTypeHandlerINS0_19UninterpretedOptionEEEEERKNT_4TypeEi = comdat any

$_ZN6google8protobuf8internal20RepeatedPtrFieldBase4castINS1_18GenericTypeHandlerINS0_19UninterpretedOptionEEEEEPKNT_4TypeEPKv = comdat any

$_ZN6google8protobuf8internal20RepeatedPtrFieldBase5ClearINS1_18GenericTypeHandlerINS0_33ExtensionRangeOptions_DeclarationEEEEEvv = comdat any

$_ZNK6google8protobuf8internal20RepeatedPtrFieldBase3GetINS1_18GenericTypeHandlerINS0_33ExtensionRangeOptions_DeclarationEEEEERKNT_4TypeEi = comdat any

$_ZN6google8protobuf8internal20RepeatedPtrFieldBase4castINS1_18GenericTypeHandlerINS0_33ExtensionRangeOptions_DeclarationEEEEEPKNT_4TypeEPKv = comdat any

$_ZN6google8protobuf8internal20RepeatedPtrFieldBase5ClearINS1_18GenericTypeHandlerINS0_24EnumValueDescriptorProtoEEEEEvv = comdat any

$_ZNK6google8protobuf8internal20RepeatedPtrFieldBase3GetINS1_18GenericTypeHandlerINS0_24EnumValueDescriptorProtoEEEEERKNT_4TypeEi = comdat any

$_ZN6google8protobuf8internal20RepeatedPtrFieldBase4castINS1_18GenericTypeHandlerINS0_24EnumValueDescriptorProtoEEEEEPKNT_4TypeEPKv = comdat any

$_ZN6google8protobuf8internal20RepeatedPtrFieldBase5ClearINS1_18GenericTypeHandlerINS0_37EnumDescriptorProto_EnumReservedRangeEEEEEvv = comdat any

$_ZNK6google8protobuf8internal20RepeatedPtrFieldBase3GetINS1_18GenericTypeHandlerINS0_37EnumDescriptorProto_EnumReservedRangeEEEEERKNT_4TypeEi = comdat any

$_ZN6google8protobuf8internal20RepeatedPtrFieldBase4castINS1_18GenericTypeHandlerINS0_37EnumDescriptorProto_EnumReservedRangeEEEEEPKNT_4TypeEPKv = comdat any

$_ZN6google8protobuf8internal20RepeatedPtrFieldBase5ClearINS1_18GenericTypeHandlerINS0_21MethodDescriptorProtoEEEEEvv = comdat any

$_ZNK6google8protobuf8internal20RepeatedPtrFieldBase3GetINS1_18GenericTypeHandlerINS0_21MethodDescriptorProtoEEEEERKNT_4TypeEi = comdat any

$_ZN6google8protobuf8internal20RepeatedPtrFieldBase4castINS1_18GenericTypeHandlerINS0_21MethodDescriptorProtoEEEEEPKNT_4TypeEPKv = comdat any

$_ZN6google8protobuf8internal20RepeatedPtrFieldBase5ClearINS1_18GenericTypeHandlerINS0_27FieldOptions_EditionDefaultEEEEEvv = comdat any

$_ZNK6google8protobuf8internal20RepeatedPtrFieldBase3GetINS1_18GenericTypeHandlerINS0_27FieldOptions_EditionDefaultEEEEERKNT_4TypeEi = comdat any

$_ZN6google8protobuf8internal20RepeatedPtrFieldBase4castINS1_18GenericTypeHandlerINS0_27FieldOptions_EditionDefaultEEEEEPKNT_4TypeEPKv = comdat any

$_ZN6google8protobuf8internal20RepeatedPtrFieldBase5ClearINS1_18GenericTypeHandlerINS0_28UninterpretedOption_NamePartEEEEEvv = comdat any

$_ZNK6google8protobuf8internal20RepeatedPtrFieldBase3GetINS1_18GenericTypeHandlerINS0_28UninterpretedOption_NamePartEEEEERKNT_4TypeEi = comdat any

$_ZN6google8protobuf8internal20RepeatedPtrFieldBase4castINS1_18GenericTypeHandlerINS0_28UninterpretedOption_NamePartEEEEEPKNT_4TypeEPKv = comdat any

$_ZN6google8protobuf8internal20RepeatedPtrFieldBase5ClearINS1_18GenericTypeHandlerINS0_43FeatureSetDefaults_FeatureSetEditionDefaultEEEEEvv = comdat any

$_ZNK6google8protobuf8internal20RepeatedPtrFieldBase3GetINS1_18GenericTypeHandlerINS0_43FeatureSetDefaults_FeatureSetEditionDefaultEEEEERKNT_4TypeEi = comdat any

$_ZN6google8protobuf8internal20RepeatedPtrFieldBase4castINS1_18GenericTypeHandlerINS0_43FeatureSetDefaults_FeatureSetEditionDefaultEEEEEPKNT_4TypeEPKv = comdat any

$_ZN6google8protobuf8internal20RepeatedPtrFieldBase5ClearINS1_18GenericTypeHandlerINS0_23SourceCodeInfo_LocationEEEEEvv = comdat any

$_ZNK6google8protobuf8internal20RepeatedPtrFieldBase3GetINS1_18GenericTypeHandlerINS0_23SourceCodeInfo_LocationEEEEERKNT_4TypeEi = comdat any

$_ZN6google8protobuf8internal20RepeatedPtrFieldBase4castINS1_18GenericTypeHandlerINS0_23SourceCodeInfo_LocationEEEEEPKNT_4TypeEPKv = comdat any

$_ZN6google8protobuf8internal20RepeatedPtrFieldBase5ClearINS1_18GenericTypeHandlerINS0_28GeneratedCodeInfo_AnnotationEEEEEvv = comdat any

$_ZNK6google8protobuf8internal20RepeatedPtrFieldBase3GetINS1_18GenericTypeHandlerINS0_28GeneratedCodeInfo_AnnotationEEEEERKNT_4TypeEi = comdat any

$_ZN6google8protobuf8internal20RepeatedPtrFieldBase4castINS1_18GenericTypeHandlerINS0_28GeneratedCodeInfo_AnnotationEEEEEPKNT_4TypeEPKv = comdat any

$_ZNK6google8protobuf8internal20RepeatedPtrFieldBase8raw_dataEv = comdat any

$_ZN6google8protobuf8internal19RepeatedPtrIteratorINS0_19FileDescriptorProtoEEC2EPKPv = comdat any

$_ZN6google8protobuf8internal19RepeatedPtrIteratorIKNS0_19FileDescriptorProtoEEC2IS3_TnPNSt9enable_ifIXsr3std14is_convertibleIPT_PS4_EE5valueEvE4typeELPv0EEERKNS2_IS8_EE = comdat any

$_ZNK6google8protobuf8internal20RepeatedPtrFieldBase8elementsEv = comdat any

$_ZNK6google8protobuf16RepeatedPtrFieldINS0_19FileDescriptorProtoEE5emptyEv = comdat any

$_ZN6google8protobuf8internal20RepeatedPtrFieldBase9MergeFromINS0_19FileDescriptorProtoEEEvRKS2_ = comdat any

$_ZNK6google8protobuf8internal20RepeatedPtrFieldBase5emptyEv = comdat any

$_ZN6google8protobuf5Arena13CopyConstructINS0_19FileDescriptorProtoEEEPvPS1_PKv = comdat any

$_ZN6google8protobuf8internal20RepeatedPtrFieldBase12InternalSwapEPS2_ = comdat any

$_ZN6google8protobuf5Arena13CopyConstructINS0_11FileOptionsEEEPvPS1_PKv = comdat any

$_ZN6google8protobuf5Arena13CopyConstructINS0_14SourceCodeInfoEEEPvPS1_PKv = comdat any

$_ZN6google8protobuf8internal19RepeatedPtrIteratorINS0_15DescriptorProtoEEC2EPKPv = comdat any

$_ZN6google8protobuf8internal19RepeatedPtrIteratorIKNS0_15DescriptorProtoEEC2IS3_TnPNSt9enable_ifIXsr3std14is_convertibleIPT_PS4_EE5valueEvE4typeELPv0EEERKNS2_IS8_EE = comdat any

$_ZN6google8protobuf8internal19RepeatedPtrIteratorINS0_19EnumDescriptorProtoEEC2EPKPv = comdat any

$_ZN6google8protobuf8internal19RepeatedPtrIteratorIKNS0_19EnumDescriptorProtoEEC2IS3_TnPNSt9enable_ifIXsr3std14is_convertibleIPT_PS4_EE5valueEvE4typeELPv0EEERKNS2_IS8_EE = comdat any

$_ZN6google8protobuf8internal19RepeatedPtrIteratorINS0_22ServiceDescriptorProtoEEC2EPKPv = comdat any

$_ZN6google8protobuf8internal19RepeatedPtrIteratorIKNS0_22ServiceDescriptorProtoEEC2IS3_TnPNSt9enable_ifIXsr3std14is_convertibleIPT_PS4_EE5valueEvE4typeELPv0EEERKNS2_IS8_EE = comdat any

$_ZN6google8protobuf8internal19RepeatedPtrIteratorINS0_20FieldDescriptorProtoEEC2EPKPv = comdat any

$_ZN6google8protobuf8internal19RepeatedPtrIteratorIKNS0_20FieldDescriptorProtoEEC2IS3_TnPNSt9enable_ifIXsr3std14is_convertibleIPT_PS4_EE5valueEvE4typeELPv0EEERKNS2_IS8_EE = comdat any

$_ZNK6google8protobuf16RepeatedPtrFieldINSt7__cxx1112basic_stringIcSt11char_traitsIcESaIcEEEE5emptyEv = comdat any

$_ZNK6google8protobuf16RepeatedPtrFieldINS0_15DescriptorProtoEE5emptyEv = comdat any

$_ZN6google8protobuf8internal20RepeatedPtrFieldBase9MergeFromINS0_15DescriptorProtoEEEvRKS2_ = comdat any

$_ZN6google8protobuf5Arena13CopyConstructINS0_15DescriptorProtoEEEPvPS1_PKv = comdat any

$_ZNK6google8protobuf16RepeatedPtrFieldINS0_19EnumDescriptorProtoEE5emptyEv = comdat any

$_ZN6google8protobuf8internal20RepeatedPtrFieldBase9MergeFromINS0_19EnumDescriptorProtoEEEvRKS2_ = comdat any

$_ZN6google8protobuf5Arena13CopyConstructINS0_19EnumDescriptorProtoEEEPvPS1_PKv = comdat any

$_ZNK6google8protobuf16RepeatedPtrFieldINS0_22ServiceDescriptorProtoEE5emptyEv = comdat any

$_ZN6google8protobuf8internal20RepeatedPtrFieldBase9MergeFromINS0_22ServiceDescriptorProtoEEEvRKS2_ = comdat any

$_ZN6google8protobuf5Arena13CopyConstructINS0_22ServiceDescriptorProtoEEEPvPS1_PKv = comdat any

$_ZNK6google8protobuf16RepeatedPtrFieldINS0_20FieldDescriptorProtoEE5emptyEv = comdat any

$_ZN6google8protobuf8internal20RepeatedPtrFieldBase9MergeFromINS0_20FieldDescriptorProtoEEEvRKS2_ = comdat any

$_ZN6google8protobuf5Arena13CopyConstructINS0_20FieldDescriptorProtoEEEPvPS1_PKv = comdat any

$_ZN6google8protobuf13RepeatedFieldIiE7ReserveEi = comdat any

$_ZSt11swap_rangesIPcS0_ET0_T_S2_S1_ = comdat any

$_ZSt9iter_swapIPcS0_EvT_T0_ = comdat any

$_ZSt4swapIcENSt9enable_ifIXsr6__and_ISt6__not_ISt15__is_tuple_likeIT_EESt21is_move_constructibleIS3_ESt18is_move_assignableIS3_EEE5valueEvE4typeERS3_SC_ = comdat any

$_ZN6google8protobuf5Arena13CopyConstructINS0_21ExtensionRangeOptionsEEEPvPS1_PKv = comdat any

$_ZN6google8protobuf5Arena13CopyConstructINS0_14MessageOptionsEEEPvPS1_PKv = comdat any

$_ZN6google8protobuf8internal19RepeatedPtrIteratorINS0_30DescriptorProto_ExtensionRangeEEC2EPKPv = comdat any

$_ZN6google8protobuf8internal19RepeatedPtrIteratorIKNS0_30DescriptorProto_ExtensionRangeEEC2IS3_TnPNSt9enable_ifIXsr3std14is_convertibleIPT_PS4_EE5valueEvE4typeELPv0EEERKNS2_IS8_EE = comdat any

$_ZN6google8protobuf8internal19RepeatedPtrIteratorINS0_20OneofDescriptorProtoEEC2EPKPv = comdat any

$_ZN6google8protobuf8internal19RepeatedPtrIteratorIKNS0_20OneofDescriptorProtoEEC2IS3_TnPNSt9enable_ifIXsr3std14is_convertibleIPT_PS4_EE5valueEvE4typeELPv0EEERKNS2_IS8_EE = comdat any

$_ZN6google8protobuf8internal19RepeatedPtrIteratorINS0_29DescriptorProto_ReservedRangeEEC2EPKPv = comdat any

$_ZN6google8protobuf8internal19RepeatedPtrIteratorIKNS0_29DescriptorProto_ReservedRangeEEC2IS3_TnPNSt9enable_ifIXsr3std14is_convertibleIPT_PS4_EE5valueEvE4typeELPv0EEERKNS2_IS8_EE = comdat any

$_ZNK6google8protobuf16RepeatedPtrFieldINS0_30DescriptorProto_ExtensionRangeEE5emptyEv = comdat any

$_ZN6google8protobuf8internal20RepeatedPtrFieldBase9MergeFromINS0_30DescriptorProto_ExtensionRangeEEEvRKS2_ = comdat any

$_ZN6google8protobuf5Arena13CopyConstructINS0_30DescriptorProto_ExtensionRangeEEEPvPS1_PKv = comdat any

$_ZNK6google8protobuf16RepeatedPtrFieldINS0_20OneofDescriptorProtoEE5emptyEv = comdat any

$_ZN6google8protobuf8internal20RepeatedPtrFieldBase9MergeFromINS0_20OneofDescriptorProtoEEEvRKS2_ = comdat any

$_ZN6google8protobuf5Arena13CopyConstructINS0_20OneofDescriptorProtoEEEPvPS1_PKv = comdat any

$_ZNK6google8protobuf16RepeatedPtrFieldINS0_29DescriptorProto_ReservedRangeEE5emptyEv = comdat any

$_ZN6google8protobuf8internal20RepeatedPtrFieldBase9MergeFromINS0_29DescriptorProto_ReservedRangeEEEvRKS2_ = comdat any

$_ZN6google8protobuf5Arena13CopyConstructINS0_29DescriptorProto_ReservedRangeEEEPvPS1_PKv = comdat any

$_ZN6google8protobuf5Arena13CopyConstructINS0_10FeatureSetEEEPvPS1_PKv = comdat any

$_ZN6google8protobuf8internal19RepeatedPtrIteratorINS0_33ExtensionRangeOptions_DeclarationEEC2EPKPv = comdat any

$_ZN6google8protobuf8internal19RepeatedPtrIteratorIKNS0_33ExtensionRangeOptions_DeclarationEEC2IS3_TnPNSt9enable_ifIXsr3std14is_convertibleIPT_PS4_EE5valueEvE4typeELPv0EEERKNS2_IS8_EE = comdat any

$_ZN6google8protobuf8internal19RepeatedPtrIteratorINS0_19UninterpretedOptionEEC2EPKPv = comdat any

$_ZN6google8protobuf8internal19RepeatedPtrIteratorIKNS0_19UninterpretedOptionEEC2IS3_TnPNSt9enable_ifIXsr3std14is_convertibleIPT_PS4_EE5valueEvE4typeELPv0EEERKNS2_IS8_EE = comdat any

$_ZNK6google8protobuf16RepeatedPtrFieldINS0_33ExtensionRangeOptions_DeclarationEE5emptyEv = comdat any

$_ZN6google8protobuf8internal20RepeatedPtrFieldBase9MergeFromINS0_33ExtensionRangeOptions_DeclarationEEEvRKS2_ = comdat any

$_ZN6google8protobuf5Arena13CopyConstructINS0_33ExtensionRangeOptions_DeclarationEEEPvPS1_PKv = comdat any

$_ZNK6google8protobuf16RepeatedPtrFieldINS0_19UninterpretedOptionEE5emptyEv = comdat any

$_ZN6google8protobuf8internal20RepeatedPtrFieldBase9MergeFromINS0_19UninterpretedOptionEEEvRKS2_ = comdat any

$_ZN6google8protobuf5Arena13CopyConstructINS0_19UninterpretedOptionEEEPvPS1_PKv = comdat any

$_ZN6google8protobuf5Arena13CopyConstructINS0_12FieldOptionsEEEPvPS1_PKv = comdat any

$_ZN6google8protobuf5Arena13CopyConstructINS0_12OneofOptionsEEEPvPS1_PKv = comdat any

$_ZN6google8protobuf5Arena13CopyConstructINS0_11EnumOptionsEEEPvPS1_PKv = comdat any

$_ZN6google8protobuf8internal19RepeatedPtrIteratorINS0_24EnumValueDescriptorProtoEEC2EPKPv = comdat any

$_ZN6google8protobuf8internal19RepeatedPtrIteratorIKNS0_24EnumValueDescriptorProtoEEC2IS3_TnPNSt9enable_ifIXsr3std14is_convertibleIPT_PS4_EE5valueEvE4typeELPv0EEERKNS2_IS8_EE = comdat any

$_ZN6google8protobuf8internal19RepeatedPtrIteratorINS0_37EnumDescriptorProto_EnumReservedRangeEEC2EPKPv = comdat any

$_ZN6google8protobuf8internal19RepeatedPtrIteratorIKNS0_37EnumDescriptorProto_EnumReservedRangeEEC2IS3_TnPNSt9enable_ifIXsr3std14is_convertibleIPT_PS4_EE5valueEvE4typeELPv0EEERKNS2_IS8_EE = comdat any

$_ZNK6google8protobuf16RepeatedPtrFieldINS0_24EnumValueDescriptorProtoEE5emptyEv = comdat any

$_ZN6google8protobuf8internal20RepeatedPtrFieldBase9MergeFromINS0_24EnumValueDescriptorProtoEEEvRKS2_ = comdat any

$_ZN6google8protobuf5Arena13CopyConstructINS0_24EnumValueDescriptorProtoEEEPvPS1_PKv = comdat any

$_ZNK6google8protobuf16RepeatedPtrFieldINS0_37EnumDescriptorProto_EnumReservedRangeEE5emptyEv = comdat any

$_ZN6google8protobuf8internal20RepeatedPtrFieldBase9MergeFromINS0_37EnumDescriptorProto_EnumReservedRangeEEEvRKS2_ = comdat any

$_ZN6google8protobuf5Arena13CopyConstructINS0_37EnumDescriptorProto_EnumReservedRangeEEEPvPS1_PKv = comdat any

$_ZN6google8protobuf5Arena13CopyConstructINS0_16EnumValueOptionsEEEPvPS1_PKv = comdat any

$_ZN6google8protobuf5Arena13CopyConstructINS0_14ServiceOptionsEEEPvPS1_PKv = comdat any

$_ZN6google8protobuf8internal19RepeatedPtrIteratorINS0_21MethodDescriptorProtoEEC2EPKPv = comdat any

$_ZN6google8protobuf8internal19RepeatedPtrIteratorIKNS0_21MethodDescriptorProtoEEC2IS3_TnPNSt9enable_ifIXsr3std14is_convertibleIPT_PS4_EE5valueEvE4typeELPv0EEERKNS2_IS8_EE = comdat any

$_ZNK6google8protobuf16RepeatedPtrFieldINS0_21MethodDescriptorProtoEE5emptyEv = comdat any

$_ZN6google8protobuf8internal20RepeatedPtrFieldBase9MergeFromINS0_21MethodDescriptorProtoEEEvRKS2_ = comdat any

$_ZN6google8protobuf5Arena13CopyConstructINS0_21MethodDescriptorProtoEEEPvPS1_PKv = comdat any

$_ZN6google8protobuf5Arena13CopyConstructINS0_13MethodOptionsEEEPvPS1_PKv = comdat any

$_ZN6google8protobuf8internal19RepeatedPtrIteratorINS0_27FieldOptions_EditionDefaultEEC2EPKPv = comdat any

$_ZN6google8protobuf8internal19RepeatedPtrIteratorIKNS0_27FieldOptions_EditionDefaultEEC2IS3_TnPNSt9enable_ifIXsr3std14is_convertibleIPT_PS4_EE5valueEvE4typeELPv0EEERKNS2_IS8_EE = comdat any

$_ZNK6google8protobuf16RepeatedPtrFieldINS0_27FieldOptions_EditionDefaultEE5emptyEv = comdat any

$_ZN6google8protobuf8internal20RepeatedPtrFieldBase9MergeFromINS0_27FieldOptions_EditionDefaultEEEvRKS2_ = comdat any

$_ZN6google8protobuf5Arena13CopyConstructINS0_27FieldOptions_EditionDefaultEEEPvPS1_PKv = comdat any

$_ZN6google8protobuf8internal19RepeatedPtrIteratorINS0_28UninterpretedOption_NamePartEEC2EPKPv = comdat any

$_ZN6google8protobuf8internal19RepeatedPtrIteratorIKNS0_28UninterpretedOption_NamePartEEC2IS3_TnPNSt9enable_ifIXsr3std14is_convertibleIPT_PS4_EE5valueEvE4typeELPv0EEERKNS2_IS8_EE = comdat any

$_ZNK6google8protobuf16RepeatedPtrFieldINS0_28UninterpretedOption_NamePartEE5emptyEv = comdat any

$_ZN6google8protobuf8internal20RepeatedPtrFieldBase9MergeFromINS0_28UninterpretedOption_NamePartEEEvRKS2_ = comdat any

$_ZN6google8protobuf5Arena13CopyConstructINS0_28UninterpretedOption_NamePartEEEPvPS1_PKv = comdat any

$_ZN6google8protobuf8internal19RepeatedPtrIteratorINS0_43FeatureSetDefaults_FeatureSetEditionDefaultEEC2EPKPv = comdat any

$_ZN6google8protobuf8internal19RepeatedPtrIteratorIKNS0_43FeatureSetDefaults_FeatureSetEditionDefaultEEC2IS3_TnPNSt9enable_ifIXsr3std14is_convertibleIPT_PS4_EE5valueEvE4typeELPv0EEERKNS2_IS8_EE = comdat any

$_ZNK6google8protobuf16RepeatedPtrFieldINS0_43FeatureSetDefaults_FeatureSetEditionDefaultEE5emptyEv = comdat any

$_ZN6google8protobuf8internal20RepeatedPtrFieldBase9MergeFromINS0_43FeatureSetDefaults_FeatureSetEditionDefaultEEEvRKS2_ = comdat any

$_ZN6google8protobuf5Arena13CopyConstructINS0_43FeatureSetDefaults_FeatureSetEditionDefaultEEEPvPS1_PKv = comdat any

$_ZN6google8protobuf2io19EpsCopyOutputStream8Encode64Em = comdat any

$_ZNK6google8protobuf13RepeatedFieldIiE4dataEv = comdat any

$_ZN6google8protobuf8internal19RepeatedPtrIteratorINS0_23SourceCodeInfo_LocationEEC2EPKPv = comdat any

$_ZN6google8protobuf8internal19RepeatedPtrIteratorIKNS0_23SourceCodeInfo_LocationEEC2IS3_TnPNSt9enable_ifIXsr3std14is_convertibleIPT_PS4_EE5valueEvE4typeELPv0EEERKNS2_IS8_EE = comdat any

$_ZNK6google8protobuf16RepeatedPtrFieldINS0_23SourceCodeInfo_LocationEE5emptyEv = comdat any

$_ZN6google8protobuf8internal20RepeatedPtrFieldBase9MergeFromINS0_23SourceCodeInfo_LocationEEEvRKS2_ = comdat any

$_ZN6google8protobuf5Arena13CopyConstructINS0_23SourceCodeInfo_LocationEEEPvPS1_PKv = comdat any

$_ZN6google8protobuf8internal19RepeatedPtrIteratorINS0_28GeneratedCodeInfo_AnnotationEEC2EPKPv = comdat any

$_ZN6google8protobuf8internal19RepeatedPtrIteratorIKNS0_28GeneratedCodeInfo_AnnotationEEC2IS3_TnPNSt9enable_ifIXsr3std14is_convertibleIPT_PS4_EE5valueEvE4typeELPv0EEERKNS2_IS8_EE = comdat any

$_ZNK6google8protobuf16RepeatedPtrFieldINS0_28GeneratedCodeInfo_AnnotationEE5emptyEv = comdat any

$_ZN6google8protobuf8internal20RepeatedPtrFieldBase9MergeFromINS0_28GeneratedCodeInfo_AnnotationEEEvRKS2_ = comdat any

$_ZN6google8protobuf5Arena13CopyConstructINS0_28GeneratedCodeInfo_AnnotationEEEPvPS1_PKv = comdat any

$_ZN6google8protobuf17FileDescriptorSet7_table_E = comdat any

$_ZN6google8protobuf19FileDescriptorProto7_table_E = comdat any

$_ZN6google8protobuf30DescriptorProto_ExtensionRange7_table_E = comdat any

$_ZN6google8protobuf29DescriptorProto_ReservedRange7_table_E = comdat any

$_ZN6google8protobuf15DescriptorProto7_table_E = comdat any

$_ZN6google8protobuf33ExtensionRangeOptions_Declaration7_table_E = comdat any

$_ZN6google8protobuf21ExtensionRangeOptions7_table_E = comdat any

$_ZN6google8protobuf20FieldDescriptorProto7_table_E = comdat any

$_ZN6google8protobuf20OneofDescriptorProto7_table_E = comdat any

$_ZN6google8protobuf37EnumDescriptorProto_EnumReservedRange7_table_E = comdat any

$_ZN6google8protobuf19EnumDescriptorProto7_table_E = comdat any

$_ZN6google8protobuf24EnumValueDescriptorProto7_table_E = comdat any

$_ZN6google8protobuf22ServiceDescriptorProto7_table_E = comdat any

$_ZN6google8protobuf21MethodDescriptorProto7_table_E = comdat any

$_ZN6google8protobuf11FileOptions7_table_E = comdat any

$_ZN6google8protobuf14MessageOptions7_table_E = comdat any

$_ZN6google8protobuf27FieldOptions_EditionDefault7_table_E = comdat any

$_ZN6google8protobuf12FieldOptions7_table_E = comdat any

$_ZN6google8protobuf12OneofOptions7_table_E = comdat any

$_ZN6google8protobuf11EnumOptions7_table_E = comdat any

$_ZN6google8protobuf16EnumValueOptions7_table_E = comdat any

$_ZN6google8protobuf14ServiceOptions7_table_E = comdat any

$_ZN6google8protobuf13MethodOptions7_table_E = comdat any

$_ZN6google8protobuf28UninterpretedOption_NamePart7_table_E = comdat any

$_ZN6google8protobuf19UninterpretedOption7_table_E = comdat any

$_ZN6google8protobuf10FeatureSet7_table_E = comdat any

$_ZN6google8protobuf43FeatureSetDefaults_FeatureSetEditionDefault7_table_E = comdat any

$_ZN6google8protobuf18FeatureSetDefaults7_table_E = comdat any

$_ZN6google8protobuf23SourceCodeInfo_Location7_table_E = comdat any

$_ZN6google8protobuf14SourceCodeInfo7_table_E = comdat any

$_ZN6google8protobuf28GeneratedCodeInfo_Annotation7_table_E = comdat any

$_ZN6google8protobuf17GeneratedCodeInfo7_table_E = comdat any

$_ZTVN6google8protobuf11MessageLiteE = comdat any

$_ZTSN6google8protobuf11MessageLiteE = comdat any

$_ZTIN6google8protobuf11MessageLiteE = comdat any

$_ZZN6google8protobuf13RepeatedFieldIiE12InternalSwapEPS2_E7kOffset = comdat any

@_ZStL8__ioinit = internal global %"class.std::ios_base::Init" zeroinitializer, align 1
@__dso_handle = external hidden global i8
@_ZTVN6google8protobuf28UninterpretedOption_NamePartE = unnamed_addr constant { [13 x ptr] } { [13 x ptr] [ptr null, ptr @_ZTIN6google8protobuf28UninterpretedOption_NamePartE, ptr @_ZN6google8protobuf28UninterpretedOption_NamePartD1Ev, ptr @_ZN6google8protobuf28UninterpretedOption_NamePartD0Ev, ptr @_ZNK6google8protobuf28UninterpretedOption_NamePart3NewEPNS0_5ArenaE, ptr @_ZN6google8protobuf28UninterpretedOption_NamePart5ClearEv, ptr @_ZNK6google8protobuf28UninterpretedOption_NamePart13IsInitializedEv, ptr @_ZN6google8protobuf7Message21CheckTypeAndMergeFromERKNS0_11MessageLiteE, ptr @_ZNK6google8protobuf28UninterpretedOption_NamePart12ByteSizeLongEv, ptr @_ZN6google8protobuf28UninterpretedOption_NamePart14_InternalParseEPKcPNS0_8internal12ParseContextE, ptr @_ZNK6google8protobuf28UninterpretedOption_NamePart12GetClassDataEv, ptr @_ZNK6google8protobuf28UninterpretedOption_NamePart18_InternalSerializeEPhPNS0_2io19EpsCopyOutputStreamE, ptr @_ZNK6google8protobuf28UninterpretedOption_NamePart11GetMetadataEv] }, align 8
@_ZN6google8protobuf8internal26fixed_address_empty_stringB5cxx11E = external global %"class.google::protobuf::internal::ExplicitlyConstructed", align 8
@_ZN6google8protobuf47_UninterpretedOption_NamePart_default_instance_E = global { { { ptr, %"class.google::protobuf::internal::InternalMetadata", { { %"class.google::protobuf::internal::HasBits", %"class.google::protobuf::internal::CachedSize", %"struct.google::protobuf::internal::ArenaStringPtr", i8 } } } } } { { { ptr, %"class.google::protobuf::internal::InternalMetadata", { { %"class.google::protobuf::internal::HasBits", %"class.google::protobuf::internal::CachedSize", %"struct.google::protobuf::internal::ArenaStringPtr", i8 } } } } { { ptr, %"class.google::protobuf::internal::InternalMetadata", { { %"class.google::protobuf::internal::HasBits", %"class.google::protobuf::internal::CachedSize", %"struct.google::protobuf::internal::ArenaStringPtr", i8 } } } { ptr getelementptr inbounds ({ [13 x ptr] }, ptr @_ZTVN6google8protobuf28UninterpretedOption_NamePartE, i32 0, inrange i32 0, i32 2), %"class.google::protobuf::internal::InternalMetadata" zeroinitializer, { { %"class.google::protobuf::internal::HasBits", %"class.google::protobuf::internal::CachedSize", %"struct.google::protobuf::internal::ArenaStringPtr", i8 } } { { %"class.google::protobuf::internal::HasBits", %"class.google::protobuf::internal::CachedSize", %"struct.google::protobuf::internal::ArenaStringPtr", i8 } { %"class.google::protobuf::internal::HasBits" zeroinitializer, %"class.google::protobuf::internal::CachedSize" zeroinitializer, %"struct.google::protobuf::internal::ArenaStringPtr" { %"class.google::protobuf::internal::TaggedStringPtr" { ptr @_ZN6google8protobuf8internal26fixed_address_empty_stringB5cxx11E } }, i8 0 } } } } }, align 8
@_ZTVN6google8protobuf23SourceCodeInfo_LocationE = unnamed_addr constant { [13 x ptr] } { [13 x ptr] [ptr null, ptr @_ZTIN6google8protobuf23SourceCodeInfo_LocationE, ptr @_ZN6google8protobuf23SourceCodeInfo_LocationD1Ev, ptr @_ZN6google8protobuf23SourceCodeInfo_LocationD0Ev, ptr @_ZNK6google8protobuf23SourceCodeInfo_Location3NewEPNS0_5ArenaE, ptr @_ZN6google8protobuf23SourceCodeInfo_Location5ClearEv, ptr @_ZNK6google8protobuf23SourceCodeInfo_Location13IsInitializedEv, ptr @_ZN6google8protobuf7Message21CheckTypeAndMergeFromERKNS0_11MessageLiteE, ptr @_ZNK6google8protobuf23SourceCodeInfo_Location12ByteSizeLongEv, ptr @_ZN6google8protobuf23SourceCodeInfo_Location14_InternalParseEPKcPNS0_8internal12ParseContextE, ptr @_ZNK6google8protobuf23SourceCodeInfo_Location12GetClassDataEv, ptr @_ZNK6google8protobuf23SourceCodeInfo_Location18_InternalSerializeEPhPNS0_2io19EpsCopyOutputStreamE, ptr @_ZNK6google8protobuf23SourceCodeInfo_Location11GetMetadataEv] }, align 8
@_ZN6google8protobuf42_SourceCodeInfo_Location_default_instance_E = global { { { ptr, %"class.google::protobuf::internal::InternalMetadata", { { %"class.google::protobuf::internal::HasBits", %"class.google::protobuf::internal::CachedSize", %"class.google::protobuf::RepeatedField", %"class.google::protobuf::internal::CachedSize", %"class.google::protobuf::RepeatedField", %"class.google::protobuf::internal::CachedSize", { ptr, i32, i32, ptr }, %"struct.google::protobuf::internal::ArenaStringPtr", %"struct.google::protobuf::internal::ArenaStringPtr" } } } } } { { { ptr, %"class.google::protobuf::internal::InternalMetadata", { { %"class.google::protobuf::internal::HasBits", %"class.google::protobuf::internal::CachedSize", %"class.google::protobuf::RepeatedField", %"class.google::protobuf::internal::CachedSize", %"class.google::protobuf::RepeatedField", %"class.google::protobuf::internal::CachedSize", { ptr, i32, i32, ptr }, %"struct.google::protobuf::internal::ArenaStringPtr", %"struct.google::protobuf::internal::ArenaStringPtr" } } } } { { ptr, %"class.google::protobuf::internal::InternalMetadata", { { %"class.google::protobuf::internal::HasBits", %"class.google::protobuf::internal::CachedSize", %"class.google::protobuf::RepeatedField", %"class.google::protobuf::internal::CachedSize", %"class.google::protobuf::RepeatedField", %"class.google::protobuf::internal::CachedSize", { ptr, i32, i32, ptr }, %"struct.google::protobuf::internal::ArenaStringPtr", %"struct.google::protobuf::internal::ArenaStringPtr" } } } { ptr getelementptr inbounds ({ [13 x ptr] }, ptr @_ZTVN6google8protobuf23SourceCodeInfo_LocationE, i32 0, inrange i32 0, i32 2), %"class.google::protobuf::internal::InternalMetadata" zeroinitializer, { { %"class.google::protobuf::internal::HasBits", %"class.google::protobuf::internal::CachedSize", %"class.google::protobuf::RepeatedField", %"class.google::protobuf::internal::CachedSize", %"class.google::protobuf::RepeatedField", %"class.google::protobuf::internal::CachedSize", { ptr, i32, i32, ptr }, %"struct.google::protobuf::internal::ArenaStringPtr", %"struct.google::protobuf::internal::ArenaStringPtr" } } { { %"class.google::protobuf::internal::HasBits", %"class.google::protobuf::internal::CachedSize", %"class.google::protobuf::RepeatedField", %"class.google::protobuf::internal::CachedSize", %"class.google::protobuf::RepeatedField", %"class.google::protobuf::internal::CachedSize", { ptr, i32, i32, ptr }, %"struct.google::protobuf::internal::ArenaStringPtr", %"struct.google::protobuf::internal::ArenaStringPtr" } { %"class.google::protobuf::internal::HasBits" zeroinitializer, %"class.google::protobuf::internal::CachedSize" zeroinitializer, %"class.google::protobuf::RepeatedField" zeroinitializer, %"class.google::protobuf::internal::CachedSize" zeroinitializer, %"class.google::protobuf::RepeatedField" zeroinitializer, %"class.google::protobuf::internal::CachedSize" zeroinitializer, { ptr, i32, i32, ptr } zeroinitializer, %"struct.google::protobuf::internal::ArenaStringPtr" { %"class.google::protobuf::internal::TaggedStringPtr" { ptr @_ZN6google8protobuf8internal26fixed_address_empty_stringB5cxx11E } }, %"struct.google::protobuf::internal::ArenaStringPtr" { %"class.google::protobuf::internal::TaggedStringPtr" { ptr @_ZN6google8protobuf8internal26fixed_address_empty_stringB5cxx11E } } } } } } }, align 8
@_ZTVN6google8protobuf28GeneratedCodeInfo_AnnotationE = unnamed_addr constant { [13 x ptr] } { [13 x ptr] [ptr null, ptr @_ZTIN6google8protobuf28GeneratedCodeInfo_AnnotationE, ptr @_ZN6google8protobuf28GeneratedCodeInfo_AnnotationD1Ev, ptr @_ZN6google8protobuf28GeneratedCodeInfo_AnnotationD0Ev, ptr @_ZNK6google8protobuf28GeneratedCodeInfo_Annotation3NewEPNS0_5ArenaE, ptr @_ZN6google8protobuf28GeneratedCodeInfo_Annotation5ClearEv, ptr @_ZNK6google8protobuf28GeneratedCodeInfo_Annotation13IsInitializedEv, ptr @_ZN6google8protobuf7Message21CheckTypeAndMergeFromERKNS0_11MessageLiteE, ptr @_ZNK6google8protobuf28GeneratedCodeInfo_Annotation12ByteSizeLongEv, ptr @_ZN6google8protobuf28GeneratedCodeInfo_Annotation14_InternalParseEPKcPNS0_8internal12ParseContextE, ptr @_ZNK6google8protobuf28GeneratedCodeInfo_Annotation12GetClassDataEv, ptr @_ZNK6google8protobuf28GeneratedCodeInfo_Annotation18_InternalSerializeEPhPNS0_2io19EpsCopyOutputStreamE, ptr @_ZNK6google8protobuf28GeneratedCodeInfo_Annotation11GetMetadataEv] }, align 8
@_ZN6google8protobuf47_GeneratedCodeInfo_Annotation_default_instance_E = global { { { ptr, %"class.google::protobuf::internal::InternalMetadata", { { %"class.google::protobuf::internal::HasBits", %"class.google::protobuf::internal::CachedSize", %"class.google::protobuf::RepeatedField", %"class.google::protobuf::internal::CachedSize", %"struct.google::protobuf::internal::ArenaStringPtr", i32, i32, i32 } } } } } { { { ptr, %"class.google::protobuf::internal::InternalMetadata", { { %"class.google::protobuf::internal::HasBits", %"class.google::protobuf::internal::CachedSize", %"class.google::protobuf::RepeatedField", %"class.google::protobuf::internal::CachedSize", %"struct.google::protobuf::internal::ArenaStringPtr", i32, i32, i32 } } } } { { ptr, %"class.google::protobuf::internal::InternalMetadata", { { %"class.google::protobuf::internal::HasBits", %"class.google::protobuf::internal::CachedSize", %"class.google::protobuf::RepeatedField", %"class.google::protobuf::internal::CachedSize", %"struct.google::protobuf::internal::ArenaStringPtr", i32, i32, i32 } } } { ptr getelementptr inbounds ({ [13 x ptr] }, ptr @_ZTVN6google8protobuf28GeneratedCodeInfo_AnnotationE, i32 0, inrange i32 0, i32 2), %"class.google::protobuf::internal::InternalMetadata" zeroinitializer, { { %"class.google::protobuf::internal::HasBits", %"class.google::protobuf::internal::CachedSize", %"class.google::protobuf::RepeatedField", %"class.google::protobuf::internal::CachedSize", %"struct.google::protobuf::internal::ArenaStringPtr", i32, i32, i32 } } { { %"class.google::protobuf::internal::HasBits", %"class.google::protobuf::internal::CachedSize", %"class.google::protobuf::RepeatedField", %"class.google::protobuf::internal::CachedSize", %"struct.google::protobuf::internal::ArenaStringPtr", i32, i32, i32 } { %"class.google::protobuf::internal::HasBits" zeroinitializer, %"class.google::protobuf::internal::CachedSize" zeroinitializer, %"class.google::protobuf::RepeatedField" zeroinitializer, %"class.google::protobuf::internal::CachedSize" zeroinitializer, %"struct.google::protobuf::internal::ArenaStringPtr" { %"class.google::protobuf::internal::TaggedStringPtr" { ptr @_ZN6google8protobuf8internal26fixed_address_empty_stringB5cxx11E } }, i32 0, i32 0, i32 0 } } } } }, align 8
@_ZTVN6google8protobuf27FieldOptions_EditionDefaultE = unnamed_addr constant { [13 x ptr] } { [13 x ptr] [ptr null, ptr @_ZTIN6google8protobuf27FieldOptions_EditionDefaultE, ptr @_ZN6google8protobuf27FieldOptions_EditionDefaultD1Ev, ptr @_ZN6google8protobuf27FieldOptions_EditionDefaultD0Ev, ptr @_ZNK6google8protobuf27FieldOptions_EditionDefault3NewEPNS0_5ArenaE, ptr @_ZN6google8protobuf27FieldOptions_EditionDefault5ClearEv, ptr @_ZNK6google8protobuf27FieldOptions_EditionDefault13IsInitializedEv, ptr @_ZN6google8protobuf7Message21CheckTypeAndMergeFromERKNS0_11MessageLiteE, ptr @_ZNK6google8protobuf27FieldOptions_EditionDefault12ByteSizeLongEv, ptr @_ZN6google8protobuf27FieldOptions_EditionDefault14_InternalParseEPKcPNS0_8internal12ParseContextE, ptr @_ZNK6google8protobuf27FieldOptions_EditionDefault12GetClassDataEv, ptr @_ZNK6google8protobuf27FieldOptions_EditionDefault18_InternalSerializeEPhPNS0_2io19EpsCopyOutputStreamE, ptr @_ZNK6google8protobuf27FieldOptions_EditionDefault11GetMetadataEv] }, align 8
@_ZN6google8protobuf46_FieldOptions_EditionDefault_default_instance_E = global { { { ptr, %"class.google::protobuf::internal::InternalMetadata", { { %"class.google::protobuf::internal::HasBits", %"class.google::protobuf::internal::CachedSize", %"struct.google::protobuf::internal::ArenaStringPtr", i32 } } } } } { { { ptr, %"class.google::protobuf::internal::InternalMetadata", { { %"class.google::protobuf::internal::HasBits", %"class.google::protobuf::internal::CachedSize", %"struct.google::protobuf::internal::ArenaStringPtr", i32 } } } } { { ptr, %"class.google::protobuf::internal::InternalMetadata", { { %"class.google::protobuf::internal::HasBits", %"class.google::protobuf::internal::CachedSize", %"struct.google::protobuf::internal::ArenaStringPtr", i32 } } } { ptr getelementptr inbounds ({ [13 x ptr] }, ptr @_ZTVN6google8protobuf27FieldOptions_EditionDefaultE, i32 0, inrange i32 0, i32 2), %"class.google::protobuf::internal::InternalMetadata" zeroinitializer, { { %"class.google::protobuf::internal::HasBits", %"class.google::protobuf::internal::CachedSize", %"struct.google::protobuf::internal::ArenaStringPtr", i32 } } { { %"class.google::protobuf::internal::HasBits", %"class.google::protobuf::internal::CachedSize", %"struct.google::protobuf::internal::ArenaStringPtr", i32 } { %"class.google::protobuf::internal::HasBits" zeroinitializer, %"class.google::protobuf::internal::CachedSize" zeroinitializer, %"struct.google::protobuf::internal::ArenaStringPtr" { %"class.google::protobuf::internal::TaggedStringPtr" { ptr @_ZN6google8protobuf8internal26fixed_address_empty_stringB5cxx11E } }, i32 0 } } } } }, align 8
@_ZTVN6google8protobuf10FeatureSetE = unnamed_addr constant { [13 x ptr] } { [13 x ptr] [ptr null, ptr @_ZTIN6google8protobuf10FeatureSetE, ptr @_ZN6google8protobuf10FeatureSetD1Ev, ptr @_ZN6google8protobuf10FeatureSetD0Ev, ptr @_ZNK6google8protobuf10FeatureSet3NewEPNS0_5ArenaE, ptr @_ZN6google8protobuf10FeatureSet5ClearEv, ptr @_ZNK6google8protobuf10FeatureSet13IsInitializedEv, ptr @_ZN6google8protobuf7Message21CheckTypeAndMergeFromERKNS0_11MessageLiteE, ptr @_ZNK6google8protobuf10FeatureSet12ByteSizeLongEv, ptr @_ZN6google8protobuf10FeatureSet14_InternalParseEPKcPNS0_8internal12ParseContextE, ptr @_ZNK6google8protobuf10FeatureSet12GetClassDataEv, ptr @_ZNK6google8protobuf10FeatureSet18_InternalSerializeEPhPNS0_2io19EpsCopyOutputStreamE, ptr @_ZNK6google8protobuf10FeatureSet11GetMetadataEv] }, align 8
@_ZN6google8protobuf29_FeatureSet_default_instance_E = global { { { ptr, %"class.google::protobuf::internal::InternalMetadata", %union.anon.7 } } } { { { ptr, %"class.google::protobuf::internal::InternalMetadata", %union.anon.7 } } { { ptr, %"class.google::protobuf::internal::InternalMetadata", %union.anon.7 } { ptr getelementptr inbounds ({ [13 x ptr] }, ptr @_ZTVN6google8protobuf10FeatureSetE, i32 0, inrange i32 0, i32 2), %"class.google::protobuf::internal::InternalMetadata" zeroinitializer, %union.anon.7 zeroinitializer } } }, align 8
@_ZTVN6google8protobuf33ExtensionRangeOptions_DeclarationE = unnamed_addr constant { [13 x ptr] } { [13 x ptr] [ptr null, ptr @_ZTIN6google8protobuf33ExtensionRangeOptions_DeclarationE, ptr @_ZN6google8protobuf33ExtensionRangeOptions_DeclarationD1Ev, ptr @_ZN6google8protobuf33ExtensionRangeOptions_DeclarationD0Ev, ptr @_ZNK6google8protobuf33ExtensionRangeOptions_Declaration3NewEPNS0_5ArenaE, ptr @_ZN6google8protobuf33ExtensionRangeOptions_Declaration5ClearEv, ptr @_ZNK6google8protobuf33ExtensionRangeOptions_Declaration13IsInitializedEv, ptr @_ZN6google8protobuf7Message21CheckTypeAndMergeFromERKNS0_11MessageLiteE, ptr @_ZNK6google8protobuf33ExtensionRangeOptions_Declaration12ByteSizeLongEv, ptr @_ZN6google8protobuf33ExtensionRangeOptions_Declaration14_InternalParseEPKcPNS0_8internal12ParseContextE, ptr @_ZNK6google8protobuf33ExtensionRangeOptions_Declaration12GetClassDataEv, ptr @_ZNK6google8protobuf33ExtensionRangeOptions_Declaration18_InternalSerializeEPhPNS0_2io19EpsCopyOutputStreamE, ptr @_ZNK6google8protobuf33ExtensionRangeOptions_Declaration11GetMetadataEv] }, align 8
@_ZN6google8protobuf52_ExtensionRangeOptions_Declaration_default_instance_E = global { { { ptr, %"class.google::protobuf::internal::InternalMetadata", { { %"class.google::protobuf::internal::HasBits", %"class.google::protobuf::internal::CachedSize", %"struct.google::protobuf::internal::ArenaStringPtr", %"struct.google::protobuf::internal::ArenaStringPtr", i32, i8, i8 } } } } } { { { ptr, %"class.google::protobuf::internal::InternalMetadata", { { %"class.google::protobuf::internal::HasBits", %"class.google::protobuf::internal::CachedSize", %"struct.google::protobuf::internal::ArenaStringPtr", %"struct.google::protobuf::internal::ArenaStringPtr", i32, i8, i8 } } } } { { ptr, %"class.google::protobuf::internal::InternalMetadata", { { %"class.google::protobuf::internal::HasBits", %"class.google::protobuf::internal::CachedSize", %"struct.google::protobuf::internal::ArenaStringPtr", %"struct.google::protobuf::internal::ArenaStringPtr", i32, i8, i8 } } } { ptr getelementptr inbounds ({ [13 x ptr] }, ptr @_ZTVN6google8protobuf33ExtensionRangeOptions_DeclarationE, i32 0, inrange i32 0, i32 2), %"class.google::protobuf::internal::InternalMetadata" zeroinitializer, { { %"class.google::protobuf::internal::HasBits", %"class.google::protobuf::internal::CachedSize", %"struct.google::protobuf::internal::ArenaStringPtr", %"struct.google::protobuf::internal::ArenaStringPtr", i32, i8, i8 } } { { %"class.google::protobuf::internal::HasBits", %"class.google::protobuf::internal::CachedSize", %"struct.google::protobuf::internal::ArenaStringPtr", %"struct.google::protobuf::internal::ArenaStringPtr", i32, i8, i8 } { %"class.google::protobuf::internal::HasBits" zeroinitializer, %"class.google::protobuf::internal::CachedSize" zeroinitializer, %"struct.google::protobuf::internal::ArenaStringPtr" { %"class.google::protobuf::internal::TaggedStringPtr" { ptr @_ZN6google8protobuf8internal26fixed_address_empty_stringB5cxx11E } }, %"struct.google::protobuf::internal::ArenaStringPtr" { %"class.google::protobuf::internal::TaggedStringPtr" { ptr @_ZN6google8protobuf8internal26fixed_address_empty_stringB5cxx11E } }, i32 0, i8 0, i8 0 } } } } }, align 8
@_ZTVN6google8protobuf37EnumDescriptorProto_EnumReservedRangeE = unnamed_addr constant { [13 x ptr] } { [13 x ptr] [ptr null, ptr @_ZTIN6google8protobuf37EnumDescriptorProto_EnumReservedRangeE, ptr @_ZN6google8protobuf37EnumDescriptorProto_EnumReservedRangeD1Ev, ptr @_ZN6google8protobuf37EnumDescriptorProto_EnumReservedRangeD0Ev, ptr @_ZNK6google8protobuf37EnumDescriptorProto_EnumReservedRange3NewEPNS0_5ArenaE, ptr @_ZN6google8protobuf37EnumDescriptorProto_EnumReservedRange5ClearEv, ptr @_ZNK6google8protobuf37EnumDescriptorProto_EnumReservedRange13IsInitializedEv, ptr @_ZN6google8protobuf7Message21CheckTypeAndMergeFromERKNS0_11MessageLiteE, ptr @_ZNK6google8protobuf37EnumDescriptorProto_EnumReservedRange12ByteSizeLongEv, ptr @_ZN6google8protobuf37EnumDescriptorProto_EnumReservedRange14_InternalParseEPKcPNS0_8internal12ParseContextE, ptr @_ZNK6google8protobuf37EnumDescriptorProto_EnumReservedRange12GetClassDataEv, ptr @_ZNK6google8protobuf37EnumDescriptorProto_EnumReservedRange18_InternalSerializeEPhPNS0_2io19EpsCopyOutputStreamE, ptr @_ZNK6google8protobuf37EnumDescriptorProto_EnumReservedRange11GetMetadataEv] }, align 8
@_ZN6google8protobuf56_EnumDescriptorProto_EnumReservedRange_default_instance_E = global { { { ptr, %"class.google::protobuf::internal::InternalMetadata", %union.anon.11 } } } { { { ptr, %"class.google::protobuf::internal::InternalMetadata", %union.anon.11 } } { { ptr, %"class.google::protobuf::internal::InternalMetadata", %union.anon.11 } { ptr getelementptr inbounds ({ [13 x ptr] }, ptr @_ZTVN6google8protobuf37EnumDescriptorProto_EnumReservedRangeE, i32 0, inrange i32 0, i32 2), %"class.google::protobuf::internal::InternalMetadata" zeroinitializer, %union.anon.11 zeroinitializer } } }, align 8
@_ZTVN6google8protobuf29DescriptorProto_ReservedRangeE = unnamed_addr constant { [13 x ptr] } { [13 x ptr] [ptr null, ptr @_ZTIN6google8protobuf29DescriptorProto_ReservedRangeE, ptr @_ZN6google8protobuf29DescriptorProto_ReservedRangeD1Ev, ptr @_ZN6google8protobuf29DescriptorProto_ReservedRangeD0Ev, ptr @_ZNK6google8protobuf29DescriptorProto_ReservedRange3NewEPNS0_5ArenaE, ptr @_ZN6google8protobuf29DescriptorProto_ReservedRange5ClearEv, ptr @_ZNK6google8protobuf29DescriptorProto_ReservedRange13IsInitializedEv, ptr @_ZN6google8protobuf7Message21CheckTypeAndMergeFromERKNS0_11MessageLiteE, ptr @_ZNK6google8protobuf29DescriptorProto_ReservedRange12ByteSizeLongEv, ptr @_ZN6google8protobuf29DescriptorProto_ReservedRange14_InternalParseEPKcPNS0_8internal12ParseContextE, ptr @_ZNK6google8protobuf29DescriptorProto_ReservedRange12GetClassDataEv, ptr @_ZNK6google8protobuf29DescriptorProto_ReservedRange18_InternalSerializeEPhPNS0_2io19EpsCopyOutputStreamE, ptr @_ZNK6google8protobuf29DescriptorProto_ReservedRange11GetMetadataEv] }, align 8
@_ZN6google8protobuf48_DescriptorProto_ReservedRange_default_instance_E = global { { { ptr, %"class.google::protobuf::internal::InternalMetadata", %union.anon.13 } } } { { { ptr, %"class.google::protobuf::internal::InternalMetadata", %union.anon.13 } } { { ptr, %"class.google::protobuf::internal::InternalMetadata", %union.anon.13 } { ptr getelementptr inbounds ({ [13 x ptr] }, ptr @_ZTVN6google8protobuf29DescriptorProto_ReservedRangeE, i32 0, inrange i32 0, i32 2), %"class.google::protobuf::internal::InternalMetadata" zeroinitializer, %union.anon.13 zeroinitializer } } }, align 8
@_ZTVN6google8protobuf19UninterpretedOptionE = unnamed_addr constant { [13 x ptr] } { [13 x ptr] [ptr null, ptr @_ZTIN6google8protobuf19UninterpretedOptionE, ptr @_ZN6google8protobuf19UninterpretedOptionD1Ev, ptr @_ZN6google8protobuf19UninterpretedOptionD0Ev, ptr @_ZNK6google8protobuf19UninterpretedOption3NewEPNS0_5ArenaE, ptr @_ZN6google8protobuf19UninterpretedOption5ClearEv, ptr @_ZNK6google8protobuf19UninterpretedOption13IsInitializedEv, ptr @_ZN6google8protobuf7Message21CheckTypeAndMergeFromERKNS0_11MessageLiteE, ptr @_ZNK6google8protobuf19UninterpretedOption12ByteSizeLongEv, ptr @_ZN6google8protobuf19UninterpretedOption14_InternalParseEPKcPNS0_8internal12ParseContextE, ptr @_ZNK6google8protobuf19UninterpretedOption12GetClassDataEv, ptr @_ZNK6google8protobuf19UninterpretedOption18_InternalSerializeEPhPNS0_2io19EpsCopyOutputStreamE, ptr @_ZNK6google8protobuf19UninterpretedOption11GetMetadataEv] }, align 8
@_ZN6google8protobuf38_UninterpretedOption_default_instance_E = global { { { ptr, %"class.google::protobuf::internal::InternalMetadata", { { %"class.google::protobuf::internal::HasBits", %"class.google::protobuf::internal::CachedSize", { ptr, i32, i32, ptr }, %"struct.google::protobuf::internal::ArenaStringPtr", %"struct.google::protobuf::internal::ArenaStringPtr", %"struct.google::protobuf::internal::ArenaStringPtr", i64, i64, double } } } } } { { { ptr, %"class.google::protobuf::internal::InternalMetadata", { { %"class.google::protobuf::internal::HasBits", %"class.google::protobuf::internal::CachedSize", { ptr, i32, i32, ptr }, %"struct.google::protobuf::internal::ArenaStringPtr", %"struct.google::protobuf::internal::ArenaStringPtr", %"struct.google::protobuf::internal::ArenaStringPtr", i64, i64, double } } } } { { ptr, %"class.google::protobuf::internal::InternalMetadata", { { %"class.google::protobuf::internal::HasBits", %"class.google::protobuf::internal::CachedSize", { ptr, i32, i32, ptr }, %"struct.google::protobuf::internal::ArenaStringPtr", %"struct.google::protobuf::internal::ArenaStringPtr", %"struct.google::protobuf::internal::ArenaStringPtr", i64, i64, double } } } { ptr getelementptr inbounds ({ [13 x ptr] }, ptr @_ZTVN6google8protobuf19UninterpretedOptionE, i32 0, inrange i32 0, i32 2), %"class.google::protobuf::internal::InternalMetadata" zeroinitializer, { { %"class.google::protobuf::internal::HasBits", %"class.google::protobuf::internal::CachedSize", { ptr, i32, i32, ptr }, %"struct.google::protobuf::internal::ArenaStringPtr", %"struct.google::protobuf::internal::ArenaStringPtr", %"struct.google::protobuf::internal::ArenaStringPtr", i64, i64, double } } { { %"class.google::protobuf::internal::HasBits", %"class.google::protobuf::internal::CachedSize", { ptr, i32, i32, ptr }, %"struct.google::protobuf::internal::ArenaStringPtr", %"struct.google::protobuf::internal::ArenaStringPtr", %"struct.google::protobuf::internal::ArenaStringPtr", i64, i64, double } { %"class.google::protobuf::internal::HasBits" zeroinitializer, %"class.google::protobuf::internal::CachedSize" zeroinitializer, { ptr, i32, i32, ptr } zeroinitializer, %"struct.google::protobuf::internal::ArenaStringPtr" { %"class.google::protobuf::internal::TaggedStringPtr" { ptr @_ZN6google8protobuf8internal26fixed_address_empty_stringB5cxx11E } }, %"struct.google::protobuf::internal::ArenaStringPtr" { %"class.google::protobuf::internal::TaggedStringPtr" { ptr @_ZN6google8protobuf8internal26fixed_address_empty_stringB5cxx11E } }, %"struct.google::protobuf::internal::ArenaStringPtr" { %"class.google::protobuf::internal::TaggedStringPtr" { ptr @_ZN6google8protobuf8internal26fixed_address_empty_stringB5cxx11E } }, i64 0, i64 0, double 0.000000e+00 } } } } }, align 8
@_ZTVN6google8protobuf14SourceCodeInfoE = unnamed_addr constant { [13 x ptr] } { [13 x ptr] [ptr null, ptr @_ZTIN6google8protobuf14SourceCodeInfoE, ptr @_ZN6google8protobuf14SourceCodeInfoD1Ev, ptr @_ZN6google8protobuf14SourceCodeInfoD0Ev, ptr @_ZNK6google8protobuf14SourceCodeInfo3NewEPNS0_5ArenaE, ptr @_ZN6google8protobuf14SourceCodeInfo5ClearEv, ptr @_ZNK6google8protobuf14SourceCodeInfo13IsInitializedEv, ptr @_ZN6google8protobuf7Message21CheckTypeAndMergeFromERKNS0_11MessageLiteE, ptr @_ZNK6google8protobuf14SourceCodeInfo12ByteSizeLongEv, ptr @_ZN6google8protobuf14SourceCodeInfo14_InternalParseEPKcPNS0_8internal12ParseContextE, ptr @_ZNK6google8protobuf14SourceCodeInfo12GetClassDataEv, ptr @_ZNK6google8protobuf14SourceCodeInfo18_InternalSerializeEPhPNS0_2io19EpsCopyOutputStreamE, ptr @_ZNK6google8protobuf14SourceCodeInfo11GetMetadataEv] }, align 8
@_ZN6google8protobuf33_SourceCodeInfo_default_instance_E = global { { { ptr, %"class.google::protobuf::internal::InternalMetadata", { { { ptr, i32, i32, ptr }, %"class.google::protobuf::internal::CachedSize" } } } } } { { { ptr, %"class.google::protobuf::internal::InternalMetadata", { { { ptr, i32, i32, ptr }, %"class.google::protobuf::internal::CachedSize" } } } } { { ptr, %"class.google::protobuf::internal::InternalMetadata", { { { ptr, i32, i32, ptr }, %"class.google::protobuf::internal::CachedSize" } } } { ptr getelementptr inbounds ({ [13 x ptr] }, ptr @_ZTVN6google8protobuf14SourceCodeInfoE, i32 0, inrange i32 0, i32 2), %"class.google::protobuf::internal::InternalMetadata" zeroinitializer, { { { ptr, i32, i32, ptr }, %"class.google::protobuf::internal::CachedSize" } } zeroinitializer } } }, align 8
@_ZTVN6google8protobuf17GeneratedCodeInfoE = unnamed_addr constant { [13 x ptr] } { [13 x ptr] [ptr null, ptr @_ZTIN6google8protobuf17GeneratedCodeInfoE, ptr @_ZN6google8protobuf17GeneratedCodeInfoD1Ev, ptr @_ZN6google8protobuf17GeneratedCodeInfoD0Ev, ptr @_ZNK6google8protobuf17GeneratedCodeInfo3NewEPNS0_5ArenaE, ptr @_ZN6google8protobuf17GeneratedCodeInfo5ClearEv, ptr @_ZNK6google8protobuf17GeneratedCodeInfo13IsInitializedEv, ptr @_ZN6google8protobuf7Message21CheckTypeAndMergeFromERKNS0_11MessageLiteE, ptr @_ZNK6google8protobuf17GeneratedCodeInfo12ByteSizeLongEv, ptr @_ZN6google8protobuf17GeneratedCodeInfo14_InternalParseEPKcPNS0_8internal12ParseContextE, ptr @_ZNK6google8protobuf17GeneratedCodeInfo12GetClassDataEv, ptr @_ZNK6google8protobuf17GeneratedCodeInfo18_InternalSerializeEPhPNS0_2io19EpsCopyOutputStreamE, ptr @_ZNK6google8protobuf17GeneratedCodeInfo11GetMetadataEv] }, align 8
@_ZN6google8protobuf36_GeneratedCodeInfo_default_instance_E = global { { { ptr, %"class.google::protobuf::internal::InternalMetadata", { { { ptr, i32, i32, ptr }, %"class.google::protobuf::internal::CachedSize" } } } } } { { { ptr, %"class.google::protobuf::internal::InternalMetadata", { { { ptr, i32, i32, ptr }, %"class.google::protobuf::internal::CachedSize" } } } } { { ptr, %"class.google::protobuf::internal::InternalMetadata", { { { ptr, i32, i32, ptr }, %"class.google::protobuf::internal::CachedSize" } } } { ptr getelementptr inbounds ({ [13 x ptr] }, ptr @_ZTVN6google8protobuf17GeneratedCodeInfoE, i32 0, inrange i32 0, i32 2), %"class.google::protobuf::internal::InternalMetadata" zeroinitializer, { { { ptr, i32, i32, ptr }, %"class.google::protobuf::internal::CachedSize" } } zeroinitializer } } }, align 8
@_ZTVN6google8protobuf43FeatureSetDefaults_FeatureSetEditionDefaultE = unnamed_addr constant { [13 x ptr] } { [13 x ptr] [ptr null, ptr @_ZTIN6google8protobuf43FeatureSetDefaults_FeatureSetEditionDefaultE, ptr @_ZN6google8protobuf43FeatureSetDefaults_FeatureSetEditionDefaultD1Ev, ptr @_ZN6google8protobuf43FeatureSetDefaults_FeatureSetEditionDefaultD0Ev, ptr @_ZNK6google8protobuf43FeatureSetDefaults_FeatureSetEditionDefault3NewEPNS0_5ArenaE, ptr @_ZN6google8protobuf43FeatureSetDefaults_FeatureSetEditionDefault5ClearEv, ptr @_ZNK6google8protobuf43FeatureSetDefaults_FeatureSetEditionDefault13IsInitializedEv, ptr @_ZN6google8protobuf7Message21CheckTypeAndMergeFromERKNS0_11MessageLiteE, ptr @_ZNK6google8protobuf43FeatureSetDefaults_FeatureSetEditionDefault12ByteSizeLongEv, ptr @_ZN6google8protobuf43FeatureSetDefaults_FeatureSetEditionDefault14_InternalParseEPKcPNS0_8internal12ParseContextE, ptr @_ZNK6google8protobuf43FeatureSetDefaults_FeatureSetEditionDefault12GetClassDataEv, ptr @_ZNK6google8protobuf43FeatureSetDefaults_FeatureSetEditionDefault18_InternalSerializeEPhPNS0_2io19EpsCopyOutputStreamE, ptr @_ZNK6google8protobuf43FeatureSetDefaults_FeatureSetEditionDefault11GetMetadataEv] }, align 8
@_ZN6google8protobuf62_FeatureSetDefaults_FeatureSetEditionDefault_default_instance_E = global { { { ptr, %"class.google::protobuf::internal::InternalMetadata", { { %"class.google::protobuf::internal::HasBits", %"class.google::protobuf::internal::CachedSize", ptr, i32 } } } } } { { { ptr, %"class.google::protobuf::internal::InternalMetadata", { { %"class.google::protobuf::internal::HasBits", %"class.google::protobuf::internal::CachedSize", ptr, i32 } } } } { { ptr, %"class.google::protobuf::internal::InternalMetadata", { { %"class.google::protobuf::internal::HasBits", %"class.google::protobuf::internal::CachedSize", ptr, i32 } } } { ptr getelementptr inbounds ({ [13 x ptr] }, ptr @_ZTVN6google8protobuf43FeatureSetDefaults_FeatureSetEditionDefaultE, i32 0, inrange i32 0, i32 2), %"class.google::protobuf::internal::InternalMetadata" zeroinitializer, { { %"class.google::protobuf::internal::HasBits", %"class.google::protobuf::internal::CachedSize", ptr, i32 } } zeroinitializer } } }, align 8
@_ZTVN6google8protobuf14ServiceOptionsE = unnamed_addr constant { [13 x ptr] } { [13 x ptr] [ptr null, ptr @_ZTIN6google8protobuf14ServiceOptionsE, ptr @_ZN6google8protobuf14ServiceOptionsD1Ev, ptr @_ZN6google8protobuf14ServiceOptionsD0Ev, ptr @_ZNK6google8protobuf14ServiceOptions3NewEPNS0_5ArenaE, ptr @_ZN6google8protobuf14ServiceOptions5ClearEv, ptr @_ZNK6google8protobuf14ServiceOptions13IsInitializedEv, ptr @_ZN6google8protobuf7Message21CheckTypeAndMergeFromERKNS0_11MessageLiteE, ptr @_ZNK6google8protobuf14ServiceOptions12ByteSizeLongEv, ptr @_ZN6google8protobuf14ServiceOptions14_InternalParseEPKcPNS0_8internal12ParseContextE, ptr @_ZNK6google8protobuf14ServiceOptions12GetClassDataEv, ptr @_ZNK6google8protobuf14ServiceOptions18_InternalSerializeEPhPNS0_2io19EpsCopyOutputStreamE, ptr @_ZNK6google8protobuf14ServiceOptions11GetMetadataEv] }, align 8
@_ZN6google8protobuf33_ServiceOptions_default_instance_E = global { { { ptr, %"class.google::protobuf::internal::InternalMetadata", { { %"class.google::protobuf::internal::ExtensionSet", %"class.google::protobuf::internal::HasBits", %"class.google::protobuf::internal::CachedSize", { ptr, i32, i32, ptr }, ptr, i8 } } } } } { { { ptr, %"class.google::protobuf::internal::InternalMetadata", { { %"class.google::protobuf::internal::ExtensionSet", %"class.google::protobuf::internal::HasBits", %"class.google::protobuf::internal::CachedSize", { ptr, i32, i32, ptr }, ptr, i8 } } } } { { ptr, %"class.google::protobuf::internal::InternalMetadata", { { %"class.google::protobuf::internal::ExtensionSet", %"class.google::protobuf::internal::HasBits", %"class.google::protobuf::internal::CachedSize", { ptr, i32, i32, ptr }, ptr, i8 } } } { ptr getelementptr inbounds ({ [13 x ptr] }, ptr @_ZTVN6google8protobuf14ServiceOptionsE, i32 0, inrange i32 0, i32 2), %"class.google::protobuf::internal::InternalMetadata" zeroinitializer, { { %"class.google::protobuf::internal::ExtensionSet", %"class.google::protobuf::internal::HasBits", %"class.google::protobuf::internal::CachedSize", { ptr, i32, i32, ptr }, ptr, i8 } } zeroinitializer } } }, align 8
@_ZTVN6google8protobuf12OneofOptionsE = unnamed_addr constant { [13 x ptr] } { [13 x ptr] [ptr null, ptr @_ZTIN6google8protobuf12OneofOptionsE, ptr @_ZN6google8protobuf12OneofOptionsD1Ev, ptr @_ZN6google8protobuf12OneofOptionsD0Ev, ptr @_ZNK6google8protobuf12OneofOptions3NewEPNS0_5ArenaE, ptr @_ZN6google8protobuf12OneofOptions5ClearEv, ptr @_ZNK6google8protobuf12OneofOptions13IsInitializedEv, ptr @_ZN6google8protobuf7Message21CheckTypeAndMergeFromERKNS0_11MessageLiteE, ptr @_ZNK6google8protobuf12OneofOptions12ByteSizeLongEv, ptr @_ZN6google8protobuf12OneofOptions14_InternalParseEPKcPNS0_8internal12ParseContextE, ptr @_ZNK6google8protobuf12OneofOptions12GetClassDataEv, ptr @_ZNK6google8protobuf12OneofOptions18_InternalSerializeEPhPNS0_2io19EpsCopyOutputStreamE, ptr @_ZNK6google8protobuf12OneofOptions11GetMetadataEv] }, align 8
@_ZN6google8protobuf31_OneofOptions_default_instance_E = global { { { ptr, %"class.google::protobuf::internal::InternalMetadata", { { %"class.google::protobuf::internal::ExtensionSet", %"class.google::protobuf::internal::HasBits", %"class.google::protobuf::internal::CachedSize", { ptr, i32, i32, ptr }, ptr } } } } } { { { ptr, %"class.google::protobuf::internal::InternalMetadata", { { %"class.google::protobuf::internal::ExtensionSet", %"class.google::protobuf::internal::HasBits", %"class.google::protobuf::internal::CachedSize", { ptr, i32, i32, ptr }, ptr } } } } { { ptr, %"class.google::protobuf::internal::InternalMetadata", { { %"class.google::protobuf::internal::ExtensionSet", %"class.google::protobuf::internal::HasBits", %"class.google::protobuf::internal::CachedSize", { ptr, i32, i32, ptr }, ptr } } } { ptr getelementptr inbounds ({ [13 x ptr] }, ptr @_ZTVN6google8protobuf12OneofOptionsE, i32 0, inrange i32 0, i32 2), %"class.google::protobuf::internal::InternalMetadata" zeroinitializer, { { %"class.google::protobuf::internal::ExtensionSet", %"class.google::protobuf::internal::HasBits", %"class.google::protobuf::internal::CachedSize", { ptr, i32, i32, ptr }, ptr } } zeroinitializer } } }, align 8
@_ZTVN6google8protobuf13MethodOptionsE = unnamed_addr constant { [13 x ptr] } { [13 x ptr] [ptr null, ptr @_ZTIN6google8protobuf13MethodOptionsE, ptr @_ZN6google8protobuf13MethodOptionsD1Ev, ptr @_ZN6google8protobuf13MethodOptionsD0Ev, ptr @_ZNK6google8protobuf13MethodOptions3NewEPNS0_5ArenaE, ptr @_ZN6google8protobuf13MethodOptions5ClearEv, ptr @_ZNK6google8protobuf13MethodOptions13IsInitializedEv, ptr @_ZN6google8protobuf7Message21CheckTypeAndMergeFromERKNS0_11MessageLiteE, ptr @_ZNK6google8protobuf13MethodOptions12ByteSizeLongEv, ptr @_ZN6google8protobuf13MethodOptions14_InternalParseEPKcPNS0_8internal12ParseContextE, ptr @_ZNK6google8protobuf13MethodOptions12GetClassDataEv, ptr @_ZNK6google8protobuf13MethodOptions18_InternalSerializeEPhPNS0_2io19EpsCopyOutputStreamE, ptr @_ZNK6google8protobuf13MethodOptions11GetMetadataEv] }, align 8
@_ZN6google8protobuf32_MethodOptions_default_instance_E = global { { { ptr, %"class.google::protobuf::internal::InternalMetadata", { { %"class.google::protobuf::internal::ExtensionSet", %"class.google::protobuf::internal::HasBits", %"class.google::protobuf::internal::CachedSize", { ptr, i32, i32, ptr }, ptr, i8, i32 } } } } } { { { ptr, %"class.google::protobuf::internal::InternalMetadata", { { %"class.google::protobuf::internal::ExtensionSet", %"class.google::protobuf::internal::HasBits", %"class.google::protobuf::internal::CachedSize", { ptr, i32, i32, ptr }, ptr, i8, i32 } } } } { { ptr, %"class.google::protobuf::internal::InternalMetadata", { { %"class.google::protobuf::internal::ExtensionSet", %"class.google::protobuf::internal::HasBits", %"class.google::protobuf::internal::CachedSize", { ptr, i32, i32, ptr }, ptr, i8, i32 } } } { ptr getelementptr inbounds ({ [13 x ptr] }, ptr @_ZTVN6google8protobuf13MethodOptionsE, i32 0, inrange i32 0, i32 2), %"class.google::protobuf::internal::InternalMetadata" zeroinitializer, { { %"class.google::protobuf::internal::ExtensionSet", %"class.google::protobuf::internal::HasBits", %"class.google::protobuf::internal::CachedSize", { ptr, i32, i32, ptr }, ptr, i8, i32 } } zeroinitializer } } }, align 8
@_ZTVN6google8protobuf14MessageOptionsE = unnamed_addr constant { [13 x ptr] } { [13 x ptr] [ptr null, ptr @_ZTIN6google8protobuf14MessageOptionsE, ptr @_ZN6google8protobuf14MessageOptionsD1Ev, ptr @_ZN6google8protobuf14MessageOptionsD0Ev, ptr @_ZNK6google8protobuf14MessageOptions3NewEPNS0_5ArenaE, ptr @_ZN6google8protobuf14MessageOptions5ClearEv, ptr @_ZNK6google8protobuf14MessageOptions13IsInitializedEv, ptr @_ZN6google8protobuf7Message21CheckTypeAndMergeFromERKNS0_11MessageLiteE, ptr @_ZNK6google8protobuf14MessageOptions12ByteSizeLongEv, ptr @_ZN6google8protobuf14MessageOptions14_InternalParseEPKcPNS0_8internal12ParseContextE, ptr @_ZNK6google8protobuf14MessageOptions12GetClassDataEv, ptr @_ZNK6google8protobuf14MessageOptions18_InternalSerializeEPhPNS0_2io19EpsCopyOutputStreamE, ptr @_ZNK6google8protobuf14MessageOptions11GetMetadataEv] }, align 8
@_ZN6google8protobuf33_MessageOptions_default_instance_E = global { { { ptr, %"class.google::protobuf::internal::InternalMetadata", { { %"class.google::protobuf::internal::ExtensionSet", %"class.google::protobuf::internal::HasBits", %"class.google::protobuf::internal::CachedSize", { ptr, i32, i32, ptr }, ptr, i8, i8, i8, i8, i8 } } } } } { { { ptr, %"class.google::protobuf::internal::InternalMetadata", { { %"class.google::protobuf::internal::ExtensionSet", %"class.google::protobuf::internal::HasBits", %"class.google::protobuf::internal::CachedSize", { ptr, i32, i32, ptr }, ptr, i8, i8, i8, i8, i8 } } } } { { ptr, %"class.google::protobuf::internal::InternalMetadata", { { %"class.google::protobuf::internal::ExtensionSet", %"class.google::protobuf::internal::HasBits", %"class.google::protobuf::internal::CachedSize", { ptr, i32, i32, ptr }, ptr, i8, i8, i8, i8, i8 } } } { ptr getelementptr inbounds ({ [13 x ptr] }, ptr @_ZTVN6google8protobuf14MessageOptionsE, i32 0, inrange i32 0, i32 2), %"class.google::protobuf::internal::InternalMetadata" zeroinitializer, { { %"class.google::protobuf::internal::ExtensionSet", %"class.google::protobuf::internal::HasBits", %"class.google::protobuf::internal::CachedSize", { ptr, i32, i32, ptr }, ptr, i8, i8, i8, i8, i8 } } zeroinitializer } } }, align 8
@_ZTVN6google8protobuf11FileOptionsE = unnamed_addr constant { [13 x ptr] } { [13 x ptr] [ptr null, ptr @_ZTIN6google8protobuf11FileOptionsE, ptr @_ZN6google8protobuf11FileOptionsD1Ev, ptr @_ZN6google8protobuf11FileOptionsD0Ev, ptr @_ZNK6google8protobuf11FileOptions3NewEPNS0_5ArenaE, ptr @_ZN6google8protobuf11FileOptions5ClearEv, ptr @_ZNK6google8protobuf11FileOptions13IsInitializedEv, ptr @_ZN6google8protobuf7Message21CheckTypeAndMergeFromERKNS0_11MessageLiteE, ptr @_ZNK6google8protobuf11FileOptions12ByteSizeLongEv, ptr @_ZN6google8protobuf11FileOptions14_InternalParseEPKcPNS0_8internal12ParseContextE, ptr @_ZNK6google8protobuf11FileOptions12GetClassDataEv, ptr @_ZNK6google8protobuf11FileOptions18_InternalSerializeEPhPNS0_2io19EpsCopyOutputStreamE, ptr @_ZNK6google8protobuf11FileOptions11GetMetadataEv] }, align 8
@_ZN6google8protobuf30_FileOptions_default_instance_E = global { { { ptr, %"class.google::protobuf::internal::InternalMetadata", { { %"class.google::protobuf::internal::ExtensionSet", %"class.google::protobuf::internal::HasBits", %"class.google::protobuf::internal::CachedSize", { ptr, i32, i32, ptr }, %"struct.google::protobuf::internal::ArenaStringPtr", %"struct.google::protobuf::internal::ArenaStringPtr", %"struct.google::protobuf::internal::ArenaStringPtr", %"struct.google::protobuf::internal::ArenaStringPtr", %"struct.google::protobuf::internal::ArenaStringPtr", %"struct.google::protobuf::internal::ArenaStringPtr", %"struct.google::protobuf::internal::ArenaStringPtr", %"struct.google::protobuf::internal::ArenaStringPtr", %"struct.google::protobuf::internal::ArenaStringPtr", %"struct.google::protobuf::internal::ArenaStringPtr", ptr, i8, i8, i8, i8, i8, i8, i8, i8, i32, i8 } } } } } { { { ptr, %"class.google::protobuf::internal::InternalMetadata", { { %"class.google::protobuf::internal::ExtensionSet", %"class.google::protobuf::internal::HasBits", %"class.google::protobuf::internal::CachedSize", { ptr, i32, i32, ptr }, %"struct.google::protobuf::internal::ArenaStringPtr", %"struct.google::protobuf::internal::ArenaStringPtr", %"struct.google::protobuf::internal::ArenaStringPtr", %"struct.google::protobuf::internal::ArenaStringPtr", %"struct.google::protobuf::internal::ArenaStringPtr", %"struct.google::protobuf::internal::ArenaStringPtr", %"struct.google::protobuf::internal::ArenaStringPtr", %"struct.google::protobuf::internal::ArenaStringPtr", %"struct.google::protobuf::internal::ArenaStringPtr", %"struct.google::protobuf::internal::ArenaStringPtr", ptr, i8, i8, i8, i8, i8, i8, i8, i8, i32, i8 } } } } { { ptr, %"class.google::protobuf::internal::InternalMetadata", { { %"class.google::protobuf::internal::ExtensionSet", %"class.google::protobuf::internal::HasBits", %"class.google::protobuf::internal::CachedSize", { ptr, i32, i32, ptr }, %"struct.google::protobuf::internal::ArenaStringPtr", %"struct.google::protobuf::internal::ArenaStringPtr", %"struct.google::protobuf::internal::ArenaStringPtr", %"struct.google::protobuf::internal::ArenaStringPtr", %"struct.google::protobuf::internal::ArenaStringPtr", %"struct.google::protobuf::internal::ArenaStringPtr", %"struct.google::protobuf::internal::ArenaStringPtr", %"struct.google::protobuf::internal::ArenaStringPtr", %"struct.google::protobuf::internal::ArenaStringPtr", %"struct.google::protobuf::internal::ArenaStringPtr", ptr, i8, i8, i8, i8, i8, i8, i8, i8, i32, i8 } } } { ptr getelementptr inbounds ({ [13 x ptr] }, ptr @_ZTVN6google8protobuf11FileOptionsE, i32 0, inrange i32 0, i32 2), %"class.google::protobuf::internal::InternalMetadata" zeroinitializer, { { %"class.google::protobuf::internal::ExtensionSet", %"class.google::protobuf::internal::HasBits", %"class.google::protobuf::internal::CachedSize", { ptr, i32, i32, ptr }, %"struct.google::protobuf::internal::ArenaStringPtr", %"struct.google::protobuf::internal::ArenaStringPtr", %"struct.google::protobuf::internal::ArenaStringPtr", %"struct.google::protobuf::internal::ArenaStringPtr", %"struct.google::protobuf::internal::ArenaStringPtr", %"struct.google::protobuf::internal::ArenaStringPtr", %"struct.google::protobuf::internal::ArenaStringPtr", %"struct.google::protobuf::internal::ArenaStringPtr", %"struct.google::protobuf::internal::ArenaStringPtr", %"struct.google::protobuf::internal::ArenaStringPtr", ptr, i8, i8, i8, i8, i8, i8, i8, i8, i32, i8 } } { { %"class.google::protobuf::internal::ExtensionSet", %"class.google::protobuf::internal::HasBits", %"class.google::protobuf::internal::CachedSize", { ptr, i32, i32, ptr }, %"struct.google::protobuf::internal::ArenaStringPtr", %"struct.google::protobuf::internal::ArenaStringPtr", %"struct.google::protobuf::internal::ArenaStringPtr", %"struct.google::protobuf::internal::ArenaStringPtr", %"struct.google::protobuf::internal::ArenaStringPtr", %"struct.google::protobuf::internal::ArenaStringPtr", %"struct.google::protobuf::internal::ArenaStringPtr", %"struct.google::protobuf::internal::ArenaStringPtr", %"struct.google::protobuf::internal::ArenaStringPtr", %"struct.google::protobuf::internal::ArenaStringPtr", ptr, i8, i8, i8, i8, i8, i8, i8, i8, i32, i8 } { %"class.google::protobuf::internal::ExtensionSet" zeroinitializer, %"class.google::protobuf::internal::HasBits" zeroinitializer, %"class.google::protobuf::internal::CachedSize" zeroinitializer, { ptr, i32, i32, ptr } zeroinitializer, %"struct.google::protobuf::internal::ArenaStringPtr" { %"class.google::protobuf::internal::TaggedStringPtr" { ptr @_ZN6google8protobuf8internal26fixed_address_empty_stringB5cxx11E } }, %"struct.google::protobuf::internal::ArenaStringPtr" { %"class.google::protobuf::internal::TaggedStringPtr" { ptr @_ZN6google8protobuf8internal26fixed_address_empty_stringB5cxx11E } }, %"struct.google::protobuf::internal::ArenaStringPtr" { %"class.google::protobuf::internal::TaggedStringPtr" { ptr @_ZN6google8protobuf8internal26fixed_address_empty_stringB5cxx11E } }, %"struct.google::protobuf::internal::ArenaStringPtr" { %"class.google::protobuf::internal::TaggedStringPtr" { ptr @_ZN6google8protobuf8internal26fixed_address_empty_stringB5cxx11E } }, %"struct.google::protobuf::internal::ArenaStringPtr" { %"class.google::protobuf::internal::TaggedStringPtr" { ptr @_ZN6google8protobuf8internal26fixed_address_empty_stringB5cxx11E } }, %"struct.google::protobuf::internal::ArenaStringPtr" { %"class.google::protobuf::internal::TaggedStringPtr" { ptr @_ZN6google8protobuf8internal26fixed_address_empty_stringB5cxx11E } }, %"struct.google::protobuf::internal::ArenaStringPtr" { %"class.google::protobuf::internal::TaggedStringPtr" { ptr @_ZN6google8protobuf8internal26fixed_address_empty_stringB5cxx11E } }, %"struct.google::protobuf::internal::ArenaStringPtr" { %"class.google::protobuf::internal::TaggedStringPtr" { ptr @_ZN6google8protobuf8internal26fixed_address_empty_stringB5cxx11E } }, %"struct.google::protobuf::internal::ArenaStringPtr" { %"class.google::protobuf::internal::TaggedStringPtr" { ptr @_ZN6google8protobuf8internal26fixed_address_empty_stringB5cxx11E } }, %"struct.google::protobuf::internal::ArenaStringPtr" { %"class.google::protobuf::internal::TaggedStringPtr" { ptr @_ZN6google8protobuf8internal26fixed_address_empty_stringB5cxx11E } }, ptr null, i8 0, i8 0, i8 0, i8 0, i8 0, i8 0, i8 0, i8 0, i32 1, i8 1 } } } } }, align 8
@_ZTVN6google8protobuf12FieldOptionsE = unnamed_addr constant { [13 x ptr] } { [13 x ptr] [ptr null, ptr @_ZTIN6google8protobuf12FieldOptionsE, ptr @_ZN6google8protobuf12FieldOptionsD1Ev, ptr @_ZN6google8protobuf12FieldOptionsD0Ev, ptr @_ZNK6google8protobuf12FieldOptions3NewEPNS0_5ArenaE, ptr @_ZN6google8protobuf12FieldOptions5ClearEv, ptr @_ZNK6google8protobuf12FieldOptions13IsInitializedEv, ptr @_ZN6google8protobuf7Message21CheckTypeAndMergeFromERKNS0_11MessageLiteE, ptr @_ZNK6google8protobuf12FieldOptions12ByteSizeLongEv, ptr @_ZN6google8protobuf12FieldOptions14_InternalParseEPKcPNS0_8internal12ParseContextE, ptr @_ZNK6google8protobuf12FieldOptions12GetClassDataEv, ptr @_ZNK6google8protobuf12FieldOptions18_InternalSerializeEPhPNS0_2io19EpsCopyOutputStreamE, ptr @_ZNK6google8protobuf12FieldOptions11GetMetadataEv] }, align 8
@_ZN6google8protobuf31_FieldOptions_default_instance_E = global { { { ptr, %"class.google::protobuf::internal::InternalMetadata", { { %"class.google::protobuf::internal::ExtensionSet", %"class.google::protobuf::internal::HasBits", %"class.google::protobuf::internal::CachedSize", %"class.google::protobuf::RepeatedField", { ptr, i32, i32, ptr }, { ptr, i32, i32, ptr }, ptr, i32, i32, i8, i8, i8, i8, i8, i8, i32 } } } } } { { { ptr, %"class.google::protobuf::internal::InternalMetadata", { { %"class.google::protobuf::internal::ExtensionSet", %"class.google::protobuf::internal::HasBits", %"class.google::protobuf::internal::CachedSize", %"class.google::protobuf::RepeatedField", { ptr, i32, i32, ptr }, { ptr, i32, i32, ptr }, ptr, i32, i32, i8, i8, i8, i8, i8, i8, i32 } } } } { { ptr, %"class.google::protobuf::internal::InternalMetadata", { { %"class.google::protobuf::internal::ExtensionSet", %"class.google::protobuf::internal::HasBits", %"class.google::protobuf::internal::CachedSize", %"class.google::protobuf::RepeatedField", { ptr, i32, i32, ptr }, { ptr, i32, i32, ptr }, ptr, i32, i32, i8, i8, i8, i8, i8, i8, i32 } } } { ptr getelementptr inbounds ({ [13 x ptr] }, ptr @_ZTVN6google8protobuf12FieldOptionsE, i32 0, inrange i32 0, i32 2), %"class.google::protobuf::internal::InternalMetadata" zeroinitializer, { { %"class.google::protobuf::internal::ExtensionSet", %"class.google::protobuf::internal::HasBits", %"class.google::protobuf::internal::CachedSize", %"class.google::protobuf::RepeatedField", { ptr, i32, i32, ptr }, { ptr, i32, i32, ptr }, ptr, i32, i32, i8, i8, i8, i8, i8, i8, i32 } } zeroinitializer } } }, align 8
@_ZTVN6google8protobuf18FeatureSetDefaultsE = unnamed_addr constant { [13 x ptr] } { [13 x ptr] [ptr null, ptr @_ZTIN6google8protobuf18FeatureSetDefaultsE, ptr @_ZN6google8protobuf18FeatureSetDefaultsD1Ev, ptr @_ZN6google8protobuf18FeatureSetDefaultsD0Ev, ptr @_ZNK6google8protobuf18FeatureSetDefaults3NewEPNS0_5ArenaE, ptr @_ZN6google8protobuf18FeatureSetDefaults5ClearEv, ptr @_ZNK6google8protobuf18FeatureSetDefaults13IsInitializedEv, ptr @_ZN6google8protobuf7Message21CheckTypeAndMergeFromERKNS0_11MessageLiteE, ptr @_ZNK6google8protobuf18FeatureSetDefaults12ByteSizeLongEv, ptr @_ZN6google8protobuf18FeatureSetDefaults14_InternalParseEPKcPNS0_8internal12ParseContextE, ptr @_ZNK6google8protobuf18FeatureSetDefaults12GetClassDataEv, ptr @_ZNK6google8protobuf18FeatureSetDefaults18_InternalSerializeEPhPNS0_2io19EpsCopyOutputStreamE, ptr @_ZNK6google8protobuf18FeatureSetDefaults11GetMetadataEv] }, align 8
@_ZN6google8protobuf37_FeatureSetDefaults_default_instance_E = global { { { ptr, %"class.google::protobuf::internal::InternalMetadata", { { %"class.google::protobuf::internal::HasBits", %"class.google::protobuf::internal::CachedSize", { ptr, i32, i32, ptr }, i32, i32 } } } } } { { { ptr, %"class.google::protobuf::internal::InternalMetadata", { { %"class.google::protobuf::internal::HasBits", %"class.google::protobuf::internal::CachedSize", { ptr, i32, i32, ptr }, i32, i32 } } } } { { ptr, %"class.google::protobuf::internal::InternalMetadata", { { %"class.google::protobuf::internal::HasBits", %"class.google::protobuf::internal::CachedSize", { ptr, i32, i32, ptr }, i32, i32 } } } { ptr getelementptr inbounds ({ [13 x ptr] }, ptr @_ZTVN6google8protobuf18FeatureSetDefaultsE, i32 0, inrange i32 0, i32 2), %"class.google::protobuf::internal::InternalMetadata" zeroinitializer, { { %"class.google::protobuf::internal::HasBits", %"class.google::protobuf::internal::CachedSize", { ptr, i32, i32, ptr }, i32, i32 } } zeroinitializer } } }, align 8
@_ZTVN6google8protobuf21ExtensionRangeOptionsE = unnamed_addr constant { [13 x ptr] } { [13 x ptr] [ptr null, ptr @_ZTIN6google8protobuf21ExtensionRangeOptionsE, ptr @_ZN6google8protobuf21ExtensionRangeOptionsD1Ev, ptr @_ZN6google8protobuf21ExtensionRangeOptionsD0Ev, ptr @_ZNK6google8protobuf21ExtensionRangeOptions3NewEPNS0_5ArenaE, ptr @_ZN6google8protobuf21ExtensionRangeOptions5ClearEv, ptr @_ZNK6google8protobuf21ExtensionRangeOptions13IsInitializedEv, ptr @_ZN6google8protobuf7Message21CheckTypeAndMergeFromERKNS0_11MessageLiteE, ptr @_ZNK6google8protobuf21ExtensionRangeOptions12ByteSizeLongEv, ptr @_ZN6google8protobuf21ExtensionRangeOptions14_InternalParseEPKcPNS0_8internal12ParseContextE, ptr @_ZNK6google8protobuf21ExtensionRangeOptions12GetClassDataEv, ptr @_ZNK6google8protobuf21ExtensionRangeOptions18_InternalSerializeEPhPNS0_2io19EpsCopyOutputStreamE, ptr @_ZNK6google8protobuf21ExtensionRangeOptions11GetMetadataEv] }, align 8
@_ZN6google8protobuf40_ExtensionRangeOptions_default_instance_E = global { { { ptr, %"class.google::protobuf::internal::InternalMetadata", { { %"class.google::protobuf::internal::ExtensionSet", %"class.google::protobuf::internal::HasBits", %"class.google::protobuf::internal::CachedSize", { ptr, i32, i32, ptr }, { ptr, i32, i32, ptr }, ptr, i32 } } } } } { { { ptr, %"class.google::protobuf::internal::InternalMetadata", { { %"class.google::protobuf::internal::ExtensionSet", %"class.google::protobuf::internal::HasBits", %"class.google::protobuf::internal::CachedSize", { ptr, i32, i32, ptr }, { ptr, i32, i32, ptr }, ptr, i32 } } } } { { ptr, %"class.google::protobuf::internal::InternalMetadata", { { %"class.google::protobuf::internal::ExtensionSet", %"class.google::protobuf::internal::HasBits", %"class.google::protobuf::internal::CachedSize", { ptr, i32, i32, ptr }, { ptr, i32, i32, ptr }, ptr, i32 } } } { ptr getelementptr inbounds ({ [13 x ptr] }, ptr @_ZTVN6google8protobuf21ExtensionRangeOptionsE, i32 0, inrange i32 0, i32 2), %"class.google::protobuf::internal::InternalMetadata" zeroinitializer, { { %"class.google::protobuf::internal::ExtensionSet", %"class.google::protobuf::internal::HasBits", %"class.google::protobuf::internal::CachedSize", { ptr, i32, i32, ptr }, { ptr, i32, i32, ptr }, ptr, i32 } } { { %"class.google::protobuf::internal::ExtensionSet", %"class.google::protobuf::internal::HasBits", %"class.google::protobuf::internal::CachedSize", { ptr, i32, i32, ptr }, { ptr, i32, i32, ptr }, ptr, i32 } { %"class.google::protobuf::internal::ExtensionSet" zeroinitializer, %"class.google::protobuf::internal::HasBits" zeroinitializer, %"class.google::protobuf::internal::CachedSize" zeroinitializer, { ptr, i32, i32, ptr } zeroinitializer, { ptr, i32, i32, ptr } zeroinitializer, ptr null, i32 1 } } } } }, align 8
@_ZTVN6google8protobuf16EnumValueOptionsE = unnamed_addr constant { [13 x ptr] } { [13 x ptr] [ptr null, ptr @_ZTIN6google8protobuf16EnumValueOptionsE, ptr @_ZN6google8protobuf16EnumValueOptionsD1Ev, ptr @_ZN6google8protobuf16EnumValueOptionsD0Ev, ptr @_ZNK6google8protobuf16EnumValueOptions3NewEPNS0_5ArenaE, ptr @_ZN6google8protobuf16EnumValueOptions5ClearEv, ptr @_ZNK6google8protobuf16EnumValueOptions13IsInitializedEv, ptr @_ZN6google8protobuf7Message21CheckTypeAndMergeFromERKNS0_11MessageLiteE, ptr @_ZNK6google8protobuf16EnumValueOptions12ByteSizeLongEv, ptr @_ZN6google8protobuf16EnumValueOptions14_InternalParseEPKcPNS0_8internal12ParseContextE, ptr @_ZNK6google8protobuf16EnumValueOptions12GetClassDataEv, ptr @_ZNK6google8protobuf16EnumValueOptions18_InternalSerializeEPhPNS0_2io19EpsCopyOutputStreamE, ptr @_ZNK6google8protobuf16EnumValueOptions11GetMetadataEv] }, align 8
@_ZN6google8protobuf35_EnumValueOptions_default_instance_E = global { { { ptr, %"class.google::protobuf::internal::InternalMetadata", { { %"class.google::protobuf::internal::ExtensionSet", %"class.google::protobuf::internal::HasBits", %"class.google::protobuf::internal::CachedSize", { ptr, i32, i32, ptr }, ptr, i8, i8 } } } } } { { { ptr, %"class.google::protobuf::internal::InternalMetadata", { { %"class.google::protobuf::internal::ExtensionSet", %"class.google::protobuf::internal::HasBits", %"class.google::protobuf::internal::CachedSize", { ptr, i32, i32, ptr }, ptr, i8, i8 } } } } { { ptr, %"class.google::protobuf::internal::InternalMetadata", { { %"class.google::protobuf::internal::ExtensionSet", %"class.google::protobuf::internal::HasBits", %"class.google::protobuf::internal::CachedSize", { ptr, i32, i32, ptr }, ptr, i8, i8 } } } { ptr getelementptr inbounds ({ [13 x ptr] }, ptr @_ZTVN6google8protobuf16EnumValueOptionsE, i32 0, inrange i32 0, i32 2), %"class.google::protobuf::internal::InternalMetadata" zeroinitializer, { { %"class.google::protobuf::internal::ExtensionSet", %"class.google::protobuf::internal::HasBits", %"class.google::protobuf::internal::CachedSize", { ptr, i32, i32, ptr }, ptr, i8, i8 } } zeroinitializer } } }, align 8
@_ZTVN6google8protobuf11EnumOptionsE = unnamed_addr constant { [13 x ptr] } { [13 x ptr] [ptr null, ptr @_ZTIN6google8protobuf11EnumOptionsE, ptr @_ZN6google8protobuf11EnumOptionsD1Ev, ptr @_ZN6google8protobuf11EnumOptionsD0Ev, ptr @_ZNK6google8protobuf11EnumOptions3NewEPNS0_5ArenaE, ptr @_ZN6google8protobuf11EnumOptions5ClearEv, ptr @_ZNK6google8protobuf11EnumOptions13IsInitializedEv, ptr @_ZN6google8protobuf7Message21CheckTypeAndMergeFromERKNS0_11MessageLiteE, ptr @_ZNK6google8protobuf11EnumOptions12ByteSizeLongEv, ptr @_ZN6google8protobuf11EnumOptions14_InternalParseEPKcPNS0_8internal12ParseContextE, ptr @_ZNK6google8protobuf11EnumOptions12GetClassDataEv, ptr @_ZNK6google8protobuf11EnumOptions18_InternalSerializeEPhPNS0_2io19EpsCopyOutputStreamE, ptr @_ZNK6google8protobuf11EnumOptions11GetMetadataEv] }, align 8
@_ZN6google8protobuf30_EnumOptions_default_instance_E = global { { { ptr, %"class.google::protobuf::internal::InternalMetadata", { { %"class.google::protobuf::internal::ExtensionSet", %"class.google::protobuf::internal::HasBits", %"class.google::protobuf::internal::CachedSize", { ptr, i32, i32, ptr }, ptr, i8, i8, i8 } } } } } { { { ptr, %"class.google::protobuf::internal::InternalMetadata", { { %"class.google::protobuf::internal::ExtensionSet", %"class.google::protobuf::internal::HasBits", %"class.google::protobuf::internal::CachedSize", { ptr, i32, i32, ptr }, ptr, i8, i8, i8 } } } } { { ptr, %"class.google::protobuf::internal::InternalMetadata", { { %"class.google::protobuf::internal::ExtensionSet", %"class.google::protobuf::internal::HasBits", %"class.google::protobuf::internal::CachedSize", { ptr, i32, i32, ptr }, ptr, i8, i8, i8 } } } { ptr getelementptr inbounds ({ [13 x ptr] }, ptr @_ZTVN6google8protobuf11EnumOptionsE, i32 0, inrange i32 0, i32 2), %"class.google::protobuf::internal::InternalMetadata" zeroinitializer, { { %"class.google::protobuf::internal::ExtensionSet", %"class.google::protobuf::internal::HasBits", %"class.google::protobuf::internal::CachedSize", { ptr, i32, i32, ptr }, ptr, i8, i8, i8 } } zeroinitializer } } }, align 8
@_ZTVN6google8protobuf20OneofDescriptorProtoE = unnamed_addr constant { [13 x ptr] } { [13 x ptr] [ptr null, ptr @_ZTIN6google8protobuf20OneofDescriptorProtoE, ptr @_ZN6google8protobuf20OneofDescriptorProtoD1Ev, ptr @_ZN6google8protobuf20OneofDescriptorProtoD0Ev, ptr @_ZNK6google8protobuf20OneofDescriptorProto3NewEPNS0_5ArenaE, ptr @_ZN6google8protobuf20OneofDescriptorProto5ClearEv, ptr @_ZNK6google8protobuf20OneofDescriptorProto13IsInitializedEv, ptr @_ZN6google8protobuf7Message21CheckTypeAndMergeFromERKNS0_11MessageLiteE, ptr @_ZNK6google8protobuf20OneofDescriptorProto12ByteSizeLongEv, ptr @_ZN6google8protobuf20OneofDescriptorProto14_InternalParseEPKcPNS0_8internal12ParseContextE, ptr @_ZNK6google8protobuf20OneofDescriptorProto12GetClassDataEv, ptr @_ZNK6google8protobuf20OneofDescriptorProto18_InternalSerializeEPhPNS0_2io19EpsCopyOutputStreamE, ptr @_ZNK6google8protobuf20OneofDescriptorProto11GetMetadataEv] }, align 8
@_ZN6google8protobuf39_OneofDescriptorProto_default_instance_E = global { { { ptr, %"class.google::protobuf::internal::InternalMetadata", %union.anon.50 } } } { { { ptr, %"class.google::protobuf::internal::InternalMetadata", %union.anon.50 } } { { ptr, %"class.google::protobuf::internal::InternalMetadata", %union.anon.50 } { ptr getelementptr inbounds ({ [13 x ptr] }, ptr @_ZTVN6google8protobuf20OneofDescriptorProtoE, i32 0, inrange i32 0, i32 2), %"class.google::protobuf::internal::InternalMetadata" zeroinitializer, %union.anon.50 { %"struct.google::protobuf::OneofDescriptorProto::Impl_" { %"class.google::protobuf::internal::HasBits" zeroinitializer, %"class.google::protobuf::internal::CachedSize" zeroinitializer, %"struct.google::protobuf::internal::ArenaStringPtr" { %"class.google::protobuf::internal::TaggedStringPtr" { ptr @_ZN6google8protobuf8internal26fixed_address_empty_stringB5cxx11E } }, ptr null } } } } }, align 8
@_ZTVN6google8protobuf21MethodDescriptorProtoE = unnamed_addr constant { [13 x ptr] } { [13 x ptr] [ptr null, ptr @_ZTIN6google8protobuf21MethodDescriptorProtoE, ptr @_ZN6google8protobuf21MethodDescriptorProtoD1Ev, ptr @_ZN6google8protobuf21MethodDescriptorProtoD0Ev, ptr @_ZNK6google8protobuf21MethodDescriptorProto3NewEPNS0_5ArenaE, ptr @_ZN6google8protobuf21MethodDescriptorProto5ClearEv, ptr @_ZNK6google8protobuf21MethodDescriptorProto13IsInitializedEv, ptr @_ZN6google8protobuf7Message21CheckTypeAndMergeFromERKNS0_11MessageLiteE, ptr @_ZNK6google8protobuf21MethodDescriptorProto12ByteSizeLongEv, ptr @_ZN6google8protobuf21MethodDescriptorProto14_InternalParseEPKcPNS0_8internal12ParseContextE, ptr @_ZNK6google8protobuf21MethodDescriptorProto12GetClassDataEv, ptr @_ZNK6google8protobuf21MethodDescriptorProto18_InternalSerializeEPhPNS0_2io19EpsCopyOutputStreamE, ptr @_ZNK6google8protobuf21MethodDescriptorProto11GetMetadataEv] }, align 8
@_ZN6google8protobuf40_MethodDescriptorProto_default_instance_E = global { { { ptr, %"class.google::protobuf::internal::InternalMetadata", { { %"class.google::protobuf::internal::HasBits", %"class.google::protobuf::internal::CachedSize", %"struct.google::protobuf::internal::ArenaStringPtr", %"struct.google::protobuf::internal::ArenaStringPtr", %"struct.google::protobuf::internal::ArenaStringPtr", ptr, i8, i8 } } } } } { { { ptr, %"class.google::protobuf::internal::InternalMetadata", { { %"class.google::protobuf::internal::HasBits", %"class.google::protobuf::internal::CachedSize", %"struct.google::protobuf::internal::ArenaStringPtr", %"struct.google::protobuf::internal::ArenaStringPtr", %"struct.google::protobuf::internal::ArenaStringPtr", ptr, i8, i8 } } } } { { ptr, %"class.google::protobuf::internal::InternalMetadata", { { %"class.google::protobuf::internal::HasBits", %"class.google::protobuf::internal::CachedSize", %"struct.google::protobuf::internal::ArenaStringPtr", %"struct.google::protobuf::internal::ArenaStringPtr", %"struct.google::protobuf::internal::ArenaStringPtr", ptr, i8, i8 } } } { ptr getelementptr inbounds ({ [13 x ptr] }, ptr @_ZTVN6google8protobuf21MethodDescriptorProtoE, i32 0, inrange i32 0, i32 2), %"class.google::protobuf::internal::InternalMetadata" zeroinitializer, { { %"class.google::protobuf::internal::HasBits", %"class.google::protobuf::internal::CachedSize", %"struct.google::protobuf::internal::ArenaStringPtr", %"struct.google::protobuf::internal::ArenaStringPtr", %"struct.google::protobuf::internal::ArenaStringPtr", ptr, i8, i8 } } { { %"class.google::protobuf::internal::HasBits", %"class.google::protobuf::internal::CachedSize", %"struct.google::protobuf::internal::ArenaStringPtr", %"struct.google::protobuf::internal::ArenaStringPtr", %"struct.google::protobuf::internal::ArenaStringPtr", ptr, i8, i8 } { %"class.google::protobuf::internal::HasBits" zeroinitializer, %"class.google::protobuf::internal::CachedSize" zeroinitializer, %"struct.google::protobuf::internal::ArenaStringPtr" { %"class.google::protobuf::internal::TaggedStringPtr" { ptr @_ZN6google8protobuf8internal26fixed_address_empty_stringB5cxx11E } }, %"struct.google::protobuf::internal::ArenaStringPtr" { %"class.google::protobuf::internal::TaggedStringPtr" { ptr @_ZN6google8protobuf8internal26fixed_address_empty_stringB5cxx11E } }, %"struct.google::protobuf::internal::ArenaStringPtr" { %"class.google::protobuf::internal::TaggedStringPtr" { ptr @_ZN6google8protobuf8internal26fixed_address_empty_stringB5cxx11E } }, ptr null, i8 0, i8 0 } } } } }, align 8
@_ZTVN6google8protobuf20FieldDescriptorProtoE = unnamed_addr constant { [13 x ptr] } { [13 x ptr] [ptr null, ptr @_ZTIN6google8protobuf20FieldDescriptorProtoE, ptr @_ZN6google8protobuf20FieldDescriptorProtoD1Ev, ptr @_ZN6google8protobuf20FieldDescriptorProtoD0Ev, ptr @_ZNK6google8protobuf20FieldDescriptorProto3NewEPNS0_5ArenaE, ptr @_ZN6google8protobuf20FieldDescriptorProto5ClearEv, ptr @_ZNK6google8protobuf20FieldDescriptorProto13IsInitializedEv, ptr @_ZN6google8protobuf7Message21CheckTypeAndMergeFromERKNS0_11MessageLiteE, ptr @_ZNK6google8protobuf20FieldDescriptorProto12ByteSizeLongEv, ptr @_ZN6google8protobuf20FieldDescriptorProto14_InternalParseEPKcPNS0_8internal12ParseContextE, ptr @_ZNK6google8protobuf20FieldDescriptorProto12GetClassDataEv, ptr @_ZNK6google8protobuf20FieldDescriptorProto18_InternalSerializeEPhPNS0_2io19EpsCopyOutputStreamE, ptr @_ZNK6google8protobuf20FieldDescriptorProto11GetMetadataEv] }, align 8
@_ZN6google8protobuf39_FieldDescriptorProto_default_instance_E = global { { { ptr, %"class.google::protobuf::internal::InternalMetadata", { { %"class.google::protobuf::internal::HasBits", %"class.google::protobuf::internal::CachedSize", %"struct.google::protobuf::internal::ArenaStringPtr", %"struct.google::protobuf::internal::ArenaStringPtr", %"struct.google::protobuf::internal::ArenaStringPtr", %"struct.google::protobuf::internal::ArenaStringPtr", %"struct.google::protobuf::internal::ArenaStringPtr", ptr, i32, i32, i8, i32, i32 } } } } } { { { ptr, %"class.google::protobuf::internal::InternalMetadata", { { %"class.google::protobuf::internal::HasBits", %"class.google::protobuf::internal::CachedSize", %"struct.google::protobuf::internal::ArenaStringPtr", %"struct.google::protobuf::internal::ArenaStringPtr", %"struct.google::protobuf::internal::ArenaStringPtr", %"struct.google::protobuf::internal::ArenaStringPtr", %"struct.google::protobuf::internal::ArenaStringPtr", ptr, i32, i32, i8, i32, i32 } } } } { { ptr, %"class.google::protobuf::internal::InternalMetadata", { { %"class.google::protobuf::internal::HasBits", %"class.google::protobuf::internal::CachedSize", %"struct.google::protobuf::internal::ArenaStringPtr", %"struct.google::protobuf::internal::ArenaStringPtr", %"struct.google::protobuf::internal::ArenaStringPtr", %"struct.google::protobuf::internal::ArenaStringPtr", %"struct.google::protobuf::internal::ArenaStringPtr", ptr, i32, i32, i8, i32, i32 } } } { ptr getelementptr inbounds ({ [13 x ptr] }, ptr @_ZTVN6google8protobuf20FieldDescriptorProtoE, i32 0, inrange i32 0, i32 2), %"class.google::protobuf::internal::InternalMetadata" zeroinitializer, { { %"class.google::protobuf::internal::HasBits", %"class.google::protobuf::internal::CachedSize", %"struct.google::protobuf::internal::ArenaStringPtr", %"struct.google::protobuf::internal::ArenaStringPtr", %"struct.google::protobuf::internal::ArenaStringPtr", %"struct.google::protobuf::internal::ArenaStringPtr", %"struct.google::protobuf::internal::ArenaStringPtr", ptr, i32, i32, i8, i32, i32 } } { { %"class.google::protobuf::internal::HasBits", %"class.google::protobuf::internal::CachedSize", %"struct.google::protobuf::internal::ArenaStringPtr", %"struct.google::protobuf::internal::ArenaStringPtr", %"struct.google::protobuf::internal::ArenaStringPtr", %"struct.google::protobuf::internal::ArenaStringPtr", %"struct.google::protobuf::internal::ArenaStringPtr", ptr, i32, i32, i8, i32, i32 } { %"class.google::protobuf::internal::HasBits" zeroinitializer, %"class.google::protobuf::internal::CachedSize" zeroinitializer, %"struct.google::protobuf::internal::ArenaStringPtr" { %"class.google::protobuf::internal::TaggedStringPtr" { ptr @_ZN6google8protobuf8internal26fixed_address_empty_stringB5cxx11E } }, %"struct.google::protobuf::internal::ArenaStringPtr" { %"class.google::protobuf::internal::TaggedStringPtr" { ptr @_ZN6google8protobuf8internal26fixed_address_empty_stringB5cxx11E } }, %"struct.google::protobuf::internal::ArenaStringPtr" { %"class.google::protobuf::internal::TaggedStringPtr" { ptr @_ZN6google8protobuf8internal26fixed_address_empty_stringB5cxx11E } }, %"struct.google::protobuf::internal::ArenaStringPtr" { %"class.google::protobuf::internal::TaggedStringPtr" { ptr @_ZN6google8protobuf8internal26fixed_address_empty_stringB5cxx11E } }, %"struct.google::protobuf::internal::ArenaStringPtr" { %"class.google::protobuf::internal::TaggedStringPtr" { ptr @_ZN6google8protobuf8internal26fixed_address_empty_stringB5cxx11E } }, ptr null, i32 0, i32 0, i8 0, i32 1, i32 1 } } } } }, align 8
@_ZTVN6google8protobuf24EnumValueDescriptorProtoE = unnamed_addr constant { [13 x ptr] } { [13 x ptr] [ptr null, ptr @_ZTIN6google8protobuf24EnumValueDescriptorProtoE, ptr @_ZN6google8protobuf24EnumValueDescriptorProtoD1Ev, ptr @_ZN6google8protobuf24EnumValueDescriptorProtoD0Ev, ptr @_ZNK6google8protobuf24EnumValueDescriptorProto3NewEPNS0_5ArenaE, ptr @_ZN6google8protobuf24EnumValueDescriptorProto5ClearEv, ptr @_ZNK6google8protobuf24EnumValueDescriptorProto13IsInitializedEv, ptr @_ZN6google8protobuf7Message21CheckTypeAndMergeFromERKNS0_11MessageLiteE, ptr @_ZNK6google8protobuf24EnumValueDescriptorProto12ByteSizeLongEv, ptr @_ZN6google8protobuf24EnumValueDescriptorProto14_InternalParseEPKcPNS0_8internal12ParseContextE, ptr @_ZNK6google8protobuf24EnumValueDescriptorProto12GetClassDataEv, ptr @_ZNK6google8protobuf24EnumValueDescriptorProto18_InternalSerializeEPhPNS0_2io19EpsCopyOutputStreamE, ptr @_ZNK6google8protobuf24EnumValueDescriptorProto11GetMetadataEv] }, align 8
@_ZN6google8protobuf43_EnumValueDescriptorProto_default_instance_E = global { { { ptr, %"class.google::protobuf::internal::InternalMetadata", { { %"class.google::protobuf::internal::HasBits", %"class.google::protobuf::internal::CachedSize", %"struct.google::protobuf::internal::ArenaStringPtr", ptr, i32 } } } } } { { { ptr, %"class.google::protobuf::internal::InternalMetadata", { { %"class.google::protobuf::internal::HasBits", %"class.google::protobuf::internal::CachedSize", %"struct.google::protobuf::internal::ArenaStringPtr", ptr, i32 } } } } { { ptr, %"class.google::protobuf::internal::InternalMetadata", { { %"class.google::protobuf::internal::HasBits", %"class.google::protobuf::internal::CachedSize", %"struct.google::protobuf::internal::ArenaStringPtr", ptr, i32 } } } { ptr getelementptr inbounds ({ [13 x ptr] }, ptr @_ZTVN6google8protobuf24EnumValueDescriptorProtoE, i32 0, inrange i32 0, i32 2), %"class.google::protobuf::internal::InternalMetadata" zeroinitializer, { { %"class.google::protobuf::internal::HasBits", %"class.google::protobuf::internal::CachedSize", %"struct.google::protobuf::internal::ArenaStringPtr", ptr, i32 } } { { %"class.google::protobuf::internal::HasBits", %"class.google::protobuf::internal::CachedSize", %"struct.google::protobuf::internal::ArenaStringPtr", ptr, i32 } { %"class.google::protobuf::internal::HasBits" zeroinitializer, %"class.google::protobuf::internal::CachedSize" zeroinitializer, %"struct.google::protobuf::internal::ArenaStringPtr" { %"class.google::protobuf::internal::TaggedStringPtr" { ptr @_ZN6google8protobuf8internal26fixed_address_empty_stringB5cxx11E } }, ptr null, i32 0 } } } } }, align 8
@_ZTVN6google8protobuf30DescriptorProto_ExtensionRangeE = unnamed_addr constant { [13 x ptr] } { [13 x ptr] [ptr null, ptr @_ZTIN6google8protobuf30DescriptorProto_ExtensionRangeE, ptr @_ZN6google8protobuf30DescriptorProto_ExtensionRangeD1Ev, ptr @_ZN6google8protobuf30DescriptorProto_ExtensionRangeD0Ev, ptr @_ZNK6google8protobuf30DescriptorProto_ExtensionRange3NewEPNS0_5ArenaE, ptr @_ZN6google8protobuf30DescriptorProto_ExtensionRange5ClearEv, ptr @_ZNK6google8protobuf30DescriptorProto_ExtensionRange13IsInitializedEv, ptr @_ZN6google8protobuf7Message21CheckTypeAndMergeFromERKNS0_11MessageLiteE, ptr @_ZNK6google8protobuf30DescriptorProto_ExtensionRange12ByteSizeLongEv, ptr @_ZN6google8protobuf30DescriptorProto_ExtensionRange14_InternalParseEPKcPNS0_8internal12ParseContextE, ptr @_ZNK6google8protobuf30DescriptorProto_ExtensionRange12GetClassDataEv, ptr @_ZNK6google8protobuf30DescriptorProto_ExtensionRange18_InternalSerializeEPhPNS0_2io19EpsCopyOutputStreamE, ptr @_ZNK6google8protobuf30DescriptorProto_ExtensionRange11GetMetadataEv] }, align 8
@_ZN6google8protobuf49_DescriptorProto_ExtensionRange_default_instance_E = global { { { ptr, %"class.google::protobuf::internal::InternalMetadata", %union.anon.58 } } } { { { ptr, %"class.google::protobuf::internal::InternalMetadata", %union.anon.58 } } { { ptr, %"class.google::protobuf::internal::InternalMetadata", %union.anon.58 } { ptr getelementptr inbounds ({ [13 x ptr] }, ptr @_ZTVN6google8protobuf30DescriptorProto_ExtensionRangeE, i32 0, inrange i32 0, i32 2), %"class.google::protobuf::internal::InternalMetadata" zeroinitializer, %union.anon.58 zeroinitializer } } }, align 8
@_ZTVN6google8protobuf22ServiceDescriptorProtoE = unnamed_addr constant { [13 x ptr] } { [13 x ptr] [ptr null, ptr @_ZTIN6google8protobuf22ServiceDescriptorProtoE, ptr @_ZN6google8protobuf22ServiceDescriptorProtoD1Ev, ptr @_ZN6google8protobuf22ServiceDescriptorProtoD0Ev, ptr @_ZNK6google8protobuf22ServiceDescriptorProto3NewEPNS0_5ArenaE, ptr @_ZN6google8protobuf22ServiceDescriptorProto5ClearEv, ptr @_ZNK6google8protobuf22ServiceDescriptorProto13IsInitializedEv, ptr @_ZN6google8protobuf7Message21CheckTypeAndMergeFromERKNS0_11MessageLiteE, ptr @_ZNK6google8protobuf22ServiceDescriptorProto12ByteSizeLongEv, ptr @_ZN6google8protobuf22ServiceDescriptorProto14_InternalParseEPKcPNS0_8internal12ParseContextE, ptr @_ZNK6google8protobuf22ServiceDescriptorProto12GetClassDataEv, ptr @_ZNK6google8protobuf22ServiceDescriptorProto18_InternalSerializeEPhPNS0_2io19EpsCopyOutputStreamE, ptr @_ZNK6google8protobuf22ServiceDescriptorProto11GetMetadataEv] }, align 8
@_ZN6google8protobuf41_ServiceDescriptorProto_default_instance_E = global { { { ptr, %"class.google::protobuf::internal::InternalMetadata", { { %"class.google::protobuf::internal::HasBits", %"class.google::protobuf::internal::CachedSize", { ptr, i32, i32, ptr }, %"struct.google::protobuf::internal::ArenaStringPtr", ptr } } } } } { { { ptr, %"class.google::protobuf::internal::InternalMetadata", { { %"class.google::protobuf::internal::HasBits", %"class.google::protobuf::internal::CachedSize", { ptr, i32, i32, ptr }, %"struct.google::protobuf::internal::ArenaStringPtr", ptr } } } } { { ptr, %"class.google::protobuf::internal::InternalMetadata", { { %"class.google::protobuf::internal::HasBits", %"class.google::protobuf::internal::CachedSize", { ptr, i32, i32, ptr }, %"struct.google::protobuf::internal::ArenaStringPtr", ptr } } } { ptr getelementptr inbounds ({ [13 x ptr] }, ptr @_ZTVN6google8protobuf22ServiceDescriptorProtoE, i32 0, inrange i32 0, i32 2), %"class.google::protobuf::internal::InternalMetadata" zeroinitializer, { { %"class.google::protobuf::internal::HasBits", %"class.google::protobuf::internal::CachedSize", { ptr, i32, i32, ptr }, %"struct.google::protobuf::internal::ArenaStringPtr", ptr } } { { %"class.google::protobuf::internal::HasBits", %"class.google::protobuf::internal::CachedSize", { ptr, i32, i32, ptr }, %"struct.google::protobuf::internal::ArenaStringPtr", ptr } { %"class.google::protobuf::internal::HasBits" zeroinitializer, %"class.google::protobuf::internal::CachedSize" zeroinitializer, { ptr, i32, i32, ptr } zeroinitializer, %"struct.google::protobuf::internal::ArenaStringPtr" { %"class.google::protobuf::internal::TaggedStringPtr" { ptr @_ZN6google8protobuf8internal26fixed_address_empty_stringB5cxx11E } }, ptr null } } } } }, align 8
@_ZTVN6google8protobuf19EnumDescriptorProtoE = unnamed_addr constant { [13 x ptr] } { [13 x ptr] [ptr null, ptr @_ZTIN6google8protobuf19EnumDescriptorProtoE, ptr @_ZN6google8protobuf19EnumDescriptorProtoD1Ev, ptr @_ZN6google8protobuf19EnumDescriptorProtoD0Ev, ptr @_ZNK6google8protobuf19EnumDescriptorProto3NewEPNS0_5ArenaE, ptr @_ZN6google8protobuf19EnumDescriptorProto5ClearEv, ptr @_ZNK6google8protobuf19EnumDescriptorProto13IsInitializedEv, ptr @_ZN6google8protobuf7Message21CheckTypeAndMergeFromERKNS0_11MessageLiteE, ptr @_ZNK6google8protobuf19EnumDescriptorProto12ByteSizeLongEv, ptr @_ZN6google8protobuf19EnumDescriptorProto14_InternalParseEPKcPNS0_8internal12ParseContextE, ptr @_ZNK6google8protobuf19EnumDescriptorProto12GetClassDataEv, ptr @_ZNK6google8protobuf19EnumDescriptorProto18_InternalSerializeEPhPNS0_2io19EpsCopyOutputStreamE, ptr @_ZNK6google8protobuf19EnumDescriptorProto11GetMetadataEv] }, align 8
@_ZN6google8protobuf38_EnumDescriptorProto_default_instance_E = global { { { ptr, %"class.google::protobuf::internal::InternalMetadata", { { %"class.google::protobuf::internal::HasBits", %"class.google::protobuf::internal::CachedSize", { ptr, i32, i32, ptr }, { ptr, i32, i32, ptr }, { ptr, i32, i32, ptr }, %"struct.google::protobuf::internal::ArenaStringPtr", ptr } } } } } { { { ptr, %"class.google::protobuf::internal::InternalMetadata", { { %"class.google::protobuf::internal::HasBits", %"class.google::protobuf::internal::CachedSize", { ptr, i32, i32, ptr }, { ptr, i32, i32, ptr }, { ptr, i32, i32, ptr }, %"struct.google::protobuf::internal::ArenaStringPtr", ptr } } } } { { ptr, %"class.google::protobuf::internal::InternalMetadata", { { %"class.google::protobuf::internal::HasBits", %"class.google::protobuf::internal::CachedSize", { ptr, i32, i32, ptr }, { ptr, i32, i32, ptr }, { ptr, i32, i32, ptr }, %"struct.google::protobuf::internal::ArenaStringPtr", ptr } } } { ptr getelementptr inbounds ({ [13 x ptr] }, ptr @_ZTVN6google8protobuf19EnumDescriptorProtoE, i32 0, inrange i32 0, i32 2), %"class.google::protobuf::internal::InternalMetadata" zeroinitializer, { { %"class.google::protobuf::internal::HasBits", %"class.google::protobuf::internal::CachedSize", { ptr, i32, i32, ptr }, { ptr, i32, i32, ptr }, { ptr, i32, i32, ptr }, %"struct.google::protobuf::internal::ArenaStringPtr", ptr } } { { %"class.google::protobuf::internal::HasBits", %"class.google::protobuf::internal::CachedSize", { ptr, i32, i32, ptr }, { ptr, i32, i32, ptr }, { ptr, i32, i32, ptr }, %"struct.google::protobuf::internal::ArenaStringPtr", ptr } { %"class.google::protobuf::internal::HasBits" zeroinitializer, %"class.google::protobuf::internal::CachedSize" zeroinitializer, { ptr, i32, i32, ptr } zeroinitializer, { ptr, i32, i32, ptr } zeroinitializer, { ptr, i32, i32, ptr } zeroinitializer, %"struct.google::protobuf::internal::ArenaStringPtr" { %"class.google::protobuf::internal::TaggedStringPtr" { ptr @_ZN6google8protobuf8internal26fixed_address_empty_stringB5cxx11E } }, ptr null } } } } }, align 8
@_ZTVN6google8protobuf15DescriptorProtoE = unnamed_addr constant { [13 x ptr] } { [13 x ptr] [ptr null, ptr @_ZTIN6google8protobuf15DescriptorProtoE, ptr @_ZN6google8protobuf15DescriptorProtoD1Ev, ptr @_ZN6google8protobuf15DescriptorProtoD0Ev, ptr @_ZNK6google8protobuf15DescriptorProto3NewEPNS0_5ArenaE, ptr @_ZN6google8protobuf15DescriptorProto5ClearEv, ptr @_ZNK6google8protobuf15DescriptorProto13IsInitializedEv, ptr @_ZN6google8protobuf7Message21CheckTypeAndMergeFromERKNS0_11MessageLiteE, ptr @_ZNK6google8protobuf15DescriptorProto12ByteSizeLongEv, ptr @_ZN6google8protobuf15DescriptorProto14_InternalParseEPKcPNS0_8internal12ParseContextE, ptr @_ZNK6google8protobuf15DescriptorProto12GetClassDataEv, ptr @_ZNK6google8protobuf15DescriptorProto18_InternalSerializeEPhPNS0_2io19EpsCopyOutputStreamE, ptr @_ZNK6google8protobuf15DescriptorProto11GetMetadataEv] }, align 8
@_ZN6google8protobuf34_DescriptorProto_default_instance_E = global { { { ptr, %"class.google::protobuf::internal::InternalMetadata", { { %"class.google::protobuf::internal::HasBits", %"class.google::protobuf::internal::CachedSize", { ptr, i32, i32, ptr }, { ptr, i32, i32, ptr }, { ptr, i32, i32, ptr }, { ptr, i32, i32, ptr }, { ptr, i32, i32, ptr }, { ptr, i32, i32, ptr }, { ptr, i32, i32, ptr }, { ptr, i32, i32, ptr }, %"struct.google::protobuf::internal::ArenaStringPtr", ptr } } } } } { { { ptr, %"class.google::protobuf::internal::InternalMetadata", { { %"class.google::protobuf::internal::HasBits", %"class.google::protobuf::internal::CachedSize", { ptr, i32, i32, ptr }, { ptr, i32, i32, ptr }, { ptr, i32, i32, ptr }, { ptr, i32, i32, ptr }, { ptr, i32, i32, ptr }, { ptr, i32, i32, ptr }, { ptr, i32, i32, ptr }, { ptr, i32, i32, ptr }, %"struct.google::protobuf::internal::ArenaStringPtr", ptr } } } } { { ptr, %"class.google::protobuf::internal::InternalMetadata", { { %"class.google::protobuf::internal::HasBits", %"class.google::protobuf::internal::CachedSize", { ptr, i32, i32, ptr }, { ptr, i32, i32, ptr }, { ptr, i32, i32, ptr }, { ptr, i32, i32, ptr }, { ptr, i32, i32, ptr }, { ptr, i32, i32, ptr }, { ptr, i32, i32, ptr }, { ptr, i32, i32, ptr }, %"struct.google::protobuf::internal::ArenaStringPtr", ptr } } } { ptr getelementptr inbounds ({ [13 x ptr] }, ptr @_ZTVN6google8protobuf15DescriptorProtoE, i32 0, inrange i32 0, i32 2), %"class.google::protobuf::internal::InternalMetadata" zeroinitializer, { { %"class.google::protobuf::internal::HasBits", %"class.google::protobuf::internal::CachedSize", { ptr, i32, i32, ptr }, { ptr, i32, i32, ptr }, { ptr, i32, i32, ptr }, { ptr, i32, i32, ptr }, { ptr, i32, i32, ptr }, { ptr, i32, i32, ptr }, { ptr, i32, i32, ptr }, { ptr, i32, i32, ptr }, %"struct.google::protobuf::internal::ArenaStringPtr", ptr } } { { %"class.google::protobuf::internal::HasBits", %"class.google::protobuf::internal::CachedSize", { ptr, i32, i32, ptr }, { ptr, i32, i32, ptr }, { ptr, i32, i32, ptr }, { ptr, i32, i32, ptr }, { ptr, i32, i32, ptr }, { ptr, i32, i32, ptr }, { ptr, i32, i32, ptr }, { ptr, i32, i32, ptr }, %"struct.google::protobuf::internal::ArenaStringPtr", ptr } { %"class.google::protobuf::internal::HasBits" zeroinitializer, %"class.google::protobuf::internal::CachedSize" zeroinitializer, { ptr, i32, i32, ptr } zeroinitializer, { ptr, i32, i32, ptr } zeroinitializer, { ptr, i32, i32, ptr } zeroinitializer, { ptr, i32, i32, ptr } zeroinitializer, { ptr, i32, i32, ptr } zeroinitializer, { ptr, i32, i32, ptr } zeroinitializer, { ptr, i32, i32, ptr } zeroinitializer, { ptr, i32, i32, ptr } zeroinitializer, %"struct.google::protobuf::internal::ArenaStringPtr" { %"class.google::protobuf::internal::TaggedStringPtr" { ptr @_ZN6google8protobuf8internal26fixed_address_empty_stringB5cxx11E } }, ptr null } } } } }, align 8
@_ZTVN6google8protobuf19FileDescriptorProtoE = unnamed_addr constant { [13 x ptr] } { [13 x ptr] [ptr null, ptr @_ZTIN6google8protobuf19FileDescriptorProtoE, ptr @_ZN6google8protobuf19FileDescriptorProtoD1Ev, ptr @_ZN6google8protobuf19FileDescriptorProtoD0Ev, ptr @_ZNK6google8protobuf19FileDescriptorProto3NewEPNS0_5ArenaE, ptr @_ZN6google8protobuf19FileDescriptorProto5ClearEv, ptr @_ZNK6google8protobuf19FileDescriptorProto13IsInitializedEv, ptr @_ZN6google8protobuf7Message21CheckTypeAndMergeFromERKNS0_11MessageLiteE, ptr @_ZNK6google8protobuf19FileDescriptorProto12ByteSizeLongEv, ptr @_ZN6google8protobuf19FileDescriptorProto14_InternalParseEPKcPNS0_8internal12ParseContextE, ptr @_ZNK6google8protobuf19FileDescriptorProto12GetClassDataEv, ptr @_ZNK6google8protobuf19FileDescriptorProto18_InternalSerializeEPhPNS0_2io19EpsCopyOutputStreamE, ptr @_ZNK6google8protobuf19FileDescriptorProto11GetMetadataEv] }, align 8
@_ZN6google8protobuf38_FileDescriptorProto_default_instance_E = global { { { ptr, %"class.google::protobuf::internal::InternalMetadata", { { %"class.google::protobuf::internal::HasBits", %"class.google::protobuf::internal::CachedSize", { ptr, i32, i32, ptr }, { ptr, i32, i32, ptr }, { ptr, i32, i32, ptr }, { ptr, i32, i32, ptr }, { ptr, i32, i32, ptr }, %"class.google::protobuf::RepeatedField", %"class.google::protobuf::RepeatedField", %"struct.google::protobuf::internal::ArenaStringPtr", %"struct.google::protobuf::internal::ArenaStringPtr", %"struct.google::protobuf::internal::ArenaStringPtr", ptr, ptr, i32 } } } } } { { { ptr, %"class.google::protobuf::internal::InternalMetadata", { { %"class.google::protobuf::internal::HasBits", %"class.google::protobuf::internal::CachedSize", { ptr, i32, i32, ptr }, { ptr, i32, i32, ptr }, { ptr, i32, i32, ptr }, { ptr, i32, i32, ptr }, { ptr, i32, i32, ptr }, %"class.google::protobuf::RepeatedField", %"class.google::protobuf::RepeatedField", %"struct.google::protobuf::internal::ArenaStringPtr", %"struct.google::protobuf::internal::ArenaStringPtr", %"struct.google::protobuf::internal::ArenaStringPtr", ptr, ptr, i32 } } } } { { ptr, %"class.google::protobuf::internal::InternalMetadata", { { %"class.google::protobuf::internal::HasBits", %"class.google::protobuf::internal::CachedSize", { ptr, i32, i32, ptr }, { ptr, i32, i32, ptr }, { ptr, i32, i32, ptr }, { ptr, i32, i32, ptr }, { ptr, i32, i32, ptr }, %"class.google::protobuf::RepeatedField", %"class.google::protobuf::RepeatedField", %"struct.google::protobuf::internal::ArenaStringPtr", %"struct.google::protobuf::internal::ArenaStringPtr", %"struct.google::protobuf::internal::ArenaStringPtr", ptr, ptr, i32 } } } { ptr getelementptr inbounds ({ [13 x ptr] }, ptr @_ZTVN6google8protobuf19FileDescriptorProtoE, i32 0, inrange i32 0, i32 2), %"class.google::protobuf::internal::InternalMetadata" zeroinitializer, { { %"class.google::protobuf::internal::HasBits", %"class.google::protobuf::internal::CachedSize", { ptr, i32, i32, ptr }, { ptr, i32, i32, ptr }, { ptr, i32, i32, ptr }, { ptr, i32, i32, ptr }, { ptr, i32, i32, ptr }, %"class.google::protobuf::RepeatedField", %"class.google::protobuf::RepeatedField", %"struct.google::protobuf::internal::ArenaStringPtr", %"struct.google::protobuf::internal::ArenaStringPtr", %"struct.google::protobuf::internal::ArenaStringPtr", ptr, ptr, i32 } } { { %"class.google::protobuf::internal::HasBits", %"class.google::protobuf::internal::CachedSize", { ptr, i32, i32, ptr }, { ptr, i32, i32, ptr }, { ptr, i32, i32, ptr }, { ptr, i32, i32, ptr }, { ptr, i32, i32, ptr }, %"class.google::protobuf::RepeatedField", %"class.google::protobuf::RepeatedField", %"struct.google::protobuf::internal::ArenaStringPtr", %"struct.google::protobuf::internal::ArenaStringPtr", %"struct.google::protobuf::internal::ArenaStringPtr", ptr, ptr, i32 } { %"class.google::protobuf::internal::HasBits" zeroinitializer, %"class.google::protobuf::internal::CachedSize" zeroinitializer, { ptr, i32, i32, ptr } zeroinitializer, { ptr, i32, i32, ptr } zeroinitializer, { ptr, i32, i32, ptr } zeroinitializer, { ptr, i32, i32, ptr } zeroinitializer, { ptr, i32, i32, ptr } zeroinitializer, %"class.google::protobuf::RepeatedField" zeroinitializer, %"class.google::protobuf::RepeatedField" zeroinitializer, %"struct.google::protobuf::internal::ArenaStringPtr" { %"class.google::protobuf::internal::TaggedStringPtr" { ptr @_ZN6google8protobuf8internal26fixed_address_empty_stringB5cxx11E } }, %"struct.google::protobuf::internal::ArenaStringPtr" { %"class.google::protobuf::internal::TaggedStringPtr" { ptr @_ZN6google8protobuf8internal26fixed_address_empty_stringB5cxx11E } }, %"struct.google::protobuf::internal::ArenaStringPtr" { %"class.google::protobuf::internal::TaggedStringPtr" { ptr @_ZN6google8protobuf8internal26fixed_address_empty_stringB5cxx11E } }, ptr null, ptr null, i32 0 } } } } }, align 8
@_ZTVN6google8protobuf17FileDescriptorSetE = unnamed_addr constant { [13 x ptr] } { [13 x ptr] [ptr null, ptr @_ZTIN6google8protobuf17FileDescriptorSetE, ptr @_ZN6google8protobuf17FileDescriptorSetD1Ev, ptr @_ZN6google8protobuf17FileDescriptorSetD0Ev, ptr @_ZNK6google8protobuf17FileDescriptorSet3NewEPNS0_5ArenaE, ptr @_ZN6google8protobuf17FileDescriptorSet5ClearEv, ptr @_ZNK6google8protobuf17FileDescriptorSet13IsInitializedEv, ptr @_ZN6google8protobuf7Message21CheckTypeAndMergeFromERKNS0_11MessageLiteE, ptr @_ZNK6google8protobuf17FileDescriptorSet12ByteSizeLongEv, ptr @_ZN6google8protobuf17FileDescriptorSet14_InternalParseEPKcPNS0_8internal12ParseContextE, ptr @_ZNK6google8protobuf17FileDescriptorSet12GetClassDataEv, ptr @_ZNK6google8protobuf17FileDescriptorSet18_InternalSerializeEPhPNS0_2io19EpsCopyOutputStreamE, ptr @_ZNK6google8protobuf17FileDescriptorSet11GetMetadataEv] }, align 8
@_ZN6google8protobuf36_FileDescriptorSet_default_instance_E = global { { { ptr, %"class.google::protobuf::internal::InternalMetadata", { { { ptr, i32, i32, ptr }, %"class.google::protobuf::internal::CachedSize" } } } } } { { { ptr, %"class.google::protobuf::internal::InternalMetadata", { { { ptr, i32, i32, ptr }, %"class.google::protobuf::internal::CachedSize" } } } } { { ptr, %"class.google::protobuf::internal::InternalMetadata", { { { ptr, i32, i32, ptr }, %"class.google::protobuf::internal::CachedSize" } } } { ptr getelementptr inbounds ({ [13 x ptr] }, ptr @_ZTVN6google8protobuf17FileDescriptorSetE, i32 0, inrange i32 0, i32 2), %"class.google::protobuf::internal::InternalMetadata" zeroinitializer, { { { ptr, i32, i32, ptr }, %"class.google::protobuf::internal::CachedSize" } } zeroinitializer } } }, align 8
@_ZN50TableStruct_google_2fprotobuf_2fdescriptor_2eproto7offsetsE = constant [581 x i32] [i32 -1, i32 8, i32 -1, i32 -1, i32 -1, i32 -1, i32 -1, i32 -1, i32 16, i32 16, i32 8, i32 -1, i32 -1, i32 -1, i32 -1, i32 -1, i32 -1, i32 176, i32 184, i32 24, i32 144, i32 160, i32 48, i32 72, i32 96, i32 120, i32 200, i32 208, i32 192, i32 216, i32 0, i32 1, i32 -1, i32 -1, i32 -1, i32 -1, i32 -1, i32 -1, i32 -1, i32 3, i32 4, i32 2, i32 5, i32 16, i32 8, i32 -1, i32 -1, i32 -1, i32 -1, i32 -1, i32 -1, i32 32, i32 36, i32 24, i32 1, i32 2, i32 0, i32 16, i32 8, i32 -1, i32 -1, i32 -1, i32 -1, i32 -1, i32 -1, i32 24, i32 28, i32 0, i32 1, i32 16, i32 8, i32 -1, i32 -1, i32 -1, i32 -1, i32 -1, i32 -1, i32 216, i32 24, i32 120, i32 48, i32 72, i32 96, i32 144, i32 224, i32 168, i32 192, i32 0, i32 -1, i32 -1, i32 -1, i32 -1, i32 -1, i32 -1, i32 1, i32 -1, i32 -1, i32 16, i32 8, i32 -1, i32 -1, i32 -1, i32 -1, i32 -1, i32 -1, i32 40, i32 24, i32 32, i32 44, i32 45, i32 2, i32 0, i32 1, i32 3, i32 4, i32 40, i32 8, i32 16, i32 -1, i32 -1, i32 -1, i32 -1, i32 -1, i32 72, i32 48, i32 96, i32 104, i32 -1, i32 -1, i32 0, i32 1, i32 16, i32 8, i32 -1, i32 -1, i32 -1, i32 -1, i32 -1, i32 -1, i32 24, i32 72, i32 84, i32 88, i32 40, i32 32, i32 48, i32 76, i32 56, i32 64, i32 80, i32 0, i32 6, i32 9, i32 10, i32 2, i32 1, i32 3, i32 7, i32 4, i32 5, i32 8, i32 16, i32 8, i32 -1, i32 -1, i32 -1, i32 -1, i32 -1, i32 -1, i32 24, i32 32, i32 0, i32 1, i32 16, i32 8, i32 -1, i32 -1, i32 -1, i32 -1, i32 -1, i32 -1, i32 24, i32 28, i32 0, i32 1, i32 16, i32 8, i32 -1, i32 -1, i32 -1, i32 -1, i32 -1, i32 -1, i32 96, i32 24, i32 104, i32 48, i32 72, i32 0, i32 -1, i32 1, i32 -1, i32 -1, i32 16, i32 8, i32 -1, i32 -1, i32 -1, i32 -1, i32 -1, i32 -1, i32 24, i32 40, i32 32, i32 0, i32 2, i32 1, i32 16, i32 8, i32 -1, i32 -1, i32 -1, i32 -1, i32 -1, i32 -1, i32 48, i32 24, i32 56, i32 0, i32 -1, i32 1, i32 16, i32 8, i32 -1, i32 -1, i32 -1, i32 -1, i32 -1, i32 -1, i32 24, i32 32, i32 40, i32 48, i32 56, i32 57, i32 0, i32 1, i32 2, i32 3, i32 4, i32 5, i32 40, i32 8, i32 16, i32 -1, i32 -1, i32 -1, i32 -1, i32 -1, i32 72, i32 80, i32 160, i32 161, i32 162, i32 168, i32 88, i32 163, i32 164, i32 165, i32 166, i32 167, i32 172, i32 96, i32 104, i32 112, i32 120, i32 128, i32 136, i32 144, i32 152, i32 48, i32 0, i32 1, i32 11, i32 12, i32 13, i32 19, i32 2, i32 14, i32 15, i32 16, i32 17, i32 18, i32 20, i32 3, i32 4, i32 5, i32 6, i32 7, i32 8, i32 9, i32 10, i32 -1, i32 40, i32 8, i32 16, i32 -1, i32 -1, i32 -1, i32 -1, i32 -1, i32 80, i32 81, i32 82, i32 83, i32 84, i32 72, i32 48, i32 1, i32 2, i32 3, i32 4, i32 5, i32 0, i32 -1, i32 16, i32 8, i32 -1, i32 -1, i32 -1, i32 -1, i32 -1, i32 -1, i32 32, i32 24, i32 1, i32 0, i32 40, i32 8, i32 16, i32 -1, i32 -1, i32 -1, i32 -1, i32 -1, i32 120, i32 128, i32 124, i32 129, i32 130, i32 131, i32 132, i32 133, i32 136, i32 48, i32 64, i32 112, i32 88, i32 1, i32 3, i32 2, i32 4, i32 5, i32 6, i32 7, i32 8, i32 9, i32 -1, i32 -1, i32 0, i32 -1, i32 40, i32 8, i32 16, i32 -1, i32 -1, i32 -1, i32 -1, i32 -1, i32 72, i32 48, i32 0, i32 -1, i32 40, i32 8, i32 16, i32 -1, i32 -1, i32 -1, i32 -1, i32 -1, i32 80, i32 81, i32 82, i32 72, i32 48, i32 1, i32 2, i32 3, i32 0, i32 -1, i32 40, i32 8, i32 16, i32 -1, i32 -1, i32 -1, i32 -1, i32 -1, i32 80, i32 72, i32 81, i32 48, i32 1, i32 0, i32 2, i32 -1, i32 40, i32 8, i32 16, i32 -1, i32 -1, i32 -1, i32 -1, i32 -1, i32 72, i32 80, i32 48, i32 0, i32 1, i32 -1, i32 40, i32 8, i32 16, i32 -1, i32 -1, i32 -1, i32 -1, i32 -1, i32 80, i32 84, i32 72, i32 48, i32 1, i32 2, i32 0, i32 -1, i32 16, i32 8, i32 -1, i32 -1, i32 -1, i32 -1, i32 -1, i32 -1, i32 24, i32 32, i32 0, i32 1, i32 16, i32 8, i32 -1, i32 -1, i32 -1, i32 -1, i32 -1, i32 -1, i32 24, i32 48, i32 72, i32 80, i32 88, i32 56, i32 64, i32 -1, i32 0, i32 3, i32 4, i32 5, i32 1, i32 2, i32 40, i32 8, i32 16, i32 -1, i32 -1, i32 -1, i32 -1, i32 -1, i32 48, i32 52, i32 56, i32 60, i32 64, i32 68, i32 0, i32 1, i32 2, i32 3, i32 4, i32 5, i32 16, i32 8, i32 -1, i32 -1, i32 -1, i32 -1, i32 -1, i32 -1, i32 32, i32 24, i32 1, i32 0, i32 16, i32 8, i32 -1, i32 -1, i32 -1, i32 -1, i32 -1, i32 -1, i32 24, i32 48, i32 52, i32 -1, i32 0, i32 1, i32 16, i32 8, i32 -1, i32 -1, i32 -1, i32 -1, i32 -1, i32 -1, i32 24, i32 48, i32 96, i32 104, i32 72, i32 -1, i32 -1, i32 0, i32 1, i32 -1, i32 -1, i32 8, i32 -1, i32 -1, i32 -1, i32 -1, i32 -1, i32 -1, i32 16, i32 16, i32 8, i32 -1, i32 -1, i32 -1, i32 -1, i32 -1, i32 -1, i32 24, i32 48, i32 56, i32 60, i32 64, i32 -1, i32 0, i32 1, i32 2, i32 3, i32 -1, i32 8, i32 -1, i32 -1, i32 -1, i32 -1, i32 -1, i32 -1, i32 16], section "protodesc_cold", align 16
@_ZL64descriptor_table_protodef_google_2fprotobuf_2fdescriptor_2eproto = internal constant [9571 x i8] c"\0A google/protobuf/descriptor.proto\12\0Fgoogle.protobuf\22G\0A\11FileDescriptorSet\122\0A\04file\18\01 \03(\0B2$.google.protobuf.FileDescriptorProto\22\86\04\0A\13FileDescriptorProto\12\0C\0A\04name\18\01 \01(\09\12\0F\0A\07package\18\02 \01(\09\12\12\0A\0Adependency\18\03 \03(\09\12\19\0A\11public_dependency\18\0A \03(\05\12\17\0A\0Fweak_dependency\18\0B \03(\05\126\0A\0Cmessage_type\18\04 \03(\0B2 .google.protobuf.DescriptorProto\127\0A\09enum_type\18\05 \03(\0B2$.google.protobuf.EnumDescriptorProto\128\0A\07service\18\06 \03(\0B2'.google.protobuf.ServiceDescriptorProto\128\0A\09extension\18\07 \03(\0B2%.google.protobuf.FieldDescriptorProto\12-\0A\07options\18\08 \01(\0B2\1C.google.protobuf.FileOptions\129\0A\10source_code_info\18\09 \01(\0B2\1F.google.protobuf.SourceCodeInfo\12\0E\0A\06syntax\18\0C \01(\09\12)\0A\07edition\18\0E \01(\0E2\18.google.protobuf.Edition\22\A9\05\0A\0FDescriptorProto\12\0C\0A\04name\18\01 \01(\09\124\0A\05field\18\02 \03(\0B2%.google.protobuf.FieldDescriptorProto\128\0A\09extension\18\06 \03(\0B2%.google.protobuf.FieldDescriptorProto\125\0A\0Bnested_type\18\03 \03(\0B2 .google.protobuf.DescriptorProto\127\0A\09enum_type\18\04 \03(\0B2$.google.protobuf.EnumDescriptorProto\12H\0A\0Fextension_range\18\05 \03(\0B2/.google.protobuf.DescriptorProto.ExtensionRange\129\0A\0Aoneof_decl\18\08 \03(\0B2%.google.protobuf.OneofDescriptorProto\120\0A\07options\18\07 \01(\0B2\1F.google.protobuf.MessageOptions\12F\0A\0Ereserved_range\18\09 \03(\0B2..google.protobuf.DescriptorProto.ReservedRange\12\15\0A\0Dreserved_name\18\0A \03(\09\1Ae\0A\0EExtensionRange\12\0D\0A\05start\18\01 \01(\05\12\0B\0A\03end\18\02 \01(\05\127\0A\07options\18\03 \01(\0B2&.google.protobuf.ExtensionRangeOptions\1A+\0A\0DReservedRange\12\0D\0A\05start\18\01 \01(\05\12\0B\0A\03end\18\02 \01(\05\22\E5\03\0A\15ExtensionRangeOptions\12C\0A\14uninterpreted_option\18\E7\07 \03(\0B2$.google.protobuf.UninterpretedOption\12L\0A\0Bdeclaration\18\02 \03(\0B22.google.protobuf.ExtensionRangeOptions.DeclarationB\03\88\01\02\12-\0A\08features\182 \01(\0B2\1B.google.protobuf.FeatureSet\12_\0A\0Cverification\18\03 \01(\0E28.google.protobuf.ExtensionRangeOptions.VerificationState:\0AUNVERIFIEDB\03\88\01\02\1Ah\0A\0BDeclaration\12\0E\0A\06number\18\01 \01(\05\12\11\0A\09full_name\18\02 \01(\09\12\0C\0A\04type\18\03 \01(\09\12\10\0A\08reserved\18\05 \01(\08\12\10\0A\08repeated\18\06 \01(\08J\04\08\04\10\05\224\0A\11VerificationState\12\0F\0A\0BDECLARATION\10\00\12\0E\0A\0AUNVERIFIED\10\01*\09\08\E8\07\10\80\80\80\80\02\22\D5\05\0A\14FieldDescriptorProto\12\0C\0A\04name\18\01 \01(\09\12\0E\0A\06number\18\03 \01(\05\12:\0A\05label\18\04 \01(\0E2+.google.protobuf.FieldDescriptorProto.Label\128\0A\04type\18\05 \01(\0E2*.google.protobuf.FieldDescriptorProto.Type\12\11\0A\09type_name\18\06 \01(\09\12\10\0A\08extendee\18\02 \01(\09\12\15\0A\0Ddefault_value\18\07 \01(\09\12\13\0A\0Boneof_index\18\09 \01(\05\12\11\0A\09json_name\18\0A \01(\09\12.\0A\07options\18\08 \01(\0B2\1D.google.protobuf.FieldOptions\12\17\0A\0Fproto3_optional\18\11 \01(\08\22\B6\02\0A\04Type\12\0F\0A\0BTYPE_DOUBLE\10\01\12\0E\0A\0ATYPE_FLOAT\10\02\12\0E\0A\0ATYPE_INT64\10\03\12\0F\0A\0BTYPE_UINT64\10\04\12\0E\0A\0ATYPE_INT32\10\05\12\10\0A\0CTYPE_FIXED64\10\06\12\10\0A\0CTYPE_FIXED32\10\07\12\0D\0A\09TYPE_BOOL\10\08\12\0F\0A\0BTYPE_STRING\10\09\12\0E\0A\0ATYPE_GROUP\10\0A\12\10\0A\0CTYPE_MESSAGE\10\0B\12\0E\0A\0ATYPE_BYTES\10\0C\12\0F\0A\0BTYPE_UINT32\10\0D\12\0D\0A\09TYPE_ENUM\10\0E\12\11\0A\0DTYPE_SFIXED32\10\0F\12\11\0A\0DTYPE_SFIXED64\10\10\12\0F\0A\0BTYPE_SINT32\10\11\12\0F\0A\0BTYPE_SINT64\10\12\22C\0A\05Label\12\12\0A\0ELABEL_OPTIONAL\10\01\12\12\0A\0ELABEL_REPEATED\10\03\12\12\0A\0ELABEL_REQUIRED\10\02\22T\0A\14OneofDescriptorProto\12\0C\0A\04name\18\01 \01(\09\12.\0A\07options\18\02 \01(\0B2\1D.google.protobuf.OneofOptions\22\A4\02\0A\13EnumDescriptorProto\12\0C\0A\04name\18\01 \01(\09\128\0A\05value\18\02 \03(\0B2).google.protobuf.EnumValueDescriptorProto\12-\0A\07options\18\03 \01(\0B2\1C.google.protobuf.EnumOptions\12N\0A\0Ereserved_range\18\04 \03(\0B26.google.protobuf.EnumDescriptorProto.EnumReservedRange\12\15\0A\0Dreserved_name\18\05 \03(\09\1A/\0A\11EnumReservedRange\12\0D\0A\05start\18\01 \01(\05\12\0B\0A\03end\18\02 \01(\05\22l\0A\18EnumValueDescriptorProto\12\0C\0A\04name\18\01 \01(\09\12\0E\0A\06number\18\02 \01(\05\122\0A\07options\18\03 \01(\0B2!.google.protobuf.EnumValueOptions\22\90\01\0A\16ServiceDescriptorProto\12\0C\0A\04name\18\01 \01(\09\126\0A\06method\18\02 \03(\0B2&.google.protobuf.MethodDescriptorProto\120\0A\07options\18\03 \01(\0B2\1F.google.protobuf.ServiceOptions\22\C1\01\0A\15MethodDescriptorProto\12\0C\0A\04name\18\01 \01(\09\12\12\0A\0Ainput_type\18\02 \01(\09\12\13\0A\0Boutput_type\18\03 \01(\09\12/\0A\07options\18\04 \01(\0B2\1E.google.protobuf.MethodOptions\12\1F\0A\10client_streaming\18\05 \01(\08:\05false\12\1F\0A\10server_streaming\18\06 \01(\08:\05false\22\D4\06\0A\0BFileOptions\12\14\0A\0Cjava_package\18\01 \01(\09\12\1C\0A\14java_outer_classname\18\08 \01(\09\12\22\0A\13java_multiple_files\18\0A \01(\08:\05false\12)\0A\1Djava_generate_equals_and_hash\18\14 \01(\08B\02\18\01\12%\0A\16java_string_check_utf8\18\1B \01(\08:\05false\12F\0A\0Coptimize_for\18\09 \01(\0E2).google.protobuf.FileOptions.OptimizeMode:\05SPEED\12\12\0A\0Ago_package\18\0B \01(\09\12\22\0A\13cc_generic_services\18\10 \01(\08:\05false\12$\0A\15java_generic_services\18\11 \01(\08:\05false\12\22\0A\13py_generic_services\18\12 \01(\08:\05false\12#\0A\14php_generic_services\18* \01(\08:\05false\12\19\0A\0Adeprecated\18\17 \01(\08:\05false\12\1E\0A\10cc_enable_arenas\18\1F \01(\08:\04true\12\19\0A\11objc_class_prefix\18$ \01(\09\12\18\0A\10csharp_namespace\18% \01(\09\12\14\0A\0Cswift_prefix\18' \01(\09\12\18\0A\10php_class_prefix\18( \01(\09\12\15\0A\0Dphp_namespace\18) \01(\09\12\1E\0A\16php_metadata_namespace\18, \01(\09\12\14\0A\0Cruby_package\18- \01(\09\12-\0A\08features\182 \01(\0B2\1B.google.protobuf.FeatureSet\12C\0A\14uninterpreted_option\18\E7\07 \03(\0B2$.google.protobuf.UninterpretedOption\22:\0A\0COptimizeMode\12\09\0A\05SPEED\10\01\12\0D\0A\09CODE_SIZE\10\02\12\10\0A\0CLITE_RUNTIME\10\03*\09\08\E8\07\10\80\80\80\80\02J\04\08&\10'\22\E7\02\0A\0EMessageOptions\12&\0A\17message_set_wire_format\18\01 \01(\08:\05false\12.\0A\1Fno_standard_descriptor_accessor\18\02 \01(\08:\05false\12\19\0A\0Adeprecated\18\03 \01(\08:\05false\12\11\0A\09map_entry\18\07 \01(\08\122\0A&deprecated_legacy_json_field_conflicts\18\0B \01(\08B\02\18\01\12-\0A\08features\18\0C \01(\0B2\1B.google.protobuf.FeatureSet\12C\0A\14uninterpreted_option\18\E7\07 \03(\0B2$.google.protobuf.UninterpretedOption*\09\08\E8\07\10\80\80\80\80\02J\04\08\04\10\05J\04\08\05\10\06J\04\08\06\10\07J\04\08\08\10\09J\04\08\09\10\0A\22\8D\09\0A\0CFieldOptions\12:\0A\05ctype\18\01 \01(\0E2#.google.protobuf.FieldOptions.CType:\06STRING\12\0E\0A\06packed\18\02 \01(\08\12?\0A\06jstype\18\06 \01(\0E2$.google.protobuf.FieldOptions.JSType:\09JS_NORMAL\12\13\0A\04lazy\18\05 \01(\08:\05false\12\1E\0A\0Funverified_lazy\18\0F \01(\08:\05false\12\19\0A\0Adeprecated\18\03 \01(\08:\05false\12\13\0A\04weak\18\0A \01(\08:\05false\12\1B\0A\0Cdebug_redact\18\10 \01(\08:\05false\12@\0A\09retention\18\11 \01(\0E2-.google.protobuf.FieldOptions.OptionRetention\12?\0A\07targets\18\13 \03(\0E2..google.protobuf.FieldOptions.OptionTargetType\12F\0A\10edition_defaults\18\14 \03(\0B2,.google.protobuf.FieldOptions.EditionDefault\12-\0A\08features\18\15 \01(\0B2\1B.google.protobuf.FeatureSet\12C\0A\14uninterpreted_option\18\E7\07 \03(\0B2$.google.protobuf.UninterpretedOption\1AJ\0A\0EEditionDefault\12)\0A\07edition\18\03 \01(\0E2\18.google.protobuf.Edition\12\0D\0A\05value\18\02 \01(\09\22/\0A\05CType\12\0A\0A\06STRING\10\00\12\08\0A\04CORD\10\01\12\10\0A\0CSTRING_PIECE\10\02\225\0A\06JSType\12\0D\0A\09JS_NORMAL\10\00\12\0D\0A\09JS_STRING\10\01\12\0D\0A\09JS_NUMBER\10\02\22U\0A\0FOptionRetention\12\15\0A\11RETENTION_UNKNOWN\10\00\12\15\0A\11RETENTION_RUNTIME\10\01\12\14\0A\10RETENTION_SOURCE\10\02\22\8C\02\0A\10OptionTargetType\12\17\0A\13TARGET_TYPE_UNKNOWN\10\00\12\14\0A\10TARGET_TYPE_FILE\10\01\12\1F\0A\1BTARGET_TYPE_EXTENSION_RANGE\10\02\12\17\0A\13TARGET_TYPE_MESSAGE\10\03\12\15\0A\11TARGET_TYPE_FIELD\10\04\12\15\0A\11TARGET_TYPE_ONEOF\10\05\12\14\0A\10TARGET_TYPE_ENUM\10\06\12\1A\0A\16TARGET_TYPE_ENUM_ENTRY\10\07\12\17\0A\13TARGET_TYPE_SERVICE\10\08\12\16\0A\12TARGET_TYPE_METHOD\10\09*\09\08\E8\07\10\80\80\80\80\02J\04\08\04\10\05J\04\08\12\10\13\22\8D\01\0A\0COneofOptions\12-\0A\08features\18\01 \01(\0B2\1B.google.protobuf.FeatureSet\12C\0A\14uninterpreted_option\18\E7\07 \03(\0B2$.google.protobuf.UninterpretedOption*\09\08\E8\07\10\80\80\80\80\02\22\F6\01\0A\0BEnumOptions\12\13\0A\0Ballow_alias\18\02 \01(\08\12\19\0A\0Adeprecated\18\03 \01(\08:\05false\122\0A&deprecated_legacy_json_field_conflicts\18\06 \01(\08B\02\18\01\12-\0A\08features\18\07 \01(\0B2\1B.google.protobuf.FeatureSet\12C\0A\14uninterpreted_option\18\E7\07 \03(\0B2$.google.protobuf.UninterpretedOption*\09\08\E8\07\10\80\80\80\80\02J\04\08\05\10\06\22\C9\01\0A\10EnumValueOptions\12\19\0A\0Adeprecated\18\01 \01(\08:\05false\12-\0A\08features\18\02 \01(\0B2\1B.google.protobuf.FeatureSet\12\1B\0A\0Cdebug_redact\18\03 \01(\08:\05false\12C\0A\14uninterpreted_option\18\E7\07 \03(\0B2$.google.protobuf.UninterpretedOption*\09\08\E8\07\10\80\80\80\80\02\22\AA\01\0A\0EServiceOptions\12-\0A\08features\18\22 \01(\0B2\1B.google.protobuf.FeatureSet\12\19\0A\0Adeprecated\18! \01(\08:\05false\12C\0A\14uninterpreted_option\18\E7\07 \03(\0B2$.google.protobuf.UninterpretedOption*\09\08\E8\07\10\80\80\80\80\02\22\DC\02\0A\0DMethodOptions\12\19\0A\0Adeprecated\18! \01(\08:\05false\12_\0A\11idempotency_level\18\22 \01(\0E2/.google.protobuf.MethodOptions.IdempotencyLevel:\13IDEMPOTENCY_UNKNOWN\12-\0A\08features\18# \01(\0B2\1B.google.protobuf.FeatureSet\12C\0A\14uninterpreted_option\18\E7\07 \03(\0B2$.google.protobuf.UninterpretedOption\22P\0A\10IdempotencyLevel\12\17\0A\13IDEMPOTENCY_UNKNOWN\10\00\12\13\0A\0FNO_SIDE_EFFECTS\10\01\12\0E\0A\0AIDEMPOTENT\10\02*\09\08\E8\07\10\80\80\80\80\02\22\9E\02\0A\13UninterpretedOption\12;\0A\04name\18\02 \03(\0B2-.google.protobuf.UninterpretedOption.NamePart\12\18\0A\10identifier_value\18\03 \01(\09\12\1A\0A\12positive_int_value\18\04 \01(\04\12\1A\0A\12negative_int_value\18\05 \01(\03\12\14\0A\0Cdouble_value\18\06 \01(\01\12\14\0A\0Cstring_value\18\07 \01(\0C\12\17\0A\0Faggregate_value\18\08 \01(\09\1A3\0A\08NamePart\12\11\0A\09name_part\18\01 \02(\09\12\14\0A\0Cis_extension\18\02 \02(\08\22\9D\09\0A\0AFeatureSet\12|\0A\0Efield_presence\18\01 \01(\0E2).google.protobuf.FeatureSet.FieldPresenceB9\88\01\01\98\01\04\98\01\01\A2\01\0D\12\08EXPLICIT\18\E6\07\A2\01\0D\12\08IMPLICIT\18\E7\07\A2\01\0D\12\08EXPLICIT\18\E8\07\12\\\0A\09enum_type\18\02 \01(\0E2$.google.protobuf.FeatureSet.EnumTypeB#\88\01\01\98\01\06\98\01\01\A2\01\0B\12\06CLOSED\18\E6\07\A2\01\09\12\04OPEN\18\E7\07\12{\0A\17repeated_field_encoding\18\03 \01(\0E21.google.protobuf.FeatureSet.RepeatedFieldEncodingB'\88\01\01\98\01\04\98\01\01\A2\01\0D\12\08EXPANDED\18\E6\07\A2\01\0B\12\06PACKED\18\E7\07\12h\0A\0Futf8_validation\18\04 \01(\0E2*.google.protobuf.FeatureSet.Utf8ValidationB#\88\01\01\98\01\04\98\01\01\A2\01\09\12\04NONE\18\E6\07\A2\01\0B\12\06VERIFY\18\E7\07\12g\0A\10message_encoding\18\05 \01(\0E2+.google.protobuf.FeatureSet.MessageEncodingB \88\01\01\98\01\04\98\01\01\A2\01\14\12\0FLENGTH_PREFIXED\18\E6\07\12p\0A\0Bjson_format\18\06 \01(\0E2&.google.protobuf.FeatureSet.JsonFormatB3\88\01\01\98\01\03\98\01\06\98\01\01\A2\01\17\12\12LEGACY_BEST_EFFORT\18\E6\07\A2\01\0A\12\05ALLOW\18\E7\07\22\\\0A\0DFieldPresence\12\1A\0A\16FIELD_PRESENCE_UNKNOWN\10\00\12\0C\0A\08EXPLICIT\10\01\12\0C\0A\08IMPLICIT\10\02\12\13\0A\0FLEGACY_REQUIRED\10\03\227\0A\08EnumType\12\15\0A\11ENUM_TYPE_UNKNOWN\10\00\12\08\0A\04OPEN\10\01\12\0A\0A\06CLOSED\10\02\22V\0A\15RepeatedFieldEncoding\12#\0A\1FREPEATED_FIELD_ENCODING_UNKNOWN\10\00\12\0A\0A\06PACKED\10\01\12\0C\0A\08EXPANDED\10\02\22C\0A\0EUtf8Validation\12\1B\0A\17UTF8_VALIDATION_UNKNOWN\10\00\12\0A\0A\06VERIFY\10\02\12\08\0A\04NONE\10\03\22S\0A\0FMessageEncoding\12\1C\0A\18MESSAGE_ENCODING_UNKNOWN\10\00\12\13\0A\0FLENGTH_PREFIXED\10\01\12\0D\0A\09DELIMITED\10\02\22H\0A\0AJsonFormat\12\17\0A\13JSON_FORMAT_UNKNOWN\10\00\12\09\0A\05ALLOW\10\01\12\16\0A\12LEGACY_BEST_EFFORT\10\02*\06\08\E8\07\10\E9\07*\06\08\E9\07\10\EA\07*\06\08\8BN\10\90NJ\06\08\E7\07\10\E8\07\22\C0\02\0A\12FeatureSetDefaults\12N\0A\08defaults\18\01 \03(\0B2<.google.protobuf.FeatureSetDefaults.FeatureSetEditionDefault\121\0A\0Fminimum_edition\18\04 \01(\0E2\18.google.protobuf.Edition\121\0A\0Fmaximum_edition\18\05 \01(\0E2\18.google.protobuf.Edition\1At\0A\18FeatureSetEditionDefault\12)\0A\07edition\18\03 \01(\0E2\18.google.protobuf.Edition\12-\0A\08features\18\02 \01(\0B2\1B.google.protobuf.FeatureSet\22\D5\01\0A\0ESourceCodeInfo\12:\0A\08location\18\01 \03(\0B2(.google.protobuf.SourceCodeInfo.Location\1A\86\01\0A\08Location\12\10\0A\04path\18\01 \03(\05B\02\10\01\12\10\0A\04span\18\02 \03(\05B\02\10\01\12\18\0A\10leading_comments\18\03 \01(\09\12\19\0A\11trailing_comments\18\04 \01(\09\12!\0A\19leading_detached_comments\18\06 \03(\09\22\9C\02\0A\11GeneratedCodeInfo\12A\0A\0Aannotation\18\01 \03(\0B2-.google.protobuf.GeneratedCodeInfo.Annotation\1A\C3\01\0A\0AAnnotation\12\10\0A\04path\18\01 \03(\05B\02\10\01\12\13\0A\0Bsource_file\18\02 \01(\09\12\0D\0A\05begin\18\03 \01(\05\12\0B\0A\03end\18\04 \01(\05\12H\0A\08semantic\18\05 \01(\0E26.google.protobuf.GeneratedCodeInfo.Annotation.Semantic\22(\0A\08Semantic\12\08\0A\04NONE\10\00\12\07\0A\03SET\10\01\12\09\0A\05ALIAS\10\02*\FF\01\0A\07Edition\12\13\0A\0FEDITION_UNKNOWN\10\00\12\13\0A\0EEDITION_PROTO2\10\E6\07\12\13\0A\0EEDITION_PROTO3\10\E7\07\12\11\0A\0CEDITION_2023\10\E8\07\12\17\0A\13EDITION_1_TEST_ONLY\10\01\12\17\0A\13EDITION_2_TEST_ONLY\10\02\12\1D\0A\17EDITION_99997_TEST_ONLY\10\9D\8D\06\12\1D\0A\17EDITION_99998_TEST_ONLY\10\9E\8D\06\12\1D\0A\17EDITION_99999_TEST_ONLY\10\9F\8D\06\12\13\0A\0BEDITION_MAX\10\FF\FF\FF\FF\07B~\0A\13com.google.protobufB\10DescriptorProtosH\01Z-google.golang.org/protobuf/types/descriptorpb\F8\01\01\A2\02\03GPB\AA\02\1AGoogle.Protobuf.Reflection\00", section "protodesc_cold", align 16
@.str = private unnamed_addr constant [33 x i8] c"google/protobuf/descriptor.proto\00", align 1
@_ZL7schemas = internal constant [32 x %"struct.google::protobuf::internal::MigrationSchema"] [%"struct.google::protobuf::internal::MigrationSchema" { i32 0, i32 -1, i32 -1, i32 48 }, %"struct.google::protobuf::internal::MigrationSchema" { i32 9, i32 30, i32 -1, i32 224 }, %"struct.google::protobuf::internal::MigrationSchema" { i32 43, i32 54, i32 -1, i32 40 }, %"struct.google::protobuf::internal::MigrationSchema" { i32 57, i32 67, i32 -1, i32 32 }, %"struct.google::protobuf::internal::MigrationSchema" { i32 69, i32 87, i32 -1, i32 232 }, %"struct.google::protobuf::internal::MigrationSchema" { i32 97, i32 110, i32 -1, i32 48 }, %"struct.google::protobuf::internal::MigrationSchema" { i32 115, i32 127, i32 -1, i32 112 }, %"struct.google::protobuf::internal::MigrationSchema" { i32 131, i32 150, i32 -1, i32 96 }, %"struct.google::protobuf::internal::MigrationSchema" { i32 161, i32 171, i32 -1, i32 40 }, %"struct.google::protobuf::internal::MigrationSchema" { i32 173, i32 183, i32 -1, i32 32 }, %"struct.google::protobuf::internal::MigrationSchema" { i32 185, i32 198, i32 -1, i32 112 }, %"struct.google::protobuf::internal::MigrationSchema" { i32 203, i32 214, i32 -1, i32 48 }, %"struct.google::protobuf::internal::MigrationSchema" { i32 217, i32 228, i32 -1, i32 64 }, %"struct.google::protobuf::internal::MigrationSchema" { i32 231, i32 245, i32 -1, i32 64 }, %"struct.google::protobuf::internal::MigrationSchema" { i32 251, i32 281, i32 -1, i32 176 }, %"struct.google::protobuf::internal::MigrationSchema" { i32 303, i32 318, i32 -1, i32 88 }, %"struct.google::protobuf::internal::MigrationSchema" { i32 325, i32 335, i32 -1, i32 40 }, %"struct.google::protobuf::internal::MigrationSchema" { i32 337, i32 358, i32 -1, i32 144 }, %"struct.google::protobuf::internal::MigrationSchema" { i32 371, i32 381, i32 -1, i32 80 }, %"struct.google::protobuf::internal::MigrationSchema" { i32 383, i32 396, i32 -1, i32 88 }, %"struct.google::protobuf::internal::MigrationSchema" { i32 401, i32 413, i32 -1, i32 88 }, %"struct.google::protobuf::internal::MigrationSchema" { i32 417, i32 428, i32 -1, i32 88 }, %"struct.google::protobuf::internal::MigrationSchema" { i32 431, i32 443, i32 -1, i32 88 }, %"struct.google::protobuf::internal::MigrationSchema" { i32 447, i32 457, i32 -1, i32 40 }, %"struct.google::protobuf::internal::MigrationSchema" { i32 459, i32 474, i32 -1, i32 96 }, %"struct.google::protobuf::internal::MigrationSchema" { i32 481, i32 495, i32 -1, i32 72 }, %"struct.google::protobuf::internal::MigrationSchema" { i32 501, i32 511, i32 -1, i32 40 }, %"struct.google::protobuf::internal::MigrationSchema" { i32 513, i32 524, i32 -1, i32 56 }, %"struct.google::protobuf::internal::MigrationSchema" { i32 527, i32 540, i32 -1, i32 112 }, %"struct.google::protobuf::internal::MigrationSchema" { i32 545, i32 -1, i32 -1, i32 48 }, %"struct.google::protobuf::internal::MigrationSchema" { i32 554, i32 567, i32 -1, i32 72 }, %"struct.google::protobuf::internal::MigrationSchema" { i32 572, i32 -1, i32 -1, i32 48 }], section "protodesc_cold", align 16
@_ZL22file_default_instances = internal constant [32 x ptr] [ptr @_ZN6google8protobuf36_FileDescriptorSet_default_instance_E, ptr @_ZN6google8protobuf38_FileDescriptorProto_default_instance_E, ptr @_ZN6google8protobuf49_DescriptorProto_ExtensionRange_default_instance_E, ptr @_ZN6google8protobuf48_DescriptorProto_ReservedRange_default_instance_E, ptr @_ZN6google8protobuf34_DescriptorProto_default_instance_E, ptr @_ZN6google8protobuf52_ExtensionRangeOptions_Declaration_default_instance_E, ptr @_ZN6google8protobuf40_ExtensionRangeOptions_default_instance_E, ptr @_ZN6google8protobuf39_FieldDescriptorProto_default_instance_E, ptr @_ZN6google8protobuf39_OneofDescriptorProto_default_instance_E, ptr @_ZN6google8protobuf56_EnumDescriptorProto_EnumReservedRange_default_instance_E, ptr @_ZN6google8protobuf38_EnumDescriptorProto_default_instance_E, ptr @_ZN6google8protobuf43_EnumValueDescriptorProto_default_instance_E, ptr @_ZN6google8protobuf41_ServiceDescriptorProto_default_instance_E, ptr @_ZN6google8protobuf40_MethodDescriptorProto_default_instance_E, ptr @_ZN6google8protobuf30_FileOptions_default_instance_E, ptr @_ZN6google8protobuf33_MessageOptions_default_instance_E, ptr @_ZN6google8protobuf46_FieldOptions_EditionDefault_default_instance_E, ptr @_ZN6google8protobuf31_FieldOptions_default_instance_E, ptr @_ZN6google8protobuf31_OneofOptions_default_instance_E, ptr @_ZN6google8protobuf30_EnumOptions_default_instance_E, ptr @_ZN6google8protobuf35_EnumValueOptions_default_instance_E, ptr @_ZN6google8protobuf33_ServiceOptions_default_instance_E, ptr @_ZN6google8protobuf32_MethodOptions_default_instance_E, ptr @_ZN6google8protobuf47_UninterpretedOption_NamePart_default_instance_E, ptr @_ZN6google8protobuf38_UninterpretedOption_default_instance_E, ptr @_ZN6google8protobuf29_FeatureSet_default_instance_E, ptr @_ZN6google8protobuf62_FeatureSetDefaults_FeatureSetEditionDefault_default_instance_E, ptr @_ZN6google8protobuf37_FeatureSetDefaults_default_instance_E, ptr @_ZN6google8protobuf42_SourceCodeInfo_Location_default_instance_E, ptr @_ZN6google8protobuf33_SourceCodeInfo_default_instance_E, ptr @_ZN6google8protobuf47_GeneratedCodeInfo_Annotation_default_instance_E, ptr @_ZN6google8protobuf36_GeneratedCodeInfo_default_instance_E], align 16
@_ZL58file_level_metadata_google_2fprotobuf_2fdescriptor_2eproto = internal global [32 x %"struct.google::protobuf::Metadata"] zeroinitializer, align 16
@_ZL66file_level_enum_descriptors_google_2fprotobuf_2fdescriptor_2eproto = internal global [17 x ptr] zeroinitializer, align 16
@descriptor_table_google_2fprotobuf_2fdescriptor_2eproto = global %"struct.google::protobuf::internal::DescriptorTable" { i8 0, i8 0, i32 9570, ptr @_ZL64descriptor_table_protodef_google_2fprotobuf_2fdescriptor_2eproto, ptr @.str, ptr @_ZL60descriptor_table_google_2fprotobuf_2fdescriptor_2eproto_once, ptr null, i32 0, i32 32, ptr @_ZL7schemas, ptr @_ZL22file_default_instances, ptr @_ZN50TableStruct_google_2fprotobuf_2fdescriptor_2eproto7offsetsE, ptr @_ZL58file_level_metadata_google_2fprotobuf_2fdescriptor_2eproto, ptr @_ZL66file_level_enum_descriptors_google_2fprotobuf_2fdescriptor_2eproto, ptr null }, align 8
@_ZN6google8protobuf54ExtensionRangeOptions_VerificationState_internal_data_E = constant [2 x i32] [i32 131072, i32 0], align 4
@_ZN6google8protobuf40FieldDescriptorProto_Type_internal_data_E = constant [2 x i32] [i32 1179649, i32 0], align 4
@_ZN6google8protobuf41FieldDescriptorProto_Label_internal_data_E = constant [2 x i32] [i32 196609, i32 0], align 4
@_ZN6google8protobuf39FileOptions_OptimizeMode_internal_data_E = constant [2 x i32] [i32 196609, i32 0], align 4
@_ZN6google8protobuf33FieldOptions_CType_internal_data_E = constant [2 x i32] [i32 196608, i32 0], align 4
@_ZN6google8protobuf34FieldOptions_JSType_internal_data_E = constant [2 x i32] [i32 196608, i32 0], align 4
@_ZN6google8protobuf43FieldOptions_OptionRetention_internal_data_E = constant [2 x i32] [i32 196608, i32 0], align 4
@_ZN6google8protobuf44FieldOptions_OptionTargetType_internal_data_E = constant [2 x i32] [i32 655360, i32 0], align 4
@_ZN6google8protobuf45MethodOptions_IdempotencyLevel_internal_data_E = constant [2 x i32] [i32 196608, i32 0], align 4
@_ZN6google8protobuf39FeatureSet_FieldPresence_internal_data_E = constant [2 x i32] [i32 262144, i32 0], align 4
@_ZN6google8protobuf34FeatureSet_EnumType_internal_data_E = constant [2 x i32] [i32 196608, i32 0], align 4
@_ZN6google8protobuf47FeatureSet_RepeatedFieldEncoding_internal_data_E = constant [2 x i32] [i32 196608, i32 0], align 4
@_ZN6google8protobuf40FeatureSet_Utf8Validation_internal_data_E = constant [3 x i32] [i32 65536, i32 32, i32 6], align 4
@_ZN6google8protobuf41FeatureSet_MessageEncoding_internal_data_E = constant [2 x i32] [i32 196608, i32 0], align 4
@_ZN6google8protobuf36FeatureSet_JsonFormat_internal_data_E = constant [2 x i32] [i32 196608, i32 0], align 4
@_ZN6google8protobuf52GeneratedCodeInfo_Annotation_Semantic_internal_data_E = constant [2 x i32] [i32 196608, i32 0], align 4
@_ZN6google8protobuf22Edition_internal_data_E = constant [9 x i32] [i32 196608, i32 458752, i32 99997, i32 999, i32 99999, i32 998, i32 1000, i32 99998, i32 2147483647], align 16
@_ZZNK6google8protobuf17FileDescriptorSet12GetClassDataEvE6_data_ = internal constant { ptr, i32, i8, ptr, ptr } { ptr null, i32 40, i8 0, ptr @_ZN6google8protobuf17FileDescriptorSet9MergeImplERNS0_11MessageLiteERKS2_, ptr @_ZN6google8protobuf7Message18kDescriptorMethodsE }, align 8
@_ZN6google8protobuf7Message18kDescriptorMethodsE = external global %"struct.google::protobuf::MessageLite::DescriptorMethods", align 8
@_ZN6google8protobuf17FileDescriptorSet7_table_E = weak_odr global { %"struct.google::protobuf::internal::TcParseTableBase", %"struct.std::array", %"struct.std::array.84", %"struct.std::array.85", %"struct.std::array.86", %"struct.std::array.87" } { %"struct.google::protobuf::internal::TcParseTableBase" { i16 0, i16 0, i32 1, i8 0, i16 64, i32 -2, i32 68, i16 1, i16 1, i32 80, ptr @_ZN6google8protobuf36_FileDescriptorSet_default_instance_E, ptr @_ZN6google8protobuf8internal8TcParser15GenericFallbackEPNS0_11MessageLiteEPKcPNS1_12ParseContextENS1_11TcFieldDataEPKNS1_16TcParseTableBaseEm }, %"struct.std::array" { [1 x %"struct.google::protobuf::internal::TcParseTableBase::FastFieldEntry"] [%"struct.google::protobuf::internal::TcParseTableBase::FastFieldEntry" { %"struct.std::atomic.81" { %"struct.std::__atomic_base.82" { ptr @_ZN6google8protobuf8internal8TcParser8FastMtR1EPNS0_11MessageLiteEPKcPNS1_12ParseContextENS1_11TcFieldDataEPKNS1_16TcParseTableBaseEm } }, %"struct.google::protobuf::internal::TcFieldData" { %union.anon.83 { i64 4503599631499274 } } }] }, %"struct.std::array.84" { [2 x i16] [i16 -1, i16 -1] }, %"struct.std::array.85" { [1 x %"struct.google::protobuf::internal::TcParseTableBase::FieldEntry"] [%"struct.google::protobuf::internal::TcParseTableBase::FieldEntry" { i32 16, i32 0, i16 0, i16 1062 }] }, %"struct.std::array.86" { [1 x %"union.google::protobuf::internal::TcParseTableBase::FieldAux"] [%"union.google::protobuf::internal::TcParseTableBase::FieldAux" { ptr @_ZN6google8protobuf19FileDescriptorProto7_table_E }] }, %"struct.std::array.87" zeroinitializer }, comdat, align 8
@_ZZNK6google8protobuf19FileDescriptorProto12GetClassDataEvE6_data_ = internal constant { ptr, i32, i8, ptr, ptr } { ptr null, i32 20, i8 0, ptr @_ZN6google8protobuf19FileDescriptorProto9MergeImplERNS0_11MessageLiteERKS2_, ptr @_ZN6google8protobuf7Message18kDescriptorMethodsE }, align 8
@_ZN6google8protobuf19FileDescriptorProto7_table_E = weak_odr global { %"struct.google::protobuf::internal::TcParseTableBase", %"struct.std::array.89", %"struct.std::array.84", %"struct.std::array.90", %"struct.std::array.91", %"struct.std::array.92" } { %"struct.google::protobuf::internal::TcParseTableBase" { i16 16, i16 0, i32 14, i8 120, i16 304, i32 -12288, i32 308, i16 13, i16 7, i32 464, ptr @_ZN6google8protobuf38_FileDescriptorProto_default_instance_E, ptr @_ZN6google8protobuf8internal8TcParser15GenericFallbackEPNS0_11MessageLiteEPKcPNS1_12ParseContextENS1_11TcFieldDataEPKNS1_16TcParseTableBaseEm }, %"struct.std::array.89" { [16 x %"struct.google::protobuf::internal::TcParseTableBase::FastFieldEntry"] [%"struct.google::protobuf::internal::TcParseTableBase::FastFieldEntry" { %"struct.std::atomic.81" { %"struct.std::__atomic_base.82" { ptr @_ZN6google8protobuf8internal8TcParser9MiniParseEPNS0_11MessageLiteEPKcPNS1_12ParseContextENS1_11TcFieldDataEPKNS1_16TcParseTableBaseEm } }, %"struct.google::protobuf::internal::TcFieldData" zeroinitializer }, %"struct.google::protobuf::internal::TcParseTableBase::FastFieldEntry" { %"struct.std::atomic.81" { %"struct.std::__atomic_base.82" { ptr @_ZN6google8protobuf8internal8TcParser7FastSS1EPNS0_11MessageLiteEPKcPNS1_12ParseContextENS1_11TcFieldDataEPKNS1_16TcParseTableBaseEm } }, %"struct.google::protobuf::internal::TcFieldData" { %union.anon.83 { i64 49539595901075466 } } }, %"struct.google::protobuf::internal::TcParseTableBase::FastFieldEntry" { %"struct.std::atomic.81" { %"struct.std::__atomic_base.82" { ptr @_ZN6google8protobuf8internal8TcParser7FastSS1EPNS0_11MessageLiteEPKcPNS1_12ParseContextENS1_11TcFieldDataEPKNS1_16TcParseTableBaseEm } }, %"struct.google::protobuf::internal::TcFieldData" { %union.anon.83 { i64 51791395714826258 } } }, %"struct.google::protobuf::internal::TcParseTableBase::FastFieldEntry" { %"struct.std::atomic.81" { %"struct.std::__atomic_base.82" { ptr @_ZN6google8protobuf8internal8TcParser7FastSR1EPNS0_11MessageLiteEPKcPNS1_12ParseContextENS1_11TcFieldDataEPKNS1_16TcParseTableBaseEm } }, %"struct.google::protobuf::internal::TcFieldData" { %union.anon.83 { i64 6755399445184538 } } }, %"struct.google::protobuf::internal::TcParseTableBase::FastFieldEntry" { %"struct.std::atomic.81" { %"struct.std::__atomic_base.82" { ptr @_ZN6google8protobuf8internal8TcParser8FastMtR1EPNS0_11MessageLiteEPKcPNS1_12ParseContextENS1_11TcFieldDataEPKNS1_16TcParseTableBaseEm } }, %"struct.google::protobuf::internal::TcFieldData" { %union.anon.83 { i64 13510798886240290 } } }, %"struct.google::protobuf::internal::TcParseTableBase::FastFieldEntry" { %"struct.std::atomic.81" { %"struct.std::__atomic_base.82" { ptr @_ZN6google8protobuf8internal8TcParser8FastMtR1EPNS0_11MessageLiteEPKcPNS1_12ParseContextENS1_11TcFieldDataEPKNS1_16TcParseTableBaseEm } }, %"struct.google::protobuf::internal::TcFieldData" { %union.anon.83 { i64 20266198344073258 } } }, %"struct.google::protobuf::internal::TcParseTableBase::FastFieldEntry" { %"struct.std::atomic.81" { %"struct.std::__atomic_base.82" { ptr @_ZN6google8protobuf8internal8TcParser8FastMtR1EPNS0_11MessageLiteEPKcPNS1_12ParseContextENS1_11TcFieldDataEPKNS1_16TcParseTableBaseEm } }, %"struct.google::protobuf::internal::TcFieldData" { %union.anon.83 { i64 27021597801906226 } } }, %"struct.google::protobuf::internal::TcParseTableBase::FastFieldEntry" { %"struct.std::atomic.81" { %"struct.std::__atomic_base.82" { ptr @_ZN6google8protobuf8internal8TcParser8FastMtR1EPNS0_11MessageLiteEPKcPNS1_12ParseContextENS1_11TcFieldDataEPKNS1_16TcParseTableBaseEm } }, %"struct.google::protobuf::internal::TcFieldData" { %union.anon.83 { i64 33776997259739194 } } }, %"struct.google::protobuf::internal::TcParseTableBase::FastFieldEntry" { %"struct.std::atomic.81" { %"struct.std::__atomic_base.82" { ptr @_ZN6google8protobuf8internal8TcParser8FastMtS1EPNS0_11MessageLiteEPKcPNS1_12ParseContextENS1_11TcFieldDataEPKNS1_16TcParseTableBaseEm } }, %"struct.google::protobuf::internal::TcFieldData" { %union.anon.83 { i64 56294995409436738 } } }, %"struct.google::protobuf::internal::TcParseTableBase::FastFieldEntry" { %"struct.std::atomic.81" { %"struct.std::__atomic_base.82" { ptr @_ZN6google8protobuf8internal8TcParser8FastMtS1EPNS0_11MessageLiteEPKcPNS1_12ParseContextENS1_11TcFieldDataEPKNS1_16TcParseTableBaseEm } }, %"struct.google::protobuf::internal::TcFieldData" { %union.anon.83 { i64 58546795239964746 } } }, %"struct.google::protobuf::internal::TcParseTableBase::FastFieldEntry" { %"struct.std::atomic.81" { %"struct.std::__atomic_base.82" { ptr @_ZN6google8protobuf8internal8TcParser9FastV32R1EPNS0_11MessageLiteEPKcPNS1_12ParseContextENS1_11TcFieldDataEPKNS1_16TcParseTableBaseEm } }, %"struct.google::protobuf::internal::TcFieldData" { %union.anon.83 { i64 40532396650463312 } } }, %"struct.google::protobuf::internal::TcParseTableBase::FastFieldEntry" { %"struct.std::atomic.81" { %"struct.std::__atomic_base.82" { ptr @_ZN6google8protobuf8internal8TcParser9FastV32R1EPNS0_11MessageLiteEPKcPNS1_12ParseContextENS1_11TcFieldDataEPKNS1_16TcParseTableBaseEm } }, %"struct.google::protobuf::internal::TcFieldData" { %union.anon.83 { i64 45035996277833816 } } }, %"struct.google::protobuf::internal::TcParseTableBase::FastFieldEntry" { %"struct.std::atomic.81" { %"struct.std::__atomic_base.82" { ptr @_ZN6google8protobuf8internal8TcParser7FastSS1EPNS0_11MessageLiteEPKcPNS1_12ParseContextENS1_11TcFieldDataEPKNS1_16TcParseTableBaseEm } }, %"struct.google::protobuf::internal::TcFieldData" { %union.anon.83 { i64 54043195528577122 } } }, %"struct.google::protobuf::internal::TcParseTableBase::FastFieldEntry" { %"struct.std::atomic.81" { %"struct.std::__atomic_base.82" { ptr @_ZN6google8protobuf8internal8TcParser9MiniParseEPNS0_11MessageLiteEPKcPNS1_12ParseContextENS1_11TcFieldDataEPKNS1_16TcParseTableBaseEm } }, %"struct.google::protobuf::internal::TcFieldData" zeroinitializer }, %"struct.google::protobuf::internal::TcParseTableBase::FastFieldEntry" { %"struct.std::atomic.81" { %"struct.std::__atomic_base.82" { ptr @_ZN6google8protobuf8internal8TcParser8FastEvS1EPNS0_11MessageLiteEPKcPNS1_12ParseContextENS1_11TcFieldDataEPKNS1_16TcParseTableBaseEm } }, %"struct.google::protobuf::internal::TcFieldData" { %union.anon.83 { i64 60798595070492784 } } }, %"struct.google::protobuf::internal::TcParseTableBase::FastFieldEntry" { %"struct.std::atomic.81" { %"struct.std::__atomic_base.82" { ptr @_ZN6google8protobuf8internal8TcParser9MiniParseEPNS0_11MessageLiteEPKcPNS1_12ParseContextENS1_11TcFieldDataEPKNS1_16TcParseTableBaseEm } }, %"struct.google::protobuf::internal::TcFieldData" zeroinitializer }] }, %"struct.std::array.84" { [2 x i16] [i16 -1, i16 -1] }, %"struct.std::array.90" { [13 x %"struct.google::protobuf::internal::TcParseTableBase::FieldEntry"] [%"struct.google::protobuf::internal::TcParseTableBase::FieldEntry" { i32 176, i32 128, i16 0, i16 2581 }, %"struct.google::protobuf::internal::TcParseTableBase::FieldEntry" { i32 184, i32 129, i16 0, i16 2581 }, %"struct.google::protobuf::internal::TcParseTableBase::FieldEntry" { i32 24, i32 -1, i16 0, i16 2853 }, %"struct.google::protobuf::internal::TcParseTableBase::FieldEntry" { i32 48, i32 -1, i16 0, i16 1062 }, %"struct.google::protobuf::internal::TcParseTableBase::FieldEntry" { i32 72, i32 -1, i16 1, i16 1062 }, %"struct.google::protobuf::internal::TcParseTableBase::FieldEntry" { i32 96, i32 -1, i16 2, i16 1062 }, %"struct.google::protobuf::internal::TcParseTableBase::FieldEntry" { i32 120, i32 -1, i16 3, i16 1062 }, %"struct.google::protobuf::internal::TcParseTableBase::FieldEntry" { i32 200, i32 131, i16 4, i16 1046 }, %"struct.google::protobuf::internal::TcParseTableBase::FieldEntry" { i32 208, i32 132, i16 5, i16 1046 }, %"struct.google::protobuf::internal::TcParseTableBase::FieldEntry" { i32 144, i32 -1, i16 0, i16 4257 }, %"struct.google::protobuf::internal::TcParseTableBase::FieldEntry" { i32 160, i32 -1, i16 0, i16 4257 }, %"struct.google::protobuf::internal::TcParseTableBase::FieldEntry" { i32 192, i32 130, i16 0, i16 2581 }, %"struct.google::protobuf::internal::TcParseTableBase::FieldEntry" { i32 216, i32 133, i16 6, i16 7313 }] }, %"struct.std::array.91" { [7 x %"union.google::protobuf::internal::TcParseTableBase::FieldAux"] [%"union.google::protobuf::internal::TcParseTableBase::FieldAux" { ptr @_ZN6google8protobuf15DescriptorProto7_table_E }, %"union.google::protobuf::internal::TcParseTableBase::FieldAux" { ptr @_ZN6google8protobuf19EnumDescriptorProto7_table_E }, %"union.google::protobuf::internal::TcParseTableBase::FieldAux" { ptr @_ZN6google8protobuf22ServiceDescriptorProto7_table_E }, %"union.google::protobuf::internal::TcParseTableBase::FieldAux" { ptr @_ZN6google8protobuf20FieldDescriptorProto7_table_E }, %"union.google::protobuf::internal::TcParseTableBase::FieldAux" { ptr @_ZN6google8protobuf11FileOptions7_table_E }, %"union.google::protobuf::internal::TcParseTableBase::FieldAux" { ptr @_ZN6google8protobuf14SourceCodeInfo7_table_E }, %"union.google::protobuf::internal::TcParseTableBase::FieldAux" { ptr @_ZN6google8protobuf22Edition_internal_data_E }] }, %"struct.std::array.92" { [79 x i8] c"#\04\07\0A\00\00\00\00\00\00\00\00\06\00\00\00google.protobuf.FileDescriptorProtonamepackagedependencysyntax\00" } }, comdat, align 8
@.str.3 = private unnamed_addr constant [41 x i8] c"google.protobuf.FileDescriptorProto.name\00", align 1
@.str.4 = private unnamed_addr constant [44 x i8] c"google.protobuf.FileDescriptorProto.package\00", align 1
@.str.5 = private unnamed_addr constant [47 x i8] c"google.protobuf.FileDescriptorProto.dependency\00", align 1
@.str.6 = private unnamed_addr constant [43 x i8] c"google.protobuf.FileDescriptorProto.syntax\00", align 1
@_ZZNK6google8protobuf30DescriptorProto_ExtensionRange12GetClassDataEvE6_data_ = internal constant { ptr, i32, i8, ptr, ptr } { ptr null, i32 20, i8 0, ptr @_ZN6google8protobuf30DescriptorProto_ExtensionRange9MergeImplERNS0_11MessageLiteERKS2_, ptr @_ZN6google8protobuf7Message18kDescriptorMethodsE }, align 8
@_ZN6google8protobuf30DescriptorProto_ExtensionRange7_table_E = weak_odr global { %"struct.google::protobuf::internal::TcParseTableBase", %"struct.std::array.106", %"struct.std::array.84", %"struct.std::array.107", %"struct.std::array.86", %"struct.std::array.87" } { %"struct.google::protobuf::internal::TcParseTableBase" { i16 16, i16 0, i32 3, i8 24, i16 112, i32 -8, i32 116, i16 3, i16 1, i32 152, ptr @_ZN6google8protobuf49_DescriptorProto_ExtensionRange_default_instance_E, ptr @_ZN6google8protobuf8internal8TcParser15GenericFallbackEPNS0_11MessageLiteEPKcPNS1_12ParseContextENS1_11TcFieldDataEPKNS1_16TcParseTableBaseEm }, %"struct.std::array.106" { [4 x %"struct.google::protobuf::internal::TcParseTableBase::FastFieldEntry"] [%"struct.google::protobuf::internal::TcParseTableBase::FastFieldEntry" { %"struct.std::atomic.81" { %"struct.std::__atomic_base.82" { ptr @_ZN6google8protobuf8internal8TcParser9MiniParseEPNS0_11MessageLiteEPKcPNS1_12ParseContextENS1_11TcFieldDataEPKNS1_16TcParseTableBaseEm } }, %"struct.google::protobuf::internal::TcFieldData" zeroinitializer }, %"struct.google::protobuf::internal::TcParseTableBase::FastFieldEntry" { %"struct.std::atomic.81" { %"struct.std::__atomic_base.82" { ptr @_ZN6google8protobuf8internal8TcParser9FastV32S1EPNS0_11MessageLiteEPKcPNS1_12ParseContextENS1_11TcFieldDataEPKNS1_16TcParseTableBaseEm } }, %"struct.google::protobuf::internal::TcFieldData" { %union.anon.83 { i64 9007199254806536 } } }, %"struct.google::protobuf::internal::TcParseTableBase::FastFieldEntry" { %"struct.std::atomic.81" { %"struct.std::__atomic_base.82" { ptr @_ZN6google8protobuf8internal8TcParser9FastV32S1EPNS0_11MessageLiteEPKcPNS1_12ParseContextENS1_11TcFieldDataEPKNS1_16TcParseTableBaseEm } }, %"struct.google::protobuf::internal::TcFieldData" { %union.anon.83 { i64 10133099161714704 } } }, %"struct.google::protobuf::internal::TcParseTableBase::FastFieldEntry" { %"struct.std::atomic.81" { %"struct.std::__atomic_base.82" { ptr @_ZN6google8protobuf8internal8TcParser8FastMtS1EPNS0_11MessageLiteEPKcPNS1_12ParseContextENS1_11TcFieldDataEPKNS1_16TcParseTableBaseEm } }, %"struct.google::protobuf::internal::TcFieldData" { %union.anon.83 { i64 6755399441055770 } } }] }, %"struct.std::array.84" { [2 x i16] [i16 -1, i16 -1] }, %"struct.std::array.107" { [3 x %"struct.google::protobuf::internal::TcParseTableBase::FieldEntry"] [%"struct.google::protobuf::internal::TcParseTableBase::FieldEntry" { i32 32, i32 129, i16 0, i16 4241 }, %"struct.google::protobuf::internal::TcParseTableBase::FieldEntry" { i32 36, i32 130, i16 0, i16 4241 }, %"struct.google::protobuf::internal::TcParseTableBase::FieldEntry" { i32 24, i32 128, i16 0, i16 1046 }] }, %"struct.std::array.86" { [1 x %"union.google::protobuf::internal::TcParseTableBase::FieldAux"] [%"union.google::protobuf::internal::TcParseTableBase::FieldAux" { ptr @_ZN6google8protobuf21ExtensionRangeOptions7_table_E }] }, %"struct.std::array.87" zeroinitializer }, comdat, align 8
@_ZZNK6google8protobuf29DescriptorProto_ReservedRange12GetClassDataEvE6_data_ = internal constant { ptr, i32, i8, ptr, ptr } { ptr null, i32 20, i8 0, ptr @_ZN6google8protobuf29DescriptorProto_ReservedRange9MergeImplERNS0_11MessageLiteERKS2_, ptr @_ZN6google8protobuf7Message18kDescriptorMethodsE }, align 8
@_ZN6google8protobuf29DescriptorProto_ReservedRange7_table_E = weak_odr global { %"struct.google::protobuf::internal::TcParseTableBase", %"struct.std::array.135", %"struct.std::array.84", %"struct.std::array.136", %"struct.std::array.87" } { %"struct.google::protobuf::internal::TcParseTableBase" { i16 16, i16 0, i32 2, i8 8, i16 80, i32 -4, i32 84, i16 2, i16 0, i32 108, ptr @_ZN6google8protobuf48_DescriptorProto_ReservedRange_default_instance_E, ptr @_ZN6google8protobuf8internal8TcParser15GenericFallbackEPNS0_11MessageLiteEPKcPNS1_12ParseContextENS1_11TcFieldDataEPKNS1_16TcParseTableBaseEm }, %"struct.std::array.135" { [2 x %"struct.google::protobuf::internal::TcParseTableBase::FastFieldEntry"] [%"struct.google::protobuf::internal::TcParseTableBase::FastFieldEntry" { %"struct.std::atomic.81" { %"struct.std::__atomic_base.82" { ptr @_ZN6google8protobuf8internal8TcParser9FastV32S1EPNS0_11MessageLiteEPKcPNS1_12ParseContextENS1_11TcFieldDataEPKNS1_16TcParseTableBaseEm } }, %"struct.google::protobuf::internal::TcFieldData" { %union.anon.83 { i64 7881299347963920 } } }, %"struct.google::protobuf::internal::TcParseTableBase::FastFieldEntry" { %"struct.std::atomic.81" { %"struct.std::__atomic_base.82" { ptr @_ZN6google8protobuf8internal8TcParser9FastV32S1EPNS0_11MessageLiteEPKcPNS1_12ParseContextENS1_11TcFieldDataEPKNS1_16TcParseTableBaseEm } }, %"struct.google::protobuf::internal::TcFieldData" { %union.anon.83 { i64 6755399441055752 } } }] }, %"struct.std::array.84" { [2 x i16] [i16 -1, i16 -1] }, %"struct.std::array.136" { [2 x %"struct.google::protobuf::internal::TcParseTableBase::FieldEntry"] [%"struct.google::protobuf::internal::TcParseTableBase::FieldEntry" { i32 24, i32 128, i16 0, i16 4241 }, %"struct.google::protobuf::internal::TcParseTableBase::FieldEntry" { i32 28, i32 129, i16 0, i16 4241 }] }, %"struct.std::array.87" zeroinitializer }, comdat, align 8
@_ZZNK6google8protobuf15DescriptorProto12GetClassDataEvE6_data_ = internal constant { ptr, i32, i8, ptr, ptr } { ptr null, i32 20, i8 0, ptr @_ZN6google8protobuf15DescriptorProto9MergeImplERNS0_11MessageLiteERKS2_, ptr @_ZN6google8protobuf7Message18kDescriptorMethodsE }, align 8
@_ZN6google8protobuf15DescriptorProto7_table_E = weak_odr global { %"struct.google::protobuf::internal::TcParseTableBase", %"struct.std::array.89", %"struct.std::array.84", %"struct.std::array.95", %"struct.std::array.96", %"struct.std::array.97" } { %"struct.google::protobuf::internal::TcParseTableBase" { i16 16, i16 0, i32 10, i8 120, i16 304, i32 -1024, i32 308, i16 10, i16 8, i32 432, ptr @_ZN6google8protobuf34_DescriptorProto_default_instance_E, ptr @_ZN6google8protobuf8internal8TcParser15GenericFallbackEPNS0_11MessageLiteEPKcPNS1_12ParseContextENS1_11TcFieldDataEPKNS1_16TcParseTableBaseEm }, %"struct.std::array.89" { [16 x %"struct.google::protobuf::internal::TcParseTableBase::FastFieldEntry"] [%"struct.google::protobuf::internal::TcParseTableBase::FastFieldEntry" { %"struct.std::atomic.81" { %"struct.std::__atomic_base.82" { ptr @_ZN6google8protobuf8internal8TcParser9MiniParseEPNS0_11MessageLiteEPKcPNS1_12ParseContextENS1_11TcFieldDataEPKNS1_16TcParseTableBaseEm } }, %"struct.google::protobuf::internal::TcFieldData" zeroinitializer }, %"struct.google::protobuf::internal::TcParseTableBase::FastFieldEntry" { %"struct.std::atomic.81" { %"struct.std::__atomic_base.82" { ptr @_ZN6google8protobuf8internal8TcParser7FastSS1EPNS0_11MessageLiteEPKcPNS1_12ParseContextENS1_11TcFieldDataEPKNS1_16TcParseTableBaseEm } }, %"struct.google::protobuf::internal::TcFieldData" { %union.anon.83 { i64 60798594969501706 } } }, %"struct.google::protobuf::internal::TcParseTableBase::FastFieldEntry" { %"struct.std::atomic.81" { %"struct.std::__atomic_base.82" { ptr @_ZN6google8protobuf8internal8TcParser8FastMtR1EPNS0_11MessageLiteEPKcPNS1_12ParseContextENS1_11TcFieldDataEPKNS1_16TcParseTableBaseEm } }, %"struct.google::protobuf::internal::TcFieldData" { %union.anon.83 { i64 6755399445184530 } } }, %"struct.google::protobuf::internal::TcParseTableBase::FastFieldEntry" { %"struct.std::atomic.81" { %"struct.std::__atomic_base.82" { ptr @_ZN6google8protobuf8internal8TcParser8FastMtR1EPNS0_11MessageLiteEPKcPNS1_12ParseContextENS1_11TcFieldDataEPKNS1_16TcParseTableBaseEm } }, %"struct.google::protobuf::internal::TcFieldData" { %union.anon.83 { i64 13510798903017498 } } }, %"struct.google::protobuf::internal::TcParseTableBase::FastFieldEntry" { %"struct.std::atomic.81" { %"struct.std::__atomic_base.82" { ptr @_ZN6google8protobuf8internal8TcParser8FastMtR1EPNS0_11MessageLiteEPKcPNS1_12ParseContextENS1_11TcFieldDataEPKNS1_16TcParseTableBaseEm } }, %"struct.google::protobuf::internal::TcFieldData" { %union.anon.83 { i64 20266198360850466 } } }, %"struct.google::protobuf::internal::TcParseTableBase::FastFieldEntry" { %"struct.std::atomic.81" { %"struct.std::__atomic_base.82" { ptr @_ZN6google8protobuf8internal8TcParser8FastMtR1EPNS0_11MessageLiteEPKcPNS1_12ParseContextENS1_11TcFieldDataEPKNS1_16TcParseTableBaseEm } }, %"struct.google::protobuf::internal::TcFieldData" { %union.anon.83 { i64 27021597818683434 } } }, %"struct.google::protobuf::internal::TcParseTableBase::FastFieldEntry" { %"struct.std::atomic.81" { %"struct.std::__atomic_base.82" { ptr @_ZN6google8protobuf8internal8TcParser8FastMtR1EPNS0_11MessageLiteEPKcPNS1_12ParseContextENS1_11TcFieldDataEPKNS1_16TcParseTableBaseEm } }, %"struct.google::protobuf::internal::TcFieldData" { %union.anon.83 { i64 33776997276516402 } } }, %"struct.google::protobuf::internal::TcParseTableBase::FastFieldEntry" { %"struct.std::atomic.81" { %"struct.std::__atomic_base.82" { ptr @_ZN6google8protobuf8internal8TcParser8FastMtS1EPNS0_11MessageLiteEPKcPNS1_12ParseContextENS1_11TcFieldDataEPKNS1_16TcParseTableBaseEm } }, %"struct.google::protobuf::internal::TcFieldData" { %union.anon.83 { i64 63050394867138618 } } }, %"struct.google::protobuf::internal::TcParseTableBase::FastFieldEntry" { %"struct.std::atomic.81" { %"struct.std::__atomic_base.82" { ptr @_ZN6google8protobuf8internal8TcParser8FastMtR1EPNS0_11MessageLiteEPKcPNS1_12ParseContextENS1_11TcFieldDataEPKNS1_16TcParseTableBaseEm } }, %"struct.google::protobuf::internal::TcFieldData" { %union.anon.83 { i64 40532396751126594 } } }, %"struct.google::protobuf::internal::TcParseTableBase::FastFieldEntry" { %"struct.std::atomic.81" { %"struct.std::__atomic_base.82" { ptr @_ZN6google8protobuf8internal8TcParser8FastMtR1EPNS0_11MessageLiteEPKcPNS1_12ParseContextENS1_11TcFieldDataEPKNS1_16TcParseTableBaseEm } }, %"struct.google::protobuf::internal::TcFieldData" { %union.anon.83 { i64 47287796208959562 } } }, %"struct.google::protobuf::internal::TcParseTableBase::FastFieldEntry" { %"struct.std::atomic.81" { %"struct.std::__atomic_base.82" { ptr @_ZN6google8protobuf8internal8TcParser7FastSR1EPNS0_11MessageLiteEPKcPNS1_12ParseContextENS1_11TcFieldDataEPKNS1_16TcParseTableBaseEm } }, %"struct.google::protobuf::internal::TcFieldData" { %union.anon.83 { i64 54043195532574802 } } }, %"struct.google::protobuf::internal::TcParseTableBase::FastFieldEntry" { %"struct.std::atomic.81" { %"struct.std::__atomic_base.82" { ptr @_ZN6google8protobuf8internal8TcParser9MiniParseEPNS0_11MessageLiteEPKcPNS1_12ParseContextENS1_11TcFieldDataEPKNS1_16TcParseTableBaseEm } }, %"struct.google::protobuf::internal::TcFieldData" zeroinitializer }, %"struct.google::protobuf::internal::TcParseTableBase::FastFieldEntry" { %"struct.std::atomic.81" { %"struct.std::__atomic_base.82" { ptr @_ZN6google8protobuf8internal8TcParser9MiniParseEPNS0_11MessageLiteEPKcPNS1_12ParseContextENS1_11TcFieldDataEPKNS1_16TcParseTableBaseEm } }, %"struct.google::protobuf::internal::TcFieldData" zeroinitializer }, %"struct.google::protobuf::internal::TcParseTableBase::FastFieldEntry" { %"struct.std::atomic.81" { %"struct.std::__atomic_base.82" { ptr @_ZN6google8protobuf8internal8TcParser9MiniParseEPNS0_11MessageLiteEPKcPNS1_12ParseContextENS1_11TcFieldDataEPKNS1_16TcParseTableBaseEm } }, %"struct.google::protobuf::internal::TcFieldData" zeroinitializer }, %"struct.google::protobuf::internal::TcParseTableBase::FastFieldEntry" { %"struct.std::atomic.81" { %"struct.std::__atomic_base.82" { ptr @_ZN6google8protobuf8internal8TcParser9MiniParseEPNS0_11MessageLiteEPKcPNS1_12ParseContextENS1_11TcFieldDataEPKNS1_16TcParseTableBaseEm } }, %"struct.google::protobuf::internal::TcFieldData" zeroinitializer }, %"struct.google::protobuf::internal::TcParseTableBase::FastFieldEntry" { %"struct.std::atomic.81" { %"struct.std::__atomic_base.82" { ptr @_ZN6google8protobuf8internal8TcParser9MiniParseEPNS0_11MessageLiteEPKcPNS1_12ParseContextENS1_11TcFieldDataEPKNS1_16TcParseTableBaseEm } }, %"struct.google::protobuf::internal::TcFieldData" zeroinitializer }] }, %"struct.std::array.84" { [2 x i16] [i16 -1, i16 -1] }, %"struct.std::array.95" { [10 x %"struct.google::protobuf::internal::TcParseTableBase::FieldEntry"] [%"struct.google::protobuf::internal::TcParseTableBase::FieldEntry" { i32 216, i32 128, i16 0, i16 2581 }, %"struct.google::protobuf::internal::TcParseTableBase::FieldEntry" { i32 24, i32 -1, i16 0, i16 1062 }, %"struct.google::protobuf::internal::TcParseTableBase::FieldEntry" { i32 48, i32 -1, i16 1, i16 1062 }, %"struct.google::protobuf::internal::TcParseTableBase::FieldEntry" { i32 72, i32 -1, i16 2, i16 1062 }, %"struct.google::protobuf::internal::TcParseTableBase::FieldEntry" { i32 96, i32 -1, i16 3, i16 1062 }, %"struct.google::protobuf::internal::TcParseTableBase::FieldEntry" { i32 120, i32 -1, i16 4, i16 1062 }, %"struct.google::protobuf::internal::TcParseTableBase::FieldEntry" { i32 224, i32 129, i16 5, i16 1046 }, %"struct.google::protobuf::internal::TcParseTableBase::FieldEntry" { i32 144, i32 -1, i16 6, i16 1062 }, %"struct.google::protobuf::internal::TcParseTableBase::FieldEntry" { i32 168, i32 -1, i16 7, i16 1062 }, %"struct.google::protobuf::internal::TcParseTableBase::FieldEntry" { i32 192, i32 -1, i16 0, i16 2853 }] }, %"struct.std::array.96" { [8 x %"union.google::protobuf::internal::TcParseTableBase::FieldAux"] [%"union.google::protobuf::internal::TcParseTableBase::FieldAux" { ptr @_ZN6google8protobuf20FieldDescriptorProto7_table_E }, %"union.google::protobuf::internal::TcParseTableBase::FieldAux" { ptr @_ZN6google8protobuf15DescriptorProto7_table_E }, %"union.google::protobuf::internal::TcParseTableBase::FieldAux" { ptr @_ZN6google8protobuf19EnumDescriptorProto7_table_E }, %"union.google::protobuf::internal::TcParseTableBase::FieldAux" { ptr @_ZN6google8protobuf30DescriptorProto_ExtensionRange7_table_E }, %"union.google::protobuf::internal::TcParseTableBase::FieldAux" { ptr @_ZN6google8protobuf20FieldDescriptorProto7_table_E }, %"union.google::protobuf::internal::TcParseTableBase::FieldAux" { ptr @_ZN6google8protobuf14MessageOptions7_table_E }, %"union.google::protobuf::internal::TcParseTableBase::FieldAux" { ptr @_ZN6google8protobuf20OneofDescriptorProto7_table_E }, %"union.google::protobuf::internal::TcParseTableBase::FieldAux" { ptr @_ZN6google8protobuf29DescriptorProto_ReservedRange7_table_E }] }, %"struct.std::array.97" { [65 x i8] c"\1F\04\00\00\00\00\00\00\00\00\0D\00\00\00\00\00google.protobuf.DescriptorProtonamereserved_name\00" } }, comdat, align 8
@.str.10 = private unnamed_addr constant [37 x i8] c"google.protobuf.DescriptorProto.name\00", align 1
@.str.11 = private unnamed_addr constant [46 x i8] c"google.protobuf.DescriptorProto.reserved_name\00", align 1
@_ZZNK6google8protobuf33ExtensionRangeOptions_Declaration12GetClassDataEvE6_data_ = internal constant { ptr, i32, i8, ptr, ptr } { ptr null, i32 20, i8 0, ptr @_ZN6google8protobuf33ExtensionRangeOptions_Declaration9MergeImplERNS0_11MessageLiteERKS2_, ptr @_ZN6google8protobuf7Message18kDescriptorMethodsE }, align 8
@_ZN6google8protobuf33ExtensionRangeOptions_Declaration7_table_E = weak_odr global { %"struct.google::protobuf::internal::TcParseTableBase", %"struct.std::array.100", %"struct.std::array.84", %"struct.std::array.101", %"struct.std::array.149" } { %"struct.google::protobuf::internal::TcParseTableBase" { i16 16, i16 0, i32 6, i8 56, i16 176, i32 -56, i32 180, i16 5, i16 0, i32 240, ptr @_ZN6google8protobuf52_ExtensionRangeOptions_Declaration_default_instance_E, ptr @_ZN6google8protobuf8internal8TcParser15GenericFallbackEPNS0_11MessageLiteEPKcPNS1_12ParseContextENS1_11TcFieldDataEPKNS1_16TcParseTableBaseEm }, %"struct.std::array.100" { [8 x %"struct.google::protobuf::internal::TcParseTableBase::FastFieldEntry"] [%"struct.google::protobuf::internal::TcParseTableBase::FastFieldEntry" { %"struct.std::atomic.81" { %"struct.std::__atomic_base.82" { ptr @_ZN6google8protobuf8internal8TcParser9MiniParseEPNS0_11MessageLiteEPKcPNS1_12ParseContextENS1_11TcFieldDataEPKNS1_16TcParseTableBaseEm } }, %"struct.google::protobuf::internal::TcFieldData" zeroinitializer }, %"struct.google::protobuf::internal::TcParseTableBase::FastFieldEntry" { %"struct.std::atomic.81" { %"struct.std::__atomic_base.82" { ptr @_ZN6google8protobuf8internal8TcParser9FastV32S1EPNS0_11MessageLiteEPKcPNS1_12ParseContextENS1_11TcFieldDataEPKNS1_16TcParseTableBaseEm } }, %"struct.google::protobuf::internal::TcFieldData" { %union.anon.83 { i64 11258999068557320 } } }, %"struct.google::protobuf::internal::TcParseTableBase::FastFieldEntry" { %"struct.std::atomic.81" { %"struct.std::__atomic_base.82" { ptr @_ZN6google8protobuf8internal8TcParser7FastSS1EPNS0_11MessageLiteEPKcPNS1_12ParseContextENS1_11TcFieldDataEPKNS1_16TcParseTableBaseEm } }, %"struct.google::protobuf::internal::TcFieldData" { %union.anon.83 { i64 6755399441055762 } } }, %"struct.google::protobuf::internal::TcParseTableBase::FastFieldEntry" { %"struct.std::atomic.81" { %"struct.std::__atomic_base.82" { ptr @_ZN6google8protobuf8internal8TcParser7FastSS1EPNS0_11MessageLiteEPKcPNS1_12ParseContextENS1_11TcFieldDataEPKNS1_16TcParseTableBaseEm } }, %"struct.google::protobuf::internal::TcFieldData" { %union.anon.83 { i64 9007199254806554 } } }, %"struct.google::protobuf::internal::TcParseTableBase::FastFieldEntry" { %"struct.std::atomic.81" { %"struct.std::__atomic_base.82" { ptr @_ZN6google8protobuf8internal8TcParser9MiniParseEPNS0_11MessageLiteEPKcPNS1_12ParseContextENS1_11TcFieldDataEPKNS1_16TcParseTableBaseEm } }, %"struct.google::protobuf::internal::TcFieldData" zeroinitializer }, %"struct.google::protobuf::internal::TcParseTableBase::FastFieldEntry" { %"struct.std::atomic.81" { %"struct.std::__atomic_base.82" { ptr @_ZN6google8protobuf8internal8TcParser8FastV8S1EPNS0_11MessageLiteEPKcPNS1_12ParseContextENS1_11TcFieldDataEPKNS1_16TcParseTableBaseEm } }, %"struct.google::protobuf::internal::TcFieldData" { %union.anon.83 { i64 12384898975465512 } } }, %"struct.google::protobuf::internal::TcParseTableBase::FastFieldEntry" { %"struct.std::atomic.81" { %"struct.std::__atomic_base.82" { ptr @_ZN6google8protobuf8internal8TcParser8FastV8S1EPNS0_11MessageLiteEPKcPNS1_12ParseContextENS1_11TcFieldDataEPKNS1_16TcParseTableBaseEm } }, %"struct.google::protobuf::internal::TcFieldData" { %union.anon.83 { i64 12666373952241712 } } }, %"struct.google::protobuf::internal::TcParseTableBase::FastFieldEntry" { %"struct.std::atomic.81" { %"struct.std::__atomic_base.82" { ptr @_ZN6google8protobuf8internal8TcParser9MiniParseEPNS0_11MessageLiteEPKcPNS1_12ParseContextENS1_11TcFieldDataEPKNS1_16TcParseTableBaseEm } }, %"struct.google::protobuf::internal::TcFieldData" zeroinitializer }] }, %"struct.std::array.84" { [2 x i16] [i16 -1, i16 -1] }, %"struct.std::array.101" { [5 x %"struct.google::protobuf::internal::TcParseTableBase::FieldEntry"] [%"struct.google::protobuf::internal::TcParseTableBase::FieldEntry" { i32 40, i32 130, i16 0, i16 4241 }, %"struct.google::protobuf::internal::TcParseTableBase::FieldEntry" { i32 24, i32 128, i16 0, i16 2581 }, %"struct.google::protobuf::internal::TcParseTableBase::FieldEntry" { i32 32, i32 129, i16 0, i16 2581 }, %"struct.google::protobuf::internal::TcParseTableBase::FieldEntry" { i32 44, i32 131, i16 0, i16 17 }, %"struct.google::protobuf::internal::TcParseTableBase::FieldEntry" { i32 45, i32 132, i16 0, i16 17 }] }, %"struct.std::array.149" { [71 x i8] c"1\00\09\04\00\00\00\00google.protobuf.ExtensionRangeOptions.Declarationfull_nametype\00" } }, comdat, align 8
@.str.13 = private unnamed_addr constant [60 x i8] c"google.protobuf.ExtensionRangeOptions.Declaration.full_name\00", align 1
@.str.14 = private unnamed_addr constant [55 x i8] c"google.protobuf.ExtensionRangeOptions.Declaration.type\00", align 1
@_ZZNK6google8protobuf21ExtensionRangeOptions12GetClassDataEvE6_data_ = internal constant { ptr, i32, i8, ptr, ptr } { ptr null, i32 44, i8 0, ptr @_ZN6google8protobuf21ExtensionRangeOptions9MergeImplERNS0_11MessageLiteERKS2_, ptr @_ZN6google8protobuf7Message18kDescriptorMethodsE }, align 8
@_ZN6google8protobuf21ExtensionRangeOptions7_table_E = weak_odr global { %"struct.google::protobuf::internal::TcParseTableBase", %"struct.std::array.100", %"struct.std::array.116", %"struct.std::array.131", { <{ %"union.google::protobuf::internal::TcParseTableBase::FieldAux", { %struct.anon, [4 x i8] }, %"union.google::protobuf::internal::TcParseTableBase::FieldAux", %"union.google::protobuf::internal::TcParseTableBase::FieldAux" }> }, %"struct.std::array.87" } { %"struct.google::protobuf::internal::TcParseTableBase" { i16 40, i16 16, i32 999, i8 56, i16 176, i32 -7, i32 200, i16 4, i16 4, i32 248, ptr @_ZN6google8protobuf40_ExtensionRangeOptions_default_instance_E, ptr @_ZN6google8protobuf8internal8TcParser15GenericFallbackEPNS0_11MessageLiteEPKcPNS1_12ParseContextENS1_11TcFieldDataEPKNS1_16TcParseTableBaseEm }, %"struct.std::array.100" { [8 x %"struct.google::protobuf::internal::TcParseTableBase::FastFieldEntry"] [%"struct.google::protobuf::internal::TcParseTableBase::FastFieldEntry" { %"struct.std::atomic.81" { %"struct.std::__atomic_base.82" { ptr @_ZN6google8protobuf8internal8TcParser9MiniParseEPNS0_11MessageLiteEPKcPNS1_12ParseContextENS1_11TcFieldDataEPKNS1_16TcParseTableBaseEm } }, %"struct.google::protobuf::internal::TcFieldData" zeroinitializer }, %"struct.google::protobuf::internal::TcParseTableBase::FastFieldEntry" { %"struct.std::atomic.81" { %"struct.std::__atomic_base.82" { ptr @_ZN6google8protobuf8internal8TcParser9MiniParseEPNS0_11MessageLiteEPKcPNS1_12ParseContextENS1_11TcFieldDataEPKNS1_16TcParseTableBaseEm } }, %"struct.google::protobuf::internal::TcFieldData" zeroinitializer }, %"struct.google::protobuf::internal::TcParseTableBase::FastFieldEntry" { %"struct.std::atomic.81" { %"struct.std::__atomic_base.82" { ptr @_ZN6google8protobuf8internal8TcParser8FastMtR1EPNS0_11MessageLiteEPKcPNS1_12ParseContextENS1_11TcFieldDataEPKNS1_16TcParseTableBaseEm } }, %"struct.google::protobuf::internal::TcFieldData" { %union.anon.83 { i64 13510798886240274 } } }, %"struct.google::protobuf::internal::TcParseTableBase::FastFieldEntry" { %"struct.std::atomic.81" { %"struct.std::__atomic_base.82" { ptr @_ZN6google8protobuf8internal8TcParser9FastEr0S1EPNS0_11MessageLiteEPKcPNS1_12ParseContextENS1_11TcFieldDataEPKNS1_16TcParseTableBaseEm } }, %"struct.google::protobuf::internal::TcFieldData" { %union.anon.83 { i64 29273397594751000 } } }, %"struct.google::protobuf::internal::TcParseTableBase::FastFieldEntry" { %"struct.std::atomic.81" { %"struct.std::__atomic_base.82" { ptr @_ZN6google8protobuf8internal8TcParser9MiniParseEPNS0_11MessageLiteEPKcPNS1_12ParseContextENS1_11TcFieldDataEPKNS1_16TcParseTableBaseEm } }, %"struct.google::protobuf::internal::TcFieldData" zeroinitializer }, %"struct.google::protobuf::internal::TcParseTableBase::FastFieldEntry" { %"struct.std::atomic.81" { %"struct.std::__atomic_base.82" { ptr @_ZN6google8protobuf8internal8TcParser9MiniParseEPNS0_11MessageLiteEPKcPNS1_12ParseContextENS1_11TcFieldDataEPKNS1_16TcParseTableBaseEm } }, %"struct.google::protobuf::internal::TcFieldData" zeroinitializer }, %"struct.google::protobuf::internal::TcParseTableBase::FastFieldEntry" { %"struct.std::atomic.81" { %"struct.std::__atomic_base.82" { ptr @_ZN6google8protobuf8internal8TcParser9MiniParseEPNS0_11MessageLiteEPKcPNS1_12ParseContextENS1_11TcFieldDataEPKNS1_16TcParseTableBaseEm } }, %"struct.google::protobuf::internal::TcFieldData" zeroinitializer }, %"struct.google::protobuf::internal::TcParseTableBase::FastFieldEntry" { %"struct.std::atomic.81" { %"struct.std::__atomic_base.82" { ptr @_ZN6google8protobuf8internal8TcParser8FastMtR2EPNS0_11MessageLiteEPKcPNS1_12ParseContextENS1_11TcFieldDataEPKNS1_16TcParseTableBaseEm } }, %"struct.google::protobuf::internal::TcFieldData" { %union.anon.83 { i64 20266198377643706 } } }] }, %"struct.std::array.116" { [12 x i16] [i16 50, i16 0, i16 1, i16 -2, i16 2, i16 999, i16 0, i16 1, i16 -2, i16 3, i16 -1, i16 -1] }, %"struct.std::array.131" { [4 x %"struct.google::protobuf::internal::TcParseTableBase::FieldEntry"] [%"struct.google::protobuf::internal::TcParseTableBase::FieldEntry" { i32 48, i32 -1, i16 0, i16 1062 }, %"struct.google::protobuf::internal::TcParseTableBase::FieldEntry" { i32 104, i32 321, i16 1, i16 7825 }, %"struct.google::protobuf::internal::TcParseTableBase::FieldEntry" { i32 96, i32 320, i16 2, i16 1046 }, %"struct.google::protobuf::internal::TcParseTableBase::FieldEntry" { i32 72, i32 -1, i16 3, i16 1062 }] }, { <{ %"union.google::protobuf::internal::TcParseTableBase::FieldAux", { %struct.anon, [4 x i8] }, %"union.google::protobuf::internal::TcParseTableBase::FieldAux", %"union.google::protobuf::internal::TcParseTableBase::FieldAux" }> } { <{ %"union.google::protobuf::internal::TcParseTableBase::FieldAux", { %struct.anon, [4 x i8] }, %"union.google::protobuf::internal::TcParseTableBase::FieldAux", %"union.google::protobuf::internal::TcParseTableBase::FieldAux" }> <{ %"union.google::protobuf::internal::TcParseTableBase::FieldAux" { ptr @_ZN6google8protobuf33ExtensionRangeOptions_Declaration7_table_E }, { %struct.anon, [4 x i8] } { %struct.anon { i16 0, i16 2 }, [4 x i8] undef }, %"union.google::protobuf::internal::TcParseTableBase::FieldAux" { ptr @_ZN6google8protobuf10FeatureSet7_table_E }, %"union.google::protobuf::internal::TcParseTableBase::FieldAux" { ptr @_ZN6google8protobuf19UninterpretedOption7_table_E } }> }, %"struct.std::array.87" zeroinitializer }, comdat, align 8
@_ZZNK6google8protobuf20FieldDescriptorProto12GetClassDataEvE6_data_ = internal constant { ptr, i32, i8, ptr, ptr } { ptr null, i32 20, i8 0, ptr @_ZN6google8protobuf20FieldDescriptorProto9MergeImplERNS0_11MessageLiteERKS2_, ptr @_ZN6google8protobuf7Message18kDescriptorMethodsE }, align 8
@_ZN6google8protobuf20FieldDescriptorProto7_table_E = weak_odr global { %"struct.google::protobuf::internal::TcParseTableBase", %"struct.std::array.89", %"struct.std::array.84", %"struct.std::array.112", { <{ { %struct.anon, [4 x i8] }, { %struct.anon, [4 x i8] }, %"union.google::protobuf::internal::TcParseTableBase::FieldAux" }> }, %"struct.std::array.113" } { %"struct.google::protobuf::internal::TcParseTableBase" { i16 16, i16 0, i32 17, i8 120, i16 304, i32 -66560, i32 308, i16 11, i16 3, i32 440, ptr @_ZN6google8protobuf39_FieldDescriptorProto_default_instance_E, ptr @_ZN6google8protobuf8internal8TcParser15GenericFallbackEPNS0_11MessageLiteEPKcPNS1_12ParseContextENS1_11TcFieldDataEPKNS1_16TcParseTableBaseEm }, %"struct.std::array.89" { [16 x %"struct.google::protobuf::internal::TcParseTableBase::FastFieldEntry"] [%"struct.google::protobuf::internal::TcParseTableBase::FastFieldEntry" { %"struct.std::atomic.81" { %"struct.std::__atomic_base.82" { ptr @_ZN6google8protobuf8internal8TcParser9MiniParseEPNS0_11MessageLiteEPKcPNS1_12ParseContextENS1_11TcFieldDataEPKNS1_16TcParseTableBaseEm } }, %"struct.google::protobuf::internal::TcFieldData" zeroinitializer }, %"struct.google::protobuf::internal::TcParseTableBase::FastFieldEntry" { %"struct.std::atomic.81" { %"struct.std::__atomic_base.82" { ptr @_ZN6google8protobuf8internal8TcParser7FastSS1EPNS0_11MessageLiteEPKcPNS1_12ParseContextENS1_11TcFieldDataEPKNS1_16TcParseTableBaseEm } }, %"struct.google::protobuf::internal::TcFieldData" { %union.anon.83 { i64 6755399441055754 } } }, %"struct.google::protobuf::internal::TcParseTableBase::FastFieldEntry" { %"struct.std::atomic.81" { %"struct.std::__atomic_base.82" { ptr @_ZN6google8protobuf8internal8TcParser7FastSS1EPNS0_11MessageLiteEPKcPNS1_12ParseContextENS1_11TcFieldDataEPKNS1_16TcParseTableBaseEm } }, %"struct.google::protobuf::internal::TcFieldData" { %union.anon.83 { i64 9007199254806546 } } }, %"struct.google::protobuf::internal::TcParseTableBase::FastFieldEntry" { %"struct.std::atomic.81" { %"struct.std::__atomic_base.82" { ptr @_ZN6google8protobuf8internal8TcParser9FastV32S1EPNS0_11MessageLiteEPKcPNS1_12ParseContextENS1_11TcFieldDataEPKNS1_16TcParseTableBaseEm } }, %"struct.google::protobuf::internal::TcFieldData" { %union.anon.83 { i64 20266198323560472 } } }, %"struct.google::protobuf::internal::TcParseTableBase::FastFieldEntry" { %"struct.std::atomic.81" { %"struct.std::__atomic_base.82" { ptr @_ZN6google8protobuf8internal8TcParser9FastEr1S1EPNS0_11MessageLiteEPKcPNS1_12ParseContextENS1_11TcFieldDataEPKNS1_16TcParseTableBaseEm } }, %"struct.google::protobuf::internal::TcFieldData" { %union.anon.83 { i64 23643898094616608 } } }, %"struct.google::protobuf::internal::TcParseTableBase::FastFieldEntry" { %"struct.std::atomic.81" { %"struct.std::__atomic_base.82" { ptr @_ZN6google8protobuf8internal8TcParser9FastEr1S1EPNS0_11MessageLiteEPKcPNS1_12ParseContextENS1_11TcFieldDataEPKNS1_16TcParseTableBaseEm } }, %"struct.google::protobuf::internal::TcFieldData" { %union.anon.83 { i64 24769798253183016 } } }, %"struct.google::protobuf::internal::TcParseTableBase::FastFieldEntry" { %"struct.std::atomic.81" { %"struct.std::__atomic_base.82" { ptr @_ZN6google8protobuf8internal8TcParser7FastSS1EPNS0_11MessageLiteEPKcPNS1_12ParseContextENS1_11TcFieldDataEPKNS1_16TcParseTableBaseEm } }, %"struct.google::protobuf::internal::TcFieldData" { %union.anon.83 { i64 11258999068557362 } } }, %"struct.google::protobuf::internal::TcParseTableBase::FastFieldEntry" { %"struct.std::atomic.81" { %"struct.std::__atomic_base.82" { ptr @_ZN6google8protobuf8internal8TcParser7FastSS1EPNS0_11MessageLiteEPKcPNS1_12ParseContextENS1_11TcFieldDataEPKNS1_16TcParseTableBaseEm } }, %"struct.google::protobuf::internal::TcFieldData" { %union.anon.83 { i64 13510798882308154 } } }, %"struct.google::protobuf::internal::TcParseTableBase::FastFieldEntry" { %"struct.std::atomic.81" { %"struct.std::__atomic_base.82" { ptr @_ZN6google8protobuf8internal8TcParser8FastMtS1EPNS0_11MessageLiteEPKcPNS1_12ParseContextENS1_11TcFieldDataEPKNS1_16TcParseTableBaseEm } }, %"struct.google::protobuf::internal::TcFieldData" { %union.anon.83 { i64 18014398543364162 } } }, %"struct.google::protobuf::internal::TcParseTableBase::FastFieldEntry" { %"struct.std::atomic.81" { %"struct.std::__atomic_base.82" { ptr @_ZN6google8protobuf8internal8TcParser9FastV32S1EPNS0_11MessageLiteEPKcPNS1_12ParseContextENS1_11TcFieldDataEPKNS1_16TcParseTableBaseEm } }, %"struct.google::protobuf::internal::TcFieldData" { %union.anon.83 { i64 21392098230468680 } } }, %"struct.google::protobuf::internal::TcParseTableBase::FastFieldEntry" { %"struct.std::atomic.81" { %"struct.std::__atomic_base.82" { ptr @_ZN6google8protobuf8internal8TcParser7FastSS1EPNS0_11MessageLiteEPKcPNS1_12ParseContextENS1_11TcFieldDataEPKNS1_16TcParseTableBaseEm } }, %"struct.google::protobuf::internal::TcFieldData" { %union.anon.83 { i64 15762598696058962 } } }, %"struct.google::protobuf::internal::TcParseTableBase::FastFieldEntry" { %"struct.std::atomic.81" { %"struct.std::__atomic_base.82" { ptr @_ZN6google8protobuf8internal8TcParser9MiniParseEPNS0_11MessageLiteEPKcPNS1_12ParseContextENS1_11TcFieldDataEPKNS1_16TcParseTableBaseEm } }, %"struct.google::protobuf::internal::TcFieldData" zeroinitializer }, %"struct.google::protobuf::internal::TcParseTableBase::FastFieldEntry" { %"struct.std::atomic.81" { %"struct.std::__atomic_base.82" { ptr @_ZN6google8protobuf8internal8TcParser9MiniParseEPNS0_11MessageLiteEPKcPNS1_12ParseContextENS1_11TcFieldDataEPKNS1_16TcParseTableBaseEm } }, %"struct.google::protobuf::internal::TcFieldData" zeroinitializer }, %"struct.google::protobuf::internal::TcParseTableBase::FastFieldEntry" { %"struct.std::atomic.81" { %"struct.std::__atomic_base.82" { ptr @_ZN6google8protobuf8internal8TcParser9MiniParseEPNS0_11MessageLiteEPKcPNS1_12ParseContextENS1_11TcFieldDataEPKNS1_16TcParseTableBaseEm } }, %"struct.google::protobuf::internal::TcFieldData" zeroinitializer }, %"struct.google::protobuf::internal::TcParseTableBase::FastFieldEntry" { %"struct.std::atomic.81" { %"struct.std::__atomic_base.82" { ptr @_ZN6google8protobuf8internal8TcParser9MiniParseEPNS0_11MessageLiteEPKcPNS1_12ParseContextENS1_11TcFieldDataEPKNS1_16TcParseTableBaseEm } }, %"struct.google::protobuf::internal::TcFieldData" zeroinitializer }, %"struct.google::protobuf::internal::TcParseTableBase::FastFieldEntry" { %"struct.std::atomic.81" { %"struct.std::__atomic_base.82" { ptr @_ZN6google8protobuf8internal8TcParser9MiniParseEPNS0_11MessageLiteEPKcPNS1_12ParseContextENS1_11TcFieldDataEPKNS1_16TcParseTableBaseEm } }, %"struct.google::protobuf::internal::TcFieldData" zeroinitializer }] }, %"struct.std::array.84" { [2 x i16] [i16 -1, i16 -1] }, %"struct.std::array.112" { [11 x %"struct.google::protobuf::internal::TcParseTableBase::FieldEntry"] [%"struct.google::protobuf::internal::TcParseTableBase::FieldEntry" { i32 24, i32 128, i16 0, i16 2581 }, %"struct.google::protobuf::internal::TcParseTableBase::FieldEntry" { i32 32, i32 129, i16 0, i16 2581 }, %"struct.google::protobuf::internal::TcParseTableBase::FieldEntry" { i32 72, i32 134, i16 0, i16 4241 }, %"struct.google::protobuf::internal::TcParseTableBase::FieldEntry" { i32 84, i32 137, i16 0, i16 7825 }, %"struct.google::protobuf::internal::TcParseTableBase::FieldEntry" { i32 88, i32 138, i16 1, i16 7825 }, %"struct.google::protobuf::internal::TcParseTableBase::FieldEntry" { i32 40, i32 130, i16 0, i16 2581 }, %"struct.google::protobuf::internal::TcParseTableBase::FieldEntry" { i32 48, i32 131, i16 0, i16 2581 }, %"struct.google::protobuf::internal::TcParseTableBase::FieldEntry" { i32 64, i32 133, i16 2, i16 1046 }, %"struct.google::protobuf::internal::TcParseTableBase::FieldEntry" { i32 76, i32 135, i16 0, i16 4241 }, %"struct.google::protobuf::internal::TcParseTableBase::FieldEntry" { i32 56, i32 132, i16 0, i16 2581 }, %"struct.google::protobuf::internal::TcParseTableBase::FieldEntry" { i32 80, i32 136, i16 0, i16 17 }] }, { <{ { %struct.anon, [4 x i8] }, { %struct.anon, [4 x i8] }, %"union.google::protobuf::internal::TcParseTableBase::FieldAux" }> } { <{ { %struct.anon, [4 x i8] }, { %struct.anon, [4 x i8] }, %"union.google::protobuf::internal::TcParseTableBase::FieldAux" }> <{ { %struct.anon, [4 x i8] } { %struct.anon { i16 1, i16 3 }, [4 x i8] undef }, { %struct.anon, [4 x i8] } { %struct.anon { i16 1, i16 18 }, [4 x i8] undef }, %"union.google::protobuf::internal::TcParseTableBase::FieldAux" { ptr @_ZN6google8protobuf12FieldOptions7_table_E } }> }, %"struct.std::array.113" { [96 x i8] c"$\04\08\00\00\00\09\0D\00\00\09\00\00\00\00\00google.protobuf.FieldDescriptorProtonameextendeetype_namedefault_valuejson_name\00" } }, comdat, align 8
@.str.17 = private unnamed_addr constant [42 x i8] c"google.protobuf.FieldDescriptorProto.name\00", align 1
@.str.18 = private unnamed_addr constant [46 x i8] c"google.protobuf.FieldDescriptorProto.extendee\00", align 1
@.str.19 = private unnamed_addr constant [47 x i8] c"google.protobuf.FieldDescriptorProto.type_name\00", align 1
@.str.20 = private unnamed_addr constant [51 x i8] c"google.protobuf.FieldDescriptorProto.default_value\00", align 1
@.str.21 = private unnamed_addr constant [47 x i8] c"google.protobuf.FieldDescriptorProto.json_name\00", align 1
@_ZZNK6google8protobuf20OneofDescriptorProto12GetClassDataEvE6_data_ = internal constant { ptr, i32, i8, ptr, ptr } { ptr null, i32 20, i8 0, ptr @_ZN6google8protobuf20OneofDescriptorProto9MergeImplERNS0_11MessageLiteERKS2_, ptr @_ZN6google8protobuf7Message18kDescriptorMethodsE }, align 8
@_ZN6google8protobuf20OneofDescriptorProto7_table_E = weak_odr global { %"struct.google::protobuf::internal::TcParseTableBase", %"struct.std::array.135", %"struct.std::array.84", %"struct.std::array.136", %"struct.std::array.86", %"struct.std::array.143" } { %"struct.google::protobuf::internal::TcParseTableBase" { i16 16, i16 0, i32 2, i8 8, i16 80, i32 -4, i32 84, i16 2, i16 1, i32 112, ptr @_ZN6google8protobuf39_OneofDescriptorProto_default_instance_E, ptr @_ZN6google8protobuf8internal8TcParser15GenericFallbackEPNS0_11MessageLiteEPKcPNS1_12ParseContextENS1_11TcFieldDataEPKNS1_16TcParseTableBaseEm }, %"struct.std::array.135" { [2 x %"struct.google::protobuf::internal::TcParseTableBase::FastFieldEntry"] [%"struct.google::protobuf::internal::TcParseTableBase::FastFieldEntry" { %"struct.std::atomic.81" { %"struct.std::__atomic_base.82" { ptr @_ZN6google8protobuf8internal8TcParser8FastMtS1EPNS0_11MessageLiteEPKcPNS1_12ParseContextENS1_11TcFieldDataEPKNS1_16TcParseTableBaseEm } }, %"struct.google::protobuf::internal::TcFieldData" { %union.anon.83 { i64 9007199254806546 } } }, %"struct.google::protobuf::internal::TcParseTableBase::FastFieldEntry" { %"struct.std::atomic.81" { %"struct.std::__atomic_base.82" { ptr @_ZN6google8protobuf8internal8TcParser7FastSS1EPNS0_11MessageLiteEPKcPNS1_12ParseContextENS1_11TcFieldDataEPKNS1_16TcParseTableBaseEm } }, %"struct.google::protobuf::internal::TcFieldData" { %union.anon.83 { i64 6755399441055754 } } }] }, %"struct.std::array.84" { [2 x i16] [i16 -1, i16 -1] }, %"struct.std::array.136" { [2 x %"struct.google::protobuf::internal::TcParseTableBase::FieldEntry"] [%"struct.google::protobuf::internal::TcParseTableBase::FieldEntry" { i32 24, i32 128, i16 0, i16 2581 }, %"struct.google::protobuf::internal::TcParseTableBase::FieldEntry" { i32 32, i32 129, i16 0, i16 1046 }] }, %"struct.std::array.86" { [1 x %"union.google::protobuf::internal::TcParseTableBase::FieldAux"] [%"union.google::protobuf::internal::TcParseTableBase::FieldAux" { ptr @_ZN6google8protobuf12OneofOptions7_table_E }] }, %"struct.std::array.143" { [49 x i8] c"$\04\00\00\00\00\00\00google.protobuf.OneofDescriptorProtoname\00" } }, comdat, align 8
@.str.23 = private unnamed_addr constant [42 x i8] c"google.protobuf.OneofDescriptorProto.name\00", align 1
@_ZZNK6google8protobuf37EnumDescriptorProto_EnumReservedRange12GetClassDataEvE6_data_ = internal constant { ptr, i32, i8, ptr, ptr } { ptr null, i32 20, i8 0, ptr @_ZN6google8protobuf37EnumDescriptorProto_EnumReservedRange9MergeImplERNS0_11MessageLiteERKS2_, ptr @_ZN6google8protobuf7Message18kDescriptorMethodsE }, align 8
@_ZN6google8protobuf37EnumDescriptorProto_EnumReservedRange7_table_E = weak_odr global { %"struct.google::protobuf::internal::TcParseTableBase", %"struct.std::array.135", %"struct.std::array.84", %"struct.std::array.136", %"struct.std::array.87" } { %"struct.google::protobuf::internal::TcParseTableBase" { i16 16, i16 0, i32 2, i8 8, i16 80, i32 -4, i32 84, i16 2, i16 0, i32 108, ptr @_ZN6google8protobuf56_EnumDescriptorProto_EnumReservedRange_default_instance_E, ptr @_ZN6google8protobuf8internal8TcParser15GenericFallbackEPNS0_11MessageLiteEPKcPNS1_12ParseContextENS1_11TcFieldDataEPKNS1_16TcParseTableBaseEm }, %"struct.std::array.135" { [2 x %"struct.google::protobuf::internal::TcParseTableBase::FastFieldEntry"] [%"struct.google::protobuf::internal::TcParseTableBase::FastFieldEntry" { %"struct.std::atomic.81" { %"struct.std::__atomic_base.82" { ptr @_ZN6google8protobuf8internal8TcParser9FastV32S1EPNS0_11MessageLiteEPKcPNS1_12ParseContextENS1_11TcFieldDataEPKNS1_16TcParseTableBaseEm } }, %"struct.google::protobuf::internal::TcFieldData" { %union.anon.83 { i64 7881299347963920 } } }, %"struct.google::protobuf::internal::TcParseTableBase::FastFieldEntry" { %"struct.std::atomic.81" { %"struct.std::__atomic_base.82" { ptr @_ZN6google8protobuf8internal8TcParser9FastV32S1EPNS0_11MessageLiteEPKcPNS1_12ParseContextENS1_11TcFieldDataEPKNS1_16TcParseTableBaseEm } }, %"struct.google::protobuf::internal::TcFieldData" { %union.anon.83 { i64 6755399441055752 } } }] }, %"struct.std::array.84" { [2 x i16] [i16 -1, i16 -1] }, %"struct.std::array.136" { [2 x %"struct.google::protobuf::internal::TcParseTableBase::FieldEntry"] [%"struct.google::protobuf::internal::TcParseTableBase::FieldEntry" { i32 24, i32 128, i16 0, i16 4241 }, %"struct.google::protobuf::internal::TcParseTableBase::FieldEntry" { i32 28, i32 129, i16 0, i16 4241 }] }, %"struct.std::array.87" zeroinitializer }, comdat, align 8
@_ZZNK6google8protobuf19EnumDescriptorProto12GetClassDataEvE6_data_ = internal constant { ptr, i32, i8, ptr, ptr } { ptr null, i32 20, i8 0, ptr @_ZN6google8protobuf19EnumDescriptorProto9MergeImplERNS0_11MessageLiteERKS2_, ptr @_ZN6google8protobuf7Message18kDescriptorMethodsE }, align 8
@_ZN6google8protobuf19EnumDescriptorProto7_table_E = weak_odr global { %"struct.google::protobuf::internal::TcParseTableBase", %"struct.std::array.100", %"struct.std::array.84", %"struct.std::array.101", %"struct.std::array.102", %"struct.std::array.103" } { %"struct.google::protobuf::internal::TcParseTableBase" { i16 16, i16 0, i32 5, i8 56, i16 176, i32 -32, i32 180, i16 5, i16 3, i32 240, ptr @_ZN6google8protobuf38_EnumDescriptorProto_default_instance_E, ptr @_ZN6google8protobuf8internal8TcParser15GenericFallbackEPNS0_11MessageLiteEPKcPNS1_12ParseContextENS1_11TcFieldDataEPKNS1_16TcParseTableBaseEm }, %"struct.std::array.100" { [8 x %"struct.google::protobuf::internal::TcParseTableBase::FastFieldEntry"] [%"struct.google::protobuf::internal::TcParseTableBase::FastFieldEntry" { %"struct.std::atomic.81" { %"struct.std::__atomic_base.82" { ptr @_ZN6google8protobuf8internal8TcParser9MiniParseEPNS0_11MessageLiteEPKcPNS1_12ParseContextENS1_11TcFieldDataEPKNS1_16TcParseTableBaseEm } }, %"struct.google::protobuf::internal::TcFieldData" zeroinitializer }, %"struct.google::protobuf::internal::TcParseTableBase::FastFieldEntry" { %"struct.std::atomic.81" { %"struct.std::__atomic_base.82" { ptr @_ZN6google8protobuf8internal8TcParser7FastSS1EPNS0_11MessageLiteEPKcPNS1_12ParseContextENS1_11TcFieldDataEPKNS1_16TcParseTableBaseEm } }, %"struct.google::protobuf::internal::TcFieldData" { %union.anon.83 { i64 27021597764222986 } } }, %"struct.google::protobuf::internal::TcParseTableBase::FastFieldEntry" { %"struct.std::atomic.81" { %"struct.std::__atomic_base.82" { ptr @_ZN6google8protobuf8internal8TcParser8FastMtR1EPNS0_11MessageLiteEPKcPNS1_12ParseContextENS1_11TcFieldDataEPKNS1_16TcParseTableBaseEm } }, %"struct.google::protobuf::internal::TcFieldData" { %union.anon.83 { i64 6755399445184530 } } }, %"struct.google::protobuf::internal::TcParseTableBase::FastFieldEntry" { %"struct.std::atomic.81" { %"struct.std::__atomic_base.82" { ptr @_ZN6google8protobuf8internal8TcParser8FastMtS1EPNS0_11MessageLiteEPKcPNS1_12ParseContextENS1_11TcFieldDataEPKNS1_16TcParseTableBaseEm } }, %"struct.google::protobuf::internal::TcFieldData" { %union.anon.83 { i64 29273397594751002 } } }, %"struct.google::protobuf::internal::TcParseTableBase::FastFieldEntry" { %"struct.std::atomic.81" { %"struct.std::__atomic_base.82" { ptr @_ZN6google8protobuf8internal8TcParser8FastMtR1EPNS0_11MessageLiteEPKcPNS1_12ParseContextENS1_11TcFieldDataEPKNS1_16TcParseTableBaseEm } }, %"struct.google::protobuf::internal::TcFieldData" { %union.anon.83 { i64 13510798919794722 } } }, %"struct.google::protobuf::internal::TcParseTableBase::FastFieldEntry" { %"struct.std::atomic.81" { %"struct.std::__atomic_base.82" { ptr @_ZN6google8protobuf8internal8TcParser7FastSR1EPNS0_11MessageLiteEPKcPNS1_12ParseContextENS1_11TcFieldDataEPKNS1_16TcParseTableBaseEm } }, %"struct.google::protobuf::internal::TcFieldData" { %union.anon.83 { i64 20266198327296042 } } }, %"struct.google::protobuf::internal::TcParseTableBase::FastFieldEntry" { %"struct.std::atomic.81" { %"struct.std::__atomic_base.82" { ptr @_ZN6google8protobuf8internal8TcParser9MiniParseEPNS0_11MessageLiteEPKcPNS1_12ParseContextENS1_11TcFieldDataEPKNS1_16TcParseTableBaseEm } }, %"struct.google::protobuf::internal::TcFieldData" zeroinitializer }, %"struct.google::protobuf::internal::TcParseTableBase::FastFieldEntry" { %"struct.std::atomic.81" { %"struct.std::__atomic_base.82" { ptr @_ZN6google8protobuf8internal8TcParser9MiniParseEPNS0_11MessageLiteEPKcPNS1_12ParseContextENS1_11TcFieldDataEPKNS1_16TcParseTableBaseEm } }, %"struct.google::protobuf::internal::TcFieldData" zeroinitializer }] }, %"struct.std::array.84" { [2 x i16] [i16 -1, i16 -1] }, %"struct.std::array.101" { [5 x %"struct.google::protobuf::internal::TcParseTableBase::FieldEntry"] [%"struct.google::protobuf::internal::TcParseTableBase::FieldEntry" { i32 96, i32 128, i16 0, i16 2581 }, %"struct.google::protobuf::internal::TcParseTableBase::FieldEntry" { i32 24, i32 -1, i16 0, i16 1062 }, %"struct.google::protobuf::internal::TcParseTableBase::FieldEntry" { i32 104, i32 129, i16 1, i16 1046 }, %"struct.google::protobuf::internal::TcParseTableBase::FieldEntry" { i32 48, i32 -1, i16 2, i16 1062 }, %"struct.google::protobuf::internal::TcParseTableBase::FieldEntry" { i32 72, i32 -1, i16 0, i16 2853 }] }, %"struct.std::array.102" { [3 x %"union.google::protobuf::internal::TcParseTableBase::FieldAux"] [%"union.google::protobuf::internal::TcParseTableBase::FieldAux" { ptr @_ZN6google8protobuf24EnumValueDescriptorProto7_table_E }, %"union.google::protobuf::internal::TcParseTableBase::FieldAux" { ptr @_ZN6google8protobuf11EnumOptions7_table_E }, %"union.google::protobuf::internal::TcParseTableBase::FieldAux" { ptr @_ZN6google8protobuf37EnumDescriptorProto_EnumReservedRange7_table_E }] }, %"struct.std::array.103" { [61 x i8] c"#\04\00\00\00\0D\00\00google.protobuf.EnumDescriptorProtonamereserved_name\00" } }, comdat, align 8
@.str.26 = private unnamed_addr constant [41 x i8] c"google.protobuf.EnumDescriptorProto.name\00", align 1
@.str.27 = private unnamed_addr constant [50 x i8] c"google.protobuf.EnumDescriptorProto.reserved_name\00", align 1
@_ZZNK6google8protobuf24EnumValueDescriptorProto12GetClassDataEvE6_data_ = internal constant { ptr, i32, i8, ptr, ptr } { ptr null, i32 20, i8 0, ptr @_ZN6google8protobuf24EnumValueDescriptorProto9MergeImplERNS0_11MessageLiteERKS2_, ptr @_ZN6google8protobuf7Message18kDescriptorMethodsE }, align 8
@_ZN6google8protobuf24EnumValueDescriptorProto7_table_E = weak_odr global { %"struct.google::protobuf::internal::TcParseTableBase", %"struct.std::array.106", %"struct.std::array.84", %"struct.std::array.107", %"struct.std::array.86", %"struct.std::array.165" } { %"struct.google::protobuf::internal::TcParseTableBase" { i16 16, i16 0, i32 3, i8 24, i16 112, i32 -8, i32 116, i16 3, i16 1, i32 152, ptr @_ZN6google8protobuf43_EnumValueDescriptorProto_default_instance_E, ptr @_ZN6google8protobuf8internal8TcParser15GenericFallbackEPNS0_11MessageLiteEPKcPNS1_12ParseContextENS1_11TcFieldDataEPKNS1_16TcParseTableBaseEm }, %"struct.std::array.106" { [4 x %"struct.google::protobuf::internal::TcParseTableBase::FastFieldEntry"] [%"struct.google::protobuf::internal::TcParseTableBase::FastFieldEntry" { %"struct.std::atomic.81" { %"struct.std::__atomic_base.82" { ptr @_ZN6google8protobuf8internal8TcParser9MiniParseEPNS0_11MessageLiteEPKcPNS1_12ParseContextENS1_11TcFieldDataEPKNS1_16TcParseTableBaseEm } }, %"struct.google::protobuf::internal::TcFieldData" zeroinitializer }, %"struct.google::protobuf::internal::TcParseTableBase::FastFieldEntry" { %"struct.std::atomic.81" { %"struct.std::__atomic_base.82" { ptr @_ZN6google8protobuf8internal8TcParser7FastSS1EPNS0_11MessageLiteEPKcPNS1_12ParseContextENS1_11TcFieldDataEPKNS1_16TcParseTableBaseEm } }, %"struct.google::protobuf::internal::TcFieldData" { %union.anon.83 { i64 6755399441055754 } } }, %"struct.google::protobuf::internal::TcParseTableBase::FastFieldEntry" { %"struct.std::atomic.81" { %"struct.std::__atomic_base.82" { ptr @_ZN6google8protobuf8internal8TcParser9FastV32S1EPNS0_11MessageLiteEPKcPNS1_12ParseContextENS1_11TcFieldDataEPKNS1_16TcParseTableBaseEm } }, %"struct.google::protobuf::internal::TcFieldData" { %union.anon.83 { i64 11258999068557328 } } }, %"struct.google::protobuf::internal::TcParseTableBase::FastFieldEntry" { %"struct.std::atomic.81" { %"struct.std::__atomic_base.82" { ptr @_ZN6google8protobuf8internal8TcParser8FastMtS1EPNS0_11MessageLiteEPKcPNS1_12ParseContextENS1_11TcFieldDataEPKNS1_16TcParseTableBaseEm } }, %"struct.google::protobuf::internal::TcFieldData" { %union.anon.83 { i64 9007199254806554 } } }] }, %"struct.std::array.84" { [2 x i16] [i16 -1, i16 -1] }, %"struct.std::array.107" { [3 x %"struct.google::protobuf::internal::TcParseTableBase::FieldEntry"] [%"struct.google::protobuf::internal::TcParseTableBase::FieldEntry" { i32 24, i32 128, i16 0, i16 2581 }, %"struct.google::protobuf::internal::TcParseTableBase::FieldEntry" { i32 40, i32 130, i16 0, i16 4241 }, %"struct.google::protobuf::internal::TcParseTableBase::FieldEntry" { i32 32, i32 129, i16 0, i16 1046 }] }, %"struct.std::array.86" { [1 x %"union.google::protobuf::internal::TcParseTableBase::FieldAux"] [%"union.google::protobuf::internal::TcParseTableBase::FieldAux" { ptr @_ZN6google8protobuf16EnumValueOptions7_table_E }] }, %"struct.std::array.165" { [53 x i8] c"(\04\00\00\00\00\00\00google.protobuf.EnumValueDescriptorProtoname\00" } }, comdat, align 8
@.str.29 = private unnamed_addr constant [46 x i8] c"google.protobuf.EnumValueDescriptorProto.name\00", align 1
@_ZZNK6google8protobuf22ServiceDescriptorProto12GetClassDataEvE6_data_ = internal constant { ptr, i32, i8, ptr, ptr } { ptr null, i32 20, i8 0, ptr @_ZN6google8protobuf22ServiceDescriptorProto9MergeImplERNS0_11MessageLiteERKS2_, ptr @_ZN6google8protobuf7Message18kDescriptorMethodsE }, align 8
@_ZN6google8protobuf22ServiceDescriptorProto7_table_E = weak_odr global { %"struct.google::protobuf::internal::TcParseTableBase", %"struct.std::array.106", %"struct.std::array.84", %"struct.std::array.107", %"struct.std::array.108", %"struct.std::array.109" } { %"struct.google::protobuf::internal::TcParseTableBase" { i16 16, i16 0, i32 3, i8 24, i16 112, i32 -8, i32 116, i16 3, i16 2, i32 152, ptr @_ZN6google8protobuf41_ServiceDescriptorProto_default_instance_E, ptr @_ZN6google8protobuf8internal8TcParser15GenericFallbackEPNS0_11MessageLiteEPKcPNS1_12ParseContextENS1_11TcFieldDataEPKNS1_16TcParseTableBaseEm }, %"struct.std::array.106" { [4 x %"struct.google::protobuf::internal::TcParseTableBase::FastFieldEntry"] [%"struct.google::protobuf::internal::TcParseTableBase::FastFieldEntry" { %"struct.std::atomic.81" { %"struct.std::__atomic_base.82" { ptr @_ZN6google8protobuf8internal8TcParser9MiniParseEPNS0_11MessageLiteEPKcPNS1_12ParseContextENS1_11TcFieldDataEPKNS1_16TcParseTableBaseEm } }, %"struct.google::protobuf::internal::TcFieldData" zeroinitializer }, %"struct.google::protobuf::internal::TcParseTableBase::FastFieldEntry" { %"struct.std::atomic.81" { %"struct.std::__atomic_base.82" { ptr @_ZN6google8protobuf8internal8TcParser7FastSS1EPNS0_11MessageLiteEPKcPNS1_12ParseContextENS1_11TcFieldDataEPKNS1_16TcParseTableBaseEm } }, %"struct.google::protobuf::internal::TcFieldData" { %union.anon.83 { i64 13510798882111498 } } }, %"struct.google::protobuf::internal::TcParseTableBase::FastFieldEntry" { %"struct.std::atomic.81" { %"struct.std::__atomic_base.82" { ptr @_ZN6google8protobuf8internal8TcParser8FastMtR1EPNS0_11MessageLiteEPKcPNS1_12ParseContextENS1_11TcFieldDataEPKNS1_16TcParseTableBaseEm } }, %"struct.google::protobuf::internal::TcFieldData" { %union.anon.83 { i64 6755399445184530 } } }, %"struct.google::protobuf::internal::TcParseTableBase::FastFieldEntry" { %"struct.std::atomic.81" { %"struct.std::__atomic_base.82" { ptr @_ZN6google8protobuf8internal8TcParser8FastMtS1EPNS0_11MessageLiteEPKcPNS1_12ParseContextENS1_11TcFieldDataEPKNS1_16TcParseTableBaseEm } }, %"struct.google::protobuf::internal::TcFieldData" { %union.anon.83 { i64 15762598712639514 } } }] }, %"struct.std::array.84" { [2 x i16] [i16 -1, i16 -1] }, %"struct.std::array.107" { [3 x %"struct.google::protobuf::internal::TcParseTableBase::FieldEntry"] [%"struct.google::protobuf::internal::TcParseTableBase::FieldEntry" { i32 48, i32 128, i16 0, i16 2581 }, %"struct.google::protobuf::internal::TcParseTableBase::FieldEntry" { i32 24, i32 -1, i16 0, i16 1062 }, %"struct.google::protobuf::internal::TcParseTableBase::FieldEntry" { i32 56, i32 129, i16 1, i16 1046 }] }, %"struct.std::array.108" { [2 x %"union.google::protobuf::internal::TcParseTableBase::FieldAux"] [%"union.google::protobuf::internal::TcParseTableBase::FieldAux" { ptr @_ZN6google8protobuf21MethodDescriptorProto7_table_E }, %"union.google::protobuf::internal::TcParseTableBase::FieldAux" { ptr @_ZN6google8protobuf14ServiceOptions7_table_E }] }, %"struct.std::array.109" { [51 x i8] c"&\04\00\00\00\00\00\00google.protobuf.ServiceDescriptorProtoname\00" } }, comdat, align 8
@.str.31 = private unnamed_addr constant [44 x i8] c"google.protobuf.ServiceDescriptorProto.name\00", align 1
@_ZZNK6google8protobuf21MethodDescriptorProto12GetClassDataEvE6_data_ = internal constant { ptr, i32, i8, ptr, ptr } { ptr null, i32 20, i8 0, ptr @_ZN6google8protobuf21MethodDescriptorProto9MergeImplERNS0_11MessageLiteERKS2_, ptr @_ZN6google8protobuf7Message18kDescriptorMethodsE }, align 8
@_ZN6google8protobuf21MethodDescriptorProto7_table_E = weak_odr global { %"struct.google::protobuf::internal::TcParseTableBase", %"struct.std::array.100", %"struct.std::array.84", %"struct.std::array.152", %"struct.std::array.86", %"struct.std::array.149" } { %"struct.google::protobuf::internal::TcParseTableBase" { i16 16, i16 0, i32 6, i8 56, i16 176, i32 -64, i32 180, i16 6, i16 1, i32 256, ptr @_ZN6google8protobuf40_MethodDescriptorProto_default_instance_E, ptr @_ZN6google8protobuf8internal8TcParser15GenericFallbackEPNS0_11MessageLiteEPKcPNS1_12ParseContextENS1_11TcFieldDataEPKNS1_16TcParseTableBaseEm }, %"struct.std::array.100" { [8 x %"struct.google::protobuf::internal::TcParseTableBase::FastFieldEntry"] [%"struct.google::protobuf::internal::TcParseTableBase::FastFieldEntry" { %"struct.std::atomic.81" { %"struct.std::__atomic_base.82" { ptr @_ZN6google8protobuf8internal8TcParser9MiniParseEPNS0_11MessageLiteEPKcPNS1_12ParseContextENS1_11TcFieldDataEPKNS1_16TcParseTableBaseEm } }, %"struct.google::protobuf::internal::TcFieldData" zeroinitializer }, %"struct.google::protobuf::internal::TcParseTableBase::FastFieldEntry" { %"struct.std::atomic.81" { %"struct.std::__atomic_base.82" { ptr @_ZN6google8protobuf8internal8TcParser7FastSS1EPNS0_11MessageLiteEPKcPNS1_12ParseContextENS1_11TcFieldDataEPKNS1_16TcParseTableBaseEm } }, %"struct.google::protobuf::internal::TcFieldData" { %union.anon.83 { i64 6755399441055754 } } }, %"struct.google::protobuf::internal::TcParseTableBase::FastFieldEntry" { %"struct.std::atomic.81" { %"struct.std::__atomic_base.82" { ptr @_ZN6google8protobuf8internal8TcParser7FastSS1EPNS0_11MessageLiteEPKcPNS1_12ParseContextENS1_11TcFieldDataEPKNS1_16TcParseTableBaseEm } }, %"struct.google::protobuf::internal::TcFieldData" { %union.anon.83 { i64 9007199254806546 } } }, %"struct.google::protobuf::internal::TcParseTableBase::FastFieldEntry" { %"struct.std::atomic.81" { %"struct.std::__atomic_base.82" { ptr @_ZN6google8protobuf8internal8TcParser7FastSS1EPNS0_11MessageLiteEPKcPNS1_12ParseContextENS1_11TcFieldDataEPKNS1_16TcParseTableBaseEm } }, %"struct.google::protobuf::internal::TcFieldData" { %union.anon.83 { i64 11258999068557338 } } }, %"struct.google::protobuf::internal::TcParseTableBase::FastFieldEntry" { %"struct.std::atomic.81" { %"struct.std::__atomic_base.82" { ptr @_ZN6google8protobuf8internal8TcParser8FastMtS1EPNS0_11MessageLiteEPKcPNS1_12ParseContextENS1_11TcFieldDataEPKNS1_16TcParseTableBaseEm } }, %"struct.google::protobuf::internal::TcFieldData" { %union.anon.83 { i64 13510798882308130 } } }, %"struct.google::protobuf::internal::TcParseTableBase::FastFieldEntry" { %"struct.std::atomic.81" { %"struct.std::__atomic_base.82" { ptr @_ZN6google8protobuf8internal8TcParser8FastV8S1EPNS0_11MessageLiteEPKcPNS1_12ParseContextENS1_11TcFieldDataEPKNS1_16TcParseTableBaseEm } }, %"struct.google::protobuf::internal::TcFieldData" { %union.anon.83 { i64 15762598696058920 } } }, %"struct.google::protobuf::internal::TcParseTableBase::FastFieldEntry" { %"struct.std::atomic.81" { %"struct.std::__atomic_base.82" { ptr @_ZN6google8protobuf8internal8TcParser8FastV8S1EPNS0_11MessageLiteEPKcPNS1_12ParseContextENS1_11TcFieldDataEPKNS1_16TcParseTableBaseEm } }, %"struct.google::protobuf::internal::TcFieldData" { %union.anon.83 { i64 16044073672835120 } } }, %"struct.google::protobuf::internal::TcParseTableBase::FastFieldEntry" { %"struct.std::atomic.81" { %"struct.std::__atomic_base.82" { ptr @_ZN6google8protobuf8internal8TcParser9MiniParseEPNS0_11MessageLiteEPKcPNS1_12ParseContextENS1_11TcFieldDataEPKNS1_16TcParseTableBaseEm } }, %"struct.google::protobuf::internal::TcFieldData" zeroinitializer }] }, %"struct.std::array.84" { [2 x i16] [i16 -1, i16 -1] }, %"struct.std::array.152" { [6 x %"struct.google::protobuf::internal::TcParseTableBase::FieldEntry"] [%"struct.google::protobuf::internal::TcParseTableBase::FieldEntry" { i32 24, i32 128, i16 0, i16 2581 }, %"struct.google::protobuf::internal::TcParseTableBase::FieldEntry" { i32 32, i32 129, i16 0, i16 2581 }, %"struct.google::protobuf::internal::TcParseTableBase::FieldEntry" { i32 40, i32 130, i16 0, i16 2581 }, %"struct.google::protobuf::internal::TcParseTableBase::FieldEntry" { i32 48, i32 131, i16 0, i16 1046 }, %"struct.google::protobuf::internal::TcParseTableBase::FieldEntry" { i32 56, i32 132, i16 0, i16 17 }, %"struct.google::protobuf::internal::TcParseTableBase::FieldEntry" { i32 57, i32 133, i16 0, i16 17 }] }, %"struct.std::array.86" { [1 x %"union.google::protobuf::internal::TcParseTableBase::FieldAux"] [%"union.google::protobuf::internal::TcParseTableBase::FieldAux" { ptr @_ZN6google8protobuf13MethodOptions7_table_E }] }, %"struct.std::array.149" { [71 x i8] c"%\04\0A\0B\00\00\00\00google.protobuf.MethodDescriptorProtonameinput_typeoutput_type\00" } }, comdat, align 8
@.str.33 = private unnamed_addr constant [43 x i8] c"google.protobuf.MethodDescriptorProto.name\00", align 1
@.str.34 = private unnamed_addr constant [49 x i8] c"google.protobuf.MethodDescriptorProto.input_type\00", align 1
@.str.35 = private unnamed_addr constant [50 x i8] c"google.protobuf.MethodDescriptorProto.output_type\00", align 1
@_ZZNK6google8protobuf11FileOptions12GetClassDataEvE6_data_ = internal constant { ptr, i32, i8, ptr, ptr } { ptr null, i32 44, i8 0, ptr @_ZN6google8protobuf11FileOptions9MergeImplERNS0_11MessageLiteERKS2_, ptr @_ZN6google8protobuf7Message18kDescriptorMethodsE }, align 8
@_ZN6google8protobuf11FileOptions7_table_E = weak_odr global { %"struct.google::protobuf::internal::TcParseTableBase", %"struct.std::array.115", %"struct.std::array.116", %"struct.std::array.117", { <{ { %struct.anon, [4 x i8] }, %"union.google::protobuf::internal::TcParseTableBase::FieldAux", %"union.google::protobuf::internal::TcParseTableBase::FieldAux" }> }, %"struct.std::array.118" } { %"struct.google::protobuf::internal::TcParseTableBase" { i16 40, i16 16, i32 999, i8 -8, i16 560, i32 -1145800578, i32 584, i16 22, i16 3, i32 848, ptr @_ZN6google8protobuf30_FileOptions_default_instance_E, ptr @_ZN6google8protobuf8internal8TcParser15GenericFallbackEPNS0_11MessageLiteEPKcPNS1_12ParseContextENS1_11TcFieldDataEPKNS1_16TcParseTableBaseEm }, %"struct.std::array.115" { [32 x %"struct.google::protobuf::internal::TcParseTableBase::FastFieldEntry"] [%"struct.google::protobuf::internal::TcParseTableBase::FastFieldEntry" { %"struct.std::atomic.81" { %"struct.std::__atomic_base.82" { ptr @_ZN6google8protobuf8internal8TcParser9MiniParseEPNS0_11MessageLiteEPKcPNS1_12ParseContextENS1_11TcFieldDataEPKNS1_16TcParseTableBaseEm } }, %"struct.google::protobuf::internal::TcFieldData" zeroinitializer }, %"struct.google::protobuf::internal::TcParseTableBase::FastFieldEntry" { %"struct.std::atomic.81" { %"struct.std::__atomic_base.82" { ptr @_ZN6google8protobuf8internal8TcParser7FastSS1EPNS0_11MessageLiteEPKcPNS1_12ParseContextENS1_11TcFieldDataEPKNS1_16TcParseTableBaseEm } }, %"struct.google::protobuf::internal::TcFieldData" { %union.anon.83 { i64 20266198323167242 } } }, %"struct.google::protobuf::internal::TcParseTableBase::FastFieldEntry" { %"struct.std::atomic.81" { %"struct.std::__atomic_base.82" { ptr @_ZN6google8protobuf8internal8TcParser9MiniParseEPNS0_11MessageLiteEPKcPNS1_12ParseContextENS1_11TcFieldDataEPKNS1_16TcParseTableBaseEm } }, %"struct.google::protobuf::internal::TcFieldData" zeroinitializer }, %"struct.google::protobuf::internal::TcParseTableBase::FastFieldEntry" { %"struct.std::atomic.81" { %"struct.std::__atomic_base.82" { ptr @_ZN6google8protobuf8internal8TcParser9MiniParseEPNS0_11MessageLiteEPKcPNS1_12ParseContextENS1_11TcFieldDataEPKNS1_16TcParseTableBaseEm } }, %"struct.google::protobuf::internal::TcFieldData" zeroinitializer }, %"struct.google::protobuf::internal::TcParseTableBase::FastFieldEntry" { %"struct.std::atomic.81" { %"struct.std::__atomic_base.82" { ptr @_ZN6google8protobuf8internal8TcParser9MiniParseEPNS0_11MessageLiteEPKcPNS1_12ParseContextENS1_11TcFieldDataEPKNS1_16TcParseTableBaseEm } }, %"struct.google::protobuf::internal::TcFieldData" zeroinitializer }, %"struct.google::protobuf::internal::TcParseTableBase::FastFieldEntry" { %"struct.std::atomic.81" { %"struct.std::__atomic_base.82" { ptr @_ZN6google8protobuf8internal8TcParser9MiniParseEPNS0_11MessageLiteEPKcPNS1_12ParseContextENS1_11TcFieldDataEPKNS1_16TcParseTableBaseEm } }, %"struct.google::protobuf::internal::TcFieldData" zeroinitializer }, %"struct.google::protobuf::internal::TcParseTableBase::FastFieldEntry" { %"struct.std::atomic.81" { %"struct.std::__atomic_base.82" { ptr @_ZN6google8protobuf8internal8TcParser9MiniParseEPNS0_11MessageLiteEPKcPNS1_12ParseContextENS1_11TcFieldDataEPKNS1_16TcParseTableBaseEm } }, %"struct.google::protobuf::internal::TcFieldData" zeroinitializer }, %"struct.google::protobuf::internal::TcParseTableBase::FastFieldEntry" { %"struct.std::atomic.81" { %"struct.std::__atomic_base.82" { ptr @_ZN6google8protobuf8internal8TcParser9MiniParseEPNS0_11MessageLiteEPKcPNS1_12ParseContextENS1_11TcFieldDataEPKNS1_16TcParseTableBaseEm } }, %"struct.google::protobuf::internal::TcFieldData" zeroinitializer }, %"struct.google::protobuf::internal::TcParseTableBase::FastFieldEntry" { %"struct.std::atomic.81" { %"struct.std::__atomic_base.82" { ptr @_ZN6google8protobuf8internal8TcParser7FastSS1EPNS0_11MessageLiteEPKcPNS1_12ParseContextENS1_11TcFieldDataEPKNS1_16TcParseTableBaseEm } }, %"struct.google::protobuf::internal::TcFieldData" { %union.anon.83 { i64 22517998136918082 } } }, %"struct.google::protobuf::internal::TcParseTableBase::FastFieldEntry" { %"struct.std::atomic.81" { %"struct.std::__atomic_base.82" { ptr @_ZN6google8protobuf8internal8TcParser9FastEr1S1EPNS0_11MessageLiteEPKcPNS1_12ParseContextENS1_11TcFieldDataEPKNS1_16TcParseTableBaseEm } }, %"struct.google::protobuf::internal::TcFieldData" { %union.anon.83 { i64 47287796138967112 } } }, %"struct.google::protobuf::internal::TcParseTableBase::FastFieldEntry" { %"struct.std::atomic.81" { %"struct.std::__atomic_base.82" { ptr @_ZN6google8protobuf8internal8TcParser8FastV8S1EPNS0_11MessageLiteEPKcPNS1_12ParseContextENS1_11TcFieldDataEPKNS1_16TcParseTableBaseEm } }, %"struct.google::protobuf::internal::TcFieldData" { %union.anon.83 { i64 45035996274425936 } } }, %"struct.google::protobuf::internal::TcParseTableBase::FastFieldEntry" { %"struct.std::atomic.81" { %"struct.std::__atomic_base.82" { ptr @_ZN6google8protobuf8internal8TcParser7FastSS1EPNS0_11MessageLiteEPKcPNS1_12ParseContextENS1_11TcFieldDataEPKNS1_16TcParseTableBaseEm } }, %"struct.google::protobuf::internal::TcFieldData" { %union.anon.83 { i64 24769797950668890 } } }, %"struct.google::protobuf::internal::TcParseTableBase::FastFieldEntry" { %"struct.std::atomic.81" { %"struct.std::__atomic_base.82" { ptr @_ZN6google8protobuf8internal8TcParser9MiniParseEPNS0_11MessageLiteEPKcPNS1_12ParseContextENS1_11TcFieldDataEPKNS1_16TcParseTableBaseEm } }, %"struct.google::protobuf::internal::TcFieldData" zeroinitializer }, %"struct.google::protobuf::internal::TcParseTableBase::FastFieldEntry" { %"struct.std::atomic.81" { %"struct.std::__atomic_base.82" { ptr @_ZN6google8protobuf8internal8TcParser9MiniParseEPNS0_11MessageLiteEPKcPNS1_12ParseContextENS1_11TcFieldDataEPKNS1_16TcParseTableBaseEm } }, %"struct.google::protobuf::internal::TcFieldData" zeroinitializer }, %"struct.google::protobuf::internal::TcParseTableBase::FastFieldEntry" { %"struct.std::atomic.81" { %"struct.std::__atomic_base.82" { ptr @_ZN6google8protobuf8internal8TcParser9MiniParseEPNS0_11MessageLiteEPKcPNS1_12ParseContextENS1_11TcFieldDataEPKNS1_16TcParseTableBaseEm } }, %"struct.google::protobuf::internal::TcFieldData" zeroinitializer }, %"struct.google::protobuf::internal::TcParseTableBase::FastFieldEntry" { %"struct.std::atomic.81" { %"struct.std::__atomic_base.82" { ptr @_ZN6google8protobuf8internal8TcParser9MiniParseEPNS0_11MessageLiteEPKcPNS1_12ParseContextENS1_11TcFieldDataEPKNS1_16TcParseTableBaseEm } }, %"struct.google::protobuf::internal::TcFieldData" zeroinitializer }, %"struct.google::protobuf::internal::TcParseTableBase::FastFieldEntry" { %"struct.std::atomic.81" { %"struct.std::__atomic_base.82" { ptr @_ZN6google8protobuf8internal8TcParser8FastV8S2EPNS0_11MessageLiteEPKcPNS1_12ParseContextENS1_11TcFieldDataEPKNS1_16TcParseTableBaseEm } }, %"struct.google::protobuf::internal::TcFieldData" { %union.anon.83 { i64 45880421204754816 } } }, %"struct.google::protobuf::internal::TcParseTableBase::FastFieldEntry" { %"struct.std::atomic.81" { %"struct.std::__atomic_base.82" { ptr @_ZN6google8protobuf8internal8TcParser8FastV8S2EPNS0_11MessageLiteEPKcPNS1_12ParseContextENS1_11TcFieldDataEPKNS1_16TcParseTableBaseEm } }, %"struct.google::protobuf::internal::TcFieldData" { %union.anon.83 { i64 46161896181531016 } } }, %"struct.google::protobuf::internal::TcParseTableBase::FastFieldEntry" { %"struct.std::atomic.81" { %"struct.std::__atomic_base.82" { ptr @_ZN6google8protobuf8internal8TcParser8FastV8S2EPNS0_11MessageLiteEPKcPNS1_12ParseContextENS1_11TcFieldDataEPKNS1_16TcParseTableBaseEm } }, %"struct.google::protobuf::internal::TcFieldData" { %union.anon.83 { i64 46443371158307216 } } }, %"struct.google::protobuf::internal::TcParseTableBase::FastFieldEntry" { %"struct.std::atomic.81" { %"struct.std::__atomic_base.82" { ptr @_ZN6google8protobuf8internal8TcParser9MiniParseEPNS0_11MessageLiteEPKcPNS1_12ParseContextENS1_11TcFieldDataEPKNS1_16TcParseTableBaseEm } }, %"struct.google::protobuf::internal::TcFieldData" zeroinitializer }, %"struct.google::protobuf::internal::TcParseTableBase::FastFieldEntry" { %"struct.std::atomic.81" { %"struct.std::__atomic_base.82" { ptr @_ZN6google8protobuf8internal8TcParser8FastV8S2EPNS0_11MessageLiteEPKcPNS1_12ParseContextENS1_11TcFieldDataEPKNS1_16TcParseTableBaseEm } }, %"struct.google::protobuf::internal::TcFieldData" { %union.anon.83 { i64 45317471251202464 } } }, %"struct.google::protobuf::internal::TcParseTableBase::FastFieldEntry" { %"struct.std::atomic.81" { %"struct.std::__atomic_base.82" { ptr @_ZN6google8protobuf8internal8TcParser7FastSS2EPNS0_11MessageLiteEPKcPNS1_12ParseContextENS1_11TcFieldDataEPKNS1_16TcParseTableBaseEm } }, %"struct.google::protobuf::internal::TcFieldData" { %union.anon.83 { i64 29273397578171050 } } }, %"struct.google::protobuf::internal::TcParseTableBase::FastFieldEntry" { %"struct.std::atomic.81" { %"struct.std::__atomic_base.82" { ptr @_ZN6google8protobuf8internal8TcParser9MiniParseEPNS0_11MessageLiteEPKcPNS1_12ParseContextENS1_11TcFieldDataEPKNS1_16TcParseTableBaseEm } }, %"struct.google::protobuf::internal::TcFieldData" zeroinitializer }, %"struct.google::protobuf::internal::TcParseTableBase::FastFieldEntry" { %"struct.std::atomic.81" { %"struct.std::__atomic_base.82" { ptr @_ZN6google8protobuf8internal8TcParser8FastV8S2EPNS0_11MessageLiteEPKcPNS1_12ParseContextENS1_11TcFieldDataEPKNS1_16TcParseTableBaseEm } }, %"struct.google::protobuf::internal::TcFieldData" { %union.anon.83 { i64 47006321111859640 } } }, %"struct.google::protobuf::internal::TcParseTableBase::FastFieldEntry" { %"struct.std::atomic.81" { %"struct.std::__atomic_base.82" { ptr @_ZN6google8protobuf8internal8TcParser7FastSS2EPNS0_11MessageLiteEPKcPNS1_12ParseContextENS1_11TcFieldDataEPKNS1_16TcParseTableBaseEm } }, %"struct.google::protobuf::internal::TcFieldData" { %union.anon.83 { i64 33776997205672642 } } }, %"struct.google::protobuf::internal::TcParseTableBase::FastFieldEntry" { %"struct.std::atomic.81" { %"struct.std::__atomic_base.82" { ptr @_ZN6google8protobuf8internal8TcParser7FastSS2EPNS0_11MessageLiteEPKcPNS1_12ParseContextENS1_11TcFieldDataEPKNS1_16TcParseTableBaseEm } }, %"struct.google::protobuf::internal::TcFieldData" { %union.anon.83 { i64 36028797019423434 } } }, %"struct.google::protobuf::internal::TcParseTableBase::FastFieldEntry" { %"struct.std::atomic.81" { %"struct.std::__atomic_base.82" { ptr @_ZN6google8protobuf8internal8TcParser8FastV8S2EPNS0_11MessageLiteEPKcPNS1_12ParseContextENS1_11TcFieldDataEPKNS1_16TcParseTableBaseEm } }, %"struct.google::protobuf::internal::TcFieldData" { %union.anon.83 { i64 46724846135083728 } } }, %"struct.google::protobuf::internal::TcParseTableBase::FastFieldEntry" { %"struct.std::atomic.81" { %"struct.std::__atomic_base.82" { ptr @_ZN6google8protobuf8internal8TcParser8FastV8S2EPNS0_11MessageLiteEPKcPNS1_12ParseContextENS1_11TcFieldDataEPKNS1_16TcParseTableBaseEm } }, %"struct.google::protobuf::internal::TcFieldData" { %union.anon.83 { i64 45598946227978712 } } }, %"struct.google::protobuf::internal::TcParseTableBase::FastFieldEntry" { %"struct.std::atomic.81" { %"struct.std::__atomic_base.82" { ptr @_ZN6google8protobuf8internal8TcParser7FastSS2EPNS0_11MessageLiteEPKcPNS1_12ParseContextENS1_11TcFieldDataEPKNS1_16TcParseTableBaseEm } }, %"struct.google::protobuf::internal::TcFieldData" { %union.anon.83 { i64 38280596833174242 } } }, %"struct.google::protobuf::internal::TcParseTableBase::FastFieldEntry" { %"struct.std::atomic.81" { %"struct.std::__atomic_base.82" { ptr @_ZN6google8protobuf8internal8TcParser7FastSS2EPNS0_11MessageLiteEPKcPNS1_12ParseContextENS1_11TcFieldDataEPKNS1_16TcParseTableBaseEm } }, %"struct.google::protobuf::internal::TcFieldData" { %union.anon.83 { i64 40532396646925034 } } }, %"struct.google::protobuf::internal::TcParseTableBase::FastFieldEntry" { %"struct.std::atomic.81" { %"struct.std::__atomic_base.82" { ptr @_ZN6google8protobuf8internal8TcParser9MiniParseEPNS0_11MessageLiteEPKcPNS1_12ParseContextENS1_11TcFieldDataEPKNS1_16TcParseTableBaseEm } }, %"struct.google::protobuf::internal::TcFieldData" zeroinitializer }, %"struct.google::protobuf::internal::TcParseTableBase::FastFieldEntry" { %"struct.std::atomic.81" { %"struct.std::__atomic_base.82" { ptr @_ZN6google8protobuf8internal8TcParser8FastV8S2EPNS0_11MessageLiteEPKcPNS1_12ParseContextENS1_11TcFieldDataEPKNS1_16TcParseTableBaseEm } }, %"struct.google::protobuf::internal::TcFieldData" { %union.anon.83 { i64 48413695995544056 } } }] }, %"struct.std::array.116" { [12 x i16] [i16 36, i16 0, i16 1, i16 -17276, i16 12, i16 999, i16 0, i16 1, i16 -2, i16 21, i16 -1, i16 -1] }, %"struct.std::array.117" { [22 x %"struct.google::protobuf::internal::TcParseTableBase::FieldEntry"] [%"struct.google::protobuf::internal::TcParseTableBase::FieldEntry" { i32 72, i32 320, i16 0, i16 2581 }, %"struct.google::protobuf::internal::TcParseTableBase::FieldEntry" { i32 80, i32 321, i16 0, i16 2581 }, %"struct.google::protobuf::internal::TcParseTableBase::FieldEntry" { i32 168, i32 339, i16 0, i16 7825 }, %"struct.google::protobuf::internal::TcParseTableBase::FieldEntry" { i32 160, i32 331, i16 0, i16 17 }, %"struct.google::protobuf::internal::TcParseTableBase::FieldEntry" { i32 88, i32 322, i16 0, i16 2581 }, %"struct.google::protobuf::internal::TcParseTableBase::FieldEntry" { i32 163, i32 334, i16 0, i16 17 }, %"struct.google::protobuf::internal::TcParseTableBase::FieldEntry" { i32 164, i32 335, i16 0, i16 17 }, %"struct.google::protobuf::internal::TcParseTableBase::FieldEntry" { i32 165, i32 336, i16 0, i16 17 }, %"struct.google::protobuf::internal::TcParseTableBase::FieldEntry" { i32 161, i32 332, i16 0, i16 17 }, %"struct.google::protobuf::internal::TcParseTableBase::FieldEntry" { i32 167, i32 338, i16 0, i16 17 }, %"struct.google::protobuf::internal::TcParseTableBase::FieldEntry" { i32 162, i32 333, i16 0, i16 17 }, %"struct.google::protobuf::internal::TcParseTableBase::FieldEntry" { i32 172, i32 340, i16 0, i16 17 }, %"struct.google::protobuf::internal::TcParseTableBase::FieldEntry" { i32 96, i32 323, i16 0, i16 2581 }, %"struct.google::protobuf::internal::TcParseTableBase::FieldEntry" { i32 104, i32 324, i16 0, i16 2581 }, %"struct.google::protobuf::internal::TcParseTableBase::FieldEntry" { i32 112, i32 325, i16 0, i16 2581 }, %"struct.google::protobuf::internal::TcParseTableBase::FieldEntry" { i32 120, i32 326, i16 0, i16 2581 }, %"struct.google::protobuf::internal::TcParseTableBase::FieldEntry" { i32 128, i32 327, i16 0, i16 2581 }, %"struct.google::protobuf::internal::TcParseTableBase::FieldEntry" { i32 166, i32 337, i16 0, i16 17 }, %"struct.google::protobuf::internal::TcParseTableBase::FieldEntry" { i32 136, i32 328, i16 0, i16 2581 }, %"struct.google::protobuf::internal::TcParseTableBase::FieldEntry" { i32 144, i32 329, i16 0, i16 2581 }, %"struct.google::protobuf::internal::TcParseTableBase::FieldEntry" { i32 152, i32 330, i16 1, i16 1046 }, %"struct.google::protobuf::internal::TcParseTableBase::FieldEntry" { i32 48, i32 -1, i16 2, i16 1062 }] }, { <{ { %struct.anon, [4 x i8] }, %"union.google::protobuf::internal::TcParseTableBase::FieldAux", %"union.google::protobuf::internal::TcParseTableBase::FieldAux" }> } { <{ { %struct.anon, [4 x i8] }, %"union.google::protobuf::internal::TcParseTableBase::FieldAux", %"union.google::protobuf::internal::TcParseTableBase::FieldAux" }> <{ { %struct.anon, [4 x i8] } { %struct.anon { i16 1, i16 3 }, [4 x i8] undef }, %"union.google::protobuf::internal::TcParseTableBase::FieldAux" { ptr @_ZN6google8protobuf10FeatureSet7_table_E }, %"union.google::protobuf::internal::TcParseTableBase::FieldAux" { ptr @_ZN6google8protobuf19UninterpretedOption7_table_E } }> }, %"struct.std::array.118" { [202 x i8] c"\1B\0C\14\00\00\0A\00\00\00\00\00\00\00\11\10\0C\10\0D\00\16\0C\00\00\00google.protobuf.FileOptionsjava_packagejava_outer_classnamego_packageobjc_class_prefixcsharp_namespaceswift_prefixphp_class_prefixphp_namespacephp_metadata_namespaceruby_package\00" } }, comdat, align 8
@.str.37 = private unnamed_addr constant [41 x i8] c"google.protobuf.FileOptions.java_package\00", align 1
@.str.38 = private unnamed_addr constant [49 x i8] c"google.protobuf.FileOptions.java_outer_classname\00", align 1
@.str.39 = private unnamed_addr constant [39 x i8] c"google.protobuf.FileOptions.go_package\00", align 1
@.str.40 = private unnamed_addr constant [46 x i8] c"google.protobuf.FileOptions.objc_class_prefix\00", align 1
@.str.41 = private unnamed_addr constant [45 x i8] c"google.protobuf.FileOptions.csharp_namespace\00", align 1
@.str.42 = private unnamed_addr constant [41 x i8] c"google.protobuf.FileOptions.swift_prefix\00", align 1
@.str.43 = private unnamed_addr constant [45 x i8] c"google.protobuf.FileOptions.php_class_prefix\00", align 1
@.str.44 = private unnamed_addr constant [42 x i8] c"google.protobuf.FileOptions.php_namespace\00", align 1
@.str.45 = private unnamed_addr constant [51 x i8] c"google.protobuf.FileOptions.php_metadata_namespace\00", align 1
@.str.46 = private unnamed_addr constant [41 x i8] c"google.protobuf.FileOptions.ruby_package\00", align 1
@_ZZNK6google8protobuf14MessageOptions12GetClassDataEvE6_data_ = internal constant { ptr, i32, i8, ptr, ptr } { ptr null, i32 44, i8 0, ptr @_ZN6google8protobuf14MessageOptions9MergeImplERNS0_11MessageLiteERKS2_, ptr @_ZN6google8protobuf7Message18kDescriptorMethodsE }, align 8
@_ZN6google8protobuf14MessageOptions7_table_E = weak_odr global { %"struct.google::protobuf::internal::TcParseTableBase", %"struct.std::array.100", %"struct.std::array.139", %"struct.std::array.140", %"struct.std::array.108", %"struct.std::array.87" } { %"struct.google::protobuf::internal::TcParseTableBase" { i16 40, i16 16, i32 999, i8 56, i16 176, i32 -3144, i32 192, i16 7, i16 2, i32 280, ptr @_ZN6google8protobuf33_MessageOptions_default_instance_E, ptr @_ZN6google8protobuf8internal8TcParser15GenericFallbackEPNS0_11MessageLiteEPKcPNS1_12ParseContextENS1_11TcFieldDataEPKNS1_16TcParseTableBaseEm }, %"struct.std::array.100" { [8 x %"struct.google::protobuf::internal::TcParseTableBase::FastFieldEntry"] [%"struct.google::protobuf::internal::TcParseTableBase::FastFieldEntry" { %"struct.std::atomic.81" { %"struct.std::__atomic_base.82" { ptr @_ZN6google8protobuf8internal8TcParser9MiniParseEPNS0_11MessageLiteEPKcPNS1_12ParseContextENS1_11TcFieldDataEPKNS1_16TcParseTableBaseEm } }, %"struct.google::protobuf::internal::TcFieldData" zeroinitializer }, %"struct.google::protobuf::internal::TcParseTableBase::FastFieldEntry" { %"struct.std::atomic.81" { %"struct.std::__atomic_base.82" { ptr @_ZN6google8protobuf8internal8TcParser8FastV8S1EPNS0_11MessageLiteEPKcPNS1_12ParseContextENS1_11TcFieldDataEPKNS1_16TcParseTableBaseEm } }, %"struct.google::protobuf::internal::TcFieldData" { %union.anon.83 { i64 22517998136918024 } } }, %"struct.google::protobuf::internal::TcParseTableBase::FastFieldEntry" { %"struct.std::atomic.81" { %"struct.std::__atomic_base.82" { ptr @_ZN6google8protobuf8internal8TcParser8FastV8S1EPNS0_11MessageLiteEPKcPNS1_12ParseContextENS1_11TcFieldDataEPKNS1_16TcParseTableBaseEm } }, %"struct.google::protobuf::internal::TcFieldData" { %union.anon.83 { i64 22799473113694224 } } }, %"struct.google::protobuf::internal::TcParseTableBase::FastFieldEntry" { %"struct.std::atomic.81" { %"struct.std::__atomic_base.82" { ptr @_ZN6google8protobuf8internal8TcParser8FastV8S1EPNS0_11MessageLiteEPKcPNS1_12ParseContextENS1_11TcFieldDataEPKNS1_16TcParseTableBaseEm } }, %"struct.google::protobuf::internal::TcFieldData" { %union.anon.83 { i64 23080948090470424 } } }, %"struct.google::protobuf::internal::TcParseTableBase::FastFieldEntry" { %"struct.std::atomic.81" { %"struct.std::__atomic_base.82" { ptr @_ZN6google8protobuf8internal8TcParser8FastMtS1EPNS0_11MessageLiteEPKcPNS1_12ParseContextENS1_11TcFieldDataEPKNS1_16TcParseTableBaseEm } }, %"struct.google::protobuf::internal::TcFieldData" { %union.anon.83 { i64 20266198323167330 } } }, %"struct.google::protobuf::internal::TcParseTableBase::FastFieldEntry" { %"struct.std::atomic.81" { %"struct.std::__atomic_base.82" { ptr @_ZN6google8protobuf8internal8TcParser9MiniParseEPNS0_11MessageLiteEPKcPNS1_12ParseContextENS1_11TcFieldDataEPKNS1_16TcParseTableBaseEm } }, %"struct.google::protobuf::internal::TcFieldData" zeroinitializer }, %"struct.google::protobuf::internal::TcParseTableBase::FastFieldEntry" { %"struct.std::atomic.81" { %"struct.std::__atomic_base.82" { ptr @_ZN6google8protobuf8internal8TcParser9MiniParseEPNS0_11MessageLiteEPKcPNS1_12ParseContextENS1_11TcFieldDataEPKNS1_16TcParseTableBaseEm } }, %"struct.google::protobuf::internal::TcFieldData" zeroinitializer }, %"struct.google::protobuf::internal::TcParseTableBase::FastFieldEntry" { %"struct.std::atomic.81" { %"struct.std::__atomic_base.82" { ptr @_ZN6google8protobuf8internal8TcParser8FastV8S1EPNS0_11MessageLiteEPKcPNS1_12ParseContextENS1_11TcFieldDataEPKNS1_16TcParseTableBaseEm } }, %"struct.google::protobuf::internal::TcFieldData" { %union.anon.83 { i64 23362423067246648 } } }] }, %"struct.std::array.139" { [7 x i16] [i16 999, i16 0, i16 1, i16 -2, i16 6, i16 -1, i16 -1] }, %"struct.std::array.140" { [7 x %"struct.google::protobuf::internal::TcParseTableBase::FieldEntry"] [%"struct.google::protobuf::internal::TcParseTableBase::FieldEntry" { i32 80, i32 321, i16 0, i16 17 }, %"struct.google::protobuf::internal::TcParseTableBase::FieldEntry" { i32 81, i32 322, i16 0, i16 17 }, %"struct.google::protobuf::internal::TcParseTableBase::FieldEntry" { i32 82, i32 323, i16 0, i16 17 }, %"struct.google::protobuf::internal::TcParseTableBase::FieldEntry" { i32 83, i32 324, i16 0, i16 17 }, %"struct.google::protobuf::internal::TcParseTableBase::FieldEntry" { i32 84, i32 325, i16 0, i16 17 }, %"struct.google::protobuf::internal::TcParseTableBase::FieldEntry" { i32 72, i32 320, i16 0, i16 1046 }, %"struct.google::protobuf::internal::TcParseTableBase::FieldEntry" { i32 48, i32 -1, i16 1, i16 1062 }] }, %"struct.std::array.108" { [2 x %"union.google::protobuf::internal::TcParseTableBase::FieldAux"] [%"union.google::protobuf::internal::TcParseTableBase::FieldAux" { ptr @_ZN6google8protobuf10FeatureSet7_table_E }, %"union.google::protobuf::internal::TcParseTableBase::FieldAux" { ptr @_ZN6google8protobuf19UninterpretedOption7_table_E }] }, %"struct.std::array.87" zeroinitializer }, comdat, align 8
@_ZZNK6google8protobuf27FieldOptions_EditionDefault12GetClassDataEvE6_data_ = internal constant { ptr, i32, i8, ptr, ptr } { ptr null, i32 20, i8 0, ptr @_ZN6google8protobuf27FieldOptions_EditionDefault9MergeImplERNS0_11MessageLiteERKS2_, ptr @_ZN6google8protobuf7Message18kDescriptorMethodsE }, align 8
@_ZN6google8protobuf27FieldOptions_EditionDefault7_table_E = weak_odr global { %"struct.google::protobuf::internal::TcParseTableBase", %"struct.std::array.135", %"struct.std::array.84", %"struct.std::array.136", %"struct.std::array.86", %"struct.std::array.181" } { %"struct.google::protobuf::internal::TcParseTableBase" { i16 16, i16 0, i32 3, i8 8, i16 80, i32 -7, i32 84, i16 2, i16 1, i32 112, ptr @_ZN6google8protobuf46_FieldOptions_EditionDefault_default_instance_E, ptr @_ZN6google8protobuf8internal8TcParser15GenericFallbackEPNS0_11MessageLiteEPKcPNS1_12ParseContextENS1_11TcFieldDataEPKNS1_16TcParseTableBaseEm }, %"struct.std::array.135" { [2 x %"struct.google::protobuf::internal::TcParseTableBase::FastFieldEntry"] [%"struct.google::protobuf::internal::TcParseTableBase::FastFieldEntry" { %"struct.std::atomic.81" { %"struct.std::__atomic_base.82" { ptr @_ZN6google8protobuf8internal8TcParser7FastSS1EPNS0_11MessageLiteEPKcPNS1_12ParseContextENS1_11TcFieldDataEPKNS1_16TcParseTableBaseEm } }, %"struct.google::protobuf::internal::TcFieldData" { %union.anon.83 { i64 6755399441055762 } } }, %"struct.google::protobuf::internal::TcParseTableBase::FastFieldEntry" { %"struct.std::atomic.81" { %"struct.std::__atomic_base.82" { ptr @_ZN6google8protobuf8internal8TcParser8FastEvS1EPNS0_11MessageLiteEPKcPNS1_12ParseContextENS1_11TcFieldDataEPKNS1_16TcParseTableBaseEm } }, %"struct.google::protobuf::internal::TcFieldData" { %union.anon.83 { i64 9007199254806552 } } }] }, %"struct.std::array.84" { [2 x i16] [i16 -1, i16 -1] }, %"struct.std::array.136" { [2 x %"struct.google::protobuf::internal::TcParseTableBase::FieldEntry"] [%"struct.google::protobuf::internal::TcParseTableBase::FieldEntry" { i32 24, i32 128, i16 0, i16 2581 }, %"struct.google::protobuf::internal::TcParseTableBase::FieldEntry" { i32 32, i32 129, i16 0, i16 7313 }] }, %"struct.std::array.86" { [1 x %"union.google::protobuf::internal::TcParseTableBase::FieldAux"] [%"union.google::protobuf::internal::TcParseTableBase::FieldAux" { ptr @_ZN6google8protobuf22Edition_internal_data_E }] }, %"struct.std::array.181" { [57 x i8] c"+\05\00\00\00\00\00\00google.protobuf.FieldOptions.EditionDefaultvalue\00" } }, comdat, align 8
@.str.49 = private unnamed_addr constant [50 x i8] c"google.protobuf.FieldOptions.EditionDefault.value\00", align 1
@_ZZNK6google8protobuf12FieldOptions12GetClassDataEvE6_data_ = internal constant { ptr, i32, i8, ptr, ptr } { ptr null, i32 44, i8 0, ptr @_ZN6google8protobuf12FieldOptions9MergeImplERNS0_11MessageLiteERKS2_, ptr @_ZN6google8protobuf7Message18kDescriptorMethodsE }, align 8
@_ZN6google8protobuf12FieldOptions7_table_E = weak_odr global { %"struct.google::protobuf::internal::TcParseTableBase", %"struct.std::array.89", %"struct.std::array.139", %"struct.std::array.90", [4 x i8], { <{ { %struct.anon, [4 x i8] }, { %struct.anon, [4 x i8] }, { %struct.anon, [4 x i8] }, { %struct.anon, [4 x i8] }, %"union.google::protobuf::internal::TcParseTableBase::FieldAux", %"union.google::protobuf::internal::TcParseTableBase::FieldAux", %"union.google::protobuf::internal::TcParseTableBase::FieldAux" }> }, %"struct.std::array.87" } { %"struct.google::protobuf::internal::TcParseTableBase" { i16 40, i16 16, i32 999, i8 120, i16 304, i32 -1950264, i32 320, i16 13, i16 7, i32 480, ptr @_ZN6google8protobuf31_FieldOptions_default_instance_E, ptr @_ZN6google8protobuf8internal8TcParser15GenericFallbackEPNS0_11MessageLiteEPKcPNS1_12ParseContextENS1_11TcFieldDataEPKNS1_16TcParseTableBaseEm }, %"struct.std::array.89" { [16 x %"struct.google::protobuf::internal::TcParseTableBase::FastFieldEntry"] [%"struct.google::protobuf::internal::TcParseTableBase::FastFieldEntry" { %"struct.std::atomic.81" { %"struct.std::__atomic_base.82" { ptr @_ZN6google8protobuf8internal8TcParser8FastV8S2EPNS0_11MessageLiteEPKcPNS1_12ParseContextENS1_11TcFieldDataEPKNS1_16TcParseTableBaseEm } }, %"struct.google::protobuf::internal::TcFieldData" { %union.anon.83 { i64 37436171903041920 } } }, %"struct.google::protobuf::internal::TcParseTableBase::FastFieldEntry" { %"struct.std::atomic.81" { %"struct.std::__atomic_base.82" { ptr @_ZN6google8protobuf8internal8TcParser9FastEr0S1EPNS0_11MessageLiteEPKcPNS1_12ParseContextENS1_11TcFieldDataEPKNS1_16TcParseTableBaseEm } }, %"struct.google::protobuf::internal::TcFieldData" { %union.anon.83 { i64 33776997238898696 } } }, %"struct.google::protobuf::internal::TcParseTableBase::FastFieldEntry" { %"struct.std::atomic.81" { %"struct.std::__atomic_base.82" { ptr @_ZN6google8protobuf8internal8TcParser8FastV8S1EPNS0_11MessageLiteEPKcPNS1_12ParseContextENS1_11TcFieldDataEPKNS1_16TcParseTableBaseEm } }, %"struct.google::protobuf::internal::TcFieldData" { %union.anon.83 { i64 36028797019160592 } } }, %"struct.google::protobuf::internal::TcParseTableBase::FastFieldEntry" { %"struct.std::atomic.81" { %"struct.std::__atomic_base.82" { ptr @_ZN6google8protobuf8internal8TcParser8FastV8S1EPNS0_11MessageLiteEPKcPNS1_12ParseContextENS1_11TcFieldDataEPKNS1_16TcParseTableBaseEm } }, %"struct.google::protobuf::internal::TcFieldData" { %union.anon.83 { i64 36873221949489176 } } }, %"struct.google::protobuf::internal::TcParseTableBase::FastFieldEntry" { %"struct.std::atomic.81" { %"struct.std::__atomic_base.82" { ptr @_ZN6google8protobuf8internal8TcParser8FastMtR2EPNS0_11MessageLiteEPKcPNS1_12ParseContextENS1_11TcFieldDataEPKNS1_16TcParseTableBaseEm } }, %"struct.google::protobuf::internal::TcFieldData" { %union.anon.83 { i64 18014398580720034 } } }, %"struct.google::protobuf::internal::TcParseTableBase::FastFieldEntry" { %"struct.std::atomic.81" { %"struct.std::__atomic_base.82" { ptr @_ZN6google8protobuf8internal8TcParser8FastV8S1EPNS0_11MessageLiteEPKcPNS1_12ParseContextENS1_11TcFieldDataEPKNS1_16TcParseTableBaseEm } }, %"struct.google::protobuf::internal::TcFieldData" { %union.anon.83 { i64 36310271995936808 } } }, %"struct.google::protobuf::internal::TcParseTableBase::FastFieldEntry" { %"struct.std::atomic.81" { %"struct.std::__atomic_base.82" { ptr @_ZN6google8protobuf8internal8TcParser9FastEr0S1EPNS0_11MessageLiteEPKcPNS1_12ParseContextENS1_11TcFieldDataEPKNS1_16TcParseTableBaseEm } }, %"struct.google::protobuf::internal::TcFieldData" { %union.anon.83 { i64 34902897145806896 } } }, %"struct.google::protobuf::internal::TcParseTableBase::FastFieldEntry" { %"struct.std::atomic.81" { %"struct.std::__atomic_base.82" { ptr @_ZN6google8protobuf8internal8TcParser8FastMtR2EPNS0_11MessageLiteEPKcPNS1_12ParseContextENS1_11TcFieldDataEPKNS1_16TcParseTableBaseEm } }, %"struct.google::protobuf::internal::TcFieldData" { %union.anon.83 { i64 24769798055345850 } } }, %"struct.google::protobuf::internal::TcParseTableBase::FastFieldEntry" { %"struct.std::atomic.81" { %"struct.std::__atomic_base.82" { ptr @_ZN6google8protobuf8internal8TcParser9MiniParseEPNS0_11MessageLiteEPKcPNS1_12ParseContextENS1_11TcFieldDataEPKNS1_16TcParseTableBaseEm } }, %"struct.google::protobuf::internal::TcFieldData" zeroinitializer }, %"struct.google::protobuf::internal::TcParseTableBase::FastFieldEntry" { %"struct.std::atomic.81" { %"struct.std::__atomic_base.82" { ptr @_ZN6google8protobuf8internal8TcParser9MiniParseEPNS0_11MessageLiteEPKcPNS1_12ParseContextENS1_11TcFieldDataEPKNS1_16TcParseTableBaseEm } }, %"struct.google::protobuf::internal::TcFieldData" zeroinitializer }, %"struct.google::protobuf::internal::TcParseTableBase::FastFieldEntry" { %"struct.std::atomic.81" { %"struct.std::__atomic_base.82" { ptr @_ZN6google8protobuf8internal8TcParser8FastV8S1EPNS0_11MessageLiteEPKcPNS1_12ParseContextENS1_11TcFieldDataEPKNS1_16TcParseTableBaseEm } }, %"struct.google::protobuf::internal::TcFieldData" { %union.anon.83 { i64 37154696926265424 } } }, %"struct.google::protobuf::internal::TcParseTableBase::FastFieldEntry" { %"struct.std::atomic.81" { %"struct.std::__atomic_base.82" { ptr @_ZN6google8protobuf8internal8TcParser9MiniParseEPNS0_11MessageLiteEPKcPNS1_12ParseContextENS1_11TcFieldDataEPKNS1_16TcParseTableBaseEm } }, %"struct.google::protobuf::internal::TcFieldData" zeroinitializer }, %"struct.google::protobuf::internal::TcParseTableBase::FastFieldEntry" { %"struct.std::atomic.81" { %"struct.std::__atomic_base.82" { ptr @_ZN6google8protobuf8internal8TcParser9MiniParseEPNS0_11MessageLiteEPKcPNS1_12ParseContextENS1_11TcFieldDataEPKNS1_16TcParseTableBaseEm } }, %"struct.google::protobuf::internal::TcFieldData" zeroinitializer }, %"struct.google::protobuf::internal::TcParseTableBase::FastFieldEntry" { %"struct.std::atomic.81" { %"struct.std::__atomic_base.82" { ptr @_ZN6google8protobuf8internal8TcParser9MiniParseEPNS0_11MessageLiteEPKcPNS1_12ParseContextENS1_11TcFieldDataEPKNS1_16TcParseTableBaseEm } }, %"struct.google::protobuf::internal::TcFieldData" zeroinitializer }, %"struct.google::protobuf::internal::TcParseTableBase::FastFieldEntry" { %"struct.std::atomic.81" { %"struct.std::__atomic_base.82" { ptr @_ZN6google8protobuf8internal8TcParser9MiniParseEPNS0_11MessageLiteEPKcPNS1_12ParseContextENS1_11TcFieldDataEPKNS1_16TcParseTableBaseEm } }, %"struct.google::protobuf::internal::TcFieldData" zeroinitializer }, %"struct.google::protobuf::internal::TcParseTableBase::FastFieldEntry" { %"struct.std::atomic.81" { %"struct.std::__atomic_base.82" { ptr @_ZN6google8protobuf8internal8TcParser8FastV8S1EPNS0_11MessageLiteEPKcPNS1_12ParseContextENS1_11TcFieldDataEPKNS1_16TcParseTableBaseEm } }, %"struct.google::protobuf::internal::TcFieldData" { %union.anon.83 { i64 36591746972713080 } } }] }, %"struct.std::array.139" { [7 x i16] [i16 999, i16 0, i16 1, i16 -2, i16 12, i16 -1, i16 -1] }, %"struct.std::array.90" { [13 x %"struct.google::protobuf::internal::TcParseTableBase::FieldEntry"] [%"struct.google::protobuf::internal::TcParseTableBase::FieldEntry" { i32 120, i32 321, i16 0, i16 7825 }, %"struct.google::protobuf::internal::TcParseTableBase::FieldEntry" { i32 128, i32 323, i16 0, i16 17 }, %"struct.google::protobuf::internal::TcParseTableBase::FieldEntry" { i32 131, i32 326, i16 0, i16 17 }, %"struct.google::protobuf::internal::TcParseTableBase::FieldEntry" { i32 129, i32 324, i16 0, i16 17 }, %"struct.google::protobuf::internal::TcParseTableBase::FieldEntry" { i32 124, i32 322, i16 1, i16 7825 }, %"struct.google::protobuf::internal::TcParseTableBase::FieldEntry" { i32 132, i32 327, i16 0, i16 17 }, %"struct.google::protobuf::internal::TcParseTableBase::FieldEntry" { i32 130, i32 325, i16 0, i16 17 }, %"struct.google::protobuf::internal::TcParseTableBase::FieldEntry" { i32 133, i32 328, i16 0, i16 17 }, %"struct.google::protobuf::internal::TcParseTableBase::FieldEntry" { i32 136, i32 329, i16 2, i16 7825 }, %"struct.google::protobuf::internal::TcParseTableBase::FieldEntry" { i32 48, i32 -1, i16 3, i16 7841 }, %"struct.google::protobuf::internal::TcParseTableBase::FieldEntry" { i32 64, i32 -1, i16 4, i16 1062 }, %"struct.google::protobuf::internal::TcParseTableBase::FieldEntry" { i32 112, i32 320, i16 5, i16 1046 }, %"struct.google::protobuf::internal::TcParseTableBase::FieldEntry" { i32 88, i32 -1, i16 6, i16 1062 }] }, [4 x i8] undef, { <{ { %struct.anon, [4 x i8] }, { %struct.anon, [4 x i8] }, { %struct.anon, [4 x i8] }, { %struct.anon, [4 x i8] }, %"union.google::protobuf::internal::TcParseTableBase::FieldAux", %"union.google::protobuf::internal::TcParseTableBase::FieldAux", %"union.google::protobuf::internal::TcParseTableBase::FieldAux" }> } { <{ { %struct.anon, [4 x i8] }, { %struct.anon, [4 x i8] }, { %struct.anon, [4 x i8] }, { %struct.anon, [4 x i8] }, %"union.google::protobuf::internal::TcParseTableBase::FieldAux", %"union.google::protobuf::internal::TcParseTableBase::FieldAux", %"union.google::protobuf::internal::TcParseTableBase::FieldAux" }> <{ { %struct.anon, [4 x i8] } { %struct.anon { i16 0, i16 3 }, [4 x i8] undef }, { %struct.anon, [4 x i8] } { %struct.anon { i16 0, i16 3 }, [4 x i8] undef }, { %struct.anon, [4 x i8] } { %struct.anon { i16 0, i16 3 }, [4 x i8] undef }, { %struct.anon, [4 x i8] } { %struct.anon { i16 0, i16 10 }, [4 x i8] undef }, %"union.google::protobuf::internal::TcParseTableBase::FieldAux" { ptr @_ZN6google8protobuf27FieldOptions_EditionDefault7_table_E }, %"union.google::protobuf::internal::TcParseTableBase::FieldAux" { ptr @_ZN6google8protobuf10FeatureSet7_table_E }, %"union.google::protobuf::internal::TcParseTableBase::FieldAux" { ptr @_ZN6google8protobuf19UninterpretedOption7_table_E } }> }, %"struct.std::array.87" zeroinitializer }, comdat, align 8
@_ZZNK6google8protobuf12OneofOptions12GetClassDataEvE6_data_ = internal constant { ptr, i32, i8, ptr, ptr } { ptr null, i32 44, i8 0, ptr @_ZN6google8protobuf12OneofOptions9MergeImplERNS0_11MessageLiteERKS2_, ptr @_ZN6google8protobuf7Message18kDescriptorMethodsE }, align 8
@_ZN6google8protobuf12OneofOptions7_table_E = weak_odr global { %"struct.google::protobuf::internal::TcParseTableBase", %"struct.std::array.106", %"struct.std::array.139", %"struct.std::array.136", %"struct.std::array.108", %"struct.std::array.87" } { %"struct.google::protobuf::internal::TcParseTableBase" { i16 40, i16 16, i32 999, i8 24, i16 112, i32 -2, i32 128, i16 2, i16 2, i32 152, ptr @_ZN6google8protobuf31_OneofOptions_default_instance_E, ptr @_ZN6google8protobuf8internal8TcParser15GenericFallbackEPNS0_11MessageLiteEPKcPNS1_12ParseContextENS1_11TcFieldDataEPKNS1_16TcParseTableBaseEm }, %"struct.std::array.106" { [4 x %"struct.google::protobuf::internal::TcParseTableBase::FastFieldEntry"] [%"struct.google::protobuf::internal::TcParseTableBase::FastFieldEntry" { %"struct.std::atomic.81" { %"struct.std::__atomic_base.82" { ptr @_ZN6google8protobuf8internal8TcParser9MiniParseEPNS0_11MessageLiteEPKcPNS1_12ParseContextENS1_11TcFieldDataEPKNS1_16TcParseTableBaseEm } }, %"struct.google::protobuf::internal::TcFieldData" zeroinitializer }, %"struct.google::protobuf::internal::TcParseTableBase::FastFieldEntry" { %"struct.std::atomic.81" { %"struct.std::__atomic_base.82" { ptr @_ZN6google8protobuf8internal8TcParser8FastMtS1EPNS0_11MessageLiteEPKcPNS1_12ParseContextENS1_11TcFieldDataEPKNS1_16TcParseTableBaseEm } }, %"struct.google::protobuf::internal::TcFieldData" { %union.anon.83 { i64 20266198323167242 } } }, %"struct.google::protobuf::internal::TcParseTableBase::FastFieldEntry" { %"struct.std::atomic.81" { %"struct.std::__atomic_base.82" { ptr @_ZN6google8protobuf8internal8TcParser9MiniParseEPNS0_11MessageLiteEPKcPNS1_12ParseContextENS1_11TcFieldDataEPKNS1_16TcParseTableBaseEm } }, %"struct.google::protobuf::internal::TcFieldData" zeroinitializer }, %"struct.google::protobuf::internal::TcParseTableBase::FastFieldEntry" { %"struct.std::atomic.81" { %"struct.std::__atomic_base.82" { ptr @_ZN6google8protobuf8internal8TcParser8FastMtR2EPNS0_11MessageLiteEPKcPNS1_12ParseContextENS1_11TcFieldDataEPKNS1_16TcParseTableBaseEm } }, %"struct.google::protobuf::internal::TcFieldData" { %union.anon.83 { i64 13510798903033530 } } }] }, %"struct.std::array.139" { [7 x i16] [i16 999, i16 0, i16 1, i16 -2, i16 1, i16 -1, i16 -1] }, %"struct.std::array.136" { [2 x %"struct.google::protobuf::internal::TcParseTableBase::FieldEntry"] [%"struct.google::protobuf::internal::TcParseTableBase::FieldEntry" { i32 72, i32 320, i16 0, i16 1046 }, %"struct.google::protobuf::internal::TcParseTableBase::FieldEntry" { i32 48, i32 -1, i16 1, i16 1062 }] }, %"struct.std::array.108" { [2 x %"union.google::protobuf::internal::TcParseTableBase::FieldAux"] [%"union.google::protobuf::internal::TcParseTableBase::FieldAux" { ptr @_ZN6google8protobuf10FeatureSet7_table_E }, %"union.google::protobuf::internal::TcParseTableBase::FieldAux" { ptr @_ZN6google8protobuf19UninterpretedOption7_table_E }] }, %"struct.std::array.87" zeroinitializer }, comdat, align 8
@_ZZNK6google8protobuf11EnumOptions12GetClassDataEvE6_data_ = internal constant { ptr, i32, i8, ptr, ptr } { ptr null, i32 44, i8 0, ptr @_ZN6google8protobuf11EnumOptions9MergeImplERNS0_11MessageLiteERKS2_, ptr @_ZN6google8protobuf7Message18kDescriptorMethodsE }, align 8
@_ZN6google8protobuf11EnumOptions7_table_E = weak_odr global { %"struct.google::protobuf::internal::TcParseTableBase", %"struct.std::array.100", %"struct.std::array.139", %"struct.std::array.101", %"struct.std::array.108", %"struct.std::array.87" } { %"struct.google::protobuf::internal::TcParseTableBase" { i16 40, i16 16, i32 999, i8 56, i16 176, i32 -103, i32 192, i16 5, i16 2, i32 256, ptr @_ZN6google8protobuf30_EnumOptions_default_instance_E, ptr @_ZN6google8protobuf8internal8TcParser15GenericFallbackEPNS0_11MessageLiteEPKcPNS1_12ParseContextENS1_11TcFieldDataEPKNS1_16TcParseTableBaseEm }, %"struct.std::array.100" { [8 x %"struct.google::protobuf::internal::TcParseTableBase::FastFieldEntry"] [%"struct.google::protobuf::internal::TcParseTableBase::FastFieldEntry" { %"struct.std::atomic.81" { %"struct.std::__atomic_base.82" { ptr @_ZN6google8protobuf8internal8TcParser9MiniParseEPNS0_11MessageLiteEPKcPNS1_12ParseContextENS1_11TcFieldDataEPKNS1_16TcParseTableBaseEm } }, %"struct.google::protobuf::internal::TcFieldData" zeroinitializer }, %"struct.google::protobuf::internal::TcParseTableBase::FastFieldEntry" { %"struct.std::atomic.81" { %"struct.std::__atomic_base.82" { ptr @_ZN6google8protobuf8internal8TcParser9MiniParseEPNS0_11MessageLiteEPKcPNS1_12ParseContextENS1_11TcFieldDataEPKNS1_16TcParseTableBaseEm } }, %"struct.google::protobuf::internal::TcFieldData" zeroinitializer }, %"struct.google::protobuf::internal::TcParseTableBase::FastFieldEntry" { %"struct.std::atomic.81" { %"struct.std::__atomic_base.82" { ptr @_ZN6google8protobuf8internal8TcParser8FastV8S1EPNS0_11MessageLiteEPKcPNS1_12ParseContextENS1_11TcFieldDataEPKNS1_16TcParseTableBaseEm } }, %"struct.google::protobuf::internal::TcFieldData" { %union.anon.83 { i64 22517998136918032 } } }, %"struct.google::protobuf::internal::TcParseTableBase::FastFieldEntry" { %"struct.std::atomic.81" { %"struct.std::__atomic_base.82" { ptr @_ZN6google8protobuf8internal8TcParser8FastV8S1EPNS0_11MessageLiteEPKcPNS1_12ParseContextENS1_11TcFieldDataEPKNS1_16TcParseTableBaseEm } }, %"struct.google::protobuf::internal::TcFieldData" { %union.anon.83 { i64 22799473113694232 } } }, %"struct.google::protobuf::internal::TcParseTableBase::FastFieldEntry" { %"struct.std::atomic.81" { %"struct.std::__atomic_base.82" { ptr @_ZN6google8protobuf8internal8TcParser9MiniParseEPNS0_11MessageLiteEPKcPNS1_12ParseContextENS1_11TcFieldDataEPKNS1_16TcParseTableBaseEm } }, %"struct.google::protobuf::internal::TcFieldData" zeroinitializer }, %"struct.google::protobuf::internal::TcParseTableBase::FastFieldEntry" { %"struct.std::atomic.81" { %"struct.std::__atomic_base.82" { ptr @_ZN6google8protobuf8internal8TcParser9MiniParseEPNS0_11MessageLiteEPKcPNS1_12ParseContextENS1_11TcFieldDataEPKNS1_16TcParseTableBaseEm } }, %"struct.google::protobuf::internal::TcFieldData" zeroinitializer }, %"struct.google::protobuf::internal::TcParseTableBase::FastFieldEntry" { %"struct.std::atomic.81" { %"struct.std::__atomic_base.82" { ptr @_ZN6google8protobuf8internal8TcParser8FastV8S1EPNS0_11MessageLiteEPKcPNS1_12ParseContextENS1_11TcFieldDataEPKNS1_16TcParseTableBaseEm } }, %"struct.google::protobuf::internal::TcFieldData" { %union.anon.83 { i64 23080948090470448 } } }, %"struct.google::protobuf::internal::TcParseTableBase::FastFieldEntry" { %"struct.std::atomic.81" { %"struct.std::__atomic_base.82" { ptr @_ZN6google8protobuf8internal8TcParser8FastMtS1EPNS0_11MessageLiteEPKcPNS1_12ParseContextENS1_11TcFieldDataEPKNS1_16TcParseTableBaseEm } }, %"struct.google::protobuf::internal::TcFieldData" { %union.anon.83 { i64 20266198323167290 } } }] }, %"struct.std::array.139" { [7 x i16] [i16 999, i16 0, i16 1, i16 -2, i16 4, i16 -1, i16 -1] }, %"struct.std::array.101" { [5 x %"struct.google::protobuf::internal::TcParseTableBase::FieldEntry"] [%"struct.google::protobuf::internal::TcParseTableBase::FieldEntry" { i32 80, i32 321, i16 0, i16 17 }, %"struct.google::protobuf::internal::TcParseTableBase::FieldEntry" { i32 81, i32 322, i16 0, i16 17 }, %"struct.google::protobuf::internal::TcParseTableBase::FieldEntry" { i32 82, i32 323, i16 0, i16 17 }, %"struct.google::protobuf::internal::TcParseTableBase::FieldEntry" { i32 72, i32 320, i16 0, i16 1046 }, %"struct.google::protobuf::internal::TcParseTableBase::FieldEntry" { i32 48, i32 -1, i16 1, i16 1062 }] }, %"struct.std::array.108" { [2 x %"union.google::protobuf::internal::TcParseTableBase::FieldAux"] [%"union.google::protobuf::internal::TcParseTableBase::FieldAux" { ptr @_ZN6google8protobuf10FeatureSet7_table_E }, %"union.google::protobuf::internal::TcParseTableBase::FieldAux" { ptr @_ZN6google8protobuf19UninterpretedOption7_table_E }] }, %"struct.std::array.87" zeroinitializer }, comdat, align 8
@_ZZNK6google8protobuf16EnumValueOptions12GetClassDataEvE6_data_ = internal constant { ptr, i32, i8, ptr, ptr } { ptr null, i32 44, i8 0, ptr @_ZN6google8protobuf16EnumValueOptions9MergeImplERNS0_11MessageLiteERKS2_, ptr @_ZN6google8protobuf7Message18kDescriptorMethodsE }, align 8
@_ZN6google8protobuf16EnumValueOptions7_table_E = weak_odr global { %"struct.google::protobuf::internal::TcParseTableBase", %"struct.std::array.100", %"struct.std::array.139", %"struct.std::array.131", %"struct.std::array.108", %"struct.std::array.87" } { %"struct.google::protobuf::internal::TcParseTableBase" { i16 40, i16 16, i32 999, i8 56, i16 176, i32 -8, i32 192, i16 4, i16 2, i32 240, ptr @_ZN6google8protobuf35_EnumValueOptions_default_instance_E, ptr @_ZN6google8protobuf8internal8TcParser15GenericFallbackEPNS0_11MessageLiteEPKcPNS1_12ParseContextENS1_11TcFieldDataEPKNS1_16TcParseTableBaseEm }, %"struct.std::array.100" { [8 x %"struct.google::protobuf::internal::TcParseTableBase::FastFieldEntry"] [%"struct.google::protobuf::internal::TcParseTableBase::FastFieldEntry" { %"struct.std::atomic.81" { %"struct.std::__atomic_base.82" { ptr @_ZN6google8protobuf8internal8TcParser9MiniParseEPNS0_11MessageLiteEPKcPNS1_12ParseContextENS1_11TcFieldDataEPKNS1_16TcParseTableBaseEm } }, %"struct.google::protobuf::internal::TcFieldData" zeroinitializer }, %"struct.google::protobuf::internal::TcParseTableBase::FastFieldEntry" { %"struct.std::atomic.81" { %"struct.std::__atomic_base.82" { ptr @_ZN6google8protobuf8internal8TcParser8FastV8S1EPNS0_11MessageLiteEPKcPNS1_12ParseContextENS1_11TcFieldDataEPKNS1_16TcParseTableBaseEm } }, %"struct.google::protobuf::internal::TcFieldData" { %union.anon.83 { i64 22517998136918024 } } }, %"struct.google::protobuf::internal::TcParseTableBase::FastFieldEntry" { %"struct.std::atomic.81" { %"struct.std::__atomic_base.82" { ptr @_ZN6google8protobuf8internal8TcParser8FastMtS1EPNS0_11MessageLiteEPKcPNS1_12ParseContextENS1_11TcFieldDataEPKNS1_16TcParseTableBaseEm } }, %"struct.google::protobuf::internal::TcFieldData" { %union.anon.83 { i64 20266198323167250 } } }, %"struct.google::protobuf::internal::TcParseTableBase::FastFieldEntry" { %"struct.std::atomic.81" { %"struct.std::__atomic_base.82" { ptr @_ZN6google8protobuf8internal8TcParser8FastV8S1EPNS0_11MessageLiteEPKcPNS1_12ParseContextENS1_11TcFieldDataEPKNS1_16TcParseTableBaseEm } }, %"struct.google::protobuf::internal::TcFieldData" { %union.anon.83 { i64 22799473113694232 } } }, %"struct.google::protobuf::internal::TcParseTableBase::FastFieldEntry" { %"struct.std::atomic.81" { %"struct.std::__atomic_base.82" { ptr @_ZN6google8protobuf8internal8TcParser9MiniParseEPNS0_11MessageLiteEPKcPNS1_12ParseContextENS1_11TcFieldDataEPKNS1_16TcParseTableBaseEm } }, %"struct.google::protobuf::internal::TcFieldData" zeroinitializer }, %"struct.google::protobuf::internal::TcParseTableBase::FastFieldEntry" { %"struct.std::atomic.81" { %"struct.std::__atomic_base.82" { ptr @_ZN6google8protobuf8internal8TcParser9MiniParseEPNS0_11MessageLiteEPKcPNS1_12ParseContextENS1_11TcFieldDataEPKNS1_16TcParseTableBaseEm } }, %"struct.google::protobuf::internal::TcFieldData" zeroinitializer }, %"struct.google::protobuf::internal::TcParseTableBase::FastFieldEntry" { %"struct.std::atomic.81" { %"struct.std::__atomic_base.82" { ptr @_ZN6google8protobuf8internal8TcParser9MiniParseEPNS0_11MessageLiteEPKcPNS1_12ParseContextENS1_11TcFieldDataEPKNS1_16TcParseTableBaseEm } }, %"struct.google::protobuf::internal::TcFieldData" zeroinitializer }, %"struct.google::protobuf::internal::TcParseTableBase::FastFieldEntry" { %"struct.std::atomic.81" { %"struct.std::__atomic_base.82" { ptr @_ZN6google8protobuf8internal8TcParser8FastMtR2EPNS0_11MessageLiteEPKcPNS1_12ParseContextENS1_11TcFieldDataEPKNS1_16TcParseTableBaseEm } }, %"struct.google::protobuf::internal::TcFieldData" { %union.anon.83 { i64 13510798903033530 } } }] }, %"struct.std::array.139" { [7 x i16] [i16 999, i16 0, i16 1, i16 -2, i16 3, i16 -1, i16 -1] }, %"struct.std::array.131" { [4 x %"struct.google::protobuf::internal::TcParseTableBase::FieldEntry"] [%"struct.google::protobuf::internal::TcParseTableBase::FieldEntry" { i32 80, i32 321, i16 0, i16 17 }, %"struct.google::protobuf::internal::TcParseTableBase::FieldEntry" { i32 72, i32 320, i16 0, i16 1046 }, %"struct.google::protobuf::internal::TcParseTableBase::FieldEntry" { i32 81, i32 322, i16 0, i16 17 }, %"struct.google::protobuf::internal::TcParseTableBase::FieldEntry" { i32 48, i32 -1, i16 1, i16 1062 }] }, %"struct.std::array.108" { [2 x %"union.google::protobuf::internal::TcParseTableBase::FieldAux"] [%"union.google::protobuf::internal::TcParseTableBase::FieldAux" { ptr @_ZN6google8protobuf10FeatureSet7_table_E }, %"union.google::protobuf::internal::TcParseTableBase::FieldAux" { ptr @_ZN6google8protobuf19UninterpretedOption7_table_E }] }, %"struct.std::array.87" zeroinitializer }, comdat, align 8
@_ZZNK6google8protobuf14ServiceOptions12GetClassDataEvE6_data_ = internal constant { ptr, i32, i8, ptr, ptr } { ptr null, i32 44, i8 0, ptr @_ZN6google8protobuf14ServiceOptions9MergeImplERNS0_11MessageLiteERKS2_, ptr @_ZN6google8protobuf7Message18kDescriptorMethodsE }, align 8
@_ZN6google8protobuf14ServiceOptions7_table_E = weak_odr global { %"struct.google::protobuf::internal::TcParseTableBase", %"struct.std::array.106", %"struct.std::array.116", %"struct.std::array.107", %"struct.std::array.108", %"struct.std::array.87" } { %"struct.google::protobuf::internal::TcParseTableBase" { i16 40, i16 16, i32 999, i8 24, i16 112, i32 -1, i32 136, i16 3, i16 2, i32 176, ptr @_ZN6google8protobuf33_ServiceOptions_default_instance_E, ptr @_ZN6google8protobuf8internal8TcParser15GenericFallbackEPNS0_11MessageLiteEPKcPNS1_12ParseContextENS1_11TcFieldDataEPKNS1_16TcParseTableBaseEm }, %"struct.std::array.106" { [4 x %"struct.google::protobuf::internal::TcParseTableBase::FastFieldEntry"] [%"struct.google::protobuf::internal::TcParseTableBase::FastFieldEntry" { %"struct.std::atomic.81" { %"struct.std::__atomic_base.82" { ptr @_ZN6google8protobuf8internal8TcParser9MiniParseEPNS0_11MessageLiteEPKcPNS1_12ParseContextENS1_11TcFieldDataEPKNS1_16TcParseTableBaseEm } }, %"struct.google::protobuf::internal::TcFieldData" zeroinitializer }, %"struct.google::protobuf::internal::TcParseTableBase::FastFieldEntry" { %"struct.std::atomic.81" { %"struct.std::__atomic_base.82" { ptr @_ZN6google8protobuf8internal8TcParser8FastV8S2EPNS0_11MessageLiteEPKcPNS1_12ParseContextENS1_11TcFieldDataEPKNS1_16TcParseTableBaseEm } }, %"struct.google::protobuf::internal::TcFieldData" { %union.anon.83 { i64 22517998136918664 } } }, %"struct.google::protobuf::internal::TcParseTableBase::FastFieldEntry" { %"struct.std::atomic.81" { %"struct.std::__atomic_base.82" { ptr @_ZN6google8protobuf8internal8TcParser8FastMtS2EPNS0_11MessageLiteEPKcPNS1_12ParseContextENS1_11TcFieldDataEPKNS1_16TcParseTableBaseEm } }, %"struct.google::protobuf::internal::TcFieldData" { %union.anon.83 { i64 20266198323167890 } } }, %"struct.google::protobuf::internal::TcParseTableBase::FastFieldEntry" { %"struct.std::atomic.81" { %"struct.std::__atomic_base.82" { ptr @_ZN6google8protobuf8internal8TcParser8FastMtR2EPNS0_11MessageLiteEPKcPNS1_12ParseContextENS1_11TcFieldDataEPKNS1_16TcParseTableBaseEm } }, %"struct.google::protobuf::internal::TcFieldData" { %union.anon.83 { i64 13510798903033530 } } }] }, %"struct.std::array.116" { [12 x i16] [i16 33, i16 0, i16 1, i16 -4, i16 0, i16 999, i16 0, i16 1, i16 -2, i16 2, i16 -1, i16 -1] }, %"struct.std::array.107" { [3 x %"struct.google::protobuf::internal::TcParseTableBase::FieldEntry"] [%"struct.google::protobuf::internal::TcParseTableBase::FieldEntry" { i32 80, i32 321, i16 0, i16 17 }, %"struct.google::protobuf::internal::TcParseTableBase::FieldEntry" { i32 72, i32 320, i16 0, i16 1046 }, %"struct.google::protobuf::internal::TcParseTableBase::FieldEntry" { i32 48, i32 -1, i16 1, i16 1062 }] }, %"struct.std::array.108" { [2 x %"union.google::protobuf::internal::TcParseTableBase::FieldAux"] [%"union.google::protobuf::internal::TcParseTableBase::FieldAux" { ptr @_ZN6google8protobuf10FeatureSet7_table_E }, %"union.google::protobuf::internal::TcParseTableBase::FieldAux" { ptr @_ZN6google8protobuf19UninterpretedOption7_table_E }] }, %"struct.std::array.87" zeroinitializer }, comdat, align 8
@_ZZNK6google8protobuf13MethodOptions12GetClassDataEvE6_data_ = internal constant { ptr, i32, i8, ptr, ptr } { ptr null, i32 44, i8 0, ptr @_ZN6google8protobuf13MethodOptions9MergeImplERNS0_11MessageLiteERKS2_, ptr @_ZN6google8protobuf7Message18kDescriptorMethodsE }, align 8
@_ZN6google8protobuf13MethodOptions7_table_E = weak_odr global { %"struct.google::protobuf::internal::TcParseTableBase", %"struct.std::array.100", %"struct.std::array.116", %"struct.std::array.131", { <{ { %struct.anon, [4 x i8] }, %"union.google::protobuf::internal::TcParseTableBase::FieldAux", %"union.google::protobuf::internal::TcParseTableBase::FieldAux" }> }, %"struct.std::array.87" } { %"struct.google::protobuf::internal::TcParseTableBase" { i16 40, i16 16, i32 999, i8 56, i16 176, i32 -1, i32 200, i16 4, i16 3, i32 248, ptr @_ZN6google8protobuf32_MethodOptions_default_instance_E, ptr @_ZN6google8protobuf8internal8TcParser15GenericFallbackEPNS0_11MessageLiteEPKcPNS1_12ParseContextENS1_11TcFieldDataEPKNS1_16TcParseTableBaseEm }, %"struct.std::array.100" { [8 x %"struct.google::protobuf::internal::TcParseTableBase::FastFieldEntry"] [%"struct.google::protobuf::internal::TcParseTableBase::FastFieldEntry" { %"struct.std::atomic.81" { %"struct.std::__atomic_base.82" { ptr @_ZN6google8protobuf8internal8TcParser9MiniParseEPNS0_11MessageLiteEPKcPNS1_12ParseContextENS1_11TcFieldDataEPKNS1_16TcParseTableBaseEm } }, %"struct.google::protobuf::internal::TcFieldData" zeroinitializer }, %"struct.google::protobuf::internal::TcParseTableBase::FastFieldEntry" { %"struct.std::atomic.81" { %"struct.std::__atomic_base.82" { ptr @_ZN6google8protobuf8internal8TcParser8FastV8S2EPNS0_11MessageLiteEPKcPNS1_12ParseContextENS1_11TcFieldDataEPKNS1_16TcParseTableBaseEm } }, %"struct.google::protobuf::internal::TcFieldData" { %union.anon.83 { i64 22517998136918664 } } }, %"struct.google::protobuf::internal::TcParseTableBase::FastFieldEntry" { %"struct.std::atomic.81" { %"struct.std::__atomic_base.82" { ptr @_ZN6google8protobuf8internal8TcParser9FastEr0S2EPNS0_11MessageLiteEPKcPNS1_12ParseContextENS1_11TcFieldDataEPKNS1_16TcParseTableBaseEm } }, %"struct.google::protobuf::internal::TcFieldData" { %union.anon.83 { i64 23643898077381264 } } }, %"struct.google::protobuf::internal::TcParseTableBase::FastFieldEntry" { %"struct.std::atomic.81" { %"struct.std::__atomic_base.82" { ptr @_ZN6google8protobuf8internal8TcParser8FastMtS2EPNS0_11MessageLiteEPKcPNS1_12ParseContextENS1_11TcFieldDataEPKNS1_16TcParseTableBaseEm } }, %"struct.google::protobuf::internal::TcFieldData" { %union.anon.83 { i64 20266198339945114 } } }, %"struct.google::protobuf::internal::TcParseTableBase::FastFieldEntry" { %"struct.std::atomic.81" { %"struct.std::__atomic_base.82" { ptr @_ZN6google8protobuf8internal8TcParser9MiniParseEPNS0_11MessageLiteEPKcPNS1_12ParseContextENS1_11TcFieldDataEPKNS1_16TcParseTableBaseEm } }, %"struct.google::protobuf::internal::TcFieldData" zeroinitializer }, %"struct.google::protobuf::internal::TcParseTableBase::FastFieldEntry" { %"struct.std::atomic.81" { %"struct.std::__atomic_base.82" { ptr @_ZN6google8protobuf8internal8TcParser9MiniParseEPNS0_11MessageLiteEPKcPNS1_12ParseContextENS1_11TcFieldDataEPKNS1_16TcParseTableBaseEm } }, %"struct.google::protobuf::internal::TcFieldData" zeroinitializer }, %"struct.google::protobuf::internal::TcParseTableBase::FastFieldEntry" { %"struct.std::atomic.81" { %"struct.std::__atomic_base.82" { ptr @_ZN6google8protobuf8internal8TcParser9MiniParseEPNS0_11MessageLiteEPKcPNS1_12ParseContextENS1_11TcFieldDataEPKNS1_16TcParseTableBaseEm } }, %"struct.google::protobuf::internal::TcFieldData" zeroinitializer }, %"struct.google::protobuf::internal::TcParseTableBase::FastFieldEntry" { %"struct.std::atomic.81" { %"struct.std::__atomic_base.82" { ptr @_ZN6google8protobuf8internal8TcParser8FastMtR2EPNS0_11MessageLiteEPKcPNS1_12ParseContextENS1_11TcFieldDataEPKNS1_16TcParseTableBaseEm } }, %"struct.google::protobuf::internal::TcFieldData" { %union.anon.83 { i64 13510798919810746 } } }] }, %"struct.std::array.116" { [12 x i16] [i16 33, i16 0, i16 1, i16 -8, i16 0, i16 999, i16 0, i16 1, i16 -2, i16 3, i16 -1, i16 -1] }, %"struct.std::array.131" { [4 x %"struct.google::protobuf::internal::TcParseTableBase::FieldEntry"] [%"struct.google::protobuf::internal::TcParseTableBase::FieldEntry" { i32 80, i32 321, i16 0, i16 17 }, %"struct.google::protobuf::internal::TcParseTableBase::FieldEntry" { i32 84, i32 322, i16 0, i16 7825 }, %"struct.google::protobuf::internal::TcParseTableBase::FieldEntry" { i32 72, i32 320, i16 1, i16 1046 }, %"struct.google::protobuf::internal::TcParseTableBase::FieldEntry" { i32 48, i32 -1, i16 2, i16 1062 }] }, { <{ { %struct.anon, [4 x i8] }, %"union.google::protobuf::internal::TcParseTableBase::FieldAux", %"union.google::protobuf::internal::TcParseTableBase::FieldAux" }> } { <{ { %struct.anon, [4 x i8] }, %"union.google::protobuf::internal::TcParseTableBase::FieldAux", %"union.google::protobuf::internal::TcParseTableBase::FieldAux" }> <{ { %struct.anon, [4 x i8] } { %struct.anon { i16 0, i16 3 }, [4 x i8] undef }, %"union.google::protobuf::internal::TcParseTableBase::FieldAux" { ptr @_ZN6google8protobuf10FeatureSet7_table_E }, %"union.google::protobuf::internal::TcParseTableBase::FieldAux" { ptr @_ZN6google8protobuf19UninterpretedOption7_table_E } }> }, %"struct.std::array.87" zeroinitializer }, comdat, align 8
@_ZZNK6google8protobuf28UninterpretedOption_NamePart12GetClassDataEvE6_data_ = internal constant { ptr, i32, i8, ptr, ptr } { ptr null, i32 20, i8 0, ptr @_ZN6google8protobuf28UninterpretedOption_NamePart9MergeImplERNS0_11MessageLiteERKS2_, ptr @_ZN6google8protobuf7Message18kDescriptorMethodsE }, align 8
@_ZN6google8protobuf28UninterpretedOption_NamePart7_table_E = weak_odr global { %"struct.google::protobuf::internal::TcParseTableBase", %"struct.std::array.135", %"struct.std::array.84", %"struct.std::array.136", %"struct.std::array.185" } { %"struct.google::protobuf::internal::TcParseTableBase" { i16 16, i16 0, i32 2, i8 8, i16 80, i32 -4, i32 84, i16 2, i16 0, i32 108, ptr @_ZN6google8protobuf47_UninterpretedOption_NamePart_default_instance_E, ptr @_ZN6google8protobuf8internal8TcParser15GenericFallbackEPNS0_11MessageLiteEPKcPNS1_12ParseContextENS1_11TcFieldDataEPKNS1_16TcParseTableBaseEm }, %"struct.std::array.135" { [2 x %"struct.google::protobuf::internal::TcParseTableBase::FastFieldEntry"] [%"struct.google::protobuf::internal::TcParseTableBase::FastFieldEntry" { %"struct.std::atomic.81" { %"struct.std::__atomic_base.82" { ptr @_ZN6google8protobuf8internal8TcParser8FastV8S1EPNS0_11MessageLiteEPKcPNS1_12ParseContextENS1_11TcFieldDataEPKNS1_16TcParseTableBaseEm } }, %"struct.google::protobuf::internal::TcFieldData" { %union.anon.83 { i64 9007199254806544 } } }, %"struct.google::protobuf::internal::TcParseTableBase::FastFieldEntry" { %"struct.std::atomic.81" { %"struct.std::__atomic_base.82" { ptr @_ZN6google8protobuf8internal8TcParser7FastSS1EPNS0_11MessageLiteEPKcPNS1_12ParseContextENS1_11TcFieldDataEPKNS1_16TcParseTableBaseEm } }, %"struct.google::protobuf::internal::TcFieldData" { %union.anon.83 { i64 6755399441055754 } } }] }, %"struct.std::array.84" { [2 x i16] [i16 -1, i16 -1] }, %"struct.std::array.136" { [2 x %"struct.google::protobuf::internal::TcParseTableBase::FieldEntry"] [%"struct.google::protobuf::internal::TcParseTableBase::FieldEntry" { i32 24, i32 128, i16 0, i16 2581 }, %"struct.google::protobuf::internal::TcParseTableBase::FieldEntry" { i32 32, i32 129, i16 0, i16 17 }] }, %"struct.std::array.185" { [62 x i8] c",\09\00\00\00\00\00\00google.protobuf.UninterpretedOption.NamePartname_part\00" } }, comdat, align 8
@.str.57 = private unnamed_addr constant [55 x i8] c"google.protobuf.UninterpretedOption.NamePart.name_part\00", align 1
@_ZZNK6google8protobuf19UninterpretedOption12GetClassDataEvE6_data_ = internal constant { ptr, i32, i8, ptr, ptr } { ptr null, i32 20, i8 0, ptr @_ZN6google8protobuf19UninterpretedOption9MergeImplERNS0_11MessageLiteERKS2_, ptr @_ZN6google8protobuf7Message18kDescriptorMethodsE }, align 8
@_ZN6google8protobuf19UninterpretedOption7_table_E = weak_odr global { %"struct.google::protobuf::internal::TcParseTableBase", %"struct.std::array.100", %"struct.std::array.84", %"struct.std::array.140", %"struct.std::array.86", %"struct.std::array.156" } { %"struct.google::protobuf::internal::TcParseTableBase" { i16 16, i16 0, i32 8, i8 56, i16 176, i32 -255, i32 180, i16 7, i16 1, i32 264, ptr @_ZN6google8protobuf38_UninterpretedOption_default_instance_E, ptr @_ZN6google8protobuf8internal8TcParser15GenericFallbackEPNS0_11MessageLiteEPKcPNS1_12ParseContextENS1_11TcFieldDataEPKNS1_16TcParseTableBaseEm }, %"struct.std::array.100" { [8 x %"struct.google::protobuf::internal::TcParseTableBase::FastFieldEntry"] [%"struct.google::protobuf::internal::TcParseTableBase::FastFieldEntry" { %"struct.std::atomic.81" { %"struct.std::__atomic_base.82" { ptr @_ZN6google8protobuf8internal8TcParser7FastSS1EPNS0_11MessageLiteEPKcPNS1_12ParseContextENS1_11TcFieldDataEPKNS1_16TcParseTableBaseEm } }, %"struct.google::protobuf::internal::TcFieldData" { %union.anon.83 { i64 18014398509613122 } } }, %"struct.google::protobuf::internal::TcParseTableBase::FastFieldEntry" { %"struct.std::atomic.81" { %"struct.std::__atomic_base.82" { ptr @_ZN6google8protobuf8internal8TcParser9MiniParseEPNS0_11MessageLiteEPKcPNS1_12ParseContextENS1_11TcFieldDataEPKNS1_16TcParseTableBaseEm } }, %"struct.google::protobuf::internal::TcFieldData" zeroinitializer }, %"struct.google::protobuf::internal::TcParseTableBase::FastFieldEntry" { %"struct.std::atomic.81" { %"struct.std::__atomic_base.82" { ptr @_ZN6google8protobuf8internal8TcParser8FastMtR1EPNS0_11MessageLiteEPKcPNS1_12ParseContextENS1_11TcFieldDataEPKNS1_16TcParseTableBaseEm } }, %"struct.google::protobuf::internal::TcFieldData" { %union.anon.83 { i64 6755399445184530 } } }, %"struct.google::protobuf::internal::TcParseTableBase::FastFieldEntry" { %"struct.std::atomic.81" { %"struct.std::__atomic_base.82" { ptr @_ZN6google8protobuf8internal8TcParser7FastSS1EPNS0_11MessageLiteEPKcPNS1_12ParseContextENS1_11TcFieldDataEPKNS1_16TcParseTableBaseEm } }, %"struct.google::protobuf::internal::TcFieldData" { %union.anon.83 { i64 13510798882111514 } } }, %"struct.google::protobuf::internal::TcParseTableBase::FastFieldEntry" { %"struct.std::atomic.81" { %"struct.std::__atomic_base.82" { ptr @_ZN6google8protobuf8internal8TcParser9FastV64S1EPNS0_11MessageLiteEPKcPNS1_12ParseContextENS1_11TcFieldDataEPKNS1_16TcParseTableBaseEm } }, %"struct.google::protobuf::internal::TcFieldData" { %union.anon.83 { i64 20266198323363872 } } }, %"struct.google::protobuf::internal::TcParseTableBase::FastFieldEntry" { %"struct.std::atomic.81" { %"struct.std::__atomic_base.82" { ptr @_ZN6google8protobuf8internal8TcParser9FastV64S1EPNS0_11MessageLiteEPKcPNS1_12ParseContextENS1_11TcFieldDataEPKNS1_16TcParseTableBaseEm } }, %"struct.google::protobuf::internal::TcFieldData" { %union.anon.83 { i64 22517998137114664 } } }, %"struct.google::protobuf::internal::TcParseTableBase::FastFieldEntry" { %"struct.std::atomic.81" { %"struct.std::__atomic_base.82" { ptr @_ZN6google8protobuf8internal8TcParser9FastF64S1EPNS0_11MessageLiteEPKcPNS1_12ParseContextENS1_11TcFieldDataEPKNS1_16TcParseTableBaseEm } }, %"struct.google::protobuf::internal::TcFieldData" { %union.anon.83 { i64 24769797950865457 } } }, %"struct.google::protobuf::internal::TcParseTableBase::FastFieldEntry" { %"struct.std::atomic.81" { %"struct.std::__atomic_base.82" { ptr @_ZN6google8protobuf8internal8TcParser7FastBS1EPNS0_11MessageLiteEPKcPNS1_12ParseContextENS1_11TcFieldDataEPKNS1_16TcParseTableBaseEm } }, %"struct.google::protobuf::internal::TcFieldData" { %union.anon.83 { i64 15762598695862330 } } }] }, %"struct.std::array.84" { [2 x i16] [i16 -1, i16 -1] }, %"struct.std::array.140" { [7 x %"struct.google::protobuf::internal::TcParseTableBase::FieldEntry"] [%"struct.google::protobuf::internal::TcParseTableBase::FieldEntry" { i32 24, i32 -1, i16 0, i16 1062 }, %"struct.google::protobuf::internal::TcParseTableBase::FieldEntry" { i32 48, i32 128, i16 0, i16 2581 }, %"struct.google::protobuf::internal::TcParseTableBase::FieldEntry" { i32 72, i32 131, i16 0, i16 2257 }, %"struct.google::protobuf::internal::TcParseTableBase::FieldEntry" { i32 80, i32 132, i16 0, i16 4305 }, %"struct.google::protobuf::internal::TcParseTableBase::FieldEntry" { i32 88, i32 133, i16 0, i16 6355 }, %"struct.google::protobuf::internal::TcParseTableBase::FieldEntry" { i32 56, i32 129, i16 0, i16 2069 }, %"struct.google::protobuf::internal::TcParseTableBase::FieldEntry" { i32 64, i32 130, i16 0, i16 2581 }] }, %"struct.std::array.86" { [1 x %"union.google::protobuf::internal::TcParseTableBase::FieldAux"] [%"union.google::protobuf::internal::TcParseTableBase::FieldAux" { ptr @_ZN6google8protobuf28UninterpretedOption_NamePart7_table_E }] }, %"struct.std::array.156" { [75 x i8] c"#\00\10\00\00\00\00\0Fgoogle.protobuf.UninterpretedOptionidentifier_valueaggregate_value\00" } }, comdat, align 8
@.str.59 = private unnamed_addr constant [53 x i8] c"google.protobuf.UninterpretedOption.identifier_value\00", align 1
@.str.60 = private unnamed_addr constant [52 x i8] c"google.protobuf.UninterpretedOption.aggregate_value\00", align 1
@_ZZNK6google8protobuf10FeatureSet12GetClassDataEvE6_data_ = internal constant { ptr, i32, i8, ptr, ptr } { ptr null, i32 44, i8 0, ptr @_ZN6google8protobuf10FeatureSet9MergeImplERNS0_11MessageLiteERKS2_, ptr @_ZN6google8protobuf7Message18kDescriptorMethodsE }, align 8
@_ZN6google8protobuf10FeatureSet7_table_E = weak_odr global { %"struct.google::protobuf::internal::TcParseTableBase", %"struct.std::array.100", %"struct.std::array.84", %"struct.std::array.152", [4 x i8], { <{ { %struct.anon, [4 x i8] }, { %struct.anon, [4 x i8] }, { %struct.anon, [4 x i8] }, %"union.google::protobuf::internal::TcParseTableBase::FieldAux", { %struct.anon, [4 x i8] }, { %struct.anon, [4 x i8] } }> }, %"struct.std::array.87" } { %"struct.google::protobuf::internal::TcParseTableBase" { i16 40, i16 16, i32 6, i8 56, i16 176, i32 -64, i32 180, i16 6, i16 6, i32 256, ptr @_ZN6google8protobuf29_FeatureSet_default_instance_E, ptr @_ZN6google8protobuf8internal8TcParser15GenericFallbackEPNS0_11MessageLiteEPKcPNS1_12ParseContextENS1_11TcFieldDataEPKNS1_16TcParseTableBaseEm }, %"struct.std::array.100" { [8 x %"struct.google::protobuf::internal::TcParseTableBase::FastFieldEntry"] [%"struct.google::protobuf::internal::TcParseTableBase::FastFieldEntry" { %"struct.std::atomic.81" { %"struct.std::__atomic_base.82" { ptr @_ZN6google8protobuf8internal8TcParser9MiniParseEPNS0_11MessageLiteEPKcPNS1_12ParseContextENS1_11TcFieldDataEPKNS1_16TcParseTableBaseEm } }, %"struct.google::protobuf::internal::TcFieldData" zeroinitializer }, %"struct.google::protobuf::internal::TcParseTableBase::FastFieldEntry" { %"struct.std::atomic.81" { %"struct.std::__atomic_base.82" { ptr @_ZN6google8protobuf8internal8TcParser9FastEr0S1EPNS0_11MessageLiteEPKcPNS1_12ParseContextENS1_11TcFieldDataEPKNS1_16TcParseTableBaseEm } }, %"struct.google::protobuf::internal::TcFieldData" { %union.anon.83 { i64 13510798932443144 } } }, %"struct.google::protobuf::internal::TcParseTableBase::FastFieldEntry" { %"struct.std::atomic.81" { %"struct.std::__atomic_base.82" { ptr @_ZN6google8protobuf8internal8TcParser9FastEr0S1EPNS0_11MessageLiteEPKcPNS1_12ParseContextENS1_11TcFieldDataEPKNS1_16TcParseTableBaseEm } }, %"struct.google::protobuf::internal::TcFieldData" { %union.anon.83 { i64 14636698822574096 } } }, %"struct.google::protobuf::internal::TcParseTableBase::FastFieldEntry" { %"struct.std::atomic.81" { %"struct.std::__atomic_base.82" { ptr @_ZN6google8protobuf8internal8TcParser9FastEr0S1EPNS0_11MessageLiteEPKcPNS1_12ParseContextENS1_11TcFieldDataEPKNS1_16TcParseTableBaseEm } }, %"struct.google::protobuf::internal::TcFieldData" { %union.anon.83 { i64 15762598729482264 } } }, %"struct.google::protobuf::internal::TcParseTableBase::FastFieldEntry" { %"struct.std::atomic.81" { %"struct.std::__atomic_base.82" { ptr @_ZN6google8protobuf8internal8TcParser8FastEvS1EPNS0_11MessageLiteEPKcPNS1_12ParseContextENS1_11TcFieldDataEPKNS1_16TcParseTableBaseEm } }, %"struct.google::protobuf::internal::TcFieldData" { %union.anon.83 { i64 16888498653167648 } } }, %"struct.google::protobuf::internal::TcParseTableBase::FastFieldEntry" { %"struct.std::atomic.81" { %"struct.std::__atomic_base.82" { ptr @_ZN6google8protobuf8internal8TcParser9FastEr0S1EPNS0_11MessageLiteEPKcPNS1_12ParseContextENS1_11TcFieldDataEPKNS1_16TcParseTableBaseEm } }, %"struct.google::protobuf::internal::TcFieldData" { %union.anon.83 { i64 18014398543298600 } } }, %"struct.google::protobuf::internal::TcParseTableBase::FastFieldEntry" { %"struct.std::atomic.81" { %"struct.std::__atomic_base.82" { ptr @_ZN6google8protobuf8internal8TcParser9FastEr0S1EPNS0_11MessageLiteEPKcPNS1_12ParseContextENS1_11TcFieldDataEPKNS1_16TcParseTableBaseEm } }, %"struct.google::protobuf::internal::TcFieldData" { %union.anon.83 { i64 19140298450206768 } } }, %"struct.google::protobuf::internal::TcParseTableBase::FastFieldEntry" { %"struct.std::atomic.81" { %"struct.std::__atomic_base.82" { ptr @_ZN6google8protobuf8internal8TcParser9MiniParseEPNS0_11MessageLiteEPKcPNS1_12ParseContextENS1_11TcFieldDataEPKNS1_16TcParseTableBaseEm } }, %"struct.google::protobuf::internal::TcFieldData" zeroinitializer }] }, %"struct.std::array.84" { [2 x i16] [i16 -1, i16 -1] }, %"struct.std::array.152" { [6 x %"struct.google::protobuf::internal::TcParseTableBase::FieldEntry"] [%"struct.google::protobuf::internal::TcParseTableBase::FieldEntry" { i32 48, i32 320, i16 0, i16 7825 }, %"struct.google::protobuf::internal::TcParseTableBase::FieldEntry" { i32 52, i32 321, i16 1, i16 7825 }, %"struct.google::protobuf::internal::TcParseTableBase::FieldEntry" { i32 56, i32 322, i16 2, i16 7825 }, %"struct.google::protobuf::internal::TcParseTableBase::FieldEntry" { i32 60, i32 323, i16 3, i16 7313 }, %"struct.google::protobuf::internal::TcParseTableBase::FieldEntry" { i32 64, i32 324, i16 4, i16 7825 }, %"struct.google::protobuf::internal::TcParseTableBase::FieldEntry" { i32 68, i32 325, i16 5, i16 7825 }] }, [4 x i8] undef, { <{ { %struct.anon, [4 x i8] }, { %struct.anon, [4 x i8] }, { %struct.anon, [4 x i8] }, %"union.google::protobuf::internal::TcParseTableBase::FieldAux", { %struct.anon, [4 x i8] }, { %struct.anon, [4 x i8] } }> } { <{ { %struct.anon, [4 x i8] }, { %struct.anon, [4 x i8] }, { %struct.anon, [4 x i8] }, %"union.google::protobuf::internal::TcParseTableBase::FieldAux", { %struct.anon, [4 x i8] }, { %struct.anon, [4 x i8] } }> <{ { %struct.anon, [4 x i8] } { %struct.anon { i16 0, i16 4 }, [4 x i8] undef }, { %struct.anon, [4 x i8] } { %struct.anon { i16 0, i16 3 }, [4 x i8] undef }, { %struct.anon, [4 x i8] } { %struct.anon { i16 0, i16 3 }, [4 x i8] undef }, %"union.google::protobuf::internal::TcParseTableBase::FieldAux" { ptr @_ZN6google8protobuf40FeatureSet_Utf8Validation_internal_data_E }, { %struct.anon, [4 x i8] } { %struct.anon { i16 0, i16 3 }, [4 x i8] undef }, { %struct.anon, [4 x i8] } { %struct.anon { i16 0, i16 3 }, [4 x i8] undef } }> }, %"struct.std::array.87" zeroinitializer }, comdat, align 8
@_ZZNK6google8protobuf43FeatureSetDefaults_FeatureSetEditionDefault12GetClassDataEvE6_data_ = internal constant { ptr, i32, i8, ptr, ptr } { ptr null, i32 20, i8 0, ptr @_ZN6google8protobuf43FeatureSetDefaults_FeatureSetEditionDefault9MergeImplERNS0_11MessageLiteERKS2_, ptr @_ZN6google8protobuf7Message18kDescriptorMethodsE }, align 8
@_ZN6google8protobuf43FeatureSetDefaults_FeatureSetEditionDefault7_table_E = weak_odr global { %"struct.google::protobuf::internal::TcParseTableBase", %"struct.std::array.135", %"struct.std::array.84", %"struct.std::array.136", %"struct.std::array.108", %"struct.std::array.87" } { %"struct.google::protobuf::internal::TcParseTableBase" { i16 16, i16 0, i32 3, i8 8, i16 80, i32 -7, i32 84, i16 2, i16 2, i32 112, ptr @_ZN6google8protobuf62_FeatureSetDefaults_FeatureSetEditionDefault_default_instance_E, ptr @_ZN6google8protobuf8internal8TcParser15GenericFallbackEPNS0_11MessageLiteEPKcPNS1_12ParseContextENS1_11TcFieldDataEPKNS1_16TcParseTableBaseEm }, %"struct.std::array.135" { [2 x %"struct.google::protobuf::internal::TcParseTableBase::FastFieldEntry"] [%"struct.google::protobuf::internal::TcParseTableBase::FastFieldEntry" { %"struct.std::atomic.81" { %"struct.std::__atomic_base.82" { ptr @_ZN6google8protobuf8internal8TcParser8FastMtS1EPNS0_11MessageLiteEPKcPNS1_12ParseContextENS1_11TcFieldDataEPKNS1_16TcParseTableBaseEm } }, %"struct.google::protobuf::internal::TcFieldData" { %union.anon.83 { i64 6755399441055762 } } }, %"struct.google::protobuf::internal::TcParseTableBase::FastFieldEntry" { %"struct.std::atomic.81" { %"struct.std::__atomic_base.82" { ptr @_ZN6google8protobuf8internal8TcParser8FastEvS1EPNS0_11MessageLiteEPKcPNS1_12ParseContextENS1_11TcFieldDataEPKNS1_16TcParseTableBaseEm } }, %"struct.google::protobuf::internal::TcFieldData" { %union.anon.83 { i64 9007199271583768 } } }] }, %"struct.std::array.84" { [2 x i16] [i16 -1, i16 -1] }, %"struct.std::array.136" { [2 x %"struct.google::protobuf::internal::TcParseTableBase::FieldEntry"] [%"struct.google::protobuf::internal::TcParseTableBase::FieldEntry" { i32 24, i32 128, i16 0, i16 1046 }, %"struct.google::protobuf::internal::TcParseTableBase::FieldEntry" { i32 32, i32 129, i16 1, i16 7313 }] }, %"struct.std::array.108" { [2 x %"union.google::protobuf::internal::TcParseTableBase::FieldAux"] [%"union.google::protobuf::internal::TcParseTableBase::FieldAux" { ptr @_ZN6google8protobuf10FeatureSet7_table_E }, %"union.google::protobuf::internal::TcParseTableBase::FieldAux" { ptr @_ZN6google8protobuf22Edition_internal_data_E }] }, %"struct.std::array.87" zeroinitializer }, comdat, align 8
@_ZZNK6google8protobuf18FeatureSetDefaults12GetClassDataEvE6_data_ = internal constant { ptr, i32, i8, ptr, ptr } { ptr null, i32 20, i8 0, ptr @_ZN6google8protobuf18FeatureSetDefaults9MergeImplERNS0_11MessageLiteERKS2_, ptr @_ZN6google8protobuf7Message18kDescriptorMethodsE }, align 8
@_ZN6google8protobuf18FeatureSetDefaults7_table_E = weak_odr global { %"struct.google::protobuf::internal::TcParseTableBase", %"struct.std::array.135", %"struct.std::array.84", %"struct.std::array.107", %"struct.std::array.102", %"struct.std::array.87" } { %"struct.google::protobuf::internal::TcParseTableBase" { i16 16, i16 0, i32 5, i8 8, i16 80, i32 -26, i32 84, i16 3, i16 3, i32 120, ptr @_ZN6google8protobuf37_FeatureSetDefaults_default_instance_E, ptr @_ZN6google8protobuf8internal8TcParser15GenericFallbackEPNS0_11MessageLiteEPKcPNS1_12ParseContextENS1_11TcFieldDataEPKNS1_16TcParseTableBaseEm }, %"struct.std::array.135" { [2 x %"struct.google::protobuf::internal::TcParseTableBase::FastFieldEntry"] [%"struct.google::protobuf::internal::TcParseTableBase::FastFieldEntry" { %"struct.std::atomic.81" { %"struct.std::__atomic_base.82" { ptr @_ZN6google8protobuf8internal8TcParser8FastEvS1EPNS0_11MessageLiteEPKcPNS1_12ParseContextENS1_11TcFieldDataEPKNS1_16TcParseTableBaseEm } }, %"struct.google::protobuf::internal::TcFieldData" { %union.anon.83 { i64 13510798898888736 } } }, %"struct.google::protobuf::internal::TcParseTableBase::FastFieldEntry" { %"struct.std::atomic.81" { %"struct.std::__atomic_base.82" { ptr @_ZN6google8protobuf8internal8TcParser8FastMtR1EPNS0_11MessageLiteEPKcPNS1_12ParseContextENS1_11TcFieldDataEPKNS1_16TcParseTableBaseEm } }, %"struct.google::protobuf::internal::TcFieldData" { %union.anon.83 { i64 6755399445184522 } } }] }, %"struct.std::array.84" { [2 x i16] [i16 -1, i16 -1] }, %"struct.std::array.107" { [3 x %"struct.google::protobuf::internal::TcParseTableBase::FieldEntry"] [%"struct.google::protobuf::internal::TcParseTableBase::FieldEntry" { i32 24, i32 -1, i16 0, i16 1062 }, %"struct.google::protobuf::internal::TcParseTableBase::FieldEntry" { i32 48, i32 128, i16 1, i16 7313 }, %"struct.google::protobuf::internal::TcParseTableBase::FieldEntry" { i32 52, i32 129, i16 2, i16 7313 }] }, %"struct.std::array.102" { [3 x %"union.google::protobuf::internal::TcParseTableBase::FieldAux"] [%"union.google::protobuf::internal::TcParseTableBase::FieldAux" { ptr @_ZN6google8protobuf43FeatureSetDefaults_FeatureSetEditionDefault7_table_E }, %"union.google::protobuf::internal::TcParseTableBase::FieldAux" { ptr @_ZN6google8protobuf22Edition_internal_data_E }, %"union.google::protobuf::internal::TcParseTableBase::FieldAux" { ptr @_ZN6google8protobuf22Edition_internal_data_E }] }, %"struct.std::array.87" zeroinitializer }, comdat, align 8
@_ZZNK6google8protobuf23SourceCodeInfo_Location12GetClassDataEvE6_data_ = internal constant { ptr, i32, i8, ptr, ptr } { ptr null, i32 20, i8 0, ptr @_ZN6google8protobuf23SourceCodeInfo_Location9MergeImplERNS0_11MessageLiteERKS2_, ptr @_ZN6google8protobuf7Message18kDescriptorMethodsE }, align 8
@_ZN6google8protobuf23SourceCodeInfo_Location7_table_E = weak_odr global { %"struct.google::protobuf::internal::TcParseTableBase", %"struct.std::array.100", %"struct.std::array.84", %"struct.std::array.101", %"struct.std::array.194" } { %"struct.google::protobuf::internal::TcParseTableBase" { i16 16, i16 0, i32 6, i8 56, i16 176, i32 -48, i32 180, i16 5, i16 0, i32 240, ptr @_ZN6google8protobuf42_SourceCodeInfo_Location_default_instance_E, ptr @_ZN6google8protobuf8internal8TcParser15GenericFallbackEPNS0_11MessageLiteEPKcPNS1_12ParseContextENS1_11TcFieldDataEPKNS1_16TcParseTableBaseEm }, %"struct.std::array.100" { [8 x %"struct.google::protobuf::internal::TcParseTableBase::FastFieldEntry"] [%"struct.google::protobuf::internal::TcParseTableBase::FastFieldEntry" { %"struct.std::atomic.81" { %"struct.std::__atomic_base.82" { ptr @_ZN6google8protobuf8internal8TcParser9MiniParseEPNS0_11MessageLiteEPKcPNS1_12ParseContextENS1_11TcFieldDataEPKNS1_16TcParseTableBaseEm } }, %"struct.google::protobuf::internal::TcFieldData" zeroinitializer }, %"struct.google::protobuf::internal::TcParseTableBase::FastFieldEntry" { %"struct.std::atomic.81" { %"struct.std::__atomic_base.82" { ptr @_ZN6google8protobuf8internal8TcParser9FastV32P1EPNS0_11MessageLiteEPKcPNS1_12ParseContextENS1_11TcFieldDataEPKNS1_16TcParseTableBaseEm } }, %"struct.google::protobuf::internal::TcFieldData" { %union.anon.83 { i64 6755399445184522 } } }, %"struct.google::protobuf::internal::TcParseTableBase::FastFieldEntry" { %"struct.std::atomic.81" { %"struct.std::__atomic_base.82" { ptr @_ZN6google8protobuf8internal8TcParser9FastV32P1EPNS0_11MessageLiteEPKcPNS1_12ParseContextENS1_11TcFieldDataEPKNS1_16TcParseTableBaseEm } }, %"struct.google::protobuf::internal::TcFieldData" { %union.anon.83 { i64 13510798886240274 } } }, %"struct.google::protobuf::internal::TcParseTableBase::FastFieldEntry" { %"struct.std::atomic.81" { %"struct.std::__atomic_base.82" { ptr @_ZN6google8protobuf8internal8TcParser7FastSS1EPNS0_11MessageLiteEPKcPNS1_12ParseContextENS1_11TcFieldDataEPKNS1_16TcParseTableBaseEm } }, %"struct.google::protobuf::internal::TcFieldData" { %union.anon.83 { i64 27021597764223002 } } }, %"struct.google::protobuf::internal::TcParseTableBase::FastFieldEntry" { %"struct.std::atomic.81" { %"struct.std::__atomic_base.82" { ptr @_ZN6google8protobuf8internal8TcParser7FastSS1EPNS0_11MessageLiteEPKcPNS1_12ParseContextENS1_11TcFieldDataEPKNS1_16TcParseTableBaseEm } }, %"struct.google::protobuf::internal::TcFieldData" { %union.anon.83 { i64 29273397577973794 } } }, %"struct.google::protobuf::internal::TcParseTableBase::FastFieldEntry" { %"struct.std::atomic.81" { %"struct.std::__atomic_base.82" { ptr @_ZN6google8protobuf8internal8TcParser9MiniParseEPNS0_11MessageLiteEPKcPNS1_12ParseContextENS1_11TcFieldDataEPKNS1_16TcParseTableBaseEm } }, %"struct.google::protobuf::internal::TcFieldData" zeroinitializer }, %"struct.google::protobuf::internal::TcParseTableBase::FastFieldEntry" { %"struct.std::atomic.81" { %"struct.std::__atomic_base.82" { ptr @_ZN6google8protobuf8internal8TcParser7FastSR1EPNS0_11MessageLiteEPKcPNS1_12ParseContextENS1_11TcFieldDataEPKNS1_16TcParseTableBaseEm } }, %"struct.google::protobuf::internal::TcFieldData" { %union.anon.83 { i64 20266198327296050 } } }, %"struct.google::protobuf::internal::TcParseTableBase::FastFieldEntry" { %"struct.std::atomic.81" { %"struct.std::__atomic_base.82" { ptr @_ZN6google8protobuf8internal8TcParser9MiniParseEPNS0_11MessageLiteEPKcPNS1_12ParseContextENS1_11TcFieldDataEPKNS1_16TcParseTableBaseEm } }, %"struct.google::protobuf::internal::TcFieldData" zeroinitializer }] }, %"struct.std::array.84" { [2 x i16] [i16 -1, i16 -1] }, %"struct.std::array.101" { [5 x %"struct.google::protobuf::internal::TcParseTableBase::FieldEntry"] [%"struct.google::protobuf::internal::TcParseTableBase::FieldEntry" { i32 24, i32 -1, i16 0, i16 4258 }, %"struct.google::protobuf::internal::TcParseTableBase::FieldEntry" { i32 48, i32 -1, i16 0, i16 4258 }, %"struct.google::protobuf::internal::TcParseTableBase::FieldEntry" { i32 96, i32 128, i16 0, i16 2581 }, %"struct.google::protobuf::internal::TcParseTableBase::FieldEntry" { i32 104, i32 129, i16 0, i16 2581 }, %"struct.google::protobuf::internal::TcParseTableBase::FieldEntry" { i32 72, i32 -1, i16 0, i16 2853 }] }, %"struct.std::array.194" { [106 x i8] c"'\00\00\10\11\19\00\00google.protobuf.SourceCodeInfo.Locationleading_commentstrailing_commentsleading_detached_comments\00" } }, comdat, align 8
@.str.65 = private unnamed_addr constant [57 x i8] c"google.protobuf.SourceCodeInfo.Location.leading_comments\00", align 1
@.str.66 = private unnamed_addr constant [58 x i8] c"google.protobuf.SourceCodeInfo.Location.trailing_comments\00", align 1
@.str.67 = private unnamed_addr constant [66 x i8] c"google.protobuf.SourceCodeInfo.Location.leading_detached_comments\00", align 1
@_ZZNK6google8protobuf14SourceCodeInfo12GetClassDataEvE6_data_ = internal constant { ptr, i32, i8, ptr, ptr } { ptr null, i32 40, i8 0, ptr @_ZN6google8protobuf14SourceCodeInfo9MergeImplERNS0_11MessageLiteERKS2_, ptr @_ZN6google8protobuf7Message18kDescriptorMethodsE }, align 8
@_ZN6google8protobuf14SourceCodeInfo7_table_E = weak_odr global { %"struct.google::protobuf::internal::TcParseTableBase", %"struct.std::array", %"struct.std::array.84", %"struct.std::array.85", %"struct.std::array.86", %"struct.std::array.87" } { %"struct.google::protobuf::internal::TcParseTableBase" { i16 0, i16 0, i32 1, i8 0, i16 64, i32 -2, i32 68, i16 1, i16 1, i32 80, ptr @_ZN6google8protobuf33_SourceCodeInfo_default_instance_E, ptr @_ZN6google8protobuf8internal8TcParser15GenericFallbackEPNS0_11MessageLiteEPKcPNS1_12ParseContextENS1_11TcFieldDataEPKNS1_16TcParseTableBaseEm }, %"struct.std::array" { [1 x %"struct.google::protobuf::internal::TcParseTableBase::FastFieldEntry"] [%"struct.google::protobuf::internal::TcParseTableBase::FastFieldEntry" { %"struct.std::atomic.81" { %"struct.std::__atomic_base.82" { ptr @_ZN6google8protobuf8internal8TcParser8FastMtR1EPNS0_11MessageLiteEPKcPNS1_12ParseContextENS1_11TcFieldDataEPKNS1_16TcParseTableBaseEm } }, %"struct.google::protobuf::internal::TcFieldData" { %union.anon.83 { i64 4503599631499274 } } }] }, %"struct.std::array.84" { [2 x i16] [i16 -1, i16 -1] }, %"struct.std::array.85" { [1 x %"struct.google::protobuf::internal::TcParseTableBase::FieldEntry"] [%"struct.google::protobuf::internal::TcParseTableBase::FieldEntry" { i32 16, i32 0, i16 0, i16 1062 }] }, %"struct.std::array.86" { [1 x %"union.google::protobuf::internal::TcParseTableBase::FieldAux"] [%"union.google::protobuf::internal::TcParseTableBase::FieldAux" { ptr @_ZN6google8protobuf23SourceCodeInfo_Location7_table_E }] }, %"struct.std::array.87" zeroinitializer }, comdat, align 8
@_ZZNK6google8protobuf28GeneratedCodeInfo_Annotation12GetClassDataEvE6_data_ = internal constant { ptr, i32, i8, ptr, ptr } { ptr null, i32 20, i8 0, ptr @_ZN6google8protobuf28GeneratedCodeInfo_Annotation9MergeImplERNS0_11MessageLiteERKS2_, ptr @_ZN6google8protobuf7Message18kDescriptorMethodsE }, align 8
@_ZN6google8protobuf28GeneratedCodeInfo_Annotation7_table_E = weak_odr global { %"struct.google::protobuf::internal::TcParseTableBase", %"struct.std::array.100", %"struct.std::array.84", %"struct.std::array.101", { [1 x { %struct.anon, [4 x i8] }] }, %"struct.std::array.198" } { %"struct.google::protobuf::internal::TcParseTableBase" { i16 16, i16 0, i32 5, i8 56, i16 176, i32 -32, i32 180, i16 5, i16 1, i32 240, ptr @_ZN6google8protobuf47_GeneratedCodeInfo_Annotation_default_instance_E, ptr @_ZN6google8protobuf8internal8TcParser15GenericFallbackEPNS0_11MessageLiteEPKcPNS1_12ParseContextENS1_11TcFieldDataEPKNS1_16TcParseTableBaseEm }, %"struct.std::array.100" { [8 x %"struct.google::protobuf::internal::TcParseTableBase::FastFieldEntry"] [%"struct.google::protobuf::internal::TcParseTableBase::FastFieldEntry" { %"struct.std::atomic.81" { %"struct.std::__atomic_base.82" { ptr @_ZN6google8protobuf8internal8TcParser9MiniParseEPNS0_11MessageLiteEPKcPNS1_12ParseContextENS1_11TcFieldDataEPKNS1_16TcParseTableBaseEm } }, %"struct.google::protobuf::internal::TcFieldData" zeroinitializer }, %"struct.google::protobuf::internal::TcParseTableBase::FastFieldEntry" { %"struct.std::atomic.81" { %"struct.std::__atomic_base.82" { ptr @_ZN6google8protobuf8internal8TcParser9FastV32P1EPNS0_11MessageLiteEPKcPNS1_12ParseContextENS1_11TcFieldDataEPKNS1_16TcParseTableBaseEm } }, %"struct.google::protobuf::internal::TcFieldData" { %union.anon.83 { i64 6755399445184522 } } }, %"struct.google::protobuf::internal::TcParseTableBase::FastFieldEntry" { %"struct.std::atomic.81" { %"struct.std::__atomic_base.82" { ptr @_ZN6google8protobuf8internal8TcParser7FastSS1EPNS0_11MessageLiteEPKcPNS1_12ParseContextENS1_11TcFieldDataEPKNS1_16TcParseTableBaseEm } }, %"struct.google::protobuf::internal::TcFieldData" { %union.anon.83 { i64 13510798882111506 } } }, %"struct.google::protobuf::internal::TcParseTableBase::FastFieldEntry" { %"struct.std::atomic.81" { %"struct.std::__atomic_base.82" { ptr @_ZN6google8protobuf8internal8TcParser9FastV32S1EPNS0_11MessageLiteEPKcPNS1_12ParseContextENS1_11TcFieldDataEPKNS1_16TcParseTableBaseEm } }, %"struct.google::protobuf::internal::TcFieldData" { %union.anon.83 { i64 15762598695862296 } } }, %"struct.google::protobuf::internal::TcParseTableBase::FastFieldEntry" { %"struct.std::atomic.81" { %"struct.std::__atomic_base.82" { ptr @_ZN6google8protobuf8internal8TcParser9FastV32S1EPNS0_11MessageLiteEPKcPNS1_12ParseContextENS1_11TcFieldDataEPKNS1_16TcParseTableBaseEm } }, %"struct.google::protobuf::internal::TcFieldData" { %union.anon.83 { i64 16888498602770464 } } }, %"struct.google::protobuf::internal::TcParseTableBase::FastFieldEntry" { %"struct.std::atomic.81" { %"struct.std::__atomic_base.82" { ptr @_ZN6google8protobuf8internal8TcParser9FastEr0S1EPNS0_11MessageLiteEPKcPNS1_12ParseContextENS1_11TcFieldDataEPKNS1_16TcParseTableBaseEm } }, %"struct.google::protobuf::internal::TcFieldData" { %union.anon.83 { i64 18014398543233064 } } }, %"struct.google::protobuf::internal::TcParseTableBase::FastFieldEntry" { %"struct.std::atomic.81" { %"struct.std::__atomic_base.82" { ptr @_ZN6google8protobuf8internal8TcParser9MiniParseEPNS0_11MessageLiteEPKcPNS1_12ParseContextENS1_11TcFieldDataEPKNS1_16TcParseTableBaseEm } }, %"struct.google::protobuf::internal::TcFieldData" zeroinitializer }, %"struct.google::protobuf::internal::TcParseTableBase::FastFieldEntry" { %"struct.std::atomic.81" { %"struct.std::__atomic_base.82" { ptr @_ZN6google8protobuf8internal8TcParser9MiniParseEPNS0_11MessageLiteEPKcPNS1_12ParseContextENS1_11TcFieldDataEPKNS1_16TcParseTableBaseEm } }, %"struct.google::protobuf::internal::TcFieldData" zeroinitializer }] }, %"struct.std::array.84" { [2 x i16] [i16 -1, i16 -1] }, %"struct.std::array.101" { [5 x %"struct.google::protobuf::internal::TcParseTableBase::FieldEntry"] [%"struct.google::protobuf::internal::TcParseTableBase::FieldEntry" { i32 24, i32 -1, i16 0, i16 4258 }, %"struct.google::protobuf::internal::TcParseTableBase::FieldEntry" { i32 48, i32 128, i16 0, i16 2581 }, %"struct.google::protobuf::internal::TcParseTableBase::FieldEntry" { i32 56, i32 129, i16 0, i16 4241 }, %"struct.google::protobuf::internal::TcParseTableBase::FieldEntry" { i32 60, i32 130, i16 0, i16 4241 }, %"struct.google::protobuf::internal::TcParseTableBase::FieldEntry" { i32 64, i32 131, i16 0, i16 7825 }] }, { [1 x { %struct.anon, [4 x i8] }] } { [1 x { %struct.anon, [4 x i8] }] [{ %struct.anon, [4 x i8] } { %struct.anon { i16 0, i16 3 }, [4 x i8] undef }] }, %"struct.std::array.198" { [64 x i8] c",\00\0B\00\00\00\00\00google.protobuf.GeneratedCodeInfo.Annotationsource_file\00" } }, comdat, align 8
@.str.70 = private unnamed_addr constant [57 x i8] c"google.protobuf.GeneratedCodeInfo.Annotation.source_file\00", align 1
@_ZZNK6google8protobuf17GeneratedCodeInfo12GetClassDataEvE6_data_ = internal constant { ptr, i32, i8, ptr, ptr } { ptr null, i32 40, i8 0, ptr @_ZN6google8protobuf17GeneratedCodeInfo9MergeImplERNS0_11MessageLiteERKS2_, ptr @_ZN6google8protobuf7Message18kDescriptorMethodsE }, align 8
@_ZN6google8protobuf17GeneratedCodeInfo7_table_E = weak_odr global { %"struct.google::protobuf::internal::TcParseTableBase", %"struct.std::array", %"struct.std::array.84", %"struct.std::array.85", %"struct.std::array.86", %"struct.std::array.87" } { %"struct.google::protobuf::internal::TcParseTableBase" { i16 0, i16 0, i32 1, i8 0, i16 64, i32 -2, i32 68, i16 1, i16 1, i32 80, ptr @_ZN6google8protobuf36_GeneratedCodeInfo_default_instance_E, ptr @_ZN6google8protobuf8internal8TcParser15GenericFallbackEPNS0_11MessageLiteEPKcPNS1_12ParseContextENS1_11TcFieldDataEPKNS1_16TcParseTableBaseEm }, %"struct.std::array" { [1 x %"struct.google::protobuf::internal::TcParseTableBase::FastFieldEntry"] [%"struct.google::protobuf::internal::TcParseTableBase::FastFieldEntry" { %"struct.std::atomic.81" { %"struct.std::__atomic_base.82" { ptr @_ZN6google8protobuf8internal8TcParser8FastMtR1EPNS0_11MessageLiteEPKcPNS1_12ParseContextENS1_11TcFieldDataEPKNS1_16TcParseTableBaseEm } }, %"struct.google::protobuf::internal::TcFieldData" { %union.anon.83 { i64 4503599631499274 } } }] }, %"struct.std::array.84" { [2 x i16] [i16 -1, i16 -1] }, %"struct.std::array.85" { [1 x %"struct.google::protobuf::internal::TcParseTableBase::FieldEntry"] [%"struct.google::protobuf::internal::TcParseTableBase::FieldEntry" { i32 16, i32 0, i16 0, i16 1062 }] }, %"struct.std::array.86" { [1 x %"union.google::protobuf::internal::TcParseTableBase::FieldAux"] [%"union.google::protobuf::internal::TcParseTableBase::FieldAux" { ptr @_ZN6google8protobuf28GeneratedCodeInfo_Annotation7_table_E }] }, %"struct.std::array.87" zeroinitializer }, comdat, align 8
@_ZTVN10__cxxabiv120__si_class_type_infoE = external global [0 x ptr]
@_ZTSN6google8protobuf28UninterpretedOption_NamePartE = constant [49 x i8] c"N6google8protobuf28UninterpretedOption_NamePartE\00", align 1
@_ZTIN6google8protobuf7MessageE = external constant ptr
@_ZTIN6google8protobuf28UninterpretedOption_NamePartE = constant { ptr, ptr, ptr } { ptr getelementptr inbounds (ptr, ptr @_ZTVN10__cxxabiv120__si_class_type_infoE, i64 2), ptr @_ZTSN6google8protobuf28UninterpretedOption_NamePartE, ptr @_ZTIN6google8protobuf7MessageE }, align 8
@_ZTSN6google8protobuf23SourceCodeInfo_LocationE = constant [44 x i8] c"N6google8protobuf23SourceCodeInfo_LocationE\00", align 1
@_ZTIN6google8protobuf23SourceCodeInfo_LocationE = constant { ptr, ptr, ptr } { ptr getelementptr inbounds (ptr, ptr @_ZTVN10__cxxabiv120__si_class_type_infoE, i64 2), ptr @_ZTSN6google8protobuf23SourceCodeInfo_LocationE, ptr @_ZTIN6google8protobuf7MessageE }, align 8
@_ZTSN6google8protobuf28GeneratedCodeInfo_AnnotationE = constant [49 x i8] c"N6google8protobuf28GeneratedCodeInfo_AnnotationE\00", align 1
@_ZTIN6google8protobuf28GeneratedCodeInfo_AnnotationE = constant { ptr, ptr, ptr } { ptr getelementptr inbounds (ptr, ptr @_ZTVN10__cxxabiv120__si_class_type_infoE, i64 2), ptr @_ZTSN6google8protobuf28GeneratedCodeInfo_AnnotationE, ptr @_ZTIN6google8protobuf7MessageE }, align 8
@_ZTSN6google8protobuf27FieldOptions_EditionDefaultE = constant [48 x i8] c"N6google8protobuf27FieldOptions_EditionDefaultE\00", align 1
@_ZTIN6google8protobuf27FieldOptions_EditionDefaultE = constant { ptr, ptr, ptr } { ptr getelementptr inbounds (ptr, ptr @_ZTVN10__cxxabiv120__si_class_type_infoE, i64 2), ptr @_ZTSN6google8protobuf27FieldOptions_EditionDefaultE, ptr @_ZTIN6google8protobuf7MessageE }, align 8
@_ZTSN6google8protobuf10FeatureSetE = constant [31 x i8] c"N6google8protobuf10FeatureSetE\00", align 1
@_ZTIN6google8protobuf10FeatureSetE = constant { ptr, ptr, ptr } { ptr getelementptr inbounds (ptr, ptr @_ZTVN10__cxxabiv120__si_class_type_infoE, i64 2), ptr @_ZTSN6google8protobuf10FeatureSetE, ptr @_ZTIN6google8protobuf7MessageE }, align 8
@_ZTSN6google8protobuf33ExtensionRangeOptions_DeclarationE = constant [54 x i8] c"N6google8protobuf33ExtensionRangeOptions_DeclarationE\00", align 1
@_ZTIN6google8protobuf33ExtensionRangeOptions_DeclarationE = constant { ptr, ptr, ptr } { ptr getelementptr inbounds (ptr, ptr @_ZTVN10__cxxabiv120__si_class_type_infoE, i64 2), ptr @_ZTSN6google8protobuf33ExtensionRangeOptions_DeclarationE, ptr @_ZTIN6google8protobuf7MessageE }, align 8
@_ZTSN6google8protobuf37EnumDescriptorProto_EnumReservedRangeE = constant [58 x i8] c"N6google8protobuf37EnumDescriptorProto_EnumReservedRangeE\00", align 1
@_ZTIN6google8protobuf37EnumDescriptorProto_EnumReservedRangeE = constant { ptr, ptr, ptr } { ptr getelementptr inbounds (ptr, ptr @_ZTVN10__cxxabiv120__si_class_type_infoE, i64 2), ptr @_ZTSN6google8protobuf37EnumDescriptorProto_EnumReservedRangeE, ptr @_ZTIN6google8protobuf7MessageE }, align 8
@_ZTSN6google8protobuf29DescriptorProto_ReservedRangeE = constant [50 x i8] c"N6google8protobuf29DescriptorProto_ReservedRangeE\00", align 1
@_ZTIN6google8protobuf29DescriptorProto_ReservedRangeE = constant { ptr, ptr, ptr } { ptr getelementptr inbounds (ptr, ptr @_ZTVN10__cxxabiv120__si_class_type_infoE, i64 2), ptr @_ZTSN6google8protobuf29DescriptorProto_ReservedRangeE, ptr @_ZTIN6google8protobuf7MessageE }, align 8
@_ZTSN6google8protobuf19UninterpretedOptionE = constant [40 x i8] c"N6google8protobuf19UninterpretedOptionE\00", align 1
@_ZTIN6google8protobuf19UninterpretedOptionE = constant { ptr, ptr, ptr } { ptr getelementptr inbounds (ptr, ptr @_ZTVN10__cxxabiv120__si_class_type_infoE, i64 2), ptr @_ZTSN6google8protobuf19UninterpretedOptionE, ptr @_ZTIN6google8protobuf7MessageE }, align 8
@_ZTSN6google8protobuf14SourceCodeInfoE = constant [35 x i8] c"N6google8protobuf14SourceCodeInfoE\00", align 1
@_ZTIN6google8protobuf14SourceCodeInfoE = constant { ptr, ptr, ptr } { ptr getelementptr inbounds (ptr, ptr @_ZTVN10__cxxabiv120__si_class_type_infoE, i64 2), ptr @_ZTSN6google8protobuf14SourceCodeInfoE, ptr @_ZTIN6google8protobuf7MessageE }, align 8
@_ZTSN6google8protobuf17GeneratedCodeInfoE = constant [38 x i8] c"N6google8protobuf17GeneratedCodeInfoE\00", align 1
@_ZTIN6google8protobuf17GeneratedCodeInfoE = constant { ptr, ptr, ptr } { ptr getelementptr inbounds (ptr, ptr @_ZTVN10__cxxabiv120__si_class_type_infoE, i64 2), ptr @_ZTSN6google8protobuf17GeneratedCodeInfoE, ptr @_ZTIN6google8protobuf7MessageE }, align 8
@_ZTSN6google8protobuf43FeatureSetDefaults_FeatureSetEditionDefaultE = constant [64 x i8] c"N6google8protobuf43FeatureSetDefaults_FeatureSetEditionDefaultE\00", align 1
@_ZTIN6google8protobuf43FeatureSetDefaults_FeatureSetEditionDefaultE = constant { ptr, ptr, ptr } { ptr getelementptr inbounds (ptr, ptr @_ZTVN10__cxxabiv120__si_class_type_infoE, i64 2), ptr @_ZTSN6google8protobuf43FeatureSetDefaults_FeatureSetEditionDefaultE, ptr @_ZTIN6google8protobuf7MessageE }, align 8
@_ZTSN6google8protobuf14ServiceOptionsE = constant [35 x i8] c"N6google8protobuf14ServiceOptionsE\00", align 1
@_ZTIN6google8protobuf14ServiceOptionsE = constant { ptr, ptr, ptr } { ptr getelementptr inbounds (ptr, ptr @_ZTVN10__cxxabiv120__si_class_type_infoE, i64 2), ptr @_ZTSN6google8protobuf14ServiceOptionsE, ptr @_ZTIN6google8protobuf7MessageE }, align 8
@_ZTSN6google8protobuf12OneofOptionsE = constant [33 x i8] c"N6google8protobuf12OneofOptionsE\00", align 1
@_ZTIN6google8protobuf12OneofOptionsE = constant { ptr, ptr, ptr } { ptr getelementptr inbounds (ptr, ptr @_ZTVN10__cxxabiv120__si_class_type_infoE, i64 2), ptr @_ZTSN6google8protobuf12OneofOptionsE, ptr @_ZTIN6google8protobuf7MessageE }, align 8
@_ZTSN6google8protobuf13MethodOptionsE = constant [34 x i8] c"N6google8protobuf13MethodOptionsE\00", align 1
@_ZTIN6google8protobuf13MethodOptionsE = constant { ptr, ptr, ptr } { ptr getelementptr inbounds (ptr, ptr @_ZTVN10__cxxabiv120__si_class_type_infoE, i64 2), ptr @_ZTSN6google8protobuf13MethodOptionsE, ptr @_ZTIN6google8protobuf7MessageE }, align 8
@_ZTSN6google8protobuf14MessageOptionsE = constant [35 x i8] c"N6google8protobuf14MessageOptionsE\00", align 1
@_ZTIN6google8protobuf14MessageOptionsE = constant { ptr, ptr, ptr } { ptr getelementptr inbounds (ptr, ptr @_ZTVN10__cxxabiv120__si_class_type_infoE, i64 2), ptr @_ZTSN6google8protobuf14MessageOptionsE, ptr @_ZTIN6google8protobuf7MessageE }, align 8
@_ZTSN6google8protobuf11FileOptionsE = constant [32 x i8] c"N6google8protobuf11FileOptionsE\00", align 1
@_ZTIN6google8protobuf11FileOptionsE = constant { ptr, ptr, ptr } { ptr getelementptr inbounds (ptr, ptr @_ZTVN10__cxxabiv120__si_class_type_infoE, i64 2), ptr @_ZTSN6google8protobuf11FileOptionsE, ptr @_ZTIN6google8protobuf7MessageE }, align 8
@_ZTSN6google8protobuf12FieldOptionsE = constant [33 x i8] c"N6google8protobuf12FieldOptionsE\00", align 1
@_ZTIN6google8protobuf12FieldOptionsE = constant { ptr, ptr, ptr } { ptr getelementptr inbounds (ptr, ptr @_ZTVN10__cxxabiv120__si_class_type_infoE, i64 2), ptr @_ZTSN6google8protobuf12FieldOptionsE, ptr @_ZTIN6google8protobuf7MessageE }, align 8
@_ZTSN6google8protobuf18FeatureSetDefaultsE = constant [39 x i8] c"N6google8protobuf18FeatureSetDefaultsE\00", align 1
@_ZTIN6google8protobuf18FeatureSetDefaultsE = constant { ptr, ptr, ptr } { ptr getelementptr inbounds (ptr, ptr @_ZTVN10__cxxabiv120__si_class_type_infoE, i64 2), ptr @_ZTSN6google8protobuf18FeatureSetDefaultsE, ptr @_ZTIN6google8protobuf7MessageE }, align 8
@_ZTSN6google8protobuf21ExtensionRangeOptionsE = constant [42 x i8] c"N6google8protobuf21ExtensionRangeOptionsE\00", align 1
@_ZTIN6google8protobuf21ExtensionRangeOptionsE = constant { ptr, ptr, ptr } { ptr getelementptr inbounds (ptr, ptr @_ZTVN10__cxxabiv120__si_class_type_infoE, i64 2), ptr @_ZTSN6google8protobuf21ExtensionRangeOptionsE, ptr @_ZTIN6google8protobuf7MessageE }, align 8
@_ZTSN6google8protobuf16EnumValueOptionsE = constant [37 x i8] c"N6google8protobuf16EnumValueOptionsE\00", align 1
@_ZTIN6google8protobuf16EnumValueOptionsE = constant { ptr, ptr, ptr } { ptr getelementptr inbounds (ptr, ptr @_ZTVN10__cxxabiv120__si_class_type_infoE, i64 2), ptr @_ZTSN6google8protobuf16EnumValueOptionsE, ptr @_ZTIN6google8protobuf7MessageE }, align 8
@_ZTSN6google8protobuf11EnumOptionsE = constant [32 x i8] c"N6google8protobuf11EnumOptionsE\00", align 1
@_ZTIN6google8protobuf11EnumOptionsE = constant { ptr, ptr, ptr } { ptr getelementptr inbounds (ptr, ptr @_ZTVN10__cxxabiv120__si_class_type_infoE, i64 2), ptr @_ZTSN6google8protobuf11EnumOptionsE, ptr @_ZTIN6google8protobuf7MessageE }, align 8
@_ZTSN6google8protobuf20OneofDescriptorProtoE = constant [41 x i8] c"N6google8protobuf20OneofDescriptorProtoE\00", align 1
@_ZTIN6google8protobuf20OneofDescriptorProtoE = constant { ptr, ptr, ptr } { ptr getelementptr inbounds (ptr, ptr @_ZTVN10__cxxabiv120__si_class_type_infoE, i64 2), ptr @_ZTSN6google8protobuf20OneofDescriptorProtoE, ptr @_ZTIN6google8protobuf7MessageE }, align 8
@_ZTSN6google8protobuf21MethodDescriptorProtoE = constant [42 x i8] c"N6google8protobuf21MethodDescriptorProtoE\00", align 1
@_ZTIN6google8protobuf21MethodDescriptorProtoE = constant { ptr, ptr, ptr } { ptr getelementptr inbounds (ptr, ptr @_ZTVN10__cxxabiv120__si_class_type_infoE, i64 2), ptr @_ZTSN6google8protobuf21MethodDescriptorProtoE, ptr @_ZTIN6google8protobuf7MessageE }, align 8
@_ZTSN6google8protobuf20FieldDescriptorProtoE = constant [41 x i8] c"N6google8protobuf20FieldDescriptorProtoE\00", align 1
@_ZTIN6google8protobuf20FieldDescriptorProtoE = constant { ptr, ptr, ptr } { ptr getelementptr inbounds (ptr, ptr @_ZTVN10__cxxabiv120__si_class_type_infoE, i64 2), ptr @_ZTSN6google8protobuf20FieldDescriptorProtoE, ptr @_ZTIN6google8protobuf7MessageE }, align 8
@_ZTSN6google8protobuf24EnumValueDescriptorProtoE = constant [45 x i8] c"N6google8protobuf24EnumValueDescriptorProtoE\00", align 1
@_ZTIN6google8protobuf24EnumValueDescriptorProtoE = constant { ptr, ptr, ptr } { ptr getelementptr inbounds (ptr, ptr @_ZTVN10__cxxabiv120__si_class_type_infoE, i64 2), ptr @_ZTSN6google8protobuf24EnumValueDescriptorProtoE, ptr @_ZTIN6google8protobuf7MessageE }, align 8
@_ZTSN6google8protobuf30DescriptorProto_ExtensionRangeE = constant [51 x i8] c"N6google8protobuf30DescriptorProto_ExtensionRangeE\00", align 1
@_ZTIN6google8protobuf30DescriptorProto_ExtensionRangeE = constant { ptr, ptr, ptr } { ptr getelementptr inbounds (ptr, ptr @_ZTVN10__cxxabiv120__si_class_type_infoE, i64 2), ptr @_ZTSN6google8protobuf30DescriptorProto_ExtensionRangeE, ptr @_ZTIN6google8protobuf7MessageE }, align 8
@_ZTSN6google8protobuf22ServiceDescriptorProtoE = constant [43 x i8] c"N6google8protobuf22ServiceDescriptorProtoE\00", align 1
@_ZTIN6google8protobuf22ServiceDescriptorProtoE = constant { ptr, ptr, ptr } { ptr getelementptr inbounds (ptr, ptr @_ZTVN10__cxxabiv120__si_class_type_infoE, i64 2), ptr @_ZTSN6google8protobuf22ServiceDescriptorProtoE, ptr @_ZTIN6google8protobuf7MessageE }, align 8
@_ZTSN6google8protobuf19EnumDescriptorProtoE = constant [40 x i8] c"N6google8protobuf19EnumDescriptorProtoE\00", align 1
@_ZTIN6google8protobuf19EnumDescriptorProtoE = constant { ptr, ptr, ptr } { ptr getelementptr inbounds (ptr, ptr @_ZTVN10__cxxabiv120__si_class_type_infoE, i64 2), ptr @_ZTSN6google8protobuf19EnumDescriptorProtoE, ptr @_ZTIN6google8protobuf7MessageE }, align 8
@_ZTSN6google8protobuf15DescriptorProtoE = constant [36 x i8] c"N6google8protobuf15DescriptorProtoE\00", align 1
@_ZTIN6google8protobuf15DescriptorProtoE = constant { ptr, ptr, ptr } { ptr getelementptr inbounds (ptr, ptr @_ZTVN10__cxxabiv120__si_class_type_infoE, i64 2), ptr @_ZTSN6google8protobuf15DescriptorProtoE, ptr @_ZTIN6google8protobuf7MessageE }, align 8
@_ZTSN6google8protobuf19FileDescriptorProtoE = constant [40 x i8] c"N6google8protobuf19FileDescriptorProtoE\00", align 1
@_ZTIN6google8protobuf19FileDescriptorProtoE = constant { ptr, ptr, ptr } { ptr getelementptr inbounds (ptr, ptr @_ZTVN10__cxxabiv120__si_class_type_infoE, i64 2), ptr @_ZTSN6google8protobuf19FileDescriptorProtoE, ptr @_ZTIN6google8protobuf7MessageE }, align 8
@_ZTSN6google8protobuf17FileDescriptorSetE = constant [38 x i8] c"N6google8protobuf17FileDescriptorSetE\00", align 1
@_ZTIN6google8protobuf17FileDescriptorSetE = constant { ptr, ptr, ptr } { ptr getelementptr inbounds (ptr, ptr @_ZTVN10__cxxabiv120__si_class_type_infoE, i64 2), ptr @_ZTSN6google8protobuf17FileDescriptorSetE, ptr @_ZTIN6google8protobuf7MessageE }, align 8
@_ZL60descriptor_table_google_2fprotobuf_2fdescriptor_2eproto_once = internal global { { i32 } } zeroinitializer, align 4
@_ZTVN6google8protobuf7MessageE = external unnamed_addr constant { [13 x ptr] }, align 8
@_ZTVN6google8protobuf11MessageLiteE = linkonce_odr unnamed_addr constant { [12 x ptr] } { [12 x ptr] [ptr null, ptr @_ZTIN6google8protobuf11MessageLiteE, ptr @_ZN6google8protobuf11MessageLiteD2Ev, ptr @_ZN6google8protobuf11MessageLiteD0Ev, ptr @__cxa_pure_virtual, ptr @__cxa_pure_virtual, ptr @__cxa_pure_virtual, ptr @__cxa_pure_virtual, ptr @__cxa_pure_virtual, ptr @_ZN6google8protobuf11MessageLite14_InternalParseEPKcPNS0_8internal12ParseContextE, ptr @__cxa_pure_virtual, ptr @__cxa_pure_virtual] }, comdat, align 8
@_ZTVN10__cxxabiv117__class_type_infoE = external global [0 x ptr]
@_ZTSN6google8protobuf11MessageLiteE = linkonce_odr constant [32 x i8] c"N6google8protobuf11MessageLiteE\00", comdat, align 1
@_ZTIN6google8protobuf11MessageLiteE = linkonce_odr constant { ptr, ptr } { ptr getelementptr inbounds (ptr, ptr @_ZTVN10__cxxabiv117__class_type_infoE, i64 2), ptr @_ZTSN6google8protobuf11MessageLiteE }, comdat, align 8
@.str.73 = private unnamed_addr constant [48 x i8] c"Requested size is too large to fit into size_t.\00", align 1
@.str.74 = private unnamed_addr constant [59 x i8] c"Requested size is too large to fit element count into int.\00", align 1
@.str.75 = private unnamed_addr constant [63 x i8] c"num_elements <= std::numeric_limits<size_t>::max() / sizeof(T)\00", align 1
@.str.76 = private unnamed_addr constant [123 x i8] c"generated/home/dtcxzyw/WorkSpace/Projects/compilers/llvm-opt-benchmark/bench/protobuf/protobuf/src/google/protobuf/arena.h\00", align 1
@_ZN6google8protobuf8internal15ThreadSafeArena13thread_cache_E = external thread_local global %"struct.google::protobuf::internal::ThreadSafeArena::ThreadCache", align 32
@_ZZN6google8protobuf13RepeatedFieldIiE12InternalSwapEPS2_E7kOffset = linkonce_odr hidden constant i64 0, comdat, align 8
@llvm.global_ctors = appending global [1 x { i32, ptr, ptr }] [{ i32, ptr, ptr } { i32 65535, ptr @_GLOBAL__sub_I_descriptor.pb.cc, ptr null }]

@_ZN6google8protobuf17FileDescriptorSetC1EPNS0_5ArenaE = unnamed_addr alias void (ptr, ptr), ptr @_ZN6google8protobuf17FileDescriptorSetC2EPNS0_5ArenaE
@_ZN6google8protobuf17FileDescriptorSetC1EPNS0_5ArenaERKS1_ = unnamed_addr alias void (ptr, ptr, ptr), ptr @_ZN6google8protobuf17FileDescriptorSetC2EPNS0_5ArenaERKS1_
@_ZN6google8protobuf17FileDescriptorSetD1Ev = unnamed_addr alias void (ptr), ptr @_ZN6google8protobuf17FileDescriptorSetD2Ev
@_ZN6google8protobuf19FileDescriptorProtoC1EPNS0_5ArenaE = unnamed_addr alias void (ptr, ptr), ptr @_ZN6google8protobuf19FileDescriptorProtoC2EPNS0_5ArenaE
@_ZN6google8protobuf19FileDescriptorProtoC1EPNS0_5ArenaERKS1_ = unnamed_addr alias void (ptr, ptr, ptr), ptr @_ZN6google8protobuf19FileDescriptorProtoC2EPNS0_5ArenaERKS1_
@_ZN6google8protobuf19FileDescriptorProtoD1Ev = unnamed_addr alias void (ptr), ptr @_ZN6google8protobuf19FileDescriptorProtoD2Ev
@_ZN6google8protobuf30DescriptorProto_ExtensionRangeC1EPNS0_5ArenaE = unnamed_addr alias void (ptr, ptr), ptr @_ZN6google8protobuf30DescriptorProto_ExtensionRangeC2EPNS0_5ArenaE
@_ZN6google8protobuf30DescriptorProto_ExtensionRangeC1EPNS0_5ArenaERKS1_ = unnamed_addr alias void (ptr, ptr, ptr), ptr @_ZN6google8protobuf30DescriptorProto_ExtensionRangeC2EPNS0_5ArenaERKS1_
@_ZN6google8protobuf30DescriptorProto_ExtensionRangeD1Ev = unnamed_addr alias void (ptr), ptr @_ZN6google8protobuf30DescriptorProto_ExtensionRangeD2Ev
@_ZN6google8protobuf29DescriptorProto_ReservedRangeC1EPNS0_5ArenaE = unnamed_addr alias void (ptr, ptr), ptr @_ZN6google8protobuf29DescriptorProto_ReservedRangeC2EPNS0_5ArenaE
@_ZN6google8protobuf29DescriptorProto_ReservedRangeC1EPNS0_5ArenaERKS1_ = unnamed_addr alias void (ptr, ptr, ptr), ptr @_ZN6google8protobuf29DescriptorProto_ReservedRangeC2EPNS0_5ArenaERKS1_
@_ZN6google8protobuf29DescriptorProto_ReservedRangeD1Ev = unnamed_addr alias void (ptr), ptr @_ZN6google8protobuf29DescriptorProto_ReservedRangeD2Ev
@_ZN6google8protobuf15DescriptorProtoC1EPNS0_5ArenaE = unnamed_addr alias void (ptr, ptr), ptr @_ZN6google8protobuf15DescriptorProtoC2EPNS0_5ArenaE
@_ZN6google8protobuf15DescriptorProtoC1EPNS0_5ArenaERKS1_ = unnamed_addr alias void (ptr, ptr, ptr), ptr @_ZN6google8protobuf15DescriptorProtoC2EPNS0_5ArenaERKS1_
@_ZN6google8protobuf15DescriptorProtoD1Ev = unnamed_addr alias void (ptr), ptr @_ZN6google8protobuf15DescriptorProtoD2Ev
@_ZN6google8protobuf33ExtensionRangeOptions_DeclarationC1EPNS0_5ArenaE = unnamed_addr alias void (ptr, ptr), ptr @_ZN6google8protobuf33ExtensionRangeOptions_DeclarationC2EPNS0_5ArenaE
@_ZN6google8protobuf33ExtensionRangeOptions_DeclarationC1EPNS0_5ArenaERKS1_ = unnamed_addr alias void (ptr, ptr, ptr), ptr @_ZN6google8protobuf33ExtensionRangeOptions_DeclarationC2EPNS0_5ArenaERKS1_
@_ZN6google8protobuf33ExtensionRangeOptions_DeclarationD1Ev = unnamed_addr alias void (ptr), ptr @_ZN6google8protobuf33ExtensionRangeOptions_DeclarationD2Ev
@_ZN6google8protobuf21ExtensionRangeOptionsC1EPNS0_5ArenaE = unnamed_addr alias void (ptr, ptr), ptr @_ZN6google8protobuf21ExtensionRangeOptionsC2EPNS0_5ArenaE
@_ZN6google8protobuf21ExtensionRangeOptionsC1EPNS0_5ArenaERKS1_ = unnamed_addr alias void (ptr, ptr, ptr), ptr @_ZN6google8protobuf21ExtensionRangeOptionsC2EPNS0_5ArenaERKS1_
@_ZN6google8protobuf21ExtensionRangeOptionsD1Ev = unnamed_addr alias void (ptr), ptr @_ZN6google8protobuf21ExtensionRangeOptionsD2Ev
@_ZN6google8protobuf20FieldDescriptorProtoC1EPNS0_5ArenaE = unnamed_addr alias void (ptr, ptr), ptr @_ZN6google8protobuf20FieldDescriptorProtoC2EPNS0_5ArenaE
@_ZN6google8protobuf20FieldDescriptorProtoC1EPNS0_5ArenaERKS1_ = unnamed_addr alias void (ptr, ptr, ptr), ptr @_ZN6google8protobuf20FieldDescriptorProtoC2EPNS0_5ArenaERKS1_
@_ZN6google8protobuf20FieldDescriptorProtoD1Ev = unnamed_addr alias void (ptr), ptr @_ZN6google8protobuf20FieldDescriptorProtoD2Ev
@_ZN6google8protobuf20OneofDescriptorProtoC1EPNS0_5ArenaE = unnamed_addr alias void (ptr, ptr), ptr @_ZN6google8protobuf20OneofDescriptorProtoC2EPNS0_5ArenaE
@_ZN6google8protobuf20OneofDescriptorProtoC1EPNS0_5ArenaERKS1_ = unnamed_addr alias void (ptr, ptr, ptr), ptr @_ZN6google8protobuf20OneofDescriptorProtoC2EPNS0_5ArenaERKS1_
@_ZN6google8protobuf20OneofDescriptorProtoD1Ev = unnamed_addr alias void (ptr), ptr @_ZN6google8protobuf20OneofDescriptorProtoD2Ev
@_ZN6google8protobuf37EnumDescriptorProto_EnumReservedRangeC1EPNS0_5ArenaE = unnamed_addr alias void (ptr, ptr), ptr @_ZN6google8protobuf37EnumDescriptorProto_EnumReservedRangeC2EPNS0_5ArenaE
@_ZN6google8protobuf37EnumDescriptorProto_EnumReservedRangeC1EPNS0_5ArenaERKS1_ = unnamed_addr alias void (ptr, ptr, ptr), ptr @_ZN6google8protobuf37EnumDescriptorProto_EnumReservedRangeC2EPNS0_5ArenaERKS1_
@_ZN6google8protobuf37EnumDescriptorProto_EnumReservedRangeD1Ev = unnamed_addr alias void (ptr), ptr @_ZN6google8protobuf37EnumDescriptorProto_EnumReservedRangeD2Ev
@_ZN6google8protobuf19EnumDescriptorProtoC1EPNS0_5ArenaE = unnamed_addr alias void (ptr, ptr), ptr @_ZN6google8protobuf19EnumDescriptorProtoC2EPNS0_5ArenaE
@_ZN6google8protobuf19EnumDescriptorProtoC1EPNS0_5ArenaERKS1_ = unnamed_addr alias void (ptr, ptr, ptr), ptr @_ZN6google8protobuf19EnumDescriptorProtoC2EPNS0_5ArenaERKS1_
@_ZN6google8protobuf19EnumDescriptorProtoD1Ev = unnamed_addr alias void (ptr), ptr @_ZN6google8protobuf19EnumDescriptorProtoD2Ev
@_ZN6google8protobuf24EnumValueDescriptorProtoC1EPNS0_5ArenaE = unnamed_addr alias void (ptr, ptr), ptr @_ZN6google8protobuf24EnumValueDescriptorProtoC2EPNS0_5ArenaE
@_ZN6google8protobuf24EnumValueDescriptorProtoC1EPNS0_5ArenaERKS1_ = unnamed_addr alias void (ptr, ptr, ptr), ptr @_ZN6google8protobuf24EnumValueDescriptorProtoC2EPNS0_5ArenaERKS1_
@_ZN6google8protobuf24EnumValueDescriptorProtoD1Ev = unnamed_addr alias void (ptr), ptr @_ZN6google8protobuf24EnumValueDescriptorProtoD2Ev
@_ZN6google8protobuf22ServiceDescriptorProtoC1EPNS0_5ArenaE = unnamed_addr alias void (ptr, ptr), ptr @_ZN6google8protobuf22ServiceDescriptorProtoC2EPNS0_5ArenaE
@_ZN6google8protobuf22ServiceDescriptorProtoC1EPNS0_5ArenaERKS1_ = unnamed_addr alias void (ptr, ptr, ptr), ptr @_ZN6google8protobuf22ServiceDescriptorProtoC2EPNS0_5ArenaERKS1_
@_ZN6google8protobuf22ServiceDescriptorProtoD1Ev = unnamed_addr alias void (ptr), ptr @_ZN6google8protobuf22ServiceDescriptorProtoD2Ev
@_ZN6google8protobuf21MethodDescriptorProtoC1EPNS0_5ArenaE = unnamed_addr alias void (ptr, ptr), ptr @_ZN6google8protobuf21MethodDescriptorProtoC2EPNS0_5ArenaE
@_ZN6google8protobuf21MethodDescriptorProtoC1EPNS0_5ArenaERKS1_ = unnamed_addr alias void (ptr, ptr, ptr), ptr @_ZN6google8protobuf21MethodDescriptorProtoC2EPNS0_5ArenaERKS1_
@_ZN6google8protobuf21MethodDescriptorProtoD1Ev = unnamed_addr alias void (ptr), ptr @_ZN6google8protobuf21MethodDescriptorProtoD2Ev
@_ZN6google8protobuf11FileOptionsC1EPNS0_5ArenaE = unnamed_addr alias void (ptr, ptr), ptr @_ZN6google8protobuf11FileOptionsC2EPNS0_5ArenaE
@_ZN6google8protobuf11FileOptionsC1EPNS0_5ArenaERKS1_ = unnamed_addr alias void (ptr, ptr, ptr), ptr @_ZN6google8protobuf11FileOptionsC2EPNS0_5ArenaERKS1_
@_ZN6google8protobuf11FileOptionsD1Ev = unnamed_addr alias void (ptr), ptr @_ZN6google8protobuf11FileOptionsD2Ev
@_ZN6google8protobuf14MessageOptionsC1EPNS0_5ArenaE = unnamed_addr alias void (ptr, ptr), ptr @_ZN6google8protobuf14MessageOptionsC2EPNS0_5ArenaE
@_ZN6google8protobuf14MessageOptionsC1EPNS0_5ArenaERKS1_ = unnamed_addr alias void (ptr, ptr, ptr), ptr @_ZN6google8protobuf14MessageOptionsC2EPNS0_5ArenaERKS1_
@_ZN6google8protobuf14MessageOptionsD1Ev = unnamed_addr alias void (ptr), ptr @_ZN6google8protobuf14MessageOptionsD2Ev
@_ZN6google8protobuf27FieldOptions_EditionDefaultC1EPNS0_5ArenaE = unnamed_addr alias void (ptr, ptr), ptr @_ZN6google8protobuf27FieldOptions_EditionDefaultC2EPNS0_5ArenaE
@_ZN6google8protobuf27FieldOptions_EditionDefaultC1EPNS0_5ArenaERKS1_ = unnamed_addr alias void (ptr, ptr, ptr), ptr @_ZN6google8protobuf27FieldOptions_EditionDefaultC2EPNS0_5ArenaERKS1_
@_ZN6google8protobuf27FieldOptions_EditionDefaultD1Ev = unnamed_addr alias void (ptr), ptr @_ZN6google8protobuf27FieldOptions_EditionDefaultD2Ev
@_ZN6google8protobuf12FieldOptionsC1EPNS0_5ArenaE = unnamed_addr alias void (ptr, ptr), ptr @_ZN6google8protobuf12FieldOptionsC2EPNS0_5ArenaE
@_ZN6google8protobuf12FieldOptionsC1EPNS0_5ArenaERKS1_ = unnamed_addr alias void (ptr, ptr, ptr), ptr @_ZN6google8protobuf12FieldOptionsC2EPNS0_5ArenaERKS1_
@_ZN6google8protobuf12FieldOptionsD1Ev = unnamed_addr alias void (ptr), ptr @_ZN6google8protobuf12FieldOptionsD2Ev
@_ZN6google8protobuf12OneofOptionsC1EPNS0_5ArenaE = unnamed_addr alias void (ptr, ptr), ptr @_ZN6google8protobuf12OneofOptionsC2EPNS0_5ArenaE
@_ZN6google8protobuf12OneofOptionsC1EPNS0_5ArenaERKS1_ = unnamed_addr alias void (ptr, ptr, ptr), ptr @_ZN6google8protobuf12OneofOptionsC2EPNS0_5ArenaERKS1_
@_ZN6google8protobuf12OneofOptionsD1Ev = unnamed_addr alias void (ptr), ptr @_ZN6google8protobuf12OneofOptionsD2Ev
@_ZN6google8protobuf11EnumOptionsC1EPNS0_5ArenaE = unnamed_addr alias void (ptr, ptr), ptr @_ZN6google8protobuf11EnumOptionsC2EPNS0_5ArenaE
@_ZN6google8protobuf11EnumOptionsC1EPNS0_5ArenaERKS1_ = unnamed_addr alias void (ptr, ptr, ptr), ptr @_ZN6google8protobuf11EnumOptionsC2EPNS0_5ArenaERKS1_
@_ZN6google8protobuf11EnumOptionsD1Ev = unnamed_addr alias void (ptr), ptr @_ZN6google8protobuf11EnumOptionsD2Ev
@_ZN6google8protobuf16EnumValueOptionsC1EPNS0_5ArenaE = unnamed_addr alias void (ptr, ptr), ptr @_ZN6google8protobuf16EnumValueOptionsC2EPNS0_5ArenaE
@_ZN6google8protobuf16EnumValueOptionsC1EPNS0_5ArenaERKS1_ = unnamed_addr alias void (ptr, ptr, ptr), ptr @_ZN6google8protobuf16EnumValueOptionsC2EPNS0_5ArenaERKS1_
@_ZN6google8protobuf16EnumValueOptionsD1Ev = unnamed_addr alias void (ptr), ptr @_ZN6google8protobuf16EnumValueOptionsD2Ev
@_ZN6google8protobuf14ServiceOptionsC1EPNS0_5ArenaE = unnamed_addr alias void (ptr, ptr), ptr @_ZN6google8protobuf14ServiceOptionsC2EPNS0_5ArenaE
@_ZN6google8protobuf14ServiceOptionsC1EPNS0_5ArenaERKS1_ = unnamed_addr alias void (ptr, ptr, ptr), ptr @_ZN6google8protobuf14ServiceOptionsC2EPNS0_5ArenaERKS1_
@_ZN6google8protobuf14ServiceOptionsD1Ev = unnamed_addr alias void (ptr), ptr @_ZN6google8protobuf14ServiceOptionsD2Ev
@_ZN6google8protobuf13MethodOptionsC1EPNS0_5ArenaE = unnamed_addr alias void (ptr, ptr), ptr @_ZN6google8protobuf13MethodOptionsC2EPNS0_5ArenaE
@_ZN6google8protobuf13MethodOptionsC1EPNS0_5ArenaERKS1_ = unnamed_addr alias void (ptr, ptr, ptr), ptr @_ZN6google8protobuf13MethodOptionsC2EPNS0_5ArenaERKS1_
@_ZN6google8protobuf13MethodOptionsD1Ev = unnamed_addr alias void (ptr), ptr @_ZN6google8protobuf13MethodOptionsD2Ev
@_ZN6google8protobuf28UninterpretedOption_NamePartC1EPNS0_5ArenaE = unnamed_addr alias void (ptr, ptr), ptr @_ZN6google8protobuf28UninterpretedOption_NamePartC2EPNS0_5ArenaE
@_ZN6google8protobuf28UninterpretedOption_NamePartC1EPNS0_5ArenaERKS1_ = unnamed_addr alias void (ptr, ptr, ptr), ptr @_ZN6google8protobuf28UninterpretedOption_NamePartC2EPNS0_5ArenaERKS1_
@_ZN6google8protobuf28UninterpretedOption_NamePartD1Ev = unnamed_addr alias void (ptr), ptr @_ZN6google8protobuf28UninterpretedOption_NamePartD2Ev
@_ZN6google8protobuf19UninterpretedOptionC1EPNS0_5ArenaE = unnamed_addr alias void (ptr, ptr), ptr @_ZN6google8protobuf19UninterpretedOptionC2EPNS0_5ArenaE
@_ZN6google8protobuf19UninterpretedOptionC1EPNS0_5ArenaERKS1_ = unnamed_addr alias void (ptr, ptr, ptr), ptr @_ZN6google8protobuf19UninterpretedOptionC2EPNS0_5ArenaERKS1_
@_ZN6google8protobuf19UninterpretedOptionD1Ev = unnamed_addr alias void (ptr), ptr @_ZN6google8protobuf19UninterpretedOptionD2Ev
@_ZN6google8protobuf10FeatureSetC1EPNS0_5ArenaE = unnamed_addr alias void (ptr, ptr), ptr @_ZN6google8protobuf10FeatureSetC2EPNS0_5ArenaE
@_ZN6google8protobuf10FeatureSetC1EPNS0_5ArenaERKS1_ = unnamed_addr alias void (ptr, ptr, ptr), ptr @_ZN6google8protobuf10FeatureSetC2EPNS0_5ArenaERKS1_
@_ZN6google8protobuf10FeatureSetD1Ev = unnamed_addr alias void (ptr), ptr @_ZN6google8protobuf10FeatureSetD2Ev
@_ZN6google8protobuf43FeatureSetDefaults_FeatureSetEditionDefaultC1EPNS0_5ArenaE = unnamed_addr alias void (ptr, ptr), ptr @_ZN6google8protobuf43FeatureSetDefaults_FeatureSetEditionDefaultC2EPNS0_5ArenaE
@_ZN6google8protobuf43FeatureSetDefaults_FeatureSetEditionDefaultC1EPNS0_5ArenaERKS1_ = unnamed_addr alias void (ptr, ptr, ptr), ptr @_ZN6google8protobuf43FeatureSetDefaults_FeatureSetEditionDefaultC2EPNS0_5ArenaERKS1_
@_ZN6google8protobuf43FeatureSetDefaults_FeatureSetEditionDefaultD1Ev = unnamed_addr alias void (ptr), ptr @_ZN6google8protobuf43FeatureSetDefaults_FeatureSetEditionDefaultD2Ev
@_ZN6google8protobuf18FeatureSetDefaultsC1EPNS0_5ArenaE = unnamed_addr alias void (ptr, ptr), ptr @_ZN6google8protobuf18FeatureSetDefaultsC2EPNS0_5ArenaE
@_ZN6google8protobuf18FeatureSetDefaultsC1EPNS0_5ArenaERKS1_ = unnamed_addr alias void (ptr, ptr, ptr), ptr @_ZN6google8protobuf18FeatureSetDefaultsC2EPNS0_5ArenaERKS1_
@_ZN6google8protobuf18FeatureSetDefaultsD1Ev = unnamed_addr alias void (ptr), ptr @_ZN6google8protobuf18FeatureSetDefaultsD2Ev
@_ZN6google8protobuf23SourceCodeInfo_LocationC1EPNS0_5ArenaE = unnamed_addr alias void (ptr, ptr), ptr @_ZN6google8protobuf23SourceCodeInfo_LocationC2EPNS0_5ArenaE
@_ZN6google8protobuf23SourceCodeInfo_LocationC1EPNS0_5ArenaERKS1_ = unnamed_addr alias void (ptr, ptr, ptr), ptr @_ZN6google8protobuf23SourceCodeInfo_LocationC2EPNS0_5ArenaERKS1_
@_ZN6google8protobuf23SourceCodeInfo_LocationD1Ev = unnamed_addr alias void (ptr), ptr @_ZN6google8protobuf23SourceCodeInfo_LocationD2Ev
@_ZN6google8protobuf14SourceCodeInfoC1EPNS0_5ArenaE = unnamed_addr alias void (ptr, ptr), ptr @_ZN6google8protobuf14SourceCodeInfoC2EPNS0_5ArenaE
@_ZN6google8protobuf14SourceCodeInfoC1EPNS0_5ArenaERKS1_ = unnamed_addr alias void (ptr, ptr, ptr), ptr @_ZN6google8protobuf14SourceCodeInfoC2EPNS0_5ArenaERKS1_
@_ZN6google8protobuf14SourceCodeInfoD1Ev = unnamed_addr alias void (ptr), ptr @_ZN6google8protobuf14SourceCodeInfoD2Ev
@_ZN6google8protobuf28GeneratedCodeInfo_AnnotationC1EPNS0_5ArenaE = unnamed_addr alias void (ptr, ptr), ptr @_ZN6google8protobuf28GeneratedCodeInfo_AnnotationC2EPNS0_5ArenaE
@_ZN6google8protobuf28GeneratedCodeInfo_AnnotationC1EPNS0_5ArenaERKS1_ = unnamed_addr alias void (ptr, ptr, ptr), ptr @_ZN6google8protobuf28GeneratedCodeInfo_AnnotationC2EPNS0_5ArenaERKS1_
@_ZN6google8protobuf28GeneratedCodeInfo_AnnotationD1Ev = unnamed_addr alias void (ptr), ptr @_ZN6google8protobuf28GeneratedCodeInfo_AnnotationD2Ev
@_ZN6google8protobuf17GeneratedCodeInfoC1EPNS0_5ArenaE = unnamed_addr alias void (ptr, ptr), ptr @_ZN6google8protobuf17GeneratedCodeInfoC2EPNS0_5ArenaE
@_ZN6google8protobuf17GeneratedCodeInfoC1EPNS0_5ArenaERKS1_ = unnamed_addr alias void (ptr, ptr, ptr), ptr @_ZN6google8protobuf17GeneratedCodeInfoC2EPNS0_5ArenaERKS1_
@_ZN6google8protobuf17GeneratedCodeInfoD1Ev = unnamed_addr alias void (ptr), ptr @_ZN6google8protobuf17GeneratedCodeInfoD2Ev

; Function Attrs: uwtable
define internal void @__cxx_global_var_init() #0 section ".text.startup" {
entry:
  call void @_ZNSt8ios_base4InitC1Ev(ptr noundef nonnull align 1 dereferenceable(1) @_ZStL8__ioinit)
  %0 = call i32 @__cxa_atexit(ptr @_ZNSt8ios_base4InitD1Ev, ptr @_ZStL8__ioinit, ptr @__dso_handle) #3
  ret void
}

declare void @_ZNSt8ios_base4InitC1Ev(ptr noundef nonnull align 1 dereferenceable(1)) unnamed_addr #1

; Function Attrs: nounwind
declare void @_ZNSt8ios_base4InitD1Ev(ptr noundef nonnull align 1 dereferenceable(1)) unnamed_addr #2

; Function Attrs: nounwind
declare i32 @__cxa_atexit(ptr, ptr, ptr) #3

; Function Attrs: mustprogress uwtable
define weak hidden noundef ptr @_Z62descriptor_table_google_2fprotobuf_2fdescriptor_2eproto_getterv() #4 {
entry:
  ret ptr @descriptor_table_google_2fprotobuf_2fdescriptor_2eproto
}

; Function Attrs: mustprogress uwtable
define noundef ptr @_ZN6google8protobuf50ExtensionRangeOptions_VerificationState_descriptorEv() #4 {
entry:
  call void @_ZN6google8protobuf8internal17AssignDescriptorsEPKNS1_15DescriptorTableE(ptr noundef @descriptor_table_google_2fprotobuf_2fdescriptor_2eproto)
  %0 = load ptr, ptr @_ZL66file_level_enum_descriptors_google_2fprotobuf_2fdescriptor_2eproto, align 16
  ret ptr %0
}

declare void @_ZN6google8protobuf8internal17AssignDescriptorsEPKNS1_15DescriptorTableE(ptr noundef) #1

; Function Attrs: mustprogress nounwind uwtable
define noundef zeroext i1 @_ZN6google8protobuf47ExtensionRangeOptions_VerificationState_IsValidEi(i32 noundef %value) #5 {
entry:
  %value.addr = alloca i32, align 4
  store i32 %value, ptr %value.addr, align 4
  %0 = load i32, ptr %value.addr, align 4
  %cmp = icmp sle i32 0, %0
  br i1 %cmp, label %land.rhs, label %land.end

land.rhs:                                         ; preds = %entry
  %1 = load i32, ptr %value.addr, align 4
  %cmp1 = icmp sle i32 %1, 1
  br label %land.end

land.end:                                         ; preds = %land.rhs, %entry
  %2 = phi i1 [ false, %entry ], [ %cmp1, %land.rhs ]
  ret i1 %2
}

; Function Attrs: mustprogress uwtable
define noundef ptr @_ZN6google8protobuf36FieldDescriptorProto_Type_descriptorEv() #4 {
entry:
  call void @_ZN6google8protobuf8internal17AssignDescriptorsEPKNS1_15DescriptorTableE(ptr noundef @descriptor_table_google_2fprotobuf_2fdescriptor_2eproto)
  %0 = load ptr, ptr getelementptr inbounds ([17 x ptr], ptr @_ZL66file_level_enum_descriptors_google_2fprotobuf_2fdescriptor_2eproto, i64 0, i64 1), align 8
  ret ptr %0
}

; Function Attrs: mustprogress nounwind uwtable
define noundef zeroext i1 @_ZN6google8protobuf33FieldDescriptorProto_Type_IsValidEi(i32 noundef %value) #5 {
entry:
  %value.addr = alloca i32, align 4
  store i32 %value, ptr %value.addr, align 4
  %0 = load i32, ptr %value.addr, align 4
  %cmp = icmp sle i32 1, %0
  br i1 %cmp, label %land.rhs, label %land.end

land.rhs:                                         ; preds = %entry
  %1 = load i32, ptr %value.addr, align 4
  %cmp1 = icmp sle i32 %1, 18
  br label %land.end

land.end:                                         ; preds = %land.rhs, %entry
  %2 = phi i1 [ false, %entry ], [ %cmp1, %land.rhs ]
  ret i1 %2
}

; Function Attrs: mustprogress uwtable
define noundef ptr @_ZN6google8protobuf37FieldDescriptorProto_Label_descriptorEv() #4 {
entry:
  call void @_ZN6google8protobuf8internal17AssignDescriptorsEPKNS1_15DescriptorTableE(ptr noundef @descriptor_table_google_2fprotobuf_2fdescriptor_2eproto)
  %0 = load ptr, ptr getelementptr inbounds ([17 x ptr], ptr @_ZL66file_level_enum_descriptors_google_2fprotobuf_2fdescriptor_2eproto, i64 0, i64 2), align 16
  ret ptr %0
}

; Function Attrs: mustprogress nounwind uwtable
define noundef zeroext i1 @_ZN6google8protobuf34FieldDescriptorProto_Label_IsValidEi(i32 noundef %value) #5 {
entry:
  %value.addr = alloca i32, align 4
  store i32 %value, ptr %value.addr, align 4
  %0 = load i32, ptr %value.addr, align 4
  %cmp = icmp sle i32 1, %0
  br i1 %cmp, label %land.rhs, label %land.end

land.rhs:                                         ; preds = %entry
  %1 = load i32, ptr %value.addr, align 4
  %cmp1 = icmp sle i32 %1, 3
  br label %land.end

land.end:                                         ; preds = %land.rhs, %entry
  %2 = phi i1 [ false, %entry ], [ %cmp1, %land.rhs ]
  ret i1 %2
}

; Function Attrs: mustprogress uwtable
define noundef ptr @_ZN6google8protobuf35FileOptions_OptimizeMode_descriptorEv() #4 {
entry:
  call void @_ZN6google8protobuf8internal17AssignDescriptorsEPKNS1_15DescriptorTableE(ptr noundef @descriptor_table_google_2fprotobuf_2fdescriptor_2eproto)
  %0 = load ptr, ptr getelementptr inbounds ([17 x ptr], ptr @_ZL66file_level_enum_descriptors_google_2fprotobuf_2fdescriptor_2eproto, i64 0, i64 3), align 8
  ret ptr %0
}

; Function Attrs: mustprogress nounwind uwtable
define noundef zeroext i1 @_ZN6google8protobuf32FileOptions_OptimizeMode_IsValidEi(i32 noundef %value) #5 {
entry:
  %value.addr = alloca i32, align 4
  store i32 %value, ptr %value.addr, align 4
  %0 = load i32, ptr %value.addr, align 4
  %cmp = icmp sle i32 1, %0
  br i1 %cmp, label %land.rhs, label %land.end

land.rhs:                                         ; preds = %entry
  %1 = load i32, ptr %value.addr, align 4
  %cmp1 = icmp sle i32 %1, 3
  br label %land.end

land.end:                                         ; preds = %land.rhs, %entry
  %2 = phi i1 [ false, %entry ], [ %cmp1, %land.rhs ]
  ret i1 %2
}

; Function Attrs: mustprogress uwtable
define noundef ptr @_ZN6google8protobuf29FieldOptions_CType_descriptorEv() #4 {
entry:
  call void @_ZN6google8protobuf8internal17AssignDescriptorsEPKNS1_15DescriptorTableE(ptr noundef @descriptor_table_google_2fprotobuf_2fdescriptor_2eproto)
  %0 = load ptr, ptr getelementptr inbounds ([17 x ptr], ptr @_ZL66file_level_enum_descriptors_google_2fprotobuf_2fdescriptor_2eproto, i64 0, i64 4), align 16
  ret ptr %0
}

; Function Attrs: mustprogress nounwind uwtable
define noundef zeroext i1 @_ZN6google8protobuf26FieldOptions_CType_IsValidEi(i32 noundef %value) #5 {
entry:
  %value.addr = alloca i32, align 4
  store i32 %value, ptr %value.addr, align 4
  %0 = load i32, ptr %value.addr, align 4
  %cmp = icmp sle i32 0, %0
  br i1 %cmp, label %land.rhs, label %land.end

land.rhs:                                         ; preds = %entry
  %1 = load i32, ptr %value.addr, align 4
  %cmp1 = icmp sle i32 %1, 2
  br label %land.end

land.end:                                         ; preds = %land.rhs, %entry
  %2 = phi i1 [ false, %entry ], [ %cmp1, %land.rhs ]
  ret i1 %2
}

; Function Attrs: mustprogress uwtable
define noundef ptr @_ZN6google8protobuf30FieldOptions_JSType_descriptorEv() #4 {
entry:
  call void @_ZN6google8protobuf8internal17AssignDescriptorsEPKNS1_15DescriptorTableE(ptr noundef @descriptor_table_google_2fprotobuf_2fdescriptor_2eproto)
  %0 = load ptr, ptr getelementptr inbounds ([17 x ptr], ptr @_ZL66file_level_enum_descriptors_google_2fprotobuf_2fdescriptor_2eproto, i64 0, i64 5), align 8
  ret ptr %0
}

; Function Attrs: mustprogress nounwind uwtable
define noundef zeroext i1 @_ZN6google8protobuf27FieldOptions_JSType_IsValidEi(i32 noundef %value) #5 {
entry:
  %value.addr = alloca i32, align 4
  store i32 %value, ptr %value.addr, align 4
  %0 = load i32, ptr %value.addr, align 4
  %cmp = icmp sle i32 0, %0
  br i1 %cmp, label %land.rhs, label %land.end

land.rhs:                                         ; preds = %entry
  %1 = load i32, ptr %value.addr, align 4
  %cmp1 = icmp sle i32 %1, 2
  br label %land.end

land.end:                                         ; preds = %land.rhs, %entry
  %2 = phi i1 [ false, %entry ], [ %cmp1, %land.rhs ]
  ret i1 %2
}

; Function Attrs: mustprogress uwtable
define noundef ptr @_ZN6google8protobuf39FieldOptions_OptionRetention_descriptorEv() #4 {
entry:
  call void @_ZN6google8protobuf8internal17AssignDescriptorsEPKNS1_15DescriptorTableE(ptr noundef @descriptor_table_google_2fprotobuf_2fdescriptor_2eproto)
  %0 = load ptr, ptr getelementptr inbounds ([17 x ptr], ptr @_ZL66file_level_enum_descriptors_google_2fprotobuf_2fdescriptor_2eproto, i64 0, i64 6), align 16
  ret ptr %0
}

; Function Attrs: mustprogress nounwind uwtable
define noundef zeroext i1 @_ZN6google8protobuf36FieldOptions_OptionRetention_IsValidEi(i32 noundef %value) #5 {
entry:
  %value.addr = alloca i32, align 4
  store i32 %value, ptr %value.addr, align 4
  %0 = load i32, ptr %value.addr, align 4
  %cmp = icmp sle i32 0, %0
  br i1 %cmp, label %land.rhs, label %land.end

land.rhs:                                         ; preds = %entry
  %1 = load i32, ptr %value.addr, align 4
  %cmp1 = icmp sle i32 %1, 2
  br label %land.end

land.end:                                         ; preds = %land.rhs, %entry
  %2 = phi i1 [ false, %entry ], [ %cmp1, %land.rhs ]
  ret i1 %2
}

; Function Attrs: mustprogress uwtable
define noundef ptr @_ZN6google8protobuf40FieldOptions_OptionTargetType_descriptorEv() #4 {
entry:
  call void @_ZN6google8protobuf8internal17AssignDescriptorsEPKNS1_15DescriptorTableE(ptr noundef @descriptor_table_google_2fprotobuf_2fdescriptor_2eproto)
  %0 = load ptr, ptr getelementptr inbounds ([17 x ptr], ptr @_ZL66file_level_enum_descriptors_google_2fprotobuf_2fdescriptor_2eproto, i64 0, i64 7), align 8
  ret ptr %0
}

; Function Attrs: mustprogress nounwind uwtable
define noundef zeroext i1 @_ZN6google8protobuf37FieldOptions_OptionTargetType_IsValidEi(i32 noundef %value) #5 {
entry:
  %value.addr = alloca i32, align 4
  store i32 %value, ptr %value.addr, align 4
  %0 = load i32, ptr %value.addr, align 4
  %cmp = icmp sle i32 0, %0
  br i1 %cmp, label %land.rhs, label %land.end

land.rhs:                                         ; preds = %entry
  %1 = load i32, ptr %value.addr, align 4
  %cmp1 = icmp sle i32 %1, 9
  br label %land.end

land.end:                                         ; preds = %land.rhs, %entry
  %2 = phi i1 [ false, %entry ], [ %cmp1, %land.rhs ]
  ret i1 %2
}

; Function Attrs: mustprogress uwtable
define noundef ptr @_ZN6google8protobuf41MethodOptions_IdempotencyLevel_descriptorEv() #4 {
entry:
  call void @_ZN6google8protobuf8internal17AssignDescriptorsEPKNS1_15DescriptorTableE(ptr noundef @descriptor_table_google_2fprotobuf_2fdescriptor_2eproto)
  %0 = load ptr, ptr getelementptr inbounds ([17 x ptr], ptr @_ZL66file_level_enum_descriptors_google_2fprotobuf_2fdescriptor_2eproto, i64 0, i64 8), align 16
  ret ptr %0
}

; Function Attrs: mustprogress nounwind uwtable
define noundef zeroext i1 @_ZN6google8protobuf38MethodOptions_IdempotencyLevel_IsValidEi(i32 noundef %value) #5 {
entry:
  %value.addr = alloca i32, align 4
  store i32 %value, ptr %value.addr, align 4
  %0 = load i32, ptr %value.addr, align 4
  %cmp = icmp sle i32 0, %0
  br i1 %cmp, label %land.rhs, label %land.end

land.rhs:                                         ; preds = %entry
  %1 = load i32, ptr %value.addr, align 4
  %cmp1 = icmp sle i32 %1, 2
  br label %land.end

land.end:                                         ; preds = %land.rhs, %entry
  %2 = phi i1 [ false, %entry ], [ %cmp1, %land.rhs ]
  ret i1 %2
}

; Function Attrs: mustprogress uwtable
define noundef ptr @_ZN6google8protobuf35FeatureSet_FieldPresence_descriptorEv() #4 {
entry:
  call void @_ZN6google8protobuf8internal17AssignDescriptorsEPKNS1_15DescriptorTableE(ptr noundef @descriptor_table_google_2fprotobuf_2fdescriptor_2eproto)
  %0 = load ptr, ptr getelementptr inbounds ([17 x ptr], ptr @_ZL66file_level_enum_descriptors_google_2fprotobuf_2fdescriptor_2eproto, i64 0, i64 9), align 8
  ret ptr %0
}

; Function Attrs: mustprogress nounwind uwtable
define noundef zeroext i1 @_ZN6google8protobuf32FeatureSet_FieldPresence_IsValidEi(i32 noundef %value) #5 {
entry:
  %value.addr = alloca i32, align 4
  store i32 %value, ptr %value.addr, align 4
  %0 = load i32, ptr %value.addr, align 4
  %cmp = icmp sle i32 0, %0
  br i1 %cmp, label %land.rhs, label %land.end

land.rhs:                                         ; preds = %entry
  %1 = load i32, ptr %value.addr, align 4
  %cmp1 = icmp sle i32 %1, 3
  br label %land.end

land.end:                                         ; preds = %land.rhs, %entry
  %2 = phi i1 [ false, %entry ], [ %cmp1, %land.rhs ]
  ret i1 %2
}

; Function Attrs: mustprogress uwtable
define noundef ptr @_ZN6google8protobuf30FeatureSet_EnumType_descriptorEv() #4 {
entry:
  call void @_ZN6google8protobuf8internal17AssignDescriptorsEPKNS1_15DescriptorTableE(ptr noundef @descriptor_table_google_2fprotobuf_2fdescriptor_2eproto)
  %0 = load ptr, ptr getelementptr inbounds ([17 x ptr], ptr @_ZL66file_level_enum_descriptors_google_2fprotobuf_2fdescriptor_2eproto, i64 0, i64 10), align 16
  ret ptr %0
}

; Function Attrs: mustprogress nounwind uwtable
define noundef zeroext i1 @_ZN6google8protobuf27FeatureSet_EnumType_IsValidEi(i32 noundef %value) #5 {
entry:
  %value.addr = alloca i32, align 4
  store i32 %value, ptr %value.addr, align 4
  %0 = load i32, ptr %value.addr, align 4
  %cmp = icmp sle i32 0, %0
  br i1 %cmp, label %land.rhs, label %land.end

land.rhs:                                         ; preds = %entry
  %1 = load i32, ptr %value.addr, align 4
  %cmp1 = icmp sle i32 %1, 2
  br label %land.end

land.end:                                         ; preds = %land.rhs, %entry
  %2 = phi i1 [ false, %entry ], [ %cmp1, %land.rhs ]
  ret i1 %2
}

; Function Attrs: mustprogress uwtable
define noundef ptr @_ZN6google8protobuf43FeatureSet_RepeatedFieldEncoding_descriptorEv() #4 {
entry:
  call void @_ZN6google8protobuf8internal17AssignDescriptorsEPKNS1_15DescriptorTableE(ptr noundef @descriptor_table_google_2fprotobuf_2fdescriptor_2eproto)
  %0 = load ptr, ptr getelementptr inbounds ([17 x ptr], ptr @_ZL66file_level_enum_descriptors_google_2fprotobuf_2fdescriptor_2eproto, i64 0, i64 11), align 8
  ret ptr %0
}

; Function Attrs: mustprogress nounwind uwtable
define noundef zeroext i1 @_ZN6google8protobuf40FeatureSet_RepeatedFieldEncoding_IsValidEi(i32 noundef %value) #5 {
entry:
  %value.addr = alloca i32, align 4
  store i32 %value, ptr %value.addr, align 4
  %0 = load i32, ptr %value.addr, align 4
  %cmp = icmp sle i32 0, %0
  br i1 %cmp, label %land.rhs, label %land.end

land.rhs:                                         ; preds = %entry
  %1 = load i32, ptr %value.addr, align 4
  %cmp1 = icmp sle i32 %1, 2
  br label %land.end

land.end:                                         ; preds = %land.rhs, %entry
  %2 = phi i1 [ false, %entry ], [ %cmp1, %land.rhs ]
  ret i1 %2
}

; Function Attrs: mustprogress uwtable
define noundef ptr @_ZN6google8protobuf36FeatureSet_Utf8Validation_descriptorEv() #4 {
entry:
  call void @_ZN6google8protobuf8internal17AssignDescriptorsEPKNS1_15DescriptorTableE(ptr noundef @descriptor_table_google_2fprotobuf_2fdescriptor_2eproto)
  %0 = load ptr, ptr getelementptr inbounds ([17 x ptr], ptr @_ZL66file_level_enum_descriptors_google_2fprotobuf_2fdescriptor_2eproto, i64 0, i64 12), align 16
  ret ptr %0
}

; Function Attrs: mustprogress nounwind uwtable
define noundef zeroext i1 @_ZN6google8protobuf33FeatureSet_Utf8Validation_IsValidEi(i32 noundef %value) #5 {
entry:
  %value.addr = alloca i32, align 4
  store i32 %value, ptr %value.addr, align 4
  %0 = load i32, ptr %value.addr, align 4
  %cmp = icmp sle i32 0, %0
  br i1 %cmp, label %land.lhs.true, label %land.end

land.lhs.true:                                    ; preds = %entry
  %1 = load i32, ptr %value.addr, align 4
  %cmp1 = icmp sle i32 %1, 3
  br i1 %cmp1, label %land.rhs, label %land.end

land.rhs:                                         ; preds = %land.lhs.true
  %2 = load i32, ptr %value.addr, align 4
  %shr = lshr i32 13, %2
  %and = and i32 %shr, 1
  %cmp2 = icmp ne i32 %and, 0
  br label %land.end

land.end:                                         ; preds = %land.rhs, %land.lhs.true, %entry
  %3 = phi i1 [ false, %land.lhs.true ], [ false, %entry ], [ %cmp2, %land.rhs ]
  ret i1 %3
}

; Function Attrs: mustprogress uwtable
define noundef ptr @_ZN6google8protobuf37FeatureSet_MessageEncoding_descriptorEv() #4 {
entry:
  call void @_ZN6google8protobuf8internal17AssignDescriptorsEPKNS1_15DescriptorTableE(ptr noundef @descriptor_table_google_2fprotobuf_2fdescriptor_2eproto)
  %0 = load ptr, ptr getelementptr inbounds ([17 x ptr], ptr @_ZL66file_level_enum_descriptors_google_2fprotobuf_2fdescriptor_2eproto, i64 0, i64 13), align 8
  ret ptr %0
}

; Function Attrs: mustprogress nounwind uwtable
define noundef zeroext i1 @_ZN6google8protobuf34FeatureSet_MessageEncoding_IsValidEi(i32 noundef %value) #5 {
entry:
  %value.addr = alloca i32, align 4
  store i32 %value, ptr %value.addr, align 4
  %0 = load i32, ptr %value.addr, align 4
  %cmp = icmp sle i32 0, %0
  br i1 %cmp, label %land.rhs, label %land.end

land.rhs:                                         ; preds = %entry
  %1 = load i32, ptr %value.addr, align 4
  %cmp1 = icmp sle i32 %1, 2
  br label %land.end

land.end:                                         ; preds = %land.rhs, %entry
  %2 = phi i1 [ false, %entry ], [ %cmp1, %land.rhs ]
  ret i1 %2
}

; Function Attrs: mustprogress uwtable
define noundef ptr @_ZN6google8protobuf32FeatureSet_JsonFormat_descriptorEv() #4 {
entry:
  call void @_ZN6google8protobuf8internal17AssignDescriptorsEPKNS1_15DescriptorTableE(ptr noundef @descriptor_table_google_2fprotobuf_2fdescriptor_2eproto)
  %0 = load ptr, ptr getelementptr inbounds ([17 x ptr], ptr @_ZL66file_level_enum_descriptors_google_2fprotobuf_2fdescriptor_2eproto, i64 0, i64 14), align 16
  ret ptr %0
}

; Function Attrs: mustprogress nounwind uwtable
define noundef zeroext i1 @_ZN6google8protobuf29FeatureSet_JsonFormat_IsValidEi(i32 noundef %value) #5 {
entry:
  %value.addr = alloca i32, align 4
  store i32 %value, ptr %value.addr, align 4
  %0 = load i32, ptr %value.addr, align 4
  %cmp = icmp sle i32 0, %0
  br i1 %cmp, label %land.rhs, label %land.end

land.rhs:                                         ; preds = %entry
  %1 = load i32, ptr %value.addr, align 4
  %cmp1 = icmp sle i32 %1, 2
  br label %land.end

land.end:                                         ; preds = %land.rhs, %entry
  %2 = phi i1 [ false, %entry ], [ %cmp1, %land.rhs ]
  ret i1 %2
}

; Function Attrs: mustprogress uwtable
define noundef ptr @_ZN6google8protobuf48GeneratedCodeInfo_Annotation_Semantic_descriptorEv() #4 {
entry:
  call void @_ZN6google8protobuf8internal17AssignDescriptorsEPKNS1_15DescriptorTableE(ptr noundef @descriptor_table_google_2fprotobuf_2fdescriptor_2eproto)
  %0 = load ptr, ptr getelementptr inbounds ([17 x ptr], ptr @_ZL66file_level_enum_descriptors_google_2fprotobuf_2fdescriptor_2eproto, i64 0, i64 15), align 8
  ret ptr %0
}

; Function Attrs: mustprogress nounwind uwtable
define noundef zeroext i1 @_ZN6google8protobuf45GeneratedCodeInfo_Annotation_Semantic_IsValidEi(i32 noundef %value) #5 {
entry:
  %value.addr = alloca i32, align 4
  store i32 %value, ptr %value.addr, align 4
  %0 = load i32, ptr %value.addr, align 4
  %cmp = icmp sle i32 0, %0
  br i1 %cmp, label %land.rhs, label %land.end

land.rhs:                                         ; preds = %entry
  %1 = load i32, ptr %value.addr, align 4
  %cmp1 = icmp sle i32 %1, 2
  br label %land.end

land.end:                                         ; preds = %land.rhs, %entry
  %2 = phi i1 [ false, %entry ], [ %cmp1, %land.rhs ]
  ret i1 %2
}

; Function Attrs: mustprogress uwtable
define noundef ptr @_ZN6google8protobuf18Edition_descriptorEv() #4 {
entry:
  call void @_ZN6google8protobuf8internal17AssignDescriptorsEPKNS1_15DescriptorTableE(ptr noundef @descriptor_table_google_2fprotobuf_2fdescriptor_2eproto)
  %0 = load ptr, ptr getelementptr inbounds ([17 x ptr], ptr @_ZL66file_level_enum_descriptors_google_2fprotobuf_2fdescriptor_2eproto, i64 0, i64 16), align 16
  ret ptr %0
}

; Function Attrs: mustprogress uwtable
define noundef zeroext i1 @_ZN6google8protobuf15Edition_IsValidEi(i32 noundef %value) #4 {
entry:
  %value.addr = alloca i32, align 4
  store i32 %value, ptr %value.addr, align 4
  %0 = load i32, ptr %value.addr, align 4
  %call = call noundef zeroext i1 @_ZN6google8protobuf8internal12ValidateEnumEiPKj(i32 noundef %0, ptr noundef @_ZN6google8protobuf22Edition_internal_data_E)
  ret i1 %call
}

declare noundef zeroext i1 @_ZN6google8protobuf8internal12ValidateEnumEiPKj(i32 noundef, ptr noundef) #1

; Function Attrs: mustprogress uwtable
define void @_ZN6google8protobuf17FileDescriptorSetC2EPNS0_5ArenaE(ptr noundef nonnull align 8 dereferenceable(48) %this, ptr noundef %arena) unnamed_addr #4 align 2 personality ptr @__gxx_personality_v0 {
entry:
  %this.addr = alloca ptr, align 8
  %arena.addr = alloca ptr, align 8
  %exn.slot = alloca ptr, align 8
  %ehselector.slot = alloca i32, align 4
  store ptr %this, ptr %this.addr, align 8
  store ptr %arena, ptr %arena.addr, align 8
  %this1 = load ptr, ptr %this.addr, align 8
  %0 = load ptr, ptr %arena.addr, align 8
  call void @_ZN6google8protobuf7MessageC2EPNS0_5ArenaE(ptr noundef nonnull align 8 dereferenceable(16) %this1, ptr noundef %0)
  store ptr getelementptr inbounds ({ [13 x ptr] }, ptr @_ZTVN6google8protobuf17FileDescriptorSetE, i32 0, inrange i32 0, i32 2), ptr %this1, align 8
  %1 = load ptr, ptr %arena.addr, align 8
  invoke void @_ZN6google8protobuf17FileDescriptorSet10SharedCtorEPNS0_5ArenaE(ptr noundef nonnull align 8 dereferenceable(48) %this1, ptr noundef %1)
          to label %invoke.cont unwind label %lpad

invoke.cont:                                      ; preds = %entry
  ret void

lpad:                                             ; preds = %entry
  %2 = landingpad { ptr, i32 }
          cleanup
  %3 = extractvalue { ptr, i32 } %2, 0
  store ptr %3, ptr %exn.slot, align 8
  %4 = extractvalue { ptr, i32 } %2, 1
  store i32 %4, ptr %ehselector.slot, align 4
  call void @_ZN6google8protobuf7MessageD2Ev(ptr noundef nonnull align 8 dereferenceable(16) %this1) #3
  br label %eh.resume

eh.resume:                                        ; preds = %lpad
  %exn = load ptr, ptr %exn.slot, align 8
  %sel = load i32, ptr %ehselector.slot, align 4
  %lpad.val = insertvalue { ptr, i32 } poison, ptr %exn, 0
  %lpad.val2 = insertvalue { ptr, i32 } %lpad.val, i32 %sel, 1
  resume { ptr, i32 } %lpad.val2
}

; Function Attrs: mustprogress uwtable
define linkonce_odr hidden void @_ZN6google8protobuf7MessageC2EPNS0_5ArenaE(ptr noundef nonnull align 8 dereferenceable(16) %this, ptr noundef %arena) unnamed_addr #4 comdat align 2 {
entry:
  %this.addr = alloca ptr, align 8
  %arena.addr = alloca ptr, align 8
  store ptr %this, ptr %this.addr, align 8
  store ptr %arena, ptr %arena.addr, align 8
  %this1 = load ptr, ptr %this.addr, align 8
  %0 = load ptr, ptr %arena.addr, align 8
  call void @_ZN6google8protobuf11MessageLiteC2EPNS0_5ArenaE(ptr noundef nonnull align 8 dereferenceable(16) %this1, ptr noundef %0)
  store ptr getelementptr inbounds ({ [13 x ptr] }, ptr @_ZTVN6google8protobuf7MessageE, i32 0, inrange i32 0, i32 2), ptr %this1, align 8
  ret void
}

; Function Attrs: mustprogress uwtable
define linkonce_odr hidden void @_ZN6google8protobuf17FileDescriptorSet10SharedCtorEPNS0_5ArenaE(ptr noundef nonnull align 8 dereferenceable(48) %this, ptr noundef %arena) #4 comdat align 2 {
entry:
  %this.addr.i = alloca ptr, align 8
  %arena.addr.i = alloca ptr, align 8
  %this.addr = alloca ptr, align 8
  %arena.addr = alloca ptr, align 8
  store ptr %this, ptr %this.addr, align 8
  store ptr %arena, ptr %arena.addr, align 8
  %this1 = load ptr, ptr %this.addr, align 8
  %0 = getelementptr inbounds %"class.google::protobuf::FileDescriptorSet", ptr %this1, i32 0, i32 1
  call void @_ZN6google8protobuf11MessageLite19internal_visibilityEv()
  %1 = load ptr, ptr %arena.addr, align 8
  store ptr %0, ptr %this.addr.i, align 8
  store ptr %1, ptr %arena.addr.i, align 8
  %this1.i = load ptr, ptr %this.addr.i, align 8
  %2 = load ptr, ptr %arena.addr.i, align 8
  call void @_ZN6google8protobuf16RepeatedPtrFieldINS0_19FileDescriptorProtoEEC2ENS0_8internal18InternalVisibilityEPNS0_5ArenaE(ptr noundef nonnull align 8 dereferenceable(24) %this1.i, ptr noundef %2)
  %_cached_size_.i = getelementptr inbounds %"struct.google::protobuf::FileDescriptorSet::Impl_", ptr %this1.i, i32 0, i32 1
  call void @_ZN6google8protobuf8internal10CachedSizeC2Ei(ptr noundef nonnull align 4 dereferenceable(4) %_cached_size_.i, i32 noundef 0) #3
  ret void
}

declare i32 @__gxx_personality_v0(...)

; Function Attrs: mustprogress nounwind uwtable
define linkonce_odr hidden void @_ZN6google8protobuf7MessageD2Ev(ptr noundef nonnull align 8 dereferenceable(16) %this) unnamed_addr #5 comdat align 2 {
entry:
  %this.addr = alloca ptr, align 8
  store ptr %this, ptr %this.addr, align 8
  %this1 = load ptr, ptr %this.addr, align 8
  call void @_ZN6google8protobuf11MessageLiteD2Ev(ptr noundef nonnull align 8 dereferenceable(16) %this1) #3
  ret void
}

; Function Attrs: mustprogress uwtable
define void @_ZN6google8protobuf17FileDescriptorSetC2EPNS0_5ArenaERKS1_(ptr noundef nonnull align 8 dereferenceable(48) %this, ptr noundef %arena, ptr noundef nonnull align 8 dereferenceable(48) %from) unnamed_addr #4 align 2 personality ptr @__gxx_personality_v0 {
entry:
  %this.addr.i19 = alloca ptr, align 8
  %this.addr.i17 = alloca ptr, align 8
  %this.addr.i.i = alloca ptr, align 8
  %retval.i = alloca ptr, align 8
  %this.addr.i13 = alloca ptr, align 8
  %default_instance.addr.i = alloca ptr, align 8
  %this.addr.i11 = alloca ptr, align 8
  %this.addr.i8 = alloca ptr, align 8
  %arena.addr.i = alloca ptr, align 8
  %from.addr.i = alloca ptr, align 8
  %this.addr.i = alloca ptr, align 8
  %other.addr.i = alloca ptr, align 8
  %this.addr = alloca ptr, align 8
  %arena.addr = alloca ptr, align 8
  %from.addr = alloca ptr, align 8
  %_this = alloca ptr, align 8
  %exn.slot = alloca ptr, align 8
  %ehselector.slot = alloca i32, align 4
  store ptr %this, ptr %this.addr, align 8
  store ptr %arena, ptr %arena.addr, align 8
  store ptr %from, ptr %from.addr, align 8
  %this1 = load ptr, ptr %this.addr, align 8
  %0 = load ptr, ptr %arena.addr, align 8
  call void @_ZN6google8protobuf7MessageC2EPNS0_5ArenaE(ptr noundef nonnull align 8 dereferenceable(16) %this1, ptr noundef %0)
  store ptr getelementptr inbounds ({ [13 x ptr] }, ptr @_ZTVN6google8protobuf17FileDescriptorSetE, i32 0, inrange i32 0, i32 2), ptr %this1, align 8
  store ptr %this1, ptr %_this, align 8
  %_internal_metadata_ = getelementptr inbounds %"class.google::protobuf::MessageLite", ptr %this1, i32 0, i32 1
  %1 = load ptr, ptr %from.addr, align 8
  %_internal_metadata_2 = getelementptr inbounds %"class.google::protobuf::MessageLite", ptr %1, i32 0, i32 1
  store ptr %_internal_metadata_, ptr %this.addr.i, align 8
  store ptr %_internal_metadata_2, ptr %other.addr.i, align 8
  %this1.i = load ptr, ptr %this.addr.i, align 8
  %2 = load ptr, ptr %other.addr.i, align 8
  store ptr %2, ptr %this.addr.i11, align 8
  %this1.i12 = load ptr, ptr %this.addr.i11, align 8
  store ptr %this1.i12, ptr %this.addr.i19, align 8
  %this1.i20 = load ptr, ptr %this.addr.i19, align 8
  %3 = load i64, ptr %this1.i20, align 8
  %and.i21 = and i64 %3, 1
  %tobool.i22 = icmp ne i64 %and.i21, 0
  br label %call.i.noexc

call.i.noexc:                                     ; preds = %entry
  br i1 %tobool.i22, label %if.then.i, label %_ZN6google8protobuf8internal16InternalMetadata9MergeFromINS0_15UnknownFieldSetEEEvRKS2_.exit

if.then.i:                                        ; preds = %call.i.noexc
  %4 = load ptr, ptr %other.addr.i, align 8
  store ptr %4, ptr %this.addr.i13, align 8
  store ptr null, ptr %default_instance.addr.i, align 8
  %this1.i14 = load ptr, ptr %this.addr.i13, align 8
  store ptr %this1.i14, ptr %this.addr.i.i, align 8
  %this1.i.i = load ptr, ptr %this.addr.i.i, align 8
  store ptr %this1.i.i, ptr %this.addr.i17, align 8
  %this1.i18 = load ptr, ptr %this.addr.i17, align 8
  %5 = load i64, ptr %this1.i18, align 8
  %and.i = and i64 %5, 1
  %tobool.i = icmp ne i64 %and.i, 0
  br i1 %tobool.i, label %if.then.i15, label %if.else.i

if.then.i15:                                      ; preds = %if.then.i
  %call2.i = call noundef ptr @_ZNK6google8protobuf8internal16InternalMetadata8PtrValueINS2_9ContainerINS0_15UnknownFieldSetEEEEEPT_v(ptr noundef nonnull align 8 dereferenceable(8) %this1.i14)
  %unknown_fields.i = getelementptr inbounds %"struct.google::protobuf::internal::InternalMetadata::Container", ptr %call2.i, i32 0, i32 1
  store ptr %unknown_fields.i, ptr %retval.i, align 8
  br label %_ZNK6google8protobuf8internal16InternalMetadata14unknown_fieldsINS0_15UnknownFieldSetEEERKT_PFS7_vE.exit

if.else.i:                                        ; preds = %if.then.i
  %6 = load ptr, ptr %default_instance.addr.i, align 8
  %call3.i16 = invoke noundef nonnull align 8 dereferenceable(24) ptr %6()
          to label %call3.i.noexc unwind label %lpad

call3.i.noexc:                                    ; preds = %if.else.i
  store ptr %call3.i16, ptr %retval.i, align 8
  br label %_ZNK6google8protobuf8internal16InternalMetadata14unknown_fieldsINS0_15UnknownFieldSetEEERKT_PFS7_vE.exit

_ZNK6google8protobuf8internal16InternalMetadata14unknown_fieldsINS0_15UnknownFieldSetEEERKT_PFS7_vE.exit: ; preds = %call3.i.noexc, %if.then.i15
  %7 = load ptr, ptr %retval.i, align 8
  br label %call2.i.noexc

call2.i.noexc:                                    ; preds = %_ZNK6google8protobuf8internal16InternalMetadata14unknown_fieldsINS0_15UnknownFieldSetEEERKT_PFS7_vE.exit
  invoke void @_ZN6google8protobuf8internal16InternalMetadata11DoMergeFromINS0_15UnknownFieldSetEEEvRKT_(ptr noundef nonnull align 8 dereferenceable(8) %this1.i, ptr noundef nonnull align 8 dereferenceable(24) %7)
          to label %.noexc unwind label %lpad

.noexc:                                           ; preds = %call2.i.noexc
  br label %_ZN6google8protobuf8internal16InternalMetadata9MergeFromINS0_15UnknownFieldSetEEEvRKS2_.exit

_ZN6google8protobuf8internal16InternalMetadata9MergeFromINS0_15UnknownFieldSetEEEvRKS2_.exit: ; preds = %.noexc, %call.i.noexc
  br label %invoke.cont

invoke.cont:                                      ; preds = %_ZN6google8protobuf8internal16InternalMetadata9MergeFromINS0_15UnknownFieldSetEEEvRKS2_.exit
  %8 = getelementptr inbounds %"class.google::protobuf::FileDescriptorSet", ptr %this1, i32 0, i32 1
  invoke void @_ZN6google8protobuf11MessageLite19internal_visibilityEv()
          to label %invoke.cont3 unwind label %lpad

invoke.cont3:                                     ; preds = %invoke.cont
  %9 = load ptr, ptr %arena.addr, align 8
  %10 = load ptr, ptr %from.addr, align 8
  %11 = getelementptr inbounds %"class.google::protobuf::FileDescriptorSet", ptr %10, i32 0, i32 1
  store ptr %8, ptr %this.addr.i8, align 8
  store ptr %9, ptr %arena.addr.i, align 8
  store ptr %11, ptr %from.addr.i, align 8
  %this1.i9 = load ptr, ptr %this.addr.i8, align 8
  %12 = load ptr, ptr %arena.addr.i, align 8
  %13 = load ptr, ptr %from.addr.i, align 8
  invoke void @_ZN6google8protobuf16RepeatedPtrFieldINS0_19FileDescriptorProtoEEC2ENS0_8internal18InternalVisibilityEPNS0_5ArenaERKS3_(ptr noundef nonnull align 8 dereferenceable(24) %this1.i9, ptr noundef %12, ptr noundef nonnull align 8 dereferenceable(24) %13)
          to label %_ZN6google8protobuf17FileDescriptorSet5Impl_C2ENS0_8internal18InternalVisibilityEPNS0_5ArenaERKS2_.exit unwind label %lpad

_ZN6google8protobuf17FileDescriptorSet5Impl_C2ENS0_8internal18InternalVisibilityEPNS0_5ArenaERKS2_.exit: ; preds = %invoke.cont3
  %_cached_size_.i = getelementptr inbounds %"struct.google::protobuf::FileDescriptorSet::Impl_", ptr %this1.i9, i32 0, i32 1
  call void @_ZN6google8protobuf8internal10CachedSizeC2Ei(ptr noundef nonnull align 4 dereferenceable(4) %_cached_size_.i, i32 noundef 0) #3
  br label %invoke.cont4

invoke.cont4:                                     ; preds = %_ZN6google8protobuf17FileDescriptorSet5Impl_C2ENS0_8internal18InternalVisibilityEPNS0_5ArenaERKS2_.exit
  ret void

lpad:                                             ; preds = %invoke.cont3, %invoke.cont, %call2.i.noexc, %if.else.i
  %14 = landingpad { ptr, i32 }
          cleanup
  %15 = extractvalue { ptr, i32 } %14, 0
  store ptr %15, ptr %exn.slot, align 8
  %16 = extractvalue { ptr, i32 } %14, 1
  store i32 %16, ptr %ehselector.slot, align 4
  call void @_ZN6google8protobuf7MessageD2Ev(ptr noundef nonnull align 8 dereferenceable(16) %this1) #3
  br label %eh.resume

eh.resume:                                        ; preds = %lpad
  %exn = load ptr, ptr %exn.slot, align 8
  %sel = load i32, ptr %ehselector.slot, align 4
  %lpad.val = insertvalue { ptr, i32 } poison, ptr %exn, 0
  %lpad.val5 = insertvalue { ptr, i32 } %lpad.val, i32 %sel, 1
  resume { ptr, i32 } %lpad.val5
}

; Function Attrs: mustprogress uwtable
define linkonce_odr hidden void @_ZN6google8protobuf11MessageLite19internal_visibilityEv() #4 comdat align 2 {
entry:
  %retval = alloca %"class.google::protobuf::internal::InternalVisibility", align 1
  call void @_ZN6google8protobuf8internal18InternalVisibilityC2Ev(ptr noundef nonnull align 1 dereferenceable(1) %retval)
  ret void
}

; Function Attrs: mustprogress nounwind uwtable
define void @_ZN6google8protobuf17FileDescriptorSetD2Ev(ptr noundef nonnull align 8 dereferenceable(48) %this) unnamed_addr #5 align 2 personality ptr @__gxx_personality_v0 {
entry:
  %this.addr = alloca ptr, align 8
  store ptr %this, ptr %this.addr, align 8
  %this1 = load ptr, ptr %this.addr, align 8
  %_internal_metadata_ = getelementptr inbounds %"class.google::protobuf::MessageLite", ptr %this1, i32 0, i32 1
  invoke void @_ZN6google8protobuf8internal16InternalMetadata6DeleteINS0_15UnknownFieldSetEEEvv(ptr noundef nonnull align 8 dereferenceable(8) %_internal_metadata_)
          to label %invoke.cont unwind label %terminate.lpad

invoke.cont:                                      ; preds = %entry
  invoke void @_ZN6google8protobuf17FileDescriptorSet10SharedDtorEv(ptr noundef nonnull align 8 dereferenceable(48) %this1)
          to label %invoke.cont2 unwind label %terminate.lpad

invoke.cont2:                                     ; preds = %invoke.cont
  call void @_ZN6google8protobuf7MessageD2Ev(ptr noundef nonnull align 8 dereferenceable(16) %this1) #3
  ret void

terminate.lpad:                                   ; preds = %invoke.cont, %entry
  %0 = landingpad { ptr, i32 }
          catch ptr null
  %1 = extractvalue { ptr, i32 } %0, 0
  call void @__clang_call_terminate(ptr %1) #17
  unreachable
}

; Function Attrs: mustprogress uwtable
define linkonce_odr hidden void @_ZN6google8protobuf8internal16InternalMetadata6DeleteINS0_15UnknownFieldSetEEEvv(ptr noundef nonnull align 8 dereferenceable(8) %this) #4 comdat align 2 {
entry:
  %this.addr.i2 = alloca ptr, align 8
  %this.addr.i = alloca ptr, align 8
  %this.addr = alloca ptr, align 8
  store ptr %this, ptr %this.addr, align 8
  %this1 = load ptr, ptr %this.addr, align 8
  store ptr %this1, ptr %this.addr.i, align 8
  %this1.i = load ptr, ptr %this.addr.i, align 8
  store ptr %this1.i, ptr %this.addr.i2, align 8
  %this1.i3 = load ptr, ptr %this.addr.i2, align 8
  %0 = load i64, ptr %this1.i3, align 8
  %and.i = and i64 %0, 1
  %tobool.i = icmp ne i64 %and.i, 0
  br i1 %tobool.i, label %if.then, label %if.end

if.then:                                          ; preds = %entry
  call void @_ZN6google8protobuf8internal16InternalMetadata21DeleteOutOfLineHelperINS0_15UnknownFieldSetEEEvv(ptr noundef nonnull align 8 dereferenceable(8) %this1)
  br label %if.end

if.end:                                           ; preds = %if.then, %entry
  ret void
}

; Function Attrs: noreturn nounwind uwtable
define linkonce_odr hidden void @__clang_call_terminate(ptr noundef %0) #6 comdat {
  %2 = call ptr @__cxa_begin_catch(ptr %0) #3
  call void @_ZSt9terminatev() #17
  unreachable
}

declare ptr @__cxa_begin_catch(ptr)

declare void @_ZSt9terminatev()

; Function Attrs: mustprogress nounwind uwtable
define linkonce_odr hidden void @_ZN6google8protobuf17FileDescriptorSet10SharedDtorEv(ptr noundef nonnull align 8 dereferenceable(48) %this) #5 comdat align 2 {
entry:
  %this.addr = alloca ptr, align 8
  store ptr %this, ptr %this.addr, align 8
  %this1 = load ptr, ptr %this.addr, align 8
  %0 = getelementptr inbounds %"class.google::protobuf::FileDescriptorSet", ptr %this1, i32 0, i32 1
  call void @_ZN6google8protobuf17FileDescriptorSet5Impl_D2Ev(ptr noundef nonnull align 8 dereferenceable(28) %0) #3
  ret void
}

; Function Attrs: mustprogress nounwind uwtable
define void @_ZN6google8protobuf17FileDescriptorSetD0Ev(ptr noundef nonnull align 8 dereferenceable(48) %this) unnamed_addr #5 align 2 {
entry:
  %this.addr = alloca ptr, align 8
  store ptr %this, ptr %this.addr, align 8
  %this1 = load ptr, ptr %this.addr, align 8
  call void @_ZN6google8protobuf17FileDescriptorSetD1Ev(ptr noundef nonnull align 8 dereferenceable(48) %this1) #3
  call void @_ZdlPv(ptr noundef %this1) #18
  ret void
}

; Function Attrs: nobuiltin nounwind
declare void @_ZdlPv(ptr noundef) #7

; Function Attrs: mustprogress nounwind uwtable
define noundef ptr @_ZNK6google8protobuf17FileDescriptorSet12GetClassDataEv(ptr noundef nonnull align 8 dereferenceable(48) %this) unnamed_addr #5 align 2 {
entry:
  %this.addr = alloca ptr, align 8
  store ptr %this, ptr %this.addr, align 8
  ret ptr @_ZZNK6google8protobuf17FileDescriptorSet12GetClassDataEvE6_data_
}

; Function Attrs: mustprogress uwtable
define void @_ZN6google8protobuf17FileDescriptorSet9MergeImplERNS0_11MessageLiteERKS2_(ptr noundef nonnull align 8 dereferenceable(16) %to_msg, ptr noundef nonnull align 8 dereferenceable(16) %from_msg) #4 align 2 {
entry:
  %this.addr.i13 = alloca ptr, align 8
  %this.addr.i11 = alloca ptr, align 8
  %this.addr.i.i = alloca ptr, align 8
  %retval.i = alloca ptr, align 8
  %this.addr.i7 = alloca ptr, align 8
  %default_instance.addr.i = alloca ptr, align 8
  %this.addr.i4 = alloca ptr, align 8
  %this.addr.i = alloca ptr, align 8
  %other.addr.i = alloca ptr, align 8
  %to_msg.addr = alloca ptr, align 8
  %from_msg.addr = alloca ptr, align 8
  %_this = alloca ptr, align 8
  %from = alloca ptr, align 8
  %ref.tmp = alloca %"class.absl::lts_20230802::log_internal::NullStream", align 1
  %cached_has_bits = alloca i32, align 4
  store ptr %to_msg, ptr %to_msg.addr, align 8
  store ptr %from_msg, ptr %from_msg.addr, align 8
  %0 = load ptr, ptr %to_msg.addr, align 8
  store ptr %0, ptr %_this, align 8
  %1 = load ptr, ptr %from_msg.addr, align 8
  store ptr %1, ptr %from, align 8
  br label %while.cond

while.cond:                                       ; preds = %while.body, %entry
  br i1 false, label %while.body, label %while.end

while.body:                                       ; preds = %while.cond
  %call = call noundef nonnull align 1 dereferenceable(1) ptr @_ZN4absl12lts_2023080212log_internal10NullStream14InternalStreamEv(ptr noundef nonnull align 1 dereferenceable(1) %ref.tmp)
  br label %while.cond, !llvm.loop !4

while.end:                                        ; preds = %while.cond
  store i32 0, ptr %cached_has_bits, align 4
  %2 = load ptr, ptr %_this, align 8
  %call1 = call noundef ptr @_ZN6google8protobuf17FileDescriptorSet22_internal_mutable_fileEv(ptr noundef nonnull align 8 dereferenceable(48) %2)
  %3 = load ptr, ptr %from, align 8
  %call2 = call noundef nonnull align 8 dereferenceable(24) ptr @_ZNK6google8protobuf17FileDescriptorSet14_internal_fileEv(ptr noundef nonnull align 8 dereferenceable(48) %3)
  call void @_ZN6google8protobuf16RepeatedPtrFieldINS0_19FileDescriptorProtoEE9MergeFromERKS3_(ptr noundef nonnull align 8 dereferenceable(24) %call1, ptr noundef nonnull align 8 dereferenceable(24) %call2)
  %4 = load ptr, ptr %_this, align 8
  %_internal_metadata_ = getelementptr inbounds %"class.google::protobuf::MessageLite", ptr %4, i32 0, i32 1
  %5 = load ptr, ptr %from, align 8
  %_internal_metadata_3 = getelementptr inbounds %"class.google::protobuf::MessageLite", ptr %5, i32 0, i32 1
  store ptr %_internal_metadata_, ptr %this.addr.i, align 8
  store ptr %_internal_metadata_3, ptr %other.addr.i, align 8
  %this1.i = load ptr, ptr %this.addr.i, align 8
  %6 = load ptr, ptr %other.addr.i, align 8
  store ptr %6, ptr %this.addr.i4, align 8
  %this1.i5 = load ptr, ptr %this.addr.i4, align 8
  store ptr %this1.i5, ptr %this.addr.i13, align 8
  %this1.i14 = load ptr, ptr %this.addr.i13, align 8
  %7 = load i64, ptr %this1.i14, align 8
  %and.i15 = and i64 %7, 1
  %tobool.i16 = icmp ne i64 %and.i15, 0
  br i1 %tobool.i16, label %if.then.i, label %_ZN6google8protobuf8internal16InternalMetadata9MergeFromINS0_15UnknownFieldSetEEEvRKS2_.exit

if.then.i:                                        ; preds = %while.end
  %8 = load ptr, ptr %other.addr.i, align 8
  store ptr %8, ptr %this.addr.i7, align 8
  store ptr null, ptr %default_instance.addr.i, align 8
  %this1.i8 = load ptr, ptr %this.addr.i7, align 8
  store ptr %this1.i8, ptr %this.addr.i.i, align 8
  %this1.i.i = load ptr, ptr %this.addr.i.i, align 8
  store ptr %this1.i.i, ptr %this.addr.i11, align 8
  %this1.i12 = load ptr, ptr %this.addr.i11, align 8
  %9 = load i64, ptr %this1.i12, align 8
  %and.i = and i64 %9, 1
  %tobool.i = icmp ne i64 %and.i, 0
  br i1 %tobool.i, label %if.then.i9, label %if.else.i

if.then.i9:                                       ; preds = %if.then.i
  %call2.i10 = call noundef ptr @_ZNK6google8protobuf8internal16InternalMetadata8PtrValueINS2_9ContainerINS0_15UnknownFieldSetEEEEEPT_v(ptr noundef nonnull align 8 dereferenceable(8) %this1.i8)
  %unknown_fields.i = getelementptr inbounds %"struct.google::protobuf::internal::InternalMetadata::Container", ptr %call2.i10, i32 0, i32 1
  store ptr %unknown_fields.i, ptr %retval.i, align 8
  br label %_ZNK6google8protobuf8internal16InternalMetadata14unknown_fieldsINS0_15UnknownFieldSetEEERKT_PFS7_vE.exit

if.else.i:                                        ; preds = %if.then.i
  %10 = load ptr, ptr %default_instance.addr.i, align 8
  %call3.i = call noundef nonnull align 8 dereferenceable(24) ptr %10()
  store ptr %call3.i, ptr %retval.i, align 8
  br label %_ZNK6google8protobuf8internal16InternalMetadata14unknown_fieldsINS0_15UnknownFieldSetEEERKT_PFS7_vE.exit

_ZNK6google8protobuf8internal16InternalMetadata14unknown_fieldsINS0_15UnknownFieldSetEEERKT_PFS7_vE.exit: ; preds = %if.else.i, %if.then.i9
  %11 = load ptr, ptr %retval.i, align 8
  call void @_ZN6google8protobuf8internal16InternalMetadata11DoMergeFromINS0_15UnknownFieldSetEEEvRKT_(ptr noundef nonnull align 8 dereferenceable(8) %this1.i, ptr noundef nonnull align 8 dereferenceable(24) %11)
  br label %_ZN6google8protobuf8internal16InternalMetadata9MergeFromINS0_15UnknownFieldSetEEEvRKS2_.exit

_ZN6google8protobuf8internal16InternalMetadata9MergeFromINS0_15UnknownFieldSetEEEvRKS2_.exit: ; preds = %_ZNK6google8protobuf8internal16InternalMetadata14unknown_fieldsINS0_15UnknownFieldSetEEERKT_PFS7_vE.exit, %while.end
  ret void
}

; Function Attrs: mustprogress uwtable
define void @_ZN6google8protobuf17FileDescriptorSet5ClearEv(ptr noundef nonnull align 8 dereferenceable(48) %this) unnamed_addr #4 align 2 {
entry:
  %this.addr.i5 = alloca ptr, align 8
  %this.addr.i2 = alloca ptr, align 8
  %this.addr.i = alloca ptr, align 8
  %this.addr = alloca ptr, align 8
  %cached_has_bits = alloca i32, align 4
  store ptr %this, ptr %this.addr, align 8
  %this1 = load ptr, ptr %this.addr, align 8
  store i32 0, ptr %cached_has_bits, align 4
  %0 = getelementptr inbounds %"class.google::protobuf::FileDescriptorSet", ptr %this1, i32 0, i32 1
  %file_ = getelementptr inbounds %"struct.google::protobuf::FileDescriptorSet::Impl_", ptr %0, i32 0, i32 0
  call void @_ZN6google8protobuf16RepeatedPtrFieldINS0_19FileDescriptorProtoEE5ClearEv(ptr noundef nonnull align 8 dereferenceable(24) %file_)
  %_internal_metadata_ = getelementptr inbounds %"class.google::protobuf::MessageLite", ptr %this1, i32 0, i32 1
  store ptr %_internal_metadata_, ptr %this.addr.i, align 8
  %this1.i = load ptr, ptr %this.addr.i, align 8
  store ptr %this1.i, ptr %this.addr.i2, align 8
  %this1.i3 = load ptr, ptr %this.addr.i2, align 8
  store ptr %this1.i3, ptr %this.addr.i5, align 8
  %this1.i6 = load ptr, ptr %this.addr.i5, align 8
  %1 = load i64, ptr %this1.i6, align 8
  %and.i = and i64 %1, 1
  %tobool.i = icmp ne i64 %and.i, 0
  br i1 %tobool.i, label %if.then.i, label %_ZN6google8protobuf8internal16InternalMetadata5ClearINS0_15UnknownFieldSetEEEvv.exit

if.then.i:                                        ; preds = %entry
  call void @_ZN6google8protobuf8internal16InternalMetadata7DoClearINS0_15UnknownFieldSetEEEvv(ptr noundef nonnull align 8 dereferenceable(8) %this1.i)
  br label %_ZN6google8protobuf8internal16InternalMetadata5ClearINS0_15UnknownFieldSetEEEvv.exit

_ZN6google8protobuf8internal16InternalMetadata5ClearINS0_15UnknownFieldSetEEEvv.exit: ; preds = %if.then.i, %entry
  ret void
}

; Function Attrs: mustprogress uwtable
define linkonce_odr hidden void @_ZN6google8protobuf16RepeatedPtrFieldINS0_19FileDescriptorProtoEE5ClearEv(ptr noundef nonnull align 8 dereferenceable(24) %this) #4 comdat align 2 {
entry:
  %this.addr = alloca ptr, align 8
  store ptr %this, ptr %this.addr, align 8
  %this1 = load ptr, ptr %this.addr, align 8
  call void @_ZN6google8protobuf8internal20RepeatedPtrFieldBase5ClearINS1_18GenericTypeHandlerINS0_19FileDescriptorProtoEEEEEvv(ptr noundef nonnull align 8 dereferenceable(24) %this1)
  ret void
}

; Function Attrs: mustprogress uwtable
define noundef ptr @_ZN6google8protobuf17FileDescriptorSet14_InternalParseEPKcPNS0_8internal12ParseContextE(ptr noundef nonnull align 8 dereferenceable(48) %this, ptr noundef %ptr, ptr noundef %ctx) unnamed_addr #4 align 2 {
entry:
  %this.addr = alloca ptr, align 8
  %ptr.addr = alloca ptr, align 8
  %ctx.addr = alloca ptr, align 8
  store ptr %this, ptr %this.addr, align 8
  store ptr %ptr, ptr %ptr.addr, align 8
  store ptr %ctx, ptr %ctx.addr, align 8
  %this1 = load ptr, ptr %this.addr, align 8
  %0 = load ptr, ptr %ptr.addr, align 8
  %1 = load ptr, ptr %ctx.addr, align 8
  %call = call noundef ptr @_ZN6google8protobuf8internal8TcParser9ParseLoopEPNS0_11MessageLiteEPKcPNS1_12ParseContextEPKNS1_16TcParseTableBaseE(ptr noundef %this1, ptr noundef %0, ptr noundef %1, ptr noundef @_ZN6google8protobuf17FileDescriptorSet7_table_E)
  store ptr %call, ptr %ptr.addr, align 8
  %2 = load ptr, ptr %ptr.addr, align 8
  ret ptr %2
}

declare noundef ptr @_ZN6google8protobuf8internal8TcParser9ParseLoopEPNS0_11MessageLiteEPKcPNS1_12ParseContextEPKNS1_16TcParseTableBaseE(ptr noundef, ptr noundef, ptr noundef, ptr noundef) #1

declare noundef ptr @_ZN6google8protobuf8internal8TcParser15GenericFallbackEPNS0_11MessageLiteEPKcPNS1_12ParseContextENS1_11TcFieldDataEPKNS1_16TcParseTableBaseEm(ptr noundef, ptr noundef, ptr noundef, i64, ptr noundef, i64 noundef) #1

declare noundef ptr @_ZN6google8protobuf8internal8TcParser8FastMtR1EPNS0_11MessageLiteEPKcPNS1_12ParseContextENS1_11TcFieldDataEPKNS1_16TcParseTableBaseEm(ptr noundef, ptr noundef, ptr noundef, i64, ptr noundef, i64 noundef) #1

; Function Attrs: mustprogress uwtable
define noundef ptr @_ZNK6google8protobuf17FileDescriptorSet18_InternalSerializeEPhPNS0_2io19EpsCopyOutputStreamE(ptr noundef nonnull align 8 dereferenceable(48) %this, ptr noundef %target, ptr noundef %stream) unnamed_addr #4 align 2 {
entry:
  %this.addr.i14 = alloca ptr, align 8
  %this.addr.i12 = alloca ptr, align 8
  %this.addr.i.i = alloca ptr, align 8
  %retval.i = alloca ptr, align 8
  %this.addr.i10 = alloca ptr, align 8
  %default_instance.addr.i = alloca ptr, align 8
  %this.addr.i = alloca ptr, align 8
  %this.addr = alloca ptr, align 8
  %target.addr = alloca ptr, align 8
  %stream.addr = alloca ptr, align 8
  %cached_has_bits = alloca i32, align 4
  %i = alloca i32, align 4
  %n = alloca i32, align 4
  %repfield = alloca ptr, align 8
  store ptr %this, ptr %this.addr, align 8
  store ptr %target, ptr %target.addr, align 8
  store ptr %stream, ptr %stream.addr, align 8
  %this1 = load ptr, ptr %this.addr, align 8
  store i32 0, ptr %cached_has_bits, align 4
  store i32 0, ptr %i, align 4
  %call = call noundef i32 @_ZNK6google8protobuf17FileDescriptorSet19_internal_file_sizeEv(ptr noundef nonnull align 8 dereferenceable(48) %this1)
  store i32 %call, ptr %n, align 4
  br label %for.cond

for.cond:                                         ; preds = %for.inc, %entry
  %0 = load i32, ptr %i, align 4
  %1 = load i32, ptr %n, align 4
  %cmp = icmp ult i32 %0, %1
  br i1 %cmp, label %for.body, label %for.end

for.body:                                         ; preds = %for.cond
  %call2 = call noundef nonnull align 8 dereferenceable(24) ptr @_ZNK6google8protobuf17FileDescriptorSet14_internal_fileEv(ptr noundef nonnull align 8 dereferenceable(48) %this1)
  %2 = load i32, ptr %i, align 4
  %call3 = call noundef nonnull align 8 dereferenceable(224) ptr @_ZNK6google8protobuf16RepeatedPtrFieldINS0_19FileDescriptorProtoEE3GetEi(ptr noundef nonnull align 8 dereferenceable(24) %call2, i32 noundef %2)
  store ptr %call3, ptr %repfield, align 8
  %3 = load ptr, ptr %repfield, align 8
  %4 = load ptr, ptr %repfield, align 8
  %call4 = call noundef i32 @_ZNK6google8protobuf19FileDescriptorProto13GetCachedSizeEv(ptr noundef nonnull align 8 dereferenceable(224) %4)
  %5 = load ptr, ptr %target.addr, align 8
  %6 = load ptr, ptr %stream.addr, align 8
  %call5 = call noundef ptr @_ZN6google8protobuf8internal14WireFormatLite20InternalWriteMessageEiRKNS0_11MessageLiteEiPhPNS0_2io19EpsCopyOutputStreamE(i32 noundef 1, ptr noundef nonnull align 8 dereferenceable(16) %3, i32 noundef %call4, ptr noundef %5, ptr noundef %6)
  store ptr %call5, ptr %target.addr, align 8
  br label %for.inc

for.inc:                                          ; preds = %for.body
  %7 = load i32, ptr %i, align 4
  %inc = add i32 %7, 1
  store i32 %inc, ptr %i, align 4
  br label %for.cond, !llvm.loop !6

for.end:                                          ; preds = %for.cond
  %_internal_metadata_ = getelementptr inbounds %"class.google::protobuf::MessageLite", ptr %this1, i32 0, i32 1
  store ptr %_internal_metadata_, ptr %this.addr.i, align 8
  %this1.i = load ptr, ptr %this.addr.i, align 8
  store ptr %this1.i, ptr %this.addr.i14, align 8
  %this1.i15 = load ptr, ptr %this.addr.i14, align 8
  %8 = load i64, ptr %this1.i15, align 8
  %and.i16 = and i64 %8, 1
  %tobool.i17 = icmp ne i64 %and.i16, 0
  br i1 %tobool.i17, label %if.then, label %if.end

if.then:                                          ; preds = %for.end
  %_internal_metadata_7 = getelementptr inbounds %"class.google::protobuf::MessageLite", ptr %this1, i32 0, i32 1
  store ptr %_internal_metadata_7, ptr %this.addr.i10, align 8
  store ptr @_ZN6google8protobuf15UnknownFieldSet16default_instanceEv, ptr %default_instance.addr.i, align 8
  %this1.i11 = load ptr, ptr %this.addr.i10, align 8
  store ptr %this1.i11, ptr %this.addr.i.i, align 8
  %this1.i.i = load ptr, ptr %this.addr.i.i, align 8
  store ptr %this1.i.i, ptr %this.addr.i12, align 8
  %this1.i13 = load ptr, ptr %this.addr.i12, align 8
  %9 = load i64, ptr %this1.i13, align 8
  %and.i = and i64 %9, 1
  %tobool.i = icmp ne i64 %and.i, 0
  br i1 %tobool.i, label %if.then.i, label %if.else.i

if.then.i:                                        ; preds = %if.then
  %call2.i = call noundef ptr @_ZNK6google8protobuf8internal16InternalMetadata8PtrValueINS2_9ContainerINS0_15UnknownFieldSetEEEEEPT_v(ptr noundef nonnull align 8 dereferenceable(8) %this1.i11)
  %unknown_fields.i = getelementptr inbounds %"struct.google::protobuf::internal::InternalMetadata::Container", ptr %call2.i, i32 0, i32 1
  store ptr %unknown_fields.i, ptr %retval.i, align 8
  br label %_ZNK6google8protobuf8internal16InternalMetadata14unknown_fieldsINS0_15UnknownFieldSetEEERKT_PFS7_vE.exit

if.else.i:                                        ; preds = %if.then
  %10 = load ptr, ptr %default_instance.addr.i, align 8
  %call3.i = call noundef nonnull align 8 dereferenceable(24) ptr %10()
  store ptr %call3.i, ptr %retval.i, align 8
  br label %_ZNK6google8protobuf8internal16InternalMetadata14unknown_fieldsINS0_15UnknownFieldSetEEERKT_PFS7_vE.exit

_ZNK6google8protobuf8internal16InternalMetadata14unknown_fieldsINS0_15UnknownFieldSetEEERKT_PFS7_vE.exit: ; preds = %if.else.i, %if.then.i
  %11 = load ptr, ptr %retval.i, align 8
  %12 = load ptr, ptr %target.addr, align 8
  %13 = load ptr, ptr %stream.addr, align 8
