target datalayout = "e-m:e-p270:32:32-p271:32:32-p272:64:64-i64:64-i128:128-f80:128-n8:16:32:64-S128"
target triple = "x86_64-unknown-linux-gnu"

%"class.std::ios_base::Init" = type { i8 }
%"struct.std::nullopt_t" = type { i8 }
%"struct.std::piecewise_construct_t" = type { i8 }
%"struct.absl::lts_20230802::container_internal::PolicyFunctions" = type { i64, ptr, ptr, ptr }
%"struct.absl::lts_20230802::base_internal::SpinLockWaitTransition" = type { i32, i32, i8 }
%"struct.std::in_place_t" = type { i8 }
%"struct.std::in_place_index_t" = type { i8 }
%"struct.std::in_place_index_t.201" = type { i8 }
%"class.google::protobuf::compiler::java::ImmutablePrimitiveFieldLiteGenerator" = type { %"class.google::protobuf::compiler::java::ImmutableFieldLiteGenerator", ptr, %"class.absl::lts_20230802::flat_hash_map", i32, ptr, ptr }
%"class.google::protobuf::compiler::java::ImmutableFieldLiteGenerator" = type { ptr }
%"class.absl::lts_20230802::flat_hash_map" = type { %"class.absl::lts_20230802::container_internal::raw_hash_map" }
%"class.absl::lts_20230802::container_internal::raw_hash_map" = type { %"class.absl::lts_20230802::container_internal::raw_hash_set" }
%"class.absl::lts_20230802::container_internal::raw_hash_set" = type { %"class.absl::lts_20230802::container_internal::CompressedTuple" }
%"class.absl::lts_20230802::container_internal::CompressedTuple" = type { %"struct.absl::lts_20230802::container_internal::internal_compressed_tuple::CompressedTupleImpl" }
%"struct.absl::lts_20230802::container_internal::internal_compressed_tuple::CompressedTupleImpl" = type { %"struct.absl::lts_20230802::container_internal::internal_compressed_tuple::Storage" }
%"struct.absl::lts_20230802::container_internal::internal_compressed_tuple::Storage" = type { %"class.absl::lts_20230802::container_internal::CommonFields" }
%"class.absl::lts_20230802::container_internal::CommonFields" = type { ptr, ptr, i64, %"class.absl::lts_20230802::container_internal::CompressedTuple.0" }
%"class.absl::lts_20230802::container_internal::CompressedTuple.0" = type { %"struct.absl::lts_20230802::container_internal::internal_compressed_tuple::CompressedTupleImpl.1" }
%"struct.absl::lts_20230802::container_internal::internal_compressed_tuple::CompressedTupleImpl.1" = type { %"struct.absl::lts_20230802::container_internal::internal_compressed_tuple::Storage.2" }
%"struct.absl::lts_20230802::container_internal::internal_compressed_tuple::Storage.2" = type { i64 }
%"class.std::__cxx11::basic_string" = type { %"struct.std::__cxx11::basic_string<char>::_Alloc_hider", i64, %union.anon }
%"struct.std::__cxx11::basic_string<char>::_Alloc_hider" = type { ptr }
%union.anon = type { i64, [8 x i8] }
%"class.std::basic_string_view" = type { i64, ptr }
%"class.std::allocator.31" = type { i8 }
%"struct.std::pair.71" = type { %"class.std::basic_string_view", %"class.std::__cxx11::basic_string" }
%"struct.std::pair" = type <{ %"class.absl::lts_20230802::container_internal::raw_hash_set<absl::lts_20230802::container_internal::FlatHashMapPolicy<std::basic_string_view<char>, std::__cxx11::basic_string<char>>, absl::lts_20230802::container_internal::StringHash, absl::lts_20230802::container_internal::StringEq, std::allocator<std::pair<const std::basic_string_view<char>, std::__cxx11::basic_string<char>>>>::iterator", i8, [7 x i8] }>
%"class.absl::lts_20230802::container_internal::raw_hash_set<absl::lts_20230802::container_internal::FlatHashMapPolicy<std::basic_string_view<char>, std::__cxx11::basic_string<char>>, absl::lts_20230802::container_internal::StringHash, absl::lts_20230802::container_internal::StringEq, std::allocator<std::pair<const std::basic_string_view<char>, std::__cxx11::basic_string<char>>>>::iterator" = type { ptr, %union.anon.70 }
%union.anon.70 = type { ptr }
%"struct.google::protobuf::compiler::java::Options" = type <{ i8, i8, i8, i8, i8, i8, [2 x i8], %"class.std::__cxx11::basic_string", %"class.std::__cxx11::basic_string", i8, [7 x i8] }>
%"class.absl::lts_20230802::AlphaNum" = type { %"class.std::basic_string_view", [32 x i8] }
%"class.std::optional.64" = type { %"struct.std::_Optional_base.65" }
%"struct.std::_Optional_base.65" = type { %"struct.std::_Optional_payload.67" }
%"struct.std::_Optional_payload.67" = type { %"struct.std::_Optional_payload_base.base", [3 x i8] }
%"struct.std::_Optional_payload_base.base" = type <{ %"union.std::_Optional_payload_base<google::protobuf::io::AnnotationCollector::Semantic>::_Storage", i8 }>
%"union.std::_Optional_payload_base<google::protobuf::io::AnnotationCollector::Semantic>::_Storage" = type { i32 }
%"class.google::protobuf::compiler::java::Context" = type { %"class.std::unique_ptr", %"class.absl::lts_20230802::flat_hash_map.9", %"class.absl::lts_20230802::flat_hash_map.20", %"struct.google::protobuf::compiler::java::Options" }
%"class.std::unique_ptr" = type { %"struct.std::__uniq_ptr_data" }
%"struct.std::__uniq_ptr_data" = type { %"class.std::__uniq_ptr_impl" }
%"class.std::__uniq_ptr_impl" = type { %"class.std::tuple" }
%"class.std::tuple" = type { %"struct.std::_Tuple_impl" }
%"struct.std::_Tuple_impl" = type { %"struct.std::_Head_base.8" }
%"struct.std::_Head_base.8" = type { ptr }
%"class.absl::lts_20230802::flat_hash_map.9" = type { %"class.absl::lts_20230802::container_internal::raw_hash_map.10" }
%"class.absl::lts_20230802::container_internal::raw_hash_map.10" = type { %"class.absl::lts_20230802::container_internal::raw_hash_set.11" }
%"class.absl::lts_20230802::container_internal::raw_hash_set.11" = type { %"class.absl::lts_20230802::container_internal::CompressedTuple.12" }
%"class.absl::lts_20230802::container_internal::CompressedTuple.12" = type { %"struct.absl::lts_20230802::container_internal::internal_compressed_tuple::CompressedTupleImpl.13" }
%"struct.absl::lts_20230802::container_internal::internal_compressed_tuple::CompressedTupleImpl.13" = type { %"struct.absl::lts_20230802::container_internal::internal_compressed_tuple::Storage" }
%"class.absl::lts_20230802::flat_hash_map.20" = type { %"class.absl::lts_20230802::container_internal::raw_hash_map.21" }
%"class.absl::lts_20230802::container_internal::raw_hash_map.21" = type { %"class.absl::lts_20230802::container_internal::raw_hash_set.22" }
%"class.absl::lts_20230802::container_internal::raw_hash_set.22" = type { %"class.absl::lts_20230802::container_internal::CompressedTuple.23" }
%"class.absl::lts_20230802::container_internal::CompressedTuple.23" = type { %"struct.absl::lts_20230802::container_internal::internal_compressed_tuple::CompressedTupleImpl.24" }
%"struct.absl::lts_20230802::container_internal::internal_compressed_tuple::CompressedTupleImpl.24" = type { %"struct.absl::lts_20230802::container_internal::internal_compressed_tuple::Storage" }
%"struct.google::protobuf::io::Printer::PrintOptions" = type { %"class.std::optional.169", i8, i8, i8, i8, i8, i8, i8 }
%"class.std::optional.169" = type { %"struct.std::_Optional_base.170" }
%"struct.std::_Optional_base.170" = type { %"struct.std::_Optional_payload.172" }
%"struct.std::_Optional_payload.172" = type { %"struct.std::_Optional_payload_base.173" }
%"struct.std::_Optional_payload_base.173" = type { %"union.std::_Optional_payload_base<google::protobuf::io::Printer::SourceLocation>::_Storage", i8 }
%"union.std::_Optional_payload_base<google::protobuf::io::Printer::SourceLocation>::_Storage" = type { %"struct.std::_Optional_payload_base<google::protobuf::io::Printer::SourceLocation>::_Empty_byte" }
%"struct.std::_Optional_payload_base<google::protobuf::io::Printer::SourceLocation>::_Empty_byte" = type { i8 }
%"class.absl::lts_20230802::Cleanup" = type { %"class.absl::lts_20230802::cleanup_internal::Storage" }
%"class.absl::lts_20230802::cleanup_internal::Storage" = type { i8, [7 x i8], [8 x i8] }
%"class.absl::lts_20230802::Span" = type { ptr, i64 }
%"class.std::vector.203" = type { %"struct.std::_Vector_base.204" }
%"struct.std::_Vector_base.204" = type { %"struct.std::_Vector_base<int, std::allocator<int>>::_Vector_impl" }
%"struct.std::_Vector_base<int, std::allocator<int>>::_Vector_impl" = type { %"struct.std::_Vector_base<int, std::allocator<int>>::_Vector_impl_data" }
%"struct.std::_Vector_base<int, std::allocator<int>>::_Vector_impl_data" = type { ptr, ptr, ptr }
%"class.google::protobuf::io::Printer" = type { %"class.google::protobuf::io::zc_sink_internal::ZeroCopyStreamByteSink", %"struct.google::protobuf::io::Printer::Options", i64, i8, i8, i64, %"class.std::vector", %"class.std::vector.40", %"class.std::vector.45", %"class.absl::lts_20230802::flat_hash_map.50", %"class.std::vector.59" }
%"class.google::protobuf::io::zc_sink_internal::ZeroCopyStreamByteSink" = type <{ ptr, ptr, i64, i64, i8, [7 x i8] }>
%"struct.google::protobuf::io::Printer::Options" = type <{ i8, [7 x i8], ptr, %"class.std::basic_string_view", %"class.std::basic_string_view", i64, %"class.std::optional", [6 x i8] }>
%"class.std::optional" = type { %"struct.std::_Optional_base" }
%"struct.std::_Optional_base" = type { %"struct.std::_Optional_payload" }
%"struct.std::_Optional_payload" = type { %"struct.std::_Optional_payload_base" }
%"struct.std::_Optional_payload_base" = type { %"union.std::_Optional_payload_base<bool>::_Storage", i8 }
%"union.std::_Optional_payload_base<bool>::_Storage" = type { %"struct.std::_Optional_payload_base<bool>::_Empty_byte" }
%"struct.std::_Optional_payload_base<bool>::_Empty_byte" = type { i8 }
%"class.std::vector" = type { %"struct.std::_Vector_base" }
%"struct.std::_Vector_base" = type { %"struct.std::_Vector_base<unsigned long, std::allocator<unsigned long>>::_Vector_impl" }
%"struct.std::_Vector_base<unsigned long, std::allocator<unsigned long>>::_Vector_impl" = type { %"struct.std::_Vector_base<unsigned long, std::allocator<unsigned long>>::_Vector_impl_data" }
%"struct.std::_Vector_base<unsigned long, std::allocator<unsigned long>>::_Vector_impl_data" = type { ptr, ptr, ptr }
%"class.std::vector.40" = type { %"struct.std::_Vector_base.41" }
%"struct.std::_Vector_base.41" = type { %"struct.std::_Vector_base<std::function<std::optional<google::protobuf::io::Printer::ValueImpl<false>> (std::basic_string_view<char>)>, std::allocator<std::function<std::optional<google::protobuf::io::Printer::ValueImpl<false>> (std::basic_string_view<char>)>>>::_Vector_impl" }
%"struct.std::_Vector_base<std::function<std::optional<google::protobuf::io::Printer::ValueImpl<false>> (std::basic_string_view<char>)>, std::allocator<std::function<std::optional<google::protobuf::io::Printer::ValueImpl<false>> (std::basic_string_view<char>)>>>::_Vector_impl" = type { %"struct.std::_Vector_base<std::function<std::optional<google::protobuf::io::Printer::ValueImpl<false>> (std::basic_string_view<char>)>, std::allocator<std::function<std::optional<google::protobuf::io::Printer::ValueImpl<false>> (std::basic_string_view<char>)>>>::_Vector_impl_data" }
%"struct.std::_Vector_base<std::function<std::optional<google::protobuf::io::Printer::ValueImpl<false>> (std::basic_string_view<char>)>, std::allocator<std::function<std::optional<google::protobuf::io::Printer::ValueImpl<false>> (std::basic_string_view<char>)>>>::_Vector_impl_data" = type { ptr, ptr, ptr }
%"class.std::vector.45" = type { %"struct.std::_Vector_base.46" }
%"struct.std::_Vector_base.46" = type { %"struct.std::_Vector_base<std::function<std::optional<google::protobuf::io::Printer::AnnotationRecord> (std::basic_string_view<char>)>, std::allocator<std::function<std::optional<google::protobuf::io::Printer::AnnotationRecord> (std::basic_string_view<char>)>>>::_Vector_impl" }
%"struct.std::_Vector_base<std::function<std::optional<google::protobuf::io::Printer::AnnotationRecord> (std::basic_string_view<char>)>, std::allocator<std::function<std::optional<google::protobuf::io::Printer::AnnotationRecord> (std::basic_string_view<char>)>>>::_Vector_impl" = type { %"struct.std::_Vector_base<std::function<std::optional<google::protobuf::io::Printer::AnnotationRecord> (std::basic_string_view<char>)>, std::allocator<std::function<std::optional<google::protobuf::io::Printer::AnnotationRecord> (std::basic_string_view<char>)>>>::_Vector_impl_data" }
%"struct.std::_Vector_base<std::function<std::optional<google::protobuf::io::Printer::AnnotationRecord> (std::basic_string_view<char>)>, std::allocator<std::function<std::optional<google::protobuf::io::Printer::AnnotationRecord> (std::basic_string_view<char>)>>>::_Vector_impl_data" = type { ptr, ptr, ptr }
%"class.absl::lts_20230802::flat_hash_map.50" = type { %"class.absl::lts_20230802::container_internal::raw_hash_map.51" }
%"class.absl::lts_20230802::container_internal::raw_hash_map.51" = type { %"class.absl::lts_20230802::container_internal::raw_hash_set.52" }
%"class.absl::lts_20230802::container_internal::raw_hash_set.52" = type { %"class.absl::lts_20230802::container_internal::CompressedTuple.53" }
%"class.absl::lts_20230802::container_internal::CompressedTuple.53" = type { %"struct.absl::lts_20230802::container_internal::internal_compressed_tuple::CompressedTupleImpl.54" }
%"struct.absl::lts_20230802::container_internal::internal_compressed_tuple::CompressedTupleImpl.54" = type { %"struct.absl::lts_20230802::container_internal::internal_compressed_tuple::Storage" }
%"class.std::vector.59" = type { %"struct.std::_Vector_base.60" }
%"struct.std::_Vector_base.60" = type { %"struct.std::_Vector_base<std::__cxx11::basic_string<char>, std::allocator<std::__cxx11::basic_string<char>>>::_Vector_impl" }
%"struct.std::_Vector_base<std::__cxx11::basic_string<char>, std::allocator<std::__cxx11::basic_string<char>>>::_Vector_impl" = type { %"struct.std::_Vector_base<std::__cxx11::basic_string<char>, std::allocator<std::__cxx11::basic_string<char>>>::_Vector_impl_data" }
%"struct.std::_Vector_base<std::__cxx11::basic_string<char>, std::allocator<std::__cxx11::basic_string<char>>>::_Vector_impl_data" = type { ptr, ptr, ptr }
%"class.google::protobuf::FieldDescriptor" = type { %"class.google::protobuf::internal::SymbolBase", i8, i8, i8, i32, ptr, ptr, ptr, ptr, %union.anon.34, %union.anon.35, ptr, ptr, ptr, %union.anon.36 }
%"class.google::protobuf::internal::SymbolBase" = type { i8 }
%union.anon.34 = type { ptr }
%union.anon.35 = type { ptr }
%union.anon.36 = type { i64 }
%"struct.std::__cxx11::basic_string<char>::__sv_wrapper" = type { %"class.std::basic_string_view" }
%"class.google::protobuf::OneofDescriptor" = type { %"class.google::protobuf::internal::SymbolBase", i32, ptr, ptr, ptr, ptr, ptr, ptr }
%"class.google::protobuf::Descriptor" = type { %"class.google::protobuf::internal::SymbolBase", i8, i16, i32, ptr, ptr, ptr, ptr, ptr, ptr, ptr, ptr, ptr, ptr, ptr, ptr, ptr, ptr, i32, i32, i32, i32, i32, i32, i32, i32 }
%"class.google::protobuf::compiler::java::RepeatedImmutablePrimitiveFieldLiteGenerator" = type { %"class.google::protobuf::compiler::java::ImmutableFieldLiteGenerator", ptr, %"class.absl::lts_20230802::flat_hash_map", ptr, ptr }
%"struct.std::pair.75" = type { %"class.std::basic_string_view", %"class.std::__cxx11::basic_string" }
%"struct.std::pair.77" = type <{ i64, i8, [7 x i8] }>
%"class.std::tuple.80" = type { %"struct.std::_Tuple_impl.81" }
%"struct.std::_Tuple_impl.81" = type { %"struct.std::_Head_base.82" }
%"struct.std::_Head_base.82" = type { ptr }
%"class.std::tuple.83" = type { i8 }
%"class.absl::lts_20230802::container_internal::probe_seq" = type { i64, i64, i64 }
%"struct.absl::lts_20230802::container_internal::GroupSse2Impl" = type { <2 x i64> }
%"class.absl::lts_20230802::container_internal::BitMask" = type { %"class.absl::lts_20230802::container_internal::NonIterableBitMask" }
%"class.absl::lts_20230802::container_internal::NonIterableBitMask" = type { i32 }
%"struct.absl::lts_20230802::container_internal::raw_hash_set<absl::lts_20230802::container_internal::FlatHashMapPolicy<std::basic_string_view<char>, std::__cxx11::basic_string<char>>, absl::lts_20230802::container_internal::StringHash, absl::lts_20230802::container_internal::StringEq, std::allocator<std::pair<const std::basic_string_view<char>, std::__cxx11::basic_string<char>>>>::EqualElement" = type { ptr, ptr }
%"union.absl::lts_20230802::container_internal::map_slot_type" = type { %"struct.std::pair.75" }
%"struct.absl::lts_20230802::hash_internal::Hash" = type { i8 }
%"struct.absl::lts_20230802::container_internal::FindInfo" = type { i64, i64 }
%"class.absl::lts_20230802::hash_internal::MixingHashState" = type { i64 }
%"struct.std::pair.84" = type { i64, i64 }
%"struct.std::pair.86" = type { %"class.std::tuple.88", %"class.std::tuple.91" }
%"class.std::tuple.88" = type { %"struct.std::_Tuple_impl.89" }
%"struct.std::_Tuple_impl.89" = type { %"struct.std::_Head_base.90" }
%"struct.std::_Head_base.90" = type { ptr }
%"class.std::tuple.91" = type { %"struct.std::_Tuple_impl.92" }
%"struct.std::_Tuple_impl.92" = type { %"struct.std::_Head_base.93" }
%"struct.std::_Head_base.93" = type { ptr }
%"struct.absl::lts_20230802::container_internal::raw_hash_set<absl::lts_20230802::container_internal::FlatHashMapPolicy<std::basic_string_view<char>, std::__cxx11::basic_string<char>>, absl::lts_20230802::container_internal::StringHash, absl::lts_20230802::container_internal::StringEq, std::allocator<std::pair<const std::basic_string_view<char>, std::__cxx11::basic_string<char>>>>::HashElement" = type { ptr }
%"class.std::allocator.94" = type { i8 }
%"class.absl::lts_20230802::container_internal::HashtablezInfoHandle" = type { i8 }
%"class.std::tuple.98" = type { %"struct.std::_Tuple_impl.99" }
%"struct.std::_Tuple_impl.99" = type { %"struct.std::_Head_base.100" }
%"struct.std::_Head_base.100" = type { ptr }
%"struct.absl::lts_20230802::container_internal::raw_hash_set<absl::lts_20230802::container_internal::FlatHashMapPolicy<std::basic_string_view<char>, std::__cxx11::basic_string<char>>, absl::lts_20230802::container_internal::StringHash, absl::lts_20230802::container_internal::StringEq, std::allocator<std::pair<const std::basic_string_view<char>, std::__cxx11::basic_string<char>>>>::EqualElement.101" = type { ptr, ptr }
%"class.std::tuple.102" = type { %"struct.std::_Tuple_impl.103" }
%"struct.std::_Tuple_impl.103" = type { %"struct.std::_Head_base.104" }
%"struct.std::_Head_base.104" = type { ptr }
%"struct.absl::lts_20230802::container_internal::raw_hash_set<absl::lts_20230802::container_internal::FlatHashMapPolicy<std::basic_string_view<char>, std::__cxx11::basic_string<char>>, absl::lts_20230802::container_internal::StringHash, absl::lts_20230802::container_internal::StringEq, std::allocator<std::pair<const std::basic_string_view<char>, std::__cxx11::basic_string<char>>>>::EqualElement.105" = type { ptr, ptr }
%"struct.absl::lts_20230802::container_internal::raw_hash_set<absl::lts_20230802::container_internal::FlatHashMapPolicy<std::basic_string_view<char>, std::__cxx11::basic_string<char>>, absl::lts_20230802::container_internal::StringHash, absl::lts_20230802::container_internal::StringEq, std::allocator<std::pair<const std::basic_string_view<char>, std::__cxx11::basic_string<char>>>>::EmplaceDecomposable" = type { ptr }
%"struct.std::pair.106" = type { %"class.std::tuple.108", %"class.std::tuple.111" }
%"class.std::tuple.108" = type { %"struct.std::_Tuple_impl.109" }
%"struct.std::_Tuple_impl.109" = type { %"struct.std::_Head_base.110" }
%"struct.std::_Head_base.110" = type { ptr }
%"class.std::tuple.111" = type { %"struct.std::_Tuple_impl.112" }
%"struct.std::_Tuple_impl.112" = type { %"struct.std::_Head_base.113" }
%"struct.std::_Head_base.113" = type { ptr }
%"struct.absl::lts_20230802::container_internal::raw_hash_set<absl::lts_20230802::container_internal::FlatHashMapPolicy<std::basic_string_view<char>, std::__cxx11::basic_string<char>>, absl::lts_20230802::container_internal::StringHash, absl::lts_20230802::container_internal::StringEq, std::allocator<std::pair<const std::basic_string_view<char>, std::__cxx11::basic_string<char>>>>::EqualElement.114" = type { ptr, ptr }
%"class.std::tuple.115" = type { %"struct.std::_Tuple_impl.116" }
%"struct.std::_Tuple_impl.116" = type { %"struct.std::_Head_base.117" }
%"struct.std::_Head_base.117" = type { ptr }
%"struct.absl::lts_20230802::container_internal::raw_hash_set<absl::lts_20230802::container_internal::FlatHashMapPolicy<std::basic_string_view<char>, std::__cxx11::basic_string<char>>, absl::lts_20230802::container_internal::StringHash, absl::lts_20230802::container_internal::StringEq, std::allocator<std::pair<const std::basic_string_view<char>, std::__cxx11::basic_string<char>>>>::EqualElement.118" = type { ptr, ptr }
%"class.std::tuple.119" = type { %"struct.std::_Tuple_impl.120" }
%"struct.std::_Tuple_impl.120" = type { %"struct.std::_Head_base.121" }
%"struct.std::_Head_base.121" = type { ptr }
%"struct.absl::lts_20230802::container_internal::raw_hash_set<absl::lts_20230802::container_internal::FlatHashMapPolicy<std::basic_string_view<char>, std::__cxx11::basic_string<char>>, absl::lts_20230802::container_internal::StringHash, absl::lts_20230802::container_internal::StringEq, std::allocator<std::pair<const std::basic_string_view<char>, std::__cxx11::basic_string<char>>>>::EqualElement.122" = type { ptr, ptr }
%"class.std::tuple.123" = type { %"struct.std::_Tuple_impl.124" }
%"struct.std::_Tuple_impl.124" = type { %"struct.std::_Head_base.125" }
%"struct.std::_Head_base.125" = type { ptr }
%"struct.absl::lts_20230802::container_internal::raw_hash_set<absl::lts_20230802::container_internal::FlatHashMapPolicy<std::basic_string_view<char>, std::__cxx11::basic_string<char>>, absl::lts_20230802::container_internal::StringHash, absl::lts_20230802::container_internal::StringEq, std::allocator<std::pair<const std::basic_string_view<char>, std::__cxx11::basic_string<char>>>>::EqualElement.126" = type { ptr, ptr }
%"class.std::tuple.127" = type { %"struct.std::_Tuple_impl.128" }
%"struct.std::_Tuple_impl.128" = type { %"struct.std::_Head_base.129" }
%"struct.std::_Head_base.129" = type { ptr }
%"struct.absl::lts_20230802::container_internal::raw_hash_set<absl::lts_20230802::container_internal::FlatHashMapPolicy<std::basic_string_view<char>, std::__cxx11::basic_string<char>>, absl::lts_20230802::container_internal::StringHash, absl::lts_20230802::container_internal::StringEq, std::allocator<std::pair<const std::basic_string_view<char>, std::__cxx11::basic_string<char>>>>::EqualElement.130" = type { ptr, ptr }
%"class.std::tuple.131" = type { %"struct.std::_Tuple_impl.132" }
%"struct.std::_Tuple_impl.132" = type { %"struct.std::_Head_base.133" }
%"struct.std::_Head_base.133" = type { ptr }
%"struct.absl::lts_20230802::container_internal::raw_hash_set<absl::lts_20230802::container_internal::FlatHashMapPolicy<std::basic_string_view<char>, std::__cxx11::basic_string<char>>, absl::lts_20230802::container_internal::StringHash, absl::lts_20230802::container_internal::StringEq, std::allocator<std::pair<const std::basic_string_view<char>, std::__cxx11::basic_string<char>>>>::EqualElement.134" = type { ptr, ptr }
%"class.std::tuple.135" = type { %"struct.std::_Tuple_impl.136" }
%"struct.std::_Tuple_impl.136" = type { %"struct.std::_Head_base.137" }
%"struct.std::_Head_base.137" = type { ptr }
%"struct.absl::lts_20230802::container_internal::raw_hash_set<absl::lts_20230802::container_internal::FlatHashMapPolicy<std::basic_string_view<char>, std::__cxx11::basic_string<char>>, absl::lts_20230802::container_internal::StringHash, absl::lts_20230802::container_internal::StringEq, std::allocator<std::pair<const std::basic_string_view<char>, std::__cxx11::basic_string<char>>>>::EqualElement.138" = type { ptr, ptr }
%"class.std::tuple.139" = type { %"struct.std::_Tuple_impl.140" }
%"struct.std::_Tuple_impl.140" = type { %"struct.std::_Head_base.141" }
%"struct.std::_Head_base.141" = type { ptr }
%"struct.absl::lts_20230802::container_internal::raw_hash_set<absl::lts_20230802::container_internal::FlatHashMapPolicy<std::basic_string_view<char>, std::__cxx11::basic_string<char>>, absl::lts_20230802::container_internal::StringHash, absl::lts_20230802::container_internal::StringEq, std::allocator<std::pair<const std::basic_string_view<char>, std::__cxx11::basic_string<char>>>>::EqualElement.142" = type { ptr, ptr }
%"class.google::protobuf::FieldOptions" = type { %"class.google::protobuf::Message", %union.anon.73 }
%"class.google::protobuf::Message" = type { %"class.google::protobuf::MessageLite" }
%"class.google::protobuf::MessageLite" = type { ptr, %"class.google::protobuf::internal::InternalMetadata" }
%"class.google::protobuf::internal::InternalMetadata" = type { i64 }
%union.anon.73 = type { %"struct.google::protobuf::FieldOptions::Impl_" }
%"struct.google::protobuf::FieldOptions::Impl_" = type <{ %"class.google::protobuf::internal::ExtensionSet", %"class.google::protobuf::internal::HasBits", %"class.google::protobuf::internal::CachedSize", %"class.google::protobuf::RepeatedField", %"class.google::protobuf::RepeatedPtrField", %"class.google::protobuf::RepeatedPtrField.74", ptr, i32, i32, i8, i8, i8, i8, i8, i8, [2 x i8], i32, [4 x i8] }>
%"class.google::protobuf::internal::ExtensionSet" = type { ptr, i16, i16, %"union.google::protobuf::internal::ExtensionSet::AllocatedData" }
%"union.google::protobuf::internal::ExtensionSet::AllocatedData" = type { ptr }
%"class.google::protobuf::internal::HasBits" = type { [1 x i32] }
%"class.google::protobuf::internal::CachedSize" = type { i32 }
%"class.google::protobuf::RepeatedField" = type { i32, i32, ptr }
%"class.google::protobuf::RepeatedPtrField" = type { %"class.google::protobuf::internal::RepeatedPtrFieldBase" }
%"class.google::protobuf::internal::RepeatedPtrFieldBase" = type { ptr, i32, i32, ptr }
%"class.google::protobuf::RepeatedPtrField.74" = type { %"class.google::protobuf::internal::RepeatedPtrFieldBase" }
%"class.std::tuple.143" = type { %"struct.std::_Tuple_impl.144" }
%"struct.std::_Tuple_impl.144" = type { %"struct.std::_Head_base.145" }
%"struct.std::_Head_base.145" = type { ptr }
%"struct.absl::lts_20230802::container_internal::raw_hash_set<absl::lts_20230802::container_internal::FlatHashMapPolicy<std::basic_string_view<char>, std::__cxx11::basic_string<char>>, absl::lts_20230802::container_internal::StringHash, absl::lts_20230802::container_internal::StringEq, std::allocator<std::pair<const std::basic_string_view<char>, std::__cxx11::basic_string<char>>>>::EqualElement.146" = type { ptr, ptr }
%struct._Guard = type { ptr }
%"class.std::tuple.147" = type { %"struct.std::_Tuple_impl.148" }
%"struct.std::_Tuple_impl.148" = type { %"struct.std::_Head_base.149" }
%"struct.std::_Head_base.149" = type { ptr }
%"struct.absl::lts_20230802::container_internal::raw_hash_set<absl::lts_20230802::container_internal::FlatHashMapPolicy<std::basic_string_view<char>, std::__cxx11::basic_string<char>>, absl::lts_20230802::container_internal::StringHash, absl::lts_20230802::container_internal::StringEq, std::allocator<std::pair<const std::basic_string_view<char>, std::__cxx11::basic_string<char>>>>::EqualElement.150" = type { ptr, ptr }
%"class.std::tuple.151" = type { %"struct.std::_Tuple_impl.152" }
%"struct.std::_Tuple_impl.152" = type { %"struct.std::_Head_base.153" }
%"struct.std::_Head_base.153" = type { ptr }
%"struct.absl::lts_20230802::container_internal::raw_hash_set<absl::lts_20230802::container_internal::FlatHashMapPolicy<std::basic_string_view<char>, std::__cxx11::basic_string<char>>, absl::lts_20230802::container_internal::StringHash, absl::lts_20230802::container_internal::StringEq, std::allocator<std::pair<const std::basic_string_view<char>, std::__cxx11::basic_string<char>>>>::EqualElement.154" = type { ptr, ptr }
%"class.std::tuple.155" = type { %"struct.std::_Tuple_impl.156" }
%"struct.std::_Tuple_impl.156" = type { %"struct.std::_Head_base.157" }
%"struct.std::_Head_base.157" = type { ptr }
%"struct.absl::lts_20230802::container_internal::raw_hash_set<absl::lts_20230802::container_internal::FlatHashMapPolicy<std::basic_string_view<char>, std::__cxx11::basic_string<char>>, absl::lts_20230802::container_internal::StringHash, absl::lts_20230802::container_internal::StringEq, std::allocator<std::pair<const std::basic_string_view<char>, std::__cxx11::basic_string<char>>>>::EqualElement.158" = type { ptr, ptr }
%"class.std::tuple.159" = type { %"struct.std::_Tuple_impl.160" }
%"struct.std::_Tuple_impl.160" = type { %"struct.std::_Head_base.161" }
%"struct.std::_Head_base.161" = type { ptr }
%"struct.absl::lts_20230802::container_internal::raw_hash_set<absl::lts_20230802::container_internal::FlatHashMapPolicy<std::basic_string_view<char>, std::__cxx11::basic_string<char>>, absl::lts_20230802::container_internal::StringHash, absl::lts_20230802::container_internal::StringEq, std::allocator<std::pair<const std::basic_string_view<char>, std::__cxx11::basic_string<char>>>>::EqualElement.162" = type { ptr, ptr }
%"class.absl::lts_20230802::once_flag" = type { %"struct.std::atomic.163" }
%"struct.std::atomic.163" = type { %"struct.std::__atomic_base.164" }
%"struct.std::__atomic_base.164" = type { i32 }
%"class.absl::lts_20230802::base_internal::SchedulingHelper" = type <{ i32, i8, [3 x i8] }>
%"class.std::tuple.165" = type { %"struct.std::_Tuple_impl.166" }
%"struct.std::_Tuple_impl.166" = type { %"struct.std::_Head_base.167" }
%"struct.std::_Head_base.167" = type { ptr }
%"struct.absl::lts_20230802::container_internal::raw_hash_set<absl::lts_20230802::container_internal::FlatHashMapPolicy<std::basic_string_view<char>, std::__cxx11::basic_string<char>>, absl::lts_20230802::container_internal::StringHash, absl::lts_20230802::container_internal::StringEq, std::allocator<std::pair<const std::basic_string_view<char>, std::__cxx11::basic_string<char>>>>::EqualElement.168" = type { ptr, ptr }
%"struct.std::_Optional_payload_base.68" = type <{ %"union.std::_Optional_payload_base<google::protobuf::io::AnnotationCollector::Semantic>::_Storage", i8, [3 x i8] }>
%"struct.absl::lts_20230802::container_internal::StringHash" = type { i8 }
%"struct.absl::lts_20230802::container_internal::StringEq" = type { i8 }
%"class.std::allocator" = type { i8 }
%class.anon = type { ptr }
%class.anon.175 = type { ptr }
%"class.__gnu_cxx::__normal_iterator" = type { ptr }
%"class.std::function" = type { %"class.std::_Function_base", ptr }
%"class.std::_Function_base" = type { %"union.std::_Any_data", ptr }
%"union.std::_Any_data" = type { %"union.std::_Nocopy_types" }
%"union.std::_Nocopy_types" = type { { i64, i64 } }
%"class.std::optional.176" = type { %"struct.std::_Optional_base.177" }
%"struct.std::_Optional_base.177" = type { %"struct.std::_Optional_payload.179" }
%"struct.std::_Optional_payload.179" = type { %"struct.std::_Optional_payload.base.187", [7 x i8] }
%"struct.std::_Optional_payload.base.187" = type { %"struct.std::_Optional_payload_base.base.186" }
%"struct.std::_Optional_payload_base.base.186" = type { %"union.std::_Optional_payload_base<google::protobuf::io::Printer::ValueImpl<false>>::_Storage", i8 }
%"union.std::_Optional_payload_base<google::protobuf::io::Printer::ValueImpl<false>>::_Storage" = type { %"struct.google::protobuf::io::Printer::ValueImpl" }
%"struct.google::protobuf::io::Printer::ValueImpl" = type <{ %"class.std::variant", %"class.std::__cxx11::basic_string", i8, [7 x i8] }>
%"class.std::variant" = type { %"struct.std::__detail::__variant::_Variant_base.base", [7 x i8] }
%"struct.std::__detail::__variant::_Variant_base.base" = type { %"struct.std::__detail::__variant::_Move_assign_base.base" }
%"struct.std::__detail::__variant::_Move_assign_base.base" = type { %"struct.std::__detail::__variant::_Copy_assign_base.base" }
%"struct.std::__detail::__variant::_Copy_assign_base.base" = type { %"struct.std::__detail::__variant::_Move_ctor_base.base" }
%"struct.std::__detail::__variant::_Move_ctor_base.base" = type { %"struct.std::__detail::__variant::_Copy_ctor_base.base" }
%"struct.std::__detail::__variant::_Copy_ctor_base.base" = type { %"struct.std::__detail::__variant::_Variant_storage.base" }
%"struct.std::__detail::__variant::_Variant_storage.base" = type <{ %"union.std::__detail::__variant::_Variadic_union", i8 }>
%"union.std::__detail::__variant::_Variadic_union" = type { %"struct.std::__detail::__variant::_Uninitialized", [16 x i8] }
%"struct.std::__detail::__variant::_Uninitialized" = type { %"class.std::basic_string_view" }
%"class.absl::lts_20230802::container_internal::raw_hash_set<absl::lts_20230802::container_internal::FlatHashMapPolicy<std::basic_string_view<char>, std::__cxx11::basic_string<char>>, absl::lts_20230802::container_internal::StringHash, absl::lts_20230802::container_internal::StringEq, std::allocator<std::pair<const std::basic_string_view<char>, std::__cxx11::basic_string<char>>>>::const_iterator" = type { %"class.absl::lts_20230802::container_internal::raw_hash_set<absl::lts_20230802::container_internal::FlatHashMapPolicy<std::basic_string_view<char>, std::__cxx11::basic_string<char>>, absl::lts_20230802::container_internal::StringHash, absl::lts_20230802::container_internal::StringEq, std::allocator<std::pair<const std::basic_string_view<char>, std::__cxx11::basic_string<char>>>>::iterator" }
%"struct.std::_Optional_payload_base.181" = type { %"union.std::_Optional_payload_base<google::protobuf::io::Printer::ValueImpl<false>>::_Storage", i8, [7 x i8] }
%"struct.std::__detail::__variant::_Variant_storage" = type <{ %"union.std::__detail::__variant::_Variadic_union", i8, [7 x i8] }>
%class.anon.191 = type { i8 }
%class.anon.192 = type { i8 }
%"struct.std::__detail::__variant::_Uninitialized.183" = type { %"struct.__gnu_cxx::__aligned_membuf" }
%"struct.__gnu_cxx::__aligned_membuf" = type { [32 x i8] }
%class.anon.196 = type { ptr }
%class.anon.197 = type { i8 }
%"struct.std::integral_constant.199" = type { i8 }
%"struct.std::integral_constant.200" = type { i8 }
%"struct.std::__detail::__variant::__variant_cookie" = type { i8 }
%"struct.std::integral_constant.202" = type { i8 }
%"class.std::function.194" = type { %"class.std::_Function_base", ptr }
%"class.google::protobuf::FileDescriptor" = type { %"class.google::protobuf::internal::SymbolBase", i8, i8, i32, ptr, ptr, ptr, i32, ptr, i32, i32, i32, i32, i32, i32, ptr, ptr, ptr, ptr, ptr, ptr, ptr, ptr, ptr, ptr, ptr, ptr }

$_ZN6google8protobuf8compiler4java27ImmutableFieldLiteGeneratorC2Ev = comdat any

$_ZN4absl12lts_2023080213flat_hash_mapISt17basic_string_viewIcSt11char_traitsIcEENSt7__cxx1112basic_stringIcS4_SaIcEEENS0_18container_internal10StringHashENSA_8StringEqESaISt4pairIKS5_S9_EEEC2Ev = comdat any

$_ZN4absl12lts_2023080213flat_hash_mapISt17basic_string_viewIcSt11char_traitsIcEENSt7__cxx1112basic_stringIcS4_SaIcEEENS0_18container_internal10StringHashENSA_8StringEqESaISt4pairIKS5_S9_EEED2Ev = comdat any

$_ZN6google8protobuf8compiler4java9HasHasbitEPKNS0_15FieldDescriptorE = comdat any

$_ZNK6google8protobuf8compiler4java7Context7optionsEv = comdat any

$_ZN6google8protobuf8compiler4java7OptionsC2ERKS3_ = comdat any

$_ZN6google8protobuf8compiler4java7OptionsD2Ev = comdat any

$_ZN6google8protobuf2io7Printer5PrintIN4absl12lts_2023080213flat_hash_mapISt17basic_string_viewIcSt11char_traitsIcEENSt7__cxx1112basic_stringIcS9_SaIcEEENS5_18container_internal10StringHashENSF_8StringEqESaISt4pairIKSA_SE_EEEEEEvRKT_SA_ = comdat any

$_ZNSt17basic_string_viewIcSt11char_traitsIcEEC2EPKc = comdat any

$_ZN6google8protobuf2io7Printer8AnnotateINS0_15FieldDescriptorEEEvSt17basic_string_viewIcSt11char_traitsIcEES8_PKT_St8optionalINS1_19AnnotationCollector8SemanticEE = comdat any

$_ZNSt8optionalIN6google8protobuf2io19AnnotationCollector8SemanticEEC2ESt9nullopt_t = comdat any

$_ZNSt8optionalIN6google8protobuf2io19AnnotationCollector8SemanticEEC2IS4_TnNSt9enable_ifIX7__and_vISt6__not_ISt7is_sameIS5_NSt9remove_cvINSt16remove_referenceIT_E4typeEE4typeEEES8_IS9_ISt10in_place_tSG_EESt16is_constructibleIS4_JSC_EESt14is_convertibleISC_S4_EEEbE4typeELb1EEEOSC_ = comdat any

$_ZN6google8protobuf8compiler4java27WriteIntToUtf16CharSequenceEiPSt6vectorItSaItEE = comdat any

$_ZNK6google8protobuf15FieldDescriptor6numberEv = comdat any

$_ZNSt7__cxx1112basic_stringIcSt11char_traitsIcESaIcEEC2ISt17basic_string_viewIcS2_EvEERKT_RKS3_ = comdat any

$_ZNK6google8protobuf15FieldDescriptor16containing_oneofEv = comdat any

$_ZNK6google8protobuf15OneofDescriptor5indexEv = comdat any

$_ZNK6google8protobuf15FieldDescriptor15containing_typeEv = comdat any

$_ZN4absl12lts_2023080218container_internal12raw_hash_mapINS1_17FlatHashMapPolicyISt17basic_string_viewIcSt11char_traitsIcEENSt7__cxx1112basic_stringIcS6_SaIcEEEEENS1_10StringHashENS1_8StringEqESaISt4pairIKS7_SB_EEEixIA5_cSC_EEDTclsrT0_5valueclL_ZSt9addressofISH_EPT_RSO_EclL_ZSt7declvalIRSH_EDTcl9__declvalISO_ELi0EEEvEEEEERKSO_ = comdat any

$_ZN4absl12lts_2023080218container_internal12raw_hash_mapINS1_17FlatHashMapPolicyISt17basic_string_viewIcSt11char_traitsIcEENSt7__cxx1112basic_stringIcS6_SaIcEEEEENS1_10StringHashENS1_8StringEqESaISt4pairIKS7_SB_EEEixIA11_cSC_EEDTclsrT0_5valueclL_ZSt9addressofISH_EPT_RSO_EclL_ZSt7declvalIRSH_EDTcl9__declvalISO_ELi0EEEvEEEEERKSO_ = comdat any

$_ZN4absl12lts_2023080218container_internal12raw_hash_mapINS1_17FlatHashMapPolicyISt17basic_string_viewIcSt11char_traitsIcEENSt7__cxx1112basic_stringIcS6_SaIcEEEEENS1_10StringHashENS1_8StringEqESaISt4pairIKS7_SB_EEEixIA8_cSC_EEDTclsrT0_5valueclL_ZSt9addressofISH_EPT_RSO_EclL_ZSt7declvalIRSH_EDTcl9__declvalISO_ELi0EEEvEEEEERKSO_ = comdat any

$_ZN4absl12lts_2023080218container_internal12raw_hash_setINS1_17FlatHashMapPolicyISt17basic_string_viewIcSt11char_traitsIcEENSt7__cxx1112basic_stringIcS6_SaIcEEEEENS1_10StringHashENS1_8StringEqESaISt4pairIKS7_SB_EEE6insertEOSF_IS7_SB_E = comdat any

$_ZNSt4pairISt17basic_string_viewIcSt11char_traitsIcEENSt7__cxx1112basic_stringIcS2_SaIcEEEEC2IRA11_KcRS7_TnNSt9enable_ifIXaaclsr5_PCCPE22_MoveConstructiblePairIT_T0_EEclsr5_PCCPE30_ImplicitlyMoveConvertiblePairISF_SG_EEEbE4typeELb1EEEOSF_OSG_ = comdat any

$_ZNSt4pairISt17basic_string_viewIcSt11char_traitsIcEENSt7__cxx1112basic_stringIcS2_SaIcEEEED2Ev = comdat any

$_ZN6google8protobuf8compiler4java21ImmutableDefaultValueB5cxx11EPKNS0_15FieldDescriptorEPNS2_17ClassNameResolverENS2_7OptionsE = comdat any

$_ZN4absl12lts_2023080218container_internal12raw_hash_mapINS1_17FlatHashMapPolicyISt17basic_string_viewIcSt11char_traitsIcEENSt7__cxx1112basic_stringIcS6_SaIcEEEEENS1_10StringHashENS1_8StringEqESaISt4pairIKS7_SB_EEEixIA17_cSC_EEDTclsrT0_5valueclL_ZSt9addressofISH_EPT_RSO_EclL_ZSt7declvalIRSH_EDTcl9__declvalISO_ELi0EEEvEEEEERKSO_ = comdat any

$_ZN4absl12lts_202308026StrCatB5cxx11ERKNS0_8AlphaNumE = comdat any

$_ZN6google8protobuf8internal10WireFormat7MakeTagEPKNS0_15FieldDescriptorE = comdat any

$_ZN4absl12lts_202308028AlphaNumC2Ei = comdat any

$_ZN4absl12lts_2023080218container_internal12raw_hash_mapINS1_17FlatHashMapPolicyISt17basic_string_viewIcSt11char_traitsIcEENSt7__cxx1112basic_stringIcS6_SaIcEEEEENS1_10StringHashENS1_8StringEqESaISt4pairIKS7_SB_EEEixIA4_cSC_EEDTclsrT0_5valueclL_ZSt9addressofISH_EPT_RSO_EclL_ZSt7declvalIRSH_EDTcl9__declvalISO_ELi0EEEvEEEEERKSO_ = comdat any

$_ZN6google8protobuf8internal10WireFormat7TagSizeEiNS1_19FieldDescriptorLite4TypeE = comdat any

$_ZN4absl12lts_202308028AlphaNumC2Em = comdat any

$_ZN4absl12lts_2023080218container_internal12raw_hash_mapINS1_17FlatHashMapPolicyISt17basic_string_viewIcSt11char_traitsIcEENSt7__cxx1112basic_stringIcS6_SaIcEEEEENS1_10StringHashENS1_8StringEqESaISt4pairIKS7_SB_EEEixIA9_cSC_EEDTclsrT0_5valueclL_ZSt9addressofISH_EPT_RSO_EclL_ZSt7declvalIRSH_EDTcl9__declvalISO_ELi0EEEvEEEEERKSO_ = comdat any

$_ZN4absl12lts_202308028AlphaNumC2EPKc = comdat any

$_ZN4absl12lts_202308028AlphaNumC2ISaIcEEERKNSt7__cxx1112basic_stringIcSt11char_traitsIcET_EE = comdat any

$_ZN4absl12lts_2023080218container_internal12raw_hash_mapINS1_17FlatHashMapPolicyISt17basic_string_viewIcSt11char_traitsIcEENSt7__cxx1112basic_stringIcS6_SaIcEEEEENS1_10StringHashENS1_8StringEqESaISt4pairIKS7_SB_EEEixIA16_cSC_EEDTclsrT0_5valueclL_ZSt9addressofISH_EPT_RSO_EclL_ZSt7declvalIRSH_EDTcl9__declvalISO_ELi0EEEvEEEEERKSO_ = comdat any

$_ZN4absl12lts_2023080218container_internal12raw_hash_mapINS1_17FlatHashMapPolicyISt17basic_string_viewIcSt11char_traitsIcEENSt7__cxx1112basic_stringIcS6_SaIcEEEEENS1_10StringHashENS1_8StringEqESaISt4pairIKS7_SB_EEEixIA23_cSC_EEDTclsrT0_5valueclL_ZSt9addressofISH_EPT_RSO_EclL_ZSt7declvalIRSH_EDTcl9__declvalISO_ELi0EEEvEEEEERKSO_ = comdat any

$_ZN4absl12lts_2023080218container_internal12raw_hash_mapINS1_17FlatHashMapPolicyISt17basic_string_viewIcSt11char_traitsIcEENSt7__cxx1112basic_stringIcS6_SaIcEEEEENS1_10StringHashENS1_8StringEqESaISt4pairIKS7_SB_EEEixIA13_cSC_EEDTclsrT0_5valueclL_ZSt9addressofISH_EPT_RSO_EclL_ZSt7declvalIRSH_EDTcl9__declvalISO_ELi0EEEvEEEEERKSO_ = comdat any

$_ZNSt4pairISt17basic_string_viewIcSt11char_traitsIcEENSt7__cxx1112basic_stringIcS2_SaIcEEEEC2IRA16_KcS7_TnNSt9enable_ifIXaaclsr5_PCCPE22_MoveConstructiblePairIT_T0_EEclsr5_PCCPE30_ImplicitlyMoveConvertiblePairISE_SF_EEEbE4typeELb1EEEOSE_OSF_ = comdat any

$_ZN4absl12lts_2023080215AsciiStrToUpperB5cxx11ESt17basic_string_viewIcSt11char_traitsIcEE = comdat any

$_ZN4absl12lts_2023080218container_internal12raw_hash_mapINS1_17FlatHashMapPolicyISt17basic_string_viewIcSt11char_traitsIcEENSt7__cxx1112basic_stringIcS6_SaIcEEEEENS1_10StringHashENS1_8StringEqESaISt4pairIKS7_SB_EEEixIA14_cSC_EEDTclsrT0_5valueclL_ZSt9addressofISH_EPT_RSO_EclL_ZSt7declvalIRSH_EDTcl9__declvalISO_ELi0EEEvEEEEERKSO_ = comdat any

$_ZNK6google8protobuf15FieldDescriptor7optionsEv = comdat any

$_ZNK6google8protobuf12FieldOptions10deprecatedEv = comdat any

$_ZN4absl12lts_2023080218container_internal12raw_hash_mapINS1_17FlatHashMapPolicyISt17basic_string_viewIcSt11char_traitsIcEENSt7__cxx1112basic_stringIcS6_SaIcEEEEENS1_10StringHashENS1_8StringEqESaISt4pairIKS7_SB_EEEixIA12_cSC_EEDTclsrT0_5valueclL_ZSt9addressofISH_EPT_RSO_EclL_ZSt7declvalIRSH_EDTcl9__declvalISO_ELi0EEEvEEEEERKSO_ = comdat any

$_ZNSt7__cxx1112basic_stringIcSt11char_traitsIcESaIcEEC2IS3_EEPKcRKS3_ = comdat any

$_ZN4absl12lts_2023080218container_internal12raw_hash_mapINS1_17FlatHashMapPolicyISt17basic_string_viewIcSt11char_traitsIcEENSt7__cxx1112basic_stringIcS6_SaIcEEEEENS1_10StringHashENS1_8StringEqESaISt4pairIKS7_SB_EEEixIA15_cSC_EEDTclsrT0_5valueclL_ZSt9addressofISH_EPT_RSO_EclL_ZSt7declvalIRSH_EDTcl9__declvalISO_ELi0EEEvEEEEERKSO_ = comdat any

$_ZN4absl12lts_2023080218container_internal12raw_hash_mapINS1_17FlatHashMapPolicyISt17basic_string_viewIcSt11char_traitsIcEENSt7__cxx1112basic_stringIcS6_SaIcEEEEENS1_10StringHashENS1_8StringEqESaISt4pairIKS7_SB_EEEixIA26_cSC_EEDTclsrT0_5valueclL_ZSt9addressofISH_EPT_RSO_EclL_ZSt7declvalIRSH_EDTcl9__declvalISO_ELi0EEEvEEEEERKSO_ = comdat any

$_ZN4absl12lts_2023080218container_internal12raw_hash_mapINS1_17FlatHashMapPolicyISt17basic_string_viewIcSt11char_traitsIcEENSt7__cxx1112basic_stringIcS6_SaIcEEEEENS1_10StringHashENS1_8StringEqESaISt4pairIKS7_SB_EEEixIA28_cSC_EEDTclsrT0_5valueclL_ZSt9addressofISH_EPT_RSO_EclL_ZSt7declvalIRSH_EDTcl9__declvalISO_ELi0EEEvEEEEERKSO_ = comdat any

$_ZN4absl12lts_2023080218container_internal12raw_hash_mapINS1_17FlatHashMapPolicyISt17basic_string_viewIcSt11char_traitsIcEENSt7__cxx1112basic_stringIcS6_SaIcEEEEENS1_10StringHashENS1_8StringEqESaISt4pairIKS7_SB_EEEixIA25_cSC_EEDTclsrT0_5valueclL_ZSt9addressofISH_EPT_RSO_EclL_ZSt7declvalIRSH_EDTcl9__declvalISO_ELi0EEEvEEEEERKSO_ = comdat any

$_ZNK6google8protobuf15FieldDescriptor4typeEv = comdat any

$_ZNSt4pairISt17basic_string_viewIcSt11char_traitsIcEENSt7__cxx1112basic_stringIcS2_SaIcEEEEC2IRA25_KcS7_TnNSt9enable_ifIXaaclsr5_PCCPE22_MoveConstructiblePairIT_T0_EEclsr5_PCCPE30_ImplicitlyMoveConvertiblePairISE_SF_EEEbE4typeELb1EEEOSE_OSF_ = comdat any

$_ZN4absl12lts_2023080218container_internal12raw_hash_mapINS1_17FlatHashMapPolicyISt17basic_string_viewIcSt11char_traitsIcEENSt7__cxx1112basic_stringIcS6_SaIcEEEEENS1_10StringHashENS1_8StringEqESaISt4pairIKS7_SB_EEEixIA2_cSC_EEDTclsrT0_5valueclL_ZSt9addressofISH_EPT_RSO_EclL_ZSt7declvalIRSH_EDTcl9__declvalISO_ELi0EEEvEEEEERKSO_ = comdat any

$_ZN4absl12lts_2023080218container_internal17FlatHashMapPolicyISt17basic_string_viewIcSt11char_traitsIcEENSt7__cxx1112basic_stringIcS5_SaIcEEEE5valueEPSt4pairIKS6_SA_E = comdat any

$_ZN4absl12lts_2023080218container_internal12raw_hash_mapINS1_17FlatHashMapPolicyISt17basic_string_viewIcSt11char_traitsIcEENSt7__cxx1112basic_stringIcS6_SaIcEEEEENS1_10StringHashENS1_8StringEqESaISt4pairIKS7_SB_EEE11try_emplaceIA5_cJETnNSt9enable_ifIXntsr3std14is_convertibleIT_NS1_12raw_hash_setISC_SD_SE_SI_E14const_iteratorEEE5valueEiE4typeELi0EEESF_INSP_8iteratorEbERKSN_DpOT0_ = comdat any

$_ZNK4absl12lts_2023080218container_internal12raw_hash_setINS1_17FlatHashMapPolicyISt17basic_string_viewIcSt11char_traitsIcEENSt7__cxx1112basic_stringIcS6_SaIcEEEEENS1_10StringHashENS1_8StringEqESaISt4pairIKS7_SB_EEE8iteratordeEv = comdat any

$_ZN4absl12lts_2023080218container_internal12raw_hash_mapINS1_17FlatHashMapPolicyISt17basic_string_viewIcSt11char_traitsIcEENSt7__cxx1112basic_stringIcS6_SaIcEEEEENS1_10StringHashENS1_8StringEqESaISt4pairIKS7_SB_EEE16try_emplace_implIRA5_KcJEEESF_INS1_12raw_hash_setISC_SD_SE_SI_E8iteratorEbEOT_DpOT0_ = comdat any

$_ZN4absl12lts_2023080218container_internal12raw_hash_setINS1_17FlatHashMapPolicyISt17basic_string_viewIcSt11char_traitsIcEENSt7__cxx1112basic_stringIcS6_SaIcEEEEENS1_10StringHashENS1_8StringEqESaISt4pairIKS7_SB_EEE22find_or_prepare_insertIA5_cEESF_ImbERKT_ = comdat any

$_ZN4absl12lts_2023080218container_internal12raw_hash_setINS1_17FlatHashMapPolicyISt17basic_string_viewIcSt11char_traitsIcEENSt7__cxx1112basic_stringIcS6_SaIcEEEEENS1_10StringHashENS1_8StringEqESaISt4pairIKS7_SB_EEE10emplace_atIJRKSt21piecewise_construct_tSt5tupleIJRA5_KcEESO_IJEEEEEvmDpOT_ = comdat any

$_ZSt16forward_as_tupleIJRA5_KcEESt5tupleIJDpOT_EES6_ = comdat any

$_ZSt16forward_as_tupleIJEESt5tupleIJDpOT_EES3_ = comdat any

$_ZN4absl12lts_2023080218container_internal12raw_hash_setINS1_17FlatHashMapPolicyISt17basic_string_viewIcSt11char_traitsIcEENSt7__cxx1112basic_stringIcS6_SaIcEEEEENS1_10StringHashENS1_8StringEqESaISt4pairIKS7_SB_EEE11iterator_atEm = comdat any

$_ZNSt4pairIN4absl12lts_2023080218container_internal12raw_hash_setINS2_17FlatHashMapPolicyISt17basic_string_viewIcSt11char_traitsIcEENSt7__cxx1112basic_stringIcS7_SaIcEEEEENS2_10StringHashENS2_8StringEqESaIS_IKS8_SC_EEE8iteratorEbEC2ISK_RbTnNSt9enable_ifIXaaclsr5_PCCPE22_MoveConstructiblePairIT_T0_EEclsr5_PCCPE30_ImplicitlyMoveConvertiblePairISP_SQ_EEEbE4typeELb1EEEOSP_OSQ_ = comdat any

$_ZNK4absl12lts_2023080218container_internal12raw_hash_setINS1_17FlatHashMapPolicyISt17basic_string_viewIcSt11char_traitsIcEENSt7__cxx1112basic_stringIcS6_SaIcEEEEENS1_10StringHashENS1_8StringEqESaISt4pairIKS7_SB_EEE19prefetch_heap_blockEv = comdat any

$_ZN4absl12lts_2023080218container_internal12raw_hash_setINS1_17FlatHashMapPolicyISt17basic_string_viewIcSt11char_traitsIcEENSt7__cxx1112basic_stringIcS6_SaIcEEEEENS1_10StringHashENS1_8StringEqESaISt4pairIKS7_SB_EEE8hash_refEv = comdat any

$_ZNK4absl12lts_2023080218container_internal10StringHashclESt17basic_string_viewIcSt11char_traitsIcEE = comdat any

$_ZN4absl12lts_2023080218container_internal5probeERKNS1_12CommonFieldsEm = comdat any

$_ZN4absl12lts_2023080218container_internal12raw_hash_setINS1_17FlatHashMapPolicyISt17basic_string_viewIcSt11char_traitsIcEENSt7__cxx1112basic_stringIcS6_SaIcEEEEENS1_10StringHashENS1_8StringEqESaISt4pairIKS7_SB_EEE6commonEv = comdat any

$_ZNK4absl12lts_2023080218container_internal12raw_hash_setINS1_17FlatHashMapPolicyISt17basic_string_viewIcSt11char_traitsIcEENSt7__cxx1112basic_stringIcS6_SaIcEEEEENS1_10StringHashENS1_8StringEqESaISt4pairIKS7_SB_EEE7controlEv = comdat any

$_ZNK4absl12lts_2023080218container_internal9probe_seqILm16EE6offsetEv = comdat any

$_ZN4absl12lts_2023080218container_internal13GroupSse2ImplC2EPKNS1_6ctrl_tE = comdat any

$_ZNK4absl12lts_2023080218container_internal13GroupSse2Impl5MatchEh = comdat any

$_ZN4absl12lts_2023080218container_internal2H2Em = comdat any

$_ZNK4absl12lts_2023080218container_internal7BitMaskIjLi16ELi0EE5beginEv = comdat any

$_ZNK4absl12lts_2023080218container_internal7BitMaskIjLi16ELi0EE3endEv = comdat any

$_ZN4absl12lts_2023080218container_internalneERKNS1_7BitMaskIjLi16ELi0EEES5_ = comdat any

$_ZNK4absl12lts_2023080218container_internal7BitMaskIjLi16ELi0EEdeEv = comdat any

$_ZN4absl12lts_2023080218container_internal18hash_policy_traitsINS1_17FlatHashMapPolicyISt17basic_string_viewIcSt11char_traitsIcEENSt7__cxx1112basic_stringIcS6_SaIcEEEEEvE5applyINS1_12raw_hash_setISC_NS1_10StringHashENS1_8StringEqESaISt4pairIKS7_SB_EEE12EqualElementIA5_cEEJRSK_ESC_EEDTclsrT1_5applyclsr3stdE7forwardIT_Efp_Espclsr3stdE7forwardIT0_Efp0_EEEOSS_DpOST_ = comdat any

$_ZN4absl12lts_2023080218container_internal12raw_hash_setINS1_17FlatHashMapPolicyISt17basic_string_viewIcSt11char_traitsIcEENSt7__cxx1112basic_stringIcS6_SaIcEEEEENS1_10StringHashENS1_8StringEqESaISt4pairIKS7_SB_EEE6eq_refEv = comdat any

$_ZN4absl12lts_2023080218container_internal20common_policy_traitsINS1_17FlatHashMapPolicyISt17basic_string_viewIcSt11char_traitsIcEENSt7__cxx1112basic_stringIcS6_SaIcEEEEEvE7elementISC_EEDTclsrT_7elementfp_EEPNS1_13map_slot_typeIS7_SB_EE = comdat any

$_ZNK4absl12lts_2023080218container_internal12raw_hash_setINS1_17FlatHashMapPolicyISt17basic_string_viewIcSt11char_traitsIcEENSt7__cxx1112basic_stringIcS6_SaIcEEEEENS1_10StringHashENS1_8StringEqESaISt4pairIKS7_SB_EEE10slot_arrayEv = comdat any

$_ZNK4absl12lts_2023080218container_internal9probe_seqILm16EE6offsetEm = comdat any

$_ZNSt4pairImbEC2ImbTnNSt9enable_ifIXaaclsr5_PCCPE22_MoveConstructiblePairIT_T0_EEclsr5_PCCPE30_ImplicitlyMoveConvertiblePairIS3_S4_EEEbE4typeELb1EEEOS3_OS4_ = comdat any

$_ZN4absl12lts_2023080218container_internal7BitMaskIjLi16ELi0EEppEv = comdat any

$_ZNK4absl12lts_2023080218container_internal13GroupSse2Impl9MaskEmptyEv = comdat any

$_ZNK4absl12lts_2023080218container_internal18NonIterableBitMaskIjLi16ELi0EEcvbEv = comdat any

$_ZN4absl12lts_2023080218container_internal9probe_seqILm16EE4nextEv = comdat any

$_ZN4absl12lts_2023080218container_internal12raw_hash_setINS1_17FlatHashMapPolicyISt17basic_string_viewIcSt11char_traitsIcEENSt7__cxx1112basic_stringIcS6_SaIcEEEEENS1_10StringHashENS1_8StringEqESaISt4pairIKS7_SB_EEE14prepare_insertEm = comdat any

$_ZNR4absl12lts_2023080218container_internal15CompressedTupleIJNS1_12CommonFieldsENS1_10StringHashENS1_8StringEqESaISt4pairIKSt17basic_string_viewIcSt11char_traitsIcEENSt7__cxx1112basic_stringIcS9_SaIcEEEEEEE3getILi1EEERNS1_25internal_compressed_tuple4ElemISI_XT_EE4typeEv = comdat any

$_ZNR4absl12lts_2023080218container_internal25internal_compressed_tuple7StorageINS1_10StringHashELm1ELb1EE3getEv = comdat any

$_ZNK4absl12lts_2023080213hash_internal8HashImplISt17basic_string_viewIcSt11char_traitsIcEEEclERKS6_ = comdat any

$_ZN4absl12lts_2023080213hash_internal15MixingHashState4hashISt17basic_string_viewIcSt11char_traitsIcEETnNSt9enable_ifIXntsr16IntegralFastPathIT_EE5valueEiE4typeELi0EEEmRKS9_ = comdat any

$_ZN4absl12lts_2023080213hash_internal13HashStateBaseINS1_15MixingHashStateEE7combineISt17basic_string_viewIcSt11char_traitsIcEEJEEES3_S3_RKT_DpRKT0_ = comdat any

$_ZN4absl12lts_2023080213hash_internal15MixingHashStateC2Ev = comdat any

$_ZN4absl12lts_2023080213hash_internal13HashStateBaseINS1_15MixingHashStateEE7combineES3_ = comdat any

$_ZN4absl12lts_2023080213hash_internal10HashSelect14HashValueProbe6InvokeINS1_15MixingHashStateESt17basic_string_viewIcSt11char_traitsIcEEEENSt9enable_ifIXsr3std7is_sameIT_DTcl13AbslHashValueclsr3stdE4movefp_Efp0_EEEE5valueESB_E4typeESB_RKT0_ = comdat any

$_ZN4absl12lts_2023080213hash_internal13AbslHashValueINS1_15MixingHashStateEEET_S4_St17basic_string_viewIcSt11char_traitsIcEE = comdat any

$_ZN4absl12lts_2023080213hash_internal13HashStateBaseINS1_15MixingHashStateEE7combineImJEEES3_S3_RKT_DpRKT0_ = comdat any

$_ZN4absl12lts_2023080213hash_internal13HashStateBaseINS1_15MixingHashStateEE18combine_contiguousIcEES3_S3_PKT_m = comdat any

$_ZNKSt17basic_string_viewIcSt11char_traitsIcEE4dataEv = comdat any

$_ZNKSt17basic_string_viewIcSt11char_traitsIcEE4sizeEv = comdat any

$_ZN4absl12lts_2023080213hash_internal10HashSelect24UniquelyRepresentedProbe6InvokeINS1_15MixingHashStateEmEENSt9enable_ifIXsr23is_uniquely_representedIT0_EE5valueET_E4typeES8_RKS7_ = comdat any

$_ZN4absl12lts_2023080213hash_internal10hash_bytesINS1_15MixingHashStateEmEET_S4_RKT0_ = comdat any

$_ZN4absl12lts_2023080213hash_internal15MixingHashState18combine_contiguousES2_PKhm = comdat any

$_ZN4absl12lts_2023080213hash_internal15MixingHashState21CombineContiguousImplEmPKhmSt17integral_constantIiLi8EE = comdat any

$_ZN4absl12lts_2023080213hash_internal15MixingHashStateC2Em = comdat any

$_ZN4absl12lts_2023080213hash_internal18PiecewiseChunkSizeEv = comdat any

$_ZN4absl12lts_2023080213hash_internal15MixingHashState9Read9To16EPKhm = comdat any

$_ZN4absl12lts_202308024rotrImEENSt9enable_ifIXsr3std11is_unsignedIT_EE5valueES3_E4typeES3_i = comdat any

$_ZN4absl12lts_2023080213hash_internal15MixingHashState8Read4To8EPKhm = comdat any

$_ZN4absl12lts_2023080213hash_internal15MixingHashState8Read1To3EPKhm = comdat any

$_ZN4absl12lts_2023080213base_internal15UnalignedLoad64EPKv = comdat any

$_ZNSt4pairImmEC2IRmS2_TnNSt9enable_ifIXaaclsr5_PCCPE22_MoveConstructiblePairIT_T0_EEclsr5_PCCPE30_ImplicitlyMoveConvertiblePairIS4_S5_EEEbE4typeELb1EEEOS4_OS5_ = comdat any

$_ZN4absl12lts_2023080213base_internal15UnalignedLoad32EPKv = comdat any

$_ZN4absl12lts_2023080213hash_internal19hash_range_or_bytesINS1_15MixingHashStateEcEENSt9enable_ifIXsr23is_uniquely_representedIT0_EE5valueET_E4typeES6_PKS5_m = comdat any

$_ZN4absl12lts_2023080218container_internal5probeEPKNS1_6ctrl_tEmm = comdat any

$_ZNK4absl12lts_2023080218container_internal12CommonFields7controlEv = comdat any

$_ZNK4absl12lts_2023080218container_internal12CommonFields8capacityEv = comdat any

$_ZN4absl12lts_2023080218container_internal2H1EmPKNS1_6ctrl_tE = comdat any

$_ZN4absl12lts_2023080218container_internal9probe_seqILm16EEC2Emm = comdat any

$_ZN4absl12lts_2023080218container_internal12PerTableSaltEPKNS1_6ctrl_tE = comdat any

$_ZNR4absl12lts_2023080218container_internal15CompressedTupleIJNS1_12CommonFieldsENS1_10StringHashENS1_8StringEqESaISt4pairIKSt17basic_string_viewIcSt11char_traitsIcEENSt7__cxx1112basic_stringIcS9_SaIcEEEEEEE3getILi0EEERNS1_25internal_compressed_tuple4ElemISI_XT_EE4typeEv = comdat any

$_ZNR4absl12lts_2023080218container_internal25internal_compressed_tuple7StorageINS1_12CommonFieldsELm0ELb0EE3getEv = comdat any

$_ZNK4absl12lts_2023080218container_internal12raw_hash_setINS1_17FlatHashMapPolicyISt17basic_string_viewIcSt11char_traitsIcEENSt7__cxx1112basic_stringIcS6_SaIcEEEEENS1_10StringHashENS1_8StringEqESaISt4pairIKS7_SB_EEE6commonEv = comdat any

$_ZNKR4absl12lts_2023080218container_internal15CompressedTupleIJNS1_12CommonFieldsENS1_10StringHashENS1_8StringEqESaISt4pairIKSt17basic_string_viewIcSt11char_traitsIcEENSt7__cxx1112basic_stringIcS9_SaIcEEEEEEE3getILi0EEERKNS1_25internal_compressed_tuple4ElemISI_XT_EE4typeEv = comdat any

$_ZNKR4absl12lts_2023080218container_internal25internal_compressed_tuple7StorageINS1_12CommonFieldsELm0ELb0EE3getEv = comdat any

$_ZN4absl12lts_2023080218container_internal7BitMaskIjLi16ELi0EEC2Ej = comdat any

$_ZNK4absl12lts_2023080218container_internal18NonIterableBitMaskIjLi16ELi0EE12LowestBitSetEv = comdat any

$_ZN4absl12lts_2023080218container_internal13TrailingZerosIjEEjT_ = comdat any

$_ZN4absl12lts_2023080211countr_zeroIjEENSt9enable_ifIXsr3std11is_unsignedIT_EE5valueEiE4typeES3_ = comdat any

$__clang_call_terminate = comdat any

$_ZN4absl12lts_2023080218container_internal17FlatHashMapPolicyISt17basic_string_viewIcSt11char_traitsIcEENSt7__cxx1112basic_stringIcS5_SaIcEEEE5applyINS1_12raw_hash_setISB_NS1_10StringHashENS1_8StringEqESaISt4pairIKS6_SA_EEE12EqualElementIA5_cEEJRSI_EEEDTclsr4absl18container_internalE13DecomposePairclsr3stdE7declvalIT_EEspclsr3stdE7declvalIT0_EEEEOSP_DpOSQ_ = comdat any

$_ZN4absl12lts_2023080218container_internal13DecomposePairINS1_12raw_hash_setINS1_17FlatHashMapPolicyISt17basic_string_viewIcSt11char_traitsIcEENSt7__cxx1112basic_stringIcS7_SaIcEEEEENS1_10StringHashENS1_8StringEqESaISt4pairIKS8_SC_EEE12EqualElementIA5_cEEJRSI_EEEDTclsr15memory_internalE17DecomposePairImplclsr3stdE7forwardIT_Efp_Ecl8PairArgsspclsr3stdE7forwardIT0_Efp0_EEEEOSP_DpOSQ_ = comdat any

$_ZN4absl12lts_2023080218container_internal15memory_internal17DecomposePairImplINS1_12raw_hash_setINS1_17FlatHashMapPolicyISt17basic_string_viewIcSt11char_traitsIcEENSt7__cxx1112basic_stringIcS8_SaIcEEEEENS1_10StringHashENS1_8StringEqESaISt4pairIKS9_SD_EEE12EqualElementIA5_cEERSI_St5tupleIJRKSD_EEEEDTclclsr3stdE7declvalIT_EEclsr3stdE7declvalIRKT0_EEL_ZSt19piecewise_constructEclsr3stdE7declvalISQ_IJSV_EEEEclsr3stdE7declvalIT1_EEEEOSU_SH_ISY_SZ_E = comdat any

$_ZN4absl12lts_2023080218container_internal8PairArgsIKSt17basic_string_viewIcSt11char_traitsIcEENSt7__cxx1112basic_stringIcS5_SaIcEEEEESt4pairISt5tupleIJRKT_EESD_IJRKT0_EEERKSC_ISE_SI_E = comdat any

$_ZSt3getILm0EJRKSt17basic_string_viewIcSt11char_traitsIcEEEERNSt13tuple_elementIXT_ESt5tupleIJDpT0_EEE4typeERSA_ = comdat any

$_ZNK4absl12lts_2023080218container_internal12raw_hash_setINS1_17FlatHashMapPolicyISt17basic_string_viewIcSt11char_traitsIcEENSt7__cxx1112basic_stringIcS6_SaIcEEEEENS1_10StringHashENS1_8StringEqESaISt4pairIKS7_SB_EEE12EqualElementIA5_cEclIS7_JRKSt21piecewise_construct_tSt5tupleIJRSG_EESR_IJRKSB_EEEEEbRKT_DpOT0_ = comdat any

$_ZSt12__get_helperILm0ERKSt17basic_string_viewIcSt11char_traitsIcEEJEERT0_RSt11_Tuple_implIXT_EJS6_DpT1_EE = comdat any

$_ZNSt11_Tuple_implILm0EJRKSt17basic_string_viewIcSt11char_traitsIcEEEE7_M_headERS6_ = comdat any

$_ZNSt10_Head_baseILm0ERKSt17basic_string_viewIcSt11char_traitsIcEELb0EE7_M_headERS6_ = comdat any

$_ZNK4absl12lts_2023080218container_internal8StringEqclESt17basic_string_viewIcSt11char_traitsIcEES6_ = comdat any

$_ZSteqIcSt11char_traitsIcEEbSt17basic_string_viewIT_T0_ES5_ = comdat any

$_ZNKSt17basic_string_viewIcSt11char_traitsIcEE7compareES2_ = comdat any

$_ZSt3minImERKT_S2_S2_ = comdat any

$_ZNSt11char_traitsIcE7compareEPKcS2_m = comdat any

$_ZNSt17basic_string_viewIcSt11char_traitsIcEE10_S_compareEmm = comdat any

$_ZN4absl12lts_2023080218container_internal8PairArgsIRKSt17basic_string_viewIcSt11char_traitsIcEERKNSt7__cxx1112basic_stringIcS5_SaIcEEEEESt4pairISt5tupleIJOT_EESG_IJOT0_EEESI_SL_ = comdat any

$_ZSt16forward_as_tupleIJRKSt17basic_string_viewIcSt11char_traitsIcEEEESt5tupleIJDpOT_EES9_ = comdat any

$_ZSt16forward_as_tupleIJRKNSt7__cxx1112basic_stringIcSt11char_traitsIcESaIcEEEEESt5tupleIJDpOT_EESB_ = comdat any

$_ZNSt4pairISt5tupleIJRKSt17basic_string_viewIcSt11char_traitsIcEEEES0_IJRKNSt7__cxx1112basic_stringIcS3_SaIcEEEEEEC2IJS6_EJSD_EEESt21piecewise_construct_tS0_IJDpT_EES0_IJDpT0_EE = comdat any

$_ZNSt5tupleIJRKSt17basic_string_viewIcSt11char_traitsIcEEEEC2ILb1ETnNSt9enable_ifIXclsr4_TCCIXT_EEE29__is_implicitly_constructibleIS5_EEEbE4typeELb1EEES5_ = comdat any

$_ZNSt11_Tuple_implILm0EJRKSt17basic_string_viewIcSt11char_traitsIcEEEEC2ES5_ = comdat any

$_ZNSt10_Head_baseILm0ERKSt17basic_string_viewIcSt11char_traitsIcEELb0EEC2ES5_ = comdat any

$_ZNSt5tupleIJRKNSt7__cxx1112basic_stringIcSt11char_traitsIcESaIcEEEEEC2ILb1ETnNSt9enable_ifIXclsr4_TCCIXT_EEE29__is_implicitly_constructibleIS7_EEEbE4typeELb1EEES7_ = comdat any

$_ZNSt11_Tuple_implILm0EJRKNSt7__cxx1112basic_stringIcSt11char_traitsIcESaIcEEEEEC2ES7_ = comdat any

$_ZNSt10_Head_baseILm0ERKNSt7__cxx1112basic_stringIcSt11char_traitsIcESaIcEEELb0EEC2ES7_ = comdat any

$_ZNSt4pairISt5tupleIJRKSt17basic_string_viewIcSt11char_traitsIcEEEES0_IJRKNSt7__cxx1112basic_stringIcS3_SaIcEEEEEEC2IJS6_EJLm0EEJSD_EJLm0EEEERS0_IJDpT_EERS0_IJDpT1_EESt12_Index_tupleIJXspT0_EEESP_IJXspT2_EEE = comdat any

$_ZSt3getILm0EJRKNSt7__cxx1112basic_stringIcSt11char_traitsIcESaIcEEEEERNSt13tuple_elementIXT_ESt5tupleIJDpT0_EEE4typeERSC_ = comdat any

$_ZSt12__get_helperILm0ERKNSt7__cxx1112basic_stringIcSt11char_traitsIcESaIcEEEJEERT0_RSt11_Tuple_implIXT_EJS8_DpT1_EE = comdat any

$_ZNSt11_Tuple_implILm0EJRKNSt7__cxx1112basic_stringIcSt11char_traitsIcESaIcEEEEE7_M_headERS8_ = comdat any

$_ZNSt10_Head_baseILm0ERKNSt7__cxx1112basic_stringIcSt11char_traitsIcESaIcEEELb0EE7_M_headERS8_ = comdat any

$_ZNR4absl12lts_2023080218container_internal15CompressedTupleIJNS1_12CommonFieldsENS1_10StringHashENS1_8StringEqESaISt4pairIKSt17basic_string_viewIcSt11char_traitsIcEENSt7__cxx1112basic_stringIcS9_SaIcEEEEEEE3getILi2EEERNS1_25internal_compressed_tuple4ElemISI_XT_EE4typeEv = comdat any

$_ZNR4absl12lts_2023080218container_internal25internal_compressed_tuple7StorageINS1_8StringEqELm2ELb1EE3getEv = comdat any

$_ZN4absl12lts_2023080218container_internal17FlatHashMapPolicyISt17basic_string_viewIcSt11char_traitsIcEENSt7__cxx1112basic_stringIcS5_SaIcEEEE7elementEPNS1_13map_slot_typeIS6_SA_EE = comdat any

$_ZNK4absl12lts_2023080218container_internal12CommonFields10slot_arrayEv = comdat any

$_ZN4absl12lts_2023080218container_internal18NonIterableBitMaskIjLi16ELi0EEC2Ej = comdat any

$_ZNK4absl12lts_2023080218container_internal12CommonFields41should_rehash_for_bug_detection_on_insertEv = comdat any

$_ZNK4absl12lts_2023080218container_internal12raw_hash_setINS1_17FlatHashMapPolicyISt17basic_string_viewIcSt11char_traitsIcEENSt7__cxx1112basic_stringIcS6_SaIcEEEEENS1_10StringHashENS1_8StringEqESaISt4pairIKS7_SB_EEE8capacityEv = comdat any

$_ZN4absl12lts_2023080218container_internal12raw_hash_setINS1_17FlatHashMapPolicyISt17basic_string_viewIcSt11char_traitsIcEENSt7__cxx1112basic_stringIcS6_SaIcEEEEENS1_10StringHashENS1_8StringEqESaISt4pairIKS7_SB_EEE6resizeEm = comdat any

$_ZNK4absl12lts_2023080218container_internal12raw_hash_setINS1_17FlatHashMapPolicyISt17basic_string_viewIcSt11char_traitsIcEENSt7__cxx1112basic_stringIcS6_SaIcEEEEENS1_10StringHashENS1_8StringEqESaISt4pairIKS7_SB_EEE11growth_leftEv = comdat any

$_ZN4absl12lts_2023080218container_internal12NextCapacityEm = comdat any

$_ZN4absl12lts_2023080218container_internal9IsDeletedENS1_6ctrl_tE = comdat any

$_ZN4absl12lts_2023080218container_internal12raw_hash_setINS1_17FlatHashMapPolicyISt17basic_string_viewIcSt11char_traitsIcEENSt7__cxx1112basic_stringIcS6_SaIcEEEEENS1_10StringHashENS1_8StringEqESaISt4pairIKS7_SB_EEE28rehash_and_grow_if_necessaryEv = comdat any

$_ZN4absl12lts_2023080218container_internal12CommonFields8set_sizeEm = comdat any

$_ZNK4absl12lts_2023080218container_internal12CommonFields4sizeEv = comdat any

$_ZN4absl12lts_2023080218container_internal12raw_hash_setINS1_17FlatHashMapPolicyISt17basic_string_viewIcSt11char_traitsIcEENSt7__cxx1112basic_stringIcS6_SaIcEEEEENS1_10StringHashENS1_8StringEqESaISt4pairIKS7_SB_EEE15set_growth_leftEm = comdat any

$_ZN4absl12lts_2023080218container_internal7IsEmptyENS1_6ctrl_tE = comdat any

$_ZN4absl12lts_2023080218container_internal7SetCtrlERKNS1_12CommonFieldsEmhm = comdat any

$_ZN4absl12lts_2023080218container_internal34CommonFieldsGenerationInfoDisabled36maybe_increment_generation_on_insertEv = comdat any

$_ZN4absl12lts_2023080218container_internal12raw_hash_setINS1_17FlatHashMapPolicyISt17basic_string_viewIcSt11char_traitsIcEENSt7__cxx1112basic_stringIcS6_SaIcEEEEENS1_10StringHashENS1_8StringEqESaISt4pairIKS7_SB_EEE5infozEv = comdat any

$_ZN4absl12lts_2023080218container_internal20HashtablezInfoHandle12RecordInsertEmm = comdat any

$_ZNK4absl12lts_2023080218container_internal34CommonFieldsGenerationInfoDisabled41should_rehash_for_bug_detection_on_insertEPKNS1_6ctrl_tEm = comdat any

$_ZN4absl12lts_2023080218container_internal12CommonFields12set_capacityEm = comdat any

$_ZN4absl12lts_2023080218container_internal12raw_hash_setINS1_17FlatHashMapPolicyISt17basic_string_viewIcSt11char_traitsIcEENSt7__cxx1112basic_stringIcS6_SaIcEEEEENS1_10StringHashENS1_8StringEqESaISt4pairIKS7_SB_EEE16initialize_slotsEv = comdat any

$_ZN4absl12lts_2023080218container_internal6IsFullENS1_6ctrl_tE = comdat any

$_ZN4absl12lts_2023080218container_internal18hash_policy_traitsINS1_17FlatHashMapPolicyISt17basic_string_viewIcSt11char_traitsIcEENSt7__cxx1112basic_stringIcS6_SaIcEEEEEvE5applyINS1_12raw_hash_setISC_NS1_10StringHashENS1_8StringEqESaISt4pairIKS7_SB_EEE11HashElementEJRSK_ESC_EEDTclsrT1_5applyclsr3stdE7forwardIT_Efp_Espclsr3stdE7forwardIT0_Efp0_EEEOSQ_DpOSR_ = comdat any

$_ZN4absl12lts_2023080218container_internal20common_policy_traitsINS1_17FlatHashMapPolicyISt17basic_string_viewIcSt11char_traitsIcEENSt7__cxx1112basic_stringIcS6_SaIcEEEEEvE8transferISaISt4pairIKS7_SB_EEEEvPT_PNS1_13map_slot_typeIS7_SB_EESN_ = comdat any

$_ZN4absl12lts_2023080218container_internal12raw_hash_setINS1_17FlatHashMapPolicyISt17basic_string_viewIcSt11char_traitsIcEENSt7__cxx1112basic_stringIcS6_SaIcEEEEENS1_10StringHashENS1_8StringEqESaISt4pairIKS7_SB_EEE9alloc_refEv = comdat any

$_ZN4absl12lts_2023080218container_internal29SanitizerUnpoisonMemoryRegionEPKvm = comdat any

$_ZN4absl12lts_2023080218container_internal10DeallocateILm8ESaISt4pairIKSt17basic_string_viewIcSt11char_traitsIcEENSt7__cxx1112basic_stringIcS6_SaIcEEEEEEEvPT0_Pvm = comdat any

$_ZN4absl12lts_2023080218container_internal13ControlOffsetEv = comdat any

$_ZN4absl12lts_2023080218container_internal9AllocSizeEmmm = comdat any

$_ZN4absl12lts_2023080218container_internal20HashtablezInfoHandle12RecordRehashEm = comdat any

$_ZN4absl12lts_2023080218container_internal15InitializeSlotsISaIcELm48ELm8EEEvRNS1_12CommonFieldsET_ = comdat any

$_ZNSaIcEC2ISt4pairIKSt17basic_string_viewIcSt11char_traitsIcEENSt7__cxx1112basic_stringIcS4_S_EEEEERKSaIT_E = comdat any

$_ZN4absl12lts_2023080218container_internal8AllocateILm8ESaIcEEEPvPT0_m = comdat any

$_ZNK4absl12lts_2023080218container_internal34CommonFieldsGenerationInfoDisabled10generationEv = comdat any

$_ZN4absl12lts_2023080218container_internal34CommonFieldsGenerationInfoDisabled18set_generation_ptrEPh = comdat any

$_ZN4absl12lts_2023080218container_internal16GenerationOffsetEm = comdat any

$_ZN4absl12lts_2023080218container_internal34CommonFieldsGenerationInfoDisabled14set_generationEh = comdat any

$_ZN4absl12lts_2023080218container_internal14NextGenerationEh = comdat any

$_ZN4absl12lts_2023080218container_internal12CommonFields11set_controlEPNS1_6ctrl_tE = comdat any

$_ZN4absl12lts_2023080218container_internal12CommonFields9set_slotsEPv = comdat any

$_ZN4absl12lts_2023080218container_internal10SlotOffsetEmm = comdat any

$_ZN4absl12lts_2023080218container_internal9ResetCtrlERNS1_12CommonFieldsEm = comdat any

$_ZN4absl12lts_2023080218container_internal6SampleEm = comdat any

$_ZN4absl12lts_2023080218container_internal12CommonFields5infozEv = comdat any

$_ZN4absl12lts_2023080218container_internal20HashtablezInfoHandle20RecordStorageChangedEmm = comdat any

$_ZNSaIN4absl12lts_2023080218container_internal11AlignedTypeILm8EEEEC2IcEERKSaIT_E = comdat any

$_ZNSt16allocator_traitsISaIN4absl12lts_2023080218container_internal11AlignedTypeILm8EEEEE8allocateERS5_m = comdat any

$_ZNSaIN4absl12lts_2023080218container_internal11AlignedTypeILm8EEEED2Ev = comdat any

$_ZNSt15__new_allocatorIN4absl12lts_2023080218container_internal11AlignedTypeILm8EEEEC2Ev = comdat any

$_ZNSt15__new_allocatorIN4absl12lts_2023080218container_internal11AlignedTypeILm8EEEE8allocateEmPKv = comdat any

$_ZNKSt15__new_allocatorIN4absl12lts_2023080218container_internal11AlignedTypeILm8EEEE11_M_max_sizeEv = comdat any

$_ZNSt15__new_allocatorIN4absl12lts_2023080218container_internal11AlignedTypeILm8EEEED2Ev = comdat any

$_ZN4absl12lts_2023080218container_internal14NumClonedBytesEv = comdat any

$_ZN4absl12lts_2023080218container_internal23SentinelEmptyGenerationEv = comdat any

$_ZN4absl12lts_2023080218container_internal18NumGenerationBytesEv = comdat any

$_ZN4absl12lts_2023080218container_internal27SanitizerPoisonMemoryRegionEPKvm = comdat any

$_ZN4absl12lts_2023080218container_internal15ResetGrowthLeftERNS1_12CommonFieldsE = comdat any

$_ZN4absl12lts_2023080218container_internal12CommonFields15set_growth_leftEm = comdat any

$_ZN4absl12lts_2023080218container_internal16CapacityToGrowthEm = comdat any

$_ZNK4absl12lts_2023080218container_internal12CommonFields19backing_array_startEv = comdat any

$_ZN4absl12lts_2023080218container_internal20HashtablezInfoHandleC2EDn = comdat any

$_ZNR4absl12lts_2023080218container_internal15CompressedTupleIJmNS1_20HashtablezInfoHandleEEE3getILi1EEERNS1_25internal_compressed_tuple4ElemIS4_XT_EE4typeEv = comdat any

$_ZNR4absl12lts_2023080218container_internal25internal_compressed_tuple7StorageINS1_20HashtablezInfoHandleELm1ELb1EE3getEv = comdat any

$_ZNSt15__new_allocatorIcEC2Ev = comdat any

$_ZN4absl12lts_2023080218container_internal17FlatHashMapPolicyISt17basic_string_viewIcSt11char_traitsIcEENSt7__cxx1112basic_stringIcS5_SaIcEEEE5applyINS1_12raw_hash_setISB_NS1_10StringHashENS1_8StringEqESaISt4pairIKS6_SA_EEE11HashElementEJRSI_EEEDTclsr4absl18container_internalE13DecomposePairclsr3stdE7declvalIT_EEspclsr3stdE7declvalIT0_EEEEOSN_DpOSO_ = comdat any

$_ZN4absl12lts_2023080218container_internal13DecomposePairINS1_12raw_hash_setINS1_17FlatHashMapPolicyISt17basic_string_viewIcSt11char_traitsIcEENSt7__cxx1112basic_stringIcS7_SaIcEEEEENS1_10StringHashENS1_8StringEqESaISt4pairIKS8_SC_EEE11HashElementEJRSI_EEEDTclsr15memory_internalE17DecomposePairImplclsr3stdE7forwardIT_Efp_Ecl8PairArgsspclsr3stdE7forwardIT0_Efp0_EEEEOSN_DpOSO_ = comdat any

$_ZN4absl12lts_2023080218container_internal15memory_internal17DecomposePairImplINS1_12raw_hash_setINS1_17FlatHashMapPolicyISt17basic_string_viewIcSt11char_traitsIcEENSt7__cxx1112basic_stringIcS8_SaIcEEEEENS1_10StringHashENS1_8StringEqESaISt4pairIKS9_SD_EEE11HashElementERSI_St5tupleIJRKSD_EEEEDTclclsr3stdE7declvalIT_EEclsr3stdE7declvalIRKT0_EEL_ZSt19piecewise_constructEclsr3stdE7declvalISO_IJST_EEEEclsr3stdE7declvalIT1_EEEEOSS_SH_ISW_SX_E = comdat any

$_ZNK4absl12lts_2023080218container_internal12raw_hash_setINS1_17FlatHashMapPolicyISt17basic_string_viewIcSt11char_traitsIcEENSt7__cxx1112basic_stringIcS6_SaIcEEEEENS1_10StringHashENS1_8StringEqESaISt4pairIKS7_SB_EEE11HashElementclIS7_JRKSt21piecewise_construct_tSt5tupleIJRSG_EESP_IJRKSB_EEEEEmRKT_DpOT0_ = comdat any

$_ZN4absl12lts_2023080218container_internal20common_policy_traitsINS1_17FlatHashMapPolicyISt17basic_string_viewIcSt11char_traitsIcEENSt7__cxx1112basic_stringIcS6_SaIcEEEEEvE13transfer_implISaISt4pairIKS7_SB_EESC_EEDTcvvclsrT0_8transferfp_fp0_fp1_EEPT_PNS1_13map_slot_typeIS7_SB_EESP_NSD_5Rank0E = comdat any

$_ZN4absl12lts_2023080218container_internal17FlatHashMapPolicyISt17basic_string_viewIcSt11char_traitsIcEENSt7__cxx1112basic_stringIcS5_SaIcEEEE8transferISaISt4pairIKS6_SA_EEEEvPT_PNS1_13map_slot_typeIS6_SA_EESL_ = comdat any

$_ZN4absl12lts_2023080218container_internal15map_slot_policyISt17basic_string_viewIcSt11char_traitsIcEENSt7__cxx1112basic_stringIcS5_SaIcEEEE8transferISaISt4pairIKS6_SA_EEEEvPT_PNS1_13map_slot_typeIS6_SA_EESL_ = comdat any

$_ZN4absl12lts_2023080218container_internal15map_slot_policyISt17basic_string_viewIcSt11char_traitsIcEENSt7__cxx1112basic_stringIcS5_SaIcEEEE7emplaceEPNS1_13map_slot_typeIS6_SA_EE = comdat any

$_ZNSt16allocator_traitsISaISt4pairIKSt17basic_string_viewIcSt11char_traitsIcEENSt7__cxx1112basic_stringIcS3_SaIcEEEEEE9constructIS0_IS4_S9_EJSE_EEEvRSB_PT_DpOT0_ = comdat any

$_ZN4absl12lts_2023080218container_internal15map_slot_policyISt17basic_string_viewIcSt11char_traitsIcEENSt7__cxx1112basic_stringIcS5_SaIcEEEE7destroyISaISt4pairIKS6_SA_EEEEvPT_PNS1_13map_slot_typeIS6_SA_EE = comdat any

$_ZN4absl12lts_2023080218container_internal13map_slot_typeISt17basic_string_viewIcSt11char_traitsIcEENSt7__cxx1112basic_stringIcS5_SaIcEEEEC2Ev = comdat any

$_ZNSt15__new_allocatorISt4pairIKSt17basic_string_viewIcSt11char_traitsIcEENSt7__cxx1112basic_stringIcS3_SaIcEEEEE9constructIS0_IS4_S9_EJSD_EEEvPT_DpOT0_ = comdat any

$_ZNSt4pairISt17basic_string_viewIcSt11char_traitsIcEENSt7__cxx1112basic_stringIcS2_SaIcEEEEC2EOS8_ = comdat any

$_ZNSt16allocator_traitsISaISt4pairIKSt17basic_string_viewIcSt11char_traitsIcEENSt7__cxx1112basic_stringIcS3_SaIcEEEEEE7destroyIS0_IS4_S9_EEEvRSB_PT_ = comdat any

$_ZNSt15__new_allocatorISt4pairIKSt17basic_string_viewIcSt11char_traitsIcEENSt7__cxx1112basic_stringIcS3_SaIcEEEEE7destroyIS0_IS4_S9_EEEvPT_ = comdat any

$_ZNR4absl12lts_2023080218container_internal15CompressedTupleIJNS1_12CommonFieldsENS1_10StringHashENS1_8StringEqESaISt4pairIKSt17basic_string_viewIcSt11char_traitsIcEENSt7__cxx1112basic_stringIcS9_SaIcEEEEEEE3getILi3EEERNS1_25internal_compressed_tuple4ElemISI_XT_EE4typeEv = comdat any

$_ZNR4absl12lts_2023080218container_internal25internal_compressed_tuple7StorageISaISt4pairIKSt17basic_string_viewIcSt11char_traitsIcEENSt7__cxx1112basic_stringIcS7_SaIcEEEEELm3ELb1EE3getEv = comdat any

$_ZNSaIN4absl12lts_2023080218container_internal11AlignedTypeILm8EEEEC2ISt4pairIKSt17basic_string_viewIcSt11char_traitsIcEENSt7__cxx1112basic_stringIcS9_SaIcEEEEEERKSaIT_E = comdat any

$_ZNSt16allocator_traitsISaIN4absl12lts_2023080218container_internal11AlignedTypeILm8EEEEE10deallocateERS5_PS4_m = comdat any

$_ZNSt15__new_allocatorIN4absl12lts_2023080218container_internal11AlignedTypeILm8EEEE10deallocateEPS4_m = comdat any

$_ZNK4absl12lts_2023080218container_internal12CommonFields11growth_leftEv = comdat any

$_ZNK4absl12lts_2023080218container_internal12raw_hash_setINS1_17FlatHashMapPolicyISt17basic_string_viewIcSt11char_traitsIcEENSt7__cxx1112basic_stringIcS6_SaIcEEEEENS1_10StringHashENS1_8StringEqESaISt4pairIKS7_SB_EEE4sizeEv = comdat any

$_ZN4absl12lts_2023080218container_internal12raw_hash_setINS1_17FlatHashMapPolicyISt17basic_string_viewIcSt11char_traitsIcEENSt7__cxx1112basic_stringIcS6_SaIcEEEEENS1_10StringHashENS1_8StringEqESaISt4pairIKS7_SB_EEE27drop_deletes_without_resizeEv = comdat any

$_ZN4absl12lts_2023080218container_internal12raw_hash_setINS1_17FlatHashMapPolicyISt17basic_string_viewIcSt11char_traitsIcEENSt7__cxx1112basic_stringIcS6_SaIcEEEEENS1_10StringHashENS1_8StringEqESaISt4pairIKS7_SB_EEE18GetPolicyFunctionsEv = comdat any

$_ZN4absl12lts_2023080218container_internal12raw_hash_setINS1_17FlatHashMapPolicyISt17basic_string_viewIcSt11char_traitsIcEENSt7__cxx1112basic_stringIcS6_SaIcEEEEENS1_10StringHashENS1_8StringEqESaISt4pairIKS7_SB_EEE12hash_slot_fnEPvSK_ = comdat any

$_ZN4absl12lts_2023080218container_internal12raw_hash_setINS1_17FlatHashMapPolicyISt17basic_string_viewIcSt11char_traitsIcEENSt7__cxx1112basic_stringIcS6_SaIcEEEEENS1_10StringHashENS1_8StringEqESaISt4pairIKS7_SB_EEE16transfer_slot_fnEPvSK_SK_ = comdat any

$_ZN4absl12lts_2023080218container_internal18DeallocateStandardILm8EEEvRNS1_12CommonFieldsERKNS1_15PolicyFunctionsE = comdat any

$_ZN4absl12lts_2023080218container_internal10DeallocateILm8ESaIcEEEvPT0_Pvm = comdat any

$_ZNK4absl12lts_2023080218container_internal12CommonFields10alloc_sizeEmm = comdat any

$_ZNR4absl12lts_2023080218container_internal15CompressedTupleIJmNS1_20HashtablezInfoHandleEEE3getILi0EEERNS1_25internal_compressed_tuple4ElemIS4_XT_EE4typeEv = comdat any

$_ZNR4absl12lts_2023080218container_internal25internal_compressed_tuple7StorageImLm0ELb0EE3getEv = comdat any

$_ZNKR4absl12lts_2023080218container_internal15CompressedTupleIJmNS1_20HashtablezInfoHandleEEE3getILi0EEERKNS1_25internal_compressed_tuple4ElemIS4_XT_EE4typeEv = comdat any

$_ZNKR4absl12lts_2023080218container_internal25internal_compressed_tuple7StorageImLm0ELb0EE3getEv = comdat any

$_ZN4absl12lts_2023080218container_internal7SetCtrlERKNS1_12CommonFieldsEmNS1_6ctrl_tEm = comdat any

$_ZN4absl12lts_2023080218container_internal20common_policy_traitsINS1_17FlatHashMapPolicyISt17basic_string_viewIcSt11char_traitsIcEENSt7__cxx1112basic_stringIcS6_SaIcEEEEEvE9constructISaISt4pairIKS7_SB_EEJRKSt21piecewise_construct_tSt5tupleIJRA5_KcEESM_IJEEEEEvPT_PNS1_13map_slot_typeIS7_SB_EEDpOT0_ = comdat any

$_ZN4absl12lts_2023080218container_internal17FlatHashMapPolicyISt17basic_string_viewIcSt11char_traitsIcEENSt7__cxx1112basic_stringIcS5_SaIcEEEE9constructISaISt4pairIKS6_SA_EEJRKSt21piecewise_construct_tSt5tupleIJRA5_KcEESK_IJEEEEEvPT_PNS1_13map_slot_typeIS6_SA_EEDpOT0_ = comdat any

$_ZN4absl12lts_2023080218container_internal15map_slot_policyISt17basic_string_viewIcSt11char_traitsIcEENSt7__cxx1112basic_stringIcS5_SaIcEEEE9constructISaISt4pairIKS6_SA_EEJRKSt21piecewise_construct_tSt5tupleIJRA5_KcEESK_IJEEEEEvPT_PNS1_13map_slot_typeIS6_SA_EEDpOT0_ = comdat any

$_ZNSt16allocator_traitsISaISt4pairIKSt17basic_string_viewIcSt11char_traitsIcEENSt7__cxx1112basic_stringIcS3_SaIcEEEEEE9constructIS0_IS4_S9_EJRKSt21piecewise_construct_tSt5tupleIJRA5_KcEESI_IJEEEEEvRSB_PT_DpOT0_ = comdat any

$_ZNSt15__new_allocatorISt4pairIKSt17basic_string_viewIcSt11char_traitsIcEENSt7__cxx1112basic_stringIcS3_SaIcEEEEE9constructIS0_IS4_S9_EJRKSt21piecewise_construct_tSt5tupleIJRA5_KcEESH_IJEEEEEvPT_DpOT0_ = comdat any

$_ZNSt5tupleIJRA5_KcEEC2EOS3_ = comdat any

$_ZNSt4pairISt17basic_string_viewIcSt11char_traitsIcEENSt7__cxx1112basic_stringIcS2_SaIcEEEEC2IJRA5_KcEJEEESt21piecewise_construct_tSt5tupleIJDpT_EESE_IJDpT0_EE = comdat any

$_ZNSt11_Tuple_implILm0EJRA5_KcEEC2EOS3_ = comdat any

$_ZNSt4pairISt17basic_string_viewIcSt11char_traitsIcEENSt7__cxx1112basic_stringIcS2_SaIcEEEEC2IJRA5_KcEJLm0EEJETpTnmJEEERSt5tupleIJDpT_EERSD_IJDpT1_EESt12_Index_tupleIJXspT0_EEESM_IJXspT2_EEE = comdat any

$_ZSt3getILm0EJRA5_KcEERNSt13tuple_elementIXT_ESt5tupleIJDpT0_EEE4typeERS7_ = comdat any

$_ZSt12__get_helperILm0ERA5_KcJEERT0_RSt11_Tuple_implIXT_EJS3_DpT1_EE = comdat any

$_ZNSt11_Tuple_implILm0EJRA5_KcEE7_M_headERS3_ = comdat any

$_ZNSt10_Head_baseILm0ERA5_KcLb0EE7_M_headERS3_ = comdat any

$_ZNSt5tupleIJRA5_KcEEC2ILb1ETnNSt9enable_ifIXclsr4_TCCIXT_EEE29__is_implicitly_constructibleIS2_EEEbE4typeELb1EEES2_ = comdat any

$_ZNSt11_Tuple_implILm0EJRA5_KcEEC2ES2_ = comdat any

$_ZNSt10_Head_baseILm0ERA5_KcLb0EEC2ES2_ = comdat any

$_ZNK4absl12lts_2023080218container_internal34CommonFieldsGenerationInfoDisabled14generation_ptrEv = comdat any

$_ZN4absl12lts_2023080218container_internal12raw_hash_setINS1_17FlatHashMapPolicyISt17basic_string_viewIcSt11char_traitsIcEENSt7__cxx1112basic_stringIcS6_SaIcEEEEENS1_10StringHashENS1_8StringEqESaISt4pairIKS7_SB_EEE8iteratorC2EPNS1_6ctrl_tEPNS1_13map_slot_typeIS7_SB_EEPKh = comdat any

$_ZN4absl12lts_2023080218container_internal37HashSetIteratorGenerationInfoDisabledC2EPKh = comdat any

$_ZN4absl12lts_2023080218container_internal12AssertIsFullEPKNS1_6ctrl_tEhPKhPKc = comdat any

$_ZNK4absl12lts_2023080218container_internal37HashSetIteratorGenerationInfoDisabled10generationEv = comdat any

$_ZNK4absl12lts_2023080218container_internal37HashSetIteratorGenerationInfoDisabled14generation_ptrEv = comdat any

$_ZN4absl12lts_2023080218container_internal12raw_hash_mapINS1_17FlatHashMapPolicyISt17basic_string_viewIcSt11char_traitsIcEENSt7__cxx1112basic_stringIcS6_SaIcEEEEENS1_10StringHashENS1_8StringEqESaISt4pairIKS7_SB_EEE11try_emplaceIA11_cJETnNSt9enable_ifIXntsr3std14is_convertibleIT_NS1_12raw_hash_setISC_SD_SE_SI_E14const_iteratorEEE5valueEiE4typeELi0EEESF_INSP_8iteratorEbERKSN_DpOT0_ = comdat any

$_ZN4absl12lts_2023080218container_internal12raw_hash_mapINS1_17FlatHashMapPolicyISt17basic_string_viewIcSt11char_traitsIcEENSt7__cxx1112basic_stringIcS6_SaIcEEEEENS1_10StringHashENS1_8StringEqESaISt4pairIKS7_SB_EEE16try_emplace_implIRA11_KcJEEESF_INS1_12raw_hash_setISC_SD_SE_SI_E8iteratorEbEOT_DpOT0_ = comdat any

$_ZN4absl12lts_2023080218container_internal12raw_hash_setINS1_17FlatHashMapPolicyISt17basic_string_viewIcSt11char_traitsIcEENSt7__cxx1112basic_stringIcS6_SaIcEEEEENS1_10StringHashENS1_8StringEqESaISt4pairIKS7_SB_EEE22find_or_prepare_insertIA11_cEESF_ImbERKT_ = comdat any

$_ZN4absl12lts_2023080218container_internal12raw_hash_setINS1_17FlatHashMapPolicyISt17basic_string_viewIcSt11char_traitsIcEENSt7__cxx1112basic_stringIcS6_SaIcEEEEENS1_10StringHashENS1_8StringEqESaISt4pairIKS7_SB_EEE10emplace_atIJRKSt21piecewise_construct_tSt5tupleIJRA11_KcEESO_IJEEEEEvmDpOT_ = comdat any

$_ZSt16forward_as_tupleIJRA11_KcEESt5tupleIJDpOT_EES6_ = comdat any

$_ZN4absl12lts_2023080218container_internal18hash_policy_traitsINS1_17FlatHashMapPolicyISt17basic_string_viewIcSt11char_traitsIcEENSt7__cxx1112basic_stringIcS6_SaIcEEEEEvE5applyINS1_12raw_hash_setISC_NS1_10StringHashENS1_8StringEqESaISt4pairIKS7_SB_EEE12EqualElementIA11_cEEJRSK_ESC_EEDTclsrT1_5applyclsr3stdE7forwardIT_Efp_Espclsr3stdE7forwardIT0_Efp0_EEEOSS_DpOST_ = comdat any

$_ZN4absl12lts_2023080218container_internal17FlatHashMapPolicyISt17basic_string_viewIcSt11char_traitsIcEENSt7__cxx1112basic_stringIcS5_SaIcEEEE5applyINS1_12raw_hash_setISB_NS1_10StringHashENS1_8StringEqESaISt4pairIKS6_SA_EEE12EqualElementIA11_cEEJRSI_EEEDTclsr4absl18container_internalE13DecomposePairclsr3stdE7declvalIT_EEspclsr3stdE7declvalIT0_EEEEOSP_DpOSQ_ = comdat any

$_ZN4absl12lts_2023080218container_internal13DecomposePairINS1_12raw_hash_setINS1_17FlatHashMapPolicyISt17basic_string_viewIcSt11char_traitsIcEENSt7__cxx1112basic_stringIcS7_SaIcEEEEENS1_10StringHashENS1_8StringEqESaISt4pairIKS8_SC_EEE12EqualElementIA11_cEEJRSI_EEEDTclsr15memory_internalE17DecomposePairImplclsr3stdE7forwardIT_Efp_Ecl8PairArgsspclsr3stdE7forwardIT0_Efp0_EEEEOSP_DpOSQ_ = comdat any

$_ZN4absl12lts_2023080218container_internal15memory_internal17DecomposePairImplINS1_12raw_hash_setINS1_17FlatHashMapPolicyISt17basic_string_viewIcSt11char_traitsIcEENSt7__cxx1112basic_stringIcS8_SaIcEEEEENS1_10StringHashENS1_8StringEqESaISt4pairIKS9_SD_EEE12EqualElementIA11_cEERSI_St5tupleIJRKSD_EEEEDTclclsr3stdE7declvalIT_EEclsr3stdE7declvalIRKT0_EEL_ZSt19piecewise_constructEclsr3stdE7declvalISQ_IJSV_EEEEclsr3stdE7declvalIT1_EEEEOSU_SH_ISY_SZ_E = comdat any

$_ZNK4absl12lts_2023080218container_internal12raw_hash_setINS1_17FlatHashMapPolicyISt17basic_string_viewIcSt11char_traitsIcEENSt7__cxx1112basic_stringIcS6_SaIcEEEEENS1_10StringHashENS1_8StringEqESaISt4pairIKS7_SB_EEE12EqualElementIA11_cEclIS7_JRKSt21piecewise_construct_tSt5tupleIJRSG_EESR_IJRKSB_EEEEEbRKT_DpOT0_ = comdat any

$_ZN4absl12lts_2023080218container_internal20common_policy_traitsINS1_17FlatHashMapPolicyISt17basic_string_viewIcSt11char_traitsIcEENSt7__cxx1112basic_stringIcS6_SaIcEEEEEvE9constructISaISt4pairIKS7_SB_EEJRKSt21piecewise_construct_tSt5tupleIJRA11_KcEESM_IJEEEEEvPT_PNS1_13map_slot_typeIS7_SB_EEDpOT0_ = comdat any

$_ZN4absl12lts_2023080218container_internal17FlatHashMapPolicyISt17basic_string_viewIcSt11char_traitsIcEENSt7__cxx1112basic_stringIcS5_SaIcEEEE9constructISaISt4pairIKS6_SA_EEJRKSt21piecewise_construct_tSt5tupleIJRA11_KcEESK_IJEEEEEvPT_PNS1_13map_slot_typeIS6_SA_EEDpOT0_ = comdat any

$_ZN4absl12lts_2023080218container_internal15map_slot_policyISt17basic_string_viewIcSt11char_traitsIcEENSt7__cxx1112basic_stringIcS5_SaIcEEEE9constructISaISt4pairIKS6_SA_EEJRKSt21piecewise_construct_tSt5tupleIJRA11_KcEESK_IJEEEEEvPT_PNS1_13map_slot_typeIS6_SA_EEDpOT0_ = comdat any

$_ZNSt16allocator_traitsISaISt4pairIKSt17basic_string_viewIcSt11char_traitsIcEENSt7__cxx1112basic_stringIcS3_SaIcEEEEEE9constructIS0_IS4_S9_EJRKSt21piecewise_construct_tSt5tupleIJRA11_KcEESI_IJEEEEEvRSB_PT_DpOT0_ = comdat any

$_ZNSt15__new_allocatorISt4pairIKSt17basic_string_viewIcSt11char_traitsIcEENSt7__cxx1112basic_stringIcS3_SaIcEEEEE9constructIS0_IS4_S9_EJRKSt21piecewise_construct_tSt5tupleIJRA11_KcEESH_IJEEEEEvPT_DpOT0_ = comdat any

$_ZNSt5tupleIJRA11_KcEEC2EOS3_ = comdat any

$_ZNSt4pairISt17basic_string_viewIcSt11char_traitsIcEENSt7__cxx1112basic_stringIcS2_SaIcEEEEC2IJRA11_KcEJEEESt21piecewise_construct_tSt5tupleIJDpT_EESE_IJDpT0_EE = comdat any

$_ZNSt11_Tuple_implILm0EJRA11_KcEEC2EOS3_ = comdat any

$_ZNSt4pairISt17basic_string_viewIcSt11char_traitsIcEENSt7__cxx1112basic_stringIcS2_SaIcEEEEC2IJRA11_KcEJLm0EEJETpTnmJEEERSt5tupleIJDpT_EERSD_IJDpT1_EESt12_Index_tupleIJXspT0_EEESM_IJXspT2_EEE = comdat any

$_ZSt3getILm0EJRA11_KcEERNSt13tuple_elementIXT_ESt5tupleIJDpT0_EEE4typeERS7_ = comdat any

$_ZSt12__get_helperILm0ERA11_KcJEERT0_RSt11_Tuple_implIXT_EJS3_DpT1_EE = comdat any

$_ZNSt11_Tuple_implILm0EJRA11_KcEE7_M_headERS3_ = comdat any

$_ZNSt10_Head_baseILm0ERA11_KcLb0EE7_M_headERS3_ = comdat any

$_ZNSt5tupleIJRA11_KcEEC2ILb1ETnNSt9enable_ifIXclsr4_TCCIXT_EEE29__is_implicitly_constructibleIS2_EEEbE4typeELb1EEES2_ = comdat any

$_ZNSt11_Tuple_implILm0EJRA11_KcEEC2ES2_ = comdat any

$_ZNSt10_Head_baseILm0ERA11_KcLb0EEC2ES2_ = comdat any

$_ZN4absl12lts_2023080218container_internal12raw_hash_mapINS1_17FlatHashMapPolicyISt17basic_string_viewIcSt11char_traitsIcEENSt7__cxx1112basic_stringIcS6_SaIcEEEEENS1_10StringHashENS1_8StringEqESaISt4pairIKS7_SB_EEE11try_emplaceIA8_cJETnNSt9enable_ifIXntsr3std14is_convertibleIT_NS1_12raw_hash_setISC_SD_SE_SI_E14const_iteratorEEE5valueEiE4typeELi0EEESF_INSP_8iteratorEbERKSN_DpOT0_ = comdat any

$_ZN4absl12lts_2023080218container_internal12raw_hash_mapINS1_17FlatHashMapPolicyISt17basic_string_viewIcSt11char_traitsIcEENSt7__cxx1112basic_stringIcS6_SaIcEEEEENS1_10StringHashENS1_8StringEqESaISt4pairIKS7_SB_EEE16try_emplace_implIRA8_KcJEEESF_INS1_12raw_hash_setISC_SD_SE_SI_E8iteratorEbEOT_DpOT0_ = comdat any

$_ZN4absl12lts_2023080218container_internal12raw_hash_setINS1_17FlatHashMapPolicyISt17basic_string_viewIcSt11char_traitsIcEENSt7__cxx1112basic_stringIcS6_SaIcEEEEENS1_10StringHashENS1_8StringEqESaISt4pairIKS7_SB_EEE22find_or_prepare_insertIA8_cEESF_ImbERKT_ = comdat any

$_ZN4absl12lts_2023080218container_internal12raw_hash_setINS1_17FlatHashMapPolicyISt17basic_string_viewIcSt11char_traitsIcEENSt7__cxx1112basic_stringIcS6_SaIcEEEEENS1_10StringHashENS1_8StringEqESaISt4pairIKS7_SB_EEE10emplace_atIJRKSt21piecewise_construct_tSt5tupleIJRA8_KcEESO_IJEEEEEvmDpOT_ = comdat any

$_ZSt16forward_as_tupleIJRA8_KcEESt5tupleIJDpOT_EES6_ = comdat any

$_ZN4absl12lts_2023080218container_internal18hash_policy_traitsINS1_17FlatHashMapPolicyISt17basic_string_viewIcSt11char_traitsIcEENSt7__cxx1112basic_stringIcS6_SaIcEEEEEvE5applyINS1_12raw_hash_setISC_NS1_10StringHashENS1_8StringEqESaISt4pairIKS7_SB_EEE12EqualElementIA8_cEEJRSK_ESC_EEDTclsrT1_5applyclsr3stdE7forwardIT_Efp_Espclsr3stdE7forwardIT0_Efp0_EEEOSS_DpOST_ = comdat any

$_ZN4absl12lts_2023080218container_internal17FlatHashMapPolicyISt17basic_string_viewIcSt11char_traitsIcEENSt7__cxx1112basic_stringIcS5_SaIcEEEE5applyINS1_12raw_hash_setISB_NS1_10StringHashENS1_8StringEqESaISt4pairIKS6_SA_EEE12EqualElementIA8_cEEJRSI_EEEDTclsr4absl18container_internalE13DecomposePairclsr3stdE7declvalIT_EEspclsr3stdE7declvalIT0_EEEEOSP_DpOSQ_ = comdat any

$_ZN4absl12lts_2023080218container_internal13DecomposePairINS1_12raw_hash_setINS1_17FlatHashMapPolicyISt17basic_string_viewIcSt11char_traitsIcEENSt7__cxx1112basic_stringIcS7_SaIcEEEEENS1_10StringHashENS1_8StringEqESaISt4pairIKS8_SC_EEE12EqualElementIA8_cEEJRSI_EEEDTclsr15memory_internalE17DecomposePairImplclsr3stdE7forwardIT_Efp_Ecl8PairArgsspclsr3stdE7forwardIT0_Efp0_EEEEOSP_DpOSQ_ = comdat any

$_ZN4absl12lts_2023080218container_internal15memory_internal17DecomposePairImplINS1_12raw_hash_setINS1_17FlatHashMapPolicyISt17basic_string_viewIcSt11char_traitsIcEENSt7__cxx1112basic_stringIcS8_SaIcEEEEENS1_10StringHashENS1_8StringEqESaISt4pairIKS9_SD_EEE12EqualElementIA8_cEERSI_St5tupleIJRKSD_EEEEDTclclsr3stdE7declvalIT_EEclsr3stdE7declvalIRKT0_EEL_ZSt19piecewise_constructEclsr3stdE7declvalISQ_IJSV_EEEEclsr3stdE7declvalIT1_EEEEOSU_SH_ISY_SZ_E = comdat any

$_ZNK4absl12lts_2023080218container_internal12raw_hash_setINS1_17FlatHashMapPolicyISt17basic_string_viewIcSt11char_traitsIcEENSt7__cxx1112basic_stringIcS6_SaIcEEEEENS1_10StringHashENS1_8StringEqESaISt4pairIKS7_SB_EEE12EqualElementIA8_cEclIS7_JRKSt21piecewise_construct_tSt5tupleIJRSG_EESR_IJRKSB_EEEEEbRKT_DpOT0_ = comdat any

$_ZN4absl12lts_2023080218container_internal20common_policy_traitsINS1_17FlatHashMapPolicyISt17basic_string_viewIcSt11char_traitsIcEENSt7__cxx1112basic_stringIcS6_SaIcEEEEEvE9constructISaISt4pairIKS7_SB_EEJRKSt21piecewise_construct_tSt5tupleIJRA8_KcEESM_IJEEEEEvPT_PNS1_13map_slot_typeIS7_SB_EEDpOT0_ = comdat any

$_ZN4absl12lts_2023080218container_internal17FlatHashMapPolicyISt17basic_string_viewIcSt11char_traitsIcEENSt7__cxx1112basic_stringIcS5_SaIcEEEE9constructISaISt4pairIKS6_SA_EEJRKSt21piecewise_construct_tSt5tupleIJRA8_KcEESK_IJEEEEEvPT_PNS1_13map_slot_typeIS6_SA_EEDpOT0_ = comdat any

$_ZN4absl12lts_2023080218container_internal15map_slot_policyISt17basic_string_viewIcSt11char_traitsIcEENSt7__cxx1112basic_stringIcS5_SaIcEEEE9constructISaISt4pairIKS6_SA_EEJRKSt21piecewise_construct_tSt5tupleIJRA8_KcEESK_IJEEEEEvPT_PNS1_13map_slot_typeIS6_SA_EEDpOT0_ = comdat any

$_ZNSt16allocator_traitsISaISt4pairIKSt17basic_string_viewIcSt11char_traitsIcEENSt7__cxx1112basic_stringIcS3_SaIcEEEEEE9constructIS0_IS4_S9_EJRKSt21piecewise_construct_tSt5tupleIJRA8_KcEESI_IJEEEEEvRSB_PT_DpOT0_ = comdat any

$_ZNSt15__new_allocatorISt4pairIKSt17basic_string_viewIcSt11char_traitsIcEENSt7__cxx1112basic_stringIcS3_SaIcEEEEE9constructIS0_IS4_S9_EJRKSt21piecewise_construct_tSt5tupleIJRA8_KcEESH_IJEEEEEvPT_DpOT0_ = comdat any

$_ZNSt5tupleIJRA8_KcEEC2EOS3_ = comdat any

$_ZNSt4pairISt17basic_string_viewIcSt11char_traitsIcEENSt7__cxx1112basic_stringIcS2_SaIcEEEEC2IJRA8_KcEJEEESt21piecewise_construct_tSt5tupleIJDpT_EESE_IJDpT0_EE = comdat any

$_ZNSt11_Tuple_implILm0EJRA8_KcEEC2EOS3_ = comdat any

$_ZNSt4pairISt17basic_string_viewIcSt11char_traitsIcEENSt7__cxx1112basic_stringIcS2_SaIcEEEEC2IJRA8_KcEJLm0EEJETpTnmJEEERSt5tupleIJDpT_EERSD_IJDpT1_EESt12_Index_tupleIJXspT0_EEESM_IJXspT2_EEE = comdat any

$_ZSt3getILm0EJRA8_KcEERNSt13tuple_elementIXT_ESt5tupleIJDpT0_EEE4typeERS7_ = comdat any

$_ZSt12__get_helperILm0ERA8_KcJEERT0_RSt11_Tuple_implIXT_EJS3_DpT1_EE = comdat any

$_ZNSt11_Tuple_implILm0EJRA8_KcEE7_M_headERS3_ = comdat any

$_ZNSt10_Head_baseILm0ERA8_KcLb0EE7_M_headERS3_ = comdat any

$_ZNSt5tupleIJRA8_KcEEC2ILb1ETnNSt9enable_ifIXclsr4_TCCIXT_EEE29__is_implicitly_constructibleIS2_EEEbE4typeELb1EEES2_ = comdat any

$_ZNSt11_Tuple_implILm0EJRA8_KcEEC2ES2_ = comdat any

$_ZNSt10_Head_baseILm0ERA8_KcLb0EEC2ES2_ = comdat any

$_ZN4absl12lts_2023080218container_internal12raw_hash_setINS1_17FlatHashMapPolicyISt17basic_string_viewIcSt11char_traitsIcEENSt7__cxx1112basic_stringIcS6_SaIcEEEEENS1_10StringHashENS1_8StringEqESaISt4pairIKS7_SB_EEE7emplaceIJSF_IS7_SB_EETnNSt9enable_ifIXsr14IsDecomposableIDpT_EE5valueEiE4typeELi0EEESF_INSJ_8iteratorEbEDpOSN_ = comdat any

$_ZN4absl12lts_2023080218container_internal18hash_policy_traitsINS1_17FlatHashMapPolicyISt17basic_string_viewIcSt11char_traitsIcEENSt7__cxx1112basic_stringIcS6_SaIcEEEEEvE5applyINS1_12raw_hash_setISC_NS1_10StringHashENS1_8StringEqESaISt4pairIKS7_SB_EEE19EmplaceDecomposableEJSI_IS7_SB_EESC_EEDTclsrT1_5applyclsr3stdE7forwardIT_Efp_Espclsr3stdE7forwardIT0_Efp0_EEEOSQ_DpOSR_ = comdat any

$_ZN4absl12lts_2023080218container_internal17FlatHashMapPolicyISt17basic_string_viewIcSt11char_traitsIcEENSt7__cxx1112basic_stringIcS5_SaIcEEEE5applyINS1_12raw_hash_setISB_NS1_10StringHashENS1_8StringEqESaISt4pairIKS6_SA_EEE19EmplaceDecomposableEJSG_IS6_SA_EEEEDTclsr4absl18container_internalE13DecomposePairclsr3stdE7declvalIT_EEspclsr3stdE7declvalIT0_EEEEOSN_DpOSO_ = comdat any

$_ZN4absl12lts_2023080218container_internal13DecomposePairINS1_12raw_hash_setINS1_17FlatHashMapPolicyISt17basic_string_viewIcSt11char_traitsIcEENSt7__cxx1112basic_stringIcS7_SaIcEEEEENS1_10StringHashENS1_8StringEqESaISt4pairIKS8_SC_EEE19EmplaceDecomposableEJSG_IS8_SC_EEEEDTclsr15memory_internalE17DecomposePairImplclsr3stdE7forwardIT_Efp_Ecl8PairArgsspclsr3stdE7forwardIT0_Efp0_EEEEOSN_DpOSO_ = comdat any

$_ZN4absl12lts_2023080218container_internal15memory_internal17DecomposePairImplINS1_12raw_hash_setINS1_17FlatHashMapPolicyISt17basic_string_viewIcSt11char_traitsIcEENSt7__cxx1112basic_stringIcS8_SaIcEEEEENS1_10StringHashENS1_8StringEqESaISt4pairIKS9_SD_EEE19EmplaceDecomposableEOS9_St5tupleIJOSD_EEEEDTclclsr3stdE7declvalIT_EEclsr3stdE7declvalIRKT0_EEL_ZSt19piecewise_constructEclsr3stdE7declvalISO_IJSS_EEEEclsr3stdE7declvalIT1_EEEEOSR_SH_ISV_SW_E = comdat any

$_ZN4absl12lts_2023080218container_internal8PairArgsISt17basic_string_viewIcSt11char_traitsIcEENSt7__cxx1112basic_stringIcS5_SaIcEEEEESt4pairISt5tupleIJOT_EESC_IJOT0_EEEOSB_ISD_SG_E = comdat any

$_ZSt3getILm0EJOSt17basic_string_viewIcSt11char_traitsIcEEEERNSt13tuple_elementIXT_ESt5tupleIJDpT0_EEE4typeERS9_ = comdat any

$_ZNK4absl12lts_2023080218container_internal12raw_hash_setINS1_17FlatHashMapPolicyISt17basic_string_viewIcSt11char_traitsIcEENSt7__cxx1112basic_stringIcS6_SaIcEEEEENS1_10StringHashENS1_8StringEqESaISt4pairIKS7_SB_EEE19EmplaceDecomposableclIS7_JRKSt21piecewise_construct_tSt5tupleIJOS7_EESP_IJOSB_EEEEESF_INSJ_8iteratorEbERKT_DpOT0_ = comdat any

$_ZSt12__get_helperILm0EOSt17basic_string_viewIcSt11char_traitsIcEEJEERT0_RSt11_Tuple_implIXT_EJS5_DpT1_EE = comdat any

$_ZNSt11_Tuple_implILm0EJOSt17basic_string_viewIcSt11char_traitsIcEEEE7_M_headERS5_ = comdat any

$_ZNSt10_Head_baseILm0EOSt17basic_string_viewIcSt11char_traitsIcEELb0EE7_M_headERS5_ = comdat any

$_ZN4absl12lts_2023080218container_internal12raw_hash_setINS1_17FlatHashMapPolicyISt17basic_string_viewIcSt11char_traitsIcEENSt7__cxx1112basic_stringIcS6_SaIcEEEEENS1_10StringHashENS1_8StringEqESaISt4pairIKS7_SB_EEE22find_or_prepare_insertIS7_EESF_ImbERKT_ = comdat any

$_ZN4absl12lts_2023080218container_internal12raw_hash_setINS1_17FlatHashMapPolicyISt17basic_string_viewIcSt11char_traitsIcEENSt7__cxx1112basic_stringIcS6_SaIcEEEEENS1_10StringHashENS1_8StringEqESaISt4pairIKS7_SB_EEE10emplace_atIJRKSt21piecewise_construct_tSt5tupleIJOS7_EESO_IJOSB_EEEEEvmDpOT_ = comdat any

$_ZN4absl12lts_2023080218container_internal18hash_policy_traitsINS1_17FlatHashMapPolicyISt17basic_string_viewIcSt11char_traitsIcEENSt7__cxx1112basic_stringIcS6_SaIcEEEEEvE5applyINS1_12raw_hash_setISC_NS1_10StringHashENS1_8StringEqESaISt4pairIKS7_SB_EEE12EqualElementIS7_EEJRSK_ESC_EEDTclsrT1_5applyclsr3stdE7forwardIT_Efp_Espclsr3stdE7forwardIT0_Efp0_EEEOSR_DpOSS_ = comdat any

$_ZN4absl12lts_2023080218container_internal17FlatHashMapPolicyISt17basic_string_viewIcSt11char_traitsIcEENSt7__cxx1112basic_stringIcS5_SaIcEEEE5applyINS1_12raw_hash_setISB_NS1_10StringHashENS1_8StringEqESaISt4pairIKS6_SA_EEE12EqualElementIS6_EEJRSI_EEEDTclsr4absl18container_internalE13DecomposePairclsr3stdE7declvalIT_EEspclsr3stdE7declvalIT0_EEEEOSO_DpOSP_ = comdat any

$_ZN4absl12lts_2023080218container_internal13DecomposePairINS1_12raw_hash_setINS1_17FlatHashMapPolicyISt17basic_string_viewIcSt11char_traitsIcEENSt7__cxx1112basic_stringIcS7_SaIcEEEEENS1_10StringHashENS1_8StringEqESaISt4pairIKS8_SC_EEE12EqualElementIS8_EEJRSI_EEEDTclsr15memory_internalE17DecomposePairImplclsr3stdE7forwardIT_Efp_Ecl8PairArgsspclsr3stdE7forwardIT0_Efp0_EEEEOSO_DpOSP_ = comdat any

$_ZN4absl12lts_2023080218container_internal15memory_internal17DecomposePairImplINS1_12raw_hash_setINS1_17FlatHashMapPolicyISt17basic_string_viewIcSt11char_traitsIcEENSt7__cxx1112basic_stringIcS8_SaIcEEEEENS1_10StringHashENS1_8StringEqESaISt4pairIKS9_SD_EEE12EqualElementIS9_EERSI_St5tupleIJRKSD_EEEEDTclclsr3stdE7declvalIT_EEclsr3stdE7declvalIRKT0_EEL_ZSt19piecewise_constructEclsr3stdE7declvalISP_IJSU_EEEEclsr3stdE7declvalIT1_EEEEOST_SH_ISX_SY_E = comdat any

$_ZNK4absl12lts_2023080218container_internal12raw_hash_setINS1_17FlatHashMapPolicyISt17basic_string_viewIcSt11char_traitsIcEENSt7__cxx1112basic_stringIcS6_SaIcEEEEENS1_10StringHashENS1_8StringEqESaISt4pairIKS7_SB_EEE12EqualElementIS7_EclIS7_JRKSt21piecewise_construct_tSt5tupleIJRSG_EESQ_IJRKSB_EEEEEbRKT_DpOT0_ = comdat any

$_ZN4absl12lts_2023080218container_internal20common_policy_traitsINS1_17FlatHashMapPolicyISt17basic_string_viewIcSt11char_traitsIcEENSt7__cxx1112basic_stringIcS6_SaIcEEEEEvE9constructISaISt4pairIKS7_SB_EEJRKSt21piecewise_construct_tSt5tupleIJOS7_EESM_IJOSB_EEEEEvPT_PNS1_13map_slot_typeIS7_SB_EEDpOT0_ = comdat any

$_ZN4absl12lts_2023080218container_internal17FlatHashMapPolicyISt17basic_string_viewIcSt11char_traitsIcEENSt7__cxx1112basic_stringIcS5_SaIcEEEE9constructISaISt4pairIKS6_SA_EEJRKSt21piecewise_construct_tSt5tupleIJOS6_EESK_IJOSA_EEEEEvPT_PNS1_13map_slot_typeIS6_SA_EEDpOT0_ = comdat any

$_ZN4absl12lts_2023080218container_internal15map_slot_policyISt17basic_string_viewIcSt11char_traitsIcEENSt7__cxx1112basic_stringIcS5_SaIcEEEE9constructISaISt4pairIKS6_SA_EEJRKSt21piecewise_construct_tSt5tupleIJOS6_EESK_IJOSA_EEEEEvPT_PNS1_13map_slot_typeIS6_SA_EEDpOT0_ = comdat any

$_ZNSt16allocator_traitsISaISt4pairIKSt17basic_string_viewIcSt11char_traitsIcEENSt7__cxx1112basic_stringIcS3_SaIcEEEEEE9constructIS0_IS4_S9_EJRKSt21piecewise_construct_tSt5tupleIJOS4_EESI_IJOS9_EEEEEvRSB_PT_DpOT0_ = comdat any

$_ZNSt15__new_allocatorISt4pairIKSt17basic_string_viewIcSt11char_traitsIcEENSt7__cxx1112basic_stringIcS3_SaIcEEEEE9constructIS0_IS4_S9_EJRKSt21piecewise_construct_tSt5tupleIJOS4_EESH_IJOS9_EEEEEvPT_DpOT0_ = comdat any

$_ZNSt5tupleIJOSt17basic_string_viewIcSt11char_traitsIcEEEEC2EOS5_ = comdat any

$_ZNSt5tupleIJONSt7__cxx1112basic_stringIcSt11char_traitsIcESaIcEEEEEC2EOS7_ = comdat any

$_ZNSt4pairISt17basic_string_viewIcSt11char_traitsIcEENSt7__cxx1112basic_stringIcS2_SaIcEEEEC2IJOS3_EJOS7_EEESt21piecewise_construct_tSt5tupleIJDpT_EESD_IJDpT0_EE = comdat any

$_ZNSt11_Tuple_implILm0EJOSt17basic_string_viewIcSt11char_traitsIcEEEEC2EOS5_ = comdat any

$_ZNSt11_Tuple_implILm0EJONSt7__cxx1112basic_stringIcSt11char_traitsIcESaIcEEEEEC2EOS7_ = comdat any

$_ZNSt4pairISt17basic_string_viewIcSt11char_traitsIcEENSt7__cxx1112basic_stringIcS2_SaIcEEEEC2IJOS3_EJLm0EEJOS7_EJLm0EEEERSt5tupleIJDpT_EERSC_IJDpT1_EESt12_Index_tupleIJXspT0_EEESL_IJXspT2_EEE = comdat any

$_ZSt3getILm0EJONSt7__cxx1112basic_stringIcSt11char_traitsIcESaIcEEEEERNSt13tuple_elementIXT_ESt5tupleIJDpT0_EEE4typeERSB_ = comdat any

$_ZSt12__get_helperILm0EONSt7__cxx1112basic_stringIcSt11char_traitsIcESaIcEEEJEERT0_RSt11_Tuple_implIXT_EJS7_DpT1_EE = comdat any

$_ZNSt11_Tuple_implILm0EJONSt7__cxx1112basic_stringIcSt11char_traitsIcESaIcEEEEE7_M_headERS7_ = comdat any

$_ZNSt10_Head_baseILm0EONSt7__cxx1112basic_stringIcSt11char_traitsIcESaIcEEELb0EE7_M_headERS7_ = comdat any

$_ZN4absl12lts_2023080218container_internal8PairArgsISt17basic_string_viewIcSt11char_traitsIcEENSt7__cxx1112basic_stringIcS5_SaIcEEEEESt4pairISt5tupleIJOT_EESC_IJOT0_EEESE_SH_ = comdat any

$_ZSt16forward_as_tupleIJSt17basic_string_viewIcSt11char_traitsIcEEEESt5tupleIJDpOT_EES7_ = comdat any

$_ZSt16forward_as_tupleIJNSt7__cxx1112basic_stringIcSt11char_traitsIcESaIcEEEEESt5tupleIJDpOT_EES9_ = comdat any

$_ZNSt4pairISt5tupleIJOSt17basic_string_viewIcSt11char_traitsIcEEEES0_IJONSt7__cxx1112basic_stringIcS3_SaIcEEEEEEC2IJS5_EJSB_EEESt21piecewise_construct_tS0_IJDpT_EES0_IJDpT0_EE = comdat any

$_ZNSt5tupleIJOSt17basic_string_viewIcSt11char_traitsIcEEEEC2IJS3_ELb1ETnNSt9enable_ifIXclsr4_TCCIXT0_EEE29__is_implicitly_constructibleIDpT_EEEbE4typeELb1EEEDpOS8_ = comdat any

$_ZNSt11_Tuple_implILm0EJOSt17basic_string_viewIcSt11char_traitsIcEEEEC2IS3_EEOT_ = comdat any

$_ZNSt10_Head_baseILm0EOSt17basic_string_viewIcSt11char_traitsIcEELb0EEC2IS3_EEOT_ = comdat any

$_ZNSt5tupleIJONSt7__cxx1112basic_stringIcSt11char_traitsIcESaIcEEEEEC2IJS5_ELb1ETnNSt9enable_ifIXclsr4_TCCIXT0_EEE29__is_implicitly_constructibleIDpT_EEEbE4typeELb1EEEDpOSA_ = comdat any

$_ZNSt11_Tuple_implILm0EJONSt7__cxx1112basic_stringIcSt11char_traitsIcESaIcEEEEEC2IS5_EEOT_ = comdat any

$_ZNSt10_Head_baseILm0EONSt7__cxx1112basic_stringIcSt11char_traitsIcESaIcEEELb0EEC2IS5_EEOT_ = comdat any

$_ZNSt4pairISt5tupleIJOSt17basic_string_viewIcSt11char_traitsIcEEEES0_IJONSt7__cxx1112basic_stringIcS3_SaIcEEEEEEC2IJS5_EJLm0EEJSB_EJLm0EEEERS0_IJDpT_EERS0_IJDpT1_EESt12_Index_tupleIJXspT0_EEESN_IJXspT2_EEE = comdat any

$_ZN4absl12lts_2023080218container_internal12raw_hash_mapINS1_17FlatHashMapPolicyISt17basic_string_viewIcSt11char_traitsIcEENSt7__cxx1112basic_stringIcS6_SaIcEEEEENS1_10StringHashENS1_8StringEqESaISt4pairIKS7_SB_EEE11try_emplaceIA17_cJETnNSt9enable_ifIXntsr3std14is_convertibleIT_NS1_12raw_hash_setISC_SD_SE_SI_E14const_iteratorEEE5valueEiE4typeELi0EEESF_INSP_8iteratorEbERKSN_DpOT0_ = comdat any

$_ZN4absl12lts_2023080218container_internal12raw_hash_mapINS1_17FlatHashMapPolicyISt17basic_string_viewIcSt11char_traitsIcEENSt7__cxx1112basic_stringIcS6_SaIcEEEEENS1_10StringHashENS1_8StringEqESaISt4pairIKS7_SB_EEE16try_emplace_implIRA17_KcJEEESF_INS1_12raw_hash_setISC_SD_SE_SI_E8iteratorEbEOT_DpOT0_ = comdat any

$_ZN4absl12lts_2023080218container_internal12raw_hash_setINS1_17FlatHashMapPolicyISt17basic_string_viewIcSt11char_traitsIcEENSt7__cxx1112basic_stringIcS6_SaIcEEEEENS1_10StringHashENS1_8StringEqESaISt4pairIKS7_SB_EEE22find_or_prepare_insertIA17_cEESF_ImbERKT_ = comdat any

$_ZN4absl12lts_2023080218container_internal12raw_hash_setINS1_17FlatHashMapPolicyISt17basic_string_viewIcSt11char_traitsIcEENSt7__cxx1112basic_stringIcS6_SaIcEEEEENS1_10StringHashENS1_8StringEqESaISt4pairIKS7_SB_EEE10emplace_atIJRKSt21piecewise_construct_tSt5tupleIJRA17_KcEESO_IJEEEEEvmDpOT_ = comdat any

$_ZSt16forward_as_tupleIJRA17_KcEESt5tupleIJDpOT_EES6_ = comdat any

$_ZN4absl12lts_2023080218container_internal18hash_policy_traitsINS1_17FlatHashMapPolicyISt17basic_string_viewIcSt11char_traitsIcEENSt7__cxx1112basic_stringIcS6_SaIcEEEEEvE5applyINS1_12raw_hash_setISC_NS1_10StringHashENS1_8StringEqESaISt4pairIKS7_SB_EEE12EqualElementIA17_cEEJRSK_ESC_EEDTclsrT1_5applyclsr3stdE7forwardIT_Efp_Espclsr3stdE7forwardIT0_Efp0_EEEOSS_DpOST_ = comdat any

$_ZN4absl12lts_2023080218container_internal17FlatHashMapPolicyISt17basic_string_viewIcSt11char_traitsIcEENSt7__cxx1112basic_stringIcS5_SaIcEEEE5applyINS1_12raw_hash_setISB_NS1_10StringHashENS1_8StringEqESaISt4pairIKS6_SA_EEE12EqualElementIA17_cEEJRSI_EEEDTclsr4absl18container_internalE13DecomposePairclsr3stdE7declvalIT_EEspclsr3stdE7declvalIT0_EEEEOSP_DpOSQ_ = comdat any

$_ZN4absl12lts_2023080218container_internal13DecomposePairINS1_12raw_hash_setINS1_17FlatHashMapPolicyISt17basic_string_viewIcSt11char_traitsIcEENSt7__cxx1112basic_stringIcS7_SaIcEEEEENS1_10StringHashENS1_8StringEqESaISt4pairIKS8_SC_EEE12EqualElementIA17_cEEJRSI_EEEDTclsr15memory_internalE17DecomposePairImplclsr3stdE7forwardIT_Efp_Ecl8PairArgsspclsr3stdE7forwardIT0_Efp0_EEEEOSP_DpOSQ_ = comdat any

$_ZN4absl12lts_2023080218container_internal15memory_internal17DecomposePairImplINS1_12raw_hash_setINS1_17FlatHashMapPolicyISt17basic_string_viewIcSt11char_traitsIcEENSt7__cxx1112basic_stringIcS8_SaIcEEEEENS1_10StringHashENS1_8StringEqESaISt4pairIKS9_SD_EEE12EqualElementIA17_cEERSI_St5tupleIJRKSD_EEEEDTclclsr3stdE7declvalIT_EEclsr3stdE7declvalIRKT0_EEL_ZSt19piecewise_constructEclsr3stdE7declvalISQ_IJSV_EEEEclsr3stdE7declvalIT1_EEEEOSU_SH_ISY_SZ_E = comdat any

$_ZNK4absl12lts_2023080218container_internal12raw_hash_setINS1_17FlatHashMapPolicyISt17basic_string_viewIcSt11char_traitsIcEENSt7__cxx1112basic_stringIcS6_SaIcEEEEENS1_10StringHashENS1_8StringEqESaISt4pairIKS7_SB_EEE12EqualElementIA17_cEclIS7_JRKSt21piecewise_construct_tSt5tupleIJRSG_EESR_IJRKSB_EEEEEbRKT_DpOT0_ = comdat any

$_ZN4absl12lts_2023080218container_internal20common_policy_traitsINS1_17FlatHashMapPolicyISt17basic_string_viewIcSt11char_traitsIcEENSt7__cxx1112basic_stringIcS6_SaIcEEEEEvE9constructISaISt4pairIKS7_SB_EEJRKSt21piecewise_construct_tSt5tupleIJRA17_KcEESM_IJEEEEEvPT_PNS1_13map_slot_typeIS7_SB_EEDpOT0_ = comdat any

$_ZN4absl12lts_2023080218container_internal17FlatHashMapPolicyISt17basic_string_viewIcSt11char_traitsIcEENSt7__cxx1112basic_stringIcS5_SaIcEEEE9constructISaISt4pairIKS6_SA_EEJRKSt21piecewise_construct_tSt5tupleIJRA17_KcEESK_IJEEEEEvPT_PNS1_13map_slot_typeIS6_SA_EEDpOT0_ = comdat any

$_ZN4absl12lts_2023080218container_internal15map_slot_policyISt17basic_string_viewIcSt11char_traitsIcEENSt7__cxx1112basic_stringIcS5_SaIcEEEE9constructISaISt4pairIKS6_SA_EEJRKSt21piecewise_construct_tSt5tupleIJRA17_KcEESK_IJEEEEEvPT_PNS1_13map_slot_typeIS6_SA_EEDpOT0_ = comdat any

$_ZNSt16allocator_traitsISaISt4pairIKSt17basic_string_viewIcSt11char_traitsIcEENSt7__cxx1112basic_stringIcS3_SaIcEEEEEE9constructIS0_IS4_S9_EJRKSt21piecewise_construct_tSt5tupleIJRA17_KcEESI_IJEEEEEvRSB_PT_DpOT0_ = comdat any

$_ZNSt15__new_allocatorISt4pairIKSt17basic_string_viewIcSt11char_traitsIcEENSt7__cxx1112basic_stringIcS3_SaIcEEEEE9constructIS0_IS4_S9_EJRKSt21piecewise_construct_tSt5tupleIJRA17_KcEESH_IJEEEEEvPT_DpOT0_ = comdat any

$_ZNSt5tupleIJRA17_KcEEC2EOS3_ = comdat any

$_ZNSt4pairISt17basic_string_viewIcSt11char_traitsIcEENSt7__cxx1112basic_stringIcS2_SaIcEEEEC2IJRA17_KcEJEEESt21piecewise_construct_tSt5tupleIJDpT_EESE_IJDpT0_EE = comdat any

$_ZNSt11_Tuple_implILm0EJRA17_KcEEC2EOS3_ = comdat any

$_ZNSt4pairISt17basic_string_viewIcSt11char_traitsIcEENSt7__cxx1112basic_stringIcS2_SaIcEEEEC2IJRA17_KcEJLm0EEJETpTnmJEEERSt5tupleIJDpT_EERSD_IJDpT1_EESt12_Index_tupleIJXspT0_EEESM_IJXspT2_EEE = comdat any

$_ZSt3getILm0EJRA17_KcEERNSt13tuple_elementIXT_ESt5tupleIJDpT0_EEE4typeERS7_ = comdat any

$_ZSt12__get_helperILm0ERA17_KcJEERT0_RSt11_Tuple_implIXT_EJS3_DpT1_EE = comdat any

$_ZNSt11_Tuple_implILm0EJRA17_KcEE7_M_headERS3_ = comdat any

$_ZNSt10_Head_baseILm0ERA17_KcLb0EE7_M_headERS3_ = comdat any

$_ZNSt5tupleIJRA17_KcEEC2ILb1ETnNSt9enable_ifIXclsr4_TCCIXT_EEE29__is_implicitly_constructibleIS2_EEEbE4typeELb1EEES2_ = comdat any

$_ZNSt11_Tuple_implILm0EJRA17_KcEEC2ES2_ = comdat any

$_ZNSt10_Head_baseILm0ERA17_KcLb0EEC2ES2_ = comdat any

$_ZNK4absl12lts_202308028AlphaNum4dataEv = comdat any

$_ZNK4absl12lts_202308028AlphaNum4sizeEv = comdat any

$_ZN6google8protobuf8internal14WireFormatLite7MakeTagEiNS2_8WireTypeE = comdat any

$_ZN6google8protobuf8internal10WireFormat16WireTypeForFieldEPKNS0_15FieldDescriptorE = comdat any

$_ZN6google8protobuf8internal10WireFormat20WireTypeForFieldTypeENS1_19FieldDescriptorLite4TypeE = comdat any

$_ZN6google8protobuf8internal14WireFormatLite20WireTypeForFieldTypeENS2_9FieldTypeE = comdat any

$_ZN4absl12lts_2023080213implicit_castIiEET_NS0_8internal8identityIS2_E4typeE = comdat any

$_ZNSt17basic_string_viewIcSt11char_traitsIcEEC2EPKcm = comdat any

$_ZN4absl12lts_2023080218container_internal12raw_hash_mapINS1_17FlatHashMapPolicyISt17basic_string_viewIcSt11char_traitsIcEENSt7__cxx1112basic_stringIcS6_SaIcEEEEENS1_10StringHashENS1_8StringEqESaISt4pairIKS7_SB_EEE11try_emplaceIA4_cJETnNSt9enable_ifIXntsr3std14is_convertibleIT_NS1_12raw_hash_setISC_SD_SE_SI_E14const_iteratorEEE5valueEiE4typeELi0EEESF_INSP_8iteratorEbERKSN_DpOT0_ = comdat any

$_ZN4absl12lts_2023080218container_internal12raw_hash_mapINS1_17FlatHashMapPolicyISt17basic_string_viewIcSt11char_traitsIcEENSt7__cxx1112basic_stringIcS6_SaIcEEEEENS1_10StringHashENS1_8StringEqESaISt4pairIKS7_SB_EEE16try_emplace_implIRA4_KcJEEESF_INS1_12raw_hash_setISC_SD_SE_SI_E8iteratorEbEOT_DpOT0_ = comdat any

$_ZN4absl12lts_2023080218container_internal12raw_hash_setINS1_17FlatHashMapPolicyISt17basic_string_viewIcSt11char_traitsIcEENSt7__cxx1112basic_stringIcS6_SaIcEEEEENS1_10StringHashENS1_8StringEqESaISt4pairIKS7_SB_EEE22find_or_prepare_insertIA4_cEESF_ImbERKT_ = comdat any

$_ZN4absl12lts_2023080218container_internal12raw_hash_setINS1_17FlatHashMapPolicyISt17basic_string_viewIcSt11char_traitsIcEENSt7__cxx1112basic_stringIcS6_SaIcEEEEENS1_10StringHashENS1_8StringEqESaISt4pairIKS7_SB_EEE10emplace_atIJRKSt21piecewise_construct_tSt5tupleIJRA4_KcEESO_IJEEEEEvmDpOT_ = comdat any

$_ZSt16forward_as_tupleIJRA4_KcEESt5tupleIJDpOT_EES6_ = comdat any

$_ZN4absl12lts_2023080218container_internal18hash_policy_traitsINS1_17FlatHashMapPolicyISt17basic_string_viewIcSt11char_traitsIcEENSt7__cxx1112basic_stringIcS6_SaIcEEEEEvE5applyINS1_12raw_hash_setISC_NS1_10StringHashENS1_8StringEqESaISt4pairIKS7_SB_EEE12EqualElementIA4_cEEJRSK_ESC_EEDTclsrT1_5applyclsr3stdE7forwardIT_Efp_Espclsr3stdE7forwardIT0_Efp0_EEEOSS_DpOST_ = comdat any

$_ZN4absl12lts_2023080218container_internal17FlatHashMapPolicyISt17basic_string_viewIcSt11char_traitsIcEENSt7__cxx1112basic_stringIcS5_SaIcEEEE5applyINS1_12raw_hash_setISB_NS1_10StringHashENS1_8StringEqESaISt4pairIKS6_SA_EEE12EqualElementIA4_cEEJRSI_EEEDTclsr4absl18container_internalE13DecomposePairclsr3stdE7declvalIT_EEspclsr3stdE7declvalIT0_EEEEOSP_DpOSQ_ = comdat any

$_ZN4absl12lts_2023080218container_internal13DecomposePairINS1_12raw_hash_setINS1_17FlatHashMapPolicyISt17basic_string_viewIcSt11char_traitsIcEENSt7__cxx1112basic_stringIcS7_SaIcEEEEENS1_10StringHashENS1_8StringEqESaISt4pairIKS8_SC_EEE12EqualElementIA4_cEEJRSI_EEEDTclsr15memory_internalE17DecomposePairImplclsr3stdE7forwardIT_Efp_Ecl8PairArgsspclsr3stdE7forwardIT0_Efp0_EEEEOSP_DpOSQ_ = comdat any

$_ZN4absl12lts_2023080218container_internal15memory_internal17DecomposePairImplINS1_12raw_hash_setINS1_17FlatHashMapPolicyISt17basic_string_viewIcSt11char_traitsIcEENSt7__cxx1112basic_stringIcS8_SaIcEEEEENS1_10StringHashENS1_8StringEqESaISt4pairIKS9_SD_EEE12EqualElementIA4_cEERSI_St5tupleIJRKSD_EEEEDTclclsr3stdE7declvalIT_EEclsr3stdE7declvalIRKT0_EEL_ZSt19piecewise_constructEclsr3stdE7declvalISQ_IJSV_EEEEclsr3stdE7declvalIT1_EEEEOSU_SH_ISY_SZ_E = comdat any

$_ZNK4absl12lts_2023080218container_internal12raw_hash_setINS1_17FlatHashMapPolicyISt17basic_string_viewIcSt11char_traitsIcEENSt7__cxx1112basic_stringIcS6_SaIcEEEEENS1_10StringHashENS1_8StringEqESaISt4pairIKS7_SB_EEE12EqualElementIA4_cEclIS7_JRKSt21piecewise_construct_tSt5tupleIJRSG_EESR_IJRKSB_EEEEEbRKT_DpOT0_ = comdat any

$_ZN4absl12lts_2023080218container_internal20common_policy_traitsINS1_17FlatHashMapPolicyISt17basic_string_viewIcSt11char_traitsIcEENSt7__cxx1112basic_stringIcS6_SaIcEEEEEvE9constructISaISt4pairIKS7_SB_EEJRKSt21piecewise_construct_tSt5tupleIJRA4_KcEESM_IJEEEEEvPT_PNS1_13map_slot_typeIS7_SB_EEDpOT0_ = comdat any

$_ZN4absl12lts_2023080218container_internal17FlatHashMapPolicyISt17basic_string_viewIcSt11char_traitsIcEENSt7__cxx1112basic_stringIcS5_SaIcEEEE9constructISaISt4pairIKS6_SA_EEJRKSt21piecewise_construct_tSt5tupleIJRA4_KcEESK_IJEEEEEvPT_PNS1_13map_slot_typeIS6_SA_EEDpOT0_ = comdat any

$_ZN4absl12lts_2023080218container_internal15map_slot_policyISt17basic_string_viewIcSt11char_traitsIcEENSt7__cxx1112basic_stringIcS5_SaIcEEEE9constructISaISt4pairIKS6_SA_EEJRKSt21piecewise_construct_tSt5tupleIJRA4_KcEESK_IJEEEEEvPT_PNS1_13map_slot_typeIS6_SA_EEDpOT0_ = comdat any

$_ZNSt16allocator_traitsISaISt4pairIKSt17basic_string_viewIcSt11char_traitsIcEENSt7__cxx1112basic_stringIcS3_SaIcEEEEEE9constructIS0_IS4_S9_EJRKSt21piecewise_construct_tSt5tupleIJRA4_KcEESI_IJEEEEEvRSB_PT_DpOT0_ = comdat any

$_ZNSt15__new_allocatorISt4pairIKSt17basic_string_viewIcSt11char_traitsIcEENSt7__cxx1112basic_stringIcS3_SaIcEEEEE9constructIS0_IS4_S9_EJRKSt21piecewise_construct_tSt5tupleIJRA4_KcEESH_IJEEEEEvPT_DpOT0_ = comdat any

$_ZNSt5tupleIJRA4_KcEEC2EOS3_ = comdat any

$_ZNSt4pairISt17basic_string_viewIcSt11char_traitsIcEENSt7__cxx1112basic_stringIcS2_SaIcEEEEC2IJRA4_KcEJEEESt21piecewise_construct_tSt5tupleIJDpT_EESE_IJDpT0_EE = comdat any

$_ZNSt11_Tuple_implILm0EJRA4_KcEEC2EOS3_ = comdat any

$_ZNSt4pairISt17basic_string_viewIcSt11char_traitsIcEENSt7__cxx1112basic_stringIcS2_SaIcEEEEC2IJRA4_KcEJLm0EEJETpTnmJEEERSt5tupleIJDpT_EERSD_IJDpT1_EESt12_Index_tupleIJXspT0_EEESM_IJXspT2_EEE = comdat any

$_ZSt3getILm0EJRA4_KcEERNSt13tuple_elementIXT_ESt5tupleIJDpT0_EEE4typeERS7_ = comdat any

$_ZSt12__get_helperILm0ERA4_KcJEERT0_RSt11_Tuple_implIXT_EJS3_DpT1_EE = comdat any

$_ZNSt11_Tuple_implILm0EJRA4_KcEE7_M_headERS3_ = comdat any

$_ZNSt10_Head_baseILm0ERA4_KcLb0EE7_M_headERS3_ = comdat any

$_ZNSt5tupleIJRA4_KcEEC2ILb1ETnNSt9enable_ifIXclsr4_TCCIXT_EEE29__is_implicitly_constructibleIS2_EEEbE4typeELb1EEES2_ = comdat any

$_ZNSt11_Tuple_implILm0EJRA4_KcEEC2ES2_ = comdat any

$_ZNSt10_Head_baseILm0ERA4_KcLb0EEC2ES2_ = comdat any

$_ZN6google8protobuf8internal14WireFormatLite7TagSizeEiNS2_9FieldTypeE = comdat any

$_ZN6google8protobuf2io17CodedOutputStream12VarintSize32Ej = comdat any

$_ZN4absl12lts_2023080211countl_zeroIjEENSt9enable_ifIXsr3std11is_unsignedIT_EE5valueEiE4typeES3_ = comdat any

$_ZN4absl12lts_2023080218container_internal12raw_hash_mapINS1_17FlatHashMapPolicyISt17basic_string_viewIcSt11char_traitsIcEENSt7__cxx1112basic_stringIcS6_SaIcEEEEENS1_10StringHashENS1_8StringEqESaISt4pairIKS7_SB_EEE11try_emplaceIA9_cJETnNSt9enable_ifIXntsr3std14is_convertibleIT_NS1_12raw_hash_setISC_SD_SE_SI_E14const_iteratorEEE5valueEiE4typeELi0EEESF_INSP_8iteratorEbERKSN_DpOT0_ = comdat any

$_ZN4absl12lts_2023080218container_internal12raw_hash_mapINS1_17FlatHashMapPolicyISt17basic_string_viewIcSt11char_traitsIcEENSt7__cxx1112basic_stringIcS6_SaIcEEEEENS1_10StringHashENS1_8StringEqESaISt4pairIKS7_SB_EEE16try_emplace_implIRA9_KcJEEESF_INS1_12raw_hash_setISC_SD_SE_SI_E8iteratorEbEOT_DpOT0_ = comdat any

$_ZN4absl12lts_2023080218container_internal12raw_hash_setINS1_17FlatHashMapPolicyISt17basic_string_viewIcSt11char_traitsIcEENSt7__cxx1112basic_stringIcS6_SaIcEEEEENS1_10StringHashENS1_8StringEqESaISt4pairIKS7_SB_EEE22find_or_prepare_insertIA9_cEESF_ImbERKT_ = comdat any

$_ZN4absl12lts_2023080218container_internal12raw_hash_setINS1_17FlatHashMapPolicyISt17basic_string_viewIcSt11char_traitsIcEENSt7__cxx1112basic_stringIcS6_SaIcEEEEENS1_10StringHashENS1_8StringEqESaISt4pairIKS7_SB_EEE10emplace_atIJRKSt21piecewise_construct_tSt5tupleIJRA9_KcEESO_IJEEEEEvmDpOT_ = comdat any

$_ZSt16forward_as_tupleIJRA9_KcEESt5tupleIJDpOT_EES6_ = comdat any

$_ZN4absl12lts_2023080218container_internal18hash_policy_traitsINS1_17FlatHashMapPolicyISt17basic_string_viewIcSt11char_traitsIcEENSt7__cxx1112basic_stringIcS6_SaIcEEEEEvE5applyINS1_12raw_hash_setISC_NS1_10StringHashENS1_8StringEqESaISt4pairIKS7_SB_EEE12EqualElementIA9_cEEJRSK_ESC_EEDTclsrT1_5applyclsr3stdE7forwardIT_Efp_Espclsr3stdE7forwardIT0_Efp0_EEEOSS_DpOST_ = comdat any

$_ZN4absl12lts_2023080218container_internal17FlatHashMapPolicyISt17basic_string_viewIcSt11char_traitsIcEENSt7__cxx1112basic_stringIcS5_SaIcEEEE5applyINS1_12raw_hash_setISB_NS1_10StringHashENS1_8StringEqESaISt4pairIKS6_SA_EEE12EqualElementIA9_cEEJRSI_EEEDTclsr4absl18container_internalE13DecomposePairclsr3stdE7declvalIT_EEspclsr3stdE7declvalIT0_EEEEOSP_DpOSQ_ = comdat any

$_ZN4absl12lts_2023080218container_internal13DecomposePairINS1_12raw_hash_setINS1_17FlatHashMapPolicyISt17basic_string_viewIcSt11char_traitsIcEENSt7__cxx1112basic_stringIcS7_SaIcEEEEENS1_10StringHashENS1_8StringEqESaISt4pairIKS8_SC_EEE12EqualElementIA9_cEEJRSI_EEEDTclsr15memory_internalE17DecomposePairImplclsr3stdE7forwardIT_Efp_Ecl8PairArgsspclsr3stdE7forwardIT0_Efp0_EEEEOSP_DpOSQ_ = comdat any

$_ZN4absl12lts_2023080218container_internal15memory_internal17DecomposePairImplINS1_12raw_hash_setINS1_17FlatHashMapPolicyISt17basic_string_viewIcSt11char_traitsIcEENSt7__cxx1112basic_stringIcS8_SaIcEEEEENS1_10StringHashENS1_8StringEqESaISt4pairIKS9_SD_EEE12EqualElementIA9_cEERSI_St5tupleIJRKSD_EEEEDTclclsr3stdE7declvalIT_EEclsr3stdE7declvalIRKT0_EEL_ZSt19piecewise_constructEclsr3stdE7declvalISQ_IJSV_EEEEclsr3stdE7declvalIT1_EEEEOSU_SH_ISY_SZ_E = comdat any

$_ZNK4absl12lts_2023080218container_internal12raw_hash_setINS1_17FlatHashMapPolicyISt17basic_string_viewIcSt11char_traitsIcEENSt7__cxx1112basic_stringIcS6_SaIcEEEEENS1_10StringHashENS1_8StringEqESaISt4pairIKS7_SB_EEE12EqualElementIA9_cEclIS7_JRKSt21piecewise_construct_tSt5tupleIJRSG_EESR_IJRKSB_EEEEEbRKT_DpOT0_ = comdat any

$_ZN4absl12lts_2023080218container_internal20common_policy_traitsINS1_17FlatHashMapPolicyISt17basic_string_viewIcSt11char_traitsIcEENSt7__cxx1112basic_stringIcS6_SaIcEEEEEvE9constructISaISt4pairIKS7_SB_EEJRKSt21piecewise_construct_tSt5tupleIJRA9_KcEESM_IJEEEEEvPT_PNS1_13map_slot_typeIS7_SB_EEDpOT0_ = comdat any

$_ZN4absl12lts_2023080218container_internal17FlatHashMapPolicyISt17basic_string_viewIcSt11char_traitsIcEENSt7__cxx1112basic_stringIcS5_SaIcEEEE9constructISaISt4pairIKS6_SA_EEJRKSt21piecewise_construct_tSt5tupleIJRA9_KcEESK_IJEEEEEvPT_PNS1_13map_slot_typeIS6_SA_EEDpOT0_ = comdat any

$_ZN4absl12lts_2023080218container_internal15map_slot_policyISt17basic_string_viewIcSt11char_traitsIcEENSt7__cxx1112basic_stringIcS5_SaIcEEEE9constructISaISt4pairIKS6_SA_EEJRKSt21piecewise_construct_tSt5tupleIJRA9_KcEESK_IJEEEEEvPT_PNS1_13map_slot_typeIS6_SA_EEDpOT0_ = comdat any

$_ZNSt16allocator_traitsISaISt4pairIKSt17basic_string_viewIcSt11char_traitsIcEENSt7__cxx1112basic_stringIcS3_SaIcEEEEEE9constructIS0_IS4_S9_EJRKSt21piecewise_construct_tSt5tupleIJRA9_KcEESI_IJEEEEEvRSB_PT_DpOT0_ = comdat any

$_ZNSt15__new_allocatorISt4pairIKSt17basic_string_viewIcSt11char_traitsIcEENSt7__cxx1112basic_stringIcS3_SaIcEEEEE9constructIS0_IS4_S9_EJRKSt21piecewise_construct_tSt5tupleIJRA9_KcEESH_IJEEEEEvPT_DpOT0_ = comdat any

$_ZNSt5tupleIJRA9_KcEEC2EOS3_ = comdat any

$_ZNSt4pairISt17basic_string_viewIcSt11char_traitsIcEENSt7__cxx1112basic_stringIcS2_SaIcEEEEC2IJRA9_KcEJEEESt21piecewise_construct_tSt5tupleIJDpT_EESE_IJDpT0_EE = comdat any

$_ZNSt11_Tuple_implILm0EJRA9_KcEEC2EOS3_ = comdat any

$_ZNSt4pairISt17basic_string_viewIcSt11char_traitsIcEENSt7__cxx1112basic_stringIcS2_SaIcEEEEC2IJRA9_KcEJLm0EEJETpTnmJEEERSt5tupleIJDpT_EERSD_IJDpT1_EESt12_Index_tupleIJXspT0_EEESM_IJXspT2_EEE = comdat any

$_ZSt3getILm0EJRA9_KcEERNSt13tuple_elementIXT_ESt5tupleIJDpT0_EEE4typeERS7_ = comdat any

$_ZSt12__get_helperILm0ERA9_KcJEERT0_RSt11_Tuple_implIXT_EJS3_DpT1_EE = comdat any

$_ZNSt11_Tuple_implILm0EJRA9_KcEE7_M_headERS3_ = comdat any

$_ZNSt10_Head_baseILm0ERA9_KcLb0EE7_M_headERS3_ = comdat any

$_ZNSt5tupleIJRA9_KcEEC2ILb1ETnNSt9enable_ifIXclsr4_TCCIXT_EEE29__is_implicitly_constructibleIS2_EEEbE4typeELb1EEES2_ = comdat any

$_ZNSt11_Tuple_implILm0EJRA9_KcEEC2ES2_ = comdat any

$_ZNSt10_Head_baseILm0ERA9_KcLb0EEC2ES2_ = comdat any

$_ZN4absl12lts_2023080218NullSafeStringViewEPKc = comdat any

$_ZNSt17basic_string_viewIcSt11char_traitsIcEEC2Ev = comdat any

$_ZN4absl12lts_2023080218container_internal12raw_hash_mapINS1_17FlatHashMapPolicyISt17basic_string_viewIcSt11char_traitsIcEENSt7__cxx1112basic_stringIcS6_SaIcEEEEENS1_10StringHashENS1_8StringEqESaISt4pairIKS7_SB_EEE11try_emplaceIA16_cJETnNSt9enable_ifIXntsr3std14is_convertibleIT_NS1_12raw_hash_setISC_SD_SE_SI_E14const_iteratorEEE5valueEiE4typeELi0EEESF_INSP_8iteratorEbERKSN_DpOT0_ = comdat any

$_ZN4absl12lts_2023080218container_internal12raw_hash_mapINS1_17FlatHashMapPolicyISt17basic_string_viewIcSt11char_traitsIcEENSt7__cxx1112basic_stringIcS6_SaIcEEEEENS1_10StringHashENS1_8StringEqESaISt4pairIKS7_SB_EEE16try_emplace_implIRA16_KcJEEESF_INS1_12raw_hash_setISC_SD_SE_SI_E8iteratorEbEOT_DpOT0_ = comdat any

$_ZN4absl12lts_2023080218container_internal12raw_hash_setINS1_17FlatHashMapPolicyISt17basic_string_viewIcSt11char_traitsIcEENSt7__cxx1112basic_stringIcS6_SaIcEEEEENS1_10StringHashENS1_8StringEqESaISt4pairIKS7_SB_EEE22find_or_prepare_insertIA16_cEESF_ImbERKT_ = comdat any

$_ZN4absl12lts_2023080218container_internal12raw_hash_setINS1_17FlatHashMapPolicyISt17basic_string_viewIcSt11char_traitsIcEENSt7__cxx1112basic_stringIcS6_SaIcEEEEENS1_10StringHashENS1_8StringEqESaISt4pairIKS7_SB_EEE10emplace_atIJRKSt21piecewise_construct_tSt5tupleIJRA16_KcEESO_IJEEEEEvmDpOT_ = comdat any

$_ZSt16forward_as_tupleIJRA16_KcEESt5tupleIJDpOT_EES6_ = comdat any

$_ZN4absl12lts_2023080218container_internal18hash_policy_traitsINS1_17FlatHashMapPolicyISt17basic_string_viewIcSt11char_traitsIcEENSt7__cxx1112basic_stringIcS6_SaIcEEEEEvE5applyINS1_12raw_hash_setISC_NS1_10StringHashENS1_8StringEqESaISt4pairIKS7_SB_EEE12EqualElementIA16_cEEJRSK_ESC_EEDTclsrT1_5applyclsr3stdE7forwardIT_Efp_Espclsr3stdE7forwardIT0_Efp0_EEEOSS_DpOST_ = comdat any

$_ZN4absl12lts_2023080218container_internal17FlatHashMapPolicyISt17basic_string_viewIcSt11char_traitsIcEENSt7__cxx1112basic_stringIcS5_SaIcEEEE5applyINS1_12raw_hash_setISB_NS1_10StringHashENS1_8StringEqESaISt4pairIKS6_SA_EEE12EqualElementIA16_cEEJRSI_EEEDTclsr4absl18container_internalE13DecomposePairclsr3stdE7declvalIT_EEspclsr3stdE7declvalIT0_EEEEOSP_DpOSQ_ = comdat any

$_ZN4absl12lts_2023080218container_internal13DecomposePairINS1_12raw_hash_setINS1_17FlatHashMapPolicyISt17basic_string_viewIcSt11char_traitsIcEENSt7__cxx1112basic_stringIcS7_SaIcEEEEENS1_10StringHashENS1_8StringEqESaISt4pairIKS8_SC_EEE12EqualElementIA16_cEEJRSI_EEEDTclsr15memory_internalE17DecomposePairImplclsr3stdE7forwardIT_Efp_Ecl8PairArgsspclsr3stdE7forwardIT0_Efp0_EEEEOSP_DpOSQ_ = comdat any

$_ZN4absl12lts_2023080218container_internal15memory_internal17DecomposePairImplINS1_12raw_hash_setINS1_17FlatHashMapPolicyISt17basic_string_viewIcSt11char_traitsIcEENSt7__cxx1112basic_stringIcS8_SaIcEEEEENS1_10StringHashENS1_8StringEqESaISt4pairIKS9_SD_EEE12EqualElementIA16_cEERSI_St5tupleIJRKSD_EEEEDTclclsr3stdE7declvalIT_EEclsr3stdE7declvalIRKT0_EEL_ZSt19piecewise_constructEclsr3stdE7declvalISQ_IJSV_EEEEclsr3stdE7declvalIT1_EEEEOSU_SH_ISY_SZ_E = comdat any

$_ZNK4absl12lts_2023080218container_internal12raw_hash_setINS1_17FlatHashMapPolicyISt17basic_string_viewIcSt11char_traitsIcEENSt7__cxx1112basic_stringIcS6_SaIcEEEEENS1_10StringHashENS1_8StringEqESaISt4pairIKS7_SB_EEE12EqualElementIA16_cEclIS7_JRKSt21piecewise_construct_tSt5tupleIJRSG_EESR_IJRKSB_EEEEEbRKT_DpOT0_ = comdat any

$_ZN4absl12lts_2023080218container_internal20common_policy_traitsINS1_17FlatHashMapPolicyISt17basic_string_viewIcSt11char_traitsIcEENSt7__cxx1112basic_stringIcS6_SaIcEEEEEvE9constructISaISt4pairIKS7_SB_EEJRKSt21piecewise_construct_tSt5tupleIJRA16_KcEESM_IJEEEEEvPT_PNS1_13map_slot_typeIS7_SB_EEDpOT0_ = comdat any

$_ZN4absl12lts_2023080218container_internal17FlatHashMapPolicyISt17basic_string_viewIcSt11char_traitsIcEENSt7__cxx1112basic_stringIcS5_SaIcEEEE9constructISaISt4pairIKS6_SA_EEJRKSt21piecewise_construct_tSt5tupleIJRA16_KcEESK_IJEEEEEvPT_PNS1_13map_slot_typeIS6_SA_EEDpOT0_ = comdat any

$_ZN4absl12lts_2023080218container_internal15map_slot_policyISt17basic_string_viewIcSt11char_traitsIcEENSt7__cxx1112basic_stringIcS5_SaIcEEEE9constructISaISt4pairIKS6_SA_EEJRKSt21piecewise_construct_tSt5tupleIJRA16_KcEESK_IJEEEEEvPT_PNS1_13map_slot_typeIS6_SA_EEDpOT0_ = comdat any

$_ZNSt16allocator_traitsISaISt4pairIKSt17basic_string_viewIcSt11char_traitsIcEENSt7__cxx1112basic_stringIcS3_SaIcEEEEEE9constructIS0_IS4_S9_EJRKSt21piecewise_construct_tSt5tupleIJRA16_KcEESI_IJEEEEEvRSB_PT_DpOT0_ = comdat any

$_ZNSt15__new_allocatorISt4pairIKSt17basic_string_viewIcSt11char_traitsIcEENSt7__cxx1112basic_stringIcS3_SaIcEEEEE9constructIS0_IS4_S9_EJRKSt21piecewise_construct_tSt5tupleIJRA16_KcEESH_IJEEEEEvPT_DpOT0_ = comdat any

$_ZNSt5tupleIJRA16_KcEEC2EOS3_ = comdat any

$_ZNSt4pairISt17basic_string_viewIcSt11char_traitsIcEENSt7__cxx1112basic_stringIcS2_SaIcEEEEC2IJRA16_KcEJEEESt21piecewise_construct_tSt5tupleIJDpT_EESE_IJDpT0_EE = comdat any

$_ZNSt11_Tuple_implILm0EJRA16_KcEEC2EOS3_ = comdat any

$_ZNSt4pairISt17basic_string_viewIcSt11char_traitsIcEENSt7__cxx1112basic_stringIcS2_SaIcEEEEC2IJRA16_KcEJLm0EEJETpTnmJEEERSt5tupleIJDpT_EERSD_IJDpT1_EESt12_Index_tupleIJXspT0_EEESM_IJXspT2_EEE = comdat any

$_ZSt3getILm0EJRA16_KcEERNSt13tuple_elementIXT_ESt5tupleIJDpT0_EEE4typeERS7_ = comdat any

$_ZSt12__get_helperILm0ERA16_KcJEERT0_RSt11_Tuple_implIXT_EJS3_DpT1_EE = comdat any

$_ZNSt11_Tuple_implILm0EJRA16_KcEE7_M_headERS3_ = comdat any

$_ZNSt10_Head_baseILm0ERA16_KcLb0EE7_M_headERS3_ = comdat any

$_ZNSt5tupleIJRA16_KcEEC2ILb1ETnNSt9enable_ifIXclsr4_TCCIXT_EEE29__is_implicitly_constructibleIS2_EEEbE4typeELb1EEES2_ = comdat any

$_ZNSt11_Tuple_implILm0EJRA16_KcEEC2ES2_ = comdat any

$_ZNSt10_Head_baseILm0ERA16_KcLb0EEC2ES2_ = comdat any

$_ZN4absl12lts_2023080218container_internal12raw_hash_mapINS1_17FlatHashMapPolicyISt17basic_string_viewIcSt11char_traitsIcEENSt7__cxx1112basic_stringIcS6_SaIcEEEEENS1_10StringHashENS1_8StringEqESaISt4pairIKS7_SB_EEE11try_emplaceIA23_cJETnNSt9enable_ifIXntsr3std14is_convertibleIT_NS1_12raw_hash_setISC_SD_SE_SI_E14const_iteratorEEE5valueEiE4typeELi0EEESF_INSP_8iteratorEbERKSN_DpOT0_ = comdat any

$_ZN4absl12lts_2023080218container_internal12raw_hash_mapINS1_17FlatHashMapPolicyISt17basic_string_viewIcSt11char_traitsIcEENSt7__cxx1112basic_stringIcS6_SaIcEEEEENS1_10StringHashENS1_8StringEqESaISt4pairIKS7_SB_EEE16try_emplace_implIRA23_KcJEEESF_INS1_12raw_hash_setISC_SD_SE_SI_E8iteratorEbEOT_DpOT0_ = comdat any

$_ZN4absl12lts_2023080218container_internal12raw_hash_setINS1_17FlatHashMapPolicyISt17basic_string_viewIcSt11char_traitsIcEENSt7__cxx1112basic_stringIcS6_SaIcEEEEENS1_10StringHashENS1_8StringEqESaISt4pairIKS7_SB_EEE22find_or_prepare_insertIA23_cEESF_ImbERKT_ = comdat any

$_ZN4absl12lts_2023080218container_internal12raw_hash_setINS1_17FlatHashMapPolicyISt17basic_string_viewIcSt11char_traitsIcEENSt7__cxx1112basic_stringIcS6_SaIcEEEEENS1_10StringHashENS1_8StringEqESaISt4pairIKS7_SB_EEE10emplace_atIJRKSt21piecewise_construct_tSt5tupleIJRA23_KcEESO_IJEEEEEvmDpOT_ = comdat any

$_ZSt16forward_as_tupleIJRA23_KcEESt5tupleIJDpOT_EES6_ = comdat any

$_ZN4absl12lts_2023080218container_internal18hash_policy_traitsINS1_17FlatHashMapPolicyISt17basic_string_viewIcSt11char_traitsIcEENSt7__cxx1112basic_stringIcS6_SaIcEEEEEvE5applyINS1_12raw_hash_setISC_NS1_10StringHashENS1_8StringEqESaISt4pairIKS7_SB_EEE12EqualElementIA23_cEEJRSK_ESC_EEDTclsrT1_5applyclsr3stdE7forwardIT_Efp_Espclsr3stdE7forwardIT0_Efp0_EEEOSS_DpOST_ = comdat any

$_ZN4absl12lts_2023080218container_internal17FlatHashMapPolicyISt17basic_string_viewIcSt11char_traitsIcEENSt7__cxx1112basic_stringIcS5_SaIcEEEE5applyINS1_12raw_hash_setISB_NS1_10StringHashENS1_8StringEqESaISt4pairIKS6_SA_EEE12EqualElementIA23_cEEJRSI_EEEDTclsr4absl18container_internalE13DecomposePairclsr3stdE7declvalIT_EEspclsr3stdE7declvalIT0_EEEEOSP_DpOSQ_ = comdat any

$_ZN4absl12lts_2023080218container_internal13DecomposePairINS1_12raw_hash_setINS1_17FlatHashMapPolicyISt17basic_string_viewIcSt11char_traitsIcEENSt7__cxx1112basic_stringIcS7_SaIcEEEEENS1_10StringHashENS1_8StringEqESaISt4pairIKS8_SC_EEE12EqualElementIA23_cEEJRSI_EEEDTclsr15memory_internalE17DecomposePairImplclsr3stdE7forwardIT_Efp_Ecl8PairArgsspclsr3stdE7forwardIT0_Efp0_EEEEOSP_DpOSQ_ = comdat any

$_ZN4absl12lts_2023080218container_internal15memory_internal17DecomposePairImplINS1_12raw_hash_setINS1_17FlatHashMapPolicyISt17basic_string_viewIcSt11char_traitsIcEENSt7__cxx1112basic_stringIcS8_SaIcEEEEENS1_10StringHashENS1_8StringEqESaISt4pairIKS9_SD_EEE12EqualElementIA23_cEERSI_St5tupleIJRKSD_EEEEDTclclsr3stdE7declvalIT_EEclsr3stdE7declvalIRKT0_EEL_ZSt19piecewise_constructEclsr3stdE7declvalISQ_IJSV_EEEEclsr3stdE7declvalIT1_EEEEOSU_SH_ISY_SZ_E = comdat any

$_ZNK4absl12lts_2023080218container_internal12raw_hash_setINS1_17FlatHashMapPolicyISt17basic_string_viewIcSt11char_traitsIcEENSt7__cxx1112basic_stringIcS6_SaIcEEEEENS1_10StringHashENS1_8StringEqESaISt4pairIKS7_SB_EEE12EqualElementIA23_cEclIS7_JRKSt21piecewise_construct_tSt5tupleIJRSG_EESR_IJRKSB_EEEEEbRKT_DpOT0_ = comdat any

$_ZN4absl12lts_2023080218container_internal20common_policy_traitsINS1_17FlatHashMapPolicyISt17basic_string_viewIcSt11char_traitsIcEENSt7__cxx1112basic_stringIcS6_SaIcEEEEEvE9constructISaISt4pairIKS7_SB_EEJRKSt21piecewise_construct_tSt5tupleIJRA23_KcEESM_IJEEEEEvPT_PNS1_13map_slot_typeIS7_SB_EEDpOT0_ = comdat any

$_ZN4absl12lts_2023080218container_internal17FlatHashMapPolicyISt17basic_string_viewIcSt11char_traitsIcEENSt7__cxx1112basic_stringIcS5_SaIcEEEE9constructISaISt4pairIKS6_SA_EEJRKSt21piecewise_construct_tSt5tupleIJRA23_KcEESK_IJEEEEEvPT_PNS1_13map_slot_typeIS6_SA_EEDpOT0_ = comdat any

$_ZN4absl12lts_2023080218container_internal15map_slot_policyISt17basic_string_viewIcSt11char_traitsIcEENSt7__cxx1112basic_stringIcS5_SaIcEEEE9constructISaISt4pairIKS6_SA_EEJRKSt21piecewise_construct_tSt5tupleIJRA23_KcEESK_IJEEEEEvPT_PNS1_13map_slot_typeIS6_SA_EEDpOT0_ = comdat any

$_ZNSt16allocator_traitsISaISt4pairIKSt17basic_string_viewIcSt11char_traitsIcEENSt7__cxx1112basic_stringIcS3_SaIcEEEEEE9constructIS0_IS4_S9_EJRKSt21piecewise_construct_tSt5tupleIJRA23_KcEESI_IJEEEEEvRSB_PT_DpOT0_ = comdat any

$_ZNSt15__new_allocatorISt4pairIKSt17basic_string_viewIcSt11char_traitsIcEENSt7__cxx1112basic_stringIcS3_SaIcEEEEE9constructIS0_IS4_S9_EJRKSt21piecewise_construct_tSt5tupleIJRA23_KcEESH_IJEEEEEvPT_DpOT0_ = comdat any

$_ZNSt5tupleIJRA23_KcEEC2EOS3_ = comdat any

$_ZNSt4pairISt17basic_string_viewIcSt11char_traitsIcEENSt7__cxx1112basic_stringIcS2_SaIcEEEEC2IJRA23_KcEJEEESt21piecewise_construct_tSt5tupleIJDpT_EESE_IJDpT0_EE = comdat any

$_ZNSt11_Tuple_implILm0EJRA23_KcEEC2EOS3_ = comdat any

$_ZNSt4pairISt17basic_string_viewIcSt11char_traitsIcEENSt7__cxx1112basic_stringIcS2_SaIcEEEEC2IJRA23_KcEJLm0EEJETpTnmJEEERSt5tupleIJDpT_EERSD_IJDpT1_EESt12_Index_tupleIJXspT0_EEESM_IJXspT2_EEE = comdat any

$_ZSt3getILm0EJRA23_KcEERNSt13tuple_elementIXT_ESt5tupleIJDpT0_EEE4typeERS7_ = comdat any

$_ZSt12__get_helperILm0ERA23_KcJEERT0_RSt11_Tuple_implIXT_EJS3_DpT1_EE = comdat any

$_ZNSt11_Tuple_implILm0EJRA23_KcEE7_M_headERS3_ = comdat any

$_ZNSt10_Head_baseILm0ERA23_KcLb0EE7_M_headERS3_ = comdat any

$_ZNSt5tupleIJRA23_KcEEC2ILb1ETnNSt9enable_ifIXclsr4_TCCIXT_EEE29__is_implicitly_constructibleIS2_EEEbE4typeELb1EEES2_ = comdat any

$_ZNSt11_Tuple_implILm0EJRA23_KcEEC2ES2_ = comdat any

$_ZNSt10_Head_baseILm0ERA23_KcLb0EEC2ES2_ = comdat any

$_ZN4absl12lts_2023080218container_internal12raw_hash_mapINS1_17FlatHashMapPolicyISt17basic_string_viewIcSt11char_traitsIcEENSt7__cxx1112basic_stringIcS6_SaIcEEEEENS1_10StringHashENS1_8StringEqESaISt4pairIKS7_SB_EEE11try_emplaceIA13_cJETnNSt9enable_ifIXntsr3std14is_convertibleIT_NS1_12raw_hash_setISC_SD_SE_SI_E14const_iteratorEEE5valueEiE4typeELi0EEESF_INSP_8iteratorEbERKSN_DpOT0_ = comdat any

$_ZN4absl12lts_2023080218container_internal12raw_hash_mapINS1_17FlatHashMapPolicyISt17basic_string_viewIcSt11char_traitsIcEENSt7__cxx1112basic_stringIcS6_SaIcEEEEENS1_10StringHashENS1_8StringEqESaISt4pairIKS7_SB_EEE16try_emplace_implIRA13_KcJEEESF_INS1_12raw_hash_setISC_SD_SE_SI_E8iteratorEbEOT_DpOT0_ = comdat any

$_ZN4absl12lts_2023080218container_internal12raw_hash_setINS1_17FlatHashMapPolicyISt17basic_string_viewIcSt11char_traitsIcEENSt7__cxx1112basic_stringIcS6_SaIcEEEEENS1_10StringHashENS1_8StringEqESaISt4pairIKS7_SB_EEE22find_or_prepare_insertIA13_cEESF_ImbERKT_ = comdat any

$_ZN4absl12lts_2023080218container_internal12raw_hash_setINS1_17FlatHashMapPolicyISt17basic_string_viewIcSt11char_traitsIcEENSt7__cxx1112basic_stringIcS6_SaIcEEEEENS1_10StringHashENS1_8StringEqESaISt4pairIKS7_SB_EEE10emplace_atIJRKSt21piecewise_construct_tSt5tupleIJRA13_KcEESO_IJEEEEEvmDpOT_ = comdat any

$_ZSt16forward_as_tupleIJRA13_KcEESt5tupleIJDpOT_EES6_ = comdat any

$_ZN4absl12lts_2023080218container_internal18hash_policy_traitsINS1_17FlatHashMapPolicyISt17basic_string_viewIcSt11char_traitsIcEENSt7__cxx1112basic_stringIcS6_SaIcEEEEEvE5applyINS1_12raw_hash_setISC_NS1_10StringHashENS1_8StringEqESaISt4pairIKS7_SB_EEE12EqualElementIA13_cEEJRSK_ESC_EEDTclsrT1_5applyclsr3stdE7forwardIT_Efp_Espclsr3stdE7forwardIT0_Efp0_EEEOSS_DpOST_ = comdat any

$_ZN4absl12lts_2023080218container_internal17FlatHashMapPolicyISt17basic_string_viewIcSt11char_traitsIcEENSt7__cxx1112basic_stringIcS5_SaIcEEEE5applyINS1_12raw_hash_setISB_NS1_10StringHashENS1_8StringEqESaISt4pairIKS6_SA_EEE12EqualElementIA13_cEEJRSI_EEEDTclsr4absl18container_internalE13DecomposePairclsr3stdE7declvalIT_EEspclsr3stdE7declvalIT0_EEEEOSP_DpOSQ_ = comdat any

$_ZN4absl12lts_2023080218container_internal13DecomposePairINS1_12raw_hash_setINS1_17FlatHashMapPolicyISt17basic_string_viewIcSt11char_traitsIcEENSt7__cxx1112basic_stringIcS7_SaIcEEEEENS1_10StringHashENS1_8StringEqESaISt4pairIKS8_SC_EEE12EqualElementIA13_cEEJRSI_EEEDTclsr15memory_internalE17DecomposePairImplclsr3stdE7forwardIT_Efp_Ecl8PairArgsspclsr3stdE7forwardIT0_Efp0_EEEEOSP_DpOSQ_ = comdat any

$_ZN4absl12lts_2023080218container_internal15memory_internal17DecomposePairImplINS1_12raw_hash_setINS1_17FlatHashMapPolicyISt17basic_string_viewIcSt11char_traitsIcEENSt7__cxx1112basic_stringIcS8_SaIcEEEEENS1_10StringHashENS1_8StringEqESaISt4pairIKS9_SD_EEE12EqualElementIA13_cEERSI_St5tupleIJRKSD_EEEEDTclclsr3stdE7declvalIT_EEclsr3stdE7declvalIRKT0_EEL_ZSt19piecewise_constructEclsr3stdE7declvalISQ_IJSV_EEEEclsr3stdE7declvalIT1_EEEEOSU_SH_ISY_SZ_E = comdat any

$_ZNK4absl12lts_2023080218container_internal12raw_hash_setINS1_17FlatHashMapPolicyISt17basic_string_viewIcSt11char_traitsIcEENSt7__cxx1112basic_stringIcS6_SaIcEEEEENS1_10StringHashENS1_8StringEqESaISt4pairIKS7_SB_EEE12EqualElementIA13_cEclIS7_JRKSt21piecewise_construct_tSt5tupleIJRSG_EESR_IJRKSB_EEEEEbRKT_DpOT0_ = comdat any

$_ZN4absl12lts_2023080218container_internal20common_policy_traitsINS1_17FlatHashMapPolicyISt17basic_string_viewIcSt11char_traitsIcEENSt7__cxx1112basic_stringIcS6_SaIcEEEEEvE9constructISaISt4pairIKS7_SB_EEJRKSt21piecewise_construct_tSt5tupleIJRA13_KcEESM_IJEEEEEvPT_PNS1_13map_slot_typeIS7_SB_EEDpOT0_ = comdat any

$_ZN4absl12lts_2023080218container_internal17FlatHashMapPolicyISt17basic_string_viewIcSt11char_traitsIcEENSt7__cxx1112basic_stringIcS5_SaIcEEEE9constructISaISt4pairIKS6_SA_EEJRKSt21piecewise_construct_tSt5tupleIJRA13_KcEESK_IJEEEEEvPT_PNS1_13map_slot_typeIS6_SA_EEDpOT0_ = comdat any

$_ZN4absl12lts_2023080218container_internal15map_slot_policyISt17basic_string_viewIcSt11char_traitsIcEENSt7__cxx1112basic_stringIcS5_SaIcEEEE9constructISaISt4pairIKS6_SA_EEJRKSt21piecewise_construct_tSt5tupleIJRA13_KcEESK_IJEEEEEvPT_PNS1_13map_slot_typeIS6_SA_EEDpOT0_ = comdat any

$_ZNSt16allocator_traitsISaISt4pairIKSt17basic_string_viewIcSt11char_traitsIcEENSt7__cxx1112basic_stringIcS3_SaIcEEEEEE9constructIS0_IS4_S9_EJRKSt21piecewise_construct_tSt5tupleIJRA13_KcEESI_IJEEEEEvRSB_PT_DpOT0_ = comdat any

$_ZNSt15__new_allocatorISt4pairIKSt17basic_string_viewIcSt11char_traitsIcEENSt7__cxx1112basic_stringIcS3_SaIcEEEEE9constructIS0_IS4_S9_EJRKSt21piecewise_construct_tSt5tupleIJRA13_KcEESH_IJEEEEEvPT_DpOT0_ = comdat any

$_ZNSt5tupleIJRA13_KcEEC2EOS3_ = comdat any

$_ZNSt4pairISt17basic_string_viewIcSt11char_traitsIcEENSt7__cxx1112basic_stringIcS2_SaIcEEEEC2IJRA13_KcEJEEESt21piecewise_construct_tSt5tupleIJDpT_EESE_IJDpT0_EE = comdat any

$_ZNSt11_Tuple_implILm0EJRA13_KcEEC2EOS3_ = comdat any

$_ZNSt4pairISt17basic_string_viewIcSt11char_traitsIcEENSt7__cxx1112basic_stringIcS2_SaIcEEEEC2IJRA13_KcEJLm0EEJETpTnmJEEERSt5tupleIJDpT_EERSD_IJDpT1_EESt12_Index_tupleIJXspT0_EEESM_IJXspT2_EEE = comdat any

$_ZSt3getILm0EJRA13_KcEERNSt13tuple_elementIXT_ESt5tupleIJDpT0_EEE4typeERS7_ = comdat any

$_ZSt12__get_helperILm0ERA13_KcJEERT0_RSt11_Tuple_implIXT_EJS3_DpT1_EE = comdat any

$_ZNSt11_Tuple_implILm0EJRA13_KcEE7_M_headERS3_ = comdat any

$_ZNSt10_Head_baseILm0ERA13_KcLb0EE7_M_headERS3_ = comdat any

$_ZNSt5tupleIJRA13_KcEEC2ILb1ETnNSt9enable_ifIXclsr4_TCCIXT_EEE29__is_implicitly_constructibleIS2_EEEbE4typeELb1EEES2_ = comdat any

$_ZNSt11_Tuple_implILm0EJRA13_KcEEC2ES2_ = comdat any

$_ZNSt10_Head_baseILm0ERA13_KcLb0EEC2ES2_ = comdat any

$_ZN4absl12lts_2023080218container_internal12raw_hash_mapINS1_17FlatHashMapPolicyISt17basic_string_viewIcSt11char_traitsIcEENSt7__cxx1112basic_stringIcS6_SaIcEEEEENS1_10StringHashENS1_8StringEqESaISt4pairIKS7_SB_EEE11try_emplaceIA14_cJETnNSt9enable_ifIXntsr3std14is_convertibleIT_NS1_12raw_hash_setISC_SD_SE_SI_E14const_iteratorEEE5valueEiE4typeELi0EEESF_INSP_8iteratorEbERKSN_DpOT0_ = comdat any

$_ZN4absl12lts_2023080218container_internal12raw_hash_mapINS1_17FlatHashMapPolicyISt17basic_string_viewIcSt11char_traitsIcEENSt7__cxx1112basic_stringIcS6_SaIcEEEEENS1_10StringHashENS1_8StringEqESaISt4pairIKS7_SB_EEE16try_emplace_implIRA14_KcJEEESF_INS1_12raw_hash_setISC_SD_SE_SI_E8iteratorEbEOT_DpOT0_ = comdat any

$_ZN4absl12lts_2023080218container_internal12raw_hash_setINS1_17FlatHashMapPolicyISt17basic_string_viewIcSt11char_traitsIcEENSt7__cxx1112basic_stringIcS6_SaIcEEEEENS1_10StringHashENS1_8StringEqESaISt4pairIKS7_SB_EEE22find_or_prepare_insertIA14_cEESF_ImbERKT_ = comdat any

$_ZN4absl12lts_2023080218container_internal12raw_hash_setINS1_17FlatHashMapPolicyISt17basic_string_viewIcSt11char_traitsIcEENSt7__cxx1112basic_stringIcS6_SaIcEEEEENS1_10StringHashENS1_8StringEqESaISt4pairIKS7_SB_EEE10emplace_atIJRKSt21piecewise_construct_tSt5tupleIJRA14_KcEESO_IJEEEEEvmDpOT_ = comdat any

$_ZSt16forward_as_tupleIJRA14_KcEESt5tupleIJDpOT_EES6_ = comdat any

$_ZN4absl12lts_2023080218container_internal18hash_policy_traitsINS1_17FlatHashMapPolicyISt17basic_string_viewIcSt11char_traitsIcEENSt7__cxx1112basic_stringIcS6_SaIcEEEEEvE5applyINS1_12raw_hash_setISC_NS1_10StringHashENS1_8StringEqESaISt4pairIKS7_SB_EEE12EqualElementIA14_cEEJRSK_ESC_EEDTclsrT1_5applyclsr3stdE7forwardIT_Efp_Espclsr3stdE7forwardIT0_Efp0_EEEOSS_DpOST_ = comdat any

$_ZN4absl12lts_2023080218container_internal17FlatHashMapPolicyISt17basic_string_viewIcSt11char_traitsIcEENSt7__cxx1112basic_stringIcS5_SaIcEEEE5applyINS1_12raw_hash_setISB_NS1_10StringHashENS1_8StringEqESaISt4pairIKS6_SA_EEE12EqualElementIA14_cEEJRSI_EEEDTclsr4absl18container_internalE13DecomposePairclsr3stdE7declvalIT_EEspclsr3stdE7declvalIT0_EEEEOSP_DpOSQ_ = comdat any

$_ZN4absl12lts_2023080218container_internal13DecomposePairINS1_12raw_hash_setINS1_17FlatHashMapPolicyISt17basic_string_viewIcSt11char_traitsIcEENSt7__cxx1112basic_stringIcS7_SaIcEEEEENS1_10StringHashENS1_8StringEqESaISt4pairIKS8_SC_EEE12EqualElementIA14_cEEJRSI_EEEDTclsr15memory_internalE17DecomposePairImplclsr3stdE7forwardIT_Efp_Ecl8PairArgsspclsr3stdE7forwardIT0_Efp0_EEEEOSP_DpOSQ_ = comdat any

$_ZN4absl12lts_2023080218container_internal15memory_internal17DecomposePairImplINS1_12raw_hash_setINS1_17FlatHashMapPolicyISt17basic_string_viewIcSt11char_traitsIcEENSt7__cxx1112basic_stringIcS8_SaIcEEEEENS1_10StringHashENS1_8StringEqESaISt4pairIKS9_SD_EEE12EqualElementIA14_cEERSI_St5tupleIJRKSD_EEEEDTclclsr3stdE7declvalIT_EEclsr3stdE7declvalIRKT0_EEL_ZSt19piecewise_constructEclsr3stdE7declvalISQ_IJSV_EEEEclsr3stdE7declvalIT1_EEEEOSU_SH_ISY_SZ_E = comdat any

$_ZNK4absl12lts_2023080218container_internal12raw_hash_setINS1_17FlatHashMapPolicyISt17basic_string_viewIcSt11char_traitsIcEENSt7__cxx1112basic_stringIcS6_SaIcEEEEENS1_10StringHashENS1_8StringEqESaISt4pairIKS7_SB_EEE12EqualElementIA14_cEclIS7_JRKSt21piecewise_construct_tSt5tupleIJRSG_EESR_IJRKSB_EEEEEbRKT_DpOT0_ = comdat any

$_ZN4absl12lts_2023080218container_internal20common_policy_traitsINS1_17FlatHashMapPolicyISt17basic_string_viewIcSt11char_traitsIcEENSt7__cxx1112basic_stringIcS6_SaIcEEEEEvE9constructISaISt4pairIKS7_SB_EEJRKSt21piecewise_construct_tSt5tupleIJRA14_KcEESM_IJEEEEEvPT_PNS1_13map_slot_typeIS7_SB_EEDpOT0_ = comdat any

$_ZN4absl12lts_2023080218container_internal17FlatHashMapPolicyISt17basic_string_viewIcSt11char_traitsIcEENSt7__cxx1112basic_stringIcS5_SaIcEEEE9constructISaISt4pairIKS6_SA_EEJRKSt21piecewise_construct_tSt5tupleIJRA14_KcEESK_IJEEEEEvPT_PNS1_13map_slot_typeIS6_SA_EEDpOT0_ = comdat any

$_ZN4absl12lts_2023080218container_internal15map_slot_policyISt17basic_string_viewIcSt11char_traitsIcEENSt7__cxx1112basic_stringIcS5_SaIcEEEE9constructISaISt4pairIKS6_SA_EEJRKSt21piecewise_construct_tSt5tupleIJRA14_KcEESK_IJEEEEEvPT_PNS1_13map_slot_typeIS6_SA_EEDpOT0_ = comdat any

$_ZNSt16allocator_traitsISaISt4pairIKSt17basic_string_viewIcSt11char_traitsIcEENSt7__cxx1112basic_stringIcS3_SaIcEEEEEE9constructIS0_IS4_S9_EJRKSt21piecewise_construct_tSt5tupleIJRA14_KcEESI_IJEEEEEvRSB_PT_DpOT0_ = comdat any

$_ZNSt15__new_allocatorISt4pairIKSt17basic_string_viewIcSt11char_traitsIcEENSt7__cxx1112basic_stringIcS3_SaIcEEEEE9constructIS0_IS4_S9_EJRKSt21piecewise_construct_tSt5tupleIJRA14_KcEESH_IJEEEEEvPT_DpOT0_ = comdat any

$_ZNSt5tupleIJRA14_KcEEC2EOS3_ = comdat any

$_ZNSt4pairISt17basic_string_viewIcSt11char_traitsIcEENSt7__cxx1112basic_stringIcS2_SaIcEEEEC2IJRA14_KcEJEEESt21piecewise_construct_tSt5tupleIJDpT_EESE_IJDpT0_EE = comdat any

$_ZNSt11_Tuple_implILm0EJRA14_KcEEC2EOS3_ = comdat any

$_ZNSt4pairISt17basic_string_viewIcSt11char_traitsIcEENSt7__cxx1112basic_stringIcS2_SaIcEEEEC2IJRA14_KcEJLm0EEJETpTnmJEEERSt5tupleIJDpT_EERSD_IJDpT1_EESt12_Index_tupleIJXspT0_EEESM_IJXspT2_EEE = comdat any

$_ZSt3getILm0EJRA14_KcEERNSt13tuple_elementIXT_ESt5tupleIJDpT0_EEE4typeERS7_ = comdat any

$_ZSt12__get_helperILm0ERA14_KcJEERT0_RSt11_Tuple_implIXT_EJS3_DpT1_EE = comdat any

$_ZNSt11_Tuple_implILm0EJRA14_KcEE7_M_headERS3_ = comdat any

$_ZNSt10_Head_baseILm0ERA14_KcLb0EE7_M_headERS3_ = comdat any

$_ZNSt5tupleIJRA14_KcEEC2ILb1ETnNSt9enable_ifIXclsr4_TCCIXT_EEE29__is_implicitly_constructibleIS2_EEEbE4typeELb1EEES2_ = comdat any

$_ZNSt11_Tuple_implILm0EJRA14_KcEEC2ES2_ = comdat any

$_ZNSt10_Head_baseILm0ERA14_KcLb0EEC2ES2_ = comdat any

$_ZNK6google8protobuf12FieldOptions20_internal_deprecatedEv = comdat any

$_ZN4absl12lts_2023080218container_internal12raw_hash_mapINS1_17FlatHashMapPolicyISt17basic_string_viewIcSt11char_traitsIcEENSt7__cxx1112basic_stringIcS6_SaIcEEEEENS1_10StringHashENS1_8StringEqESaISt4pairIKS7_SB_EEE11try_emplaceIA12_cJETnNSt9enable_ifIXntsr3std14is_convertibleIT_NS1_12raw_hash_setISC_SD_SE_SI_E14const_iteratorEEE5valueEiE4typeELi0EEESF_INSP_8iteratorEbERKSN_DpOT0_ = comdat any

$_ZN4absl12lts_2023080218container_internal12raw_hash_mapINS1_17FlatHashMapPolicyISt17basic_string_viewIcSt11char_traitsIcEENSt7__cxx1112basic_stringIcS6_SaIcEEEEENS1_10StringHashENS1_8StringEqESaISt4pairIKS7_SB_EEE16try_emplace_implIRA12_KcJEEESF_INS1_12raw_hash_setISC_SD_SE_SI_E8iteratorEbEOT_DpOT0_ = comdat any

$_ZN4absl12lts_2023080218container_internal12raw_hash_setINS1_17FlatHashMapPolicyISt17basic_string_viewIcSt11char_traitsIcEENSt7__cxx1112basic_stringIcS6_SaIcEEEEENS1_10StringHashENS1_8StringEqESaISt4pairIKS7_SB_EEE22find_or_prepare_insertIA12_cEESF_ImbERKT_ = comdat any

$_ZN4absl12lts_2023080218container_internal12raw_hash_setINS1_17FlatHashMapPolicyISt17basic_string_viewIcSt11char_traitsIcEENSt7__cxx1112basic_stringIcS6_SaIcEEEEENS1_10StringHashENS1_8StringEqESaISt4pairIKS7_SB_EEE10emplace_atIJRKSt21piecewise_construct_tSt5tupleIJRA12_KcEESO_IJEEEEEvmDpOT_ = comdat any

$_ZSt16forward_as_tupleIJRA12_KcEESt5tupleIJDpOT_EES6_ = comdat any

$_ZN4absl12lts_2023080218container_internal18hash_policy_traitsINS1_17FlatHashMapPolicyISt17basic_string_viewIcSt11char_traitsIcEENSt7__cxx1112basic_stringIcS6_SaIcEEEEEvE5applyINS1_12raw_hash_setISC_NS1_10StringHashENS1_8StringEqESaISt4pairIKS7_SB_EEE12EqualElementIA12_cEEJRSK_ESC_EEDTclsrT1_5applyclsr3stdE7forwardIT_Efp_Espclsr3stdE7forwardIT0_Efp0_EEEOSS_DpOST_ = comdat any

$_ZN4absl12lts_2023080218container_internal17FlatHashMapPolicyISt17basic_string_viewIcSt11char_traitsIcEENSt7__cxx1112basic_stringIcS5_SaIcEEEE5applyINS1_12raw_hash_setISB_NS1_10StringHashENS1_8StringEqESaISt4pairIKS6_SA_EEE12EqualElementIA12_cEEJRSI_EEEDTclsr4absl18container_internalE13DecomposePairclsr3stdE7declvalIT_EEspclsr3stdE7declvalIT0_EEEEOSP_DpOSQ_ = comdat any

$_ZN4absl12lts_2023080218container_internal13DecomposePairINS1_12raw_hash_setINS1_17FlatHashMapPolicyISt17basic_string_viewIcSt11char_traitsIcEENSt7__cxx1112basic_stringIcS7_SaIcEEEEENS1_10StringHashENS1_8StringEqESaISt4pairIKS8_SC_EEE12EqualElementIA12_cEEJRSI_EEEDTclsr15memory_internalE17DecomposePairImplclsr3stdE7forwardIT_Efp_Ecl8PairArgsspclsr3stdE7forwardIT0_Efp0_EEEEOSP_DpOSQ_ = comdat any

$_ZN4absl12lts_2023080218container_internal15memory_internal17DecomposePairImplINS1_12raw_hash_setINS1_17FlatHashMapPolicyISt17basic_string_viewIcSt11char_traitsIcEENSt7__cxx1112basic_stringIcS8_SaIcEEEEENS1_10StringHashENS1_8StringEqESaISt4pairIKS9_SD_EEE12EqualElementIA12_cEERSI_St5tupleIJRKSD_EEEEDTclclsr3stdE7declvalIT_EEclsr3stdE7declvalIRKT0_EEL_ZSt19piecewise_constructEclsr3stdE7declvalISQ_IJSV_EEEEclsr3stdE7declvalIT1_EEEEOSU_SH_ISY_SZ_E = comdat any

$_ZNK4absl12lts_2023080218container_internal12raw_hash_setINS1_17FlatHashMapPolicyISt17basic_string_viewIcSt11char_traitsIcEENSt7__cxx1112basic_stringIcS6_SaIcEEEEENS1_10StringHashENS1_8StringEqESaISt4pairIKS7_SB_EEE12EqualElementIA12_cEclIS7_JRKSt21piecewise_construct_tSt5tupleIJRSG_EESR_IJRKSB_EEEEEbRKT_DpOT0_ = comdat any

$_ZN4absl12lts_2023080218container_internal20common_policy_traitsINS1_17FlatHashMapPolicyISt17basic_string_viewIcSt11char_traitsIcEENSt7__cxx1112basic_stringIcS6_SaIcEEEEEvE9constructISaISt4pairIKS7_SB_EEJRKSt21piecewise_construct_tSt5tupleIJRA12_KcEESM_IJEEEEEvPT_PNS1_13map_slot_typeIS7_SB_EEDpOT0_ = comdat any

$_ZN4absl12lts_2023080218container_internal17FlatHashMapPolicyISt17basic_string_viewIcSt11char_traitsIcEENSt7__cxx1112basic_stringIcS5_SaIcEEEE9constructISaISt4pairIKS6_SA_EEJRKSt21piecewise_construct_tSt5tupleIJRA12_KcEESK_IJEEEEEvPT_PNS1_13map_slot_typeIS6_SA_EEDpOT0_ = comdat any

$_ZN4absl12lts_2023080218container_internal15map_slot_policyISt17basic_string_viewIcSt11char_traitsIcEENSt7__cxx1112basic_stringIcS5_SaIcEEEE9constructISaISt4pairIKS6_SA_EEJRKSt21piecewise_construct_tSt5tupleIJRA12_KcEESK_IJEEEEEvPT_PNS1_13map_slot_typeIS6_SA_EEDpOT0_ = comdat any

$_ZNSt16allocator_traitsISaISt4pairIKSt17basic_string_viewIcSt11char_traitsIcEENSt7__cxx1112basic_stringIcS3_SaIcEEEEEE9constructIS0_IS4_S9_EJRKSt21piecewise_construct_tSt5tupleIJRA12_KcEESI_IJEEEEEvRSB_PT_DpOT0_ = comdat any

$_ZNSt15__new_allocatorISt4pairIKSt17basic_string_viewIcSt11char_traitsIcEENSt7__cxx1112basic_stringIcS3_SaIcEEEEE9constructIS0_IS4_S9_EJRKSt21piecewise_construct_tSt5tupleIJRA12_KcEESH_IJEEEEEvPT_DpOT0_ = comdat any

$_ZNSt5tupleIJRA12_KcEEC2EOS3_ = comdat any

$_ZNSt4pairISt17basic_string_viewIcSt11char_traitsIcEENSt7__cxx1112basic_stringIcS2_SaIcEEEEC2IJRA12_KcEJEEESt21piecewise_construct_tSt5tupleIJDpT_EESE_IJDpT0_EE = comdat any

$_ZNSt11_Tuple_implILm0EJRA12_KcEEC2EOS3_ = comdat any

$_ZNSt4pairISt17basic_string_viewIcSt11char_traitsIcEENSt7__cxx1112basic_stringIcS2_SaIcEEEEC2IJRA12_KcEJLm0EEJETpTnmJEEERSt5tupleIJDpT_EERSD_IJDpT1_EESt12_Index_tupleIJXspT0_EEESM_IJXspT2_EEE = comdat any

$_ZSt3getILm0EJRA12_KcEERNSt13tuple_elementIXT_ESt5tupleIJDpT0_EEE4typeERS7_ = comdat any

$_ZSt12__get_helperILm0ERA12_KcJEERT0_RSt11_Tuple_implIXT_EJS3_DpT1_EE = comdat any

$_ZNSt11_Tuple_implILm0EJRA12_KcEE7_M_headERS3_ = comdat any

$_ZNSt10_Head_baseILm0ERA12_KcLb0EE7_M_headERS3_ = comdat any

$_ZNSt5tupleIJRA12_KcEEC2ILb1ETnNSt9enable_ifIXclsr4_TCCIXT_EEE29__is_implicitly_constructibleIS2_EEEbE4typeELb1EEES2_ = comdat any

$_ZNSt11_Tuple_implILm0EJRA12_KcEEC2ES2_ = comdat any

$_ZNSt10_Head_baseILm0ERA12_KcLb0EEC2ES2_ = comdat any

$_ZNSt11char_traitsIcE6lengthEPKc = comdat any

$_ZNSt7__cxx1112basic_stringIcSt11char_traitsIcESaIcEE12_M_constructIPKcEEvT_S8_St20forward_iterator_tag = comdat any

$_ZNSt7__cxx1112basic_stringIcSt11char_traitsIcESaIcEE12_Alloc_hiderD2Ev = comdat any

$_ZSt8distanceIPKcENSt15iterator_traitsIT_E15difference_typeES3_S3_ = comdat any

$_ZZNSt7__cxx1112basic_stringIcSt11char_traitsIcESaIcEE12_M_constructIPKcEEvT_S8_St20forward_iterator_tagEN6_GuardC2EPS4_ = comdat any

$_ZZNSt7__cxx1112basic_stringIcSt11char_traitsIcESaIcEE12_M_constructIPKcEEvT_S8_St20forward_iterator_tagEN6_GuardD2Ev = comdat any

$_ZSt10__distanceIPKcENSt15iterator_traitsIT_E15difference_typeES3_S3_St26random_access_iterator_tag = comdat any

$_ZSt19__iterator_categoryIPKcENSt15iterator_traitsIT_E17iterator_categoryERKS3_ = comdat any

$_ZN4absl12lts_2023080218container_internal12raw_hash_mapINS1_17FlatHashMapPolicyISt17basic_string_viewIcSt11char_traitsIcEENSt7__cxx1112basic_stringIcS6_SaIcEEEEENS1_10StringHashENS1_8StringEqESaISt4pairIKS7_SB_EEE11try_emplaceIA15_cJETnNSt9enable_ifIXntsr3std14is_convertibleIT_NS1_12raw_hash_setISC_SD_SE_SI_E14const_iteratorEEE5valueEiE4typeELi0EEESF_INSP_8iteratorEbERKSN_DpOT0_ = comdat any

$_ZN4absl12lts_2023080218container_internal12raw_hash_mapINS1_17FlatHashMapPolicyISt17basic_string_viewIcSt11char_traitsIcEENSt7__cxx1112basic_stringIcS6_SaIcEEEEENS1_10StringHashENS1_8StringEqESaISt4pairIKS7_SB_EEE16try_emplace_implIRA15_KcJEEESF_INS1_12raw_hash_setISC_SD_SE_SI_E8iteratorEbEOT_DpOT0_ = comdat any

$_ZN4absl12lts_2023080218container_internal12raw_hash_setINS1_17FlatHashMapPolicyISt17basic_string_viewIcSt11char_traitsIcEENSt7__cxx1112basic_stringIcS6_SaIcEEEEENS1_10StringHashENS1_8StringEqESaISt4pairIKS7_SB_EEE22find_or_prepare_insertIA15_cEESF_ImbERKT_ = comdat any

$_ZN4absl12lts_2023080218container_internal12raw_hash_setINS1_17FlatHashMapPolicyISt17basic_string_viewIcSt11char_traitsIcEENSt7__cxx1112basic_stringIcS6_SaIcEEEEENS1_10StringHashENS1_8StringEqESaISt4pairIKS7_SB_EEE10emplace_atIJRKSt21piecewise_construct_tSt5tupleIJRA15_KcEESO_IJEEEEEvmDpOT_ = comdat any

$_ZSt16forward_as_tupleIJRA15_KcEESt5tupleIJDpOT_EES6_ = comdat any

$_ZN4absl12lts_2023080218container_internal18hash_policy_traitsINS1_17FlatHashMapPolicyISt17basic_string_viewIcSt11char_traitsIcEENSt7__cxx1112basic_stringIcS6_SaIcEEEEEvE5applyINS1_12raw_hash_setISC_NS1_10StringHashENS1_8StringEqESaISt4pairIKS7_SB_EEE12EqualElementIA15_cEEJRSK_ESC_EEDTclsrT1_5applyclsr3stdE7forwardIT_Efp_Espclsr3stdE7forwardIT0_Efp0_EEEOSS_DpOST_ = comdat any

$_ZN4absl12lts_2023080218container_internal17FlatHashMapPolicyISt17basic_string_viewIcSt11char_traitsIcEENSt7__cxx1112basic_stringIcS5_SaIcEEEE5applyINS1_12raw_hash_setISB_NS1_10StringHashENS1_8StringEqESaISt4pairIKS6_SA_EEE12EqualElementIA15_cEEJRSI_EEEDTclsr4absl18container_internalE13DecomposePairclsr3stdE7declvalIT_EEspclsr3stdE7declvalIT0_EEEEOSP_DpOSQ_ = comdat any

$_ZN4absl12lts_2023080218container_internal13DecomposePairINS1_12raw_hash_setINS1_17FlatHashMapPolicyISt17basic_string_viewIcSt11char_traitsIcEENSt7__cxx1112basic_stringIcS7_SaIcEEEEENS1_10StringHashENS1_8StringEqESaISt4pairIKS8_SC_EEE12EqualElementIA15_cEEJRSI_EEEDTclsr15memory_internalE17DecomposePairImplclsr3stdE7forwardIT_Efp_Ecl8PairArgsspclsr3stdE7forwardIT0_Efp0_EEEEOSP_DpOSQ_ = comdat any

$_ZN4absl12lts_2023080218container_internal15memory_internal17DecomposePairImplINS1_12raw_hash_setINS1_17FlatHashMapPolicyISt17basic_string_viewIcSt11char_traitsIcEENSt7__cxx1112basic_stringIcS8_SaIcEEEEENS1_10StringHashENS1_8StringEqESaISt4pairIKS9_SD_EEE12EqualElementIA15_cEERSI_St5tupleIJRKSD_EEEEDTclclsr3stdE7declvalIT_EEclsr3stdE7declvalIRKT0_EEL_ZSt19piecewise_constructEclsr3stdE7declvalISQ_IJSV_EEEEclsr3stdE7declvalIT1_EEEEOSU_SH_ISY_SZ_E = comdat any

$_ZNK4absl12lts_2023080218container_internal12raw_hash_setINS1_17FlatHashMapPolicyISt17basic_string_viewIcSt11char_traitsIcEENSt7__cxx1112basic_stringIcS6_SaIcEEEEENS1_10StringHashENS1_8StringEqESaISt4pairIKS7_SB_EEE12EqualElementIA15_cEclIS7_JRKSt21piecewise_construct_tSt5tupleIJRSG_EESR_IJRKSB_EEEEEbRKT_DpOT0_ = comdat any

$_ZN4absl12lts_2023080218container_internal20common_policy_traitsINS1_17FlatHashMapPolicyISt17basic_string_viewIcSt11char_traitsIcEENSt7__cxx1112basic_stringIcS6_SaIcEEEEEvE9constructISaISt4pairIKS7_SB_EEJRKSt21piecewise_construct_tSt5tupleIJRA15_KcEESM_IJEEEEEvPT_PNS1_13map_slot_typeIS7_SB_EEDpOT0_ = comdat any

$_ZN4absl12lts_2023080218container_internal17FlatHashMapPolicyISt17basic_string_viewIcSt11char_traitsIcEENSt7__cxx1112basic_stringIcS5_SaIcEEEE9constructISaISt4pairIKS6_SA_EEJRKSt21piecewise_construct_tSt5tupleIJRA15_KcEESK_IJEEEEEvPT_PNS1_13map_slot_typeIS6_SA_EEDpOT0_ = comdat any

$_ZN4absl12lts_2023080218container_internal15map_slot_policyISt17basic_string_viewIcSt11char_traitsIcEENSt7__cxx1112basic_stringIcS5_SaIcEEEE9constructISaISt4pairIKS6_SA_EEJRKSt21piecewise_construct_tSt5tupleIJRA15_KcEESK_IJEEEEEvPT_PNS1_13map_slot_typeIS6_SA_EEDpOT0_ = comdat any

$_ZNSt16allocator_traitsISaISt4pairIKSt17basic_string_viewIcSt11char_traitsIcEENSt7__cxx1112basic_stringIcS3_SaIcEEEEEE9constructIS0_IS4_S9_EJRKSt21piecewise_construct_tSt5tupleIJRA15_KcEESI_IJEEEEEvRSB_PT_DpOT0_ = comdat any

$_ZNSt15__new_allocatorISt4pairIKSt17basic_string_viewIcSt11char_traitsIcEENSt7__cxx1112basic_stringIcS3_SaIcEEEEE9constructIS0_IS4_S9_EJRKSt21piecewise_construct_tSt5tupleIJRA15_KcEESH_IJEEEEEvPT_DpOT0_ = comdat any

$_ZNSt5tupleIJRA15_KcEEC2EOS3_ = comdat any

$_ZNSt4pairISt17basic_string_viewIcSt11char_traitsIcEENSt7__cxx1112basic_stringIcS2_SaIcEEEEC2IJRA15_KcEJEEESt21piecewise_construct_tSt5tupleIJDpT_EESE_IJDpT0_EE = comdat any

$_ZNSt11_Tuple_implILm0EJRA15_KcEEC2EOS3_ = comdat any

$_ZNSt4pairISt17basic_string_viewIcSt11char_traitsIcEENSt7__cxx1112basic_stringIcS2_SaIcEEEEC2IJRA15_KcEJLm0EEJETpTnmJEEERSt5tupleIJDpT_EERSD_IJDpT1_EESt12_Index_tupleIJXspT0_EEESM_IJXspT2_EEE = comdat any

$_ZSt3getILm0EJRA15_KcEERNSt13tuple_elementIXT_ESt5tupleIJDpT0_EEE4typeERS7_ = comdat any

$_ZSt12__get_helperILm0ERA15_KcJEERT0_RSt11_Tuple_implIXT_EJS3_DpT1_EE = comdat any

$_ZNSt11_Tuple_implILm0EJRA15_KcEE7_M_headERS3_ = comdat any

$_ZNSt10_Head_baseILm0ERA15_KcLb0EE7_M_headERS3_ = comdat any

$_ZNSt5tupleIJRA15_KcEEC2ILb1ETnNSt9enable_ifIXclsr4_TCCIXT_EEE29__is_implicitly_constructibleIS2_EEEbE4typeELb1EEES2_ = comdat any

$_ZNSt11_Tuple_implILm0EJRA15_KcEEC2ES2_ = comdat any

$_ZNSt10_Head_baseILm0ERA15_KcLb0EEC2ES2_ = comdat any

$_ZN4absl12lts_2023080218container_internal12raw_hash_mapINS1_17FlatHashMapPolicyISt17basic_string_viewIcSt11char_traitsIcEENSt7__cxx1112basic_stringIcS6_SaIcEEEEENS1_10StringHashENS1_8StringEqESaISt4pairIKS7_SB_EEE11try_emplaceIA26_cJETnNSt9enable_ifIXntsr3std14is_convertibleIT_NS1_12raw_hash_setISC_SD_SE_SI_E14const_iteratorEEE5valueEiE4typeELi0EEESF_INSP_8iteratorEbERKSN_DpOT0_ = comdat any

$_ZN4absl12lts_2023080218container_internal12raw_hash_mapINS1_17FlatHashMapPolicyISt17basic_string_viewIcSt11char_traitsIcEENSt7__cxx1112basic_stringIcS6_SaIcEEEEENS1_10StringHashENS1_8StringEqESaISt4pairIKS7_SB_EEE16try_emplace_implIRA26_KcJEEESF_INS1_12raw_hash_setISC_SD_SE_SI_E8iteratorEbEOT_DpOT0_ = comdat any

$_ZN4absl12lts_2023080218container_internal12raw_hash_setINS1_17FlatHashMapPolicyISt17basic_string_viewIcSt11char_traitsIcEENSt7__cxx1112basic_stringIcS6_SaIcEEEEENS1_10StringHashENS1_8StringEqESaISt4pairIKS7_SB_EEE22find_or_prepare_insertIA26_cEESF_ImbERKT_ = comdat any

$_ZN4absl12lts_2023080218container_internal12raw_hash_setINS1_17FlatHashMapPolicyISt17basic_string_viewIcSt11char_traitsIcEENSt7__cxx1112basic_stringIcS6_SaIcEEEEENS1_10StringHashENS1_8StringEqESaISt4pairIKS7_SB_EEE10emplace_atIJRKSt21piecewise_construct_tSt5tupleIJRA26_KcEESO_IJEEEEEvmDpOT_ = comdat any

$_ZSt16forward_as_tupleIJRA26_KcEESt5tupleIJDpOT_EES6_ = comdat any

$_ZN4absl12lts_2023080218container_internal18hash_policy_traitsINS1_17FlatHashMapPolicyISt17basic_string_viewIcSt11char_traitsIcEENSt7__cxx1112basic_stringIcS6_SaIcEEEEEvE5applyINS1_12raw_hash_setISC_NS1_10StringHashENS1_8StringEqESaISt4pairIKS7_SB_EEE12EqualElementIA26_cEEJRSK_ESC_EEDTclsrT1_5applyclsr3stdE7forwardIT_Efp_Espclsr3stdE7forwardIT0_Efp0_EEEOSS_DpOST_ = comdat any

$_ZN4absl12lts_2023080218container_internal17FlatHashMapPolicyISt17basic_string_viewIcSt11char_traitsIcEENSt7__cxx1112basic_stringIcS5_SaIcEEEE5applyINS1_12raw_hash_setISB_NS1_10StringHashENS1_8StringEqESaISt4pairIKS6_SA_EEE12EqualElementIA26_cEEJRSI_EEEDTclsr4absl18container_internalE13DecomposePairclsr3stdE7declvalIT_EEspclsr3stdE7declvalIT0_EEEEOSP_DpOSQ_ = comdat any

$_ZN4absl12lts_2023080218container_internal13DecomposePairINS1_12raw_hash_setINS1_17FlatHashMapPolicyISt17basic_string_viewIcSt11char_traitsIcEENSt7__cxx1112basic_stringIcS7_SaIcEEEEENS1_10StringHashENS1_8StringEqESaISt4pairIKS8_SC_EEE12EqualElementIA26_cEEJRSI_EEEDTclsr15memory_internalE17DecomposePairImplclsr3stdE7forwardIT_Efp_Ecl8PairArgsspclsr3stdE7forwardIT0_Efp0_EEEEOSP_DpOSQ_ = comdat any

$_ZN4absl12lts_2023080218container_internal15memory_internal17DecomposePairImplINS1_12raw_hash_setINS1_17FlatHashMapPolicyISt17basic_string_viewIcSt11char_traitsIcEENSt7__cxx1112basic_stringIcS8_SaIcEEEEENS1_10StringHashENS1_8StringEqESaISt4pairIKS9_SD_EEE12EqualElementIA26_cEERSI_St5tupleIJRKSD_EEEEDTclclsr3stdE7declvalIT_EEclsr3stdE7declvalIRKT0_EEL_ZSt19piecewise_constructEclsr3stdE7declvalISQ_IJSV_EEEEclsr3stdE7declvalIT1_EEEEOSU_SH_ISY_SZ_E = comdat any

$_ZNK4absl12lts_2023080218container_internal12raw_hash_setINS1_17FlatHashMapPolicyISt17basic_string_viewIcSt11char_traitsIcEENSt7__cxx1112basic_stringIcS6_SaIcEEEEENS1_10StringHashENS1_8StringEqESaISt4pairIKS7_SB_EEE12EqualElementIA26_cEclIS7_JRKSt21piecewise_construct_tSt5tupleIJRSG_EESR_IJRKSB_EEEEEbRKT_DpOT0_ = comdat any

$_ZN4absl12lts_2023080218container_internal20common_policy_traitsINS1_17FlatHashMapPolicyISt17basic_string_viewIcSt11char_traitsIcEENSt7__cxx1112basic_stringIcS6_SaIcEEEEEvE9constructISaISt4pairIKS7_SB_EEJRKSt21piecewise_construct_tSt5tupleIJRA26_KcEESM_IJEEEEEvPT_PNS1_13map_slot_typeIS7_SB_EEDpOT0_ = comdat any

$_ZN4absl12lts_2023080218container_internal17FlatHashMapPolicyISt17basic_string_viewIcSt11char_traitsIcEENSt7__cxx1112basic_stringIcS5_SaIcEEEE9constructISaISt4pairIKS6_SA_EEJRKSt21piecewise_construct_tSt5tupleIJRA26_KcEESK_IJEEEEEvPT_PNS1_13map_slot_typeIS6_SA_EEDpOT0_ = comdat any

$_ZN4absl12lts_2023080218container_internal15map_slot_policyISt17basic_string_viewIcSt11char_traitsIcEENSt7__cxx1112basic_stringIcS5_SaIcEEEE9constructISaISt4pairIKS6_SA_EEJRKSt21piecewise_construct_tSt5tupleIJRA26_KcEESK_IJEEEEEvPT_PNS1_13map_slot_typeIS6_SA_EEDpOT0_ = comdat any

$_ZNSt16allocator_traitsISaISt4pairIKSt17basic_string_viewIcSt11char_traitsIcEENSt7__cxx1112basic_stringIcS3_SaIcEEEEEE9constructIS0_IS4_S9_EJRKSt21piecewise_construct_tSt5tupleIJRA26_KcEESI_IJEEEEEvRSB_PT_DpOT0_ = comdat any

$_ZNSt15__new_allocatorISt4pairIKSt17basic_string_viewIcSt11char_traitsIcEENSt7__cxx1112basic_stringIcS3_SaIcEEEEE9constructIS0_IS4_S9_EJRKSt21piecewise_construct_tSt5tupleIJRA26_KcEESH_IJEEEEEvPT_DpOT0_ = comdat any

$_ZNSt5tupleIJRA26_KcEEC2EOS3_ = comdat any

$_ZNSt4pairISt17basic_string_viewIcSt11char_traitsIcEENSt7__cxx1112basic_stringIcS2_SaIcEEEEC2IJRA26_KcEJEEESt21piecewise_construct_tSt5tupleIJDpT_EESE_IJDpT0_EE = comdat any

$_ZNSt11_Tuple_implILm0EJRA26_KcEEC2EOS3_ = comdat any

$_ZNSt4pairISt17basic_string_viewIcSt11char_traitsIcEENSt7__cxx1112basic_stringIcS2_SaIcEEEEC2IJRA26_KcEJLm0EEJETpTnmJEEERSt5tupleIJDpT_EERSD_IJDpT1_EESt12_Index_tupleIJXspT0_EEESM_IJXspT2_EEE = comdat any

$_ZSt3getILm0EJRA26_KcEERNSt13tuple_elementIXT_ESt5tupleIJDpT0_EEE4typeERS7_ = comdat any

$_ZSt12__get_helperILm0ERA26_KcJEERT0_RSt11_Tuple_implIXT_EJS3_DpT1_EE = comdat any

$_ZNSt11_Tuple_implILm0EJRA26_KcEE7_M_headERS3_ = comdat any

$_ZNSt10_Head_baseILm0ERA26_KcLb0EE7_M_headERS3_ = comdat any

$_ZNSt5tupleIJRA26_KcEEC2ILb1ETnNSt9enable_ifIXclsr4_TCCIXT_EEE29__is_implicitly_constructibleIS2_EEEbE4typeELb1EEES2_ = comdat any

$_ZNSt11_Tuple_implILm0EJRA26_KcEEC2ES2_ = comdat any

$_ZNSt10_Head_baseILm0ERA26_KcLb0EEC2ES2_ = comdat any

$_ZN4absl12lts_2023080218container_internal12raw_hash_mapINS1_17FlatHashMapPolicyISt17basic_string_viewIcSt11char_traitsIcEENSt7__cxx1112basic_stringIcS6_SaIcEEEEENS1_10StringHashENS1_8StringEqESaISt4pairIKS7_SB_EEE11try_emplaceIA28_cJETnNSt9enable_ifIXntsr3std14is_convertibleIT_NS1_12raw_hash_setISC_SD_SE_SI_E14const_iteratorEEE5valueEiE4typeELi0EEESF_INSP_8iteratorEbERKSN_DpOT0_ = comdat any

$_ZN4absl12lts_2023080218container_internal12raw_hash_mapINS1_17FlatHashMapPolicyISt17basic_string_viewIcSt11char_traitsIcEENSt7__cxx1112basic_stringIcS6_SaIcEEEEENS1_10StringHashENS1_8StringEqESaISt4pairIKS7_SB_EEE16try_emplace_implIRA28_KcJEEESF_INS1_12raw_hash_setISC_SD_SE_SI_E8iteratorEbEOT_DpOT0_ = comdat any

$_ZN4absl12lts_2023080218container_internal12raw_hash_setINS1_17FlatHashMapPolicyISt17basic_string_viewIcSt11char_traitsIcEENSt7__cxx1112basic_stringIcS6_SaIcEEEEENS1_10StringHashENS1_8StringEqESaISt4pairIKS7_SB_EEE22find_or_prepare_insertIA28_cEESF_ImbERKT_ = comdat any

$_ZN4absl12lts_2023080218container_internal12raw_hash_setINS1_17FlatHashMapPolicyISt17basic_string_viewIcSt11char_traitsIcEENSt7__cxx1112basic_stringIcS6_SaIcEEEEENS1_10StringHashENS1_8StringEqESaISt4pairIKS7_SB_EEE10emplace_atIJRKSt21piecewise_construct_tSt5tupleIJRA28_KcEESO_IJEEEEEvmDpOT_ = comdat any

$_ZSt16forward_as_tupleIJRA28_KcEESt5tupleIJDpOT_EES6_ = comdat any

$_ZN4absl12lts_2023080218container_internal18hash_policy_traitsINS1_17FlatHashMapPolicyISt17basic_string_viewIcSt11char_traitsIcEENSt7__cxx1112basic_stringIcS6_SaIcEEEEEvE5applyINS1_12raw_hash_setISC_NS1_10StringHashENS1_8StringEqESaISt4pairIKS7_SB_EEE12EqualElementIA28_cEEJRSK_ESC_EEDTclsrT1_5applyclsr3stdE7forwardIT_Efp_Espclsr3stdE7forwardIT0_Efp0_EEEOSS_DpOST_ = comdat any

$_ZN4absl12lts_2023080218container_internal17FlatHashMapPolicyISt17basic_string_viewIcSt11char_traitsIcEENSt7__cxx1112basic_stringIcS5_SaIcEEEE5applyINS1_12raw_hash_setISB_NS1_10StringHashENS1_8StringEqESaISt4pairIKS6_SA_EEE12EqualElementIA28_cEEJRSI_EEEDTclsr4absl18container_internalE13DecomposePairclsr3stdE7declvalIT_EEspclsr3stdE7declvalIT0_EEEEOSP_DpOSQ_ = comdat any

$_ZN4absl12lts_2023080218container_internal13DecomposePairINS1_12raw_hash_setINS1_17FlatHashMapPolicyISt17basic_string_viewIcSt11char_traitsIcEENSt7__cxx1112basic_stringIcS7_SaIcEEEEENS1_10StringHashENS1_8StringEqESaISt4pairIKS8_SC_EEE12EqualElementIA28_cEEJRSI_EEEDTclsr15memory_internalE17DecomposePairImplclsr3stdE7forwardIT_Efp_Ecl8PairArgsspclsr3stdE7forwardIT0_Efp0_EEEEOSP_DpOSQ_ = comdat any

$_ZN4absl12lts_2023080218container_internal15memory_internal17DecomposePairImplINS1_12raw_hash_setINS1_17FlatHashMapPolicyISt17basic_string_viewIcSt11char_traitsIcEENSt7__cxx1112basic_stringIcS8_SaIcEEEEENS1_10StringHashENS1_8StringEqESaISt4pairIKS9_SD_EEE12EqualElementIA28_cEERSI_St5tupleIJRKSD_EEEEDTclclsr3stdE7declvalIT_EEclsr3stdE7declvalIRKT0_EEL_ZSt19piecewise_constructEclsr3stdE7declvalISQ_IJSV_EEEEclsr3stdE7declvalIT1_EEEEOSU_SH_ISY_SZ_E = comdat any

$_ZNK4absl12lts_2023080218container_internal12raw_hash_setINS1_17FlatHashMapPolicyISt17basic_string_viewIcSt11char_traitsIcEENSt7__cxx1112basic_stringIcS6_SaIcEEEEENS1_10StringHashENS1_8StringEqESaISt4pairIKS7_SB_EEE12EqualElementIA28_cEclIS7_JRKSt21piecewise_construct_tSt5tupleIJRSG_EESR_IJRKSB_EEEEEbRKT_DpOT0_ = comdat any

$_ZN4absl12lts_2023080218container_internal20common_policy_traitsINS1_17FlatHashMapPolicyISt17basic_string_viewIcSt11char_traitsIcEENSt7__cxx1112basic_stringIcS6_SaIcEEEEEvE9constructISaISt4pairIKS7_SB_EEJRKSt21piecewise_construct_tSt5tupleIJRA28_KcEESM_IJEEEEEvPT_PNS1_13map_slot_typeIS7_SB_EEDpOT0_ = comdat any

$_ZN4absl12lts_2023080218container_internal17FlatHashMapPolicyISt17basic_string_viewIcSt11char_traitsIcEENSt7__cxx1112basic_stringIcS5_SaIcEEEE9constructISaISt4pairIKS6_SA_EEJRKSt21piecewise_construct_tSt5tupleIJRA28_KcEESK_IJEEEEEvPT_PNS1_13map_slot_typeIS6_SA_EEDpOT0_ = comdat any

$_ZN4absl12lts_2023080218container_internal15map_slot_policyISt17basic_string_viewIcSt11char_traitsIcEENSt7__cxx1112basic_stringIcS5_SaIcEEEE9constructISaISt4pairIKS6_SA_EEJRKSt21piecewise_construct_tSt5tupleIJRA28_KcEESK_IJEEEEEvPT_PNS1_13map_slot_typeIS6_SA_EEDpOT0_ = comdat any

$_ZNSt16allocator_traitsISaISt4pairIKSt17basic_string_viewIcSt11char_traitsIcEENSt7__cxx1112basic_stringIcS3_SaIcEEEEEE9constructIS0_IS4_S9_EJRKSt21piecewise_construct_tSt5tupleIJRA28_KcEESI_IJEEEEEvRSB_PT_DpOT0_ = comdat any

$_ZNSt15__new_allocatorISt4pairIKSt17basic_string_viewIcSt11char_traitsIcEENSt7__cxx1112basic_stringIcS3_SaIcEEEEE9constructIS0_IS4_S9_EJRKSt21piecewise_construct_tSt5tupleIJRA28_KcEESH_IJEEEEEvPT_DpOT0_ = comdat any

$_ZNSt5tupleIJRA28_KcEEC2EOS3_ = comdat any

$_ZNSt4pairISt17basic_string_viewIcSt11char_traitsIcEENSt7__cxx1112basic_stringIcS2_SaIcEEEEC2IJRA28_KcEJEEESt21piecewise_construct_tSt5tupleIJDpT_EESE_IJDpT0_EE = comdat any

$_ZNSt11_Tuple_implILm0EJRA28_KcEEC2EOS3_ = comdat any

$_ZNSt4pairISt17basic_string_viewIcSt11char_traitsIcEENSt7__cxx1112basic_stringIcS2_SaIcEEEEC2IJRA28_KcEJLm0EEJETpTnmJEEERSt5tupleIJDpT_EERSD_IJDpT1_EESt12_Index_tupleIJXspT0_EEESM_IJXspT2_EEE = comdat any

$_ZSt3getILm0EJRA28_KcEERNSt13tuple_elementIXT_ESt5tupleIJDpT0_EEE4typeERS7_ = comdat any

$_ZSt12__get_helperILm0ERA28_KcJEERT0_RSt11_Tuple_implIXT_EJS3_DpT1_EE = comdat any

$_ZNSt11_Tuple_implILm0EJRA28_KcEE7_M_headERS3_ = comdat any

$_ZNSt10_Head_baseILm0ERA28_KcLb0EE7_M_headERS3_ = comdat any

$_ZNSt5tupleIJRA28_KcEEC2ILb1ETnNSt9enable_ifIXclsr4_TCCIXT_EEE29__is_implicitly_constructibleIS2_EEEbE4typeELb1EEES2_ = comdat any

$_ZNSt11_Tuple_implILm0EJRA28_KcEEC2ES2_ = comdat any

$_ZNSt10_Head_baseILm0ERA28_KcLb0EEC2ES2_ = comdat any

$_ZN4absl12lts_2023080218container_internal12raw_hash_mapINS1_17FlatHashMapPolicyISt17basic_string_viewIcSt11char_traitsIcEENSt7__cxx1112basic_stringIcS6_SaIcEEEEENS1_10StringHashENS1_8StringEqESaISt4pairIKS7_SB_EEE11try_emplaceIA25_cJETnNSt9enable_ifIXntsr3std14is_convertibleIT_NS1_12raw_hash_setISC_SD_SE_SI_E14const_iteratorEEE5valueEiE4typeELi0EEESF_INSP_8iteratorEbERKSN_DpOT0_ = comdat any

$_ZN4absl12lts_2023080218container_internal12raw_hash_mapINS1_17FlatHashMapPolicyISt17basic_string_viewIcSt11char_traitsIcEENSt7__cxx1112basic_stringIcS6_SaIcEEEEENS1_10StringHashENS1_8StringEqESaISt4pairIKS7_SB_EEE16try_emplace_implIRA25_KcJEEESF_INS1_12raw_hash_setISC_SD_SE_SI_E8iteratorEbEOT_DpOT0_ = comdat any

$_ZN4absl12lts_2023080218container_internal12raw_hash_setINS1_17FlatHashMapPolicyISt17basic_string_viewIcSt11char_traitsIcEENSt7__cxx1112basic_stringIcS6_SaIcEEEEENS1_10StringHashENS1_8StringEqESaISt4pairIKS7_SB_EEE22find_or_prepare_insertIA25_cEESF_ImbERKT_ = comdat any

$_ZN4absl12lts_2023080218container_internal12raw_hash_setINS1_17FlatHashMapPolicyISt17basic_string_viewIcSt11char_traitsIcEENSt7__cxx1112basic_stringIcS6_SaIcEEEEENS1_10StringHashENS1_8StringEqESaISt4pairIKS7_SB_EEE10emplace_atIJRKSt21piecewise_construct_tSt5tupleIJRA25_KcEESO_IJEEEEEvmDpOT_ = comdat any

$_ZSt16forward_as_tupleIJRA25_KcEESt5tupleIJDpOT_EES6_ = comdat any

$_ZN4absl12lts_2023080218container_internal18hash_policy_traitsINS1_17FlatHashMapPolicyISt17basic_string_viewIcSt11char_traitsIcEENSt7__cxx1112basic_stringIcS6_SaIcEEEEEvE5applyINS1_12raw_hash_setISC_NS1_10StringHashENS1_8StringEqESaISt4pairIKS7_SB_EEE12EqualElementIA25_cEEJRSK_ESC_EEDTclsrT1_5applyclsr3stdE7forwardIT_Efp_Espclsr3stdE7forwardIT0_Efp0_EEEOSS_DpOST_ = comdat any

$_ZN4absl12lts_2023080218container_internal17FlatHashMapPolicyISt17basic_string_viewIcSt11char_traitsIcEENSt7__cxx1112basic_stringIcS5_SaIcEEEE5applyINS1_12raw_hash_setISB_NS1_10StringHashENS1_8StringEqESaISt4pairIKS6_SA_EEE12EqualElementIA25_cEEJRSI_EEEDTclsr4absl18container_internalE13DecomposePairclsr3stdE7declvalIT_EEspclsr3stdE7declvalIT0_EEEEOSP_DpOSQ_ = comdat any

$_ZN4absl12lts_2023080218container_internal13DecomposePairINS1_12raw_hash_setINS1_17FlatHashMapPolicyISt17basic_string_viewIcSt11char_traitsIcEENSt7__cxx1112basic_stringIcS7_SaIcEEEEENS1_10StringHashENS1_8StringEqESaISt4pairIKS8_SC_EEE12EqualElementIA25_cEEJRSI_EEEDTclsr15memory_internalE17DecomposePairImplclsr3stdE7forwardIT_Efp_Ecl8PairArgsspclsr3stdE7forwardIT0_Efp0_EEEEOSP_DpOSQ_ = comdat any

$_ZN4absl12lts_2023080218container_internal15memory_internal17DecomposePairImplINS1_12raw_hash_setINS1_17FlatHashMapPolicyISt17basic_string_viewIcSt11char_traitsIcEENSt7__cxx1112basic_stringIcS8_SaIcEEEEENS1_10StringHashENS1_8StringEqESaISt4pairIKS9_SD_EEE12EqualElementIA25_cEERSI_St5tupleIJRKSD_EEEEDTclclsr3stdE7declvalIT_EEclsr3stdE7declvalIRKT0_EEL_ZSt19piecewise_constructEclsr3stdE7declvalISQ_IJSV_EEEEclsr3stdE7declvalIT1_EEEEOSU_SH_ISY_SZ_E = comdat any

$_ZNK4absl12lts_2023080218container_internal12raw_hash_setINS1_17FlatHashMapPolicyISt17basic_string_viewIcSt11char_traitsIcEENSt7__cxx1112basic_stringIcS6_SaIcEEEEENS1_10StringHashENS1_8StringEqESaISt4pairIKS7_SB_EEE12EqualElementIA25_cEclIS7_JRKSt21piecewise_construct_tSt5tupleIJRSG_EESR_IJRKSB_EEEEEbRKT_DpOT0_ = comdat any

$_ZN4absl12lts_2023080218container_internal20common_policy_traitsINS1_17FlatHashMapPolicyISt17basic_string_viewIcSt11char_traitsIcEENSt7__cxx1112basic_stringIcS6_SaIcEEEEEvE9constructISaISt4pairIKS7_SB_EEJRKSt21piecewise_construct_tSt5tupleIJRA25_KcEESM_IJEEEEEvPT_PNS1_13map_slot_typeIS7_SB_EEDpOT0_ = comdat any

$_ZN4absl12lts_2023080218container_internal17FlatHashMapPolicyISt17basic_string_viewIcSt11char_traitsIcEENSt7__cxx1112basic_stringIcS5_SaIcEEEE9constructISaISt4pairIKS6_SA_EEJRKSt21piecewise_construct_tSt5tupleIJRA25_KcEESK_IJEEEEEvPT_PNS1_13map_slot_typeIS6_SA_EEDpOT0_ = comdat any

$_ZN4absl12lts_2023080218container_internal15map_slot_policyISt17basic_string_viewIcSt11char_traitsIcEENSt7__cxx1112basic_stringIcS5_SaIcEEEE9constructISaISt4pairIKS6_SA_EEJRKSt21piecewise_construct_tSt5tupleIJRA25_KcEESK_IJEEEEEvPT_PNS1_13map_slot_typeIS6_SA_EEDpOT0_ = comdat any

$_ZNSt16allocator_traitsISaISt4pairIKSt17basic_string_viewIcSt11char_traitsIcEENSt7__cxx1112basic_stringIcS3_SaIcEEEEEE9constructIS0_IS4_S9_EJRKSt21piecewise_construct_tSt5tupleIJRA25_KcEESI_IJEEEEEvRSB_PT_DpOT0_ = comdat any

$_ZNSt15__new_allocatorISt4pairIKSt17basic_string_viewIcSt11char_traitsIcEENSt7__cxx1112basic_stringIcS3_SaIcEEEEE9constructIS0_IS4_S9_EJRKSt21piecewise_construct_tSt5tupleIJRA25_KcEESH_IJEEEEEvPT_DpOT0_ = comdat any

$_ZNSt5tupleIJRA25_KcEEC2EOS3_ = comdat any

$_ZNSt4pairISt17basic_string_viewIcSt11char_traitsIcEENSt7__cxx1112basic_stringIcS2_SaIcEEEEC2IJRA25_KcEJEEESt21piecewise_construct_tSt5tupleIJDpT_EESE_IJDpT0_EE = comdat any

$_ZNSt11_Tuple_implILm0EJRA25_KcEEC2EOS3_ = comdat any

$_ZNSt4pairISt17basic_string_viewIcSt11char_traitsIcEENSt7__cxx1112basic_stringIcS2_SaIcEEEEC2IJRA25_KcEJLm0EEJETpTnmJEEERSt5tupleIJDpT_EERSD_IJDpT1_EESt12_Index_tupleIJXspT0_EEESM_IJXspT2_EEE = comdat any

$_ZSt3getILm0EJRA25_KcEERNSt13tuple_elementIXT_ESt5tupleIJDpT0_EEE4typeERS7_ = comdat any

$_ZSt12__get_helperILm0ERA25_KcJEERT0_RSt11_Tuple_implIXT_EJS3_DpT1_EE = comdat any

$_ZNSt11_Tuple_implILm0EJRA25_KcEE7_M_headERS3_ = comdat any

$_ZNSt10_Head_baseILm0ERA25_KcLb0EE7_M_headERS3_ = comdat any

$_ZNSt5tupleIJRA25_KcEEC2ILb1ETnNSt9enable_ifIXclsr4_TCCIXT_EEE29__is_implicitly_constructibleIS2_EEEbE4typeELb1EEES2_ = comdat any

$_ZNSt11_Tuple_implILm0EJRA25_KcEEC2ES2_ = comdat any

$_ZNSt10_Head_baseILm0ERA25_KcLb0EEC2ES2_ = comdat any

$_ZN4absl12lts_202308029call_onceIPFvPKN6google8protobuf15FieldDescriptorEEJS6_EEEvRNS0_9once_flagEOT_DpOT0_ = comdat any

$_ZN4absl12lts_2023080213base_internal11ControlWordEPNS0_9once_flagE = comdat any

$_ZN4absl12lts_2023080213base_internal12CallOnceImplIPFvPKN6google8protobuf15FieldDescriptorEEJS7_EEEvPSt6atomicIjENS1_14SchedulingModeEOT_DpOT0_ = comdat any

$_ZStanSt12memory_orderSt23__memory_order_modifier = comdat any

$_ZN4absl12lts_2023080213base_internal16SchedulingHelperC2ENS1_14SchedulingModeE = comdat any

$_ZSt6invokeIPFvPKN6google8protobuf15FieldDescriptorEEJS4_EENSt13invoke_resultIT_JDpT0_EE4typeEOS8_DpOS9_ = comdat any

$_ZN4absl12lts_2023080213base_internal12SpinLockWakeEPSt6atomicIjEb = comdat any

$_ZN4absl12lts_2023080213base_internal16SchedulingHelperD2Ev = comdat any

$_ZN4absl12lts_2023080213base_internal15SchedulingGuard19DisableReschedulingEv = comdat any

$_ZSt23__cmpexch_failure_orderSt12memory_order = comdat any

$_ZStorSt12memory_orderSt23__memory_order_modifier = comdat any

$_ZSt24__cmpexch_failure_order2St12memory_order = comdat any

$_ZSt8__invokeIPFvPKN6google8protobuf15FieldDescriptorEEJS4_EENSt15__invoke_resultIT_JDpT0_EE4typeEOS8_DpOS9_ = comdat any

$_ZSt13__invoke_implIvPFvPKN6google8protobuf15FieldDescriptorEEJS4_EET_St14__invoke_otherOT0_DpOT1_ = comdat any

$_ZN4absl12lts_2023080213base_internal15SchedulingGuard18EnableReschedulingEb = comdat any

$_ZN4absl12lts_2023080218container_internal12raw_hash_mapINS1_17FlatHashMapPolicyISt17basic_string_viewIcSt11char_traitsIcEENSt7__cxx1112basic_stringIcS6_SaIcEEEEENS1_10StringHashENS1_8StringEqESaISt4pairIKS7_SB_EEE11try_emplaceIA2_cJETnNSt9enable_ifIXntsr3std14is_convertibleIT_NS1_12raw_hash_setISC_SD_SE_SI_E14const_iteratorEEE5valueEiE4typeELi0EEESF_INSP_8iteratorEbERKSN_DpOT0_ = comdat any

$_ZN4absl12lts_2023080218container_internal12raw_hash_mapINS1_17FlatHashMapPolicyISt17basic_string_viewIcSt11char_traitsIcEENSt7__cxx1112basic_stringIcS6_SaIcEEEEENS1_10StringHashENS1_8StringEqESaISt4pairIKS7_SB_EEE16try_emplace_implIRA2_KcJEEESF_INS1_12raw_hash_setISC_SD_SE_SI_E8iteratorEbEOT_DpOT0_ = comdat any

$_ZN4absl12lts_2023080218container_internal12raw_hash_setINS1_17FlatHashMapPolicyISt17basic_string_viewIcSt11char_traitsIcEENSt7__cxx1112basic_stringIcS6_SaIcEEEEENS1_10StringHashENS1_8StringEqESaISt4pairIKS7_SB_EEE22find_or_prepare_insertIA2_cEESF_ImbERKT_ = comdat any

$_ZN4absl12lts_2023080218container_internal12raw_hash_setINS1_17FlatHashMapPolicyISt17basic_string_viewIcSt11char_traitsIcEENSt7__cxx1112basic_stringIcS6_SaIcEEEEENS1_10StringHashENS1_8StringEqESaISt4pairIKS7_SB_EEE10emplace_atIJRKSt21piecewise_construct_tSt5tupleIJRA2_KcEESO_IJEEEEEvmDpOT_ = comdat any

$_ZSt16forward_as_tupleIJRA2_KcEESt5tupleIJDpOT_EES6_ = comdat any

$_ZN4absl12lts_2023080218container_internal18hash_policy_traitsINS1_17FlatHashMapPolicyISt17basic_string_viewIcSt11char_traitsIcEENSt7__cxx1112basic_stringIcS6_SaIcEEEEEvE5applyINS1_12raw_hash_setISC_NS1_10StringHashENS1_8StringEqESaISt4pairIKS7_SB_EEE12EqualElementIA2_cEEJRSK_ESC_EEDTclsrT1_5applyclsr3stdE7forwardIT_Efp_Espclsr3stdE7forwardIT0_Efp0_EEEOSS_DpOST_ = comdat any

$_ZN4absl12lts_2023080218container_internal17FlatHashMapPolicyISt17basic_string_viewIcSt11char_traitsIcEENSt7__cxx1112basic_stringIcS5_SaIcEEEE5applyINS1_12raw_hash_setISB_NS1_10StringHashENS1_8StringEqESaISt4pairIKS6_SA_EEE12EqualElementIA2_cEEJRSI_EEEDTclsr4absl18container_internalE13DecomposePairclsr3stdE7declvalIT_EEspclsr3stdE7declvalIT0_EEEEOSP_DpOSQ_ = comdat any

$_ZN4absl12lts_2023080218container_internal13DecomposePairINS1_12raw_hash_setINS1_17FlatHashMapPolicyISt17basic_string_viewIcSt11char_traitsIcEENSt7__cxx1112basic_stringIcS7_SaIcEEEEENS1_10StringHashENS1_8StringEqESaISt4pairIKS8_SC_EEE12EqualElementIA2_cEEJRSI_EEEDTclsr15memory_internalE17DecomposePairImplclsr3stdE7forwardIT_Efp_Ecl8PairArgsspclsr3stdE7forwardIT0_Efp0_EEEEOSP_DpOSQ_ = comdat any

$_ZN4absl12lts_2023080218container_internal15memory_internal17DecomposePairImplINS1_12raw_hash_setINS1_17FlatHashMapPolicyISt17basic_string_viewIcSt11char_traitsIcEENSt7__cxx1112basic_stringIcS8_SaIcEEEEENS1_10StringHashENS1_8StringEqESaISt4pairIKS9_SD_EEE12EqualElementIA2_cEERSI_St5tupleIJRKSD_EEEEDTclclsr3stdE7declvalIT_EEclsr3stdE7declvalIRKT0_EEL_ZSt19piecewise_constructEclsr3stdE7declvalISQ_IJSV_EEEEclsr3stdE7declvalIT1_EEEEOSU_SH_ISY_SZ_E = comdat any

$_ZNK4absl12lts_2023080218container_internal12raw_hash_setINS1_17FlatHashMapPolicyISt17basic_string_viewIcSt11char_traitsIcEENSt7__cxx1112basic_stringIcS6_SaIcEEEEENS1_10StringHashENS1_8StringEqESaISt4pairIKS7_SB_EEE12EqualElementIA2_cEclIS7_JRKSt21piecewise_construct_tSt5tupleIJRSG_EESR_IJRKSB_EEEEEbRKT_DpOT0_ = comdat any

$_ZN4absl12lts_2023080218container_internal20common_policy_traitsINS1_17FlatHashMapPolicyISt17basic_string_viewIcSt11char_traitsIcEENSt7__cxx1112basic_stringIcS6_SaIcEEEEEvE9constructISaISt4pairIKS7_SB_EEJRKSt21piecewise_construct_tSt5tupleIJRA2_KcEESM_IJEEEEEvPT_PNS1_13map_slot_typeIS7_SB_EEDpOT0_ = comdat any

$_ZN4absl12lts_2023080218container_internal17FlatHashMapPolicyISt17basic_string_viewIcSt11char_traitsIcEENSt7__cxx1112basic_stringIcS5_SaIcEEEE9constructISaISt4pairIKS6_SA_EEJRKSt21piecewise_construct_tSt5tupleIJRA2_KcEESK_IJEEEEEvPT_PNS1_13map_slot_typeIS6_SA_EEDpOT0_ = comdat any

$_ZN4absl12lts_2023080218container_internal15map_slot_policyISt17basic_string_viewIcSt11char_traitsIcEENSt7__cxx1112basic_stringIcS5_SaIcEEEE9constructISaISt4pairIKS6_SA_EEJRKSt21piecewise_construct_tSt5tupleIJRA2_KcEESK_IJEEEEEvPT_PNS1_13map_slot_typeIS6_SA_EEDpOT0_ = comdat any

$_ZNSt16allocator_traitsISaISt4pairIKSt17basic_string_viewIcSt11char_traitsIcEENSt7__cxx1112basic_stringIcS3_SaIcEEEEEE9constructIS0_IS4_S9_EJRKSt21piecewise_construct_tSt5tupleIJRA2_KcEESI_IJEEEEEvRSB_PT_DpOT0_ = comdat any

$_ZNSt15__new_allocatorISt4pairIKSt17basic_string_viewIcSt11char_traitsIcEENSt7__cxx1112basic_stringIcS3_SaIcEEEEE9constructIS0_IS4_S9_EJRKSt21piecewise_construct_tSt5tupleIJRA2_KcEESH_IJEEEEEvPT_DpOT0_ = comdat any

$_ZNSt5tupleIJRA2_KcEEC2EOS3_ = comdat any

$_ZNSt4pairISt17basic_string_viewIcSt11char_traitsIcEENSt7__cxx1112basic_stringIcS2_SaIcEEEEC2IJRA2_KcEJEEESt21piecewise_construct_tSt5tupleIJDpT_EESE_IJDpT0_EE = comdat any

$_ZNSt11_Tuple_implILm0EJRA2_KcEEC2EOS3_ = comdat any

$_ZNSt4pairISt17basic_string_viewIcSt11char_traitsIcEENSt7__cxx1112basic_stringIcS2_SaIcEEEEC2IJRA2_KcEJLm0EEJETpTnmJEEERSt5tupleIJDpT_EERSD_IJDpT1_EESt12_Index_tupleIJXspT0_EEESM_IJXspT2_EEE = comdat any

$_ZSt3getILm0EJRA2_KcEERNSt13tuple_elementIXT_ESt5tupleIJDpT0_EEE4typeERS7_ = comdat any

$_ZSt12__get_helperILm0ERA2_KcJEERT0_RSt11_Tuple_implIXT_EJS3_DpT1_EE = comdat any

$_ZNSt11_Tuple_implILm0EJRA2_KcEE7_M_headERS3_ = comdat any

$_ZNSt10_Head_baseILm0ERA2_KcLb0EE7_M_headERS3_ = comdat any

$_ZNSt5tupleIJRA2_KcEEC2ILb1ETnNSt9enable_ifIXclsr4_TCCIXT_EEE29__is_implicitly_constructibleIS2_EEEbE4typeELb1EEES2_ = comdat any

$_ZNSt11_Tuple_implILm0EJRA2_KcEEC2ES2_ = comdat any

$_ZNSt10_Head_baseILm0ERA2_KcLb0EEC2ES2_ = comdat any

$_ZN4absl12lts_2023080218container_internal12raw_hash_mapINS1_17FlatHashMapPolicyISt17basic_string_viewIcSt11char_traitsIcEENSt7__cxx1112basic_stringIcS6_SaIcEEEEENS1_10StringHashENS1_8StringEqESaISt4pairIKS7_SB_EEED2Ev = comdat any

$_ZN4absl12lts_2023080218container_internal12raw_hash_setINS1_17FlatHashMapPolicyISt17basic_string_viewIcSt11char_traitsIcEENSt7__cxx1112basic_stringIcS6_SaIcEEEEENS1_10StringHashENS1_8StringEqESaISt4pairIKS7_SB_EEED2Ev = comdat any

$_ZN4absl12lts_2023080218container_internal12raw_hash_setINS1_17FlatHashMapPolicyISt17basic_string_viewIcSt11char_traitsIcEENSt7__cxx1112basic_stringIcS6_SaIcEEEEENS1_10StringHashENS1_8StringEqESaISt4pairIKS7_SB_EEE13destroy_slotsEv = comdat any

$_ZN4absl12lts_2023080218container_internal20HashtablezInfoHandle10UnregisterEv = comdat any

$_ZN4absl12lts_2023080218container_internal15CompressedTupleIJNS1_12CommonFieldsENS1_10StringHashENS1_8StringEqESaISt4pairIKSt17basic_string_viewIcSt11char_traitsIcEENSt7__cxx1112basic_stringIcS9_SaIcEEEEEEED2Ev = comdat any

$_ZN4absl12lts_2023080218container_internal20common_policy_traitsINS1_17FlatHashMapPolicyISt17basic_string_viewIcSt11char_traitsIcEENSt7__cxx1112basic_stringIcS6_SaIcEEEEEvE7destroyISaISt4pairIKS7_SB_EEEEvPT_PNS1_13map_slot_typeIS7_SB_EE = comdat any

$_ZN4absl12lts_2023080218container_internal17FlatHashMapPolicyISt17basic_string_viewIcSt11char_traitsIcEENSt7__cxx1112basic_stringIcS5_SaIcEEEE7destroyISaISt4pairIKS6_SA_EEEEvPT_PNS1_13map_slot_typeIS6_SA_EE = comdat any

$_ZN4absl12lts_2023080218container_internal25internal_compressed_tuple19CompressedTupleImplINS1_15CompressedTupleIJNS1_12CommonFieldsENS1_10StringHashENS1_8StringEqESaISt4pairIKSt17basic_string_viewIcSt11char_traitsIcEENSt7__cxx1112basic_stringIcSB_SaIcEEEEEEEENS0_16integer_sequenceImJLm0ELm1ELm2ELm3EEEELb1EED2Ev = comdat any

$_ZN4absl12lts_2023080218container_internal25internal_compressed_tuple7StorageISaISt4pairIKSt17basic_string_viewIcSt11char_traitsIcEENSt7__cxx1112basic_stringIcS7_SaIcEEEEELm3ELb1EED2Ev = comdat any

$_ZNSt15__new_allocatorISt4pairIKSt17basic_string_viewIcSt11char_traitsIcEENSt7__cxx1112basic_stringIcS3_SaIcEEEEED2Ev = comdat any

$_ZNSt14_Optional_baseIN6google8protobuf2io19AnnotationCollector8SemanticELb1ELb1EEC2Ev = comdat any

$_ZNSt17_Optional_payloadIN6google8protobuf2io19AnnotationCollector8SemanticELb1ELb1ELb1EEC2Ev = comdat any

$_ZNSt22_Optional_payload_baseIN6google8protobuf2io19AnnotationCollector8SemanticEEC2Ev = comdat any

$_ZNSt22_Optional_payload_baseIN6google8protobuf2io19AnnotationCollector8SemanticEE8_StorageIS4_Lb1EEC2Ev = comdat any

$_ZNSt14_Optional_baseIN6google8protobuf2io19AnnotationCollector8SemanticELb1ELb1EEC2IJS4_ETnNSt9enable_ifIX18is_constructible_vIS4_DpT_EEbE4typeELb0EEESt10in_place_tDpOS8_ = comdat any

$_ZNSt17_Optional_payloadIN6google8protobuf2io19AnnotationCollector8SemanticELb1ELb1ELb1EECI2St22_Optional_payload_baseIS4_EIJS4_EEESt10in_place_tDpOT_ = comdat any

$_ZNSt22_Optional_payload_baseIN6google8protobuf2io19AnnotationCollector8SemanticEEC2IJS4_EEESt10in_place_tDpOT_ = comdat any

$_ZNSt22_Optional_payload_baseIN6google8protobuf2io19AnnotationCollector8SemanticEE8_StorageIS4_Lb1EEC2IJS4_EEESt10in_place_tDpOT_ = comdat any

$_ZN4absl12lts_2023080218container_internal12raw_hash_mapINS1_17FlatHashMapPolicyISt17basic_string_viewIcSt11char_traitsIcEENSt7__cxx1112basic_stringIcS6_SaIcEEEEENS1_10StringHashENS1_8StringEqESaISt4pairIKS7_SB_EEEC2Ev = comdat any

$_ZN4absl12lts_2023080218container_internal12raw_hash_setINS1_17FlatHashMapPolicyISt17basic_string_viewIcSt11char_traitsIcEENSt7__cxx1112basic_stringIcS6_SaIcEEEEENS1_10StringHashENS1_8StringEqESaISt4pairIKS7_SB_EEEC2Ev = comdat any

$_ZN4absl12lts_2023080218container_internal12CommonFieldsC2Ev = comdat any

$_ZNSaISt4pairIKSt17basic_string_viewIcSt11char_traitsIcEENSt7__cxx1112basic_stringIcS2_SaIcEEEEEC2Ev = comdat any

$_ZN4absl12lts_2023080218container_internal15CompressedTupleIJNS1_12CommonFieldsENS1_10StringHashENS1_8StringEqESaISt4pairIKSt17basic_string_viewIcSt11char_traitsIcEENSt7__cxx1112basic_stringIcS9_SaIcEEEEEEEC2IS3_JS4_S5_SH_ETnNSt9enable_ifIXsr4absl11conjunctionINS0_8negationISt7is_sameIFvSI_EFvNSt5decayIT_E4typeEEEEENS1_25internal_compressed_tuple27TupleItemsMoveConstructibleISI_JSP_DpT0_EEEEE5valueEbE4typeELb1EEEOSP_DpOSX_ = comdat any

$_ZNSaISt4pairIKSt17basic_string_viewIcSt11char_traitsIcEENSt7__cxx1112basic_stringIcS2_SaIcEEEEED2Ev = comdat any

$_ZN4absl12lts_2023080218container_internal10EmptyGroupEv = comdat any

$_ZN4absl12lts_2023080218container_internal15CompressedTupleIJmNS1_20HashtablezInfoHandleEEEC2IjJS3_ETnNSt9enable_ifIXsr4absl11conjunctionINS0_8negationISt7is_sameIFvS4_EFvNSt5decayIT_E4typeEEEEENS1_25internal_compressed_tuple27TupleItemsMoveConstructibleIS4_JSB_DpT0_EEEEE5valueEbE4typeELb1EEEOSB_DpOSJ_ = comdat any

$_ZN4absl12lts_202308027forwardIjEEOT_RNSt16remove_referenceIS2_E4typeE = comdat any

$_ZN4absl12lts_202308027forwardINS0_18container_internal20HashtablezInfoHandleEEEOT_RNSt16remove_referenceIS4_E4typeE = comdat any

$_ZN4absl12lts_2023080218container_internal25internal_compressed_tuple19CompressedTupleImplINS1_15CompressedTupleIJmNS1_20HashtablezInfoHandleEEEENS0_16integer_sequenceImJLm0ELm1EEEELb1EEC2IJjS5_EEESt10in_place_tDpOT_ = comdat any

$_ZN4absl12lts_2023080218container_internal25internal_compressed_tuple7StorageImLm0ELb0EEC2IjEESt10in_place_tOT_ = comdat any

$_ZN4absl12lts_2023080218container_internal25internal_compressed_tuple7StorageINS1_20HashtablezInfoHandleELm1ELb1EEC2IS4_EESt10in_place_tOT_ = comdat any

$_ZNSt15__new_allocatorISt4pairIKSt17basic_string_viewIcSt11char_traitsIcEENSt7__cxx1112basic_stringIcS3_SaIcEEEEEC2Ev = comdat any

$_ZN4absl12lts_202308027forwardINS0_18container_internal12CommonFieldsEEEOT_RNSt16remove_referenceIS4_E4typeE = comdat any

$_ZN4absl12lts_202308027forwardINS0_18container_internal10StringHashEEEOT_RNSt16remove_referenceIS4_E4typeE = comdat any

$_ZN4absl12lts_202308027forwardINS0_18container_internal8StringEqEEEOT_RNSt16remove_referenceIS4_E4typeE = comdat any

$_ZN4absl12lts_202308027forwardISaISt4pairIKSt17basic_string_viewIcSt11char_traitsIcEENSt7__cxx1112basic_stringIcS5_SaIcEEEEEEEOT_RNSt16remove_referenceISE_E4typeE = comdat any

$_ZN4absl12lts_2023080218container_internal25internal_compressed_tuple19CompressedTupleImplINS1_15CompressedTupleIJNS1_12CommonFieldsENS1_10StringHashENS1_8StringEqESaISt4pairIKSt17basic_string_viewIcSt11char_traitsIcEENSt7__cxx1112basic_stringIcSB_SaIcEEEEEEEENS0_16integer_sequenceImJLm0ELm1ELm2ELm3EEEELb1EEC2IJS5_S6_S7_SJ_EEESt10in_place_tDpOT_ = comdat any

$_ZN4absl12lts_2023080218container_internal25internal_compressed_tuple7StorageINS1_12CommonFieldsELm0ELb0EEC2IS4_EESt10in_place_tOT_ = comdat any

$_ZN4absl12lts_2023080218container_internal25internal_compressed_tuple7StorageINS1_10StringHashELm1ELb1EEC2IS4_EESt10in_place_tOT_ = comdat any

$_ZN4absl12lts_2023080218container_internal25internal_compressed_tuple7StorageINS1_8StringEqELm2ELb1EEC2IS4_EESt10in_place_tOT_ = comdat any

$_ZN4absl12lts_2023080218container_internal25internal_compressed_tuple7StorageISaISt4pairIKSt17basic_string_viewIcSt11char_traitsIcEENSt7__cxx1112basic_stringIcS7_SaIcEEEEELm3ELb1EEC2ISF_EESt10in_place_tOT_ = comdat any

$_ZN4absl12lts_2023080218container_internal12CommonFieldsC2EOS2_ = comdat any

$_ZN4absl12lts_2023080218container_internal15CompressedTupleIJmNS1_20HashtablezInfoHandleEEEC2ImJS3_ETnNSt9enable_ifIXsr4absl11conjunctionINS0_8negationISt7is_sameIFvS4_EFvNSt5decayIT_E4typeEEEEENS1_25internal_compressed_tuple27TupleItemsMoveConstructibleIS4_JSB_DpT0_EEEEE5valueEbE4typeELb1EEEOSB_DpOSJ_ = comdat any

$_ZN4absl12lts_202308027forwardImEEOT_RNSt16remove_referenceIS2_E4typeE = comdat any

$_ZN4absl12lts_2023080218container_internal25internal_compressed_tuple19CompressedTupleImplINS1_15CompressedTupleIJmNS1_20HashtablezInfoHandleEEEENS0_16integer_sequenceImJLm0ELm1EEEELb1EEC2IJmS5_EEESt10in_place_tDpOT_ = comdat any

$_ZN4absl12lts_2023080218container_internal25internal_compressed_tuple7StorageImLm0ELb0EEC2ImEESt10in_place_tOT_ = comdat any

$_ZNSaISt4pairIKSt17basic_string_viewIcSt11char_traitsIcEENSt7__cxx1112basic_stringIcS2_SaIcEEEEEC2ERKSA_ = comdat any

$_ZNSt15__new_allocatorISt4pairIKSt17basic_string_viewIcSt11char_traitsIcEENSt7__cxx1112basic_stringIcS3_SaIcEEEEEC2ERKSB_ = comdat any

$_ZN6google8protobuf2io7Printer12PrintOptionsC2Ev = comdat any

$_ZN6google8protobuf2io7Printer8WithVarsIN4absl12lts_2023080213flat_hash_mapISt17basic_string_viewIcSt11char_traitsIcEENSt7__cxx1112basic_stringIcS9_SaIcEEENS5_18container_internal10StringHashENSF_8StringEqESaISt4pairIKSA_SE_EEEEEEDaPKT_ = comdat any

$_ZN4absl12lts_202308024SpanIKNSt7__cxx1112basic_stringIcSt11char_traitsIcESaIcEEEEC2Ev = comdat any

$_ZN4absl12lts_202308027CleanupINS0_16cleanup_internal3TagEZN6google8protobuf2io7Printer8WithVarsINS0_13flat_hash_mapISt17basic_string_viewIcSt11char_traitsIcEENSt7__cxx1112basic_stringIcSC_SaIcEEENS0_18container_internal10StringHashENSI_8StringEqESaISt4pairIKSD_SH_EEEEEEDaPKT_EUlvE_ED2Ev = comdat any

$_ZNSt8optionalIN6google8protobuf2io7Printer14SourceLocationEEC2Ev = comdat any

$_ZNSt14_Optional_baseIN6google8protobuf2io7Printer14SourceLocationELb1ELb1EEC2Ev = comdat any

$_ZNSt17_Optional_payloadIN6google8protobuf2io7Printer14SourceLocationELb1ELb1ELb1EEC2Ev = comdat any

$_ZNSt22_Optional_payload_baseIN6google8protobuf2io7Printer14SourceLocationEEC2Ev = comdat any

$_ZNSt22_Optional_payload_baseIN6google8protobuf2io7Printer14SourceLocationEE8_StorageIS4_Lb1EEC2Ev = comdat any

$_ZNSt6vectorISt8functionIFSt8optionalIN6google8protobuf2io7Printer9ValueImplILb0EEEESt17basic_string_viewIcSt11char_traitsIcEEEESaISE_EE12emplace_backIJZNS5_8WithVarsIN4absl12lts_2023080213flat_hash_mapISC_NSt7__cxx1112basic_stringIcSB_SaIcEEENSK_18container_internal10StringHashENSQ_8StringEqESaISt4pairIKSC_SP_EEEEEEDaPKT_EUlSC_E_EEERSE_DpOT_ = comdat any

$_ZN4absl12lts_2023080211MakeCleanupIJEZN6google8protobuf2io7Printer8WithVarsINS0_13flat_hash_mapISt17basic_string_viewIcSt11char_traitsIcEENSt7__cxx1112basic_stringIcSA_SaIcEEENS0_18container_internal10StringHashENSG_8StringEqESaISt4pairIKSB_SF_EEEEEEDaPKT_EUlvE_EENS0_7CleanupINS0_16cleanup_internal3TagET0_EESV_ = comdat any

$_ZNSt16allocator_traitsISaISt8functionIFSt8optionalIN6google8protobuf2io7Printer9ValueImplILb0EEEESt17basic_string_viewIcSt11char_traitsIcEEEEEE9constructISE_JZNS5_8WithVarsIN4absl12lts_2023080213flat_hash_mapISC_NSt7__cxx1112basic_stringIcSB_SaIcEEENSK_18container_internal10StringHashENSQ_8StringEqESaISt4pairIKSC_SP_EEEEEEDaPKT_EUlSC_E_EEEvRSF_PSY_DpOT0_ = comdat any

$_ZNSt6vectorISt8functionIFSt8optionalIN6google8protobuf2io7Printer9ValueImplILb0EEEESt17basic_string_viewIcSt11char_traitsIcEEEESaISE_EE17_M_realloc_insertIJZNS5_8WithVarsIN4absl12lts_2023080213flat_hash_mapISC_NSt7__cxx1112basic_stringIcSB_SaIcEEENSK_18container_internal10StringHashENSQ_8StringEqESaISt4pairIKSC_SP_EEEEEEDaPKT_EUlSC_E_EEEvN9__gnu_cxx17__normal_iteratorIPSE_SG_EEDpOT_ = comdat any

$_ZNSt6vectorISt8functionIFSt8optionalIN6google8protobuf2io7Printer9ValueImplILb0EEEESt17basic_string_viewIcSt11char_traitsIcEEEESaISE_EE3endEv = comdat any

$_ZNSt6vectorISt8functionIFSt8optionalIN6google8protobuf2io7Printer9ValueImplILb0EEEESt17basic_string_viewIcSt11char_traitsIcEEEESaISE_EE4backEv = comdat any

$_ZNSt15__new_allocatorISt8functionIFSt8optionalIN6google8protobuf2io7Printer9ValueImplILb0EEEESt17basic_string_viewIcSt11char_traitsIcEEEEE9constructISE_JZNS5_8WithVarsIN4absl12lts_2023080213flat_hash_mapISC_NSt7__cxx1112basic_stringIcSB_SaIcEEENSJ_18container_internal10StringHashENSP_8StringEqESaISt4pairIKSC_SO_EEEEEEDaPKT_EUlSC_E_EEEvPSX_DpOT0_ = comdat any

$_ZNSt8functionIFSt8optionalIN6google8protobuf2io7Printer9ValueImplILb0EEEESt17basic_string_viewIcSt11char_traitsIcEEEEC2IZNS4_8WithVarsIN4absl12lts_2023080213flat_hash_mapISB_NSt7__cxx1112basic_stringIcSA_SaIcEEENSH_18container_internal10StringHashENSN_8StringEqESaISt4pairIKSB_SM_EEEEEEDaPKT_EUlSB_E_vEEOSV_ = comdat any

$_ZNSt14_Function_baseC2Ev = comdat any

$_ZNSt14_Function_base13_Base_managerIZN6google8protobuf2io7Printer8WithVarsIN4absl12lts_2023080213flat_hash_mapISt17basic_string_viewIcSt11char_traitsIcEENSt7__cxx1112basic_stringIcSB_SaIcEEENS7_18container_internal10StringHashENSH_8StringEqESaISt4pairIKSC_SG_EEEEEEDaPKT_EUlSC_E_E21_M_not_empty_functionISS_EEbRSQ_ = comdat any

$_ZNSt14_Function_base13_Base_managerIZN6google8protobuf2io7Printer8WithVarsIN4absl12lts_2023080213flat_hash_mapISt17basic_string_viewIcSt11char_traitsIcEENSt7__cxx1112basic_stringIcSB_SaIcEEENS7_18container_internal10StringHashENSH_8StringEqESaISt4pairIKSC_SG_EEEEEEDaPKT_EUlSC_E_E15_M_init_functorISS_EEvRSt9_Any_dataOSP_ = comdat any

$_ZNSt17_Function_handlerIFSt8optionalIN6google8protobuf2io7Printer9ValueImplILb0EEEESt17basic_string_viewIcSt11char_traitsIcEEEZNS4_8WithVarsIN4absl12lts_2023080213flat_hash_mapISB_NSt7__cxx1112basic_stringIcSA_SaIcEEENSF_18container_internal10StringHashENSL_8StringEqESaISt4pairIKSB_SK_EEEEEEDaPKT_EUlSB_E_E9_M_invokeERKSt9_Any_dataOSB_ = comdat any

$_ZNSt17_Function_handlerIFSt8optionalIN6google8protobuf2io7Printer9ValueImplILb0EEEESt17basic_string_viewIcSt11char_traitsIcEEEZNS4_8WithVarsIN4absl12lts_2023080213flat_hash_mapISB_NSt7__cxx1112basic_stringIcSA_SaIcEEENSF_18container_internal10StringHashENSL_8StringEqESaISt4pairIKSB_SK_EEEEEEDaPKT_EUlSB_E_E10_M_managerERSt9_Any_dataRKSY_St18_Manager_operation = comdat any

$_ZNSt14_Function_base13_Base_managerIZN6google8protobuf2io7Printer8WithVarsIN4absl12lts_2023080213flat_hash_mapISt17basic_string_viewIcSt11char_traitsIcEENSt7__cxx1112basic_stringIcSB_SaIcEEENS7_18container_internal10StringHashENSH_8StringEqESaISt4pairIKSC_SG_EEEEEEDaPKT_EUlSC_E_E9_M_createISS_EEvRSt9_Any_dataOSP_St17integral_constantIbLb1EE = comdat any

$_ZNSt9_Any_data9_M_accessEv = comdat any

$_ZSt10__invoke_rISt8optionalIN6google8protobuf2io7Printer9ValueImplILb0EEEERZNS4_8WithVarsIN4absl12lts_2023080213flat_hash_mapISt17basic_string_viewIcSt11char_traitsIcEENSt7__cxx1112basic_stringIcSE_SaIcEEENSA_18container_internal10StringHashENSK_8StringEqESaISt4pairIKSF_SJ_EEEEEEDaPKT_EUlSF_E_JSF_EENSt9enable_ifIX16is_invocable_r_vISS_T0_DpT1_EESS_E4typeEOSY_DpOSZ_ = comdat any

$_ZNSt14_Function_base13_Base_managerIZN6google8protobuf2io7Printer8WithVarsIN4absl12lts_2023080213flat_hash_mapISt17basic_string_viewIcSt11char_traitsIcEENSt7__cxx1112basic_stringIcSB_SaIcEEENS7_18container_internal10StringHashENSH_8StringEqESaISt4pairIKSC_SG_EEEEEEDaPKT_EUlSC_E_E14_M_get_pointerERKSt9_Any_data = comdat any

$_ZSt13__invoke_implISt8optionalIN6google8protobuf2io7Printer9ValueImplILb0EEEERZNS4_8WithVarsIN4absl12lts_2023080213flat_hash_mapISt17basic_string_viewIcSt11char_traitsIcEENSt7__cxx1112basic_stringIcSE_SaIcEEENSA_18container_internal10StringHashENSK_8StringEqESaISt4pairIKSF_SJ_EEEEEEDaPKT_EUlSF_E_JSF_EESS_St14__invoke_otherOT0_DpOT1_ = comdat any

$_ZZN6google8protobuf2io7Printer8WithVarsIN4absl12lts_2023080213flat_hash_mapISt17basic_string_viewIcSt11char_traitsIcEENSt7__cxx1112basic_stringIcS9_SaIcEEENS5_18container_internal10StringHashENSF_8StringEqESaISt4pairIKSA_SE_EEEEEEDaPKT_ENKUlSA_E_clESA_ = comdat any

$_ZNK4absl12lts_2023080218container_internal12raw_hash_setINS1_17FlatHashMapPolicyISt17basic_string_viewIcSt11char_traitsIcEENSt7__cxx1112basic_stringIcS6_SaIcEEEEENS1_10StringHashENS1_8StringEqESaISt4pairIKS7_SB_EEE4findIS7_EENSJ_14const_iteratorERKT_ = comdat any

$_ZN6google8protobuf2io7Printer11ToStringKeyIN4absl12lts_2023080213flat_hash_mapISt17basic_string_viewIcSt11char_traitsIcEENSt7__cxx1112basic_stringIcS9_SaIcEEENS5_18container_internal10StringHashENSF_8StringEqESaISt4pairIKSA_SE_EEEEvEESA_SA_ = comdat any

$_ZN4absl12lts_2023080218container_internaleqERKNS1_12raw_hash_setINS1_17FlatHashMapPolicyISt17basic_string_viewIcSt11char_traitsIcEENSt7__cxx1112basic_stringIcS6_SaIcEEEEENS1_10StringHashENS1_8StringEqESaISt4pairIKS7_SB_EEE14const_iteratorESM_ = comdat any

$_ZNK4absl12lts_2023080218container_internal12raw_hash_setINS1_17FlatHashMapPolicyISt17basic_string_viewIcSt11char_traitsIcEENSt7__cxx1112basic_stringIcS6_SaIcEEEEENS1_10StringHashENS1_8StringEqESaISt4pairIKS7_SB_EEE3endEv = comdat any

$_ZNSt8optionalIN6google8protobuf2io7Printer9ValueImplILb0EEEEC2ESt9nullopt_t = comdat any

$_ZNK4absl12lts_2023080218container_internal12raw_hash_setINS1_17FlatHashMapPolicyISt17basic_string_viewIcSt11char_traitsIcEENSt7__cxx1112basic_stringIcS6_SaIcEEEEENS1_10StringHashENS1_8StringEqESaISt4pairIKS7_SB_EEE14const_iteratorptEv = comdat any

$_ZN6google8protobuf2io7Printer9ValueImplILb0EEC2IRKNSt7__cxx1112basic_stringIcSt11char_traitsIcESaIcEEEvEEOT_ = comdat any

$_ZNSt8optionalIN6google8protobuf2io7Printer9ValueImplILb0EEEEC2IS5_TnNSt9enable_ifIX7__and_vISt6__not_ISt7is_sameIS6_NSt9remove_cvINSt16remove_referenceIT_E4typeEE4typeEEES9_ISA_ISt10in_place_tSH_EESt16is_constructibleIS5_JSD_EESt14is_convertibleISD_S5_EEEbE4typeELb1EEEOSD_ = comdat any

$_ZN6google8protobuf2io7Printer9ValueImplILb0EED2Ev = comdat any

$_ZNK4absl12lts_2023080218container_internal12raw_hash_setINS1_17FlatHashMapPolicyISt17basic_string_viewIcSt11char_traitsIcEENSt7__cxx1112basic_stringIcS6_SaIcEEEEENS1_10StringHashENS1_8StringEqESaISt4pairIKS7_SB_EEE4findIS7_EENSJ_14const_iteratorERKT_m = comdat any

$_ZNK4absl12lts_2023080218container_internal12raw_hash_setINS1_17FlatHashMapPolicyISt17basic_string_viewIcSt11char_traitsIcEENSt7__cxx1112basic_stringIcS6_SaIcEEEEENS1_10StringHashENS1_8StringEqESaISt4pairIKS7_SB_EEE8hash_refEv = comdat any

$_ZN4absl12lts_2023080218container_internal12raw_hash_setINS1_17FlatHashMapPolicyISt17basic_string_viewIcSt11char_traitsIcEENSt7__cxx1112basic_stringIcS6_SaIcEEEEENS1_10StringHashENS1_8StringEqESaISt4pairIKS7_SB_EEE4findIS7_EENSJ_8iteratorERKT_m = comdat any

$_ZN4absl12lts_2023080218container_internal12raw_hash_setINS1_17FlatHashMapPolicyISt17basic_string_viewIcSt11char_traitsIcEENSt7__cxx1112basic_stringIcS6_SaIcEEEEENS1_10StringHashENS1_8StringEqESaISt4pairIKS7_SB_EEE14const_iteratorC2ENSJ_8iteratorE = comdat any

$_ZN4absl12lts_2023080218container_internal12raw_hash_setINS1_17FlatHashMapPolicyISt17basic_string_viewIcSt11char_traitsIcEENSt7__cxx1112basic_stringIcS6_SaIcEEEEENS1_10StringHashENS1_8StringEqESaISt4pairIKS7_SB_EEE3endEv = comdat any

$_ZN4absl12lts_2023080218container_internal12raw_hash_setINS1_17FlatHashMapPolicyISt17basic_string_viewIcSt11char_traitsIcEENSt7__cxx1112basic_stringIcS6_SaIcEEEEENS1_10StringHashENS1_8StringEqESaISt4pairIKS7_SB_EEE8iteratorC2EPKh = comdat any

$_ZNKR4absl12lts_2023080218container_internal15CompressedTupleIJNS1_12CommonFieldsENS1_10StringHashENS1_8StringEqESaISt4pairIKSt17basic_string_viewIcSt11char_traitsIcEENSt7__cxx1112basic_stringIcS9_SaIcEEEEEEE3getILi1EEERKNS1_25internal_compressed_tuple4ElemISI_XT_EE4typeEv = comdat any

$_ZNKR4absl12lts_2023080218container_internal25internal_compressed_tuple7StorageINS1_10StringHashELm1ELb1EE3getEv = comdat any

$_ZN4absl12lts_2023080218container_internaleqERKNS1_12raw_hash_setINS1_17FlatHashMapPolicyISt17basic_string_viewIcSt11char_traitsIcEENSt7__cxx1112basic_stringIcS6_SaIcEEEEENS1_10StringHashENS1_8StringEqESaISt4pairIKS7_SB_EEE8iteratorESM_ = comdat any

$_ZN4absl12lts_2023080218container_internal26AssertIsValidForComparisonEPKNS1_6ctrl_tEhPKh = comdat any

$_ZN4absl12lts_2023080218container_internal19AssertSameContainerEPKNS1_6ctrl_tES4_RKPKvS8_PKhSA_ = comdat any

$_ZNSt14_Optional_baseIN6google8protobuf2io7Printer9ValueImplILb0EEELb0ELb0EEC2Ev = comdat any

$_ZNSt17_Optional_payloadIN6google8protobuf2io7Printer9ValueImplILb0EEELb0ELb0ELb0EEC2Ev = comdat any

$_ZNSt17_Optional_payloadIN6google8protobuf2io7Printer9ValueImplILb0EEELb1ELb0ELb0EEC2Ev = comdat any

$_ZNSt22_Optional_payload_baseIN6google8protobuf2io7Printer9ValueImplILb0EEEEC2Ev = comdat any

$_ZNSt22_Optional_payload_baseIN6google8protobuf2io7Printer9ValueImplILb0EEEE8_StorageIS5_Lb0EEC2Ev = comdat any

$_ZNK4absl12lts_2023080218container_internal12raw_hash_setINS1_17FlatHashMapPolicyISt17basic_string_viewIcSt11char_traitsIcEENSt7__cxx1112basic_stringIcS6_SaIcEEEEENS1_10StringHashENS1_8StringEqESaISt4pairIKS7_SB_EEE8iteratorptEv = comdat any

$_ZN6google8protobuf2io7Printer9ValueImplILb0EE18ToStringOrCallbackESt17basic_string_viewIcSt11char_traitsIcEENS4_5Rank1E = comdat any

$_ZSt17holds_alternativeISt8functionIFbvEEJSt17basic_string_viewIcSt11char_traitsIcEES2_EEbRKSt7variantIJDpT0_EE = comdat any

$_ZNSt7variantIJSt17basic_string_viewIcSt11char_traitsIcEESt8functionIFbvEEEED2Ev = comdat any

$_ZNSt7variantIJSt17basic_string_viewIcSt11char_traitsIcEESt8functionIFbvEEEEC2IS3_vvS3_vEEOT_ = comdat any

$_ZNSt7variantIJSt17basic_string_viewIcSt11char_traitsIcEESt8functionIFbvEEEEC2ILm0EJS3_ES3_vEESt16in_place_index_tIXT_EEDpOT0_ = comdat any

$_ZNSt8__detail9__variant13_Variant_baseIJSt17basic_string_viewIcSt11char_traitsIcEESt8functionIFbvEEEEC2ILm0EJS5_EEESt16in_place_index_tIXT_EEDpOT0_ = comdat any

$_ZNSt27_Enable_default_constructorILb1ESt7variantIJSt17basic_string_viewIcSt11char_traitsIcEESt8functionIFbvEEEEEC2ESt31_Enable_default_constructor_tag = comdat any

$_ZNSt8__detail9__variant13_Variant_baseIJSt17basic_string_viewIcSt11char_traitsIcEESt8functionIFbvEEEED2Ev = comdat any

$_ZNSt8__detail9__variant17_Move_assign_baseILb0EJSt17basic_string_viewIcSt11char_traitsIcEESt8functionIFbvEEEECI2NS0_16_Variant_storageILb0EJS5_S8_EEEILm0EJS5_EEESt16in_place_index_tIXT_EEDpOT0_ = comdat any

$_ZNSt8__detail9__variant17_Copy_assign_baseILb0EJSt17basic_string_viewIcSt11char_traitsIcEESt8functionIFbvEEEECI2NS0_16_Variant_storageILb0EJS5_S8_EEEILm0EJS5_EEESt16in_place_index_tIXT_EEDpOT0_ = comdat any

$_ZNSt8__detail9__variant15_Move_ctor_baseILb0EJSt17basic_string_viewIcSt11char_traitsIcEESt8functionIFbvEEEECI2NS0_16_Variant_storageILb0EJS5_S8_EEEILm0EJS5_EEESt16in_place_index_tIXT_EEDpOT0_ = comdat any

$_ZNSt8__detail9__variant15_Copy_ctor_baseILb0EJSt17basic_string_viewIcSt11char_traitsIcEESt8functionIFbvEEEECI2NS0_16_Variant_storageILb0EJS5_S8_EEEILm0EJS5_EEESt16in_place_index_tIXT_EEDpOT0_ = comdat any

$_ZNSt8__detail9__variant16_Variant_storageILb0EJSt17basic_string_viewIcSt11char_traitsIcEESt8functionIFbvEEEEC2ILm0EJS5_EEESt16in_place_index_tIXT_EEDpOT0_ = comdat any

$_ZNSt8__detail9__variant15_Variadic_unionIJSt17basic_string_viewIcSt11char_traitsIcEESt8functionIFbvEEEEC2IJS5_EEESt16in_place_index_tILm0EEDpOT_ = comdat any

$_ZNSt8__detail9__variant14_UninitializedISt17basic_string_viewIcSt11char_traitsIcEELb1EEC2IJS5_EEESt16in_place_index_tILm0EEDpOT_ = comdat any

$_ZNSt8__detail9__variant17_Move_assign_baseILb0EJSt17basic_string_viewIcSt11char_traitsIcEESt8functionIFbvEEEED2Ev = comdat any

$_ZNSt8__detail9__variant17_Copy_assign_baseILb0EJSt17basic_string_viewIcSt11char_traitsIcEESt8functionIFbvEEEED2Ev = comdat any

$_ZNSt8__detail9__variant15_Move_ctor_baseILb0EJSt17basic_string_viewIcSt11char_traitsIcEESt8functionIFbvEEEED2Ev = comdat any

$_ZNSt8__detail9__variant15_Copy_ctor_baseILb0EJSt17basic_string_viewIcSt11char_traitsIcEESt8functionIFbvEEEED2Ev = comdat any

$_ZNSt8__detail9__variant16_Variant_storageILb0EJSt17basic_string_viewIcSt11char_traitsIcEESt8functionIFbvEEEED2Ev = comdat any

$_ZNSt8__detail9__variant16_Variant_storageILb0EJSt17basic_string_viewIcSt11char_traitsIcEESt8functionIFbvEEEE8_M_resetEv = comdat any

$_ZNKSt8__detail9__variant16_Variant_storageILb0EJSt17basic_string_viewIcSt11char_traitsIcEESt8functionIFbvEEEE8_M_validEv = comdat any

$_ZSt10__do_visitIvZNSt8__detail9__variant16_Variant_storageILb0EJSt17basic_string_viewIcSt11char_traitsIcEESt8functionIFbvEEEE8_M_resetEvEUlOT_E_JRSt7variantIJS6_S9_EEEEDcOT0_DpOT1_ = comdat any

$_ZSt14__variant_castIJSt17basic_string_viewIcSt11char_traitsIcEESt8functionIFbvEEERNSt8__detail9__variant16_Variant_storageILb0EJS3_S6_EEEEDcOT0_ = comdat any

$_ZZSt10__do_visitIvZNSt8__detail9__variant16_Variant_storageILb0EJSt17basic_string_viewIcSt11char_traitsIcEESt8functionIFbvEEEE8_M_resetEvEUlOT_E_JRSt7variantIJS6_S9_EEEEDcOT0_DpOT1_ENKUlSG_zE_clESG_z = comdat any

$_ZNKSt7variantIJSt17basic_string_viewIcSt11char_traitsIcEESt8functionIFbvEEEE5indexEv = comdat any

$_ZNSt8__detail9__variant17__gen_vtable_implINS0_12_Multi_arrayIPFvOZNS0_16_Variant_storageILb0EJSt17basic_string_viewIcSt11char_traitsIcEESt8functionIFbvEEEE8_M_resetEvEUlOT_E_RSt7variantIJS7_SA_EEEJEEESt16integer_sequenceImJLm0EEEE14__visit_invokeESF_SI_ = comdat any

$_ZNSt8__detail9__variant17__gen_vtable_implINS0_12_Multi_arrayIPFvOZNS0_16_Variant_storageILb0EJSt17basic_string_viewIcSt11char_traitsIcEESt8functionIFbvEEEE8_M_resetEvEUlOT_E_RSt7variantIJS7_SA_EEEJEEESt16integer_sequenceImJLm1EEEE14__visit_invokeESF_SI_ = comdat any

$_ZSt10__invoke_rIvZNSt8__detail9__variant16_Variant_storageILb0EJSt17basic_string_viewIcSt11char_traitsIcEESt8functionIFbvEEEE8_M_resetEvEUlOT_E_JRS6_EENSt9enable_ifIX16is_invocable_r_vISB_T0_DpT1_EESB_E4typeEOSG_DpOSH_ = comdat any

$_ZNSt8__detail9__variant5__getILm0ERSt7variantIJSt17basic_string_viewIcSt11char_traitsIcEESt8functionIFbvEEEEEEDcOT0_ = comdat any

$_ZSt13__invoke_implIvZNSt8__detail9__variant16_Variant_storageILb0EJSt17basic_string_viewIcSt11char_traitsIcEESt8functionIFbvEEEE8_M_resetEvEUlOT_E_JRS6_EESB_St14__invoke_otherOT0_DpOT1_ = comdat any

$_ZZNSt8__detail9__variant16_Variant_storageILb0EJSt17basic_string_viewIcSt11char_traitsIcEESt8functionIFbvEEEE8_M_resetEvENUlOT_E_clIRS5_EEDaSB_ = comdat any

$_ZSt8_DestroyISt17basic_string_viewIcSt11char_traitsIcEEEvPT_ = comdat any

$_ZNSt8__detail9__variant7__get_nILm0ERNS0_15_Variadic_unionIJSt17basic_string_viewIcSt11char_traitsIcEESt8functionIFbvEEEEEEEDcOT0_ = comdat any

$_ZNRSt8__detail9__variant14_UninitializedISt17basic_string_viewIcSt11char_traitsIcEELb1EE6_M_getEv = comdat any

$_ZSt10__invoke_rIvZNSt8__detail9__variant16_Variant_storageILb0EJSt17basic_string_viewIcSt11char_traitsIcEESt8functionIFbvEEEE8_M_resetEvEUlOT_E_JRS9_EENSt9enable_ifIX16is_invocable_r_vISB_T0_DpT1_EESB_E4typeEOSG_DpOSH_ = comdat any

$_ZNSt8__detail9__variant5__getILm1ERSt7variantIJSt17basic_string_viewIcSt11char_traitsIcEESt8functionIFbvEEEEEEDcOT0_ = comdat any

$_ZSt13__invoke_implIvZNSt8__detail9__variant16_Variant_storageILb0EJSt17basic_string_viewIcSt11char_traitsIcEESt8functionIFbvEEEE8_M_resetEvEUlOT_E_JRS9_EESB_St14__invoke_otherOT0_DpOT1_ = comdat any

$_ZZNSt8__detail9__variant16_Variant_storageILb0EJSt17basic_string_viewIcSt11char_traitsIcEESt8functionIFbvEEEE8_M_resetEvENUlOT_E_clIRS8_EEDaSB_ = comdat any

$_ZSt8_DestroyISt8functionIFbvEEEvPT_ = comdat any

$_ZNSt8functionIFbvEED2Ev = comdat any

$_ZNSt14_Function_baseD2Ev = comdat any

$_ZNSt8__detail9__variant7__get_nILm1ERNS0_15_Variadic_unionIJSt17basic_string_viewIcSt11char_traitsIcEESt8functionIFbvEEEEEEEDcOT0_ = comdat any

$_ZNRSt8__detail9__variant14_UninitializedISt8functionIFbvEELb0EE6_M_getEv = comdat any

$_ZN9__gnu_cxx16__aligned_membufISt8functionIFbvEEE6_M_ptrEv = comdat any

$_ZN9__gnu_cxx16__aligned_membufISt8functionIFbvEEE7_M_addrEv = comdat any

$_ZSt24__find_uniq_type_in_packISt8functionIFbvEEJSt17basic_string_viewIcSt11char_traitsIcEES2_EEmv = comdat any

$_ZNSt14_Optional_baseIN6google8protobuf2io7Printer9ValueImplILb0EEELb0ELb0EEC2IJS5_ETnNSt9enable_ifIX18is_constructible_vIS5_DpT_EEbE4typeELb0EEESt10in_place_tDpOS9_ = comdat any

$_ZNSt17_Optional_payloadIN6google8protobuf2io7Printer9ValueImplILb0EEELb0ELb0ELb0EECI2St22_Optional_payload_baseIS5_EIJS5_EEESt10in_place_tDpOT_ = comdat any

$_ZNSt17_Optional_payloadIN6google8protobuf2io7Printer9ValueImplILb0EEELb1ELb0ELb0EECI2St22_Optional_payload_baseIS5_EIJS5_EEESt10in_place_tDpOT_ = comdat any

$_ZNSt22_Optional_payload_baseIN6google8protobuf2io7Printer9ValueImplILb0EEEEC2IJS5_EEESt10in_place_tDpOT_ = comdat any

$_ZNSt22_Optional_payload_baseIN6google8protobuf2io7Printer9ValueImplILb0EEEE8_StorageIS5_Lb0EEC2IJS5_EEESt10in_place_tDpOT_ = comdat any

$_ZN6google8protobuf2io7Printer9ValueImplILb0EEC2EOS4_ = comdat any

$_ZNSt7variantIJSt17basic_string_viewIcSt11char_traitsIcEESt8functionIFbvEEEEC2EOS7_ = comdat any

$_ZNSt8__detail9__variant13_Variant_baseIJSt17basic_string_viewIcSt11char_traitsIcEESt8functionIFbvEEEEC2EOS9_ = comdat any

$_ZNSt8__detail9__variant17_Move_assign_baseILb0EJSt17basic_string_viewIcSt11char_traitsIcEESt8functionIFbvEEEEC2EOS9_ = comdat any

$_ZNSt8__detail9__variant17_Copy_assign_baseILb0EJSt17basic_string_viewIcSt11char_traitsIcEESt8functionIFbvEEEEC2EOS9_ = comdat any

$_ZNSt8__detail9__variant15_Move_ctor_baseILb0EJSt17basic_string_viewIcSt11char_traitsIcEESt8functionIFbvEEEEC2EOS9_ = comdat any

$_ZNSt8__detail9__variant15_Copy_ctor_baseILb0EJSt17basic_string_viewIcSt11char_traitsIcEESt8functionIFbvEEEEC2Ev = comdat any

$_ZNSt8__detail9__variant15__raw_idx_visitIZNS0_15_Move_ctor_baseILb0EJSt17basic_string_viewIcSt11char_traitsIcEESt8functionIFbvEEEEC1EOSA_EUlOT_T0_E_JSt7variantIJS6_S9_EEEEEvSD_DpOT0_ = comdat any

$_ZSt14__variant_castIJSt17basic_string_viewIcSt11char_traitsIcEESt8functionIFbvEEENSt8__detail9__variant15_Move_ctor_baseILb0EJS3_S6_EEEEDcOT0_ = comdat any

$_ZNSt8__detail9__variant16_Variant_storageILb0EJSt17basic_string_viewIcSt11char_traitsIcEESt8functionIFbvEEEEC2Ev = comdat any

$_ZNSt8__detail9__variant15_Variadic_unionIJSt17basic_string_viewIcSt11char_traitsIcEESt8functionIFbvEEEEC2Ev = comdat any

$_ZNSt8__detail9__variant15_Variadic_unionIJSt8functionIFbvEEEEC2Ev = comdat any

$_ZSt10__do_visitINSt8__detail9__variant20__variant_idx_cookieEZNS1_15_Move_ctor_baseILb0EJSt17basic_string_viewIcSt11char_traitsIcEESt8functionIFbvEEEEC1EOSB_EUlOT_T0_E_JSt7variantIJS7_SA_EEEEDcOSF_DpOT1_ = comdat any

$_ZZSt10__do_visitINSt8__detail9__variant20__variant_idx_cookieEZNS1_15_Move_ctor_baseILb0EJSt17basic_string_viewIcSt11char_traitsIcEESt8functionIFbvEEEEC1EOSB_EUlOT_T0_E_JSt7variantIJS7_SA_EEEEDcOSF_DpOT1_ENKUlRSI_zE_clESN_z = comdat any

$_ZNSt8__detail9__variant17__gen_vtable_implINS0_12_Multi_arrayIPFNS0_20__variant_idx_cookieEOZNS0_15_Move_ctor_baseILb0EJSt17basic_string_viewIcSt11char_traitsIcEESt8functionIFbvEEEEC1EOSC_EUlOT_T0_E_OSt7variantIJS8_SB_EEEJEEESt16integer_sequenceImJLm0EEEE14__visit_invokeESI_SL_ = comdat any

$_ZNSt8__detail9__variant17__gen_vtable_implINS0_12_Multi_arrayIPFNS0_20__variant_idx_cookieEOZNS0_15_Move_ctor_baseILb0EJSt17basic_string_viewIcSt11char_traitsIcEESt8functionIFbvEEEEC1EOSC_EUlOT_T0_E_OSt7variantIJS8_SB_EEEJEEESt16integer_sequenceImJLm1EEEE14__visit_invokeESI_SL_ = comdat any

$_ZNSt8__detail9__variant17__gen_vtable_implINS0_12_Multi_arrayIPFNS0_20__variant_idx_cookieEOZNS0_15_Move_ctor_baseILb0EJSt17basic_string_viewIcSt11char_traitsIcEESt8functionIFbvEEEEC1EOSC_EUlOT_T0_E_OSt7variantIJS8_SB_EEEJEEESt16integer_sequenceImJLm18446744073709551615EEEE14__visit_invokeESI_SL_ = comdat any

$_ZSt8__invokeIZNSt8__detail9__variant15_Move_ctor_baseILb0EJSt17basic_string_viewIcSt11char_traitsIcEESt8functionIFbvEEEEC1EOSA_EUlOT_T0_E_JS6_St17integral_constantImLm0EEEENSt15__invoke_resultISC_JDpT0_EE4typeESD_DpOSJ_ = comdat any

$_ZNSt8__detail9__variant17__gen_vtable_implINS0_12_Multi_arrayIPFNS0_20__variant_idx_cookieEOZNS0_15_Move_ctor_baseILb0EJSt17basic_string_viewIcSt11char_traitsIcEESt8functionIFbvEEEEC1EOSC_EUlOT_T0_E_OSt7variantIJS8_SB_EEEJEEESt16integer_sequenceImJLm0EEEE28__element_by_index_or_cookieILm0ESK_EEDcOSG_ = comdat any

$_ZSt13__invoke_implIvZNSt8__detail9__variant15_Move_ctor_baseILb0EJSt17basic_string_viewIcSt11char_traitsIcEESt8functionIFbvEEEEC1EOSA_EUlOT_T0_E_JS6_St17integral_constantImLm0EEEESC_St14__invoke_otherOSE_DpOT1_ = comdat any

$_ZZNSt8__detail9__variant15_Move_ctor_baseILb0EJSt17basic_string_viewIcSt11char_traitsIcEESt8functionIFbvEEEEC1EOS9_ENUlOT_T0_E_clIS5_St17integral_constantImLm0EEEEDaSC_SD_ = comdat any

$_ZSt10_ConstructINSt8__detail9__variant15_Variadic_unionIJSt17basic_string_viewIcSt11char_traitsIcEESt8functionIFbvEEEEEJRKSt16in_place_index_tILm0EES6_EEvPT_DpOT0_ = comdat any

$_ZNSt8__detail9__variant5__getILm0ESt7variantIJSt17basic_string_viewIcSt11char_traitsIcEESt8functionIFbvEEEEEEDcOT0_ = comdat any

$_ZNSt8__detail9__variant7__get_nILm0ENS0_15_Variadic_unionIJSt17basic_string_viewIcSt11char_traitsIcEESt8functionIFbvEEEEEEEDcOT0_ = comdat any

$_ZNOSt8__detail9__variant14_UninitializedISt17basic_string_viewIcSt11char_traitsIcEELb1EE6_M_getEv = comdat any

$_ZSt8__invokeIZNSt8__detail9__variant15_Move_ctor_baseILb0EJSt17basic_string_viewIcSt11char_traitsIcEESt8functionIFbvEEEEC1EOSA_EUlOT_T0_E_JS9_St17integral_constantImLm1EEEENSt15__invoke_resultISC_JDpT0_EE4typeESD_DpOSJ_ = comdat any

$_ZNSt8__detail9__variant17__gen_vtable_implINS0_12_Multi_arrayIPFNS0_20__variant_idx_cookieEOZNS0_15_Move_ctor_baseILb0EJSt17basic_string_viewIcSt11char_traitsIcEESt8functionIFbvEEEEC1EOSC_EUlOT_T0_E_OSt7variantIJS8_SB_EEEJEEESt16integer_sequenceImJLm1EEEE28__element_by_index_or_cookieILm1ESK_EEDcOSG_ = comdat any

$_ZSt13__invoke_implIvZNSt8__detail9__variant15_Move_ctor_baseILb0EJSt17basic_string_viewIcSt11char_traitsIcEESt8functionIFbvEEEEC1EOSA_EUlOT_T0_E_JS9_St17integral_constantImLm1EEEESC_St14__invoke_otherOSE_DpOT1_ = comdat any

$_ZZNSt8__detail9__variant15_Move_ctor_baseILb0EJSt17basic_string_viewIcSt11char_traitsIcEESt8functionIFbvEEEEC1EOS9_ENUlOT_T0_E_clIS8_St17integral_constantImLm1EEEEDaSC_SD_ = comdat any

$_ZSt10_ConstructINSt8__detail9__variant15_Variadic_unionIJSt17basic_string_viewIcSt11char_traitsIcEESt8functionIFbvEEEEEJRKSt16in_place_index_tILm1EES9_EEvPT_DpOT0_ = comdat any

$_ZNSt8__detail9__variant15_Variadic_unionIJSt17basic_string_viewIcSt11char_traitsIcEESt8functionIFbvEEEEC2ILm1EJS8_EEESt16in_place_index_tIXT_EEDpOT0_ = comdat any

$_ZNSt8__detail9__variant15_Variadic_unionIJSt8functionIFbvEEEEC2IJS4_EEESt16in_place_index_tILm0EEDpOT_ = comdat any

$_ZNSt8__detail9__variant14_UninitializedISt8functionIFbvEELb0EEC2IJS4_EEESt16in_place_index_tILm0EEDpOT_ = comdat any

$_ZNSt8functionIFbvEEC2EOS1_ = comdat any

$_ZNKSt8functionIFbvEEcvbEv = comdat any

$_ZNKSt14_Function_base8_M_emptyEv = comdat any

$_ZNSt8__detail9__variant5__getILm1ESt7variantIJSt17basic_string_viewIcSt11char_traitsIcEESt8functionIFbvEEEEEEDcOT0_ = comdat any

$_ZNSt8__detail9__variant7__get_nILm1ENS0_15_Variadic_unionIJSt17basic_string_viewIcSt11char_traitsIcEESt8functionIFbvEEEEEEEDcOT0_ = comdat any

$_ZNOSt8__detail9__variant14_UninitializedISt8functionIFbvEELb0EE6_M_getEv = comdat any

$_ZSt8__invokeIZNSt8__detail9__variant15_Move_ctor_baseILb0EJSt17basic_string_viewIcSt11char_traitsIcEESt8functionIFbvEEEEC1EOSA_EUlOT_T0_E_JNS1_16__variant_cookieESt17integral_constantImLm18446744073709551615EEEENSt15__invoke_resultISC_JDpT0_EE4typeESD_DpOSK_ = comdat any

$_ZNSt8__detail9__variant17__gen_vtable_implINS0_12_Multi_arrayIPFNS0_20__variant_idx_cookieEOZNS0_15_Move_ctor_baseILb0EJSt17basic_string_viewIcSt11char_traitsIcEESt8functionIFbvEEEEC1EOSC_EUlOT_T0_E_OSt7variantIJS8_SB_EEEJEEESt16integer_sequenceImJLm18446744073709551615EEEE28__element_by_index_or_cookieILm18446744073709551615ESK_EEDcOSG_ = comdat any

$_ZSt13__invoke_implIvZNSt8__detail9__variant15_Move_ctor_baseILb0EJSt17basic_string_viewIcSt11char_traitsIcEESt8functionIFbvEEEEC1EOSA_EUlOT_T0_E_JNS1_16__variant_cookieESt17integral_constantImLm18446744073709551615EEEESC_St14__invoke_otherOSE_DpOT1_ = comdat any

$_ZZNSt8__detail9__variant15_Move_ctor_baseILb0EJSt17basic_string_viewIcSt11char_traitsIcEESt8functionIFbvEEEEC1EOS9_ENUlOT_T0_E_clINS0_16__variant_cookieESt17integral_constantImLm18446744073709551615EEEEDaSC_SD_ = comdat any

$_ZNKSt9_Any_data9_M_accessIZN6google8protobuf2io7Printer8WithVarsIN4absl12lts_2023080213flat_hash_mapISt17basic_string_viewIcSt11char_traitsIcEENSt7__cxx1112basic_stringIcSB_SaIcEEENS7_18container_internal10StringHashENSH_8StringEqESaISt4pairIKSC_SG_EEEEEEDaPKT_EUlSC_E_EERSQ_v = comdat any

$_ZNKSt9_Any_data9_M_accessEv = comdat any

$_ZNSt9_Any_data9_M_accessIPKSt9type_infoEERT_v = comdat any

$_ZNSt9_Any_data9_M_accessIPZN6google8protobuf2io7Printer8WithVarsIN4absl12lts_2023080213flat_hash_mapISt17basic_string_viewIcSt11char_traitsIcEENSt7__cxx1112basic_stringIcSB_SaIcEEENS7_18container_internal10StringHashENSH_8StringEqESaISt4pairIKSC_SG_EEEEEEDaPKT_EUlSC_E_EERSP_v = comdat any

$_ZNSt14_Function_base13_Base_managerIZN6google8protobuf2io7Printer8WithVarsIN4absl12lts_2023080213flat_hash_mapISt17basic_string_viewIcSt11char_traitsIcEENSt7__cxx1112basic_stringIcSB_SaIcEEENS7_18container_internal10StringHashENSH_8StringEqESaISt4pairIKSC_SG_EEEEEEDaPKT_EUlSC_E_E10_M_managerERSt9_Any_dataRKSU_St18_Manager_operation = comdat any

$_ZNSt14_Function_base13_Base_managerIZN6google8protobuf2io7Printer8WithVarsIN4absl12lts_2023080213flat_hash_mapISt17basic_string_viewIcSt11char_traitsIcEENSt7__cxx1112basic_stringIcSB_SaIcEEENS7_18container_internal10StringHashENSH_8StringEqESaISt4pairIKSC_SG_EEEEEEDaPKT_EUlSC_E_E15_M_init_functorIRKSS_EEvRSt9_Any_dataOSP_ = comdat any

$_ZNSt14_Function_base13_Base_managerIZN6google8protobuf2io7Printer8WithVarsIN4absl12lts_2023080213flat_hash_mapISt17basic_string_viewIcSt11char_traitsIcEENSt7__cxx1112basic_stringIcSB_SaIcEEENS7_18container_internal10StringHashENSH_8StringEqESaISt4pairIKSC_SG_EEEEEEDaPKT_EUlSC_E_E10_M_destroyERSt9_Any_dataSt17integral_constantIbLb1EE = comdat any

$_ZNSt14_Function_base13_Base_managerIZN6google8protobuf2io7Printer8WithVarsIN4absl12lts_2023080213flat_hash_mapISt17basic_string_viewIcSt11char_traitsIcEENSt7__cxx1112basic_stringIcSB_SaIcEEENS7_18container_internal10StringHashENSH_8StringEqESaISt4pairIKSC_SG_EEEEEEDaPKT_EUlSC_E_E9_M_createIRKSS_EEvRSt9_Any_dataOSP_St17integral_constantIbLb1EE = comdat any

$_ZNSt9_Any_data9_M_accessIZN6google8protobuf2io7Printer8WithVarsIN4absl12lts_2023080213flat_hash_mapISt17basic_string_viewIcSt11char_traitsIcEENSt7__cxx1112basic_stringIcSB_SaIcEEENS7_18container_internal10StringHashENSH_8StringEqESaISt4pairIKSC_SG_EEEEEEDaPKT_EUlSC_E_EERSP_v = comdat any

$_ZNKSt6vectorISt8functionIFSt8optionalIN6google8protobuf2io7Printer9ValueImplILb0EEEESt17basic_string_viewIcSt11char_traitsIcEEEESaISE_EE12_M_check_lenEmPKc = comdat any

$_ZN9__gnu_cxxmiIPSt8functionIFSt8optionalIN6google8protobuf2io7Printer9ValueImplILb0EEEESt17basic_string_viewIcSt11char_traitsIcEEEESt6vectorISF_SaISF_EEEENS_17__normal_iteratorIT_T0_E15difference_typeERKSN_SQ_ = comdat any

$_ZNSt6vectorISt8functionIFSt8optionalIN6google8protobuf2io7Printer9ValueImplILb0EEEESt17basic_string_viewIcSt11char_traitsIcEEEESaISE_EE5beginEv = comdat any

$_ZNSt12_Vector_baseISt8functionIFSt8optionalIN6google8protobuf2io7Printer9ValueImplILb0EEEESt17basic_string_viewIcSt11char_traitsIcEEEESaISE_EE11_M_allocateEm = comdat any

$_ZNSt6vectorISt8functionIFSt8optionalIN6google8protobuf2io7Printer9ValueImplILb0EEEESt17basic_string_viewIcSt11char_traitsIcEEEESaISE_EE11_S_relocateEPSE_SH_SH_RSF_ = comdat any

$_ZNK9__gnu_cxx17__normal_iteratorIPSt8functionIFSt8optionalIN6google8protobuf2io7Printer9ValueImplILb0EEEESt17basic_string_viewIcSt11char_traitsIcEEEESt6vectorISF_SaISF_EEE4baseEv = comdat any

$_ZNSt12_Vector_baseISt8functionIFSt8optionalIN6google8protobuf2io7Printer9ValueImplILb0EEEESt17basic_string_viewIcSt11char_traitsIcEEEESaISE_EE19_M_get_Tp_allocatorEv = comdat any

$_ZNSt12_Vector_baseISt8functionIFSt8optionalIN6google8protobuf2io7Printer9ValueImplILb0EEEESt17basic_string_viewIcSt11char_traitsIcEEEESaISE_EE13_M_deallocateEPSE_m = comdat any

$_ZNKSt6vectorISt8functionIFSt8optionalIN6google8protobuf2io7Printer9ValueImplILb0EEEESt17basic_string_viewIcSt11char_traitsIcEEEESaISE_EE8max_sizeEv = comdat any

$_ZNKSt6vectorISt8functionIFSt8optionalIN6google8protobuf2io7Printer9ValueImplILb0EEEESt17basic_string_viewIcSt11char_traitsIcEEEESaISE_EE4sizeEv = comdat any

$_ZSt3maxImERKT_S2_S2_ = comdat any

$_ZNSt6vectorISt8functionIFSt8optionalIN6google8protobuf2io7Printer9ValueImplILb0EEEESt17basic_string_viewIcSt11char_traitsIcEEEESaISE_EE11_S_max_sizeERKSF_ = comdat any

$_ZNKSt12_Vector_baseISt8functionIFSt8optionalIN6google8protobuf2io7Printer9ValueImplILb0EEEESt17basic_string_viewIcSt11char_traitsIcEEEESaISE_EE19_M_get_Tp_allocatorEv = comdat any

$_ZNSt16allocator_traitsISaISt8functionIFSt8optionalIN6google8protobuf2io7Printer9ValueImplILb0EEEESt17basic_string_viewIcSt11char_traitsIcEEEEEE8max_sizeERKSF_ = comdat any

$_ZNKSt15__new_allocatorISt8functionIFSt8optionalIN6google8protobuf2io7Printer9ValueImplILb0EEEESt17basic_string_viewIcSt11char_traitsIcEEEEE8max_sizeEv = comdat any

$_ZNKSt15__new_allocatorISt8functionIFSt8optionalIN6google8protobuf2io7Printer9ValueImplILb0EEEESt17basic_string_viewIcSt11char_traitsIcEEEEE11_M_max_sizeEv = comdat any

$_ZN9__gnu_cxx17__normal_iteratorIPSt8functionIFSt8optionalIN6google8protobuf2io7Printer9ValueImplILb0EEEESt17basic_string_viewIcSt11char_traitsIcEEEESt6vectorISF_SaISF_EEEC2ERKSG_ = comdat any

$_ZNSt16allocator_traitsISaISt8functionIFSt8optionalIN6google8protobuf2io7Printer9ValueImplILb0EEEESt17basic_string_viewIcSt11char_traitsIcEEEEEE8allocateERSF_m = comdat any

$_ZNSt15__new_allocatorISt8functionIFSt8optionalIN6google8protobuf2io7Printer9ValueImplILb0EEEESt17basic_string_viewIcSt11char_traitsIcEEEEE8allocateEmPKv = comdat any

$_ZSt12__relocate_aIPSt8functionIFSt8optionalIN6google8protobuf2io7Printer9ValueImplILb0EEEESt17basic_string_viewIcSt11char_traitsIcEEEESF_SaISE_EET0_T_SI_SH_RT1_ = comdat any

$_ZSt14__relocate_a_1IPSt8functionIFSt8optionalIN6google8protobuf2io7Printer9ValueImplILb0EEEESt17basic_string_viewIcSt11char_traitsIcEEEESF_SaISE_EET0_T_SI_SH_RT1_ = comdat any

$_ZSt12__niter_baseIPSt8functionIFSt8optionalIN6google8protobuf2io7Printer9ValueImplILb0EEEESt17basic_string_viewIcSt11char_traitsIcEEEEET_SG_ = comdat any

$_ZSt19__relocate_object_aISt8functionIFSt8optionalIN6google8protobuf2io7Printer9ValueImplILb0EEEESt17basic_string_viewIcSt11char_traitsIcEEEESE_SaISE_EEvPT_PT0_RT1_ = comdat any

$_ZNSt16allocator_traitsISaISt8functionIFSt8optionalIN6google8protobuf2io7Printer9ValueImplILb0EEEESt17basic_string_viewIcSt11char_traitsIcEEEEEE9constructISE_JSE_EEEvRSF_PT_DpOT0_ = comdat any

$_ZNSt16allocator_traitsISaISt8functionIFSt8optionalIN6google8protobuf2io7Printer9ValueImplILb0EEEESt17basic_string_viewIcSt11char_traitsIcEEEEEE7destroyISE_EEvRSF_PT_ = comdat any

$_ZNSt15__new_allocatorISt8functionIFSt8optionalIN6google8protobuf2io7Printer9ValueImplILb0EEEESt17basic_string_viewIcSt11char_traitsIcEEEEE9constructISE_JSE_EEEvPT_DpOT0_ = comdat any

$_ZNSt8functionIFSt8optionalIN6google8protobuf2io7Printer9ValueImplILb0EEEESt17basic_string_viewIcSt11char_traitsIcEEEEC2EOSD_ = comdat any

$_ZNKSt8functionIFSt8optionalIN6google8protobuf2io7Printer9ValueImplILb0EEEESt17basic_string_viewIcSt11char_traitsIcEEEEcvbEv = comdat any

$_ZNSt15__new_allocatorISt8functionIFSt8optionalIN6google8protobuf2io7Printer9ValueImplILb0EEEESt17basic_string_viewIcSt11char_traitsIcEEEEE7destroyISE_EEvPT_ = comdat any

$_ZNSt8functionIFSt8optionalIN6google8protobuf2io7Printer9ValueImplILb0EEEESt17basic_string_viewIcSt11char_traitsIcEEEED2Ev = comdat any

$_ZNSt16allocator_traitsISaISt8functionIFSt8optionalIN6google8protobuf2io7Printer9ValueImplILb0EEEESt17basic_string_viewIcSt11char_traitsIcEEEEEE10deallocateERSF_PSE_m = comdat any

$_ZNSt15__new_allocatorISt8functionIFSt8optionalIN6google8protobuf2io7Printer9ValueImplILb0EEEESt17basic_string_viewIcSt11char_traitsIcEEEEE10deallocateEPSE_m = comdat any

$_ZNK9__gnu_cxx17__normal_iteratorIPSt8functionIFSt8optionalIN6google8protobuf2io7Printer9ValueImplILb0EEEESt17basic_string_viewIcSt11char_traitsIcEEEESt6vectorISF_SaISF_EEEmiEl = comdat any

$_ZNK9__gnu_cxx17__normal_iteratorIPSt8functionIFSt8optionalIN6google8protobuf2io7Printer9ValueImplILb0EEEESt17basic_string_viewIcSt11char_traitsIcEEEESt6vectorISF_SaISF_EEEdeEv = comdat any

$_ZN4absl12lts_202308027CleanupINS0_16cleanup_internal3TagEZN6google8protobuf2io7Printer8WithVarsINS0_13flat_hash_mapISt17basic_string_viewIcSt11char_traitsIcEENSt7__cxx1112basic_stringIcSC_SaIcEEENS0_18container_internal10StringHashENSI_8StringEqESaISt4pairIKSD_SH_EEEEEEDaPKT_EUlvE_EC2EST_ = comdat any

$_ZN4absl12lts_2023080216cleanup_internal7StorageIZN6google8protobuf2io7Printer8WithVarsINS0_13flat_hash_mapISt17basic_string_viewIcSt11char_traitsIcEENSt7__cxx1112basic_stringIcSB_SaIcEEENS0_18container_internal10StringHashENSH_8StringEqESaISt4pairIKSC_SG_EEEEEEDaPKT_EUlvE_EC2ESS_ = comdat any

$_ZN4absl12lts_2023080216cleanup_internal7StorageIZN6google8protobuf2io7Printer8WithVarsINS0_13flat_hash_mapISt17basic_string_viewIcSt11char_traitsIcEENSt7__cxx1112basic_stringIcSB_SaIcEEENS0_18container_internal10StringHashENSH_8StringEqESaISt4pairIKSC_SG_EEEEEEDaPKT_EUlvE_E17GetCallbackBufferEv = comdat any

$_ZN4absl12lts_202308024SpanIKNSt7__cxx1112basic_stringIcSt11char_traitsIcESaIcEEEEC2EPS8_m = comdat any

$_ZNK4absl12lts_2023080216cleanup_internal7StorageIZN6google8protobuf2io7Printer8WithVarsINS0_13flat_hash_mapISt17basic_string_viewIcSt11char_traitsIcEENSt7__cxx1112basic_stringIcSB_SaIcEEENS0_18container_internal10StringHashENSH_8StringEqESaISt4pairIKSC_SG_EEEEEEDaPKT_EUlvE_E17IsCallbackEngagedEv = comdat any

$_ZN4absl12lts_2023080216cleanup_internal7StorageIZN6google8protobuf2io7Printer8WithVarsINS0_13flat_hash_mapISt17basic_string_viewIcSt11char_traitsIcEENSt7__cxx1112basic_stringIcSB_SaIcEEENS0_18container_internal10StringHashENSH_8StringEqESaISt4pairIKSC_SG_EEEEEEDaPKT_EUlvE_E14InvokeCallbackEv = comdat any

$_ZN4absl12lts_2023080216cleanup_internal7StorageIZN6google8protobuf2io7Printer8WithVarsINS0_13flat_hash_mapISt17basic_string_viewIcSt11char_traitsIcEENSt7__cxx1112basic_stringIcSB_SaIcEEENS0_18container_internal10StringHashENSH_8StringEqESaISt4pairIKSC_SG_EEEEEEDaPKT_EUlvE_E15DestroyCallbackEv = comdat any

$_ZN4absl12lts_2023080216cleanup_internal7StorageIZN6google8protobuf2io7Printer8WithVarsINS0_13flat_hash_mapISt17basic_string_viewIcSt11char_traitsIcEENSt7__cxx1112basic_stringIcSB_SaIcEEENS0_18container_internal10StringHashENSH_8StringEqESaISt4pairIKSC_SG_EEEEEEDaPKT_EUlvE_E11GetCallbackEv = comdat any

$_ZZN6google8protobuf2io7Printer8WithVarsIN4absl12lts_2023080213flat_hash_mapISt17basic_string_viewIcSt11char_traitsIcEENSt7__cxx1112basic_stringIcS9_SaIcEEENS5_18container_internal10StringHashENSF_8StringEqESaISt4pairIKSA_SE_EEEEEEDaPKT_ENKUlvE_clEv = comdat any

$_ZNSt6vectorISt8functionIFSt8optionalIN6google8protobuf2io7Printer9ValueImplILb0EEEESt17basic_string_viewIcSt11char_traitsIcEEEESaISE_EE8pop_backEv = comdat any

$_ZNSt6vectorIiSaIiEEC2Ev = comdat any

$_ZNK6google8protobuf15FieldDescriptor4fileEv = comdat any

$_ZNK6google8protobuf14FileDescriptor4nameB5cxx11Ev = comdat any

$_ZNSt6vectorIiSaIiEED2Ev = comdat any

$_ZNSt12_Vector_baseIiSaIiEEC2Ev = comdat any

$_ZNSt12_Vector_baseIiSaIiEE12_Vector_implC2Ev = comdat any

$_ZNSaIiEC2Ev = comdat any

$_ZNSt12_Vector_baseIiSaIiEE17_Vector_impl_dataC2Ev = comdat any

$_ZNSt15__new_allocatorIiEC2Ev = comdat any

$_ZSt8_DestroyIPiiEvT_S1_RSaIT0_E = comdat any

$_ZNSt12_Vector_baseIiSaIiEE19_M_get_Tp_allocatorEv = comdat any

$_ZNSt12_Vector_baseIiSaIiEED2Ev = comdat any

$_ZSt8_DestroyIPiEvT_S1_ = comdat any

$_ZNSt12_Destroy_auxILb1EE9__destroyIPiEEvT_S3_ = comdat any

$_ZNSt12_Vector_baseIiSaIiEE13_M_deallocateEPim = comdat any

$_ZNSt12_Vector_baseIiSaIiEE12_Vector_implD2Ev = comdat any

$_ZNSt16allocator_traitsISaIiEE10deallocateERS0_Pim = comdat any

$_ZNSt15__new_allocatorIiE10deallocateEPim = comdat any

$_ZNSaIiED2Ev = comdat any

$_ZNSt15__new_allocatorIiED2Ev = comdat any

$_ZSt7nullopt = comdat any

$_ZSt19piecewise_construct = comdat any

$_ZZN4absl12lts_2023080218container_internal12raw_hash_setINS1_17FlatHashMapPolicyISt17basic_string_viewIcSt11char_traitsIcEENSt7__cxx1112basic_stringIcS6_SaIcEEEEENS1_10StringHashENS1_8StringEqESaISt4pairIKS7_SB_EEE18GetPolicyFunctionsEvE5value = comdat any

$_ZZN4absl12lts_2023080213base_internal12CallOnceImplIPFvPKN6google8protobuf15FieldDescriptorEEJS7_EEEvPSt6atomicIjENS1_14SchedulingModeEOT_DpOT0_E5trans = comdat any

$_ZSt8in_place = comdat any

$_ZSt14in_place_indexILm0EE = comdat any

$_ZSt14in_place_indexILm1EE = comdat any

$_ZTSZN6google8protobuf2io7Printer8WithVarsIN4absl12lts_2023080213flat_hash_mapISt17basic_string_viewIcSt11char_traitsIcEENSt7__cxx1112basic_stringIcS9_SaIcEEENS5_18container_internal10StringHashENSF_8StringEqESaISt4pairIKSA_SE_EEEEEEDaPKT_EUlSA_E_ = comdat any

$_ZTIZN6google8protobuf2io7Printer8WithVarsIN4absl12lts_2023080213flat_hash_mapISt17basic_string_viewIcSt11char_traitsIcEENSt7__cxx1112basic_stringIcS9_SaIcEEENS5_18container_internal10StringHashENSF_8StringEqESaISt4pairIKSA_SE_EEEEEEDaPKT_EUlSA_E_ = comdat any

@_ZStL8__ioinit = internal global %"class.std::ios_base::Init" zeroinitializer, align 1
@__dso_handle = external hidden global i8
@_ZTVN6google8protobuf8compiler4java36ImmutablePrimitiveFieldLiteGeneratorE = hidden unnamed_addr constant { [12 x ptr] } { [12 x ptr] [ptr null, ptr @_ZTIN6google8protobuf8compiler4java36ImmutablePrimitiveFieldLiteGeneratorE, ptr @_ZN6google8protobuf8compiler4java36ImmutablePrimitiveFieldLiteGeneratorD1Ev, ptr @_ZN6google8protobuf8compiler4java36ImmutablePrimitiveFieldLiteGeneratorD0Ev, ptr @_ZNK6google8protobuf8compiler4java36ImmutablePrimitiveFieldLiteGenerator20GetNumBitsForMessageEv, ptr @_ZNK6google8protobuf8compiler4java36ImmutablePrimitiveFieldLiteGenerator24GenerateInterfaceMembersEPNS0_2io7PrinterE, ptr @_ZNK6google8protobuf8compiler4java36ImmutablePrimitiveFieldLiteGenerator15GenerateMembersEPNS0_2io7PrinterE, ptr @_ZNK6google8protobuf8compiler4java36ImmutablePrimitiveFieldLiteGenerator22GenerateBuilderMembersEPNS0_2io7PrinterE, ptr @_ZNK6google8protobuf8compiler4java36ImmutablePrimitiveFieldLiteGenerator26GenerateInitializationCodeEPNS0_2io7PrinterE, ptr @_ZNK6google8protobuf8compiler4java36ImmutablePrimitiveFieldLiteGenerator17GenerateFieldInfoEPNS0_2io7PrinterEPSt6vectorItSaItEE, ptr @_ZNK6google8protobuf8compiler4java36ImmutablePrimitiveFieldLiteGenerator24GenerateKotlinDslMembersEPNS0_2io7PrinterE, ptr @_ZNK6google8protobuf8compiler4java36ImmutablePrimitiveFieldLiteGenerator12GetBoxedTypeB5cxx11Ev] }, align 8
@.str = private unnamed_addr constant [47 x i8] c"$deprecation$boolean has$capitalized_name$();\0A\00", align 1
@.str.1 = private unnamed_addr constant [52 x i8] c"$deprecation$$type$ ${$get$capitalized_name$$}$();\0A\00", align 1
@.str.2 = private unnamed_addr constant [2 x i8] c"{\00", align 1
@.str.3 = private unnamed_addr constant [2 x i8] c"}\00", align 1
@_ZSt7nullopt = linkonce_odr constant %"struct.std::nullopt_t" undef, comdat, align 1
@.str.4 = private unnamed_addr constant [64 x i8] c"private static final $field_type$ $bytes_default$ = $default$;\0A\00", align 1
@.str.5 = private unnamed_addr constant [59 x i8] c"@com.google.protobuf.ProtoField(\0A  isRequired=$required$)\0A\00", align 1
@.str.6 = private unnamed_addr constant [107 x i8] c"@com.google.protobuf.ProtoPresenceCheckedField(\0A  presenceBitsId=$bit_field_id$,\0A  mask=$bit_field_mask$)\0A\00", align 1
@.str.7 = private unnamed_addr constant [31 x i8] c"private $field_type$ $name$_;\0A\00", align 1
@.str.8 = private unnamed_addr constant [121 x i8] c"@java.lang.Override\0A$deprecation$public boolean ${$has$capitalized_name$$}$() {\0A  return $get_has_field_bit_message$;\0A}\0A\00", align 1
@.str.9 = private unnamed_addr constant [100 x i8] c"@java.lang.Override\0A$deprecation$public $type$ ${$get$capitalized_name$$}$() {\0A  return $name$_;\0A}\0A\00", align 1
@.str.10 = private unnamed_addr constant [115 x i8] c"private void set$capitalized_name$($type$ value) {\0A$null_check$  $set_has_field_bit_message$\0A  $name$_ = value;\0A}\0A\00", align 1
@.str.11 = private unnamed_addr constant [74 x i8] c"private void clear$capitalized_name$() {\0A  $clear_has_field_bit_message$\0A\00", align 1
@.str.12 = private unnamed_addr constant [59 x i8] c"  $name$_ = getDefaultInstance().get$capitalized_name$();\0A\00", align 1
@.str.13 = private unnamed_addr constant [24 x i8] c"  $name$_ = $default$;\0A\00", align 1
@.str.14 = private unnamed_addr constant [3 x i8] c"}\0A\00", align 1
@.str.15 = private unnamed_addr constant [126 x i8] c"@java.lang.Override\0A$deprecation$public boolean ${$has$capitalized_name$$}$() {\0A  return instance.has$capitalized_name$();\0A}\0A\00", align 1
@.str.16 = private unnamed_addr constant [125 x i8] c"@java.lang.Override\0A$deprecation$public $type$ ${$get$capitalized_name$$}$() {\0A  return instance.get$capitalized_name$();\0A}\0A\00", align 1
@.str.17 = private unnamed_addr constant [148 x i8] c"$deprecation$public Builder ${$set$capitalized_name$$}$($type$ value) {\0A  copyOnWrite();\0A  instance.set$capitalized_name$(value);\0A  return this;\0A}\0A\00", align 1
@.str.18 = private unnamed_addr constant [135 x i8] c"$deprecation$public Builder ${$clear$capitalized_name$$}$() {\0A  copyOnWrite();\0A  instance.clear$capitalized_name$();\0A  return this;\0A}\0A\00", align 1
@.str.19 = private unnamed_addr constant [271 x i8] c"$kt_deprecation$public var $kt_name$: $kt_type$\0A  @JvmName(\22${$get$kt_capitalized_name$$}$\22)\0A  get() = $kt_dsl_builder$.${$get$capitalized_name$$}$()\0A  @JvmName(\22${$set$kt_capitalized_name$$}$\22)\0A  set(value) {\0A    $kt_dsl_builder$.${$set$capitalized_name$$}$(value)\0A  }\0A\00", align 1
@.str.20 = private unnamed_addr constant [102 x i8] c"public fun ${$clear$kt_capitalized_name$$}$() {\0A  $kt_dsl_builder$.${$clear$capitalized_name$$}$()\0A}\0A\00", align 1
@.str.21 = private unnamed_addr constant [121 x i8] c"public fun ${$has$kt_capitalized_name$$}$(): kotlin.Boolean {\0A  return $kt_dsl_builder$.${$has$capitalized_name$$}$()\0A}\0A\00", align 1
@.str.22 = private unnamed_addr constant [12 x i8] c"\22$name$_\22,\0A\00", align 1
@.str.23 = private unnamed_addr constant [28 x i8] c"$name$_ = $bytes_default$;\0A\00", align 1
@.str.24 = private unnamed_addr constant [22 x i8] c"$name$_ = $default$;\0A\00", align 1
@_ZTVN6google8protobuf8compiler4java41ImmutablePrimitiveOneofFieldLiteGeneratorE = hidden unnamed_addr constant { [12 x ptr] } { [12 x ptr] [ptr null, ptr @_ZTIN6google8protobuf8compiler4java41ImmutablePrimitiveOneofFieldLiteGeneratorE, ptr @_ZN6google8protobuf8compiler4java41ImmutablePrimitiveOneofFieldLiteGeneratorD1Ev, ptr @_ZN6google8protobuf8compiler4java41ImmutablePrimitiveOneofFieldLiteGeneratorD0Ev, ptr @_ZNK6google8protobuf8compiler4java36ImmutablePrimitiveFieldLiteGenerator20GetNumBitsForMessageEv, ptr @_ZNK6google8protobuf8compiler4java36ImmutablePrimitiveFieldLiteGenerator24GenerateInterfaceMembersEPNS0_2io7PrinterE, ptr @_ZNK6google8protobuf8compiler4java41ImmutablePrimitiveOneofFieldLiteGenerator15GenerateMembersEPNS0_2io7PrinterE, ptr @_ZNK6google8protobuf8compiler4java41ImmutablePrimitiveOneofFieldLiteGenerator22GenerateBuilderMembersEPNS0_2io7PrinterE, ptr @_ZNK6google8protobuf8compiler4java36ImmutablePrimitiveFieldLiteGenerator26GenerateInitializationCodeEPNS0_2io7PrinterE, ptr @_ZNK6google8protobuf8compiler4java41ImmutablePrimitiveOneofFieldLiteGenerator17GenerateFieldInfoEPNS0_2io7PrinterEPSt6vectorItSaItEE, ptr @_ZNK6google8protobuf8compiler4java36ImmutablePrimitiveFieldLiteGenerator24GenerateKotlinDslMembersEPNS0_2io7PrinterE, ptr @_ZNK6google8protobuf8compiler4java36ImmutablePrimitiveFieldLiteGenerator12GetBoxedTypeB5cxx11Ev] }, align 8
@.str.25 = private unnamed_addr constant [118 x i8] c"@java.lang.Override\0A$deprecation$public boolean ${$has$capitalized_name$$}$() {\0A  return $has_oneof_case_message$;\0A}\0A\00", align 1
@.str.26 = private unnamed_addr constant [181 x i8] c"@java.lang.Override\0A$deprecation$public $type$ ${$get$capitalized_name$$}$() {\0A  if ($has_oneof_case_message$) {\0A    return ($boxed_type$) $oneof_name$_;\0A  }\0A  return $default$;\0A}\0A\00", align 1
@.str.27 = private unnamed_addr constant [119 x i8] c"private void set$capitalized_name$($type$ value) {\0A$null_check$  $set_oneof_case_message$;\0A  $oneof_name$_ = value;\0A}\0A\00", align 1
@.str.28 = private unnamed_addr constant [140 x i8] c"private void clear$capitalized_name$() {\0A  if ($has_oneof_case_message$) {\0A    $clear_oneof_case_message$;\0A    $oneof_name$_ = null;\0A  }\0A}\0A\00", align 1
@_ZTVN6google8protobuf8compiler4java44RepeatedImmutablePrimitiveFieldLiteGeneratorE = hidden unnamed_addr constant { [12 x ptr] } { [12 x ptr] [ptr null, ptr @_ZTIN6google8protobuf8compiler4java44RepeatedImmutablePrimitiveFieldLiteGeneratorE, ptr @_ZN6google8protobuf8compiler4java44RepeatedImmutablePrimitiveFieldLiteGeneratorD1Ev, ptr @_ZN6google8protobuf8compiler4java44RepeatedImmutablePrimitiveFieldLiteGeneratorD0Ev, ptr @_ZNK6google8protobuf8compiler4java44RepeatedImmutablePrimitiveFieldLiteGenerator20GetNumBitsForMessageEv, ptr @_ZNK6google8protobuf8compiler4java44RepeatedImmutablePrimitiveFieldLiteGenerator24GenerateInterfaceMembersEPNS0_2io7PrinterE, ptr @_ZNK6google8protobuf8compiler4java44RepeatedImmutablePrimitiveFieldLiteGenerator15GenerateMembersEPNS0_2io7PrinterE, ptr @_ZNK6google8protobuf8compiler4java44RepeatedImmutablePrimitiveFieldLiteGenerator22GenerateBuilderMembersEPNS0_2io7PrinterE, ptr @_ZNK6google8protobuf8compiler4java44RepeatedImmutablePrimitiveFieldLiteGenerator26GenerateInitializationCodeEPNS0_2io7PrinterE, ptr @_ZNK6google8protobuf8compiler4java44RepeatedImmutablePrimitiveFieldLiteGenerator17GenerateFieldInfoEPNS0_2io7PrinterEPSt6vectorItSaItEE, ptr @_ZNK6google8protobuf8compiler4java44RepeatedImmutablePrimitiveFieldLiteGenerator24GenerateKotlinDslMembersEPNS0_2io7PrinterE, ptr @_ZNK6google8protobuf8compiler4java44RepeatedImmutablePrimitiveFieldLiteGenerator12GetBoxedTypeB5cxx11Ev] }, align 8
@.str.29 = private unnamed_addr constant [78 x i8] c"$deprecation$java.util.List<$boxed_type$> ${$get$capitalized_name$List$}$();\0A\00", align 1
@.str.30 = private unnamed_addr constant [54 x i8] c"$deprecation$int ${$get$capitalized_name$Count$}$();\0A\00", align 1
@.str.31 = private unnamed_addr constant [61 x i8] c"$deprecation$$type$ ${$get$capitalized_name$$}$(int index);\0A\00", align 1
@.str.32 = private unnamed_addr constant [36 x i8] c"private $field_list_type$ $name$_;\0A\00", align 1
@.str.33 = private unnamed_addr constant [130 x i8] c"@java.lang.Override\0A$deprecation$public java.util.List<$boxed_type$>\0A    ${$get$capitalized_name$List$}$() {\0A  return $name$_;\0A}\0A\00", align 1
@.str.34 = private unnamed_addr constant [109 x i8] c"@java.lang.Override\0A$deprecation$public int ${$get$capitalized_name$Count$}$() {\0A  return $name$_.size();\0A}\0A\00", align 1
@.str.35 = private unnamed_addr constant [123 x i8] c"@java.lang.Override\0A$deprecation$public $type$ ${$get$capitalized_name$$}$(int index) {\0A  return $repeated_get$(index);\0A}\0A\00", align 1
@.str.36 = private unnamed_addr constant [48 x i8] c"private int $name$MemoizedSerializedSize = -1;\0A\00", align 1
@.str.37 = private unnamed_addr constant [204 x i8] c"private void ensure$capitalized_name$IsMutable() {\0A  $field_list_type$ tmp = $name$_;\0A  if (!tmp.isModifiable()) {\0A    $name$_ =\0A        com.google.protobuf.GeneratedMessageLite.mutableCopy(tmp);\0A   }\0A}\0A\00", align 1
@.str.38 = private unnamed_addr constant [153 x i8] c"private void set$capitalized_name$(\0A    int index, $type$ value) {\0A$null_check$  ensure$capitalized_name$IsMutable();\0A  $repeated_set$(index, value);\0A}\0A\00", align 1
@.str.39 = private unnamed_addr constant [130 x i8] c"private void add$capitalized_name$($type$ value) {\0A$null_check$  ensure$capitalized_name$IsMutable();\0A  $repeated_add$(value);\0A}\0A\00", align 1
@.str.40 = private unnamed_addr constant [212 x i8] c"private void addAll$capitalized_name$(\0A    java.lang.Iterable<? extends $boxed_type$> values) {\0A  ensure$capitalized_name$IsMutable();\0A  com.google.protobuf.AbstractMessageLite.addAll(\0A      values, $name$_);\0A}\0A\00", align 1
@.str.41 = private unnamed_addr constant [70 x i8] c"private void clear$capitalized_name$() {\0A  $name$_ = $empty_list$;\0A}\0A\00", align 1
@.str.42 = private unnamed_addr constant [206 x i8] c"@java.lang.Override\0A$deprecation$public java.util.List<$boxed_type$>\0A    ${$get$capitalized_name$List$}$() {\0A  return java.util.Collections.unmodifiableList(\0A      instance.get$capitalized_name$List());\0A}\0A\00", align 1
@.str.43 = private unnamed_addr constant [132 x i8] c"@java.lang.Override\0A$deprecation$public int ${$get$capitalized_name$Count$}$() {\0A  return instance.get$capitalized_name$Count();\0A}\0A\00", align 1
@.str.44 = private unnamed_addr constant [139 x i8] c"@java.lang.Override\0A$deprecation$public $type$ ${$get$capitalized_name$$}$(int index) {\0A  return instance.get$capitalized_name$(index);\0A}\0A\00", align 1
@.str.45 = private unnamed_addr constant [171 x i8] c"$deprecation$public Builder ${$set$capitalized_name$$}$(\0A    int index, $type$ value) {\0A  copyOnWrite();\0A  instance.set$capitalized_name$(index, value);\0A  return this;\0A}\0A\00", align 1
@.str.46 = private unnamed_addr constant [148 x i8] c"$deprecation$public Builder ${$add$capitalized_name$$}$($type$ value) {\0A  copyOnWrite();\0A  instance.add$capitalized_name$(value);\0A  return this;\0A}\0A\00", align 1
@.str.47 = private unnamed_addr constant [197 x i8] c"$deprecation$public Builder ${$addAll$capitalized_name$$}$(\0A    java.lang.Iterable<? extends $boxed_type$> values) {\0A  copyOnWrite();\0A  instance.addAll$capitalized_name$(values);\0A  return this;\0A}\0A\00", align 1
@.str.48 = private unnamed_addr constant [276 x i8] c"/**\0A * An uninstantiable, behaviorless type to represent the field in\0A * generics.\0A */\0A@kotlin.OptIn(com.google.protobuf.kotlin.OnlyForUseByGeneratedProtoCode::class)\0Apublic class ${$$kt_capitalized_name$Proxy$}$ private constructor() : com.google.protobuf.kotlin.DslProxy()\0A\00", align 1
@.str.49 = private unnamed_addr constant [252 x i8] c"$kt_deprecation$ public val $kt_name$: com.google.protobuf.kotlin.DslList<$kt_type$, ${$$kt_capitalized_name$Proxy$}$>\0A  @kotlin.jvm.JvmSynthetic\0A  get() = com.google.protobuf.kotlin.DslList(\0A    $kt_dsl_builder$.${$get$capitalized_name$List$}$()\0A  )\0A\00", align 1
@.str.50 = private unnamed_addr constant [244 x i8] c"@kotlin.jvm.JvmSynthetic\0A@kotlin.jvm.JvmName(\22add$kt_capitalized_name$\22)\0Apublic fun com.google.protobuf.kotlin.DslList<$kt_type$, ${$$kt_capitalized_name$Proxy$}$>.add(value: $kt_type$) {\0A  $kt_dsl_builder$.${$add$capitalized_name$$}$(value)\0A}\00", align 1
@.str.51 = private unnamed_addr constant [264 x i8] c"@kotlin.jvm.JvmSynthetic\0A@kotlin.jvm.JvmName(\22plusAssign$kt_capitalized_name$\22)\0A@Suppress(\22NOTHING_TO_INLINE\22)\0Apublic inline operator fun com.google.protobuf.kotlin.DslList<$kt_type$, ${$$kt_capitalized_name$Proxy$}$>.plusAssign(value: $kt_type$) {\0A  add(value)\0A}\00", align 1
@.str.52 = private unnamed_addr constant [284 x i8] c"@kotlin.jvm.JvmSynthetic\0A@kotlin.jvm.JvmName(\22addAll$kt_capitalized_name$\22)\0Apublic fun com.google.protobuf.kotlin.DslList<$kt_type$, ${$$kt_capitalized_name$Proxy$}$>.addAll(values: kotlin.collections.Iterable<$kt_type$>) {\0A  $kt_dsl_builder$.${$addAll$capitalized_name$$}$(values)\0A}\00", align 1
@.str.53 = private unnamed_addr constant [301 x i8] c"@kotlin.jvm.JvmSynthetic\0A@kotlin.jvm.JvmName(\22plusAssignAll$kt_capitalized_name$\22)\0A@Suppress(\22NOTHING_TO_INLINE\22)\0Apublic inline operator fun com.google.protobuf.kotlin.DslList<$kt_type$, ${$$kt_capitalized_name$Proxy$}$>.plusAssign(values: kotlin.collections.Iterable<$kt_type$>) {\0A  addAll(values)\0A}\00", align 1
@.str.54 = private unnamed_addr constant [279 x i8] c"@kotlin.jvm.JvmSynthetic\0A@kotlin.jvm.JvmName(\22set$kt_capitalized_name$\22)\0Apublic operator fun com.google.protobuf.kotlin.DslList<$kt_type$, ${$$kt_capitalized_name$Proxy$}$>.set(index: kotlin.Int, value: $kt_type$) {\0A  $kt_dsl_builder$.${$set$capitalized_name$$}$(index, value)\0A}\00", align 1
@.str.55 = private unnamed_addr constant [229 x i8] c"@kotlin.jvm.JvmSynthetic\0A@kotlin.jvm.JvmName(\22clear$kt_capitalized_name$\22)\0Apublic fun com.google.protobuf.kotlin.DslList<$kt_type$, ${$$kt_capitalized_name$Proxy$}$>.clear() {\0A  $kt_dsl_builder$.${$clear$capitalized_name$$}$()\0A}\00", align 1
@.str.56 = private unnamed_addr constant [25 x i8] c"$name$_ = $empty_list$;\0A\00", align 1
@_ZTVN10__cxxabiv120__si_class_type_infoE = external global [0 x ptr]
@_ZTSN6google8protobuf8compiler4java36ImmutablePrimitiveFieldLiteGeneratorE = hidden constant [71 x i8] c"N6google8protobuf8compiler4java36ImmutablePrimitiveFieldLiteGeneratorE\00", align 1
@_ZTIN6google8protobuf8compiler4java27ImmutableFieldLiteGeneratorE = external constant ptr
@_ZTIN6google8protobuf8compiler4java36ImmutablePrimitiveFieldLiteGeneratorE = hidden constant { ptr, ptr, ptr } { ptr getelementptr inbounds (ptr, ptr @_ZTVN10__cxxabiv120__si_class_type_infoE, i64 2), ptr @_ZTSN6google8protobuf8compiler4java36ImmutablePrimitiveFieldLiteGeneratorE, ptr @_ZTIN6google8protobuf8compiler4java27ImmutableFieldLiteGeneratorE }, align 8
@_ZTSN6google8protobuf8compiler4java41ImmutablePrimitiveOneofFieldLiteGeneratorE = hidden constant [76 x i8] c"N6google8protobuf8compiler4java41ImmutablePrimitiveOneofFieldLiteGeneratorE\00", align 1
@_ZTIN6google8protobuf8compiler4java41ImmutablePrimitiveOneofFieldLiteGeneratorE = hidden constant { ptr, ptr, ptr } { ptr getelementptr inbounds (ptr, ptr @_ZTVN10__cxxabiv120__si_class_type_infoE, i64 2), ptr @_ZTSN6google8protobuf8compiler4java41ImmutablePrimitiveOneofFieldLiteGeneratorE, ptr @_ZTIN6google8protobuf8compiler4java36ImmutablePrimitiveFieldLiteGeneratorE }, align 8
@_ZTSN6google8protobuf8compiler4java44RepeatedImmutablePrimitiveFieldLiteGeneratorE = hidden constant [79 x i8] c"N6google8protobuf8compiler4java44RepeatedImmutablePrimitiveFieldLiteGeneratorE\00", align 1
@_ZTIN6google8protobuf8compiler4java44RepeatedImmutablePrimitiveFieldLiteGeneratorE = hidden constant { ptr, ptr, ptr } { ptr getelementptr inbounds (ptr, ptr @_ZTVN10__cxxabiv120__si_class_type_infoE, i64 2), ptr @_ZTSN6google8protobuf8compiler4java44RepeatedImmutablePrimitiveFieldLiteGeneratorE, ptr @_ZTIN6google8protobuf8compiler4java27ImmutableFieldLiteGeneratorE }, align 8
@_ZTVN6google8protobuf8compiler4java27ImmutableFieldLiteGeneratorE = external unnamed_addr constant { [12 x ptr] }, align 8
@.str.57 = private unnamed_addr constant [5 x i8] c"type\00", align 1
@.str.58 = private unnamed_addr constant [11 x i8] c"boxed_type\00", align 1
@.str.59 = private unnamed_addr constant [8 x i8] c"kt_type\00", align 1
@.str.60 = private unnamed_addr constant [11 x i8] c"field_type\00", align 1
@.str.61 = private unnamed_addr constant [8 x i8] c"default\00", align 1
@.str.62 = private unnamed_addr constant [17 x i8] c"capitalized_type\00", align 1
@.str.63 = private unnamed_addr constant [4 x i8] c"tag\00", align 1
@.str.64 = private unnamed_addr constant [9 x i8] c"tag_size\00", align 1
@.str.65 = private unnamed_addr constant [5 x i8] c"true\00", align 1
@.str.66 = private unnamed_addr constant [6 x i8] c"false\00", align 1
@.str.67 = private unnamed_addr constant [9 x i8] c"required\00", align 1
@.str.68 = private unnamed_addr constant [5 x i8] c"name\00", align 1
@.str.69 = private unnamed_addr constant [30 x i8] c"com.google.protobuf.Internal.\00", align 1
@.str.70 = private unnamed_addr constant [5 x i8] c"List\00", align 1
@.str.71 = private unnamed_addr constant [16 x i8] c"field_list_type\00", align 1
@.str.72 = private unnamed_addr constant [6 x i8] c"empty\00", align 1
@.str.73 = private unnamed_addr constant [7 x i8] c"List()\00", align 1
@.str.74 = private unnamed_addr constant [11 x i8] c"empty_list\00", align 1
@.str.75 = private unnamed_addr constant [18 x i8] c"_.makeImmutable()\00", align 1
@.str.76 = private unnamed_addr constant [23 x i8] c"make_name_unmodifiable\00", align 1
@.str.77 = private unnamed_addr constant [6 x i8] c"_.get\00", align 1
@.str.78 = private unnamed_addr constant [13 x i8] c"repeated_get\00", align 1
@.str.79 = private unnamed_addr constant [6 x i8] c"_.add\00", align 1
@.str.80 = private unnamed_addr constant [13 x i8] c"repeated_add\00", align 1
@.str.81 = private unnamed_addr constant [6 x i8] c"_.set\00", align 1
@.str.82 = private unnamed_addr constant [13 x i8] c"repeated_set\00", align 1
@.str.83 = private unnamed_addr constant [11 x i8] c"visit_type\00", align 1
@.str.84 = private unnamed_addr constant [6 x i8] c"visit\00", align 1
@.str.85 = private unnamed_addr constant [16 x i8] c"visit_type_list\00", align 1
@.str.86 = private unnamed_addr constant [43 x i8] c"com.google.protobuf.Internal.ProtobufList<\00", align 1
@.str.87 = private unnamed_addr constant [2 x i8] c">\00", align 1
@.str.88 = private unnamed_addr constant [20 x i8] c"emptyProtobufList()\00", align 1
@.str.89 = private unnamed_addr constant [11 x i8] c"ByteString\00", align 1
@.str.90 = private unnamed_addr constant [10 x i8] c"visitList\00", align 1
@.str.91 = private unnamed_addr constant [15 x i8] c"_DEFAULT_VALUE\00", align 1
@.str.92 = private unnamed_addr constant [14 x i8] c"bytes_default\00", align 1
@.str.93 = private unnamed_addr constant [53 x i8] c"  java.lang.Class<?> valueClass = value.getClass();\0A\00", align 1
@.str.94 = private unnamed_addr constant [11 x i8] c"null_check\00", align 1
@.str.95 = private unnamed_addr constant [1 x i8] zeroinitializer, align 1
@.str.96 = private unnamed_addr constant [23 x i8] c"@java.lang.Deprecated \00", align 1
@.str.97 = private unnamed_addr constant [12 x i8] c"deprecation\00", align 1
@.str.98 = private unnamed_addr constant [37 x i8] c"@kotlin.Deprecated(message = \22Field \00", align 1
@.str.99 = private unnamed_addr constant [18 x i8] c" is deprecated\22) \00", align 1
@.str.100 = private unnamed_addr constant [15 x i8] c"kt_deprecation\00", align 1
@.str.101 = private unnamed_addr constant [11 x i8] c"fixed_size\00", align 1
@.str.102 = private unnamed_addr constant [26 x i8] c"get_has_field_bit_message\00", align 1
@.str.103 = private unnamed_addr constant [2 x i8] c";\00", align 1
@.str.104 = private unnamed_addr constant [26 x i8] c"set_has_field_bit_message\00", align 1
@.str.105 = private unnamed_addr constant [28 x i8] c"clear_has_field_bit_message\00", align 1
@.str.106 = private unnamed_addr constant [25 x i8] c"is_field_present_message\00", align 1
@.str.107 = private unnamed_addr constant [2 x i8] c"!\00", align 1
@.str.108 = private unnamed_addr constant [12 x i8] c"_.isEmpty()\00", align 1
@.str.109 = private unnamed_addr constant [35 x i8] c"java.lang.Float.floatToRawIntBits(\00", align 1
@.str.110 = private unnamed_addr constant [8 x i8] c"_) != 0\00", align 1
@.str.111 = private unnamed_addr constant [38 x i8] c"java.lang.Double.doubleToRawLongBits(\00", align 1
@.str.112 = private unnamed_addr constant [6 x i8] c"_ != \00", align 1
@_ZSt19piecewise_construct = linkonce_odr constant %"struct.std::piecewise_construct_t" zeroinitializer, comdat, align 1
@_ZN4absl12lts_2023080213hash_internal15MixingHashState5kSeedE = external constant ptr, align 8
@_ZZN4absl12lts_2023080218container_internal12raw_hash_setINS1_17FlatHashMapPolicyISt17basic_string_viewIcSt11char_traitsIcEENSt7__cxx1112basic_stringIcS6_SaIcEEEEENS1_10StringHashENS1_8StringEqESaISt4pairIKS7_SB_EEE18GetPolicyFunctionsEvE5value = linkonce_odr hidden constant %"struct.absl::lts_20230802::container_internal::PolicyFunctions" { i64 48, ptr @_ZN4absl12lts_2023080218container_internal12raw_hash_setINS1_17FlatHashMapPolicyISt17basic_string_viewIcSt11char_traitsIcEENSt7__cxx1112basic_stringIcS6_SaIcEEEEENS1_10StringHashENS1_8StringEqESaISt4pairIKS7_SB_EEE12hash_slot_fnEPvSK_, ptr @_ZN4absl12lts_2023080218container_internal12raw_hash_setINS1_17FlatHashMapPolicyISt17basic_string_viewIcSt11char_traitsIcEENSt7__cxx1112basic_stringIcS6_SaIcEEEEENS1_10StringHashENS1_8StringEqESaISt4pairIKS7_SB_EEE16transfer_slot_fnEPvSK_SK_, ptr @_ZN4absl12lts_2023080218container_internal18DeallocateStandardILm8EEEvRNS1_12CommonFieldsERKNS1_15PolicyFunctionsE }, comdat, align 8
@.str.113 = private unnamed_addr constant [12 x i8] c"operator*()\00", align 1
@_ZN6google8protobuf8internal14WireFormatLite21kWireTypeForFieldTypeE = external constant [0 x i32], align 4
@.str.114 = private unnamed_addr constant [50 x i8] c"basic_string: construction from null is not valid\00", align 1
@_ZZN4absl12lts_2023080213base_internal12CallOnceImplIPFvPKN6google8protobuf15FieldDescriptorEEJS7_EEEvPSt6atomicIjENS1_14SchedulingModeEOT_DpOT0_E5trans = linkonce_odr hidden constant [3 x %"struct.absl::lts_20230802::base_internal::SpinLockWaitTransition"] [%"struct.absl::lts_20230802::base_internal::SpinLockWaitTransition" { i32 0, i32 1707250555, i8 1 }, %"struct.absl::lts_20230802::base_internal::SpinLockWaitTransition" { i32 1707250555, i32 94570706, i8 0 }, %"struct.absl::lts_20230802::base_internal::SpinLockWaitTransition" { i32 221, i32 221, i8 1 }], comdat, align 16
@_ZSt8in_place = linkonce_odr constant %"struct.std::in_place_t" zeroinitializer, comdat, align 1
@_ZN4absl12lts_2023080218container_internal11kEmptyGroupE = external constant [32 x i8], align 16
@.str.115 = private unnamed_addr constant [11 x i8] c"operator->\00", align 1
@.str.116 = private unnamed_addr constant [3 x i8] c";,\00", align 1
@_ZSt14in_place_indexILm0EE = linkonce_odr constant %"struct.std::in_place_index_t" zeroinitializer, comdat, align 1
@__const._ZSt24__find_uniq_type_in_packISt8functionIFbvEEJSt17basic_string_viewIcSt11char_traitsIcEES2_EEmv.__found = private unnamed_addr constant [2 x i8] c"\00\01", align 1
@_ZSt14in_place_indexILm1EE = linkonce_odr constant %"struct.std::in_place_index_t.201" zeroinitializer, comdat, align 1
@_ZTVN10__cxxabiv117__class_type_infoE = external global [0 x ptr]
@_ZTSZN6google8protobuf2io7Printer8WithVarsIN4absl12lts_2023080213flat_hash_mapISt17basic_string_viewIcSt11char_traitsIcEENSt7__cxx1112basic_stringIcS9_SaIcEEENS5_18container_internal10StringHashENSF_8StringEqESaISt4pairIKSA_SE_EEEEEEDaPKT_EUlSA_E_ = linkonce_odr hidden constant [244 x i8] c"ZN6google8protobuf2io7Printer8WithVarsIN4absl12lts_2023080213flat_hash_mapISt17basic_string_viewIcSt11char_traitsIcEENSt7__cxx1112basic_stringIcS9_SaIcEEENS5_18container_internal10StringHashENSF_8StringEqESaISt4pairIKSA_SE_EEEEEEDaPKT_EUlSA_E_\00", comdat, align 1
@_ZTIZN6google8protobuf2io7Printer8WithVarsIN4absl12lts_2023080213flat_hash_mapISt17basic_string_viewIcSt11char_traitsIcEENSt7__cxx1112basic_stringIcS9_SaIcEEENS5_18container_internal10StringHashENSF_8StringEqESaISt4pairIKSA_SE_EEEEEEDaPKT_EUlSA_E_ = linkonce_odr hidden constant { ptr, ptr } { ptr getelementptr inbounds (ptr, ptr @_ZTVN10__cxxabiv117__class_type_infoE, i64 2), ptr @_ZTSZN6google8protobuf2io7Printer8WithVarsIN4absl12lts_2023080213flat_hash_mapISt17basic_string_viewIcSt11char_traitsIcEENSt7__cxx1112basic_stringIcS9_SaIcEEENS5_18container_internal10StringHashENSF_8StringEqESaISt4pairIKSA_SE_EEEEEEDaPKT_EUlSA_E_ }, comdat, align 8
@.str.117 = private unnamed_addr constant [26 x i8] c"vector::_M_realloc_insert\00", align 1
@llvm.global_ctors = appending global [1 x { i32, ptr, ptr }] [{ i32, ptr, ptr } { i32 65535, ptr @_GLOBAL__sub_I_primitive_field_lite.cc, ptr null }]

@_ZN6google8protobuf8compiler4java36ImmutablePrimitiveFieldLiteGeneratorC1EPKNS0_15FieldDescriptorEiPNS2_7ContextE = hidden unnamed_addr alias void (ptr, ptr, i32, ptr), ptr @_ZN6google8protobuf8compiler4java36ImmutablePrimitiveFieldLiteGeneratorC2EPKNS0_15FieldDescriptorEiPNS2_7ContextE
@_ZN6google8protobuf8compiler4java36ImmutablePrimitiveFieldLiteGeneratorD1Ev = hidden unnamed_addr alias void (ptr), ptr @_ZN6google8protobuf8compiler4java36ImmutablePrimitiveFieldLiteGeneratorD2Ev
@_ZN6google8protobuf8compiler4java41ImmutablePrimitiveOneofFieldLiteGeneratorC1EPKNS0_15FieldDescriptorEiPNS2_7ContextE = hidden unnamed_addr alias void (ptr, ptr, i32, ptr), ptr @_ZN6google8protobuf8compiler4java41ImmutablePrimitiveOneofFieldLiteGeneratorC2EPKNS0_15FieldDescriptorEiPNS2_7ContextE
@_ZN6google8protobuf8compiler4java41ImmutablePrimitiveOneofFieldLiteGeneratorD1Ev = hidden unnamed_addr alias void (ptr), ptr @_ZN6google8protobuf8compiler4java41ImmutablePrimitiveOneofFieldLiteGeneratorD2Ev
@_ZN6google8protobuf8compiler4java44RepeatedImmutablePrimitiveFieldLiteGeneratorC1EPKNS0_15FieldDescriptorEiPNS2_7ContextE = hidden unnamed_addr alias void (ptr, ptr, i32, ptr), ptr @_ZN6google8protobuf8compiler4java44RepeatedImmutablePrimitiveFieldLiteGeneratorC2EPKNS0_15FieldDescriptorEiPNS2_7ContextE
@_ZN6google8protobuf8compiler4java44RepeatedImmutablePrimitiveFieldLiteGeneratorD1Ev = hidden unnamed_addr alias void (ptr), ptr @_ZN6google8protobuf8compiler4java44RepeatedImmutablePrimitiveFieldLiteGeneratorD2Ev

; Function Attrs: uwtable
define internal void @__cxx_global_var_init() #0 section ".text.startup" {
entry:
  call void @_ZNSt8ios_base4InitC1Ev(ptr noundef nonnull align 1 dereferenceable(1) @_ZStL8__ioinit)
  %0 = call i32 @__cxa_atexit(ptr @_ZNSt8ios_base4InitD1Ev, ptr @_ZStL8__ioinit, ptr @__dso_handle) #3
  ret void
}

declare void @_ZNSt8ios_base4InitC1Ev(ptr noundef nonnull align 1 dereferenceable(1)) unnamed_addr #1

; Function Attrs: nounwind
declare void @_ZNSt8ios_base4InitD1Ev(ptr noundef nonnull align 1 dereferenceable(1)) unnamed_addr #2

; Function Attrs: nounwind
declare i32 @__cxa_atexit(ptr, ptr, ptr) #3

; Function Attrs: mustprogress uwtable
define hidden void @_ZN6google8protobuf8compiler4java36ImmutablePrimitiveFieldLiteGeneratorC2EPKNS0_15FieldDescriptorEiPNS2_7ContextE(ptr noundef nonnull align 8 dereferenceable(72) %this, ptr noundef %descriptor, i32 noundef %messageBitIndex, ptr noundef %context) unnamed_addr #4 align 2 personality ptr @__gxx_personality_v0 {
entry:
  %this.addr = alloca ptr, align 8
  %descriptor.addr = alloca ptr, align 8
  %messageBitIndex.addr = alloca i32, align 4
  %context.addr = alloca ptr, align 8
  %exn.slot = alloca ptr, align 8
  %ehselector.slot = alloca i32, align 4
  store ptr %this, ptr %this.addr, align 8
  store ptr %descriptor, ptr %descriptor.addr, align 8
  store i32 %messageBitIndex, ptr %messageBitIndex.addr, align 4
  store ptr %context, ptr %context.addr, align 8
  %this1 = load ptr, ptr %this.addr, align 8
  call void @_ZN6google8protobuf8compiler4java27ImmutableFieldLiteGeneratorC2Ev(ptr noundef nonnull align 8 dereferenceable(8) %this1)
  store ptr getelementptr inbounds ({ [12 x ptr] }, ptr @_ZTVN6google8protobuf8compiler4java36ImmutablePrimitiveFieldLiteGeneratorE, i32 0, inrange i32 0, i32 2), ptr %this1, align 8
  %descriptor_ = getelementptr inbounds %"class.google::protobuf::compiler::java::ImmutablePrimitiveFieldLiteGenerator", ptr %this1, i32 0, i32 1
  %0 = load ptr, ptr %descriptor.addr, align 8
  store ptr %0, ptr %descriptor_, align 8
  %variables_ = getelementptr inbounds %"class.google::protobuf::compiler::java::ImmutablePrimitiveFieldLiteGenerator", ptr %this1, i32 0, i32 2
  invoke void @_ZN4absl12lts_2023080213flat_hash_mapISt17basic_string_viewIcSt11char_traitsIcEENSt7__cxx1112basic_stringIcS4_SaIcEEENS0_18container_internal10StringHashENSA_8StringEqESaISt4pairIKS5_S9_EEEC2Ev(ptr noundef nonnull align 8 dereferenceable(32) %variables_)
          to label %invoke.cont unwind label %lpad

invoke.cont:                                      ; preds = %entry
  %messageBitIndex_ = getelementptr inbounds %"class.google::protobuf::compiler::java::ImmutablePrimitiveFieldLiteGenerator", ptr %this1, i32 0, i32 3
  %1 = load i32, ptr %messageBitIndex.addr, align 4
  store i32 %1, ptr %messageBitIndex_, align 8
  %context_ = getelementptr inbounds %"class.google::protobuf::compiler::java::ImmutablePrimitiveFieldLiteGenerator", ptr %this1, i32 0, i32 4
  %2 = load ptr, ptr %context.addr, align 8
  store ptr %2, ptr %context_, align 8
  %name_resolver_ = getelementptr inbounds %"class.google::protobuf::compiler::java::ImmutablePrimitiveFieldLiteGenerator", ptr %this1, i32 0, i32 5
  %3 = load ptr, ptr %context.addr, align 8
  %call = invoke noundef ptr @_ZNK6google8protobuf8compiler4java7Context15GetNameResolverEv(ptr noundef nonnull align 8 dereferenceable(152) %3)
          to label %invoke.cont3 unwind label %lpad2

invoke.cont3:                                     ; preds = %invoke.cont
  store ptr %call, ptr %name_resolver_, align 8
  %4 = load ptr, ptr %descriptor.addr, align 8
  %5 = load i32, ptr %messageBitIndex.addr, align 4
  %6 = load ptr, ptr %context.addr, align 8
  %7 = load ptr, ptr %descriptor.addr, align 8
  %call5 = invoke noundef ptr @_ZNK6google8protobuf8compiler4java7Context21GetFieldGeneratorInfoEPKNS0_15FieldDescriptorE(ptr noundef nonnull align 8 dereferenceable(152) %6, ptr noundef %7)
          to label %invoke.cont4 unwind label %lpad2

invoke.cont4:                                     ; preds = %invoke.cont3
  %name_resolver_6 = getelementptr inbounds %"class.google::protobuf::compiler::java::ImmutablePrimitiveFieldLiteGenerator", ptr %this1, i32 0, i32 5
  %8 = load ptr, ptr %name_resolver_6, align 8
  %variables_7 = getelementptr inbounds %"class.google::protobuf::compiler::java::ImmutablePrimitiveFieldLiteGenerator", ptr %this1, i32 0, i32 2
  %9 = load ptr, ptr %context.addr, align 8
  invoke void @_ZN6google8protobuf8compiler4java12_GLOBAL__N_121SetPrimitiveVariablesEPKNS0_15FieldDescriptorEiiPKNS2_18FieldGeneratorInfoEPNS2_17ClassNameResolverEPN4absl12lts_2023080213flat_hash_mapISt17basic_string_viewIcSt11char_traitsIcEENSt7__cxx1112basic_stringIcSH_SaIcEEENSD_18container_internal10StringHashENSN_8StringEqESaISt4pairIKSI_SM_EEEEPNS2_7ContextE(ptr noundef %4, i32 noundef %5, i32 noundef 0, ptr noundef %call5, ptr noundef %8, ptr noundef %variables_7, ptr noundef %9)
          to label %invoke.cont8 unwind label %lpad2

invoke.cont8:                                     ; preds = %invoke.cont4
  ret void

lpad:                                             ; preds = %entry
  %10 = landingpad { ptr, i32 }
          cleanup
  %11 = extractvalue { ptr, i32 } %10, 0
  store ptr %11, ptr %exn.slot, align 8
  %12 = extractvalue { ptr, i32 } %10, 1
  store i32 %12, ptr %ehselector.slot, align 4
  br label %ehcleanup

lpad2:                                            ; preds = %invoke.cont4, %invoke.cont3, %invoke.cont
  %13 = landingpad { ptr, i32 }
          cleanup
  %14 = extractvalue { ptr, i32 } %13, 0
  store ptr %14, ptr %exn.slot, align 8
  %15 = extractvalue { ptr, i32 } %13, 1
  store i32 %15, ptr %ehselector.slot, align 4
  call void @_ZN4absl12lts_2023080213flat_hash_mapISt17basic_string_viewIcSt11char_traitsIcEENSt7__cxx1112basic_stringIcS4_SaIcEEENS0_18container_internal10StringHashENSA_8StringEqESaISt4pairIKS5_S9_EEED2Ev(ptr noundef nonnull align 8 dereferenceable(32) %variables_) #3
  br label %ehcleanup

ehcleanup:                                        ; preds = %lpad2, %lpad
  call void @_ZN6google8protobuf8compiler4java27ImmutableFieldLiteGeneratorD2Ev(ptr noundef nonnull align 8 dereferenceable(8) %this1) #3
  br label %eh.resume

eh.resume:                                        ; preds = %ehcleanup
  %exn = load ptr, ptr %exn.slot, align 8
  %sel = load i32, ptr %ehselector.slot, align 4
  %lpad.val = insertvalue { ptr, i32 } poison, ptr %exn, 0
  %lpad.val9 = insertvalue { ptr, i32 } %lpad.val, i32 %sel, 1
  resume { ptr, i32 } %lpad.val9
}

; Function Attrs: mustprogress nounwind uwtable
define linkonce_odr hidden void @_ZN6google8protobuf8compiler4java27ImmutableFieldLiteGeneratorC2Ev(ptr noundef nonnull align 8 dereferenceable(8) %this) unnamed_addr #5 comdat align 2 {
entry:
  %this.addr = alloca ptr, align 8
  store ptr %this, ptr %this.addr, align 8
  %this1 = load ptr, ptr %this.addr, align 8
  store ptr getelementptr inbounds ({ [12 x ptr] }, ptr @_ZTVN6google8protobuf8compiler4java27ImmutableFieldLiteGeneratorE, i32 0, inrange i32 0, i32 2), ptr %this1, align 8
  ret void
}

; Function Attrs: mustprogress uwtable
define linkonce_odr hidden void @_ZN4absl12lts_2023080213flat_hash_mapISt17basic_string_viewIcSt11char_traitsIcEENSt7__cxx1112basic_stringIcS4_SaIcEEENS0_18container_internal10StringHashENSA_8StringEqESaISt4pairIKS5_S9_EEEC2Ev(ptr noundef nonnull align 8 dereferenceable(32) %this) unnamed_addr #4 comdat align 2 {
entry:
  %this.addr = alloca ptr, align 8
  store ptr %this, ptr %this.addr, align 8
  %this1 = load ptr, ptr %this.addr, align 8
  call void @_ZN4absl12lts_2023080218container_internal12raw_hash_mapINS1_17FlatHashMapPolicyISt17basic_string_viewIcSt11char_traitsIcEENSt7__cxx1112basic_stringIcS6_SaIcEEEEENS1_10StringHashENS1_8StringEqESaISt4pairIKS7_SB_EEEC2Ev(ptr noundef nonnull align 8 dereferenceable(32) %this1)
  ret void
}

declare i32 @__gxx_personality_v0(...)

declare noundef ptr @_ZNK6google8protobuf8compiler4java7Context15GetNameResolverEv(ptr noundef nonnull align 8 dereferenceable(152)) #1

; Function Attrs: mustprogress uwtable
define internal void @_ZN6google8protobuf8compiler4java12_GLOBAL__N_121SetPrimitiveVariablesEPKNS0_15FieldDescriptorEiiPKNS2_18FieldGeneratorInfoEPNS2_17ClassNameResolverEPN4absl12lts_2023080213flat_hash_mapISt17basic_string_viewIcSt11char_traitsIcEENSt7__cxx1112basic_stringIcSH_SaIcEEENSD_18container_internal10StringHashENSN_8StringEqESaISt4pairIKSI_SM_EEEEPNS2_7ContextE(ptr noundef %descriptor, i32 noundef %messageBitIndex, i32 noundef %builderBitIndex, ptr noundef %info, ptr noundef %name_resolver, ptr noundef %variables, ptr noundef %context) #4 personality ptr @__gxx_personality_v0 {
entry:
  %descriptor.addr = alloca ptr, align 8
  %messageBitIndex.addr = alloca i32, align 4
  %builderBitIndex.addr = alloca i32, align 4
  %info.addr = alloca ptr, align 8
  %name_resolver.addr = alloca ptr, align 8
  %variables.addr = alloca ptr, align 8
  %context.addr = alloca ptr, align 8
  %javaType = alloca i32, align 4
  %ref.tmp = alloca %"class.std::__cxx11::basic_string", align 8
  %ref.tmp1 = alloca %"class.std::basic_string_view", align 8
  %ref.tmp3 = alloca %"class.std::allocator.31", align 1
  %exn.slot = alloca ptr, align 8
  %ehselector.slot = alloca i32, align 4
  %ref.tmp8 = alloca %"class.std::__cxx11::basic_string", align 8
  %ref.tmp9 = alloca %"class.std::basic_string_view", align 8
  %ref.tmp11 = alloca %"class.std::allocator.31", align 1
  %ref.tmp20 = alloca %"class.std::__cxx11::basic_string", align 8
  %ref.tmp21 = alloca %"class.std::basic_string_view", align 8
  %ref.tmp23 = alloca %"class.std::allocator.31", align 1
  %ref.tmp32 = alloca %"struct.std::pair.71", align 8
  %tmp = alloca %"struct.std::pair", align 8
  %ref.tmp37 = alloca %"class.std::__cxx11::basic_string", align 8
  %agg.tmp = alloca %"struct.google::protobuf::compiler::java::Options", align 8
  %ref.tmp47 = alloca %"class.std::__cxx11::basic_string", align 8
  %ref.tmp48 = alloca %"class.std::basic_string_view", align 8
  %agg.tmp49 = alloca %"struct.google::protobuf::compiler::java::Options", align 8
  %ref.tmp54 = alloca %"class.std::allocator.31", align 1
  %ref.tmp64 = alloca %"class.std::__cxx11::basic_string", align 8
  %ref.tmp65 = alloca %"class.absl::lts_20230802::AlphaNum", align 8
  %ref.tmp72 = alloca %"class.std::__cxx11::basic_string", align 8
  %ref.tmp73 = alloca %"class.absl::lts_20230802::AlphaNum", align 8
  %capitalized_type = alloca %"class.std::__cxx11::basic_string", align 8
  %agg.tmp85 = alloca %"class.std::basic_string_view", align 8
  %name = alloca %"class.std::__cxx11::basic_string", align 8
  %ref.tmp91 = alloca %"class.std::__cxx11::basic_string", align 8
  %ref.tmp92 = alloca %"class.absl::lts_20230802::AlphaNum", align 8
  %ref.tmp95 = alloca %"class.absl::lts_20230802::AlphaNum", align 8
  %ref.tmp97 = alloca %"class.absl::lts_20230802::AlphaNum", align 8
  %ref.tmp105 = alloca %"class.std::__cxx11::basic_string", align 8
  %ref.tmp106 = alloca %"class.absl::lts_20230802::AlphaNum", align 8
  %ref.tmp108 = alloca %"class.absl::lts_20230802::AlphaNum", align 8
  %ref.tmp110 = alloca %"class.absl::lts_20230802::AlphaNum", align 8
  %ref.tmp118 = alloca %"class.std::__cxx11::basic_string", align 8
  %ref.tmp119 = alloca %"class.absl::lts_20230802::AlphaNum", align 8
  %ref.tmp121 = alloca %"class.absl::lts_20230802::AlphaNum", align 8
  %ref.tmp129 = alloca %"class.std::__cxx11::basic_string", align 8
  %ref.tmp130 = alloca %"class.absl::lts_20230802::AlphaNum", align 8
  %ref.tmp132 = alloca %"class.absl::lts_20230802::AlphaNum", align 8
  %ref.tmp134 = alloca %"class.absl::lts_20230802::AlphaNum", align 8
  %ref.tmp142 = alloca %"class.std::__cxx11::basic_string", align 8
  %ref.tmp143 = alloca %"class.absl::lts_20230802::AlphaNum", align 8
  %ref.tmp145 = alloca %"class.absl::lts_20230802::AlphaNum", align 8
  %ref.tmp147 = alloca %"class.absl::lts_20230802::AlphaNum", align 8
  %ref.tmp155 = alloca %"class.std::__cxx11::basic_string", align 8
  %ref.tmp156 = alloca %"class.absl::lts_20230802::AlphaNum", align 8
  %ref.tmp158 = alloca %"class.absl::lts_20230802::AlphaNum", align 8
  %ref.tmp160 = alloca %"class.absl::lts_20230802::AlphaNum", align 8
  %ref.tmp172 = alloca %"class.std::__cxx11::basic_string", align 8
  %ref.tmp173 = alloca %"class.absl::lts_20230802::AlphaNum", align 8
  %ref.tmp175 = alloca %"class.absl::lts_20230802::AlphaNum", align 8
  %ref.tmp177 = alloca %"class.absl::lts_20230802::AlphaNum", align 8
  %ref.tmp185 = alloca %"struct.std::pair.71", align 8
  %ref.tmp186 = alloca %"class.std::__cxx11::basic_string", align 8
  %ref.tmp187 = alloca %"class.absl::lts_20230802::AlphaNum", align 8
  %ref.tmp189 = alloca %"class.absl::lts_20230802::AlphaNum", align 8
  %ref.tmp193 = alloca %"class.absl::lts_20230802::AlphaNum", align 8
  %tmp198 = alloca %"struct.std::pair", align 8
  %ref.tmp207 = alloca %"class.std::__cxx11::basic_string", align 8
  %ref.tmp208 = alloca %"class.absl::lts_20230802::AlphaNum", align 8
  %ref.tmp210 = alloca %"class.absl::lts_20230802::AlphaNum", align 8
  %ref.tmp218 = alloca %"class.std::__cxx11::basic_string", align 8
  %ref.tmp219 = alloca %"class.absl::lts_20230802::AlphaNum", align 8
  %ref.tmp221 = alloca %"class.absl::lts_20230802::AlphaNum", align 8
  %ref.tmp229 = alloca %"class.std::__cxx11::basic_string", align 8
  %ref.tmp230 = alloca %"class.absl::lts_20230802::AlphaNum", align 8
  %ref.tmp232 = alloca %"class.absl::lts_20230802::AlphaNum", align 8
  %ref.tmp240 = alloca %"class.std::__cxx11::basic_string", align 8
  %ref.tmp241 = alloca %"class.absl::lts_20230802::AlphaNum", align 8
  %ref.tmp243 = alloca %"class.absl::lts_20230802::AlphaNum", align 8
  %ref.tmp259 = alloca %"class.std::__cxx11::basic_string", align 8
  %ref.tmp260 = alloca %"class.absl::lts_20230802::AlphaNum", align 8
  %ref.tmp261 = alloca %"class.std::__cxx11::basic_string", align 8
  %agg.tmp262 = alloca %"class.std::basic_string_view", align 8
  %ref.tmp267 = alloca %"class.absl::lts_20230802::AlphaNum", align 8
  %ref.tmp297 = alloca %"class.std::__cxx11::basic_string", align 8
  %ref.tmp302 = alloca %"class.absl::lts_20230802::AlphaNum", align 8
  %ref.tmp304 = alloca %"class.absl::lts_20230802::AlphaNum", align 8
  %ref.tmp306 = alloca %"class.absl::lts_20230802::AlphaNum", align 8
  %ref.tmp309 = alloca %"class.std::allocator.31", align 1
  %cleanup.cond = alloca i1, align 1
  %fixed_size = alloca i32, align 4
  %ref.tmp327 = alloca %"class.std::__cxx11::basic_string", align 8
  %ref.tmp328 = alloca %"class.absl::lts_20230802::AlphaNum", align 8
  %ref.tmp340 = alloca %"class.std::__cxx11::basic_string", align 8
  %ref.tmp347 = alloca %"class.std::__cxx11::basic_string", align 8
  %ref.tmp348 = alloca %"class.absl::lts_20230802::AlphaNum", align 8
  %ref.tmp349 = alloca %"class.std::__cxx11::basic_string", align 8
  %ref.tmp353 = alloca %"class.absl::lts_20230802::AlphaNum", align 8
  %ref.tmp362 = alloca %"class.std::__cxx11::basic_string", align 8
  %ref.tmp363 = alloca %"class.absl::lts_20230802::AlphaNum", align 8
  %ref.tmp364 = alloca %"class.std::__cxx11::basic_string", align 8
  %ref.tmp368 = alloca %"class.absl::lts_20230802::AlphaNum", align 8
  %ref.tmp377 = alloca %"class.std::__cxx11::basic_string", align 8
  %ref.tmp396 = alloca %"class.std::__cxx11::basic_string", align 8
  %ref.tmp397 = alloca %"class.absl::lts_20230802::AlphaNum", align 8
  %ref.tmp399 = alloca %"class.absl::lts_20230802::AlphaNum", align 8
  %ref.tmp401 = alloca %"class.absl::lts_20230802::AlphaNum", align 8
  %ref.tmp410 = alloca %"class.std::__cxx11::basic_string", align 8
  %ref.tmp411 = alloca %"class.absl::lts_20230802::AlphaNum", align 8
  %ref.tmp413 = alloca %"class.absl::lts_20230802::AlphaNum", align 8
  %ref.tmp415 = alloca %"class.absl::lts_20230802::AlphaNum", align 8
  %ref.tmp424 = alloca %"class.std::__cxx11::basic_string", align 8
  %ref.tmp425 = alloca %"class.absl::lts_20230802::AlphaNum", align 8
  %ref.tmp427 = alloca %"class.absl::lts_20230802::AlphaNum", align 8
  %ref.tmp429 = alloca %"class.absl::lts_20230802::AlphaNum", align 8
  %ref.tmp438 = alloca %"struct.std::pair.71", align 8
  %ref.tmp439 = alloca %"class.std::__cxx11::basic_string", align 8
  %ref.tmp440 = alloca %"class.absl::lts_20230802::AlphaNum", align 8
  %ref.tmp442 = alloca %"class.absl::lts_20230802::AlphaNum", align 8
  %ref.tmp444 = alloca %"class.absl::lts_20230802::AlphaNum", align 8
  %tmp451 = alloca %"struct.std::pair", align 8
  store ptr %descriptor, ptr %descriptor.addr, align 8
  store i32 %messageBitIndex, ptr %messageBitIndex.addr, align 4
  store i32 %builderBitIndex, ptr %builderBitIndex.addr, align 4
  store ptr %info, ptr %info.addr, align 8
  store ptr %name_resolver, ptr %name_resolver.addr, align 8
  store ptr %variables, ptr %variables.addr, align 8
  store ptr %context, ptr %context.addr, align 8
  %0 = load ptr, ptr %descriptor.addr, align 8
  %1 = load ptr, ptr %info.addr, align 8
  %2 = load ptr, ptr %variables.addr, align 8
  call void @_ZN6google8protobuf8compiler4java23SetCommonFieldVariablesEPKNS0_15FieldDescriptorEPKNS2_18FieldGeneratorInfoEPN4absl12lts_2023080213flat_hash_mapISt17basic_string_viewIcSt11char_traitsIcEENSt7__cxx1112basic_stringIcSE_SaIcEEENSA_18container_internal10StringHashENSK_8StringEqESaISt4pairIKSF_SJ_EEEE(ptr noundef %0, ptr noundef %1, ptr noundef %2)
  %3 = load ptr, ptr %descriptor.addr, align 8
  %call = call noundef i32 @_ZN6google8protobuf8compiler4java11GetJavaTypeEPKNS0_15FieldDescriptorE(ptr noundef %3)
  store i32 %call, ptr %javaType, align 4
  %4 = load i32, ptr %javaType, align 4
  %call2 = call { i64, ptr } @_ZN6google8protobuf8compiler4java17PrimitiveTypeNameENS2_8JavaTypeE(i32 noundef %4)
  %5 = getelementptr inbounds { i64, ptr }, ptr %ref.tmp1, i32 0, i32 0
  %6 = extractvalue { i64, ptr } %call2, 0
  store i64 %6, ptr %5, align 8
  %7 = getelementptr inbounds { i64, ptr }, ptr %ref.tmp1, i32 0, i32 1
  %8 = extractvalue { i64, ptr } %call2, 1
  store ptr %8, ptr %7, align 8
  call void @_ZNSaIcEC1Ev(ptr noundef nonnull align 1 dereferenceable(1) %ref.tmp3) #3
  invoke void @_ZNSt7__cxx1112basic_stringIcSt11char_traitsIcESaIcEEC2ISt17basic_string_viewIcS2_EvEERKT_RKS3_(ptr noundef nonnull align 8 dereferenceable(32) %ref.tmp, ptr noundef nonnull align 8 dereferenceable(16) %ref.tmp1, ptr noundef nonnull align 1 dereferenceable(1) %ref.tmp3)
          to label %invoke.cont unwind label %lpad

invoke.cont:                                      ; preds = %entry
  %9 = load ptr, ptr %variables.addr, align 8
  %call6 = invoke noundef nonnull align 8 dereferenceable(32) ptr @_ZN4absl12lts_2023080218container_internal12raw_hash_mapINS1_17FlatHashMapPolicyISt17basic_string_viewIcSt11char_traitsIcEENSt7__cxx1112basic_stringIcS6_SaIcEEEEENS1_10StringHashENS1_8StringEqESaISt4pairIKS7_SB_EEEixIA5_cSC_EEDTclsrT0_5valueclL_ZSt9addressofISH_EPT_RSO_EclL_ZSt7declvalIRSH_EDTcl9__declvalISO_ELi0EEEvEEEEERKSO_(ptr noundef nonnull align 8 dereferenceable(32) %9, ptr noundef nonnull align 1 dereferenceable(5) @.str.57)
          to label %invoke.cont5 unwind label %lpad4

invoke.cont5:                                     ; preds = %invoke.cont
  %call7 = call noundef nonnull align 8 dereferenceable(32) ptr @_ZNSt7__cxx1112basic_stringIcSt11char_traitsIcESaIcEEaSEOS4_(ptr noundef nonnull align 8 dereferenceable(32) %call6, ptr noundef nonnull align 8 dereferenceable(32) %ref.tmp) #3
  call void @_ZNSt7__cxx1112basic_stringIcSt11char_traitsIcESaIcEED1Ev(ptr noundef nonnull align 8 dereferenceable(32) %ref.tmp) #3
  call void @_ZNSaIcED1Ev(ptr noundef nonnull align 1 dereferenceable(1) %ref.tmp3) #3
  %10 = load i32, ptr %javaType, align 4
  %call10 = call { i64, ptr } @_ZN6google8protobuf8compiler4java22BoxedPrimitiveTypeNameENS2_8JavaTypeE(i32 noundef %10)
  %11 = getelementptr inbounds { i64, ptr }, ptr %ref.tmp9, i32 0, i32 0
  %12 = extractvalue { i64, ptr } %call10, 0
  store i64 %12, ptr %11, align 8
  %13 = getelementptr inbounds { i64, ptr }, ptr %ref.tmp9, i32 0, i32 1
  %14 = extractvalue { i64, ptr } %call10, 1
  store ptr %14, ptr %13, align 8
  call void @_ZNSaIcEC1Ev(ptr noundef nonnull align 1 dereferenceable(1) %ref.tmp11) #3
  invoke void @_ZNSt7__cxx1112basic_stringIcSt11char_traitsIcESaIcEEC2ISt17basic_string_viewIcS2_EvEERKT_RKS3_(ptr noundef nonnull align 8 dereferenceable(32) %ref.tmp8, ptr noundef nonnull align 8 dereferenceable(16) %ref.tmp9, ptr noundef nonnull align 1 dereferenceable(1) %ref.tmp11)
          to label %invoke.cont13 unwind label %lpad12

invoke.cont13:                                    ; preds = %invoke.cont5
  %15 = load ptr, ptr %variables.addr, align 8
  %call16 = invoke noundef nonnull align 8 dereferenceable(32) ptr @_ZN4absl12lts_2023080218container_internal12raw_hash_mapINS1_17FlatHashMapPolicyISt17basic_string_viewIcSt11char_traitsIcEENSt7__cxx1112basic_stringIcS6_SaIcEEEEENS1_10StringHashENS1_8StringEqESaISt4pairIKS7_SB_EEEixIA11_cSC_EEDTclsrT0_5valueclL_ZSt9addressofISH_EPT_RSO_EclL_ZSt7declvalIRSH_EDTcl9__declvalISO_ELi0EEEvEEEEERKSO_(ptr noundef nonnull align 8 dereferenceable(32) %15, ptr noundef nonnull align 1 dereferenceable(11) @.str.58)
          to label %invoke.cont15 unwind label %lpad14

invoke.cont15:                                    ; preds = %invoke.cont13
  %call17 = call noundef nonnull align 8 dereferenceable(32) ptr @_ZNSt7__cxx1112basic_stringIcSt11char_traitsIcESaIcEEaSEOS4_(ptr noundef nonnull align 8 dereferenceable(32) %call16, ptr noundef nonnull align 8 dereferenceable(32) %ref.tmp8) #3
  call void @_ZNSt7__cxx1112basic_stringIcSt11char_traitsIcESaIcEED1Ev(ptr noundef nonnull align 8 dereferenceable(32) %ref.tmp8) #3
  call void @_ZNSaIcED1Ev(ptr noundef nonnull align 1 dereferenceable(1) %ref.tmp11) #3
  %16 = load i32, ptr %javaType, align 4
  %call22 = call { i64, ptr } @_ZN6google8protobuf8compiler4java14KotlinTypeNameENS2_8JavaTypeE(i32 noundef %16)
  %17 = getelementptr inbounds { i64, ptr }, ptr %ref.tmp21, i32 0, i32 0
  %18 = extractvalue { i64, ptr } %call22, 0
  store i64 %18, ptr %17, align 8
  %19 = getelementptr inbounds { i64, ptr }, ptr %ref.tmp21, i32 0, i32 1
  %20 = extractvalue { i64, ptr } %call22, 1
  store ptr %20, ptr %19, align 8
  call void @_ZNSaIcEC1Ev(ptr noundef nonnull align 1 dereferenceable(1) %ref.tmp23) #3
  invoke void @_ZNSt7__cxx1112basic_stringIcSt11char_traitsIcESaIcEEC2ISt17basic_string_viewIcS2_EvEERKT_RKS3_(ptr noundef nonnull align 8 dereferenceable(32) %ref.tmp20, ptr noundef nonnull align 8 dereferenceable(16) %ref.tmp21, ptr noundef nonnull align 1 dereferenceable(1) %ref.tmp23)
          to label %invoke.cont25 unwind label %lpad24

invoke.cont25:                                    ; preds = %invoke.cont15
  %21 = load ptr, ptr %variables.addr, align 8
  %call28 = invoke noundef nonnull align 8 dereferenceable(32) ptr @_ZN4absl12lts_2023080218container_internal12raw_hash_mapINS1_17FlatHashMapPolicyISt17basic_string_viewIcSt11char_traitsIcEENSt7__cxx1112basic_stringIcS6_SaIcEEEEENS1_10StringHashENS1_8StringEqESaISt4pairIKS7_SB_EEEixIA8_cSC_EEDTclsrT0_5valueclL_ZSt9addressofISH_EPT_RSO_EclL_ZSt7declvalIRSH_EDTcl9__declvalISO_ELi0EEEvEEEEERKSO_(ptr noundef nonnull align 8 dereferenceable(32) %21, ptr noundef nonnull align 1 dereferenceable(8) @.str.59)
          to label %invoke.cont27 unwind label %lpad26

invoke.cont27:                                    ; preds = %invoke.cont25
  %call29 = call noundef nonnull align 8 dereferenceable(32) ptr @_ZNSt7__cxx1112basic_stringIcSt11char_traitsIcESaIcEEaSEOS4_(ptr noundef nonnull align 8 dereferenceable(32) %call28, ptr noundef nonnull align 8 dereferenceable(32) %ref.tmp20) #3
  call void @_ZNSt7__cxx1112basic_stringIcSt11char_traitsIcESaIcEED1Ev(ptr noundef nonnull align 8 dereferenceable(32) %ref.tmp20) #3
  call void @_ZNSaIcED1Ev(ptr noundef nonnull align 1 dereferenceable(1) %ref.tmp23) #3
  %22 = load ptr, ptr %variables.addr, align 8
  %23 = load ptr, ptr %variables.addr, align 8
  %call33 = call noundef nonnull align 8 dereferenceable(32) ptr @_ZN4absl12lts_2023080218container_internal12raw_hash_mapINS1_17FlatHashMapPolicyISt17basic_string_viewIcSt11char_traitsIcEENSt7__cxx1112basic_stringIcS6_SaIcEEEEENS1_10StringHashENS1_8StringEqESaISt4pairIKS7_SB_EEEixIA5_cSC_EEDTclsrT0_5valueclL_ZSt9addressofISH_EPT_RSO_EclL_ZSt7declvalIRSH_EDTcl9__declvalISO_ELi0EEEvEEEEERKSO_(ptr noundef nonnull align 8 dereferenceable(32) %23, ptr noundef nonnull align 1 dereferenceable(5) @.str.57)
  call void @_ZNSt4pairISt17basic_string_viewIcSt11char_traitsIcEENSt7__cxx1112basic_stringIcS2_SaIcEEEEC2IRA11_KcRS7_TnNSt9enable_ifIXaaclsr5_PCCPE22_MoveConstructiblePairIT_T0_EEclsr5_PCCPE30_ImplicitlyMoveConvertiblePairISF_SG_EEEbE4typeELb1EEEOSF_OSG_(ptr noundef nonnull align 8 dereferenceable(48) %ref.tmp32, ptr noundef nonnull align 1 dereferenceable(11) @.str.60, ptr noundef nonnull align 8 dereferenceable(32) %call33)
  invoke void @_ZN4absl12lts_2023080218container_internal12raw_hash_setINS1_17FlatHashMapPolicyISt17basic_string_viewIcSt11char_traitsIcEENSt7__cxx1112basic_stringIcS6_SaIcEEEEENS1_10StringHashENS1_8StringEqESaISt4pairIKS7_SB_EEE6insertEOSF_IS7_SB_E(ptr sret(%"struct.std::pair") align 8 %tmp, ptr noundef nonnull align 8 dereferenceable(32) %22, ptr noundef nonnull align 8 dereferenceable(48) %ref.tmp32)
          to label %invoke.cont35 unwind label %lpad34

invoke.cont35:                                    ; preds = %invoke.cont27
  call void @_ZNSt4pairISt17basic_string_viewIcSt11char_traitsIcEENSt7__cxx1112basic_stringIcS2_SaIcEEEED2Ev(ptr noundef nonnull align 8 dereferenceable(48) %ref.tmp32) #3
  %24 = load ptr, ptr %descriptor.addr, align 8
  %25 = load ptr, ptr %name_resolver.addr, align 8
  %26 = load ptr, ptr %context.addr, align 8
  %call38 = call noundef nonnull align 8 dereferenceable(73) ptr @_ZNK6google8protobuf8compiler4java7Context7optionsEv(ptr noundef nonnull align 8 dereferenceable(152) %26)
  call void @_ZN6google8protobuf8compiler4java7OptionsC2ERKS3_(ptr noundef nonnull align 8 dereferenceable(73) %agg.tmp, ptr noundef nonnull align 8 dereferenceable(73) %call38)
  invoke void @_ZN6google8protobuf8compiler4java21ImmutableDefaultValueB5cxx11EPKNS0_15FieldDescriptorEPNS2_17ClassNameResolverENS2_7OptionsE(ptr sret(%"class.std::__cxx11::basic_string") align 8 %ref.tmp37, ptr noundef %24, ptr noundef %25, ptr noundef %agg.tmp)
          to label %invoke.cont40 unwind label %lpad39

invoke.cont40:                                    ; preds = %invoke.cont35
  %27 = load ptr, ptr %variables.addr, align 8
  %call43 = invoke noundef nonnull align 8 dereferenceable(32) ptr @_ZN4absl12lts_2023080218container_internal12raw_hash_mapINS1_17FlatHashMapPolicyISt17basic_string_viewIcSt11char_traitsIcEENSt7__cxx1112basic_stringIcS6_SaIcEEEEENS1_10StringHashENS1_8StringEqESaISt4pairIKS7_SB_EEEixIA8_cSC_EEDTclsrT0_5valueclL_ZSt9addressofISH_EPT_RSO_EclL_ZSt7declvalIRSH_EDTcl9__declvalISO_ELi0EEEvEEEEERKSO_(ptr noundef nonnull align 8 dereferenceable(32) %27, ptr noundef nonnull align 1 dereferenceable(8) @.str.61)
          to label %invoke.cont42 unwind label %lpad41

invoke.cont42:                                    ; preds = %invoke.cont40
  %call44 = call noundef nonnull align 8 dereferenceable(32) ptr @_ZNSt7__cxx1112basic_stringIcSt11char_traitsIcESaIcEEaSEOS4_(ptr noundef nonnull align 8 dereferenceable(32) %call43, ptr noundef nonnull align 8 dereferenceable(32) %ref.tmp37) #3
  call void @_ZNSt7__cxx1112basic_stringIcSt11char_traitsIcESaIcEED1Ev(ptr noundef nonnull align 8 dereferenceable(32) %ref.tmp37) #3
  call void @_ZN6google8protobuf8compiler4java7OptionsD2Ev(ptr noundef nonnull align 8 dereferenceable(73) %agg.tmp) #3
  %28 = load ptr, ptr %descriptor.addr, align 8
  %29 = load ptr, ptr %context.addr, align 8
  %call50 = call noundef nonnull align 8 dereferenceable(73) ptr @_ZNK6google8protobuf8compiler4java7Context7optionsEv(ptr noundef nonnull align 8 dereferenceable(152) %29)
  call void @_ZN6google8protobuf8compiler4java7OptionsC2ERKS3_(ptr noundef nonnull align 8 dereferenceable(73) %agg.tmp49, ptr noundef nonnull align 8 dereferenceable(73) %call50)
  %call53 = invoke { i64, ptr } @_ZN6google8protobuf8compiler4java18GetCapitalizedTypeEPKNS0_15FieldDescriptorEbNS2_7OptionsE(ptr noundef %28, i1 noundef zeroext true, ptr noundef %agg.tmp49)
          to label %invoke.cont52 unwind label %lpad51

invoke.cont52:                                    ; preds = %invoke.cont42
  %30 = getelementptr inbounds { i64, ptr }, ptr %ref.tmp48, i32 0, i32 0
  %31 = extractvalue { i64, ptr } %call53, 0
  store i64 %31, ptr %30, align 8
  %32 = getelementptr inbounds { i64, ptr }, ptr %ref.tmp48, i32 0, i32 1
  %33 = extractvalue { i64, ptr } %call53, 1
  store ptr %33, ptr %32, align 8
  call void @_ZNSaIcEC1Ev(ptr noundef nonnull align 1 dereferenceable(1) %ref.tmp54) #3
  invoke void @_ZNSt7__cxx1112basic_stringIcSt11char_traitsIcESaIcEEC2ISt17basic_string_viewIcS2_EvEERKT_RKS3_(ptr noundef nonnull align 8 dereferenceable(32) %ref.tmp47, ptr noundef nonnull align 8 dereferenceable(16) %ref.tmp48, ptr noundef nonnull align 1 dereferenceable(1) %ref.tmp54)
          to label %invoke.cont56 unwind label %lpad55

invoke.cont56:                                    ; preds = %invoke.cont52
  %34 = load ptr, ptr %variables.addr, align 8
  %call59 = invoke noundef nonnull align 8 dereferenceable(32) ptr @_ZN4absl12lts_2023080218container_internal12raw_hash_mapINS1_17FlatHashMapPolicyISt17basic_string_viewIcSt11char_traitsIcEENSt7__cxx1112basic_stringIcS6_SaIcEEEEENS1_10StringHashENS1_8StringEqESaISt4pairIKS7_SB_EEEixIA17_cSC_EEDTclsrT0_5valueclL_ZSt9addressofISH_EPT_RSO_EclL_ZSt7declvalIRSH_EDTcl9__declvalISO_ELi0EEEvEEEEERKSO_(ptr noundef nonnull align 8 dereferenceable(32) %34, ptr noundef nonnull align 1 dereferenceable(17) @.str.62)
          to label %invoke.cont58 unwind label %lpad57

invoke.cont58:                                    ; preds = %invoke.cont56
  %call60 = call noundef nonnull align 8 dereferenceable(32) ptr @_ZNSt7__cxx1112basic_stringIcSt11char_traitsIcESaIcEEaSEOS4_(ptr noundef nonnull align 8 dereferenceable(32) %call59, ptr noundef nonnull align 8 dereferenceable(32) %ref.tmp47) #3
  call void @_ZNSt7__cxx1112basic_stringIcSt11char_traitsIcESaIcEED1Ev(ptr noundef nonnull align 8 dereferenceable(32) %ref.tmp47) #3
  call void @_ZNSaIcED1Ev(ptr noundef nonnull align 1 dereferenceable(1) %ref.tmp54) #3
  call void @_ZN6google8protobuf8compiler4java7OptionsD2Ev(ptr noundef nonnull align 8 dereferenceable(73) %agg.tmp49) #3
  %35 = load ptr, ptr %descriptor.addr, align 8
  %call66 = call noundef i32 @_ZN6google8protobuf8internal10WireFormat7MakeTagEPKNS0_15FieldDescriptorE(ptr noundef %35)
  call void @_ZN4absl12lts_202308028AlphaNumC2Ei(ptr noundef nonnull align 8 dereferenceable(48) %ref.tmp65, i32 noundef %call66)
  call void @_ZN4absl12lts_202308026StrCatB5cxx11ERKNS0_8AlphaNumE(ptr sret(%"class.std::__cxx11::basic_string") align 8 %ref.tmp64, ptr noundef nonnull align 8 dereferenceable(48) %ref.tmp65)
  %36 = load ptr, ptr %variables.addr, align 8
  %call69 = invoke noundef nonnull align 8 dereferenceable(32) ptr @_ZN4absl12lts_2023080218container_internal12raw_hash_mapINS1_17FlatHashMapPolicyISt17basic_string_viewIcSt11char_traitsIcEENSt7__cxx1112basic_stringIcS6_SaIcEEEEENS1_10StringHashENS1_8StringEqESaISt4pairIKS7_SB_EEEixIA4_cSC_EEDTclsrT0_5valueclL_ZSt9addressofISH_EPT_RSO_EclL_ZSt7declvalIRSH_EDTcl9__declvalISO_ELi0EEEvEEEEERKSO_(ptr noundef nonnull align 8 dereferenceable(32) %36, ptr noundef nonnull align 1 dereferenceable(4) @.str.63)
          to label %invoke.cont68 unwind label %lpad67

invoke.cont68:                                    ; preds = %invoke.cont58
  %call70 = call noundef nonnull align 8 dereferenceable(32) ptr @_ZNSt7__cxx1112basic_stringIcSt11char_traitsIcESaIcEEaSEOS4_(ptr noundef nonnull align 8 dereferenceable(32) %call69, ptr noundef nonnull align 8 dereferenceable(32) %ref.tmp64) #3
  call void @_ZNSt7__cxx1112basic_stringIcSt11char_traitsIcESaIcEED1Ev(ptr noundef nonnull align 8 dereferenceable(32) %ref.tmp64) #3
  %37 = load ptr, ptr %descriptor.addr, align 8
  %call74 = call noundef i32 @_ZNK6google8protobuf15FieldDescriptor6numberEv(ptr noundef nonnull align 8 dereferenceable(88) %37)
  %38 = load ptr, ptr %descriptor.addr, align 8
  %call75 = call noundef i32 @_ZN6google8protobuf8compiler4java7GetTypeEPKNS0_15FieldDescriptorE(ptr noundef %38)
  %call76 = call noundef i64 @_ZN6google8protobuf8internal10WireFormat7TagSizeEiNS1_19FieldDescriptorLite4TypeE(i32 noundef %call74, i32 noundef %call75)
  call void @_ZN4absl12lts_202308028AlphaNumC2Em(ptr noundef nonnull align 8 dereferenceable(48) %ref.tmp73, i64 noundef %call76)
  call void @_ZN4absl12lts_202308026StrCatB5cxx11ERKNS0_8AlphaNumE(ptr sret(%"class.std::__cxx11::basic_string") align 8 %ref.tmp72, ptr noundef nonnull align 8 dereferenceable(48) %ref.tmp73)
  %39 = load ptr, ptr %variables.addr, align 8
  %call79 = invoke noundef nonnull align 8 dereferenceable(32) ptr @_ZN4absl12lts_2023080218container_internal12raw_hash_mapINS1_17FlatHashMapPolicyISt17basic_string_viewIcSt11char_traitsIcEENSt7__cxx1112basic_stringIcS6_SaIcEEEEENS1_10StringHashENS1_8StringEqESaISt4pairIKS7_SB_EEEixIA9_cSC_EEDTclsrT0_5valueclL_ZSt9addressofISH_EPT_RSO_EclL_ZSt7declvalIRSH_EDTcl9__declvalISO_ELi0EEEvEEEEERKSO_(ptr noundef nonnull align 8 dereferenceable(32) %39, ptr noundef nonnull align 1 dereferenceable(9) @.str.64)
          to label %invoke.cont78 unwind label %lpad77

invoke.cont78:                                    ; preds = %invoke.cont68
  %call80 = call noundef nonnull align 8 dereferenceable(32) ptr @_ZNSt7__cxx1112basic_stringIcSt11char_traitsIcESaIcEEaSEOS4_(ptr noundef nonnull align 8 dereferenceable(32) %call79, ptr noundef nonnull align 8 dereferenceable(32) %ref.tmp72) #3
  call void @_ZNSt7__cxx1112basic_stringIcSt11char_traitsIcESaIcEED1Ev(ptr noundef nonnull align 8 dereferenceable(32) %ref.tmp72) #3
  %40 = load ptr, ptr %descriptor.addr, align 8
  %call82 = call noundef zeroext i1 @_ZNK6google8protobuf15FieldDescriptor11is_requiredEv(ptr noundef nonnull align 8 dereferenceable(88) %40)
  %cond = select i1 %call82, ptr @.str.65, ptr @.str.66
  %41 = load ptr, ptr %variables.addr, align 8
  %call83 = call noundef nonnull align 8 dereferenceable(32) ptr @_ZN4absl12lts_2023080218container_internal12raw_hash_mapINS1_17FlatHashMapPolicyISt17basic_string_viewIcSt11char_traitsIcEENSt7__cxx1112basic_stringIcS6_SaIcEEEEENS1_10StringHashENS1_8StringEqESaISt4pairIKS7_SB_EEEixIA9_cSC_EEDTclsrT0_5valueclL_ZSt9addressofISH_EPT_RSO_EclL_ZSt7declvalIRSH_EDTcl9__declvalISO_ELi0EEEvEEEEERKSO_(ptr noundef nonnull align 8 dereferenceable(32) %41, ptr noundef nonnull align 1 dereferenceable(9) @.str.67)
  %call84 = call noundef nonnull align 8 dereferenceable(32) ptr @_ZNSt7__cxx1112basic_stringIcSt11char_traitsIcESaIcEEaSEPKc(ptr noundef nonnull align 8 dereferenceable(32) %call83, ptr noundef %cond)
  %42 = load i32, ptr %javaType, align 4
  %call86 = call { i64, ptr } @_ZN6google8protobuf8compiler4java17PrimitiveTypeNameENS2_8JavaTypeE(i32 noundef %42)
  %43 = getelementptr inbounds { i64, ptr }, ptr %agg.tmp85, i32 0, i32 0
  %44 = extractvalue { i64, ptr } %call86, 0
  store i64 %44, ptr %43, align 8
  %45 = getelementptr inbounds { i64, ptr }, ptr %agg.tmp85, i32 0, i32 1
  %46 = extractvalue { i64, ptr } %call86, 1
  store ptr %46, ptr %45, align 8
  %47 = getelementptr inbounds { i64, ptr }, ptr %agg.tmp85, i32 0, i32 0
  %48 = load i64, ptr %47, align 8
  %49 = getelementptr inbounds { i64, ptr }, ptr %agg.tmp85, i32 0, i32 1
  %50 = load ptr, ptr %49, align 8
  call void @_ZN6google8protobuf8compiler4java22UnderscoresToCamelCaseB5cxx11ESt17basic_string_viewIcSt11char_traitsIcEEb(ptr sret(%"class.std::__cxx11::basic_string") align 8 %capitalized_type, i64 %48, ptr %50, i1 noundef zeroext true)
  %51 = load ptr, ptr %variables.addr, align 8
  %call89 = invoke noundef nonnull align 8 dereferenceable(32) ptr @_ZN4absl12lts_2023080218container_internal12raw_hash_mapINS1_17FlatHashMapPolicyISt17basic_string_viewIcSt11char_traitsIcEENSt7__cxx1112basic_stringIcS6_SaIcEEEEENS1_10StringHashENS1_8StringEqESaISt4pairIKS7_SB_EEEixIA5_cSC_EEDTclsrT0_5valueclL_ZSt9addressofISH_EPT_RSO_EclL_ZSt7declvalIRSH_EDTcl9__declvalISO_ELi0EEEvEEEEERKSO_(ptr noundef nonnull align 8 dereferenceable(32) %51, ptr noundef nonnull align 1 dereferenceable(5) @.str.68)
          to label %invoke.cont88 unwind label %lpad87

invoke.cont88:                                    ; preds = %invoke.cont78
  invoke void @_ZNSt7__cxx1112basic_stringIcSt11char_traitsIcESaIcEEC1ERKS4_(ptr noundef nonnull align 8 dereferenceable(32) %name, ptr noundef nonnull align 8 dereferenceable(32) %call89)
          to label %invoke.cont90 unwind label %lpad87

invoke.cont90:                                    ; preds = %invoke.cont88
  %52 = load i32, ptr %javaType, align 4
  switch i32 %52, label %sw.default [
    i32 0, label %sw.bb
    i32 1, label %sw.bb
    i32 2, label %sw.bb
    i32 3, label %sw.bb
    i32 4, label %sw.bb
  ]

lpad:                                             ; preds = %entry
  %53 = landingpad { ptr, i32 }
          cleanup
  %54 = extractvalue { ptr, i32 } %53, 0
  store ptr %54, ptr %exn.slot, align 8
  %55 = extractvalue { ptr, i32 } %53, 1
  store i32 %55, ptr %ehselector.slot, align 4
  br label %ehcleanup

lpad4:                                            ; preds = %invoke.cont
  %56 = landingpad { ptr, i32 }
          cleanup
  %57 = extractvalue { ptr, i32 } %56, 0
  store ptr %57, ptr %exn.slot, align 8
  %58 = extractvalue { ptr, i32 } %56, 1
  store i32 %58, ptr %ehselector.slot, align 4
  call void @_ZNSt7__cxx1112basic_stringIcSt11char_traitsIcESaIcEED1Ev(ptr noundef nonnull align 8 dereferenceable(32) %ref.tmp) #3
  br label %ehcleanup

ehcleanup:                                        ; preds = %lpad4, %lpad
  call void @_ZNSaIcED1Ev(ptr noundef nonnull align 1 dereferenceable(1) %ref.tmp3) #3
  br label %eh.resume

lpad12:                                           ; preds = %invoke.cont5
  %59 = landingpad { ptr, i32 }
          cleanup
  %60 = extractvalue { ptr, i32 } %59, 0
  store ptr %60, ptr %exn.slot, align 8
  %61 = extractvalue { ptr, i32 } %59, 1
  store i32 %61, ptr %ehselector.slot, align 4
  br label %ehcleanup19

lpad14:                                           ; preds = %invoke.cont13
  %62 = landingpad { ptr, i32 }
          cleanup
  %63 = extractvalue { ptr, i32 } %62, 0
  store ptr %63, ptr %exn.slot, align 8
  %64 = extractvalue { ptr, i32 } %62, 1
  store i32 %64, ptr %ehselector.slot, align 4
  call void @_ZNSt7__cxx1112basic_stringIcSt11char_traitsIcESaIcEED1Ev(ptr noundef nonnull align 8 dereferenceable(32) %ref.tmp8) #3
  br label %ehcleanup19

ehcleanup19:                                      ; preds = %lpad14, %lpad12
  call void @_ZNSaIcED1Ev(ptr noundef nonnull align 1 dereferenceable(1) %ref.tmp11) #3
  br label %eh.resume

lpad24:                                           ; preds = %invoke.cont15
  %65 = landingpad { ptr, i32 }
          cleanup
  %66 = extractvalue { ptr, i32 } %65, 0
  store ptr %66, ptr %exn.slot, align 8
  %67 = extractvalue { ptr, i32 } %65, 1
  store i32 %67, ptr %ehselector.slot, align 4
  br label %ehcleanup31

lpad26:                                           ; preds = %invoke.cont25
  %68 = landingpad { ptr, i32 }
          cleanup
  %69 = extractvalue { ptr, i32 } %68, 0
  store ptr %69, ptr %exn.slot, align 8
  %70 = extractvalue { ptr, i32 } %68, 1
  store i32 %70, ptr %ehselector.slot, align 4
  call void @_ZNSt7__cxx1112basic_stringIcSt11char_traitsIcESaIcEED1Ev(ptr noundef nonnull align 8 dereferenceable(32) %ref.tmp20) #3
  br label %ehcleanup31

ehcleanup31:                                      ; preds = %lpad26, %lpad24
  call void @_ZNSaIcED1Ev(ptr noundef nonnull align 1 dereferenceable(1) %ref.tmp23) #3
  br label %eh.resume

lpad34:                                           ; preds = %invoke.cont27
  %71 = landingpad { ptr, i32 }
          cleanup
  %72 = extractvalue { ptr, i32 } %71, 0
  store ptr %72, ptr %exn.slot, align 8
  %73 = extractvalue { ptr, i32 } %71, 1
  store i32 %73, ptr %ehselector.slot, align 4
  call void @_ZNSt4pairISt17basic_string_viewIcSt11char_traitsIcEENSt7__cxx1112basic_stringIcS2_SaIcEEEED2Ev(ptr noundef nonnull align 8 dereferenceable(48) %ref.tmp32) #3
  br label %eh.resume

lpad39:                                           ; preds = %invoke.cont35
  %74 = landingpad { ptr, i32 }
          cleanup
  %75 = extractvalue { ptr, i32 } %74, 0
  store ptr %75, ptr %exn.slot, align 8
  %76 = extractvalue { ptr, i32 } %74, 1
  store i32 %76, ptr %ehselector.slot, align 4
  br label %ehcleanup46

lpad41:                                           ; preds = %invoke.cont40
  %77 = landingpad { ptr, i32 }
          cleanup
  %78 = extractvalue { ptr, i32 } %77, 0
  store ptr %78, ptr %exn.slot, align 8
  %79 = extractvalue { ptr, i32 } %77, 1
  store i32 %79, ptr %ehselector.slot, align 4
  call void @_ZNSt7__cxx1112basic_stringIcSt11char_traitsIcESaIcEED1Ev(ptr noundef nonnull align 8 dereferenceable(32) %ref.tmp37) #3
  br label %ehcleanup46

ehcleanup46:                                      ; preds = %lpad41, %lpad39
  call void @_ZN6google8protobuf8compiler4java7OptionsD2Ev(ptr noundef nonnull align 8 dereferenceable(73) %agg.tmp) #3
  br label %eh.resume

lpad51:                                           ; preds = %invoke.cont42
  %80 = landingpad { ptr, i32 }
          cleanup
  %81 = extractvalue { ptr, i32 } %80, 0
  store ptr %81, ptr %exn.slot, align 8
  %82 = extractvalue { ptr, i32 } %80, 1
  store i32 %82, ptr %ehselector.slot, align 4
  br label %ehcleanup63

lpad55:                                           ; preds = %invoke.cont52
  %83 = landingpad { ptr, i32 }
          cleanup
  %84 = extractvalue { ptr, i32 } %83, 0
  store ptr %84, ptr %exn.slot, align 8
  %85 = extractvalue { ptr, i32 } %83, 1
  store i32 %85, ptr %ehselector.slot, align 4
  br label %ehcleanup62

lpad57:                                           ; preds = %invoke.cont56
  %86 = landingpad { ptr, i32 }
          cleanup
  %87 = extractvalue { ptr, i32 } %86, 0
  store ptr %87, ptr %exn.slot, align 8
  %88 = extractvalue { ptr, i32 } %86, 1
  store i32 %88, ptr %ehselector.slot, align 4
  call void @_ZNSt7__cxx1112basic_stringIcSt11char_traitsIcESaIcEED1Ev(ptr noundef nonnull align 8 dereferenceable(32) %ref.tmp47) #3
  br label %ehcleanup62

ehcleanup62:                                      ; preds = %lpad57, %lpad55
  call void @_ZNSaIcED1Ev(ptr noundef nonnull align 1 dereferenceable(1) %ref.tmp54) #3
  br label %ehcleanup63

ehcleanup63:                                      ; preds = %ehcleanup62, %lpad51
  call void @_ZN6google8protobuf8compiler4java7OptionsD2Ev(ptr noundef nonnull align 8 dereferenceable(73) %agg.tmp49) #3
  br label %eh.resume

lpad67:                                           ; preds = %invoke.cont58
  %89 = landingpad { ptr, i32 }
          cleanup
  %90 = extractvalue { ptr, i32 } %89, 0
  store ptr %90, ptr %exn.slot, align 8
  %91 = extractvalue { ptr, i32 } %89, 1
  store i32 %91, ptr %ehselector.slot, align 4
  call void @_ZNSt7__cxx1112basic_stringIcSt11char_traitsIcESaIcEED1Ev(ptr noundef nonnull align 8 dereferenceable(32) %ref.tmp64) #3
  br label %eh.resume

lpad77:                                           ; preds = %invoke.cont68
  %92 = landingpad { ptr, i32 }
          cleanup
  %93 = extractvalue { ptr, i32 } %92, 0
  store ptr %93, ptr %exn.slot, align 8
  %94 = extractvalue { ptr, i32 } %92, 1
  store i32 %94, ptr %ehselector.slot, align 4
  call void @_ZNSt7__cxx1112basic_stringIcSt11char_traitsIcESaIcEED1Ev(ptr noundef nonnull align 8 dereferenceable(32) %ref.tmp72) #3
  br label %eh.resume

lpad87:                                           ; preds = %invoke.cont88, %invoke.cont78
  %95 = landingpad { ptr, i32 }
          cleanup
  %96 = extractvalue { ptr, i32 } %95, 0
  store ptr %96, ptr %exn.slot, align 8
  %97 = extractvalue { ptr, i32 } %95, 1
  store i32 %97, ptr %ehselector.slot, align 4
  br label %ehcleanup467

sw.bb:                                            ; preds = %invoke.cont90, %invoke.cont90, %invoke.cont90, %invoke.cont90, %invoke.cont90
  invoke void @_ZN4absl12lts_202308028AlphaNumC2EPKc(ptr noundef nonnull align 8 dereferenceable(48) %ref.tmp92, ptr noundef @.str.69)
          to label %invoke.cont94 unwind label %lpad93

invoke.cont94:                                    ; preds = %sw.bb
  invoke void @_ZN4absl12lts_202308028AlphaNumC2ISaIcEEERKNSt7__cxx1112basic_stringIcSt11char_traitsIcET_EE(ptr noundef nonnull align 8 dereferenceable(48) %ref.tmp95, ptr noundef nonnull align 8 dereferenceable(32) %capitalized_type)
          to label %invoke.cont96 unwind label %lpad93

invoke.cont96:                                    ; preds = %invoke.cont94
  invoke void @_ZN4absl12lts_202308028AlphaNumC2EPKc(ptr noundef nonnull align 8 dereferenceable(48) %ref.tmp97, ptr noundef @.str.70)
          to label %invoke.cont98 unwind label %lpad93

invoke.cont98:                                    ; preds = %invoke.cont96
  invoke void @_ZN4absl12lts_202308026StrCatB5cxx11ERKNS0_8AlphaNumES3_S3_(ptr sret(%"class.std::__cxx11::basic_string") align 8 %ref.tmp91, ptr noundef nonnull align 8 dereferenceable(48) %ref.tmp92, ptr noundef nonnull align 8 dereferenceable(48) %ref.tmp95, ptr noundef nonnull align 8 dereferenceable(48) %ref.tmp97)
          to label %invoke.cont99 unwind label %lpad93

invoke.cont99:                                    ; preds = %invoke.cont98
  %98 = load ptr, ptr %variables.addr, align 8
  %call102 = invoke noundef nonnull align 8 dereferenceable(32) ptr @_ZN4absl12lts_2023080218container_internal12raw_hash_mapINS1_17FlatHashMapPolicyISt17basic_string_viewIcSt11char_traitsIcEENSt7__cxx1112basic_stringIcS6_SaIcEEEEENS1_10StringHashENS1_8StringEqESaISt4pairIKS7_SB_EEEixIA16_cSC_EEDTclsrT0_5valueclL_ZSt9addressofISH_EPT_RSO_EclL_ZSt7declvalIRSH_EDTcl9__declvalISO_ELi0EEEvEEEEERKSO_(ptr noundef nonnull align 8 dereferenceable(32) %98, ptr noundef nonnull align 1 dereferenceable(16) @.str.71)
          to label %invoke.cont101 unwind label %lpad100

invoke.cont101:                                   ; preds = %invoke.cont99
  %call103 = call noundef nonnull align 8 dereferenceable(32) ptr @_ZNSt7__cxx1112basic_stringIcSt11char_traitsIcESaIcEEaSEOS4_(ptr noundef nonnull align 8 dereferenceable(32) %call102, ptr noundef nonnull align 8 dereferenceable(32) %ref.tmp91) #3
  call void @_ZNSt7__cxx1112basic_stringIcSt11char_traitsIcESaIcEED1Ev(ptr noundef nonnull align 8 dereferenceable(32) %ref.tmp91) #3
  invoke void @_ZN4absl12lts_202308028AlphaNumC2EPKc(ptr noundef nonnull align 8 dereferenceable(48) %ref.tmp106, ptr noundef @.str.72)
          to label %invoke.cont107 unwind label %lpad93

invoke.cont107:                                   ; preds = %invoke.cont101
  invoke void @_ZN4absl12lts_202308028AlphaNumC2ISaIcEEERKNSt7__cxx1112basic_stringIcSt11char_traitsIcET_EE(ptr noundef nonnull align 8 dereferenceable(48) %ref.tmp108, ptr noundef nonnull align 8 dereferenceable(32) %capitalized_type)
          to label %invoke.cont109 unwind label %lpad93

invoke.cont109:                                   ; preds = %invoke.cont107
  invoke void @_ZN4absl12lts_202308028AlphaNumC2EPKc(ptr noundef nonnull align 8 dereferenceable(48) %ref.tmp110, ptr noundef @.str.73)
          to label %invoke.cont111 unwind label %lpad93

invoke.cont111:                                   ; preds = %invoke.cont109
  invoke void @_ZN4absl12lts_202308026StrCatB5cxx11ERKNS0_8AlphaNumES3_S3_(ptr sret(%"class.std::__cxx11::basic_string") align 8 %ref.tmp105, ptr noundef nonnull align 8 dereferenceable(48) %ref.tmp106, ptr noundef nonnull align 8 dereferenceable(48) %ref.tmp108, ptr noundef nonnull align 8 dereferenceable(48) %ref.tmp110)
          to label %invoke.cont112 unwind label %lpad93

invoke.cont112:                                   ; preds = %invoke.cont111
  %99 = load ptr, ptr %variables.addr, align 8
  %call115 = invoke noundef nonnull align 8 dereferenceable(32) ptr @_ZN4absl12lts_2023080218container_internal12raw_hash_mapINS1_17FlatHashMapPolicyISt17basic_string_viewIcSt11char_traitsIcEENSt7__cxx1112basic_stringIcS6_SaIcEEEEENS1_10StringHashENS1_8StringEqESaISt4pairIKS7_SB_EEEixIA11_cSC_EEDTclsrT0_5valueclL_ZSt9addressofISH_EPT_RSO_EclL_ZSt7declvalIRSH_EDTcl9__declvalISO_ELi0EEEvEEEEERKSO_(ptr noundef nonnull align 8 dereferenceable(32) %99, ptr noundef nonnull align 1 dereferenceable(11) @.str.74)
          to label %invoke.cont114 unwind label %lpad113

invoke.cont114:                                   ; preds = %invoke.cont112
  %call116 = call noundef nonnull align 8 dereferenceable(32) ptr @_ZNSt7__cxx1112basic_stringIcSt11char_traitsIcESaIcEEaSEOS4_(ptr noundef nonnull align 8 dereferenceable(32) %call115, ptr noundef nonnull align 8 dereferenceable(32) %ref.tmp105) #3
  call void @_ZNSt7__cxx1112basic_stringIcSt11char_traitsIcESaIcEED1Ev(ptr noundef nonnull align 8 dereferenceable(32) %ref.tmp105) #3
  invoke void @_ZN4absl12lts_202308028AlphaNumC2ISaIcEEERKNSt7__cxx1112basic_stringIcSt11char_traitsIcET_EE(ptr noundef nonnull align 8 dereferenceable(48) %ref.tmp119, ptr noundef nonnull align 8 dereferenceable(32) %name)
          to label %invoke.cont120 unwind label %lpad93

invoke.cont120:                                   ; preds = %invoke.cont114
  invoke void @_ZN4absl12lts_202308028AlphaNumC2EPKc(ptr noundef nonnull align 8 dereferenceable(48) %ref.tmp121, ptr noundef @.str.75)
          to label %invoke.cont122 unwind label %lpad93

invoke.cont122:                                   ; preds = %invoke.cont120
  invoke void @_ZN4absl12lts_202308026StrCatB5cxx11ERKNS0_8AlphaNumES3_(ptr sret(%"class.std::__cxx11::basic_string") align 8 %ref.tmp118, ptr noundef nonnull align 8 dereferenceable(48) %ref.tmp119, ptr noundef nonnull align 8 dereferenceable(48) %ref.tmp121)
          to label %invoke.cont123 unwind label %lpad93

invoke.cont123:                                   ; preds = %invoke.cont122
  %100 = load ptr, ptr %variables.addr, align 8
  %call126 = invoke noundef nonnull align 8 dereferenceable(32) ptr @_ZN4absl12lts_2023080218container_internal12raw_hash_mapINS1_17FlatHashMapPolicyISt17basic_string_viewIcSt11char_traitsIcEENSt7__cxx1112basic_stringIcS6_SaIcEEEEENS1_10StringHashENS1_8StringEqESaISt4pairIKS7_SB_EEEixIA23_cSC_EEDTclsrT0_5valueclL_ZSt9addressofISH_EPT_RSO_EclL_ZSt7declvalIRSH_EDTcl9__declvalISO_ELi0EEEvEEEEERKSO_(ptr noundef nonnull align 8 dereferenceable(32) %100, ptr noundef nonnull align 1 dereferenceable(23) @.str.76)
          to label %invoke.cont125 unwind label %lpad124

invoke.cont125:                                   ; preds = %invoke.cont123
  %call127 = call noundef nonnull align 8 dereferenceable(32) ptr @_ZNSt7__cxx1112basic_stringIcSt11char_traitsIcESaIcEEaSEOS4_(ptr noundef nonnull align 8 dereferenceable(32) %call126, ptr noundef nonnull align 8 dereferenceable(32) %ref.tmp118) #3
  call void @_ZNSt7__cxx1112basic_stringIcSt11char_traitsIcESaIcEED1Ev(ptr noundef nonnull align 8 dereferenceable(32) %ref.tmp118) #3
  invoke void @_ZN4absl12lts_202308028AlphaNumC2ISaIcEEERKNSt7__cxx1112basic_stringIcSt11char_traitsIcET_EE(ptr noundef nonnull align 8 dereferenceable(48) %ref.tmp130, ptr noundef nonnull align 8 dereferenceable(32) %name)
          to label %invoke.cont131 unwind label %lpad93

invoke.cont131:                                   ; preds = %invoke.cont125
  invoke void @_ZN4absl12lts_202308028AlphaNumC2EPKc(ptr noundef nonnull align 8 dereferenceable(48) %ref.tmp132, ptr noundef @.str.77)
          to label %invoke.cont133 unwind label %lpad93

invoke.cont133:                                   ; preds = %invoke.cont131
  invoke void @_ZN4absl12lts_202308028AlphaNumC2ISaIcEEERKNSt7__cxx1112basic_stringIcSt11char_traitsIcET_EE(ptr noundef nonnull align 8 dereferenceable(48) %ref.tmp134, ptr noundef nonnull align 8 dereferenceable(32) %capitalized_type)
          to label %invoke.cont135 unwind label %lpad93

invoke.cont135:                                   ; preds = %invoke.cont133
  invoke void @_ZN4absl12lts_202308026StrCatB5cxx11ERKNS0_8AlphaNumES3_S3_(ptr sret(%"class.std::__cxx11::basic_string") align 8 %ref.tmp129, ptr noundef nonnull align 8 dereferenceable(48) %ref.tmp130, ptr noundef nonnull align 8 dereferenceable(48) %ref.tmp132, ptr noundef nonnull align 8 dereferenceable(48) %ref.tmp134)
          to label %invoke.cont136 unwind label %lpad93

invoke.cont136:                                   ; preds = %invoke.cont135
  %101 = load ptr, ptr %variables.addr, align 8
  %call139 = invoke noundef nonnull align 8 dereferenceable(32) ptr @_ZN4absl12lts_2023080218container_internal12raw_hash_mapINS1_17FlatHashMapPolicyISt17basic_string_viewIcSt11char_traitsIcEENSt7__cxx1112basic_stringIcS6_SaIcEEEEENS1_10StringHashENS1_8StringEqESaISt4pairIKS7_SB_EEEixIA13_cSC_EEDTclsrT0_5valueclL_ZSt9addressofISH_EPT_RSO_EclL_ZSt7declvalIRSH_EDTcl9__declvalISO_ELi0EEEvEEEEERKSO_(ptr noundef nonnull align 8 dereferenceable(32) %101, ptr noundef nonnull align 1 dereferenceable(13) @.str.78)
          to label %invoke.cont138 unwind label %lpad137

invoke.cont138:                                   ; preds = %invoke.cont136
  %call140 = call noundef nonnull align 8 dereferenceable(32) ptr @_ZNSt7__cxx1112basic_stringIcSt11char_traitsIcESaIcEEaSEOS4_(ptr noundef nonnull align 8 dereferenceable(32) %call139, ptr noundef nonnull align 8 dereferenceable(32) %ref.tmp129) #3
  call void @_ZNSt7__cxx1112basic_stringIcSt11char_traitsIcESaIcEED1Ev(ptr noundef nonnull align 8 dereferenceable(32) %ref.tmp129) #3
  invoke void @_ZN4absl12lts_202308028AlphaNumC2ISaIcEEERKNSt7__cxx1112basic_stringIcSt11char_traitsIcET_EE(ptr noundef nonnull align 8 dereferenceable(48) %ref.tmp143, ptr noundef nonnull align 8 dereferenceable(32) %name)
          to label %invoke.cont144 unwind label %lpad93

invoke.cont144:                                   ; preds = %invoke.cont138
  invoke void @_ZN4absl12lts_202308028AlphaNumC2EPKc(ptr noundef nonnull align 8 dereferenceable(48) %ref.tmp145, ptr noundef @.str.79)
          to label %invoke.cont146 unwind label %lpad93

invoke.cont146:                                   ; preds = %invoke.cont144
  invoke void @_ZN4absl12lts_202308028AlphaNumC2ISaIcEEERKNSt7__cxx1112basic_stringIcSt11char_traitsIcET_EE(ptr noundef nonnull align 8 dereferenceable(48) %ref.tmp147, ptr noundef nonnull align 8 dereferenceable(32) %capitalized_type)
          to label %invoke.cont148 unwind label %lpad93

invoke.cont148:                                   ; preds = %invoke.cont146
  invoke void @_ZN4absl12lts_202308026StrCatB5cxx11ERKNS0_8AlphaNumES3_S3_(ptr sret(%"class.std::__cxx11::basic_string") align 8 %ref.tmp142, ptr noundef nonnull align 8 dereferenceable(48) %ref.tmp143, ptr noundef nonnull align 8 dereferenceable(48) %ref.tmp145, ptr noundef nonnull align 8 dereferenceable(48) %ref.tmp147)
          to label %invoke.cont149 unwind label %lpad93

invoke.cont149:                                   ; preds = %invoke.cont148
  %102 = load ptr, ptr %variables.addr, align 8
  %call152 = invoke noundef nonnull align 8 dereferenceable(32) ptr @_ZN4absl12lts_2023080218container_internal12raw_hash_mapINS1_17FlatHashMapPolicyISt17basic_string_viewIcSt11char_traitsIcEENSt7__cxx1112basic_stringIcS6_SaIcEEEEENS1_10StringHashENS1_8StringEqESaISt4pairIKS7_SB_EEEixIA13_cSC_EEDTclsrT0_5valueclL_ZSt9addressofISH_EPT_RSO_EclL_ZSt7declvalIRSH_EDTcl9__declvalISO_ELi0EEEvEEEEERKSO_(ptr noundef nonnull align 8 dereferenceable(32) %102, ptr noundef nonnull align 1 dereferenceable(13) @.str.80)
          to label %invoke.cont151 unwind label %lpad150

invoke.cont151:                                   ; preds = %invoke.cont149
  %call153 = call noundef nonnull align 8 dereferenceable(32) ptr @_ZNSt7__cxx1112basic_stringIcSt11char_traitsIcESaIcEEaSEOS4_(ptr noundef nonnull align 8 dereferenceable(32) %call152, ptr noundef nonnull align 8 dereferenceable(32) %ref.tmp142) #3
  call void @_ZNSt7__cxx1112basic_stringIcSt11char_traitsIcESaIcEED1Ev(ptr noundef nonnull align 8 dereferenceable(32) %ref.tmp142) #3
  invoke void @_ZN4absl12lts_202308028AlphaNumC2ISaIcEEERKNSt7__cxx1112basic_stringIcSt11char_traitsIcET_EE(ptr noundef nonnull align 8 dereferenceable(48) %ref.tmp156, ptr noundef nonnull align 8 dereferenceable(32) %name)
          to label %invoke.cont157 unwind label %lpad93

invoke.cont157:                                   ; preds = %invoke.cont151
  invoke void @_ZN4absl12lts_202308028AlphaNumC2EPKc(ptr noundef nonnull align 8 dereferenceable(48) %ref.tmp158, ptr noundef @.str.81)
          to label %invoke.cont159 unwind label %lpad93

invoke.cont159:                                   ; preds = %invoke.cont157
  invoke void @_ZN4absl12lts_202308028AlphaNumC2ISaIcEEERKNSt7__cxx1112basic_stringIcSt11char_traitsIcET_EE(ptr noundef nonnull align 8 dereferenceable(48) %ref.tmp160, ptr noundef nonnull align 8 dereferenceable(32) %capitalized_type)
          to label %invoke.cont161 unwind label %lpad93

invoke.cont161:                                   ; preds = %invoke.cont159
  invoke void @_ZN4absl12lts_202308026StrCatB5cxx11ERKNS0_8AlphaNumES3_S3_(ptr sret(%"class.std::__cxx11::basic_string") align 8 %ref.tmp155, ptr noundef nonnull align 8 dereferenceable(48) %ref.tmp156, ptr noundef nonnull align 8 dereferenceable(48) %ref.tmp158, ptr noundef nonnull align 8 dereferenceable(48) %ref.tmp160)
          to label %invoke.cont162 unwind label %lpad93

invoke.cont162:                                   ; preds = %invoke.cont161
  %103 = load ptr, ptr %variables.addr, align 8
  %call165 = invoke noundef nonnull align 8 dereferenceable(32) ptr @_ZN4absl12lts_2023080218container_internal12raw_hash_mapINS1_17FlatHashMapPolicyISt17basic_string_viewIcSt11char_traitsIcEENSt7__cxx1112basic_stringIcS6_SaIcEEEEENS1_10StringHashENS1_8StringEqESaISt4pairIKS7_SB_EEEixIA13_cSC_EEDTclsrT0_5valueclL_ZSt9addressofISH_EPT_RSO_EclL_ZSt7declvalIRSH_EDTcl9__declvalISO_ELi0EEEvEEEEERKSO_(ptr noundef nonnull align 8 dereferenceable(32) %103, ptr noundef nonnull align 1 dereferenceable(13) @.str.82)
          to label %invoke.cont164 unwind label %lpad163

invoke.cont164:                                   ; preds = %invoke.cont162
  %call166 = call noundef nonnull align 8 dereferenceable(32) ptr @_ZNSt7__cxx1112basic_stringIcSt11char_traitsIcESaIcEEaSEOS4_(ptr noundef nonnull align 8 dereferenceable(32) %call165, ptr noundef nonnull align 8 dereferenceable(32) %ref.tmp155) #3
  call void @_ZNSt7__cxx1112basic_stringIcSt11char_traitsIcESaIcEED1Ev(ptr noundef nonnull align 8 dereferenceable(32) %ref.tmp155) #3
  %104 = load ptr, ptr %variables.addr, align 8
  %call169 = invoke noundef nonnull align 8 dereferenceable(32) ptr @_ZN4absl12lts_2023080218container_internal12raw_hash_mapINS1_17FlatHashMapPolicyISt17basic_string_viewIcSt11char_traitsIcEENSt7__cxx1112basic_stringIcS6_SaIcEEEEENS1_10StringHashENS1_8StringEqESaISt4pairIKS7_SB_EEEixIA11_cSC_EEDTclsrT0_5valueclL_ZSt9addressofISH_EPT_RSO_EclL_ZSt7declvalIRSH_EDTcl9__declvalISO_ELi0EEEvEEEEERKSO_(ptr noundef nonnull align 8 dereferenceable(32) %104, ptr noundef nonnull align 1 dereferenceable(11) @.str.83)
          to label %invoke.cont168 unwind label %lpad93

invoke.cont168:                                   ; preds = %invoke.cont164
  %call171 = invoke noundef nonnull align 8 dereferenceable(32) ptr @_ZNSt7__cxx1112basic_stringIcSt11char_traitsIcESaIcEEaSERKS4_(ptr noundef nonnull align 8 dereferenceable(32) %call169, ptr noundef nonnull align 8 dereferenceable(32) %capitalized_type)
          to label %invoke.cont170 unwind label %lpad93

invoke.cont170:                                   ; preds = %invoke.cont168
  invoke void @_ZN4absl12lts_202308028AlphaNumC2EPKc(ptr noundef nonnull align 8 dereferenceable(48) %ref.tmp173, ptr noundef @.str.84)
          to label %invoke.cont174 unwind label %lpad93

invoke.cont174:                                   ; preds = %invoke.cont170
  invoke void @_ZN4absl12lts_202308028AlphaNumC2ISaIcEEERKNSt7__cxx1112basic_stringIcSt11char_traitsIcET_EE(ptr noundef nonnull align 8 dereferenceable(48) %ref.tmp175, ptr noundef nonnull align 8 dereferenceable(32) %capitalized_type)
          to label %invoke.cont176 unwind label %lpad93

invoke.cont176:                                   ; preds = %invoke.cont174
  invoke void @_ZN4absl12lts_202308028AlphaNumC2EPKc(ptr noundef nonnull align 8 dereferenceable(48) %ref.tmp177, ptr noundef @.str.70)
          to label %invoke.cont178 unwind label %lpad93

invoke.cont178:                                   ; preds = %invoke.cont176
  invoke void @_ZN4absl12lts_202308026StrCatB5cxx11ERKNS0_8AlphaNumES3_S3_(ptr sret(%"class.std::__cxx11::basic_string") align 8 %ref.tmp172, ptr noundef nonnull align 8 dereferenceable(48) %ref.tmp173, ptr noundef nonnull align 8 dereferenceable(48) %ref.tmp175, ptr noundef nonnull align 8 dereferenceable(48) %ref.tmp177)
          to label %invoke.cont179 unwind label %lpad93

invoke.cont179:                                   ; preds = %invoke.cont178
  %105 = load ptr, ptr %variables.addr, align 8
  %call182 = invoke noundef nonnull align 8 dereferenceable(32) ptr @_ZN4absl12lts_2023080218container_internal12raw_hash_mapINS1_17FlatHashMapPolicyISt17basic_string_viewIcSt11char_traitsIcEENSt7__cxx1112basic_stringIcS6_SaIcEEEEENS1_10StringHashENS1_8StringEqESaISt4pairIKS7_SB_EEEixIA16_cSC_EEDTclsrT0_5valueclL_ZSt9addressofISH_EPT_RSO_EclL_ZSt7declvalIRSH_EDTcl9__declvalISO_ELi0EEEvEEEEERKSO_(ptr noundef nonnull align 8 dereferenceable(32) %105, ptr noundef nonnull align 1 dereferenceable(16) @.str.85)
          to label %invoke.cont181 unwind label %lpad180

invoke.cont181:                                   ; preds = %invoke.cont179
  %call183 = call noundef nonnull align 8 dereferenceable(32) ptr @_ZNSt7__cxx1112basic_stringIcSt11char_traitsIcESaIcEEaSEOS4_(ptr noundef nonnull align 8 dereferenceable(32) %call182, ptr noundef nonnull align 8 dereferenceable(32) %ref.tmp172) #3
  call void @_ZNSt7__cxx1112basic_stringIcSt11char_traitsIcESaIcEED1Ev(ptr noundef nonnull align 8 dereferenceable(32) %ref.tmp172) #3
  br label %sw.epilog

lpad93:                                           ; preds = %invoke.cont462, %invoke.cont460, %invoke.cont458, %if.end457, %invoke.cont447, %invoke.cont445, %invoke.cont443, %invoke.cont441, %sw.default437, %invoke.cont430, %invoke.cont428, %invoke.cont426, %sw.bb423, %invoke.cont416, %invoke.cont414, %invoke.cont412, %sw.bb409, %invoke.cont402, %invoke.cont400, %invoke.cont398, %sw.bb395, %invoke.cont391, %invoke.cont389, %invoke.cont387, %invoke.cont385, %if.else384, %invoke.cont372, %invoke.cont357, %invoke.cont343, %if.then339, %if.end336, %invoke.cont329, %if.then326, %invoke.cont321, %cleanup.done, %invoke.cont307, %invoke.cont305, %invoke.cont303, %cond.true, %invoke.cont298, %invoke.cont295, %invoke.cont293, %invoke.cont290, %invoke.cont288, %if.end287, %invoke.cont283, %if.else, %invoke.cont279, %if.then278, %if.end, %if.then, %invoke.cont255, %invoke.cont253, %invoke.cont251, %invoke.cont247, %invoke.cont244, %invoke.cont242, %invoke.cont236, %invoke.cont233, %invoke.cont231, %invoke.cont225, %invoke.cont222, %invoke.cont220, %invoke.cont214, %invoke.cont211, %invoke.cont209, %invoke.cont205, %invoke.cont203, %invoke.cont200, %invoke.cont194, %invoke.cont192, %invoke.cont190, %invoke.cont188, %sw.default, %invoke.cont178, %invoke.cont176, %invoke.cont174, %invoke.cont170, %invoke.cont168, %invoke.cont164, %invoke.cont161, %invoke.cont159, %invoke.cont157, %invoke.cont151, %invoke.cont148, %invoke.cont146, %invoke.cont144, %invoke.cont138, %invoke.cont135, %invoke.cont133, %invoke.cont131, %invoke.cont125, %invoke.cont122, %invoke.cont120, %invoke.cont114, %invoke.cont111, %invoke.cont109, %invoke.cont107, %invoke.cont101, %invoke.cont98, %invoke.cont96, %invoke.cont94, %sw.bb
  %106 = landingpad { ptr, i32 }
          cleanup
  %107 = extractvalue { ptr, i32 } %106, 0
  store ptr %107, ptr %exn.slot, align 8
  %108 = extractvalue { ptr, i32 } %106, 1
  store i32 %108, ptr %ehselector.slot, align 4
  br label %ehcleanup466

lpad100:                                          ; preds = %invoke.cont99
  %109 = landingpad { ptr, i32 }
          cleanup
  %110 = extractvalue { ptr, i32 } %109, 0
  store ptr %110, ptr %exn.slot, align 8
  %111 = extractvalue { ptr, i32 } %109, 1
  store i32 %111, ptr %ehselector.slot, align 4
  call void @_ZNSt7__cxx1112basic_stringIcSt11char_traitsIcESaIcEED1Ev(ptr noundef nonnull align 8 dereferenceable(32) %ref.tmp91) #3
  br label %ehcleanup466

lpad113:                                          ; preds = %invoke.cont112
  %112 = landingpad { ptr, i32 }
          cleanup
  %113 = extractvalue { ptr, i32 } %112, 0
  store ptr %113, ptr %exn.slot, align 8
  %114 = extractvalue { ptr, i32 } %112, 1
  store i32 %114, ptr %ehselector.slot, align 4
  call void @_ZNSt7__cxx1112basic_stringIcSt11char_traitsIcESaIcEED1Ev(ptr noundef nonnull align 8 dereferenceable(32) %ref.tmp105) #3
  br label %ehcleanup466

lpad124:                                          ; preds = %invoke.cont123
  %115 = landingpad { ptr, i32 }
          cleanup
  %116 = extractvalue { ptr, i32 } %115, 0
  store ptr %116, ptr %exn.slot, align 8
  %117 = extractvalue { ptr, i32 } %115, 1
  store i32 %117, ptr %ehselector.slot, align 4
  call void @_ZNSt7__cxx1112basic_stringIcSt11char_traitsIcESaIcEED1Ev(ptr noundef nonnull align 8 dereferenceable(32) %ref.tmp118) #3
  br label %ehcleanup466

lpad137:                                          ; preds = %invoke.cont136
  %118 = landingpad { ptr, i32 }
          cleanup
  %119 = extractvalue { ptr, i32 } %118, 0
  store ptr %119, ptr %exn.slot, align 8
  %120 = extractvalue { ptr, i32 } %118, 1
  store i32 %120, ptr %ehselector.slot, align 4
  call void @_ZNSt7__cxx1112basic_stringIcSt11char_traitsIcESaIcEED1Ev(ptr noundef nonnull align 8 dereferenceable(32) %ref.tmp129) #3
  br label %ehcleanup466

lpad150:                                          ; preds = %invoke.cont149
  %121 = landingpad { ptr, i32 }
          cleanup
  %122 = extractvalue { ptr, i32 } %121, 0
  store ptr %122, ptr %exn.slot, align 8
  %123 = extractvalue { ptr, i32 } %121, 1
  store i32 %123, ptr %ehselector.slot, align 4
  call void @_ZNSt7__cxx1112basic_stringIcSt11char_traitsIcESaIcEED1Ev(ptr noundef nonnull align 8 dereferenceable(32) %ref.tmp142) #3
  br label %ehcleanup466

lpad163:                                          ; preds = %invoke.cont162
  %124 = landingpad { ptr, i32 }
          cleanup
  %125 = extractvalue { ptr, i32 } %124, 0
  store ptr %125, ptr %exn.slot, align 8
  %126 = extractvalue { ptr, i32 } %124, 1
  store i32 %126, ptr %ehselector.slot, align 4
  call void @_ZNSt7__cxx1112basic_stringIcSt11char_traitsIcESaIcEED1Ev(ptr noundef nonnull align 8 dereferenceable(32) %ref.tmp155) #3
  br label %ehcleanup466

lpad180:                                          ; preds = %invoke.cont179
  %127 = landingpad { ptr, i32 }
          cleanup
  %128 = extractvalue { ptr, i32 } %127, 0
  store ptr %128, ptr %exn.slot, align 8
  %129 = extractvalue { ptr, i32 } %127, 1
  store i32 %129, ptr %ehselector.slot, align 4
  call void @_ZNSt7__cxx1112basic_stringIcSt11char_traitsIcESaIcEED1Ev(ptr noundef nonnull align 8 dereferenceable(32) %ref.tmp172) #3
  br label %ehcleanup466

sw.default:                                       ; preds = %invoke.cont90
  %130 = load ptr, ptr %variables.addr, align 8
  invoke void @_ZN4absl12lts_202308028AlphaNumC2EPKc(ptr noundef nonnull align 8 dereferenceable(48) %ref.tmp187, ptr noundef @.str.86)
          to label %invoke.cont188 unwind label %lpad93

invoke.cont188:                                   ; preds = %sw.default
  %131 = load ptr, ptr %variables.addr, align 8
  %call191 = invoke noundef nonnull align 8 dereferenceable(32) ptr @_ZN4absl12lts_2023080218container_internal12raw_hash_mapINS1_17FlatHashMapPolicyISt17basic_string_viewIcSt11char_traitsIcEENSt7__cxx1112basic_stringIcS6_SaIcEEEEENS1_10StringHashENS1_8StringEqESaISt4pairIKS7_SB_EEEixIA11_cSC_EEDTclsrT0_5valueclL_ZSt9addressofISH_EPT_RSO_EclL_ZSt7declvalIRSH_EDTcl9__declvalISO_ELi0EEEvEEEEERKSO_(ptr noundef nonnull align 8 dereferenceable(32) %131, ptr noundef nonnull align 1 dereferenceable(11) @.str.58)
          to label %invoke.cont190 unwind label %lpad93

invoke.cont190:                                   ; preds = %invoke.cont188
  invoke void @_ZN4absl12lts_202308028AlphaNumC2ISaIcEEERKNSt7__cxx1112basic_stringIcSt11char_traitsIcET_EE(ptr noundef nonnull align 8 dereferenceable(48) %ref.tmp189, ptr noundef nonnull align 8 dereferenceable(32) %call191)
          to label %invoke.cont192 unwind label %lpad93

invoke.cont192:                                   ; preds = %invoke.cont190
  invoke void @_ZN4absl12lts_202308028AlphaNumC2EPKc(ptr noundef nonnull align 8 dereferenceable(48) %ref.tmp193, ptr noundef @.str.87)
          to label %invoke.cont194 unwind label %lpad93

invoke.cont194:                                   ; preds = %invoke.cont192
  invoke void @_ZN4absl12lts_202308026StrCatB5cxx11ERKNS0_8AlphaNumES3_S3_(ptr sret(%"class.std::__cxx11::basic_string") align 8 %ref.tmp186, ptr noundef nonnull align 8 dereferenceable(48) %ref.tmp187, ptr noundef nonnull align 8 dereferenceable(48) %ref.tmp189, ptr noundef nonnull align 8 dereferenceable(48) %ref.tmp193)
          to label %invoke.cont195 unwind label %lpad93

invoke.cont195:                                   ; preds = %invoke.cont194
  invoke void @_ZNSt4pairISt17basic_string_viewIcSt11char_traitsIcEENSt7__cxx1112basic_stringIcS2_SaIcEEEEC2IRA16_KcS7_TnNSt9enable_ifIXaaclsr5_PCCPE22_MoveConstructiblePairIT_T0_EEclsr5_PCCPE30_ImplicitlyMoveConvertiblePairISE_SF_EEEbE4typeELb1EEEOSE_OSF_(ptr noundef nonnull align 8 dereferenceable(48) %ref.tmp185, ptr noundef nonnull align 1 dereferenceable(16) @.str.71, ptr noundef nonnull align 8 dereferenceable(32) %ref.tmp186)
          to label %invoke.cont197 unwind label %lpad196

invoke.cont197:                                   ; preds = %invoke.cont195
  invoke void @_ZN4absl12lts_2023080218container_internal12raw_hash_setINS1_17FlatHashMapPolicyISt17basic_string_viewIcSt11char_traitsIcEENSt7__cxx1112basic_stringIcS6_SaIcEEEEENS1_10StringHashENS1_8StringEqESaISt4pairIKS7_SB_EEE6insertEOSF_IS7_SB_E(ptr sret(%"struct.std::pair") align 8 %tmp198, ptr noundef nonnull align 8 dereferenceable(32) %130, ptr noundef nonnull align 8 dereferenceable(48) %ref.tmp185)
          to label %invoke.cont200 unwind label %lpad199

invoke.cont200:                                   ; preds = %invoke.cont197
  call void @_ZNSt4pairISt17basic_string_viewIcSt11char_traitsIcEENSt7__cxx1112basic_stringIcS2_SaIcEEEED2Ev(ptr noundef nonnull align 8 dereferenceable(48) %ref.tmp185) #3
  call void @_ZNSt7__cxx1112basic_stringIcSt11char_traitsIcESaIcEED1Ev(ptr noundef nonnull align 8 dereferenceable(32) %ref.tmp186) #3
  %132 = load ptr, ptr %variables.addr, align 8
  %call204 = invoke noundef nonnull align 8 dereferenceable(32) ptr @_ZN4absl12lts_2023080218container_internal12raw_hash_mapINS1_17FlatHashMapPolicyISt17basic_string_viewIcSt11char_traitsIcEENSt7__cxx1112basic_stringIcS6_SaIcEEEEENS1_10StringHashENS1_8StringEqESaISt4pairIKS7_SB_EEEixIA11_cSC_EEDTclsrT0_5valueclL_ZSt9addressofISH_EPT_RSO_EclL_ZSt7declvalIRSH_EDTcl9__declvalISO_ELi0EEEvEEEEERKSO_(ptr noundef nonnull align 8 dereferenceable(32) %132, ptr noundef nonnull align 1 dereferenceable(11) @.str.74)
          to label %invoke.cont203 unwind label %lpad93

invoke.cont203:                                   ; preds = %invoke.cont200
  %call206 = invoke noundef nonnull align 8 dereferenceable(32) ptr @_ZNSt7__cxx1112basic_stringIcSt11char_traitsIcESaIcEEaSEPKc(ptr noundef nonnull align 8 dereferenceable(32) %call204, ptr noundef @.str.88)
          to label %invoke.cont205 unwind label %lpad93

invoke.cont205:                                   ; preds = %invoke.cont203
  invoke void @_ZN4absl12lts_202308028AlphaNumC2ISaIcEEERKNSt7__cxx1112basic_stringIcSt11char_traitsIcET_EE(ptr noundef nonnull align 8 dereferenceable(48) %ref.tmp208, ptr noundef nonnull align 8 dereferenceable(32) %name)
          to label %invoke.cont209 unwind label %lpad93

invoke.cont209:                                   ; preds = %invoke.cont205
  invoke void @_ZN4absl12lts_202308028AlphaNumC2EPKc(ptr noundef nonnull align 8 dereferenceable(48) %ref.tmp210, ptr noundef @.str.75)
          to label %invoke.cont211 unwind label %lpad93

invoke.cont211:                                   ; preds = %invoke.cont209
  invoke void @_ZN4absl12lts_202308026StrCatB5cxx11ERKNS0_8AlphaNumES3_(ptr sret(%"class.std::__cxx11::basic_string") align 8 %ref.tmp207, ptr noundef nonnull align 8 dereferenceable(48) %ref.tmp208, ptr noundef nonnull align 8 dereferenceable(48) %ref.tmp210)
          to label %invoke.cont212 unwind label %lpad93

invoke.cont212:                                   ; preds = %invoke.cont211
  %133 = load ptr, ptr %variables.addr, align 8
  %call215 = invoke noundef nonnull align 8 dereferenceable(32) ptr @_ZN4absl12lts_2023080218container_internal12raw_hash_mapINS1_17FlatHashMapPolicyISt17basic_string_viewIcSt11char_traitsIcEENSt7__cxx1112basic_stringIcS6_SaIcEEEEENS1_10StringHashENS1_8StringEqESaISt4pairIKS7_SB_EEEixIA23_cSC_EEDTclsrT0_5valueclL_ZSt9addressofISH_EPT_RSO_EclL_ZSt7declvalIRSH_EDTcl9__declvalISO_ELi0EEEvEEEEERKSO_(ptr noundef nonnull align 8 dereferenceable(32) %133, ptr noundef nonnull align 1 dereferenceable(23) @.str.76)
          to label %invoke.cont214 unwind label %lpad213

invoke.cont214:                                   ; preds = %invoke.cont212
  %call216 = call noundef nonnull align 8 dereferenceable(32) ptr @_ZNSt7__cxx1112basic_stringIcSt11char_traitsIcESaIcEEaSEOS4_(ptr noundef nonnull align 8 dereferenceable(32) %call215, ptr noundef nonnull align 8 dereferenceable(32) %ref.tmp207) #3
  call void @_ZNSt7__cxx1112basic_stringIcSt11char_traitsIcESaIcEED1Ev(ptr noundef nonnull align 8 dereferenceable(32) %ref.tmp207) #3
  invoke void @_ZN4absl12lts_202308028AlphaNumC2ISaIcEEERKNSt7__cxx1112basic_stringIcSt11char_traitsIcET_EE(ptr noundef nonnull align 8 dereferenceable(48) %ref.tmp219, ptr noundef nonnull align 8 dereferenceable(32) %name)
          to label %invoke.cont220 unwind label %lpad93

invoke.cont220:                                   ; preds = %invoke.cont214
  invoke void @_ZN4absl12lts_202308028AlphaNumC2EPKc(ptr noundef nonnull align 8 dereferenceable(48) %ref.tmp221, ptr noundef @.str.77)
          to label %invoke.cont222 unwind label %lpad93

invoke.cont222:                                   ; preds = %invoke.cont220
  invoke void @_ZN4absl12lts_202308026StrCatB5cxx11ERKNS0_8AlphaNumES3_(ptr sret(%"class.std::__cxx11::basic_string") align 8 %ref.tmp218, ptr noundef nonnull align 8 dereferenceable(48) %ref.tmp219, ptr noundef nonnull align 8 dereferenceable(48) %ref.tmp221)
          to label %invoke.cont223 unwind label %lpad93

invoke.cont223:                                   ; preds = %invoke.cont222
  %134 = load ptr, ptr %variables.addr, align 8
  %call226 = invoke noundef nonnull align 8 dereferenceable(32) ptr @_ZN4absl12lts_2023080218container_internal12raw_hash_mapINS1_17FlatHashMapPolicyISt17basic_string_viewIcSt11char_traitsIcEENSt7__cxx1112basic_stringIcS6_SaIcEEEEENS1_10StringHashENS1_8StringEqESaISt4pairIKS7_SB_EEEixIA13_cSC_EEDTclsrT0_5valueclL_ZSt9addressofISH_EPT_RSO_EclL_ZSt7declvalIRSH_EDTcl9__declvalISO_ELi0EEEvEEEEERKSO_(ptr noundef nonnull align 8 dereferenceable(32) %134, ptr noundef nonnull align 1 dereferenceable(13) @.str.78)
          to label %invoke.cont225 unwind label %lpad224

invoke.cont225:                                   ; preds = %invoke.cont223
  %call227 = call noundef nonnull align 8 dereferenceable(32) ptr @_ZNSt7__cxx1112basic_stringIcSt11char_traitsIcESaIcEEaSEOS4_(ptr noundef nonnull align 8 dereferenceable(32) %call226, ptr noundef nonnull align 8 dereferenceable(32) %ref.tmp218) #3
  call void @_ZNSt7__cxx1112basic_stringIcSt11char_traitsIcESaIcEED1Ev(ptr noundef nonnull align 8 dereferenceable(32) %ref.tmp218) #3
  invoke void @_ZN4absl12lts_202308028AlphaNumC2ISaIcEEERKNSt7__cxx1112basic_stringIcSt11char_traitsIcET_EE(ptr noundef nonnull align 8 dereferenceable(48) %ref.tmp230, ptr noundef nonnull align 8 dereferenceable(32) %name)
          to label %invoke.cont231 unwind label %lpad93

invoke.cont231:                                   ; preds = %invoke.cont225
  invoke void @_ZN4absl12lts_202308028AlphaNumC2EPKc(ptr noundef nonnull align 8 dereferenceable(48) %ref.tmp232, ptr noundef @.str.79)
          to label %invoke.cont233 unwind label %lpad93

invoke.cont233:                                   ; preds = %invoke.cont231
  invoke void @_ZN4absl12lts_202308026StrCatB5cxx11ERKNS0_8AlphaNumES3_(ptr sret(%"class.std::__cxx11::basic_string") align 8 %ref.tmp229, ptr noundef nonnull align 8 dereferenceable(48) %ref.tmp230, ptr noundef nonnull align 8 dereferenceable(48) %ref.tmp232)
          to label %invoke.cont234 unwind label %lpad93

invoke.cont234:                                   ; preds = %invoke.cont233
  %135 = load ptr, ptr %variables.addr, align 8
  %call237 = invoke noundef nonnull align 8 dereferenceable(32) ptr @_ZN4absl12lts_2023080218container_internal12raw_hash_mapINS1_17FlatHashMapPolicyISt17basic_string_viewIcSt11char_traitsIcEENSt7__cxx1112basic_stringIcS6_SaIcEEEEENS1_10StringHashENS1_8StringEqESaISt4pairIKS7_SB_EEEixIA13_cSC_EEDTclsrT0_5valueclL_ZSt9addressofISH_EPT_RSO_EclL_ZSt7declvalIRSH_EDTcl9__declvalISO_ELi0EEEvEEEEERKSO_(ptr noundef nonnull align 8 dereferenceable(32) %135, ptr noundef nonnull align 1 dereferenceable(13) @.str.80)
          to label %invoke.cont236 unwind label %lpad235

invoke.cont236:                                   ; preds = %invoke.cont234
  %call238 = call noundef nonnull align 8 dereferenceable(32) ptr @_ZNSt7__cxx1112basic_stringIcSt11char_traitsIcESaIcEEaSEOS4_(ptr noundef nonnull align 8 dereferenceable(32) %call237, ptr noundef nonnull align 8 dereferenceable(32) %ref.tmp229) #3
  call void @_ZNSt7__cxx1112basic_stringIcSt11char_traitsIcESaIcEED1Ev(ptr noundef nonnull align 8 dereferenceable(32) %ref.tmp229) #3
  invoke void @_ZN4absl12lts_202308028AlphaNumC2ISaIcEEERKNSt7__cxx1112basic_stringIcSt11char_traitsIcET_EE(ptr noundef nonnull align 8 dereferenceable(48) %ref.tmp241, ptr noundef nonnull align 8 dereferenceable(32) %name)
          to label %invoke.cont242 unwind label %lpad93

invoke.cont242:                                   ; preds = %invoke.cont236
  invoke void @_ZN4absl12lts_202308028AlphaNumC2EPKc(ptr noundef nonnull align 8 dereferenceable(48) %ref.tmp243, ptr noundef @.str.81)
          to label %invoke.cont244 unwind label %lpad93

invoke.cont244:                                   ; preds = %invoke.cont242
  invoke void @_ZN4absl12lts_202308026StrCatB5cxx11ERKNS0_8AlphaNumES3_(ptr sret(%"class.std::__cxx11::basic_string") align 8 %ref.tmp240, ptr noundef nonnull align 8 dereferenceable(48) %ref.tmp241, ptr noundef nonnull align 8 dereferenceable(48) %ref.tmp243)
          to label %invoke.cont245 unwind label %lpad93

invoke.cont245:                                   ; preds = %invoke.cont244
  %136 = load ptr, ptr %variables.addr, align 8
  %call248 = invoke noundef nonnull align 8 dereferenceable(32) ptr @_ZN4absl12lts_2023080218container_internal12raw_hash_mapINS1_17FlatHashMapPolicyISt17basic_string_viewIcSt11char_traitsIcEENSt7__cxx1112basic_stringIcS6_SaIcEEEEENS1_10StringHashENS1_8StringEqESaISt4pairIKS7_SB_EEEixIA13_cSC_EEDTclsrT0_5valueclL_ZSt9addressofISH_EPT_RSO_EclL_ZSt7declvalIRSH_EDTcl9__declvalISO_ELi0EEEvEEEEERKSO_(ptr noundef nonnull align 8 dereferenceable(32) %136, ptr noundef nonnull align 1 dereferenceable(13) @.str.82)
          to label %invoke.cont247 unwind label %lpad246

invoke.cont247:                                   ; preds = %invoke.cont245
  %call249 = call noundef nonnull align 8 dereferenceable(32) ptr @_ZNSt7__cxx1112basic_stringIcSt11char_traitsIcESaIcEEaSEOS4_(ptr noundef nonnull align 8 dereferenceable(32) %call248, ptr noundef nonnull align 8 dereferenceable(32) %ref.tmp240) #3
  call void @_ZNSt7__cxx1112basic_stringIcSt11char_traitsIcESaIcEED1Ev(ptr noundef nonnull align 8 dereferenceable(32) %ref.tmp240) #3
  %137 = load ptr, ptr %variables.addr, align 8
  %call252 = invoke noundef nonnull align 8 dereferenceable(32) ptr @_ZN4absl12lts_2023080218container_internal12raw_hash_mapINS1_17FlatHashMapPolicyISt17basic_string_viewIcSt11char_traitsIcEENSt7__cxx1112basic_stringIcS6_SaIcEEEEENS1_10StringHashENS1_8StringEqESaISt4pairIKS7_SB_EEEixIA11_cSC_EEDTclsrT0_5valueclL_ZSt9addressofISH_EPT_RSO_EclL_ZSt7declvalIRSH_EDTcl9__declvalISO_ELi0EEEvEEEEERKSO_(ptr noundef nonnull align 8 dereferenceable(32) %137, ptr noundef nonnull align 1 dereferenceable(11) @.str.83)
          to label %invoke.cont251 unwind label %lpad93

invoke.cont251:                                   ; preds = %invoke.cont247
  %call254 = invoke noundef nonnull align 8 dereferenceable(32) ptr @_ZNSt7__cxx1112basic_stringIcSt11char_traitsIcESaIcEEaSEPKc(ptr noundef nonnull align 8 dereferenceable(32) %call252, ptr noundef @.str.89)
          to label %invoke.cont253 unwind label %lpad93

invoke.cont253:                                   ; preds = %invoke.cont251
  %138 = load ptr, ptr %variables.addr, align 8
  %call256 = invoke noundef nonnull align 8 dereferenceable(32) ptr @_ZN4absl12lts_2023080218container_internal12raw_hash_mapINS1_17FlatHashMapPolicyISt17basic_string_viewIcSt11char_traitsIcEENSt7__cxx1112basic_stringIcS6_SaIcEEEEENS1_10StringHashENS1_8StringEqESaISt4pairIKS7_SB_EEEixIA16_cSC_EEDTclsrT0_5valueclL_ZSt9addressofISH_EPT_RSO_EclL_ZSt7declvalIRSH_EDTcl9__declvalISO_ELi0EEEvEEEEERKSO_(ptr noundef nonnull align 8 dereferenceable(32) %138, ptr noundef nonnull align 1 dereferenceable(16) @.str.85)
          to label %invoke.cont255 unwind label %lpad93

invoke.cont255:                                   ; preds = %invoke.cont253
  %call258 = invoke noundef nonnull align 8 dereferenceable(32) ptr @_ZNSt7__cxx1112basic_stringIcSt11char_traitsIcESaIcEEaSEPKc(ptr noundef nonnull align 8 dereferenceable(32) %call256, ptr noundef @.str.90)
          to label %invoke.cont257 unwind label %lpad93

invoke.cont257:                                   ; preds = %invoke.cont255
  br label %sw.epilog

sw.epilog:                                        ; preds = %invoke.cont257, %invoke.cont181
  %139 = load i32, ptr %javaType, align 4
  %cmp = icmp eq i32 %139, 6
  br i1 %cmp, label %if.then, label %if.end

if.then:                                          ; preds = %sw.epilog
  %call263 = call { i64, ptr } @_ZNKSt7__cxx1112basic_stringIcSt11char_traitsIcESaIcEEcvSt17basic_string_viewIcS2_EEv(ptr noundef nonnull align 8 dereferenceable(32) %name) #3
  %140 = getelementptr inbounds { i64, ptr }, ptr %agg.tmp262, i32 0, i32 0
  %141 = extractvalue { i64, ptr } %call263, 0
  store i64 %141, ptr %140, align 8
  %142 = getelementptr inbounds { i64, ptr }, ptr %agg.tmp262, i32 0, i32 1
  %143 = extractvalue { i64, ptr } %call263, 1
  store ptr %143, ptr %142, align 8
  %144 = getelementptr inbounds { i64, ptr }, ptr %agg.tmp262, i32 0, i32 0
  %145 = load i64, ptr %144, align 8
  %146 = getelementptr inbounds { i64, ptr }, ptr %agg.tmp262, i32 0, i32 1
  %147 = load ptr, ptr %146, align 8
  invoke void @_ZN4absl12lts_2023080215AsciiStrToUpperB5cxx11ESt17basic_string_viewIcSt11char_traitsIcEE(ptr sret(%"class.std::__cxx11::basic_string") align 8 %ref.tmp261, i64 %145, ptr %147)
          to label %invoke.cont264 unwind label %lpad93

invoke.cont264:                                   ; preds = %if.then
  invoke void @_ZN4absl12lts_202308028AlphaNumC2ISaIcEEERKNSt7__cxx1112basic_stringIcSt11char_traitsIcET_EE(ptr noundef nonnull align 8 dereferenceable(48) %ref.tmp260, ptr noundef nonnull align 8 dereferenceable(32) %ref.tmp261)
          to label %invoke.cont266 unwind label %lpad265

invoke.cont266:                                   ; preds = %invoke.cont264
  invoke void @_ZN4absl12lts_202308028AlphaNumC2EPKc(ptr noundef nonnull align 8 dereferenceable(48) %ref.tmp267, ptr noundef @.str.91)
          to label %invoke.cont268 unwind label %lpad265

invoke.cont268:                                   ; preds = %invoke.cont266
  invoke void @_ZN4absl12lts_202308026StrCatB5cxx11ERKNS0_8AlphaNumES3_(ptr sret(%"class.std::__cxx11::basic_string") align 8 %ref.tmp259, ptr noundef nonnull align 8 dereferenceable(48) %ref.tmp260, ptr noundef nonnull align 8 dereferenceable(48) %ref.tmp267)
          to label %invoke.cont269 unwind label %lpad265

invoke.cont269:                                   ; preds = %invoke.cont268
  %148 = load ptr, ptr %variables.addr, align 8
  %call272 = invoke noundef nonnull align 8 dereferenceable(32) ptr @_ZN4absl12lts_2023080218container_internal12raw_hash_mapINS1_17FlatHashMapPolicyISt17basic_string_viewIcSt11char_traitsIcEENSt7__cxx1112basic_stringIcS6_SaIcEEEEENS1_10StringHashENS1_8StringEqESaISt4pairIKS7_SB_EEEixIA14_cSC_EEDTclsrT0_5valueclL_ZSt9addressofISH_EPT_RSO_EclL_ZSt7declvalIRSH_EDTcl9__declvalISO_ELi0EEEvEEEEERKSO_(ptr noundef nonnull align 8 dereferenceable(32) %148, ptr noundef nonnull align 1 dereferenceable(14) @.str.92)
          to label %invoke.cont271 unwind label %lpad270

invoke.cont271:                                   ; preds = %invoke.cont269
  %call273 = call noundef nonnull align 8 dereferenceable(32) ptr @_ZNSt7__cxx1112basic_stringIcSt11char_traitsIcESaIcEEaSEOS4_(ptr noundef nonnull align 8 dereferenceable(32) %call272, ptr noundef nonnull align 8 dereferenceable(32) %ref.tmp259) #3
  call void @_ZNSt7__cxx1112basic_stringIcSt11char_traitsIcESaIcEED1Ev(ptr noundef nonnull align 8 dereferenceable(32) %ref.tmp259) #3
  call void @_ZNSt7__cxx1112basic_stringIcSt11char_traitsIcESaIcEED1Ev(ptr noundef nonnull align 8 dereferenceable(32) %ref.tmp261) #3
  br label %if.end

lpad196:                                          ; preds = %invoke.cont195
  %149 = landingpad { ptr, i32 }
          cleanup
  %150 = extractvalue { ptr, i32 } %149, 0
  store ptr %150, ptr %exn.slot, align 8
  %151 = extractvalue { ptr, i32 } %149, 1
  store i32 %151, ptr %ehselector.slot, align 4
  br label %ehcleanup202

lpad199:                                          ; preds = %invoke.cont197
  %152 = landingpad { ptr, i32 }
          cleanup
  %153 = extractvalue { ptr, i32 } %152, 0
  store ptr %153, ptr %exn.slot, align 8
  %154 = extractvalue { ptr, i32 } %152, 1
  store i32 %154, ptr %ehselector.slot, align 4
  call void @_ZNSt4pairISt17basic_string_viewIcSt11char_traitsIcEENSt7__cxx1112basic_stringIcS2_SaIcEEEED2Ev(ptr noundef nonnull align 8 dereferenceable(48) %ref.tmp185) #3
  br label %ehcleanup202

ehcleanup202:                                     ; preds = %lpad199, %lpad196
  call void @_ZNSt7__cxx1112basic_stringIcSt11char_traitsIcESaIcEED1Ev(ptr noundef nonnull align 8 dereferenceable(32) %ref.tmp186) #3
  br label %ehcleanup466

lpad213:                                          ; preds = %invoke.cont212
  %155 = landingpad { ptr, i32 }
          cleanup
  %156 = extractvalue { ptr, i32 } %155, 0
  store ptr %156, ptr %exn.slot, align 8
  %157 = extractvalue { ptr, i32 } %155, 1
  store i32 %157, ptr %ehselector.slot, align 4
  call void @_ZNSt7__cxx1112basic_stringIcSt11char_traitsIcESaIcEED1Ev(ptr noundef nonnull align 8 dereferenceable(32) %ref.tmp207) #3
  br label %ehcleanup466

lpad224:                                          ; preds = %invoke.cont223
  %158 = landingpad { ptr, i32 }
          cleanup
  %159 = extractvalue { ptr, i32 } %158, 0
  store ptr %159, ptr %exn.slot, align 8
  %160 = extractvalue { ptr, i32 } %158, 1
  store i32 %160, ptr %ehselector.slot, align 4
  call void @_ZNSt7__cxx1112basic_stringIcSt11char_traitsIcESaIcEED1Ev(ptr noundef nonnull align 8 dereferenceable(32) %ref.tmp218) #3
  br label %ehcleanup466

lpad235:                                          ; preds = %invoke.cont234
  %161 = landingpad { ptr, i32 }
          cleanup
  %162 = extractvalue { ptr, i32 } %161, 0
  store ptr %162, ptr %exn.slot, align 8
  %163 = extractvalue { ptr, i32 } %161, 1
  store i32 %163, ptr %ehselector.slot, align 4
  call void @_ZNSt7__cxx1112basic_stringIcSt11char_traitsIcESaIcEED1Ev(ptr noundef nonnull align 8 dereferenceable(32) %ref.tmp229) #3
  br label %ehcleanup466

lpad246:                                          ; preds = %invoke.cont245
  %164 = landingpad { ptr, i32 }
          cleanup
  %165 = extractvalue { ptr, i32 } %164, 0
  store ptr %165, ptr %exn.slot, align 8
  %166 = extractvalue { ptr, i32 } %164, 1
  store i32 %166, ptr %ehselector.slot, align 4
  call void @_ZNSt7__cxx1112basic_stringIcSt11char_traitsIcESaIcEED1Ev(ptr noundef nonnull align 8 dereferenceable(32) %ref.tmp240) #3
  br label %ehcleanup466

lpad265:                                          ; preds = %invoke.cont268, %invoke.cont266, %invoke.cont264
  %167 = landingpad { ptr, i32 }
          cleanup
  %168 = extractvalue { ptr, i32 } %167, 0
  store ptr %168, ptr %exn.slot, align 8
  %169 = extractvalue { ptr, i32 } %167, 1
  store i32 %169, ptr %ehselector.slot, align 4
  br label %ehcleanup275

lpad270:                                          ; preds = %invoke.cont269
  %170 = landingpad { ptr, i32 }
          cleanup
  %171 = extractvalue { ptr, i32 } %170, 0
  store ptr %171, ptr %exn.slot, align 8
  %172 = extractvalue { ptr, i32 } %170, 1
  store i32 %172, ptr %ehselector.slot, align 4
  call void @_ZNSt7__cxx1112basic_stringIcSt11char_traitsIcESaIcEED1Ev(ptr noundef nonnull align 8 dereferenceable(32) %ref.tmp259) #3
  br label %ehcleanup275

ehcleanup275:                                     ; preds = %lpad270, %lpad265
  call void @_ZNSt7__cxx1112basic_stringIcSt11char_traitsIcESaIcEED1Ev(ptr noundef nonnull align 8 dereferenceable(32) %ref.tmp261) #3
  br label %ehcleanup466

if.end:                                           ; preds = %invoke.cont271, %sw.epilog
  %173 = load i32, ptr %javaType, align 4
  %call277 = invoke noundef zeroext i1 @_ZN6google8protobuf8compiler4java15IsReferenceTypeENS2_8JavaTypeE(i32 noundef %173)
          to label %invoke.cont276 unwind label %lpad93

invoke.cont276:                                   ; preds = %if.end
  br i1 %call277, label %if.then278, label %if.else

if.then278:                                       ; preds = %invoke.cont276
  %174 = load ptr, ptr %variables.addr, align 8
  %call280 = invoke noundef nonnull align 8 dereferenceable(32) ptr @_ZN4absl12lts_2023080218container_internal12raw_hash_mapINS1_17FlatHashMapPolicyISt17basic_string_viewIcSt11char_traitsIcEENSt7__cxx1112basic_stringIcS6_SaIcEEEEENS1_10StringHashENS1_8StringEqESaISt4pairIKS7_SB_EEEixIA11_cSC_EEDTclsrT0_5valueclL_ZSt9addressofISH_EPT_RSO_EclL_ZSt7declvalIRSH_EDTcl9__declvalISO_ELi0EEEvEEEEERKSO_(ptr noundef nonnull align 8 dereferenceable(32) %174, ptr noundef nonnull align 1 dereferenceable(11) @.str.94)
          to label %invoke.cont279 unwind label %lpad93

invoke.cont279:                                   ; preds = %if.then278
  %call282 = invoke noundef nonnull align 8 dereferenceable(32) ptr @_ZNSt7__cxx1112basic_stringIcSt11char_traitsIcESaIcEEaSEPKc(ptr noundef nonnull align 8 dereferenceable(32) %call280, ptr noundef @.str.93)
          to label %invoke.cont281 unwind label %lpad93

invoke.cont281:                                   ; preds = %invoke.cont279
  br label %if.end287

if.else:                                          ; preds = %invoke.cont276
  %175 = load ptr, ptr %variables.addr, align 8
  %call284 = invoke noundef nonnull align 8 dereferenceable(32) ptr @_ZN4absl12lts_2023080218container_internal12raw_hash_mapINS1_17FlatHashMapPolicyISt17basic_string_viewIcSt11char_traitsIcEENSt7__cxx1112basic_stringIcS6_SaIcEEEEENS1_10StringHashENS1_8StringEqESaISt4pairIKS7_SB_EEEixIA11_cSC_EEDTclsrT0_5valueclL_ZSt9addressofISH_EPT_RSO_EclL_ZSt7declvalIRSH_EDTcl9__declvalISO_ELi0EEEvEEEEERKSO_(ptr noundef nonnull align 8 dereferenceable(32) %175, ptr noundef nonnull align 1 dereferenceable(11) @.str.94)
          to label %invoke.cont283 unwind label %lpad93

invoke.cont283:                                   ; preds = %if.else
  %call286 = invoke noundef nonnull align 8 dereferenceable(32) ptr @_ZNSt7__cxx1112basic_stringIcSt11char_traitsIcESaIcEEaSEPKc(ptr noundef nonnull align 8 dereferenceable(32) %call284, ptr noundef @.str.95)
          to label %invoke.cont285 unwind label %lpad93

invoke.cont285:                                   ; preds = %invoke.cont283
  br label %if.end287

if.end287:                                        ; preds = %invoke.cont285, %invoke.cont281
  %176 = load ptr, ptr %descriptor.addr, align 8
  %call289 = invoke noundef nonnull align 8 dereferenceable(144) ptr @_ZNK6google8protobuf15FieldDescriptor7optionsEv(ptr noundef nonnull align 8 dereferenceable(88) %176)
          to label %invoke.cont288 unwind label %lpad93

invoke.cont288:                                   ; preds = %if.end287
  %call291 = invoke noundef zeroext i1 @_ZNK6google8protobuf12FieldOptions10deprecatedEv(ptr noundef nonnull align 8 dereferenceable(144) %call289)
          to label %invoke.cont290 unwind label %lpad93

invoke.cont290:                                   ; preds = %invoke.cont288
  %cond292 = select i1 %call291, ptr @.str.96, ptr @.str.95
  %177 = load ptr, ptr %variables.addr, align 8
  %call294 = invoke noundef nonnull align 8 dereferenceable(32) ptr @_ZN4absl12lts_2023080218container_internal12raw_hash_mapINS1_17FlatHashMapPolicyISt17basic_string_viewIcSt11char_traitsIcEENSt7__cxx1112basic_stringIcS6_SaIcEEEEENS1_10StringHashENS1_8StringEqESaISt4pairIKS7_SB_EEEixIA12_cSC_EEDTclsrT0_5valueclL_ZSt9addressofISH_EPT_RSO_EclL_ZSt7declvalIRSH_EDTcl9__declvalISO_ELi0EEEvEEEEERKSO_(ptr noundef nonnull align 8 dereferenceable(32) %177, ptr noundef nonnull align 1 dereferenceable(12) @.str.97)
          to label %invoke.cont293 unwind label %lpad93

invoke.cont293:                                   ; preds = %invoke.cont290
  %call296 = invoke noundef nonnull align 8 dereferenceable(32) ptr @_ZNSt7__cxx1112basic_stringIcSt11char_traitsIcESaIcEEaSEPKc(ptr noundef nonnull align 8 dereferenceable(32) %call294, ptr noundef %cond292)
          to label %invoke.cont295 unwind label %lpad93

invoke.cont295:                                   ; preds = %invoke.cont293
  %178 = load ptr, ptr %descriptor.addr, align 8
  store i1 false, ptr %cleanup.cond, align 1
  %call299 = invoke noundef nonnull align 8 dereferenceable(144) ptr @_ZNK6google8protobuf15FieldDescriptor7optionsEv(ptr noundef nonnull align 8 dereferenceable(88) %178)
          to label %invoke.cont298 unwind label %lpad93

invoke.cont298:                                   ; preds = %invoke.cont295
  %call301 = invoke noundef zeroext i1 @_ZNK6google8protobuf12FieldOptions10deprecatedEv(ptr noundef nonnull align 8 dereferenceable(144) %call299)
          to label %invoke.cont300 unwind label %lpad93

invoke.cont300:                                   ; preds = %invoke.cont298
  br i1 %call301, label %cond.true, label %cond.false

cond.true:                                        ; preds = %invoke.cont300
  invoke void @_ZN4absl12lts_202308028AlphaNumC2EPKc(ptr noundef nonnull align 8 dereferenceable(48) %ref.tmp302, ptr noundef @.str.98)
          to label %invoke.cont303 unwind label %lpad93

invoke.cont303:                                   ; preds = %cond.true
  invoke void @_ZN4absl12lts_202308028AlphaNumC2ISaIcEEERKNSt7__cxx1112basic_stringIcSt11char_traitsIcET_EE(ptr noundef nonnull align 8 dereferenceable(48) %ref.tmp304, ptr noundef nonnull align 8 dereferenceable(32) %name)
          to label %invoke.cont305 unwind label %lpad93

invoke.cont305:                                   ; preds = %invoke.cont303
  invoke void @_ZN4absl12lts_202308028AlphaNumC2EPKc(ptr noundef nonnull align 8 dereferenceable(48) %ref.tmp306, ptr noundef @.str.99)
          to label %invoke.cont307 unwind label %lpad93

invoke.cont307:                                   ; preds = %invoke.cont305
  invoke void @_ZN4absl12lts_202308026StrCatB5cxx11ERKNS0_8AlphaNumES3_S3_(ptr sret(%"class.std::__cxx11::basic_string") align 8 %ref.tmp297, ptr noundef nonnull align 8 dereferenceable(48) %ref.tmp302, ptr noundef nonnull align 8 dereferenceable(48) %ref.tmp304, ptr noundef nonnull align 8 dereferenceable(48) %ref.tmp306)
          to label %invoke.cont308 unwind label %lpad93

invoke.cont308:                                   ; preds = %invoke.cont307
  br label %cond.end

cond.false:                                       ; preds = %invoke.cont300
  call void @_ZNSaIcEC1Ev(ptr noundef nonnull align 1 dereferenceable(1) %ref.tmp309) #3
  store i1 true, ptr %cleanup.cond, align 1
  invoke void @_ZNSt7__cxx1112basic_stringIcSt11char_traitsIcESaIcEEC2IS3_EEPKcRKS3_(ptr noundef nonnull align 8 dereferenceable(32) %ref.tmp297, ptr noundef @.str.95, ptr noundef nonnull align 1 dereferenceable(1) %ref.tmp309)
          to label %invoke.cont311 unwind label %lpad310

invoke.cont311:                                   ; preds = %cond.false
  br label %cond.end

cond.end:                                         ; preds = %invoke.cont311, %invoke.cont308
  %179 = load ptr, ptr %variables.addr, align 8
  %call314 = invoke noundef nonnull align 8 dereferenceable(32) ptr @_ZN4absl12lts_2023080218container_internal12raw_hash_mapINS1_17FlatHashMapPolicyISt17basic_string_viewIcSt11char_traitsIcEENSt7__cxx1112basic_stringIcS6_SaIcEEEEENS1_10StringHashENS1_8StringEqESaISt4pairIKS7_SB_EEEixIA15_cSC_EEDTclsrT0_5valueclL_ZSt9addressofISH_EPT_RSO_EclL_ZSt7declvalIRSH_EDTcl9__declvalISO_ELi0EEEvEEEEERKSO_(ptr noundef nonnull align 8 dereferenceable(32) %179, ptr noundef nonnull align 1 dereferenceable(15) @.str.100)
          to label %invoke.cont313 unwind label %lpad312

invoke.cont313:                                   ; preds = %cond.end
  %call315 = call noundef nonnull align 8 dereferenceable(32) ptr @_ZNSt7__cxx1112basic_stringIcSt11char_traitsIcESaIcEEaSEOS4_(ptr noundef nonnull align 8 dereferenceable(32) %call314, ptr noundef nonnull align 8 dereferenceable(32) %ref.tmp297) #3
  call void @_ZNSt7__cxx1112basic_stringIcSt11char_traitsIcESaIcEED1Ev(ptr noundef nonnull align 8 dereferenceable(32) %ref.tmp297) #3
  %cleanup.is_active = load i1, ptr %cleanup.cond, align 1
  br i1 %cleanup.is_active, label %cleanup.action, label %cleanup.done

cleanup.action:                                   ; preds = %invoke.cont313
  call void @_ZNSaIcED1Ev(ptr noundef nonnull align 1 dereferenceable(1) %ref.tmp309) #3
  br label %cleanup.done

cleanup.done:                                     ; preds = %cleanup.action, %invoke.cont313
  %180 = load ptr, ptr %descriptor.addr, align 8
  %call322 = invoke noundef i32 @_ZN6google8protobuf8compiler4java7GetTypeEPKNS0_15FieldDescriptorE(ptr noundef %180)
          to label %invoke.cont321 unwind label %lpad93

invoke.cont321:                                   ; preds = %cleanup.done
  %call324 = invoke noundef i32 @_ZN6google8protobuf8compiler4java9FixedSizeENS0_8internal19FieldDescriptorLite4TypeE(i32 noundef %call322)
          to label %invoke.cont323 unwind label %lpad93

invoke.cont323:                                   ; preds = %invoke.cont321
  store i32 %call324, ptr %fixed_size, align 4
  %181 = load i32, ptr %fixed_size, align 4
  %cmp325 = icmp ne i32 %181, -1
  br i1 %cmp325, label %if.then326, label %if.end336

if.then326:                                       ; preds = %invoke.cont323
  %182 = load i32, ptr %fixed_size, align 4
  invoke void @_ZN4absl12lts_202308028AlphaNumC2Ei(ptr noundef nonnull align 8 dereferenceable(48) %ref.tmp328, i32 noundef %182)
          to label %invoke.cont329 unwind label %lpad93

invoke.cont329:                                   ; preds = %if.then326
  invoke void @_ZN4absl12lts_202308026StrCatB5cxx11ERKNS0_8AlphaNumE(ptr sret(%"class.std::__cxx11::basic_string") align 8 %ref.tmp327, ptr noundef nonnull align 8 dereferenceable(48) %ref.tmp328)
          to label %invoke.cont330 unwind label %lpad93

invoke.cont330:                                   ; preds = %invoke.cont329
  %183 = load ptr, ptr %variables.addr, align 8
  %call333 = invoke noundef nonnull align 8 dereferenceable(32) ptr @_ZN4absl12lts_2023080218container_internal12raw_hash_mapINS1_17FlatHashMapPolicyISt17basic_string_viewIcSt11char_traitsIcEENSt7__cxx1112basic_stringIcS6_SaIcEEEEENS1_10StringHashENS1_8StringEqESaISt4pairIKS7_SB_EEEixIA11_cSC_EEDTclsrT0_5valueclL_ZSt9addressofISH_EPT_RSO_EclL_ZSt7declvalIRSH_EDTcl9__declvalISO_ELi0EEEvEEEEERKSO_(ptr noundef nonnull align 8 dereferenceable(32) %183, ptr noundef nonnull align 1 dereferenceable(11) @.str.101)
          to label %invoke.cont332 unwind label %lpad331

invoke.cont332:                                   ; preds = %invoke.cont330
  %call334 = call noundef nonnull align 8 dereferenceable(32) ptr @_ZNSt7__cxx1112basic_stringIcSt11char_traitsIcESaIcEEaSEOS4_(ptr noundef nonnull align 8 dereferenceable(32) %call333, ptr noundef nonnull align 8 dereferenceable(32) %ref.tmp327) #3
  call void @_ZNSt7__cxx1112basic_stringIcSt11char_traitsIcESaIcEED1Ev(ptr noundef nonnull align 8 dereferenceable(32) %ref.tmp327) #3
  br label %if.end336

lpad310:                                          ; preds = %cond.false
  %184 = landingpad { ptr, i32 }
          cleanup
  %185 = extractvalue { ptr, i32 } %184, 0
  store ptr %185, ptr %exn.slot, align 8
  %186 = extractvalue { ptr, i32 } %184, 1
  store i32 %186, ptr %ehselector.slot, align 4
  br label %ehcleanup317

lpad312:                                          ; preds = %cond.end
  %187 = landingpad { ptr, i32 }
          cleanup
  %188 = extractvalue { ptr, i32 } %187, 0
  store ptr %188, ptr %exn.slot, align 8
  %189 = extractvalue { ptr, i32 } %187, 1
  store i32 %189, ptr %ehselector.slot, align 4
  call void @_ZNSt7__cxx1112basic_stringIcSt11char_traitsIcESaIcEED1Ev(ptr noundef nonnull align 8 dereferenceable(32) %ref.tmp297) #3
  br label %ehcleanup317

ehcleanup317:                                     ; preds = %lpad312, %lpad310
  %cleanup.is_active318 = load i1, ptr %cleanup.cond, align 1
  br i1 %cleanup.is_active318, label %cleanup.action319, label %cleanup.done320

cleanup.action319:                                ; preds = %ehcleanup317
  call void @_ZNSaIcED1Ev(ptr noundef nonnull align 1 dereferenceable(1) %ref.tmp309) #3
  br label %cleanup.done320

cleanup.done320:                                  ; preds = %cleanup.action319, %ehcleanup317
  br label %ehcleanup466

lpad331:                                          ; preds = %invoke.cont330
  %190 = landingpad { ptr, i32 }
          cleanup
  %191 = extractvalue { ptr, i32 } %190, 0
  store ptr %191, ptr %exn.slot, align 8
  %192 = extractvalue { ptr, i32 } %190, 1
  store i32 %192, ptr %ehselector.slot, align 4
  call void @_ZNSt7__cxx1112basic_stringIcSt11char_traitsIcESaIcEED1Ev(ptr noundef nonnull align 8 dereferenceable(32) %ref.tmp327) #3
  br label %ehcleanup466

if.end336:                                        ; preds = %invoke.cont332, %invoke.cont323
  %193 = load ptr, ptr %descriptor.addr, align 8
  %call338 = invoke noundef zeroext i1 @_ZN6google8protobuf8compiler4java9HasHasbitEPKNS0_15FieldDescriptorE(ptr noundef %193)
          to label %invoke.cont337 unwind label %lpad93

invoke.cont337:                                   ; preds = %if.end336
  br i1 %call338, label %if.then339, label %if.else384

if.then339:                                       ; preds = %invoke.cont337
  %194 = load i32, ptr %messageBitIndex.addr, align 4
  invoke void @_ZN6google8protobuf8compiler4java14GenerateGetBitB5cxx11Ei(ptr sret(%"class.std::__cxx11::basic_string") align 8 %ref.tmp340, i32 noundef %194)
          to label %invoke.cont341 unwind label %lpad93

invoke.cont341:                                   ; preds = %if.then339
  %195 = load ptr, ptr %variables.addr, align 8
  %call344 = invoke noundef nonnull align 8 dereferenceable(32) ptr @_ZN4absl12lts_2023080218container_internal12raw_hash_mapINS1_17FlatHashMapPolicyISt17basic_string_viewIcSt11char_traitsIcEENSt7__cxx1112basic_stringIcS6_SaIcEEEEENS1_10StringHashENS1_8StringEqESaISt4pairIKS7_SB_EEEixIA26_cSC_EEDTclsrT0_5valueclL_ZSt9addressofISH_EPT_RSO_EclL_ZSt7declvalIRSH_EDTcl9__declvalISO_ELi0EEEvEEEEERKSO_(ptr noundef nonnull align 8 dereferenceable(32) %195, ptr noundef nonnull align 1 dereferenceable(26) @.str.102)
          to label %invoke.cont343 unwind label %lpad342

invoke.cont343:                                   ; preds = %invoke.cont341
  %call345 = call noundef nonnull align 8 dereferenceable(32) ptr @_ZNSt7__cxx1112basic_stringIcSt11char_traitsIcESaIcEEaSEOS4_(ptr noundef nonnull align 8 dereferenceable(32) %call344, ptr noundef nonnull align 8 dereferenceable(32) %ref.tmp340) #3
  call void @_ZNSt7__cxx1112basic_stringIcSt11char_traitsIcESaIcEED1Ev(ptr noundef nonnull align 8 dereferenceable(32) %ref.tmp340) #3
  %196 = load i32, ptr %messageBitIndex.addr, align 4
  invoke void @_ZN6google8protobuf8compiler4java14GenerateSetBitB5cxx11Ei(ptr sret(%"class.std::__cxx11::basic_string") align 8 %ref.tmp349, i32 noundef %196)
          to label %invoke.cont350 unwind label %lpad93

invoke.cont350:                                   ; preds = %invoke.cont343
  invoke void @_ZN4absl12lts_202308028AlphaNumC2ISaIcEEERKNSt7__cxx1112basic_stringIcSt11char_traitsIcET_EE(ptr noundef nonnull align 8 dereferenceable(48) %ref.tmp348, ptr noundef nonnull align 8 dereferenceable(32) %ref.tmp349)
          to label %invoke.cont352 unwind label %lpad351

invoke.cont352:                                   ; preds = %invoke.cont350
  invoke void @_ZN4absl12lts_202308028AlphaNumC2EPKc(ptr noundef nonnull align 8 dereferenceable(48) %ref.tmp353, ptr noundef @.str.103)
          to label %invoke.cont354 unwind label %lpad351

invoke.cont354:                                   ; preds = %invoke.cont352
  invoke void @_ZN4absl12lts_202308026StrCatB5cxx11ERKNS0_8AlphaNumES3_(ptr sret(%"class.std::__cxx11::basic_string") align 8 %ref.tmp347, ptr noundef nonnull align 8 dereferenceable(48) %ref.tmp348, ptr noundef nonnull align 8 dereferenceable(48) %ref.tmp353)
          to label %invoke.cont355 unwind label %lpad351

invoke.cont355:                                   ; preds = %invoke.cont354
  %197 = load ptr, ptr %variables.addr, align 8
  %call358 = invoke noundef nonnull align 8 dereferenceable(32) ptr @_ZN4absl12lts_2023080218container_internal12raw_hash_mapINS1_17FlatHashMapPolicyISt17basic_string_viewIcSt11char_traitsIcEENSt7__cxx1112basic_stringIcS6_SaIcEEEEENS1_10StringHashENS1_8StringEqESaISt4pairIKS7_SB_EEEixIA26_cSC_EEDTclsrT0_5valueclL_ZSt9addressofISH_EPT_RSO_EclL_ZSt7declvalIRSH_EDTcl9__declvalISO_ELi0EEEvEEEEERKSO_(ptr noundef nonnull align 8 dereferenceable(32) %197, ptr noundef nonnull align 1 dereferenceable(26) @.str.104)
          to label %invoke.cont357 unwind label %lpad356

invoke.cont357:                                   ; preds = %invoke.cont355
  %call359 = call noundef nonnull align 8 dereferenceable(32) ptr @_ZNSt7__cxx1112basic_stringIcSt11char_traitsIcESaIcEEaSEOS4_(ptr noundef nonnull align 8 dereferenceable(32) %call358, ptr noundef nonnull align 8 dereferenceable(32) %ref.tmp347) #3
  call void @_ZNSt7__cxx1112basic_stringIcSt11char_traitsIcESaIcEED1Ev(ptr noundef nonnull align 8 dereferenceable(32) %ref.tmp347) #3
  call void @_ZNSt7__cxx1112basic_stringIcSt11char_traitsIcESaIcEED1Ev(ptr noundef nonnull align 8 dereferenceable(32) %ref.tmp349) #3
  %198 = load i32, ptr %messageBitIndex.addr, align 4
  invoke void @_ZN6google8protobuf8compiler4java16GenerateClearBitB5cxx11Ei(ptr sret(%"class.std::__cxx11::basic_string") align 8 %ref.tmp364, i32 noundef %198)
          to label %invoke.cont365 unwind label %lpad93

invoke.cont365:                                   ; preds = %invoke.cont357
  invoke void @_ZN4absl12lts_202308028AlphaNumC2ISaIcEEERKNSt7__cxx1112basic_stringIcSt11char_traitsIcET_EE(ptr noundef nonnull align 8 dereferenceable(48) %ref.tmp363, ptr noundef nonnull align 8 dereferenceable(32) %ref.tmp364)
          to label %invoke.cont367 unwind label %lpad366

invoke.cont367:                                   ; preds = %invoke.cont365
  invoke void @_ZN4absl12lts_202308028AlphaNumC2EPKc(ptr noundef nonnull align 8 dereferenceable(48) %ref.tmp368, ptr noundef @.str.103)
          to label %invoke.cont369 unwind label %lpad366

invoke.cont369:                                   ; preds = %invoke.cont367
  invoke void @_ZN4absl12lts_202308026StrCatB5cxx11ERKNS0_8AlphaNumES3_(ptr sret(%"class.std::__cxx11::basic_string") align 8 %ref.tmp362, ptr noundef nonnull align 8 dereferenceable(48) %ref.tmp363, ptr noundef nonnull align 8 dereferenceable(48) %ref.tmp368)
          to label %invoke.cont370 unwind label %lpad366

invoke.cont370:                                   ; preds = %invoke.cont369
  %199 = load ptr, ptr %variables.addr, align 8
  %call373 = invoke noundef nonnull align 8 dereferenceable(32) ptr @_ZN4absl12lts_2023080218container_internal12raw_hash_mapINS1_17FlatHashMapPolicyISt17basic_string_viewIcSt11char_traitsIcEENSt7__cxx1112basic_stringIcS6_SaIcEEEEENS1_10StringHashENS1_8StringEqESaISt4pairIKS7_SB_EEEixIA28_cSC_EEDTclsrT0_5valueclL_ZSt9addressofISH_EPT_RSO_EclL_ZSt7declvalIRSH_EDTcl9__declvalISO_ELi0EEEvEEEEERKSO_(ptr noundef nonnull align 8 dereferenceable(32) %199, ptr noundef nonnull align 1 dereferenceable(28) @.str.105)
          to label %invoke.cont372 unwind label %lpad371

invoke.cont372:                                   ; preds = %invoke.cont370
  %call374 = call noundef nonnull align 8 dereferenceable(32) ptr @_ZNSt7__cxx1112basic_stringIcSt11char_traitsIcESaIcEEaSEOS4_(ptr noundef nonnull align 8 dereferenceable(32) %call373, ptr noundef nonnull align 8 dereferenceable(32) %ref.tmp362) #3
  call void @_ZNSt7__cxx1112basic_stringIcSt11char_traitsIcESaIcEED1Ev(ptr noundef nonnull align 8 dereferenceable(32) %ref.tmp362) #3
  call void @_ZNSt7__cxx1112basic_stringIcSt11char_traitsIcESaIcEED1Ev(ptr noundef nonnull align 8 dereferenceable(32) %ref.tmp364) #3
  %200 = load i32, ptr %messageBitIndex.addr, align 4
  invoke void @_ZN6google8protobuf8compiler4java14GenerateGetBitB5cxx11Ei(ptr sret(%"class.std::__cxx11::basic_string") align 8 %ref.tmp377, i32 noundef %200)
          to label %invoke.cont378 unwind label %lpad93

invoke.cont378:                                   ; preds = %invoke.cont372
  %201 = load ptr, ptr %variables.addr, align 8
  %call381 = invoke noundef nonnull align 8 dereferenceable(32) ptr @_ZN4absl12lts_2023080218container_internal12raw_hash_mapINS1_17FlatHashMapPolicyISt17basic_string_viewIcSt11char_traitsIcEENSt7__cxx1112basic_stringIcS6_SaIcEEEEENS1_10StringHashENS1_8StringEqESaISt4pairIKS7_SB_EEEixIA25_cSC_EEDTclsrT0_5valueclL_ZSt9addressofISH_EPT_RSO_EclL_ZSt7declvalIRSH_EDTcl9__declvalISO_ELi0EEEvEEEEERKSO_(ptr noundef nonnull align 8 dereferenceable(32) %201, ptr noundef nonnull align 1 dereferenceable(25) @.str.106)
          to label %invoke.cont380 unwind label %lpad379

invoke.cont380:                                   ; preds = %invoke.cont378
  %call382 = call noundef nonnull align 8 dereferenceable(32) ptr @_ZNSt7__cxx1112basic_stringIcSt11char_traitsIcESaIcEEaSEOS4_(ptr noundef nonnull align 8 dereferenceable(32) %call381, ptr noundef nonnull align 8 dereferenceable(32) %ref.tmp377) #3
  call void @_ZNSt7__cxx1112basic_stringIcSt11char_traitsIcESaIcEED1Ev(ptr noundef nonnull align 8 dereferenceable(32) %ref.tmp377) #3
  br label %if.end457

lpad342:                                          ; preds = %invoke.cont341
  %202 = landingpad { ptr, i32 }
          cleanup
  %203 = extractvalue { ptr, i32 } %202, 0
  store ptr %203, ptr %exn.slot, align 8
  %204 = extractvalue { ptr, i32 } %202, 1
  store i32 %204, ptr %ehselector.slot, align 4
  call void @_ZNSt7__cxx1112basic_stringIcSt11char_traitsIcESaIcEED1Ev(ptr noundef nonnull align 8 dereferenceable(32) %ref.tmp340) #3
  br label %ehcleanup466

lpad351:                                          ; preds = %invoke.cont354, %invoke.cont352, %invoke.cont350
  %205 = landingpad { ptr, i32 }
          cleanup
  %206 = extractvalue { ptr, i32 } %205, 0
  store ptr %206, ptr %exn.slot, align 8
  %207 = extractvalue { ptr, i32 } %205, 1
  store i32 %207, ptr %ehselector.slot, align 4
  br label %ehcleanup361

lpad356:                                          ; preds = %invoke.cont355
  %208 = landingpad { ptr, i32 }
          cleanup
  %209 = extractvalue { ptr, i32 } %208, 0
  store ptr %209, ptr %exn.slot, align 8
  %210 = extractvalue { ptr, i32 } %208, 1
  store i32 %210, ptr %ehselector.slot, align 4
  call void @_ZNSt7__cxx1112basic_stringIcSt11char_traitsIcESaIcEED1Ev(ptr noundef nonnull align 8 dereferenceable(32) %ref.tmp347) #3
  br label %ehcleanup361

ehcleanup361:                                     ; preds = %lpad356, %lpad351
  call void @_ZNSt7__cxx1112basic_stringIcSt11char_traitsIcESaIcEED1Ev(ptr noundef nonnull align 8 dereferenceable(32) %ref.tmp349) #3
  br label %ehcleanup466

lpad366:                                          ; preds = %invoke.cont369, %invoke.cont367, %invoke.cont365
  %211 = landingpad { ptr, i32 }
          cleanup
  %212 = extractvalue { ptr, i32 } %211, 0
  store ptr %212, ptr %exn.slot, align 8
  %213 = extractvalue { ptr, i32 } %211, 1
  store i32 %213, ptr %ehselector.slot, align 4
  br label %ehcleanup376

lpad371:                                          ; preds = %invoke.cont370
  %214 = landingpad { ptr, i32 }
          cleanup
  %215 = extractvalue { ptr, i32 } %214, 0
  store ptr %215, ptr %exn.slot, align 8
  %216 = extractvalue { ptr, i32 } %214, 1
  store i32 %216, ptr %ehselector.slot, align 4
  call void @_ZNSt7__cxx1112basic_stringIcSt11char_traitsIcESaIcEED1Ev(ptr noundef nonnull align 8 dereferenceable(32) %ref.tmp362) #3
  br label %ehcleanup376

ehcleanup376:                                     ; preds = %lpad371, %lpad366
  call void @_ZNSt7__cxx1112basic_stringIcSt11char_traitsIcESaIcEED1Ev(ptr noundef nonnull align 8 dereferenceable(32) %ref.tmp364) #3
  br label %ehcleanup466

lpad379:                                          ; preds = %invoke.cont378
  %217 = landingpad { ptr, i32 }
          cleanup
  %218 = extractvalue { ptr, i32 } %217, 0
  store ptr %218, ptr %exn.slot, align 8
  %219 = extractvalue { ptr, i32 } %217, 1
  store i32 %219, ptr %ehselector.slot, align 4
  call void @_ZNSt7__cxx1112basic_stringIcSt11char_traitsIcESaIcEED1Ev(ptr noundef nonnull align 8 dereferenceable(32) %ref.tmp377) #3
  br label %ehcleanup466

if.else384:                                       ; preds = %invoke.cont337
  %220 = load ptr, ptr %variables.addr, align 8
  %call386 = invoke noundef nonnull align 8 dereferenceable(32) ptr @_ZN4absl12lts_2023080218container_internal12raw_hash_mapINS1_17FlatHashMapPolicyISt17basic_string_viewIcSt11char_traitsIcEENSt7__cxx1112basic_stringIcS6_SaIcEEEEENS1_10StringHashENS1_8StringEqESaISt4pairIKS7_SB_EEEixIA26_cSC_EEDTclsrT0_5valueclL_ZSt9addressofISH_EPT_RSO_EclL_ZSt7declvalIRSH_EDTcl9__declvalISO_ELi0EEEvEEEEERKSO_(ptr noundef nonnull align 8 dereferenceable(32) %220, ptr noundef nonnull align 1 dereferenceable(26) @.str.104)
          to label %invoke.cont385 unwind label %lpad93

invoke.cont385:                                   ; preds = %if.else384
  %call388 = invoke noundef nonnull align 8 dereferenceable(32) ptr @_ZNSt7__cxx1112basic_stringIcSt11char_traitsIcESaIcEEaSEPKc(ptr noundef nonnull align 8 dereferenceable(32) %call386, ptr noundef @.str.95)
          to label %invoke.cont387 unwind label %lpad93

invoke.cont387:                                   ; preds = %invoke.cont385
  %221 = load ptr, ptr %variables.addr, align 8
  %call390 = invoke noundef nonnull align 8 dereferenceable(32) ptr @_ZN4absl12lts_2023080218container_internal12raw_hash_mapINS1_17FlatHashMapPolicyISt17basic_string_viewIcSt11char_traitsIcEENSt7__cxx1112basic_stringIcS6_SaIcEEEEENS1_10StringHashENS1_8StringEqESaISt4pairIKS7_SB_EEEixIA28_cSC_EEDTclsrT0_5valueclL_ZSt9addressofISH_EPT_RSO_EclL_ZSt7declvalIRSH_EDTcl9__declvalISO_ELi0EEEvEEEEERKSO_(ptr noundef nonnull align 8 dereferenceable(32) %221, ptr noundef nonnull align 1 dereferenceable(28) @.str.105)
          to label %invoke.cont389 unwind label %lpad93

invoke.cont389:                                   ; preds = %invoke.cont387
  %call392 = invoke noundef nonnull align 8 dereferenceable(32) ptr @_ZNSt7__cxx1112basic_stringIcSt11char_traitsIcESaIcEEaSEPKc(ptr noundef nonnull align 8 dereferenceable(32) %call390, ptr noundef @.str.95)
          to label %invoke.cont391 unwind label %lpad93

invoke.cont391:                                   ; preds = %invoke.cont389
  %222 = load ptr, ptr %descriptor.addr, align 8
  %call394 = invoke noundef i32 @_ZNK6google8protobuf15FieldDescriptor4typeEv(ptr noundef nonnull align 8 dereferenceable(88) %222)
          to label %invoke.cont393 unwind label %lpad93

invoke.cont393:                                   ; preds = %invoke.cont391
  switch i32 %call394, label %sw.default437 [
    i32 12, label %sw.bb395
    i32 2, label %sw.bb409
    i32 1, label %sw.bb423
  ]

sw.bb395:                                         ; preds = %invoke.cont393
  invoke void @_ZN4absl12lts_202308028AlphaNumC2EPKc(ptr noundef nonnull align 8 dereferenceable(48) %ref.tmp397, ptr noundef @.str.107)
          to label %invoke.cont398 unwind label %lpad93

invoke.cont398:                                   ; preds = %sw.bb395
  invoke void @_ZN4absl12lts_202308028AlphaNumC2ISaIcEEERKNSt7__cxx1112basic_stringIcSt11char_traitsIcET_EE(ptr noundef nonnull align 8 dereferenceable(48) %ref.tmp399, ptr noundef nonnull align 8 dereferenceable(32) %name)
          to label %invoke.cont400 unwind label %lpad93

invoke.cont400:                                   ; preds = %invoke.cont398
  invoke void @_ZN4absl12lts_202308028AlphaNumC2EPKc(ptr noundef nonnull align 8 dereferenceable(48) %ref.tmp401, ptr noundef @.str.108)
          to label %invoke.cont402 unwind label %lpad93

invoke.cont402:                                   ; preds = %invoke.cont400
  invoke void @_ZN4absl12lts_202308026StrCatB5cxx11ERKNS0_8AlphaNumES3_S3_(ptr sret(%"class.std::__cxx11::basic_string") align 8 %ref.tmp396, ptr noundef nonnull align 8 dereferenceable(48) %ref.tmp397, ptr noundef nonnull align 8 dereferenceable(48) %ref.tmp399, ptr noundef nonnull align 8 dereferenceable(48) %ref.tmp401)
          to label %invoke.cont403 unwind label %lpad93

invoke.cont403:                                   ; preds = %invoke.cont402
  %223 = load ptr, ptr %variables.addr, align 8
  %call406 = invoke noundef nonnull align 8 dereferenceable(32) ptr @_ZN4absl12lts_2023080218container_internal12raw_hash_mapINS1_17FlatHashMapPolicyISt17basic_string_viewIcSt11char_traitsIcEENSt7__cxx1112basic_stringIcS6_SaIcEEEEENS1_10StringHashENS1_8StringEqESaISt4pairIKS7_SB_EEEixIA25_cSC_EEDTclsrT0_5valueclL_ZSt9addressofISH_EPT_RSO_EclL_ZSt7declvalIRSH_EDTcl9__declvalISO_ELi0EEEvEEEEERKSO_(ptr noundef nonnull align 8 dereferenceable(32) %223, ptr noundef nonnull align 1 dereferenceable(25) @.str.106)
          to label %invoke.cont405 unwind label %lpad404

invoke.cont405:                                   ; preds = %invoke.cont403
  %call407 = call noundef nonnull align 8 dereferenceable(32) ptr @_ZNSt7__cxx1112basic_stringIcSt11char_traitsIcESaIcEEaSEOS4_(ptr noundef nonnull align 8 dereferenceable(32) %call406, ptr noundef nonnull align 8 dereferenceable(32) %ref.tmp396) #3
  call void @_ZNSt7__cxx1112basic_stringIcSt11char_traitsIcESaIcEED1Ev(ptr noundef nonnull align 8 dereferenceable(32) %ref.tmp396) #3
  br label %sw.epilog456

lpad404:                                          ; preds = %invoke.cont403
  %224 = landingpad { ptr, i32 }
          cleanup
  %225 = extractvalue { ptr, i32 } %224, 0
  store ptr %225, ptr %exn.slot, align 8
  %226 = extractvalue { ptr, i32 } %224, 1
  store i32 %226, ptr %ehselector.slot, align 4
  call void @_ZNSt7__cxx1112basic_stringIcSt11char_traitsIcESaIcEED1Ev(ptr noundef nonnull align 8 dereferenceable(32) %ref.tmp396) #3
  br label %ehcleanup466

sw.bb409:                                         ; preds = %invoke.cont393
  invoke void @_ZN4absl12lts_202308028AlphaNumC2EPKc(ptr noundef nonnull align 8 dereferenceable(48) %ref.tmp411, ptr noundef @.str.109)
          to label %invoke.cont412 unwind label %lpad93

invoke.cont412:                                   ; preds = %sw.bb409
  invoke void @_ZN4absl12lts_202308028AlphaNumC2ISaIcEEERKNSt7__cxx1112basic_stringIcSt11char_traitsIcET_EE(ptr noundef nonnull align 8 dereferenceable(48) %ref.tmp413, ptr noundef nonnull align 8 dereferenceable(32) %name)
          to label %invoke.cont414 unwind label %lpad93

invoke.cont414:                                   ; preds = %invoke.cont412
  invoke void @_ZN4absl12lts_202308028AlphaNumC2EPKc(ptr noundef nonnull align 8 dereferenceable(48) %ref.tmp415, ptr noundef @.str.110)
          to label %invoke.cont416 unwind label %lpad93

invoke.cont416:                                   ; preds = %invoke.cont414
  invoke void @_ZN4absl12lts_202308026StrCatB5cxx11ERKNS0_8AlphaNumES3_S3_(ptr sret(%"class.std::__cxx11::basic_string") align 8 %ref.tmp410, ptr noundef nonnull align 8 dereferenceable(48) %ref.tmp411, ptr noundef nonnull align 8 dereferenceable(48) %ref.tmp413, ptr noundef nonnull align 8 dereferenceable(48) %ref.tmp415)
          to label %invoke.cont417 unwind label %lpad93

invoke.cont417:                                   ; preds = %invoke.cont416
  %227 = load ptr, ptr %variables.addr, align 8
  %call420 = invoke noundef nonnull align 8 dereferenceable(32) ptr @_ZN4absl12lts_2023080218container_internal12raw_hash_mapINS1_17FlatHashMapPolicyISt17basic_string_viewIcSt11char_traitsIcEENSt7__cxx1112basic_stringIcS6_SaIcEEEEENS1_10StringHashENS1_8StringEqESaISt4pairIKS7_SB_EEEixIA25_cSC_EEDTclsrT0_5valueclL_ZSt9addressofISH_EPT_RSO_EclL_ZSt7declvalIRSH_EDTcl9__declvalISO_ELi0EEEvEEEEERKSO_(ptr noundef nonnull align 8 dereferenceable(32) %227, ptr noundef nonnull align 1 dereferenceable(25) @.str.106)
          to label %invoke.cont419 unwind label %lpad418

invoke.cont419:                                   ; preds = %invoke.cont417
  %call421 = call noundef nonnull align 8 dereferenceable(32) ptr @_ZNSt7__cxx1112basic_stringIcSt11char_traitsIcESaIcEEaSEOS4_(ptr noundef nonnull align 8 dereferenceable(32) %call420, ptr noundef nonnull align 8 dereferenceable(32) %ref.tmp410) #3
  call void @_ZNSt7__cxx1112basic_stringIcSt11char_traitsIcESaIcEED1Ev(ptr noundef nonnull align 8 dereferenceable(32) %ref.tmp410) #3
  br label %sw.epilog456

lpad418:                                          ; preds = %invoke.cont417
  %228 = landingpad { ptr, i32 }
          cleanup
  %229 = extractvalue { ptr, i32 } %228, 0
  store ptr %229, ptr %exn.slot, align 8
  %230 = extractvalue { ptr, i32 } %228, 1
  store i32 %230, ptr %ehselector.slot, align 4
  call void @_ZNSt7__cxx1112basic_stringIcSt11char_traitsIcESaIcEED1Ev(ptr noundef nonnull align 8 dereferenceable(32) %ref.tmp410) #3
  br label %ehcleanup466

sw.bb423:                                         ; preds = %invoke.cont393
  invoke void @_ZN4absl12lts_202308028AlphaNumC2EPKc(ptr noundef nonnull align 8 dereferenceable(48) %ref.tmp425, ptr noundef @.str.111)
          to label %invoke.cont426 unwind label %lpad93

invoke.cont426:                                   ; preds = %sw.bb423
  invoke void @_ZN4absl12lts_202308028AlphaNumC2ISaIcEEERKNSt7__cxx1112basic_stringIcSt11char_traitsIcET_EE(ptr noundef nonnull align 8 dereferenceable(48) %ref.tmp427, ptr noundef nonnull align 8 dereferenceable(32) %name)
          to label %invoke.cont428 unwind label %lpad93

invoke.cont428:                                   ; preds = %invoke.cont426
  invoke void @_ZN4absl12lts_202308028AlphaNumC2EPKc(ptr noundef nonnull align 8 dereferenceable(48) %ref.tmp429, ptr noundef @.str.110)
          to label %invoke.cont430 unwind label %lpad93

invoke.cont430:                                   ; preds = %invoke.cont428
  invoke void @_ZN4absl12lts_202308026StrCatB5cxx11ERKNS0_8AlphaNumES3_S3_(ptr sret(%"class.std::__cxx11::basic_string") align 8 %ref.tmp424, ptr noundef nonnull align 8 dereferenceable(48) %ref.tmp425, ptr noundef nonnull align 8 dereferenceable(48) %ref.tmp427, ptr noundef nonnull align 8 dereferenceable(48) %ref.tmp429)
          to label %invoke.cont431 unwind label %lpad93

invoke.cont431:                                   ; preds = %invoke.cont430
  %231 = load ptr, ptr %variables.addr, align 8
  %call434 = invoke noundef nonnull align 8 dereferenceable(32) ptr @_ZN4absl12lts_2023080218container_internal12raw_hash_mapINS1_17FlatHashMapPolicyISt17basic_string_viewIcSt11char_traitsIcEENSt7__cxx1112basic_stringIcS6_SaIcEEEEENS1_10StringHashENS1_8StringEqESaISt4pairIKS7_SB_EEEixIA25_cSC_EEDTclsrT0_5valueclL_ZSt9addressofISH_EPT_RSO_EclL_ZSt7declvalIRSH_EDTcl9__declvalISO_ELi0EEEvEEEEERKSO_(ptr noundef nonnull align 8 dereferenceable(32) %231, ptr noundef nonnull align 1 dereferenceable(25) @.str.106)
          to label %invoke.cont433 unwind label %lpad432

invoke.cont433:                                   ; preds = %invoke.cont431
  %call435 = call noundef nonnull align 8 dereferenceable(32) ptr @_ZNSt7__cxx1112basic_stringIcSt11char_traitsIcESaIcEEaSEOS4_(ptr noundef nonnull align 8 dereferenceable(32) %call434, ptr noundef nonnull align 8 dereferenceable(32) %ref.tmp424) #3
  call void @_ZNSt7__cxx1112basic_stringIcSt11char_traitsIcESaIcEED1Ev(ptr noundef nonnull align 8 dereferenceable(32) %ref.tmp424) #3
  br label %sw.epilog456

lpad432:                                          ; preds = %invoke.cont431
  %232 = landingpad { ptr, i32 }
          cleanup
  %233 = extractvalue { ptr, i32 } %232, 0
  store ptr %233, ptr %exn.slot, align 8
  %234 = extractvalue { ptr, i32 } %232, 1
  store i32 %234, ptr %ehselector.slot, align 4
  call void @_ZNSt7__cxx1112basic_stringIcSt11char_traitsIcESaIcEED1Ev(ptr noundef nonnull align 8 dereferenceable(32) %ref.tmp424) #3
  br label %ehcleanup466

sw.default437:                                    ; preds = %invoke.cont393
  %235 = load ptr, ptr %variables.addr, align 8
  invoke void @_ZN4absl12lts_202308028AlphaNumC2ISaIcEEERKNSt7__cxx1112basic_stringIcSt11char_traitsIcET_EE(ptr noundef nonnull align 8 dereferenceable(48) %ref.tmp440, ptr noundef nonnull align 8 dereferenceable(32) %name)
          to label %invoke.cont441 unwind label %lpad93

invoke.cont441:                                   ; preds = %sw.default437
  invoke void @_ZN4absl12lts_202308028AlphaNumC2EPKc(ptr noundef nonnull align 8 dereferenceable(48) %ref.tmp442, ptr noundef @.str.112)
          to label %invoke.cont443 unwind label %lpad93

invoke.cont443:                                   ; preds = %invoke.cont441
  %236 = load ptr, ptr %variables.addr, align 8
  %call446 = invoke noundef nonnull align 8 dereferenceable(32) ptr @_ZN4absl12lts_2023080218container_internal12raw_hash_mapINS1_17FlatHashMapPolicyISt17basic_string_viewIcSt11char_traitsIcEENSt7__cxx1112basic_stringIcS6_SaIcEEEEENS1_10StringHashENS1_8StringEqESaISt4pairIKS7_SB_EEEixIA8_cSC_EEDTclsrT0_5valueclL_ZSt9addressofISH_EPT_RSO_EclL_ZSt7declvalIRSH_EDTcl9__declvalISO_ELi0EEEvEEEEERKSO_(ptr noundef nonnull align 8 dereferenceable(32) %236, ptr noundef nonnull align 1 dereferenceable(8) @.str.61)
          to label %invoke.cont445 unwind label %lpad93

invoke.cont445:                                   ; preds = %invoke.cont443
  invoke void @_ZN4absl12lts_202308028AlphaNumC2ISaIcEEERKNSt7__cxx1112basic_stringIcSt11char_traitsIcET_EE(ptr noundef nonnull align 8 dereferenceable(48) %ref.tmp444, ptr noundef nonnull align 8 dereferenceable(32) %call446)
          to label %invoke.cont447 unwind label %lpad93

invoke.cont447:                                   ; preds = %invoke.cont445
  invoke void @_ZN4absl12lts_202308026StrCatB5cxx11ERKNS0_8AlphaNumES3_S3_(ptr sret(%"class.std::__cxx11::basic_string") align 8 %ref.tmp439, ptr noundef nonnull align 8 dereferenceable(48) %ref.tmp440, ptr noundef nonnull align 8 dereferenceable(48) %ref.tmp442, ptr noundef nonnull align 8 dereferenceable(48) %ref.tmp444)
          to label %invoke.cont448 unwind label %lpad93

invoke.cont448:                                   ; preds = %invoke.cont447
  invoke void @_ZNSt4pairISt17basic_string_viewIcSt11char_traitsIcEENSt7__cxx1112basic_stringIcS2_SaIcEEEEC2IRA25_KcS7_TnNSt9enable_ifIXaaclsr5_PCCPE22_MoveConstructiblePairIT_T0_EEclsr5_PCCPE30_ImplicitlyMoveConvertiblePairISE_SF_EEEbE4typeELb1EEEOSE_OSF_(ptr noundef nonnull align 8 dereferenceable(48) %ref.tmp438, ptr noundef nonnull align 1 dereferenceable(25) @.str.106, ptr noundef nonnull align 8 dereferenceable(32) %ref.tmp439)
          to label %invoke.cont450 unwind label %lpad449

invoke.cont450:                                   ; preds = %invoke.cont448
  invoke void @_ZN4absl12lts_2023080218container_internal12raw_hash_setINS1_17FlatHashMapPolicyISt17basic_string_viewIcSt11char_traitsIcEENSt7__cxx1112basic_stringIcS6_SaIcEEEEENS1_10StringHashENS1_8StringEqESaISt4pairIKS7_SB_EEE6insertEOSF_IS7_SB_E(ptr sret(%"struct.std::pair") align 8 %tmp451, ptr noundef nonnull align 8 dereferenceable(32) %235, ptr noundef nonnull align 8 dereferenceable(48) %ref.tmp438)
          to label %invoke.cont453 unwind label %lpad452

invoke.cont453:                                   ; preds = %invoke.cont450
  call void @_ZNSt4pairISt17basic_string_viewIcSt11char_traitsIcEENSt7__cxx1112basic_stringIcS2_SaIcEEEED2Ev(ptr noundef nonnull align 8 dereferenceable(48) %ref.tmp438) #3
  call void @_ZNSt7__cxx1112basic_stringIcSt11char_traitsIcESaIcEED1Ev(ptr noundef nonnull align 8 dereferenceable(32) %ref.tmp439) #3
  br label %sw.epilog456

lpad449:                                          ; preds = %invoke.cont448
  %237 = landingpad { ptr, i32 }
          cleanup
  %238 = extractvalue { ptr, i32 } %237, 0
  store ptr %238, ptr %exn.slot, align 8
  %239 = extractvalue { ptr, i32 } %237, 1
  store i32 %239, ptr %ehselector.slot, align 4
  br label %ehcleanup455

lpad452:                                          ; preds = %invoke.cont450
  %240 = landingpad { ptr, i32 }
          cleanup
  %241 = extractvalue { ptr, i32 } %240, 0
  store ptr %241, ptr %exn.slot, align 8
  %242 = extractvalue { ptr, i32 } %240, 1
  store i32 %242, ptr %ehselector.slot, align 4
  call void @_ZNSt4pairISt17basic_string_viewIcSt11char_traitsIcEENSt7__cxx1112basic_stringIcS2_SaIcEEEED2Ev(ptr noundef nonnull align 8 dereferenceable(48) %ref.tmp438) #3
  br label %ehcleanup455

ehcleanup455:                                     ; preds = %lpad452, %lpad449
  call void @_ZNSt7__cxx1112basic_stringIcSt11char_traitsIcESaIcEED1Ev(ptr noundef nonnull align 8 dereferenceable(32) %ref.tmp439) #3
  br label %ehcleanup466

sw.epilog456:                                     ; preds = %invoke.cont453, %invoke.cont433, %invoke.cont419, %invoke.cont405
  br label %if.end457

if.end457:                                        ; preds = %sw.epilog456, %invoke.cont380
  %243 = load ptr, ptr %variables.addr, align 8
  %call459 = invoke noundef nonnull align 8 dereferenceable(32) ptr @_ZN4absl12lts_2023080218container_internal12raw_hash_mapINS1_17FlatHashMapPolicyISt17basic_string_viewIcSt11char_traitsIcEENSt7__cxx1112basic_stringIcS6_SaIcEEEEENS1_10StringHashENS1_8StringEqESaISt4pairIKS7_SB_EEEixIA2_cSC_EEDTclsrT0_5valueclL_ZSt9addressofISH_EPT_RSO_EclL_ZSt7declvalIRSH_EDTcl9__declvalISO_ELi0EEEvEEEEERKSO_(ptr noundef nonnull align 8 dereferenceable(32) %243, ptr noundef nonnull align 1 dereferenceable(2) @.str.2)
          to label %invoke.cont458 unwind label %lpad93

invoke.cont458:                                   ; preds = %if.end457
  %call461 = invoke noundef nonnull align 8 dereferenceable(32) ptr @_ZNSt7__cxx1112basic_stringIcSt11char_traitsIcESaIcEEaSEPKc(ptr noundef nonnull align 8 dereferenceable(32) %call459, ptr noundef @.str.95)
          to label %invoke.cont460 unwind label %lpad93

invoke.cont460:                                   ; preds = %invoke.cont458
  %244 = load ptr, ptr %variables.addr, align 8
  %call463 = invoke noundef nonnull align 8 dereferenceable(32) ptr @_ZN4absl12lts_2023080218container_internal12raw_hash_mapINS1_17FlatHashMapPolicyISt17basic_string_viewIcSt11char_traitsIcEENSt7__cxx1112basic_stringIcS6_SaIcEEEEENS1_10StringHashENS1_8StringEqESaISt4pairIKS7_SB_EEEixIA2_cSC_EEDTclsrT0_5valueclL_ZSt9addressofISH_EPT_RSO_EclL_ZSt7declvalIRSH_EDTcl9__declvalISO_ELi0EEEvEEEEERKSO_(ptr noundef nonnull align 8 dereferenceable(32) %244, ptr noundef nonnull align 1 dereferenceable(2) @.str.3)
          to label %invoke.cont462 unwind label %lpad93

invoke.cont462:                                   ; preds = %invoke.cont460
  %call465 = invoke noundef nonnull align 8 dereferenceable(32) ptr @_ZNSt7__cxx1112basic_stringIcSt11char_traitsIcESaIcEEaSEPKc(ptr noundef nonnull align 8 dereferenceable(32) %call463, ptr noundef @.str.95)
          to label %invoke.cont464 unwind label %lpad93

invoke.cont464:                                   ; preds = %invoke.cont462
  call void @_ZNSt7__cxx1112basic_stringIcSt11char_traitsIcESaIcEED1Ev(ptr noundef nonnull align 8 dereferenceable(32) %name) #3
  call void @_ZNSt7__cxx1112basic_stringIcSt11char_traitsIcESaIcEED1Ev(ptr noundef nonnull align 8 dereferenceable(32) %capitalized_type) #3
  ret void

ehcleanup466:                                     ; preds = %ehcleanup455, %lpad432, %lpad418, %lpad404, %lpad379, %ehcleanup376, %ehcleanup361, %lpad342, %lpad331, %cleanup.done320, %ehcleanup275, %lpad246, %lpad235, %lpad224, %lpad213, %ehcleanup202, %lpad180, %lpad163, %lpad150, %lpad137, %lpad124, %lpad113, %lpad100, %lpad93
  call void @_ZNSt7__cxx1112basic_stringIcSt11char_traitsIcESaIcEED1Ev(ptr noundef nonnull align 8 dereferenceable(32) %name) #3
  br label %ehcleanup467

ehcleanup467:                                     ; preds = %ehcleanup466, %lpad87
  call void @_ZNSt7__cxx1112basic_stringIcSt11char_traitsIcESaIcEED1Ev(ptr noundef nonnull align 8 dereferenceable(32) %capitalized_type) #3
  br label %eh.resume

eh.resume:                                        ; preds = %ehcleanup467, %lpad77, %lpad67, %ehcleanup63, %ehcleanup46, %lpad34, %ehcleanup31, %ehcleanup19, %ehcleanup
  %exn = load ptr, ptr %exn.slot, align 8
  %sel = load i32, ptr %ehselector.slot, align 4
  %lpad.val = insertvalue { ptr, i32 } poison, ptr %exn, 0
  %lpad.val468 = insertvalue { ptr, i32 } %lpad.val, i32 %sel, 1
  resume { ptr, i32 } %lpad.val468
}

declare noundef ptr @_ZNK6google8protobuf8compiler4java7Context21GetFieldGeneratorInfoEPKNS0_15FieldDescriptorE(ptr noundef nonnull align 8 dereferenceable(152), ptr noundef) #1

; Function Attrs: mustprogress nounwind uwtable
define linkonce_odr hidden void @_ZN4absl12lts_2023080213flat_hash_mapISt17basic_string_viewIcSt11char_traitsIcEENSt7__cxx1112basic_stringIcS4_SaIcEEENS0_18container_internal10StringHashENSA_8StringEqESaISt4pairIKS5_S9_EEED2Ev(ptr noundef nonnull align 8 dereferenceable(32) %this) unnamed_addr #5 comdat align 2 {
entry:
  %this.addr = alloca ptr, align 8
  store ptr %this, ptr %this.addr, align 8
  %this1 = load ptr, ptr %this.addr, align 8
  call void @_ZN4absl12lts_2023080218container_internal12raw_hash_mapINS1_17FlatHashMapPolicyISt17basic_string_viewIcSt11char_traitsIcEENSt7__cxx1112basic_stringIcS6_SaIcEEEEENS1_10StringHashENS1_8StringEqESaISt4pairIKS7_SB_EEED2Ev(ptr noundef nonnull align 8 dereferenceable(32) %this1) #3
  ret void
}

; Function Attrs: nounwind
declare void @_ZN6google8protobuf8compiler4java27ImmutableFieldLiteGeneratorD2Ev(ptr noundef nonnull align 8 dereferenceable(8)) unnamed_addr #2

; Function Attrs: mustprogress nounwind uwtable
define hidden void @_ZN6google8protobuf8compiler4java36ImmutablePrimitiveFieldLiteGeneratorD2Ev(ptr noundef nonnull align 8 dereferenceable(72) %this) unnamed_addr #5 align 2 {
entry:
  %this.addr = alloca ptr, align 8
  store ptr %this, ptr %this.addr, align 8
  %this1 = load ptr, ptr %this.addr, align 8
  store ptr getelementptr inbounds ({ [12 x ptr] }, ptr @_ZTVN6google8protobuf8compiler4java36ImmutablePrimitiveFieldLiteGeneratorE, i32 0, inrange i32 0, i32 2), ptr %this1, align 8
  %variables_ = getelementptr inbounds %"class.google::protobuf::compiler::java::ImmutablePrimitiveFieldLiteGenerator", ptr %this1, i32 0, i32 2
  call void @_ZN4absl12lts_2023080213flat_hash_mapISt17basic_string_viewIcSt11char_traitsIcEENSt7__cxx1112basic_stringIcS4_SaIcEEENS0_18container_internal10StringHashENSA_8StringEqESaISt4pairIKS5_S9_EEED2Ev(ptr noundef nonnull align 8 dereferenceable(32) %variables_) #3
  call void @_ZN6google8protobuf8compiler4java27ImmutableFieldLiteGeneratorD2Ev(ptr noundef nonnull align 8 dereferenceable(8) %this1) #3
  ret void
}

; Function Attrs: mustprogress nounwind uwtable
define hidden void @_ZN6google8protobuf8compiler4java36ImmutablePrimitiveFieldLiteGeneratorD0Ev(ptr noundef nonnull align 8 dereferenceable(72) %this) unnamed_addr #5 align 2 {
entry:
  %this.addr = alloca ptr, align 8
  store ptr %this, ptr %this.addr, align 8
  %this1 = load ptr, ptr %this.addr, align 8
  call void @_ZN6google8protobuf8compiler4java36ImmutablePrimitiveFieldLiteGeneratorD1Ev(ptr noundef nonnull align 8 dereferenceable(72) %this1) #3
  call void @_ZdlPv(ptr noundef %this1) #17
  ret void
}

; Function Attrs: nobuiltin nounwind
declare void @_ZdlPv(ptr noundef) #6

; Function Attrs: mustprogress uwtable
define hidden noundef i32 @_ZNK6google8protobuf8compiler4java36ImmutablePrimitiveFieldLiteGenerator20GetNumBitsForMessageEv(ptr noundef nonnull align 8 dereferenceable(72) %this) unnamed_addr #4 align 2 {
entry:
  %this.addr = alloca ptr, align 8
  store ptr %this, ptr %this.addr, align 8
  %this1 = load ptr, ptr %this.addr, align 8
  %descriptor_ = getelementptr inbounds %"class.google::protobuf::compiler::java::ImmutablePrimitiveFieldLiteGenerator", ptr %this1, i32 0, i32 1
  %0 = load ptr, ptr %descriptor_, align 8
  %call = call noundef zeroext i1 @_ZN6google8protobuf8compiler4java9HasHasbitEPKNS0_15FieldDescriptorE(ptr noundef %0)
  %cond = select i1 %call, i32 1, i32 0
  ret i32 %cond
}

; Function Attrs: mustprogress uwtable
define linkonce_odr hidden noundef zeroext i1 @_ZN6google8protobuf8compiler4java9HasHasbitEPKNS0_15FieldDescriptorE(ptr noundef %descriptor) #4 comdat {
entry:
  %descriptor.addr = alloca ptr, align 8
  store ptr %descriptor, ptr %descriptor.addr, align 8
  %0 = load ptr, ptr %descriptor.addr, align 8
  %call = call noundef zeroext i1 @_ZN6google8protobuf8internal3cpp9HasHasbitEPKNS0_15FieldDescriptorE(ptr noundef %0)
  ret i1 %call
}

; Function Attrs: mustprogress uwtable
define hidden void @_ZNK6google8protobuf8compiler4java36ImmutablePrimitiveFieldLiteGenerator24GenerateInterfaceMembersEPNS0_2io7PrinterE(ptr noundef nonnull align 8 dereferenceable(72) %this, ptr noundef %printer) unnamed_addr #4 align 2 personality ptr @__gxx_personality_v0 {
entry:
  %this.addr = alloca ptr, align 8
  %printer.addr = alloca ptr, align 8
  %agg.tmp = alloca %"struct.google::protobuf::compiler::java::Options", align 8
  %exn.slot = alloca ptr, align 8
  %ehselector.slot = alloca i32, align 4
  %agg.tmp4 = alloca %"class.std::basic_string_view", align 8
  %agg.tmp6 = alloca %"struct.google::protobuf::compiler::java::Options", align 8
  %agg.tmp12 = alloca %"class.std::basic_string_view", align 8
  %agg.tmp13 = alloca %"class.std::basic_string_view", align 8
  %agg.tmp14 = alloca %"class.std::basic_string_view", align 8
  %agg.tmp16 = alloca %"class.std::optional.64", align 4
  store ptr %this, ptr %this.addr, align 8
  store ptr %printer, ptr %printer.addr, align 8
  %this1 = load ptr, ptr %this.addr, align 8
  %descriptor_ = getelementptr inbounds %"class.google::protobuf::compiler::java::ImmutablePrimitiveFieldLiteGenerator", ptr %this1, i32 0, i32 1
  %0 = load ptr, ptr %descriptor_, align 8
  %call = call noundef zeroext i1 @_ZNK6google8protobuf15FieldDescriptor12has_presenceEv(ptr noundef nonnull align 8 dereferenceable(88) %0)
  br i1 %call, label %if.then, label %if.end

if.then:                                          ; preds = %entry
  %1 = load ptr, ptr %printer.addr, align 8
  %descriptor_2 = getelementptr inbounds %"class.google::protobuf::compiler::java::ImmutablePrimitiveFieldLiteGenerator", ptr %this1, i32 0, i32 1
  %2 = load ptr, ptr %descriptor_2, align 8
  %context_ = getelementptr inbounds %"class.google::protobuf::compiler::java::ImmutablePrimitiveFieldLiteGenerator", ptr %this1, i32 0, i32 4
  %3 = load ptr, ptr %context_, align 8
  %call3 = call noundef nonnull align 8 dereferenceable(73) ptr @_ZNK6google8protobuf8compiler4java7Context7optionsEv(ptr noundef nonnull align 8 dereferenceable(152) %3)
  call void @_ZN6google8protobuf8compiler4java7OptionsC2ERKS3_(ptr noundef nonnull align 8 dereferenceable(73) %agg.tmp, ptr noundef nonnull align 8 dereferenceable(73) %call3)
  invoke void @_ZN6google8protobuf8compiler4java28WriteFieldAccessorDocCommentEPNS0_2io7PrinterEPKNS0_15FieldDescriptorENS2_17FieldAccessorTypeENS2_7OptionsEbb(ptr noundef %1, ptr noundef %2, i32 noundef 0, ptr noundef %agg.tmp, i1 noundef zeroext false, i1 noundef zeroext false)
          to label %invoke.cont unwind label %lpad

invoke.cont:                                      ; preds = %if.then
  call void @_ZN6google8protobuf8compiler4java7OptionsD2Ev(ptr noundef nonnull align 8 dereferenceable(73) %agg.tmp) #3
  %4 = load ptr, ptr %printer.addr, align 8
  %variables_ = getelementptr inbounds %"class.google::protobuf::compiler::java::ImmutablePrimitiveFieldLiteGenerator", ptr %this1, i32 0, i32 2
  call void @_ZNSt17basic_string_viewIcSt11char_traitsIcEEC2EPKc(ptr noundef nonnull align 8 dereferenceable(16) %agg.tmp4, ptr noundef @.str) #3
  %5 = getelementptr inbounds { i64, ptr }, ptr %agg.tmp4, i32 0, i32 0
  %6 = load i64, ptr %5, align 8
  %7 = getelementptr inbounds { i64, ptr }, ptr %agg.tmp4, i32 0, i32 1
  %8 = load ptr, ptr %7, align 8
  call void @_ZN6google8protobuf2io7Printer5PrintIN4absl12lts_2023080213flat_hash_mapISt17basic_string_viewIcSt11char_traitsIcEENSt7__cxx1112basic_stringIcS9_SaIcEEENS5_18container_internal10StringHashENSF_8StringEqESaISt4pairIKSA_SE_EEEEEEvRKT_SA_(ptr noundef nonnull align 8 dereferenceable(256) %4, ptr noundef nonnull align 8 dereferenceable(32) %variables_, i64 %6, ptr %8)
  br label %if.end

lpad:                                             ; preds = %if.then
  %9 = landingpad { ptr, i32 }
          cleanup
  %10 = extractvalue { ptr, i32 } %9, 0
  store ptr %10, ptr %exn.slot, align 8
  %11 = extractvalue { ptr, i32 } %9, 1
  store i32 %11, ptr %ehselector.slot, align 4
  call void @_ZN6google8protobuf8compiler4java7OptionsD2Ev(ptr noundef nonnull align 8 dereferenceable(73) %agg.tmp) #3
  br label %eh.resume

if.end:                                           ; preds = %invoke.cont, %entry
  %12 = load ptr, ptr %printer.addr, align 8
  %descriptor_5 = getelementptr inbounds %"class.google::protobuf::compiler::java::ImmutablePrimitiveFieldLiteGenerator", ptr %this1, i32 0, i32 1
  %13 = load ptr, ptr %descriptor_5, align 8
  %context_7 = getelementptr inbounds %"class.google::protobuf::compiler::java::ImmutablePrimitiveFieldLiteGenerator", ptr %this1, i32 0, i32 4
  %14 = load ptr, ptr %context_7, align 8
  %call8 = call noundef nonnull align 8 dereferenceable(73) ptr @_ZNK6google8protobuf8compiler4java7Context7optionsEv(ptr noundef nonnull align 8 dereferenceable(152) %14)
  call void @_ZN6google8protobuf8compiler4java7OptionsC2ERKS3_(ptr noundef nonnull align 8 dereferenceable(73) %agg.tmp6, ptr noundef nonnull align 8 dereferenceable(73) %call8)
  invoke void @_ZN6google8protobuf8compiler4java28WriteFieldAccessorDocCommentEPNS0_2io7PrinterEPKNS0_15FieldDescriptorENS2_17FieldAccessorTypeENS2_7OptionsEbb(ptr noundef %12, ptr noundef %13, i32 noundef 1, ptr noundef %agg.tmp6, i1 noundef zeroext false, i1 noundef zeroext false)
          to label %invoke.cont10 unwind label %lpad9

invoke.cont10:                                    ; preds = %if.end
  call void @_ZN6google8protobuf8compiler4java7OptionsD2Ev(ptr noundef nonnull align 8 dereferenceable(73) %agg.tmp6) #3
  %15 = load ptr, ptr %printer.addr, align 8
  %variables_11 = getelementptr inbounds %"class.google::protobuf::compiler::java::ImmutablePrimitiveFieldLiteGenerator", ptr %this1, i32 0, i32 2
  call void @_ZNSt17basic_string_viewIcSt11char_traitsIcEEC2EPKc(ptr noundef nonnull align 8 dereferenceable(16) %agg.tmp12, ptr noundef @.str.1) #3
  %16 = getelementptr inbounds { i64, ptr }, ptr %agg.tmp12, i32 0, i32 0
  %17 = load i64, ptr %16, align 8
  %18 = getelementptr inbounds { i64, ptr }, ptr %agg.tmp12, i32 0, i32 1
  %19 = load ptr, ptr %18, align 8
  call void @_ZN6google8protobuf2io7Printer5PrintIN4absl12lts_2023080213flat_hash_mapISt17basic_string_viewIcSt11char_traitsIcEENSt7__cxx1112basic_stringIcS9_SaIcEEENS5_18container_internal10StringHashENSF_8StringEqESaISt4pairIKSA_SE_EEEEEEvRKT_SA_(ptr noundef nonnull align 8 dereferenceable(256) %15, ptr noundef nonnull align 8 dereferenceable(32) %variables_11, i64 %17, ptr %19)
  %20 = load ptr, ptr %printer.addr, align 8
  call void @_ZNSt17basic_string_viewIcSt11char_traitsIcEEC2EPKc(ptr noundef nonnull align 8 dereferenceable(16) %agg.tmp13, ptr noundef @.str.2) #3
  call void @_ZNSt17basic_string_viewIcSt11char_traitsIcEEC2EPKc(ptr noundef nonnull align 8 dereferenceable(16) %agg.tmp14, ptr noundef @.str.3) #3
  %descriptor_15 = getelementptr inbounds %"class.google::protobuf::compiler::java::ImmutablePrimitiveFieldLiteGenerator", ptr %this1, i32 0, i32 1
  %21 = load ptr, ptr %descriptor_15, align 8
  call void @_ZNSt8optionalIN6google8protobuf2io19AnnotationCollector8SemanticEEC2ESt9nullopt_t(ptr noundef nonnull align 4 dereferenceable(8) %agg.tmp16) #3
  %22 = getelementptr inbounds { i64, ptr }, ptr %agg.tmp13, i32 0, i32 0
  %23 = load i64, ptr %22, align 8
  %24 = getelementptr inbounds { i64, ptr }, ptr %agg.tmp13, i32 0, i32 1
  %25 = load ptr, ptr %24, align 8
  %26 = getelementptr inbounds { i64, ptr }, ptr %agg.tmp14, i32 0, i32 0
  %27 = load i64, ptr %26, align 8
  %28 = getelementptr inbounds { i64, ptr }, ptr %agg.tmp14, i32 0, i32 1
  %29 = load ptr, ptr %28, align 8
  %coerce.dive = getelementptr inbounds %"class.std::optional.64", ptr %agg.tmp16, i32 0, i32 0
  %coerce.dive18 = getelementptr inbounds %"struct.std::_Optional_base.65", ptr %coerce.dive, i32 0, i32 0
  %30 = load i64, ptr %coerce.dive18, align 4
  call void @_ZN6google8protobuf2io7Printer8AnnotateINS0_15FieldDescriptorEEEvSt17basic_string_viewIcSt11char_traitsIcEES8_PKT_St8optionalINS1_19AnnotationCollector8SemanticEE(ptr noundef nonnull align 8 dereferenceable(256) %20, i64 %23, ptr %25, i64 %27, ptr %29, ptr noundef %21, i64 %30)
  ret void

lpad9:                                            ; preds = %if.end
  %31 = landingpad { ptr, i32 }
          cleanup
  %32 = extractvalue { ptr, i32 } %31, 0
  store ptr %32, ptr %exn.slot, align 8
  %33 = extractvalue { ptr, i32 } %31, 1
  store i32 %33, ptr %ehselector.slot, align 4
  call void @_ZN6google8protobuf8compiler4java7OptionsD2Ev(ptr noundef nonnull align 8 dereferenceable(73) %agg.tmp6) #3
  br label %eh.resume

eh.resume:                                        ; preds = %lpad9, %lpad
  %exn = load ptr, ptr %exn.slot, align 8
  %sel = load i32, ptr %ehselector.slot, align 4
  %lpad.val = insertvalue { ptr, i32 } poison, ptr %exn, 0
  %lpad.val19 = insertvalue { ptr, i32 } %lpad.val, i32 %sel, 1
  resume { ptr, i32 } %lpad.val19
}

declare noundef zeroext i1 @_ZNK6google8protobuf15FieldDescriptor12has_presenceEv(ptr noundef nonnull align 8 dereferenceable(88)) #1

declare void @_ZN6google8protobuf8compiler4java28WriteFieldAccessorDocCommentEPNS0_2io7PrinterEPKNS0_15FieldDescriptorENS2_17FieldAccessorTypeENS2_7OptionsEbb(ptr noundef, ptr noundef, i32 noundef, ptr noundef, i1 noundef zeroext, i1 noundef zeroext) #1

; Function Attrs: mustprogress nounwind uwtable
define linkonce_odr hidden noundef nonnull align 8 dereferenceable(73) ptr @_ZNK6google8protobuf8compiler4java7Context7optionsEv(ptr noundef nonnull align 8 dereferenceable(152) %this) #5 comdat align 2 {
entry:
  %this.addr = alloca ptr, align 8
  store ptr %this, ptr %this.addr, align 8
  %this1 = load ptr, ptr %this.addr, align 8
  %options_ = getelementptr inbounds %"class.google::protobuf::compiler::java::Context", ptr %this1, i32 0, i32 3
  ret ptr %options_
}

; Function Attrs: mustprogress uwtable
define linkonce_odr hidden void @_ZN6google8protobuf8compiler4java7OptionsC2ERKS3_(ptr noundef nonnull align 8 dereferenceable(73) %this, ptr noundef nonnull align 8 dereferenceable(73) %0) unnamed_addr #4 comdat align 2 personality ptr @__gxx_personality_v0 {
entry:
  %this.addr = alloca ptr, align 8
  %.addr = alloca ptr, align 8
  %exn.slot = alloca ptr, align 8
  %ehselector.slot = alloca i32, align 4
  store ptr %this, ptr %this.addr, align 8
  store ptr %0, ptr %.addr, align 8
  %this1 = load ptr, ptr %this.addr, align 8
  %generate_immutable_code = getelementptr inbounds %"struct.google::protobuf::compiler::java::Options", ptr %this1, i32 0, i32 0
  %1 = load ptr, ptr %.addr, align 8
  %generate_immutable_code2 = getelementptr inbounds %"struct.google::protobuf::compiler::java::Options", ptr %1, i32 0, i32 0
  call void @llvm.memcpy.p0.p0.i64(ptr align 8 %generate_immutable_code, ptr align 8 %generate_immutable_code2, i64 6, i1 false)
  %annotation_list_file = getelementptr inbounds %"struct.google::protobuf::compiler::java::Options", ptr %this1, i32 0, i32 7
  %2 = load ptr, ptr %.addr, align 8
  %annotation_list_file3 = getelementptr inbounds %"struct.google::protobuf::compiler::java::Options", ptr %2, i32 0, i32 7
  call void @_ZNSt7__cxx1112basic_stringIcSt11char_traitsIcESaIcEEC1ERKS4_(ptr noundef nonnull align 8 dereferenceable(32) %annotation_list_file, ptr noundef nonnull align 8 dereferenceable(32) %annotation_list_file3)
  %output_list_file = getelementptr inbounds %"struct.google::protobuf::compiler::java::Options", ptr %this1, i32 0, i32 8
  %3 = load ptr, ptr %.addr, align 8
  %output_list_file4 = getelementptr inbounds %"struct.google::protobuf::compiler::java::Options", ptr %3, i32 0, i32 8
  invoke void @_ZNSt7__cxx1112basic_stringIcSt11char_traitsIcESaIcEEC1ERKS4_(ptr noundef nonnull align 8 dereferenceable(32) %output_list_file, ptr noundef nonnull align 8 dereferenceable(32) %output_list_file4)
          to label %invoke.cont unwind label %lpad

invoke.cont:                                      ; preds = %entry
  %strip_nonfunctional_codegen = getelementptr inbounds %"struct.google::protobuf::compiler::java::Options", ptr %this1, i32 0, i32 9
  %4 = load ptr, ptr %.addr, align 8
  %strip_nonfunctional_codegen5 = getelementptr inbounds %"struct.google::protobuf::compiler::java::Options", ptr %4, i32 0, i32 9
  %5 = load i8, ptr %strip_nonfunctional_codegen5, align 8
  %tobool = trunc i8 %5 to i1
  %frombool = zext i1 %tobool to i8
  store i8 %frombool, ptr %strip_nonfunctional_codegen, align 8
  ret void

lpad:                                             ; preds = %entry
  %6 = landingpad { ptr, i32 }
          cleanup
  %7 = extractvalue { ptr, i32 } %6, 0
  store ptr %7, ptr %exn.slot, align 8
  %8 = extractvalue { ptr, i32 } %6, 1
  store i32 %8, ptr %ehselector.slot, align 4
  call void @_ZNSt7__cxx1112basic_stringIcSt11char_traitsIcESaIcEED1Ev(ptr noundef nonnull align 8 dereferenceable(32) %annotation_list_file) #3
  br label %eh.resume

eh.resume:                                        ; preds = %lpad
  %exn = load ptr, ptr %exn.slot, align 8
  %sel = load i32, ptr %ehselector.slot, align 4
  %lpad.val = insertvalue { ptr, i32 } poison, ptr %exn, 0
  %lpad.val6 = insertvalue { ptr, i32 } %lpad.val, i32 %sel, 1
  resume { ptr, i32 } %lpad.val6
}

; Function Attrs: mustprogress nounwind uwtable
define linkonce_odr hidden void @_ZN6google8protobuf8compiler4java7OptionsD2Ev(ptr noundef nonnull align 8 dereferenceable(73) %this) unnamed_addr #5 comdat align 2 {
entry:
  %this.addr = alloca ptr, align 8
  store ptr %this, ptr %this.addr, align 8
  %this1 = load ptr, ptr %this.addr, align 8
  %output_list_file = getelementptr inbounds %"struct.google::protobuf::compiler::java::Options", ptr %this1, i32 0, i32 8
  call void @_ZNSt7__cxx1112basic_stringIcSt11char_traitsIcESaIcEED1Ev(ptr noundef nonnull align 8 dereferenceable(32) %output_list_file) #3
  %annotation_list_file = getelementptr inbounds %"struct.google::protobuf::compiler::java::Options", ptr %this1, i32 0, i32 7
  call void @_ZNSt7__cxx1112basic_stringIcSt11char_traitsIcESaIcEED1Ev(ptr noundef nonnull align 8 dereferenceable(32) %annotation_list_file) #3
  ret void
}

; Function Attrs: mustprogress uwtable
define linkonce_odr hidden void @_ZN6google8protobuf2io7Printer5PrintIN4absl12lts_2023080213flat_hash_mapISt17basic_string_viewIcSt11char_traitsIcEENSt7__cxx1112basic_stringIcS9_SaIcEEENS5_18container_internal10StringHashENSF_8StringEqESaISt4pairIKSA_SE_EEEEEEvRKT_SA_(ptr noundef nonnull align 8 dereferenceable(256) %this, ptr noundef nonnull align 8 dereferenceable(32) %vars, i64 %text.coerce0, ptr %text.coerce1) #4 comdat align 2 personality ptr @__gxx_personality_v0 {
entry:
  %text = alloca %"class.std::basic_string_view", align 8
  %this.addr = alloca ptr, align 8
  %vars.addr = alloca ptr, align 8
  %opts = alloca %"struct.google::protobuf::io::Printer::PrintOptions", align 1
  %pop = alloca %"class.absl::lts_20230802::Cleanup", align 8
  %agg.tmp = alloca %"class.std::basic_string_view", align 8
  %agg.tmp2 = alloca %"class.absl::lts_20230802::Span", align 8
  %agg.tmp3 = alloca %"struct.google::protobuf::io::Printer::PrintOptions", align 8
  %exn.slot = alloca ptr, align 8
  %ehselector.slot = alloca i32, align 4
  %0 = getelementptr inbounds { i64, ptr }, ptr %text, i32 0, i32 0
  store i64 %text.coerce0, ptr %0, align 8
  %1 = getelementptr inbounds { i64, ptr }, ptr %text, i32 0, i32 1
  store ptr %text.coerce1, ptr %1, align 8
  store ptr %this, ptr %this.addr, align 8
  store ptr %vars, ptr %vars.addr, align 8
  %this1 = load ptr, ptr %this.addr, align 8
  call void @_ZN6google8protobuf2io7Printer12PrintOptionsC2Ev(ptr noundef nonnull align 1 dereferenceable(9) %opts) #3
  %checks_are_debug_only = getelementptr inbounds %"struct.google::protobuf::io::Printer::PrintOptions", ptr %opts, i32 0, i32 1
  store i8 1, ptr %checks_are_debug_only, align 1
  %use_substitution_map = getelementptr inbounds %"struct.google::protobuf::io::Printer::PrintOptions", ptr %opts, i32 0, i32 2
  store i8 1, ptr %use_substitution_map, align 1
  %allow_digit_substitutions = getelementptr inbounds %"struct.google::protobuf::io::Printer::PrintOptions", ptr %opts, i32 0, i32 4
  store i8 0, ptr %allow_digit_substitutions, align 1
  %2 = load ptr, ptr %vars.addr, align 8
  call void @_ZN6google8protobuf2io7Printer8WithVarsIN4absl12lts_2023080213flat_hash_mapISt17basic_string_viewIcSt11char_traitsIcEENSt7__cxx1112basic_stringIcS9_SaIcEEENS5_18container_internal10StringHashENSF_8StringEqESaISt4pairIKSA_SE_EEEEEEDaPKT_(ptr sret(%"class.absl::lts_20230802::Cleanup") align 8 %pop, ptr noundef nonnull align 8 dereferenceable(256) %this1, ptr noundef %2)
  call void @llvm.memcpy.p0.p0.i64(ptr align 8 %agg.tmp, ptr align 8 %text, i64 16, i1 false)
  call void @_ZN4absl12lts_202308024SpanIKNSt7__cxx1112basic_stringIcSt11char_traitsIcESaIcEEEEC2Ev(ptr noundef nonnull align 8 dereferenceable(16) %agg.tmp2) #3
  call void @llvm.memcpy.p0.p0.i64(ptr align 1 %agg.tmp3, ptr align 1 %opts, i64 9, i1 false)
  %3 = getelementptr inbounds { i64, ptr }, ptr %agg.tmp, i32 0, i32 0
  %4 = load i64, ptr %3, align 8
  %5 = getelementptr inbounds { i64, ptr }, ptr %agg.tmp, i32 0, i32 1
  %6 = load ptr, ptr %5, align 8
  %7 = getelementptr inbounds { ptr, i64 }, ptr %agg.tmp2, i32 0, i32 0
  %8 = load ptr, ptr %7, align 8
  %9 = getelementptr inbounds { ptr, i64 }, ptr %agg.tmp2, i32 0, i32 1
  %10 = load i64, ptr %9, align 8
  invoke void @_ZN6google8protobuf2io7Printer9PrintImplESt17basic_string_viewIcSt11char_traitsIcEEN4absl12lts_202308024SpanIKNSt7__cxx1112basic_stringIcS5_SaIcEEEEENS2_12PrintOptionsE(ptr noundef nonnull align 8 dereferenceable(256) %this1, i64 %4, ptr %6, ptr %8, i64 %10, ptr noundef byval(%"struct.google::protobuf::io::Printer::PrintOptions") align 8 %agg.tmp3)
          to label %invoke.cont unwind label %lpad

invoke.cont:                                      ; preds = %entry
  call void @_ZN4absl12lts_202308027CleanupINS0_16cleanup_internal3TagEZN6google8protobuf2io7Printer8WithVarsINS0_13flat_hash_mapISt17basic_string_viewIcSt11char_traitsIcEENSt7__cxx1112basic_stringIcSC_SaIcEEENS0_18container_internal10StringHashENSI_8StringEqESaISt4pairIKSD_SH_EEEEEEDaPKT_EUlvE_ED2Ev(ptr noundef nonnull align 8 dereferenceable(16) %pop) #3
  ret void

lpad:                                             ; preds = %entry
  %11 = landingpad { ptr, i32 }
          cleanup
  %12 = extractvalue { ptr, i32 } %11, 0
  store ptr %12, ptr %exn.slot, align 8
  %13 = extractvalue { ptr, i32 } %11, 1
  store i32 %13, ptr %ehselector.slot, align 4
  call void @_ZN4absl12lts_202308027CleanupINS0_16cleanup_internal3TagEZN6google8protobuf2io7Printer8WithVarsINS0_13flat_hash_mapISt17basic_string_viewIcSt11char_traitsIcEENSt7__cxx1112basic_stringIcSC_SaIcEEENS0_18container_internal10StringHashENSI_8StringEqESaISt4pairIKSD_SH_EEEEEEDaPKT_EUlvE_ED2Ev(ptr noundef nonnull align 8 dereferenceable(16) %pop) #3
  br label %eh.resume

eh.resume:                                        ; preds = %lpad
  %exn = load ptr, ptr %exn.slot, align 8
  %sel = load i32, ptr %ehselector.slot, align 4
  %lpad.val = insertvalue { ptr, i32 } poison, ptr %exn, 0
  %lpad.val4 = insertvalue { ptr, i32 } %lpad.val, i32 %sel, 1
  resume { ptr, i32 } %lpad.val4
}

; Function Attrs: mustprogress nounwind uwtable
define linkonce_odr hidden void @_ZNSt17basic_string_viewIcSt11char_traitsIcEEC2EPKc(ptr noundef nonnull align 8 dereferenceable(16) %this, ptr noundef nonnull %__str) unnamed_addr #5 comdat align 2 {
entry:
  %this.addr = alloca ptr, align 8
  %__str.addr = alloca ptr, align 8
  store ptr %this, ptr %this.addr, align 8
  store ptr %__str, ptr %__str.addr, align 8
  %this1 = load ptr, ptr %this.addr, align 8
  %_M_len = getelementptr inbounds %"class.std::basic_string_view", ptr %this1, i32 0, i32 0
  %0 = load ptr, ptr %__str.addr, align 8
  %call = call noundef i64 @_ZNSt11char_traitsIcE6lengthEPKc(ptr noundef %0)
  store i64 %call, ptr %_M_len, align 8
  %_M_str = getelementptr inbounds %"class.std::basic_string_view", ptr %this1, i32 0, i32 1
  %1 = load ptr, ptr %__str.addr, align 8
  store ptr %1, ptr %_M_str, align 8
  ret void
}

; Function Attrs: mustprogress uwtable
define linkonce_odr hidden void @_ZN6google8protobuf2io7Printer8AnnotateINS0_15FieldDescriptorEEEvSt17basic_string_viewIcSt11char_traitsIcEES8_PKT_St8optionalINS1_19AnnotationCollector8SemanticEE(ptr noundef nonnull align 8 dereferenceable(256) %this, i64 %begin_varname.coerce0, ptr %begin_varname.coerce1, i64 %end_varname.coerce0, ptr %end_varname.coerce1, ptr noundef %descriptor, i64 %semantic.coerce) #4 comdat align 2 personality ptr @__gxx_personality_v0 {
entry:
  %begin_varname = alloca %"class.std::basic_string_view", align 8
  %end_varname = alloca %"class.std::basic_string_view", align 8
  %semantic = alloca %"class.std::optional.64", align 4
  %this.addr = alloca ptr, align 8
  %descriptor.addr = alloca ptr, align 8
  %path = alloca %"class.std::vector.203", align 8
  %exn.slot = alloca ptr, align 8
  %ehselector.slot = alloca i32, align 4
  %agg.tmp = alloca %"class.std::basic_string_view", align 8
  %agg.tmp3 = alloca %"class.std::basic_string_view", align 8
  %agg.tmp4 = alloca %"class.std::basic_string_view", align 8
  %agg.tmp9 = alloca %"class.std::optional.64", align 4
  %0 = getelementptr inbounds { i64, ptr }, ptr %begin_varname, i32 0, i32 0
  store i64 %begin_varname.coerce0, ptr %0, align 8
  %1 = getelementptr inbounds { i64, ptr }, ptr %begin_varname, i32 0, i32 1
  store ptr %begin_varname.coerce1, ptr %1, align 8
  %2 = getelementptr inbounds { i64, ptr }, ptr %end_varname, i32 0, i32 0
  store i64 %end_varname.coerce0, ptr %2, align 8
  %3 = getelementptr inbounds { i64, ptr }, ptr %end_varname, i32 0, i32 1
  store ptr %end_varname.coerce1, ptr %3, align 8
  %coerce.dive = getelementptr inbounds %"class.std::optional.64", ptr %semantic, i32 0, i32 0
  %coerce.dive1 = getelementptr inbounds %"struct.std::_Optional_base.65", ptr %coerce.dive, i32 0, i32 0
  store i64 %semantic.coerce, ptr %coerce.dive1, align 4
  store ptr %this, ptr %this.addr, align 8
  store ptr %descriptor, ptr %descriptor.addr, align 8
  %this2 = load ptr, ptr %this.addr, align 8
  %options_ = getelementptr inbounds %"class.google::protobuf::io::Printer", ptr %this2, i32 0, i32 1
  %annotation_collector = getelementptr inbounds %"struct.google::protobuf::io::Printer::Options", ptr %options_, i32 0, i32 2
  %4 = load ptr, ptr %annotation_collector, align 8
  %cmp = icmp eq ptr %4, null
  br i1 %cmp, label %if.then, label %if.end

if.then:                                          ; preds = %entry
  br label %return

if.end:                                           ; preds = %entry
  call void @_ZNSt6vectorIiSaIiEEC2Ev(ptr noundef nonnull align 8 dereferenceable(24) %path) #3
  %5 = load ptr, ptr %descriptor.addr, align 8
  invoke void @_ZNK6google8protobuf15FieldDescriptor15GetLocationPathEPSt6vectorIiSaIiEE(ptr noundef nonnull align 8 dereferenceable(88) %5, ptr noundef %path)
          to label %invoke.cont unwind label %lpad

invoke.cont:                                      ; preds = %if.end
  call void @llvm.memcpy.p0.p0.i64(ptr align 8 %agg.tmp, ptr align 8 %begin_varname, i64 16, i1 false)
  call void @llvm.memcpy.p0.p0.i64(ptr align 8 %agg.tmp3, ptr align 8 %end_varname, i64 16, i1 false)
  %6 = load ptr, ptr %descriptor.addr, align 8
  %call = invoke noundef ptr @_ZNK6google8protobuf15FieldDescriptor4fileEv(ptr noundef nonnull align 8 dereferenceable(88) %6)
          to label %invoke.cont5 unwind label %lpad

invoke.cont5:                                     ; preds = %invoke.cont
  %call7 = invoke noundef nonnull align 8 dereferenceable(32) ptr @_ZNK6google8protobuf14FileDescriptor4nameB5cxx11Ev(ptr noundef nonnull align 8 dereferenceable(168) %call)
          to label %invoke.cont6 unwind label %lpad

invoke.cont6:                                     ; preds = %invoke.cont5
  %call8 = call { i64, ptr } @_ZNKSt7__cxx1112basic_stringIcSt11char_traitsIcESaIcEEcvSt17basic_string_viewIcS2_EEv(ptr noundef nonnull align 8 dereferenceable(32) %call7) #3
  %7 = getelementptr inbounds { i64, ptr }, ptr %agg.tmp4, i32 0, i32 0
  %8 = extractvalue { i64, ptr } %call8, 0
  store i64 %8, ptr %7, align 8
  %9 = getelementptr inbounds { i64, ptr }, ptr %agg.tmp4, i32 0, i32 1
  %10 = extractvalue { i64, ptr } %call8, 1
  store ptr %10, ptr %9, align 8
  call void @llvm.memcpy.p0.p0.i64(ptr align 4 %agg.tmp9, ptr align 4 %semantic, i64 8, i1 false)
  %11 = getelementptr inbounds { i64, ptr }, ptr %agg.tmp, i32 0, i32 0
  %12 = load i64, ptr %11, align 8
  %13 = getelementptr inbounds { i64, ptr }, ptr %agg.tmp, i32 0, i32 1
  %14 = load ptr, ptr %13, align 8
  %15 = getelementptr inbounds { i64, ptr }, ptr %agg.tmp3, i32 0, i32 0
  %16 = load i64, ptr %15, align 8
  %17 = getelementptr inbounds { i64, ptr }, ptr %agg.tmp3, i32 0, i32 1
  %18 = load ptr, ptr %17, align 8
  %coerce.dive10 = getelementptr inbounds %"class.std::optional.64", ptr %agg.tmp9, i32 0, i32 0
  %coerce.dive11 = getelementptr inbounds %"struct.std::_Optional_base.65", ptr %coerce.dive10, i32 0, i32 0
  %19 = load i64, ptr %coerce.dive11, align 4
  invoke void @_ZN6google8protobuf2io7Printer8AnnotateESt17basic_string_viewIcSt11char_traitsIcEES6_S6_RKSt6vectorIiSaIiEESt8optionalINS1_19AnnotationCollector8SemanticEE(ptr noundef nonnull align 8 dereferenceable(256) %this2, i64 %12, ptr %14, i64 %16, ptr %18, ptr noundef byval(%"class.std::basic_string_view") align 8 %agg.tmp4, ptr noundef nonnull align 8 dereferenceable(24) %path, i64 %19)
          to label %invoke.cont12 unwind label %lpad

invoke.cont12:                                    ; preds = %invoke.cont6
  call void @_ZNSt6vectorIiSaIiEED2Ev(ptr noundef nonnull align 8 dereferenceable(24) %path) #3
  br label %return

return:                                           ; preds = %invoke.cont12, %if.then
  ret void

lpad:                                             ; preds = %invoke.cont6, %invoke.cont5, %invoke.cont, %if.end
  %20 = landingpad { ptr, i32 }
          cleanup
  %21 = extractvalue { ptr, i32 } %20, 0
  store ptr %21, ptr %exn.slot, align 8
  %22 = extractvalue { ptr, i32 } %20, 1
  store i32 %22, ptr %ehselector.slot, align 4
  call void @_ZNSt6vectorIiSaIiEED2Ev(ptr noundef nonnull align 8 dereferenceable(24) %path) #3
  br label %eh.resume

eh.resume:                                        ; preds = %lpad
  %exn = load ptr, ptr %exn.slot, align 8
  %sel = load i32, ptr %ehselector.slot, align 4
  %lpad.val = insertvalue { ptr, i32 } poison, ptr %exn, 0
  %lpad.val13 = insertvalue { ptr, i32 } %lpad.val, i32 %sel, 1
  resume { ptr, i32 } %lpad.val13
}

; Function Attrs: mustprogress nounwind uwtable
define linkonce_odr hidden void @_ZNSt8optionalIN6google8protobuf2io19AnnotationCollector8SemanticEEC2ESt9nullopt_t(ptr noundef nonnull align 4 dereferenceable(8) %this) unnamed_addr #5 comdat align 2 {
entry:
  %this.addr = alloca ptr, align 8
  store ptr %this, ptr %this.addr, align 8
  %this1 = load ptr, ptr %this.addr, align 8
  call void @_ZNSt14_Optional_baseIN6google8protobuf2io19AnnotationCollector8SemanticELb1ELb1EEC2Ev(ptr noundef nonnull align 4 dereferenceable(8) %this1) #3
  ret void
}

; Function Attrs: mustprogress uwtable
define hidden void @_ZNK6google8protobuf8compiler4java36ImmutablePrimitiveFieldLiteGenerator15GenerateMembersEPNS0_2io7PrinterE(ptr noundef nonnull align 8 dereferenceable(72) %this, ptr noundef %printer) unnamed_addr #4 align 2 personality ptr @__gxx_personality_v0 {
entry:
  %this.addr = alloca ptr, align 8
  %printer.addr = alloca ptr, align 8
  %agg.tmp = alloca %"class.std::basic_string_view", align 8
  %agg.tmp5 = alloca %"class.std::basic_string_view", align 8
  %agg.tmp10 = alloca %"class.std::basic_string_view", align 8
  %agg.tmp14 = alloca %"class.std::basic_string_view", align 8
  %agg.tmp20 = alloca %"struct.google::protobuf::compiler::java::Options", align 8
  %exn.slot = alloca ptr, align 8
  %ehselector.slot = alloca i32, align 4
  %agg.tmp24 = alloca %"class.std::basic_string_view", align 8
  %agg.tmp25 = alloca %"class.std::basic_string_view", align 8
  %agg.tmp26 = alloca %"class.std::basic_string_view", align 8
  %agg.tmp28 = alloca %"class.std::optional.64", align 4
  %agg.tmp33 = alloca %"struct.google::protobuf::compiler::java::Options", align 8
  %agg.tmp39 = alloca %"class.std::basic_string_view", align 8
  %agg.tmp40 = alloca %"class.std::basic_string_view", align 8
  %agg.tmp41 = alloca %"class.std::basic_string_view", align 8
  %agg.tmp43 = alloca %"class.std::optional.64", align 4
  %agg.tmp48 = alloca %"struct.google::protobuf::compiler::java::Options", align 8
  %agg.tmp54 = alloca %"class.std::basic_string_view", align 8
  %agg.tmp56 = alloca %"struct.google::protobuf::compiler::java::Options", align 8
  %agg.tmp62 = alloca %"class.std::basic_string_view", align 8
  %type = alloca i32, align 4
  %agg.tmp68 = alloca %"class.std::basic_string_view", align 8
  %agg.tmp70 = alloca %"class.std::basic_string_view", align 8
  %agg.tmp73 = alloca %"class.std::basic_string_view", align 8
  store ptr %this, ptr %this.addr, align 8
  store ptr %printer, ptr %printer.addr, align 8
  %this1 = load ptr, ptr %this.addr, align 8
  %descriptor_ = getelementptr inbounds %"class.google::protobuf::compiler::java::ImmutablePrimitiveFieldLiteGenerator", ptr %this1, i32 0, i32 1
  %0 = load ptr, ptr %descriptor_, align 8
  %call = call noundef zeroext i1 @_ZN6google8protobuf8compiler4java34IsByteStringWithCustomDefaultValueEPKNS0_15FieldDescriptorE(ptr noundef %0)
  br i1 %call, label %if.then, label %if.end

if.then:                                          ; preds = %entry
  %1 = load ptr, ptr %printer.addr, align 8
  %variables_ = getelementptr inbounds %"class.google::protobuf::compiler::java::ImmutablePrimitiveFieldLiteGenerator", ptr %this1, i32 0, i32 2
  call void @_ZNSt17basic_string_viewIcSt11char_traitsIcEEC2EPKc(ptr noundef nonnull align 8 dereferenceable(16) %agg.tmp, ptr noundef @.str.4) #3
  %2 = getelementptr inbounds { i64, ptr }, ptr %agg.tmp, i32 0, i32 0
  %3 = load i64, ptr %2, align 8
  %4 = getelementptr inbounds { i64, ptr }, ptr %agg.tmp, i32 0, i32 1
  %5 = load ptr, ptr %4, align 8
  call void @_ZN6google8protobuf2io7Printer5PrintIN4absl12lts_2023080213flat_hash_mapISt17basic_string_viewIcSt11char_traitsIcEENSt7__cxx1112basic_stringIcS9_SaIcEEENS5_18container_internal10StringHashENSF_8StringEqESaISt4pairIKSA_SE_EEEEEEvRKT_SA_(ptr noundef nonnull align 8 dereferenceable(256) %1, ptr noundef nonnull align 8 dereferenceable(32) %variables_, i64 %3, ptr %5)
  br label %if.end

if.end:                                           ; preds = %if.then, %entry
  %context_ = getelementptr inbounds %"class.google::protobuf::compiler::java::ImmutablePrimitiveFieldLiteGenerator", ptr %this1, i32 0, i32 4
  %6 = load ptr, ptr %context_, align 8
  %call2 = call noundef nonnull align 8 dereferenceable(73) ptr @_ZNK6google8protobuf8compiler4java7Context7optionsEv(ptr noundef nonnull align 8 dereferenceable(152) %6)
  %opensource_runtime = getelementptr inbounds %"struct.google::protobuf::compiler::java::Options", ptr %call2, i32 0, i32 4
  %7 = load i8, ptr %opensource_runtime, align 4
  %tobool = trunc i8 %7 to i1
  br i1 %tobool, label %if.end12, label %if.then3

if.then3:                                         ; preds = %if.end
  %8 = load ptr, ptr %printer.addr, align 8
  %variables_4 = getelementptr inbounds %"class.google::protobuf::compiler::java::ImmutablePrimitiveFieldLiteGenerator", ptr %this1, i32 0, i32 2
  call void @_ZNSt17basic_string_viewIcSt11char_traitsIcEEC2EPKc(ptr noundef nonnull align 8 dereferenceable(16) %agg.tmp5, ptr noundef @.str.5) #3
  %9 = getelementptr inbounds { i64, ptr }, ptr %agg.tmp5, i32 0, i32 0
  %10 = load i64, ptr %9, align 8
  %11 = getelementptr inbounds { i64, ptr }, ptr %agg.tmp5, i32 0, i32 1
  %12 = load ptr, ptr %11, align 8
  call void @_ZN6google8protobuf2io7Printer5PrintIN4absl12lts_2023080213flat_hash_mapISt17basic_string_viewIcSt11char_traitsIcEENSt7__cxx1112basic_stringIcS9_SaIcEEENS5_18container_internal10StringHashENSF_8StringEqESaISt4pairIKSA_SE_EEEEEEvRKT_SA_(ptr noundef nonnull align 8 dereferenceable(256) %8, ptr noundef nonnull align 8 dereferenceable(32) %variables_4, i64 %10, ptr %12)
  %descriptor_6 = getelementptr inbounds %"class.google::protobuf::compiler::java::ImmutablePrimitiveFieldLiteGenerator", ptr %this1, i32 0, i32 1
  %13 = load ptr, ptr %descriptor_6, align 8
  %call7 = call noundef zeroext i1 @_ZN6google8protobuf8compiler4java9HasHasbitEPKNS0_15FieldDescriptorE(ptr noundef %13)
  br i1 %call7, label %if.then8, label %if.end11

if.then8:                                         ; preds = %if.then3
  %14 = load ptr, ptr %printer.addr, align 8
  %variables_9 = getelementptr inbounds %"class.google::protobuf::compiler::java::ImmutablePrimitiveFieldLiteGenerator", ptr %this1, i32 0, i32 2
  call void @_ZNSt17basic_string_viewIcSt11char_traitsIcEEC2EPKc(ptr noundef nonnull align 8 dereferenceable(16) %agg.tmp10, ptr noundef @.str.6) #3
  %15 = getelementptr inbounds { i64, ptr }, ptr %agg.tmp10, i32 0, i32 0
  %16 = load i64, ptr %15, align 8
  %17 = getelementptr inbounds { i64, ptr }, ptr %agg.tmp10, i32 0, i32 1
  %18 = load ptr, ptr %17, align 8
  call void @_ZN6google8protobuf2io7Printer5PrintIN4absl12lts_2023080213flat_hash_mapISt17basic_string_viewIcSt11char_traitsIcEENSt7__cxx1112basic_stringIcS9_SaIcEEENS5_18container_internal10StringHashENSF_8StringEqESaISt4pairIKSA_SE_EEEEEEvRKT_SA_(ptr noundef nonnull align 8 dereferenceable(256) %14, ptr noundef nonnull align 8 dereferenceable(32) %variables_9, i64 %16, ptr %18)
  br label %if.end11

if.end11:                                         ; preds = %if.then8, %if.then3
  br label %if.end12

if.end12:                                         ; preds = %if.end11, %if.end
  %19 = load ptr, ptr %printer.addr, align 8
  %variables_13 = getelementptr inbounds %"class.google::protobuf::compiler::java::ImmutablePrimitiveFieldLiteGenerator", ptr %this1, i32 0, i32 2
  call void @_ZNSt17basic_string_viewIcSt11char_traitsIcEEC2EPKc(ptr noundef nonnull align 8 dereferenceable(16) %agg.tmp14, ptr noundef @.str.7) #3
  %20 = getelementptr inbounds { i64, ptr }, ptr %agg.tmp14, i32 0, i32 0
  %21 = load i64, ptr %20, align 8
  %22 = getelementptr inbounds { i64, ptr }, ptr %agg.tmp14, i32 0, i32 1
  %23 = load ptr, ptr %22, align 8
  call void @_ZN6google8protobuf2io7Printer5PrintIN4absl12lts_2023080213flat_hash_mapISt17basic_string_viewIcSt11char_traitsIcEENSt7__cxx1112basic_stringIcS9_SaIcEEENS5_18container_internal10StringHashENSF_8StringEqESaISt4pairIKSA_SE_EEEEEEvRKT_SA_(ptr noundef nonnull align 8 dereferenceable(256) %19, ptr noundef nonnull align 8 dereferenceable(32) %variables_13, i64 %21, ptr %23)
  %variables_15 = getelementptr inbounds %"class.google::protobuf::compiler::java::ImmutablePrimitiveFieldLiteGenerator", ptr %this1, i32 0, i32 2
  %24 = load ptr, ptr %printer.addr, align 8
  call void @_ZN6google8protobuf8compiler4java19PrintExtraFieldInfoERKN4absl12lts_2023080213flat_hash_mapISt17basic_string_viewIcSt11char_traitsIcEENSt7__cxx1112basic_stringIcS8_SaIcEEENS4_18container_internal10StringHashENSE_8StringEqESaISt4pairIKS9_SD_EEEEPNS0_2io7PrinterE(ptr noundef nonnull align 8 dereferenceable(32) %variables_15, ptr noundef %24)
  %descriptor_16 = getelementptr inbounds %"class.google::protobuf::compiler::java::ImmutablePrimitiveFieldLiteGenerator", ptr %this1, i32 0, i32 1
  %25 = load ptr, ptr %descriptor_16, align 8
  %call17 = call noundef zeroext i1 @_ZNK6google8protobuf15FieldDescriptor12has_presenceEv(ptr noundef nonnull align 8 dereferenceable(88) %25)
  br i1 %call17, label %if.then18, label %if.end31

if.then18:                                        ; preds = %if.end12
  %26 = load ptr, ptr %printer.addr, align 8
  %descriptor_19 = getelementptr inbounds %"class.google::protobuf::compiler::java::ImmutablePrimitiveFieldLiteGenerator", ptr %this1, i32 0, i32 1
  %27 = load ptr, ptr %descriptor_19, align 8
  %context_21 = getelementptr inbounds %"class.google::protobuf::compiler::java::ImmutablePrimitiveFieldLiteGenerator", ptr %this1, i32 0, i32 4
  %28 = load ptr, ptr %context_21, align 8
  %call22 = call noundef nonnull align 8 dereferenceable(73) ptr @_ZNK6google8protobuf8compiler4java7Context7optionsEv(ptr noundef nonnull align 8 dereferenceable(152) %28)
  call void @_ZN6google8protobuf8compiler4java7OptionsC2ERKS3_(ptr noundef nonnull align 8 dereferenceable(73) %agg.tmp20, ptr noundef nonnull align 8 dereferenceable(73) %call22)
  invoke void @_ZN6google8protobuf8compiler4java28WriteFieldAccessorDocCommentEPNS0_2io7PrinterEPKNS0_15FieldDescriptorENS2_17FieldAccessorTypeENS2_7OptionsEbb(ptr noundef %26, ptr noundef %27, i32 noundef 0, ptr noundef %agg.tmp20, i1 noundef zeroext false, i1 noundef zeroext false)
          to label %invoke.cont unwind label %lpad

invoke.cont:                                      ; preds = %if.then18
  call void @_ZN6google8protobuf8compiler4java7OptionsD2Ev(ptr noundef nonnull align 8 dereferenceable(73) %agg.tmp20) #3
  %29 = load ptr, ptr %printer.addr, align 8
  %variables_23 = getelementptr inbounds %"class.google::protobuf::compiler::java::ImmutablePrimitiveFieldLiteGenerator", ptr %this1, i32 0, i32 2
  call void @_ZNSt17basic_string_viewIcSt11char_traitsIcEEC2EPKc(ptr noundef nonnull align 8 dereferenceable(16) %agg.tmp24, ptr noundef @.str.8) #3
  %30 = getelementptr inbounds { i64, ptr }, ptr %agg.tmp24, i32 0, i32 0
  %31 = load i64, ptr %30, align 8
  %32 = getelementptr inbounds { i64, ptr }, ptr %agg.tmp24, i32 0, i32 1
  %33 = load ptr, ptr %32, align 8
  call void @_ZN6google8protobuf2io7Printer5PrintIN4absl12lts_2023080213flat_hash_mapISt17basic_string_viewIcSt11char_traitsIcEENSt7__cxx1112basic_stringIcS9_SaIcEEENS5_18container_internal10StringHashENSF_8StringEqESaISt4pairIKSA_SE_EEEEEEvRKT_SA_(ptr noundef nonnull align 8 dereferenceable(256) %29, ptr noundef nonnull align 8 dereferenceable(32) %variables_23, i64 %31, ptr %33)
  %34 = load ptr, ptr %printer.addr, align 8
  call void @_ZNSt17basic_string_viewIcSt11char_traitsIcEEC2EPKc(ptr noundef nonnull align 8 dereferenceable(16) %agg.tmp25, ptr noundef @.str.2) #3
  call void @_ZNSt17basic_string_viewIcSt11char_traitsIcEEC2EPKc(ptr noundef nonnull align 8 dereferenceable(16) %agg.tmp26, ptr noundef @.str.3) #3
  %descriptor_27 = getelementptr inbounds %"class.google::protobuf::compiler::java::ImmutablePrimitiveFieldLiteGenerator", ptr %this1, i32 0, i32 1
  %35 = load ptr, ptr %descriptor_27, align 8
  call void @_ZNSt8optionalIN6google8protobuf2io19AnnotationCollector8SemanticEEC2ESt9nullopt_t(ptr noundef nonnull align 4 dereferenceable(8) %agg.tmp28) #3
  %36 = getelementptr inbounds { i64, ptr }, ptr %agg.tmp25, i32 0, i32 0
  %37 = load i64, ptr %36, align 8
  %38 = getelementptr inbounds { i64, ptr }, ptr %agg.tmp25, i32 0, i32 1
  %39 = load ptr, ptr %38, align 8
  %40 = getelementptr inbounds { i64, ptr }, ptr %agg.tmp26, i32 0, i32 0
  %41 = load i64, ptr %40, align 8
  %42 = getelementptr inbounds { i64, ptr }, ptr %agg.tmp26, i32 0, i32 1
  %43 = load ptr, ptr %42, align 8
  %coerce.dive = getelementptr inbounds %"class.std::optional.64", ptr %agg.tmp28, i32 0, i32 0
  %coerce.dive30 = getelementptr inbounds %"struct.std::_Optional_base.65", ptr %coerce.dive, i32 0, i32 0
  %44 = load i64, ptr %coerce.dive30, align 4
  call void @_ZN6google8protobuf2io7Printer8AnnotateINS0_15FieldDescriptorEEEvSt17basic_string_viewIcSt11char_traitsIcEES8_PKT_St8optionalINS1_19AnnotationCollector8SemanticEE(ptr noundef nonnull align 8 dereferenceable(256) %34, i64 %37, ptr %39, i64 %41, ptr %43, ptr noundef %35, i64 %44)
  br label %if.end31

lpad:                                             ; preds = %if.then18
  %45 = landingpad { ptr, i32 }
          cleanup
  %46 = extractvalue { ptr, i32 } %45, 0
  store ptr %46, ptr %exn.slot, align 8
  %47 = extractvalue { ptr, i32 } %45, 1
  store i32 %47, ptr %ehselector.slot, align 4
  call void @_ZN6google8protobuf8compiler4java7OptionsD2Ev(ptr noundef nonnull align 8 dereferenceable(73) %agg.tmp20) #3
  br label %eh.resume

if.end31:                                         ; preds = %invoke.cont, %if.end12
  %48 = load ptr, ptr %printer.addr, align 8
  %descriptor_32 = getelementptr inbounds %"class.google::protobuf::compiler::java::ImmutablePrimitiveFieldLiteGenerator", ptr %this1, i32 0, i32 1
  %49 = load ptr, ptr %descriptor_32, align 8
  %context_34 = getelementptr inbounds %"class.google::protobuf::compiler::java::ImmutablePrimitiveFieldLiteGenerator", ptr %this1, i32 0, i32 4
  %50 = load ptr, ptr %context_34, align 8
  %call35 = call noundef nonnull align 8 dereferenceable(73) ptr @_ZNK6google8protobuf8compiler4java7Context7optionsEv(ptr noundef nonnull align 8 dereferenceable(152) %50)
  call void @_ZN6google8protobuf8compiler4java7OptionsC2ERKS3_(ptr noundef nonnull align 8 dereferenceable(73) %agg.tmp33, ptr noundef nonnull align 8 dereferenceable(73) %call35)
  invoke void @_ZN6google8protobuf8compiler4java28WriteFieldAccessorDocCommentEPNS0_2io7PrinterEPKNS0_15FieldDescriptorENS2_17FieldAccessorTypeENS2_7OptionsEbb(ptr noundef %48, ptr noundef %49, i32 noundef 1, ptr noundef %agg.tmp33, i1 noundef zeroext false, i1 noundef zeroext false)
          to label %invoke.cont37 unwind label %lpad36

invoke.cont37:                                    ; preds = %if.end31
  call void @_ZN6google8protobuf8compiler4java7OptionsD2Ev(ptr noundef nonnull align 8 dereferenceable(73) %agg.tmp33) #3
  %51 = load ptr, ptr %printer.addr, align 8
  %variables_38 = getelementptr inbounds %"class.google::protobuf::compiler::java::ImmutablePrimitiveFieldLiteGenerator", ptr %this1, i32 0, i32 2
  call void @_ZNSt17basic_string_viewIcSt11char_traitsIcEEC2EPKc(ptr noundef nonnull align 8 dereferenceable(16) %agg.tmp39, ptr noundef @.str.9) #3
  %52 = getelementptr inbounds { i64, ptr }, ptr %agg.tmp39, i32 0, i32 0
  %53 = load i64, ptr %52, align 8
  %54 = getelementptr inbounds { i64, ptr }, ptr %agg.tmp39, i32 0, i32 1
  %55 = load ptr, ptr %54, align 8
  call void @_ZN6google8protobuf2io7Printer5PrintIN4absl12lts_2023080213flat_hash_mapISt17basic_string_viewIcSt11char_traitsIcEENSt7__cxx1112basic_stringIcS9_SaIcEEENS5_18container_internal10StringHashENSF_8StringEqESaISt4pairIKSA_SE_EEEEEEvRKT_SA_(ptr noundef nonnull align 8 dereferenceable(256) %51, ptr noundef nonnull align 8 dereferenceable(32) %variables_38, i64 %53, ptr %55)
  %56 = load ptr, ptr %printer.addr, align 8
  call void @_ZNSt17basic_string_viewIcSt11char_traitsIcEEC2EPKc(ptr noundef nonnull align 8 dereferenceable(16) %agg.tmp40, ptr noundef @.str.2) #3
  call void @_ZNSt17basic_string_viewIcSt11char_traitsIcEEC2EPKc(ptr noundef nonnull align 8 dereferenceable(16) %agg.tmp41, ptr noundef @.str.3) #3
  %descriptor_42 = getelementptr inbounds %"class.google::protobuf::compiler::java::ImmutablePrimitiveFieldLiteGenerator", ptr %this1, i32 0, i32 1
  %57 = load ptr, ptr %descriptor_42, align 8
  call void @_ZNSt8optionalIN6google8protobuf2io19AnnotationCollector8SemanticEEC2ESt9nullopt_t(ptr noundef nonnull align 4 dereferenceable(8) %agg.tmp43) #3
  %58 = getelementptr inbounds { i64, ptr }, ptr %agg.tmp40, i32 0, i32 0
  %59 = load i64, ptr %58, align 8
  %60 = getelementptr inbounds { i64, ptr }, ptr %agg.tmp40, i32 0, i32 1
  %61 = load ptr, ptr %60, align 8
  %62 = getelementptr inbounds { i64, ptr }, ptr %agg.tmp41, i32 0, i32 0
  %63 = load i64, ptr %62, align 8
  %64 = getelementptr inbounds { i64, ptr }, ptr %agg.tmp41, i32 0, i32 1
  %65 = load ptr, ptr %64, align 8
  %coerce.dive45 = getelementptr inbounds %"class.std::optional.64", ptr %agg.tmp43, i32 0, i32 0
  %coerce.dive46 = getelementptr inbounds %"struct.std::_Optional_base.65", ptr %coerce.dive45, i32 0, i32 0
  %66 = load i64, ptr %coerce.dive46, align 4
  call void @_ZN6google8protobuf2io7Printer8AnnotateINS0_15FieldDescriptorEEEvSt17basic_string_viewIcSt11char_traitsIcEES8_PKT_St8optionalINS1_19AnnotationCollector8SemanticEE(ptr noundef nonnull align 8 dereferenceable(256) %56, i64 %59, ptr %61, i64 %63, ptr %65, ptr noundef %57, i64 %66)
  %67 = load ptr, ptr %printer.addr, align 8
  %descriptor_47 = getelementptr inbounds %"class.google::protobuf::compiler::java::ImmutablePrimitiveFieldLiteGenerator", ptr %this1, i32 0, i32 1
  %68 = load ptr, ptr %descriptor_47, align 8
  %context_49 = getelementptr inbounds %"class.google::protobuf::compiler::java::ImmutablePrimitiveFieldLiteGenerator", ptr %this1, i32 0, i32 4
  %69 = load ptr, ptr %context_49, align 8
  %call50 = call noundef nonnull align 8 dereferenceable(73) ptr @_ZNK6google8protobuf8compiler4java7Context7optionsEv(ptr noundef nonnull align 8 dereferenceable(152) %69)
  call void @_ZN6google8protobuf8compiler4java7OptionsC2ERKS3_(ptr noundef nonnull align 8 dereferenceable(73) %agg.tmp48, ptr noundef nonnull align 8 dereferenceable(73) %call50)
  invoke void @_ZN6google8protobuf8compiler4java28WriteFieldAccessorDocCommentEPNS0_2io7PrinterEPKNS0_15FieldDescriptorENS2_17FieldAccessorTypeENS2_7OptionsEbb(ptr noundef %67, ptr noundef %68, i32 noundef 2, ptr noundef %agg.tmp48, i1 noundef zeroext false, i1 noundef zeroext false)
          to label %invoke.cont52 unwind label %lpad51

invoke.cont52:                                    ; preds = %invoke.cont37
  call void @_ZN6google8protobuf8compiler4java7OptionsD2Ev(ptr noundef nonnull align 8 dereferenceable(73) %agg.tmp48) #3
  %70 = load ptr, ptr %printer.addr, align 8
  %variables_53 = getelementptr inbounds %"class.google::protobuf::compiler::java::ImmutablePrimitiveFieldLiteGenerator", ptr %this1, i32 0, i32 2
  call void @_ZNSt17basic_string_viewIcSt11char_traitsIcEEC2EPKc(ptr noundef nonnull align 8 dereferenceable(16) %agg.tmp54, ptr noundef @.str.10) #3
  %71 = getelementptr inbounds { i64, ptr }, ptr %agg.tmp54, i32 0, i32 0
  %72 = load i64, ptr %71, align 8
  %73 = getelementptr inbounds { i64, ptr }, ptr %agg.tmp54, i32 0, i32 1
  %74 = load ptr, ptr %73, align 8
  call void @_ZN6google8protobuf2io7Printer5PrintIN4absl12lts_2023080213flat_hash_mapISt17basic_string_viewIcSt11char_traitsIcEENSt7__cxx1112basic_stringIcS9_SaIcEEENS5_18container_internal10StringHashENSF_8StringEqESaISt4pairIKSA_SE_EEEEEEvRKT_SA_(ptr noundef nonnull align 8 dereferenceable(256) %70, ptr noundef nonnull align 8 dereferenceable(32) %variables_53, i64 %72, ptr %74)
  %75 = load ptr, ptr %printer.addr, align 8
  %descriptor_55 = getelementptr inbounds %"class.google::protobuf::compiler::java::ImmutablePrimitiveFieldLiteGenerator", ptr %this1, i32 0, i32 1
  %76 = load ptr, ptr %descriptor_55, align 8
  %context_57 = getelementptr inbounds %"class.google::protobuf::compiler::java::ImmutablePrimitiveFieldLiteGenerator", ptr %this1, i32 0, i32 4
  %77 = load ptr, ptr %context_57, align 8
  %call58 = call noundef nonnull align 8 dereferenceable(73) ptr @_ZNK6google8protobuf8compiler4java7Context7optionsEv(ptr noundef nonnull align 8 dereferenceable(152) %77)
  call void @_ZN6google8protobuf8compiler4java7OptionsC2ERKS3_(ptr noundef nonnull align 8 dereferenceable(73) %agg.tmp56, ptr noundef nonnull align 8 dereferenceable(73) %call58)
  invoke void @_ZN6google8protobuf8compiler4java28WriteFieldAccessorDocCommentEPNS0_2io7PrinterEPKNS0_15FieldDescriptorENS2_17FieldAccessorTypeENS2_7OptionsEbb(ptr noundef %75, ptr noundef %76, i32 noundef 3, ptr noundef %agg.tmp56, i1 noundef zeroext false, i1 noundef zeroext false)
          to label %invoke.cont60 unwind label %lpad59

invoke.cont60:                                    ; preds = %invoke.cont52
  call void @_ZN6google8protobuf8compiler4java7OptionsD2Ev(ptr noundef nonnull align 8 dereferenceable(73) %agg.tmp56) #3
  %78 = load ptr, ptr %printer.addr, align 8
  %variables_61 = getelementptr inbounds %"class.google::protobuf::compiler::java::ImmutablePrimitiveFieldLiteGenerator", ptr %this1, i32 0, i32 2
  call void @_ZNSt17basic_string_viewIcSt11char_traitsIcEEC2EPKc(ptr noundef nonnull align 8 dereferenceable(16) %agg.tmp62, ptr noundef @.str.11) #3
  %79 = getelementptr inbounds { i64, ptr }, ptr %agg.tmp62, i32 0, i32 0
  %80 = load i64, ptr %79, align 8
  %81 = getelementptr inbounds { i64, ptr }, ptr %agg.tmp62, i32 0, i32 1
  %82 = load ptr, ptr %81, align 8
  call void @_ZN6google8protobuf2io7Printer5PrintIN4absl12lts_2023080213flat_hash_mapISt17basic_string_viewIcSt11char_traitsIcEENSt7__cxx1112basic_stringIcS9_SaIcEEENS5_18container_internal10StringHashENSF_8StringEqESaISt4pairIKSA_SE_EEEEEEvRKT_SA_(ptr noundef nonnull align 8 dereferenceable(256) %78, ptr noundef nonnull align 8 dereferenceable(32) %variables_61, i64 %80, ptr %82)
  %descriptor_63 = getelementptr inbounds %"class.google::protobuf::compiler::java::ImmutablePrimitiveFieldLiteGenerator", ptr %this1, i32 0, i32 1
  %83 = load ptr, ptr %descriptor_63, align 8
  %call64 = call noundef i32 @_ZN6google8protobuf8compiler4java11GetJavaTypeEPKNS0_15FieldDescriptorE(ptr noundef %83)
  store i32 %call64, ptr %type, align 4
  %84 = load i32, ptr %type, align 4
  %cmp = icmp eq i32 %84, 5
  br i1 %cmp, label %if.then66, label %lor.lhs.false

lor.lhs.false:                                    ; preds = %invoke.cont60
  %85 = load i32, ptr %type, align 4
  %cmp65 = icmp eq i32 %85, 6
  br i1 %cmp65, label %if.then66, label %if.else

if.then66:                                        ; preds = %lor.lhs.false, %invoke.cont60
  %86 = load ptr, ptr %printer.addr, align 8
  %variables_67 = getelementptr inbounds %"class.google::protobuf::compiler::java::ImmutablePrimitiveFieldLiteGenerator", ptr %this1, i32 0, i32 2
  call void @_ZNSt17basic_string_viewIcSt11char_traitsIcEEC2EPKc(ptr noundef nonnull align 8 dereferenceable(16) %agg.tmp68, ptr noundef @.str.12) #3
  %87 = getelementptr inbounds { i64, ptr }, ptr %agg.tmp68, i32 0, i32 0
  %88 = load i64, ptr %87, align 8
  %89 = getelementptr inbounds { i64, ptr }, ptr %agg.tmp68, i32 0, i32 1
  %90 = load ptr, ptr %89, align 8
  call void @_ZN6google8protobuf2io7Printer5PrintIN4absl12lts_2023080213flat_hash_mapISt17basic_string_viewIcSt11char_traitsIcEENSt7__cxx1112basic_stringIcS9_SaIcEEENS5_18container_internal10StringHashENSF_8StringEqESaISt4pairIKSA_SE_EEEEEEvRKT_SA_(ptr noundef nonnull align 8 dereferenceable(256) %86, ptr noundef nonnull align 8 dereferenceable(32) %variables_67, i64 %88, ptr %90)
  br label %if.end71

lpad36:                                           ; preds = %if.end31
  %91 = landingpad { ptr, i32 }
          cleanup
  %92 = extractvalue { ptr, i32 } %91, 0
  store ptr %92, ptr %exn.slot, align 8
  %93 = extractvalue { ptr, i32 } %91, 1
  store i32 %93, ptr %ehselector.slot, align 4
  call void @_ZN6google8protobuf8compiler4java7OptionsD2Ev(ptr noundef nonnull align 8 dereferenceable(73) %agg.tmp33) #3
  br label %eh.resume

lpad51:                                           ; preds = %invoke.cont37
  %94 = landingpad { ptr, i32 }
          cleanup
  %95 = extractvalue { ptr, i32 } %94, 0
  store ptr %95, ptr %exn.slot, align 8
  %96 = extractvalue { ptr, i32 } %94, 1
  store i32 %96, ptr %ehselector.slot, align 4
  call void @_ZN6google8protobuf8compiler4java7OptionsD2Ev(ptr noundef nonnull align 8 dereferenceable(73) %agg.tmp48) #3
  br label %eh.resume

lpad59:                                           ; preds = %invoke.cont52
  %97 = landingpad { ptr, i32 }
          cleanup
  %98 = extractvalue { ptr, i32 } %97, 0
  store ptr %98, ptr %exn.slot, align 8
  %99 = extractvalue { ptr, i32 } %97, 1
  store i32 %99, ptr %ehselector.slot, align 4
  call void @_ZN6google8protobuf8compiler4java7OptionsD2Ev(ptr noundef nonnull align 8 dereferenceable(73) %agg.tmp56) #3
  br label %eh.resume

if.else:                                          ; preds = %lor.lhs.false
  %100 = load ptr, ptr %printer.addr, align 8
  %variables_69 = getelementptr inbounds %"class.google::protobuf::compiler::java::ImmutablePrimitiveFieldLiteGenerator", ptr %this1, i32 0, i32 2
  call void @_ZNSt17basic_string_viewIcSt11char_traitsIcEEC2EPKc(ptr noundef nonnull align 8 dereferenceable(16) %agg.tmp70, ptr noundef @.str.13) #3
  %101 = getelementptr inbounds { i64, ptr }, ptr %agg.tmp70, i32 0, i32 0
  %102 = load i64, ptr %101, align 8
  %103 = getelementptr inbounds { i64, ptr }, ptr %agg.tmp70, i32 0, i32 1
  %104 = load ptr, ptr %103, align 8
  call void @_ZN6google8protobuf2io7Printer5PrintIN4absl12lts_2023080213flat_hash_mapISt17basic_string_viewIcSt11char_traitsIcEENSt7__cxx1112basic_stringIcS9_SaIcEEENS5_18container_internal10StringHashENSF_8StringEqESaISt4pairIKSA_SE_EEEEEEvRKT_SA_(ptr noundef nonnull align 8 dereferenceable(256) %100, ptr noundef nonnull align 8 dereferenceable(32) %variables_69, i64 %102, ptr %104)
  br label %if.end71

if.end71:                                         ; preds = %if.else, %if.then66
  %105 = load ptr, ptr %printer.addr, align 8
  %variables_72 = getelementptr inbounds %"class.google::protobuf::compiler::java::ImmutablePrimitiveFieldLiteGenerator", ptr %this1, i32 0, i32 2
  call void @_ZNSt17basic_string_viewIcSt11char_traitsIcEEC2EPKc(ptr noundef nonnull align 8 dereferenceable(16) %agg.tmp73, ptr noundef @.str.14) #3
  %106 = getelementptr inbounds { i64, ptr }, ptr %agg.tmp73, i32 0, i32 0
  %107 = load i64, ptr %106, align 8
  %108 = getelementptr inbounds { i64, ptr }, ptr %agg.tmp73, i32 0, i32 1
  %109 = load ptr, ptr %108, align 8
  call void @_ZN6google8protobuf2io7Printer5PrintIN4absl12lts_2023080213flat_hash_mapISt17basic_string_viewIcSt11char_traitsIcEENSt7__cxx1112basic_stringIcS9_SaIcEEENS5_18container_internal10StringHashENSF_8StringEqESaISt4pairIKSA_SE_EEEEEEvRKT_SA_(ptr noundef nonnull align 8 dereferenceable(256) %105, ptr noundef nonnull align 8 dereferenceable(32) %variables_72, i64 %107, ptr %109)
  ret void

eh.resume:                                        ; preds = %lpad59, %lpad51, %lpad36, %lpad
  %exn = load ptr, ptr %exn.slot, align 8
  %sel = load i32, ptr %ehselector.slot, align 4
  %lpad.val = insertvalue { ptr, i32 } poison, ptr %exn, 0
  %lpad.val74 = insertvalue { ptr, i32 } %lpad.val, i32 %sel, 1
  resume { ptr, i32 } %lpad.val74
}

declare noundef zeroext i1 @_ZN6google8protobuf8compiler4java34IsByteStringWithCustomDefaultValueEPKNS0_15FieldDescriptorE(ptr noundef) #1

declare void @_ZN6google8protobuf8compiler4java19PrintExtraFieldInfoERKN4absl12lts_2023080213flat_hash_mapISt17basic_string_viewIcSt11char_traitsIcEENSt7__cxx1112basic_stringIcS8_SaIcEEENS4_18container_internal10StringHashENSE_8StringEqESaISt4pairIKS9_SD_EEEEPNS0_2io7PrinterE(ptr noundef nonnull align 8 dereferenceable(32), ptr noundef) #1

declare noundef i32 @_ZN6google8protobuf8compiler4java11GetJavaTypeEPKNS0_15FieldDescriptorE(ptr noundef) #1

; Function Attrs: mustprogress uwtable
define hidden void @_ZNK6google8protobuf8compiler4java36ImmutablePrimitiveFieldLiteGenerator22GenerateBuilderMembersEPNS0_2io7PrinterE(ptr noundef nonnull align 8 dereferenceable(72) %this, ptr noundef %printer) unnamed_addr #4 align 2 personality ptr @__gxx_personality_v0 {
entry:
  %this.addr = alloca ptr, align 8
  %printer.addr = alloca ptr, align 8
  %agg.tmp = alloca %"struct.google::protobuf::compiler::java::Options", align 8
  %exn.slot = alloca ptr, align 8
  %ehselector.slot = alloca i32, align 4
  %agg.tmp4 = alloca %"class.std::basic_string_view", align 8
  %agg.tmp5 = alloca %"class.std::basic_string_view", align 8
  %agg.tmp6 = alloca %"class.std::basic_string_view", align 8
  %agg.tmp8 = alloca %"class.std::optional.64", align 4
  %agg.tmp12 = alloca %"struct.google::protobuf::compiler::java::Options", align 8
  %agg.tmp18 = alloca %"class.std::basic_string_view", align 8
  %agg.tmp19 = alloca %"class.std::basic_string_view", align 8
  %agg.tmp20 = alloca %"class.std::basic_string_view", align 8
  %agg.tmp22 = alloca %"class.std::optional.64", align 4
  %agg.tmp27 = alloca %"struct.google::protobuf::compiler::java::Options", align 8
  %agg.tmp33 = alloca %"class.std::basic_string_view", align 8
  %agg.tmp34 = alloca %"class.std::basic_string_view", align 8
  %agg.tmp35 = alloca %"class.std::basic_string_view", align 8
  %agg.tmp37 = alloca %"class.std::optional.64", align 4
  %ref.tmp = alloca i32, align 4
  %agg.tmp41 = alloca %"struct.google::protobuf::compiler::java::Options", align 8
  %agg.tmp47 = alloca %"class.std::basic_string_view", align 8
  %agg.tmp48 = alloca %"class.std::basic_string_view", align 8
  %agg.tmp49 = alloca %"class.std::basic_string_view", align 8
  %agg.tmp51 = alloca %"class.std::optional.64", align 4
  %ref.tmp52 = alloca i32, align 4
  store ptr %this, ptr %this.addr, align 8
  store ptr %printer, ptr %printer.addr, align 8
  %this1 = load ptr, ptr %this.addr, align 8
  %descriptor_ = getelementptr inbounds %"class.google::protobuf::compiler::java::ImmutablePrimitiveFieldLiteGenerator", ptr %this1, i32 0, i32 1
  %0 = load ptr, ptr %descriptor_, align 8
  %call = call noundef zeroext i1 @_ZNK6google8protobuf15FieldDescriptor12has_presenceEv(ptr noundef nonnull align 8 dereferenceable(88) %0)
  br i1 %call, label %if.then, label %if.end

if.then:                                          ; preds = %entry
  %1 = load ptr, ptr %printer.addr, align 8
  %descriptor_2 = getelementptr inbounds %"class.google::protobuf::compiler::java::ImmutablePrimitiveFieldLiteGenerator", ptr %this1, i32 0, i32 1
  %2 = load ptr, ptr %descriptor_2, align 8
  %context_ = getelementptr inbounds %"class.google::protobuf::compiler::java::ImmutablePrimitiveFieldLiteGenerator", ptr %this1, i32 0, i32 4
  %3 = load ptr, ptr %context_, align 8
  %call3 = call noundef nonnull align 8 dereferenceable(73) ptr @_ZNK6google8protobuf8compiler4java7Context7optionsEv(ptr noundef nonnull align 8 dereferenceable(152) %3)
  call void @_ZN6google8protobuf8compiler4java7OptionsC2ERKS3_(ptr noundef nonnull align 8 dereferenceable(73) %agg.tmp, ptr noundef nonnull align 8 dereferenceable(73) %call3)
  invoke void @_ZN6google8protobuf8compiler4java28WriteFieldAccessorDocCommentEPNS0_2io7PrinterEPKNS0_15FieldDescriptorENS2_17FieldAccessorTypeENS2_7OptionsEbb(ptr noundef %1, ptr noundef %2, i32 noundef 0, ptr noundef %agg.tmp, i1 noundef zeroext false, i1 noundef zeroext false)
          to label %invoke.cont unwind label %lpad

invoke.cont:                                      ; preds = %if.then
  call void @_ZN6google8protobuf8compiler4java7OptionsD2Ev(ptr noundef nonnull align 8 dereferenceable(73) %agg.tmp) #3
  %4 = load ptr, ptr %printer.addr, align 8
  %variables_ = getelementptr inbounds %"class.google::protobuf::compiler::java::ImmutablePrimitiveFieldLiteGenerator", ptr %this1, i32 0, i32 2
  call void @_ZNSt17basic_string_viewIcSt11char_traitsIcEEC2EPKc(ptr noundef nonnull align 8 dereferenceable(16) %agg.tmp4, ptr noundef @.str.15) #3
  %5 = getelementptr inbounds { i64, ptr }, ptr %agg.tmp4, i32 0, i32 0
  %6 = load i64, ptr %5, align 8
  %7 = getelementptr inbounds { i64, ptr }, ptr %agg.tmp4, i32 0, i32 1
  %8 = load ptr, ptr %7, align 8
  call void @_ZN6google8protobuf2io7Printer5PrintIN4absl12lts_2023080213flat_hash_mapISt17basic_string_viewIcSt11char_traitsIcEENSt7__cxx1112basic_stringIcS9_SaIcEEENS5_18container_internal10StringHashENSF_8StringEqESaISt4pairIKSA_SE_EEEEEEvRKT_SA_(ptr noundef nonnull align 8 dereferenceable(256) %4, ptr noundef nonnull align 8 dereferenceable(32) %variables_, i64 %6, ptr %8)
  %9 = load ptr, ptr %printer.addr, align 8
  call void @_ZNSt17basic_string_viewIcSt11char_traitsIcEEC2EPKc(ptr noundef nonnull align 8 dereferenceable(16) %agg.tmp5, ptr noundef @.str.2) #3
  call void @_ZNSt17basic_string_viewIcSt11char_traitsIcEEC2EPKc(ptr noundef nonnull align 8 dereferenceable(16) %agg.tmp6, ptr noundef @.str.3) #3
  %descriptor_7 = getelementptr inbounds %"class.google::protobuf::compiler::java::ImmutablePrimitiveFieldLiteGenerator", ptr %this1, i32 0, i32 1
  %10 = load ptr, ptr %descriptor_7, align 8
  call void @_ZNSt8optionalIN6google8protobuf2io19AnnotationCollector8SemanticEEC2ESt9nullopt_t(ptr noundef nonnull align 4 dereferenceable(8) %agg.tmp8) #3
  %11 = getelementptr inbounds { i64, ptr }, ptr %agg.tmp5, i32 0, i32 0
  %12 = load i64, ptr %11, align 8
  %13 = getelementptr inbounds { i64, ptr }, ptr %agg.tmp5, i32 0, i32 1
  %14 = load ptr, ptr %13, align 8
  %15 = getelementptr inbounds { i64, ptr }, ptr %agg.tmp6, i32 0, i32 0
  %16 = load i64, ptr %15, align 8
  %17 = getelementptr inbounds { i64, ptr }, ptr %agg.tmp6, i32 0, i32 1
  %18 = load ptr, ptr %17, align 8
  %coerce.dive = getelementptr inbounds %"class.std::optional.64", ptr %agg.tmp8, i32 0, i32 0
  %coerce.dive10 = getelementptr inbounds %"struct.std::_Optional_base.65", ptr %coerce.dive, i32 0, i32 0
  %19 = load i64, ptr %coerce.dive10, align 4
  call void @_ZN6google8protobuf2io7Printer8AnnotateINS0_15FieldDescriptorEEEvSt17basic_string_viewIcSt11char_traitsIcEES8_PKT_St8optionalINS1_19AnnotationCollector8SemanticEE(ptr noundef nonnull align 8 dereferenceable(256) %9, i64 %12, ptr %14, i64 %16, ptr %18, ptr noundef %10, i64 %19)
  br label %if.end

lpad:                                             ; preds = %if.then
  %20 = landingpad { ptr, i32 }
          cleanup
  %21 = extractvalue { ptr, i32 } %20, 0
  store ptr %21, ptr %exn.slot, align 8
  %22 = extractvalue { ptr, i32 } %20, 1
  store i32 %22, ptr %ehselector.slot, align 4
  call void @_ZN6google8protobuf8compiler4java7OptionsD2Ev(ptr noundef nonnull align 8 dereferenceable(73) %agg.tmp) #3
  br label %eh.resume

if.end:                                           ; preds = %invoke.cont, %entry
  %23 = load ptr, ptr %printer.addr, align 8
  %descriptor_11 = getelementptr inbounds %"class.google::protobuf::compiler::java::ImmutablePrimitiveFieldLiteGenerator", ptr %this1, i32 0, i32 1
  %24 = load ptr, ptr %descriptor_11, align 8
  %context_13 = getelementptr inbounds %"class.google::protobuf::compiler::java::ImmutablePrimitiveFieldLiteGenerator", ptr %this1, i32 0, i32 4
  %25 = load ptr, ptr %context_13, align 8
  %call14 = call noundef nonnull align 8 dereferenceable(73) ptr @_ZNK6google8protobuf8compiler4java7Context7optionsEv(ptr noundef nonnull align 8 dereferenceable(152) %25)
  call void @_ZN6google8protobuf8compiler4java7OptionsC2ERKS3_(ptr noundef nonnull align 8 dereferenceable(73) %agg.tmp12, ptr noundef nonnull align 8 dereferenceable(73) %call14)
  invoke void @_ZN6google8protobuf8compiler4java28WriteFieldAccessorDocCommentEPNS0_2io7PrinterEPKNS0_15FieldDescriptorENS2_17FieldAccessorTypeENS2_7OptionsEbb(ptr noundef %23, ptr noundef %24, i32 noundef 1, ptr noundef %agg.tmp12, i1 noundef zeroext false, i1 noundef zeroext false)
          to label %invoke.cont16 unwind label %lpad15

invoke.cont16:                                    ; preds = %if.end
  call void @_ZN6google8protobuf8compiler4java7OptionsD2Ev(ptr noundef nonnull align 8 dereferenceable(73) %agg.tmp12) #3
  %26 = load ptr, ptr %printer.addr, align 8
  %variables_17 = getelementptr inbounds %"class.google::protobuf::compiler::java::ImmutablePrimitiveFieldLiteGenerator", ptr %this1, i32 0, i32 2
  call void @_ZNSt17basic_string_viewIcSt11char_traitsIcEEC2EPKc(ptr noundef nonnull align 8 dereferenceable(16) %agg.tmp18, ptr noundef @.str.16) #3
  %27 = getelementptr inbounds { i64, ptr }, ptr %agg.tmp18, i32 0, i32 0
  %28 = load i64, ptr %27, align 8
  %29 = getelementptr inbounds { i64, ptr }, ptr %agg.tmp18, i32 0, i32 1
  %30 = load ptr, ptr %29, align 8
  call void @_ZN6google8protobuf2io7Printer5PrintIN4absl12lts_2023080213flat_hash_mapISt17basic_string_viewIcSt11char_traitsIcEENSt7__cxx1112basic_stringIcS9_SaIcEEENS5_18container_internal10StringHashENSF_8StringEqESaISt4pairIKSA_SE_EEEEEEvRKT_SA_(ptr noundef nonnull align 8 dereferenceable(256) %26, ptr noundef nonnull align 8 dereferenceable(32) %variables_17, i64 %28, ptr %30)
  %31 = load ptr, ptr %printer.addr, align 8
  call void @_ZNSt17basic_string_viewIcSt11char_traitsIcEEC2EPKc(ptr noundef nonnull align 8 dereferenceable(16) %agg.tmp19, ptr noundef @.str.2) #3
  call void @_ZNSt17basic_string_viewIcSt11char_traitsIcEEC2EPKc(ptr noundef nonnull align 8 dereferenceable(16) %agg.tmp20, ptr noundef @.str.3) #3
  %descriptor_21 = getelementptr inbounds %"class.google::protobuf::compiler::java::ImmutablePrimitiveFieldLiteGenerator", ptr %this1, i32 0, i32 1
  %32 = load ptr, ptr %descriptor_21, align 8
  call void @_ZNSt8optionalIN6google8protobuf2io19AnnotationCollector8SemanticEEC2ESt9nullopt_t(ptr noundef nonnull align 4 dereferenceable(8) %agg.tmp22) #3
  %33 = getelementptr inbounds { i64, ptr }, ptr %agg.tmp19, i32 0, i32 0
  %34 = load i64, ptr %33, align 8
  %35 = getelementptr inbounds { i64, ptr }, ptr %agg.tmp19, i32 0, i32 1
  %36 = load ptr, ptr %35, align 8
  %37 = getelementptr inbounds { i64, ptr }, ptr %agg.tmp20, i32 0, i32 0
  %38 = load i64, ptr %37, align 8
  %39 = getelementptr inbounds { i64, ptr }, ptr %agg.tmp20, i32 0, i32 1
  %40 = load ptr, ptr %39, align 8
  %coerce.dive24 = getelementptr inbounds %"class.std::optional.64", ptr %agg.tmp22, i32 0, i32 0
  %coerce.dive25 = getelementptr inbounds %"struct.std::_Optional_base.65", ptr %coerce.dive24, i32 0, i32 0
  %41 = load i64, ptr %coerce.dive25, align 4
  call void @_ZN6google8protobuf2io7Printer8AnnotateINS0_15FieldDescriptorEEEvSt17basic_string_viewIcSt11char_traitsIcEES8_PKT_St8optionalINS1_19AnnotationCollector8SemanticEE(ptr noundef nonnull align 8 dereferenceable(256) %31, i64 %34, ptr %36, i64 %38, ptr %40, ptr noundef %32, i64 %41)
  %42 = load ptr, ptr %printer.addr, align 8
  %descriptor_26 = getelementptr inbounds %"class.google::protobuf::compiler::java::ImmutablePrimitiveFieldLiteGenerator", ptr %this1, i32 0, i32 1
  %43 = load ptr, ptr %descriptor_26, align 8
  %context_28 = getelementptr inbounds %"class.google::protobuf::compiler::java::ImmutablePrimitiveFieldLiteGenerator", ptr %this1, i32 0, i32 4
  %44 = load ptr, ptr %context_28, align 8
  %call29 = call noundef nonnull align 8 dereferenceable(73) ptr @_ZNK6google8protobuf8compiler4java7Context7optionsEv(ptr noundef nonnull align 8 dereferenceable(152) %44)
  call void @_ZN6google8protobuf8compiler4java7OptionsC2ERKS3_(ptr noundef nonnull align 8 dereferenceable(73) %agg.tmp27, ptr noundef nonnull align 8 dereferenceable(73) %call29)
  invoke void @_ZN6google8protobuf8compiler4java28WriteFieldAccessorDocCommentEPNS0_2io7PrinterEPKNS0_15FieldDescriptorENS2_17FieldAccessorTypeENS2_7OptionsEbb(ptr noundef %42, ptr noundef %43, i32 noundef 2, ptr noundef %agg.tmp27, i1 noundef zeroext true, i1 noundef zeroext false)
          to label %invoke.cont31 unwind label %lpad30

invoke.cont31:                                    ; preds = %invoke.cont16
  call void @_ZN6google8protobuf8compiler4java7OptionsD2Ev(ptr noundef nonnull align 8 dereferenceable(73) %agg.tmp27) #3
  %45 = load ptr, ptr %printer.addr, align 8
  %variables_32 = getelementptr inbounds %"class.google::protobuf::compiler::java::ImmutablePrimitiveFieldLiteGenerator", ptr %this1, i32 0, i32 2
  call void @_ZNSt17basic_string_viewIcSt11char_traitsIcEEC2EPKc(ptr noundef nonnull align 8 dereferenceable(16) %agg.tmp33, ptr noundef @.str.17) #3
  %46 = getelementptr inbounds { i64, ptr }, ptr %agg.tmp33, i32 0, i32 0
  %47 = load i64, ptr %46, align 8
  %48 = getelementptr inbounds { i64, ptr }, ptr %agg.tmp33, i32 0, i32 1
  %49 = load ptr, ptr %48, align 8
  call void @_ZN6google8protobuf2io7Printer5PrintIN4absl12lts_2023080213flat_hash_mapISt17basic_string_viewIcSt11char_traitsIcEENSt7__cxx1112basic_stringIcS9_SaIcEEENS5_18container_internal10StringHashENSF_8StringEqESaISt4pairIKSA_SE_EEEEEEvRKT_SA_(ptr noundef nonnull align 8 dereferenceable(256) %45, ptr noundef nonnull align 8 dereferenceable(32) %variables_32, i64 %47, ptr %49)
  %50 = load ptr, ptr %printer.addr, align 8
  call void @_ZNSt17basic_string_viewIcSt11char_traitsIcEEC2EPKc(ptr noundef nonnull align 8 dereferenceable(16) %agg.tmp34, ptr noundef @.str.2) #3
  call void @_ZNSt17basic_string_viewIcSt11char_traitsIcEEC2EPKc(ptr noundef nonnull align 8 dereferenceable(16) %agg.tmp35, ptr noundef @.str.3) #3
  %descriptor_36 = getelementptr inbounds %"class.google::protobuf::compiler::java::ImmutablePrimitiveFieldLiteGenerator", ptr %this1, i32 0, i32 1
  %51 = load ptr, ptr %descriptor_36, align 8
  store i32 1, ptr %ref.tmp, align 4
  call void @_ZNSt8optionalIN6google8protobuf2io19AnnotationCollector8SemanticEEC2IS4_TnNSt9enable_ifIX7__and_vISt6__not_ISt7is_sameIS5_NSt9remove_cvINSt16remove_referenceIT_E4typeEE4typeEEES8_IS9_ISt10in_place_tSG_EESt16is_constructibleIS4_JSC_EESt14is_convertibleISC_S4_EEEbE4typeELb1EEEOSC_(ptr noundef nonnull align 4 dereferenceable(8) %agg.tmp37, ptr noundef nonnull align 4 dereferenceable(4) %ref.tmp) #3
  %52 = getelementptr inbounds { i64, ptr }, ptr %agg.tmp34, i32 0, i32 0
  %53 = load i64, ptr %52, align 8
  %54 = getelementptr inbounds { i64, ptr }, ptr %agg.tmp34, i32 0, i32 1
  %55 = load ptr, ptr %54, align 8
  %56 = getelementptr inbounds { i64, ptr }, ptr %agg.tmp35, i32 0, i32 0
  %57 = load i64, ptr %56, align 8
  %58 = getelementptr inbounds { i64, ptr }, ptr %agg.tmp35, i32 0, i32 1
  %59 = load ptr, ptr %58, align 8
  %coerce.dive38 = getelementptr inbounds %"class.std::optional.64", ptr %agg.tmp37, i32 0, i32 0
  %coerce.dive39 = getelementptr inbounds %"struct.std::_Optional_base.65", ptr %coerce.dive38, i32 0, i32 0
  %60 = load i64, ptr %coerce.dive39, align 4
  call void @_ZN6google8protobuf2io7Printer8AnnotateINS0_15FieldDescriptorEEEvSt17basic_string_viewIcSt11char_traitsIcEES8_PKT_St8optionalINS1_19AnnotationCollector8SemanticEE(ptr noundef nonnull align 8 dereferenceable(256) %50, i64 %53, ptr %55, i64 %57, ptr %59, ptr noundef %51, i64 %60)
  %61 = load ptr, ptr %printer.addr, align 8
  %descriptor_40 = getelementptr inbounds %"class.google::protobuf::compiler::java::ImmutablePrimitiveFieldLiteGenerator", ptr %this1, i32 0, i32 1
  %62 = load ptr, ptr %descriptor_40, align 8
  %context_42 = getelementptr inbounds %"class.google::protobuf::compiler::java::ImmutablePrimitiveFieldLiteGenerator", ptr %this1, i32 0, i32 4
  %63 = load ptr, ptr %context_42, align 8
  %call43 = call noundef nonnull align 8 dereferenceable(73) ptr @_ZNK6google8protobuf8compiler4java7Context7optionsEv(ptr noundef nonnull align 8 dereferenceable(152) %63)
  call void @_ZN6google8protobuf8compiler4java7OptionsC2ERKS3_(ptr noundef nonnull align 8 dereferenceable(73) %agg.tmp41, ptr noundef nonnull align 8 dereferenceable(73) %call43)
  invoke void @_ZN6google8protobuf8compiler4java28WriteFieldAccessorDocCommentEPNS0_2io7PrinterEPKNS0_15FieldDescriptorENS2_17FieldAccessorTypeENS2_7OptionsEbb(ptr noundef %61, ptr noundef %62, i32 noundef 3, ptr noundef %agg.tmp41, i1 noundef zeroext true, i1 noundef zeroext false)
          to label %invoke.cont45 unwind label %lpad44

invoke.cont45:                                    ; preds = %invoke.cont31
  call void @_ZN6google8protobuf8compiler4java7OptionsD2Ev(ptr noundef nonnull align 8 dereferenceable(73) %agg.tmp41) #3
  %64 = load ptr, ptr %printer.addr, align 8
  %variables_46 = getelementptr inbounds %"class.google::protobuf::compiler::java::ImmutablePrimitiveFieldLiteGenerator", ptr %this1, i32 0, i32 2
  call void @_ZNSt17basic_string_viewIcSt11char_traitsIcEEC2EPKc(ptr noundef nonnull align 8 dereferenceable(16) %agg.tmp47, ptr noundef @.str.18) #3
  %65 = getelementptr inbounds { i64, ptr }, ptr %agg.tmp47, i32 0, i32 0
  %66 = load i64, ptr %65, align 8
  %67 = getelementptr inbounds { i64, ptr }, ptr %agg.tmp47, i32 0, i32 1
  %68 = load ptr, ptr %67, align 8
  call void @_ZN6google8protobuf2io7Printer5PrintIN4absl12lts_2023080213flat_hash_mapISt17basic_string_viewIcSt11char_traitsIcEENSt7__cxx1112basic_stringIcS9_SaIcEEENS5_18container_internal10StringHashENSF_8StringEqESaISt4pairIKSA_SE_EEEEEEvRKT_SA_(ptr noundef nonnull align 8 dereferenceable(256) %64, ptr noundef nonnull align 8 dereferenceable(32) %variables_46, i64 %66, ptr %68)
  %69 = load ptr, ptr %printer.addr, align 8
  call void @_ZNSt17basic_string_viewIcSt11char_traitsIcEEC2EPKc(ptr noundef nonnull align 8 dereferenceable(16) %agg.tmp48, ptr noundef @.str.2) #3
  call void @_ZNSt17basic_string_viewIcSt11char_traitsIcEEC2EPKc(ptr noundef nonnull align 8 dereferenceable(16) %agg.tmp49, ptr noundef @.str.3) #3
  %descriptor_50 = getelementptr inbounds %"class.google::protobuf::compiler::java::ImmutablePrimitiveFieldLiteGenerator", ptr %this1, i32 0, i32 1
  %70 = load ptr, ptr %descriptor_50, align 8
  store i32 1, ptr %ref.tmp52, align 4
  call void @_ZNSt8optionalIN6google8protobuf2io19AnnotationCollector8SemanticEEC2IS4_TnNSt9enable_ifIX7__and_vISt6__not_ISt7is_sameIS5_NSt9remove_cvINSt16remove_referenceIT_E4typeEE4typeEEES8_IS9_ISt10in_place_tSG_EESt16is_constructibleIS4_JSC_EESt14is_convertibleISC_S4_EEEbE4typeELb1EEEOSC_(ptr noundef nonnull align 4 dereferenceable(8) %agg.tmp51, ptr noundef nonnull align 4 dereferenceable(4) %ref.tmp52) #3
  %71 = getelementptr inbounds { i64, ptr }, ptr %agg.tmp48, i32 0, i32 0
  %72 = load i64, ptr %71, align 8
  %73 = getelementptr inbounds { i64, ptr }, ptr %agg.tmp48, i32 0, i32 1
  %74 = load ptr, ptr %73, align 8
  %75 = getelementptr inbounds { i64, ptr }, ptr %agg.tmp49, i32 0, i32 0
  %76 = load i64, ptr %75, align 8
  %77 = getelementptr inbounds { i64, ptr }, ptr %agg.tmp49, i32 0, i32 1
  %78 = load ptr, ptr %77, align 8
  %coerce.dive53 = getelementptr inbounds %"class.std::optional.64", ptr %agg.tmp51, i32 0, i32 0
  %coerce.dive54 = getelementptr inbounds %"struct.std::_Optional_base.65", ptr %coerce.dive53, i32 0, i32 0
  %79 = load i64, ptr %coerce.dive54, align 4
  call void @_ZN6google8protobuf2io7Printer8AnnotateINS0_15FieldDescriptorEEEvSt17basic_string_viewIcSt11char_traitsIcEES8_PKT_St8optionalINS1_19AnnotationCollector8SemanticEE(ptr noundef nonnull align 8 dereferenceable(256) %69, i64 %72, ptr %74, i64 %76, ptr %78, ptr noundef %70, i64 %79)
  ret void

lpad15:                                           ; preds = %if.end
  %80 = landingpad { ptr, i32 }
          cleanup
  %81 = extractvalue { ptr, i32 } %80, 0
  store ptr %81, ptr %exn.slot, align 8
  %82 = extractvalue { ptr, i32 } %80, 1
  store i32 %82, ptr %ehselector.slot, align 4
  call void @_ZN6google8protobuf8compiler4java7OptionsD2Ev(ptr noundef nonnull align 8 dereferenceable(73) %agg.tmp12) #3
  br label %eh.resume

lpad30:                                           ; preds = %invoke.cont16
  %83 = landingpad { ptr, i32 }
          cleanup
  %84 = extractvalue { ptr, i32 } %83, 0
  store ptr %84, ptr %exn.slot, align 8
  %85 = extractvalue { ptr, i32 } %83, 1
  store i32 %85, ptr %ehselector.slot, align 4
  call void @_ZN6google8protobuf8compiler4java7OptionsD2Ev(ptr noundef nonnull align 8 dereferenceable(73) %agg.tmp27) #3
  br label %eh.resume

lpad44:                                           ; preds = %invoke.cont31
  %86 = landingpad { ptr, i32 }
          cleanup
  %87 = extractvalue { ptr, i32 } %86, 0
  store ptr %87, ptr %exn.slot, align 8
  %88 = extractvalue { ptr, i32 } %86, 1
  store i32 %88, ptr %ehselector.slot, align 4
  call void @_ZN6google8protobuf8compiler4java7OptionsD2Ev(ptr noundef nonnull align 8 dereferenceable(73) %agg.tmp41) #3
  br label %eh.resume

eh.resume:                                        ; preds = %lpad44, %lpad30, %lpad15, %lpad
  %exn = load ptr, ptr %exn.slot, align 8
  %sel = load i32, ptr %ehselector.slot, align 4
  %lpad.val = insertvalue { ptr, i32 } poison, ptr %exn, 0
  %lpad.val55 = insertvalue { ptr, i32 } %lpad.val, i32 %sel, 1
  resume { ptr, i32 } %lpad.val55
}

; Function Attrs: mustprogress nounwind uwtable
define linkonce_odr hidden void @_ZNSt8optionalIN6google8protobuf2io19AnnotationCollector8SemanticEEC2IS4_TnNSt9enable_ifIX7__and_vISt6__not_ISt7is_sameIS5_NSt9remove_cvINSt16remove_referenceIT_E4typeEE4typeEEES8_IS9_ISt10in_place_tSG_EESt16is_constructibleIS4_JSC_EESt14is_convertibleISC_S4_EEEbE4typeELb1EEEOSC_(ptr noundef nonnull align 4 dereferenceable(8) %this, ptr noundef nonnull align 4 dereferenceable(4) %__t) unnamed_addr #5 comdat align 2 personality ptr @__gxx_personality_v0 {
entry:
  %this.addr = alloca ptr, align 8
  %__t.addr = alloca ptr, align 8
  store ptr %this, ptr %this.addr, align 8
  store ptr %__t, ptr %__t.addr, align 8
  %this1 = load ptr, ptr %this.addr, align 8
  %0 = load ptr, ptr %__t.addr, align 8
  invoke void @_ZNSt14_Optional_baseIN6google8protobuf2io19AnnotationCollector8SemanticELb1ELb1EEC2IJS4_ETnNSt9enable_ifIX18is_constructible_vIS4_DpT_EEbE4typeELb0EEESt10in_place_tDpOS8_(ptr noundef nonnull align 4 dereferenceable(8) %this1, ptr noundef nonnull align 4 dereferenceable(4) %0)
          to label %invoke.cont unwind label %terminate.lpad

invoke.cont:                                      ; preds = %entry
  ret void

terminate.lpad:                                   ; preds = %entry
  %1 = landingpad { ptr, i32 }
          catch ptr null
  %2 = extractvalue { ptr, i32 } %1, 0
  call void @__clang_call_terminate(ptr %2) #18
  unreachable
}

; Function Attrs: mustprogress uwtable
define hidden void @_ZNK6google8protobuf8compiler4java36ImmutablePrimitiveFieldLiteGenerator24GenerateKotlinDslMembersEPNS0_2io7PrinterE(ptr noundef nonnull align 8 dereferenceable(72) %this, ptr noundef %printer) unnamed_addr #4 align 2 personality ptr @__gxx_personality_v0 {
entry:
  %this.addr = alloca ptr, align 8
  %printer.addr = alloca ptr, align 8
  %agg.tmp = alloca %"struct.google::protobuf::compiler::java::Options", align 8
  %exn.slot = alloca ptr, align 8
  %ehselector.slot = alloca i32, align 4
  %agg.tmp2 = alloca %"class.std::basic_string_view", align 8
  %agg.tmp4 = alloca %"struct.google::protobuf::compiler::java::Options", align 8
  %agg.tmp10 = alloca %"class.std::basic_string_view", align 8
  %agg.tmp14 = alloca %"struct.google::protobuf::compiler::java::Options", align 8
  %agg.tmp20 = alloca %"class.std::basic_string_view", align 8
  store ptr %this, ptr %this.addr, align 8
  store ptr %printer, ptr %printer.addr, align 8
  %this1 = load ptr, ptr %this.addr, align 8
  %0 = load ptr, ptr %printer.addr, align 8
  %descriptor_ = getelementptr inbounds %"class.google::protobuf::compiler::java::ImmutablePrimitiveFieldLiteGenerator", ptr %this1, i32 0, i32 1
  %1 = load ptr, ptr %descriptor_, align 8
  %context_ = getelementptr inbounds %"class.google::protobuf::compiler::java::ImmutablePrimitiveFieldLiteGenerator", ptr %this1, i32 0, i32 4
  %2 = load ptr, ptr %context_, align 8
  %call = call noundef nonnull align 8 dereferenceable(73) ptr @_ZNK6google8protobuf8compiler4java7Context7optionsEv(ptr noundef nonnull align 8 dereferenceable(152) %2)
  call void @_ZN6google8protobuf8compiler4java7OptionsC2ERKS3_(ptr noundef nonnull align 8 dereferenceable(73) %agg.tmp, ptr noundef nonnull align 8 dereferenceable(73) %call)
  invoke void @_ZN6google8protobuf8compiler4java20WriteFieldDocCommentEPNS0_2io7PrinterEPKNS0_15FieldDescriptorENS2_7OptionsEb(ptr noundef %0, ptr noundef %1, ptr noundef %agg.tmp, i1 noundef zeroext false)
          to label %invoke.cont unwind label %lpad

invoke.cont:                                      ; preds = %entry
  call void @_ZN6google8protobuf8compiler4java7OptionsD2Ev(ptr noundef nonnull align 8 dereferenceable(73) %agg.tmp) #3
  %3 = load ptr, ptr %printer.addr, align 8
  %variables_ = getelementptr inbounds %"class.google::protobuf::compiler::java::ImmutablePrimitiveFieldLiteGenerator", ptr %this1, i32 0, i32 2
  call void @_ZNSt17basic_string_viewIcSt11char_traitsIcEEC2EPKc(ptr noundef nonnull align 8 dereferenceable(16) %agg.tmp2, ptr noundef @.str.19) #3
  %4 = getelementptr inbounds { i64, ptr }, ptr %agg.tmp2, i32 0, i32 0
  %5 = load i64, ptr %4, align 8
  %6 = getelementptr inbounds { i64, ptr }, ptr %agg.tmp2, i32 0, i32 1
  %7 = load ptr, ptr %6, align 8
  call void @_ZN6google8protobuf2io7Printer5PrintIN4absl12lts_2023080213flat_hash_mapISt17basic_string_viewIcSt11char_traitsIcEENSt7__cxx1112basic_stringIcS9_SaIcEEENS5_18container_internal10StringHashENSF_8StringEqESaISt4pairIKSA_SE_EEEEEEvRKT_SA_(ptr noundef nonnull align 8 dereferenceable(256) %3, ptr noundef nonnull align 8 dereferenceable(32) %variables_, i64 %5, ptr %7)
  %8 = load ptr, ptr %printer.addr, align 8
  %descriptor_3 = getelementptr inbounds %"class.google::protobuf::compiler::java::ImmutablePrimitiveFieldLiteGenerator", ptr %this1, i32 0, i32 1
  %9 = load ptr, ptr %descriptor_3, align 8
  %context_5 = getelementptr inbounds %"class.google::protobuf::compiler::java::ImmutablePrimitiveFieldLiteGenerator", ptr %this1, i32 0, i32 4
  %10 = load ptr, ptr %context_5, align 8
  %call6 = call noundef nonnull align 8 dereferenceable(73) ptr @_ZNK6google8protobuf8compiler4java7Context7optionsEv(ptr noundef nonnull align 8 dereferenceable(152) %10)
  call void @_ZN6google8protobuf8compiler4java7OptionsC2ERKS3_(ptr noundef nonnull align 8 dereferenceable(73) %agg.tmp4, ptr noundef nonnull align 8 dereferenceable(73) %call6)
  invoke void @_ZN6google8protobuf8compiler4java28WriteFieldAccessorDocCommentEPNS0_2io7PrinterEPKNS0_15FieldDescriptorENS2_17FieldAccessorTypeENS2_7OptionsEbb(ptr noundef %8, ptr noundef %9, i32 noundef 3, ptr noundef %agg.tmp4, i1 noundef zeroext false, i1 noundef zeroext true)
          to label %invoke.cont8 unwind label %lpad7

invoke.cont8:                                     ; preds = %invoke.cont
  call void @_ZN6google8protobuf8compiler4java7OptionsD2Ev(ptr noundef nonnull align 8 dereferenceable(73) %agg.tmp4) #3
  %11 = load ptr, ptr %printer.addr, align 8
  %variables_9 = getelementptr inbounds %"class.google::protobuf::compiler::java::ImmutablePrimitiveFieldLiteGenerator", ptr %this1, i32 0, i32 2
  call void @_ZNSt17basic_string_viewIcSt11char_traitsIcEEC2EPKc(ptr noundef nonnull align 8 dereferenceable(16) %agg.tmp10, ptr noundef @.str.20) #3
  %12 = getelementptr inbounds { i64, ptr }, ptr %agg.tmp10, i32 0, i32 0
  %13 = load i64, ptr %12, align 8
  %14 = getelementptr inbounds { i64, ptr }, ptr %agg.tmp10, i32 0, i32 1
  %15 = load ptr, ptr %14, align 8
  call void @_ZN6google8protobuf2io7Printer5PrintIN4absl12lts_2023080213flat_hash_mapISt17basic_string_viewIcSt11char_traitsIcEENSt7__cxx1112basic_stringIcS9_SaIcEEENS5_18container_internal10StringHashENSF_8StringEqESaISt4pairIKSA_SE_EEEEEEvRKT_SA_(ptr noundef nonnull align 8 dereferenceable(256) %11, ptr noundef nonnull align 8 dereferenceable(32) %variables_9, i64 %13, ptr %15)
  %descriptor_11 = getelementptr inbounds %"class.google::protobuf::compiler::java::ImmutablePrimitiveFieldLiteGenerator", ptr %this1, i32 0, i32 1
  %16 = load ptr, ptr %descriptor_11, align 8
  %call12 = call noundef zeroext i1 @_ZNK6google8protobuf15FieldDescriptor12has_presenceEv(ptr noundef nonnull align 8 dereferenceable(88) %16)
  br i1 %call12, label %if.then, label %if.end

if.then:                                          ; preds = %invoke.cont8
  %17 = load ptr, ptr %printer.addr, align 8
  %descriptor_13 = getelementptr inbounds %"class.google::protobuf::compiler::java::ImmutablePrimitiveFieldLiteGenerator", ptr %this1, i32 0, i32 1
  %18 = load ptr, ptr %descriptor_13, align 8
  %context_15 = getelementptr inbounds %"class.google::protobuf::compiler::java::ImmutablePrimitiveFieldLiteGenerator", ptr %this1, i32 0, i32 4
  %19 = load ptr, ptr %context_15, align 8
  %call16 = call noundef nonnull align 8 dereferenceable(73) ptr @_ZNK6google8protobuf8compiler4java7Context7optionsEv(ptr noundef nonnull align 8 dereferenceable(152) %19)
  call void @_ZN6google8protobuf8compiler4java7OptionsC2ERKS3_(ptr noundef nonnull align 8 dereferenceable(73) %agg.tmp14, ptr noundef nonnull align 8 dereferenceable(73) %call16)
  invoke void @_ZN6google8protobuf8compiler4java28WriteFieldAccessorDocCommentEPNS0_2io7PrinterEPKNS0_15FieldDescriptorENS2_17FieldAccessorTypeENS2_7OptionsEbb(ptr noundef %17, ptr noundef %18, i32 noundef 0, ptr noundef %agg.tmp14, i1 noundef zeroext false, i1 noundef zeroext true)
          to label %invoke.cont18 unwind label %lpad17

invoke.cont18:                                    ; preds = %if.then
  call void @_ZN6google8protobuf8compiler4java7OptionsD2Ev(ptr noundef nonnull align 8 dereferenceable(73) %agg.tmp14) #3
  %20 = load ptr, ptr %printer.addr, align 8
  %variables_19 = getelementptr inbounds %"class.google::protobuf::compiler::java::ImmutablePrimitiveFieldLiteGenerator", ptr %this1, i32 0, i32 2
  call void @_ZNSt17basic_string_viewIcSt11char_traitsIcEEC2EPKc(ptr noundef nonnull align 8 dereferenceable(16) %agg.tmp20, ptr noundef @.str.21) #3
  %21 = getelementptr inbounds { i64, ptr }, ptr %agg.tmp20, i32 0, i32 0
  %22 = load i64, ptr %21, align 8
  %23 = getelementptr inbounds { i64, ptr }, ptr %agg.tmp20, i32 0, i32 1
  %24 = load ptr, ptr %23, align 8
  call void @_ZN6google8protobuf2io7Printer5PrintIN4absl12lts_2023080213flat_hash_mapISt17basic_string_viewIcSt11char_traitsIcEENSt7__cxx1112basic_stringIcS9_SaIcEEENS5_18container_internal10StringHashENSF_8StringEqESaISt4pairIKSA_SE_EEEEEEvRKT_SA_(ptr noundef nonnull align 8 dereferenceable(256) %20, ptr noundef nonnull align 8 dereferenceable(32) %variables_19, i64 %22, ptr %24)
  br label %if.end

lpad:                                             ; preds = %entry
  %25 = landingpad { ptr, i32 }
          cleanup
  %26 = extractvalue { ptr, i32 } %25, 0
  store ptr %26, ptr %exn.slot, align 8
  %27 = extractvalue { ptr, i32 } %25, 1
  store i32 %27, ptr %ehselector.slot, align 4
  call void @_ZN6google8protobuf8compiler4java7OptionsD2Ev(ptr noundef nonnull align 8 dereferenceable(73) %agg.tmp) #3
  br label %eh.resume

lpad7:                                            ; preds = %invoke.cont
  %28 = landingpad { ptr, i32 }
          cleanup
  %29 = extractvalue { ptr, i32 } %28, 0
  store ptr %29, ptr %exn.slot, align 8
  %30 = extractvalue { ptr, i32 } %28, 1
  store i32 %30, ptr %ehselector.slot, align 4
  call void @_ZN6google8protobuf8compiler4java7OptionsD2Ev(ptr noundef nonnull align 8 dereferenceable(73) %agg.tmp4) #3
  br label %eh.resume

lpad17:                                           ; preds = %if.then
  %31 = landingpad { ptr, i32 }
          cleanup
  %32 = extractvalue { ptr, i32 } %31, 0
  store ptr %32, ptr %exn.slot, align 8
  %33 = extractvalue { ptr, i32 } %31, 1
  store i32 %33, ptr %ehselector.slot, align 4
  call void @_ZN6google8protobuf8compiler4java7OptionsD2Ev(ptr noundef nonnull align 8 dereferenceable(73) %agg.tmp14) #3
  br label %eh.resume

if.end:                                           ; preds = %invoke.cont18, %invoke.cont8
  ret void

eh.resume:                                        ; preds = %lpad17, %lpad7, %lpad
  %exn = load ptr, ptr %exn.slot, align 8
  %sel = load i32, ptr %ehselector.slot, align 4
  %lpad.val = insertvalue { ptr, i32 } poison, ptr %exn, 0
  %lpad.val21 = insertvalue { ptr, i32 } %lpad.val, i32 %sel, 1
  resume { ptr, i32 } %lpad.val21
}

declare void @_ZN6google8protobuf8compiler4java20WriteFieldDocCommentEPNS0_2io7PrinterEPKNS0_15FieldDescriptorENS2_7OptionsEb(ptr noundef, ptr noundef, ptr noundef, i1 noundef zeroext) #1

; Function Attrs: mustprogress uwtable
define hidden void @_ZNK6google8protobuf8compiler4java36ImmutablePrimitiveFieldLiteGenerator17GenerateFieldInfoEPNS0_2io7PrinterEPSt6vectorItSaItEE(ptr noundef nonnull align 8 dereferenceable(72) %this, ptr noundef %printer, ptr noundef %output) unnamed_addr #4 align 2 {
entry:
  %this.addr = alloca ptr, align 8
  %printer.addr = alloca ptr, align 8
  %output.addr = alloca ptr, align 8
  %agg.tmp = alloca %"class.std::basic_string_view", align 8
  store ptr %this, ptr %this.addr, align 8
  store ptr %printer, ptr %printer.addr, align 8
  store ptr %output, ptr %output.addr, align 8
  %this1 = load ptr, ptr %this.addr, align 8
  %descriptor_ = getelementptr inbounds %"class.google::protobuf::compiler::java::ImmutablePrimitiveFieldLiteGenerator", ptr %this1, i32 0, i32 1
  %0 = load ptr, ptr %descriptor_, align 8
  %call = call noundef i32 @_ZNK6google8protobuf15FieldDescriptor6numberEv(ptr noundef nonnull align 8 dereferenceable(88) %0)
  %1 = load ptr, ptr %output.addr, align 8
  call void @_ZN6google8protobuf8compiler4java27WriteIntToUtf16CharSequenceEiPSt6vectorItSaItEE(i32 noundef %call, ptr noundef %1)
  %descriptor_2 = getelementptr inbounds %"class.google::protobuf::compiler::java::ImmutablePrimitiveFieldLiteGenerator", ptr %this1, i32 0, i32 1
  %2 = load ptr, ptr %descriptor_2, align 8
  %call3 = call noundef i32 @_ZN6google8protobuf8compiler4java28GetExperimentalJavaFieldTypeEPKNS0_15FieldDescriptorE(ptr noundef %2)
  %3 = load ptr, ptr %output.addr, align 8
  call void @_ZN6google8protobuf8compiler4java27WriteIntToUtf16CharSequenceEiPSt6vectorItSaItEE(i32 noundef %call3, ptr noundef %3)
  %descriptor_4 = getelementptr inbounds %"class.google::protobuf::compiler::java::ImmutablePrimitiveFieldLiteGenerator", ptr %this1, i32 0, i32 1
  %4 = load ptr, ptr %descriptor_4, align 8
  %call5 = call noundef zeroext i1 @_ZN6google8protobuf8compiler4java9HasHasbitEPKNS0_15FieldDescriptorE(ptr noundef %4)
  br i1 %call5, label %if.then, label %if.end

if.then:                                          ; preds = %entry
  %messageBitIndex_ = getelementptr inbounds %"class.google::protobuf::compiler::java::ImmutablePrimitiveFieldLiteGenerator", ptr %this1, i32 0, i32 3
  %5 = load i32, ptr %messageBitIndex_, align 8
  %6 = load ptr, ptr %output.addr, align 8
  call void @_ZN6google8protobuf8compiler4java27WriteIntToUtf16CharSequenceEiPSt6vectorItSaItEE(i32 noundef %5, ptr noundef %6)
  br label %if.end

if.end:                                           ; preds = %if.then, %entry
  %7 = load ptr, ptr %printer.addr, align 8
  %variables_ = getelementptr inbounds %"class.google::protobuf::compiler::java::ImmutablePrimitiveFieldLiteGenerator", ptr %this1, i32 0, i32 2
  call void @_ZNSt17basic_string_viewIcSt11char_traitsIcEEC2EPKc(ptr noundef nonnull align 8 dereferenceable(16) %agg.tmp, ptr noundef @.str.22) #3
  %8 = getelementptr inbounds { i64, ptr }, ptr %agg.tmp, i32 0, i32 0
  %9 = load i64, ptr %8, align 8
  %10 = getelementptr inbounds { i64, ptr }, ptr %agg.tmp, i32 0, i32 1
  %11 = load ptr, ptr %10, align 8
  call void @_ZN6google8protobuf2io7Printer5PrintIN4absl12lts_2023080213flat_hash_mapISt17basic_string_viewIcSt11char_traitsIcEENSt7__cxx1112basic_stringIcS9_SaIcEEENS5_18container_internal10StringHashENSF_8StringEqESaISt4pairIKSA_SE_EEEEEEvRKT_SA_(ptr noundef nonnull align 8 dereferenceable(256) %7, ptr noundef nonnull align 8 dereferenceable(32) %variables_, i64 %9, ptr %11)
  ret void
}

; Function Attrs: mustprogress uwtable
define linkonce_odr hidden void @_ZN6google8protobuf8compiler4java27WriteIntToUtf16CharSequenceEiPSt6vectorItSaItEE(i32 noundef %value, ptr noundef %output) #4 comdat {
entry:
  %value.addr = alloca i32, align 4
  %output.addr = alloca ptr, align 8
  store i32 %value, ptr %value.addr, align 4
  store ptr %output, ptr %output.addr, align 8
  %0 = load i32, ptr %value.addr, align 4
  %1 = load ptr, ptr %output.addr, align 8
  call void @_ZN6google8protobuf8compiler4java30WriteUInt32ToUtf16CharSequenceEjPSt6vectorItSaItEE(i32 noundef %0, ptr noundef %1)
  ret void
}

; Function Attrs: mustprogress nounwind uwtable
define linkonce_odr hidden noundef i32 @_ZNK6google8protobuf15FieldDescriptor6numberEv(ptr noundef nonnull align 8 dereferenceable(88) %this) #5 comdat align 2 {
entry:
  %this.addr = alloca ptr, align 8
  store ptr %this, ptr %this.addr, align 8
  %this1 = load ptr, ptr %this.addr, align 8
  %number_ = getelementptr inbounds %"class.google::protobuf::FieldDescriptor", ptr %this1, i32 0, i32 4
  %0 = load i32, ptr %number_, align 4
  ret i32 %0
}

declare noundef i32 @_ZN6google8protobuf8compiler4java28GetExperimentalJavaFieldTypeEPKNS0_15FieldDescriptorE(ptr noundef) #1

; Function Attrs: mustprogress uwtable
define hidden void @_ZNK6google8protobuf8compiler4java36ImmutablePrimitiveFieldLiteGenerator26GenerateInitializationCodeEPNS0_2io7PrinterE(ptr noundef nonnull align 8 dereferenceable(72) %this, ptr noundef %printer) unnamed_addr #4 align 2 {
entry:
  %this.addr = alloca ptr, align 8
  %printer.addr = alloca ptr, align 8
  %agg.tmp = alloca %"class.std::basic_string_view", align 8
  %agg.tmp6 = alloca %"class.std::basic_string_view", align 8
  store ptr %this, ptr %this.addr, align 8
  store ptr %printer, ptr %printer.addr, align 8
  %this1 = load ptr, ptr %this.addr, align 8
  %descriptor_ = getelementptr inbounds %"class.google::protobuf::compiler::java::ImmutablePrimitiveFieldLiteGenerator", ptr %this1, i32 0, i32 1
  %0 = load ptr, ptr %descriptor_, align 8
  %call = call noundef zeroext i1 @_ZN6google8protobuf8compiler4java34IsByteStringWithCustomDefaultValueEPKNS0_15FieldDescriptorE(ptr noundef %0)
  br i1 %call, label %if.then, label %if.else

if.then:                                          ; preds = %entry
  %1 = load ptr, ptr %printer.addr, align 8
  %variables_ = getelementptr inbounds %"class.google::protobuf::compiler::java::ImmutablePrimitiveFieldLiteGenerator", ptr %this1, i32 0, i32 2
  call void @_ZNSt17basic_string_viewIcSt11char_traitsIcEEC2EPKc(ptr noundef nonnull align 8 dereferenceable(16) %agg.tmp, ptr noundef @.str.23) #3
  %2 = getelementptr inbounds { i64, ptr }, ptr %agg.tmp, i32 0, i32 0
  %3 = load i64, ptr %2, align 8
  %4 = getelementptr inbounds { i64, ptr }, ptr %agg.tmp, i32 0, i32 1
  %5 = load ptr, ptr %4, align 8
  call void @_ZN6google8protobuf2io7Printer5PrintIN4absl12lts_2023080213flat_hash_mapISt17basic_string_viewIcSt11char_traitsIcEENSt7__cxx1112basic_stringIcS9_SaIcEEENS5_18container_internal10StringHashENSF_8StringEqESaISt4pairIKSA_SE_EEEEEEvRKT_SA_(ptr noundef nonnull align 8 dereferenceable(256) %1, ptr noundef nonnull align 8 dereferenceable(32) %variables_, i64 %3, ptr %5)
  br label %if.end7

if.else:                                          ; preds = %entry
  %descriptor_2 = getelementptr inbounds %"class.google::protobuf::compiler::java::ImmutablePrimitiveFieldLiteGenerator", ptr %this1, i32 0, i32 1
  %6 = load ptr, ptr %descriptor_2, align 8
  %call3 = call noundef zeroext i1 @_ZN6google8protobuf8compiler4java25IsDefaultValueJavaDefaultEPKNS0_15FieldDescriptorE(ptr noundef %6)
  br i1 %call3, label %if.end, label %if.then4

if.then4:                                         ; preds = %if.else
  %7 = load ptr, ptr %printer.addr, align 8
  %variables_5 = getelementptr inbounds %"class.google::protobuf::compiler::java::ImmutablePrimitiveFieldLiteGenerator", ptr %this1, i32 0, i32 2
  call void @_ZNSt17basic_string_viewIcSt11char_traitsIcEEC2EPKc(ptr noundef nonnull align 8 dereferenceable(16) %agg.tmp6, ptr noundef @.str.24) #3
  %8 = getelementptr inbounds { i64, ptr }, ptr %agg.tmp6, i32 0, i32 0
  %9 = load i64, ptr %8, align 8
  %10 = getelementptr inbounds { i64, ptr }, ptr %agg.tmp6, i32 0, i32 1
  %11 = load ptr, ptr %10, align 8
  call void @_ZN6google8protobuf2io7Printer5PrintIN4absl12lts_2023080213flat_hash_mapISt17basic_string_viewIcSt11char_traitsIcEENSt7__cxx1112basic_stringIcS9_SaIcEEENS5_18container_internal10StringHashENSF_8StringEqESaISt4pairIKSA_SE_EEEEEEvRKT_SA_(ptr noundef nonnull align 8 dereferenceable(256) %7, ptr noundef nonnull align 8 dereferenceable(32) %variables_5, i64 %9, ptr %11)
  br label %if.end

if.end:                                           ; preds = %if.then4, %if.else
  br label %if.end7

if.end7:                                          ; preds = %if.end, %if.then
  ret void
}

declare noundef zeroext i1 @_ZN6google8protobuf8compiler4java25IsDefaultValueJavaDefaultEPKNS0_15FieldDescriptorE(ptr noundef) #1

; Function Attrs: mustprogress uwtable
define hidden void @_ZNK6google8protobuf8compiler4java36ImmutablePrimitiveFieldLiteGenerator12GetBoxedTypeB5cxx11Ev(ptr noalias sret(%"class.std::__cxx11::basic_string") align 8 %agg.result, ptr noundef nonnull align 8 dereferenceable(72) %this) unnamed_addr #4 align 2 personality ptr @__gxx_personality_v0 {
entry:
  %result.ptr = alloca ptr, align 8
  %this.addr = alloca ptr, align 8
  %ref.tmp = alloca %"class.std::basic_string_view", align 8
  %ref.tmp3 = alloca %"class.std::allocator.31", align 1
  %exn.slot = alloca ptr, align 8
  %ehselector.slot = alloca i32, align 4
  store ptr %agg.result, ptr %result.ptr, align 8
  store ptr %this, ptr %this.addr, align 8
  %this1 = load ptr, ptr %this.addr, align 8
  %descriptor_ = getelementptr inbounds %"class.google::protobuf::compiler::java::ImmutablePrimitiveFieldLiteGenerator", ptr %this1, i32 0, i32 1
  %0 = load ptr, ptr %descriptor_, align 8
  %call = call noundef i32 @_ZN6google8protobuf8compiler4java11GetJavaTypeEPKNS0_15FieldDescriptorE(ptr noundef %0)
  %call2 = call { i64, ptr } @_ZN6google8protobuf8compiler4java22BoxedPrimitiveTypeNameENS2_8JavaTypeE(i32 noundef %call)
  %1 = getelementptr inbounds { i64, ptr }, ptr %ref.tmp, i32 0, i32 0
  %2 = extractvalue { i64, ptr } %call2, 0
  store i64 %2, ptr %1, align 8
  %3 = getelementptr inbounds { i64, ptr }, ptr %ref.tmp, i32 0, i32 1
  %4 = extractvalue { i64, ptr } %call2, 1
  store ptr %4, ptr %3, align 8
  call void @_ZNSaIcEC1Ev(ptr noundef nonnull align 1 dereferenceable(1) %ref.tmp3) #3
  invoke void @_ZNSt7__cxx1112basic_stringIcSt11char_traitsIcESaIcEEC2ISt17basic_string_viewIcS2_EvEERKT_RKS3_(ptr noundef nonnull align 8 dereferenceable(32) %agg.result, ptr noundef nonnull align 8 dereferenceable(16) %ref.tmp, ptr noundef nonnull align 1 dereferenceable(1) %ref.tmp3)
          to label %invoke.cont unwind label %lpad

invoke.cont:                                      ; preds = %entry
  call void @_ZNSaIcED1Ev(ptr noundef nonnull align 1 dereferenceable(1) %ref.tmp3) #3
  ret void

lpad:                                             ; preds = %entry
  %5 = landingpad { ptr, i32 }
          cleanup
  %6 = extractvalue { ptr, i32 } %5, 0
  store ptr %6, ptr %exn.slot, align 8
  %7 = extractvalue { ptr, i32 } %5, 1
  store i32 %7, ptr %ehselector.slot, align 4
  call void @_ZNSaIcED1Ev(ptr noundef nonnull align 1 dereferenceable(1) %ref.tmp3) #3
  br label %eh.resume

eh.resume:                                        ; preds = %lpad
  %exn = load ptr, ptr %exn.slot, align 8
  %sel = load i32, ptr %ehselector.slot, align 4
  %lpad.val = insertvalue { ptr, i32 } poison, ptr %exn, 0
  %lpad.val4 = insertvalue { ptr, i32 } %lpad.val, i32 %sel, 1
  resume { ptr, i32 } %lpad.val4
}

declare { i64, ptr } @_ZN6google8protobuf8compiler4java22BoxedPrimitiveTypeNameENS2_8JavaTypeE(i32 noundef) #1

; Function Attrs: nounwind
declare void @_ZNSaIcEC1Ev(ptr noundef nonnull align 1 dereferenceable(1)) unnamed_addr #2

; Function Attrs: mustprogress uwtable
define linkonce_odr hidden void @_ZNSt7__cxx1112basic_stringIcSt11char_traitsIcESaIcEEC2ISt17basic_string_viewIcS2_EvEERKT_RKS3_(ptr noundef nonnull align 8 dereferenceable(32) %this, ptr noundef nonnull align 8 dereferenceable(16) %__t, ptr noundef nonnull align 1 dereferenceable(1) %__a) unnamed_addr #4 comdat align 2 {
entry:
  %this.addr = alloca ptr, align 8
  %__t.addr = alloca ptr, align 8
  %__a.addr = alloca ptr, align 8
  %agg.tmp = alloca %"struct.std::__cxx11::basic_string<char>::__sv_wrapper", align 8
  %agg.tmp2 = alloca %"class.std::basic_string_view", align 8
  %agg.tmp3 = alloca %"class.std::basic_string_view", align 8
  store ptr %this, ptr %this.addr, align 8
  store ptr %__t, ptr %__t.addr, align 8
  store ptr %__a, ptr %__a.addr, align 8
  %this1 = load ptr, ptr %this.addr, align 8
  %0 = load ptr, ptr %__t.addr, align 8
  call void @llvm.memcpy.p0.p0.i64(ptr align 8 %agg.tmp3, ptr align 8 %0, i64 16, i1 false)
  %1 = getelementptr inbounds { i64, ptr }, ptr %agg.tmp3, i32 0, i32 0
  %2 = load i64, ptr %1, align 8
  %3 = getelementptr inbounds { i64, ptr }, ptr %agg.tmp3, i32 0, i32 1
  %4 = load ptr, ptr %3, align 8
  %call = call { i64, ptr } @_ZNSt7__cxx1112basic_stringIcSt11char_traitsIcESaIcEE17_S_to_string_viewESt17basic_string_viewIcS2_E(i64 %2, ptr %4) #3
  %5 = getelementptr inbounds { i64, ptr }, ptr %agg.tmp2, i32 0, i32 0
  %6 = extractvalue { i64, ptr } %call, 0
  store i64 %6, ptr %5, align 8
  %7 = getelementptr inbounds { i64, ptr }, ptr %agg.tmp2, i32 0, i32 1
  %8 = extractvalue { i64, ptr } %call, 1
  store ptr %8, ptr %7, align 8
  %9 = getelementptr inbounds { i64, ptr }, ptr %agg.tmp2, i32 0, i32 0
  %10 = load i64, ptr %9, align 8
  %11 = getelementptr inbounds { i64, ptr }, ptr %agg.tmp2, i32 0, i32 1
  %12 = load ptr, ptr %11, align 8
  call void @_ZNSt7__cxx1112basic_stringIcSt11char_traitsIcESaIcEE12__sv_wrapperC1ESt17basic_string_viewIcS2_E(ptr noundef nonnull align 8 dereferenceable(16) %agg.tmp, i64 %10, ptr %12) #3
  %13 = load ptr, ptr %__a.addr, align 8
  %14 = getelementptr inbounds { i64, ptr }, ptr %agg.tmp, i32 0, i32 0
  %15 = load i64, ptr %14, align 8
  %16 = getelementptr inbounds { i64, ptr }, ptr %agg.tmp, i32 0, i32 1
  %17 = load ptr, ptr %16, align 8
  call void @_ZNSt7__cxx1112basic_stringIcSt11char_traitsIcESaIcEEC2ENS4_12__sv_wrapperERKS3_(ptr noundef nonnull align 8 dereferenceable(32) %this1, i64 %15, ptr %17, ptr noundef nonnull align 1 dereferenceable(1) %13)
  ret void
}

; Function Attrs: nounwind
declare void @_ZNSaIcED1Ev(ptr noundef nonnull align 1 dereferenceable(1)) unnamed_addr #2

; Function Attrs: mustprogress uwtable
define hidden void @_ZN6google8protobuf8compiler4java41ImmutablePrimitiveOneofFieldLiteGeneratorC2EPKNS0_15FieldDescriptorEiPNS2_7ContextE(ptr noundef nonnull align 8 dereferenceable(72) %this, ptr noundef %descriptor, i32 noundef %messageBitIndex, ptr noundef %context) unnamed_addr #4 align 2 personality ptr @__gxx_personality_v0 {
entry:
  %this.addr = alloca ptr, align 8
  %descriptor.addr = alloca ptr, align 8
  %messageBitIndex.addr = alloca i32, align 4
  %context.addr = alloca ptr, align 8
  %info = alloca ptr, align 8
  %exn.slot = alloca ptr, align 8
  %ehselector.slot = alloca i32, align 4
  store ptr %this, ptr %this.addr, align 8
  store ptr %descriptor, ptr %descriptor.addr, align 8
  store i32 %messageBitIndex, ptr %messageBitIndex.addr, align 4
  store ptr %context, ptr %context.addr, align 8
  %this1 = load ptr, ptr %this.addr, align 8
  %0 = load ptr, ptr %descriptor.addr, align 8
  %1 = load i32, ptr %messageBitIndex.addr, align 4
  %2 = load ptr, ptr %context.addr, align 8
  call void @_ZN6google8protobuf8compiler4java36ImmutablePrimitiveFieldLiteGeneratorC2EPKNS0_15FieldDescriptorEiPNS2_7ContextE(ptr noundef nonnull align 8 dereferenceable(72) %this1, ptr noundef %0, i32 noundef %1, ptr noundef %2)
  store ptr getelementptr inbounds ({ [12 x ptr] }, ptr @_ZTVN6google8protobuf8compiler4java41ImmutablePrimitiveOneofFieldLiteGeneratorE, i32 0, inrange i32 0, i32 2), ptr %this1, align 8
  %3 = load ptr, ptr %context.addr, align 8
  %4 = load ptr, ptr %descriptor.addr, align 8
  %call = invoke noundef ptr @_ZNK6google8protobuf15FieldDescriptor16containing_oneofEv(ptr noundef nonnull align 8 dereferenceable(88) %4)
          to label %invoke.cont unwind label %lpad

invoke.cont:                                      ; preds = %entry
  %call3 = invoke noundef ptr @_ZNK6google8protobuf8compiler4java7Context21GetOneofGeneratorInfoEPKNS0_15OneofDescriptorE(ptr noundef nonnull align 8 dereferenceable(152) %3, ptr noundef %call)
          to label %invoke.cont2 unwind label %lpad

invoke.cont2:                                     ; preds = %invoke.cont
  store ptr %call3, ptr %info, align 8
  %5 = load ptr, ptr %descriptor.addr, align 8
  %6 = load ptr, ptr %info, align 8
  %variables_ = getelementptr inbounds %"class.google::protobuf::compiler::java::ImmutablePrimitiveFieldLiteGenerator", ptr %this1, i32 0, i32 2
  invoke void @_ZN6google8protobuf8compiler4java23SetCommonOneofVariablesEPKNS0_15FieldDescriptorEPKNS2_18OneofGeneratorInfoEPN4absl12lts_2023080213flat_hash_mapISt17basic_string_viewIcSt11char_traitsIcEENSt7__cxx1112basic_stringIcSE_SaIcEEENSA_18container_internal10StringHashENSK_8StringEqESaISt4pairIKSF_SJ_EEEE(ptr noundef %5, ptr noundef %6, ptr noundef %variables_)
          to label %invoke.cont4 unwind label %lpad

invoke.cont4:                                     ; preds = %invoke.cont2
  ret void

lpad:                                             ; preds = %invoke.cont2, %invoke.cont, %entry
  %7 = landingpad { ptr, i32 }
          cleanup
  %8 = extractvalue { ptr, i32 } %7, 0
  store ptr %8, ptr %exn.slot, align 8
  %9 = extractvalue { ptr, i32 } %7, 1
  store i32 %9, ptr %ehselector.slot, align 4
  call void @_ZN6google8protobuf8compiler4java36ImmutablePrimitiveFieldLiteGeneratorD2Ev(ptr noundef nonnull align 8 dereferenceable(72) %this1) #3
  br label %eh.resume

eh.resume:                                        ; preds = %lpad
  %exn = load ptr, ptr %exn.slot, align 8
  %sel = load i32, ptr %ehselector.slot, align 4
  %lpad.val = insertvalue { ptr, i32 } poison, ptr %exn, 0
  %lpad.val5 = insertvalue { ptr, i32 } %lpad.val, i32 %sel, 1
  resume { ptr, i32 } %lpad.val5
}

declare noundef ptr @_ZNK6google8protobuf8compiler4java7Context21GetOneofGeneratorInfoEPKNS0_15OneofDescriptorE(ptr noundef nonnull align 8 dereferenceable(152), ptr noundef) #1

; Function Attrs: mustprogress nounwind uwtable
define linkonce_odr hidden noundef ptr @_ZNK6google8protobuf15FieldDescriptor16containing_oneofEv(ptr noundef nonnull align 8 dereferenceable(88) %this) #5 comdat align 2 {
entry:
  %this.addr = alloca ptr, align 8
  store ptr %this, ptr %this.addr, align 8
  %this1 = load ptr, ptr %this.addr, align 8
  %is_oneof_ = getelementptr inbounds %"class.google::protobuf::FieldDescriptor", ptr %this1, i32 0, i32 1
  %bf.load = load i8, ptr %is_oneof_, align 1
  %bf.lshr = lshr i8 %bf.load, 4
  %bf.clear = and i8 %bf.lshr, 1
  %bf.cast = trunc i8 %bf.clear to i1
  br i1 %bf.cast, label %cond.true, label %cond.false

cond.true:                                        ; preds = %entry
  %scope_ = getelementptr inbounds %"class.google::protobuf::FieldDescriptor", ptr %this1, i32 0, i32 9
  %0 = load ptr, ptr %scope_, align 8
  br label %cond.end

cond.false:                                       ; preds = %entry
  br label %cond.end

cond.end:                                         ; preds = %cond.false, %cond.true
  %cond = phi ptr [ %0, %cond.true ], [ null, %cond.false ]
  ret ptr %cond
}

declare void @_ZN6google8protobuf8compiler4java23SetCommonOneofVariablesEPKNS0_15FieldDescriptorEPKNS2_18OneofGeneratorInfoEPN4absl12lts_2023080213flat_hash_mapISt17basic_string_viewIcSt11char_traitsIcEENSt7__cxx1112basic_stringIcSE_SaIcEEENSA_18container_internal10StringHashENSK_8StringEqESaISt4pairIKSF_SJ_EEEE(ptr noundef, ptr noundef, ptr noundef) #1

; Function Attrs: mustprogress nounwind uwtable
define hidden void @_ZN6google8protobuf8compiler4java41ImmutablePrimitiveOneofFieldLiteGeneratorD2Ev(ptr noundef nonnull align 8 dereferenceable(72) %this) unnamed_addr #5 align 2 {
entry:
  %this.addr = alloca ptr, align 8
