; ModuleID = 'bench/openexr/original/ImfCheckFile.cpp.ll'
source_filename = "bench/openexr/original/ImfCheckFile.cpp.ll"
target datalayout = "e-m:e-p270:32:32-p271:32:32-p272:64:64-i64:64-i128:128-f80:128-n8:16:32:64-S128"
target triple = "x86_64-unknown-linux-gnu"

%"class.std::ios_base::Init" = type { i8 }
%"class.std::__cxx11::basic_string" = type { %"struct.std::__cxx11::basic_string<char>::_Alloc_hider", i64, %union.anon }
%"struct.std::__cxx11::basic_string<char>::_Alloc_hider" = type { ptr }
%union.anon = type { i64, [8 x i8] }
%"class.Imf_3_2::MultiPartInputFile" = type { %"class.Imf_3_2::GenericInputFile", ptr }
%"class.Imf_3_2::GenericInputFile" = type { ptr }
%"class.Imf_3_2::RgbaInputFile" = type { ptr, ptr, ptr, ptr, %"class.std::__cxx11::basic_string" }
%"class.Imf_3_2::InputFile" = type { %"class.Imf_3_2::GenericInputFile", ptr }
%"class.Imf_3_2::TiledInputFile" = type { %"class.Imf_3_2::GenericInputFile", ptr }
%"class.Imf_3_2::DeepScanLineInputFile" = type { %"class.Imf_3_2::GenericInputFile", ptr }
%"class.Imf_3_2::DeepTiledInputFile" = type { %"class.Imf_3_2::GenericInputFile", ptr }
%struct._exr_context_initializer_v3 = type { i64, ptr, ptr, ptr, ptr, ptr, ptr, ptr, ptr, i32, i32, i32, i32, i32, float, i32, [4 x i8] }
%"struct.Imf_3_2::(anonymous namespace)::memdata" = type { ptr, i64 }
%"class.Imf_3_2::(anonymous namespace)::PtrIStream" = type { %"class.Imf_3_2::IStream", ptr, ptr, ptr }
%"class.Imf_3_2::IStream" = type { ptr, %"class.std::__cxx11::basic_string" }
%struct.exr_attr_box2i_t = type { %struct.exr_attr_v2i_t, %struct.exr_attr_v2i_t }
%struct.exr_attr_v2i_t = type { %union.anon.0 }
%union.anon.0 = type { %struct.anon }
%struct.anon = type { i32, i32 }
%struct.exr_chunk_info_t = type { i32, i32, i32, i32, i32, i8, i8, i8, i8, i64, i64, i64, i64, i64 }
%struct._exr_decode_pipeline = type { ptr, i16, i16, i32, ptr, %struct.exr_chunk_info_t, ptr, ptr, i64, ptr, i64, ptr, i64, ptr, i64, ptr, i64, ptr, i64, ptr, ptr, ptr, ptr, ptr, ptr, [5 x %struct.exr_coding_channel_info_t] }
%struct.exr_coding_channel_info_t = type { ptr, i32, i32, i32, i32, i8, i8, i16, i16, i16, i32, i32, %union.anon.4 }
%union.anon.4 = type { ptr }
%"class.std::__cxx11::basic_stringstream" = type { %"class.std::basic_iostream.base", %"class.std::__cxx11::basic_stringbuf", %"class.std::basic_ios" }
%"class.std::basic_iostream.base" = type { %"class.std::basic_istream.base", %"class.std::basic_ostream.base" }
%"class.std::basic_istream.base" = type { ptr, i64 }
%"class.std::basic_ostream.base" = type { ptr }
%"class.std::__cxx11::basic_stringbuf" = type { %"class.std::basic_streambuf", i32, %"class.std::__cxx11::basic_string" }
%"class.std::basic_streambuf" = type { ptr, ptr, ptr, ptr, ptr, ptr, ptr, %"class.std::locale" }
%"class.std::locale" = type { ptr }
%"class.std::basic_ios" = type { %"class.std::ios_base", ptr, i8, i8, ptr, ptr, ptr, ptr }
%"class.std::ios_base" = type { ptr, i64, i64, i32, i32, i32, ptr, %"struct.std::ios_base::_Words", [8 x %"struct.std::ios_base::_Words"], i32, ptr, %"class.std::locale" }
%"struct.std::ios_base::_Words" = type { ptr, i64 }
%"class.Imf_3_2::DeepFrameBuffer" = type { %"class.std::map.39", %"struct.Imf_3_2::Slice" }
%"class.std::map.39" = type { %"class.std::_Rb_tree.40" }
%"class.std::_Rb_tree.40" = type { %"struct.std::_Rb_tree<Imf_3_2::Name, std::pair<const Imf_3_2::Name, Imf_3_2::DeepSlice>, std::_Select1st<std::pair<const Imf_3_2::Name, Imf_3_2::DeepSlice>>, std::less<Imf_3_2::Name>>::_Rb_tree_impl" }
%"struct.std::_Rb_tree<Imf_3_2::Name, std::pair<const Imf_3_2::Name, Imf_3_2::DeepSlice>, std::_Select1st<std::pair<const Imf_3_2::Name, Imf_3_2::DeepSlice>>, std::less<Imf_3_2::Name>>::_Rb_tree_impl" = type { %"struct.std::_Rb_tree_key_compare", %"struct.std::_Rb_tree_header" }
%"struct.std::_Rb_tree_key_compare" = type { %"struct.std::less" }
%"struct.std::less" = type { i8 }
%"struct.std::_Rb_tree_header" = type { %"struct.std::_Rb_tree_node_base", i64 }
%"struct.std::_Rb_tree_node_base" = type { i32, ptr, ptr, ptr }
%"struct.Imf_3_2::Slice" = type <{ i32, [4 x i8], ptr, i64, i64, i32, i32, double, i8, i8, [6 x i8] }>
%"struct.Imf_3_2::DeepSlice" = type { %"struct.Imf_3_2::Slice.base", i32 }
%"struct.Imf_3_2::Slice.base" = type <{ i32, [4 x i8], ptr, i64, i64, i32, i32, double, i8, i8 }>
%"class.Imf_3_2::Array.37" = type { i64, ptr }
%"class.std::vector.18" = type { %"struct.std::_Vector_base.19" }
%"struct.std::_Vector_base.19" = type { %"struct.std::_Vector_base<float, std::allocator<float>>::_Vector_impl" }
%"struct.std::_Vector_base<float, std::allocator<float>>::_Vector_impl" = type { %"struct.std::_Vector_base<float, std::allocator<float>>::_Vector_impl_data" }
%"struct.std::_Vector_base<float, std::allocator<float>>::_Vector_impl_data" = type { ptr, ptr, ptr }
%"class.Imf_3_2::FrameBuffer" = type { %"class.std::map.8" }
%"class.std::map.8" = type { %"class.std::_Rb_tree.9" }
%"class.std::_Rb_tree.9" = type { %"struct.std::_Rb_tree<Imf_3_2::Name, std::pair<const Imf_3_2::Name, Imf_3_2::Slice>, std::_Select1st<std::pair<const Imf_3_2::Name, Imf_3_2::Slice>>, std::less<Imf_3_2::Name>>::_Rb_tree_impl" }
%"struct.std::_Rb_tree<Imf_3_2::Name, std::pair<const Imf_3_2::Name, Imf_3_2::Slice>, std::_Select1st<std::pair<const Imf_3_2::Name, Imf_3_2::Slice>>, std::less<Imf_3_2::Name>>::_Rb_tree_impl" = type { %"struct.std::_Rb_tree_key_compare", %"struct.std::_Rb_tree_header" }
%"class.Imf_3_2::InputPart" = type { ptr }
%"class.Imf_3_2::TiledInputPart" = type { ptr }
%"class.Imf_3_2::DeepScanLineInputPart" = type { ptr }
%"class.Imf_3_2::DeepTiledInputPart" = type { ptr }
%"class.Imath_3_2::half" = type { i16 }
%"class.Imf_3_2::Array.38" = type { i64, ptr }
%"class.Imf_3_2::Array2D.49" = type { i64, i64, ptr }
%struct._Guard = type { ptr }
%"class.std::allocator" = type { i8 }

$__clang_call_terminate = comdat any

$_ZZNSt7__cxx1112basic_stringIcSt11char_traitsIcESaIcEE12_M_constructIPKcEEvT_S8_St20forward_iterator_tagEN6_GuardD2Ev = comdat any

$_ZN7Imf_3_211FrameBufferD2Ev = comdat any

$_ZNSt8_Rb_treeIN7Imf_3_24NameESt4pairIKS1_NS0_5SliceEESt10_Select1stIS5_ESt4lessIS1_ESaIS5_EE8_M_eraseEPSt13_Rb_tree_nodeIS5_E = comdat any

$_ZN7Imf_3_215DeepFrameBufferD2Ev = comdat any

$_ZN7Imf_3_25ArrayINS0_IPvEEED2Ev = comdat any

$_ZNSt3mapIN7Imf_3_24NameENS0_9DeepSliceESt4lessIS1_ESaISt4pairIKS1_S2_EEED2Ev = comdat any

$_ZNSt8_Rb_treeIN7Imf_3_24NameESt4pairIKS1_NS0_9DeepSliceEESt10_Select1stIS5_ESt4lessIS1_ESaIS5_EE8_M_eraseEPSt13_Rb_tree_nodeIS5_E = comdat any

$_ZNSt6vectorIfSaIfEE17_M_default_appendEm = comdat any

@_ZStL8__ioinit = internal global %"class.std::ios_base::Init" zeroinitializer, align 1
@__dso_handle = external hidden global i8
@_ZN7Imf_3_2L13SCANLINEIMAGEB5cxx11E = internal global %"class.std::__cxx11::basic_string" zeroinitializer, align 8
@.str = private unnamed_addr constant [14 x i8] c"scanlineimage\00", align 1
@_ZN7Imf_3_2L10TILEDIMAGEB5cxx11E = internal global %"class.std::__cxx11::basic_string" zeroinitializer, align 8
@.str.3 = private unnamed_addr constant [11 x i8] c"tiledimage\00", align 1
@_ZN7Imf_3_2L12DEEPSCANLINEB5cxx11E = internal global %"class.std::__cxx11::basic_string" zeroinitializer, align 8
@.str.5 = private unnamed_addr constant [13 x i8] c"deepscanline\00", align 1
@_ZN7Imf_3_2L8DEEPTILEB5cxx11E = internal global %"class.std::__cxx11::basic_string" zeroinitializer, align 8
@.str.7 = private unnamed_addr constant [9 x i8] c"deeptile\00", align 1
@.str.8 = private unnamed_addr constant [24 x i8] c"EXR_CHECK_ENABLE_PRINTS\00", align 1
@.str.9 = private unnamed_addr constant [8 x i8] c"<error>\00", align 1
@stderr = external local_unnamed_addr global ptr, align 8
@.str.10 = private unnamed_addr constant [21 x i8] c"ERROR '%s' (%s): %s\0A\00", align 1
@.str.11 = private unnamed_addr constant [26 x i8] c"vector::_M_default_append\00", align 1
@.str.12 = private unnamed_addr constant [12 x i8] c"<memstream>\00", align 1
@.str.13 = private unnamed_addr constant [5 x i8] c"none\00", align 1
@_ZTVN7Imf_3_212_GLOBAL__N_110PtrIStreamE = internal unnamed_addr constant { [10 x ptr] } { [10 x ptr] [ptr null, ptr @_ZTIN7Imf_3_212_GLOBAL__N_110PtrIStreamE, ptr @_ZN7Imf_3_212_GLOBAL__N_110PtrIStreamD2Ev, ptr @_ZN7Imf_3_212_GLOBAL__N_110PtrIStreamD0Ev, ptr @_ZNK7Imf_3_212_GLOBAL__N_110PtrIStream14isMemoryMappedEv, ptr @_ZN7Imf_3_212_GLOBAL__N_110PtrIStream4readEPci, ptr @_ZN7Imf_3_212_GLOBAL__N_110PtrIStream16readMemoryMappedEi, ptr @_ZN7Imf_3_212_GLOBAL__N_110PtrIStream5tellgEv, ptr @_ZN7Imf_3_212_GLOBAL__N_110PtrIStream5seekgEm, ptr @_ZN7Imf_3_27IStream5clearEv] }, align 8
@_ZTVN10__cxxabiv120__si_class_type_infoE = external global [0 x ptr]
@_ZTSN7Imf_3_212_GLOBAL__N_110PtrIStreamE = internal constant [37 x i8] c"N7Imf_3_212_GLOBAL__N_110PtrIStreamE\00", align 1
@_ZTIN7Imf_3_27IStreamE = external constant ptr
@_ZTIN7Imf_3_212_GLOBAL__N_110PtrIStreamE = internal constant { ptr, ptr, ptr } { ptr getelementptr inbounds (ptr, ptr @_ZTVN10__cxxabiv120__si_class_type_infoE, i64 2), ptr @_ZTSN7Imf_3_212_GLOBAL__N_110PtrIStreamE, ptr @_ZTIN7Imf_3_27IStreamE }, align 8
@.str.14 = private unnamed_addr constant [29 x i8] c" bytes requested from stream\00", align 1
@_ZTIN7Iex_3_28InputExcE = external constant ptr
@.str.15 = private unnamed_addr constant [31 x i8] c"Early end of file: requesting \00", align 1
@.str.16 = private unnamed_addr constant [25 x i8] c" extra bytes after file\0A\00", align 1
@.str.19 = private unnamed_addr constant [29 x i8] c"Out of range seek requested\0A\00", align 1
@.str.21 = private unnamed_addr constant [49 x i8] c"cannot create std::vector larger than max_size()\00", align 1
@llvm.global_ctors = appending global [1 x { i32, ptr, ptr }] [{ i32, ptr, ptr } { i32 65535, ptr @_GLOBAL__sub_I_ImfCheckFile.cpp, ptr null }]

declare void @_ZNSt8ios_base4InitC1Ev(ptr noundef nonnull align 1 dereferenceable(1)) unnamed_addr #0

; Function Attrs: nounwind
declare void @_ZNSt8ios_base4InitD1Ev(ptr noundef nonnull align 1 dereferenceable(1)) unnamed_addr #1

; Function Attrs: nofree nounwind
declare i32 @__cxa_atexit(ptr, ptr, ptr) local_unnamed_addr #2

; Function Attrs: nounwind
declare void @_ZNSaIcEC1Ev(ptr noundef nonnull align 1 dereferenceable(1)) unnamed_addr #1

declare i32 @__gxx_personality_v0(...)

; Function Attrs: nounwind
declare void @_ZNSaIcED1Ev(ptr noundef nonnull align 1 dereferenceable(1)) unnamed_addr #1

; Function Attrs: nounwind
declare void @_ZNSt7__cxx1112basic_stringIcSt11char_traitsIcESaIcEED1Ev(ptr noundef nonnull align 8 dereferenceable(32)) unnamed_addr #1

; Function Attrs: mustprogress uwtable
define noundef zeroext i1 @_ZN7Imf_3_216checkOpenEXRFileEPKcbbb(ptr noundef %fileName, i1 noundef zeroext %reduceMemory, i1 noundef zeroext %reduceTime, i1 noundef zeroext %runCoreCheck) local_unnamed_addr #3 personality ptr @__gxx_personality_v0 {
entry:
  %maxImageWidth.i = alloca i32, align 4
  %maxImageHeight.i = alloca i32, align 4
  %maxTileWidth.i = alloca i32, align 4
  %maxTileHeight.i = alloca i32, align 4
  %firstPartType.i = alloca %"class.std::__cxx11::basic_string", align 8
  %multi.i = alloca %"class.Imf_3_2::MultiPartInputFile", align 8
  %rgba.i = alloca %"class.Imf_3_2::RgbaInputFile", align 8
  %rgba60.i = alloca %"class.Imf_3_2::InputFile", align 8
  %rgba87.i = alloca %"class.Imf_3_2::TiledInputFile", align 8
  %rgba112.i = alloca %"class.Imf_3_2::DeepScanLineInputFile", align 8
  %rgba139.i = alloca %"class.Imf_3_2::DeepTiledInputFile", align 8
  %f.i = alloca ptr, align 8
  %cinit.i = alloca %struct._exr_context_initializer_v3, align 8
  br i1 %runCoreCheck, label %if.then, label %if.else

if.then:                                          ; preds = %entry
  call void @llvm.lifetime.start.p0(i64 8, ptr nonnull %f.i)
  call void @llvm.lifetime.start.p0(i64 104, ptr nonnull %cinit.i)
  %0 = getelementptr inbounds i8, ptr %cinit.i, i64 16
  call void @llvm.memset.p0.i64(ptr noundef nonnull align 8 dereferenceable(104) %0, i8 0, i64 88, i1 false)
  store i64 104, ptr %cinit.i, align 8
  %1 = getelementptr inbounds i8, ptr %cinit.i, i64 88
  store i32 -2, ptr %1, align 8
  %2 = getelementptr inbounds i8, ptr %cinit.i, i64 92
  store float -1.000000e+00, ptr %2, align 4
  %error_handler_fn.i = getelementptr inbounds i8, ptr %cinit.i, i64 8
  store ptr @_ZN7Imf_3_212_GLOBAL__N_121core_error_handler_cbEPK19_priv_exr_context_tiPKc, ptr %error_handler_fn.i, align 8
  %call.i = call i32 @exr_start_read(ptr noundef nonnull %f.i, ptr noundef %fileName, ptr noundef nonnull %cinit.i)
  %cmp.not.i = icmp eq i32 %call.i, 0
  br i1 %cmp.not.i, label %if.end.i, label %_ZN7Imf_3_212_GLOBAL__N_113runCoreChecksEPKcbb.exit

if.end.i:                                         ; preds = %if.then
  %3 = load ptr, ptr %f.i, align 8
  %call3.i = call fastcc noundef zeroext i1 @_ZN7Imf_3_212_GLOBAL__N_113checkCoreFileEP19_priv_exr_context_tbb(ptr noundef %3, i1 noundef zeroext %reduceMemory, i1 noundef zeroext %reduceTime)
  %call5.i = call i32 @exr_finish(ptr noundef nonnull %f.i)
  br label %_ZN7Imf_3_212_GLOBAL__N_113runCoreChecksEPKcbb.exit

_ZN7Imf_3_212_GLOBAL__N_113runCoreChecksEPKcbb.exit: ; preds = %if.then, %if.end.i
  %retval.0.i = phi i1 [ %call3.i, %if.end.i ], [ true, %if.then ]
  call void @llvm.lifetime.end.p0(i64 8, ptr nonnull %f.i)
  call void @llvm.lifetime.end.p0(i64 104, ptr nonnull %cinit.i)
  br label %return

if.else:                                          ; preds = %entry
  call void @llvm.lifetime.start.p0(i64 4, ptr nonnull %maxImageWidth.i)
  call void @llvm.lifetime.start.p0(i64 4, ptr nonnull %maxImageHeight.i)
  call void @llvm.lifetime.start.p0(i64 4, ptr nonnull %maxTileWidth.i)
  call void @llvm.lifetime.start.p0(i64 4, ptr nonnull %maxTileHeight.i)
  call void @llvm.lifetime.start.p0(i64 32, ptr nonnull %firstPartType.i)
  call void @llvm.lifetime.start.p0(i64 16, ptr nonnull %multi.i)
  call void @llvm.lifetime.start.p0(i64 64, ptr nonnull %rgba.i)
  call void @llvm.lifetime.start.p0(i64 16, ptr nonnull %rgba60.i)
  call void @llvm.lifetime.start.p0(i64 16, ptr nonnull %rgba87.i)
  call void @llvm.lifetime.start.p0(i64 16, ptr nonnull %rgba112.i)
  call void @llvm.lifetime.start.p0(i64 16, ptr nonnull %rgba139.i)
  %call.i3 = tail call noundef i64 @_ZN7Imf_3_221CompositeDeepScanLine21getMaximumSampleCountEv()
  call void @_ZN7Imf_3_26Header15getMaxImageSizeERiS1_(ptr noundef nonnull align 4 dereferenceable(4) %maxImageWidth.i, ptr noundef nonnull align 4 dereferenceable(4) %maxImageHeight.i)
  call void @_ZN7Imf_3_26Header15getMaxImageSizeERiS1_(ptr noundef nonnull align 4 dereferenceable(4) %maxTileWidth.i, ptr noundef nonnull align 4 dereferenceable(4) %maxTileHeight.i)
  %brmerge.i = or i1 %reduceMemory, %reduceTime
  br i1 %brmerge.i, label %if.then.i, label %if.end.i4

if.then.i:                                        ; preds = %if.else
  call void @_ZN7Imf_3_221CompositeDeepScanLine21setMaximumSampleCountEl(i64 noundef 1048576)
  call void @_ZN7Imf_3_26Header15setMaxImageSizeEii(i32 noundef 2048, i32 noundef 2048)
  call void @_ZN7Imf_3_26Header14setMaxTileSizeEii(i32 noundef 512, i32 noundef 512)
  br label %if.end.i4

if.end.i4:                                        ; preds = %if.then.i, %if.else
  call void @_ZNSt7__cxx1112basic_stringIcSt11char_traitsIcESaIcEEC1Ev(ptr noundef nonnull align 8 dereferenceable(32) %firstPartType.i) #22
  %call3.i5 = invoke noundef i32 @_ZN7Imf_3_217globalThreadCountEv()
          to label %invoke.cont.i unwind label %lpad.i

invoke.cont.i:                                    ; preds = %if.end.i4
  invoke void @_ZN7Imf_3_218MultiPartInputFileC1EPKcib(ptr noundef nonnull align 8 dereferenceable(16) %multi.i, ptr noundef %fileName, i32 noundef %call3.i5, i1 noundef zeroext true)
          to label %invoke.cont4.i unwind label %lpad.i

invoke.cont4.i:                                   ; preds = %invoke.cont.i
  %call7.i = invoke noundef nonnull align 8 dereferenceable(49) ptr @_ZNK7Imf_3_218MultiPartInputFile6headerEi(ptr noundef nonnull align 8 dereferenceable(16) %multi.i, i32 noundef 0)
          to label %invoke.cont6.i unwind label %lpad5.i

invoke.cont6.i:                                   ; preds = %invoke.cont4.i
  %call9.i = invoke noundef nonnull align 8 dereferenceable(32) ptr @_ZNK7Imf_3_26Header4typeB5cxx11Ev(ptr noundef nonnull align 8 dereferenceable(49) %call7.i)
          to label %invoke.cont8.i unwind label %lpad5.i

invoke.cont8.i:                                   ; preds = %invoke.cont6.i
  %call11.i = invoke noundef nonnull align 8 dereferenceable(32) ptr @_ZNSt7__cxx1112basic_stringIcSt11char_traitsIcESaIcEEaSERKS4_(ptr noundef nonnull align 8 dereferenceable(32) %firstPartType.i, ptr noundef nonnull align 8 dereferenceable(32) %call9.i)
          to label %invoke.cont10.i unwind label %lpad5.i

invoke.cont10.i:                                  ; preds = %invoke.cont8.i
  %call13.i = invoke noundef zeroext i1 @_ZN7Imf_3_27isTiledERKNSt7__cxx1112basic_stringIcSt11char_traitsIcESaIcEEE(ptr noundef nonnull align 8 dereferenceable(32) %firstPartType.i)
          to label %invoke.cont12.i unwind label %lpad5.i

invoke.cont12.i:                                  ; preds = %invoke.cont10.i
  br i1 %call13.i, label %if.then14.i, label %if.end29.i

if.then14.i:                                      ; preds = %invoke.cont12.i
  %call16.i = invoke noundef nonnull align 8 dereferenceable(49) ptr @_ZNK7Imf_3_218MultiPartInputFile6headerEi(ptr noundef nonnull align 8 dereferenceable(16) %multi.i, i32 noundef 0)
          to label %invoke.cont15.i unwind label %lpad5.i

invoke.cont15.i:                                  ; preds = %if.then14.i
  %call18.i = invoke noundef nonnull align 4 dereferenceable(16) ptr @_ZNK7Imf_3_26Header15tileDescriptionEv(ptr noundef nonnull align 8 dereferenceable(49) %call16.i)
          to label %invoke.cont17.i unwind label %lpad5.i

invoke.cont17.i:                                  ; preds = %invoke.cont15.i
  %4 = load i32, ptr %call18.i, align 4
  %conv.i = zext i32 %4 to i64
  %ySize.i = getelementptr inbounds i8, ptr %call18.i, i64 4
  %5 = load i32, ptr %ySize.i, align 4
  %conv19.i = zext i32 %5 to i64
  %mul.i = mul nuw i64 %conv19.i, %conv.i
  %call21.i = invoke noundef nonnull align 8 dereferenceable(49) ptr @_ZNK7Imf_3_218MultiPartInputFile6headerEi(ptr noundef nonnull align 8 dereferenceable(16) %multi.i, i32 noundef 0)
          to label %invoke.cont20.i unwind label %lpad5.i

invoke.cont20.i:                                  ; preds = %invoke.cont17.i
  %call23.i = invoke noundef i64 @_ZN7Imf_3_222calculateBytesPerPixelERKNS_6HeaderE(ptr noundef nonnull align 8 dereferenceable(49) %call21.i)
          to label %invoke.cont22.i unwind label %lpad5.i

invoke.cont22.i:                                  ; preds = %invoke.cont20.i
  %sext.i = shl i64 %call23.i, 32
  %conv25.i = ashr exact i64 %sext.i, 32
  %mul26.i = mul i64 %mul.i, %conv25.i
  %cmp.i = icmp ugt i64 %mul26.i, 1000000
  %spec.select.i = zext i1 %cmp.i to i8
  br label %if.end29.i

lpad.i:                                           ; preds = %invoke.cont.i, %if.end.i4
  %6 = landingpad { ptr, i32 }
          catch ptr null
  br label %catch.i

lpad5.i:                                          ; preds = %if.end29.i, %invoke.cont20.i, %invoke.cont17.i, %invoke.cont15.i, %if.then14.i, %invoke.cont10.i, %invoke.cont8.i, %invoke.cont6.i, %invoke.cont4.i
  %largeTiles.0.i = phi i8 [ %largeTiles.3.i, %if.end29.i ], [ 1, %invoke.cont20.i ], [ 1, %invoke.cont17.i ], [ 1, %invoke.cont15.i ], [ 1, %if.then14.i ], [ 1, %invoke.cont10.i ], [ 1, %invoke.cont8.i ], [ 1, %invoke.cont6.i ], [ 1, %invoke.cont4.i ]
  %7 = landingpad { ptr, i32 }
          catch ptr null
  call void @_ZN7Imf_3_218MultiPartInputFileD1Ev(ptr noundef nonnull align 8 dereferenceable(16) %multi.i) #22
  br label %catch.i

catch.i:                                          ; preds = %lpad5.i, %lpad.i
  %.pn.i = phi { ptr, i32 } [ %7, %lpad5.i ], [ %6, %lpad.i ]
  %largeTiles.1.i = phi i8 [ %largeTiles.0.i, %lpad5.i ], [ 1, %lpad.i ]
  %exn.slot.0.i = extractvalue { ptr, i32 } %.pn.i, 0
  %8 = call ptr @__cxa_begin_catch(ptr %exn.slot.0.i) #22
  invoke void @__cxa_end_catch()
          to label %try.cont.i unwind label %lpad35.i

try.cont.i:                                       ; preds = %invoke.cont32.i, %catch.i
  %threw.0.i = phi i8 [ %frombool34.i, %invoke.cont32.i ], [ 1, %catch.i ]
  %largeTiles.2.i = phi i8 [ %largeTiles.3.i, %invoke.cont32.i ], [ %largeTiles.1.i, %catch.i ]
  br i1 %reduceMemory, label %if.end80.i, label %if.then38.i

if.then38.i:                                      ; preds = %try.cont.i
  %call42.i = invoke noundef i32 @_ZN7Imf_3_217globalThreadCountEv()
          to label %invoke.cont41.i unwind label %lpad40.i

invoke.cont41.i:                                  ; preds = %if.then38.i
  invoke void @_ZN7Imf_3_213RgbaInputFileC1EPKci(ptr noundef nonnull align 8 dereferenceable(64) %rgba.i, ptr noundef %fileName, i32 noundef %call42.i)
          to label %invoke.cont43.i unwind label %lpad40.i

invoke.cont43.i:                                  ; preds = %invoke.cont41.i
  %call48.i = invoke fastcc noundef zeroext i1 @_ZN7Imf_3_212_GLOBAL__N_18readRgbaERNS_13RgbaInputFileEbb(ptr noundef nonnull align 8 dereferenceable(64) %rgba.i, i1 noundef zeroext %reduceTime)
          to label %invoke.cont47.i unwind label %lpad46.i

invoke.cont47.i:                                  ; preds = %invoke.cont43.i
  call void @_ZN7Imf_3_213RgbaInputFileD1Ev(ptr noundef nonnull align 8 dereferenceable(64) %rgba.i) #22
  br i1 %call48.i, label %land.lhs.true.i, label %if.end57.i

if.end29.i:                                       ; preds = %invoke.cont22.i, %invoke.cont12.i
  %largeTiles.3.i = phi i8 [ %spec.select.i, %invoke.cont22.i ], [ 0, %invoke.cont12.i ]
  %call33.i = invoke fastcc noundef zeroext i1 @_ZN7Imf_3_212_GLOBAL__N_113readMultiPartERNS_18MultiPartInputFileEbb(ptr noundef nonnull align 8 dereferenceable(16) %multi.i, i1 noundef zeroext %reduceMemory, i1 noundef zeroext %reduceTime)
          to label %invoke.cont32.i unwind label %lpad5.i

invoke.cont32.i:                                  ; preds = %if.end29.i
  %frombool34.i = zext i1 %call33.i to i8
  call void @_ZN7Imf_3_218MultiPartInputFileD1Ev(ptr noundef nonnull align 8 dereferenceable(16) %multi.i) #22
  br label %try.cont.i

lpad35.i:                                         ; preds = %invoke.cont161.i, %invoke.cont160.i, %if.end159.i, %catch150.i, %catch123.i, %catch98.i, %catch71.i, %catch50.i, %catch.i
  %9 = landingpad { ptr, i32 }
          cleanup
  call void @_ZNSt7__cxx1112basic_stringIcSt11char_traitsIcESaIcEED1Ev(ptr noundef nonnull align 8 dereferenceable(32) %firstPartType.i) #22
  resume { ptr, i32 } %9

lpad40.i:                                         ; preds = %invoke.cont41.i, %if.then38.i
  %10 = landingpad { ptr, i32 }
          catch ptr null
  br label %catch50.i

lpad46.i:                                         ; preds = %invoke.cont43.i
  %11 = landingpad { ptr, i32 }
          catch ptr null
  call void @_ZN7Imf_3_213RgbaInputFileD1Ev(ptr noundef nonnull align 8 dereferenceable(64) %rgba.i) #22
  br label %catch50.i

catch50.i:                                        ; preds = %lpad46.i, %lpad40.i
  %.pn29.i = phi { ptr, i32 } [ %11, %lpad46.i ], [ %10, %lpad40.i ]
  %exn.slot.1.i = extractvalue { ptr, i32 } %.pn29.i, 0
  %12 = call ptr @__cxa_begin_catch(ptr %exn.slot.1.i) #22
  invoke void @__cxa_end_catch()
          to label %land.lhs.true.i unwind label %lpad35.i

land.lhs.true.i:                                  ; preds = %catch50.i, %invoke.cont47.i
  %call.i.i.i = call noundef i64 @_ZNKSt7__cxx1112basic_stringIcSt11char_traitsIcESaIcEE4sizeEv(ptr noundef nonnull align 8 dereferenceable(32) %firstPartType.i) #22
  %call1.i.i.i = call noundef i64 @_ZNKSt7__cxx1112basic_stringIcSt11char_traitsIcESaIcEE4sizeEv(ptr noundef nonnull align 8 dereferenceable(32) @_ZN7Imf_3_2L8DEEPTILEB5cxx11E) #22
  %cmp.i.i.i = icmp eq i64 %call.i.i.i, %call1.i.i.i
  br i1 %cmp.i.i.i, label %land.rhs.i.i.i, label %_ZStneIcSt11char_traitsIcESaIcEEbRKNSt7__cxx1112basic_stringIT_T0_T1_EESA_.exit.thread.i

land.rhs.i.i.i:                                   ; preds = %land.lhs.true.i
  %call2.i.i.i = call noundef ptr @_ZNKSt7__cxx1112basic_stringIcSt11char_traitsIcESaIcEE4dataEv(ptr noundef nonnull align 8 dereferenceable(32) %firstPartType.i) #22
  %call3.i.i.i = call noundef ptr @_ZNKSt7__cxx1112basic_stringIcSt11char_traitsIcESaIcEE4dataEv(ptr noundef nonnull align 8 dereferenceable(32) @_ZN7Imf_3_2L8DEEPTILEB5cxx11E) #22
  %call4.i.i.i = call noundef i64 @_ZNKSt7__cxx1112basic_stringIcSt11char_traitsIcESaIcEE4sizeEv(ptr noundef nonnull align 8 dereferenceable(32) %firstPartType.i) #22
  %cmp.i.i.i.i = icmp eq i64 %call4.i.i.i, 0
  br i1 %cmp.i.i.i.i, label %if.end57.i, label %_ZStneIcSt11char_traitsIcESaIcEEbRKNSt7__cxx1112basic_stringIT_T0_T1_EESA_.exit.i

_ZStneIcSt11char_traitsIcESaIcEEbRKNSt7__cxx1112basic_stringIT_T0_T1_EESA_.exit.i: ; preds = %land.rhs.i.i.i
  %bcmp.i.i.i = call i32 @bcmp(ptr %call2.i.i.i, ptr %call3.i.i.i, i64 %call4.i.i.i)
  %bcmp.i.i.fr.i = freeze i32 %bcmp.i.i.i
  %.not.i = icmp eq i32 %bcmp.i.i.fr.i, 0
  br i1 %.not.i, label %if.end57.i, label %_ZStneIcSt11char_traitsIcESaIcEEbRKNSt7__cxx1112basic_stringIT_T0_T1_EESA_.exit.thread.i

_ZStneIcSt11char_traitsIcESaIcEEbRKNSt7__cxx1112basic_stringIT_T0_T1_EESA_.exit.thread.i: ; preds = %_ZStneIcSt11char_traitsIcESaIcEEbRKNSt7__cxx1112basic_stringIT_T0_T1_EESA_.exit.i, %land.lhs.true.i
  br label %if.end57.i

if.end57.i:                                       ; preds = %_ZStneIcSt11char_traitsIcESaIcEEbRKNSt7__cxx1112basic_stringIT_T0_T1_EESA_.exit.thread.i, %_ZStneIcSt11char_traitsIcESaIcEEbRKNSt7__cxx1112basic_stringIT_T0_T1_EESA_.exit.i, %land.rhs.i.i.i, %invoke.cont47.i
  %threw.1.i = phi i8 [ %threw.0.i, %invoke.cont47.i ], [ 1, %_ZStneIcSt11char_traitsIcESaIcEEbRKNSt7__cxx1112basic_stringIT_T0_T1_EESA_.exit.thread.i ], [ %threw.0.i, %_ZStneIcSt11char_traitsIcESaIcEEbRKNSt7__cxx1112basic_stringIT_T0_T1_EESA_.exit.i ], [ %threw.0.i, %land.rhs.i.i.i ]
  %call63.i = invoke noundef i32 @_ZN7Imf_3_217globalThreadCountEv()
          to label %invoke.cont62.i unwind label %lpad61.i

invoke.cont62.i:                                  ; preds = %if.end57.i
  invoke void @_ZN7Imf_3_29InputFileC1EPKci(ptr noundef nonnull align 8 dereferenceable(16) %rgba60.i, ptr noundef %fileName, i32 noundef %call63.i)
          to label %invoke.cont64.i unwind label %lpad61.i

invoke.cont64.i:                                  ; preds = %invoke.cont62.i
  %call69.i = invoke fastcc noundef zeroext i1 @_ZN7Imf_3_212_GLOBAL__N_112readScanlineINS_9InputFileEEEbRT_bb(ptr noundef nonnull align 8 dereferenceable(16) %rgba60.i, i1 noundef zeroext %reduceTime)
          to label %invoke.cont68.i unwind label %lpad67.i

invoke.cont68.i:                                  ; preds = %invoke.cont64.i
  call void @_ZN7Imf_3_29InputFileD1Ev(ptr noundef nonnull align 8 dereferenceable(16) %rgba60.i) #22
  br i1 %call69.i, label %land.lhs.true76.i, label %if.then84.i

lpad61.i:                                         ; preds = %invoke.cont62.i, %if.end57.i
  %13 = landingpad { ptr, i32 }
          catch ptr null
  br label %catch71.i

lpad67.i:                                         ; preds = %invoke.cont64.i
  %14 = landingpad { ptr, i32 }
          catch ptr null
  call void @_ZN7Imf_3_29InputFileD1Ev(ptr noundef nonnull align 8 dereferenceable(16) %rgba60.i) #22
  br label %catch71.i

catch71.i:                                        ; preds = %lpad67.i, %lpad61.i
  %.pn30.i = phi { ptr, i32 } [ %14, %lpad67.i ], [ %13, %lpad61.i ]
  %exn.slot.2.i = extractvalue { ptr, i32 } %.pn30.i, 0
  %15 = call ptr @__cxa_begin_catch(ptr %exn.slot.2.i) #22
  invoke void @__cxa_end_catch()
          to label %land.lhs.true76.i unwind label %lpad35.i

land.lhs.true76.i:                                ; preds = %catch71.i, %invoke.cont68.i
  %call.i.i41.i = call noundef i64 @_ZNKSt7__cxx1112basic_stringIcSt11char_traitsIcESaIcEE4sizeEv(ptr noundef nonnull align 8 dereferenceable(32) %firstPartType.i) #22
  %call1.i.i42.i = call noundef i64 @_ZNKSt7__cxx1112basic_stringIcSt11char_traitsIcESaIcEE4sizeEv(ptr noundef nonnull align 8 dereferenceable(32) @_ZN7Imf_3_2L8DEEPTILEB5cxx11E) #22
  %cmp.i.i43.i = icmp eq i64 %call.i.i41.i, %call1.i.i42.i
  br i1 %cmp.i.i43.i, label %land.rhs.i.i45.i, label %_ZStneIcSt11char_traitsIcESaIcEEbRKNSt7__cxx1112basic_stringIT_T0_T1_EESA_.exit52.thread.i

land.rhs.i.i45.i:                                 ; preds = %land.lhs.true76.i
  %call2.i.i46.i = call noundef ptr @_ZNKSt7__cxx1112basic_stringIcSt11char_traitsIcESaIcEE4dataEv(ptr noundef nonnull align 8 dereferenceable(32) %firstPartType.i) #22
  %call3.i.i47.i = call noundef ptr @_ZNKSt7__cxx1112basic_stringIcSt11char_traitsIcESaIcEE4dataEv(ptr noundef nonnull align 8 dereferenceable(32) @_ZN7Imf_3_2L8DEEPTILEB5cxx11E) #22
  %call4.i.i48.i = call noundef i64 @_ZNKSt7__cxx1112basic_stringIcSt11char_traitsIcESaIcEE4sizeEv(ptr noundef nonnull align 8 dereferenceable(32) %firstPartType.i) #22
  %cmp.i.i.i49.i = icmp eq i64 %call4.i.i48.i, 0
  br i1 %cmp.i.i.i49.i, label %if.then84.i, label %_ZStneIcSt11char_traitsIcESaIcEEbRKNSt7__cxx1112basic_stringIT_T0_T1_EESA_.exit52.i

_ZStneIcSt11char_traitsIcESaIcEEbRKNSt7__cxx1112basic_stringIT_T0_T1_EESA_.exit52.i: ; preds = %land.rhs.i.i45.i
  %bcmp.i.i51.i = call i32 @bcmp(ptr %call2.i.i46.i, ptr %call3.i.i47.i, i64 %call4.i.i48.i)
  %bcmp.i.i51.fr.i = freeze i32 %bcmp.i.i51.i
  %.not112.i = icmp eq i32 %bcmp.i.i51.fr.i, 0
  br i1 %.not112.i, label %if.then84.i, label %_ZStneIcSt11char_traitsIcESaIcEEbRKNSt7__cxx1112basic_stringIT_T0_T1_EESA_.exit52.thread.i

_ZStneIcSt11char_traitsIcESaIcEEbRKNSt7__cxx1112basic_stringIT_T0_T1_EESA_.exit52.thread.i: ; preds = %_ZStneIcSt11char_traitsIcESaIcEEbRKNSt7__cxx1112basic_stringIT_T0_T1_EESA_.exit52.i, %land.lhs.true76.i
  br label %if.then84.i

if.end80.i:                                       ; preds = %try.cont.i
  %tobool83.not.not.i = icmp eq i8 %largeTiles.2.i, 0
  br i1 %tobool83.not.not.i, label %if.then84.i, label %if.end159.i

if.then84.i:                                      ; preds = %if.end80.i, %_ZStneIcSt11char_traitsIcESaIcEEbRKNSt7__cxx1112basic_stringIT_T0_T1_EESA_.exit52.thread.i, %_ZStneIcSt11char_traitsIcESaIcEEbRKNSt7__cxx1112basic_stringIT_T0_T1_EESA_.exit52.i, %land.rhs.i.i45.i, %invoke.cont68.i
  %threw.291.i = phi i8 [ %threw.0.i, %if.end80.i ], [ %threw.1.i, %_ZStneIcSt11char_traitsIcESaIcEEbRKNSt7__cxx1112basic_stringIT_T0_T1_EESA_.exit52.i ], [ 1, %_ZStneIcSt11char_traitsIcESaIcEEbRKNSt7__cxx1112basic_stringIT_T0_T1_EESA_.exit52.thread.i ], [ %threw.1.i, %invoke.cont68.i ], [ %threw.1.i, %land.rhs.i.i45.i ]
  %call90.i = invoke noundef i32 @_ZN7Imf_3_217globalThreadCountEv()
          to label %invoke.cont89.i unwind label %lpad88.i

invoke.cont89.i:                                  ; preds = %if.then84.i
  invoke void @_ZN7Imf_3_214TiledInputFileC1EPKci(ptr noundef nonnull align 8 dereferenceable(16) %rgba87.i, ptr noundef %fileName, i32 noundef %call90.i)
          to label %invoke.cont91.i unwind label %lpad88.i

invoke.cont91.i:                                  ; preds = %invoke.cont89.i
  %call96.i = invoke fastcc noundef zeroext i1 @_ZN7Imf_3_212_GLOBAL__N_18readTileINS_14TiledInputFileEEEbRT_bb(ptr noundef nonnull align 8 dereferenceable(16) %rgba87.i, i1 noundef zeroext %reduceMemory, i1 noundef zeroext %reduceTime)
          to label %invoke.cont95.i unwind label %lpad94.i

invoke.cont95.i:                                  ; preds = %invoke.cont91.i
  call void @_ZN7Imf_3_214TiledInputFileD1Ev(ptr noundef nonnull align 8 dereferenceable(16) %rgba87.i) #22
  br i1 %call96.i, label %land.lhs.true103.i, label %if.end107.i

lpad88.i:                                         ; preds = %invoke.cont89.i, %if.then84.i
  %16 = landingpad { ptr, i32 }
          catch ptr null
  br label %catch98.i

lpad94.i:                                         ; preds = %invoke.cont91.i
  %17 = landingpad { ptr, i32 }
          catch ptr null
  call void @_ZN7Imf_3_214TiledInputFileD1Ev(ptr noundef nonnull align 8 dereferenceable(16) %rgba87.i) #22
  br label %catch98.i

catch98.i:                                        ; preds = %lpad94.i, %lpad88.i
  %.pn31.i = phi { ptr, i32 } [ %17, %lpad94.i ], [ %16, %lpad88.i ]
  %exn.slot.3.i = extractvalue { ptr, i32 } %.pn31.i, 0
  %18 = call ptr @__cxa_begin_catch(ptr %exn.slot.3.i) #22
  invoke void @__cxa_end_catch()
          to label %land.lhs.true103.i unwind label %lpad35.i

land.lhs.true103.i:                               ; preds = %catch98.i, %invoke.cont95.i
  %call.i.i = call noundef i64 @_ZNKSt7__cxx1112basic_stringIcSt11char_traitsIcESaIcEE4sizeEv(ptr noundef nonnull align 8 dereferenceable(32) %firstPartType.i) #22
  %call1.i.i = call noundef i64 @_ZNKSt7__cxx1112basic_stringIcSt11char_traitsIcESaIcEE4sizeEv(ptr noundef nonnull align 8 dereferenceable(32) @_ZN7Imf_3_2L10TILEDIMAGEB5cxx11E) #22
  %cmp.i.i = icmp eq i64 %call.i.i, %call1.i.i
  br i1 %cmp.i.i, label %land.rhs.i.i, label %if.end107.i

land.rhs.i.i:                                     ; preds = %land.lhs.true103.i
  %call2.i.i = call noundef ptr @_ZNKSt7__cxx1112basic_stringIcSt11char_traitsIcESaIcEE4dataEv(ptr noundef nonnull align 8 dereferenceable(32) %firstPartType.i) #22
  %call3.i.i = call noundef ptr @_ZNKSt7__cxx1112basic_stringIcSt11char_traitsIcESaIcEE4dataEv(ptr noundef nonnull align 8 dereferenceable(32) @_ZN7Imf_3_2L10TILEDIMAGEB5cxx11E) #22
  %call4.i.i = call noundef i64 @_ZNKSt7__cxx1112basic_stringIcSt11char_traitsIcESaIcEE4sizeEv(ptr noundef nonnull align 8 dereferenceable(32) %firstPartType.i) #22
  %cmp.i.i53.i = icmp eq i64 %call4.i.i, 0
  br i1 %cmp.i.i53.i, label %_ZSteqIcEN9__gnu_cxx11__enable_ifIXsr9__is_charIT_EE7__valueEbE6__typeERKNSt7__cxx1112basic_stringIS2_St11char_traitsIS2_ESaIS2_EEESC_.exit.thread.i, label %_ZSteqIcEN9__gnu_cxx11__enable_ifIXsr9__is_charIT_EE7__valueEbE6__typeERKNSt7__cxx1112basic_stringIS2_St11char_traitsIS2_ESaIS2_EEESC_.exit.i

_ZSteqIcEN9__gnu_cxx11__enable_ifIXsr9__is_charIT_EE7__valueEbE6__typeERKNSt7__cxx1112basic_stringIS2_St11char_traitsIS2_ESaIS2_EEESC_.exit.i: ; preds = %land.rhs.i.i
  %bcmp.i.i = call i32 @bcmp(ptr %call2.i.i, ptr %call3.i.i, i64 %call4.i.i)
  %bcmp.i.fr.i = freeze i32 %bcmp.i.i
  %19 = icmp eq i32 %bcmp.i.fr.i, 0
  br i1 %19, label %_ZSteqIcEN9__gnu_cxx11__enable_ifIXsr9__is_charIT_EE7__valueEbE6__typeERKNSt7__cxx1112basic_stringIS2_St11char_traitsIS2_ESaIS2_EEESC_.exit.thread.i, label %if.end107.i

_ZSteqIcEN9__gnu_cxx11__enable_ifIXsr9__is_charIT_EE7__valueEbE6__typeERKNSt7__cxx1112basic_stringIS2_St11char_traitsIS2_ESaIS2_EEESC_.exit.thread.i: ; preds = %_ZSteqIcEN9__gnu_cxx11__enable_ifIXsr9__is_charIT_EE7__valueEbE6__typeERKNSt7__cxx1112basic_stringIS2_St11char_traitsIS2_ESaIS2_EEESC_.exit.i, %land.rhs.i.i
  br label %if.end107.i

if.end107.i:                                      ; preds = %_ZSteqIcEN9__gnu_cxx11__enable_ifIXsr9__is_charIT_EE7__valueEbE6__typeERKNSt7__cxx1112basic_stringIS2_St11char_traitsIS2_ESaIS2_EEESC_.exit.thread.i, %_ZSteqIcEN9__gnu_cxx11__enable_ifIXsr9__is_charIT_EE7__valueEbE6__typeERKNSt7__cxx1112basic_stringIS2_St11char_traitsIS2_ESaIS2_EEESC_.exit.i, %land.lhs.true103.i, %invoke.cont95.i
  %threw.3.i = phi i8 [ %threw.291.i, %invoke.cont95.i ], [ 1, %_ZSteqIcEN9__gnu_cxx11__enable_ifIXsr9__is_charIT_EE7__valueEbE6__typeERKNSt7__cxx1112basic_stringIS2_St11char_traitsIS2_ESaIS2_EEESC_.exit.thread.i ], [ %threw.291.i, %_ZSteqIcEN9__gnu_cxx11__enable_ifIXsr9__is_charIT_EE7__valueEbE6__typeERKNSt7__cxx1112basic_stringIS2_St11char_traitsIS2_ESaIS2_EEESC_.exit.i ], [ %threw.291.i, %land.lhs.true103.i ]
  br i1 %reduceMemory, label %if.then136.i, label %if.then109.i

if.then109.i:                                     ; preds = %if.end107.i
  %call115.i = invoke noundef i32 @_ZN7Imf_3_217globalThreadCountEv()
          to label %invoke.cont114.i unwind label %lpad113.i

invoke.cont114.i:                                 ; preds = %if.then109.i
  invoke void @_ZN7Imf_3_221DeepScanLineInputFileC1EPKci(ptr noundef nonnull align 8 dereferenceable(16) %rgba112.i, ptr noundef %fileName, i32 noundef %call115.i)
          to label %invoke.cont116.i unwind label %lpad113.i

invoke.cont116.i:                                 ; preds = %invoke.cont114.i
  %call121.i = invoke fastcc noundef zeroext i1 @_ZN7Imf_3_212_GLOBAL__N_116readDeepScanLineINS_21DeepScanLineInputFileEEEbRT_bb(ptr noundef nonnull align 8 dereferenceable(16) %rgba112.i, i1 noundef zeroext %reduceTime)
          to label %invoke.cont120.i unwind label %lpad119.i

invoke.cont120.i:                                 ; preds = %invoke.cont116.i
  call void @_ZN7Imf_3_221DeepScanLineInputFileD1Ev(ptr noundef nonnull align 8 dereferenceable(16) %rgba112.i) #22
  br i1 %call121.i, label %land.lhs.true128.i, label %if.then136.i

lpad113.i:                                        ; preds = %invoke.cont114.i, %if.then109.i
  %20 = landingpad { ptr, i32 }
          catch ptr null
  br label %catch123.i

lpad119.i:                                        ; preds = %invoke.cont116.i
  %21 = landingpad { ptr, i32 }
          catch ptr null
  call void @_ZN7Imf_3_221DeepScanLineInputFileD1Ev(ptr noundef nonnull align 8 dereferenceable(16) %rgba112.i) #22
  br label %catch123.i

catch123.i:                                       ; preds = %lpad119.i, %lpad113.i
  %.pn32.i = phi { ptr, i32 } [ %21, %lpad119.i ], [ %20, %lpad113.i ]
  %exn.slot.4.i = extractvalue { ptr, i32 } %.pn32.i, 0
  %22 = call ptr @__cxa_begin_catch(ptr %exn.slot.4.i) #22
  invoke void @__cxa_end_catch()
          to label %land.lhs.true128.i unwind label %lpad35.i

land.lhs.true128.i:                               ; preds = %catch123.i, %invoke.cont120.i
  %call.i54.i = call noundef i64 @_ZNKSt7__cxx1112basic_stringIcSt11char_traitsIcESaIcEE4sizeEv(ptr noundef nonnull align 8 dereferenceable(32) %firstPartType.i) #22
  %call1.i55.i = call noundef i64 @_ZNKSt7__cxx1112basic_stringIcSt11char_traitsIcESaIcEE4sizeEv(ptr noundef nonnull align 8 dereferenceable(32) @_ZN7Imf_3_2L12DEEPSCANLINEB5cxx11E) #22
  %cmp.i56.i = icmp eq i64 %call.i54.i, %call1.i55.i
  br i1 %cmp.i56.i, label %land.rhs.i57.i, label %if.then136.i

land.rhs.i57.i:                                   ; preds = %land.lhs.true128.i
  %call2.i58.i = call noundef ptr @_ZNKSt7__cxx1112basic_stringIcSt11char_traitsIcESaIcEE4dataEv(ptr noundef nonnull align 8 dereferenceable(32) %firstPartType.i) #22
  %call3.i59.i = call noundef ptr @_ZNKSt7__cxx1112basic_stringIcSt11char_traitsIcESaIcEE4dataEv(ptr noundef nonnull align 8 dereferenceable(32) @_ZN7Imf_3_2L12DEEPSCANLINEB5cxx11E) #22
  %call4.i60.i = call noundef i64 @_ZNKSt7__cxx1112basic_stringIcSt11char_traitsIcESaIcEE4sizeEv(ptr noundef nonnull align 8 dereferenceable(32) %firstPartType.i) #22
  %cmp.i.i61.i = icmp eq i64 %call4.i60.i, 0
  br i1 %cmp.i.i61.i, label %_ZSteqIcEN9__gnu_cxx11__enable_ifIXsr9__is_charIT_EE7__valueEbE6__typeERKNSt7__cxx1112basic_stringIS2_St11char_traitsIS2_ESaIS2_EEESC_.exit64.thread.i, label %_ZSteqIcEN9__gnu_cxx11__enable_ifIXsr9__is_charIT_EE7__valueEbE6__typeERKNSt7__cxx1112basic_stringIS2_St11char_traitsIS2_ESaIS2_EEESC_.exit64.i

_ZSteqIcEN9__gnu_cxx11__enable_ifIXsr9__is_charIT_EE7__valueEbE6__typeERKNSt7__cxx1112basic_stringIS2_St11char_traitsIS2_ESaIS2_EEESC_.exit64.i: ; preds = %land.rhs.i57.i
  %bcmp.i63.i = call i32 @bcmp(ptr %call2.i58.i, ptr %call3.i59.i, i64 %call4.i60.i)
  %bcmp.i63.fr.i = freeze i32 %bcmp.i63.i
  %23 = icmp eq i32 %bcmp.i63.fr.i, 0
  br i1 %23, label %_ZSteqIcEN9__gnu_cxx11__enable_ifIXsr9__is_charIT_EE7__valueEbE6__typeERKNSt7__cxx1112basic_stringIS2_St11char_traitsIS2_ESaIS2_EEESC_.exit64.thread.i, label %if.then136.i

_ZSteqIcEN9__gnu_cxx11__enable_ifIXsr9__is_charIT_EE7__valueEbE6__typeERKNSt7__cxx1112basic_stringIS2_St11char_traitsIS2_ESaIS2_EEESC_.exit64.thread.i: ; preds = %_ZSteqIcEN9__gnu_cxx11__enable_ifIXsr9__is_charIT_EE7__valueEbE6__typeERKNSt7__cxx1112basic_stringIS2_St11char_traitsIS2_ESaIS2_EEESC_.exit64.i, %land.rhs.i57.i
  br label %if.then136.i

if.then136.i:                                     ; preds = %_ZSteqIcEN9__gnu_cxx11__enable_ifIXsr9__is_charIT_EE7__valueEbE6__typeERKNSt7__cxx1112basic_stringIS2_St11char_traitsIS2_ESaIS2_EEESC_.exit64.thread.i, %_ZSteqIcEN9__gnu_cxx11__enable_ifIXsr9__is_charIT_EE7__valueEbE6__typeERKNSt7__cxx1112basic_stringIS2_St11char_traitsIS2_ESaIS2_EEESC_.exit64.i, %land.lhs.true128.i, %invoke.cont120.i, %if.end107.i
  %threw.4.ph.i = phi i8 [ %threw.3.i, %_ZSteqIcEN9__gnu_cxx11__enable_ifIXsr9__is_charIT_EE7__valueEbE6__typeERKNSt7__cxx1112basic_stringIS2_St11char_traitsIS2_ESaIS2_EEESC_.exit64.i ], [ 1, %_ZSteqIcEN9__gnu_cxx11__enable_ifIXsr9__is_charIT_EE7__valueEbE6__typeERKNSt7__cxx1112basic_stringIS2_St11char_traitsIS2_ESaIS2_EEESC_.exit64.thread.i ], [ %threw.3.i, %invoke.cont120.i ], [ %threw.3.i, %if.end107.i ], [ %threw.3.i, %land.lhs.true128.i ]
  %call142.i = invoke noundef i32 @_ZN7Imf_3_217globalThreadCountEv()
          to label %invoke.cont141.i unwind label %lpad140.i

invoke.cont141.i:                                 ; preds = %if.then136.i
  invoke void @_ZN7Imf_3_218DeepTiledInputFileC1EPKci(ptr noundef nonnull align 8 dereferenceable(16) %rgba139.i, ptr noundef %fileName, i32 noundef %call142.i)
          to label %invoke.cont143.i unwind label %lpad140.i

invoke.cont143.i:                                 ; preds = %invoke.cont141.i
  %call148.i = invoke fastcc noundef zeroext i1 @_ZN7Imf_3_212_GLOBAL__N_112readDeepTileINS_18DeepTiledInputFileEEEbRT_bb(ptr noundef nonnull align 8 dereferenceable(16) %rgba139.i, i1 noundef zeroext %reduceMemory, i1 noundef zeroext %reduceTime)
          to label %invoke.cont147.i unwind label %lpad146.i

invoke.cont147.i:                                 ; preds = %invoke.cont143.i
  call void @_ZN7Imf_3_218DeepTiledInputFileD1Ev(ptr noundef nonnull align 8 dereferenceable(16) %rgba139.i) #22
  br i1 %call148.i, label %land.lhs.true155.i, label %if.end159.i

lpad140.i:                                        ; preds = %invoke.cont141.i, %if.then136.i
  %24 = landingpad { ptr, i32 }
          catch ptr null
  br label %catch150.i

lpad146.i:                                        ; preds = %invoke.cont143.i
  %25 = landingpad { ptr, i32 }
          catch ptr null
  call void @_ZN7Imf_3_218DeepTiledInputFileD1Ev(ptr noundef nonnull align 8 dereferenceable(16) %rgba139.i) #22
  br label %catch150.i

catch150.i:                                       ; preds = %lpad146.i, %lpad140.i
  %.pn33.i = phi { ptr, i32 } [ %25, %lpad146.i ], [ %24, %lpad140.i ]
  %exn.slot.5.i = extractvalue { ptr, i32 } %.pn33.i, 0
  %26 = call ptr @__cxa_begin_catch(ptr %exn.slot.5.i) #22
  invoke void @__cxa_end_catch()
          to label %land.lhs.true155.i unwind label %lpad35.i

land.lhs.true155.i:                               ; preds = %catch150.i, %invoke.cont147.i
  %call.i65.i = call noundef i64 @_ZNKSt7__cxx1112basic_stringIcSt11char_traitsIcESaIcEE4sizeEv(ptr noundef nonnull align 8 dereferenceable(32) %firstPartType.i) #22
  %call1.i66.i = call noundef i64 @_ZNKSt7__cxx1112basic_stringIcSt11char_traitsIcESaIcEE4sizeEv(ptr noundef nonnull align 8 dereferenceable(32) @_ZN7Imf_3_2L8DEEPTILEB5cxx11E) #22
  %cmp.i67.i = icmp eq i64 %call.i65.i, %call1.i66.i
  br i1 %cmp.i67.i, label %land.rhs.i68.i, label %if.end159.i

land.rhs.i68.i:                                   ; preds = %land.lhs.true155.i
  %call2.i69.i = call noundef ptr @_ZNKSt7__cxx1112basic_stringIcSt11char_traitsIcESaIcEE4dataEv(ptr noundef nonnull align 8 dereferenceable(32) %firstPartType.i) #22
  %call3.i70.i = call noundef ptr @_ZNKSt7__cxx1112basic_stringIcSt11char_traitsIcESaIcEE4dataEv(ptr noundef nonnull align 8 dereferenceable(32) @_ZN7Imf_3_2L8DEEPTILEB5cxx11E) #22
  %call4.i71.i = call noundef i64 @_ZNKSt7__cxx1112basic_stringIcSt11char_traitsIcESaIcEE4sizeEv(ptr noundef nonnull align 8 dereferenceable(32) %firstPartType.i) #22
  %cmp.i.i72.i = icmp eq i64 %call4.i71.i, 0
  br i1 %cmp.i.i72.i, label %_ZSteqIcEN9__gnu_cxx11__enable_ifIXsr9__is_charIT_EE7__valueEbE6__typeERKNSt7__cxx1112basic_stringIS2_St11char_traitsIS2_ESaIS2_EEESC_.exit75.thread.i, label %_ZSteqIcEN9__gnu_cxx11__enable_ifIXsr9__is_charIT_EE7__valueEbE6__typeERKNSt7__cxx1112basic_stringIS2_St11char_traitsIS2_ESaIS2_EEESC_.exit75.i

_ZSteqIcEN9__gnu_cxx11__enable_ifIXsr9__is_charIT_EE7__valueEbE6__typeERKNSt7__cxx1112basic_stringIS2_St11char_traitsIS2_ESaIS2_EEESC_.exit75.i: ; preds = %land.rhs.i68.i
  %bcmp.i74.i = call i32 @bcmp(ptr %call2.i69.i, ptr %call3.i70.i, i64 %call4.i71.i)
  %bcmp.i74.fr.i = freeze i32 %bcmp.i74.i
  %27 = icmp eq i32 %bcmp.i74.fr.i, 0
  br i1 %27, label %_ZSteqIcEN9__gnu_cxx11__enable_ifIXsr9__is_charIT_EE7__valueEbE6__typeERKNSt7__cxx1112basic_stringIS2_St11char_traitsIS2_ESaIS2_EEESC_.exit75.thread.i, label %if.end159.i

_ZSteqIcEN9__gnu_cxx11__enable_ifIXsr9__is_charIT_EE7__valueEbE6__typeERKNSt7__cxx1112basic_stringIS2_St11char_traitsIS2_ESaIS2_EEESC_.exit75.thread.i: ; preds = %_ZSteqIcEN9__gnu_cxx11__enable_ifIXsr9__is_charIT_EE7__valueEbE6__typeERKNSt7__cxx1112basic_stringIS2_St11char_traitsIS2_ESaIS2_EEESC_.exit75.i, %land.rhs.i68.i
  br label %if.end159.i

if.end159.i:                                      ; preds = %_ZSteqIcEN9__gnu_cxx11__enable_ifIXsr9__is_charIT_EE7__valueEbE6__typeERKNSt7__cxx1112basic_stringIS2_St11char_traitsIS2_ESaIS2_EEESC_.exit75.thread.i, %_ZSteqIcEN9__gnu_cxx11__enable_ifIXsr9__is_charIT_EE7__valueEbE6__typeERKNSt7__cxx1112basic_stringIS2_St11char_traitsIS2_ESaIS2_EEESC_.exit75.i, %land.lhs.true155.i, %invoke.cont147.i, %if.end80.i
  %threw.5.i = phi i8 [ %threw.4.ph.i, %invoke.cont147.i ], [ %threw.0.i, %if.end80.i ], [ 1, %_ZSteqIcEN9__gnu_cxx11__enable_ifIXsr9__is_charIT_EE7__valueEbE6__typeERKNSt7__cxx1112basic_stringIS2_St11char_traitsIS2_ESaIS2_EEESC_.exit75.thread.i ], [ %threw.4.ph.i, %_ZSteqIcEN9__gnu_cxx11__enable_ifIXsr9__is_charIT_EE7__valueEbE6__typeERKNSt7__cxx1112basic_stringIS2_St11char_traitsIS2_ESaIS2_EEESC_.exit75.i ], [ %threw.4.ph.i, %land.lhs.true155.i ]
  invoke void @_ZN7Imf_3_221CompositeDeepScanLine21setMaximumSampleCountEl(i64 noundef %call.i3)
          to label %invoke.cont160.i unwind label %lpad35.i

invoke.cont160.i:                                 ; preds = %if.end159.i
  %28 = load i32, ptr %maxImageWidth.i, align 4
  %29 = load i32, ptr %maxImageHeight.i, align 4
  invoke void @_ZN7Imf_3_26Header15setMaxImageSizeEii(i32 noundef %28, i32 noundef %29)
          to label %invoke.cont161.i unwind label %lpad35.i

invoke.cont161.i:                                 ; preds = %invoke.cont160.i
  %30 = load i32, ptr %maxTileWidth.i, align 4
  %31 = load i32, ptr %maxTileHeight.i, align 4
  invoke void @_ZN7Imf_3_26Header14setMaxTileSizeEii(i32 noundef %30, i32 noundef %31)
          to label %_ZN7Imf_3_212_GLOBAL__N_19runChecksIPKcEEbRT_bb.exit unwind label %lpad35.i

_ZN7Imf_3_212_GLOBAL__N_19runChecksIPKcEEbRT_bb.exit: ; preds = %invoke.cont161.i
  %tobool163.i = icmp ne i8 %threw.5.i, 0
  call void @_ZNSt7__cxx1112basic_stringIcSt11char_traitsIcESaIcEED1Ev(ptr noundef nonnull align 8 dereferenceable(32) %firstPartType.i) #22
  call void @llvm.lifetime.end.p0(i64 4, ptr nonnull %maxImageWidth.i)
  call void @llvm.lifetime.end.p0(i64 4, ptr nonnull %maxImageHeight.i)
  call void @llvm.lifetime.end.p0(i64 4, ptr nonnull %maxTileWidth.i)
  call void @llvm.lifetime.end.p0(i64 4, ptr nonnull %maxTileHeight.i)
  call void @llvm.lifetime.end.p0(i64 32, ptr nonnull %firstPartType.i)
  call void @llvm.lifetime.end.p0(i64 16, ptr nonnull %multi.i)
  call void @llvm.lifetime.end.p0(i64 64, ptr nonnull %rgba.i)
  call void @llvm.lifetime.end.p0(i64 16, ptr nonnull %rgba60.i)
  call void @llvm.lifetime.end.p0(i64 16, ptr nonnull %rgba87.i)
  call void @llvm.lifetime.end.p0(i64 16, ptr nonnull %rgba112.i)
  call void @llvm.lifetime.end.p0(i64 16, ptr nonnull %rgba139.i)
  br label %return

return:                                           ; preds = %_ZN7Imf_3_212_GLOBAL__N_19runChecksIPKcEEbRT_bb.exit, %_ZN7Imf_3_212_GLOBAL__N_113runCoreChecksEPKcbb.exit
  %retval.0 = phi i1 [ %retval.0.i, %_ZN7Imf_3_212_GLOBAL__N_113runCoreChecksEPKcbb.exit ], [ %tobool163.i, %_ZN7Imf_3_212_GLOBAL__N_19runChecksIPKcEEbRT_bb.exit ]
  ret i1 %retval.0
}

; Function Attrs: mustprogress uwtable
define noundef zeroext i1 @_ZN7Imf_3_216checkOpenEXRFileEPKcmbbb(ptr noundef %data, i64 noundef %numBytes, i1 noundef zeroext %reduceMemory, i1 noundef zeroext %reduceTime, i1 noundef zeroext %runCoreCheck) local_unnamed_addr #3 personality ptr @__gxx_personality_v0 {
entry:
  %maxImageWidth.i = alloca i32, align 4
  %maxImageHeight.i = alloca i32, align 4
  %maxTileWidth.i = alloca i32, align 4
  %maxTileHeight.i = alloca i32, align 4
  %firstPartType.i = alloca %"class.std::__cxx11::basic_string", align 8
  %multi.i = alloca %"class.Imf_3_2::MultiPartInputFile", align 8
  %rgba.i = alloca %"class.Imf_3_2::RgbaInputFile", align 8
  %rgba60.i = alloca %"class.Imf_3_2::InputFile", align 8
  %rgba87.i = alloca %"class.Imf_3_2::TiledInputFile", align 8
  %rgba112.i = alloca %"class.Imf_3_2::DeepScanLineInputFile", align 8
  %rgba139.i = alloca %"class.Imf_3_2::DeepTiledInputFile", align 8
  %f.i = alloca ptr, align 8
  %cinit.i = alloca %struct._exr_context_initializer_v3, align 8
  %md.i = alloca %"struct.Imf_3_2::(anonymous namespace)::memdata", align 8
  %stream = alloca %"class.Imf_3_2::(anonymous namespace)::PtrIStream", align 8
  br i1 %runCoreCheck, label %if.then, label %if.else

if.then:                                          ; preds = %entry
  call void @llvm.lifetime.start.p0(i64 8, ptr nonnull %f.i)
  call void @llvm.lifetime.start.p0(i64 104, ptr nonnull %cinit.i)
  call void @llvm.lifetime.start.p0(i64 16, ptr nonnull %md.i)
  %0 = getelementptr inbounds i8, ptr %cinit.i, i64 16
  call void @llvm.memset.p0.i64(ptr noundef nonnull align 8 dereferenceable(104) %0, i8 0, i64 88, i1 false)
  store i64 104, ptr %cinit.i, align 8
  %1 = getelementptr inbounds i8, ptr %cinit.i, i64 88
  store i32 -2, ptr %1, align 8
  %2 = getelementptr inbounds i8, ptr %cinit.i, i64 92
  store float -1.000000e+00, ptr %2, align 4
  store ptr %data, ptr %md.i, align 8
  %bytes.i = getelementptr inbounds i8, ptr %md.i, i64 8
  store i64 %numBytes, ptr %bytes.i, align 8
  %user_data.i = getelementptr inbounds i8, ptr %cinit.i, i64 32
  store ptr %md.i, ptr %user_data.i, align 8
  %read_fn.i = getelementptr inbounds i8, ptr %cinit.i, i64 40
  store ptr @_ZN7Imf_3_212_GLOBAL__N_114memstream_readEPK19_priv_exr_context_tPvS4_mmPFiS3_iPKczE, ptr %read_fn.i, align 8
  %size_fn.i = getelementptr inbounds i8, ptr %cinit.i, i64 48
  store ptr @_ZN7Imf_3_212_GLOBAL__N_114memstream_sizeEPK19_priv_exr_context_tPv, ptr %size_fn.i, align 8
  %error_handler_fn.i = getelementptr inbounds i8, ptr %cinit.i, i64 8
  store ptr @_ZN7Imf_3_212_GLOBAL__N_121core_error_handler_cbEPK19_priv_exr_context_tiPKc, ptr %error_handler_fn.i, align 8
  %call.i = call i32 @exr_start_read(ptr noundef nonnull %f.i, ptr noundef nonnull @.str.12, ptr noundef nonnull %cinit.i)
  %cmp.not.i = icmp eq i32 %call.i, 0
  br i1 %cmp.not.i, label %if.end.i, label %_ZN7Imf_3_212_GLOBAL__N_113runCoreChecksEPKcmbb.exit

if.end.i:                                         ; preds = %if.then
  %3 = load ptr, ptr %f.i, align 8
  %call4.i = call fastcc noundef zeroext i1 @_ZN7Imf_3_212_GLOBAL__N_113checkCoreFileEP19_priv_exr_context_tbb(ptr noundef %3, i1 noundef zeroext %reduceMemory, i1 noundef zeroext %reduceTime)
  %call6.i = call i32 @exr_finish(ptr noundef nonnull %f.i)
  br label %_ZN7Imf_3_212_GLOBAL__N_113runCoreChecksEPKcmbb.exit

_ZN7Imf_3_212_GLOBAL__N_113runCoreChecksEPKcmbb.exit: ; preds = %if.then, %if.end.i
  %retval.0.i = phi i1 [ %call4.i, %if.end.i ], [ true, %if.then ]
  call void @llvm.lifetime.end.p0(i64 8, ptr nonnull %f.i)
  call void @llvm.lifetime.end.p0(i64 104, ptr nonnull %cinit.i)
  call void @llvm.lifetime.end.p0(i64 16, ptr nonnull %md.i)
  br label %return

if.else:                                          ; preds = %entry
  call void @_ZN7Imf_3_27IStreamC2EPKc(ptr noundef nonnull align 8 dereferenceable(40) %stream, ptr noundef nonnull @.str.13)
  store ptr getelementptr inbounds ({ [10 x ptr] }, ptr @_ZTVN7Imf_3_212_GLOBAL__N_110PtrIStreamE, i64 0, inrange i32 0, i64 2), ptr %stream, align 8
  %base.i = getelementptr inbounds i8, ptr %stream, i64 40
  store ptr %data, ptr %base.i, align 8
  %current.i = getelementptr inbounds i8, ptr %stream, i64 48
  store ptr %data, ptr %current.i, align 8
  %end.i = getelementptr inbounds i8, ptr %stream, i64 56
  %add.ptr.i = getelementptr inbounds i8, ptr %data, i64 %numBytes
  store ptr %add.ptr.i, ptr %end.i, align 8
  call void @llvm.lifetime.start.p0(i64 4, ptr nonnull %maxImageWidth.i)
  call void @llvm.lifetime.start.p0(i64 4, ptr nonnull %maxImageHeight.i)
  call void @llvm.lifetime.start.p0(i64 4, ptr nonnull %maxTileWidth.i)
  call void @llvm.lifetime.start.p0(i64 4, ptr nonnull %maxTileHeight.i)
  call void @llvm.lifetime.start.p0(i64 32, ptr nonnull %firstPartType.i)
  call void @llvm.lifetime.start.p0(i64 16, ptr nonnull %multi.i)
  call void @llvm.lifetime.start.p0(i64 64, ptr nonnull %rgba.i)
  call void @llvm.lifetime.start.p0(i64 16, ptr nonnull %rgba60.i)
  call void @llvm.lifetime.start.p0(i64 16, ptr nonnull %rgba87.i)
  call void @llvm.lifetime.start.p0(i64 16, ptr nonnull %rgba112.i)
  call void @llvm.lifetime.start.p0(i64 16, ptr nonnull %rgba139.i)
  %call.i57 = invoke noundef i64 @_ZN7Imf_3_221CompositeDeepScanLine21getMaximumSampleCountEv()
          to label %call.i5.noexc unwind label %lpad

call.i5.noexc:                                    ; preds = %if.else
  invoke void @_ZN7Imf_3_26Header15getMaxImageSizeERiS1_(ptr noundef nonnull align 4 dereferenceable(4) %maxImageWidth.i, ptr noundef nonnull align 4 dereferenceable(4) %maxImageHeight.i)
          to label %.noexc unwind label %lpad

.noexc:                                           ; preds = %call.i5.noexc
  invoke void @_ZN7Imf_3_26Header15getMaxImageSizeERiS1_(ptr noundef nonnull align 4 dereferenceable(4) %maxTileWidth.i, ptr noundef nonnull align 4 dereferenceable(4) %maxTileHeight.i)
          to label %.noexc8 unwind label %lpad

.noexc8:                                          ; preds = %.noexc
  %brmerge.i = or i1 %reduceMemory, %reduceTime
  br i1 %brmerge.i, label %if.then.i, label %if.end.i6

if.then.i:                                        ; preds = %.noexc8
  invoke void @_ZN7Imf_3_221CompositeDeepScanLine21setMaximumSampleCountEl(i64 noundef 1048576)
          to label %.noexc9 unwind label %lpad

.noexc9:                                          ; preds = %if.then.i
  invoke void @_ZN7Imf_3_26Header15setMaxImageSizeEii(i32 noundef 2048, i32 noundef 2048)
          to label %.noexc10 unwind label %lpad

.noexc10:                                         ; preds = %.noexc9
  invoke void @_ZN7Imf_3_26Header14setMaxTileSizeEii(i32 noundef 512, i32 noundef 512)
          to label %if.end.i6 unwind label %lpad

if.end.i6:                                        ; preds = %.noexc10, %.noexc8
  call void @_ZNSt7__cxx1112basic_stringIcSt11char_traitsIcESaIcEEC1Ev(ptr noundef nonnull align 8 dereferenceable(32) %firstPartType.i) #22
  %call3.i = invoke noundef i32 @_ZN7Imf_3_217globalThreadCountEv()
          to label %invoke.cont.i unwind label %lpad.i

invoke.cont.i:                                    ; preds = %if.end.i6
  invoke void @_ZN7Imf_3_218MultiPartInputFileC1ERNS_7IStreamEib(ptr noundef nonnull align 8 dereferenceable(16) %multi.i, ptr noundef nonnull align 8 dereferenceable(40) %stream, i32 noundef %call3.i, i1 noundef zeroext true)
          to label %invoke.cont4.i unwind label %lpad.i

invoke.cont4.i:                                   ; preds = %invoke.cont.i
  %call7.i = invoke noundef nonnull align 8 dereferenceable(49) ptr @_ZNK7Imf_3_218MultiPartInputFile6headerEi(ptr noundef nonnull align 8 dereferenceable(16) %multi.i, i32 noundef 0)
          to label %invoke.cont6.i unwind label %lpad5.i

invoke.cont6.i:                                   ; preds = %invoke.cont4.i
  %call9.i = invoke noundef nonnull align 8 dereferenceable(32) ptr @_ZNK7Imf_3_26Header4typeB5cxx11Ev(ptr noundef nonnull align 8 dereferenceable(49) %call7.i)
          to label %invoke.cont8.i unwind label %lpad5.i

invoke.cont8.i:                                   ; preds = %invoke.cont6.i
  %call11.i = invoke noundef nonnull align 8 dereferenceable(32) ptr @_ZNSt7__cxx1112basic_stringIcSt11char_traitsIcESaIcEEaSERKS4_(ptr noundef nonnull align 8 dereferenceable(32) %firstPartType.i, ptr noundef nonnull align 8 dereferenceable(32) %call9.i)
          to label %invoke.cont10.i unwind label %lpad5.i

invoke.cont10.i:                                  ; preds = %invoke.cont8.i
  %call13.i = invoke noundef zeroext i1 @_ZN7Imf_3_27isTiledERKNSt7__cxx1112basic_stringIcSt11char_traitsIcESaIcEEE(ptr noundef nonnull align 8 dereferenceable(32) %firstPartType.i)
          to label %invoke.cont12.i unwind label %lpad5.i

invoke.cont12.i:                                  ; preds = %invoke.cont10.i
  br i1 %call13.i, label %if.then14.i, label %if.end29.i

if.then14.i:                                      ; preds = %invoke.cont12.i
  %call16.i = invoke noundef nonnull align 8 dereferenceable(49) ptr @_ZNK7Imf_3_218MultiPartInputFile6headerEi(ptr noundef nonnull align 8 dereferenceable(16) %multi.i, i32 noundef 0)
          to label %invoke.cont15.i unwind label %lpad5.i

invoke.cont15.i:                                  ; preds = %if.then14.i
  %call18.i = invoke noundef nonnull align 4 dereferenceable(16) ptr @_ZNK7Imf_3_26Header15tileDescriptionEv(ptr noundef nonnull align 8 dereferenceable(49) %call16.i)
          to label %invoke.cont17.i unwind label %lpad5.i

invoke.cont17.i:                                  ; preds = %invoke.cont15.i
  %4 = load i32, ptr %call18.i, align 4
  %conv.i = zext i32 %4 to i64
  %ySize.i = getelementptr inbounds i8, ptr %call18.i, i64 4
  %5 = load i32, ptr %ySize.i, align 4
  %conv19.i = zext i32 %5 to i64
  %mul.i = mul nuw i64 %conv19.i, %conv.i
  %call21.i = invoke noundef nonnull align 8 dereferenceable(49) ptr @_ZNK7Imf_3_218MultiPartInputFile6headerEi(ptr noundef nonnull align 8 dereferenceable(16) %multi.i, i32 noundef 0)
          to label %invoke.cont20.i unwind label %lpad5.i

invoke.cont20.i:                                  ; preds = %invoke.cont17.i
  %call23.i = invoke noundef i64 @_ZN7Imf_3_222calculateBytesPerPixelERKNS_6HeaderE(ptr noundef nonnull align 8 dereferenceable(49) %call21.i)
          to label %invoke.cont22.i unwind label %lpad5.i

invoke.cont22.i:                                  ; preds = %invoke.cont20.i
  %sext.i = shl i64 %call23.i, 32
  %conv25.i = ashr exact i64 %sext.i, 32
  %mul26.i = mul i64 %mul.i, %conv25.i
  %cmp.i = icmp ugt i64 %mul26.i, 1000000
  %spec.select.i = zext i1 %cmp.i to i8
  br label %if.end29.i

lpad.i:                                           ; preds = %invoke.cont.i, %if.end.i6
  %6 = landingpad { ptr, i32 }
          catch ptr null
  br label %catch.i

lpad5.i:                                          ; preds = %if.end29.i, %invoke.cont20.i, %invoke.cont17.i, %invoke.cont15.i, %if.then14.i, %invoke.cont10.i, %invoke.cont8.i, %invoke.cont6.i, %invoke.cont4.i
  %largeTiles.0.i = phi i8 [ %largeTiles.3.i, %if.end29.i ], [ 1, %invoke.cont20.i ], [ 1, %invoke.cont17.i ], [ 1, %invoke.cont15.i ], [ 1, %if.then14.i ], [ 1, %invoke.cont10.i ], [ 1, %invoke.cont8.i ], [ 1, %invoke.cont6.i ], [ 1, %invoke.cont4.i ]
  %7 = landingpad { ptr, i32 }
          catch ptr null
  call void @_ZN7Imf_3_218MultiPartInputFileD1Ev(ptr noundef nonnull align 8 dereferenceable(16) %multi.i) #22
  br label %catch.i

catch.i:                                          ; preds = %lpad5.i, %lpad.i
  %.pn.i = phi { ptr, i32 } [ %7, %lpad5.i ], [ %6, %lpad.i ]
  %largeTiles.1.i = phi i8 [ %largeTiles.0.i, %lpad5.i ], [ 1, %lpad.i ]
  %exn.slot.0.i = extractvalue { ptr, i32 } %.pn.i, 0
  %8 = call ptr @__cxa_begin_catch(ptr %exn.slot.0.i) #22
  invoke void @__cxa_end_catch()
          to label %try.cont.i unwind label %lpad35.i

try.cont.i:                                       ; preds = %invoke.cont32.i, %catch.i
  %threw.0.i = phi i8 [ %frombool34.i, %invoke.cont32.i ], [ 1, %catch.i ]
  %largeTiles.2.i = phi i8 [ %largeTiles.3.i, %invoke.cont32.i ], [ %largeTiles.1.i, %catch.i ]
  br i1 %reduceMemory, label %if.end80.i, label %if.then38.i

if.then38.i:                                      ; preds = %try.cont.i
  %vtable.i.i = load ptr, ptr %stream, align 8
  %vfn.i.i = getelementptr inbounds i8, ptr %vtable.i.i, i64 48
  %9 = load ptr, ptr %vfn.i.i, align 8
  invoke void %9(ptr noundef nonnull align 8 dereferenceable(64) %stream, i64 noundef 0)
          to label %invoke.cont39.i unwind label %lpad35.i

invoke.cont39.i:                                  ; preds = %if.then38.i
  %call42.i = invoke noundef i32 @_ZN7Imf_3_217globalThreadCountEv()
          to label %invoke.cont41.i unwind label %lpad40.i

invoke.cont41.i:                                  ; preds = %invoke.cont39.i
  invoke void @_ZN7Imf_3_213RgbaInputFileC1ERNS_7IStreamEi(ptr noundef nonnull align 8 dereferenceable(64) %rgba.i, ptr noundef nonnull align 8 dereferenceable(40) %stream, i32 noundef %call42.i)
          to label %invoke.cont43.i unwind label %lpad40.i

invoke.cont43.i:                                  ; preds = %invoke.cont41.i
  %call48.i = invoke fastcc noundef zeroext i1 @_ZN7Imf_3_212_GLOBAL__N_18readRgbaERNS_13RgbaInputFileEbb(ptr noundef nonnull align 8 dereferenceable(64) %rgba.i, i1 noundef zeroext %reduceTime)
          to label %invoke.cont47.i unwind label %lpad46.i

invoke.cont47.i:                                  ; preds = %invoke.cont43.i
  call void @_ZN7Imf_3_213RgbaInputFileD1Ev(ptr noundef nonnull align 8 dereferenceable(64) %rgba.i) #22
  br i1 %call48.i, label %land.lhs.true.i, label %if.end57.i

if.end29.i:                                       ; preds = %invoke.cont22.i, %invoke.cont12.i
  %largeTiles.3.i = phi i8 [ %spec.select.i, %invoke.cont22.i ], [ 0, %invoke.cont12.i ]
  %call33.i = invoke fastcc noundef zeroext i1 @_ZN7Imf_3_212_GLOBAL__N_113readMultiPartERNS_18MultiPartInputFileEbb(ptr noundef nonnull align 8 dereferenceable(16) %multi.i, i1 noundef zeroext %reduceMemory, i1 noundef zeroext %reduceTime)
          to label %invoke.cont32.i unwind label %lpad5.i

invoke.cont32.i:                                  ; preds = %if.end29.i
  %frombool34.i = zext i1 %call33.i to i8
  call void @_ZN7Imf_3_218MultiPartInputFileD1Ev(ptr noundef nonnull align 8 dereferenceable(16) %multi.i) #22
  br label %try.cont.i

lpad35.i:                                         ; preds = %invoke.cont161.i, %invoke.cont160.i, %if.end159.i, %catch150.i, %if.then136.i, %catch123.i, %if.then109.i, %catch98.i, %if.then84.i, %catch71.i, %if.end57.i, %catch50.i, %if.then38.i, %catch.i
  %10 = landingpad { ptr, i32 }
          cleanup
  call void @_ZNSt7__cxx1112basic_stringIcSt11char_traitsIcESaIcEED1Ev(ptr noundef nonnull align 8 dereferenceable(32) %firstPartType.i) #22
  br label %lpad.body

lpad40.i:                                         ; preds = %invoke.cont41.i, %invoke.cont39.i
  %11 = landingpad { ptr, i32 }
          catch ptr null
  br label %catch50.i

lpad46.i:                                         ; preds = %invoke.cont43.i
  %12 = landingpad { ptr, i32 }
          catch ptr null
  call void @_ZN7Imf_3_213RgbaInputFileD1Ev(ptr noundef nonnull align 8 dereferenceable(64) %rgba.i) #22
  br label %catch50.i

catch50.i:                                        ; preds = %lpad46.i, %lpad40.i
  %.pn29.i = phi { ptr, i32 } [ %12, %lpad46.i ], [ %11, %lpad40.i ]
  %exn.slot.1.i = extractvalue { ptr, i32 } %.pn29.i, 0
  %13 = call ptr @__cxa_begin_catch(ptr %exn.slot.1.i) #22
  invoke void @__cxa_end_catch()
          to label %land.lhs.true.i unwind label %lpad35.i

land.lhs.true.i:                                  ; preds = %catch50.i, %invoke.cont47.i
  %call.i.i.i = call noundef i64 @_ZNKSt7__cxx1112basic_stringIcSt11char_traitsIcESaIcEE4sizeEv(ptr noundef nonnull align 8 dereferenceable(32) %firstPartType.i) #22
  %call1.i.i.i = call noundef i64 @_ZNKSt7__cxx1112basic_stringIcSt11char_traitsIcESaIcEE4sizeEv(ptr noundef nonnull align 8 dereferenceable(32) @_ZN7Imf_3_2L8DEEPTILEB5cxx11E) #22
  %cmp.i.i.i = icmp eq i64 %call.i.i.i, %call1.i.i.i
  br i1 %cmp.i.i.i, label %land.rhs.i.i.i, label %_ZStneIcSt11char_traitsIcESaIcEEbRKNSt7__cxx1112basic_stringIT_T0_T1_EESA_.exit.thread.i

land.rhs.i.i.i:                                   ; preds = %land.lhs.true.i
  %call2.i.i.i = call noundef ptr @_ZNKSt7__cxx1112basic_stringIcSt11char_traitsIcESaIcEE4dataEv(ptr noundef nonnull align 8 dereferenceable(32) %firstPartType.i) #22
  %call3.i.i.i = call noundef ptr @_ZNKSt7__cxx1112basic_stringIcSt11char_traitsIcESaIcEE4dataEv(ptr noundef nonnull align 8 dereferenceable(32) @_ZN7Imf_3_2L8DEEPTILEB5cxx11E) #22
  %call4.i.i.i = call noundef i64 @_ZNKSt7__cxx1112basic_stringIcSt11char_traitsIcESaIcEE4sizeEv(ptr noundef nonnull align 8 dereferenceable(32) %firstPartType.i) #22
  %cmp.i.i.i.i = icmp eq i64 %call4.i.i.i, 0
  br i1 %cmp.i.i.i.i, label %if.end57.i, label %_ZStneIcSt11char_traitsIcESaIcEEbRKNSt7__cxx1112basic_stringIT_T0_T1_EESA_.exit.i

_ZStneIcSt11char_traitsIcESaIcEEbRKNSt7__cxx1112basic_stringIT_T0_T1_EESA_.exit.i: ; preds = %land.rhs.i.i.i
  %bcmp.i.i.i = call i32 @bcmp(ptr %call2.i.i.i, ptr %call3.i.i.i, i64 %call4.i.i.i)
  %bcmp.i.i.fr.i = freeze i32 %bcmp.i.i.i
  %.not.i = icmp eq i32 %bcmp.i.i.fr.i, 0
  br i1 %.not.i, label %if.end57.i, label %_ZStneIcSt11char_traitsIcESaIcEEbRKNSt7__cxx1112basic_stringIT_T0_T1_EESA_.exit.thread.i

_ZStneIcSt11char_traitsIcESaIcEEbRKNSt7__cxx1112basic_stringIT_T0_T1_EESA_.exit.thread.i: ; preds = %_ZStneIcSt11char_traitsIcESaIcEEbRKNSt7__cxx1112basic_stringIT_T0_T1_EESA_.exit.i, %land.lhs.true.i
  br label %if.end57.i

if.end57.i:                                       ; preds = %_ZStneIcSt11char_traitsIcESaIcEEbRKNSt7__cxx1112basic_stringIT_T0_T1_EESA_.exit.thread.i, %_ZStneIcSt11char_traitsIcESaIcEEbRKNSt7__cxx1112basic_stringIT_T0_T1_EESA_.exit.i, %land.rhs.i.i.i, %invoke.cont47.i
  %threw.1.i = phi i8 [ %threw.0.i, %invoke.cont47.i ], [ 1, %_ZStneIcSt11char_traitsIcESaIcEEbRKNSt7__cxx1112basic_stringIT_T0_T1_EESA_.exit.thread.i ], [ %threw.0.i, %_ZStneIcSt11char_traitsIcESaIcEEbRKNSt7__cxx1112basic_stringIT_T0_T1_EESA_.exit.i ], [ %threw.0.i, %land.rhs.i.i.i ]
  %vtable.i41.i = load ptr, ptr %stream, align 8
  %vfn.i42.i = getelementptr inbounds i8, ptr %vtable.i41.i, i64 48
  %14 = load ptr, ptr %vfn.i42.i, align 8
  invoke void %14(ptr noundef nonnull align 8 dereferenceable(64) %stream, i64 noundef 0)
          to label %invoke.cont59.i unwind label %lpad35.i

invoke.cont59.i:                                  ; preds = %if.end57.i
  %call63.i = invoke noundef i32 @_ZN7Imf_3_217globalThreadCountEv()
          to label %invoke.cont62.i unwind label %lpad61.i

invoke.cont62.i:                                  ; preds = %invoke.cont59.i
  invoke void @_ZN7Imf_3_29InputFileC1ERNS_7IStreamEi(ptr noundef nonnull align 8 dereferenceable(16) %rgba60.i, ptr noundef nonnull align 8 dereferenceable(40) %stream, i32 noundef %call63.i)
          to label %invoke.cont64.i unwind label %lpad61.i

invoke.cont64.i:                                  ; preds = %invoke.cont62.i
  %call69.i = invoke fastcc noundef zeroext i1 @_ZN7Imf_3_212_GLOBAL__N_112readScanlineINS_9InputFileEEEbRT_bb(ptr noundef nonnull align 8 dereferenceable(16) %rgba60.i, i1 noundef zeroext %reduceTime)
          to label %invoke.cont68.i unwind label %lpad67.i

invoke.cont68.i:                                  ; preds = %invoke.cont64.i
  call void @_ZN7Imf_3_29InputFileD1Ev(ptr noundef nonnull align 8 dereferenceable(16) %rgba60.i) #22
  br i1 %call69.i, label %land.lhs.true76.i, label %if.then84.i

lpad61.i:                                         ; preds = %invoke.cont62.i, %invoke.cont59.i
  %15 = landingpad { ptr, i32 }
          catch ptr null
  br label %catch71.i

lpad67.i:                                         ; preds = %invoke.cont64.i
  %16 = landingpad { ptr, i32 }
          catch ptr null
  call void @_ZN7Imf_3_29InputFileD1Ev(ptr noundef nonnull align 8 dereferenceable(16) %rgba60.i) #22
  br label %catch71.i

catch71.i:                                        ; preds = %lpad67.i, %lpad61.i
  %.pn30.i = phi { ptr, i32 } [ %16, %lpad67.i ], [ %15, %lpad61.i ]
  %exn.slot.2.i = extractvalue { ptr, i32 } %.pn30.i, 0
  %17 = call ptr @__cxa_begin_catch(ptr %exn.slot.2.i) #22
  invoke void @__cxa_end_catch()
          to label %land.lhs.true76.i unwind label %lpad35.i

land.lhs.true76.i:                                ; preds = %catch71.i, %invoke.cont68.i
  %call.i.i44.i = call noundef i64 @_ZNKSt7__cxx1112basic_stringIcSt11char_traitsIcESaIcEE4sizeEv(ptr noundef nonnull align 8 dereferenceable(32) %firstPartType.i) #22
  %call1.i.i45.i = call noundef i64 @_ZNKSt7__cxx1112basic_stringIcSt11char_traitsIcESaIcEE4sizeEv(ptr noundef nonnull align 8 dereferenceable(32) @_ZN7Imf_3_2L8DEEPTILEB5cxx11E) #22
  %cmp.i.i46.i = icmp eq i64 %call.i.i44.i, %call1.i.i45.i
  br i1 %cmp.i.i46.i, label %land.rhs.i.i48.i, label %_ZStneIcSt11char_traitsIcESaIcEEbRKNSt7__cxx1112basic_stringIT_T0_T1_EESA_.exit55.thread.i

land.rhs.i.i48.i:                                 ; preds = %land.lhs.true76.i
  %call2.i.i49.i = call noundef ptr @_ZNKSt7__cxx1112basic_stringIcSt11char_traitsIcESaIcEE4dataEv(ptr noundef nonnull align 8 dereferenceable(32) %firstPartType.i) #22
  %call3.i.i50.i = call noundef ptr @_ZNKSt7__cxx1112basic_stringIcSt11char_traitsIcESaIcEE4dataEv(ptr noundef nonnull align 8 dereferenceable(32) @_ZN7Imf_3_2L8DEEPTILEB5cxx11E) #22
  %call4.i.i51.i = call noundef i64 @_ZNKSt7__cxx1112basic_stringIcSt11char_traitsIcESaIcEE4sizeEv(ptr noundef nonnull align 8 dereferenceable(32) %firstPartType.i) #22
  %cmp.i.i.i52.i = icmp eq i64 %call4.i.i51.i, 0
  br i1 %cmp.i.i.i52.i, label %if.then84.i, label %_ZStneIcSt11char_traitsIcESaIcEEbRKNSt7__cxx1112basic_stringIT_T0_T1_EESA_.exit55.i

_ZStneIcSt11char_traitsIcESaIcEEbRKNSt7__cxx1112basic_stringIT_T0_T1_EESA_.exit55.i: ; preds = %land.rhs.i.i48.i
  %bcmp.i.i54.i = call i32 @bcmp(ptr %call2.i.i49.i, ptr %call3.i.i50.i, i64 %call4.i.i51.i)
  %bcmp.i.i54.fr.i = freeze i32 %bcmp.i.i54.i
  %.not124.i = icmp eq i32 %bcmp.i.i54.fr.i, 0
  br i1 %.not124.i, label %if.then84.i, label %_ZStneIcSt11char_traitsIcESaIcEEbRKNSt7__cxx1112basic_stringIT_T0_T1_EESA_.exit55.thread.i

_ZStneIcSt11char_traitsIcESaIcEEbRKNSt7__cxx1112basic_stringIT_T0_T1_EESA_.exit55.thread.i: ; preds = %_ZStneIcSt11char_traitsIcESaIcEEbRKNSt7__cxx1112basic_stringIT_T0_T1_EESA_.exit55.i, %land.lhs.true76.i
  br label %if.then84.i

if.end80.i:                                       ; preds = %try.cont.i
  %tobool83.not.not.i = icmp eq i8 %largeTiles.2.i, 0
  br i1 %tobool83.not.not.i, label %if.then84.i, label %if.end159.i

if.then84.i:                                      ; preds = %if.end80.i, %_ZStneIcSt11char_traitsIcESaIcEEbRKNSt7__cxx1112basic_stringIT_T0_T1_EESA_.exit55.thread.i, %_ZStneIcSt11char_traitsIcESaIcEEbRKNSt7__cxx1112basic_stringIT_T0_T1_EESA_.exit55.i, %land.rhs.i.i48.i, %invoke.cont68.i
  %threw.2103.i = phi i8 [ %threw.0.i, %if.end80.i ], [ %threw.1.i, %_ZStneIcSt11char_traitsIcESaIcEEbRKNSt7__cxx1112basic_stringIT_T0_T1_EESA_.exit55.i ], [ 1, %_ZStneIcSt11char_traitsIcESaIcEEbRKNSt7__cxx1112basic_stringIT_T0_T1_EESA_.exit55.thread.i ], [ %threw.1.i, %invoke.cont68.i ], [ %threw.1.i, %land.rhs.i.i48.i ]
  %vtable.i56.i = load ptr, ptr %stream, align 8
  %vfn.i57.i = getelementptr inbounds i8, ptr %vtable.i56.i, i64 48
  %18 = load ptr, ptr %vfn.i57.i, align 8
  invoke void %18(ptr noundef nonnull align 8 dereferenceable(64) %stream, i64 noundef 0)
          to label %invoke.cont86.i unwind label %lpad35.i

invoke.cont86.i:                                  ; preds = %if.then84.i
  %call90.i = invoke noundef i32 @_ZN7Imf_3_217globalThreadCountEv()
          to label %invoke.cont89.i unwind label %lpad88.i

invoke.cont89.i:                                  ; preds = %invoke.cont86.i
  invoke void @_ZN7Imf_3_214TiledInputFileC1ERNS_7IStreamEi(ptr noundef nonnull align 8 dereferenceable(16) %rgba87.i, ptr noundef nonnull align 8 dereferenceable(40) %stream, i32 noundef %call90.i)
          to label %invoke.cont91.i unwind label %lpad88.i

invoke.cont91.i:                                  ; preds = %invoke.cont89.i
  %call96.i = invoke fastcc noundef zeroext i1 @_ZN7Imf_3_212_GLOBAL__N_18readTileINS_14TiledInputFileEEEbRT_bb(ptr noundef nonnull align 8 dereferenceable(16) %rgba87.i, i1 noundef zeroext %reduceMemory, i1 noundef zeroext %reduceTime)
          to label %invoke.cont95.i unwind label %lpad94.i

invoke.cont95.i:                                  ; preds = %invoke.cont91.i
  call void @_ZN7Imf_3_214TiledInputFileD1Ev(ptr noundef nonnull align 8 dereferenceable(16) %rgba87.i) #22
  br i1 %call96.i, label %land.lhs.true103.i, label %if.end107.i

lpad88.i:                                         ; preds = %invoke.cont89.i, %invoke.cont86.i
  %19 = landingpad { ptr, i32 }
          catch ptr null
  br label %catch98.i

lpad94.i:                                         ; preds = %invoke.cont91.i
  %20 = landingpad { ptr, i32 }
          catch ptr null
  call void @_ZN7Imf_3_214TiledInputFileD1Ev(ptr noundef nonnull align 8 dereferenceable(16) %rgba87.i) #22
  br label %catch98.i

catch98.i:                                        ; preds = %lpad94.i, %lpad88.i
  %.pn31.i = phi { ptr, i32 } [ %20, %lpad94.i ], [ %19, %lpad88.i ]
  %exn.slot.3.i = extractvalue { ptr, i32 } %.pn31.i, 0
  %21 = call ptr @__cxa_begin_catch(ptr %exn.slot.3.i) #22
  invoke void @__cxa_end_catch()
          to label %land.lhs.true103.i unwind label %lpad35.i

land.lhs.true103.i:                               ; preds = %catch98.i, %invoke.cont95.i
  %call.i.i = call noundef i64 @_ZNKSt7__cxx1112basic_stringIcSt11char_traitsIcESaIcEE4sizeEv(ptr noundef nonnull align 8 dereferenceable(32) %firstPartType.i) #22
  %call1.i.i = call noundef i64 @_ZNKSt7__cxx1112basic_stringIcSt11char_traitsIcESaIcEE4sizeEv(ptr noundef nonnull align 8 dereferenceable(32) @_ZN7Imf_3_2L10TILEDIMAGEB5cxx11E) #22
  %cmp.i.i = icmp eq i64 %call.i.i, %call1.i.i
  br i1 %cmp.i.i, label %land.rhs.i.i, label %if.end107.i

land.rhs.i.i:                                     ; preds = %land.lhs.true103.i
  %call2.i.i = call noundef ptr @_ZNKSt7__cxx1112basic_stringIcSt11char_traitsIcESaIcEE4dataEv(ptr noundef nonnull align 8 dereferenceable(32) %firstPartType.i) #22
  %call3.i.i = call noundef ptr @_ZNKSt7__cxx1112basic_stringIcSt11char_traitsIcESaIcEE4dataEv(ptr noundef nonnull align 8 dereferenceable(32) @_ZN7Imf_3_2L10TILEDIMAGEB5cxx11E) #22
  %call4.i.i = call noundef i64 @_ZNKSt7__cxx1112basic_stringIcSt11char_traitsIcESaIcEE4sizeEv(ptr noundef nonnull align 8 dereferenceable(32) %firstPartType.i) #22
  %cmp.i.i59.i = icmp eq i64 %call4.i.i, 0
  br i1 %cmp.i.i59.i, label %_ZSteqIcEN9__gnu_cxx11__enable_ifIXsr9__is_charIT_EE7__valueEbE6__typeERKNSt7__cxx1112basic_stringIS2_St11char_traitsIS2_ESaIS2_EEESC_.exit.thread.i, label %_ZSteqIcEN9__gnu_cxx11__enable_ifIXsr9__is_charIT_EE7__valueEbE6__typeERKNSt7__cxx1112basic_stringIS2_St11char_traitsIS2_ESaIS2_EEESC_.exit.i

_ZSteqIcEN9__gnu_cxx11__enable_ifIXsr9__is_charIT_EE7__valueEbE6__typeERKNSt7__cxx1112basic_stringIS2_St11char_traitsIS2_ESaIS2_EEESC_.exit.i: ; preds = %land.rhs.i.i
  %bcmp.i.i = call i32 @bcmp(ptr %call2.i.i, ptr %call3.i.i, i64 %call4.i.i)
  %bcmp.i.fr.i = freeze i32 %bcmp.i.i
  %22 = icmp eq i32 %bcmp.i.fr.i, 0
  br i1 %22, label %_ZSteqIcEN9__gnu_cxx11__enable_ifIXsr9__is_charIT_EE7__valueEbE6__typeERKNSt7__cxx1112basic_stringIS2_St11char_traitsIS2_ESaIS2_EEESC_.exit.thread.i, label %if.end107.i

_ZSteqIcEN9__gnu_cxx11__enable_ifIXsr9__is_charIT_EE7__valueEbE6__typeERKNSt7__cxx1112basic_stringIS2_St11char_traitsIS2_ESaIS2_EEESC_.exit.thread.i: ; preds = %_ZSteqIcEN9__gnu_cxx11__enable_ifIXsr9__is_charIT_EE7__valueEbE6__typeERKNSt7__cxx1112basic_stringIS2_St11char_traitsIS2_ESaIS2_EEESC_.exit.i, %land.rhs.i.i
  br label %if.end107.i

if.end107.i:                                      ; preds = %_ZSteqIcEN9__gnu_cxx11__enable_ifIXsr9__is_charIT_EE7__valueEbE6__typeERKNSt7__cxx1112basic_stringIS2_St11char_traitsIS2_ESaIS2_EEESC_.exit.thread.i, %_ZSteqIcEN9__gnu_cxx11__enable_ifIXsr9__is_charIT_EE7__valueEbE6__typeERKNSt7__cxx1112basic_stringIS2_St11char_traitsIS2_ESaIS2_EEESC_.exit.i, %land.lhs.true103.i, %invoke.cont95.i
  %threw.3.i = phi i8 [ %threw.2103.i, %invoke.cont95.i ], [ 1, %_ZSteqIcEN9__gnu_cxx11__enable_ifIXsr9__is_charIT_EE7__valueEbE6__typeERKNSt7__cxx1112basic_stringIS2_St11char_traitsIS2_ESaIS2_EEESC_.exit.thread.i ], [ %threw.2103.i, %_ZSteqIcEN9__gnu_cxx11__enable_ifIXsr9__is_charIT_EE7__valueEbE6__typeERKNSt7__cxx1112basic_stringIS2_St11char_traitsIS2_ESaIS2_EEESC_.exit.i ], [ %threw.2103.i, %land.lhs.true103.i ]
  br i1 %reduceMemory, label %if.then136.i, label %if.then109.i

if.then109.i:                                     ; preds = %if.end107.i
  %vtable.i60.i = load ptr, ptr %stream, align 8
  %vfn.i61.i = getelementptr inbounds i8, ptr %vtable.i60.i, i64 48
  %23 = load ptr, ptr %vfn.i61.i, align 8
  invoke void %23(ptr noundef nonnull align 8 dereferenceable(64) %stream, i64 noundef 0)
          to label %invoke.cont111.i unwind label %lpad35.i

invoke.cont111.i:                                 ; preds = %if.then109.i
  %call115.i = invoke noundef i32 @_ZN7Imf_3_217globalThreadCountEv()
          to label %invoke.cont114.i unwind label %lpad113.i

invoke.cont114.i:                                 ; preds = %invoke.cont111.i
  invoke void @_ZN7Imf_3_221DeepScanLineInputFileC1ERNS_7IStreamEi(ptr noundef nonnull align 8 dereferenceable(16) %rgba112.i, ptr noundef nonnull align 8 dereferenceable(40) %stream, i32 noundef %call115.i)
          to label %invoke.cont116.i unwind label %lpad113.i

invoke.cont116.i:                                 ; preds = %invoke.cont114.i
  %call121.i = invoke fastcc noundef zeroext i1 @_ZN7Imf_3_212_GLOBAL__N_116readDeepScanLineINS_21DeepScanLineInputFileEEEbRT_bb(ptr noundef nonnull align 8 dereferenceable(16) %rgba112.i, i1 noundef zeroext %reduceTime)
          to label %invoke.cont120.i unwind label %lpad119.i

invoke.cont120.i:                                 ; preds = %invoke.cont116.i
  call void @_ZN7Imf_3_221DeepScanLineInputFileD1Ev(ptr noundef nonnull align 8 dereferenceable(16) %rgba112.i) #22
  br i1 %call121.i, label %land.lhs.true128.i, label %if.then136.i

lpad113.i:                                        ; preds = %invoke.cont114.i, %invoke.cont111.i
  %24 = landingpad { ptr, i32 }
          catch ptr null
  br label %catch123.i

lpad119.i:                                        ; preds = %invoke.cont116.i
  %25 = landingpad { ptr, i32 }
          catch ptr null
  call void @_ZN7Imf_3_221DeepScanLineInputFileD1Ev(ptr noundef nonnull align 8 dereferenceable(16) %rgba112.i) #22
  br label %catch123.i

catch123.i:                                       ; preds = %lpad119.i, %lpad113.i
  %.pn32.i = phi { ptr, i32 } [ %25, %lpad119.i ], [ %24, %lpad113.i ]
  %exn.slot.4.i = extractvalue { ptr, i32 } %.pn32.i, 0
  %26 = call ptr @__cxa_begin_catch(ptr %exn.slot.4.i) #22
  invoke void @__cxa_end_catch()
          to label %land.lhs.true128.i unwind label %lpad35.i

land.lhs.true128.i:                               ; preds = %catch123.i, %invoke.cont120.i
  %call.i63.i = call noundef i64 @_ZNKSt7__cxx1112basic_stringIcSt11char_traitsIcESaIcEE4sizeEv(ptr noundef nonnull align 8 dereferenceable(32) %firstPartType.i) #22
  %call1.i64.i = call noundef i64 @_ZNKSt7__cxx1112basic_stringIcSt11char_traitsIcESaIcEE4sizeEv(ptr noundef nonnull align 8 dereferenceable(32) @_ZN7Imf_3_2L12DEEPSCANLINEB5cxx11E) #22
  %cmp.i65.i = icmp eq i64 %call.i63.i, %call1.i64.i
  br i1 %cmp.i65.i, label %land.rhs.i66.i, label %if.then136.i

land.rhs.i66.i:                                   ; preds = %land.lhs.true128.i
  %call2.i67.i = call noundef ptr @_ZNKSt7__cxx1112basic_stringIcSt11char_traitsIcESaIcEE4dataEv(ptr noundef nonnull align 8 dereferenceable(32) %firstPartType.i) #22
  %call3.i68.i = call noundef ptr @_ZNKSt7__cxx1112basic_stringIcSt11char_traitsIcESaIcEE4dataEv(ptr noundef nonnull align 8 dereferenceable(32) @_ZN7Imf_3_2L12DEEPSCANLINEB5cxx11E) #22
  %call4.i69.i = call noundef i64 @_ZNKSt7__cxx1112basic_stringIcSt11char_traitsIcESaIcEE4sizeEv(ptr noundef nonnull align 8 dereferenceable(32) %firstPartType.i) #22
  %cmp.i.i70.i = icmp eq i64 %call4.i69.i, 0
  br i1 %cmp.i.i70.i, label %_ZSteqIcEN9__gnu_cxx11__enable_ifIXsr9__is_charIT_EE7__valueEbE6__typeERKNSt7__cxx1112basic_stringIS2_St11char_traitsIS2_ESaIS2_EEESC_.exit73.thread.i, label %_ZSteqIcEN9__gnu_cxx11__enable_ifIXsr9__is_charIT_EE7__valueEbE6__typeERKNSt7__cxx1112basic_stringIS2_St11char_traitsIS2_ESaIS2_EEESC_.exit73.i

_ZSteqIcEN9__gnu_cxx11__enable_ifIXsr9__is_charIT_EE7__valueEbE6__typeERKNSt7__cxx1112basic_stringIS2_St11char_traitsIS2_ESaIS2_EEESC_.exit73.i: ; preds = %land.rhs.i66.i
  %bcmp.i72.i = call i32 @bcmp(ptr %call2.i67.i, ptr %call3.i68.i, i64 %call4.i69.i)
  %bcmp.i72.fr.i = freeze i32 %bcmp.i72.i
  %27 = icmp eq i32 %bcmp.i72.fr.i, 0
  br i1 %27, label %_ZSteqIcEN9__gnu_cxx11__enable_ifIXsr9__is_charIT_EE7__valueEbE6__typeERKNSt7__cxx1112basic_stringIS2_St11char_traitsIS2_ESaIS2_EEESC_.exit73.thread.i, label %if.then136.i

_ZSteqIcEN9__gnu_cxx11__enable_ifIXsr9__is_charIT_EE7__valueEbE6__typeERKNSt7__cxx1112basic_stringIS2_St11char_traitsIS2_ESaIS2_EEESC_.exit73.thread.i: ; preds = %_ZSteqIcEN9__gnu_cxx11__enable_ifIXsr9__is_charIT_EE7__valueEbE6__typeERKNSt7__cxx1112basic_stringIS2_St11char_traitsIS2_ESaIS2_EEESC_.exit73.i, %land.rhs.i66.i
  br label %if.then136.i

if.then136.i:                                     ; preds = %_ZSteqIcEN9__gnu_cxx11__enable_ifIXsr9__is_charIT_EE7__valueEbE6__typeERKNSt7__cxx1112basic_stringIS2_St11char_traitsIS2_ESaIS2_EEESC_.exit73.thread.i, %_ZSteqIcEN9__gnu_cxx11__enable_ifIXsr9__is_charIT_EE7__valueEbE6__typeERKNSt7__cxx1112basic_stringIS2_St11char_traitsIS2_ESaIS2_EEESC_.exit73.i, %land.lhs.true128.i, %invoke.cont120.i, %if.end107.i
  %threw.4.ph.i = phi i8 [ %threw.3.i, %_ZSteqIcEN9__gnu_cxx11__enable_ifIXsr9__is_charIT_EE7__valueEbE6__typeERKNSt7__cxx1112basic_stringIS2_St11char_traitsIS2_ESaIS2_EEESC_.exit73.i ], [ 1, %_ZSteqIcEN9__gnu_cxx11__enable_ifIXsr9__is_charIT_EE7__valueEbE6__typeERKNSt7__cxx1112basic_stringIS2_St11char_traitsIS2_ESaIS2_EEESC_.exit73.thread.i ], [ %threw.3.i, %invoke.cont120.i ], [ %threw.3.i, %if.end107.i ], [ %threw.3.i, %land.lhs.true128.i ]
  %vtable.i74.i = load ptr, ptr %stream, align 8
  %vfn.i75.i = getelementptr inbounds i8, ptr %vtable.i74.i, i64 48
  %28 = load ptr, ptr %vfn.i75.i, align 8
  invoke void %28(ptr noundef nonnull align 8 dereferenceable(64) %stream, i64 noundef 0)
          to label %invoke.cont138.i unwind label %lpad35.i

invoke.cont138.i:                                 ; preds = %if.then136.i
  %call142.i = invoke noundef i32 @_ZN7Imf_3_217globalThreadCountEv()
          to label %invoke.cont141.i unwind label %lpad140.i

invoke.cont141.i:                                 ; preds = %invoke.cont138.i
  invoke void @_ZN7Imf_3_218DeepTiledInputFileC1ERNS_7IStreamEi(ptr noundef nonnull align 8 dereferenceable(16) %rgba139.i, ptr noundef nonnull align 8 dereferenceable(40) %stream, i32 noundef %call142.i)
          to label %invoke.cont143.i unwind label %lpad140.i

invoke.cont143.i:                                 ; preds = %invoke.cont141.i
  %call148.i = invoke fastcc noundef zeroext i1 @_ZN7Imf_3_212_GLOBAL__N_112readDeepTileINS_18DeepTiledInputFileEEEbRT_bb(ptr noundef nonnull align 8 dereferenceable(16) %rgba139.i, i1 noundef zeroext %reduceMemory, i1 noundef zeroext %reduceTime)
          to label %invoke.cont147.i unwind label %lpad146.i

invoke.cont147.i:                                 ; preds = %invoke.cont143.i
  call void @_ZN7Imf_3_218DeepTiledInputFileD1Ev(ptr noundef nonnull align 8 dereferenceable(16) %rgba139.i) #22
  br i1 %call148.i, label %land.lhs.true155.i, label %if.end159.i

lpad140.i:                                        ; preds = %invoke.cont141.i, %invoke.cont138.i
  %29 = landingpad { ptr, i32 }
          catch ptr null
  br label %catch150.i

lpad146.i:                                        ; preds = %invoke.cont143.i
  %30 = landingpad { ptr, i32 }
          catch ptr null
  call void @_ZN7Imf_3_218DeepTiledInputFileD1Ev(ptr noundef nonnull align 8 dereferenceable(16) %rgba139.i) #22
  br label %catch150.i

catch150.i:                                       ; preds = %lpad146.i, %lpad140.i
  %.pn33.i = phi { ptr, i32 } [ %30, %lpad146.i ], [ %29, %lpad140.i ]
  %exn.slot.5.i = extractvalue { ptr, i32 } %.pn33.i, 0
  %31 = call ptr @__cxa_begin_catch(ptr %exn.slot.5.i) #22
  invoke void @__cxa_end_catch()
          to label %land.lhs.true155.i unwind label %lpad35.i

land.lhs.true155.i:                               ; preds = %catch150.i, %invoke.cont147.i
  %call.i77.i = call noundef i64 @_ZNKSt7__cxx1112basic_stringIcSt11char_traitsIcESaIcEE4sizeEv(ptr noundef nonnull align 8 dereferenceable(32) %firstPartType.i) #22
  %call1.i78.i = call noundef i64 @_ZNKSt7__cxx1112basic_stringIcSt11char_traitsIcESaIcEE4sizeEv(ptr noundef nonnull align 8 dereferenceable(32) @_ZN7Imf_3_2L8DEEPTILEB5cxx11E) #22
  %cmp.i79.i = icmp eq i64 %call.i77.i, %call1.i78.i
  br i1 %cmp.i79.i, label %land.rhs.i80.i, label %if.end159.i

land.rhs.i80.i:                                   ; preds = %land.lhs.true155.i
  %call2.i81.i = call noundef ptr @_ZNKSt7__cxx1112basic_stringIcSt11char_traitsIcESaIcEE4dataEv(ptr noundef nonnull align 8 dereferenceable(32) %firstPartType.i) #22
  %call3.i82.i = call noundef ptr @_ZNKSt7__cxx1112basic_stringIcSt11char_traitsIcESaIcEE4dataEv(ptr noundef nonnull align 8 dereferenceable(32) @_ZN7Imf_3_2L8DEEPTILEB5cxx11E) #22
  %call4.i83.i = call noundef i64 @_ZNKSt7__cxx1112basic_stringIcSt11char_traitsIcESaIcEE4sizeEv(ptr noundef nonnull align 8 dereferenceable(32) %firstPartType.i) #22
  %cmp.i.i84.i = icmp eq i64 %call4.i83.i, 0
  br i1 %cmp.i.i84.i, label %_ZSteqIcEN9__gnu_cxx11__enable_ifIXsr9__is_charIT_EE7__valueEbE6__typeERKNSt7__cxx1112basic_stringIS2_St11char_traitsIS2_ESaIS2_EEESC_.exit87.thread.i, label %_ZSteqIcEN9__gnu_cxx11__enable_ifIXsr9__is_charIT_EE7__valueEbE6__typeERKNSt7__cxx1112basic_stringIS2_St11char_traitsIS2_ESaIS2_EEESC_.exit87.i

_ZSteqIcEN9__gnu_cxx11__enable_ifIXsr9__is_charIT_EE7__valueEbE6__typeERKNSt7__cxx1112basic_stringIS2_St11char_traitsIS2_ESaIS2_EEESC_.exit87.i: ; preds = %land.rhs.i80.i
  %bcmp.i86.i = call i32 @bcmp(ptr %call2.i81.i, ptr %call3.i82.i, i64 %call4.i83.i)
  %bcmp.i86.fr.i = freeze i32 %bcmp.i86.i
  %32 = icmp eq i32 %bcmp.i86.fr.i, 0
  br i1 %32, label %_ZSteqIcEN9__gnu_cxx11__enable_ifIXsr9__is_charIT_EE7__valueEbE6__typeERKNSt7__cxx1112basic_stringIS2_St11char_traitsIS2_ESaIS2_EEESC_.exit87.thread.i, label %if.end159.i

_ZSteqIcEN9__gnu_cxx11__enable_ifIXsr9__is_charIT_EE7__valueEbE6__typeERKNSt7__cxx1112basic_stringIS2_St11char_traitsIS2_ESaIS2_EEESC_.exit87.thread.i: ; preds = %_ZSteqIcEN9__gnu_cxx11__enable_ifIXsr9__is_charIT_EE7__valueEbE6__typeERKNSt7__cxx1112basic_stringIS2_St11char_traitsIS2_ESaIS2_EEESC_.exit87.i, %land.rhs.i80.i
  br label %if.end159.i

if.end159.i:                                      ; preds = %_ZSteqIcEN9__gnu_cxx11__enable_ifIXsr9__is_charIT_EE7__valueEbE6__typeERKNSt7__cxx1112basic_stringIS2_St11char_traitsIS2_ESaIS2_EEESC_.exit87.thread.i, %_ZSteqIcEN9__gnu_cxx11__enable_ifIXsr9__is_charIT_EE7__valueEbE6__typeERKNSt7__cxx1112basic_stringIS2_St11char_traitsIS2_ESaIS2_EEESC_.exit87.i, %land.lhs.true155.i, %invoke.cont147.i, %if.end80.i
  %threw.5.i = phi i8 [ %threw.4.ph.i, %invoke.cont147.i ], [ %threw.0.i, %if.end80.i ], [ 1, %_ZSteqIcEN9__gnu_cxx11__enable_ifIXsr9__is_charIT_EE7__valueEbE6__typeERKNSt7__cxx1112basic_stringIS2_St11char_traitsIS2_ESaIS2_EEESC_.exit87.thread.i ], [ %threw.4.ph.i, %_ZSteqIcEN9__gnu_cxx11__enable_ifIXsr9__is_charIT_EE7__valueEbE6__typeERKNSt7__cxx1112basic_stringIS2_St11char_traitsIS2_ESaIS2_EEESC_.exit87.i ], [ %threw.4.ph.i, %land.lhs.true155.i ]
  invoke void @_ZN7Imf_3_221CompositeDeepScanLine21setMaximumSampleCountEl(i64 noundef %call.i57)
          to label %invoke.cont160.i unwind label %lpad35.i

invoke.cont160.i:                                 ; preds = %if.end159.i
  %33 = load i32, ptr %maxImageWidth.i, align 4
  %34 = load i32, ptr %maxImageHeight.i, align 4
  invoke void @_ZN7Imf_3_26Header15setMaxImageSizeEii(i32 noundef %33, i32 noundef %34)
          to label %invoke.cont161.i unwind label %lpad35.i

invoke.cont161.i:                                 ; preds = %invoke.cont160.i
  %35 = load i32, ptr %maxTileWidth.i, align 4
  %36 = load i32, ptr %maxTileHeight.i, align 4
  invoke void @_ZN7Imf_3_26Header14setMaxTileSizeEii(i32 noundef %35, i32 noundef %36)
          to label %invoke.cont unwind label %lpad35.i

invoke.cont:                                      ; preds = %invoke.cont161.i
  %tobool163.i = icmp ne i8 %threw.5.i, 0
  call void @_ZNSt7__cxx1112basic_stringIcSt11char_traitsIcESaIcEED1Ev(ptr noundef nonnull align 8 dereferenceable(32) %firstPartType.i) #22
  call void @llvm.lifetime.end.p0(i64 4, ptr nonnull %maxImageWidth.i)
  call void @llvm.lifetime.end.p0(i64 4, ptr nonnull %maxImageHeight.i)
  call void @llvm.lifetime.end.p0(i64 4, ptr nonnull %maxTileWidth.i)
  call void @llvm.lifetime.end.p0(i64 4, ptr nonnull %maxTileHeight.i)
  call void @llvm.lifetime.end.p0(i64 32, ptr nonnull %firstPartType.i)
  call void @llvm.lifetime.end.p0(i64 16, ptr nonnull %multi.i)
  call void @llvm.lifetime.end.p0(i64 64, ptr nonnull %rgba.i)
  call void @llvm.lifetime.end.p0(i64 16, ptr nonnull %rgba60.i)
  call void @llvm.lifetime.end.p0(i64 16, ptr nonnull %rgba87.i)
  call void @llvm.lifetime.end.p0(i64 16, ptr nonnull %rgba112.i)
  call void @llvm.lifetime.end.p0(i64 16, ptr nonnull %rgba139.i)
  call void @_ZN7Imf_3_27IStreamD2Ev(ptr noundef nonnull align 8 dereferenceable(40) %stream) #22
  br label %return

lpad:                                             ; preds = %.noexc10, %.noexc9, %if.then.i, %.noexc, %call.i5.noexc, %if.else
  %37 = landingpad { ptr, i32 }
          cleanup
  br label %lpad.body

lpad.body:                                        ; preds = %lpad35.i, %lpad
  %eh.lpad-body = phi { ptr, i32 } [ %37, %lpad ], [ %10, %lpad35.i ]
  call void @_ZN7Imf_3_27IStreamD2Ev(ptr noundef nonnull align 8 dereferenceable(40) %stream) #22
  resume { ptr, i32 } %eh.lpad-body

return:                                           ; preds = %invoke.cont, %_ZN7Imf_3_212_GLOBAL__N_113runCoreChecksEPKcmbb.exit
  %retval.0 = phi i1 [ %retval.0.i, %_ZN7Imf_3_212_GLOBAL__N_113runCoreChecksEPKcmbb.exit ], [ %tobool163.i, %invoke.cont ]
  ret i1 %retval.0
}

; Function Attrs: mustprogress nounwind uwtable
define internal void @_ZN7Imf_3_212_GLOBAL__N_110PtrIStreamD2Ev(ptr noundef nonnull align 8 dereferenceable(64) %this) unnamed_addr #4 align 2 {
entry:
  tail call void @_ZN7Imf_3_27IStreamD2Ev(ptr noundef nonnull align 8 dereferenceable(40) %this) #22
  ret void
}

; Function Attrs: mustprogress nocallback nofree nounwind willreturn memory(argmem: write)
declare void @llvm.memset.p0.i64(ptr nocapture writeonly, i8, i64, i1 immarg) #5

; Function Attrs: mustprogress uwtable
define internal void @_ZN7Imf_3_212_GLOBAL__N_121core_error_handler_cbEPK19_priv_exr_context_tiPKc(ptr noundef %f, i32 noundef %code, ptr noundef %msg) #3 {
entry:
  %fn = alloca ptr, align 8
  %call = tail call ptr @getenv(ptr noundef nonnull @.str.8) #22
  %cmp.not = icmp eq ptr %call, null
  br i1 %cmp.not, label %if.end6, label %if.then

if.then:                                          ; preds = %entry
  %call1 = call i32 @exr_get_file_name(ptr noundef %f, ptr noundef nonnull %fn)
  %cmp2.not = icmp eq i32 %call1, 0
  br i1 %cmp2.not, label %if.then.if.end_crit_edge, label %if.then3

if.then.if.end_crit_edge:                         ; preds = %if.then
  %.pre = load ptr, ptr %fn, align 8
  br label %if.end

if.then3:                                         ; preds = %if.then
  store ptr @.str.9, ptr %fn, align 8
  br label %if.end

if.end:                                           ; preds = %if.then.if.end_crit_edge, %if.then3
  %0 = phi ptr [ %.pre, %if.then.if.end_crit_edge ], [ @.str.9, %if.then3 ]
  %1 = load ptr, ptr @stderr, align 8
  %call4 = call ptr @exr_get_error_code_as_string(i32 noundef %code)
  %call5 = call i32 (ptr, ptr, ...) @fprintf(ptr noundef %1, ptr noundef nonnull @.str.10, ptr noundef %0, ptr noundef %call4, ptr noundef %msg) #23
  br label %if.end6

if.end6:                                          ; preds = %if.end, %entry
  ret void
}

declare i32 @exr_start_read(ptr noundef, ptr noundef, ptr noundef) local_unnamed_addr #0

; Function Attrs: mustprogress uwtable
define internal fastcc noundef zeroext i1 @_ZN7Imf_3_212_GLOBAL__N_113checkCoreFileEP19_priv_exr_context_tbb(ptr noundef %f, i1 noundef zeroext %reduceMemory, i1 noundef zeroext %reduceTime) unnamed_addr #3 personality ptr @__gxx_personality_v0 {
entry:
  %datawin.i11 = alloca %struct.exr_attr_box2i_t, align 1
  %txsz.i = alloca i32, align 4
  %tysz.i = alloca i32, align 4
  %levelmode.i = alloca i32, align 4
  %roundingmode.i = alloca i32, align 4
  %levelsx.i = alloca i32, align 4
  %levelsy.i = alloca i32, align 4
  %levw.i = alloca i32, align 4
  %levh.i = alloca i32, align 4
  %curtw.i = alloca i32, align 4
  %curth.i = alloca i32, align 4
  %cinfo.i12 = alloca %struct.exr_chunk_info_t, align 8
  %decoder.i13 = alloca %struct._exr_decode_pipeline, align 8
  %datawin.i = alloca %struct.exr_attr_box2i_t, align 4
  %decoder.i = alloca %struct._exr_decode_pipeline, align 8
  %lines_per_chunk.i = alloca i32, align 4
  %cinfo.i = alloca %struct.exr_chunk_info_t, align 8
  %numparts = alloca i32, align 4
  %store = alloca i32, align 4
  %call = call i32 @exr_get_count(ptr noundef %f, ptr noundef nonnull %numparts)
  %cmp.not = icmp eq i32 %call, 0
  br i1 %cmp.not, label %for.cond.preheader, label %return

for.cond.preheader:                               ; preds = %entry
  %0 = load i32, ptr %numparts, align 4
  %cmp298 = icmp sgt i32 %0, 0
  br i1 %cmp298, label %for.body.lr.ph, label %return

for.body.lr.ph:                                   ; preds = %for.cond.preheader
  %channel_count.i18 = getelementptr inbounds i8, ptr %decoder.i13, i64 8
  %max.i = getelementptr inbounds i8, ptr %datawin.i, i64 8
  %y.i = getelementptr inbounds i8, ptr %datawin.i, i64 12
  %y7.i = getelementptr inbounds i8, ptr %datawin.i, i64 4
  %channel_count.i = getelementptr inbounds i8, ptr %decoder.i, i64 8
  br label %for.body

for.body:                                         ; preds = %for.body.lr.ph, %for.inc
  %p.099 = phi i32 [ 0, %for.body.lr.ph ], [ %inc, %for.inc ]
  %call3 = call i32 @exr_get_storage(ptr noundef %f, i32 noundef %p.099, ptr noundef nonnull %store)
  %cmp4.not = icmp eq i32 %call3, 0
  br i1 %cmp4.not, label %if.end6, label %return

if.end6:                                          ; preds = %for.body
  %1 = load i32, ptr %store, align 4
  %2 = and i32 %1, -2
  %or.cond = icmp eq i32 %2, 2
  br i1 %or.cond, label %for.inc, label %if.end10

if.end10:                                         ; preds = %if.end6
  switch i32 %1, label %for.inc [
    i32 0, label %if.then12
    i32 1, label %if.then18
  ]

if.then12:                                        ; preds = %if.end10
  call void @llvm.lifetime.start.p0(i64 16, ptr nonnull %datawin.i)
  call void @llvm.lifetime.start.p0(i64 480, ptr nonnull %decoder.i)
  call void @llvm.lifetime.start.p0(i64 4, ptr nonnull %lines_per_chunk.i)
  call void @llvm.lifetime.start.p0(i64 64, ptr nonnull %cinfo.i)
  %call.i = call i32 @exr_get_data_window(ptr noundef %f, i32 noundef %p.099, ptr noundef nonnull %datawin.i)
  %cmp.not.i = icmp eq i32 %call.i, 0
  br i1 %cmp.not.i, label %if.end.i, label %_ZN7Imf_3_212_GLOBAL__N_120readCoreScanlinePartEP19_priv_exr_context_tibb.exit.thread

if.end.i:                                         ; preds = %if.then12
  %3 = load i32, ptr %max.i, align 4
  %conv.i = sext i32 %3 to i64
  %4 = load i32, ptr %datawin.i, align 4
  %conv3.i = sext i32 %4 to i64
  %sub.i = sub nsw i64 %conv.i, %conv3.i
  %add.i = add nsw i64 %sub.i, 1
  %5 = load i32, ptr %y.i, align 4
  %conv5.i = sext i32 %5 to i64
  %6 = load i32, ptr %y7.i, align 4
  %conv8.i = sext i32 %6 to i64
  %sub9.i = add nsw i64 %conv5.i, 1
  %add10.i = sub nsw i64 %sub9.i, %conv8.i
  call void @llvm.memset.p0.i64(ptr noundef nonnull align 8 dereferenceable(480) %decoder.i, i8 0, i64 480, i1 false)
  %call11.i = call i32 @exr_get_scanlines_per_chunk(ptr noundef %f, i32 noundef %p.099, ptr noundef nonnull %lines_per_chunk.i)
  %cmp12.not.i = icmp eq i32 %call11.i, 0
  br i1 %cmp12.not.i, label %for.cond.preheader.i, label %_ZN7Imf_3_212_GLOBAL__N_120readCoreScanlinePartEP19_priv_exr_context_tibb.exit.thread

for.cond.preheader.i:                             ; preds = %if.end.i
  %cmp1584.not.i = icmp eq i64 %sub9.i, %conv8.i
  br i1 %cmp1584.not.i, label %for.end113.i, label %for.body.i

lpad.loopexit.i:                                  ; preds = %for.end100.i, %if.else.i, %if.end57.i, %_ZNSt16allocator_traitsISaIhEE8allocateERS0_m.exit.i.i.i, %if.then29.i, %for.body.i
  %imgdata.sroa.0.0.ph.i = phi ptr [ %imgdata.sroa.0.185.i, %for.body.i ], [ %imgdata.sroa.0.185.i, %if.else.i ], [ %imgdata.sroa.0.185.i, %if.then29.i ], [ %imgdata.sroa.0.185.i, %_ZNSt16allocator_traitsISaIhEE8allocateERS0_m.exit.i.i.i ], [ %imgdata.sroa.0.4.i, %if.end57.i ], [ %imgdata.sroa.0.5.i, %for.end100.i ]
  %lpad.loopexit72.i = landingpad { ptr, i32 }
          cleanup
  br label %lpad.i

lpad.loopexit.split-lp.i.loopexit:                ; preds = %for.end113.i
  %lpad.loopexit = landingpad { ptr, i32 }
          cleanup
  br label %lpad.i

lpad.loopexit.split-lp.i.loopexit.split-lp:       ; preds = %if.then.i.i.i
  %lpad.loopexit.split-lp = landingpad { ptr, i32 }
          cleanup
  br label %lpad.i

lpad.i:                                           ; preds = %lpad.loopexit.split-lp.i.loopexit, %lpad.loopexit.split-lp.i.loopexit.split-lp, %lpad.loopexit.i
  %imgdata.sroa.0.0.i = phi ptr [ %imgdata.sroa.0.0.ph.i, %lpad.loopexit.i ], [ %imgdata.sroa.0.7.i, %lpad.loopexit.split-lp.i.loopexit ], [ %imgdata.sroa.0.185.i, %lpad.loopexit.split-lp.i.loopexit.split-lp ]
  %lpad.phi.i = phi { ptr, i32 } [ %lpad.loopexit72.i, %lpad.loopexit.i ], [ %lpad.loopexit, %lpad.loopexit.split-lp.i.loopexit ], [ %lpad.loopexit.split-lp, %lpad.loopexit.split-lp.i.loopexit.split-lp ]
  %tobool.not.i.i.i.i = icmp eq ptr %imgdata.sroa.0.0.i, null
  br i1 %tobool.not.i.i.i.i, label %common.resume, label %common.resume.sink.split

common.resume.sink.split:                         ; preds = %lpad.i, %lpad.i19
  %tiledata.sroa.0.4.i.sink = phi ptr [ %tiledata.sroa.0.4.i, %lpad.i19 ], [ %imgdata.sroa.0.0.i, %lpad.i ]
  %common.resume.op.ph = phi { ptr, i32 } [ %lpad.phi.i20, %lpad.i19 ], [ %lpad.phi.i, %lpad.i ]
  call void @_ZdlPv(ptr noundef nonnull %tiledata.sroa.0.4.i.sink) #24
  br label %common.resume

common.resume:                                    ; preds = %common.resume.sink.split, %lpad.i19, %lpad.i
  %common.resume.op = phi { ptr, i32 } [ %lpad.phi.i, %lpad.i ], [ %lpad.phi.i20, %lpad.i19 ], [ %common.resume.op.ph, %common.resume.sink.split ]
  resume { ptr, i32 } %common.resume.op

for.body.i:                                       ; preds = %for.cond.preheader.i, %for.inc110.i
  %doread.089.i = phi i8 [ %doread.2.i, %for.inc110.i ], [ 0, %for.cond.preheader.i ]
  %chunk.088.i = phi i64 [ %add112.i, %for.inc110.i ], [ 0, %for.cond.preheader.i ]
  %imgdata.sroa.12.087.i = phi ptr [ %imgdata.sroa.12.5.i, %for.inc110.i ], [ null, %for.cond.preheader.i ]
  %imgdata.sroa.7.086.i = phi ptr [ %imgdata.sroa.7.5.i, %for.inc110.i ], [ null, %for.cond.preheader.i ]
  %imgdata.sroa.0.185.i = phi ptr [ %imgdata.sroa.0.6.i, %for.inc110.i ], [ null, %for.cond.preheader.i ]
  call void @llvm.memset.p0.i64(ptr noundef nonnull align 8 dereferenceable(64) %cinfo.i, i8 0, i64 64, i1 false)
  %conv17.i = trunc i64 %chunk.088.i to i32
  %7 = load i32, ptr %y7.i, align 4
  %add20.i = add nsw i32 %7, %conv17.i
  %call22.i = invoke i32 @exr_read_scanline_chunk_info(ptr noundef %f, i32 noundef %p.099, i32 noundef %add20.i, ptr noundef nonnull %cinfo.i)
          to label %invoke.cont21.i unwind label %lpad.loopexit.i

invoke.cont21.i:                                  ; preds = %for.body.i
  %cmp23.not.i = icmp eq i32 %call22.i, 0
  br i1 %cmp23.not.i, label %if.end27.i, label %if.then24.i

if.then24.i:                                      ; preds = %invoke.cont21.i
  br i1 %reduceTime, label %for.end113.loopexit.i, label %for.inc110.i

if.end27.i:                                       ; preds = %invoke.cont21.i
  %8 = load ptr, ptr %decoder.i, align 8
  %cmp28.i = icmp eq ptr %8, null
  br i1 %cmp28.i, label %if.then29.i, label %if.else.i

if.then29.i:                                      ; preds = %if.end27.i
  %call31.i = invoke i32 @exr_decoding_initialize(ptr noundef %f, i32 noundef %p.099, ptr noundef nonnull %cinfo.i, ptr noundef nonnull %decoder.i)
          to label %invoke.cont30.i unwind label %lpad.loopexit.i

invoke.cont30.i:                                  ; preds = %if.then29.i
  %cmp32.not.i = icmp eq i32 %call31.i, 0
  br i1 %cmp32.not.i, label %for.cond35.preheader.i, label %for.end113.loopexit.i

for.cond35.preheader.i:                           ; preds = %invoke.cont30.i
  %9 = load i16, ptr %channel_count.i, align 8
  %cmp3777.i = icmp sgt i16 %9, 0
  br i1 %cmp3777.i, label %for.body38.i, label %if.then55.thread.i

if.then55.thread.i:                               ; preds = %for.cond35.preheader.i
  %sub.ptr.lhs.cast.i.i117.i = ptrtoint ptr %imgdata.sroa.7.086.i to i64
  %sub.ptr.rhs.cast.i.i118.i = ptrtoint ptr %imgdata.sroa.0.185.i to i64
  %sub.ptr.sub.i.i119.i = sub i64 %sub.ptr.lhs.cast.i.i117.i, %sub.ptr.rhs.cast.i.i118.i
  br label %if.else.i.i

for.body38.i:                                     ; preds = %for.cond35.preheader.i, %for.body38.i
  %indvars.iv.i = phi i64 [ %indvars.iv.next.i, %for.body38.i ], [ 0, %for.cond35.preheader.i ]
  %bytes.078.i = phi i64 [ %add49.i, %for.body38.i ], [ 0, %for.cond35.preheader.i ]
  %10 = load ptr, ptr %decoder.i, align 8
  %arrayidx.i = getelementptr inbounds %struct.exr_coding_channel_info_t, ptr %10, i64 %indvars.iv.i
  %11 = getelementptr inbounds i8, ptr %arrayidx.i, i64 40
  store ptr inttoptr (i64 4096 to ptr), ptr %11, align 8
  %user_bytes_per_element.i = getelementptr inbounds i8, ptr %arrayidx.i, i64 28
  %12 = load i16, ptr %user_bytes_per_element.i, align 4
  %conv40.i = sext i16 %12 to i32
  %user_pixel_stride.i = getelementptr inbounds i8, ptr %arrayidx.i, i64 32
  store i32 %conv40.i, ptr %user_pixel_stride.i, align 8
  %conv42.i = sext i16 %12 to i64
  %mul.i = mul nsw i64 %add.i, %conv42.i
  %conv43.i = trunc i64 %mul.i to i32
  %user_line_stride.i = getelementptr inbounds i8, ptr %arrayidx.i, i64 36
  store i32 %conv43.i, ptr %user_line_stride.i, align 4
  %13 = load i32, ptr %lines_per_chunk.i, align 4
  %conv47.i = sext i32 %13 to i64
  %mul48.i = mul i64 %mul.i, %conv47.i
  %add49.i = add i64 %mul48.i, %bytes.078.i
  %indvars.iv.next.i = add nuw nsw i64 %indvars.iv.i, 1
  %14 = load i16, ptr %channel_count.i, align 8
  %15 = sext i16 %14 to i64
  %cmp37.i = icmp slt i64 %indvars.iv.next.i, %15
  br i1 %cmp37.i, label %for.body38.i, label %for.end.i, !llvm.loop !4

for.end.i:                                        ; preds = %for.body38.i
  %cmp51.i = icmp ugt i64 %add49.i, 7999999
  %or.cond.not.i = select i1 %reduceMemory, i1 %cmp51.i, i1 false
  br i1 %or.cond.not.i, label %if.end57.i, label %if.then55.i

if.then55.i:                                      ; preds = %for.end.i
  %sub.ptr.lhs.cast.i.i.i = ptrtoint ptr %imgdata.sroa.7.086.i to i64
  %sub.ptr.rhs.cast.i.i.i = ptrtoint ptr %imgdata.sroa.0.185.i to i64
  %sub.ptr.sub.i.i.i = sub i64 %sub.ptr.lhs.cast.i.i.i, %sub.ptr.rhs.cast.i.i.i
  %cmp.i.i = icmp ult i64 %sub.ptr.sub.i.i.i, %add49.i
  br i1 %cmp.i.i, label %if.then.i.i, label %if.else.i.i

if.then.i.i:                                      ; preds = %if.then55.i
  %sub.i.i = sub i64 %add49.i, %sub.ptr.sub.i.i.i
  %sub.ptr.lhs.cast.i.i = ptrtoint ptr %imgdata.sroa.12.087.i to i64
  %sub.ptr.sub.i.i = sub i64 %sub.ptr.lhs.cast.i.i, %sub.ptr.lhs.cast.i.i.i
  %cmp4.i54.i = icmp sgt i64 %sub.ptr.sub.i.i.i, -1
  call void @llvm.assume(i1 %cmp4.i54.i)
  %sub.i55.i = xor i64 %sub.ptr.sub.i.i.i, 9223372036854775807
  %cmp6.i.i = icmp ule i64 %sub.ptr.sub.i.i, %sub.i55.i
  call void @llvm.assume(i1 %cmp6.i.i)
  %cmp8.not.i.i = icmp ult i64 %sub.ptr.sub.i.i, %sub.i.i
  br i1 %cmp8.not.i.i, label %if.else.i56.i, label %if.then.i.i.i.i.i

if.then.i.i.i.i.i:                                ; preds = %if.then.i.i
  store i8 0, ptr %imgdata.sroa.7.086.i, align 1
  %incdec.ptr.i.i.i.i.i = getelementptr inbounds i8, ptr %imgdata.sroa.7.086.i, i64 1
  %sub.i.i.i.i.i = add i64 %sub.i.i, -1
  %cmp.i.i.i.i.i.i.i = icmp eq i64 %sub.i.i.i.i.i, 0
  br i1 %cmp.i.i.i.i.i.i.i, label %if.end57.i, label %if.then.i.i.i.i.i.i.i.i.i

if.then.i.i.i.i.i.i.i.i.i:                        ; preds = %if.then.i.i.i.i.i
  %add.ptr.i.i.i.i.i.i.i = getelementptr inbounds i8, ptr %imgdata.sroa.7.086.i, i64 %sub.i.i
  call void @llvm.memset.p0.i64(ptr nonnull align 1 %incdec.ptr.i.i.i.i.i, i8 0, i64 %sub.i.i.i.i.i, i1 false)
  br label %if.end57.i

if.else.i56.i:                                    ; preds = %if.then.i.i
  %cmp.i.i.i = icmp ult i64 %sub.i55.i, %sub.i.i
  br i1 %cmp.i.i.i, label %if.then.i.i.i, label %_ZNKSt6vectorIhSaIhEE12_M_check_lenEmPKc.exit.i.i

if.then.i.i.i:                                    ; preds = %if.else.i56.i
  invoke void @_ZSt20__throw_length_errorPKc(ptr noundef nonnull @.str.11) #25
          to label %.noexc58.i unwind label %lpad.loopexit.split-lp.i.loopexit.split-lp

.noexc58.i:                                       ; preds = %if.then.i.i.i
  unreachable

_ZNKSt6vectorIhSaIhEE12_M_check_lenEmPKc.exit.i.i: ; preds = %if.else.i56.i
  %.sroa.speculated.i.i.i = call i64 @llvm.umax.i64(i64 %sub.ptr.sub.i.i.i, i64 %sub.i.i)
  %add.i.i.i = add i64 %.sroa.speculated.i.i.i, %sub.ptr.sub.i.i.i
  %cmp7.i.i.i = icmp ult i64 %add.i.i.i, %sub.ptr.sub.i.i.i
  %cmp9.i.i.i = icmp slt i64 %add.i.i.i, 0
  %or.cond.i.i.i = or i1 %cmp7.i.i.i, %cmp9.i.i.i
  %cond.i.i.i = select i1 %or.cond.i.i.i, i64 9223372036854775807, i64 %add.i.i.i
  %cmp.not.i.i.i = icmp eq i64 %cond.i.i.i, 0
  br i1 %cmp.not.i.i.i, label %if.then.i.i.i21.i.i, label %_ZNSt16allocator_traitsISaIhEE8allocateERS0_m.exit.i.i.i

_ZNSt16allocator_traitsISaIhEE8allocateERS0_m.exit.i.i.i: ; preds = %_ZNKSt6vectorIhSaIhEE12_M_check_lenEmPKc.exit.i.i
  %call5.i.i.i.i59.i = invoke noalias noundef nonnull ptr @_Znwm(i64 noundef %cond.i.i.i) #26
          to label %if.then.i.i.i21.i.i unwind label %lpad.loopexit.i

if.then.i.i.i21.i.i:                              ; preds = %_ZNSt16allocator_traitsISaIhEE8allocateERS0_m.exit.i.i.i, %_ZNKSt6vectorIhSaIhEE12_M_check_lenEmPKc.exit.i.i
  %cond.i19.i.i = phi ptr [ null, %_ZNKSt6vectorIhSaIhEE12_M_check_lenEmPKc.exit.i.i ], [ %call5.i.i.i.i59.i, %_ZNSt16allocator_traitsISaIhEE8allocateERS0_m.exit.i.i.i ]
  %add.ptr.i57.i = getelementptr inbounds i8, ptr %cond.i19.i.i, i64 %sub.ptr.sub.i.i.i
  store i8 0, ptr %add.ptr.i57.i, align 1
  %sub.i.i.i23.i.i = add i64 %sub.i.i, -1
  %cmp.i.i.i.i.i24.i.i = icmp eq i64 %sub.i.i.i23.i.i, 0
  br i1 %cmp.i.i.i.i.i24.i.i, label %try.cont.i.i, label %if.then.i.i.i.i.i.i.i25.i.i

if.then.i.i.i.i.i.i.i25.i.i:                      ; preds = %if.then.i.i.i21.i.i
  %incdec.ptr.i.i.i22.i.i = getelementptr inbounds i8, ptr %add.ptr.i57.i, i64 1
  call void @llvm.memset.p0.i64(ptr nonnull align 1 %incdec.ptr.i.i.i22.i.i, i8 0, i64 %sub.i.i.i23.i.i, i1 false)
  br label %try.cont.i.i

try.cont.i.i:                                     ; preds = %if.then.i.i.i.i.i.i.i25.i.i, %if.then.i.i.i21.i.i
  %cmp.i.i.i30.not.i.i = icmp eq ptr %imgdata.sroa.7.086.i, %imgdata.sroa.0.185.i
  br i1 %cmp.i.i.i30.not.i.i, label %_ZNSt6vectorIhSaIhEE11_S_relocateEPhS2_S2_RS0_.exit.i.i, label %if.then.i.i.i31.i.i

if.then.i.i.i31.i.i:                              ; preds = %try.cont.i.i
  call void @llvm.memmove.p0.p0.i64(ptr nonnull align 1 %cond.i19.i.i, ptr align 1 %imgdata.sroa.0.185.i, i64 %sub.ptr.sub.i.i.i, i1 false)
  br label %_ZNSt6vectorIhSaIhEE11_S_relocateEPhS2_S2_RS0_.exit.i.i

_ZNSt6vectorIhSaIhEE11_S_relocateEPhS2_S2_RS0_.exit.i.i: ; preds = %if.then.i.i.i31.i.i, %try.cont.i.i
  %tobool.not.i32.i.i = icmp eq ptr %imgdata.sroa.0.185.i, null
  br i1 %tobool.not.i32.i.i, label %_ZNSt12_Vector_baseIhSaIhEE13_M_deallocateEPhm.exit34.i.i, label %if.then.i33.i.i

if.then.i33.i.i:                                  ; preds = %_ZNSt6vectorIhSaIhEE11_S_relocateEPhS2_S2_RS0_.exit.i.i
  call void @_ZdlPv(ptr noundef nonnull %imgdata.sroa.0.185.i) #24
  br label %_ZNSt12_Vector_baseIhSaIhEE13_M_deallocateEPhm.exit34.i.i

_ZNSt12_Vector_baseIhSaIhEE13_M_deallocateEPhm.exit34.i.i: ; preds = %if.then.i33.i.i, %_ZNSt6vectorIhSaIhEE11_S_relocateEPhS2_S2_RS0_.exit.i.i
  %add.ptr36.i.i = getelementptr inbounds i8, ptr %cond.i19.i.i, i64 %add49.i
  %add.ptr39.i.i = getelementptr inbounds i8, ptr %cond.i19.i.i, i64 %cond.i.i.i
  br label %if.end57.i

if.else.i.i:                                      ; preds = %if.then55.i, %if.then55.thread.i
  %sub.ptr.sub.i.i123.i = phi i64 [ %sub.ptr.sub.i.i119.i, %if.then55.thread.i ], [ %sub.ptr.sub.i.i.i, %if.then55.i ]
  %bytes.0.lcssa112122.i = phi i64 [ 0, %if.then55.thread.i ], [ %add49.i, %if.then55.i ]
  %cmp4.i.i = icmp ugt i64 %sub.ptr.sub.i.i123.i, %bytes.0.lcssa112122.i
  %add.ptr.i.i = getelementptr inbounds i8, ptr %imgdata.sroa.0.185.i, i64 %bytes.0.lcssa112122.i
  %spec.select.i = select i1 %cmp4.i.i, ptr %add.ptr.i.i, ptr %imgdata.sroa.7.086.i
  br label %if.end57.i

if.end57.i:                                       ; preds = %if.else.i.i, %_ZNSt12_Vector_baseIhSaIhEE13_M_deallocateEPhm.exit34.i.i, %if.then.i.i.i.i.i.i.i.i.i, %if.then.i.i.i.i.i, %for.end.i
  %spec.store.select113.i = phi i8 [ 0, %for.end.i ], [ 1, %_ZNSt12_Vector_baseIhSaIhEE13_M_deallocateEPhm.exit34.i.i ], [ 1, %if.then.i.i.i.i.i.i.i.i.i ], [ 1, %if.then.i.i.i.i.i ], [ 1, %if.else.i.i ]
  %imgdata.sroa.0.4.i = phi ptr [ %imgdata.sroa.0.185.i, %for.end.i ], [ %cond.i19.i.i, %_ZNSt12_Vector_baseIhSaIhEE13_M_deallocateEPhm.exit34.i.i ], [ %imgdata.sroa.0.185.i, %if.then.i.i.i.i.i.i.i.i.i ], [ %imgdata.sroa.0.185.i, %if.then.i.i.i.i.i ], [ %imgdata.sroa.0.185.i, %if.else.i.i ]
  %imgdata.sroa.7.3.i = phi ptr [ %imgdata.sroa.7.086.i, %for.end.i ], [ %add.ptr36.i.i, %_ZNSt12_Vector_baseIhSaIhEE13_M_deallocateEPhm.exit34.i.i ], [ %add.ptr.i.i.i.i.i.i.i, %if.then.i.i.i.i.i.i.i.i.i ], [ %incdec.ptr.i.i.i.i.i, %if.then.i.i.i.i.i ], [ %spec.select.i, %if.else.i.i ]
  %imgdata.sroa.12.3.i = phi ptr [ %imgdata.sroa.12.087.i, %for.end.i ], [ %add.ptr39.i.i, %_ZNSt12_Vector_baseIhSaIhEE13_M_deallocateEPhm.exit34.i.i ], [ %imgdata.sroa.12.087.i, %if.then.i.i.i.i.i.i.i.i.i ], [ %imgdata.sroa.12.087.i, %if.then.i.i.i.i.i ], [ %imgdata.sroa.12.087.i, %if.else.i.i ]
  %call59.i = invoke i32 @exr_decoding_choose_default_routines(ptr noundef %f, i32 noundef %p.099, ptr noundef nonnull %decoder.i)
          to label %invoke.cont58.i unwind label %lpad.loopexit.i

invoke.cont58.i:                                  ; preds = %if.end57.i
  %cmp60.not.i = icmp eq i32 %call59.i, 0
  br i1 %cmp60.not.i, label %if.end71.i, label %for.end113.loopexit.i

if.else.i:                                        ; preds = %if.end27.i
  %call64.i = invoke i32 @exr_decoding_update(ptr noundef %f, i32 noundef %p.099, ptr noundef nonnull %cinfo.i, ptr noundef nonnull %decoder.i)
          to label %invoke.cont63.i unwind label %lpad.loopexit.i

invoke.cont63.i:                                  ; preds = %if.else.i
  %cmp65.not.i = icmp eq i32 %call64.i, 0
  br i1 %cmp65.not.i, label %if.end71.i, label %if.then66.i

if.then66.i:                                      ; preds = %invoke.cont63.i
  br i1 %reduceTime, label %for.end113.loopexit.i, label %for.inc110.i

if.end71.i:                                       ; preds = %invoke.cont63.i, %invoke.cont58.i
  %imgdata.sroa.0.5.i = phi ptr [ %imgdata.sroa.0.4.i, %invoke.cont58.i ], [ %imgdata.sroa.0.185.i, %invoke.cont63.i ]
  %imgdata.sroa.7.4.i = phi ptr [ %imgdata.sroa.7.3.i, %invoke.cont58.i ], [ %imgdata.sroa.7.086.i, %invoke.cont63.i ]
  %imgdata.sroa.12.4.i = phi ptr [ %imgdata.sroa.12.3.i, %invoke.cont58.i ], [ %imgdata.sroa.12.087.i, %invoke.cont63.i ]
  %doread.1.i = phi i8 [ %spec.store.select113.i, %invoke.cont58.i ], [ %doread.089.i, %invoke.cont63.i ]
  %16 = and i8 %doread.1.i, 1
  %tobool72.not.i = icmp eq i8 %16, 0
  br i1 %tobool72.not.i, label %for.inc110.i, label %for.cond76.preheader.i

for.cond76.preheader.i:                           ; preds = %if.end71.i
  %17 = load i16, ptr %channel_count.i, align 8
  %cmp7981.i = icmp sgt i16 %17, 0
  br i1 %cmp7981.i, label %for.body80.i, label %for.end100.i

for.body80.i:                                     ; preds = %for.cond76.preheader.i, %for.body80.i
  %indvars.iv105.i = phi i64 [ %indvars.iv.next106.i, %for.body80.i ], [ 0, %for.cond76.preheader.i ]
  %dptr.082.i = phi ptr [ %add.ptr.i, %for.body80.i ], [ %imgdata.sroa.0.5.i, %for.cond76.preheader.i ]
  %18 = load ptr, ptr %decoder.i, align 8
  %arrayidx84.i = getelementptr inbounds %struct.exr_coding_channel_info_t, ptr %18, i64 %indvars.iv105.i
  %19 = getelementptr inbounds i8, ptr %arrayidx84.i, i64 40
  store ptr %dptr.082.i, ptr %19, align 8
  %user_bytes_per_element85.i = getelementptr inbounds i8, ptr %arrayidx84.i, i64 28
  %20 = load i16, ptr %user_bytes_per_element85.i, align 4
  %conv86.i = sext i16 %20 to i32
  %user_pixel_stride87.i = getelementptr inbounds i8, ptr %arrayidx84.i, i64 32
  store i32 %conv86.i, ptr %user_pixel_stride87.i, align 8
  %conv89.i = sext i16 %20 to i64
  %mul90.i = mul nsw i64 %add.i, %conv89.i
  %conv91.i = trunc i64 %mul90.i to i32
  %user_line_stride92.i = getelementptr inbounds i8, ptr %arrayidx84.i, i64 36
  store i32 %conv91.i, ptr %user_line_stride92.i, align 4
  %21 = load i32, ptr %lines_per_chunk.i, align 4
  %conv96.i = sext i32 %21 to i64
  %mul97.i = mul i64 %mul90.i, %conv96.i
  %add.ptr.i = getelementptr inbounds i8, ptr %dptr.082.i, i64 %mul97.i
  %indvars.iv.next106.i = add nuw nsw i64 %indvars.iv105.i, 1
  %22 = load i16, ptr %channel_count.i, align 8
  %23 = sext i16 %22 to i64
  %cmp79.i = icmp slt i64 %indvars.iv.next106.i, %23
  br i1 %cmp79.i, label %for.body80.i, label %for.end100.i, !llvm.loop !6

for.end100.i:                                     ; preds = %for.body80.i, %for.cond76.preheader.i
  %call102.i = invoke i32 @exr_decoding_run(ptr noundef %f, i32 noundef %p.099, ptr noundef nonnull %decoder.i)
          to label %invoke.cont101.i unwind label %lpad.loopexit.i

invoke.cont101.i:                                 ; preds = %for.end100.i
  %cmp103.not.i = icmp ne i32 %call102.i, 0
  %brmerge.not.i = and i1 %cmp103.not.i, %reduceTime
  br i1 %brmerge.not.i, label %for.end113.loopexit.i, label %for.inc110.i

for.inc110.i:                                     ; preds = %invoke.cont101.i, %if.end71.i, %if.then66.i, %if.then24.i
  %imgdata.sroa.0.6.i = phi ptr [ %imgdata.sroa.0.5.i, %if.end71.i ], [ %imgdata.sroa.0.5.i, %invoke.cont101.i ], [ %imgdata.sroa.0.185.i, %if.then66.i ], [ %imgdata.sroa.0.185.i, %if.then24.i ]
  %imgdata.sroa.7.5.i = phi ptr [ %imgdata.sroa.7.4.i, %if.end71.i ], [ %imgdata.sroa.7.4.i, %invoke.cont101.i ], [ %imgdata.sroa.7.086.i, %if.then66.i ], [ %imgdata.sroa.7.086.i, %if.then24.i ]
  %imgdata.sroa.12.5.i = phi ptr [ %imgdata.sroa.12.4.i, %if.end71.i ], [ %imgdata.sroa.12.4.i, %invoke.cont101.i ], [ %imgdata.sroa.12.087.i, %if.then66.i ], [ %imgdata.sroa.12.087.i, %if.then24.i ]
  %doread.2.i = phi i8 [ %doread.1.i, %if.end71.i ], [ %doread.1.i, %invoke.cont101.i ], [ %doread.089.i, %if.then66.i ], [ %doread.089.i, %if.then24.i ]
  %rv.2.i = phi i32 [ 0, %if.end71.i ], [ %call102.i, %invoke.cont101.i ], [ %call64.i, %if.then66.i ], [ %call22.i, %if.then24.i ]
  %24 = load i32, ptr %lines_per_chunk.i, align 4
  %conv111.i = sext i32 %24 to i64
  %add112.i = add i64 %chunk.088.i, %conv111.i
  %cmp15.i = icmp ult i64 %add112.i, %add10.i
  br i1 %cmp15.i, label %for.body.i, label %for.end113.loopexit.i, !llvm.loop !7

for.end113.loopexit.i:                            ; preds = %for.inc110.i, %invoke.cont101.i, %if.then66.i, %invoke.cont58.i, %invoke.cont30.i, %if.then24.i
  %imgdata.sroa.0.7.ph.i = phi ptr [ %imgdata.sroa.0.6.i, %for.inc110.i ], [ %imgdata.sroa.0.185.i, %if.then24.i ], [ %imgdata.sroa.0.185.i, %invoke.cont30.i ], [ %imgdata.sroa.0.4.i, %invoke.cont58.i ], [ %imgdata.sroa.0.185.i, %if.then66.i ], [ %imgdata.sroa.0.5.i, %invoke.cont101.i ]
  %rv.3.ph.i = phi i32 [ %rv.2.i, %for.inc110.i ], [ 1, %if.then24.i ], [ %call31.i, %invoke.cont30.i ], [ %call59.i, %invoke.cont58.i ], [ 1, %if.then66.i ], [ 1, %invoke.cont101.i ]
  %25 = icmp ne i32 %rv.3.ph.i, 0
  br label %for.end113.i

for.end113.i:                                     ; preds = %for.end113.loopexit.i, %for.cond.preheader.i
  %imgdata.sroa.0.7.i = phi ptr [ null, %for.cond.preheader.i ], [ %imgdata.sroa.0.7.ph.i, %for.end113.loopexit.i ]
  %rv.3.i = phi i1 [ false, %for.cond.preheader.i ], [ %25, %for.end113.loopexit.i ]
  %call115.i = invoke i32 @exr_decoding_destroy(ptr noundef %f, ptr noundef nonnull %decoder.i)
          to label %cleanup.i unwind label %lpad.loopexit.split-lp.i.loopexit

cleanup.i:                                        ; preds = %for.end113.i
  %tobool.not.i.i.i46.i = icmp eq ptr %imgdata.sroa.0.7.i, null
  br i1 %tobool.not.i.i.i46.i, label %_ZN7Imf_3_212_GLOBAL__N_120readCoreScanlinePartEP19_priv_exr_context_tibb.exit, label %if.then.i.i.i47.i

if.then.i.i.i47.i:                                ; preds = %cleanup.i
  call void @_ZdlPv(ptr noundef nonnull %imgdata.sroa.0.7.i) #24
  call void @llvm.lifetime.end.p0(i64 16, ptr nonnull %datawin.i)
  call void @llvm.lifetime.end.p0(i64 480, ptr nonnull %decoder.i)
  call void @llvm.lifetime.end.p0(i64 4, ptr nonnull %lines_per_chunk.i)
  call void @llvm.lifetime.end.p0(i64 64, ptr nonnull %cinfo.i)
  br i1 %rv.3.i, label %return, label %for.inc

_ZN7Imf_3_212_GLOBAL__N_120readCoreScanlinePartEP19_priv_exr_context_tibb.exit.thread: ; preds = %if.then12, %if.end.i
  call void @llvm.lifetime.end.p0(i64 16, ptr nonnull %datawin.i)
  call void @llvm.lifetime.end.p0(i64 480, ptr nonnull %decoder.i)
  call void @llvm.lifetime.end.p0(i64 4, ptr nonnull %lines_per_chunk.i)
  call void @llvm.lifetime.end.p0(i64 64, ptr nonnull %cinfo.i)
  br label %return

_ZN7Imf_3_212_GLOBAL__N_120readCoreScanlinePartEP19_priv_exr_context_tibb.exit: ; preds = %cleanup.i
  call void @llvm.lifetime.end.p0(i64 16, ptr nonnull %datawin.i)
  call void @llvm.lifetime.end.p0(i64 480, ptr nonnull %decoder.i)
  call void @llvm.lifetime.end.p0(i64 4, ptr nonnull %lines_per_chunk.i)
  call void @llvm.lifetime.end.p0(i64 64, ptr nonnull %cinfo.i)
  br i1 %rv.3.i, label %return, label %for.inc

if.then18:                                        ; preds = %if.end10
  call void @llvm.lifetime.start.p0(i64 16, ptr nonnull %datawin.i11)
  call void @llvm.lifetime.start.p0(i64 4, ptr nonnull %txsz.i)
  call void @llvm.lifetime.start.p0(i64 4, ptr nonnull %tysz.i)
  call void @llvm.lifetime.start.p0(i64 4, ptr nonnull %levelmode.i)
  call void @llvm.lifetime.start.p0(i64 4, ptr nonnull %roundingmode.i)
  call void @llvm.lifetime.start.p0(i64 4, ptr nonnull %levelsx.i)
  call void @llvm.lifetime.start.p0(i64 4, ptr nonnull %levelsy.i)
  call void @llvm.lifetime.start.p0(i64 4, ptr nonnull %levw.i)
  call void @llvm.lifetime.start.p0(i64 4, ptr nonnull %levh.i)
  call void @llvm.lifetime.start.p0(i64 4, ptr nonnull %curtw.i)
  call void @llvm.lifetime.start.p0(i64 4, ptr nonnull %curth.i)
  call void @llvm.lifetime.start.p0(i64 64, ptr nonnull %cinfo.i12)
  call void @llvm.lifetime.start.p0(i64 480, ptr nonnull %decoder.i13)
  %call.i14 = call i32 @exr_get_data_window(ptr noundef %f, i32 noundef %p.099, ptr noundef nonnull %datawin.i11)
  %cmp.not.i15 = icmp eq i32 %call.i14, 0
  br i1 %cmp.not.i15, label %if.end.i16, label %_ZN7Imf_3_212_GLOBAL__N_117readCoreTiledPartEP19_priv_exr_context_tibb.exit.thread

if.end.i16:                                       ; preds = %if.then18
  %call2.i = call i32 @exr_get_tile_descriptor(ptr noundef %f, i32 noundef %p.099, ptr noundef nonnull %txsz.i, ptr noundef nonnull %tysz.i, ptr noundef nonnull %levelmode.i, ptr noundef nonnull %roundingmode.i)
  %cmp3.not.i = icmp eq i32 %call2.i, 0
  br i1 %cmp3.not.i, label %if.end5.i, label %_ZN7Imf_3_212_GLOBAL__N_117readCoreTiledPartEP19_priv_exr_context_tibb.exit.thread

if.end5.i:                                        ; preds = %if.end.i16
  %call6.i = call i32 @exr_get_tile_levels(ptr noundef %f, i32 noundef %p.099, ptr noundef nonnull %levelsx.i, ptr noundef nonnull %levelsy.i)
  %cmp7.not.i = icmp eq i32 %call6.i, 0
  br i1 %cmp7.not.i, label %for.cond.preheader.i17, label %_ZN7Imf_3_212_GLOBAL__N_117readCoreTiledPartEP19_priv_exr_context_tibb.exit.thread

for.cond.preheader.i17:                           ; preds = %if.end5.i
  %26 = load i32, ptr %levelsy.i, align 4
  %cmp10207.i = icmp sgt i32 %26, 0
  br i1 %cmp10207.i, label %for.cond11.preheader.i, label %_ZN7Imf_3_212_GLOBAL__N_117readCoreTiledPartEP19_priv_exr_context_tibb.exit.thread90

_ZN7Imf_3_212_GLOBAL__N_117readCoreTiledPartEP19_priv_exr_context_tibb.exit.thread90: ; preds = %for.cond.preheader.i17
  call void @llvm.lifetime.end.p0(i64 16, ptr nonnull %datawin.i11)
  call void @llvm.lifetime.end.p0(i64 4, ptr nonnull %txsz.i)
  call void @llvm.lifetime.end.p0(i64 4, ptr nonnull %tysz.i)
  call void @llvm.lifetime.end.p0(i64 4, ptr nonnull %levelmode.i)
  call void @llvm.lifetime.end.p0(i64 4, ptr nonnull %roundingmode.i)
  call void @llvm.lifetime.end.p0(i64 4, ptr nonnull %levelsx.i)
  call void @llvm.lifetime.end.p0(i64 4, ptr nonnull %levelsy.i)
  call void @llvm.lifetime.end.p0(i64 4, ptr nonnull %levw.i)
  call void @llvm.lifetime.end.p0(i64 4, ptr nonnull %levh.i)
  call void @llvm.lifetime.end.p0(i64 4, ptr nonnull %curtw.i)
  call void @llvm.lifetime.end.p0(i64 4, ptr nonnull %curth.i)
  call void @llvm.lifetime.end.p0(i64 64, ptr nonnull %cinfo.i12)
  call void @llvm.lifetime.end.p0(i64 480, ptr nonnull %decoder.i13)
  br label %for.inc

for.cond11.preheader.i:                           ; preds = %for.cond.preheader.i17, %for.inc146.i
  %27 = phi i32 [ %67, %for.inc146.i ], [ %26, %for.cond.preheader.i17 ]
  %rv.0213.i = phi i32 [ %rv.8.i, %for.inc146.i ], [ 0, %for.cond.preheader.i17 ]
  %keepgoing.0212.i = phi i8 [ %keepgoing.5.i, %for.inc146.i ], [ 1, %for.cond.preheader.i17 ]
  %ylevel.0211.i = phi i32 [ %inc147.i, %for.inc146.i ], [ 0, %for.cond.preheader.i17 ]
  %28 = and i8 %keepgoing.0212.i, 1
  %tobool12185.i = icmp ne i8 %28, 0
  %29 = load i32, ptr %levelsx.i, align 4
  %cmp14186.i = icmp sgt i32 %29, 0
  %30 = select i1 %tobool12185.i, i1 %cmp14186.i, i1 false
  br i1 %30, label %for.body16.i, label %for.inc146.i

for.body16.i:                                     ; preds = %for.cond11.preheader.i, %for.inc143.i
  %keepgoing.1191.i = phi i8 [ %keepgoing.4.i, %for.inc143.i ], [ %keepgoing.0212.i, %for.cond11.preheader.i ]
  %xlevel.0190.i = phi i32 [ %inc144.i, %for.inc143.i ], [ 0, %for.cond11.preheader.i ]
  %call17.i = call i32 @exr_get_level_sizes(ptr noundef %f, i32 noundef %p.099, i32 noundef %xlevel.0190.i, i32 noundef %ylevel.0211.i, ptr noundef nonnull %levw.i, ptr noundef nonnull %levh.i)
  %cmp18.not.i = icmp eq i32 %call17.i, 0
  br i1 %cmp18.not.i, label %if.end23.i, label %if.then19.i

if.then19.i:                                      ; preds = %for.body16.i
  br i1 %reduceTime, label %for.inc146.loopexit.i, label %for.inc143.i

if.end23.i:                                       ; preds = %for.body16.i
  %call24.i = call i32 @exr_get_tile_sizes(ptr noundef %f, i32 noundef %p.099, i32 noundef %xlevel.0190.i, i32 noundef %ylevel.0211.i, ptr noundef nonnull %curtw.i, ptr noundef nonnull %curth.i)
  %cmp25.not.i = icmp eq i32 %call24.i, 0
  br i1 %cmp25.not.i, label %if.end30.i, label %if.then26.i

if.then26.i:                                      ; preds = %if.end23.i
  br i1 %reduceTime, label %for.inc146.loopexit.i, label %for.inc143.i

if.end30.i:                                       ; preds = %if.end23.i
  call void @llvm.memset.p0.i64(ptr noundef nonnull align 8 dereferenceable(480) %decoder.i13, i8 0, i64 480, i1 false)
  %31 = and i8 %keepgoing.1191.i, 1
  %tobool32169.i = icmp ne i8 %31, 0
  %32 = load i32, ptr %levh.i, align 4
  %cmp34171.i = icmp sgt i32 %32, 0
  %33 = select i1 %tobool32169.i, i1 %cmp34171.i, i1 false
  %34 = load i32, ptr %levw.i, align 4
  %35 = icmp sgt i32 %34, 0
  %or.cond117 = select i1 %33, i1 %35, i1 false
  br i1 %or.cond117, label %for.cond37.preheader.i, label %for.end140.i

for.cond37.preheader.i:                           ; preds = %if.end30.i, %for.inc136.i
  %36 = phi i32 [ %60, %for.inc136.i ], [ %32, %if.end30.i ]
  %rv.2179.i = phi i32 [ %rv.6.i, %for.inc136.i ], [ 0, %if.end30.i ]
  %keepgoing.2178.i = phi i8 [ %keepgoing.3.i, %for.inc136.i ], [ %keepgoing.1191.i, %if.end30.i ]
  %cury.0177.i = phi i64 [ %add138.i, %for.inc136.i ], [ 0, %if.end30.i ]
  %ty.0176.i = phi i32 [ %inc139.i, %for.inc136.i ], [ 0, %if.end30.i ]
  %doread.0175.i = phi i8 [ %doread.4.i, %for.inc136.i ], [ 0, %if.end30.i ]
  %tiledata.sroa.12.2174.i = phi ptr [ %tiledata.sroa.12.9.i, %for.inc136.i ], [ null, %if.end30.i ]
  %tiledata.sroa.7.2173.i = phi ptr [ %tiledata.sroa.7.9.i, %for.inc136.i ], [ null, %if.end30.i ]
  %tiledata.sroa.0.2172.i = phi ptr [ %tiledata.sroa.0.10.i, %for.inc136.i ], [ null, %if.end30.i ]
  %37 = load i32, ptr %levw.i, align 4
  %cmp41126.i = icmp sgt i32 %37, 0
  br i1 %cmp41126.i, label %for.body43.i, label %for.inc136.i

for.body43.i:                                     ; preds = %for.cond37.preheader.i, %for.inc131.i
  %curx.0132.i = phi i64 [ %add133.i, %for.inc131.i ], [ 0, %for.cond37.preheader.i ]
  %tx.0131.i = phi i32 [ %inc134.i, %for.inc131.i ], [ 0, %for.cond37.preheader.i ]
  %doread.1130.i = phi i8 [ %doread.3.i, %for.inc131.i ], [ %doread.0175.i, %for.cond37.preheader.i ]
  %tiledata.sroa.12.3129.i = phi ptr [ %tiledata.sroa.12.8.i, %for.inc131.i ], [ %tiledata.sroa.12.2174.i, %for.cond37.preheader.i ]
  %tiledata.sroa.7.3128.i = phi ptr [ %tiledata.sroa.7.8.i, %for.inc131.i ], [ %tiledata.sroa.7.2173.i, %for.cond37.preheader.i ]
  %tiledata.sroa.0.3127.i = phi ptr [ %tiledata.sroa.0.9.i, %for.inc131.i ], [ %tiledata.sroa.0.2172.i, %for.cond37.preheader.i ]
  %call44.i = invoke i32 @exr_read_tile_chunk_info(ptr noundef %f, i32 noundef %p.099, i32 noundef %tx.0131.i, i32 noundef %ty.0176.i, i32 noundef %xlevel.0190.i, i32 noundef %ylevel.0211.i, ptr noundef nonnull %cinfo.i12)
          to label %invoke.cont.i unwind label %lpad.loopexit.i25

invoke.cont.i:                                    ; preds = %for.body43.i
  %cmp45.not.i = icmp eq i32 %call44.i, 0
  br i1 %cmp45.not.i, label %if.end50.i, label %if.then46.i

if.then46.i:                                      ; preds = %invoke.cont.i
  br i1 %reduceTime, label %for.inc136.loopexit.i, label %for.inc131.i

lpad.loopexit.i25:                                ; preds = %for.end121.i, %if.else.i28, %if.end78.i, %_ZNSt16allocator_traitsISaIhEE8allocateERS0_m.exit.i.i.i71, %if.then52.i, %for.body43.i
  %tiledata.sroa.0.4.ph.i = phi ptr [ %tiledata.sroa.0.3127.i, %for.body43.i ], [ %tiledata.sroa.0.3127.i, %if.else.i28 ], [ %tiledata.sroa.0.3127.i, %if.then52.i ], [ %tiledata.sroa.0.3127.i, %_ZNSt16allocator_traitsISaIhEE8allocateERS0_m.exit.i.i.i71 ], [ %tiledata.sroa.0.7.i, %if.end78.i ], [ %tiledata.sroa.0.8.i, %for.end121.i ]
  %lpad.loopexit88.i = landingpad { ptr, i32 }
          cleanup
  br label %lpad.i19

lpad.loopexit.split-lp.loopexit.i:                ; preds = %for.end140.i
  %lpad.loopexit90.i = landingpad { ptr, i32 }
          cleanup
  br label %lpad.i19

lpad.loopexit.split-lp.loopexit.split-lp.i:       ; preds = %if.then.i.i.i87
  %lpad.loopexit.split-lp91.i = landingpad { ptr, i32 }
          cleanup
  br label %lpad.i19

lpad.i19:                                         ; preds = %lpad.loopexit.split-lp.loopexit.split-lp.i, %lpad.loopexit.split-lp.loopexit.i, %lpad.loopexit.i25
  %tiledata.sroa.0.4.i = phi ptr [ %tiledata.sroa.0.4.ph.i, %lpad.loopexit.i25 ], [ %tiledata.sroa.0.2.lcssa.i, %lpad.loopexit.split-lp.loopexit.i ], [ %tiledata.sroa.0.3127.i, %lpad.loopexit.split-lp.loopexit.split-lp.i ]
  %lpad.phi.i20 = phi { ptr, i32 } [ %lpad.loopexit88.i, %lpad.loopexit.i25 ], [ %lpad.loopexit90.i, %lpad.loopexit.split-lp.loopexit.i ], [ %lpad.loopexit.split-lp91.i, %lpad.loopexit.split-lp.loopexit.split-lp.i ]
  %tobool.not.i.i.i.i21 = icmp eq ptr %tiledata.sroa.0.4.i, null
  br i1 %tobool.not.i.i.i.i21, label %common.resume, label %common.resume.sink.split

if.end50.i:                                       ; preds = %invoke.cont.i
  %38 = load ptr, ptr %decoder.i13, align 8
  %cmp51.i27 = icmp eq ptr %38, null
  br i1 %cmp51.i27, label %if.then52.i, label %if.else.i28

if.then52.i:                                      ; preds = %if.end50.i
  %call54.i = invoke i32 @exr_decoding_initialize(ptr noundef %f, i32 noundef %p.099, ptr noundef nonnull %cinfo.i12, ptr noundef nonnull %decoder.i13)
          to label %invoke.cont53.i unwind label %lpad.loopexit.i25

invoke.cont53.i:                                  ; preds = %if.then52.i
  %cmp55.not.i = icmp eq i32 %call54.i, 0
  br i1 %cmp55.not.i, label %for.cond58.preheader.i, label %for.inc136.loopexit.i

for.cond58.preheader.i:                           ; preds = %invoke.cont53.i
  %39 = load i16, ptr %channel_count.i18, align 8
  %cmp60118.i = icmp sgt i16 %39, 0
  br i1 %cmp60118.i, label %for.body61.i, label %if.then76.thread.i

if.then76.thread.i:                               ; preds = %for.cond58.preheader.i
  %sub.ptr.lhs.cast.i.i232.i = ptrtoint ptr %tiledata.sroa.7.3128.i to i64
  %sub.ptr.rhs.cast.i.i233.i = ptrtoint ptr %tiledata.sroa.0.3127.i to i64
  %sub.ptr.sub.i.i234.i = sub i64 %sub.ptr.lhs.cast.i.i232.i, %sub.ptr.rhs.cast.i.i233.i
  br label %if.else.i.i31

for.body61.i:                                     ; preds = %for.cond58.preheader.i, %for.body61.i
  %indvars.iv.i35 = phi i64 [ %indvars.iv.next.i43, %for.body61.i ], [ 0, %for.cond58.preheader.i ]
  %bytes.0119.i = phi i64 [ %add.i42, %for.body61.i ], [ 0, %for.cond58.preheader.i ]
  %40 = load ptr, ptr %decoder.i13, align 8
  %arrayidx.i36 = getelementptr inbounds %struct.exr_coding_channel_info_t, ptr %40, i64 %indvars.iv.i35
  %add.ptr.i37 = getelementptr inbounds i8, ptr inttoptr (i64 4096 to ptr), i64 %bytes.0119.i
  %41 = getelementptr inbounds i8, ptr %arrayidx.i36, i64 40
  store ptr %add.ptr.i37, ptr %41, align 8
  %user_bytes_per_element.i38 = getelementptr inbounds i8, ptr %arrayidx.i36, i64 28
  %42 = load i16, ptr %user_bytes_per_element.i38, align 4
  %conv63.i = sext i16 %42 to i32
  %user_pixel_stride.i39 = getelementptr inbounds i8, ptr %arrayidx.i36, i64 32
  store i32 %conv63.i, ptr %user_pixel_stride.i39, align 8
  %43 = load i32, ptr %curtw.i, align 4
  %mul.i40 = mul nsw i32 %43, %conv63.i
  %user_line_stride.i41 = getelementptr inbounds i8, ptr %arrayidx.i36, i64 36
  store i32 %mul.i40, ptr %user_line_stride.i41, align 4
  %44 = load i32, ptr %curtw.i, align 4
  %conv65.i = sext i32 %44 to i64
  %conv67.i = sext i16 %42 to i64
  %mul68.i = mul nsw i64 %conv65.i, %conv67.i
  %45 = load i32, ptr %curth.i, align 4
  %conv69.i = sext i32 %45 to i64
  %mul70.i = mul i64 %mul68.i, %conv69.i
  %add.i42 = add i64 %mul70.i, %bytes.0119.i
  %indvars.iv.next.i43 = add nuw nsw i64 %indvars.iv.i35, 1
  %46 = load i16, ptr %channel_count.i18, align 8
  %47 = sext i16 %46 to i64
  %cmp60.i = icmp slt i64 %indvars.iv.next.i43, %47
  br i1 %cmp60.i, label %for.body61.i, label %for.end.i44, !llvm.loop !8

for.end.i44:                                      ; preds = %for.body61.i
  %cmp72.i = icmp ugt i64 %add.i42, 999999
  %or.cond.not.i45 = select i1 %reduceMemory, i1 %cmp72.i, i1 false
  br i1 %or.cond.not.i45, label %if.end78.i, label %if.then76.i

if.then76.i:                                      ; preds = %for.end.i44
  %sub.ptr.lhs.cast.i.i.i46 = ptrtoint ptr %tiledata.sroa.7.3128.i to i64
  %sub.ptr.rhs.cast.i.i.i47 = ptrtoint ptr %tiledata.sroa.0.3127.i to i64
  %sub.ptr.sub.i.i.i48 = sub i64 %sub.ptr.lhs.cast.i.i.i46, %sub.ptr.rhs.cast.i.i.i47
  %cmp.i.i49 = icmp ult i64 %sub.ptr.sub.i.i.i48, %add.i42
  br i1 %cmp.i.i49, label %if.then.i.i50, label %if.else.i.i31

if.then.i.i50:                                    ; preds = %if.then76.i
  %sub.i.i51 = sub i64 %add.i42, %sub.ptr.sub.i.i.i48
  %sub.ptr.lhs.cast.i.i52 = ptrtoint ptr %tiledata.sroa.12.3129.i to i64
  %sub.ptr.sub.i.i53 = sub i64 %sub.ptr.lhs.cast.i.i52, %sub.ptr.lhs.cast.i.i.i46
  %cmp4.i76.i = icmp sgt i64 %sub.ptr.sub.i.i.i48, -1
  call void @llvm.assume(i1 %cmp4.i76.i)
  %sub.i77.i = xor i64 %sub.ptr.sub.i.i.i48, 9223372036854775807
  %cmp6.i.i54 = icmp ule i64 %sub.ptr.sub.i.i53, %sub.i77.i
  call void @llvm.assume(i1 %cmp6.i.i54)
  %cmp8.not.i.i55 = icmp ult i64 %sub.ptr.sub.i.i53, %sub.i.i51
  br i1 %cmp8.not.i.i55, label %if.else.i78.i, label %if.then.i.i.i.i.i56

if.then.i.i.i.i.i56:                              ; preds = %if.then.i.i50
  store i8 0, ptr %tiledata.sroa.7.3128.i, align 1
  %incdec.ptr.i.i.i.i.i57 = getelementptr inbounds i8, ptr %tiledata.sroa.7.3128.i, i64 1
  %sub.i.i.i.i.i58 = add i64 %sub.i.i51, -1
  %cmp.i.i.i.i.i.i.i59 = icmp eq i64 %sub.i.i.i.i.i58, 0
  br i1 %cmp.i.i.i.i.i.i.i59, label %if.end78.i, label %if.then.i.i.i.i.i.i.i.i.i60

if.then.i.i.i.i.i.i.i.i.i60:                      ; preds = %if.then.i.i.i.i.i56
  %add.ptr.i.i.i.i.i.i.i61 = getelementptr inbounds i8, ptr %tiledata.sroa.7.3128.i, i64 %sub.i.i51
  call void @llvm.memset.p0.i64(ptr nonnull align 1 %incdec.ptr.i.i.i.i.i57, i8 0, i64 %sub.i.i.i.i.i58, i1 false)
  br label %if.end78.i

if.else.i78.i:                                    ; preds = %if.then.i.i50
  %cmp.i.i.i62 = icmp ult i64 %sub.i77.i, %sub.i.i51
  br i1 %cmp.i.i.i62, label %if.then.i.i.i87, label %_ZNKSt6vectorIhSaIhEE12_M_check_lenEmPKc.exit.i.i63

if.then.i.i.i87:                                  ; preds = %if.else.i78.i
  invoke void @_ZSt20__throw_length_errorPKc(ptr noundef nonnull @.str.11) #25
          to label %.noexc80.i unwind label %lpad.loopexit.split-lp.loopexit.split-lp.i

.noexc80.i:                                       ; preds = %if.then.i.i.i87
  unreachable

_ZNKSt6vectorIhSaIhEE12_M_check_lenEmPKc.exit.i.i63: ; preds = %if.else.i78.i
  %.sroa.speculated.i.i.i64 = call i64 @llvm.umax.i64(i64 %sub.ptr.sub.i.i.i48, i64 %sub.i.i51)
  %add.i.i.i65 = add i64 %.sroa.speculated.i.i.i64, %sub.ptr.sub.i.i.i48
  %cmp7.i.i.i66 = icmp ult i64 %add.i.i.i65, %sub.ptr.sub.i.i.i48
  %cmp9.i.i.i67 = icmp slt i64 %add.i.i.i65, 0
  %or.cond.i.i.i68 = or i1 %cmp7.i.i.i66, %cmp9.i.i.i67
  %cond.i.i.i69 = select i1 %or.cond.i.i.i68, i64 9223372036854775807, i64 %add.i.i.i65
  %cmp.not.i.i.i70 = icmp eq i64 %cond.i.i.i69, 0
  br i1 %cmp.not.i.i.i70, label %if.then.i.i.i21.i.i72, label %_ZNSt16allocator_traitsISaIhEE8allocateERS0_m.exit.i.i.i71

_ZNSt16allocator_traitsISaIhEE8allocateERS0_m.exit.i.i.i71: ; preds = %_ZNKSt6vectorIhSaIhEE12_M_check_lenEmPKc.exit.i.i63
  %call5.i.i.i.i81.i = invoke noalias noundef nonnull ptr @_Znwm(i64 noundef %cond.i.i.i69) #26
          to label %if.then.i.i.i21.i.i72 unwind label %lpad.loopexit.i25

if.then.i.i.i21.i.i72:                            ; preds = %_ZNSt16allocator_traitsISaIhEE8allocateERS0_m.exit.i.i.i71, %_ZNKSt6vectorIhSaIhEE12_M_check_lenEmPKc.exit.i.i63
  %cond.i19.i.i73 = phi ptr [ null, %_ZNKSt6vectorIhSaIhEE12_M_check_lenEmPKc.exit.i.i63 ], [ %call5.i.i.i.i81.i, %_ZNSt16allocator_traitsISaIhEE8allocateERS0_m.exit.i.i.i71 ]
  %add.ptr.i79.i = getelementptr inbounds i8, ptr %cond.i19.i.i73, i64 %sub.ptr.sub.i.i.i48
  store i8 0, ptr %add.ptr.i79.i, align 1
  %sub.i.i.i23.i.i74 = add i64 %sub.i.i51, -1
  %cmp.i.i.i.i.i24.i.i75 = icmp eq i64 %sub.i.i.i23.i.i74, 0
  br i1 %cmp.i.i.i.i.i24.i.i75, label %try.cont.i.i78, label %if.then.i.i.i.i.i.i.i25.i.i76

if.then.i.i.i.i.i.i.i25.i.i76:                    ; preds = %if.then.i.i.i21.i.i72
  %incdec.ptr.i.i.i22.i.i77 = getelementptr inbounds i8, ptr %add.ptr.i79.i, i64 1
  call void @llvm.memset.p0.i64(ptr nonnull align 1 %incdec.ptr.i.i.i22.i.i77, i8 0, i64 %sub.i.i.i23.i.i74, i1 false)
  br label %try.cont.i.i78

try.cont.i.i78:                                   ; preds = %if.then.i.i.i.i.i.i.i25.i.i76, %if.then.i.i.i21.i.i72
  %cmp.i.i.i30.not.i.i79 = icmp eq ptr %tiledata.sroa.7.3128.i, %tiledata.sroa.0.3127.i
  br i1 %cmp.i.i.i30.not.i.i79, label %_ZNSt6vectorIhSaIhEE11_S_relocateEPhS2_S2_RS0_.exit.i.i81, label %if.then.i.i.i31.i.i80

if.then.i.i.i31.i.i80:                            ; preds = %try.cont.i.i78
  call void @llvm.memmove.p0.p0.i64(ptr nonnull align 1 %cond.i19.i.i73, ptr align 1 %tiledata.sroa.0.3127.i, i64 %sub.ptr.sub.i.i.i48, i1 false)
  br label %_ZNSt6vectorIhSaIhEE11_S_relocateEPhS2_S2_RS0_.exit.i.i81

_ZNSt6vectorIhSaIhEE11_S_relocateEPhS2_S2_RS0_.exit.i.i81: ; preds = %if.then.i.i.i31.i.i80, %try.cont.i.i78
  %tobool.not.i32.i.i82 = icmp eq ptr %tiledata.sroa.0.3127.i, null
  br i1 %tobool.not.i32.i.i82, label %_ZNSt12_Vector_baseIhSaIhEE13_M_deallocateEPhm.exit34.i.i84, label %if.then.i33.i.i83

if.then.i33.i.i83:                                ; preds = %_ZNSt6vectorIhSaIhEE11_S_relocateEPhS2_S2_RS0_.exit.i.i81
  call void @_ZdlPv(ptr noundef nonnull %tiledata.sroa.0.3127.i) #24
  br label %_ZNSt12_Vector_baseIhSaIhEE13_M_deallocateEPhm.exit34.i.i84

_ZNSt12_Vector_baseIhSaIhEE13_M_deallocateEPhm.exit34.i.i84: ; preds = %if.then.i33.i.i83, %_ZNSt6vectorIhSaIhEE11_S_relocateEPhS2_S2_RS0_.exit.i.i81
  %add.ptr36.i.i85 = getelementptr inbounds i8, ptr %cond.i19.i.i73, i64 %add.i42
  %add.ptr39.i.i86 = getelementptr inbounds i8, ptr %cond.i19.i.i73, i64 %cond.i.i.i69
  br label %if.end78.i

if.else.i.i31:                                    ; preds = %if.then76.i, %if.then76.thread.i
  %sub.ptr.sub.i.i238.i = phi i64 [ %sub.ptr.sub.i.i234.i, %if.then76.thread.i ], [ %sub.ptr.sub.i.i.i48, %if.then76.i ]
  %bytes.0.lcssa227237.i = phi i64 [ 0, %if.then76.thread.i ], [ %add.i42, %if.then76.i ]
  %cmp4.i.i32 = icmp ugt i64 %sub.ptr.sub.i.i238.i, %bytes.0.lcssa227237.i
  %add.ptr.i.i33 = getelementptr inbounds i8, ptr %tiledata.sroa.0.3127.i, i64 %bytes.0.lcssa227237.i
  %spec.select.i34 = select i1 %cmp4.i.i32, ptr %add.ptr.i.i33, ptr %tiledata.sroa.7.3128.i
  br label %if.end78.i

if.end78.i:                                       ; preds = %if.else.i.i31, %_ZNSt12_Vector_baseIhSaIhEE13_M_deallocateEPhm.exit34.i.i84, %if.then.i.i.i.i.i.i.i.i.i60, %if.then.i.i.i.i.i56, %for.end.i44
  %spec.store.select228.i = phi i8 [ 0, %for.end.i44 ], [ 1, %_ZNSt12_Vector_baseIhSaIhEE13_M_deallocateEPhm.exit34.i.i84 ], [ 1, %if.then.i.i.i.i.i.i.i.i.i60 ], [ 1, %if.then.i.i.i.i.i56 ], [ 1, %if.else.i.i31 ]
  %tiledata.sroa.0.7.i = phi ptr [ %tiledata.sroa.0.3127.i, %for.end.i44 ], [ %cond.i19.i.i73, %_ZNSt12_Vector_baseIhSaIhEE13_M_deallocateEPhm.exit34.i.i84 ], [ %tiledata.sroa.0.3127.i, %if.then.i.i.i.i.i.i.i.i.i60 ], [ %tiledata.sroa.0.3127.i, %if.then.i.i.i.i.i56 ], [ %tiledata.sroa.0.3127.i, %if.else.i.i31 ]
  %tiledata.sroa.7.6.i = phi ptr [ %tiledata.sroa.7.3128.i, %for.end.i44 ], [ %add.ptr36.i.i85, %_ZNSt12_Vector_baseIhSaIhEE13_M_deallocateEPhm.exit34.i.i84 ], [ %add.ptr.i.i.i.i.i.i.i61, %if.then.i.i.i.i.i.i.i.i.i60 ], [ %incdec.ptr.i.i.i.i.i57, %if.then.i.i.i.i.i56 ], [ %spec.select.i34, %if.else.i.i31 ]
  %tiledata.sroa.12.6.i = phi ptr [ %tiledata.sroa.12.3129.i, %for.end.i44 ], [ %add.ptr39.i.i86, %_ZNSt12_Vector_baseIhSaIhEE13_M_deallocateEPhm.exit34.i.i84 ], [ %tiledata.sroa.12.3129.i, %if.then.i.i.i.i.i.i.i.i.i60 ], [ %tiledata.sroa.12.3129.i, %if.then.i.i.i.i.i56 ], [ %tiledata.sroa.12.3129.i, %if.else.i.i31 ]
  %call80.i = invoke i32 @exr_decoding_choose_default_routines(ptr noundef %f, i32 noundef %p.099, ptr noundef nonnull %decoder.i13)
          to label %invoke.cont79.i unwind label %lpad.loopexit.i25

invoke.cont79.i:                                  ; preds = %if.end78.i
  %cmp81.not.i = icmp eq i32 %call80.i, 0
  br i1 %cmp81.not.i, label %if.end92.i, label %for.inc136.loopexit.i

if.else.i28:                                      ; preds = %if.end50.i
  %call85.i = invoke i32 @exr_decoding_update(ptr noundef %f, i32 noundef %p.099, ptr noundef nonnull %cinfo.i12, ptr noundef nonnull %decoder.i13)
          to label %invoke.cont84.i unwind label %lpad.loopexit.i25

invoke.cont84.i:                                  ; preds = %if.else.i28
  %cmp86.not.i = icmp eq i32 %call85.i, 0
  br i1 %cmp86.not.i, label %if.end92.i, label %if.then87.i

if.then87.i:                                      ; preds = %invoke.cont84.i
  br i1 %reduceTime, label %for.inc136.loopexit.i, label %for.inc131.i

if.end92.i:                                       ; preds = %invoke.cont84.i, %invoke.cont79.i
  %tiledata.sroa.0.8.i = phi ptr [ %tiledata.sroa.0.7.i, %invoke.cont79.i ], [ %tiledata.sroa.0.3127.i, %invoke.cont84.i ]
  %tiledata.sroa.7.7.i = phi ptr [ %tiledata.sroa.7.6.i, %invoke.cont79.i ], [ %tiledata.sroa.7.3128.i, %invoke.cont84.i ]
  %tiledata.sroa.12.7.i = phi ptr [ %tiledata.sroa.12.6.i, %invoke.cont79.i ], [ %tiledata.sroa.12.3129.i, %invoke.cont84.i ]
  %doread.2.i29 = phi i8 [ %spec.store.select228.i, %invoke.cont79.i ], [ %doread.1130.i, %invoke.cont84.i ]
  %48 = and i8 %doread.2.i29, 1
  %tobool93.not.i = icmp eq i8 %48, 0
  br i1 %tobool93.not.i, label %for.inc131.i, label %for.cond97.preheader.i

for.cond97.preheader.i:                           ; preds = %if.end92.i
  %49 = load i16, ptr %channel_count.i18, align 8
  %cmp100122.i = icmp sgt i16 %49, 0
  br i1 %cmp100122.i, label %for.body101.i, label %for.end121.i

for.body101.i:                                    ; preds = %for.cond97.preheader.i, %for.body101.i
  %indvars.iv218.i = phi i64 [ %indvars.iv.next219.i, %for.body101.i ], [ 0, %for.cond97.preheader.i ]
  %dptr.0123.i = phi ptr [ %add.ptr118.i, %for.body101.i ], [ %tiledata.sroa.0.8.i, %for.cond97.preheader.i ]
  %50 = load ptr, ptr %decoder.i13, align 8
  %arrayidx105.i = getelementptr inbounds %struct.exr_coding_channel_info_t, ptr %50, i64 %indvars.iv218.i
  %51 = getelementptr inbounds i8, ptr %arrayidx105.i, i64 40
  store ptr %dptr.0123.i, ptr %51, align 8
  %user_bytes_per_element106.i = getelementptr inbounds i8, ptr %arrayidx105.i, i64 28
  %52 = load i16, ptr %user_bytes_per_element106.i, align 4
  %conv107.i = sext i16 %52 to i32
  %user_pixel_stride108.i = getelementptr inbounds i8, ptr %arrayidx105.i, i64 32
  store i32 %conv107.i, ptr %user_pixel_stride108.i, align 8
  %53 = load i32, ptr %curtw.i, align 4
  %mul110.i = mul nsw i32 %53, %conv107.i
  %user_line_stride111.i = getelementptr inbounds i8, ptr %arrayidx105.i, i64 36
  store i32 %mul110.i, ptr %user_line_stride111.i, align 4
  %54 = load i32, ptr %curtw.i, align 4
  %conv112.i = sext i32 %54 to i64
  %conv114.i = sext i16 %52 to i64
  %mul115.i = mul nsw i64 %conv112.i, %conv114.i
  %55 = load i32, ptr %curth.i, align 4
  %conv116.i = sext i32 %55 to i64
  %mul117.i = mul i64 %mul115.i, %conv116.i
  %add.ptr118.i = getelementptr inbounds i8, ptr %dptr.0123.i, i64 %mul117.i
  %indvars.iv.next219.i = add nuw nsw i64 %indvars.iv218.i, 1
  %56 = load i16, ptr %channel_count.i18, align 8
  %57 = sext i16 %56 to i64
  %cmp100.i = icmp slt i64 %indvars.iv.next219.i, %57
  br i1 %cmp100.i, label %for.body101.i, label %for.end121.i, !llvm.loop !9

for.end121.i:                                     ; preds = %for.body101.i, %for.cond97.preheader.i
  %call123.i = invoke i32 @exr_decoding_run(ptr noundef %f, i32 noundef %p.099, ptr noundef nonnull %decoder.i13)
          to label %invoke.cont122.i unwind label %lpad.loopexit.i25

invoke.cont122.i:                                 ; preds = %for.end121.i
  %cmp124.not.i = icmp ne i32 %call123.i, 0
  %brmerge.not.i30 = and i1 %cmp124.not.i, %reduceTime
  br i1 %brmerge.not.i30, label %for.inc136.loopexit.i, label %for.inc131.i

for.inc131.i:                                     ; preds = %invoke.cont122.i, %if.end92.i, %if.then87.i, %if.then46.i
  %tiledata.sroa.0.9.i = phi ptr [ %tiledata.sroa.0.8.i, %if.end92.i ], [ %tiledata.sroa.0.8.i, %invoke.cont122.i ], [ %tiledata.sroa.0.3127.i, %if.then87.i ], [ %tiledata.sroa.0.3127.i, %if.then46.i ]
  %tiledata.sroa.7.8.i = phi ptr [ %tiledata.sroa.7.7.i, %if.end92.i ], [ %tiledata.sroa.7.7.i, %invoke.cont122.i ], [ %tiledata.sroa.7.3128.i, %if.then87.i ], [ %tiledata.sroa.7.3128.i, %if.then46.i ]
  %tiledata.sroa.12.8.i = phi ptr [ %tiledata.sroa.12.7.i, %if.end92.i ], [ %tiledata.sroa.12.7.i, %invoke.cont122.i ], [ %tiledata.sroa.12.3129.i, %if.then87.i ], [ %tiledata.sroa.12.3129.i, %if.then46.i ]
  %doread.3.i = phi i8 [ %doread.2.i29, %if.end92.i ], [ %doread.2.i29, %invoke.cont122.i ], [ %doread.1130.i, %if.then87.i ], [ %doread.1130.i, %if.then46.i ]
  %rv.5.i = phi i32 [ 0, %if.end92.i ], [ %call123.i, %invoke.cont122.i ], [ %call85.i, %if.then87.i ], [ %call44.i, %if.then46.i ]
  %58 = load i32, ptr %curtw.i, align 4
  %conv132.i = sext i32 %58 to i64
  %add133.i = add nsw i64 %curx.0132.i, %conv132.i
  %inc134.i = add nuw nsw i32 %tx.0131.i, 1
  %59 = load i32, ptr %levw.i, align 4
  %conv40.i26 = sext i32 %59 to i64
  %cmp41.i = icmp slt i64 %add133.i, %conv40.i26
  br i1 %cmp41.i, label %for.body43.i, label %for.inc136.loopexit.i, !llvm.loop !10

for.inc136.loopexit.i:                            ; preds = %for.inc131.i, %invoke.cont122.i, %if.then87.i, %invoke.cont79.i, %invoke.cont53.i, %if.then46.i
  %tiledata.sroa.0.10.ph.i = phi ptr [ %tiledata.sroa.0.9.i, %for.inc131.i ], [ %tiledata.sroa.0.3127.i, %if.then46.i ], [ %tiledata.sroa.0.3127.i, %invoke.cont53.i ], [ %tiledata.sroa.0.7.i, %invoke.cont79.i ], [ %tiledata.sroa.0.3127.i, %if.then87.i ], [ %tiledata.sroa.0.8.i, %invoke.cont122.i ]
  %tiledata.sroa.7.9.ph.i = phi ptr [ %tiledata.sroa.7.8.i, %for.inc131.i ], [ %tiledata.sroa.7.3128.i, %if.then46.i ], [ %tiledata.sroa.7.3128.i, %invoke.cont53.i ], [ %tiledata.sroa.7.6.i, %invoke.cont79.i ], [ %tiledata.sroa.7.3128.i, %if.then87.i ], [ %tiledata.sroa.7.7.i, %invoke.cont122.i ]
  %tiledata.sroa.12.9.ph.i = phi ptr [ %tiledata.sroa.12.8.i, %for.inc131.i ], [ %tiledata.sroa.12.3129.i, %if.then46.i ], [ %tiledata.sroa.12.3129.i, %invoke.cont53.i ], [ %tiledata.sroa.12.6.i, %invoke.cont79.i ], [ %tiledata.sroa.12.3129.i, %if.then87.i ], [ %tiledata.sroa.12.7.i, %invoke.cont122.i ]
  %doread.4.ph.i = phi i8 [ %doread.3.i, %for.inc131.i ], [ %doread.1130.i, %if.then46.i ], [ %doread.1130.i, %invoke.cont53.i ], [ %spec.store.select228.i, %invoke.cont79.i ], [ %doread.1130.i, %if.then87.i ], [ %doread.2.i29, %invoke.cont122.i ]
  %keepgoing.3.ph.i = phi i8 [ %keepgoing.2178.i, %for.inc131.i ], [ 0, %if.then46.i ], [ 0, %invoke.cont53.i ], [ 0, %invoke.cont79.i ], [ 0, %if.then87.i ], [ 0, %invoke.cont122.i ]
  %rv.6.ph.i = phi i32 [ %rv.5.i, %for.inc131.i ], [ %call44.i, %if.then46.i ], [ %call54.i, %invoke.cont53.i ], [ %call80.i, %invoke.cont79.i ], [ %call85.i, %if.then87.i ], [ %call123.i, %invoke.cont122.i ]
  %.pre.i = load i32, ptr %levh.i, align 4
  br label %for.inc136.i

for.inc136.i:                                     ; preds = %for.inc136.loopexit.i, %for.cond37.preheader.i
  %60 = phi i32 [ %36, %for.cond37.preheader.i ], [ %.pre.i, %for.inc136.loopexit.i ]
  %tiledata.sroa.0.10.i = phi ptr [ %tiledata.sroa.0.2172.i, %for.cond37.preheader.i ], [ %tiledata.sroa.0.10.ph.i, %for.inc136.loopexit.i ]
  %tiledata.sroa.7.9.i = phi ptr [ %tiledata.sroa.7.2173.i, %for.cond37.preheader.i ], [ %tiledata.sroa.7.9.ph.i, %for.inc136.loopexit.i ]
  %tiledata.sroa.12.9.i = phi ptr [ %tiledata.sroa.12.2174.i, %for.cond37.preheader.i ], [ %tiledata.sroa.12.9.ph.i, %for.inc136.loopexit.i ]
  %doread.4.i = phi i8 [ %doread.0175.i, %for.cond37.preheader.i ], [ %doread.4.ph.i, %for.inc136.loopexit.i ]
  %keepgoing.3.i = phi i8 [ %keepgoing.2178.i, %for.cond37.preheader.i ], [ %keepgoing.3.ph.i, %for.inc136.loopexit.i ]
  %rv.6.i = phi i32 [ %rv.2179.i, %for.cond37.preheader.i ], [ %rv.6.ph.i, %for.inc136.loopexit.i ]
  %61 = load i32, ptr %curth.i, align 4
  %conv137.i = sext i32 %61 to i64
  %add138.i = add nsw i64 %cury.0177.i, %conv137.i
  %inc139.i = add nuw nsw i32 %ty.0176.i, 1
  %62 = and i8 %keepgoing.3.i, 1
  %tobool32.i = icmp ne i8 %62, 0
  %conv.i24 = sext i32 %60 to i64
  %cmp34.i = icmp slt i64 %add138.i, %conv.i24
  %63 = select i1 %tobool32.i, i1 %cmp34.i, i1 false
  br i1 %63, label %for.cond37.preheader.i, label %for.end140.i, !llvm.loop !11

for.end140.i:                                     ; preds = %for.inc136.i, %if.end30.i
  %tiledata.sroa.0.2.lcssa.i = phi ptr [ null, %if.end30.i ], [ %tiledata.sroa.0.10.i, %for.inc136.i ]
  %keepgoing.2.lcssa.i = phi i8 [ %keepgoing.1191.i, %if.end30.i ], [ %keepgoing.3.i, %for.inc136.i ]
  %rv.2.lcssa.i = phi i32 [ 0, %if.end30.i ], [ %rv.6.i, %for.inc136.i ]
  %call142.i = invoke i32 @exr_decoding_destroy(ptr noundef %f, ptr noundef nonnull %decoder.i13)
          to label %invoke.cont141.i unwind label %lpad.loopexit.split-lp.loopexit.i

invoke.cont141.i:                                 ; preds = %for.end140.i
  %tobool.not.i.i.i68.i = icmp eq ptr %tiledata.sroa.0.2.lcssa.i, null
  br i1 %tobool.not.i.i.i68.i, label %for.inc143.i, label %if.then.i.i.i69.i

if.then.i.i.i69.i:                                ; preds = %invoke.cont141.i
  call void @_ZdlPv(ptr noundef nonnull %tiledata.sroa.0.2.lcssa.i) #24
  br label %for.inc143.i

for.inc143.i:                                     ; preds = %if.then.i.i.i69.i, %invoke.cont141.i, %if.then26.i, %if.then19.i
  %keepgoing.4.i = phi i8 [ %keepgoing.1191.i, %if.then26.i ], [ %keepgoing.1191.i, %if.then19.i ], [ %keepgoing.2.lcssa.i, %invoke.cont141.i ], [ %keepgoing.2.lcssa.i, %if.then.i.i.i69.i ]
  %rv.7.i = phi i32 [ %call24.i, %if.then26.i ], [ %call17.i, %if.then19.i ], [ %rv.2.lcssa.i, %invoke.cont141.i ], [ %rv.2.lcssa.i, %if.then.i.i.i69.i ]
  %inc144.i = add nuw nsw i32 %xlevel.0190.i, 1
  %64 = and i8 %keepgoing.4.i, 1
  %tobool12.i = icmp ne i8 %64, 0
  %65 = load i32, ptr %levelsx.i, align 4
  %cmp14.i = icmp slt i32 %inc144.i, %65
  %66 = select i1 %tobool12.i, i1 %cmp14.i, i1 false
  br i1 %66, label %for.body16.i, label %for.inc146.loopexit.i, !llvm.loop !13

for.inc146.loopexit.i:                            ; preds = %for.inc143.i, %if.then26.i, %if.then19.i
  %keepgoing.5.ph.i = phi i8 [ %keepgoing.4.i, %for.inc143.i ], [ 0, %if.then19.i ], [ 0, %if.then26.i ]
  %rv.8.ph.i = phi i32 [ %rv.7.i, %for.inc143.i ], [ %call17.i, %if.then19.i ], [ %call24.i, %if.then26.i ]
  %.pre221.i = load i32, ptr %levelsy.i, align 4
  %.pre222.i = and i8 %keepgoing.5.ph.i, 1
  br label %for.inc146.i

for.inc146.i:                                     ; preds = %for.inc146.loopexit.i, %for.cond11.preheader.i
  %.pre-phi.i = phi i8 [ %.pre222.i, %for.inc146.loopexit.i ], [ %28, %for.cond11.preheader.i ]
  %67 = phi i32 [ %.pre221.i, %for.inc146.loopexit.i ], [ %27, %for.cond11.preheader.i ]
  %keepgoing.5.i = phi i8 [ %keepgoing.5.ph.i, %for.inc146.loopexit.i ], [ %keepgoing.0212.i, %for.cond11.preheader.i ]
  %rv.8.i = phi i32 [ %rv.8.ph.i, %for.inc146.loopexit.i ], [ %rv.0213.i, %for.cond11.preheader.i ]
  %inc147.i = add nuw nsw i32 %ylevel.0211.i, 1
  %tobool.i = icmp ne i8 %.pre-phi.i, 0
  %cmp10.i = icmp slt i32 %inc147.i, %67
  %68 = select i1 %tobool.i, i1 %cmp10.i, i1 false
  br i1 %68, label %for.cond11.preheader.i, label %_ZN7Imf_3_212_GLOBAL__N_117readCoreTiledPartEP19_priv_exr_context_tibb.exit, !llvm.loop !14

_ZN7Imf_3_212_GLOBAL__N_117readCoreTiledPartEP19_priv_exr_context_tibb.exit.thread: ; preds = %if.then18, %if.end.i16, %if.end5.i
  call void @llvm.lifetime.end.p0(i64 16, ptr nonnull %datawin.i11)
  call void @llvm.lifetime.end.p0(i64 4, ptr nonnull %txsz.i)
  call void @llvm.lifetime.end.p0(i64 4, ptr nonnull %tysz.i)
  call void @llvm.lifetime.end.p0(i64 4, ptr nonnull %levelmode.i)
  call void @llvm.lifetime.end.p0(i64 4, ptr nonnull %roundingmode.i)
  call void @llvm.lifetime.end.p0(i64 4, ptr nonnull %levelsx.i)
  call void @llvm.lifetime.end.p0(i64 4, ptr nonnull %levelsy.i)
  call void @llvm.lifetime.end.p0(i64 4, ptr nonnull %levw.i)
  call void @llvm.lifetime.end.p0(i64 4, ptr nonnull %levh.i)
  call void @llvm.lifetime.end.p0(i64 4, ptr nonnull %curtw.i)
  call void @llvm.lifetime.end.p0(i64 4, ptr nonnull %curth.i)
  call void @llvm.lifetime.end.p0(i64 64, ptr nonnull %cinfo.i12)
  call void @llvm.lifetime.end.p0(i64 480, ptr nonnull %decoder.i13)
  br label %return

_ZN7Imf_3_212_GLOBAL__N_117readCoreTiledPartEP19_priv_exr_context_tibb.exit: ; preds = %for.inc146.i
  %.not = icmp eq i32 %rv.8.i, 0
  call void @llvm.lifetime.end.p0(i64 16, ptr nonnull %datawin.i11)
  call void @llvm.lifetime.end.p0(i64 4, ptr nonnull %txsz.i)
  call void @llvm.lifetime.end.p0(i64 4, ptr nonnull %tysz.i)
  call void @llvm.lifetime.end.p0(i64 4, ptr nonnull %levelmode.i)
  call void @llvm.lifetime.end.p0(i64 4, ptr nonnull %roundingmode.i)
  call void @llvm.lifetime.end.p0(i64 4, ptr nonnull %levelsx.i)
  call void @llvm.lifetime.end.p0(i64 4, ptr nonnull %levelsy.i)
  call void @llvm.lifetime.end.p0(i64 4, ptr nonnull %levw.i)
  call void @llvm.lifetime.end.p0(i64 4, ptr nonnull %levh.i)
  call void @llvm.lifetime.end.p0(i64 4, ptr nonnull %curtw.i)
  call void @llvm.lifetime.end.p0(i64 4, ptr nonnull %curth.i)
  call void @llvm.lifetime.end.p0(i64 64, ptr nonnull %cinfo.i12)
  call void @llvm.lifetime.end.p0(i64 480, ptr nonnull %decoder.i13)
  br i1 %.not, label %for.inc, label %return

for.inc:                                          ; preds = %_ZN7Imf_3_212_GLOBAL__N_117readCoreTiledPartEP19_priv_exr_context_tibb.exit.thread90, %if.then.i.i.i47.i, %if.end10, %_ZN7Imf_3_212_GLOBAL__N_120readCoreScanlinePartEP19_priv_exr_context_tibb.exit, %_ZN7Imf_3_212_GLOBAL__N_117readCoreTiledPartEP19_priv_exr_context_tibb.exit, %if.end6
  %inc = add nuw nsw i32 %p.099, 1
  %69 = load i32, ptr %numparts, align 4
  %cmp2 = icmp slt i32 %inc, %69
  br i1 %cmp2, label %for.body, label %return, !llvm.loop !15

return:                                           ; preds = %for.body, %_ZN7Imf_3_212_GLOBAL__N_120readCoreScanlinePartEP19_priv_exr_context_tibb.exit, %_ZN7Imf_3_212_GLOBAL__N_117readCoreTiledPartEP19_priv_exr_context_tibb.exit, %for.inc, %if.then.i.i.i47.i, %for.cond.preheader, %_ZN7Imf_3_212_GLOBAL__N_117readCoreTiledPartEP19_priv_exr_context_tibb.exit.thread, %_ZN7Imf_3_212_GLOBAL__N_120readCoreScanlinePartEP19_priv_exr_context_tibb.exit.thread, %entry
  %retval.0 = phi i1 [ true, %entry ], [ true, %_ZN7Imf_3_212_GLOBAL__N_120readCoreScanlinePartEP19_priv_exr_context_tibb.exit.thread ], [ true, %_ZN7Imf_3_212_GLOBAL__N_117readCoreTiledPartEP19_priv_exr_context_tibb.exit.thread ], [ false, %for.cond.preheader ], [ true, %for.body ], [ true, %_ZN7Imf_3_212_GLOBAL__N_120readCoreScanlinePartEP19_priv_exr_context_tibb.exit ], [ true, %_ZN7Imf_3_212_GLOBAL__N_117readCoreTiledPartEP19_priv_exr_context_tibb.exit ], [ false, %for.inc ], [ true, %if.then.i.i.i47.i ]
  ret i1 %retval.0
}

declare i32 @exr_finish(ptr noundef) local_unnamed_addr #0

; Function Attrs: nofree nounwind memory(read)
declare noundef ptr @getenv(ptr nocapture noundef) local_unnamed_addr #6

declare i32 @exr_get_file_name(ptr noundef, ptr noundef) local_unnamed_addr #0

; Function Attrs: nofree nounwind
declare noundef i32 @fprintf(ptr nocapture noundef, ptr nocapture noundef readonly, ...) local_unnamed_addr #7

declare ptr @exr_get_error_code_as_string(i32 noundef) local_unnamed_addr #0

declare i32 @exr_get_count(ptr noundef, ptr noundef) local_unnamed_addr #0

declare i32 @exr_get_storage(ptr noundef, i32 noundef, ptr noundef) local_unnamed_addr #0

declare i32 @exr_get_data_window(ptr noundef, i32 noundef, ptr noundef) local_unnamed_addr #0

declare i32 @exr_get_scanlines_per_chunk(ptr noundef, i32 noundef, ptr noundef) local_unnamed_addr #0

declare i32 @exr_read_scanline_chunk_info(ptr noundef, i32 noundef, i32 noundef, ptr noundef) local_unnamed_addr #0

declare i32 @exr_decoding_initialize(ptr noundef, i32 noundef, ptr noundef, ptr noundef) local_unnamed_addr #0

declare i32 @exr_decoding_choose_default_routines(ptr noundef, i32 noundef, ptr noundef) local_unnamed_addr #0

declare i32 @exr_decoding_update(ptr noundef, i32 noundef, ptr noundef, ptr noundef) local_unnamed_addr #0

declare i32 @exr_decoding_run(ptr noundef, i32 noundef, ptr noundef) local_unnamed_addr #0

declare i32 @exr_decoding_destroy(ptr noundef, ptr noundef) local_unnamed_addr #0

declare ptr @__cxa_begin_catch(ptr) local_unnamed_addr

declare void @__cxa_end_catch() local_unnamed_addr

; Function Attrs: noreturn nounwind uwtable
define linkonce_odr hidden void @__clang_call_terminate(ptr noundef %0) local_unnamed_addr #8 comdat {
  %2 = tail call ptr @__cxa_begin_catch(ptr %0) #22
  tail call void @_ZSt9terminatev() #27
  unreachable
}

declare void @_ZSt9terminatev() local_unnamed_addr

; Function Attrs: noreturn
declare void @_ZSt20__throw_length_errorPKc(ptr noundef) local_unnamed_addr #9

; Function Attrs: nobuiltin allocsize(0)
declare noundef nonnull ptr @_Znwm(i64 noundef) local_unnamed_addr #10

; Function Attrs: nobuiltin nounwind
declare void @_ZdlPv(ptr noundef) local_unnamed_addr #11

; Function Attrs: mustprogress nocallback nofree nounwind willreturn memory(argmem: readwrite)
declare void @llvm.memmove.p0.p0.i64(ptr nocapture writeonly, ptr nocapture readonly, i64, i1 immarg) #12

declare i32 @exr_get_tile_descriptor(ptr noundef, i32 noundef, ptr noundef, ptr noundef, ptr noundef, ptr noundef) local_unnamed_addr #0

declare i32 @exr_get_tile_levels(ptr noundef, i32 noundef, ptr noundef, ptr noundef) local_unnamed_addr #0

declare i32 @exr_get_level_sizes(ptr noundef, i32 noundef, i32 noundef, i32 noundef, ptr noundef, ptr noundef) local_unnamed_addr #0

declare i32 @exr_get_tile_sizes(ptr noundef, i32 noundef, i32 noundef, i32 noundef, ptr noundef, ptr noundef) local_unnamed_addr #0

declare i32 @exr_read_tile_chunk_info(ptr noundef, i32 noundef, i32 noundef, i32 noundef, i32 noundef, i32 noundef, ptr noundef) local_unnamed_addr #0

; Function Attrs: mustprogress nofree nosync nounwind willreturn memory(readwrite, inaccessiblemem: none) uwtable
define internal noundef i64 @_ZN7Imf_3_212_GLOBAL__N_114memstream_readEPK19_priv_exr_context_tPvS4_mmPFiS3_iPKczE(ptr nocapture readnone %f, ptr noundef readonly %userdata, ptr nocapture noundef writeonly %buffer, i64 noundef %sz, i64 noundef %offset, ptr nocapture readnone %errcb) #13 {
entry:
  %tobool.not = icmp eq ptr %userdata, null
  br i1 %tobool.not, label %if.end13, label %if.then

if.then:                                          ; preds = %entry
  %bytes = getelementptr inbounds i8, ptr %userdata, i64 8
  %0 = load i64, ptr %bytes, align 8
  %cmp = icmp ult i64 %0, %offset
  %cmp2 = icmp ult i64 %0, %sz
  %or.cond = or i1 %cmp, %cmp2
  %add = add i64 %offset, %sz
  %cmp5 = icmp ugt i64 %add, %0
  %or.cond16 = or i1 %cmp5, %or.cond
  br i1 %or.cond16, label %if.then6, label %if.end

if.then6:                                         ; preds = %if.then
  %cmp8 = icmp ugt i64 %0, %offset
  %sub = sub i64 %0, %offset
  br i1 %cmp8, label %if.end, label %if.end13

if.end:                                           ; preds = %if.then6, %if.then
  %left.0 = phi i64 [ %sz, %if.then ], [ %sub, %if.then6 ]
  %cmp10.not = icmp eq i64 %left.0, 0
  br i1 %cmp10.not, label %if.end13, label %if.then11

if.then11:                                        ; preds = %if.end
  %1 = load ptr, ptr %userdata, align 8
  %add.ptr = getelementptr inbounds i8, ptr %1, i64 %offset
  tail call void @llvm.memcpy.p0.p0.i64(ptr align 1 %buffer, ptr align 1 %add.ptr, i64 %left.0, i1 false)
  br label %if.end13

if.end13:                                         ; preds = %if.then6, %if.end, %if.then11, %entry
  %rdsz.0 = phi i64 [ -1, %entry ], [ %left.0, %if.then11 ], [ 0, %if.end ], [ 0, %if.then6 ]
  ret i64 %rdsz.0
}

; Function Attrs: mustprogress nofree norecurse nosync nounwind willreturn memory(argmem: read) uwtable
define internal noundef i64 @_ZN7Imf_3_212_GLOBAL__N_114memstream_sizeEPK19_priv_exr_context_tPv(ptr nocapture readnone %ctxt, ptr noundef readonly %userdata) #14 {
entry:
  %tobool.not = icmp eq ptr %userdata, null
  br i1 %tobool.not, label %return, label %if.then

if.then:                                          ; preds = %entry
  %bytes = getelementptr inbounds i8, ptr %userdata, i64 8
  %0 = load i64, ptr %bytes, align 8
  br label %return

return:                                           ; preds = %entry, %if.then
  %retval.0 = phi i64 [ %0, %if.then ], [ -1, %entry ]
  ret i64 %retval.0
}

; Function Attrs: mustprogress nocallback nofree nounwind willreturn memory(argmem: readwrite)
declare void @llvm.memcpy.p0.p0.i64(ptr noalias nocapture writeonly, ptr noalias nocapture readonly, i64, i1 immarg) #12

declare void @_ZN7Imf_3_27IStreamC2EPKc(ptr noundef nonnull align 8 dereferenceable(40), ptr noundef) unnamed_addr #0

; Function Attrs: mustprogress nounwind uwtable
define internal void @_ZN7Imf_3_212_GLOBAL__N_110PtrIStreamD0Ev(ptr noundef nonnull align 8 dereferenceable(64) %this) unnamed_addr #4 align 2 {
entry:
  tail call void @_ZN7Imf_3_27IStreamD2Ev(ptr noundef nonnull align 8 dereferenceable(40) %this) #22
  tail call void @_ZdlPv(ptr noundef nonnull %this) #24
  ret void
}

; Function Attrs: mustprogress nofree norecurse nosync nounwind willreturn memory(none) uwtable
define internal noundef zeroext i1 @_ZNK7Imf_3_212_GLOBAL__N_110PtrIStream14isMemoryMappedEv(ptr nocapture nonnull readnone align 8 %this) unnamed_addr #15 align 2 {
entry:
  ret i1 false
}

; Function Attrs: mustprogress uwtable
define internal noundef zeroext i1 @_ZN7Imf_3_212_GLOBAL__N_110PtrIStream4readEPci(ptr nocapture noundef nonnull align 8 dereferenceable(64) %this, ptr nocapture noundef writeonly %c, i32 noundef %n) unnamed_addr #3 align 2 personality ptr @__gxx_personality_v0 {
entry:
  %_iex_throw_s = alloca %"class.std::__cxx11::basic_stringstream", align 8
  %_iex_throw_s10 = alloca %"class.std::__cxx11::basic_stringstream", align 8
  %cmp = icmp slt i32 %n, 0
  br i1 %cmp, label %do.body, label %if.end

do.body:                                          ; preds = %entry
  tail call void @_Z13iex_debugTrapv()
  call void @_ZNSt7__cxx1118basic_stringstreamIcSt11char_traitsIcESaIcEEC1Ev(ptr noundef nonnull align 8 dereferenceable(128) %_iex_throw_s)
  %add.ptr = getelementptr inbounds i8, ptr %_iex_throw_s, i64 16
  %call = invoke noundef nonnull align 8 dereferenceable(8) ptr @_ZNSolsEi(ptr noundef nonnull align 8 dereferenceable(8) %add.ptr, i32 noundef %n)
          to label %invoke.cont unwind label %lpad

invoke.cont:                                      ; preds = %do.body
  %call3 = invoke noundef nonnull align 8 dereferenceable(8) ptr @_ZStlsISt11char_traitsIcEERSt13basic_ostreamIcT_ES5_PKc(ptr noundef nonnull align 8 dereferenceable(8) %call, ptr noundef nonnull @.str.14)
          to label %invoke.cont2 unwind label %lpad

invoke.cont2:                                     ; preds = %invoke.cont
  %exception = call ptr @__cxa_allocate_exception(i64 72) #22
  invoke void @_ZN7Iex_3_28InputExcC1ERNSt7__cxx1118basic_stringstreamIcSt11char_traitsIcESaIcEEE(ptr noundef nonnull align 8 dereferenceable(72) %exception, ptr noundef nonnull align 8 dereferenceable(128) %_iex_throw_s)
          to label %invoke.cont5 unwind label %lpad4

invoke.cont5:                                     ; preds = %invoke.cont2
  invoke void @__cxa_throw(ptr nonnull %exception, ptr nonnull @_ZTIN7Iex_3_28InputExcE, ptr nonnull @_ZN7Iex_3_28InputExcD1Ev) #25
          to label %unreachable unwind label %lpad

lpad:                                             ; preds = %invoke.cont5, %invoke.cont, %do.body
  %0 = landingpad { ptr, i32 }
          cleanup
  br label %eh.resume

lpad4:                                            ; preds = %invoke.cont2
  %1 = landingpad { ptr, i32 }
          cleanup
  call void @__cxa_free_exception(ptr %exception) #22
  br label %eh.resume

if.end:                                           ; preds = %entry
  %current = getelementptr inbounds i8, ptr %this, i64 48
  %2 = load ptr, ptr %current, align 8
  %idx.ext = zext nneg i32 %n to i64
  %add.ptr6 = getelementptr inbounds i8, ptr %2, i64 %idx.ext
  %end = getelementptr inbounds i8, ptr %this, i64 56
  %3 = load ptr, ptr %end, align 8
  %cmp7 = icmp ugt ptr %add.ptr6, %3
  br i1 %cmp7, label %do.body9, label %if.end29

do.body9:                                         ; preds = %if.end
  tail call void @_Z13iex_debugTrapv()
  call void @_ZNSt7__cxx1118basic_stringstreamIcSt11char_traitsIcESaIcEEC1Ev(ptr noundef nonnull align 8 dereferenceable(128) %_iex_throw_s10)
  %add.ptr11 = getelementptr inbounds i8, ptr %_iex_throw_s10, i64 16
  %call14 = invoke noundef nonnull align 8 dereferenceable(8) ptr @_ZStlsISt11char_traitsIcEERSt13basic_ostreamIcT_ES5_PKc(ptr noundef nonnull align 8 dereferenceable(8) %add.ptr11, ptr noundef nonnull @.str.15)
          to label %invoke.cont13 unwind label %lpad12

invoke.cont13:                                    ; preds = %do.body9
  %4 = load ptr, ptr %end, align 8
  %5 = load ptr, ptr %current, align 8
  %add.ptr18 = getelementptr inbounds i8, ptr %5, i64 %idx.ext
  %sub.ptr.lhs.cast = ptrtoint ptr %4 to i64
  %sub.ptr.rhs.cast = ptrtoint ptr %add.ptr18 to i64
  %sub.ptr.sub = sub i64 %sub.ptr.lhs.cast, %sub.ptr.rhs.cast
  %call20 = invoke noundef nonnull align 8 dereferenceable(8) ptr @_ZNSolsEl(ptr noundef nonnull align 8 dereferenceable(8) %call14, i64 noundef %sub.ptr.sub)
          to label %invoke.cont19 unwind label %lpad12

invoke.cont19:                                    ; preds = %invoke.cont13
  %call22 = invoke noundef nonnull align 8 dereferenceable(8) ptr @_ZStlsISt11char_traitsIcEERSt13basic_ostreamIcT_ES5_PKc(ptr noundef nonnull align 8 dereferenceable(8) %call20, ptr noundef nonnull @.str.16)
          to label %invoke.cont21 unwind label %lpad12

invoke.cont21:                                    ; preds = %invoke.cont19
  %exception23 = call ptr @__cxa_allocate_exception(i64 72) #22
  invoke void @_ZN7Iex_3_28InputExcC1ERNSt7__cxx1118basic_stringstreamIcSt11char_traitsIcESaIcEEE(ptr noundef nonnull align 8 dereferenceable(72) %exception23, ptr noundef nonnull align 8 dereferenceable(128) %_iex_throw_s10)
          to label %invoke.cont25 unwind label %lpad24

invoke.cont25:                                    ; preds = %invoke.cont21
  invoke void @__cxa_throw(ptr nonnull %exception23, ptr nonnull @_ZTIN7Iex_3_28InputExcE, ptr nonnull @_ZN7Iex_3_28InputExcD1Ev) #25
          to label %unreachable unwind label %lpad12

lpad12:                                           ; preds = %invoke.cont25, %invoke.cont19, %invoke.cont13, %do.body9
  %6 = landingpad { ptr, i32 }
          cleanup
  br label %eh.resume

lpad24:                                           ; preds = %invoke.cont21
  %7 = landingpad { ptr, i32 }
          cleanup
  call void @__cxa_free_exception(ptr %exception23) #22
  br label %eh.resume

if.end29:                                         ; preds = %if.end
  tail call void @llvm.memcpy.p0.p0.i64(ptr align 1 %c, ptr align 1 %2, i64 %idx.ext, i1 false)
  %8 = load ptr, ptr %current, align 8
  %add.ptr33 = getelementptr inbounds i8, ptr %8, i64 %idx.ext
  store ptr %add.ptr33, ptr %current, align 8
  %9 = load ptr, ptr %end, align 8
  %cmp36 = icmp ne ptr %add.ptr33, %9
  ret i1 %cmp36

eh.resume:                                        ; preds = %lpad12, %lpad24, %lpad, %lpad4
  %_iex_throw_s10.sink = phi ptr [ %_iex_throw_s, %lpad4 ], [ %_iex_throw_s, %lpad ], [ %_iex_throw_s10, %lpad24 ], [ %_iex_throw_s10, %lpad12 ]
  %.pn7.pn = phi { ptr, i32 } [ %1, %lpad4 ], [ %0, %lpad ], [ %7, %lpad24 ], [ %6, %lpad12 ]
  call void @_ZNSt7__cxx1118basic_stringstreamIcSt11char_traitsIcESaIcEED1Ev(ptr noundef nonnull align 8 dereferenceable(128) %_iex_throw_s10.sink) #22
  resume { ptr, i32 } %.pn7.pn

unreachable:                                      ; preds = %invoke.cont25, %invoke.cont5
  unreachable
}

; Function Attrs: mustprogress uwtable
define internal noundef ptr @_ZN7Imf_3_212_GLOBAL__N_110PtrIStream16readMemoryMappedEi(ptr nocapture noundef nonnull align 8 dereferenceable(64) %this, i32 noundef %n) unnamed_addr #3 align 2 personality ptr @__gxx_personality_v0 {
entry:
  %_iex_throw_s = alloca %"class.std::__cxx11::basic_stringstream", align 8
  %current = getelementptr inbounds i8, ptr %this, i64 48
  %0 = load ptr, ptr %current, align 8
  %idx.ext = sext i32 %n to i64
  %add.ptr = getelementptr inbounds i8, ptr %0, i64 %idx.ext
  %end = getelementptr inbounds i8, ptr %this, i64 56
  %1 = load ptr, ptr %end, align 8
  %cmp = icmp ugt ptr %add.ptr, %1
  br i1 %cmp, label %do.body, label %if.end

do.body:                                          ; preds = %entry
  tail call void @_Z13iex_debugTrapv()
  call void @_ZNSt7__cxx1118basic_stringstreamIcSt11char_traitsIcESaIcEEC1Ev(ptr noundef nonnull align 8 dereferenceable(128) %_iex_throw_s)
  %add.ptr2 = getelementptr inbounds i8, ptr %_iex_throw_s, i64 16
  %call = invoke noundef nonnull align 8 dereferenceable(8) ptr @_ZStlsISt11char_traitsIcEERSt13basic_ostreamIcT_ES5_PKc(ptr noundef nonnull align 8 dereferenceable(8) %add.ptr2, ptr noundef nonnull @.str.15)
          to label %invoke.cont unwind label %lpad

invoke.cont:                                      ; preds = %do.body
  %2 = load ptr, ptr %end, align 8
  %3 = load ptr, ptr %current, align 8
  %add.ptr6 = getelementptr inbounds i8, ptr %3, i64 %idx.ext
  %sub.ptr.lhs.cast = ptrtoint ptr %2 to i64
  %sub.ptr.rhs.cast = ptrtoint ptr %add.ptr6 to i64
  %sub.ptr.sub = sub i64 %sub.ptr.lhs.cast, %sub.ptr.rhs.cast
  %call8 = invoke noundef nonnull align 8 dereferenceable(8) ptr @_ZNSolsEl(ptr noundef nonnull align 8 dereferenceable(8) %call, i64 noundef %sub.ptr.sub)
          to label %invoke.cont7 unwind label %lpad

invoke.cont7:                                     ; preds = %invoke.cont
  %call10 = invoke noundef nonnull align 8 dereferenceable(8) ptr @_ZStlsISt11char_traitsIcEERSt13basic_ostreamIcT_ES5_PKc(ptr noundef nonnull align 8 dereferenceable(8) %call8, ptr noundef nonnull @.str.16)
          to label %invoke.cont9 unwind label %lpad

invoke.cont9:                                     ; preds = %invoke.cont7
  %exception = call ptr @__cxa_allocate_exception(i64 72) #22
  invoke void @_ZN7Iex_3_28InputExcC1ERNSt7__cxx1118basic_stringstreamIcSt11char_traitsIcESaIcEEE(ptr noundef nonnull align 8 dereferenceable(72) %exception, ptr noundef nonnull align 8 dereferenceable(128) %_iex_throw_s)
          to label %invoke.cont12 unwind label %lpad11

invoke.cont12:                                    ; preds = %invoke.cont9
  invoke void @__cxa_throw(ptr nonnull %exception, ptr nonnull @_ZTIN7Iex_3_28InputExcE, ptr nonnull @_ZN7Iex_3_28InputExcD1Ev) #25
          to label %unreachable unwind label %lpad

lpad:                                             ; preds = %invoke.cont12, %invoke.cont7, %invoke.cont, %do.body
  %4 = landingpad { ptr, i32 }
          cleanup
  br label %ehcleanup

lpad11:                                           ; preds = %invoke.cont9
  %5 = landingpad { ptr, i32 }
          cleanup
  call void @__cxa_free_exception(ptr %exception) #22
  br label %ehcleanup

ehcleanup:                                        ; preds = %lpad11, %lpad
  %.pn = phi { ptr, i32 } [ %4, %lpad ], [ %5, %lpad11 ]
  call void @_ZNSt7__cxx1118basic_stringstreamIcSt11char_traitsIcESaIcEED1Ev(ptr noundef nonnull align 8 dereferenceable(128) %_iex_throw_s) #22
  resume { ptr, i32 } %.pn

if.end:                                           ; preds = %entry
  store ptr %add.ptr, ptr %current, align 8
  ret ptr %0

unreachable:                                      ; preds = %invoke.cont12
  unreachable
}

; Function Attrs: mustprogress nofree norecurse nosync nounwind willreturn memory(argmem: read) uwtable
define internal noundef i64 @_ZN7Imf_3_212_GLOBAL__N_110PtrIStream5tellgEv(ptr nocapture noundef nonnull readonly align 8 dereferenceable(64) %this) unnamed_addr #14 align 2 {
entry:
  %current = getelementptr inbounds i8, ptr %this, i64 48
  %0 = load ptr, ptr %current, align 8
  %base = getelementptr inbounds i8, ptr %this, i64 40
  %1 = load ptr, ptr %base, align 8
  %sub.ptr.lhs.cast = ptrtoint ptr %0 to i64
  %sub.ptr.rhs.cast = ptrtoint ptr %1 to i64
  %sub.ptr.sub = sub i64 %sub.ptr.lhs.cast, %sub.ptr.rhs.cast
  ret i64 %sub.ptr.sub
}

; Function Attrs: mustprogress uwtable
define internal void @_ZN7Imf_3_212_GLOBAL__N_110PtrIStream5seekgEm(ptr nocapture noundef nonnull align 8 dereferenceable(64) %this, i64 noundef %pos) unnamed_addr #3 align 2 personality ptr @__gxx_personality_v0 {
entry:
  %_iex_throw_s14 = alloca %"class.std::__cxx11::basic_stringstream", align 8
  %base = getelementptr inbounds i8, ptr %this, i64 40
  %0 = load ptr, ptr %base, align 8
  %add.ptr8 = getelementptr inbounds i8, ptr %0, i64 %pos
  %cmp10 = icmp slt i64 %pos, 0
  %end = getelementptr inbounds i8, ptr %this, i64 56
  %1 = load ptr, ptr %end, align 8
  %cmp11 = icmp ugt ptr %add.ptr8, %1
  %or.cond = select i1 %cmp10, i1 true, i1 %cmp11
  br i1 %or.cond, label %do.body13, label %if.end25

do.body13:                                        ; preds = %entry
  tail call void @_Z13iex_debugTrapv()
  call void @_ZNSt7__cxx1118basic_stringstreamIcSt11char_traitsIcESaIcEEC1Ev(ptr noundef nonnull align 8 dereferenceable(128) %_iex_throw_s14)
  %add.ptr15 = getelementptr inbounds i8, ptr %_iex_throw_s14, i64 16
  %call18 = invoke noundef nonnull align 8 dereferenceable(8) ptr @_ZStlsISt11char_traitsIcEERSt13basic_ostreamIcT_ES5_PKc(ptr noundef nonnull align 8 dereferenceable(8) %add.ptr15, ptr noundef nonnull @.str.19)
          to label %invoke.cont17 unwind label %lpad16

invoke.cont17:                                    ; preds = %do.body13
  %exception19 = call ptr @__cxa_allocate_exception(i64 72) #22
  invoke void @_ZN7Iex_3_28InputExcC1ERNSt7__cxx1118basic_stringstreamIcSt11char_traitsIcESaIcEEE(ptr noundef nonnull align 8 dereferenceable(72) %exception19, ptr noundef nonnull align 8 dereferenceable(128) %_iex_throw_s14)
          to label %invoke.cont21 unwind label %lpad20

invoke.cont21:                                    ; preds = %invoke.cont17
  invoke void @__cxa_throw(ptr nonnull %exception19, ptr nonnull @_ZTIN7Iex_3_28InputExcE, ptr nonnull @_ZN7Iex_3_28InputExcD1Ev) #25
          to label %unreachable unwind label %lpad16

lpad16:                                           ; preds = %invoke.cont21, %do.body13
  %2 = landingpad { ptr, i32 }
          cleanup
  br label %ehcleanup23

lpad20:                                           ; preds = %invoke.cont17
  %3 = landingpad { ptr, i32 }
          cleanup
  call void @__cxa_free_exception(ptr %exception19) #22
  br label %ehcleanup23

ehcleanup23:                                      ; preds = %lpad20, %lpad16
  %.pn = phi { ptr, i32 } [ %2, %lpad16 ], [ %3, %lpad20 ]
  call void @_ZNSt7__cxx1118basic_stringstreamIcSt11char_traitsIcESaIcEED1Ev(ptr noundef nonnull align 8 dereferenceable(128) %_iex_throw_s14) #22
  resume { ptr, i32 } %.pn

if.end25:                                         ; preds = %entry
  %current = getelementptr inbounds i8, ptr %this, i64 48
  store ptr %add.ptr8, ptr %current, align 8
  ret void

unreachable:                                      ; preds = %invoke.cont21
  unreachable
}

declare void @_ZN7Imf_3_27IStream5clearEv(ptr noundef nonnull align 8 dereferenceable(40)) unnamed_addr #0

declare void @_Z13iex_debugTrapv() local_unnamed_addr #0

declare void @_ZNSt7__cxx1118basic_stringstreamIcSt11char_traitsIcESaIcEEC1Ev(ptr noundef nonnull align 8 dereferenceable(128)) unnamed_addr #0

declare noundef nonnull align 8 dereferenceable(8) ptr @_ZStlsISt11char_traitsIcEERSt13basic_ostreamIcT_ES5_PKc(ptr noundef nonnull align 8 dereferenceable(8), ptr noundef) local_unnamed_addr #0

declare noundef nonnull align 8 dereferenceable(8) ptr @_ZNSolsEi(ptr noundef nonnull align 8 dereferenceable(8), i32 noundef) local_unnamed_addr #0

declare ptr @__cxa_allocate_exception(i64) local_unnamed_addr

declare void @_ZN7Iex_3_28InputExcC1ERNSt7__cxx1118basic_stringstreamIcSt11char_traitsIcESaIcEEE(ptr noundef nonnull align 8 dereferenceable(72), ptr noundef nonnull align 8 dereferenceable(128)) unnamed_addr #0

declare void @__cxa_free_exception(ptr) local_unnamed_addr

; Function Attrs: nounwind
declare void @_ZN7Iex_3_28InputExcD1Ev(ptr noundef nonnull align 8 dereferenceable(72)) unnamed_addr #1

declare void @__cxa_throw(ptr, ptr, ptr) local_unnamed_addr

; Function Attrs: nounwind
declare void @_ZNSt7__cxx1118basic_stringstreamIcSt11char_traitsIcESaIcEED1Ev(ptr noundef nonnull align 8 dereferenceable(128)) unnamed_addr #1

declare noundef nonnull align 8 dereferenceable(8) ptr @_ZNSolsEl(ptr noundef nonnull align 8 dereferenceable(8), i64 noundef) local_unnamed_addr #0

; Function Attrs: nounwind
declare void @_ZN7Imf_3_27IStreamD2Ev(ptr noundef nonnull align 8 dereferenceable(40)) unnamed_addr #1

declare noundef ptr @_ZNSt7__cxx1112basic_stringIcSt11char_traitsIcESaIcEE13_M_local_dataEv(ptr noundef nonnull align 8 dereferenceable(32)) local_unnamed_addr #0

declare void @_ZNSt7__cxx1112basic_stringIcSt11char_traitsIcESaIcEE12_Alloc_hiderC1EPcRKS3_(ptr noundef nonnull align 8 dereferenceable(8), ptr noundef, ptr noundef nonnull align 1 dereferenceable(1)) unnamed_addr #0

; Function Attrs: nounwind
declare void @_ZNSt7__cxx1112basic_stringIcSt11char_traitsIcESaIcEE13_S_copy_charsEPcPKcS7_(ptr noundef, ptr noundef, ptr noundef) local_unnamed_addr #1

declare noundef ptr @_ZNKSt7__cxx1112basic_stringIcSt11char_traitsIcESaIcEE7_M_dataEv(ptr noundef nonnull align 8 dereferenceable(32)) local_unnamed_addr #0

declare void @_ZNSt7__cxx1112basic_stringIcSt11char_traitsIcESaIcEE13_M_set_lengthEm(ptr noundef nonnull align 8 dereferenceable(32), i64 noundef) local_unnamed_addr #0

; Function Attrs: mustprogress nounwind uwtable
define linkonce_odr hidden void @_ZZNSt7__cxx1112basic_stringIcSt11char_traitsIcESaIcEE12_M_constructIPKcEEvT_S8_St20forward_iterator_tagEN6_GuardD2Ev(ptr noundef nonnull align 8 dereferenceable(8) %this) unnamed_addr #4 comdat align 2 personality ptr @__gxx_personality_v0 {
entry:
  %0 = load ptr, ptr %this, align 8
  %tobool.not = icmp eq ptr %0, null
  br i1 %tobool.not, label %if.end, label %if.then

if.then:                                          ; preds = %entry
  invoke void @_ZNSt7__cxx1112basic_stringIcSt11char_traitsIcESaIcEE10_M_disposeEv(ptr noundef nonnull align 8 dereferenceable(32) %0)
          to label %if.end unwind label %terminate.lpad

if.end:                                           ; preds = %if.then, %entry
  ret void

terminate.lpad:                                   ; preds = %if.then
  %1 = landingpad { ptr, i32 }
          catch ptr null
  %2 = extractvalue { ptr, i32 } %1, 0
  tail call void @__clang_call_terminate(ptr %2) #27
  unreachable
}

declare void @_ZNSt7__cxx1112basic_stringIcSt11char_traitsIcESaIcEE10_M_disposeEv(ptr noundef nonnull align 8 dereferenceable(32)) local_unnamed_addr #0

; Function Attrs: nounwind
declare void @_ZNSaIcED2Ev(ptr noundef nonnull align 1 dereferenceable(1)) unnamed_addr #1

declare noundef i64 @_ZN7Imf_3_221CompositeDeepScanLine21getMaximumSampleCountEv() local_unnamed_addr #0

declare void @_ZN7Imf_3_26Header15getMaxImageSizeERiS1_(ptr noundef nonnull align 4 dereferenceable(4), ptr noundef nonnull align 4 dereferenceable(4)) local_unnamed_addr #0

declare void @_ZN7Imf_3_221CompositeDeepScanLine21setMaximumSampleCountEl(i64 noundef) local_unnamed_addr #0

declare void @_ZN7Imf_3_26Header15setMaxImageSizeEii(i32 noundef, i32 noundef) local_unnamed_addr #0

declare void @_ZN7Imf_3_26Header14setMaxTileSizeEii(i32 noundef, i32 noundef) local_unnamed_addr #0

; Function Attrs: nounwind
declare void @_ZNSt7__cxx1112basic_stringIcSt11char_traitsIcESaIcEEC1Ev(ptr noundef nonnull align 8 dereferenceable(32)) unnamed_addr #1

declare noundef i32 @_ZN7Imf_3_217globalThreadCountEv() local_unnamed_addr #0

declare void @_ZN7Imf_3_218MultiPartInputFileC1EPKcib(ptr noundef nonnull align 8 dereferenceable(16), ptr noundef, i32 noundef, i1 noundef zeroext) unnamed_addr #0

declare noundef nonnull align 8 dereferenceable(49) ptr @_ZNK7Imf_3_218MultiPartInputFile6headerEi(ptr noundef nonnull align 8 dereferenceable(16), i32 noundef) local_unnamed_addr #0

declare noundef nonnull align 8 dereferenceable(32) ptr @_ZNK7Imf_3_26Header4typeB5cxx11Ev(ptr noundef nonnull align 8 dereferenceable(49)) local_unnamed_addr #0

declare noundef nonnull align 8 dereferenceable(32) ptr @_ZNSt7__cxx1112basic_stringIcSt11char_traitsIcESaIcEEaSERKS4_(ptr noundef nonnull align 8 dereferenceable(32), ptr noundef nonnull align 8 dereferenceable(32)) local_unnamed_addr #0

declare noundef zeroext i1 @_ZN7Imf_3_27isTiledERKNSt7__cxx1112basic_stringIcSt11char_traitsIcESaIcEEE(ptr noundef nonnull align 8 dereferenceable(32)) local_unnamed_addr #0

declare noundef nonnull align 4 dereferenceable(16) ptr @_ZNK7Imf_3_26Header15tileDescriptionEv(ptr noundef nonnull align 8 dereferenceable(49)) local_unnamed_addr #0

declare noundef i64 @_ZN7Imf_3_222calculateBytesPerPixelERKNS_6HeaderE(ptr noundef nonnull align 8 dereferenceable(49)) local_unnamed_addr #0

; Function Attrs: mustprogress uwtable
define internal fastcc noundef zeroext i1 @_ZN7Imf_3_212_GLOBAL__N_113readMultiPartERNS_18MultiPartInputFileEbb(ptr noundef nonnull align 8 dereferenceable(16) %in, i1 noundef zeroext %reduceMemory, i1 noundef zeroext %reduceTime) unnamed_addr #3 personality ptr @__gxx_personality_v0 {
entry:
  %frameBuffer.i195 = alloca %"class.Imf_3_2::DeepFrameBuffer", align 8
  %ref.tmp48.i196 = alloca %"struct.Imf_3_2::Slice", align 8
  %ref.tmp76.i = alloca %"struct.Imf_3_2::DeepSlice", align 8
  %data.i = alloca %"class.Imf_3_2::Array.37", align 8
  %frameBuffer.i = alloca %"class.Imf_3_2::DeepFrameBuffer", align 8
  %ref.tmp43.i = alloca %"struct.Imf_3_2::Slice", align 8
  %ref.tmp72.i = alloca %"struct.Imf_3_2::DeepSlice", align 8
  %pixelBuffer.i = alloca %"class.std::vector.18", align 8
  %i.i67 = alloca %"class.Imf_3_2::FrameBuffer", align 8
  %ref.tmp49.i = alloca %"struct.Imf_3_2::Slice", align 8
  %ref.tmp62.i = alloca %"struct.Imf_3_2::Slice", align 8
  %ref.tmp78.i = alloca %"struct.Imf_3_2::Slice", align 8
  %i.i = alloca %"class.Imf_3_2::FrameBuffer", align 8
  %ref.tmp48.i = alloca %"struct.Imf_3_2::Slice", align 8
  %ref.tmp64.i = alloca %"struct.Imf_3_2::Slice", align 8
  %ref.tmp83.i = alloca %"struct.Imf_3_2::Slice", align 8
  %pt = alloca %"class.Imf_3_2::InputPart", align 8
  %pt68 = alloca %"class.Imf_3_2::TiledInputPart", align 8
  %pt93 = alloca %"class.Imf_3_2::DeepScanLineInputPart", align 8
  %pt118 = alloca %"class.Imf_3_2::DeepTiledInputPart", align 8
  %call823 = tail call noundef i32 @_ZNK7Imf_3_218MultiPartInputFile5partsEv(ptr noundef nonnull align 8 dereferenceable(16) %in)
  %cmp824 = icmp sgt i32 %call823, 0
  br i1 %cmp824, label %for.body.lr.ph, label %for.end

for.body.lr.ph:                                   ; preds = %entry
  %0 = getelementptr inbounds i8, ptr %i.i, i64 8
  %_M_parent.i.i.i.i.i.i.i = getelementptr inbounds i8, ptr %i.i, i64 16
  %_M_left.i.i.i.i.i.i.i = getelementptr inbounds i8, ptr %i.i, i64 24
  %_M_right.i.i.i.i.i.i.i = getelementptr inbounds i8, ptr %i.i, i64 32
  %_M_node_count.i.i.i.i.i.i.i = getelementptr inbounds i8, ptr %i.i, i64 40
  %1 = getelementptr inbounds i8, ptr %i.i67, i64 8
  %_M_parent.i.i.i.i.i.i.i91 = getelementptr inbounds i8, ptr %i.i67, i64 16
  %_M_left.i.i.i.i.i.i.i92 = getelementptr inbounds i8, ptr %i.i67, i64 24
  %_M_right.i.i.i.i.i.i.i93 = getelementptr inbounds i8, ptr %i.i67, i64 32
  %_M_node_count.i.i.i.i.i.i.i94 = getelementptr inbounds i8, ptr %i.i67, i64 40
  %_data.i55.i = getelementptr inbounds i8, ptr %data.i, i64 8
  %2 = getelementptr inbounds i8, ptr %frameBuffer.i, i64 8
  %_M_parent.i.i.i.i.i.i.i169 = getelementptr inbounds i8, ptr %frameBuffer.i, i64 16
  %_M_left.i.i.i.i.i.i.i170 = getelementptr inbounds i8, ptr %frameBuffer.i, i64 24
  %_M_right.i.i.i.i.i.i.i171 = getelementptr inbounds i8, ptr %frameBuffer.i, i64 32
  %_M_node_count.i.i.i.i.i.i.i172 = getelementptr inbounds i8, ptr %frameBuffer.i, i64 40
  %_sampleCounts.i.i = getelementptr inbounds i8, ptr %frameBuffer.i, i64 48
  %_M_finish.i.i.i = getelementptr inbounds i8, ptr %pixelBuffer.i, i64 8
  %3 = getelementptr inbounds i8, ptr %frameBuffer.i195, i64 8
  %_M_parent.i.i.i.i.i.i.i229 = getelementptr inbounds i8, ptr %frameBuffer.i195, i64 16
  %_M_left.i.i.i.i.i.i.i230 = getelementptr inbounds i8, ptr %frameBuffer.i195, i64 24
  %_M_right.i.i.i.i.i.i.i231 = getelementptr inbounds i8, ptr %frameBuffer.i195, i64 32
  %_M_node_count.i.i.i.i.i.i.i232 = getelementptr inbounds i8, ptr %frameBuffer.i195, i64 40
  %_sampleCounts.i.i233 = getelementptr inbounds i8, ptr %frameBuffer.i195, i64 48
  %reduceTime.not.i250 = xor i1 %reduceTime, true
  br label %for.body

for.body:                                         ; preds = %for.body.lr.ph, %for.inc
  %threw.0826 = phi i8 [ 0, %for.body.lr.ph ], [ %threw.5, %for.inc ]
  %part.0825 = phi i32 [ 0, %for.body.lr.ph ], [ %inc, %for.inc ]
  %call2 = call noundef nonnull align 8 dereferenceable(49) ptr @_ZNK7Imf_3_218MultiPartInputFile6headerEi(ptr noundef nonnull align 8 dereferenceable(16) %in, i32 noundef %part.0825)
  %call.i = call noundef zeroext i1 @_ZN7Imf_3_29hasEnvmapERKNS_6HeaderE(ptr noundef nonnull align 8 dereferenceable(49) %call2)
  br i1 %call.i, label %if.then.i, label %if.end4.i

if.then.i:                                        ; preds = %for.body
  %call1.i = call noundef nonnull align 4 dereferenceable(4) ptr @_ZN7Imf_3_26envmapERKNS_6HeaderE(ptr noundef nonnull align 8 dereferenceable(49) %call2)
  %4 = load i32, ptr %call1.i, align 4
  %switch.i = icmp ult i32 %4, 2
  br i1 %switch.i, label %if.end4.i, label %_ZN7Imf_3_212_GLOBAL__N_110enumsValidERKNS_6HeaderE.exit.thread

if.end4.i:                                        ; preds = %if.then.i, %for.body
  %call5.i = call noundef zeroext i1 @_ZN7Imf_3_217hasDeepImageStateERKNS_6HeaderE(ptr noundef nonnull align 8 dereferenceable(49) %call2)
  br i1 %call5.i, label %if.then6.i, label %_ZN7Imf_3_212_GLOBAL__N_110enumsValidERKNS_6HeaderE.exit

if.then6.i:                                       ; preds = %if.end4.i
  %call8.i = call noundef nonnull align 4 dereferenceable(4) ptr @_ZN7Imf_3_214deepImageStateERKNS_6HeaderE(ptr noundef nonnull align 8 dereferenceable(49) %call2)
  %5 = load i32, ptr %call8.i, align 4
  %or.cond.i = icmp ugt i32 %5, 3
  br i1 %or.cond.i, label %_ZN7Imf_3_212_GLOBAL__N_110enumsValidERKNS_6HeaderE.exit.thread, label %_ZN7Imf_3_212_GLOBAL__N_110enumsValidERKNS_6HeaderE.exit

_ZN7Imf_3_212_GLOBAL__N_110enumsValidERKNS_6HeaderE.exit.thread: ; preds = %if.then.i, %if.then6.i
  br label %_ZN7Imf_3_212_GLOBAL__N_110enumsValidERKNS_6HeaderE.exit

_ZN7Imf_3_212_GLOBAL__N_110enumsValidERKNS_6HeaderE.exit: ; preds = %if.end4.i, %if.then6.i, %_ZN7Imf_3_212_GLOBAL__N_110enumsValidERKNS_6HeaderE.exit.thread
  %6 = phi i8 [ 1, %_ZN7Imf_3_212_GLOBAL__N_110enumsValidERKNS_6HeaderE.exit.thread ], [ %threw.0826, %if.then6.i ], [ %threw.0826, %if.end4.i ]
  %call4 = call noundef nonnull align 8 dereferenceable(49) ptr @_ZNK7Imf_3_218MultiPartInputFile6headerEi(ptr noundef nonnull align 8 dereferenceable(16) %in, i32 noundef %part.0825)
  %call5 = call noundef nonnull align 4 dereferenceable(16) ptr @_ZNK7Imf_3_26Header10dataWindowEv(ptr noundef nonnull align 8 dereferenceable(49) %call4)
  %7 = load i32, ptr %call5, align 4
  %max3.i = getelementptr inbounds i8, ptr %call5, i64 8
  %8 = load i32, ptr %max3.i, align 4
  %call6 = call noundef nonnull align 8 dereferenceable(49) ptr @_ZNK7Imf_3_218MultiPartInputFile6headerEi(ptr noundef nonnull align 8 dereferenceable(16) %in, i32 noundef %part.0825)
  %call7 = call noundef i64 @_ZN7Imf_3_222calculateBytesPerPixelERKNS_6HeaderE(ptr noundef nonnull align 8 dereferenceable(49) %call6)
  %conv8 = sext i32 %8 to i64
  %conv10 = sext i32 %7 to i64
  %sub = sub nsw i64 %conv8, %conv10
  %add = add nsw i64 %sub, 1
  %call11 = call noundef nonnull align 8 dereferenceable(49) ptr @_ZNK7Imf_3_218MultiPartInputFile6headerEi(ptr noundef nonnull align 8 dereferenceable(16) %in, i32 noundef %part.0825)
  %call12 = call noundef nonnull align 4 dereferenceable(4) ptr @_ZNK7Imf_3_26Header11compressionEv(ptr noundef nonnull align 8 dereferenceable(49) %call11)
  %9 = load i32, ptr %call12, align 4
  %call13 = call noundef i32 @_ZN7Imf_3_216numLinesInBufferENS_11CompressionE(i32 noundef %9)
  %conv14 = sext i32 %call13 to i64
  %sext = shl i64 %call7, 32
  %conv15 = ashr exact i64 %sext, 32
  %mul = mul nsw i64 %conv15, %add
  %mul16 = mul i64 %mul, %conv14
  %cmp17 = icmp ugt i64 %mul16, 8000000
  %widePart.0 = zext i1 %cmp17 to i8
  %call20 = call noundef nonnull align 8 dereferenceable(49) ptr @_ZNK7Imf_3_218MultiPartInputFile6headerEi(ptr noundef nonnull align 8 dereferenceable(16) %in, i32 noundef %part.0825)
  %call21 = call noundef nonnull align 8 dereferenceable(32) ptr @_ZNK7Imf_3_26Header4typeB5cxx11Ev(ptr noundef nonnull align 8 dereferenceable(49) %call20)
  %call22 = call noundef zeroext i1 @_ZN7Imf_3_27isTiledERKNSt7__cxx1112basic_stringIcSt11char_traitsIcESaIcEEE(ptr noundef nonnull align 8 dereferenceable(32) %call21)
  br i1 %call22, label %if.then23, label %if.end46

if.then23:                                        ; preds = %_ZN7Imf_3_212_GLOBAL__N_110enumsValidERKNS_6HeaderE.exit
  %call24 = call noundef nonnull align 8 dereferenceable(49) ptr @_ZNK7Imf_3_218MultiPartInputFile6headerEi(ptr noundef nonnull align 8 dereferenceable(16) %in, i32 noundef %part.0825)
  %call25 = call noundef nonnull align 4 dereferenceable(16) ptr @_ZNK7Imf_3_26Header15tileDescriptionEv(ptr noundef nonnull align 8 dereferenceable(49) %call24)
  %10 = load i32, ptr %call25, align 4
  %conv26 = zext i32 %10 to i64
  %sub28 = add nsw i64 %sub, %conv26
  %div = udiv i64 %sub28, %conv26
  %ySize = getelementptr inbounds i8, ptr %call25, i64 4
  %11 = load i32, ptr %ySize, align 4
  %conv33 = zext i32 %11 to i64
  %mul34 = mul nuw i64 %conv33, %conv26
  %mul35 = mul i64 %mul34, %conv15
  %mul37 = mul i64 %mul35, %div
  %cmp38 = icmp ugt i64 %mul37, 8000000
  %spec.select52 = select i1 %cmp38, i8 1, i8 %widePart.0
  %cmp43 = icmp ugt i64 %mul35, 1000000
  br label %if.end46

if.end46:                                         ; preds = %if.then23, %_ZN7Imf_3_212_GLOBAL__N_110enumsValidERKNS_6HeaderE.exit
  %largeTiles.0 = phi i1 [ false, %_ZN7Imf_3_212_GLOBAL__N_110enumsValidERKNS_6HeaderE.exit ], [ %cmp43, %if.then23 ]
  %widePart.2 = phi i8 [ %widePart.0, %_ZN7Imf_3_212_GLOBAL__N_110enumsValidERKNS_6HeaderE.exit ], [ %spec.select52, %if.then23 ]
  %tobool47.not = icmp ne i8 %widePart.2, 0
  %or.cond.not = select i1 %reduceMemory, i1 %tobool47.not, i1 false
  br i1 %or.cond.not, label %if.end60, label %if.then48

if.then48:                                        ; preds = %if.end46
  invoke void @_ZN7Imf_3_29InputPartC1ERNS_18MultiPartInputFileEi(ptr noundef nonnull align 8 dereferenceable(8) %pt, ptr noundef nonnull align 8 dereferenceable(16) %in, i32 noundef %part.0825)
          to label %invoke.cont unwind label %lpad

invoke.cont:                                      ; preds = %if.then48
  call void @llvm.lifetime.start.p0(i64 48, ptr nonnull %i.i)
  call void @llvm.lifetime.start.p0(i64 56, ptr nonnull %ref.tmp48.i)
  call void @llvm.lifetime.start.p0(i64 56, ptr nonnull %ref.tmp64.i)
  call void @llvm.lifetime.start.p0(i64 56, ptr nonnull %ref.tmp83.i)
  %call.i64 = invoke noundef nonnull align 8 dereferenceable(49) ptr @_ZNK7Imf_3_29InputPart6headerEv(ptr noundef nonnull align 8 dereferenceable(8) %pt)
          to label %invoke.cont.i unwind label %lpad.i

invoke.cont.i:                                    ; preds = %invoke.cont
  %call3.i = invoke noundef nonnull align 4 dereferenceable(16) ptr @_ZNK7Imf_3_26Header10dataWindowEv(ptr noundef nonnull align 8 dereferenceable(49) %call.i64)
          to label %invoke.cont2.i unwind label %lpad.i

invoke.cont2.i:                                   ; preds = %invoke.cont.i
  %max.i65 = getelementptr inbounds i8, ptr %call3.i, i64 8
  %12 = load i32, ptr %max.i65, align 4
  %conv.i = sext i32 %12 to i64
  %13 = load i32, ptr %call3.i, align 4
  %conv5.i = sext i32 %13 to i64
  %sub.i = sub nsw i64 %conv.i, %conv5.i
  %add.i = add nsw i64 %sub.i, 1
  %call9.i = invoke noundef nonnull align 8 dereferenceable(49) ptr @_ZNK7Imf_3_29InputPart6headerEv(ptr noundef nonnull align 8 dereferenceable(8) %pt)
          to label %invoke.cont8.i unwind label %lpad.i

invoke.cont8.i:                                   ; preds = %invoke.cont2.i
  %call11.i = invoke noundef i64 @_ZN7Imf_3_222calculateBytesPerPixelERKNS_6HeaderE(ptr noundef nonnull align 8 dereferenceable(49) %call9.i)
          to label %invoke.cont10.i unwind label %lpad.i

invoke.cont10.i:                                  ; preds = %invoke.cont8.i
  %call13.i = invoke noundef nonnull align 8 dereferenceable(49) ptr @_ZNK7Imf_3_29InputPart6headerEv(ptr noundef nonnull align 8 dereferenceable(8) %pt)
          to label %invoke.cont12.i unwind label %lpad.i

invoke.cont12.i:                                  ; preds = %invoke.cont10.i
  %call15.i = invoke noundef nonnull align 4 dereferenceable(4) ptr @_ZNK7Imf_3_26Header11compressionEv(ptr noundef nonnull align 8 dereferenceable(49) %call13.i)
          to label %invoke.cont14.i unwind label %lpad.i

invoke.cont14.i:                                  ; preds = %invoke.cont12.i
  %14 = load i32, ptr %call15.i, align 4
  %call17.i = invoke noundef i32 @_ZN7Imf_3_216numLinesInBufferENS_11CompressionE(i32 noundef %14)
          to label %invoke.cont16.i unwind label %lpad.i

invoke.cont16.i:                                  ; preds = %invoke.cont14.i
  br i1 %reduceMemory, label %land.lhs.true.i, label %if.end.i

land.lhs.true.i:                                  ; preds = %invoke.cont16.i
  %conv18.i = sext i32 %call17.i to i64
  %mul.i = mul i64 %call11.i, %add.i
  %mul19.i = mul i64 %mul.i, %conv18.i
  %cmp.i = icmp ugt i64 %mul19.i, 8000000
  br i1 %cmp.i, label %try.cont.thread274, label %if.end.i

try.cont.thread274:                               ; preds = %land.lhs.true.i
  call void @llvm.lifetime.end.p0(i64 48, ptr nonnull %i.i)
  call void @llvm.lifetime.end.p0(i64 56, ptr nonnull %ref.tmp48.i)
  call void @llvm.lifetime.end.p0(i64 56, ptr nonnull %ref.tmp64.i)
  call void @llvm.lifetime.end.p0(i64 56, ptr nonnull %ref.tmp83.i)
  br label %if.end60

lpad.i:                                           ; preds = %invoke.cont14.i, %invoke.cont12.i, %invoke.cont10.i, %invoke.cont8.i, %invoke.cont2.i, %invoke.cont.i, %invoke.cont
  %15 = landingpad { ptr, i32 }
          catch ptr null
  br label %catch127.i

if.end.i:                                         ; preds = %land.lhs.true.i, %invoke.cont16.i
  store i32 0, ptr %0, align 8
  store ptr null, ptr %_M_parent.i.i.i.i.i.i.i, align 8
  store ptr %0, ptr %_M_left.i.i.i.i.i.i.i, align 8
  store ptr %0, ptr %_M_right.i.i.i.i.i.i.i, align 8
  store i64 0, ptr %_M_node_count.i.i.i.i.i.i.i, align 8
  %cmp.i.i.i = icmp ugt i64 %add.i, 4611686018427387903
  br i1 %cmp.i.i.i, label %if.then.i.i.i, label %_ZNSt6vectorIN9Imath_3_24halfESaIS1_EE17_S_check_init_lenEmRKS2_.exit.i.i

if.then.i.i.i:                                    ; preds = %if.end.i
  invoke void @_ZSt20__throw_length_errorPKc(ptr noundef nonnull @.str.21) #25
          to label %.noexc.i unwind label %lpad20.i

.noexc.i:                                         ; preds = %if.then.i.i.i
  unreachable

_ZNSt6vectorIN9Imath_3_24halfESaIS1_EE17_S_check_init_lenEmRKS2_.exit.i.i: ; preds = %if.end.i
  %cmp.not.i.i.i.i.i = icmp eq i64 %add.i, 0
  br i1 %cmp.not.i.i.i.i.i, label %invoke.cont27.i, label %if.then.i.i.i.i.i.i

if.then.i.i.i.i.i.i:                              ; preds = %_ZNSt6vectorIN9Imath_3_24halfESaIS1_EE17_S_check_init_lenEmRKS2_.exit.i.i
  %mul.i.i.i.i.i.i.i = shl nuw nsw i64 %add.i, 1
  %call5.i.i.i.i2.i.i21.i = invoke noalias noundef nonnull ptr @_Znwm(i64 noundef %mul.i.i.i.i.i.i.i) #26
          to label %call5.i.i.i.i2.i.i.noexc.i unwind label %lpad20.i

call5.i.i.i.i2.i.i.noexc.i:                       ; preds = %if.then.i.i.i.i.i.i
  store i16 0, ptr %call5.i.i.i.i2.i.i21.i, align 2
  %cmp.i.i.i.i.i.i.i.i = icmp eq i32 %12, %13
  br i1 %cmp.i.i.i.i.i.i.i.i, label %if.then.i.i.i.i.i24.i, label %if.end.i.i.i.i.i.i.i.i

if.end.i.i.i.i.i.i.i.i:                           ; preds = %call5.i.i.i.i2.i.i.noexc.i
  %incdec.ptr.i.i.i.i.i.i = getelementptr i8, ptr %call5.i.i.i.i2.i.i21.i, i64 2
  %16 = add nsw i64 %mul.i.i.i.i.i.i.i, -2
  call void @llvm.memset.p0.i64(ptr align 2 %incdec.ptr.i.i.i.i.i.i, i8 0, i64 %16, i1 false)
  br label %if.then.i.i.i.i.i24.i

if.then.i.i.i.i.i24.i:                            ; preds = %if.end.i.i.i.i.i.i.i.i, %call5.i.i.i.i2.i.i.noexc.i
  %mul.i.i.i.i.i.i25.i = shl nuw nsw i64 %add.i, 2
  %call5.i.i.i.i2.i.i37.i = invoke noalias noundef nonnull ptr @_Znwm(i64 noundef %mul.i.i.i.i.i.i25.i) #26
          to label %call5.i.i.i.i2.i.i.noexc36.i unwind label %ehcleanup122.thread.i

call5.i.i.i.i2.i.i.noexc36.i:                     ; preds = %if.then.i.i.i.i.i24.i
  store float 0.000000e+00, ptr %call5.i.i.i.i2.i.i37.i, align 4
  br i1 %cmp.i.i.i.i.i.i.i.i, label %if.then.i.i.i.i.i40.i, label %if.end.i.i.i.i.i.i.i30.i

if.end.i.i.i.i.i.i.i30.i:                         ; preds = %call5.i.i.i.i2.i.i.noexc36.i
  %incdec.ptr.i.i.i.i.i28.i = getelementptr i8, ptr %call5.i.i.i.i2.i.i37.i, i64 4
  %17 = add nsw i64 %mul.i.i.i.i.i.i25.i, -4
  call void @llvm.memset.p0.i64(ptr align 4 %incdec.ptr.i.i.i.i.i28.i, i8 0, i64 %17, i1 false)
  br label %if.then.i.i.i.i.i40.i

if.then.i.i.i.i.i40.i:                            ; preds = %if.end.i.i.i.i.i.i.i30.i, %call5.i.i.i.i2.i.i.noexc36.i
  %call5.i.i.i.i2.i.i53.i = invoke noalias noundef nonnull ptr @_Znwm(i64 noundef %mul.i.i.i.i.i.i25.i) #26
          to label %call5.i.i.i.i2.i.i.noexc52.i unwind label %ehcleanup.thread.i

call5.i.i.i.i2.i.i.noexc52.i:                     ; preds = %if.then.i.i.i.i.i40.i
  store i32 0, ptr %call5.i.i.i.i2.i.i53.i, align 4
  br i1 %cmp.i.i.i.i.i.i.i.i, label %invoke.cont27.i, label %if.end.i.i.i.i.i.i.i46.i

if.end.i.i.i.i.i.i.i46.i:                         ; preds = %call5.i.i.i.i2.i.i.noexc52.i
  %incdec.ptr.i.i.i.i.i44.i = getelementptr i8, ptr %call5.i.i.i.i2.i.i53.i, i64 4
  %18 = add nsw i64 %mul.i.i.i.i.i.i25.i, -4
  call void @llvm.memset.p0.i64(ptr align 4 %incdec.ptr.i.i.i.i.i44.i, i8 0, i64 %18, i1 false)
  br label %invoke.cont27.i

invoke.cont27.i:                                  ; preds = %if.end.i.i.i.i.i.i.i46.i, %call5.i.i.i.i2.i.i.noexc52.i, %_ZNSt6vectorIN9Imath_3_24halfESaIS1_EE17_S_check_init_lenEmRKS2_.exit.i.i
  %floatChannels.sroa.0.0115.i = phi ptr [ %call5.i.i.i.i2.i.i37.i, %call5.i.i.i.i2.i.i.noexc52.i ], [ %call5.i.i.i.i2.i.i37.i, %if.end.i.i.i.i.i.i.i46.i ], [ null, %_ZNSt6vectorIN9Imath_3_24halfESaIS1_EE17_S_check_init_lenEmRKS2_.exit.i.i ]
  %halfChannels.sroa.0.0107112.i = phi ptr [ %call5.i.i.i.i2.i.i21.i, %call5.i.i.i.i2.i.i.noexc52.i ], [ %call5.i.i.i.i2.i.i21.i, %if.end.i.i.i.i.i.i.i46.i ], [ null, %_ZNSt6vectorIN9Imath_3_24halfESaIS1_EE17_S_check_init_lenEmRKS2_.exit.i.i ]
  %uintChannels.sroa.0.0.i = phi ptr [ %call5.i.i.i.i2.i.i53.i, %call5.i.i.i.i2.i.i.noexc52.i ], [ %call5.i.i.i.i2.i.i53.i, %if.end.i.i.i.i.i.i.i46.i ], [ null, %_ZNSt6vectorIN9Imath_3_24halfESaIS1_EE17_S_check_init_lenEmRKS2_.exit.i.i ]
  %19 = ptrtoint ptr %halfChannels.sroa.0.0107112.i to i64
  %20 = ptrtoint ptr %floatChannels.sroa.0.0115.i to i64
  %21 = ptrtoint ptr %uintChannels.sroa.0.0.i to i64
  %call33.i = invoke noundef nonnull align 8 dereferenceable(49) ptr @_ZNK7Imf_3_29InputPart6headerEv(ptr noundef nonnull align 8 dereferenceable(8) %pt)
          to label %invoke.cont32.i unwind label %lpad31.loopexit.split-lp.loopexit.split-lp.i

invoke.cont32.i:                                  ; preds = %invoke.cont27.i
  %call35.i = invoke noundef nonnull align 8 dereferenceable(48) ptr @_ZNK7Imf_3_26Header8channelsEv(ptr noundef nonnull align 8 dereferenceable(49) %call33.i)
          to label %invoke.cont34.i unwind label %lpad31.loopexit.split-lp.loopexit.split-lp.i

invoke.cont34.i:                                  ; preds = %invoke.cont32.i
  %call37.i = invoke ptr @_ZNK7Imf_3_211ChannelList5beginEv(ptr noundef nonnull align 8 dereferenceable(48) %call35.i)
          to label %for.cond.i unwind label %lpad31.loopexit.split-lp.loopexit.split-lp.i

for.cond.i:                                       ; preds = %invoke.cont34.i, %sw.epilog.i
  %c.sroa.0.0.i = phi ptr [ %call.i.i.i, %sw.epilog.i ], [ %call37.i, %invoke.cont34.i ]
  %channelIndex.0.i = phi i32 [ %inc.i, %sw.epilog.i ], [ 0, %invoke.cont34.i ]
  %call41.i = invoke ptr @_ZNK7Imf_3_211ChannelList3endEv(ptr noundef nonnull align 8 dereferenceable(48) %call35.i)
          to label %invoke.cont44.i unwind label %lpad31.loopexit.split-lp.loopexit.i

invoke.cont44.i:                                  ; preds = %for.cond.i
  %cmp.i.i.i.not.i = icmp eq ptr %c.sroa.0.0.i, %call41.i
  br i1 %cmp.i.i.i.not.i, label %for.end.i, label %for.body.i

for.body.i:                                       ; preds = %invoke.cont44.i
  %rem.i = urem i32 %channelIndex.0.i, 3
  switch i32 %rem.i, label %sw.epilog.i [
    i32 0, label %invoke.cont46.i
    i32 1, label %invoke.cont62.i
    i32 2, label %invoke.cont81.i
  ]

lpad20.i:                                         ; preds = %if.then.i.i.i.i.i.i, %if.then.i.i.i
  %22 = landingpad { ptr, i32 }
          catch ptr null
  br label %ehcleanup126.i

ehcleanup122.thread.i:                            ; preds = %if.then.i.i.i.i.i24.i
  %23 = landingpad { ptr, i32 }
          catch ptr null
  br label %if.then.i.i.i75.i

ehcleanup.thread.i:                               ; preds = %if.then.i.i.i.i.i40.i
  %24 = landingpad { ptr, i32 }
          catch ptr null
  br label %if.then.i.i.i72.i

lpad31.loopexit.split.i:                          ; preds = %lpad109.i
  %lpad.loopexit.i = landingpad { ptr, i32 }
          catch ptr null
  br label %lpad31.i

lpad31.loopexit.split-lp.loopexit.i:              ; preds = %invoke.cont97.invoke.i, %invoke.cont81.i, %invoke.cont62.i, %invoke.cont46.i, %for.cond.i
  %lpad.loopexit132.i = landingpad { ptr, i32 }
          catch ptr null
  br label %lpad31.i

lpad31.loopexit.split-lp.loopexit.split-lp.i:     ; preds = %for.end.i, %invoke.cont34.i, %invoke.cont32.i, %invoke.cont27.i
  %lpad.loopexit.split-lp133.i = landingpad { ptr, i32 }
          catch ptr null
  br label %lpad31.i

lpad31.i:                                         ; preds = %lpad31.loopexit.split.us.i, %lpad31.loopexit.split-lp.loopexit.split-lp.i, %lpad31.loopexit.split-lp.loopexit.i, %lpad31.loopexit.split.i
  %lpad.phi.i = phi { ptr, i32 } [ %lpad.loopexit.i, %lpad31.loopexit.split.i ], [ %lpad.loopexit.us.i, %lpad31.loopexit.split.us.i ], [ %lpad.loopexit132.i, %lpad31.loopexit.split-lp.loopexit.i ], [ %lpad.loopexit.split-lp133.i, %lpad31.loopexit.split-lp.loopexit.split-lp.i ]
  %tobool.not.i.i.i.i = icmp eq ptr %uintChannels.sroa.0.0.i, null
  br i1 %tobool.not.i.i.i.i, label %ehcleanup.i, label %if.then.i.i.i.i

if.then.i.i.i.i:                                  ; preds = %lpad31.i
  call void @_ZdlPv(ptr noundef nonnull %uintChannels.sroa.0.0.i) #24
  br label %ehcleanup.i

invoke.cont46.i:                                  ; preds = %for.body.i
  %xSampling.i = getelementptr inbounds i8, ptr %c.sroa.0.0.i, i64 292
  %25 = load i32, ptr %xSampling.i, align 4
  %div.i = sdiv i32 %13, %25
  %conv51.i = sext i32 %div.i to i64
  %mul52.i = shl nsw i64 %conv51.i, 1
  %sub53.i = sub i64 %19, %mul52.i
  %26 = inttoptr i64 %sub53.i to ptr
  %ySampling.i = getelementptr inbounds i8, ptr %c.sroa.0.0.i, i64 296
  %27 = load i32, ptr %ySampling.i, align 4
  invoke void @_ZN7Imf_3_25SliceC1ENS_9PixelTypeEPcmmiidbb(ptr noundef nonnull align 8 dereferenceable(50) %ref.tmp48.i, i32 noundef 1, ptr noundef %26, i64 noundef 2, i64 noundef 0, i32 noundef %25, i32 noundef %27, double noundef 0.000000e+00, i1 noundef zeroext false, i1 noundef zeroext false)
          to label %invoke.cont97.invoke.i unwind label %lpad31.loopexit.split-lp.loopexit.i

invoke.cont62.i:                                  ; preds = %for.body.i
  %xSampling67.i = getelementptr inbounds i8, ptr %c.sroa.0.0.i, i64 292
  %28 = load i32, ptr %xSampling67.i, align 4
  %div68.i = sdiv i32 %13, %28
  %conv69.i = sext i32 %div68.i to i64
  %mul70.i = shl nsw i64 %conv69.i, 2
  %sub71.i = sub i64 %20, %mul70.i
  %29 = inttoptr i64 %sub71.i to ptr
  %ySampling77.i = getelementptr inbounds i8, ptr %c.sroa.0.0.i, i64 296
  %30 = load i32, ptr %ySampling77.i, align 4
  invoke void @_ZN7Imf_3_25SliceC1ENS_9PixelTypeEPcmmiidbb(ptr noundef nonnull align 8 dereferenceable(50) %ref.tmp64.i, i32 noundef 2, ptr noundef %29, i64 noundef 4, i64 noundef 0, i32 noundef %28, i32 noundef %30, double noundef 0.000000e+00, i1 noundef zeroext false, i1 noundef zeroext false)
          to label %invoke.cont97.invoke.i unwind label %lpad31.loopexit.split-lp.loopexit.i

invoke.cont81.i:                                  ; preds = %for.body.i
  %xSampling86.i = getelementptr inbounds i8, ptr %c.sroa.0.0.i, i64 292
  %31 = load i32, ptr %xSampling86.i, align 4
  %div87.i = sdiv i32 %13, %31
  %conv88.i = sext i32 %div87.i to i64
  %mul89.i = shl nsw i64 %conv88.i, 2
  %sub90.i = sub i64 %21, %mul89.i
  %32 = inttoptr i64 %sub90.i to ptr
  %ySampling96.i = getelementptr inbounds i8, ptr %c.sroa.0.0.i, i64 296
  %33 = load i32, ptr %ySampling96.i, align 4
  invoke void @_ZN7Imf_3_25SliceC1ENS_9PixelTypeEPcmmiidbb(ptr noundef nonnull align 8 dereferenceable(50) %ref.tmp83.i, i32 noundef 0, ptr noundef %32, i64 noundef 4, i64 noundef 0, i32 noundef %31, i32 noundef %33, double noundef 0.000000e+00, i1 noundef zeroext false, i1 noundef zeroext false)
          to label %invoke.cont97.invoke.i unwind label %lpad31.loopexit.split-lp.loopexit.i

invoke.cont97.invoke.i:                           ; preds = %invoke.cont81.i, %invoke.cont62.i, %invoke.cont46.i
  %34 = phi ptr [ %ref.tmp48.i, %invoke.cont46.i ], [ %ref.tmp64.i, %invoke.cont62.i ], [ %ref.tmp83.i, %invoke.cont81.i ]
  %_M_storage.i.i.i.i = getelementptr inbounds i8, ptr %c.sroa.0.0.i, i64 32
  invoke void @_ZN7Imf_3_211FrameBuffer6insertEPKcRKNS_5SliceE(ptr noundef nonnull align 8 dereferenceable(48) %i.i, ptr noundef nonnull %_M_storage.i.i.i.i, ptr noundef nonnull align 8 dereferenceable(50) %34)
          to label %sw.epilog.i unwind label %lpad31.loopexit.split-lp.loopexit.i

sw.epilog.i:                                      ; preds = %invoke.cont97.invoke.i, %for.body.i
  %inc.i = add nuw nsw i32 %channelIndex.0.i, 1
  %call.i.i.i = call noundef ptr @_ZSt18_Rb_tree_incrementPKSt18_Rb_tree_node_base(ptr noundef %c.sroa.0.0.i) #28
  br label %for.cond.i, !llvm.loop !16

for.end.i:                                        ; preds = %invoke.cont44.i
  invoke void @_ZN7Imf_3_29InputPart14setFrameBufferERKNS_11FrameBufferE(ptr noundef nonnull align 8 dereferenceable(8) %pt, ptr noundef nonnull align 8 dereferenceable(48) %i.i)
          to label %invoke.cont101.i unwind label %lpad31.loopexit.split-lp.loopexit.split-lp.i

invoke.cont101.i:                                 ; preds = %for.end.i
  %y103.i = getelementptr inbounds i8, ptr %call3.i, i64 4
  %35 = load i32, ptr %y103.i, align 4
  %y106.i = getelementptr inbounds i8, ptr %call3.i, i64 12
  %36 = load i32, ptr %y106.i, align 4
  %cmp107.not.not136.i = icmp sgt i32 %35, %36
  br i1 %cmp107.not.not136.i, label %cleanup119.i, label %for.body108.lr.ph.i

for.body108.lr.ph.i:                              ; preds = %invoke.cont101.i
  br i1 %reduceTime, label %for.body108.us.i, label %for.body108.i

for.body108.us.i:                                 ; preds = %for.body108.lr.ph.i, %for.inc116.us.i
  %y.0138.us.i = phi i32 [ %add117.us.i, %for.inc116.us.i ], [ %35, %for.body108.lr.ph.i ]
  invoke void @_ZN7Imf_3_29InputPart10readPixelsEi(ptr noundef nonnull align 8 dereferenceable(8) %pt, i32 noundef %y.0138.us.i)
          to label %for.inc116.us.i unwind label %lpad109.us.i

lpad109.us.i:                                     ; preds = %for.body108.us.i
  %37 = landingpad { ptr, i32 }
          catch ptr null
  %38 = extractvalue { ptr, i32 } %37, 0
  %39 = call ptr @__cxa_begin_catch(ptr %38) #22
  invoke void @__cxa_end_catch()
          to label %cleanup119.i unwind label %lpad31.loopexit.split.us.i

for.inc116.us.i:                                  ; preds = %for.body108.us.i
  %add117.us.i = add nsw i32 %y.0138.us.i, 1
  %40 = load i32, ptr %y106.i, align 4
  %cmp107.not.not.us.not.i = icmp slt i32 %y.0138.us.i, %40
  br i1 %cmp107.not.not.us.not.i, label %for.body108.us.i, label %cleanup119.i, !llvm.loop !17

lpad31.loopexit.split.us.i:                       ; preds = %lpad109.us.i
  %lpad.loopexit.us.i = landingpad { ptr, i32 }
          catch ptr null
  br label %lpad31.i

for.body108.i:                                    ; preds = %for.body108.lr.ph.i, %for.inc116.i
  %y.0138.i = phi i32 [ %add117.i, %for.inc116.i ], [ %35, %for.body108.lr.ph.i ]
  %threw.0137.i = phi i8 [ %threw.1.i, %for.inc116.i ], [ 0, %for.body108.lr.ph.i ]
  invoke void @_ZN7Imf_3_29InputPart10readPixelsEi(ptr noundef nonnull align 8 dereferenceable(8) %pt, i32 noundef %y.0138.i)
          to label %for.inc116.i unwind label %lpad109.i

lpad109.i:                                        ; preds = %for.body108.i
  %41 = landingpad { ptr, i32 }
          catch ptr null
  %42 = extractvalue { ptr, i32 } %41, 0
  %43 = call ptr @__cxa_begin_catch(ptr %42) #22
  invoke void @__cxa_end_catch()
          to label %for.inc116.i unwind label %lpad31.loopexit.split.i

for.inc116.i:                                     ; preds = %lpad109.i, %for.body108.i
  %threw.1.i = phi i8 [ %threw.0137.i, %for.body108.i ], [ 1, %lpad109.i ]
  %add117.i = add nsw i32 %y.0138.i, 1
  %44 = load i32, ptr %y106.i, align 4
  %cmp107.not.not.not.i = icmp slt i32 %y.0138.i, %44
  br i1 %cmp107.not.not.not.i, label %for.body108.i, label %cleanup119.i, !llvm.loop !17

cleanup119.i:                                     ; preds = %for.inc116.i, %for.inc116.us.i, %lpad109.us.i, %invoke.cont101.i
  %cmp107.not.not.lcssa.i = phi i1 [ true, %invoke.cont101.i ], [ false, %lpad109.us.i ], [ true, %for.inc116.us.i ], [ true, %for.inc116.i ]
  %threw.2.i = phi i8 [ 0, %invoke.cont101.i ], [ 1, %lpad109.us.i ], [ 0, %for.inc116.us.i ], [ %threw.1.i, %for.inc116.i ]
  %tobool.not.i.i.i64.i = icmp eq ptr %uintChannels.sroa.0.0.i, null
  br i1 %tobool.not.i.i.i64.i, label %_ZNSt6vectorIjSaIjEED2Ev.exit66.i, label %if.then.i.i.i65.i

if.then.i.i.i65.i:                                ; preds = %cleanup119.i
  call void @_ZdlPv(ptr noundef nonnull %uintChannels.sroa.0.0.i) #24
  br label %_ZNSt6vectorIjSaIjEED2Ev.exit66.i

_ZNSt6vectorIjSaIjEED2Ev.exit66.i:                ; preds = %if.then.i.i.i65.i, %cleanup119.i
  %tobool.not.i.i.i67.i = icmp eq ptr %floatChannels.sroa.0.0115.i, null
  br i1 %tobool.not.i.i.i67.i, label %_ZNSt6vectorIfSaIfEED2Ev.exit.i, label %if.then.i.i.i68.i

if.then.i.i.i68.i:                                ; preds = %_ZNSt6vectorIjSaIjEED2Ev.exit66.i
  call void @_ZdlPv(ptr noundef nonnull %floatChannels.sroa.0.0115.i) #24
  br label %_ZNSt6vectorIfSaIfEED2Ev.exit.i

_ZNSt6vectorIfSaIfEED2Ev.exit.i:                  ; preds = %if.then.i.i.i68.i, %_ZNSt6vectorIjSaIjEED2Ev.exit66.i
  %tobool.not.i.i.i69.i = icmp eq ptr %halfChannels.sroa.0.0107112.i, null
  br i1 %tobool.not.i.i.i69.i, label %_ZNSt6vectorIN9Imath_3_24halfESaIS1_EED2Ev.exit.i, label %if.then.i.i.i70.i

if.then.i.i.i70.i:                                ; preds = %_ZNSt6vectorIfSaIfEED2Ev.exit.i
  call void @_ZdlPv(ptr noundef nonnull %halfChannels.sroa.0.0107112.i) #24
  br label %_ZNSt6vectorIN9Imath_3_24halfESaIS1_EED2Ev.exit.i

_ZNSt6vectorIN9Imath_3_24halfESaIS1_EED2Ev.exit.i: ; preds = %if.then.i.i.i70.i, %_ZNSt6vectorIfSaIfEED2Ev.exit.i
  %45 = load ptr, ptr %_M_parent.i.i.i.i.i.i.i, align 8
  invoke void @_ZNSt8_Rb_treeIN7Imf_3_24NameESt4pairIKS1_NS0_5SliceEESt10_Select1stIS5_ESt4lessIS1_ESaIS5_EE8_M_eraseEPSt13_Rb_tree_nodeIS5_E(ptr noundef nonnull align 8 dereferenceable(48) %i.i, ptr noundef %45)
          to label %_ZN7Imf_3_211FrameBufferD2Ev.exit.i unwind label %terminate.lpad.i.i.i.i

terminate.lpad.i.i.i.i:                           ; preds = %_ZNSt6vectorIN9Imath_3_24halfESaIS1_EED2Ev.exit.i
  %46 = landingpad { ptr, i32 }
          catch ptr null
  %47 = extractvalue { ptr, i32 } %46, 0
  call void @__clang_call_terminate(ptr %47) #27
  unreachable

_ZN7Imf_3_211FrameBufferD2Ev.exit.i:              ; preds = %_ZNSt6vectorIN9Imath_3_24halfESaIS1_EED2Ev.exit.i
  br i1 %cmp107.not.not.lcssa.i, label %try.cont, label %try.cont.thread

try.cont.thread:                                  ; preds = %_ZN7Imf_3_211FrameBufferD2Ev.exit.i
  call void @llvm.lifetime.end.p0(i64 48, ptr nonnull %i.i)
  call void @llvm.lifetime.end.p0(i64 56, ptr nonnull %ref.tmp48.i)
  call void @llvm.lifetime.end.p0(i64 56, ptr nonnull %ref.tmp64.i)
  call void @llvm.lifetime.end.p0(i64 56, ptr nonnull %ref.tmp83.i)
  br label %land.lhs.true

ehcleanup.i:                                      ; preds = %if.then.i.i.i.i, %lpad31.i
  %tobool.not.i.i.i71.i = icmp eq ptr %floatChannels.sroa.0.0115.i, null
  br i1 %tobool.not.i.i.i71.i, label %ehcleanup122.i, label %if.then.i.i.i72.i

if.then.i.i.i72.i:                                ; preds = %ehcleanup.i, %ehcleanup.thread.i
  %.pn124.i = phi { ptr, i32 } [ %24, %ehcleanup.thread.i ], [ %lpad.phi.i, %ehcleanup.i ]
  %halfChannels.sroa.0.0107111122.i = phi ptr [ %call5.i.i.i.i2.i.i21.i, %ehcleanup.thread.i ], [ %halfChannels.sroa.0.0107112.i, %ehcleanup.i ]
  %floatChannels.sroa.0.0114121.i = phi ptr [ %call5.i.i.i.i2.i.i37.i, %ehcleanup.thread.i ], [ %floatChannels.sroa.0.0115.i, %ehcleanup.i ]
  call void @_ZdlPv(ptr noundef nonnull %floatChannels.sroa.0.0114121.i) #24
  br label %ehcleanup122.i

ehcleanup122.i:                                   ; preds = %if.then.i.i.i72.i, %ehcleanup.i
  %halfChannels.sroa.0.0106.i = phi ptr [ %halfChannels.sroa.0.0107112.i, %ehcleanup.i ], [ %halfChannels.sroa.0.0107111122.i, %if.then.i.i.i72.i ]
  %.pn.pn.i = phi { ptr, i32 } [ %lpad.phi.i, %ehcleanup.i ], [ %.pn124.i, %if.then.i.i.i72.i ]
  %tobool.not.i.i.i74.i = icmp eq ptr %halfChannels.sroa.0.0106.i, null
  br i1 %tobool.not.i.i.i74.i, label %ehcleanup126.i, label %if.then.i.i.i75.i

if.then.i.i.i75.i:                                ; preds = %ehcleanup122.i, %ehcleanup122.thread.i
  %.pn.pn130.i = phi { ptr, i32 } [ %23, %ehcleanup122.thread.i ], [ %.pn.pn.i, %ehcleanup122.i ]
  %halfChannels.sroa.0.0106129.i = phi ptr [ %call5.i.i.i.i2.i.i21.i, %ehcleanup122.thread.i ], [ %halfChannels.sroa.0.0106.i, %ehcleanup122.i ]
  call void @_ZdlPv(ptr noundef nonnull %halfChannels.sroa.0.0106129.i) #24
  br label %ehcleanup126.i

ehcleanup126.i:                                   ; preds = %if.then.i.i.i75.i, %ehcleanup122.i, %lpad20.i
  %.pn.pn.pn.i = phi { ptr, i32 } [ %22, %lpad20.i ], [ %.pn.pn.i, %ehcleanup122.i ], [ %.pn.pn130.i, %if.then.i.i.i75.i ]
  call void @_ZN7Imf_3_211FrameBufferD2Ev(ptr noundef nonnull align 8 dereferenceable(48) %i.i) #22
  br label %catch127.i

catch127.i:                                       ; preds = %ehcleanup126.i, %lpad.i
  %.pn.pn.pn.pn.i = phi { ptr, i32 } [ %.pn.pn.pn.i, %ehcleanup126.i ], [ %15, %lpad.i ]
  %exn.slot.3.i = extractvalue { ptr, i32 } %.pn.pn.pn.pn.i, 0
  %48 = call ptr @__cxa_begin_catch(ptr %exn.slot.3.i) #22
  invoke void @__cxa_end_catch()
          to label %try.cont.thread276 unwind label %lpad

try.cont.thread276:                               ; preds = %catch127.i
  call void @llvm.lifetime.end.p0(i64 48, ptr nonnull %i.i)
  call void @llvm.lifetime.end.p0(i64 56, ptr nonnull %ref.tmp48.i)
  call void @llvm.lifetime.end.p0(i64 56, ptr nonnull %ref.tmp64.i)
  call void @llvm.lifetime.end.p0(i64 56, ptr nonnull %ref.tmp83.i)
  br label %land.lhs.true

lpad:                                             ; preds = %catch127.i, %if.then48
  %49 = landingpad { ptr, i32 }
          catch ptr null
  %50 = extractvalue { ptr, i32 } %49, 0
  %51 = call ptr @__cxa_begin_catch(ptr %50) #22
  call void @__cxa_end_catch()
  br label %land.lhs.true

try.cont:                                         ; preds = %_ZN7Imf_3_211FrameBufferD2Ev.exit.i
  %52 = and i8 %threw.2.i, 1
  %tobool130.i.not = icmp eq i8 %52, 0
  call void @llvm.lifetime.end.p0(i64 48, ptr nonnull %i.i)
  call void @llvm.lifetime.end.p0(i64 56, ptr nonnull %ref.tmp48.i)
  call void @llvm.lifetime.end.p0(i64 56, ptr nonnull %ref.tmp64.i)
  call void @llvm.lifetime.end.p0(i64 56, ptr nonnull %ref.tmp83.i)
  br i1 %tobool130.i.not, label %if.end60, label %land.lhs.true

land.lhs.true:                                    ; preds = %try.cont.thread276, %try.cont.thread, %lpad, %try.cont
  %call55 = call noundef nonnull align 8 dereferenceable(49) ptr @_ZNK7Imf_3_218MultiPartInputFile6headerEi(ptr noundef nonnull align 8 dereferenceable(16) %in, i32 noundef %part.0825)
  %call56 = call noundef nonnull align 8 dereferenceable(32) ptr @_ZNK7Imf_3_26Header4typeB5cxx11Ev(ptr noundef nonnull align 8 dereferenceable(49) %call55)
  %call.i.i = call noundef i64 @_ZNKSt7__cxx1112basic_stringIcSt11char_traitsIcESaIcEE4sizeEv(ptr noundef nonnull align 8 dereferenceable(32) %call56) #22
  %call1.i.i = call noundef i64 @_ZNKSt7__cxx1112basic_stringIcSt11char_traitsIcESaIcEE4sizeEv(ptr noundef nonnull align 8 dereferenceable(32) @_ZN7Imf_3_2L8DEEPTILEB5cxx11E) #22
  %cmp.i.i = icmp eq i64 %call.i.i, %call1.i.i
  br i1 %cmp.i.i, label %land.rhs.i.i, label %_ZStneIcSt11char_traitsIcESaIcEEbRKNSt7__cxx1112basic_stringIT_T0_T1_EESA_.exit.thread

land.rhs.i.i:                                     ; preds = %land.lhs.true
  %call2.i.i = call noundef ptr @_ZNKSt7__cxx1112basic_stringIcSt11char_traitsIcESaIcEE4dataEv(ptr noundef nonnull align 8 dereferenceable(32) %call56) #22
  %call3.i.i = call noundef ptr @_ZNKSt7__cxx1112basic_stringIcSt11char_traitsIcESaIcEE4dataEv(ptr noundef nonnull align 8 dereferenceable(32) @_ZN7Imf_3_2L8DEEPTILEB5cxx11E) #22
  %call4.i.i = call noundef i64 @_ZNKSt7__cxx1112basic_stringIcSt11char_traitsIcESaIcEE4sizeEv(ptr noundef nonnull align 8 dereferenceable(32) %call56) #22
  %cmp.i.i.i66 = icmp eq i64 %call4.i.i, 0
  br i1 %cmp.i.i.i66, label %if.end60, label %_ZStneIcSt11char_traitsIcESaIcEEbRKNSt7__cxx1112basic_stringIT_T0_T1_EESA_.exit

_ZStneIcSt11char_traitsIcESaIcEEbRKNSt7__cxx1112basic_stringIT_T0_T1_EESA_.exit: ; preds = %land.rhs.i.i
  %bcmp.i.i = call i32 @bcmp(ptr %call2.i.i, ptr %call3.i.i, i64 %call4.i.i)
  %bcmp.i.i.fr = freeze i32 %bcmp.i.i
  %.not = icmp eq i32 %bcmp.i.i.fr, 0
  br i1 %.not, label %if.end60, label %_ZStneIcSt11char_traitsIcESaIcEEbRKNSt7__cxx1112basic_stringIT_T0_T1_EESA_.exit.thread

_ZStneIcSt11char_traitsIcESaIcEEbRKNSt7__cxx1112basic_stringIT_T0_T1_EESA_.exit.thread: ; preds = %land.lhs.true, %_ZStneIcSt11char_traitsIcESaIcEEbRKNSt7__cxx1112basic_stringIT_T0_T1_EESA_.exit
  br label %if.end60

if.end60:                                         ; preds = %land.rhs.i.i, %_ZStneIcSt11char_traitsIcESaIcEEbRKNSt7__cxx1112basic_stringIT_T0_T1_EESA_.exit.thread, %_ZStneIcSt11char_traitsIcESaIcEEbRKNSt7__cxx1112basic_stringIT_T0_T1_EESA_.exit, %try.cont.thread274, %if.end46, %try.cont
  %threw.2 = phi i8 [ %6, %try.cont ], [ %6, %if.end46 ], [ %6, %try.cont.thread274 ], [ 1, %_ZStneIcSt11char_traitsIcESaIcEEbRKNSt7__cxx1112basic_stringIT_T0_T1_EESA_.exit.thread ], [ %6, %_ZStneIcSt11char_traitsIcESaIcEEbRKNSt7__cxx1112basic_stringIT_T0_T1_EESA_.exit ], [ %6, %land.rhs.i.i ]
  %brmerge.demorgan = and i1 %largeTiles.0, %reduceMemory
  br i1 %brmerge.demorgan, label %if.end85, label %if.then64

if.then64:                                        ; preds = %if.end60
  invoke void @_ZN7Imf_3_218MultiPartInputFile14flushPartCacheEv(ptr noundef nonnull align 8 dereferenceable(16) %in)
          to label %invoke.cont67 unwind label %lpad66

invoke.cont67:                                    ; preds = %if.then64
  invoke void @_ZN7Imf_3_214TiledInputPartC1ERNS_18MultiPartInputFileEi(ptr noundef nonnull align 8 dereferenceable(8) %pt68, ptr noundef nonnull align 8 dereferenceable(16) %in, i32 noundef %part.0825)
          to label %invoke.cont69 unwind label %lpad66

invoke.cont69:                                    ; preds = %invoke.cont67
  call void @llvm.lifetime.start.p0(i64 48, ptr nonnull %i.i67)
  call void @llvm.lifetime.start.p0(i64 56, ptr nonnull %ref.tmp49.i)
  call void @llvm.lifetime.start.p0(i64 56, ptr nonnull %ref.tmp62.i)
  call void @llvm.lifetime.start.p0(i64 56, ptr nonnull %ref.tmp78.i)
  %call.i68 = invoke noundef nonnull align 8 dereferenceable(49) ptr @_ZNK7Imf_3_214TiledInputPart6headerEv(ptr noundef nonnull align 8 dereferenceable(8) %pt68)
          to label %invoke.cont.i72 unwind label %lpad.i69

invoke.cont.i72:                                  ; preds = %invoke.cont69
  %call3.i73 = invoke noundef nonnull align 4 dereferenceable(16) ptr @_ZNK7Imf_3_26Header10dataWindowEv(ptr noundef nonnull align 8 dereferenceable(49) %call.i68)
          to label %invoke.cont2.i74 unwind label %lpad.i69

invoke.cont2.i74:                                 ; preds = %invoke.cont.i72
  %max.i75 = getelementptr inbounds i8, ptr %call3.i73, i64 8
  %53 = load i32, ptr %max.i75, align 4
  %conv.i76 = sext i32 %53 to i64
  %54 = load i32, ptr %call3.i73, align 4
  %conv5.i77 = sext i32 %54 to i64
  %sub.i78 = sub nsw i64 %conv.i76, %conv5.i77
  %add.i79 = add nsw i64 %sub.i78, 1
  %call9.i80 = invoke noundef i32 @_ZNK7Imf_3_214TiledInputPart10numXLevelsEv(ptr noundef nonnull align 8 dereferenceable(8) %pt68)
          to label %invoke.cont8.i81 unwind label %lpad.i69

invoke.cont8.i81:                                 ; preds = %invoke.cont2.i74
  %call11.i82 = invoke noundef i32 @_ZNK7Imf_3_214TiledInputPart10numYLevelsEv(ptr noundef nonnull align 8 dereferenceable(8) %pt68)
          to label %invoke.cont10.i83 unwind label %lpad.i69

invoke.cont10.i83:                                ; preds = %invoke.cont8.i81
  %call13.i84 = invoke noundef nonnull align 8 dereferenceable(49) ptr @_ZNK7Imf_3_214TiledInputPart6headerEv(ptr noundef nonnull align 8 dereferenceable(8) %pt68)
          to label %invoke.cont12.i85 unwind label %lpad.i69

invoke.cont12.i85:                                ; preds = %invoke.cont10.i83
  %call15.i86 = invoke noundef nonnull align 4 dereferenceable(16) ptr @_ZNK7Imf_3_26Header15tileDescriptionEv(ptr noundef nonnull align 8 dereferenceable(49) %call13.i84)
          to label %invoke.cont14.i87 unwind label %lpad.i69

invoke.cont14.i87:                                ; preds = %invoke.cont12.i85
  %call17.i88 = invoke noundef nonnull align 8 dereferenceable(49) ptr @_ZNK7Imf_3_214TiledInputPart6headerEv(ptr noundef nonnull align 8 dereferenceable(8) %pt68)
          to label %invoke.cont16.i89 unwind label %lpad.i69

invoke.cont16.i89:                                ; preds = %invoke.cont14.i87
  %call19.i = invoke noundef i64 @_ZN7Imf_3_222calculateBytesPerPixelERKNS_6HeaderE(ptr noundef nonnull align 8 dereferenceable(49) %call17.i88)
          to label %invoke.cont18.i unwind label %lpad.i69

invoke.cont18.i:                                  ; preds = %invoke.cont16.i89
  br i1 %reduceMemory, label %land.lhs.true.i131, label %if.end.i90

land.lhs.true.i131:                               ; preds = %invoke.cont18.i
  %mul.i132 = mul i64 %call19.i, %add.i79
  %cmp.i133 = icmp ugt i64 %mul.i132, 8000000
  br i1 %cmp.i133, label %try.cont77.thread, label %lor.lhs.false.i

lor.lhs.false.i:                                  ; preds = %land.lhs.true.i131
  %55 = load i32, ptr %call15.i86, align 4
  %ySize.i = getelementptr inbounds i8, ptr %call15.i86, i64 4
  %56 = load i32, ptr %ySize.i, align 4
  %mul20.i = mul i32 %56, %55
  %conv21.i = zext i32 %mul20.i to i64
  %mul22.i = mul i64 %call19.i, %conv21.i
  %cmp23.i = icmp ugt i64 %mul22.i, 1000000
  br i1 %cmp23.i, label %try.cont77.thread, label %if.end.i90

lpad.i69:                                         ; preds = %invoke.cont16.i89, %invoke.cont14.i87, %invoke.cont12.i85, %invoke.cont10.i83, %invoke.cont8.i81, %invoke.cont2.i74, %invoke.cont.i72, %invoke.cont69
  %57 = landingpad { ptr, i32 }
          catch ptr null
  br label %catch149.i

if.end.i90:                                       ; preds = %lor.lhs.false.i, %invoke.cont18.i
  store i32 0, ptr %1, align 8
  store ptr null, ptr %_M_parent.i.i.i.i.i.i.i91, align 8
  store ptr %1, ptr %_M_left.i.i.i.i.i.i.i92, align 8
  store ptr %1, ptr %_M_right.i.i.i.i.i.i.i93, align 8
  store i64 0, ptr %_M_node_count.i.i.i.i.i.i.i94, align 8
  %cmp.i.i.i95 = icmp ugt i64 %add.i79, 4611686018427387903
  br i1 %cmp.i.i.i95, label %if.then.i.i.i129, label %_ZNSt6vectorIN9Imath_3_24halfESaIS1_EE17_S_check_init_lenEmRKS2_.exit.i.i96

if.then.i.i.i129:                                 ; preds = %if.end.i90
  invoke void @_ZSt20__throw_length_errorPKc(ptr noundef nonnull @.str.21) #25
          to label %.noexc.i130 unwind label %lpad24.i

.noexc.i130:                                      ; preds = %if.then.i.i.i129
  unreachable

_ZNSt6vectorIN9Imath_3_24halfESaIS1_EE17_S_check_init_lenEmRKS2_.exit.i.i96: ; preds = %if.end.i90
  %cmp.not.i.i.i.i.i97 = icmp eq i64 %add.i79, 0
  br i1 %cmp.not.i.i.i.i.i97, label %invoke.cont31.i, label %if.then.i.i.i.i.i.i98

if.then.i.i.i.i.i.i98:                            ; preds = %_ZNSt6vectorIN9Imath_3_24halfESaIS1_EE17_S_check_init_lenEmRKS2_.exit.i.i96
  %mul.i.i.i.i.i.i.i99 = shl nuw nsw i64 %add.i79, 1
  %call5.i.i.i.i2.i.i40.i = invoke noalias noundef nonnull ptr @_Znwm(i64 noundef %mul.i.i.i.i.i.i.i99) #26
          to label %call5.i.i.i.i2.i.i.noexc.i101 unwind label %lpad24.i

call5.i.i.i.i2.i.i.noexc.i101:                    ; preds = %if.then.i.i.i.i.i.i98
  store i16 0, ptr %call5.i.i.i.i2.i.i40.i, align 2
  %cmp.i.i.i.i.i.i.i.i102 = icmp eq i32 %53, %54
  br i1 %cmp.i.i.i.i.i.i.i.i102, label %if.then.i.i.i.i.i43.i, label %if.end.i.i.i.i.i.i.i.i103

if.end.i.i.i.i.i.i.i.i103:                        ; preds = %call5.i.i.i.i2.i.i.noexc.i101
  %incdec.ptr.i.i.i.i.i.i104 = getelementptr i8, ptr %call5.i.i.i.i2.i.i40.i, i64 2
  %58 = add nsw i64 %mul.i.i.i.i.i.i.i99, -2
  call void @llvm.memset.p0.i64(ptr align 2 %incdec.ptr.i.i.i.i.i.i104, i8 0, i64 %58, i1 false)
  br label %if.then.i.i.i.i.i43.i

if.then.i.i.i.i.i43.i:                            ; preds = %if.end.i.i.i.i.i.i.i.i103, %call5.i.i.i.i2.i.i.noexc.i101
  %mul.i.i.i.i.i.i44.i = shl nuw nsw i64 %add.i79, 2
  %call5.i.i.i.i2.i.i56.i = invoke noalias noundef nonnull ptr @_Znwm(i64 noundef %mul.i.i.i.i.i.i44.i) #26
          to label %call5.i.i.i.i2.i.i.noexc55.i unwind label %ehcleanup144.thread.i

call5.i.i.i.i2.i.i.noexc55.i:                     ; preds = %if.then.i.i.i.i.i43.i
  store float 0.000000e+00, ptr %call5.i.i.i.i2.i.i56.i, align 4
  br i1 %cmp.i.i.i.i.i.i.i.i102, label %if.then.i.i.i.i.i59.i, label %if.end.i.i.i.i.i.i.i49.i

if.end.i.i.i.i.i.i.i49.i:                         ; preds = %call5.i.i.i.i2.i.i.noexc55.i
  %incdec.ptr.i.i.i.i.i47.i = getelementptr i8, ptr %call5.i.i.i.i2.i.i56.i, i64 4
  %59 = add nsw i64 %mul.i.i.i.i.i.i44.i, -4
  call void @llvm.memset.p0.i64(ptr align 4 %incdec.ptr.i.i.i.i.i47.i, i8 0, i64 %59, i1 false)
  br label %if.then.i.i.i.i.i59.i

if.then.i.i.i.i.i59.i:                            ; preds = %if.end.i.i.i.i.i.i.i49.i, %call5.i.i.i.i2.i.i.noexc55.i
  %call5.i.i.i.i2.i.i72.i = invoke noalias noundef nonnull ptr @_Znwm(i64 noundef %mul.i.i.i.i.i.i44.i) #26
          to label %call5.i.i.i.i2.i.i.noexc71.i unwind label %ehcleanup.thread.i105

call5.i.i.i.i2.i.i.noexc71.i:                     ; preds = %if.then.i.i.i.i.i59.i
  store i32 0, ptr %call5.i.i.i.i2.i.i72.i, align 4
  br i1 %cmp.i.i.i.i.i.i.i.i102, label %invoke.cont31.i, label %if.end.i.i.i.i.i.i.i65.i

if.end.i.i.i.i.i.i.i65.i:                         ; preds = %call5.i.i.i.i2.i.i.noexc71.i
  %incdec.ptr.i.i.i.i.i63.i = getelementptr i8, ptr %call5.i.i.i.i2.i.i72.i, i64 4
  %60 = add nsw i64 %mul.i.i.i.i.i.i44.i, -4
  call void @llvm.memset.p0.i64(ptr align 4 %incdec.ptr.i.i.i.i.i63.i, i8 0, i64 %60, i1 false)
  br label %invoke.cont31.i

invoke.cont31.i:                                  ; preds = %if.end.i.i.i.i.i.i.i65.i, %call5.i.i.i.i2.i.i.noexc71.i, %_ZNSt6vectorIN9Imath_3_24halfESaIS1_EE17_S_check_init_lenEmRKS2_.exit.i.i96
  %floatChannels.sroa.0.0139.i = phi ptr [ %call5.i.i.i.i2.i.i56.i, %call5.i.i.i.i2.i.i.noexc71.i ], [ %call5.i.i.i.i2.i.i56.i, %if.end.i.i.i.i.i.i.i65.i ], [ null, %_ZNSt6vectorIN9Imath_3_24halfESaIS1_EE17_S_check_init_lenEmRKS2_.exit.i.i96 ]
  %halfChannels.sroa.0.0131136.i = phi ptr [ %call5.i.i.i.i2.i.i40.i, %call5.i.i.i.i2.i.i.noexc71.i ], [ %call5.i.i.i.i2.i.i40.i, %if.end.i.i.i.i.i.i.i65.i ], [ null, %_ZNSt6vectorIN9Imath_3_24halfESaIS1_EE17_S_check_init_lenEmRKS2_.exit.i.i96 ]
  %uintChannels.sroa.0.0.i107 = phi ptr [ %call5.i.i.i.i2.i.i72.i, %call5.i.i.i.i2.i.i.noexc71.i ], [ %call5.i.i.i.i2.i.i72.i, %if.end.i.i.i.i.i.i.i65.i ], [ null, %_ZNSt6vectorIN9Imath_3_24halfESaIS1_EE17_S_check_init_lenEmRKS2_.exit.i.i96 ]
  %call34.i = invoke noundef nonnull align 8 dereferenceable(49) ptr @_ZNK7Imf_3_214TiledInputPart6headerEv(ptr noundef nonnull align 8 dereferenceable(8) %pt68)
          to label %invoke.cont33.i unwind label %lpad32.loopexit.split-lp.loopexit.split-lp.loopexit.split-lp.i

invoke.cont33.i:                                  ; preds = %invoke.cont31.i
  %call36.i = invoke noundef nonnull align 8 dereferenceable(48) ptr @_ZNK7Imf_3_26Header8channelsEv(ptr noundef nonnull align 8 dereferenceable(49) %call34.i)
          to label %invoke.cont35.i unwind label %lpad32.loopexit.split-lp.loopexit.split-lp.loopexit.split-lp.i

invoke.cont35.i:                                  ; preds = %invoke.cont33.i
  %call38.i = invoke ptr @_ZNK7Imf_3_211ChannelList5beginEv(ptr noundef nonnull align 8 dereferenceable(48) %call36.i)
          to label %for.cond.i112 unwind label %lpad32.loopexit.split-lp.loopexit.split-lp.loopexit.split-lp.i

for.cond.i112:                                    ; preds = %invoke.cont35.i, %sw.epilog.i118
  %c.sroa.0.0.i113 = phi ptr [ %call.i.i.i120, %sw.epilog.i118 ], [ %call38.i, %invoke.cont35.i ]
  %channelIndex.0.i114 = phi i32 [ %inc.i119, %sw.epilog.i118 ], [ 0, %invoke.cont35.i ]
  %call42.i = invoke ptr @_ZNK7Imf_3_211ChannelList3endEv(ptr noundef nonnull align 8 dereferenceable(48) %call36.i)
          to label %invoke.cont45.i unwind label %lpad32.loopexit.split-lp.loopexit.split-lp.loopexit.i

invoke.cont45.i:                                  ; preds = %for.cond.i112
  %cmp.i.i.i.not.i115 = icmp eq ptr %c.sroa.0.0.i113, %call42.i
  br i1 %cmp.i.i.i.not.i115, label %for.end.i124, label %for.body.i116

for.body.i116:                                    ; preds = %invoke.cont45.i
  %rem.i117 = urem i32 %channelIndex.0.i114, 3
  switch i32 %rem.i117, label %sw.epilog.i118 [
    i32 0, label %invoke.cont47.i
    i32 1, label %invoke.cont60.i
    i32 2, label %invoke.cont76.i
  ]

lpad24.i:                                         ; preds = %if.then.i.i.i.i.i.i98, %if.then.i.i.i129
  %61 = landingpad { ptr, i32 }
          catch ptr null
  br label %ehcleanup148.i

ehcleanup144.thread.i:                            ; preds = %if.then.i.i.i.i.i43.i
  %62 = landingpad { ptr, i32 }
          catch ptr null
  br label %if.then.i.i.i96.i

ehcleanup.thread.i105:                            ; preds = %if.then.i.i.i.i.i59.i
  %63 = landingpad { ptr, i32 }
          catch ptr null
  br label %if.then.i.i.i93.i

lpad32.loopexit.split.split.loopexit.split-lp.i:  ; preds = %lpad115.split.us.i.split.us
  %lpad.loopexit.split-lp210.i = landingpad { ptr, i32 }
          catch ptr null
  br label %lpad32.i

lpad32.loopexit.split-lp.loopexit.split-lp.loopexit.i: ; preds = %invoke.cont76.i, %invoke.cont73.i, %invoke.cont60.i, %invoke.cont57.invoke.i, %invoke.cont47.i, %for.cond.i112
  %lpad.loopexit161.i = landingpad { ptr, i32 }
          catch ptr null
  br label %lpad32.i

lpad32.loopexit.split-lp.loopexit.split-lp.loopexit.split-lp.i: ; preds = %for.end.i124, %invoke.cont35.i, %invoke.cont33.i, %invoke.cont31.i
  %lpad.loopexit.split-lp.i = landingpad { ptr, i32 }
          catch ptr null
  br label %lpad32.i

lpad32.i:                                         ; preds = %lpad32.loopexit.split.us.split.us.split.us.split.us.split.us.i.split, %lpad32.loopexit.split.us.split.us.split.us.split.us.split.us.i.split.us, %lpad32.loopexit.split-lp.loopexit.split.us.split.us.split.us.i.split, %lpad32.loopexit.split-lp.loopexit.split.us.split.us.split.us.i.split.us, %lpad32.loopexit.split.split.us.split.us.split.us.i, %lpad32.loopexit.split-lp.loopexit.split.split.us.split.us.i, %lpad32.loopexit.split.split.loopexit.split.us.i.split.us, %lpad32.loopexit.split-lp.loopexit.split.split.split.us.i.split.us, %lpad32.loopexit.split-lp.loopexit.split-lp.loopexit.split-lp.i, %lpad32.loopexit.split-lp.loopexit.split-lp.loopexit.i, %lpad32.loopexit.split.split.loopexit.split-lp.i
  %lpad.phi.i108 = phi { ptr, i32 } [ %lpad.loopexit.us203.us.us.i, %lpad32.loopexit.split.split.us.split.us.split.us.i ], [ %lpad.loopexit209.us.i.us, %lpad32.loopexit.split.split.loopexit.split.us.i.split.us ], [ %lpad.loopexit.split-lp210.i, %lpad32.loopexit.split.split.loopexit.split-lp.i ], [ %lpad.loopexit157.us298.i.us, %lpad32.loopexit.split-lp.loopexit.split.split.split.us.i.split.us ], [ %lpad.loopexit157.us233.us.i, %lpad32.loopexit.split-lp.loopexit.split.split.us.split.us.i ], [ %lpad.loopexit161.i, %lpad32.loopexit.split-lp.loopexit.split-lp.loopexit.i ], [ %lpad.loopexit.split-lp.i, %lpad32.loopexit.split-lp.loopexit.split-lp.loopexit.split-lp.i ], [ %lpad.loopexit157.us.us.us.i, %lpad32.loopexit.split-lp.loopexit.split.us.split.us.split.us.i.split ], [ %lpad.loopexit157.us.us.us.i.us, %lpad32.loopexit.split-lp.loopexit.split.us.split.us.split.us.i.split.us ], [ %lpad.loopexit.us.us.us.us.us.i, %lpad32.loopexit.split.us.split.us.split.us.split.us.split.us.i.split ], [ %lpad.loopexit.us.us.us.us.us.i.us, %lpad32.loopexit.split.us.split.us.split.us.split.us.split.us.i.split.us ]
  %tobool.not.i.i.i.i109 = icmp eq ptr %uintChannels.sroa.0.0.i107, null
  br i1 %tobool.not.i.i.i.i109, label %ehcleanup.i111, label %if.then.i.i.i.i110

if.then.i.i.i.i110:                               ; preds = %lpad32.i
  call void @_ZdlPv(ptr noundef nonnull %uintChannels.sroa.0.0.i107) #24
  br label %ehcleanup.i111

invoke.cont47.i:                                  ; preds = %for.body.i116
  %xSampling.i121 = getelementptr inbounds i8, ptr %c.sroa.0.0.i113, i64 292
  %64 = load i32, ptr %xSampling.i121, align 4
  %div39.i = sdiv i32 %54, %64
  %div.i122 = sub nsw i32 0, %div39.i
  %conv52.i = sext i32 %div.i122 to i64
  %add.ptr.i.i = getelementptr inbounds %"class.Imath_3_2::half", ptr %halfChannels.sroa.0.0131136.i, i64 %conv52.i
  %ySampling.i123 = getelementptr inbounds i8, ptr %c.sroa.0.0.i113, i64 296
  %65 = load i32, ptr %ySampling.i123, align 4
  invoke void @_ZN7Imf_3_25SliceC1ENS_9PixelTypeEPcmmiidbb(ptr noundef nonnull align 8 dereferenceable(50) %ref.tmp49.i, i32 noundef 1, ptr noundef nonnull %add.ptr.i.i, i64 noundef 2, i64 noundef 0, i32 noundef %64, i32 noundef %65, double noundef 0.000000e+00, i1 noundef zeroext false, i1 noundef zeroext false)
          to label %invoke.cont57.invoke.i unwind label %lpad32.loopexit.split-lp.loopexit.split-lp.loopexit.i

invoke.cont57.invoke.i:                           ; preds = %invoke.cont76.i, %invoke.cont47.i
  %66 = phi ptr [ %ref.tmp78.i, %invoke.cont76.i ], [ %ref.tmp49.i, %invoke.cont47.i ]
  %_M_storage.i.i.i80.i = getelementptr inbounds i8, ptr %c.sroa.0.0.i113, i64 32
  invoke void @_ZN7Imf_3_211FrameBuffer6insertEPKcRKNS_5SliceE(ptr noundef nonnull align 8 dereferenceable(48) %i.i67, ptr noundef nonnull %_M_storage.i.i.i80.i, ptr noundef nonnull align 8 dereferenceable(50) %66)
          to label %sw.epilog.i118 unwind label %lpad32.loopexit.split-lp.loopexit.split-lp.loopexit.i

invoke.cont60.i:                                  ; preds = %for.body.i116
  %xSampling65.i = getelementptr inbounds i8, ptr %c.sroa.0.0.i113, i64 292
  %67 = load i32, ptr %xSampling65.i, align 4
  %div6637.i = sdiv i32 %54, %67
  %div66.i = sub nsw i32 0, %div6637.i
  %conv67.i = sext i32 %div66.i to i64
  %add.ptr.i77.i = getelementptr inbounds float, ptr %floatChannels.sroa.0.0139.i, i64 %conv67.i
  %ySampling72.i = getelementptr inbounds i8, ptr %c.sroa.0.0.i113, i64 296
  %68 = load i32, ptr %ySampling72.i, align 4
  invoke void @_ZN7Imf_3_25SliceC1ENS_9PixelTypeEPcmmiidbb(ptr noundef nonnull align 8 dereferenceable(50) %ref.tmp62.i, i32 noundef 2, ptr noundef nonnull %add.ptr.i77.i, i64 noundef 4, i64 noundef 0, i32 noundef %67, i32 noundef %68, double noundef 0.000000e+00, i1 noundef zeroext false, i1 noundef zeroext false)
          to label %invoke.cont73.i unwind label %lpad32.loopexit.split-lp.loopexit.split-lp.loopexit.i

invoke.cont73.i:                                  ; preds = %invoke.cont60.i
  %_M_storage.i.i.i75.i = getelementptr inbounds i8, ptr %c.sroa.0.0.i113, i64 32
  invoke void @_ZN7Imf_3_211FrameBuffer6insertEPKcRKNS_5SliceE(ptr noundef nonnull align 8 dereferenceable(48) %i.i67, ptr noundef nonnull %_M_storage.i.i.i75.i, ptr noundef nonnull align 8 dereferenceable(50) %ref.tmp62.i)
          to label %invoke.cont76.i unwind label %lpad32.loopexit.split-lp.loopexit.split-lp.loopexit.i

invoke.cont76.i:                                  ; preds = %invoke.cont73.i, %for.body.i116
  %xSampling81.i = getelementptr inbounds i8, ptr %c.sroa.0.0.i113, i64 292
  %69 = load i32, ptr %xSampling81.i, align 4
  %div8238.i = sdiv i32 %54, %69
  %div82.i = sub nsw i32 0, %div8238.i
  %conv83.i = sext i32 %div82.i to i64
  %add.ptr.i82.i = getelementptr inbounds i32, ptr %uintChannels.sroa.0.0.i107, i64 %conv83.i
  %ySampling88.i = getelementptr inbounds i8, ptr %c.sroa.0.0.i113, i64 296
  %70 = load i32, ptr %ySampling88.i, align 4
  invoke void @_ZN7Imf_3_25SliceC1ENS_9PixelTypeEPcmmiidbb(ptr noundef nonnull align 8 dereferenceable(50) %ref.tmp78.i, i32 noundef 0, ptr noundef nonnull %add.ptr.i82.i, i64 noundef 4, i64 noundef 0, i32 noundef %69, i32 noundef %70, double noundef 0.000000e+00, i1 noundef zeroext false, i1 noundef zeroext false)
          to label %invoke.cont57.invoke.i unwind label %lpad32.loopexit.split-lp.loopexit.split-lp.loopexit.i

sw.epilog.i118:                                   ; preds = %invoke.cont57.invoke.i, %for.body.i116
  %inc.i119 = add nuw nsw i32 %channelIndex.0.i114, 1
  %call.i.i.i120 = call noundef ptr @_ZSt18_Rb_tree_incrementPKSt18_Rb_tree_node_base(ptr noundef %c.sroa.0.0.i113) #28
  br label %for.cond.i112, !llvm.loop !18

for.end.i124:                                     ; preds = %invoke.cont45.i
  invoke void @_ZN7Imf_3_214TiledInputPart14setFrameBufferERKNS_11FrameBufferE(ptr noundef nonnull align 8 dereferenceable(8) %pt68, ptr noundef nonnull align 8 dereferenceable(48) %i.i67)
          to label %invoke.cont92.i unwind label %lpad32.loopexit.split-lp.loopexit.split-lp.loopexit.split-lp.i

invoke.cont92.i:                                  ; preds = %for.end.i124
  %mode.i = getelementptr inbounds i8, ptr %call15.i86, i64 8
  %71 = load i32, ptr %mode.i, align 4
  %cmp93.i = icmp ne i32 %71, 2
  %cmp96.not265.i = icmp sgt i32 %call11.i82, 0
  %cmp99259.i = icmp sgt i32 %call9.i80, 0
  %or.cond = and i1 %cmp96.not265.i, %cmp99259.i
  br i1 %or.cond, label %for.cond98.preheader.us.i, label %cleanup141.i

for.cond98.preheader.us.i:                        ; preds = %invoke.cont92.i, %for.cond98.for.inc138_crit_edge.us.i
  %cmp96.not269.us.i = phi i1 [ %cmp96.not.us.i, %for.cond98.for.inc138_crit_edge.us.i ], [ true, %invoke.cont92.i ]
  %ylevel.0268.us.i = phi i32 [ %inc139.us.i, %for.cond98.for.inc138_crit_edge.us.i ], [ 0, %invoke.cont92.i ]
  %threw.0266.us.i = phi i8 [ %.us-phi383, %for.cond98.for.inc138_crit_edge.us.i ], [ 0, %invoke.cont92.i ]
  br i1 %reduceTime, label %for.cond101.preheader.us.i.us, label %for.cond101.preheader.us.i

for.cond101.preheader.us.i.us:                    ; preds = %for.cond98.preheader.us.i, %for.inc135.us.i.us
  %xlevel.0262.us.i.us = phi i32 [ %inc136.us.i.us, %for.inc135.us.i.us ], [ 0, %for.cond98.preheader.us.i ]
  %cmp119.us.i.us = icmp ne i32 %xlevel.0262.us.i.us, %ylevel.0268.us.i
  %or.cond.not156.us.i.us = and i1 %cmp93.i, %cmp119.us.i.us
  %or.cond.not156.fr.us.i.us = freeze i1 %or.cond.not156.us.i.us
  br i1 %or.cond.not156.fr.us.i.us, label %for.cond101.us.us.us.i.us, label %for.cond101.us272.i.us

for.cond101.us272.i.us:                           ; preds = %for.cond101.preheader.us.i.us, %for.inc132.split.split.us.i.us
  %y.0.us274.i.us = phi i32 [ %inc133.us280.i.us, %for.inc132.split.split.us.i.us ], [ 0, %for.cond101.preheader.us.i.us ]
  %call103.us275.i.us = invoke noundef i32 @_ZNK7Imf_3_214TiledInputPart9numYTilesEi(ptr noundef nonnull align 8 dereferenceable(8) %pt68, i32 noundef %ylevel.0268.us.i)
          to label %invoke.cont102.us276.i.us unwind label %lpad32.loopexit.split-lp.loopexit.split.split.split.us.i.split.us

invoke.cont102.us276.i.us:                        ; preds = %for.cond101.us272.i.us
  %cmp104.us277.i.us = icmp slt i32 %y.0.us274.i.us, %call103.us275.i.us
  br i1 %cmp104.us277.i.us, label %for.cond107.us.i.us, label %for.inc135.us.i.us

for.cond107.us.i.us:                              ; preds = %invoke.cont102.us276.i.us, %if.end127.us.i.us
  %x106.0.us.i.us = phi i32 [ %inc130.us.i.us, %if.end127.us.i.us ], [ 0, %invoke.cont102.us276.i.us ]
  %call109.us.i.us = invoke noundef i32 @_ZNK7Imf_3_214TiledInputPart9numXTilesEi(ptr noundef nonnull align 8 dereferenceable(8) %pt68, i32 noundef %xlevel.0262.us.i.us)
          to label %invoke.cont108.us.i.us unwind label %lpad32.loopexit.split.split.loopexit.split.us.i.split.us

invoke.cont108.us.i.us:                           ; preds = %for.cond107.us.i.us
  %cmp110.us.i.us = icmp slt i32 %x106.0.us.i.us, %call109.us.i.us
  br i1 %cmp110.us.i.us, label %if.then114.us.i.us, label %for.inc132.split.split.us.i.us

for.inc132.split.split.us.i.us:                   ; preds = %invoke.cont108.us.i.us
  %inc133.us280.i.us = add nuw nsw i32 %y.0.us274.i.us, 1
  br label %for.cond101.us272.i.us, !llvm.loop !19

if.then114.us.i.us:                               ; preds = %invoke.cont108.us.i.us
  invoke void @_ZN7Imf_3_214TiledInputPart8readTileEiiii(ptr noundef nonnull align 8 dereferenceable(8) %pt68, i32 noundef %x106.0.us.i.us, i32 noundef %y.0.us274.i.us, i32 noundef %xlevel.0262.us.i.us, i32 noundef %ylevel.0268.us.i)
          to label %if.end127.us.i.us unwind label %lpad115.split.us.i.split.us

if.end127.us.i.us:                                ; preds = %if.then114.us.i.us
  %inc130.us.i.us = add nuw nsw i32 %x106.0.us.i.us, 1
  br label %for.cond107.us.i.us, !llvm.loop !20

for.cond101.us.us.us.i.us:                        ; preds = %for.cond101.preheader.us.i.us, %for.inc132.split.us.us.split.us.us.us.i.us
  %y.0.us.us.us.i.us = phi i32 [ %inc133.us.us.us.i.us, %for.inc132.split.us.us.split.us.us.us.i.us ], [ 0, %for.cond101.preheader.us.i.us ]
  %call103.us.us.us.i.us = invoke noundef i32 @_ZNK7Imf_3_214TiledInputPart9numYTilesEi(ptr noundef nonnull align 8 dereferenceable(8) %pt68, i32 noundef %ylevel.0268.us.i)
          to label %invoke.cont102.us.us.us.i.us unwind label %lpad32.loopexit.split-lp.loopexit.split.us.split.us.split.us.i.split.us

invoke.cont102.us.us.us.i.us:                     ; preds = %for.cond101.us.us.us.i.us
  %cmp104.us.us.us.i.us = icmp slt i32 %y.0.us.us.us.i.us, %call103.us.us.us.i.us
  br i1 %cmp104.us.us.us.i.us, label %for.cond107.us.us.us.us.us.i.us, label %for.inc135.us.i.us

for.inc135.us.i.us:                               ; preds = %invoke.cont102.us276.i.us, %invoke.cont102.us.us.us.i.us
  %inc136.us.i.us = add nuw nsw i32 %xlevel.0262.us.i.us, 1
  %exitcond345.not.i.us = icmp eq i32 %inc136.us.i.us, %call9.i80
  br i1 %exitcond345.not.i.us, label %for.cond98.for.inc138_crit_edge.us.i, label %for.cond101.preheader.us.i.us, !llvm.loop !21

for.cond107.us.us.us.us.us.i.us:                  ; preds = %invoke.cont102.us.us.us.i.us, %if.end127.us.us.us.us.us.i.us
  %x106.0.us.us.us.us.us.i.us = phi i32 [ %inc130.us.us.us.us.us.i.us, %if.end127.us.us.us.us.us.i.us ], [ 0, %invoke.cont102.us.us.us.i.us ]
  %call109.us.us.us.us.us.i.us = invoke noundef i32 @_ZNK7Imf_3_214TiledInputPart9numXTilesEi(ptr noundef nonnull align 8 dereferenceable(8) %pt68, i32 noundef %xlevel.0262.us.i.us)
          to label %invoke.cont108.us.us.us.us.us.i.us unwind label %lpad32.loopexit.split.us.split.us.split.us.split.us.split.us.i.split.us

invoke.cont108.us.us.us.us.us.i.us:               ; preds = %for.cond107.us.us.us.us.us.i.us
  %cmp110.us.us.us.us.us.i.us = icmp slt i32 %x106.0.us.us.us.us.us.i.us, %call109.us.us.us.us.us.i.us
  br i1 %cmp110.us.us.us.us.us.i.us, label %if.then114.us.us.us.us.us.i.us, label %for.inc132.split.us.us.split.us.us.us.i.us

for.inc132.split.us.us.split.us.us.us.i.us:       ; preds = %invoke.cont108.us.us.us.us.us.i.us
  %inc133.us.us.us.i.us = add nuw nsw i32 %y.0.us.us.us.i.us, 1
  br label %for.cond101.us.us.us.i.us, !llvm.loop !19

if.then114.us.us.us.us.us.i.us:                   ; preds = %invoke.cont108.us.us.us.us.us.i.us
  invoke void @_ZN7Imf_3_214TiledInputPart8readTileEiiii(ptr noundef nonnull align 8 dereferenceable(8) %pt68, i32 noundef %x106.0.us.us.us.us.us.i.us, i32 noundef %y.0.us.us.us.i.us, i32 noundef %xlevel.0262.us.i.us, i32 noundef %ylevel.0268.us.i)
          to label %if.end127.us.us.us.us.us.i.us unwind label %lpad115.us.us.us.us.us.i.us

lpad115.us.us.us.us.us.i.us:                      ; preds = %if.then114.us.us.us.us.us.i.us
  %72 = landingpad { ptr, i32 }
          catch ptr null
  %73 = extractvalue { ptr, i32 } %72, 0
  %74 = call ptr @__cxa_begin_catch(ptr %73) #22
  invoke void @__cxa_end_catch()
          to label %if.end127.us.us.us.us.us.i.us unwind label %lpad32.loopexit.split.us.split.us.split.us.split.us.split.us.i.split.us

if.end127.us.us.us.us.us.i.us:                    ; preds = %lpad115.us.us.us.us.us.i.us, %if.then114.us.us.us.us.us.i.us
  %inc130.us.us.us.us.us.i.us = add nuw nsw i32 %x106.0.us.us.us.us.us.i.us, 1
  br label %for.cond107.us.us.us.us.us.i.us, !llvm.loop !20

lpad32.loopexit.split-lp.loopexit.split.split.split.us.i.split.us: ; preds = %for.cond101.us272.i.us
  %lpad.loopexit157.us298.i.us = landingpad { ptr, i32 }
          catch ptr null
  br label %lpad32.i

lpad32.loopexit.split.split.loopexit.split.us.i.split.us: ; preds = %for.cond107.us.i.us
  %lpad.loopexit209.us.i.us = landingpad { ptr, i32 }
          catch ptr null
  br label %lpad32.i

lpad115.split.us.i.split.us:                      ; preds = %if.then114.us.i.us
  %75 = landingpad { ptr, i32 }
          catch ptr null
  %76 = extractvalue { ptr, i32 } %75, 0
  %77 = call ptr @__cxa_begin_catch(ptr %76) #22
  invoke void @__cxa_end_catch()
          to label %cleanup141.i unwind label %lpad32.loopexit.split.split.loopexit.split-lp.i

lpad32.loopexit.split-lp.loopexit.split.us.split.us.split.us.i.split.us: ; preds = %for.cond101.us.us.us.i.us
  %lpad.loopexit157.us.us.us.i.us = landingpad { ptr, i32 }
          catch ptr null
  br label %lpad32.i

lpad32.loopexit.split.us.split.us.split.us.split.us.split.us.i.split.us: ; preds = %lpad115.us.us.us.us.us.i.us, %for.cond107.us.us.us.us.us.i.us
  %lpad.loopexit.us.us.us.us.us.i.us = landingpad { ptr, i32 }
          catch ptr null
  br label %lpad32.i

for.cond101.preheader.us.i:                       ; preds = %for.cond98.preheader.us.i, %for.inc135.us.i
  %xlevel.0262.us.i = phi i32 [ %inc136.us.i, %for.inc135.us.i ], [ 0, %for.cond98.preheader.us.i ]
  %threw.1260.us.i = phi i8 [ %.us-phi220.us.i, %for.inc135.us.i ], [ %threw.0266.us.i, %for.cond98.preheader.us.i ]
  %cmp119.us.i = icmp ne i32 %xlevel.0262.us.i, %ylevel.0268.us.i
  %or.cond.not156.us.i = and i1 %cmp93.i, %cmp119.us.i
  %or.cond.not156.fr.us.i = freeze i1 %or.cond.not156.us.i
