; ModuleID = 'bench/openexr/original/ImfStringAttribute.cpp.ll'
source_filename = "bench/openexr/original/ImfStringAttribute.cpp.ll"
target datalayout = "e-m:e-p270:32:32-p271:32:32-p272:64:64-i64:64-i128:128-f80:128-n8:16:32:64-S128"
target triple = "x86_64-unknown-linux-gnu"

%"class.std::ios_base::Init" = type { i8 }
%"class.Imf_3_2::TypedAttribute" = type { %"class.Imf_3_2::Attribute", %"class.std::__cxx11::basic_string" }
%"class.Imf_3_2::Attribute" = type { ptr }
%"class.std::__cxx11::basic_string" = type { %"struct.std::__cxx11::basic_string<char>::_Alloc_hider", i64, %union.anon }
%"struct.std::__cxx11::basic_string<char>::_Alloc_hider" = type { ptr }
%union.anon = type { i64, [8 x i8] }

$_ZN7Imf_3_214TypedAttributeINSt7__cxx1112basic_stringIcSt11char_traitsIcESaIcEEEEC5ERKS6_ = comdat any

$_ZN7Imf_3_214TypedAttributeINSt7__cxx1112basic_stringIcSt11char_traitsIcESaIcEEEED5Ev = comdat any

$_ZN7Imf_3_214TypedAttributeINSt7__cxx1112basic_stringIcSt11char_traitsIcESaIcEEEE5valueEv = comdat any

$_ZNK7Imf_3_214TypedAttributeINSt7__cxx1112basic_stringIcSt11char_traitsIcESaIcEEEE5valueEv = comdat any

$_ZNK7Imf_3_214TypedAttributeINSt7__cxx1112basic_stringIcSt11char_traitsIcESaIcEEEE8typeNameEv = comdat any

$_ZN7Imf_3_214TypedAttributeINSt7__cxx1112basic_stringIcSt11char_traitsIcESaIcEEEE16makeNewAttributeEv = comdat any

$_ZNK7Imf_3_214TypedAttributeINSt7__cxx1112basic_stringIcSt11char_traitsIcESaIcEEEE4copyEv = comdat any

$_ZN7Imf_3_214TypedAttributeINSt7__cxx1112basic_stringIcSt11char_traitsIcESaIcEEEE13copyValueFromERKNS_9AttributeE = comdat any

$_ZN7Imf_3_214TypedAttributeINSt7__cxx1112basic_stringIcSt11char_traitsIcESaIcEEEE4castERKNS_9AttributeE = comdat any

$_ZN7Imf_3_214TypedAttributeINSt7__cxx1112basic_stringIcSt11char_traitsIcESaIcEEEE4castEPNS_9AttributeE = comdat any

$_ZN7Imf_3_214TypedAttributeINSt7__cxx1112basic_stringIcSt11char_traitsIcESaIcEEEE4castEPKNS_9AttributeE = comdat any

$_ZN7Imf_3_214TypedAttributeINSt7__cxx1112basic_stringIcSt11char_traitsIcESaIcEEEE4castERNS_9AttributeE = comdat any

$_ZN7Imf_3_214TypedAttributeINSt7__cxx1112basic_stringIcSt11char_traitsIcESaIcEEEE21registerAttributeTypeEv = comdat any

$_ZN7Imf_3_214TypedAttributeINSt7__cxx1112basic_stringIcSt11char_traitsIcESaIcEEEE23unRegisterAttributeTypeEv = comdat any

$_ZTVN7Imf_3_214TypedAttributeINSt7__cxx1112basic_stringIcSt11char_traitsIcESaIcEEEEE = comdat any

$_ZTSN7Imf_3_214TypedAttributeINSt7__cxx1112basic_stringIcSt11char_traitsIcESaIcEEEEE = comdat any

$_ZTIN7Imf_3_214TypedAttributeINSt7__cxx1112basic_stringIcSt11char_traitsIcESaIcEEEEE = comdat any

@_ZStL8__ioinit = internal global %"class.std::ios_base::Init" zeroinitializer, align 1
@__dso_handle = external hidden global i8
@_ZTVN7Imf_3_214TypedAttributeINSt7__cxx1112basic_stringIcSt11char_traitsIcESaIcEEEEE = weak_odr unnamed_addr constant { [9 x ptr] } { [9 x ptr] [ptr null, ptr @_ZTIN7Imf_3_214TypedAttributeINSt7__cxx1112basic_stringIcSt11char_traitsIcESaIcEEEEE, ptr @_ZN7Imf_3_214TypedAttributeINSt7__cxx1112basic_stringIcSt11char_traitsIcESaIcEEEED1Ev, ptr @_ZN7Imf_3_214TypedAttributeINSt7__cxx1112basic_stringIcSt11char_traitsIcESaIcEEEED0Ev, ptr @_ZNK7Imf_3_214TypedAttributeINSt7__cxx1112basic_stringIcSt11char_traitsIcESaIcEEEE8typeNameEv, ptr @_ZNK7Imf_3_214TypedAttributeINSt7__cxx1112basic_stringIcSt11char_traitsIcESaIcEEEE4copyEv, ptr @_ZNK7Imf_3_214TypedAttributeINSt7__cxx1112basic_stringIcSt11char_traitsIcESaIcEEEE12writeValueToERNS_7OStreamEi, ptr @_ZN7Imf_3_214TypedAttributeINSt7__cxx1112basic_stringIcSt11char_traitsIcESaIcEEEE13readValueFromERNS_7IStreamEii, ptr @_ZN7Imf_3_214TypedAttributeINSt7__cxx1112basic_stringIcSt11char_traitsIcESaIcEEEE13copyValueFromERKNS_9AttributeE] }, comdat, align 8
@_ZTIN7Imf_3_29AttributeE = external constant ptr
@_ZTVN10__cxxabiv120__si_class_type_infoE = external global [0 x ptr]
@_ZTSN7Imf_3_214TypedAttributeINSt7__cxx1112basic_stringIcSt11char_traitsIcESaIcEEEEE = weak_odr constant [81 x i8] c"N7Imf_3_214TypedAttributeINSt7__cxx1112basic_stringIcSt11char_traitsIcESaIcEEEEE\00", comdat, align 1
@_ZTIN7Imf_3_214TypedAttributeINSt7__cxx1112basic_stringIcSt11char_traitsIcESaIcEEEEE = weak_odr constant { ptr, ptr, ptr } { ptr getelementptr inbounds (ptr, ptr @_ZTVN10__cxxabiv120__si_class_type_infoE, i64 2), ptr @_ZTSN7Imf_3_214TypedAttributeINSt7__cxx1112basic_stringIcSt11char_traitsIcESaIcEEEEE, ptr @_ZTIN7Imf_3_29AttributeE }, comdat, align 8
@.str = private unnamed_addr constant [27 x i8] c"Unexpected attribute type.\00", align 1
@_ZTIN7Iex_3_27TypeExcE = external constant ptr
@.str.1 = private unnamed_addr constant [7 x i8] c"string\00", align 1
@llvm.global_ctors = appending global [1 x { i32, ptr, ptr }] [{ i32, ptr, ptr } { i32 65535, ptr @_GLOBAL__sub_I_ImfStringAttribute.cpp, ptr null }]

@_ZN7Imf_3_214TypedAttributeINSt7__cxx1112basic_stringIcSt11char_traitsIcESaIcEEEEC1ERKS6_ = weak_odr unnamed_addr alias void (ptr, ptr), ptr @_ZN7Imf_3_214TypedAttributeINSt7__cxx1112basic_stringIcSt11char_traitsIcESaIcEEEEC2ERKS6_
@_ZN7Imf_3_214TypedAttributeINSt7__cxx1112basic_stringIcSt11char_traitsIcESaIcEEEED1Ev = weak_odr unnamed_addr alias void (ptr), ptr @_ZN7Imf_3_214TypedAttributeINSt7__cxx1112basic_stringIcSt11char_traitsIcESaIcEEEED2Ev

declare void @_ZNSt8ios_base4InitC1Ev(ptr noundef nonnull align 1 dereferenceable(1)) unnamed_addr #0

; Function Attrs: nounwind
declare void @_ZNSt8ios_base4InitD1Ev(ptr noundef nonnull align 1 dereferenceable(1)) unnamed_addr #1

; Function Attrs: nofree nounwind
declare i32 @__cxa_atexit(ptr, ptr, ptr) local_unnamed_addr #2

; Function Attrs: mustprogress uwtable
define weak_odr void @_ZN7Imf_3_214TypedAttributeINSt7__cxx1112basic_stringIcSt11char_traitsIcESaIcEEEEC2ERKS6_(ptr noundef nonnull align 8 dereferenceable(40) %this, ptr noundef nonnull align 8 dereferenceable(32) %value) unnamed_addr #3 comdat($_ZN7Imf_3_214TypedAttributeINSt7__cxx1112basic_stringIcSt11char_traitsIcESaIcEEEEC5ERKS6_) align 2 personality ptr @__gxx_personality_v0 {
entry:
  tail call void @_ZN7Imf_3_29AttributeC2Ev(ptr noundef nonnull align 8 dereferenceable(8) %this)
  store ptr getelementptr inbounds ({ [9 x ptr] }, ptr @_ZTVN7Imf_3_214TypedAttributeINSt7__cxx1112basic_stringIcSt11char_traitsIcESaIcEEEEE, i64 0, inrange i32 0, i64 2), ptr %this, align 8
  %_value = getelementptr inbounds %"class.Imf_3_2::TypedAttribute", ptr %this, i64 0, i32 1
  invoke void @_ZNSt7__cxx1112basic_stringIcSt11char_traitsIcESaIcEEC1ERKS4_(ptr noundef nonnull align 8 dereferenceable(32) %_value, ptr noundef nonnull align 8 dereferenceable(32) %value)
          to label %invoke.cont unwind label %lpad

invoke.cont:                                      ; preds = %entry
  ret void

lpad:                                             ; preds = %entry
  %0 = landingpad { ptr, i32 }
          cleanup
  tail call void @_ZN7Imf_3_29AttributeD2Ev(ptr noundef nonnull align 8 dereferenceable(8) %this) #12
  resume { ptr, i32 } %0
}

declare void @_ZN7Imf_3_29AttributeC2Ev(ptr noundef nonnull align 8 dereferenceable(8)) unnamed_addr #0

declare void @_ZNSt7__cxx1112basic_stringIcSt11char_traitsIcESaIcEEC1ERKS4_(ptr noundef nonnull align 8 dereferenceable(32), ptr noundef nonnull align 8 dereferenceable(32)) unnamed_addr #0

declare i32 @__gxx_personality_v0(...)

; Function Attrs: nounwind
declare void @_ZN7Imf_3_29AttributeD2Ev(ptr noundef nonnull align 8 dereferenceable(8)) unnamed_addr #1

; Function Attrs: mustprogress nounwind uwtable
define weak_odr void @_ZN7Imf_3_214TypedAttributeINSt7__cxx1112basic_stringIcSt11char_traitsIcESaIcEEEED2Ev(ptr noundef nonnull align 8 dereferenceable(40) %this) unnamed_addr #4 comdat($_ZN7Imf_3_214TypedAttributeINSt7__cxx1112basic_stringIcSt11char_traitsIcESaIcEEEED5Ev) align 2 {
entry:
  store ptr getelementptr inbounds ({ [9 x ptr] }, ptr @_ZTVN7Imf_3_214TypedAttributeINSt7__cxx1112basic_stringIcSt11char_traitsIcESaIcEEEEE, i64 0, inrange i32 0, i64 2), ptr %this, align 8
  %_value = getelementptr inbounds %"class.Imf_3_2::TypedAttribute", ptr %this, i64 0, i32 1
  tail call void @_ZNSt7__cxx1112basic_stringIcSt11char_traitsIcESaIcEED1Ev(ptr noundef nonnull align 8 dereferenceable(32) %_value) #12
  tail call void @_ZN7Imf_3_29AttributeD2Ev(ptr noundef nonnull align 8 dereferenceable(8) %this) #12
  ret void
}

; Function Attrs: nounwind
declare void @_ZNSt7__cxx1112basic_stringIcSt11char_traitsIcESaIcEED1Ev(ptr noundef nonnull align 8 dereferenceable(32)) unnamed_addr #1

; Function Attrs: mustprogress nounwind uwtable
define weak_odr void @_ZN7Imf_3_214TypedAttributeINSt7__cxx1112basic_stringIcSt11char_traitsIcESaIcEEEED0Ev(ptr noundef nonnull align 8 dereferenceable(40) %this) unnamed_addr #4 comdat($_ZN7Imf_3_214TypedAttributeINSt7__cxx1112basic_stringIcSt11char_traitsIcESaIcEEEED5Ev) align 2 {
entry:
  tail call void @_ZN7Imf_3_214TypedAttributeINSt7__cxx1112basic_stringIcSt11char_traitsIcESaIcEEEED1Ev(ptr noundef nonnull align 8 dereferenceable(40) %this) #12
  tail call void @_ZdlPv(ptr noundef nonnull %this) #13
  ret void
}

; Function Attrs: nobuiltin nounwind
declare void @_ZdlPv(ptr noundef) local_unnamed_addr #5

; Function Attrs: mustprogress nounwind uwtable
define weak_odr noundef nonnull align 8 dereferenceable(32) ptr @_ZN7Imf_3_214TypedAttributeINSt7__cxx1112basic_stringIcSt11char_traitsIcESaIcEEEE5valueEv(ptr noundef nonnull align 8 dereferenceable(40) %this) local_unnamed_addr #4 comdat align 2 {
entry:
  %_value = getelementptr inbounds %"class.Imf_3_2::TypedAttribute", ptr %this, i64 0, i32 1
  ret ptr %_value
}

; Function Attrs: mustprogress nounwind uwtable
define weak_odr noundef nonnull align 8 dereferenceable(32) ptr @_ZNK7Imf_3_214TypedAttributeINSt7__cxx1112basic_stringIcSt11char_traitsIcESaIcEEEE5valueEv(ptr noundef nonnull align 8 dereferenceable(40) %this) local_unnamed_addr #4 comdat align 2 {
entry:
  %_value = getelementptr inbounds %"class.Imf_3_2::TypedAttribute", ptr %this, i64 0, i32 1
  ret ptr %_value
}

; Function Attrs: mustprogress uwtable
define weak_odr noundef ptr @_ZNK7Imf_3_214TypedAttributeINSt7__cxx1112basic_stringIcSt11char_traitsIcESaIcEEEE8typeNameEv(ptr noundef nonnull align 8 dereferenceable(40) %this) unnamed_addr #3 comdat align 2 {
entry:
  ret ptr @.str.1
}

; Function Attrs: mustprogress nofree norecurse nosync nounwind willreturn memory(none) uwtable
define noundef nonnull ptr @_ZN7Imf_3_214TypedAttributeINSt7__cxx1112basic_stringIcSt11char_traitsIcESaIcEEEE14staticTypeNameEv() local_unnamed_addr #6 align 2 {
entry:
  ret ptr @.str.1
}

; Function Attrs: mustprogress uwtable
define weak_odr noundef ptr @_ZN7Imf_3_214TypedAttributeINSt7__cxx1112basic_stringIcSt11char_traitsIcESaIcEEEE16makeNewAttributeEv() #3 comdat align 2 personality ptr @__gxx_personality_v0 {
entry:
  %call = tail call noalias noundef nonnull dereferenceable(40) ptr @_Znwm(i64 noundef 40) #14
  tail call void @llvm.memset.p0.i64(ptr noundef nonnull align 16 dereferenceable(40) %call, i8 0, i64 40, i1 false)
  invoke void @_ZN7Imf_3_29AttributeC2Ev(ptr noundef nonnull align 8 dereferenceable(8) %call)
          to label %invoke.cont unwind label %lpad

invoke.cont:                                      ; preds = %entry
  store ptr getelementptr inbounds ({ [9 x ptr] }, ptr @_ZTVN7Imf_3_214TypedAttributeINSt7__cxx1112basic_stringIcSt11char_traitsIcESaIcEEEEE, i64 0, inrange i32 0, i64 2), ptr %call, align 8
  %_value.i = getelementptr inbounds %"class.Imf_3_2::TypedAttribute", ptr %call, i64 0, i32 1
  tail call void @_ZNSt7__cxx1112basic_stringIcSt11char_traitsIcESaIcEEC1Ev(ptr noundef nonnull align 8 dereferenceable(32) %_value.i) #12
  ret ptr %call

lpad:                                             ; preds = %entry
  %0 = landingpad { ptr, i32 }
          cleanup
  tail call void @_ZdlPv(ptr noundef nonnull %call) #13
  resume { ptr, i32 } %0
}

; Function Attrs: nobuiltin allocsize(0)
declare noundef nonnull ptr @_Znwm(i64 noundef) local_unnamed_addr #7

; Function Attrs: mustprogress nocallback nofree nounwind willreturn memory(argmem: write)
declare void @llvm.memset.p0.i64(ptr nocapture writeonly, i8, i64, i1 immarg) #8

; Function Attrs: mustprogress uwtable
define weak_odr noundef ptr @_ZNK7Imf_3_214TypedAttributeINSt7__cxx1112basic_stringIcSt11char_traitsIcESaIcEEEE4copyEv(ptr noundef nonnull align 8 dereferenceable(40) %this) unnamed_addr #3 comdat align 2 personality ptr @__gxx_personality_v0 {
entry:
  %call = tail call noalias noundef nonnull dereferenceable(40) ptr @_Znwm(i64 noundef 40) #14
  tail call void @llvm.memset.p0.i64(ptr noundef nonnull align 16 dereferenceable(40) %call, i8 0, i64 40, i1 false)
  invoke void @_ZN7Imf_3_29AttributeC2Ev(ptr noundef nonnull align 8 dereferenceable(8) %call)
          to label %invoke.cont unwind label %lpad

invoke.cont:                                      ; preds = %entry
  store ptr getelementptr inbounds ({ [9 x ptr] }, ptr @_ZTVN7Imf_3_214TypedAttributeINSt7__cxx1112basic_stringIcSt11char_traitsIcESaIcEEEEE, i64 0, inrange i32 0, i64 2), ptr %call, align 8
  %_value.i = getelementptr inbounds %"class.Imf_3_2::TypedAttribute", ptr %call, i64 0, i32 1
  tail call void @_ZNSt7__cxx1112basic_stringIcSt11char_traitsIcESaIcEEC1Ev(ptr noundef nonnull align 8 dereferenceable(32) %_value.i) #12
  %vtable = load ptr, ptr %call, align 8
  %vfn = getelementptr inbounds ptr, ptr %vtable, i64 6
  %0 = load ptr, ptr %vfn, align 8
  tail call void %0(ptr noundef nonnull align 8 dereferenceable(8) %call, ptr noundef nonnull align 8 dereferenceable(8) %this)
  ret ptr %call

lpad:                                             ; preds = %entry
  %1 = landingpad { ptr, i32 }
          cleanup
  tail call void @_ZdlPv(ptr noundef nonnull %call) #13
  resume { ptr, i32 } %1
}

; Function Attrs: mustprogress uwtable
define weak_odr void @_ZN7Imf_3_214TypedAttributeINSt7__cxx1112basic_stringIcSt11char_traitsIcESaIcEEEE13copyValueFromERKNS_9AttributeE(ptr noundef nonnull align 8 dereferenceable(40) %this, ptr noundef nonnull align 8 dereferenceable(8) %other) unnamed_addr #3 comdat align 2 personality ptr @__gxx_personality_v0 {
entry:
  %0 = tail call ptr @__dynamic_cast(ptr nonnull %other, ptr nonnull @_ZTIN7Imf_3_29AttributeE, ptr nonnull @_ZTIN7Imf_3_214TypedAttributeINSt7__cxx1112basic_stringIcSt11char_traitsIcESaIcEEEEE, i64 0) #12
  %cmp.i.i = icmp eq ptr %0, null
  br i1 %cmp.i.i, label %if.then.i.i, label %_ZN7Imf_3_214TypedAttributeINSt7__cxx1112basic_stringIcSt11char_traitsIcESaIcEEEE4castERKNS_9AttributeE.exit

if.then.i.i:                                      ; preds = %entry
  %exception.i.i = tail call ptr @__cxa_allocate_exception(i64 72) #12
  invoke void @_ZN7Iex_3_27TypeExcC1EPKc(ptr noundef nonnull align 8 dereferenceable(72) %exception.i.i, ptr noundef nonnull @.str)
          to label %invoke.cont.i.i unwind label %lpad.i.i

invoke.cont.i.i:                                  ; preds = %if.then.i.i
  tail call void @__cxa_throw(ptr nonnull %exception.i.i, ptr nonnull @_ZTIN7Iex_3_27TypeExcE, ptr nonnull @_ZN7Iex_3_27TypeExcD1Ev) #15
  unreachable

lpad.i.i:                                         ; preds = %if.then.i.i
  %1 = landingpad { ptr, i32 }
          cleanup
  tail call void @__cxa_free_exception(ptr %exception.i.i) #12
  resume { ptr, i32 } %1

_ZN7Imf_3_214TypedAttributeINSt7__cxx1112basic_stringIcSt11char_traitsIcESaIcEEEE4castERKNS_9AttributeE.exit: ; preds = %entry
  %_value = getelementptr inbounds %"class.Imf_3_2::TypedAttribute", ptr %0, i64 0, i32 1
  %_value2 = getelementptr inbounds %"class.Imf_3_2::TypedAttribute", ptr %this, i64 0, i32 1
  %call3 = tail call noundef nonnull align 8 dereferenceable(32) ptr @_ZNSt7__cxx1112basic_stringIcSt11char_traitsIcESaIcEEaSERKS4_(ptr noundef nonnull align 8 dereferenceable(32) %_value2, ptr noundef nonnull align 8 dereferenceable(32) %_value)
  ret void
}

; Function Attrs: mustprogress uwtable
define weak_odr noundef nonnull align 8 dereferenceable(40) ptr @_ZN7Imf_3_214TypedAttributeINSt7__cxx1112basic_stringIcSt11char_traitsIcESaIcEEEE4castERKNS_9AttributeE(ptr noundef nonnull align 8 dereferenceable(8) %attribute) local_unnamed_addr #3 comdat align 2 personality ptr @__gxx_personality_v0 {
entry:
  %0 = tail call ptr @__dynamic_cast(ptr nonnull %attribute, ptr nonnull @_ZTIN7Imf_3_29AttributeE, ptr nonnull @_ZTIN7Imf_3_214TypedAttributeINSt7__cxx1112basic_stringIcSt11char_traitsIcESaIcEEEEE, i64 0) #12
  %cmp.i = icmp eq ptr %0, null
  br i1 %cmp.i, label %if.then.i, label %_ZN7Imf_3_214TypedAttributeINSt7__cxx1112basic_stringIcSt11char_traitsIcESaIcEEEE4castEPKNS_9AttributeE.exit

if.then.i:                                        ; preds = %entry
  %exception.i = tail call ptr @__cxa_allocate_exception(i64 72) #12
  invoke void @_ZN7Iex_3_27TypeExcC1EPKc(ptr noundef nonnull align 8 dereferenceable(72) %exception.i, ptr noundef nonnull @.str)
          to label %invoke.cont.i unwind label %lpad.i

invoke.cont.i:                                    ; preds = %if.then.i
  tail call void @__cxa_throw(ptr nonnull %exception.i, ptr nonnull @_ZTIN7Iex_3_27TypeExcE, ptr nonnull @_ZN7Iex_3_27TypeExcD1Ev) #15
  unreachable

lpad.i:                                           ; preds = %if.then.i
  %1 = landingpad { ptr, i32 }
          cleanup
  tail call void @__cxa_free_exception(ptr %exception.i) #12
  resume { ptr, i32 } %1

_ZN7Imf_3_214TypedAttributeINSt7__cxx1112basic_stringIcSt11char_traitsIcESaIcEEEE4castEPKNS_9AttributeE.exit: ; preds = %entry
  ret ptr %0
}

declare noundef nonnull align 8 dereferenceable(32) ptr @_ZNSt7__cxx1112basic_stringIcSt11char_traitsIcESaIcEEaSERKS4_(ptr noundef nonnull align 8 dereferenceable(32), ptr noundef nonnull align 8 dereferenceable(32)) local_unnamed_addr #0

; Function Attrs: mustprogress uwtable
define weak_odr noundef ptr @_ZN7Imf_3_214TypedAttributeINSt7__cxx1112basic_stringIcSt11char_traitsIcESaIcEEEE4castEPNS_9AttributeE(ptr noundef %attribute) local_unnamed_addr #3 comdat align 2 personality ptr @__gxx_personality_v0 {
entry:
  %0 = icmp eq ptr %attribute, null
  br i1 %0, label %if.then, label %dynamic_cast.end

dynamic_cast.end:                                 ; preds = %entry
  %1 = tail call ptr @__dynamic_cast(ptr nonnull %attribute, ptr nonnull @_ZTIN7Imf_3_29AttributeE, ptr nonnull @_ZTIN7Imf_3_214TypedAttributeINSt7__cxx1112basic_stringIcSt11char_traitsIcESaIcEEEEE, i64 0) #12
  %cmp = icmp eq ptr %1, null
  br i1 %cmp, label %if.then, label %if.end

if.then:                                          ; preds = %entry, %dynamic_cast.end
  %exception = tail call ptr @__cxa_allocate_exception(i64 72) #12
  invoke void @_ZN7Iex_3_27TypeExcC1EPKc(ptr noundef nonnull align 8 dereferenceable(72) %exception, ptr noundef nonnull @.str)
          to label %invoke.cont unwind label %lpad

invoke.cont:                                      ; preds = %if.then
  tail call void @__cxa_throw(ptr nonnull %exception, ptr nonnull @_ZTIN7Iex_3_27TypeExcE, ptr nonnull @_ZN7Iex_3_27TypeExcD1Ev) #15
  unreachable

lpad:                                             ; preds = %if.then
  %2 = landingpad { ptr, i32 }
          cleanup
  tail call void @__cxa_free_exception(ptr %exception) #12
  resume { ptr, i32 } %2

if.end:                                           ; preds = %dynamic_cast.end
  ret ptr %1
}

; Function Attrs: nofree nounwind memory(read)
declare ptr @__dynamic_cast(ptr, ptr, ptr, i64) local_unnamed_addr #9

declare ptr @__cxa_allocate_exception(i64) local_unnamed_addr

declare void @_ZN7Iex_3_27TypeExcC1EPKc(ptr noundef nonnull align 8 dereferenceable(72), ptr noundef) unnamed_addr #0

declare void @__cxa_free_exception(ptr) local_unnamed_addr

; Function Attrs: nounwind
declare void @_ZN7Iex_3_27TypeExcD1Ev(ptr noundef nonnull align 8 dereferenceable(72)) unnamed_addr #1

declare void @__cxa_throw(ptr, ptr, ptr) local_unnamed_addr

; Function Attrs: mustprogress uwtable
define weak_odr noundef ptr @_ZN7Imf_3_214TypedAttributeINSt7__cxx1112basic_stringIcSt11char_traitsIcESaIcEEEE4castEPKNS_9AttributeE(ptr noundef %attribute) local_unnamed_addr #3 comdat align 2 personality ptr @__gxx_personality_v0 {
entry:
  %0 = icmp eq ptr %attribute, null
  br i1 %0, label %if.then, label %dynamic_cast.end

dynamic_cast.end:                                 ; preds = %entry
  %1 = tail call ptr @__dynamic_cast(ptr nonnull %attribute, ptr nonnull @_ZTIN7Imf_3_29AttributeE, ptr nonnull @_ZTIN7Imf_3_214TypedAttributeINSt7__cxx1112basic_stringIcSt11char_traitsIcESaIcEEEEE, i64 0) #12
  %cmp = icmp eq ptr %1, null
  br i1 %cmp, label %if.then, label %if.end

if.then:                                          ; preds = %entry, %dynamic_cast.end
  %exception = tail call ptr @__cxa_allocate_exception(i64 72) #12
  invoke void @_ZN7Iex_3_27TypeExcC1EPKc(ptr noundef nonnull align 8 dereferenceable(72) %exception, ptr noundef nonnull @.str)
          to label %invoke.cont unwind label %lpad

invoke.cont:                                      ; preds = %if.then
  tail call void @__cxa_throw(ptr nonnull %exception, ptr nonnull @_ZTIN7Iex_3_27TypeExcE, ptr nonnull @_ZN7Iex_3_27TypeExcD1Ev) #15
  unreachable

lpad:                                             ; preds = %if.then
  %2 = landingpad { ptr, i32 }
          cleanup
  tail call void @__cxa_free_exception(ptr %exception) #12
  resume { ptr, i32 } %2

if.end:                                           ; preds = %dynamic_cast.end
  ret ptr %1
}

; Function Attrs: mustprogress uwtable
define weak_odr noundef nonnull align 8 dereferenceable(40) ptr @_ZN7Imf_3_214TypedAttributeINSt7__cxx1112basic_stringIcSt11char_traitsIcESaIcEEEE4castERNS_9AttributeE(ptr noundef nonnull align 8 dereferenceable(8) %attribute) local_unnamed_addr #3 comdat align 2 personality ptr @__gxx_personality_v0 {
entry:
  %0 = tail call ptr @__dynamic_cast(ptr nonnull %attribute, ptr nonnull @_ZTIN7Imf_3_29AttributeE, ptr nonnull @_ZTIN7Imf_3_214TypedAttributeINSt7__cxx1112basic_stringIcSt11char_traitsIcESaIcEEEEE, i64 0) #12
  %cmp.i = icmp eq ptr %0, null
  br i1 %cmp.i, label %if.then.i, label %_ZN7Imf_3_214TypedAttributeINSt7__cxx1112basic_stringIcSt11char_traitsIcESaIcEEEE4castEPNS_9AttributeE.exit

if.then.i:                                        ; preds = %entry
  %exception.i = tail call ptr @__cxa_allocate_exception(i64 72) #12
  invoke void @_ZN7Iex_3_27TypeExcC1EPKc(ptr noundef nonnull align 8 dereferenceable(72) %exception.i, ptr noundef nonnull @.str)
          to label %invoke.cont.i unwind label %lpad.i

invoke.cont.i:                                    ; preds = %if.then.i
  tail call void @__cxa_throw(ptr nonnull %exception.i, ptr nonnull @_ZTIN7Iex_3_27TypeExcE, ptr nonnull @_ZN7Iex_3_27TypeExcD1Ev) #15
  unreachable

lpad.i:                                           ; preds = %if.then.i
  %1 = landingpad { ptr, i32 }
          cleanup
  tail call void @__cxa_free_exception(ptr %exception.i) #12
  resume { ptr, i32 } %1

_ZN7Imf_3_214TypedAttributeINSt7__cxx1112basic_stringIcSt11char_traitsIcESaIcEEEE4castEPNS_9AttributeE.exit: ; preds = %entry
  ret ptr %0
}

; Function Attrs: mustprogress uwtable
define weak_odr void @_ZN7Imf_3_214TypedAttributeINSt7__cxx1112basic_stringIcSt11char_traitsIcESaIcEEEE21registerAttributeTypeEv() local_unnamed_addr #3 comdat align 2 {
entry:
  tail call void @_ZN7Imf_3_29Attribute21registerAttributeTypeEPKcPFPS0_vE(ptr noundef nonnull @.str.1, ptr noundef nonnull @_ZN7Imf_3_214TypedAttributeINSt7__cxx1112basic_stringIcSt11char_traitsIcESaIcEEEE16makeNewAttributeEv)
  ret void
}

declare void @_ZN7Imf_3_29Attribute21registerAttributeTypeEPKcPFPS0_vE(ptr noundef, ptr noundef) local_unnamed_addr #0

; Function Attrs: mustprogress uwtable
define weak_odr void @_ZN7Imf_3_214TypedAttributeINSt7__cxx1112basic_stringIcSt11char_traitsIcESaIcEEEE23unRegisterAttributeTypeEv() local_unnamed_addr #3 comdat align 2 {
entry:
  tail call void @_ZN7Imf_3_29Attribute23unRegisterAttributeTypeEPKc(ptr noundef nonnull @.str.1)
  ret void
}

declare void @_ZN7Imf_3_29Attribute23unRegisterAttributeTypeEPKc(ptr noundef) local_unnamed_addr #0

; Function Attrs: mustprogress uwtable
define void @_ZNK7Imf_3_214TypedAttributeINSt7__cxx1112basic_stringIcSt11char_traitsIcESaIcEEEE12writeValueToERNS_7OStreamEi(ptr noundef nonnull align 8 dereferenceable(40) %this, ptr noundef nonnull align 8 dereferenceable(40) %os, i32 %version) unnamed_addr #3 align 2 {
entry:
  %v.addr.i = alloca i8, align 1
  %_value = getelementptr inbounds %"class.Imf_3_2::TypedAttribute", ptr %this, i64 0, i32 1
  %call = tail call noundef i64 @_ZNKSt7__cxx1112basic_stringIcSt11char_traitsIcESaIcEE4sizeEv(ptr noundef nonnull align 8 dereferenceable(32) %_value) #12
  %conv = trunc i64 %call to i32
  %cmp3 = icmp sgt i32 %conv, 0
  br i1 %cmp3, label %for.body.preheader, label %for.end

for.body.preheader:                               ; preds = %entry
  %wide.trip.count = and i64 %call, 4294967295
  br label %for.body

for.body:                                         ; preds = %for.body.preheader, %for.body
  %indvars.iv = phi i64 [ 0, %for.body.preheader ], [ %indvars.iv.next, %for.body ]
  %call4 = call noundef nonnull align 1 dereferenceable(1) ptr @_ZNKSt7__cxx1112basic_stringIcSt11char_traitsIcESaIcEEixEm(ptr noundef nonnull align 8 dereferenceable(32) %_value, i64 noundef %indvars.iv) #12
  %0 = load i8, ptr %call4, align 1
  call void @llvm.lifetime.start.p0(i64 1, ptr nonnull %v.addr.i)
  store i8 %0, ptr %v.addr.i, align 1
  %vtable.i.i = load ptr, ptr %os, align 8
  %vfn.i.i = getelementptr inbounds ptr, ptr %vtable.i.i, i64 2
  %1 = load ptr, ptr %vfn.i.i, align 8
  call void %1(ptr noundef nonnull align 8 dereferenceable(40) %os, ptr noundef nonnull %v.addr.i, i32 noundef 1)
  call void @llvm.lifetime.end.p0(i64 1, ptr nonnull %v.addr.i)
  %indvars.iv.next = add nuw nsw i64 %indvars.iv, 1
  %exitcond.not = icmp eq i64 %indvars.iv.next, %wide.trip.count
  br i1 %exitcond.not, label %for.end, label %for.body, !llvm.loop !4

for.end:                                          ; preds = %for.body, %entry
  ret void
}

; Function Attrs: nounwind
declare noundef i64 @_ZNKSt7__cxx1112basic_stringIcSt11char_traitsIcESaIcEE4sizeEv(ptr noundef nonnull align 8 dereferenceable(32)) local_unnamed_addr #1

; Function Attrs: nounwind
declare noundef nonnull align 1 dereferenceable(1) ptr @_ZNKSt7__cxx1112basic_stringIcSt11char_traitsIcESaIcEEixEm(ptr noundef nonnull align 8 dereferenceable(32), i64 noundef) local_unnamed_addr #1

; Function Attrs: mustprogress uwtable
define void @_ZN7Imf_3_214TypedAttributeINSt7__cxx1112basic_stringIcSt11char_traitsIcESaIcEEEE13readValueFromERNS_7IStreamEii(ptr noundef nonnull align 8 dereferenceable(40) %this, ptr noundef nonnull align 8 dereferenceable(40) %is, i32 noundef %size, i32 %version) unnamed_addr #3 align 2 {
entry:
  %_value = getelementptr inbounds %"class.Imf_3_2::TypedAttribute", ptr %this, i64 0, i32 1
  %conv = sext i32 %size to i64
  tail call void @_ZNSt7__cxx1112basic_stringIcSt11char_traitsIcESaIcEE6resizeEm(ptr noundef nonnull align 8 dereferenceable(32) %_value, i64 noundef %conv)
  %cmp4 = icmp sgt i32 %size, 0
  br i1 %cmp4, label %for.body.preheader, label %for.end

for.body.preheader:                               ; preds = %entry
  %wide.trip.count = zext nneg i32 %size to i64
  br label %for.body

for.body:                                         ; preds = %for.body.preheader, %for.body
  %indvars.iv = phi i64 [ 0, %for.body.preheader ], [ %indvars.iv.next, %for.body ]
  %call = tail call noundef nonnull align 1 dereferenceable(1) ptr @_ZNSt7__cxx1112basic_stringIcSt11char_traitsIcESaIcEEixEm(ptr noundef nonnull align 8 dereferenceable(32) %_value, i64 noundef %indvars.iv)
  %vtable.i.i = load ptr, ptr %is, align 8
  %vfn.i.i = getelementptr inbounds ptr, ptr %vtable.i.i, i64 3
  %0 = load ptr, ptr %vfn.i.i, align 8
  %call.i.i = tail call noundef zeroext i1 %0(ptr noundef nonnull align 8 dereferenceable(40) %is, ptr noundef nonnull %call, i32 noundef 1)
  %indvars.iv.next = add nuw nsw i64 %indvars.iv, 1
  %exitcond.not = icmp eq i64 %indvars.iv.next, %wide.trip.count
  br i1 %exitcond.not, label %for.end, label %for.body, !llvm.loop !6

for.end:                                          ; preds = %for.body, %entry
  ret void
}

declare void @_ZNSt7__cxx1112basic_stringIcSt11char_traitsIcESaIcEE6resizeEm(ptr noundef nonnull align 8 dereferenceable(32), i64 noundef) local_unnamed_addr #0

declare noundef nonnull align 1 dereferenceable(1) ptr @_ZNSt7__cxx1112basic_stringIcSt11char_traitsIcESaIcEEixEm(ptr noundef nonnull align 8 dereferenceable(32), i64 noundef) local_unnamed_addr #0

; Function Attrs: nounwind
declare void @_ZNSt7__cxx1112basic_stringIcSt11char_traitsIcESaIcEEC1Ev(ptr noundef nonnull align 8 dereferenceable(32)) unnamed_addr #1

; Function Attrs: uwtable
define internal void @_GLOBAL__sub_I_ImfStringAttribute.cpp() #10 section ".text.startup" {
entry:
  tail call void @_ZNSt8ios_base4InitC1Ev(ptr noundef nonnull align 1 dereferenceable(1) @_ZStL8__ioinit)
  %0 = tail call i32 @__cxa_atexit(ptr nonnull @_ZNSt8ios_base4InitD1Ev, ptr nonnull @_ZStL8__ioinit, ptr nonnull @__dso_handle) #12
  ret void
}

; Function Attrs: nocallback nofree nosync nounwind willreturn memory(argmem: readwrite)
declare void @llvm.lifetime.start.p0(i64 immarg, ptr nocapture) #11

; Function Attrs: nocallback nofree nosync nounwind willreturn memory(argmem: readwrite)
declare void @llvm.lifetime.end.p0(i64 immarg, ptr nocapture) #11

attributes #0 = { "frame-pointer"="all" "no-trapping-math"="true" "stack-protector-buffer-size"="8" "target-cpu"="x86-64" "target-features"="+cmov,+cx8,+fxsr,+mmx,+sse,+sse2,+x87" "tune-cpu"="generic" }
attributes #1 = { nounwind "frame-pointer"="all" "no-trapping-math"="true" "stack-protector-buffer-size"="8" "target-cpu"="x86-64" "target-features"="+cmov,+cx8,+fxsr,+mmx,+sse,+sse2,+x87" "tune-cpu"="generic" }
attributes #2 = { nofree nounwind }
attributes #3 = { mustprogress uwtable "frame-pointer"="all" "min-legal-vector-width"="0" "no-trapping-math"="true" "stack-protector-buffer-size"="8" "target-cpu"="x86-64" "target-features"="+cmov,+cx8,+fxsr,+mmx,+sse,+sse2,+x87" "tune-cpu"="generic" }
attributes #4 = { mustprogress nounwind uwtable "frame-pointer"="all" "min-legal-vector-width"="0" "no-trapping-math"="true" "stack-protector-buffer-size"="8" "target-cpu"="x86-64" "target-features"="+cmov,+cx8,+fxsr,+mmx,+sse,+sse2,+x87" "tune-cpu"="generic" }
attributes #5 = { nobuiltin nounwind "frame-pointer"="all" "no-trapping-math"="true" "stack-protector-buffer-size"="8" "target-cpu"="x86-64" "target-features"="+cmov,+cx8,+fxsr,+mmx,+sse,+sse2,+x87" "tune-cpu"="generic" }
attributes #6 = { mustprogress nofree norecurse nosync nounwind willreturn memory(none) uwtable "frame-pointer"="all" "min-legal-vector-width"="0" "no-trapping-math"="true" "stack-protector-buffer-size"="8" "target-cpu"="x86-64" "target-features"="+cmov,+cx8,+fxsr,+mmx,+sse,+sse2,+x87" "tune-cpu"="generic" }
attributes #7 = { nobuiltin allocsize(0) "frame-pointer"="all" "no-trapping-math"="true" "stack-protector-buffer-size"="8" "target-cpu"="x86-64" "target-features"="+cmov,+cx8,+fxsr,+mmx,+sse,+sse2,+x87" "tune-cpu"="generic" }
attributes #8 = { mustprogress nocallback nofree nounwind willreturn memory(argmem: write) }
attributes #9 = { nofree nounwind memory(read) }
attributes #10 = { uwtable "frame-pointer"="all" "min-legal-vector-width"="0" "no-trapping-math"="true" "stack-protector-buffer-size"="8" "target-cpu"="x86-64" "target-features"="+cmov,+cx8,+fxsr,+mmx,+sse,+sse2,+x87" "tune-cpu"="generic" }
attributes #11 = { nocallback nofree nosync nounwind willreturn memory(argmem: readwrite) }
attributes #12 = { nounwind }
attributes #13 = { builtin nounwind }
attributes #14 = { builtin allocsize(0) }
attributes #15 = { noreturn }

!llvm.module.flags = !{!0, !1, !2, !3}

!0 = !{i32 1, !"wchar_size", i32 4}
!1 = !{i32 8, !"PIC Level", i32 2}
!2 = !{i32 7, !"uwtable", i32 2}
!3 = !{i32 7, !"frame-pointer", i32 2}
!4 = distinct !{!4, !5}
!5 = !{!"llvm.loop.mustprogress"}
!6 = distinct !{!6, !5}
