target datalayout = "e-m:e-p270:32:32-p271:32:32-p272:64:64-i64:64-i128:128-f80:128-n8:16:32:64-S128"
target triple = "x86_64-unknown-linux-gnu"

%"struct.std::piecewise_construct_t" = type { i8 }
%"class.std::__cxx11::basic_string" = type { %"struct.std::__cxx11::basic_string<char>::_Alloc_hider", i64, %union.anon }
%"struct.std::__cxx11::basic_string<char>::_Alloc_hider" = type { ptr }
%union.anon = type { i64, [8 x i8] }
%"class.std::map" = type { %"class.std::_Rb_tree" }
%"class.std::_Rb_tree" = type { %"struct.std::_Rb_tree<std::__cxx11::basic_string<char>, std::pair<const std::__cxx11::basic_string<char>, std::__cxx11::basic_string<char>>, std::_Select1st<std::pair<const std::__cxx11::basic_string<char>, std::__cxx11::basic_string<char>>>, std::less<std::__cxx11::basic_string<char>>>::_Rb_tree_impl" }
%"struct.std::_Rb_tree<std::__cxx11::basic_string<char>, std::pair<const std::__cxx11::basic_string<char>, std::__cxx11::basic_string<char>>, std::_Select1st<std::pair<const std::__cxx11::basic_string<char>, std::__cxx11::basic_string<char>>>, std::less<std::__cxx11::basic_string<char>>>::_Rb_tree_impl" = type { %"struct.std::_Rb_tree_key_compare", %"struct.std::_Rb_tree_header" }
%"struct.std::_Rb_tree_key_compare" = type { %"struct.std::less" }
%"struct.std::less" = type { i8 }
%"struct.std::_Rb_tree_header" = type { %"struct.std::_Rb_tree_node_base", i64 }
%"struct.std::_Rb_tree_node_base" = type { i32, ptr, ptr, ptr }
%"class.std::allocator" = type { i8 }
%"class.std::unique_ptr" = type { %"struct.std::__uniq_ptr_data" }
%"struct.std::__uniq_ptr_data" = type { %"class.std::__uniq_ptr_impl" }
%"class.std::__uniq_ptr_impl" = type { %"class.std::tuple" }
%"class.std::tuple" = type { %"struct.std::_Tuple_impl" }
%"struct.std::_Tuple_impl" = type { %"struct.std::_Head_base.4" }
%"struct.std::_Head_base.4" = type { ptr }
%"struct.std::_Rb_tree_iterator.29" = type { ptr }
%"struct.std::_Rb_tree_const_iterator.30" = type { ptr }
%"class.std::tuple.31" = type { %"struct.std::_Tuple_impl.32" }
%"struct.std::_Tuple_impl.32" = type { %"struct.std::_Head_base.33" }
%"struct.std::_Head_base.33" = type { ptr }
%"class.std::tuple.34" = type { i8 }
%"struct.std::pair.20" = type { %"class.std::__cxx11::basic_string", %"class.std::__cxx11::basic_string" }
%"class.std::set" = type { %"class.std::_Rb_tree.5" }
%"class.std::_Rb_tree.5" = type { %"struct.std::_Rb_tree<std::__cxx11::basic_string<char>, std::__cxx11::basic_string<char>, std::_Identity<std::__cxx11::basic_string<char>>, std::less<std::__cxx11::basic_string<char>>>::_Rb_tree_impl" }
%"struct.std::_Rb_tree<std::__cxx11::basic_string<char>, std::__cxx11::basic_string<char>, std::_Identity<std::__cxx11::basic_string<char>>, std::less<std::__cxx11::basic_string<char>>>::_Rb_tree_impl" = type { %"struct.std::_Rb_tree_key_compare", %"struct.std::_Rb_tree_header" }
%"class.std::unique_ptr.9" = type { %"struct.std::__uniq_ptr_data.10" }
%"struct.std::__uniq_ptr_data.10" = type { %"class.std::__uniq_ptr_impl.11" }
%"class.std::__uniq_ptr_impl.11" = type { %"class.std::tuple.12" }
%"class.std::tuple.12" = type { %"struct.std::_Tuple_impl.13" }
%"struct.std::_Tuple_impl.13" = type { %"struct.std::_Head_base.16" }
%"struct.std::_Head_base.16" = type { ptr }
%"class.std::vector" = type { %"struct.std::_Vector_base" }
%"struct.std::_Vector_base" = type { %"struct.std::_Vector_base<std::__cxx11::basic_string<char>, std::allocator<std::__cxx11::basic_string<char>>>::_Vector_impl" }
%"struct.std::_Vector_base<std::__cxx11::basic_string<char>, std::allocator<std::__cxx11::basic_string<char>>>::_Vector_impl" = type { %"struct.std::_Vector_base<std::__cxx11::basic_string<char>, std::allocator<std::__cxx11::basic_string<char>>>::_Vector_impl_data" }
%"struct.std::_Vector_base<std::__cxx11::basic_string<char>, std::allocator<std::__cxx11::basic_string<char>>>::_Vector_impl_data" = type { ptr, ptr, ptr }
%"struct.std::_Rb_tree_const_iterator" = type { ptr }
%"struct.std::pair" = type <{ %"struct.std::_Rb_tree_const_iterator", i8, [7 x i8] }>
%"struct.std::_Rb_tree_iterator" = type { ptr }
%"struct.std::pair.24" = type <{ %"struct.std::_Rb_tree_iterator", i8, [7 x i8] }>
%"class.__gnu_cxx::__normal_iterator" = type { ptr }
%"class.std::allocator.0" = type { i8 }
%"struct.std::_Rb_tree<std::__cxx11::basic_string<char>, std::pair<const std::__cxx11::basic_string<char>, std::__cxx11::basic_string<char>>, std::_Select1st<std::pair<const std::__cxx11::basic_string<char>, std::__cxx11::basic_string<char>>>, std::less<std::__cxx11::basic_string<char>>>::_Alloc_node" = type { ptr }
%"struct.std::_Rb_tree_node" = type { %"struct.std::_Rb_tree_node_base", %"struct.__gnu_cxx::__aligned_membuf" }
%"struct.__gnu_cxx::__aligned_membuf" = type { [64 x i8] }
%"struct.std::_Identity" = type { i8 }
%"struct.std::_Rb_tree_node.22" = type { %"struct.std::_Rb_tree_node_base", %"struct.__gnu_cxx::__aligned_membuf.23" }
%"struct.__gnu_cxx::__aligned_membuf.23" = type { [32 x i8] }
%"struct.std::pair.27" = type { ptr, ptr }
%"struct.std::_Rb_tree<std::__cxx11::basic_string<char>, std::__cxx11::basic_string<char>, std::_Identity<std::__cxx11::basic_string<char>>, std::less<std::__cxx11::basic_string<char>>>::_Alloc_node" = type { ptr }
%struct._Guard = type { ptr }
%"struct.std::_Rb_tree<std::__cxx11::basic_string<char>, std::pair<const std::__cxx11::basic_string<char>, std::__cxx11::basic_string<char>>, std::_Select1st<std::pair<const std::__cxx11::basic_string<char>, std::__cxx11::basic_string<char>>>, std::less<std::__cxx11::basic_string<char>>>::_Auto_node" = type { ptr, ptr }
%"struct.std::_Select1st" = type { i8 }

$_ZNSt3mapINSt7__cxx1112basic_stringIcSt11char_traitsIcESaIcEEES5_St4lessIS5_ESaISt4pairIKS5_S5_EEEC2Ev = comdat any

$_ZNSt3mapINSt7__cxx1112basic_stringIcSt11char_traitsIcESaIcEEES5_St4lessIS5_ESaISt4pairIKS5_S5_EEEixEOS5_ = comdat any

$_ZNSt7__cxx1112basic_stringIcSt11char_traitsIcESaIcEEC2IS3_EEPKcRKS3_ = comdat any

$_ZStplIcSt11char_traitsIcESaIcEENSt7__cxx1112basic_stringIT_T0_T1_EEOS8_PKS5_ = comdat any

$_ZNKSt10unique_ptrIN14grpc_generator7PrinterESt14default_deleteIS1_EEdeEv = comdat any

$_ZNSt10unique_ptrIN14grpc_generator7PrinterESt14default_deleteIS1_EED2Ev = comdat any

$_ZNSt3mapINSt7__cxx1112basic_stringIcSt11char_traitsIcESaIcEEES5_St4lessIS5_ESaISt4pairIKS5_S5_EEED2Ev = comdat any

$_ZNSt3setINSt7__cxx1112basic_stringIcSt11char_traitsIcESaIcEEESt4lessIS5_ESaIS5_EEC2Ev = comdat any

$_ZNKSt10unique_ptrIN14grpc_generator7PrinterESt14default_deleteIS1_EEptEv = comdat any

$_ZNSt3setINSt7__cxx1112basic_stringIcSt11char_traitsIcESaIcEEESt4lessIS5_ESaIS5_EED2Ev = comdat any

$_ZNSt8_Rb_treeINSt7__cxx1112basic_stringIcSt11char_traitsIcESaIcEEESt4pairIKS5_S5_ESt10_Select1stIS8_ESt4lessIS5_ESaIS8_EEC2Ev = comdat any

$_ZNSt8_Rb_treeINSt7__cxx1112basic_stringIcSt11char_traitsIcESaIcEEESt4pairIKS5_S5_ESt10_Select1stIS8_ESt4lessIS5_ESaIS8_EE13_Rb_tree_implISC_Lb1EEC2Ev = comdat any

$_ZNSaISt13_Rb_tree_nodeISt4pairIKNSt7__cxx1112basic_stringIcSt11char_traitsIcESaIcEEES6_EEEC2Ev = comdat any

$_ZNSt20_Rb_tree_key_compareISt4lessINSt7__cxx1112basic_stringIcSt11char_traitsIcESaIcEEEEEC2Ev = comdat any

$_ZNSt15_Rb_tree_headerC2Ev = comdat any

$_ZNSt15__new_allocatorISt13_Rb_tree_nodeISt4pairIKNSt7__cxx1112basic_stringIcSt11char_traitsIcESaIcEEES7_EEEC2Ev = comdat any

$_ZNSt15_Rb_tree_header8_M_resetEv = comdat any

$__clang_call_terminate = comdat any

$_ZNSt3mapINSt7__cxx1112basic_stringIcSt11char_traitsIcESaIcEEES5_St4lessIS5_ESaISt4pairIKS5_S5_EEEC2ERKSC_ = comdat any

$_ZNKSt10unique_ptrIKN14grpc_generator6MethodESt14default_deleteIS2_EEptEv = comdat any

$_ZSteqRKSt23_Rb_tree_const_iteratorINSt7__cxx1112basic_stringIcSt11char_traitsIcESaIcEEEES8_ = comdat any

$_ZNSt3setINSt7__cxx1112basic_stringIcSt11char_traitsIcESaIcEEESt4lessIS5_ESaIS5_EE4findERKS5_ = comdat any

$_ZNKSt3setINSt7__cxx1112basic_stringIcSt11char_traitsIcESaIcEEESt4lessIS5_ESaIS5_EE3endEv = comdat any

$_ZNSt3setINSt7__cxx1112basic_stringIcSt11char_traitsIcESaIcEEESt4lessIS5_ESaIS5_EE6insertERKS5_ = comdat any

$_ZNSt6vectorINSt7__cxx1112basic_stringIcSt11char_traitsIcESaIcEEESaIS5_EED2Ev = comdat any

$_ZNSt10unique_ptrIKN14grpc_generator6MethodESt14default_deleteIS2_EED2Ev = comdat any

$_ZNSt8_Rb_treeINSt7__cxx1112basic_stringIcSt11char_traitsIcESaIcEEESt4pairIKS5_S5_ESt10_Select1stIS8_ESt4lessIS5_ESaIS8_EEC2ERKSE_ = comdat any

$_ZNSt8_Rb_treeINSt7__cxx1112basic_stringIcSt11char_traitsIcESaIcEEESt4pairIKS5_S5_ESt10_Select1stIS8_ESt4lessIS5_ESaIS8_EE13_Rb_tree_implISC_Lb1EEC2ERKSG_ = comdat any

$_ZNKSt8_Rb_treeINSt7__cxx1112basic_stringIcSt11char_traitsIcESaIcEEESt4pairIKS5_S5_ESt10_Select1stIS8_ESt4lessIS5_ESaIS8_EE7_M_rootEv = comdat any

$_ZNSt8_Rb_treeINSt7__cxx1112basic_stringIcSt11char_traitsIcESaIcEEESt4pairIKS5_S5_ESt10_Select1stIS8_ESt4lessIS5_ESaIS8_EE7_M_copyERKSE_ = comdat any

$_ZNSt8_Rb_treeINSt7__cxx1112basic_stringIcSt11char_traitsIcESaIcEEESt4pairIKS5_S5_ESt10_Select1stIS8_ESt4lessIS5_ESaIS8_EE7_M_rootEv = comdat any

$_ZNSt8_Rb_treeINSt7__cxx1112basic_stringIcSt11char_traitsIcESaIcEEESt4pairIKS5_S5_ESt10_Select1stIS8_ESt4lessIS5_ESaIS8_EE13_Rb_tree_implISC_Lb1EED2Ev = comdat any

$_ZN9__gnu_cxx14__alloc_traitsISaISt13_Rb_tree_nodeISt4pairIKNSt7__cxx1112basic_stringIcSt11char_traitsIcESaIcEEES8_EEESB_E17_S_select_on_copyERKSC_ = comdat any

$_ZNSaISt13_Rb_tree_nodeISt4pairIKNSt7__cxx1112basic_stringIcSt11char_traitsIcESaIcEEES6_EEED2Ev = comdat any

$_ZNSt20_Rb_tree_key_compareISt4lessINSt7__cxx1112basic_stringIcSt11char_traitsIcESaIcEEEEEC2ERKS7_ = comdat any

$_ZNSt16allocator_traitsISaISt13_Rb_tree_nodeISt4pairIKNSt7__cxx1112basic_stringIcSt11char_traitsIcESaIcEEES7_EEEE37select_on_container_copy_constructionERKSB_ = comdat any

$_ZNSaISt13_Rb_tree_nodeISt4pairIKNSt7__cxx1112basic_stringIcSt11char_traitsIcESaIcEEES6_EEEC2ERKSA_ = comdat any

$_ZNSt15__new_allocatorISt13_Rb_tree_nodeISt4pairIKNSt7__cxx1112basic_stringIcSt11char_traitsIcESaIcEEES7_EEEC2ERKSB_ = comdat any

$_ZNSt15__new_allocatorISt13_Rb_tree_nodeISt4pairIKNSt7__cxx1112basic_stringIcSt11char_traitsIcESaIcEEES7_EEED2Ev = comdat any

$_ZNSt8_Rb_treeINSt7__cxx1112basic_stringIcSt11char_traitsIcESaIcEEESt4pairIKS5_S5_ESt10_Select1stIS8_ESt4lessIS5_ESaIS8_EE11_Alloc_nodeC2ERSE_ = comdat any

$_ZNSt8_Rb_treeINSt7__cxx1112basic_stringIcSt11char_traitsIcESaIcEEESt4pairIKS5_S5_ESt10_Select1stIS8_ESt4lessIS5_ESaIS8_EE7_M_copyILb0ENSE_11_Alloc_nodeEEEPSt13_Rb_tree_nodeIS8_ERKSE_RT0_ = comdat any

$_ZNSt8_Rb_treeINSt7__cxx1112basic_stringIcSt11char_traitsIcESaIcEEESt4pairIKS5_S5_ESt10_Select1stIS8_ESt4lessIS5_ESaIS8_EE7_M_copyILb0ENSE_11_Alloc_nodeEEEPSt13_Rb_tree_nodeIS8_ESJ_PSt18_Rb_tree_node_baseRT0_ = comdat any

$_ZNKSt8_Rb_treeINSt7__cxx1112basic_stringIcSt11char_traitsIcESaIcEEESt4pairIKS5_S5_ESt10_Select1stIS8_ESt4lessIS5_ESaIS8_EE9_M_mbeginEv = comdat any

$_ZNSt8_Rb_treeINSt7__cxx1112basic_stringIcSt11char_traitsIcESaIcEEESt4pairIKS5_S5_ESt10_Select1stIS8_ESt4lessIS5_ESaIS8_EE6_M_endEv = comdat any

$_ZNSt8_Rb_treeINSt7__cxx1112basic_stringIcSt11char_traitsIcESaIcEEESt4pairIKS5_S5_ESt10_Select1stIS8_ESt4lessIS5_ESaIS8_EE10_S_minimumEPSt18_Rb_tree_node_base = comdat any

$_ZNSt8_Rb_treeINSt7__cxx1112basic_stringIcSt11char_traitsIcESaIcEEESt4pairIKS5_S5_ESt10_Select1stIS8_ESt4lessIS5_ESaIS8_EE11_M_leftmostEv = comdat any

$_ZNSt8_Rb_treeINSt7__cxx1112basic_stringIcSt11char_traitsIcESaIcEEESt4pairIKS5_S5_ESt10_Select1stIS8_ESt4lessIS5_ESaIS8_EE10_S_maximumEPSt18_Rb_tree_node_base = comdat any

$_ZNSt8_Rb_treeINSt7__cxx1112basic_stringIcSt11char_traitsIcESaIcEEESt4pairIKS5_S5_ESt10_Select1stIS8_ESt4lessIS5_ESaIS8_EE12_M_rightmostEv = comdat any

$_ZNSt8_Rb_treeINSt7__cxx1112basic_stringIcSt11char_traitsIcESaIcEEESt4pairIKS5_S5_ESt10_Select1stIS8_ESt4lessIS5_ESaIS8_EE13_M_clone_nodeILb0ENSE_11_Alloc_nodeEEEPSt13_Rb_tree_nodeIS8_ESJ_RT0_ = comdat any

$_ZNSt8_Rb_treeINSt7__cxx1112basic_stringIcSt11char_traitsIcESaIcEEESt4pairIKS5_S5_ESt10_Select1stIS8_ESt4lessIS5_ESaIS8_EE8_S_rightEPSt18_Rb_tree_node_base = comdat any

$_ZNSt8_Rb_treeINSt7__cxx1112basic_stringIcSt11char_traitsIcESaIcEEESt4pairIKS5_S5_ESt10_Select1stIS8_ESt4lessIS5_ESaIS8_EE7_S_leftEPSt18_Rb_tree_node_base = comdat any

$_ZNSt8_Rb_treeINSt7__cxx1112basic_stringIcSt11char_traitsIcESaIcEEESt4pairIKS5_S5_ESt10_Select1stIS8_ESt4lessIS5_ESaIS8_EE8_M_eraseEPSt13_Rb_tree_nodeIS8_E = comdat any

$_ZNKSt8_Rb_treeINSt7__cxx1112basic_stringIcSt11char_traitsIcESaIcEEESt4pairIKS5_S5_ESt10_Select1stIS8_ESt4lessIS5_ESaIS8_EE11_Alloc_nodeclIRKS8_EEPSt13_Rb_tree_nodeIS8_EOT_ = comdat any

$_ZNSt13_Rb_tree_nodeISt4pairIKNSt7__cxx1112basic_stringIcSt11char_traitsIcESaIcEEES6_EE9_M_valptrEv = comdat any

$_ZNSt8_Rb_treeINSt7__cxx1112basic_stringIcSt11char_traitsIcESaIcEEESt4pairIKS5_S5_ESt10_Select1stIS8_ESt4lessIS5_ESaIS8_EE14_M_create_nodeIJRKS8_EEEPSt13_Rb_tree_nodeIS8_EDpOT_ = comdat any

$_ZNSt8_Rb_treeINSt7__cxx1112basic_stringIcSt11char_traitsIcESaIcEEESt4pairIKS5_S5_ESt10_Select1stIS8_ESt4lessIS5_ESaIS8_EE11_M_get_nodeEv = comdat any

$_ZNSt8_Rb_treeINSt7__cxx1112basic_stringIcSt11char_traitsIcESaIcEEESt4pairIKS5_S5_ESt10_Select1stIS8_ESt4lessIS5_ESaIS8_EE17_M_construct_nodeIJRKS8_EEEvPSt13_Rb_tree_nodeIS8_EDpOT_ = comdat any

$_ZNSt16allocator_traitsISaISt13_Rb_tree_nodeISt4pairIKNSt7__cxx1112basic_stringIcSt11char_traitsIcESaIcEEES7_EEEE8allocateERSB_m = comdat any

$_ZNSt8_Rb_treeINSt7__cxx1112basic_stringIcSt11char_traitsIcESaIcEEESt4pairIKS5_S5_ESt10_Select1stIS8_ESt4lessIS5_ESaIS8_EE21_M_get_Node_allocatorEv = comdat any

$_ZNSt15__new_allocatorISt13_Rb_tree_nodeISt4pairIKNSt7__cxx1112basic_stringIcSt11char_traitsIcESaIcEEES7_EEE8allocateEmPKv = comdat any

$_ZNKSt15__new_allocatorISt13_Rb_tree_nodeISt4pairIKNSt7__cxx1112basic_stringIcSt11char_traitsIcESaIcEEES7_EEE11_M_max_sizeEv = comdat any

$_ZNSt16allocator_traitsISaISt13_Rb_tree_nodeISt4pairIKNSt7__cxx1112basic_stringIcSt11char_traitsIcESaIcEEES7_EEEE9constructIS9_JRKS9_EEEvRSB_PT_DpOT0_ = comdat any

$_ZNSt8_Rb_treeINSt7__cxx1112basic_stringIcSt11char_traitsIcESaIcEEESt4pairIKS5_S5_ESt10_Select1stIS8_ESt4lessIS5_ESaIS8_EE11_M_put_nodeEPSt13_Rb_tree_nodeIS8_E = comdat any

$_ZNSt15__new_allocatorISt13_Rb_tree_nodeISt4pairIKNSt7__cxx1112basic_stringIcSt11char_traitsIcESaIcEEES7_EEE9constructIS9_JRKS9_EEEvPT_DpOT0_ = comdat any

$_ZNSt4pairIKNSt7__cxx1112basic_stringIcSt11char_traitsIcESaIcEEES5_EC2ERKS7_ = comdat any

$_ZNSt16allocator_traitsISaISt13_Rb_tree_nodeISt4pairIKNSt7__cxx1112basic_stringIcSt11char_traitsIcESaIcEEES7_EEEE10deallocateERSB_PSA_m = comdat any

$_ZNSt15__new_allocatorISt13_Rb_tree_nodeISt4pairIKNSt7__cxx1112basic_stringIcSt11char_traitsIcESaIcEEES7_EEE10deallocateEPSA_m = comdat any

$_ZN9__gnu_cxx16__aligned_membufISt4pairIKNSt7__cxx1112basic_stringIcSt11char_traitsIcESaIcEEES7_EE6_M_ptrEv = comdat any

$_ZN9__gnu_cxx16__aligned_membufISt4pairIKNSt7__cxx1112basic_stringIcSt11char_traitsIcESaIcEEES7_EE7_M_addrEv = comdat any

$_ZNSt8_Rb_treeINSt7__cxx1112basic_stringIcSt11char_traitsIcESaIcEEESt4pairIKS5_S5_ESt10_Select1stIS8_ESt4lessIS5_ESaIS8_EE12_M_drop_nodeEPSt13_Rb_tree_nodeIS8_E = comdat any

$_ZNSt8_Rb_treeINSt7__cxx1112basic_stringIcSt11char_traitsIcESaIcEEESt4pairIKS5_S5_ESt10_Select1stIS8_ESt4lessIS5_ESaIS8_EE15_M_destroy_nodeEPSt13_Rb_tree_nodeIS8_E = comdat any

$_ZNSt16allocator_traitsISaISt13_Rb_tree_nodeISt4pairIKNSt7__cxx1112basic_stringIcSt11char_traitsIcESaIcEEES7_EEEE7destroyIS9_EEvRSB_PT_ = comdat any

$_ZNSt15__new_allocatorISt13_Rb_tree_nodeISt4pairIKNSt7__cxx1112basic_stringIcSt11char_traitsIcESaIcEEES7_EEE7destroyIS9_EEvPT_ = comdat any

$_ZNSt4pairIKNSt7__cxx1112basic_stringIcSt11char_traitsIcESaIcEEES5_ED2Ev = comdat any

$_ZNSt18_Rb_tree_node_base10_S_minimumEPS_ = comdat any

$_ZNSt18_Rb_tree_node_base10_S_maximumEPS_ = comdat any

$_ZNKSt10unique_ptrIKN14grpc_generator6MethodESt14default_deleteIS2_EE3getEv = comdat any

$_ZNKSt15__uniq_ptr_implIKN14grpc_generator6MethodESt14default_deleteIS2_EE6_M_ptrEv = comdat any

$_ZSt3getILm0EJPKN14grpc_generator6MethodESt14default_deleteIS2_EEERKNSt13tuple_elementIXT_ESt5tupleIJDpT0_EEE4typeERKSA_ = comdat any

$_ZSt12__get_helperILm0EPKN14grpc_generator6MethodEJSt14default_deleteIS2_EEERKT0_RKSt11_Tuple_implIXT_EJS6_DpT1_EE = comdat any

$_ZNSt11_Tuple_implILm0EJPKN14grpc_generator6MethodESt14default_deleteIS2_EEE7_M_headERKS6_ = comdat any

$_ZNSt10_Head_baseILm0EPKN14grpc_generator6MethodELb0EE7_M_headERKS4_ = comdat any

$_ZNSt8_Rb_treeINSt7__cxx1112basic_stringIcSt11char_traitsIcESaIcEEES5_St9_IdentityIS5_ESt4lessIS5_ESaIS5_EE4findERKS5_ = comdat any

$_ZNSt23_Rb_tree_const_iteratorINSt7__cxx1112basic_stringIcSt11char_traitsIcESaIcEEEEC2ERKSt17_Rb_tree_iteratorIS5_E = comdat any

$_ZNSt8_Rb_treeINSt7__cxx1112basic_stringIcSt11char_traitsIcESaIcEEES5_St9_IdentityIS5_ESt4lessIS5_ESaIS5_EE14_M_lower_boundEPSt13_Rb_tree_nodeIS5_EPSt18_Rb_tree_node_baseRKS5_ = comdat any

$_ZNSt8_Rb_treeINSt7__cxx1112basic_stringIcSt11char_traitsIcESaIcEEES5_St9_IdentityIS5_ESt4lessIS5_ESaIS5_EE8_M_beginEv = comdat any

$_ZNSt8_Rb_treeINSt7__cxx1112basic_stringIcSt11char_traitsIcESaIcEEES5_St9_IdentityIS5_ESt4lessIS5_ESaIS5_EE6_M_endEv = comdat any

$_ZSteqRKSt17_Rb_tree_iteratorINSt7__cxx1112basic_stringIcSt11char_traitsIcESaIcEEEES8_ = comdat any

$_ZNSt8_Rb_treeINSt7__cxx1112basic_stringIcSt11char_traitsIcESaIcEEES5_St9_IdentityIS5_ESt4lessIS5_ESaIS5_EE3endEv = comdat any

$_ZNKSt4lessINSt7__cxx1112basic_stringIcSt11char_traitsIcESaIcEEEEclERKS5_S8_ = comdat any

$_ZNSt8_Rb_treeINSt7__cxx1112basic_stringIcSt11char_traitsIcESaIcEEES5_St9_IdentityIS5_ESt4lessIS5_ESaIS5_EE6_S_keyEPKSt18_Rb_tree_node_base = comdat any

$_ZNSt8_Rb_treeINSt7__cxx1112basic_stringIcSt11char_traitsIcESaIcEEES5_St9_IdentityIS5_ESt4lessIS5_ESaIS5_EE6_S_keyEPKSt13_Rb_tree_nodeIS5_E = comdat any

$_ZNSt8_Rb_treeINSt7__cxx1112basic_stringIcSt11char_traitsIcESaIcEEES5_St9_IdentityIS5_ESt4lessIS5_ESaIS5_EE7_S_leftEPSt18_Rb_tree_node_base = comdat any

$_ZNSt8_Rb_treeINSt7__cxx1112basic_stringIcSt11char_traitsIcESaIcEEES5_St9_IdentityIS5_ESt4lessIS5_ESaIS5_EE8_S_rightEPSt18_Rb_tree_node_base = comdat any

$_ZNSt17_Rb_tree_iteratorINSt7__cxx1112basic_stringIcSt11char_traitsIcESaIcEEEEC2EPSt18_Rb_tree_node_base = comdat any

$_ZNKSt9_IdentityINSt7__cxx1112basic_stringIcSt11char_traitsIcESaIcEEEEclERKS5_ = comdat any

$_ZNKSt13_Rb_tree_nodeINSt7__cxx1112basic_stringIcSt11char_traitsIcESaIcEEEE9_M_valptrEv = comdat any

$_ZNK9__gnu_cxx16__aligned_membufINSt7__cxx1112basic_stringIcSt11char_traitsIcESaIcEEEE6_M_ptrEv = comdat any

$_ZNK9__gnu_cxx16__aligned_membufINSt7__cxx1112basic_stringIcSt11char_traitsIcESaIcEEEE7_M_addrEv = comdat any

$_ZNKSt8_Rb_treeINSt7__cxx1112basic_stringIcSt11char_traitsIcESaIcEEES5_St9_IdentityIS5_ESt4lessIS5_ESaIS5_EE9_M_mbeginEv = comdat any

$_ZStltIcSt11char_traitsIcESaIcEEbRKNSt7__cxx1112basic_stringIT_T0_T1_EESA_ = comdat any

$_ZNKSt8_Rb_treeINSt7__cxx1112basic_stringIcSt11char_traitsIcESaIcEEES5_St9_IdentityIS5_ESt4lessIS5_ESaIS5_EE3endEv = comdat any

$_ZNSt23_Rb_tree_const_iteratorINSt7__cxx1112basic_stringIcSt11char_traitsIcESaIcEEEEC2EPKSt18_Rb_tree_node_base = comdat any

$_ZNSt8_Rb_treeINSt7__cxx1112basic_stringIcSt11char_traitsIcESaIcEEES5_St9_IdentityIS5_ESt4lessIS5_ESaIS5_EE16_M_insert_uniqueIRKS5_EESt4pairISt17_Rb_tree_iteratorIS5_EbEOT_ = comdat any

$_ZNSt4pairISt23_Rb_tree_const_iteratorINSt7__cxx1112basic_stringIcSt11char_traitsIcESaIcEEEEbEC2IRSt17_Rb_tree_iteratorIS6_ERbTnNSt9enable_ifIXaaclsr5_PCCPE22_MoveConstructiblePairIT_T0_EEclsr5_PCCPE30_ImplicitlyMoveConvertiblePairISF_SG_EEEbE4typeELb1EEEOSF_OSG_ = comdat any

$_ZNSt8_Rb_treeINSt7__cxx1112basic_stringIcSt11char_traitsIcESaIcEEES5_St9_IdentityIS5_ESt4lessIS5_ESaIS5_EE24_M_get_insert_unique_posERKS5_ = comdat any

$_ZNSt8_Rb_treeINSt7__cxx1112basic_stringIcSt11char_traitsIcESaIcEEES5_St9_IdentityIS5_ESt4lessIS5_ESaIS5_EE11_Alloc_nodeC2ERSB_ = comdat any

$_ZNSt8_Rb_treeINSt7__cxx1112basic_stringIcSt11char_traitsIcESaIcEEES5_St9_IdentityIS5_ESt4lessIS5_ESaIS5_EE10_M_insert_IRKS5_NSB_11_Alloc_nodeEEESt17_Rb_tree_iteratorIS5_EPSt18_Rb_tree_node_baseSJ_OT_RT0_ = comdat any

$_ZNSt4pairISt17_Rb_tree_iteratorINSt7__cxx1112basic_stringIcSt11char_traitsIcESaIcEEEEbEC2IS7_bTnNSt9enable_ifIXaaclsr5_PCCPE22_MoveConstructiblePairIT_T0_EEclsr5_PCCPE30_ImplicitlyMoveConvertiblePairISB_SC_EEEbE4typeELb1EEEOSB_OSC_ = comdat any

$_ZNSt8_Rb_treeINSt7__cxx1112basic_stringIcSt11char_traitsIcESaIcEEES5_St9_IdentityIS5_ESt4lessIS5_ESaIS5_EE5beginEv = comdat any

$_ZNSt4pairIPSt18_Rb_tree_node_baseS1_EC2IRPSt13_Rb_tree_nodeINSt7__cxx1112basic_stringIcSt11char_traitsIcESaIcEEEERS1_TnNSt9enable_ifIXaaclsr5_PCCPE22_MoveConstructiblePairIT_T0_EEclsr5_PCCPE30_ImplicitlyMoveConvertiblePairISG_SH_EEEbE4typeELb1EEEOSG_OSH_ = comdat any

$_ZNSt17_Rb_tree_iteratorINSt7__cxx1112basic_stringIcSt11char_traitsIcESaIcEEEEmmEv = comdat any

$_ZNSt4pairIPSt18_Rb_tree_node_baseS1_EC2IS1_S1_TnNSt9enable_ifIXaaclsr5_PCCPE18_ConstructiblePairIT_T0_EEclsr5_PCCPE26_ImplicitlyConvertiblePairIS5_S6_EEEbE4typeELb1EEERKS1_SA_ = comdat any

$_ZNKSt8_Rb_treeINSt7__cxx1112basic_stringIcSt11char_traitsIcESaIcEEES5_St9_IdentityIS5_ESt4lessIS5_ESaIS5_EE11_Alloc_nodeclIRKS5_EEPSt13_Rb_tree_nodeIS5_EOT_ = comdat any

$_ZNSt8_Rb_treeINSt7__cxx1112basic_stringIcSt11char_traitsIcESaIcEEES5_St9_IdentityIS5_ESt4lessIS5_ESaIS5_EE14_M_create_nodeIJRKS5_EEEPSt13_Rb_tree_nodeIS5_EDpOT_ = comdat any

$_ZNSt8_Rb_treeINSt7__cxx1112basic_stringIcSt11char_traitsIcESaIcEEES5_St9_IdentityIS5_ESt4lessIS5_ESaIS5_EE11_M_get_nodeEv = comdat any

$_ZNSt8_Rb_treeINSt7__cxx1112basic_stringIcSt11char_traitsIcESaIcEEES5_St9_IdentityIS5_ESt4lessIS5_ESaIS5_EE17_M_construct_nodeIJRKS5_EEEvPSt13_Rb_tree_nodeIS5_EDpOT_ = comdat any

$_ZNSt16allocator_traitsISaISt13_Rb_tree_nodeINSt7__cxx1112basic_stringIcSt11char_traitsIcESaIcEEEEEE8allocateERS8_m = comdat any

$_ZNSt8_Rb_treeINSt7__cxx1112basic_stringIcSt11char_traitsIcESaIcEEES5_St9_IdentityIS5_ESt4lessIS5_ESaIS5_EE21_M_get_Node_allocatorEv = comdat any

$_ZNSt15__new_allocatorISt13_Rb_tree_nodeINSt7__cxx1112basic_stringIcSt11char_traitsIcESaIcEEEEE8allocateEmPKv = comdat any

$_ZNKSt15__new_allocatorISt13_Rb_tree_nodeINSt7__cxx1112basic_stringIcSt11char_traitsIcESaIcEEEEE11_M_max_sizeEv = comdat any

$_ZNSt16allocator_traitsISaISt13_Rb_tree_nodeINSt7__cxx1112basic_stringIcSt11char_traitsIcESaIcEEEEEE9constructIS6_JRKS6_EEEvRS8_PT_DpOT0_ = comdat any

$_ZNSt13_Rb_tree_nodeINSt7__cxx1112basic_stringIcSt11char_traitsIcESaIcEEEE9_M_valptrEv = comdat any

$_ZNSt8_Rb_treeINSt7__cxx1112basic_stringIcSt11char_traitsIcESaIcEEES5_St9_IdentityIS5_ESt4lessIS5_ESaIS5_EE11_M_put_nodeEPSt13_Rb_tree_nodeIS5_E = comdat any

$_ZNSt15__new_allocatorISt13_Rb_tree_nodeINSt7__cxx1112basic_stringIcSt11char_traitsIcESaIcEEEEE9constructIS6_JRKS6_EEEvPT_DpOT0_ = comdat any

$_ZN9__gnu_cxx16__aligned_membufINSt7__cxx1112basic_stringIcSt11char_traitsIcESaIcEEEE6_M_ptrEv = comdat any

$_ZN9__gnu_cxx16__aligned_membufINSt7__cxx1112basic_stringIcSt11char_traitsIcESaIcEEEE7_M_addrEv = comdat any

$_ZNSt16allocator_traitsISaISt13_Rb_tree_nodeINSt7__cxx1112basic_stringIcSt11char_traitsIcESaIcEEEEEE10deallocateERS8_PS7_m = comdat any

$_ZNSt15__new_allocatorISt13_Rb_tree_nodeINSt7__cxx1112basic_stringIcSt11char_traitsIcESaIcEEEEE10deallocateEPS7_m = comdat any

$_ZNKSt6vectorINSt7__cxx1112basic_stringIcSt11char_traitsIcESaIcEEESaIS5_EE5beginEv = comdat any

$_ZN9__gnu_cxxltIPKNSt7__cxx1112basic_stringIcSt11char_traitsIcESaIcEEESt6vectorIS6_SaIS6_EEEEbRKNS_17__normal_iteratorIT_T0_EESH_ = comdat any

$_ZNKSt6vectorINSt7__cxx1112basic_stringIcSt11char_traitsIcESaIcEEESaIS5_EE3endEv = comdat any

$_ZNK9__gnu_cxx17__normal_iteratorIPKNSt7__cxx1112basic_stringIcSt11char_traitsIcESaIcEEESt6vectorIS6_SaIS6_EEEdeEv = comdat any

$_ZStplIcSt11char_traitsIcESaIcEENSt7__cxx1112basic_stringIT_T0_T1_EERKS8_PKS5_ = comdat any

$_ZN9__gnu_cxx17__normal_iteratorIPKNSt7__cxx1112basic_stringIcSt11char_traitsIcESaIcEEESt6vectorIS6_SaIS6_EEEppEi = comdat any

$_ZN9__gnu_cxx17__normal_iteratorIPKNSt7__cxx1112basic_stringIcSt11char_traitsIcESaIcEEESt6vectorIS6_SaIS6_EEEC2ERKS8_ = comdat any

$_ZNK9__gnu_cxx17__normal_iteratorIPKNSt7__cxx1112basic_stringIcSt11char_traitsIcESaIcEEESt6vectorIS6_SaIS6_EEE4baseEv = comdat any

$_ZSt8_DestroyIPNSt7__cxx1112basic_stringIcSt11char_traitsIcESaIcEEES5_EvT_S7_RSaIT0_E = comdat any

$_ZNSt12_Vector_baseINSt7__cxx1112basic_stringIcSt11char_traitsIcESaIcEEESaIS5_EE19_M_get_Tp_allocatorEv = comdat any

$_ZNSt12_Vector_baseINSt7__cxx1112basic_stringIcSt11char_traitsIcESaIcEEESaIS5_EED2Ev = comdat any

$_ZSt8_DestroyIPNSt7__cxx1112basic_stringIcSt11char_traitsIcESaIcEEEEvT_S7_ = comdat any

$_ZNSt12_Destroy_auxILb0EE9__destroyIPNSt7__cxx1112basic_stringIcSt11char_traitsIcESaIcEEEEEvT_S9_ = comdat any

$_ZSt8_DestroyINSt7__cxx1112basic_stringIcSt11char_traitsIcESaIcEEEEvPT_ = comdat any

$_ZNSt12_Vector_baseINSt7__cxx1112basic_stringIcSt11char_traitsIcESaIcEEESaIS5_EE13_M_deallocateEPS5_m = comdat any

$_ZNSt12_Vector_baseINSt7__cxx1112basic_stringIcSt11char_traitsIcESaIcEEESaIS5_EE12_Vector_implD2Ev = comdat any

$_ZNSt16allocator_traitsISaINSt7__cxx1112basic_stringIcSt11char_traitsIcESaIcEEEEE10deallocateERS6_PS5_m = comdat any

$_ZNSt15__new_allocatorINSt7__cxx1112basic_stringIcSt11char_traitsIcESaIcEEEE10deallocateEPS5_m = comdat any

$_ZNSaINSt7__cxx1112basic_stringIcSt11char_traitsIcESaIcEEEED2Ev = comdat any

$_ZNSt15__new_allocatorINSt7__cxx1112basic_stringIcSt11char_traitsIcESaIcEEEED2Ev = comdat any

$_ZNSt15__uniq_ptr_implIKN14grpc_generator6MethodESt14default_deleteIS2_EE6_M_ptrEv = comdat any

$_ZNSt10unique_ptrIKN14grpc_generator6MethodESt14default_deleteIS2_EE11get_deleterEv = comdat any

$_ZNKSt14default_deleteIKN14grpc_generator6MethodEEclEPS2_ = comdat any

$_ZSt3getILm0EJPKN14grpc_generator6MethodESt14default_deleteIS2_EEERNSt13tuple_elementIXT_ESt5tupleIJDpT0_EEE4typeERSA_ = comdat any

$_ZSt12__get_helperILm0EPKN14grpc_generator6MethodEJSt14default_deleteIS2_EEERT0_RSt11_Tuple_implIXT_EJS6_DpT1_EE = comdat any

$_ZNSt11_Tuple_implILm0EJPKN14grpc_generator6MethodESt14default_deleteIS2_EEE7_M_headERS6_ = comdat any

$_ZNSt10_Head_baseILm0EPKN14grpc_generator6MethodELb0EE7_M_headERS4_ = comdat any

$_ZNSt15__uniq_ptr_implIKN14grpc_generator6MethodESt14default_deleteIS2_EE10_M_deleterEv = comdat any

$_ZSt3getILm1EJPKN14grpc_generator6MethodESt14default_deleteIS2_EEERNSt13tuple_elementIXT_ESt5tupleIJDpT0_EEE4typeERSA_ = comdat any

$_ZSt12__get_helperILm1ESt14default_deleteIKN14grpc_generator6MethodEEJEERT0_RSt11_Tuple_implIXT_EJS5_DpT1_EE = comdat any

$_ZNSt11_Tuple_implILm1EJSt14default_deleteIKN14grpc_generator6MethodEEEE7_M_headERS5_ = comdat any

$_ZNSt10_Head_baseILm1ESt14default_deleteIKN14grpc_generator6MethodEELb1EE7_M_headERS5_ = comdat any

$_ZNKSt10unique_ptrIKN14grpc_generator6MethodESt14default_deleteIS2_EEdeEv = comdat any

$_ZNSt8_Rb_treeINSt7__cxx1112basic_stringIcSt11char_traitsIcESaIcEEESt4pairIKS5_S5_ESt10_Select1stIS8_ESt4lessIS5_ESaIS8_EED2Ev = comdat any

$_ZNSt8_Rb_treeINSt7__cxx1112basic_stringIcSt11char_traitsIcESaIcEEESt4pairIKS5_S5_ESt10_Select1stIS8_ESt4lessIS5_ESaIS8_EE8_M_beginEv = comdat any

$_ZNSt8_Rb_treeINSt7__cxx1112basic_stringIcSt11char_traitsIcESaIcEEES5_St9_IdentityIS5_ESt4lessIS5_ESaIS5_EEC2Ev = comdat any

$_ZNSt8_Rb_treeINSt7__cxx1112basic_stringIcSt11char_traitsIcESaIcEEES5_St9_IdentityIS5_ESt4lessIS5_ESaIS5_EE13_Rb_tree_implIS9_Lb1EEC2Ev = comdat any

$_ZNSaISt13_Rb_tree_nodeINSt7__cxx1112basic_stringIcSt11char_traitsIcESaIcEEEEEC2Ev = comdat any

$_ZNSt15__new_allocatorISt13_Rb_tree_nodeINSt7__cxx1112basic_stringIcSt11char_traitsIcESaIcEEEEEC2Ev = comdat any

$_ZStplIcSt11char_traitsIcESaIcEENSt7__cxx1112basic_stringIT_T0_T1_EERKS8_SA_ = comdat any

$_ZStplIcSt11char_traitsIcESaIcEENSt7__cxx1112basic_stringIT_T0_T1_EEOS8_RKS8_ = comdat any

$_ZNSt8_Rb_treeINSt7__cxx1112basic_stringIcSt11char_traitsIcESaIcEEES5_St9_IdentityIS5_ESt4lessIS5_ESaIS5_EED2Ev = comdat any

$_ZNSt8_Rb_treeINSt7__cxx1112basic_stringIcSt11char_traitsIcESaIcEEES5_St9_IdentityIS5_ESt4lessIS5_ESaIS5_EE8_M_eraseEPSt13_Rb_tree_nodeIS5_E = comdat any

$_ZNSt8_Rb_treeINSt7__cxx1112basic_stringIcSt11char_traitsIcESaIcEEES5_St9_IdentityIS5_ESt4lessIS5_ESaIS5_EE13_Rb_tree_implIS9_Lb1EED2Ev = comdat any

$_ZNSt8_Rb_treeINSt7__cxx1112basic_stringIcSt11char_traitsIcESaIcEEES5_St9_IdentityIS5_ESt4lessIS5_ESaIS5_EE12_M_drop_nodeEPSt13_Rb_tree_nodeIS5_E = comdat any

$_ZNSt8_Rb_treeINSt7__cxx1112basic_stringIcSt11char_traitsIcESaIcEEES5_St9_IdentityIS5_ESt4lessIS5_ESaIS5_EE15_M_destroy_nodeEPSt13_Rb_tree_nodeIS5_E = comdat any

$_ZNSt16allocator_traitsISaISt13_Rb_tree_nodeINSt7__cxx1112basic_stringIcSt11char_traitsIcESaIcEEEEEE7destroyIS6_EEvRS8_PT_ = comdat any

$_ZNSt15__new_allocatorISt13_Rb_tree_nodeINSt7__cxx1112basic_stringIcSt11char_traitsIcESaIcEEEEE7destroyIS6_EEvPT_ = comdat any

$_ZNSaISt13_Rb_tree_nodeINSt7__cxx1112basic_stringIcSt11char_traitsIcESaIcEEEEED2Ev = comdat any

$_ZNSt15__new_allocatorISt13_Rb_tree_nodeINSt7__cxx1112basic_stringIcSt11char_traitsIcESaIcEEEEED2Ev = comdat any

$_ZNSt11char_traitsIcE6lengthEPKc = comdat any

$_ZNSt7__cxx1112basic_stringIcSt11char_traitsIcESaIcEE12_M_constructIPKcEEvT_S8_St20forward_iterator_tag = comdat any

$_ZNSt7__cxx1112basic_stringIcSt11char_traitsIcESaIcEE12_Alloc_hiderD2Ev = comdat any

$_ZSt8distanceIPKcENSt15iterator_traitsIT_E15difference_typeES3_S3_ = comdat any

$_ZZNSt7__cxx1112basic_stringIcSt11char_traitsIcESaIcEE12_M_constructIPKcEEvT_S8_St20forward_iterator_tagEN6_GuardC2EPS4_ = comdat any

$_ZZNSt7__cxx1112basic_stringIcSt11char_traitsIcESaIcEE12_M_constructIPKcEEvT_S8_St20forward_iterator_tagEN6_GuardD2Ev = comdat any

$_ZSt10__distanceIPKcENSt15iterator_traitsIT_E15difference_typeES3_S3_St26random_access_iterator_tag = comdat any

$_ZSt19__iterator_categoryIPKcENSt15iterator_traitsIT_E17iterator_categoryERKS3_ = comdat any

$_ZNSt3mapINSt7__cxx1112basic_stringIcSt11char_traitsIcESaIcEEES5_St4lessIS5_ESaISt4pairIKS5_S5_EEE11lower_boundERS9_ = comdat any

$_ZSteqRKSt17_Rb_tree_iteratorISt4pairIKNSt7__cxx1112basic_stringIcSt11char_traitsIcESaIcEEES6_EESB_ = comdat any

$_ZNSt3mapINSt7__cxx1112basic_stringIcSt11char_traitsIcESaIcEEES5_St4lessIS5_ESaISt4pairIKS5_S5_EEE3endEv = comdat any

$_ZNKSt3mapINSt7__cxx1112basic_stringIcSt11char_traitsIcESaIcEEES5_St4lessIS5_ESaISt4pairIKS5_S5_EEE8key_compEv = comdat any

$_ZNKSt17_Rb_tree_iteratorISt4pairIKNSt7__cxx1112basic_stringIcSt11char_traitsIcESaIcEEES6_EEdeEv = comdat any

$_ZNSt8_Rb_treeINSt7__cxx1112basic_stringIcSt11char_traitsIcESaIcEEESt4pairIKS5_S5_ESt10_Select1stIS8_ESt4lessIS5_ESaIS8_EE22_M_emplace_hint_uniqueIJRKSt21piecewise_construct_tSt5tupleIJOS5_EESJ_IJEEEEESt17_Rb_tree_iteratorIS8_ESt23_Rb_tree_const_iteratorIS8_EDpOT_ = comdat any

$_ZNSt23_Rb_tree_const_iteratorISt4pairIKNSt7__cxx1112basic_stringIcSt11char_traitsIcESaIcEEES6_EEC2ERKSt17_Rb_tree_iteratorIS8_E = comdat any

$_ZSt16forward_as_tupleIJNSt7__cxx1112basic_stringIcSt11char_traitsIcESaIcEEEEESt5tupleIJDpOT_EES9_ = comdat any

$_ZNSt8_Rb_treeINSt7__cxx1112basic_stringIcSt11char_traitsIcESaIcEEESt4pairIKS5_S5_ESt10_Select1stIS8_ESt4lessIS5_ESaIS8_EE11lower_boundERS7_ = comdat any

$_ZNSt8_Rb_treeINSt7__cxx1112basic_stringIcSt11char_traitsIcESaIcEEESt4pairIKS5_S5_ESt10_Select1stIS8_ESt4lessIS5_ESaIS8_EE14_M_lower_boundEPSt13_Rb_tree_nodeIS8_EPSt18_Rb_tree_node_baseRS7_ = comdat any

$_ZNSt8_Rb_treeINSt7__cxx1112basic_stringIcSt11char_traitsIcESaIcEEESt4pairIKS5_S5_ESt10_Select1stIS8_ESt4lessIS5_ESaIS8_EE6_S_keyEPKSt13_Rb_tree_nodeIS8_E = comdat any

$_ZNSt17_Rb_tree_iteratorISt4pairIKNSt7__cxx1112basic_stringIcSt11char_traitsIcESaIcEEES6_EEC2EPSt18_Rb_tree_node_base = comdat any

$_ZNKSt10_Select1stISt4pairIKNSt7__cxx1112basic_stringIcSt11char_traitsIcESaIcEEES6_EEclERKS8_ = comdat any

$_ZNKSt13_Rb_tree_nodeISt4pairIKNSt7__cxx1112basic_stringIcSt11char_traitsIcESaIcEEES6_EE9_M_valptrEv = comdat any

$_ZNK9__gnu_cxx16__aligned_membufISt4pairIKNSt7__cxx1112basic_stringIcSt11char_traitsIcESaIcEEES7_EE6_M_ptrEv = comdat any

$_ZNK9__gnu_cxx16__aligned_membufISt4pairIKNSt7__cxx1112basic_stringIcSt11char_traitsIcESaIcEEES7_EE7_M_addrEv = comdat any

$_ZNSt8_Rb_treeINSt7__cxx1112basic_stringIcSt11char_traitsIcESaIcEEESt4pairIKS5_S5_ESt10_Select1stIS8_ESt4lessIS5_ESaIS8_EE3endEv = comdat any

$_ZNKSt8_Rb_treeINSt7__cxx1112basic_stringIcSt11char_traitsIcESaIcEEESt4pairIKS5_S5_ESt10_Select1stIS8_ESt4lessIS5_ESaIS8_EE8key_compEv = comdat any

$_ZNSt8_Rb_treeINSt7__cxx1112basic_stringIcSt11char_traitsIcESaIcEEESt4pairIKS5_S5_ESt10_Select1stIS8_ESt4lessIS5_ESaIS8_EE10_Auto_nodeC2IJRKSt21piecewise_construct_tSt5tupleIJOS5_EESK_IJEEEEERSE_DpOT_ = comdat any

$_ZNSt8_Rb_treeINSt7__cxx1112basic_stringIcSt11char_traitsIcESaIcEEESt4pairIKS5_S5_ESt10_Select1stIS8_ESt4lessIS5_ESaIS8_EE29_M_get_insert_hint_unique_posESt23_Rb_tree_const_iteratorIS8_ERS7_ = comdat any

$_ZNKSt8_Rb_treeINSt7__cxx1112basic_stringIcSt11char_traitsIcESaIcEEESt4pairIKS5_S5_ESt10_Select1stIS8_ESt4lessIS5_ESaIS8_EE10_Auto_node6_M_keyEv = comdat any

$_ZNSt8_Rb_treeINSt7__cxx1112basic_stringIcSt11char_traitsIcESaIcEEESt4pairIKS5_S5_ESt10_Select1stIS8_ESt4lessIS5_ESaIS8_EE10_Auto_node9_M_insertES6_IPSt18_Rb_tree_node_baseSH_E = comdat any

$_ZNSt8_Rb_treeINSt7__cxx1112basic_stringIcSt11char_traitsIcESaIcEEESt4pairIKS5_S5_ESt10_Select1stIS8_ESt4lessIS5_ESaIS8_EE10_Auto_nodeD2Ev = comdat any

$_ZNSt8_Rb_treeINSt7__cxx1112basic_stringIcSt11char_traitsIcESaIcEEESt4pairIKS5_S5_ESt10_Select1stIS8_ESt4lessIS5_ESaIS8_EE14_M_create_nodeIJRKSt21piecewise_construct_tSt5tupleIJOS5_EESJ_IJEEEEEPSt13_Rb_tree_nodeIS8_EDpOT_ = comdat any

$_ZNSt8_Rb_treeINSt7__cxx1112basic_stringIcSt11char_traitsIcESaIcEEESt4pairIKS5_S5_ESt10_Select1stIS8_ESt4lessIS5_ESaIS8_EE17_M_construct_nodeIJRKSt21piecewise_construct_tSt5tupleIJOS5_EESJ_IJEEEEEvPSt13_Rb_tree_nodeIS8_EDpOT_ = comdat any

$_ZNSt16allocator_traitsISaISt13_Rb_tree_nodeISt4pairIKNSt7__cxx1112basic_stringIcSt11char_traitsIcESaIcEEES7_EEEE9constructIS9_JRKSt21piecewise_construct_tSt5tupleIJOS7_EESH_IJEEEEEvRSB_PT_DpOT0_ = comdat any

$_ZNSt15__new_allocatorISt13_Rb_tree_nodeISt4pairIKNSt7__cxx1112basic_stringIcSt11char_traitsIcESaIcEEES7_EEE9constructIS9_JRKSt21piecewise_construct_tSt5tupleIJOS7_EESG_IJEEEEEvPT_DpOT0_ = comdat any

$_ZNSt5tupleIJONSt7__cxx1112basic_stringIcSt11char_traitsIcESaIcEEEEEC2EOS7_ = comdat any

$_ZNSt4pairIKNSt7__cxx1112basic_stringIcSt11char_traitsIcESaIcEEES5_EC2IJOS5_EJEEESt21piecewise_construct_tSt5tupleIJDpT_EESB_IJDpT0_EE = comdat any

$_ZNSt11_Tuple_implILm0EJONSt7__cxx1112basic_stringIcSt11char_traitsIcESaIcEEEEEC2EOS7_ = comdat any

$_ZNSt4pairIKNSt7__cxx1112basic_stringIcSt11char_traitsIcESaIcEEES5_EC2IJOS5_EJLm0EEJETpTnmJEEERSt5tupleIJDpT_EERSA_IJDpT1_EESt12_Index_tupleIJXspT0_EEESJ_IJXspT2_EEE = comdat any

$_ZSt3getILm0EJONSt7__cxx1112basic_stringIcSt11char_traitsIcESaIcEEEEERNSt13tuple_elementIXT_ESt5tupleIJDpT0_EEE4typeERSB_ = comdat any

$_ZSt12__get_helperILm0EONSt7__cxx1112basic_stringIcSt11char_traitsIcESaIcEEEJEERT0_RSt11_Tuple_implIXT_EJS7_DpT1_EE = comdat any

$_ZNSt11_Tuple_implILm0EJONSt7__cxx1112basic_stringIcSt11char_traitsIcESaIcEEEEE7_M_headERS7_ = comdat any

$_ZNSt10_Head_baseILm0EONSt7__cxx1112basic_stringIcSt11char_traitsIcESaIcEEELb0EE7_M_headERS7_ = comdat any

$_ZNKSt23_Rb_tree_const_iteratorISt4pairIKNSt7__cxx1112basic_stringIcSt11char_traitsIcESaIcEEES6_EE13_M_const_castEv = comdat any

$_ZNKSt8_Rb_treeINSt7__cxx1112basic_stringIcSt11char_traitsIcESaIcEEESt4pairIKS5_S5_ESt10_Select1stIS8_ESt4lessIS5_ESaIS8_EE4sizeEv = comdat any

$_ZNSt8_Rb_treeINSt7__cxx1112basic_stringIcSt11char_traitsIcESaIcEEESt4pairIKS5_S5_ESt10_Select1stIS8_ESt4lessIS5_ESaIS8_EE6_S_keyEPKSt18_Rb_tree_node_base = comdat any

$_ZNSt8_Rb_treeINSt7__cxx1112basic_stringIcSt11char_traitsIcESaIcEEESt4pairIKS5_S5_ESt10_Select1stIS8_ESt4lessIS5_ESaIS8_EE24_M_get_insert_unique_posERS7_ = comdat any

$_ZNSt4pairIPSt18_Rb_tree_node_baseS1_EC2IRS1_S4_TnNSt9enable_ifIXaaclsr5_PCCPE22_MoveConstructiblePairIT_T0_EEclsr5_PCCPE30_ImplicitlyMoveConvertiblePairIS6_S7_EEEbE4typeELb1EEEOS6_OS7_ = comdat any

$_ZNSt17_Rb_tree_iteratorISt4pairIKNSt7__cxx1112basic_stringIcSt11char_traitsIcESaIcEEES6_EEmmEv = comdat any

$_ZNSt17_Rb_tree_iteratorISt4pairIKNSt7__cxx1112basic_stringIcSt11char_traitsIcESaIcEEES6_EEppEv = comdat any

$_ZNSt8_Rb_treeINSt7__cxx1112basic_stringIcSt11char_traitsIcESaIcEEESt4pairIKS5_S5_ESt10_Select1stIS8_ESt4lessIS5_ESaIS8_EE5beginEv = comdat any

$_ZNSt4pairIPSt18_Rb_tree_node_baseS1_EC2IRPSt13_Rb_tree_nodeIS_IKNSt7__cxx1112basic_stringIcSt11char_traitsIcESaIcEEESA_EERS1_TnNSt9enable_ifIXaaclsr5_PCCPE22_MoveConstructiblePairIT_T0_EEclsr5_PCCPE30_ImplicitlyMoveConvertiblePairISI_SJ_EEEbE4typeELb1EEEOSI_OSJ_ = comdat any

$_ZNSt8_Rb_treeINSt7__cxx1112basic_stringIcSt11char_traitsIcESaIcEEESt4pairIKS5_S5_ESt10_Select1stIS8_ESt4lessIS5_ESaIS8_EE14_M_insert_nodeEPSt18_Rb_tree_node_baseSG_PSt13_Rb_tree_nodeIS8_E = comdat any

$_ZNSt5tupleIJONSt7__cxx1112basic_stringIcSt11char_traitsIcESaIcEEEEEC2IJS5_ELb1ETnNSt9enable_ifIXclsr4_TCCIXT0_EEE29__is_implicitly_constructibleIDpT_EEEbE4typeELb1EEEDpOSA_ = comdat any

$_ZNSt11_Tuple_implILm0EJONSt7__cxx1112basic_stringIcSt11char_traitsIcESaIcEEEEEC2IS5_EEOT_ = comdat any

$_ZNSt10_Head_baseILm0EONSt7__cxx1112basic_stringIcSt11char_traitsIcESaIcEEELb0EEC2IS5_EEOT_ = comdat any

$_ZNSt15__uniq_ptr_implIN14grpc_generator7PrinterESt14default_deleteIS1_EE6_M_ptrEv = comdat any

$_ZNSt10unique_ptrIN14grpc_generator7PrinterESt14default_deleteIS1_EE11get_deleterEv = comdat any

$_ZNKSt14default_deleteIN14grpc_generator7PrinterEEclEPS1_ = comdat any

$_ZSt3getILm0EJPN14grpc_generator7PrinterESt14default_deleteIS1_EEERNSt13tuple_elementIXT_ESt5tupleIJDpT0_EEE4typeERS9_ = comdat any

$_ZSt12__get_helperILm0EPN14grpc_generator7PrinterEJSt14default_deleteIS1_EEERT0_RSt11_Tuple_implIXT_EJS5_DpT1_EE = comdat any

$_ZNSt11_Tuple_implILm0EJPN14grpc_generator7PrinterESt14default_deleteIS1_EEE7_M_headERS5_ = comdat any

$_ZNSt10_Head_baseILm0EPN14grpc_generator7PrinterELb0EE7_M_headERS3_ = comdat any

$_ZNSt15__uniq_ptr_implIN14grpc_generator7PrinterESt14default_deleteIS1_EE10_M_deleterEv = comdat any

$_ZSt3getILm1EJPN14grpc_generator7PrinterESt14default_deleteIS1_EEERNSt13tuple_elementIXT_ESt5tupleIJDpT0_EEE4typeERS9_ = comdat any

$_ZSt12__get_helperILm1ESt14default_deleteIN14grpc_generator7PrinterEEJEERT0_RSt11_Tuple_implIXT_EJS4_DpT1_EE = comdat any

$_ZNSt11_Tuple_implILm1EJSt14default_deleteIN14grpc_generator7PrinterEEEE7_M_headERS4_ = comdat any

$_ZNSt10_Head_baseILm1ESt14default_deleteIN14grpc_generator7PrinterEELb1EE7_M_headERS4_ = comdat any

$_ZNKSt10unique_ptrIN14grpc_generator7PrinterESt14default_deleteIS1_EE3getEv = comdat any

$_ZNKSt15__uniq_ptr_implIN14grpc_generator7PrinterESt14default_deleteIS1_EE6_M_ptrEv = comdat any

$_ZSt3getILm0EJPN14grpc_generator7PrinterESt14default_deleteIS1_EEERKNSt13tuple_elementIXT_ESt5tupleIJDpT0_EEE4typeERKS9_ = comdat any

$_ZSt12__get_helperILm0EPN14grpc_generator7PrinterEJSt14default_deleteIS1_EEERKT0_RKSt11_Tuple_implIXT_EJS5_DpT1_EE = comdat any

$_ZNSt11_Tuple_implILm0EJPN14grpc_generator7PrinterESt14default_deleteIS1_EEE7_M_headERKS5_ = comdat any

$_ZNSt10_Head_baseILm0EPN14grpc_generator7PrinterELb0EE7_M_headERKS3_ = comdat any

$_ZSt19piecewise_construct = comdat any

@.str = private unnamed_addr constant [5 x i8] c"PATH\00", align 1
@.str.1 = private unnamed_addr constant [2 x i8] c".\00", align 1
@.str.2 = private unnamed_addr constant [12 x i8] c"ServiceName\00", align 1
@.str.3 = private unnamed_addr constant [5 x i8] c"_fbs\00", align 1
@.str.4 = private unnamed_addr constant [8 x i8] c"FBSFile\00", align 1
@.str.5 = private unnamed_addr constant [9 x i8] c"Filename\00", align 1
@.str.6 = private unnamed_addr constant [2 x i8] c"\0A\00", align 1
@.str.7 = private unnamed_addr constant [63 x i8] c"// Generated GRPC code for FlatBuffers TS *** DO NOT EDIT ***\0A\00", align 1
@.str.8 = private unnamed_addr constant [45 x i8] c"import * as flatbuffers from 'flatbuffers';\0A\00", align 1
@.str.9 = private unnamed_addr constant [7 x i8] c"OUTPUT\00", align 1
@.str.10 = private unnamed_addr constant [6 x i8] c"INPUT\00", align 1
@.str.11 = private unnamed_addr constant [11 x i8] c"OUTPUT_DIR\00", align 1
@.str.12 = private unnamed_addr constant [13 x i8] c"Output_alias\00", align 1
@.str.13 = private unnamed_addr constant [60 x i8] c"import { $OUTPUT$ as $Output_alias$ } from '$OUTPUT_DIR$';\0A\00", align 1
@.str.14 = private unnamed_addr constant [10 x i8] c"INPUT_DIR\00", align 1
@.str.15 = private unnamed_addr constant [12 x i8] c"Input_alias\00", align 1
@.str.16 = private unnamed_addr constant [57 x i8] c"import { $INPUT$ as $Input_alias$ } from '$INPUT_DIR$';\0A\00", align 1
@.str.17 = private unnamed_addr constant [38 x i8] c"var grpc = require('@grpc/grpc-js');\0A\00", align 1
@.str.18 = private unnamed_addr constant [40 x i8] c"import * as grpc from '@grpc/grpc-js';\0A\00", align 1
@.str.19 = private unnamed_addr constant [1 x i8] zeroinitializer, align 1
@.str.20 = private unnamed_addr constant [2 x i8] c"/\00", align 1
@.str.21 = private unnamed_addr constant [2 x i8] c"_\00", align 1
@.str.22 = private unnamed_addr constant [6 x i8] c"VALUE\00", align 1
@.str.23 = private unnamed_addr constant [5 x i8] c"Type\00", align 1
@.str.24 = private unnamed_addr constant [42 x i8] c"function serialize_$Type$(buffer_args) {\0A\00", align 1
@.str.25 = private unnamed_addr constant [41 x i8] c"if (!(buffer_args instanceof $Type$)) {\0A\00", align 1
@.str.26 = private unnamed_addr constant [55 x i8] c"throw new Error('Expected argument of type $VALUE$');\0A\00", align 1
@.str.27 = private unnamed_addr constant [3 x i8] c"}\0A\00", align 1
@.str.28 = private unnamed_addr constant [46 x i8] c"return Buffer.from(buffer_args.serialize());\0A\00", align 1
@.str.29 = private unnamed_addr constant [4 x i8] c"}\0A\0A\00", align 1
@.str.30 = private unnamed_addr constant [39 x i8] c"function deserialize_$Type$(buffer) {\0A\00", align 1
@.str.31 = private unnamed_addr constant [68 x i8] c"return $Type$.getRootAs$VALUE$(new flatbuffers.ByteBuffer(buffer))\0A\00", align 1
@.str.32 = private unnamed_addr constant [8 x i8] c"Service\00", align 1
@.str.33 = private unnamed_addr constant [5 x i8] c"NAME\00", align 1
@.str.34 = private unnamed_addr constant [33 x i8] c"var $NAME$ = exports.$NAME$ = {\0A\00", align 1
@.str.35 = private unnamed_addr constant [11 x i8] c"MethodName\00", align 1
@.str.36 = private unnamed_addr constant [17 x i8] c"$MethodName$: {\0A\00", align 1
@.str.37 = private unnamed_addr constant [44 x i8] c"path: '/$PATH$$ServiceName$/$MethodName$',\0A\00", align 1
@.str.38 = private unnamed_addr constant [38 x i8] c"requestType: flatbuffers.ByteBuffer,\0A\00", align 1
@.str.39 = private unnamed_addr constant [25 x i8] c"responseType: $OUTPUT$,\0A\00", align 1
@.str.40 = private unnamed_addr constant [38 x i8] c"requestSerialize: serialize_$INPUT$,\0A\00", align 1
@.str.41 = private unnamed_addr constant [42 x i8] c"requestDeserialize: deserialize_$INPUT$,\0A\00", align 1
@.str.42 = private unnamed_addr constant [40 x i8] c"responseSerialize: serialize_$OUTPUT$,\0A\00", align 1
@.str.43 = private unnamed_addr constant [44 x i8] c"responseDeserialize: deserialize_$OUTPUT$,\0A\00", align 1
@.str.44 = private unnamed_addr constant [4 x i8] c"},\0A\00", align 1
@.str.45 = private unnamed_addr constant [4 x i8] c"};\0A\00", align 1
@.str.46 = private unnamed_addr constant [73 x i8] c"exports.$ServiceName$Client = grpc.makeGenericClientConstructor($NAME$);\00", align 1
@.str.47 = private unnamed_addr constant [5 x i8] c"true\00", align 1
@.str.48 = private unnamed_addr constant [6 x i8] c"false\00", align 1
@.str.49 = private unnamed_addr constant [16 x i8] c"ClientStreaming\00", align 1
@.str.50 = private unnamed_addr constant [16 x i8] c"ServerStreaming\00", align 1
@.str.51 = private unnamed_addr constant [35 x i8] c"requestStream: $ClientStreaming$,\0A\00", align 1
@.str.52 = private unnamed_addr constant [36 x i8] c"responseStream: $ServerStreaming$,\0A\00", align 1
@.str.53 = private unnamed_addr constant [101 x i8] c"interface I$ServiceName$Service extends grpc.ServiceDefinition<grpc.UntypedServiceImplementation> {\0A\00", align 1
@.str.54 = private unnamed_addr constant [52 x i8] c"$MethodName$: I$ServiceName$Service_I$MethodName$;\0A\00", align 1
@.str.55 = private unnamed_addr constant [59 x i8] c"export const $ServiceName$Service: I$ServiceName$Service;\0A\00", align 1
@.str.56 = private unnamed_addr constant [98 x i8] c"interface I$ServiceName$Service_I$MethodName$ extends grpc.MethodDefinition<$INPUT$, $OUTPUT$> {\0A\00", align 1
@.str.57 = private unnamed_addr constant [52 x i8] c"path: string; // /$PATH$$ServiceName$/$MethodName$\0A\00", align 1
@.str.58 = private unnamed_addr constant [46 x i8] c"requestStream: boolean; // $ClientStreaming$\0A\00", align 1
@.str.59 = private unnamed_addr constant [47 x i8] c"responseStream: boolean; // $ServerStreaming$\0A\00", align 1
@.str.60 = private unnamed_addr constant [44 x i8] c"requestSerialize: grpc.serialize<$INPUT$>;\0A\00", align 1
@.str.61 = private unnamed_addr constant [48 x i8] c"requestDeserialize: grpc.deserialize<$INPUT$>;\0A\00", align 1
@.str.62 = private unnamed_addr constant [46 x i8] c"responseSerialize: grpc.serialize<$OUTPUT$>;\0A\00", align 1
@.str.63 = private unnamed_addr constant [50 x i8] c"responseDeserialize: grpc.deserialize<$OUTPUT$>;\0A\00", align 1
@.str.64 = private unnamed_addr constant [83 x i8] c"export interface I$ServiceName$Server extends grpc.UntypedServiceImplementation {\0A\00", align 1
@.str.65 = private unnamed_addr constant [5 x i8] c"Name\00", align 1
@.str.66 = private unnamed_addr constant [58 x i8] c"$Name$: grpc.handleBidiStreamingCall<$INPUT$, $OUTPUT$>;\0A\00", align 1
@.str.67 = private unnamed_addr constant [50 x i8] c"$Name$: grpc.handleUnaryCall<$INPUT$, $OUTPUT$>;\0A\00", align 1
@.str.68 = private unnamed_addr constant [60 x i8] c"$Name$: grpc.handleClientStreamingCall<$INPUT$, $OUTPUT$>;\0A\00", align 1
@.str.69 = private unnamed_addr constant [60 x i8] c"$Name$: grpc.handleServerStreamingCall<$INPUT$, $OUTPUT$>;\0A\00", align 1
@.str.70 = private unnamed_addr constant [41 x i8] c"export interface I$ServiceName$Client {\0A\00", align 1
@.str.71 = private unnamed_addr constant [9 x i8] c"ISPUBLIC\00", align 1
@.str.72 = private unnamed_addr constant [42 x i8] c"$ISPUBLIC$$MethodName$(request: $INPUT$, \00", align 1
@.str.73 = private unnamed_addr constant [97 x i8] c"callback: (error: grpc.ServiceError | null, response: $OUTPUT$) => void): grpc.ClientUnaryCall;\0A\00", align 1
@.str.74 = private unnamed_addr constant [3 x i8] c", \00", align 1
@.str.75 = private unnamed_addr constant [24 x i8] c"metadata: grpc.Metadata\00", align 1
@.str.76 = private unnamed_addr constant [35 x i8] c"options: Partial<grpc.CallOptions>\00", align 1
@.str.77 = private unnamed_addr constant [24 x i8] c"$ISPUBLIC$$MethodName$(\00", align 1
@.str.78 = private unnamed_addr constant [48 x i8] c"): grpc.ClientDuplexStream<$INPUT$, $OUTPUT$>;\0A\00", align 1
@.str.79 = private unnamed_addr constant [38 x i8] c", options?: Partial<grpc.CallOptions>\00", align 1
@.str.80 = private unnamed_addr constant [111 x i8] c"callback: (error: grpc.ServiceError | null, response: $INPUT$) => void): grpc.ClientWritableStream<$OUTPUT$>;\0A\00", align 1
@.str.81 = private unnamed_addr constant [41 x i8] c"): grpc.ClientReadableStream<$OUTPUT$>;\0A\00", align 1
@.str.82 = private unnamed_addr constant [88 x i8] c"export class $ServiceName$Client extends grpc.Client implements I$ServiceName$Client {\0A\00", align 1
@.str.83 = private unnamed_addr constant [87 x i8] c"constructor(address: string, credentials: grpc.ChannelCredentials, options?: object);\0A\00", align 1
@.str.84 = private unnamed_addr constant [8 x i8] c"public \00", align 1
@.str.85 = private unnamed_addr constant [50 x i8] c"basic_string: construction from null is not valid\00", align 1
@_ZSt19piecewise_construct = linkonce_odr dso_local constant %"struct.std::piecewise_construct_t" zeroinitializer, comdat, align 1

; Function Attrs: mustprogress uwtable
define dso_local void @_ZN17grpc_ts_generator8GenerateEPN14grpc_generator4FileEPKNS0_7ServiceERKNSt7__cxx1112basic_stringIcSt11char_traitsIcESaIcEEE(ptr noalias sret(%"class.std::__cxx11::basic_string") align 8 %agg.result, ptr noundef %file, ptr noundef %service, ptr noundef nonnull align 8 dereferenceable(32) %filename) #0 personality ptr @__gxx_personality_v0 {
entry:
  %result.ptr = alloca ptr, align 8
  %file.addr = alloca ptr, align 8
  %service.addr = alloca ptr, align 8
  %filename.addr = alloca ptr, align 8
  %nrvo = alloca i1, align 1
  %vars = alloca %"class.std::map", align 8
  %ref.tmp = alloca %"class.std::__cxx11::basic_string", align 8
  %exn.slot = alloca ptr, align 8
  %ehselector.slot = alloca i32, align 4
  %ref.tmp1 = alloca %"class.std::__cxx11::basic_string", align 8
  %ref.tmp2 = alloca %"class.std::allocator", align 1
  %ref.tmp9 = alloca %"class.std::__cxx11::basic_string", align 8
  %ref.tmp14 = alloca %"class.std::__cxx11::basic_string", align 8
  %ref.tmp15 = alloca %"class.std::allocator", align 1
  %ref.tmp25 = alloca %"class.std::__cxx11::basic_string", align 8
  %ref.tmp29 = alloca %"class.std::__cxx11::basic_string", align 8
  %ref.tmp30 = alloca %"class.std::allocator", align 1
  %ref.tmp40 = alloca %"class.std::__cxx11::basic_string", align 8
  %ref.tmp41 = alloca %"class.std::__cxx11::basic_string", align 8
  %ref.tmp47 = alloca %"class.std::__cxx11::basic_string", align 8
  %ref.tmp48 = alloca %"class.std::allocator", align 1
  %ref.tmp59 = alloca %"class.std::__cxx11::basic_string", align 8
  %ref.tmp60 = alloca %"class.std::allocator", align 1
  %printer = alloca %"class.std::unique_ptr", align 8
  store ptr %agg.result, ptr %result.ptr, align 8
  store ptr %file, ptr %file.addr, align 8
  store ptr %service, ptr %service.addr, align 8
  store ptr %filename, ptr %filename.addr, align 8
  store i1 false, ptr %nrvo, align 1
  call void @_ZNSt7__cxx1112basic_stringIcSt11char_traitsIcESaIcEEC1Ev(ptr noundef nonnull align 8 dereferenceable(32) %agg.result) #10
  call void @_ZNSt3mapINSt7__cxx1112basic_stringIcSt11char_traitsIcESaIcEEES5_St4lessIS5_ESaISt4pairIKS5_S5_EEEC2Ev(ptr noundef nonnull align 8 dereferenceable(48) %vars) #10
  %0 = load ptr, ptr %file.addr, align 8
  %vtable = load ptr, ptr %0, align 8
  %vfn = getelementptr inbounds ptr, ptr %vtable, i64 7
  %1 = load ptr, ptr %vfn, align 8
  invoke void %1(ptr sret(%"class.std::__cxx11::basic_string") align 8 %ref.tmp, ptr noundef nonnull align 8 dereferenceable(8) %0)
          to label %invoke.cont unwind label %lpad

invoke.cont:                                      ; preds = %entry
  call void @_ZNSaIcEC1Ev(ptr noundef nonnull align 1 dereferenceable(1) %ref.tmp2) #10
  invoke void @_ZNSt7__cxx1112basic_stringIcSt11char_traitsIcESaIcEEC2IS3_EEPKcRKS3_(ptr noundef nonnull align 8 dereferenceable(32) %ref.tmp1, ptr noundef @.str, ptr noundef nonnull align 1 dereferenceable(1) %ref.tmp2)
          to label %invoke.cont4 unwind label %lpad3

invoke.cont4:                                     ; preds = %invoke.cont
  %call = invoke noundef nonnull align 8 dereferenceable(32) ptr @_ZNSt3mapINSt7__cxx1112basic_stringIcSt11char_traitsIcESaIcEEES5_St4lessIS5_ESaISt4pairIKS5_S5_EEEixEOS5_(ptr noundef nonnull align 8 dereferenceable(48) %vars, ptr noundef nonnull align 8 dereferenceable(32) %ref.tmp1)
          to label %invoke.cont6 unwind label %lpad5

invoke.cont6:                                     ; preds = %invoke.cont4
  %call7 = call noundef nonnull align 8 dereferenceable(32) ptr @_ZNSt7__cxx1112basic_stringIcSt11char_traitsIcESaIcEEaSEOS4_(ptr noundef nonnull align 8 dereferenceable(32) %call, ptr noundef nonnull align 8 dereferenceable(32) %ref.tmp) #10
  call void @_ZNSt7__cxx1112basic_stringIcSt11char_traitsIcESaIcEED1Ev(ptr noundef nonnull align 8 dereferenceable(32) %ref.tmp1) #10
  call void @_ZNSaIcED1Ev(ptr noundef nonnull align 1 dereferenceable(1) %ref.tmp2) #10
  call void @_ZNSt7__cxx1112basic_stringIcSt11char_traitsIcESaIcEED1Ev(ptr noundef nonnull align 8 dereferenceable(32) %ref.tmp) #10
  %2 = load ptr, ptr %file.addr, align 8
  %vtable10 = load ptr, ptr %2, align 8
  %vfn11 = getelementptr inbounds ptr, ptr %vtable10, i64 7
  %3 = load ptr, ptr %vfn11, align 8
  invoke void %3(ptr sret(%"class.std::__cxx11::basic_string") align 8 %ref.tmp9, ptr noundef nonnull align 8 dereferenceable(8) %2)
          to label %invoke.cont12 unwind label %lpad

invoke.cont12:                                    ; preds = %invoke.cont6
  %call13 = call noundef zeroext i1 @_ZNKSt7__cxx1112basic_stringIcSt11char_traitsIcESaIcEE5emptyEv(ptr noundef nonnull align 8 dereferenceable(32) %ref.tmp9) #10
  %lnot = xor i1 %call13, true
  call void @_ZNSt7__cxx1112basic_stringIcSt11char_traitsIcESaIcEED1Ev(ptr noundef nonnull align 8 dereferenceable(32) %ref.tmp9) #10
  br i1 %lnot, label %if.then, label %if.end

if.then:                                          ; preds = %invoke.cont12
  call void @_ZNSaIcEC1Ev(ptr noundef nonnull align 1 dereferenceable(1) %ref.tmp15) #10
  invoke void @_ZNSt7__cxx1112basic_stringIcSt11char_traitsIcESaIcEEC2IS3_EEPKcRKS3_(ptr noundef nonnull align 8 dereferenceable(32) %ref.tmp14, ptr noundef @.str, ptr noundef nonnull align 1 dereferenceable(1) %ref.tmp15)
          to label %invoke.cont17 unwind label %lpad16

invoke.cont17:                                    ; preds = %if.then
  %call20 = invoke noundef nonnull align 8 dereferenceable(32) ptr @_ZNSt3mapINSt7__cxx1112basic_stringIcSt11char_traitsIcESaIcEEES5_St4lessIS5_ESaISt4pairIKS5_S5_EEEixEOS5_(ptr noundef nonnull align 8 dereferenceable(48) %vars, ptr noundef nonnull align 8 dereferenceable(32) %ref.tmp14)
          to label %invoke.cont19 unwind label %lpad18

invoke.cont19:                                    ; preds = %invoke.cont17
  %call22 = invoke noundef nonnull align 8 dereferenceable(32) ptr @_ZNSt7__cxx1112basic_stringIcSt11char_traitsIcESaIcEE6appendEPKc(ptr noundef nonnull align 8 dereferenceable(32) %call20, ptr noundef @.str.1)
          to label %invoke.cont21 unwind label %lpad18

invoke.cont21:                                    ; preds = %invoke.cont19
  call void @_ZNSt7__cxx1112basic_stringIcSt11char_traitsIcESaIcEED1Ev(ptr noundef nonnull align 8 dereferenceable(32) %ref.tmp14) #10
  call void @_ZNSaIcED1Ev(ptr noundef nonnull align 1 dereferenceable(1) %ref.tmp15) #10
  br label %if.end

lpad:                                             ; preds = %invoke.cont66, %invoke.cont34, %if.end, %invoke.cont6, %entry
  %4 = landingpad { ptr, i32 }
          cleanup
  %5 = extractvalue { ptr, i32 } %4, 0
  store ptr %5, ptr %exn.slot, align 8
  %6 = extractvalue { ptr, i32 } %4, 1
  store i32 %6, ptr %ehselector.slot, align 4
  br label %ehcleanup81

lpad3:                                            ; preds = %invoke.cont
  %7 = landingpad { ptr, i32 }
          cleanup
  %8 = extractvalue { ptr, i32 } %7, 0
  store ptr %8, ptr %exn.slot, align 8
  %9 = extractvalue { ptr, i32 } %7, 1
  store i32 %9, ptr %ehselector.slot, align 4
  br label %ehcleanup

lpad5:                                            ; preds = %invoke.cont4
  %10 = landingpad { ptr, i32 }
          cleanup
  %11 = extractvalue { ptr, i32 } %10, 0
  store ptr %11, ptr %exn.slot, align 8
  %12 = extractvalue { ptr, i32 } %10, 1
  store i32 %12, ptr %ehselector.slot, align 4
  call void @_ZNSt7__cxx1112basic_stringIcSt11char_traitsIcESaIcEED1Ev(ptr noundef nonnull align 8 dereferenceable(32) %ref.tmp1) #10
  br label %ehcleanup

ehcleanup:                                        ; preds = %lpad5, %lpad3
  call void @_ZNSaIcED1Ev(ptr noundef nonnull align 1 dereferenceable(1) %ref.tmp2) #10
  call void @_ZNSt7__cxx1112basic_stringIcSt11char_traitsIcESaIcEED1Ev(ptr noundef nonnull align 8 dereferenceable(32) %ref.tmp) #10
  br label %ehcleanup81

lpad16:                                           ; preds = %if.then
  %13 = landingpad { ptr, i32 }
          cleanup
  %14 = extractvalue { ptr, i32 } %13, 0
  store ptr %14, ptr %exn.slot, align 8
  %15 = extractvalue { ptr, i32 } %13, 1
  store i32 %15, ptr %ehselector.slot, align 4
  br label %ehcleanup24

lpad18:                                           ; preds = %invoke.cont19, %invoke.cont17
  %16 = landingpad { ptr, i32 }
          cleanup
  %17 = extractvalue { ptr, i32 } %16, 0
  store ptr %17, ptr %exn.slot, align 8
  %18 = extractvalue { ptr, i32 } %16, 1
  store i32 %18, ptr %ehselector.slot, align 4
  call void @_ZNSt7__cxx1112basic_stringIcSt11char_traitsIcESaIcEED1Ev(ptr noundef nonnull align 8 dereferenceable(32) %ref.tmp14) #10
  br label %ehcleanup24

ehcleanup24:                                      ; preds = %lpad18, %lpad16
  call void @_ZNSaIcED1Ev(ptr noundef nonnull align 1 dereferenceable(1) %ref.tmp15) #10
  br label %ehcleanup81

if.end:                                           ; preds = %invoke.cont21, %invoke.cont12
  %19 = load ptr, ptr %service.addr, align 8
  %vtable26 = load ptr, ptr %19, align 8
  %vfn27 = getelementptr inbounds ptr, ptr %vtable26, i64 6
  %20 = load ptr, ptr %vfn27, align 8
  invoke void %20(ptr sret(%"class.std::__cxx11::basic_string") align 8 %ref.tmp25, ptr noundef nonnull align 8 dereferenceable(8) %19)
          to label %invoke.cont28 unwind label %lpad

invoke.cont28:                                    ; preds = %if.end
  call void @_ZNSaIcEC1Ev(ptr noundef nonnull align 1 dereferenceable(1) %ref.tmp30) #10
  invoke void @_ZNSt7__cxx1112basic_stringIcSt11char_traitsIcESaIcEEC2IS3_EEPKcRKS3_(ptr noundef nonnull align 8 dereferenceable(32) %ref.tmp29, ptr noundef @.str.2, ptr noundef nonnull align 1 dereferenceable(1) %ref.tmp30)
          to label %invoke.cont32 unwind label %lpad31

invoke.cont32:                                    ; preds = %invoke.cont28
  %call35 = invoke noundef nonnull align 8 dereferenceable(32) ptr @_ZNSt3mapINSt7__cxx1112basic_stringIcSt11char_traitsIcESaIcEEES5_St4lessIS5_ESaISt4pairIKS5_S5_EEEixEOS5_(ptr noundef nonnull align 8 dereferenceable(48) %vars, ptr noundef nonnull align 8 dereferenceable(32) %ref.tmp29)
          to label %invoke.cont34 unwind label %lpad33

invoke.cont34:                                    ; preds = %invoke.cont32
  %call36 = call noundef nonnull align 8 dereferenceable(32) ptr @_ZNSt7__cxx1112basic_stringIcSt11char_traitsIcESaIcEEaSEOS4_(ptr noundef nonnull align 8 dereferenceable(32) %call35, ptr noundef nonnull align 8 dereferenceable(32) %ref.tmp25) #10
  call void @_ZNSt7__cxx1112basic_stringIcSt11char_traitsIcESaIcEED1Ev(ptr noundef nonnull align 8 dereferenceable(32) %ref.tmp29) #10
  call void @_ZNSaIcED1Ev(ptr noundef nonnull align 1 dereferenceable(1) %ref.tmp30) #10
  call void @_ZNSt7__cxx1112basic_stringIcSt11char_traitsIcESaIcEED1Ev(ptr noundef nonnull align 8 dereferenceable(32) %ref.tmp25) #10
  %21 = load ptr, ptr %service.addr, align 8
  %vtable42 = load ptr, ptr %21, align 8
  %vfn43 = getelementptr inbounds ptr, ptr %vtable42, i64 6
  %22 = load ptr, ptr %vfn43, align 8
  invoke void %22(ptr sret(%"class.std::__cxx11::basic_string") align 8 %ref.tmp41, ptr noundef nonnull align 8 dereferenceable(8) %21)
          to label %invoke.cont44 unwind label %lpad

invoke.cont44:                                    ; preds = %invoke.cont34
  invoke void @_ZStplIcSt11char_traitsIcESaIcEENSt7__cxx1112basic_stringIT_T0_T1_EEOS8_PKS5_(ptr sret(%"class.std::__cxx11::basic_string") align 8 %ref.tmp40, ptr noundef nonnull align 8 dereferenceable(32) %ref.tmp41, ptr noundef @.str.3)
          to label %invoke.cont46 unwind label %lpad45

invoke.cont46:                                    ; preds = %invoke.cont44
  call void @_ZNSaIcEC1Ev(ptr noundef nonnull align 1 dereferenceable(1) %ref.tmp48) #10
  invoke void @_ZNSt7__cxx1112basic_stringIcSt11char_traitsIcESaIcEEC2IS3_EEPKcRKS3_(ptr noundef nonnull align 8 dereferenceable(32) %ref.tmp47, ptr noundef @.str.4, ptr noundef nonnull align 1 dereferenceable(1) %ref.tmp48)
          to label %invoke.cont50 unwind label %lpad49

invoke.cont50:                                    ; preds = %invoke.cont46
  %call53 = invoke noundef nonnull align 8 dereferenceable(32) ptr @_ZNSt3mapINSt7__cxx1112basic_stringIcSt11char_traitsIcESaIcEEES5_St4lessIS5_ESaISt4pairIKS5_S5_EEEixEOS5_(ptr noundef nonnull align 8 dereferenceable(48) %vars, ptr noundef nonnull align 8 dereferenceable(32) %ref.tmp47)
          to label %invoke.cont52 unwind label %lpad51

invoke.cont52:                                    ; preds = %invoke.cont50
  %call54 = call noundef nonnull align 8 dereferenceable(32) ptr @_ZNSt7__cxx1112basic_stringIcSt11char_traitsIcESaIcEEaSEOS4_(ptr noundef nonnull align 8 dereferenceable(32) %call53, ptr noundef nonnull align 8 dereferenceable(32) %ref.tmp40) #10
  call void @_ZNSt7__cxx1112basic_stringIcSt11char_traitsIcESaIcEED1Ev(ptr noundef nonnull align 8 dereferenceable(32) %ref.tmp47) #10
  call void @_ZNSaIcED1Ev(ptr noundef nonnull align 1 dereferenceable(1) %ref.tmp48) #10
  call void @_ZNSt7__cxx1112basic_stringIcSt11char_traitsIcESaIcEED1Ev(ptr noundef nonnull align 8 dereferenceable(32) %ref.tmp40) #10
  call void @_ZNSt7__cxx1112basic_stringIcSt11char_traitsIcESaIcEED1Ev(ptr noundef nonnull align 8 dereferenceable(32) %ref.tmp41) #10
  %23 = load ptr, ptr %filename.addr, align 8
  call void @_ZNSaIcEC1Ev(ptr noundef nonnull align 1 dereferenceable(1) %ref.tmp60) #10
  invoke void @_ZNSt7__cxx1112basic_stringIcSt11char_traitsIcESaIcEEC2IS3_EEPKcRKS3_(ptr noundef nonnull align 8 dereferenceable(32) %ref.tmp59, ptr noundef @.str.5, ptr noundef nonnull align 1 dereferenceable(1) %ref.tmp60)
          to label %invoke.cont62 unwind label %lpad61

invoke.cont62:                                    ; preds = %invoke.cont52
  %call65 = invoke noundef nonnull align 8 dereferenceable(32) ptr @_ZNSt3mapINSt7__cxx1112basic_stringIcSt11char_traitsIcESaIcEEES5_St4lessIS5_ESaISt4pairIKS5_S5_EEEixEOS5_(ptr noundef nonnull align 8 dereferenceable(48) %vars, ptr noundef nonnull align 8 dereferenceable(32) %ref.tmp59)
          to label %invoke.cont64 unwind label %lpad63

invoke.cont64:                                    ; preds = %invoke.cont62
  %call67 = invoke noundef nonnull align 8 dereferenceable(32) ptr @_ZNSt7__cxx1112basic_stringIcSt11char_traitsIcESaIcEEaSERKS4_(ptr noundef nonnull align 8 dereferenceable(32) %call65, ptr noundef nonnull align 8 dereferenceable(32) %23)
          to label %invoke.cont66 unwind label %lpad63

invoke.cont66:                                    ; preds = %invoke.cont64
  call void @_ZNSt7__cxx1112basic_stringIcSt11char_traitsIcESaIcEED1Ev(ptr noundef nonnull align 8 dereferenceable(32) %ref.tmp59) #10
  call void @_ZNSaIcED1Ev(ptr noundef nonnull align 1 dereferenceable(1) %ref.tmp60) #10
  %24 = load ptr, ptr %file.addr, align 8
  %vtable70 = load ptr, ptr %24, align 8
  %vfn71 = getelementptr inbounds ptr, ptr %vtable70, i64 12
  %25 = load ptr, ptr %vfn71, align 8
  invoke void %25(ptr sret(%"class.std::unique_ptr") align 8 %printer, ptr noundef nonnull align 8 dereferenceable(8) %24, ptr noundef %agg.result, i8 noundef signext 32)
          to label %invoke.cont72 unwind label %lpad

invoke.cont72:                                    ; preds = %invoke.cont66
  %26 = load ptr, ptr %service.addr, align 8
  %call73 = call noundef nonnull align 8 dereferenceable(8) ptr @_ZNKSt10unique_ptrIN14grpc_generator7PrinterESt14default_deleteIS1_EEdeEv(ptr noundef nonnull align 8 dereferenceable(8) %printer) #10
  invoke void @_ZN17grpc_ts_generator12_GLOBAL__N_115GenerateImportsEPKN14grpc_generator7ServiceEPNS1_7PrinterEPSt3mapINSt7__cxx1112basic_stringIcSt11char_traitsIcESaIcEEESD_St4lessISD_ESaISt4pairIKSD_SD_EEEb(ptr noundef %26, ptr noundef %call73, ptr noundef %vars, i1 noundef zeroext true)
          to label %invoke.cont75 unwind label %lpad74

invoke.cont75:                                    ; preds = %invoke.cont72
  %27 = load ptr, ptr %service.addr, align 8
  %call76 = call noundef nonnull align 8 dereferenceable(8) ptr @_ZNKSt10unique_ptrIN14grpc_generator7PrinterESt14default_deleteIS1_EEdeEv(ptr noundef nonnull align 8 dereferenceable(8) %printer) #10
  invoke void @_ZN17grpc_ts_generator12_GLOBAL__N_115GenerateMethodsEPKN14grpc_generator7ServiceEPNS1_7PrinterEPSt3mapINSt7__cxx1112basic_stringIcSt11char_traitsIcESaIcEEESD_St4lessISD_ESaISt4pairIKSD_SD_EEE(ptr noundef %27, ptr noundef %call76, ptr noundef %vars)
          to label %invoke.cont77 unwind label %lpad74

invoke.cont77:                                    ; preds = %invoke.cont75
  %28 = load ptr, ptr %service.addr, align 8
  %call78 = call noundef nonnull align 8 dereferenceable(8) ptr @_ZNKSt10unique_ptrIN14grpc_generator7PrinterESt14default_deleteIS1_EEdeEv(ptr noundef nonnull align 8 dereferenceable(8) %printer) #10
  invoke void @_ZN17grpc_ts_generator12_GLOBAL__N_115GenerateServiceEPKN14grpc_generator7ServiceEPNS1_7PrinterEPSt3mapINSt7__cxx1112basic_stringIcSt11char_traitsIcESaIcEEESD_St4lessISD_ESaISt4pairIKSD_SD_EEE(ptr noundef %28, ptr noundef %call78, ptr noundef %vars)
          to label %invoke.cont79 unwind label %lpad74

invoke.cont79:                                    ; preds = %invoke.cont77
  store i1 true, ptr %nrvo, align 1
  call void @_ZNSt10unique_ptrIN14grpc_generator7PrinterESt14default_deleteIS1_EED2Ev(ptr noundef nonnull align 8 dereferenceable(8) %printer) #10
  call void @_ZNSt3mapINSt7__cxx1112basic_stringIcSt11char_traitsIcESaIcEEES5_St4lessIS5_ESaISt4pairIKS5_S5_EEED2Ev(ptr noundef nonnull align 8 dereferenceable(48) %vars) #10
  %nrvo.val = load i1, ptr %nrvo, align 1
  br i1 %nrvo.val, label %nrvo.skipdtor, label %nrvo.unused

lpad31:                                           ; preds = %invoke.cont28
  %29 = landingpad { ptr, i32 }
          cleanup
  %30 = extractvalue { ptr, i32 } %29, 0
  store ptr %30, ptr %exn.slot, align 8
  %31 = extractvalue { ptr, i32 } %29, 1
  store i32 %31, ptr %ehselector.slot, align 4
  br label %ehcleanup38

lpad33:                                           ; preds = %invoke.cont32
  %32 = landingpad { ptr, i32 }
          cleanup
  %33 = extractvalue { ptr, i32 } %32, 0
  store ptr %33, ptr %exn.slot, align 8
  %34 = extractvalue { ptr, i32 } %32, 1
  store i32 %34, ptr %ehselector.slot, align 4
  call void @_ZNSt7__cxx1112basic_stringIcSt11char_traitsIcESaIcEED1Ev(ptr noundef nonnull align 8 dereferenceable(32) %ref.tmp29) #10
  br label %ehcleanup38

ehcleanup38:                                      ; preds = %lpad33, %lpad31
  call void @_ZNSaIcED1Ev(ptr noundef nonnull align 1 dereferenceable(1) %ref.tmp30) #10
  call void @_ZNSt7__cxx1112basic_stringIcSt11char_traitsIcESaIcEED1Ev(ptr noundef nonnull align 8 dereferenceable(32) %ref.tmp25) #10
  br label %ehcleanup81

lpad45:                                           ; preds = %invoke.cont44
  %35 = landingpad { ptr, i32 }
          cleanup
  %36 = extractvalue { ptr, i32 } %35, 0
  store ptr %36, ptr %exn.slot, align 8
  %37 = extractvalue { ptr, i32 } %35, 1
  store i32 %37, ptr %ehselector.slot, align 4
  br label %ehcleanup58

lpad49:                                           ; preds = %invoke.cont46
  %38 = landingpad { ptr, i32 }
          cleanup
  %39 = extractvalue { ptr, i32 } %38, 0
  store ptr %39, ptr %exn.slot, align 8
  %40 = extractvalue { ptr, i32 } %38, 1
  store i32 %40, ptr %ehselector.slot, align 4
  br label %ehcleanup56

lpad51:                                           ; preds = %invoke.cont50
  %41 = landingpad { ptr, i32 }
          cleanup
  %42 = extractvalue { ptr, i32 } %41, 0
  store ptr %42, ptr %exn.slot, align 8
  %43 = extractvalue { ptr, i32 } %41, 1
  store i32 %43, ptr %ehselector.slot, align 4
  call void @_ZNSt7__cxx1112basic_stringIcSt11char_traitsIcESaIcEED1Ev(ptr noundef nonnull align 8 dereferenceable(32) %ref.tmp47) #10
  br label %ehcleanup56

ehcleanup56:                                      ; preds = %lpad51, %lpad49
  call void @_ZNSaIcED1Ev(ptr noundef nonnull align 1 dereferenceable(1) %ref.tmp48) #10
  call void @_ZNSt7__cxx1112basic_stringIcSt11char_traitsIcESaIcEED1Ev(ptr noundef nonnull align 8 dereferenceable(32) %ref.tmp40) #10
  br label %ehcleanup58

ehcleanup58:                                      ; preds = %ehcleanup56, %lpad45
  call void @_ZNSt7__cxx1112basic_stringIcSt11char_traitsIcESaIcEED1Ev(ptr noundef nonnull align 8 dereferenceable(32) %ref.tmp41) #10
  br label %ehcleanup81

lpad61:                                           ; preds = %invoke.cont52
  %44 = landingpad { ptr, i32 }
          cleanup
  %45 = extractvalue { ptr, i32 } %44, 0
  store ptr %45, ptr %exn.slot, align 8
  %46 = extractvalue { ptr, i32 } %44, 1
  store i32 %46, ptr %ehselector.slot, align 4
  br label %ehcleanup69

lpad63:                                           ; preds = %invoke.cont64, %invoke.cont62
  %47 = landingpad { ptr, i32 }
          cleanup
  %48 = extractvalue { ptr, i32 } %47, 0
  store ptr %48, ptr %exn.slot, align 8
  %49 = extractvalue { ptr, i32 } %47, 1
  store i32 %49, ptr %ehselector.slot, align 4
  call void @_ZNSt7__cxx1112basic_stringIcSt11char_traitsIcESaIcEED1Ev(ptr noundef nonnull align 8 dereferenceable(32) %ref.tmp59) #10
  br label %ehcleanup69

ehcleanup69:                                      ; preds = %lpad63, %lpad61
  call void @_ZNSaIcED1Ev(ptr noundef nonnull align 1 dereferenceable(1) %ref.tmp60) #10
  br label %ehcleanup81

lpad74:                                           ; preds = %invoke.cont77, %invoke.cont75, %invoke.cont72
  %50 = landingpad { ptr, i32 }
          cleanup
  %51 = extractvalue { ptr, i32 } %50, 0
  store ptr %51, ptr %exn.slot, align 8
  %52 = extractvalue { ptr, i32 } %50, 1
  store i32 %52, ptr %ehselector.slot, align 4
  call void @_ZNSt10unique_ptrIN14grpc_generator7PrinterESt14default_deleteIS1_EED2Ev(ptr noundef nonnull align 8 dereferenceable(8) %printer) #10
  br label %ehcleanup81

ehcleanup81:                                      ; preds = %lpad74, %ehcleanup69, %ehcleanup58, %ehcleanup38, %ehcleanup24, %ehcleanup, %lpad
  call void @_ZNSt3mapINSt7__cxx1112basic_stringIcSt11char_traitsIcESaIcEEES5_St4lessIS5_ESaISt4pairIKS5_S5_EEED2Ev(ptr noundef nonnull align 8 dereferenceable(48) %vars) #10
  call void @_ZNSt7__cxx1112basic_stringIcSt11char_traitsIcESaIcEED1Ev(ptr noundef nonnull align 8 dereferenceable(32) %agg.result) #10
  br label %eh.resume

nrvo.unused:                                      ; preds = %invoke.cont79
  call void @_ZNSt7__cxx1112basic_stringIcSt11char_traitsIcESaIcEED1Ev(ptr noundef nonnull align 8 dereferenceable(32) %agg.result) #10
  br label %nrvo.skipdtor

nrvo.skipdtor:                                    ; preds = %nrvo.unused, %invoke.cont79
  ret void

eh.resume:                                        ; preds = %ehcleanup81
  %exn = load ptr, ptr %exn.slot, align 8
  %sel = load i32, ptr %ehselector.slot, align 4
  %lpad.val = insertvalue { ptr, i32 } poison, ptr %exn, 0
  %lpad.val83 = insertvalue { ptr, i32 } %lpad.val, i32 %sel, 1
  resume { ptr, i32 } %lpad.val83
}

; Function Attrs: nounwind
declare void @_ZNSt7__cxx1112basic_stringIcSt11char_traitsIcESaIcEEC1Ev(ptr noundef nonnull align 8 dereferenceable(32)) unnamed_addr #1

; Function Attrs: mustprogress nounwind uwtable
define linkonce_odr dso_local void @_ZNSt3mapINSt7__cxx1112basic_stringIcSt11char_traitsIcESaIcEEES5_St4lessIS5_ESaISt4pairIKS5_S5_EEEC2Ev(ptr noundef nonnull align 8 dereferenceable(48) %this) unnamed_addr #2 comdat align 2 {
entry:
  %this.addr = alloca ptr, align 8
  store ptr %this, ptr %this.addr, align 8
  %this1 = load ptr, ptr %this.addr, align 8
  %_M_t = getelementptr inbounds %"class.std::map", ptr %this1, i32 0, i32 0
  call void @_ZNSt8_Rb_treeINSt7__cxx1112basic_stringIcSt11char_traitsIcESaIcEEESt4pairIKS5_S5_ESt10_Select1stIS8_ESt4lessIS5_ESaIS8_EEC2Ev(ptr noundef nonnull align 8 dereferenceable(48) %_M_t) #10
  ret void
}

declare i32 @__gxx_personality_v0(...)

; Function Attrs: mustprogress uwtable
define linkonce_odr dso_local noundef nonnull align 8 dereferenceable(32) ptr @_ZNSt3mapINSt7__cxx1112basic_stringIcSt11char_traitsIcESaIcEEES5_St4lessIS5_ESaISt4pairIKS5_S5_EEEixEOS5_(ptr noundef nonnull align 8 dereferenceable(48) %this, ptr noundef nonnull align 8 dereferenceable(32) %__k) #0 comdat align 2 {
entry:
  %this.addr = alloca ptr, align 8
  %__k.addr = alloca ptr, align 8
  %__i = alloca %"struct.std::_Rb_tree_iterator.29", align 8
  %ref.tmp = alloca %"struct.std::_Rb_tree_iterator.29", align 8
  %ref.tmp5 = alloca %"struct.std::less", align 1
  %ref.tmp8 = alloca %"struct.std::_Rb_tree_iterator.29", align 8
  %agg.tmp = alloca %"struct.std::_Rb_tree_const_iterator.30", align 8
  %ref.tmp9 = alloca %"class.std::tuple.31", align 8
  %ref.tmp10 = alloca %"class.std::tuple.34", align 1
  store ptr %this, ptr %this.addr, align 8
  store ptr %__k, ptr %__k.addr, align 8
  %this1 = load ptr, ptr %this.addr, align 8
  %0 = load ptr, ptr %__k.addr, align 8
  %call = call ptr @_ZNSt3mapINSt7__cxx1112basic_stringIcSt11char_traitsIcESaIcEEES5_St4lessIS5_ESaISt4pairIKS5_S5_EEE11lower_boundERS9_(ptr noundef nonnull align 8 dereferenceable(48) %this1, ptr noundef nonnull align 8 dereferenceable(32) %0)
  %coerce.dive = getelementptr inbounds %"struct.std::_Rb_tree_iterator.29", ptr %__i, i32 0, i32 0
  store ptr %call, ptr %coerce.dive, align 8
  %call2 = call ptr @_ZNSt3mapINSt7__cxx1112basic_stringIcSt11char_traitsIcESaIcEEES5_St4lessIS5_ESaISt4pairIKS5_S5_EEE3endEv(ptr noundef nonnull align 8 dereferenceable(48) %this1) #10
  %coerce.dive3 = getelementptr inbounds %"struct.std::_Rb_tree_iterator.29", ptr %ref.tmp, i32 0, i32 0
  store ptr %call2, ptr %coerce.dive3, align 8
  %call4 = call noundef zeroext i1 @_ZSteqRKSt17_Rb_tree_iteratorISt4pairIKNSt7__cxx1112basic_stringIcSt11char_traitsIcESaIcEEES6_EESB_(ptr noundef nonnull align 8 dereferenceable(8) %__i, ptr noundef nonnull align 8 dereferenceable(8) %ref.tmp) #10
  br i1 %call4, label %lor.end, label %lor.rhs

lor.rhs:                                          ; preds = %entry
  call void @_ZNKSt3mapINSt7__cxx1112basic_stringIcSt11char_traitsIcESaIcEEES5_St4lessIS5_ESaISt4pairIKS5_S5_EEE8key_compEv(ptr noundef nonnull align 8 dereferenceable(48) %this1)
  %1 = load ptr, ptr %__k.addr, align 8
  %call6 = call noundef nonnull align 8 dereferenceable(64) ptr @_ZNKSt17_Rb_tree_iteratorISt4pairIKNSt7__cxx1112basic_stringIcSt11char_traitsIcESaIcEEES6_EEdeEv(ptr noundef nonnull align 8 dereferenceable(8) %__i) #10
  %first = getelementptr inbounds %"struct.std::pair.20", ptr %call6, i32 0, i32 0
  %call7 = call noundef zeroext i1 @_ZNKSt4lessINSt7__cxx1112basic_stringIcSt11char_traitsIcESaIcEEEEclERKS5_S8_(ptr noundef nonnull align 1 dereferenceable(1) %ref.tmp5, ptr noundef nonnull align 8 dereferenceable(32) %1, ptr noundef nonnull align 8 dereferenceable(32) %first)
  br label %lor.end

lor.end:                                          ; preds = %lor.rhs, %entry
  %2 = phi i1 [ true, %entry ], [ %call7, %lor.rhs ]
  br i1 %2, label %if.then, label %if.end

if.then:                                          ; preds = %lor.end
  %_M_t = getelementptr inbounds %"class.std::map", ptr %this1, i32 0, i32 0
  call void @_ZNSt23_Rb_tree_const_iteratorISt4pairIKNSt7__cxx1112basic_stringIcSt11char_traitsIcESaIcEEES6_EEC2ERKSt17_Rb_tree_iteratorIS8_E(ptr noundef nonnull align 8 dereferenceable(8) %agg.tmp, ptr noundef nonnull align 8 dereferenceable(8) %__i) #10
  %3 = load ptr, ptr %__k.addr, align 8
  call void @_ZSt16forward_as_tupleIJNSt7__cxx1112basic_stringIcSt11char_traitsIcESaIcEEEEESt5tupleIJDpOT_EES9_(ptr sret(%"class.std::tuple.31") align 8 %ref.tmp9, ptr noundef nonnull align 8 dereferenceable(32) %3) #10
  %coerce.dive11 = getelementptr inbounds %"struct.std::_Rb_tree_const_iterator.30", ptr %agg.tmp, i32 0, i32 0
  %4 = load ptr, ptr %coerce.dive11, align 8
  %call12 = call ptr @_ZNSt8_Rb_treeINSt7__cxx1112basic_stringIcSt11char_traitsIcESaIcEEESt4pairIKS5_S5_ESt10_Select1stIS8_ESt4lessIS5_ESaIS8_EE22_M_emplace_hint_uniqueIJRKSt21piecewise_construct_tSt5tupleIJOS5_EESJ_IJEEEEESt17_Rb_tree_iteratorIS8_ESt23_Rb_tree_const_iteratorIS8_EDpOT_(ptr noundef nonnull align 8 dereferenceable(48) %_M_t, ptr %4, ptr noundef nonnull align 1 dereferenceable(1) @_ZSt19piecewise_construct, ptr noundef nonnull align 8 dereferenceable(8) %ref.tmp9, ptr noundef nonnull align 1 dereferenceable(1) %ref.tmp10)
  %coerce.dive13 = getelementptr inbounds %"struct.std::_Rb_tree_iterator.29", ptr %ref.tmp8, i32 0, i32 0
  store ptr %call12, ptr %coerce.dive13, align 8
  call void @llvm.memcpy.p0.p0.i64(ptr align 8 %__i, ptr align 8 %ref.tmp8, i64 8, i1 false)
  br label %if.end

if.end:                                           ; preds = %if.then, %lor.end
  %call14 = call noundef nonnull align 8 dereferenceable(64) ptr @_ZNKSt17_Rb_tree_iteratorISt4pairIKNSt7__cxx1112basic_stringIcSt11char_traitsIcESaIcEEES6_EEdeEv(ptr noundef nonnull align 8 dereferenceable(8) %__i) #10
  %second = getelementptr inbounds %"struct.std::pair.20", ptr %call14, i32 0, i32 1
  ret ptr %second
}

; Function Attrs: nounwind
declare void @_ZNSaIcEC1Ev(ptr noundef nonnull align 1 dereferenceable(1)) unnamed_addr #1

; Function Attrs: mustprogress uwtable
define linkonce_odr dso_local void @_ZNSt7__cxx1112basic_stringIcSt11char_traitsIcESaIcEEC2IS3_EEPKcRKS3_(ptr noundef nonnull align 8 dereferenceable(32) %this, ptr noundef %__s, ptr noundef nonnull align 1 dereferenceable(1) %__a) unnamed_addr #0 comdat align 2 personality ptr @__gxx_personality_v0 {
entry:
  %this.addr = alloca ptr, align 8
  %__s.addr = alloca ptr, align 8
  %__a.addr = alloca ptr, align 8
  %exn.slot = alloca ptr, align 8
  %ehselector.slot = alloca i32, align 4
  %__end = alloca ptr, align 8
  store ptr %this, ptr %this.addr, align 8
  store ptr %__s, ptr %__s.addr, align 8
  store ptr %__a, ptr %__a.addr, align 8
  %this1 = load ptr, ptr %this.addr, align 8
  %_M_dataplus = getelementptr inbounds %"class.std::__cxx11::basic_string", ptr %this1, i32 0, i32 0
  %call = call noundef ptr @_ZNSt7__cxx1112basic_stringIcSt11char_traitsIcESaIcEE13_M_local_dataEv(ptr noundef nonnull align 8 dereferenceable(32) %this1)
  %0 = load ptr, ptr %__a.addr, align 8
  call void @_ZNSt7__cxx1112basic_stringIcSt11char_traitsIcESaIcEE12_Alloc_hiderC1EPcRKS3_(ptr noundef nonnull align 8 dereferenceable(8) %_M_dataplus, ptr noundef %call, ptr noundef nonnull align 1 dereferenceable(1) %0)
  %1 = load ptr, ptr %__s.addr, align 8
  %cmp = icmp eq ptr %1, null
  br i1 %cmp, label %if.then, label %if.end

if.then:                                          ; preds = %entry
  invoke void @_ZSt19__throw_logic_errorPKc(ptr noundef @.str.85) #11
          to label %invoke.cont unwind label %lpad

invoke.cont:                                      ; preds = %if.then
  unreachable

lpad:                                             ; preds = %invoke.cont2, %if.end, %if.then
  %2 = landingpad { ptr, i32 }
          cleanup
  %3 = extractvalue { ptr, i32 } %2, 0
  store ptr %3, ptr %exn.slot, align 8
  %4 = extractvalue { ptr, i32 } %2, 1
  store i32 %4, ptr %ehselector.slot, align 4
  call void @_ZNSt7__cxx1112basic_stringIcSt11char_traitsIcESaIcEE12_Alloc_hiderD2Ev(ptr noundef nonnull align 8 dereferenceable(8) %_M_dataplus) #10
  br label %eh.resume

if.end:                                           ; preds = %entry
  %5 = load ptr, ptr %__s.addr, align 8
  %6 = load ptr, ptr %__s.addr, align 8
  %call3 = invoke noundef i64 @_ZNSt11char_traitsIcE6lengthEPKc(ptr noundef %6)
          to label %invoke.cont2 unwind label %lpad

invoke.cont2:                                     ; preds = %if.end
  %add.ptr = getelementptr inbounds i8, ptr %5, i64 %call3
  store ptr %add.ptr, ptr %__end, align 8
  %7 = load ptr, ptr %__s.addr, align 8
  %8 = load ptr, ptr %__end, align 8
  invoke void @_ZNSt7__cxx1112basic_stringIcSt11char_traitsIcESaIcEE12_M_constructIPKcEEvT_S8_St20forward_iterator_tag(ptr noundef nonnull align 8 dereferenceable(32) %this1, ptr noundef %7, ptr noundef %8)
          to label %invoke.cont4 unwind label %lpad

invoke.cont4:                                     ; preds = %invoke.cont2
  ret void

eh.resume:                                        ; preds = %lpad
  %exn = load ptr, ptr %exn.slot, align 8
  %sel = load i32, ptr %ehselector.slot, align 4
  %lpad.val = insertvalue { ptr, i32 } poison, ptr %exn, 0
  %lpad.val5 = insertvalue { ptr, i32 } %lpad.val, i32 %sel, 1
  resume { ptr, i32 } %lpad.val5
}

; Function Attrs: nounwind
declare noundef nonnull align 8 dereferenceable(32) ptr @_ZNSt7__cxx1112basic_stringIcSt11char_traitsIcESaIcEEaSEOS4_(ptr noundef nonnull align 8 dereferenceable(32), ptr noundef nonnull align 8 dereferenceable(32)) #1

; Function Attrs: nounwind
declare void @_ZNSt7__cxx1112basic_stringIcSt11char_traitsIcESaIcEED1Ev(ptr noundef nonnull align 8 dereferenceable(32)) unnamed_addr #1

; Function Attrs: nounwind
declare void @_ZNSaIcED1Ev(ptr noundef nonnull align 1 dereferenceable(1)) unnamed_addr #1

; Function Attrs: nounwind
declare noundef zeroext i1 @_ZNKSt7__cxx1112basic_stringIcSt11char_traitsIcESaIcEE5emptyEv(ptr noundef nonnull align 8 dereferenceable(32)) #1

declare noundef nonnull align 8 dereferenceable(32) ptr @_ZNSt7__cxx1112basic_stringIcSt11char_traitsIcESaIcEE6appendEPKc(ptr noundef nonnull align 8 dereferenceable(32), ptr noundef) #3

; Function Attrs: mustprogress uwtable
define linkonce_odr dso_local void @_ZStplIcSt11char_traitsIcESaIcEENSt7__cxx1112basic_stringIT_T0_T1_EEOS8_PKS5_(ptr noalias sret(%"class.std::__cxx11::basic_string") align 8 %agg.result, ptr noundef nonnull align 8 dereferenceable(32) %__lhs, ptr noundef %__rhs) #0 comdat {
entry:
  %result.ptr = alloca ptr, align 8
  %__lhs.addr = alloca ptr, align 8
  %__rhs.addr = alloca ptr, align 8
  store ptr %agg.result, ptr %result.ptr, align 8
  store ptr %__lhs, ptr %__lhs.addr, align 8
  store ptr %__rhs, ptr %__rhs.addr, align 8
  %0 = load ptr, ptr %__lhs.addr, align 8
  %1 = load ptr, ptr %__rhs.addr, align 8
  %call = call noundef nonnull align 8 dereferenceable(32) ptr @_ZNSt7__cxx1112basic_stringIcSt11char_traitsIcESaIcEE6appendEPKc(ptr noundef nonnull align 8 dereferenceable(32) %0, ptr noundef %1)
  call void @_ZNSt7__cxx1112basic_stringIcSt11char_traitsIcESaIcEEC1EOS4_(ptr noundef nonnull align 8 dereferenceable(32) %agg.result, ptr noundef nonnull align 8 dereferenceable(32) %call) #10
  ret void
}

declare noundef nonnull align 8 dereferenceable(32) ptr @_ZNSt7__cxx1112basic_stringIcSt11char_traitsIcESaIcEEaSERKS4_(ptr noundef nonnull align 8 dereferenceable(32), ptr noundef nonnull align 8 dereferenceable(32)) #3

; Function Attrs: mustprogress uwtable
define internal void @_ZN17grpc_ts_generator12_GLOBAL__N_115GenerateImportsEPKN14grpc_generator7ServiceEPNS1_7PrinterEPSt3mapINSt7__cxx1112basic_stringIcSt11char_traitsIcESaIcEEESD_St4lessISD_ESaISt4pairIKSD_SD_EEEb(ptr noundef %service, ptr noundef %printer, ptr noundef %dictonary, i1 noundef zeroext %grpc_var_import) #0 personality ptr @__gxx_personality_v0 {
entry:
  %service.addr = alloca ptr, align 8
  %printer.addr = alloca ptr, align 8
  %dictonary.addr = alloca ptr, align 8
  %grpc_var_import.addr = alloca i8, align 1
  %vars = alloca %"class.std::map", align 8
  %exn.slot = alloca ptr, align 8
  %ehselector.slot = alloca i32, align 4
  %generated_imports = alloca %"class.std::set", align 8
  %it = alloca i32, align 4
  %method = alloca %"class.std::unique_ptr.9", align 8
  %output = alloca %"class.std::__cxx11::basic_string", align 8
  %input = alloca %"class.std::__cxx11::basic_string", align 8
  %input_namespace = alloca %"class.std::vector", align 8
  %ref.tmp = alloca %"class.std::__cxx11::basic_string", align 8
  %ref.tmp26 = alloca %"class.std::allocator", align 1
  %ref.tmp34 = alloca %"class.std::__cxx11::basic_string", align 8
  %ref.tmp35 = alloca %"class.std::allocator", align 1
  %ref.tmp45 = alloca %"struct.std::_Rb_tree_const_iterator", align 8
  %ref.tmp49 = alloca %"struct.std::_Rb_tree_const_iterator", align 8
  %coerce = alloca %"struct.std::pair", align 8
  %ref.tmp55 = alloca %"class.std::__cxx11::basic_string", align 8
  %agg.tmp = alloca %"class.std::vector", align 8
  %agg.tmp60 = alloca %"class.std::__cxx11::basic_string", align 8
  %ref.tmp65 = alloca %"class.std::__cxx11::basic_string", align 8
  %ref.tmp66 = alloca %"class.std::allocator", align 1
  %ref.tmp78 = alloca %"class.std::__cxx11::basic_string", align 8
  %agg.tmp79 = alloca %"class.std::vector", align 8
  %agg.tmp84 = alloca %"class.std::__cxx11::basic_string", align 8
  %ref.tmp89 = alloca %"class.std::__cxx11::basic_string", align 8
  %ref.tmp90 = alloca %"class.std::allocator", align 1
  %ref.tmp105 = alloca %"struct.std::_Rb_tree_const_iterator", align 8
  %ref.tmp109 = alloca %"struct.std::_Rb_tree_const_iterator", align 8
  %coerce116 = alloca %"struct.std::pair", align 8
  %ref.tmp117 = alloca %"class.std::__cxx11::basic_string", align 8
  %agg.tmp118 = alloca %"class.std::vector", align 8
  %agg.tmp123 = alloca %"class.std::__cxx11::basic_string", align 8
  %ref.tmp128 = alloca %"class.std::__cxx11::basic_string", align 8
  %ref.tmp129 = alloca %"class.std::allocator", align 1
  %ref.tmp141 = alloca %"class.std::__cxx11::basic_string", align 8
  %agg.tmp142 = alloca %"class.std::vector", align 8
  %agg.tmp147 = alloca %"class.std::__cxx11::basic_string", align 8
  %ref.tmp152 = alloca %"class.std::__cxx11::basic_string", align 8
  %ref.tmp153 = alloca %"class.std::allocator", align 1
  store ptr %service, ptr %service.addr, align 8
  store ptr %printer, ptr %printer.addr, align 8
  store ptr %dictonary, ptr %dictonary.addr, align 8
  %frombool = zext i1 %grpc_var_import to i8
  store i8 %frombool, ptr %grpc_var_import.addr, align 1
  %0 = load ptr, ptr %dictonary.addr, align 8
  call void @_ZNSt3mapINSt7__cxx1112basic_stringIcSt11char_traitsIcESaIcEEES5_St4lessIS5_ESaISt4pairIKS5_S5_EEEC2ERKSC_(ptr noundef nonnull align 8 dereferenceable(48) %vars, ptr noundef nonnull align 8 dereferenceable(48) %0)
  %1 = load ptr, ptr %printer.addr, align 8
  %vtable = load ptr, ptr %1, align 8
  %vfn = getelementptr inbounds ptr, ptr %vtable, i64 3
  %2 = load ptr, ptr %vfn, align 8
  invoke void %2(ptr noundef nonnull align 8 dereferenceable(8) %1, ptr noundef @.str.7)
          to label %invoke.cont unwind label %lpad

invoke.cont:                                      ; preds = %entry
  %3 = load ptr, ptr %printer.addr, align 8
  %vtable1 = load ptr, ptr %3, align 8
  %vfn2 = getelementptr inbounds ptr, ptr %vtable1, i64 3
  %4 = load ptr, ptr %vfn2, align 8
  invoke void %4(ptr noundef nonnull align 8 dereferenceable(8) %3, ptr noundef @.str.8)
          to label %invoke.cont3 unwind label %lpad

invoke.cont3:                                     ; preds = %invoke.cont
  call void @_ZNSt3setINSt7__cxx1112basic_stringIcSt11char_traitsIcESaIcEEESt4lessIS5_ESaIS5_EEC2Ev(ptr noundef nonnull align 8 dereferenceable(48) %generated_imports) #10
  store i32 0, ptr %it, align 4
  br label %for.cond

for.cond:                                         ; preds = %for.inc, %invoke.cont3
  %5 = load i32, ptr %it, align 4
  %6 = load ptr, ptr %service.addr, align 8
  %vtable4 = load ptr, ptr %6, align 8
  %vfn5 = getelementptr inbounds ptr, ptr %vtable4, i64 8
  %7 = load ptr, ptr %vfn5, align 8
  %call = invoke noundef i32 %7(ptr noundef nonnull align 8 dereferenceable(8) %6)
          to label %invoke.cont7 unwind label %lpad6

invoke.cont7:                                     ; preds = %for.cond
  %cmp = icmp slt i32 %5, %call
  br i1 %cmp, label %for.body, label %for.end

for.body:                                         ; preds = %invoke.cont7
  %8 = load ptr, ptr %service.addr, align 8
  %9 = load i32, ptr %it, align 4
  %vtable8 = load ptr, ptr %8, align 8
  %vfn9 = getelementptr inbounds ptr, ptr %vtable8, i64 9
  %10 = load ptr, ptr %vfn9, align 8
  invoke void %10(ptr sret(%"class.std::unique_ptr.9") align 8 %method, ptr noundef nonnull align 8 dereferenceable(8) %8, i32 noundef %9)
          to label %invoke.cont10 unwind label %lpad6

invoke.cont10:                                    ; preds = %for.body
  %call11 = call noundef ptr @_ZNKSt10unique_ptrIKN14grpc_generator6MethodESt14default_deleteIS2_EEptEv(ptr noundef nonnull align 8 dereferenceable(8) %method) #10
  %vtable12 = load ptr, ptr %call11, align 8
  %vfn13 = getelementptr inbounds ptr, ptr %vtable12, i64 13
  %11 = load ptr, ptr %vfn13, align 8
  invoke void %11(ptr sret(%"class.std::__cxx11::basic_string") align 8 %output, ptr noundef nonnull align 8 dereferenceable(8) %call11)
          to label %invoke.cont15 unwind label %lpad14

invoke.cont15:                                    ; preds = %invoke.cont10
  %call16 = call noundef ptr @_ZNKSt10unique_ptrIKN14grpc_generator6MethodESt14default_deleteIS2_EEptEv(ptr noundef nonnull align 8 dereferenceable(8) %method) #10
  %vtable17 = load ptr, ptr %call16, align 8
  %vfn18 = getelementptr inbounds ptr, ptr %vtable17, i64 11
  %12 = load ptr, ptr %vfn18, align 8
  invoke void %12(ptr sret(%"class.std::__cxx11::basic_string") align 8 %input, ptr noundef nonnull align 8 dereferenceable(8) %call16)
          to label %invoke.cont20 unwind label %lpad19

invoke.cont20:                                    ; preds = %invoke.cont15
  %call21 = call noundef ptr @_ZNKSt10unique_ptrIKN14grpc_generator6MethodESt14default_deleteIS2_EEptEv(ptr noundef nonnull align 8 dereferenceable(8) %method) #10
  %vtable22 = load ptr, ptr %call21, align 8
  %vfn23 = getelementptr inbounds ptr, ptr %vtable22, i64 10
  %13 = load ptr, ptr %vfn23, align 8
  invoke void %13(ptr sret(%"class.std::vector") align 8 %input_namespace, ptr noundef nonnull align 8 dereferenceable(8) %call21)
          to label %invoke.cont25 unwind label %lpad24

invoke.cont25:                                    ; preds = %invoke.cont20
  call void @_ZNSaIcEC1Ev(ptr noundef nonnull align 1 dereferenceable(1) %ref.tmp26) #10
  invoke void @_ZNSt7__cxx1112basic_stringIcSt11char_traitsIcESaIcEEC2IS3_EEPKcRKS3_(ptr noundef nonnull align 8 dereferenceable(32) %ref.tmp, ptr noundef @.str.9, ptr noundef nonnull align 1 dereferenceable(1) %ref.tmp26)
          to label %invoke.cont28 unwind label %lpad27

invoke.cont28:                                    ; preds = %invoke.cont25
  %call31 = invoke noundef nonnull align 8 dereferenceable(32) ptr @_ZNSt3mapINSt7__cxx1112basic_stringIcSt11char_traitsIcESaIcEEES5_St4lessIS5_ESaISt4pairIKS5_S5_EEEixEOS5_(ptr noundef nonnull align 8 dereferenceable(48) %vars, ptr noundef nonnull align 8 dereferenceable(32) %ref.tmp)
          to label %invoke.cont30 unwind label %lpad29

invoke.cont30:                                    ; preds = %invoke.cont28
  %call33 = invoke noundef nonnull align 8 dereferenceable(32) ptr @_ZNSt7__cxx1112basic_stringIcSt11char_traitsIcESaIcEEaSERKS4_(ptr noundef nonnull align 8 dereferenceable(32) %call31, ptr noundef nonnull align 8 dereferenceable(32) %output)
          to label %invoke.cont32 unwind label %lpad29

invoke.cont32:                                    ; preds = %invoke.cont30
  call void @_ZNSt7__cxx1112basic_stringIcSt11char_traitsIcESaIcEED1Ev(ptr noundef nonnull align 8 dereferenceable(32) %ref.tmp) #10
  call void @_ZNSaIcED1Ev(ptr noundef nonnull align 1 dereferenceable(1) %ref.tmp26) #10
  call void @_ZNSaIcEC1Ev(ptr noundef nonnull align 1 dereferenceable(1) %ref.tmp35) #10
  invoke void @_ZNSt7__cxx1112basic_stringIcSt11char_traitsIcESaIcEEC2IS3_EEPKcRKS3_(ptr noundef nonnull align 8 dereferenceable(32) %ref.tmp34, ptr noundef @.str.10, ptr noundef nonnull align 1 dereferenceable(1) %ref.tmp35)
          to label %invoke.cont37 unwind label %lpad36

invoke.cont37:                                    ; preds = %invoke.cont32
  %call40 = invoke noundef nonnull align 8 dereferenceable(32) ptr @_ZNSt3mapINSt7__cxx1112basic_stringIcSt11char_traitsIcESaIcEEES5_St4lessIS5_ESaISt4pairIKS5_S5_EEEixEOS5_(ptr noundef nonnull align 8 dereferenceable(48) %vars, ptr noundef nonnull align 8 dereferenceable(32) %ref.tmp34)
          to label %invoke.cont39 unwind label %lpad38

invoke.cont39:                                    ; preds = %invoke.cont37
  %call42 = invoke noundef nonnull align 8 dereferenceable(32) ptr @_ZNSt7__cxx1112basic_stringIcSt11char_traitsIcESaIcEEaSERKS4_(ptr noundef nonnull align 8 dereferenceable(32) %call40, ptr noundef nonnull align 8 dereferenceable(32) %input)
          to label %invoke.cont41 unwind label %lpad38

invoke.cont41:                                    ; preds = %invoke.cont39
  call void @_ZNSt7__cxx1112basic_stringIcSt11char_traitsIcESaIcEED1Ev(ptr noundef nonnull align 8 dereferenceable(32) %ref.tmp34) #10
  call void @_ZNSaIcED1Ev(ptr noundef nonnull align 1 dereferenceable(1) %ref.tmp35) #10
  %call48 = invoke ptr @_ZNSt3setINSt7__cxx1112basic_stringIcSt11char_traitsIcESaIcEEESt4lessIS5_ESaIS5_EE4findERKS5_(ptr noundef nonnull align 8 dereferenceable(48) %generated_imports, ptr noundef nonnull align 8 dereferenceable(32) %output)
          to label %invoke.cont47 unwind label %lpad46

invoke.cont47:                                    ; preds = %invoke.cont41
  %coerce.dive = getelementptr inbounds %"struct.std::_Rb_tree_const_iterator", ptr %ref.tmp45, i32 0, i32 0
  store ptr %call48, ptr %coerce.dive, align 8
  %call50 = call ptr @_ZNKSt3setINSt7__cxx1112basic_stringIcSt11char_traitsIcESaIcEEESt4lessIS5_ESaIS5_EE3endEv(ptr noundef nonnull align 8 dereferenceable(48) %generated_imports) #10
  %coerce.dive51 = getelementptr inbounds %"struct.std::_Rb_tree_const_iterator", ptr %ref.tmp49, i32 0, i32 0
  store ptr %call50, ptr %coerce.dive51, align 8
  %call52 = call noundef zeroext i1 @_ZSteqRKSt23_Rb_tree_const_iteratorINSt7__cxx1112basic_stringIcSt11char_traitsIcESaIcEEEES8_(ptr noundef nonnull align 8 dereferenceable(8) %ref.tmp45, ptr noundef nonnull align 8 dereferenceable(8) %ref.tmp49) #10
  br i1 %call52, label %if.then, label %if.end

if.then:                                          ; preds = %invoke.cont47
  %call54 = invoke { ptr, i8 } @_ZNSt3setINSt7__cxx1112basic_stringIcSt11char_traitsIcESaIcEEESt4lessIS5_ESaIS5_EE6insertERKS5_(ptr noundef nonnull align 8 dereferenceable(48) %generated_imports, ptr noundef nonnull align 8 dereferenceable(32) %output)
          to label %invoke.cont53 unwind label %lpad46

invoke.cont53:                                    ; preds = %if.then
  %14 = getelementptr inbounds { ptr, i8 }, ptr %coerce, i32 0, i32 0
  %15 = extractvalue { ptr, i8 } %call54, 0
  store ptr %15, ptr %14, align 8
  %16 = getelementptr inbounds { ptr, i8 }, ptr %coerce, i32 0, i32 1
  %17 = extractvalue { ptr, i8 } %call54, 1
  store i8 %17, ptr %16, align 8
  %call56 = call noundef ptr @_ZNKSt10unique_ptrIKN14grpc_generator6MethodESt14default_deleteIS2_EEptEv(ptr noundef nonnull align 8 dereferenceable(8) %method) #10
  %vtable57 = load ptr, ptr %call56, align 8
  %vfn58 = getelementptr inbounds ptr, ptr %vtable57, i64 12
  %18 = load ptr, ptr %vfn58, align 8
  invoke void %18(ptr sret(%"class.std::vector") align 8 %agg.tmp, ptr noundef nonnull align 8 dereferenceable(8) %call56)
          to label %invoke.cont59 unwind label %lpad46

invoke.cont59:                                    ; preds = %invoke.cont53
  invoke void @_ZNSt7__cxx1112basic_stringIcSt11char_traitsIcESaIcEEC1ERKS4_(ptr noundef nonnull align 8 dereferenceable(32) %agg.tmp60, ptr noundef nonnull align 8 dereferenceable(32) %output)
          to label %invoke.cont62 unwind label %lpad61

invoke.cont62:                                    ; preds = %invoke.cont59
  invoke void @_ZN17grpc_ts_generator12_GLOBAL__N_117GenerateNamespaceESt6vectorINSt7__cxx1112basic_stringIcSt11char_traitsIcESaIcEEESaIS7_EES7_b(ptr sret(%"class.std::__cxx11::basic_string") align 8 %ref.tmp55, ptr noundef %agg.tmp, ptr noundef %agg.tmp60, i1 noundef zeroext true)
          to label %invoke.cont64 unwind label %lpad63

invoke.cont64:                                    ; preds = %invoke.cont62
  call void @_ZNSaIcEC1Ev(ptr noundef nonnull align 1 dereferenceable(1) %ref.tmp66) #10
  invoke void @_ZNSt7__cxx1112basic_stringIcSt11char_traitsIcESaIcEEC2IS3_EEPKcRKS3_(ptr noundef nonnull align 8 dereferenceable(32) %ref.tmp65, ptr noundef @.str.11, ptr noundef nonnull align 1 dereferenceable(1) %ref.tmp66)
          to label %invoke.cont68 unwind label %lpad67

invoke.cont68:                                    ; preds = %invoke.cont64
  %call71 = invoke noundef nonnull align 8 dereferenceable(32) ptr @_ZNSt3mapINSt7__cxx1112basic_stringIcSt11char_traitsIcESaIcEEES5_St4lessIS5_ESaISt4pairIKS5_S5_EEEixEOS5_(ptr noundef nonnull align 8 dereferenceable(48) %vars, ptr noundef nonnull align 8 dereferenceable(32) %ref.tmp65)
          to label %invoke.cont70 unwind label %lpad69

invoke.cont70:                                    ; preds = %invoke.cont68
  %call72 = call noundef nonnull align 8 dereferenceable(32) ptr @_ZNSt7__cxx1112basic_stringIcSt11char_traitsIcESaIcEEaSEOS4_(ptr noundef nonnull align 8 dereferenceable(32) %call71, ptr noundef nonnull align 8 dereferenceable(32) %ref.tmp55) #10
  call void @_ZNSt7__cxx1112basic_stringIcSt11char_traitsIcESaIcEED1Ev(ptr noundef nonnull align 8 dereferenceable(32) %ref.tmp65) #10
  call void @_ZNSaIcED1Ev(ptr noundef nonnull align 1 dereferenceable(1) %ref.tmp66) #10
  call void @_ZNSt7__cxx1112basic_stringIcSt11char_traitsIcESaIcEED1Ev(ptr noundef nonnull align 8 dereferenceable(32) %ref.tmp55) #10
  call void @_ZNSt7__cxx1112basic_stringIcSt11char_traitsIcESaIcEED1Ev(ptr noundef nonnull align 8 dereferenceable(32) %agg.tmp60) #10
  call void @_ZNSt6vectorINSt7__cxx1112basic_stringIcSt11char_traitsIcESaIcEEESaIS5_EED2Ev(ptr noundef nonnull align 8 dereferenceable(24) %agg.tmp) #10
  %call80 = call noundef ptr @_ZNKSt10unique_ptrIKN14grpc_generator6MethodESt14default_deleteIS2_EEptEv(ptr noundef nonnull align 8 dereferenceable(8) %method) #10
  %vtable81 = load ptr, ptr %call80, align 8
  %vfn82 = getelementptr inbounds ptr, ptr %vtable81, i64 12
  %19 = load ptr, ptr %vfn82, align 8
  invoke void %19(ptr sret(%"class.std::vector") align 8 %agg.tmp79, ptr noundef nonnull align 8 dereferenceable(8) %call80)
          to label %invoke.cont83 unwind label %lpad46

invoke.cont83:                                    ; preds = %invoke.cont70
  invoke void @_ZNSt7__cxx1112basic_stringIcSt11char_traitsIcESaIcEEC1ERKS4_(ptr noundef nonnull align 8 dereferenceable(32) %agg.tmp84, ptr noundef nonnull align 8 dereferenceable(32) %output)
          to label %invoke.cont86 unwind label %lpad85

invoke.cont86:                                    ; preds = %invoke.cont83
  invoke void @_ZN17grpc_ts_generator12_GLOBAL__N_117GenerateNamespaceESt6vectorINSt7__cxx1112basic_stringIcSt11char_traitsIcESaIcEEESaIS7_EES7_b(ptr sret(%"class.std::__cxx11::basic_string") align 8 %ref.tmp78, ptr noundef %agg.tmp79, ptr noundef %agg.tmp84, i1 noundef zeroext false)
          to label %invoke.cont88 unwind label %lpad87

invoke.cont88:                                    ; preds = %invoke.cont86
  call void @_ZNSaIcEC1Ev(ptr noundef nonnull align 1 dereferenceable(1) %ref.tmp90) #10
  invoke void @_ZNSt7__cxx1112basic_stringIcSt11char_traitsIcESaIcEEC2IS3_EEPKcRKS3_(ptr noundef nonnull align 8 dereferenceable(32) %ref.tmp89, ptr noundef @.str.12, ptr noundef nonnull align 1 dereferenceable(1) %ref.tmp90)
          to label %invoke.cont92 unwind label %lpad91

invoke.cont92:                                    ; preds = %invoke.cont88
  %call95 = invoke noundef nonnull align 8 dereferenceable(32) ptr @_ZNSt3mapINSt7__cxx1112basic_stringIcSt11char_traitsIcESaIcEEES5_St4lessIS5_ESaISt4pairIKS5_S5_EEEixEOS5_(ptr noundef nonnull align 8 dereferenceable(48) %vars, ptr noundef nonnull align 8 dereferenceable(32) %ref.tmp89)
          to label %invoke.cont94 unwind label %lpad93

invoke.cont94:                                    ; preds = %invoke.cont92
  %call96 = call noundef nonnull align 8 dereferenceable(32) ptr @_ZNSt7__cxx1112basic_stringIcSt11char_traitsIcESaIcEEaSEOS4_(ptr noundef nonnull align 8 dereferenceable(32) %call95, ptr noundef nonnull align 8 dereferenceable(32) %ref.tmp78) #10
  call void @_ZNSt7__cxx1112basic_stringIcSt11char_traitsIcESaIcEED1Ev(ptr noundef nonnull align 8 dereferenceable(32) %ref.tmp89) #10
  call void @_ZNSaIcED1Ev(ptr noundef nonnull align 1 dereferenceable(1) %ref.tmp90) #10
  call void @_ZNSt7__cxx1112basic_stringIcSt11char_traitsIcESaIcEED1Ev(ptr noundef nonnull align 8 dereferenceable(32) %ref.tmp78) #10
  call void @_ZNSt7__cxx1112basic_stringIcSt11char_traitsIcESaIcEED1Ev(ptr noundef nonnull align 8 dereferenceable(32) %agg.tmp84) #10
  call void @_ZNSt6vectorINSt7__cxx1112basic_stringIcSt11char_traitsIcESaIcEEESaIS5_EED2Ev(ptr noundef nonnull align 8 dereferenceable(24) %agg.tmp79) #10
  %20 = load ptr, ptr %printer.addr, align 8
  %vtable102 = load ptr, ptr %20, align 8
  %vfn103 = getelementptr inbounds ptr, ptr %vtable102, i64 2
  %21 = load ptr, ptr %vfn103, align 8
  invoke void %21(ptr noundef nonnull align 8 dereferenceable(8) %20, ptr noundef nonnull align 8 dereferenceable(48) %vars, ptr noundef @.str.13)
          to label %invoke.cont104 unwind label %lpad46

invoke.cont104:                                   ; preds = %invoke.cont94
  br label %if.end

lpad:                                             ; preds = %invoke.cont, %entry
  %22 = landingpad { ptr, i32 }
          cleanup
  %23 = extractvalue { ptr, i32 } %22, 0
  store ptr %23, ptr %exn.slot, align 8
  %24 = extractvalue { ptr, i32 } %22, 1
  store i32 %24, ptr %ehselector.slot, align 4
  br label %ehcleanup188

lpad6:                                            ; preds = %if.end183, %if.else, %if.then176, %for.end, %for.body, %for.cond
  %25 = landingpad { ptr, i32 }
          cleanup
  %26 = extractvalue { ptr, i32 } %25, 0
  store ptr %26, ptr %exn.slot, align 8
  %27 = extractvalue { ptr, i32 } %25, 1
  store i32 %27, ptr %ehselector.slot, align 4
  br label %ehcleanup187

lpad14:                                           ; preds = %invoke.cont10
  %28 = landingpad { ptr, i32 }
          cleanup
  %29 = extractvalue { ptr, i32 } %28, 0
  store ptr %29, ptr %exn.slot, align 8
  %30 = extractvalue { ptr, i32 } %28, 1
  store i32 %30, ptr %ehselector.slot, align 4
  br label %ehcleanup172

lpad19:                                           ; preds = %invoke.cont15
  %31 = landingpad { ptr, i32 }
          cleanup
  %32 = extractvalue { ptr, i32 } %31, 0
  store ptr %32, ptr %exn.slot, align 8
  %33 = extractvalue { ptr, i32 } %31, 1
  store i32 %33, ptr %ehselector.slot, align 4
  br label %ehcleanup171

lpad24:                                           ; preds = %invoke.cont20
  %34 = landingpad { ptr, i32 }
          cleanup
  %35 = extractvalue { ptr, i32 } %34, 0
  store ptr %35, ptr %exn.slot, align 8
  %36 = extractvalue { ptr, i32 } %34, 1
  store i32 %36, ptr %ehselector.slot, align 4
  br label %ehcleanup170

lpad27:                                           ; preds = %invoke.cont25
  %37 = landingpad { ptr, i32 }
          cleanup
  %38 = extractvalue { ptr, i32 } %37, 0
  store ptr %38, ptr %exn.slot, align 8
  %39 = extractvalue { ptr, i32 } %37, 1
  store i32 %39, ptr %ehselector.slot, align 4
  br label %ehcleanup

lpad29:                                           ; preds = %invoke.cont30, %invoke.cont28
  %40 = landingpad { ptr, i32 }
          cleanup
  %41 = extractvalue { ptr, i32 } %40, 0
  store ptr %41, ptr %exn.slot, align 8
  %42 = extractvalue { ptr, i32 } %40, 1
  store i32 %42, ptr %ehselector.slot, align 4
  call void @_ZNSt7__cxx1112basic_stringIcSt11char_traitsIcESaIcEED1Ev(ptr noundef nonnull align 8 dereferenceable(32) %ref.tmp) #10
  br label %ehcleanup

ehcleanup:                                        ; preds = %lpad29, %lpad27
  call void @_ZNSaIcED1Ev(ptr noundef nonnull align 1 dereferenceable(1) %ref.tmp26) #10
  br label %ehcleanup169

lpad36:                                           ; preds = %invoke.cont32
  %43 = landingpad { ptr, i32 }
          cleanup
  %44 = extractvalue { ptr, i32 } %43, 0
  store ptr %44, ptr %exn.slot, align 8
  %45 = extractvalue { ptr, i32 } %43, 1
  store i32 %45, ptr %ehselector.slot, align 4
  br label %ehcleanup44

lpad38:                                           ; preds = %invoke.cont39, %invoke.cont37
  %46 = landingpad { ptr, i32 }
          cleanup
  %47 = extractvalue { ptr, i32 } %46, 0
  store ptr %47, ptr %exn.slot, align 8
  %48 = extractvalue { ptr, i32 } %46, 1
  store i32 %48, ptr %ehselector.slot, align 4
  call void @_ZNSt7__cxx1112basic_stringIcSt11char_traitsIcESaIcEED1Ev(ptr noundef nonnull align 8 dereferenceable(32) %ref.tmp34) #10
  br label %ehcleanup44

ehcleanup44:                                      ; preds = %lpad38, %lpad36
  call void @_ZNSaIcED1Ev(ptr noundef nonnull align 1 dereferenceable(1) %ref.tmp35) #10
  br label %ehcleanup169

lpad46:                                           ; preds = %invoke.cont157, %invoke.cont133, %invoke.cont114, %if.then113, %if.end, %invoke.cont94, %invoke.cont70, %invoke.cont53, %if.then, %invoke.cont41
  %49 = landingpad { ptr, i32 }
          cleanup
  %50 = extractvalue { ptr, i32 } %49, 0
  store ptr %50, ptr %exn.slot, align 8
  %51 = extractvalue { ptr, i32 } %49, 1
  store i32 %51, ptr %ehselector.slot, align 4
  br label %ehcleanup169

lpad61:                                           ; preds = %invoke.cont59
  %52 = landingpad { ptr, i32 }
          cleanup
  %53 = extractvalue { ptr, i32 } %52, 0
  store ptr %53, ptr %exn.slot, align 8
  %54 = extractvalue { ptr, i32 } %52, 1
  store i32 %54, ptr %ehselector.slot, align 4
  br label %ehcleanup77

lpad63:                                           ; preds = %invoke.cont62
  %55 = landingpad { ptr, i32 }
          cleanup
  %56 = extractvalue { ptr, i32 } %55, 0
  store ptr %56, ptr %exn.slot, align 8
  %57 = extractvalue { ptr, i32 } %55, 1
  store i32 %57, ptr %ehselector.slot, align 4
  br label %ehcleanup76

lpad67:                                           ; preds = %invoke.cont64
  %58 = landingpad { ptr, i32 }
          cleanup
  %59 = extractvalue { ptr, i32 } %58, 0
  store ptr %59, ptr %exn.slot, align 8
  %60 = extractvalue { ptr, i32 } %58, 1
  store i32 %60, ptr %ehselector.slot, align 4
  br label %ehcleanup74

lpad69:                                           ; preds = %invoke.cont68
  %61 = landingpad { ptr, i32 }
          cleanup
  %62 = extractvalue { ptr, i32 } %61, 0
  store ptr %62, ptr %exn.slot, align 8
  %63 = extractvalue { ptr, i32 } %61, 1
  store i32 %63, ptr %ehselector.slot, align 4
  call void @_ZNSt7__cxx1112basic_stringIcSt11char_traitsIcESaIcEED1Ev(ptr noundef nonnull align 8 dereferenceable(32) %ref.tmp65) #10
  br label %ehcleanup74

ehcleanup74:                                      ; preds = %lpad69, %lpad67
  call void @_ZNSaIcED1Ev(ptr noundef nonnull align 1 dereferenceable(1) %ref.tmp66) #10
  call void @_ZNSt7__cxx1112basic_stringIcSt11char_traitsIcESaIcEED1Ev(ptr noundef nonnull align 8 dereferenceable(32) %ref.tmp55) #10
  br label %ehcleanup76

ehcleanup76:                                      ; preds = %ehcleanup74, %lpad63
  call void @_ZNSt7__cxx1112basic_stringIcSt11char_traitsIcESaIcEED1Ev(ptr noundef nonnull align 8 dereferenceable(32) %agg.tmp60) #10
  br label %ehcleanup77

ehcleanup77:                                      ; preds = %ehcleanup76, %lpad61
  call void @_ZNSt6vectorINSt7__cxx1112basic_stringIcSt11char_traitsIcESaIcEEESaIS5_EED2Ev(ptr noundef nonnull align 8 dereferenceable(24) %agg.tmp) #10
  br label %ehcleanup169

lpad85:                                           ; preds = %invoke.cont83
  %64 = landingpad { ptr, i32 }
          cleanup
  %65 = extractvalue { ptr, i32 } %64, 0
  store ptr %65, ptr %exn.slot, align 8
  %66 = extractvalue { ptr, i32 } %64, 1
  store i32 %66, ptr %ehselector.slot, align 4
  br label %ehcleanup101

lpad87:                                           ; preds = %invoke.cont86
  %67 = landingpad { ptr, i32 }
          cleanup
  %68 = extractvalue { ptr, i32 } %67, 0
  store ptr %68, ptr %exn.slot, align 8
  %69 = extractvalue { ptr, i32 } %67, 1
  store i32 %69, ptr %ehselector.slot, align 4
  br label %ehcleanup100

lpad91:                                           ; preds = %invoke.cont88
  %70 = landingpad { ptr, i32 }
          cleanup
  %71 = extractvalue { ptr, i32 } %70, 0
  store ptr %71, ptr %exn.slot, align 8
  %72 = extractvalue { ptr, i32 } %70, 1
  store i32 %72, ptr %ehselector.slot, align 4
  br label %ehcleanup98

lpad93:                                           ; preds = %invoke.cont92
  %73 = landingpad { ptr, i32 }
          cleanup
  %74 = extractvalue { ptr, i32 } %73, 0
  store ptr %74, ptr %exn.slot, align 8
  %75 = extractvalue { ptr, i32 } %73, 1
  store i32 %75, ptr %ehselector.slot, align 4
  call void @_ZNSt7__cxx1112basic_stringIcSt11char_traitsIcESaIcEED1Ev(ptr noundef nonnull align 8 dereferenceable(32) %ref.tmp89) #10
  br label %ehcleanup98

ehcleanup98:                                      ; preds = %lpad93, %lpad91
  call void @_ZNSaIcED1Ev(ptr noundef nonnull align 1 dereferenceable(1) %ref.tmp90) #10
  call void @_ZNSt7__cxx1112basic_stringIcSt11char_traitsIcESaIcEED1Ev(ptr noundef nonnull align 8 dereferenceable(32) %ref.tmp78) #10
  br label %ehcleanup100

ehcleanup100:                                     ; preds = %ehcleanup98, %lpad87
  call void @_ZNSt7__cxx1112basic_stringIcSt11char_traitsIcESaIcEED1Ev(ptr noundef nonnull align 8 dereferenceable(32) %agg.tmp84) #10
  br label %ehcleanup101

ehcleanup101:                                     ; preds = %ehcleanup100, %lpad85
  call void @_ZNSt6vectorINSt7__cxx1112basic_stringIcSt11char_traitsIcESaIcEEESaIS5_EED2Ev(ptr noundef nonnull align 8 dereferenceable(24) %agg.tmp79) #10
  br label %ehcleanup169

if.end:                                           ; preds = %invoke.cont104, %invoke.cont47
  %call107 = invoke ptr @_ZNSt3setINSt7__cxx1112basic_stringIcSt11char_traitsIcESaIcEEESt4lessIS5_ESaIS5_EE4findERKS5_(ptr noundef nonnull align 8 dereferenceable(48) %generated_imports, ptr noundef nonnull align 8 dereferenceable(32) %input)
          to label %invoke.cont106 unwind label %lpad46

invoke.cont106:                                   ; preds = %if.end
  %coerce.dive108 = getelementptr inbounds %"struct.std::_Rb_tree_const_iterator", ptr %ref.tmp105, i32 0, i32 0
  store ptr %call107, ptr %coerce.dive108, align 8
  %call110 = call ptr @_ZNKSt3setINSt7__cxx1112basic_stringIcSt11char_traitsIcESaIcEEESt4lessIS5_ESaIS5_EE3endEv(ptr noundef nonnull align 8 dereferenceable(48) %generated_imports) #10
  %coerce.dive111 = getelementptr inbounds %"struct.std::_Rb_tree_const_iterator", ptr %ref.tmp109, i32 0, i32 0
  store ptr %call110, ptr %coerce.dive111, align 8
  %call112 = call noundef zeroext i1 @_ZSteqRKSt23_Rb_tree_const_iteratorINSt7__cxx1112basic_stringIcSt11char_traitsIcESaIcEEEES8_(ptr noundef nonnull align 8 dereferenceable(8) %ref.tmp105, ptr noundef nonnull align 8 dereferenceable(8) %ref.tmp109) #10
  br i1 %call112, label %if.then113, label %if.end168

if.then113:                                       ; preds = %invoke.cont106
  %call115 = invoke { ptr, i8 } @_ZNSt3setINSt7__cxx1112basic_stringIcSt11char_traitsIcESaIcEEESt4lessIS5_ESaIS5_EE6insertERKS5_(ptr noundef nonnull align 8 dereferenceable(48) %generated_imports, ptr noundef nonnull align 8 dereferenceable(32) %input)
          to label %invoke.cont114 unwind label %lpad46

invoke.cont114:                                   ; preds = %if.then113
  %76 = getelementptr inbounds { ptr, i8 }, ptr %coerce116, i32 0, i32 0
  %77 = extractvalue { ptr, i8 } %call115, 0
  store ptr %77, ptr %76, align 8
  %78 = getelementptr inbounds { ptr, i8 }, ptr %coerce116, i32 0, i32 1
  %79 = extractvalue { ptr, i8 } %call115, 1
  store i8 %79, ptr %78, align 8
  %call119 = call noundef ptr @_ZNKSt10unique_ptrIKN14grpc_generator6MethodESt14default_deleteIS2_EEptEv(ptr noundef nonnull align 8 dereferenceable(8) %method) #10
  %vtable120 = load ptr, ptr %call119, align 8
  %vfn121 = getelementptr inbounds ptr, ptr %vtable120, i64 12
  %80 = load ptr, ptr %vfn121, align 8
  invoke void %80(ptr sret(%"class.std::vector") align 8 %agg.tmp118, ptr noundef nonnull align 8 dereferenceable(8) %call119)
          to label %invoke.cont122 unwind label %lpad46

invoke.cont122:                                   ; preds = %invoke.cont114
  invoke void @_ZNSt7__cxx1112basic_stringIcSt11char_traitsIcESaIcEEC1ERKS4_(ptr noundef nonnull align 8 dereferenceable(32) %agg.tmp123, ptr noundef nonnull align 8 dereferenceable(32) %input)
          to label %invoke.cont125 unwind label %lpad124

invoke.cont125:                                   ; preds = %invoke.cont122
  invoke void @_ZN17grpc_ts_generator12_GLOBAL__N_117GenerateNamespaceESt6vectorINSt7__cxx1112basic_stringIcSt11char_traitsIcESaIcEEESaIS7_EES7_b(ptr sret(%"class.std::__cxx11::basic_string") align 8 %ref.tmp117, ptr noundef %agg.tmp118, ptr noundef %agg.tmp123, i1 noundef zeroext true)
          to label %invoke.cont127 unwind label %lpad126

invoke.cont127:                                   ; preds = %invoke.cont125
  call void @_ZNSaIcEC1Ev(ptr noundef nonnull align 1 dereferenceable(1) %ref.tmp129) #10
  invoke void @_ZNSt7__cxx1112basic_stringIcSt11char_traitsIcESaIcEEC2IS3_EEPKcRKS3_(ptr noundef nonnull align 8 dereferenceable(32) %ref.tmp128, ptr noundef @.str.14, ptr noundef nonnull align 1 dereferenceable(1) %ref.tmp129)
          to label %invoke.cont131 unwind label %lpad130

invoke.cont131:                                   ; preds = %invoke.cont127
  %call134 = invoke noundef nonnull align 8 dereferenceable(32) ptr @_ZNSt3mapINSt7__cxx1112basic_stringIcSt11char_traitsIcESaIcEEES5_St4lessIS5_ESaISt4pairIKS5_S5_EEEixEOS5_(ptr noundef nonnull align 8 dereferenceable(48) %vars, ptr noundef nonnull align 8 dereferenceable(32) %ref.tmp128)
          to label %invoke.cont133 unwind label %lpad132

invoke.cont133:                                   ; preds = %invoke.cont131
  %call135 = call noundef nonnull align 8 dereferenceable(32) ptr @_ZNSt7__cxx1112basic_stringIcSt11char_traitsIcESaIcEEaSEOS4_(ptr noundef nonnull align 8 dereferenceable(32) %call134, ptr noundef nonnull align 8 dereferenceable(32) %ref.tmp117) #10
  call void @_ZNSt7__cxx1112basic_stringIcSt11char_traitsIcESaIcEED1Ev(ptr noundef nonnull align 8 dereferenceable(32) %ref.tmp128) #10
  call void @_ZNSaIcED1Ev(ptr noundef nonnull align 1 dereferenceable(1) %ref.tmp129) #10
  call void @_ZNSt7__cxx1112basic_stringIcSt11char_traitsIcESaIcEED1Ev(ptr noundef nonnull align 8 dereferenceable(32) %ref.tmp117) #10
  call void @_ZNSt7__cxx1112basic_stringIcSt11char_traitsIcESaIcEED1Ev(ptr noundef nonnull align 8 dereferenceable(32) %agg.tmp123) #10
  call void @_ZNSt6vectorINSt7__cxx1112basic_stringIcSt11char_traitsIcESaIcEEESaIS5_EED2Ev(ptr noundef nonnull align 8 dereferenceable(24) %agg.tmp118) #10
  %call143 = call noundef ptr @_ZNKSt10unique_ptrIKN14grpc_generator6MethodESt14default_deleteIS2_EEptEv(ptr noundef nonnull align 8 dereferenceable(8) %method) #10
  %vtable144 = load ptr, ptr %call143, align 8
  %vfn145 = getelementptr inbounds ptr, ptr %vtable144, i64 12
  %81 = load ptr, ptr %vfn145, align 8
  invoke void %81(ptr sret(%"class.std::vector") align 8 %agg.tmp142, ptr noundef nonnull align 8 dereferenceable(8) %call143)
          to label %invoke.cont146 unwind label %lpad46

invoke.cont146:                                   ; preds = %invoke.cont133
  invoke void @_ZNSt7__cxx1112basic_stringIcSt11char_traitsIcESaIcEEC1ERKS4_(ptr noundef nonnull align 8 dereferenceable(32) %agg.tmp147, ptr noundef nonnull align 8 dereferenceable(32) %input)
          to label %invoke.cont149 unwind label %lpad148

invoke.cont149:                                   ; preds = %invoke.cont146
  invoke void @_ZN17grpc_ts_generator12_GLOBAL__N_117GenerateNamespaceESt6vectorINSt7__cxx1112basic_stringIcSt11char_traitsIcESaIcEEESaIS7_EES7_b(ptr sret(%"class.std::__cxx11::basic_string") align 8 %ref.tmp141, ptr noundef %agg.tmp142, ptr noundef %agg.tmp147, i1 noundef zeroext false)
          to label %invoke.cont151 unwind label %lpad150

invoke.cont151:                                   ; preds = %invoke.cont149
  call void @_ZNSaIcEC1Ev(ptr noundef nonnull align 1 dereferenceable(1) %ref.tmp153) #10
  invoke void @_ZNSt7__cxx1112basic_stringIcSt11char_traitsIcESaIcEEC2IS3_EEPKcRKS3_(ptr noundef nonnull align 8 dereferenceable(32) %ref.tmp152, ptr noundef @.str.15, ptr noundef nonnull align 1 dereferenceable(1) %ref.tmp153)
          to label %invoke.cont155 unwind label %lpad154

invoke.cont155:                                   ; preds = %invoke.cont151
  %call158 = invoke noundef nonnull align 8 dereferenceable(32) ptr @_ZNSt3mapINSt7__cxx1112basic_stringIcSt11char_traitsIcESaIcEEES5_St4lessIS5_ESaISt4pairIKS5_S5_EEEixEOS5_(ptr noundef nonnull align 8 dereferenceable(48) %vars, ptr noundef nonnull align 8 dereferenceable(32) %ref.tmp152)
          to label %invoke.cont157 unwind label %lpad156

invoke.cont157:                                   ; preds = %invoke.cont155
  %call159 = call noundef nonnull align 8 dereferenceable(32) ptr @_ZNSt7__cxx1112basic_stringIcSt11char_traitsIcESaIcEEaSEOS4_(ptr noundef nonnull align 8 dereferenceable(32) %call158, ptr noundef nonnull align 8 dereferenceable(32) %ref.tmp141) #10
  call void @_ZNSt7__cxx1112basic_stringIcSt11char_traitsIcESaIcEED1Ev(ptr noundef nonnull align 8 dereferenceable(32) %ref.tmp152) #10
  call void @_ZNSaIcED1Ev(ptr noundef nonnull align 1 dereferenceable(1) %ref.tmp153) #10
  call void @_ZNSt7__cxx1112basic_stringIcSt11char_traitsIcESaIcEED1Ev(ptr noundef nonnull align 8 dereferenceable(32) %ref.tmp141) #10
  call void @_ZNSt7__cxx1112basic_stringIcSt11char_traitsIcESaIcEED1Ev(ptr noundef nonnull align 8 dereferenceable(32) %agg.tmp147) #10
  call void @_ZNSt6vectorINSt7__cxx1112basic_stringIcSt11char_traitsIcESaIcEEESaIS5_EED2Ev(ptr noundef nonnull align 8 dereferenceable(24) %agg.tmp142) #10
  %82 = load ptr, ptr %printer.addr, align 8
  %vtable165 = load ptr, ptr %82, align 8
  %vfn166 = getelementptr inbounds ptr, ptr %vtable165, i64 2
  %83 = load ptr, ptr %vfn166, align 8
  invoke void %83(ptr noundef nonnull align 8 dereferenceable(8) %82, ptr noundef nonnull align 8 dereferenceable(48) %vars, ptr noundef @.str.16)
          to label %invoke.cont167 unwind label %lpad46

invoke.cont167:                                   ; preds = %invoke.cont157
  br label %if.end168

lpad124:                                          ; preds = %invoke.cont122
  %84 = landingpad { ptr, i32 }
          cleanup
  %85 = extractvalue { ptr, i32 } %84, 0
  store ptr %85, ptr %exn.slot, align 8
  %86 = extractvalue { ptr, i32 } %84, 1
  store i32 %86, ptr %ehselector.slot, align 4
  br label %ehcleanup140

lpad126:                                          ; preds = %invoke.cont125
  %87 = landingpad { ptr, i32 }
          cleanup
  %88 = extractvalue { ptr, i32 } %87, 0
  store ptr %88, ptr %exn.slot, align 8
  %89 = extractvalue { ptr, i32 } %87, 1
  store i32 %89, ptr %ehselector.slot, align 4
  br label %ehcleanup139

lpad130:                                          ; preds = %invoke.cont127
  %90 = landingpad { ptr, i32 }
          cleanup
  %91 = extractvalue { ptr, i32 } %90, 0
  store ptr %91, ptr %exn.slot, align 8
  %92 = extractvalue { ptr, i32 } %90, 1
  store i32 %92, ptr %ehselector.slot, align 4
  br label %ehcleanup137

lpad132:                                          ; preds = %invoke.cont131
  %93 = landingpad { ptr, i32 }
          cleanup
  %94 = extractvalue { ptr, i32 } %93, 0
  store ptr %94, ptr %exn.slot, align 8
  %95 = extractvalue { ptr, i32 } %93, 1
  store i32 %95, ptr %ehselector.slot, align 4
  call void @_ZNSt7__cxx1112basic_stringIcSt11char_traitsIcESaIcEED1Ev(ptr noundef nonnull align 8 dereferenceable(32) %ref.tmp128) #10
  br label %ehcleanup137

ehcleanup137:                                     ; preds = %lpad132, %lpad130
  call void @_ZNSaIcED1Ev(ptr noundef nonnull align 1 dereferenceable(1) %ref.tmp129) #10
  call void @_ZNSt7__cxx1112basic_stringIcSt11char_traitsIcESaIcEED1Ev(ptr noundef nonnull align 8 dereferenceable(32) %ref.tmp117) #10
  br label %ehcleanup139

ehcleanup139:                                     ; preds = %ehcleanup137, %lpad126
  call void @_ZNSt7__cxx1112basic_stringIcSt11char_traitsIcESaIcEED1Ev(ptr noundef nonnull align 8 dereferenceable(32) %agg.tmp123) #10
  br label %ehcleanup140

ehcleanup140:                                     ; preds = %ehcleanup139, %lpad124
  call void @_ZNSt6vectorINSt7__cxx1112basic_stringIcSt11char_traitsIcESaIcEEESaIS5_EED2Ev(ptr noundef nonnull align 8 dereferenceable(24) %agg.tmp118) #10
  br label %ehcleanup169

lpad148:                                          ; preds = %invoke.cont146
  %96 = landingpad { ptr, i32 }
          cleanup
  %97 = extractvalue { ptr, i32 } %96, 0
  store ptr %97, ptr %exn.slot, align 8
  %98 = extractvalue { ptr, i32 } %96, 1
  store i32 %98, ptr %ehselector.slot, align 4
  br label %ehcleanup164

lpad150:                                          ; preds = %invoke.cont149
  %99 = landingpad { ptr, i32 }
          cleanup
  %100 = extractvalue { ptr, i32 } %99, 0
  store ptr %100, ptr %exn.slot, align 8
  %101 = extractvalue { ptr, i32 } %99, 1
  store i32 %101, ptr %ehselector.slot, align 4
  br label %ehcleanup163

lpad154:                                          ; preds = %invoke.cont151
  %102 = landingpad { ptr, i32 }
          cleanup
  %103 = extractvalue { ptr, i32 } %102, 0
  store ptr %103, ptr %exn.slot, align 8
  %104 = extractvalue { ptr, i32 } %102, 1
  store i32 %104, ptr %ehselector.slot, align 4
  br label %ehcleanup161

lpad156:                                          ; preds = %invoke.cont155
  %105 = landingpad { ptr, i32 }
          cleanup
  %106 = extractvalue { ptr, i32 } %105, 0
  store ptr %106, ptr %exn.slot, align 8
  %107 = extractvalue { ptr, i32 } %105, 1
  store i32 %107, ptr %ehselector.slot, align 4
  call void @_ZNSt7__cxx1112basic_stringIcSt11char_traitsIcESaIcEED1Ev(ptr noundef nonnull align 8 dereferenceable(32) %ref.tmp152) #10
  br label %ehcleanup161

ehcleanup161:                                     ; preds = %lpad156, %lpad154
  call void @_ZNSaIcED1Ev(ptr noundef nonnull align 1 dereferenceable(1) %ref.tmp153) #10
  call void @_ZNSt7__cxx1112basic_stringIcSt11char_traitsIcESaIcEED1Ev(ptr noundef nonnull align 8 dereferenceable(32) %ref.tmp141) #10
  br label %ehcleanup163

ehcleanup163:                                     ; preds = %ehcleanup161, %lpad150
  call void @_ZNSt7__cxx1112basic_stringIcSt11char_traitsIcESaIcEED1Ev(ptr noundef nonnull align 8 dereferenceable(32) %agg.tmp147) #10
  br label %ehcleanup164

ehcleanup164:                                     ; preds = %ehcleanup163, %lpad148
  call void @_ZNSt6vectorINSt7__cxx1112basic_stringIcSt11char_traitsIcESaIcEEESaIS5_EED2Ev(ptr noundef nonnull align 8 dereferenceable(24) %agg.tmp142) #10
  br label %ehcleanup169

if.end168:                                        ; preds = %invoke.cont167, %invoke.cont106
  call void @_ZNSt6vectorINSt7__cxx1112basic_stringIcSt11char_traitsIcESaIcEEESaIS5_EED2Ev(ptr noundef nonnull align 8 dereferenceable(24) %input_namespace) #10
  call void @_ZNSt7__cxx1112basic_stringIcSt11char_traitsIcESaIcEED1Ev(ptr noundef nonnull align 8 dereferenceable(32) %input) #10
  call void @_ZNSt7__cxx1112basic_stringIcSt11char_traitsIcESaIcEED1Ev(ptr noundef nonnull align 8 dereferenceable(32) %output) #10
  call void @_ZNSt10unique_ptrIKN14grpc_generator6MethodESt14default_deleteIS2_EED2Ev(ptr noundef nonnull align 8 dereferenceable(8) %method) #10
  br label %for.inc

for.inc:                                          ; preds = %if.end168
  %108 = load i32, ptr %it, align 4
  %inc = add nsw i32 %108, 1
  store i32 %inc, ptr %it, align 4
  br label %for.cond, !llvm.loop !5

ehcleanup169:                                     ; preds = %ehcleanup164, %ehcleanup140, %ehcleanup101, %ehcleanup77, %lpad46, %ehcleanup44, %ehcleanup
  call void @_ZNSt6vectorINSt7__cxx1112basic_stringIcSt11char_traitsIcESaIcEEESaIS5_EED2Ev(ptr noundef nonnull align 8 dereferenceable(24) %input_namespace) #10
  br label %ehcleanup170

ehcleanup170:                                     ; preds = %ehcleanup169, %lpad24
  call void @_ZNSt7__cxx1112basic_stringIcSt11char_traitsIcESaIcEED1Ev(ptr noundef nonnull align 8 dereferenceable(32) %input) #10
  br label %ehcleanup171

ehcleanup171:                                     ; preds = %ehcleanup170, %lpad19
  call void @_ZNSt7__cxx1112basic_stringIcSt11char_traitsIcESaIcEED1Ev(ptr noundef nonnull align 8 dereferenceable(32) %output) #10
  br label %ehcleanup172

ehcleanup172:                                     ; preds = %ehcleanup171, %lpad14
  call void @_ZNSt10unique_ptrIKN14grpc_generator6MethodESt14default_deleteIS2_EED2Ev(ptr noundef nonnull align 8 dereferenceable(8) %method) #10
  br label %ehcleanup187

for.end:                                          ; preds = %invoke.cont7
  %109 = load ptr, ptr %printer.addr, align 8
  %vtable173 = load ptr, ptr %109, align 8
  %vfn174 = getelementptr inbounds ptr, ptr %vtable173, i64 3
  %110 = load ptr, ptr %vfn174, align 8
  invoke void %110(ptr noundef nonnull align 8 dereferenceable(8) %109, ptr noundef @.str.6)
          to label %invoke.cont175 unwind label %lpad6

invoke.cont175:                                   ; preds = %for.end
  %111 = load i8, ptr %grpc_var_import.addr, align 1
  %tobool = trunc i8 %111 to i1
  br i1 %tobool, label %if.then176, label %if.else

if.then176:                                       ; preds = %invoke.cont175
  %112 = load ptr, ptr %printer.addr, align 8
  %vtable177 = load ptr, ptr %112, align 8
  %vfn178 = getelementptr inbounds ptr, ptr %vtable177, i64 3
  %113 = load ptr, ptr %vfn178, align 8
  invoke void %113(ptr noundef nonnull align 8 dereferenceable(8) %112, ptr noundef @.str.17)
          to label %invoke.cont179 unwind label %lpad6

invoke.cont179:                                   ; preds = %if.then176
  br label %if.end183

if.else:                                          ; preds = %invoke.cont175
  %114 = load ptr, ptr %printer.addr, align 8
  %vtable180 = load ptr, ptr %114, align 8
  %vfn181 = getelementptr inbounds ptr, ptr %vtable180, i64 3
  %115 = load ptr, ptr %vfn181, align 8
  invoke void %115(ptr noundef nonnull align 8 dereferenceable(8) %114, ptr noundef @.str.18)
          to label %invoke.cont182 unwind label %lpad6

invoke.cont182:                                   ; preds = %if.else
  br label %if.end183

if.end183:                                        ; preds = %invoke.cont182, %invoke.cont179
  %116 = load ptr, ptr %printer.addr, align 8
  %vtable184 = load ptr, ptr %116, align 8
  %vfn185 = getelementptr inbounds ptr, ptr %vtable184, i64 3
  %117 = load ptr, ptr %vfn185, align 8
  invoke void %117(ptr noundef nonnull align 8 dereferenceable(8) %116, ptr noundef @.str.6)
          to label %invoke.cont186 unwind label %lpad6

invoke.cont186:                                   ; preds = %if.end183
  call void @_ZNSt3setINSt7__cxx1112basic_stringIcSt11char_traitsIcESaIcEEESt4lessIS5_ESaIS5_EED2Ev(ptr noundef nonnull align 8 dereferenceable(48) %generated_imports) #10
  call void @_ZNSt3mapINSt7__cxx1112basic_stringIcSt11char_traitsIcESaIcEEES5_St4lessIS5_ESaISt4pairIKS5_S5_EEED2Ev(ptr noundef nonnull align 8 dereferenceable(48) %vars) #10
  ret void

ehcleanup187:                                     ; preds = %ehcleanup172, %lpad6
  call void @_ZNSt3setINSt7__cxx1112basic_stringIcSt11char_traitsIcESaIcEEESt4lessIS5_ESaIS5_EED2Ev(ptr noundef nonnull align 8 dereferenceable(48) %generated_imports) #10
  br label %ehcleanup188

ehcleanup188:                                     ; preds = %ehcleanup187, %lpad
  call void @_ZNSt3mapINSt7__cxx1112basic_stringIcSt11char_traitsIcESaIcEEES5_St4lessIS5_ESaISt4pairIKS5_S5_EEED2Ev(ptr noundef nonnull align 8 dereferenceable(48) %vars) #10
  br label %eh.resume

eh.resume:                                        ; preds = %ehcleanup188
  %exn = load ptr, ptr %exn.slot, align 8
  %sel = load i32, ptr %ehselector.slot, align 4
  %lpad.val = insertvalue { ptr, i32 } poison, ptr %exn, 0
  %lpad.val189 = insertvalue { ptr, i32 } %lpad.val, i32 %sel, 1
  resume { ptr, i32 } %lpad.val189
}

; Function Attrs: mustprogress nounwind uwtable
define linkonce_odr dso_local noundef nonnull align 8 dereferenceable(8) ptr @_ZNKSt10unique_ptrIN14grpc_generator7PrinterESt14default_deleteIS1_EEdeEv(ptr noundef nonnull align 8 dereferenceable(8) %this) #2 comdat align 2 {
entry:
  %this.addr = alloca ptr, align 8
  store ptr %this, ptr %this.addr, align 8
  %this1 = load ptr, ptr %this.addr, align 8
  br label %do.body

do.body:                                          ; preds = %entry
  br label %do.cond

do.cond:                                          ; preds = %do.body
  br label %do.end

do.end:                                           ; preds = %do.cond
  %call = call noundef ptr @_ZNKSt10unique_ptrIN14grpc_generator7PrinterESt14default_deleteIS1_EE3getEv(ptr noundef nonnull align 8 dereferenceable(8) %this1) #10
  ret ptr %call
}

; Function Attrs: mustprogress uwtable
define internal void @_ZN17grpc_ts_generator12_GLOBAL__N_115GenerateMethodsEPKN14grpc_generator7ServiceEPNS1_7PrinterEPSt3mapINSt7__cxx1112basic_stringIcSt11char_traitsIcESaIcEEESD_St4lessISD_ESaISt4pairIKSD_SD_EEE(ptr noundef %service, ptr noundef %printer, ptr noundef %dictonary) #0 personality ptr @__gxx_personality_v0 {
entry:
  %service.addr = alloca ptr, align 8
  %printer.addr = alloca ptr, align 8
  %dictonary.addr = alloca ptr, align 8
  %vars = alloca %"class.std::map", align 8
  %generated_functions = alloca %"class.std::set", align 8
  %it = alloca i32, align 4
  %exn.slot = alloca ptr, align 8
  %ehselector.slot = alloca i32, align 4
  %method = alloca %"class.std::unique_ptr.9", align 8
  %output = alloca %"class.std::__cxx11::basic_string", align 8
  %input = alloca %"class.std::__cxx11::basic_string", align 8
  %ref.tmp = alloca %"struct.std::_Rb_tree_const_iterator", align 8
  %ref.tmp17 = alloca %"struct.std::_Rb_tree_const_iterator", align 8
  %coerce = alloca %"struct.std::pair", align 8
  %ref.tmp23 = alloca %"class.std::__cxx11::basic_string", align 8
  %ref.tmp24 = alloca %"class.std::allocator", align 1
  %ref.tmp32 = alloca %"class.std::__cxx11::basic_string", align 8
  %agg.tmp = alloca %"class.std::vector", align 8
  %agg.tmp37 = alloca %"class.std::__cxx11::basic_string", align 8
  %ref.tmp42 = alloca %"class.std::__cxx11::basic_string", align 8
  %ref.tmp43 = alloca %"class.std::allocator", align 1
  %ref.tmp60 = alloca %"struct.std::_Rb_tree_const_iterator", align 8
  %ref.tmp64 = alloca %"struct.std::_Rb_tree_const_iterator", align 8
  %coerce71 = alloca %"struct.std::pair", align 8
  %ref.tmp72 = alloca %"class.std::__cxx11::basic_string", align 8
  %ref.tmp73 = alloca %"class.std::allocator", align 1
  %ref.tmp83 = alloca %"class.std::__cxx11::basic_string", align 8
  %agg.tmp84 = alloca %"class.std::vector", align 8
  %agg.tmp89 = alloca %"class.std::__cxx11::basic_string", align 8
  %ref.tmp94 = alloca %"class.std::__cxx11::basic_string", align 8
  %ref.tmp95 = alloca %"class.std::allocator", align 1
  store ptr %service, ptr %service.addr, align 8
  store ptr %printer, ptr %printer.addr, align 8
  store ptr %dictonary, ptr %dictonary.addr, align 8
  %0 = load ptr, ptr %dictonary.addr, align 8
  call void @_ZNSt3mapINSt7__cxx1112basic_stringIcSt11char_traitsIcESaIcEEES5_St4lessIS5_ESaISt4pairIKS5_S5_EEEC2ERKSC_(ptr noundef nonnull align 8 dereferenceable(48) %vars, ptr noundef nonnull align 8 dereferenceable(48) %0)
  call void @_ZNSt3setINSt7__cxx1112basic_stringIcSt11char_traitsIcESaIcEEESt4lessIS5_ESaIS5_EEC2Ev(ptr noundef nonnull align 8 dereferenceable(48) %generated_functions) #10
  store i32 0, ptr %it, align 4
  br label %for.cond

for.cond:                                         ; preds = %for.inc, %entry
  %1 = load i32, ptr %it, align 4
  %2 = load ptr, ptr %service.addr, align 8
  %vtable = load ptr, ptr %2, align 8
  %vfn = getelementptr inbounds ptr, ptr %vtable, i64 8
  %3 = load ptr, ptr %vfn, align 8
  %call = invoke noundef i32 %3(ptr noundef nonnull align 8 dereferenceable(8) %2)
          to label %invoke.cont unwind label %lpad

invoke.cont:                                      ; preds = %for.cond
  %cmp = icmp slt i32 %1, %call
  br i1 %cmp, label %for.body, label %for.end

for.body:                                         ; preds = %invoke.cont
  %4 = load ptr, ptr %service.addr, align 8
  %5 = load i32, ptr %it, align 4
  %vtable1 = load ptr, ptr %4, align 8
  %vfn2 = getelementptr inbounds ptr, ptr %vtable1, i64 9
  %6 = load ptr, ptr %vfn2, align 8
  invoke void %6(ptr sret(%"class.std::unique_ptr.9") align 8 %method, ptr noundef nonnull align 8 dereferenceable(8) %4, i32 noundef %5)
          to label %invoke.cont3 unwind label %lpad

invoke.cont3:                                     ; preds = %for.body
  %call4 = call noundef ptr @_ZNKSt10unique_ptrIKN14grpc_generator6MethodESt14default_deleteIS2_EEptEv(ptr noundef nonnull align 8 dereferenceable(8) %method) #10
  %vtable5 = load ptr, ptr %call4, align 8
  %vfn6 = getelementptr inbounds ptr, ptr %vtable5, i64 13
  %7 = load ptr, ptr %vfn6, align 8
  invoke void %7(ptr sret(%"class.std::__cxx11::basic_string") align 8 %output, ptr noundef nonnull align 8 dereferenceable(8) %call4)
          to label %invoke.cont8 unwind label %lpad7

invoke.cont8:                                     ; preds = %invoke.cont3
  %call9 = call noundef ptr @_ZNKSt10unique_ptrIKN14grpc_generator6MethodESt14default_deleteIS2_EEptEv(ptr noundef nonnull align 8 dereferenceable(8) %method) #10
  %vtable10 = load ptr, ptr %call9, align 8
  %vfn11 = getelementptr inbounds ptr, ptr %vtable10, i64 11
  %8 = load ptr, ptr %vfn11, align 8
  invoke void %8(ptr sret(%"class.std::__cxx11::basic_string") align 8 %input, ptr noundef nonnull align 8 dereferenceable(8) %call9)
          to label %invoke.cont13 unwind label %lpad12

invoke.cont13:                                    ; preds = %invoke.cont8
  %call16 = invoke ptr @_ZNSt3setINSt7__cxx1112basic_stringIcSt11char_traitsIcESaIcEEESt4lessIS5_ESaIS5_EE4findERKS5_(ptr noundef nonnull align 8 dereferenceable(48) %generated_functions, ptr noundef nonnull align 8 dereferenceable(32) %output)
          to label %invoke.cont15 unwind label %lpad14

invoke.cont15:                                    ; preds = %invoke.cont13
  %coerce.dive = getelementptr inbounds %"struct.std::_Rb_tree_const_iterator", ptr %ref.tmp, i32 0, i32 0
  store ptr %call16, ptr %coerce.dive, align 8
  %call18 = call ptr @_ZNKSt3setINSt7__cxx1112basic_stringIcSt11char_traitsIcESaIcEEESt4lessIS5_ESaIS5_EE3endEv(ptr noundef nonnull align 8 dereferenceable(48) %generated_functions) #10
  %coerce.dive19 = getelementptr inbounds %"struct.std::_Rb_tree_const_iterator", ptr %ref.tmp17, i32 0, i32 0
  store ptr %call18, ptr %coerce.dive19, align 8
  %call20 = call noundef zeroext i1 @_ZSteqRKSt23_Rb_tree_const_iteratorINSt7__cxx1112basic_stringIcSt11char_traitsIcESaIcEEEES8_(ptr noundef nonnull align 8 dereferenceable(8) %ref.tmp, ptr noundef nonnull align 8 dereferenceable(8) %ref.tmp17) #10
  br i1 %call20, label %if.then, label %if.end

if.then:                                          ; preds = %invoke.cont15
  %call22 = invoke { ptr, i8 } @_ZNSt3setINSt7__cxx1112basic_stringIcSt11char_traitsIcESaIcEEESt4lessIS5_ESaIS5_EE6insertERKS5_(ptr noundef nonnull align 8 dereferenceable(48) %generated_functions, ptr noundef nonnull align 8 dereferenceable(32) %output)
          to label %invoke.cont21 unwind label %lpad14

invoke.cont21:                                    ; preds = %if.then
  %9 = getelementptr inbounds { ptr, i8 }, ptr %coerce, i32 0, i32 0
  %10 = extractvalue { ptr, i8 } %call22, 0
  store ptr %10, ptr %9, align 8
  %11 = getelementptr inbounds { ptr, i8 }, ptr %coerce, i32 0, i32 1
  %12 = extractvalue { ptr, i8 } %call22, 1
  store i8 %12, ptr %11, align 8
  call void @_ZNSaIcEC1Ev(ptr noundef nonnull align 1 dereferenceable(1) %ref.tmp24) #10
  invoke void @_ZNSt7__cxx1112basic_stringIcSt11char_traitsIcESaIcEEC2IS3_EEPKcRKS3_(ptr noundef nonnull align 8 dereferenceable(32) %ref.tmp23, ptr noundef @.str.22, ptr noundef nonnull align 1 dereferenceable(1) %ref.tmp24)
          to label %invoke.cont26 unwind label %lpad25

invoke.cont26:                                    ; preds = %invoke.cont21
  %call29 = invoke noundef nonnull align 8 dereferenceable(32) ptr @_ZNSt3mapINSt7__cxx1112basic_stringIcSt11char_traitsIcESaIcEEES5_St4lessIS5_ESaISt4pairIKS5_S5_EEEixEOS5_(ptr noundef nonnull align 8 dereferenceable(48) %vars, ptr noundef nonnull align 8 dereferenceable(32) %ref.tmp23)
          to label %invoke.cont28 unwind label %lpad27

invoke.cont28:                                    ; preds = %invoke.cont26
  %call31 = invoke noundef nonnull align 8 dereferenceable(32) ptr @_ZNSt7__cxx1112basic_stringIcSt11char_traitsIcESaIcEEaSERKS4_(ptr noundef nonnull align 8 dereferenceable(32) %call29, ptr noundef nonnull align 8 dereferenceable(32) %output)
          to label %invoke.cont30 unwind label %lpad27

invoke.cont30:                                    ; preds = %invoke.cont28
  call void @_ZNSt7__cxx1112basic_stringIcSt11char_traitsIcESaIcEED1Ev(ptr noundef nonnull align 8 dereferenceable(32) %ref.tmp23) #10
  call void @_ZNSaIcED1Ev(ptr noundef nonnull align 1 dereferenceable(1) %ref.tmp24) #10
  %call33 = call noundef ptr @_ZNKSt10unique_ptrIKN14grpc_generator6MethodESt14default_deleteIS2_EEptEv(ptr noundef nonnull align 8 dereferenceable(8) %method) #10
  %vtable34 = load ptr, ptr %call33, align 8
  %vfn35 = getelementptr inbounds ptr, ptr %vtable34, i64 12
  %13 = load ptr, ptr %vfn35, align 8
  invoke void %13(ptr sret(%"class.std::vector") align 8 %agg.tmp, ptr noundef nonnull align 8 dereferenceable(8) %call33)
          to label %invoke.cont36 unwind label %lpad14

invoke.cont36:                                    ; preds = %invoke.cont30
  invoke void @_ZNSt7__cxx1112basic_stringIcSt11char_traitsIcESaIcEEC1ERKS4_(ptr noundef nonnull align 8 dereferenceable(32) %agg.tmp37, ptr noundef nonnull align 8 dereferenceable(32) %output)
          to label %invoke.cont39 unwind label %lpad38

invoke.cont39:                                    ; preds = %invoke.cont36
  invoke void @_ZN17grpc_ts_generator12_GLOBAL__N_117GenerateNamespaceESt6vectorINSt7__cxx1112basic_stringIcSt11char_traitsIcESaIcEEESaIS7_EES7_b(ptr sret(%"class.std::__cxx11::basic_string") align 8 %ref.tmp32, ptr noundef %agg.tmp, ptr noundef %agg.tmp37, i1 noundef zeroext false)
          to label %invoke.cont41 unwind label %lpad40

invoke.cont41:                                    ; preds = %invoke.cont39
  call void @_ZNSaIcEC1Ev(ptr noundef nonnull align 1 dereferenceable(1) %ref.tmp43) #10
  invoke void @_ZNSt7__cxx1112basic_stringIcSt11char_traitsIcESaIcEEC2IS3_EEPKcRKS3_(ptr noundef nonnull align 8 dereferenceable(32) %ref.tmp42, ptr noundef @.str.23, ptr noundef nonnull align 1 dereferenceable(1) %ref.tmp43)
          to label %invoke.cont45 unwind label %lpad44

invoke.cont45:                                    ; preds = %invoke.cont41
  %call48 = invoke noundef nonnull align 8 dereferenceable(32) ptr @_ZNSt3mapINSt7__cxx1112basic_stringIcSt11char_traitsIcESaIcEEES5_St4lessIS5_ESaISt4pairIKS5_S5_EEEixEOS5_(ptr noundef nonnull align 8 dereferenceable(48) %vars, ptr noundef nonnull align 8 dereferenceable(32) %ref.tmp42)
          to label %invoke.cont47 unwind label %lpad46

invoke.cont47:                                    ; preds = %invoke.cont45
  %call49 = call noundef nonnull align 8 dereferenceable(32) ptr @_ZNSt7__cxx1112basic_stringIcSt11char_traitsIcESaIcEEaSEOS4_(ptr noundef nonnull align 8 dereferenceable(32) %call48, ptr noundef nonnull align 8 dereferenceable(32) %ref.tmp32) #10
  call void @_ZNSt7__cxx1112basic_stringIcSt11char_traitsIcESaIcEED1Ev(ptr noundef nonnull align 8 dereferenceable(32) %ref.tmp42) #10
  call void @_ZNSaIcED1Ev(ptr noundef nonnull align 1 dereferenceable(1) %ref.tmp43) #10
  call void @_ZNSt7__cxx1112basic_stringIcSt11char_traitsIcESaIcEED1Ev(ptr noundef nonnull align 8 dereferenceable(32) %ref.tmp32) #10
  call void @_ZNSt7__cxx1112basic_stringIcSt11char_traitsIcESaIcEED1Ev(ptr noundef nonnull align 8 dereferenceable(32) %agg.tmp37) #10
  call void @_ZNSt6vectorINSt7__cxx1112basic_stringIcSt11char_traitsIcESaIcEEESaIS5_EED2Ev(ptr noundef nonnull align 8 dereferenceable(24) %agg.tmp) #10
  %14 = load ptr, ptr %printer.addr, align 8
  invoke void @_ZN17grpc_ts_generator12_GLOBAL__N_123GenerateSerializeMethodEPN14grpc_generator7PrinterEPSt3mapINSt7__cxx1112basic_stringIcSt11char_traitsIcESaIcEEESA_St4lessISA_ESaISt4pairIKSA_SA_EEE(ptr noundef %14, ptr noundef %vars)
          to label %invoke.cont55 unwind label %lpad14

invoke.cont55:                                    ; preds = %invoke.cont47
  %15 = load ptr, ptr %printer.addr, align 8
  invoke void @_ZN17grpc_ts_generator12_GLOBAL__N_125GenerateDeserializeMethodEPN14grpc_generator7PrinterEPSt3mapINSt7__cxx1112basic_stringIcSt11char_traitsIcESaIcEEESA_St4lessISA_ESaISt4pairIKSA_SA_EEE(ptr noundef %15, ptr noundef %vars)
          to label %invoke.cont56 unwind label %lpad14

invoke.cont56:                                    ; preds = %invoke.cont55
  br label %if.end

lpad:                                             ; preds = %for.body, %for.cond
  %16 = landingpad { ptr, i32 }
          cleanup
  %17 = extractvalue { ptr, i32 } %16, 0
  store ptr %17, ptr %exn.slot, align 8
  %18 = extractvalue { ptr, i32 } %16, 1
  store i32 %18, ptr %ehselector.slot, align 4
  br label %ehcleanup113

lpad7:                                            ; preds = %invoke.cont3
  %19 = landingpad { ptr, i32 }
          cleanup
  %20 = extractvalue { ptr, i32 } %19, 0
  store ptr %20, ptr %exn.slot, align 8
  %21 = extractvalue { ptr, i32 } %19, 1
  store i32 %21, ptr %ehselector.slot, align 4
  br label %ehcleanup112

lpad12:                                           ; preds = %invoke.cont8
  %22 = landingpad { ptr, i32 }
          cleanup
  %23 = extractvalue { ptr, i32 } %22, 0
  store ptr %23, ptr %exn.slot, align 8
  %24 = extractvalue { ptr, i32 } %22, 1
  store i32 %24, ptr %ehselector.slot, align 4
  br label %ehcleanup111

lpad14:                                           ; preds = %invoke.cont107, %invoke.cont99, %invoke.cont79, %if.then68, %invoke.cont59, %if.end, %invoke.cont55, %invoke.cont47, %invoke.cont30, %if.then, %invoke.cont13
  %25 = landingpad { ptr, i32 }
          cleanup
  %26 = extractvalue { ptr, i32 } %25, 0
  store ptr %26, ptr %exn.slot, align 8
  %27 = extractvalue { ptr, i32 } %25, 1
  store i32 %27, ptr %ehselector.slot, align 4
  br label %ehcleanup110

lpad25:                                           ; preds = %invoke.cont21
  %28 = landingpad { ptr, i32 }
          cleanup
  %29 = extractvalue { ptr, i32 } %28, 0
  store ptr %29, ptr %exn.slot, align 8
  %30 = extractvalue { ptr, i32 } %28, 1
  store i32 %30, ptr %ehselector.slot, align 4
  br label %ehcleanup

lpad27:                                           ; preds = %invoke.cont28, %invoke.cont26
  %31 = landingpad { ptr, i32 }
          cleanup
  %32 = extractvalue { ptr, i32 } %31, 0
  store ptr %32, ptr %exn.slot, align 8
  %33 = extractvalue { ptr, i32 } %31, 1
  store i32 %33, ptr %ehselector.slot, align 4
  call void @_ZNSt7__cxx1112basic_stringIcSt11char_traitsIcESaIcEED1Ev(ptr noundef nonnull align 8 dereferenceable(32) %ref.tmp23) #10
  br label %ehcleanup

ehcleanup:                                        ; preds = %lpad27, %lpad25
  call void @_ZNSaIcED1Ev(ptr noundef nonnull align 1 dereferenceable(1) %ref.tmp24) #10
  br label %ehcleanup110

lpad38:                                           ; preds = %invoke.cont36
  %34 = landingpad { ptr, i32 }
          cleanup
  %35 = extractvalue { ptr, i32 } %34, 0
  store ptr %35, ptr %exn.slot, align 8
  %36 = extractvalue { ptr, i32 } %34, 1
  store i32 %36, ptr %ehselector.slot, align 4
  br label %ehcleanup54

lpad40:                                           ; preds = %invoke.cont39
  %37 = landingpad { ptr, i32 }
          cleanup
  %38 = extractvalue { ptr, i32 } %37, 0
  store ptr %38, ptr %exn.slot, align 8
  %39 = extractvalue { ptr, i32 } %37, 1
  store i32 %39, ptr %ehselector.slot, align 4
  br label %ehcleanup53

lpad44:                                           ; preds = %invoke.cont41
  %40 = landingpad { ptr, i32 }
          cleanup
  %41 = extractvalue { ptr, i32 } %40, 0
  store ptr %41, ptr %exn.slot, align 8
  %42 = extractvalue { ptr, i32 } %40, 1
  store i32 %42, ptr %ehselector.slot, align 4
  br label %ehcleanup51

lpad46:                                           ; preds = %invoke.cont45
  %43 = landingpad { ptr, i32 }
          cleanup
  %44 = extractvalue { ptr, i32 } %43, 0
  store ptr %44, ptr %exn.slot, align 8
  %45 = extractvalue { ptr, i32 } %43, 1
  store i32 %45, ptr %ehselector.slot, align 4
  call void @_ZNSt7__cxx1112basic_stringIcSt11char_traitsIcESaIcEED1Ev(ptr noundef nonnull align 8 dereferenceable(32) %ref.tmp42) #10
  br label %ehcleanup51

ehcleanup51:                                      ; preds = %lpad46, %lpad44
  call void @_ZNSaIcED1Ev(ptr noundef nonnull align 1 dereferenceable(1) %ref.tmp43) #10
  call void @_ZNSt7__cxx1112basic_stringIcSt11char_traitsIcESaIcEED1Ev(ptr noundef nonnull align 8 dereferenceable(32) %ref.tmp32) #10
  br label %ehcleanup53

ehcleanup53:                                      ; preds = %ehcleanup51, %lpad40
  call void @_ZNSt7__cxx1112basic_stringIcSt11char_traitsIcESaIcEED1Ev(ptr noundef nonnull align 8 dereferenceable(32) %agg.tmp37) #10
  br label %ehcleanup54

ehcleanup54:                                      ; preds = %ehcleanup53, %lpad38
  call void @_ZNSt6vectorINSt7__cxx1112basic_stringIcSt11char_traitsIcESaIcEEESaIS5_EED2Ev(ptr noundef nonnull align 8 dereferenceable(24) %agg.tmp) #10
  br label %ehcleanup110

if.end:                                           ; preds = %invoke.cont56, %invoke.cont15
  %46 = load ptr, ptr %printer.addr, align 8
  %vtable57 = load ptr, ptr %46, align 8
  %vfn58 = getelementptr inbounds ptr, ptr %vtable57, i64 3
  %47 = load ptr, ptr %vfn58, align 8
  invoke void %47(ptr noundef nonnull align 8 dereferenceable(8) %46, ptr noundef @.str.6)
          to label %invoke.cont59 unwind label %lpad14

invoke.cont59:                                    ; preds = %if.end
  %call62 = invoke ptr @_ZNSt3setINSt7__cxx1112basic_stringIcSt11char_traitsIcESaIcEEESt4lessIS5_ESaIS5_EE4findERKS5_(ptr noundef nonnull align 8 dereferenceable(48) %generated_functions, ptr noundef nonnull align 8 dereferenceable(32) %input)
          to label %invoke.cont61 unwind label %lpad14

invoke.cont61:                                    ; preds = %invoke.cont59
  %coerce.dive63 = getelementptr inbounds %"struct.std::_Rb_tree_const_iterator", ptr %ref.tmp60, i32 0, i32 0
  store ptr %call62, ptr %coerce.dive63, align 8
  %call65 = call ptr @_ZNKSt3setINSt7__cxx1112basic_stringIcSt11char_traitsIcESaIcEEESt4lessIS5_ESaIS5_EE3endEv(ptr noundef nonnull align 8 dereferenceable(48) %generated_functions) #10
  %coerce.dive66 = getelementptr inbounds %"struct.std::_Rb_tree_const_iterator", ptr %ref.tmp64, i32 0, i32 0
  store ptr %call65, ptr %coerce.dive66, align 8
  %call67 = call noundef zeroext i1 @_ZSteqRKSt23_Rb_tree_const_iteratorINSt7__cxx1112basic_stringIcSt11char_traitsIcESaIcEEEES8_(ptr noundef nonnull align 8 dereferenceable(8) %ref.tmp60, ptr noundef nonnull align 8 dereferenceable(8) %ref.tmp64) #10
  br i1 %call67, label %if.then68, label %if.end109

if.then68:                                        ; preds = %invoke.cont61
  %call70 = invoke { ptr, i8 } @_ZNSt3setINSt7__cxx1112basic_stringIcSt11char_traitsIcESaIcEEESt4lessIS5_ESaIS5_EE6insertERKS5_(ptr noundef nonnull align 8 dereferenceable(48) %generated_functions, ptr noundef nonnull align 8 dereferenceable(32) %input)
          to label %invoke.cont69 unwind label %lpad14

invoke.cont69:                                    ; preds = %if.then68
  %48 = getelementptr inbounds { ptr, i8 }, ptr %coerce71, i32 0, i32 0
  %49 = extractvalue { ptr, i8 } %call70, 0
  store ptr %49, ptr %48, align 8
  %50 = getelementptr inbounds { ptr, i8 }, ptr %coerce71, i32 0, i32 1
  %51 = extractvalue { ptr, i8 } %call70, 1
  store i8 %51, ptr %50, align 8
  call void @_ZNSaIcEC1Ev(ptr noundef nonnull align 1 dereferenceable(1) %ref.tmp73) #10
  invoke void @_ZNSt7__cxx1112basic_stringIcSt11char_traitsIcESaIcEEC2IS3_EEPKcRKS3_(ptr noundef nonnull align 8 dereferenceable(32) %ref.tmp72, ptr noundef @.str.22, ptr noundef nonnull align 1 dereferenceable(1) %ref.tmp73)
          to label %invoke.cont75 unwind label %lpad74

invoke.cont75:                                    ; preds = %invoke.cont69
  %call78 = invoke noundef nonnull align 8 dereferenceable(32) ptr @_ZNSt3mapINSt7__cxx1112basic_stringIcSt11char_traitsIcESaIcEEES5_St4lessIS5_ESaISt4pairIKS5_S5_EEEixEOS5_(ptr noundef nonnull align 8 dereferenceable(48) %vars, ptr noundef nonnull align 8 dereferenceable(32) %ref.tmp72)
          to label %invoke.cont77 unwind label %lpad76

invoke.cont77:                                    ; preds = %invoke.cont75
  %call80 = invoke noundef nonnull align 8 dereferenceable(32) ptr @_ZNSt7__cxx1112basic_stringIcSt11char_traitsIcESaIcEEaSERKS4_(ptr noundef nonnull align 8 dereferenceable(32) %call78, ptr noundef nonnull align 8 dereferenceable(32) %input)
          to label %invoke.cont79 unwind label %lpad76

invoke.cont79:                                    ; preds = %invoke.cont77
  call void @_ZNSt7__cxx1112basic_stringIcSt11char_traitsIcESaIcEED1Ev(ptr noundef nonnull align 8 dereferenceable(32) %ref.tmp72) #10
  call void @_ZNSaIcED1Ev(ptr noundef nonnull align 1 dereferenceable(1) %ref.tmp73) #10
  %call85 = call noundef ptr @_ZNKSt10unique_ptrIKN14grpc_generator6MethodESt14default_deleteIS2_EEptEv(ptr noundef nonnull align 8 dereferenceable(8) %method) #10
  %vtable86 = load ptr, ptr %call85, align 8
  %vfn87 = getelementptr inbounds ptr, ptr %vtable86, i64 10
  %52 = load ptr, ptr %vfn87, align 8
  invoke void %52(ptr sret(%"class.std::vector") align 8 %agg.tmp84, ptr noundef nonnull align 8 dereferenceable(8) %call85)
          to label %invoke.cont88 unwind label %lpad14

invoke.cont88:                                    ; preds = %invoke.cont79
  invoke void @_ZNSt7__cxx1112basic_stringIcSt11char_traitsIcESaIcEEC1ERKS4_(ptr noundef nonnull align 8 dereferenceable(32) %agg.tmp89, ptr noundef nonnull align 8 dereferenceable(32) %input)
          to label %invoke.cont91 unwind label %lpad90

invoke.cont91:                                    ; preds = %invoke.cont88
  invoke void @_ZN17grpc_ts_generator12_GLOBAL__N_117GenerateNamespaceESt6vectorINSt7__cxx1112basic_stringIcSt11char_traitsIcESaIcEEESaIS7_EES7_b(ptr sret(%"class.std::__cxx11::basic_string") align 8 %ref.tmp83, ptr noundef %agg.tmp84, ptr noundef %agg.tmp89, i1 noundef zeroext false)
          to label %invoke.cont93 unwind label %lpad92

invoke.cont93:                                    ; preds = %invoke.cont91
  call void @_ZNSaIcEC1Ev(ptr noundef nonnull align 1 dereferenceable(1) %ref.tmp95) #10
  invoke void @_ZNSt7__cxx1112basic_stringIcSt11char_traitsIcESaIcEEC2IS3_EEPKcRKS3_(ptr noundef nonnull align 8 dereferenceable(32) %ref.tmp94, ptr noundef @.str.23, ptr noundef nonnull align 1 dereferenceable(1) %ref.tmp95)
          to label %invoke.cont97 unwind label %lpad96

invoke.cont97:                                    ; preds = %invoke.cont93
  %call100 = invoke noundef nonnull align 8 dereferenceable(32) ptr @_ZNSt3mapINSt7__cxx1112basic_stringIcSt11char_traitsIcESaIcEEES5_St4lessIS5_ESaISt4pairIKS5_S5_EEEixEOS5_(ptr noundef nonnull align 8 dereferenceable(48) %vars, ptr noundef nonnull align 8 dereferenceable(32) %ref.tmp94)
          to label %invoke.cont99 unwind label %lpad98

invoke.cont99:                                    ; preds = %invoke.cont97
  %call101 = call noundef nonnull align 8 dereferenceable(32) ptr @_ZNSt7__cxx1112basic_stringIcSt11char_traitsIcESaIcEEaSEOS4_(ptr noundef nonnull align 8 dereferenceable(32) %call100, ptr noundef nonnull align 8 dereferenceable(32) %ref.tmp83) #10
  call void @_ZNSt7__cxx1112basic_stringIcSt11char_traitsIcESaIcEED1Ev(ptr noundef nonnull align 8 dereferenceable(32) %ref.tmp94) #10
  call void @_ZNSaIcED1Ev(ptr noundef nonnull align 1 dereferenceable(1) %ref.tmp95) #10
  call void @_ZNSt7__cxx1112basic_stringIcSt11char_traitsIcESaIcEED1Ev(ptr noundef nonnull align 8 dereferenceable(32) %ref.tmp83) #10
  call void @_ZNSt7__cxx1112basic_stringIcSt11char_traitsIcESaIcEED1Ev(ptr noundef nonnull align 8 dereferenceable(32) %agg.tmp89) #10
  call void @_ZNSt6vectorINSt7__cxx1112basic_stringIcSt11char_traitsIcESaIcEEESaIS5_EED2Ev(ptr noundef nonnull align 8 dereferenceable(24) %agg.tmp84) #10
  %53 = load ptr, ptr %printer.addr, align 8
  invoke void @_ZN17grpc_ts_generator12_GLOBAL__N_123GenerateSerializeMethodEPN14grpc_generator7PrinterEPSt3mapINSt7__cxx1112basic_stringIcSt11char_traitsIcESaIcEEESA_St4lessISA_ESaISt4pairIKSA_SA_EEE(ptr noundef %53, ptr noundef %vars)
          to label %invoke.cont107 unwind label %lpad14

invoke.cont107:                                   ; preds = %invoke.cont99
  %54 = load ptr, ptr %printer.addr, align 8
  invoke void @_ZN17grpc_ts_generator12_GLOBAL__N_125GenerateDeserializeMethodEPN14grpc_generator7PrinterEPSt3mapINSt7__cxx1112basic_stringIcSt11char_traitsIcESaIcEEESA_St4lessISA_ESaISt4pairIKSA_SA_EEE(ptr noundef %54, ptr noundef %vars)
          to label %invoke.cont108 unwind label %lpad14

invoke.cont108:                                   ; preds = %invoke.cont107
  br label %if.end109

lpad74:                                           ; preds = %invoke.cont69
  %55 = landingpad { ptr, i32 }
          cleanup
  %56 = extractvalue { ptr, i32 } %55, 0
  store ptr %56, ptr %exn.slot, align 8
  %57 = extractvalue { ptr, i32 } %55, 1
  store i32 %57, ptr %ehselector.slot, align 4
  br label %ehcleanup82

lpad76:                                           ; preds = %invoke.cont77, %invoke.cont75
  %58 = landingpad { ptr, i32 }
          cleanup
  %59 = extractvalue { ptr, i32 } %58, 0
  store ptr %59, ptr %exn.slot, align 8
  %60 = extractvalue { ptr, i32 } %58, 1
  store i32 %60, ptr %ehselector.slot, align 4
  call void @_ZNSt7__cxx1112basic_stringIcSt11char_traitsIcESaIcEED1Ev(ptr noundef nonnull align 8 dereferenceable(32) %ref.tmp72) #10
  br label %ehcleanup82

ehcleanup82:                                      ; preds = %lpad76, %lpad74
  call void @_ZNSaIcED1Ev(ptr noundef nonnull align 1 dereferenceable(1) %ref.tmp73) #10
  br label %ehcleanup110

lpad90:                                           ; preds = %invoke.cont88
  %61 = landingpad { ptr, i32 }
          cleanup
  %62 = extractvalue { ptr, i32 } %61, 0
  store ptr %62, ptr %exn.slot, align 8
  %63 = extractvalue { ptr, i32 } %61, 1
  store i32 %63, ptr %ehselector.slot, align 4
  br label %ehcleanup106

lpad92:                                           ; preds = %invoke.cont91
  %64 = landingpad { ptr, i32 }
          cleanup
  %65 = extractvalue { ptr, i32 } %64, 0
  store ptr %65, ptr %exn.slot, align 8
  %66 = extractvalue { ptr, i32 } %64, 1
  store i32 %66, ptr %ehselector.slot, align 4
  br label %ehcleanup105

lpad96:                                           ; preds = %invoke.cont93
  %67 = landingpad { ptr, i32 }
          cleanup
  %68 = extractvalue { ptr, i32 } %67, 0
  store ptr %68, ptr %exn.slot, align 8
  %69 = extractvalue { ptr, i32 } %67, 1
  store i32 %69, ptr %ehselector.slot, align 4
  br label %ehcleanup103

lpad98:                                           ; preds = %invoke.cont97
  %70 = landingpad { ptr, i32 }
          cleanup
  %71 = extractvalue { ptr, i32 } %70, 0
  store ptr %71, ptr %exn.slot, align 8
  %72 = extractvalue { ptr, i32 } %70, 1
  store i32 %72, ptr %ehselector.slot, align 4
  call void @_ZNSt7__cxx1112basic_stringIcSt11char_traitsIcESaIcEED1Ev(ptr noundef nonnull align 8 dereferenceable(32) %ref.tmp94) #10
  br label %ehcleanup103

ehcleanup103:                                     ; preds = %lpad98, %lpad96
  call void @_ZNSaIcED1Ev(ptr noundef nonnull align 1 dereferenceable(1) %ref.tmp95) #10
  call void @_ZNSt7__cxx1112basic_stringIcSt11char_traitsIcESaIcEED1Ev(ptr noundef nonnull align 8 dereferenceable(32) %ref.tmp83) #10
  br label %ehcleanup105

ehcleanup105:                                     ; preds = %ehcleanup103, %lpad92
  call void @_ZNSt7__cxx1112basic_stringIcSt11char_traitsIcESaIcEED1Ev(ptr noundef nonnull align 8 dereferenceable(32) %agg.tmp89) #10
  br label %ehcleanup106

ehcleanup106:                                     ; preds = %ehcleanup105, %lpad90
  call void @_ZNSt6vectorINSt7__cxx1112basic_stringIcSt11char_traitsIcESaIcEEESaIS5_EED2Ev(ptr noundef nonnull align 8 dereferenceable(24) %agg.tmp84) #10
  br label %ehcleanup110

if.end109:                                        ; preds = %invoke.cont108, %invoke.cont61
  call void @_ZNSt7__cxx1112basic_stringIcSt11char_traitsIcESaIcEED1Ev(ptr noundef nonnull align 8 dereferenceable(32) %input) #10
  call void @_ZNSt7__cxx1112basic_stringIcSt11char_traitsIcESaIcEED1Ev(ptr noundef nonnull align 8 dereferenceable(32) %output) #10
  call void @_ZNSt10unique_ptrIKN14grpc_generator6MethodESt14default_deleteIS2_EED2Ev(ptr noundef nonnull align 8 dereferenceable(8) %method) #10
  br label %for.inc

for.inc:                                          ; preds = %if.end109
  %73 = load i32, ptr %it, align 4
  %inc = add nsw i32 %73, 1
  store i32 %inc, ptr %it, align 4
  br label %for.cond, !llvm.loop !7

ehcleanup110:                                     ; preds = %ehcleanup106, %ehcleanup82, %ehcleanup54, %ehcleanup, %lpad14
  call void @_ZNSt7__cxx1112basic_stringIcSt11char_traitsIcESaIcEED1Ev(ptr noundef nonnull align 8 dereferenceable(32) %input) #10
  br label %ehcleanup111

ehcleanup111:                                     ; preds = %ehcleanup110, %lpad12
  call void @_ZNSt7__cxx1112basic_stringIcSt11char_traitsIcESaIcEED1Ev(ptr noundef nonnull align 8 dereferenceable(32) %output) #10
  br label %ehcleanup112

ehcleanup112:                                     ; preds = %ehcleanup111, %lpad7
  call void @_ZNSt10unique_ptrIKN14grpc_generator6MethodESt14default_deleteIS2_EED2Ev(ptr noundef nonnull align 8 dereferenceable(8) %method) #10
  br label %ehcleanup113

for.end:                                          ; preds = %invoke.cont
  call void @_ZNSt3setINSt7__cxx1112basic_stringIcSt11char_traitsIcESaIcEEESt4lessIS5_ESaIS5_EED2Ev(ptr noundef nonnull align 8 dereferenceable(48) %generated_functions) #10
  call void @_ZNSt3mapINSt7__cxx1112basic_stringIcSt11char_traitsIcESaIcEEES5_St4lessIS5_ESaISt4pairIKS5_S5_EEED2Ev(ptr noundef nonnull align 8 dereferenceable(48) %vars) #10
  ret void

ehcleanup113:                                     ; preds = %ehcleanup112, %lpad
  call void @_ZNSt3setINSt7__cxx1112basic_stringIcSt11char_traitsIcESaIcEEESt4lessIS5_ESaIS5_EED2Ev(ptr noundef nonnull align 8 dereferenceable(48) %generated_functions) #10
  call void @_ZNSt3mapINSt7__cxx1112basic_stringIcSt11char_traitsIcESaIcEEES5_St4lessIS5_ESaISt4pairIKS5_S5_EEED2Ev(ptr noundef nonnull align 8 dereferenceable(48) %vars) #10
  br label %eh.resume

eh.resume:                                        ; preds = %ehcleanup113
  %exn = load ptr, ptr %exn.slot, align 8
  %sel = load i32, ptr %ehselector.slot, align 4
  %lpad.val = insertvalue { ptr, i32 } poison, ptr %exn, 0
  %lpad.val115 = insertvalue { ptr, i32 } %lpad.val, i32 %sel, 1
  resume { ptr, i32 } %lpad.val115
}

; Function Attrs: mustprogress uwtable
define internal void @_ZN17grpc_ts_generator12_GLOBAL__N_115GenerateServiceEPKN14grpc_generator7ServiceEPNS1_7PrinterEPSt3mapINSt7__cxx1112basic_stringIcSt11char_traitsIcESaIcEEESD_St4lessISD_ESaISt4pairIKSD_SD_EEE(ptr noundef %service, ptr noundef %printer, ptr noundef %dictonary) #0 personality ptr @__gxx_personality_v0 {
entry:
  %service.addr = alloca ptr, align 8
  %printer.addr = alloca ptr, align 8
  %dictonary.addr = alloca ptr, align 8
  %vars = alloca %"class.std::map", align 8
  %ref.tmp = alloca %"class.std::__cxx11::basic_string", align 8
  %ref.tmp1 = alloca %"class.std::__cxx11::basic_string", align 8
  %exn.slot = alloca ptr, align 8
  %ehselector.slot = alloca i32, align 4
  %ref.tmp4 = alloca %"class.std::__cxx11::basic_string", align 8
  %ref.tmp5 = alloca %"class.std::allocator", align 1
  %it = alloca i32, align 4
  %method = alloca %"class.std::unique_ptr.9", align 8
  %ref.tmp26 = alloca %"class.std::__cxx11::basic_string", align 8
  %ref.tmp32 = alloca %"class.std::__cxx11::basic_string", align 8
  %ref.tmp33 = alloca %"class.std::allocator", align 1
  %ref.tmp43 = alloca %"class.std::__cxx11::basic_string", align 8
  %agg.tmp = alloca %"class.std::vector", align 8
  %agg.tmp48 = alloca %"class.std::__cxx11::basic_string", align 8
  %ref.tmp56 = alloca %"class.std::__cxx11::basic_string", align 8
  %ref.tmp57 = alloca %"class.std::allocator", align 1
  %ref.tmp69 = alloca %"class.std::__cxx11::basic_string", align 8
  %agg.tmp70 = alloca %"class.std::vector", align 8
  %agg.tmp75 = alloca %"class.std::__cxx11::basic_string", align 8
  %ref.tmp83 = alloca %"class.std::__cxx11::basic_string", align 8
  %ref.tmp84 = alloca %"class.std::allocator", align 1
  store ptr %service, ptr %service.addr, align 8
  store ptr %printer, ptr %printer.addr, align 8
  store ptr %dictonary, ptr %dictonary.addr, align 8
  %0 = load ptr, ptr %dictonary.addr, align 8
  call void @_ZNSt3mapINSt7__cxx1112basic_stringIcSt11char_traitsIcESaIcEEES5_St4lessIS5_ESaISt4pairIKS5_S5_EEEC2ERKSC_(ptr noundef nonnull align 8 dereferenceable(48) %vars, ptr noundef nonnull align 8 dereferenceable(48) %0)
  %1 = load ptr, ptr %service.addr, align 8
  %vtable = load ptr, ptr %1, align 8
  %vfn = getelementptr inbounds ptr, ptr %vtable, i64 6
  %2 = load ptr, ptr %vfn, align 8
  invoke void %2(ptr sret(%"class.std::__cxx11::basic_string") align 8 %ref.tmp1, ptr noundef nonnull align 8 dereferenceable(8) %1)
          to label %invoke.cont unwind label %lpad

invoke.cont:                                      ; preds = %entry
  invoke void @_ZStplIcSt11char_traitsIcESaIcEENSt7__cxx1112basic_stringIT_T0_T1_EEOS8_PKS5_(ptr sret(%"class.std::__cxx11::basic_string") align 8 %ref.tmp, ptr noundef nonnull align 8 dereferenceable(32) %ref.tmp1, ptr noundef @.str.32)
          to label %invoke.cont3 unwind label %lpad2

invoke.cont3:                                     ; preds = %invoke.cont
  call void @_ZNSaIcEC1Ev(ptr noundef nonnull align 1 dereferenceable(1) %ref.tmp5) #10
  invoke void @_ZNSt7__cxx1112basic_stringIcSt11char_traitsIcESaIcEEC2IS3_EEPKcRKS3_(ptr noundef nonnull align 8 dereferenceable(32) %ref.tmp4, ptr noundef @.str.33, ptr noundef nonnull align 1 dereferenceable(1) %ref.tmp5)
          to label %invoke.cont7 unwind label %lpad6

invoke.cont7:                                     ; preds = %invoke.cont3
  %call = invoke noundef nonnull align 8 dereferenceable(32) ptr @_ZNSt3mapINSt7__cxx1112basic_stringIcSt11char_traitsIcESaIcEEES5_St4lessIS5_ESaISt4pairIKS5_S5_EEEixEOS5_(ptr noundef nonnull align 8 dereferenceable(48) %vars, ptr noundef nonnull align 8 dereferenceable(32) %ref.tmp4)
          to label %invoke.cont9 unwind label %lpad8

invoke.cont9:                                     ; preds = %invoke.cont7
  %call10 = call noundef nonnull align 8 dereferenceable(32) ptr @_ZNSt7__cxx1112basic_stringIcSt11char_traitsIcESaIcEEaSEOS4_(ptr noundef nonnull align 8 dereferenceable(32) %call, ptr noundef nonnull align 8 dereferenceable(32) %ref.tmp) #10
  call void @_ZNSt7__cxx1112basic_stringIcSt11char_traitsIcESaIcEED1Ev(ptr noundef nonnull align 8 dereferenceable(32) %ref.tmp4) #10
  call void @_ZNSaIcED1Ev(ptr noundef nonnull align 1 dereferenceable(1) %ref.tmp5) #10
  call void @_ZNSt7__cxx1112basic_stringIcSt11char_traitsIcESaIcEED1Ev(ptr noundef nonnull align 8 dereferenceable(32) %ref.tmp) #10
  call void @_ZNSt7__cxx1112basic_stringIcSt11char_traitsIcESaIcEED1Ev(ptr noundef nonnull align 8 dereferenceable(32) %ref.tmp1) #10
  %3 = load ptr, ptr %printer.addr, align 8
  %vtable13 = load ptr, ptr %3, align 8
  %vfn14 = getelementptr inbounds ptr, ptr %vtable13, i64 2
  %4 = load ptr, ptr %vfn14, align 8
  invoke void %4(ptr noundef nonnull align 8 dereferenceable(8) %3, ptr noundef nonnull align 8 dereferenceable(48) %vars, ptr noundef @.str.34)
          to label %invoke.cont15 unwind label %lpad

invoke.cont15:                                    ; preds = %invoke.cont9
  %5 = load ptr, ptr %printer.addr, align 8
  %vtable16 = load ptr, ptr %5, align 8
  %vfn17 = getelementptr inbounds ptr, ptr %vtable16, i64 5
  %6 = load ptr, ptr %vfn17, align 8
  invoke void %6(ptr noundef nonnull align 8 dereferenceable(8) %5)
          to label %invoke.cont18 unwind label %lpad

invoke.cont18:                                    ; preds = %invoke.cont15
  store i32 0, ptr %it, align 4
  br label %for.cond

for.cond:                                         ; preds = %for.inc, %invoke.cont18
  %7 = load i32, ptr %it, align 4
  %8 = load ptr, ptr %service.addr, align 8
  %vtable19 = load ptr, ptr %8, align 8
  %vfn20 = getelementptr inbounds ptr, ptr %vtable19, i64 8
  %9 = load ptr, ptr %vfn20, align 8
  %call22 = invoke noundef i32 %9(ptr noundef nonnull align 8 dereferenceable(8) %8)
          to label %invoke.cont21 unwind label %lpad

invoke.cont21:                                    ; preds = %for.cond
  %cmp = icmp slt i32 %7, %call22
  br i1 %cmp, label %for.body, label %for.end

for.body:                                         ; preds = %invoke.cont21
  %10 = load ptr, ptr %service.addr, align 8
  %11 = load i32, ptr %it, align 4
  %vtable23 = load ptr, ptr %10, align 8
  %vfn24 = getelementptr inbounds ptr, ptr %vtable23, i64 9
  %12 = load ptr, ptr %vfn24, align 8
  invoke void %12(ptr sret(%"class.std::unique_ptr.9") align 8 %method, ptr noundef nonnull align 8 dereferenceable(8) %10, i32 noundef %11)
          to label %invoke.cont25 unwind label %lpad

invoke.cont25:                                    ; preds = %for.body
  %call27 = call noundef ptr @_ZNKSt10unique_ptrIKN14grpc_generator6MethodESt14default_deleteIS2_EEptEv(ptr noundef nonnull align 8 dereferenceable(8) %method) #10
  %vtable28 = load ptr, ptr %call27, align 8
  %vfn29 = getelementptr inbounds ptr, ptr %vtable28, i64 5
  %13 = load ptr, ptr %vfn29, align 8
  invoke void %13(ptr sret(%"class.std::__cxx11::basic_string") align 8 %ref.tmp26, ptr noundef nonnull align 8 dereferenceable(8) %call27)
          to label %invoke.cont31 unwind label %lpad30

invoke.cont31:                                    ; preds = %invoke.cont25
  call void @_ZNSaIcEC1Ev(ptr noundef nonnull align 1 dereferenceable(1) %ref.tmp33) #10
  invoke void @_ZNSt7__cxx1112basic_stringIcSt11char_traitsIcESaIcEEC2IS3_EEPKcRKS3_(ptr noundef nonnull align 8 dereferenceable(32) %ref.tmp32, ptr noundef @.str.35, ptr noundef nonnull align 1 dereferenceable(1) %ref.tmp33)
          to label %invoke.cont35 unwind label %lpad34

invoke.cont35:                                    ; preds = %invoke.cont31
  %call38 = invoke noundef nonnull align 8 dereferenceable(32) ptr @_ZNSt3mapINSt7__cxx1112basic_stringIcSt11char_traitsIcESaIcEEES5_St4lessIS5_ESaISt4pairIKS5_S5_EEEixEOS5_(ptr noundef nonnull align 8 dereferenceable(48) %vars, ptr noundef nonnull align 8 dereferenceable(32) %ref.tmp32)
          to label %invoke.cont37 unwind label %lpad36

invoke.cont37:                                    ; preds = %invoke.cont35
  %call39 = call noundef nonnull align 8 dereferenceable(32) ptr @_ZNSt7__cxx1112basic_stringIcSt11char_traitsIcESaIcEEaSEOS4_(ptr noundef nonnull align 8 dereferenceable(32) %call38, ptr noundef nonnull align 8 dereferenceable(32) %ref.tmp26) #10
  call void @_ZNSt7__cxx1112basic_stringIcSt11char_traitsIcESaIcEED1Ev(ptr noundef nonnull align 8 dereferenceable(32) %ref.tmp32) #10
  call void @_ZNSaIcED1Ev(ptr noundef nonnull align 1 dereferenceable(1) %ref.tmp33) #10
  call void @_ZNSt7__cxx1112basic_stringIcSt11char_traitsIcESaIcEED1Ev(ptr noundef nonnull align 8 dereferenceable(32) %ref.tmp26) #10
  %call44 = call noundef ptr @_ZNKSt10unique_ptrIKN14grpc_generator6MethodESt14default_deleteIS2_EEptEv(ptr noundef nonnull align 8 dereferenceable(8) %method) #10
  %vtable45 = load ptr, ptr %call44, align 8
  %vfn46 = getelementptr inbounds ptr, ptr %vtable45, i64 12
  %14 = load ptr, ptr %vfn46, align 8
  invoke void %14(ptr sret(%"class.std::vector") align 8 %agg.tmp, ptr noundef nonnull align 8 dereferenceable(8) %call44)
          to label %invoke.cont47 unwind label %lpad30

invoke.cont47:                                    ; preds = %invoke.cont37
  %call49 = call noundef ptr @_ZNKSt10unique_ptrIKN14grpc_generator6MethodESt14default_deleteIS2_EEptEv(ptr noundef nonnull align 8 dereferenceable(8) %method) #10
  %vtable50 = load ptr, ptr %call49, align 8
  %vfn51 = getelementptr inbounds ptr, ptr %vtable50, i64 13
  %15 = load ptr, ptr %vfn51, align 8
  invoke void %15(ptr sret(%"class.std::__cxx11::basic_string") align 8 %agg.tmp48, ptr noundef nonnull align 8 dereferenceable(8) %call49)
          to label %invoke.cont53 unwind label %lpad52

invoke.cont53:                                    ; preds = %invoke.cont47
  invoke void @_ZN17grpc_ts_generator12_GLOBAL__N_117GenerateNamespaceESt6vectorINSt7__cxx1112basic_stringIcSt11char_traitsIcESaIcEEESaIS7_EES7_b(ptr sret(%"class.std::__cxx11::basic_string") align 8 %ref.tmp43, ptr noundef %agg.tmp, ptr noundef %agg.tmp48, i1 noundef zeroext false)
          to label %invoke.cont55 unwind label %lpad54

invoke.cont55:                                    ; preds = %invoke.cont53
  call void @_ZNSaIcEC1Ev(ptr noundef nonnull align 1 dereferenceable(1) %ref.tmp57) #10
  invoke void @_ZNSt7__cxx1112basic_stringIcSt11char_traitsIcESaIcEEC2IS3_EEPKcRKS3_(ptr noundef nonnull align 8 dereferenceable(32) %ref.tmp56, ptr noundef @.str.9, ptr noundef nonnull align 1 dereferenceable(1) %ref.tmp57)
          to label %invoke.cont59 unwind label %lpad58

invoke.cont59:                                    ; preds = %invoke.cont55
  %call62 = invoke noundef nonnull align 8 dereferenceable(32) ptr @_ZNSt3mapINSt7__cxx1112basic_stringIcSt11char_traitsIcESaIcEEES5_St4lessIS5_ESaISt4pairIKS5_S5_EEEixEOS5_(ptr noundef nonnull align 8 dereferenceable(48) %vars, ptr noundef nonnull align 8 dereferenceable(32) %ref.tmp56)
          to label %invoke.cont61 unwind label %lpad60

invoke.cont61:                                    ; preds = %invoke.cont59
  %call63 = call noundef nonnull align 8 dereferenceable(32) ptr @_ZNSt7__cxx1112basic_stringIcSt11char_traitsIcESaIcEEaSEOS4_(ptr noundef nonnull align 8 dereferenceable(32) %call62, ptr noundef nonnull align 8 dereferenceable(32) %ref.tmp43) #10
  call void @_ZNSt7__cxx1112basic_stringIcSt11char_traitsIcESaIcEED1Ev(ptr noundef nonnull align 8 dereferenceable(32) %ref.tmp56) #10
  call void @_ZNSaIcED1Ev(ptr noundef nonnull align 1 dereferenceable(1) %ref.tmp57) #10
  call void @_ZNSt7__cxx1112basic_stringIcSt11char_traitsIcESaIcEED1Ev(ptr noundef nonnull align 8 dereferenceable(32) %ref.tmp43) #10
  call void @_ZNSt7__cxx1112basic_stringIcSt11char_traitsIcESaIcEED1Ev(ptr noundef nonnull align 8 dereferenceable(32) %agg.tmp48) #10
  call void @_ZNSt6vectorINSt7__cxx1112basic_stringIcSt11char_traitsIcESaIcEEESaIS5_EED2Ev(ptr noundef nonnull align 8 dereferenceable(24) %agg.tmp) #10
  %call71 = call noundef ptr @_ZNKSt10unique_ptrIKN14grpc_generator6MethodESt14default_deleteIS2_EEptEv(ptr noundef nonnull align 8 dereferenceable(8) %method) #10
  %vtable72 = load ptr, ptr %call71, align 8
  %vfn73 = getelementptr inbounds ptr, ptr %vtable72, i64 10
  %16 = load ptr, ptr %vfn73, align 8
  invoke void %16(ptr sret(%"class.std::vector") align 8 %agg.tmp70, ptr noundef nonnull align 8 dereferenceable(8) %call71)
          to label %invoke.cont74 unwind label %lpad30

invoke.cont74:                                    ; preds = %invoke.cont61
  %call76 = call noundef ptr @_ZNKSt10unique_ptrIKN14grpc_generator6MethodESt14default_deleteIS2_EEptEv(ptr noundef nonnull align 8 dereferenceable(8) %method) #10
  %vtable77 = load ptr, ptr %call76, align 8
  %vfn78 = getelementptr inbounds ptr, ptr %vtable77, i64 11
  %17 = load ptr, ptr %vfn78, align 8
  invoke void %17(ptr sret(%"class.std::__cxx11::basic_string") align 8 %agg.tmp75, ptr noundef nonnull align 8 dereferenceable(8) %call76)
          to label %invoke.cont80 unwind label %lpad79

invoke.cont80:                                    ; preds = %invoke.cont74
  invoke void @_ZN17grpc_ts_generator12_GLOBAL__N_117GenerateNamespaceESt6vectorINSt7__cxx1112basic_stringIcSt11char_traitsIcESaIcEEESaIS7_EES7_b(ptr sret(%"class.std::__cxx11::basic_string") align 8 %ref.tmp69, ptr noundef %agg.tmp70, ptr noundef %agg.tmp75, i1 noundef zeroext false)
          to label %invoke.cont82 unwind label %lpad81

invoke.cont82:                                    ; preds = %invoke.cont80
  call void @_ZNSaIcEC1Ev(ptr noundef nonnull align 1 dereferenceable(1) %ref.tmp84) #10
  invoke void @_ZNSt7__cxx1112basic_stringIcSt11char_traitsIcESaIcEEC2IS3_EEPKcRKS3_(ptr noundef nonnull align 8 dereferenceable(32) %ref.tmp83, ptr noundef @.str.10, ptr noundef nonnull align 1 dereferenceable(1) %ref.tmp84)
          to label %invoke.cont86 unwind label %lpad85

invoke.cont86:                                    ; preds = %invoke.cont82
  %call89 = invoke noundef nonnull align 8 dereferenceable(32) ptr @_ZNSt3mapINSt7__cxx1112basic_stringIcSt11char_traitsIcESaIcEEES5_St4lessIS5_ESaISt4pairIKS5_S5_EEEixEOS5_(ptr noundef nonnull align 8 dereferenceable(48) %vars, ptr noundef nonnull align 8 dereferenceable(32) %ref.tmp83)
          to label %invoke.cont88 unwind label %lpad87

invoke.cont88:                                    ; preds = %invoke.cont86
  %call90 = call noundef nonnull align 8 dereferenceable(32) ptr @_ZNSt7__cxx1112basic_stringIcSt11char_traitsIcESaIcEEaSEOS4_(ptr noundef nonnull align 8 dereferenceable(32) %call89, ptr noundef nonnull align 8 dereferenceable(32) %ref.tmp69) #10
  call void @_ZNSt7__cxx1112basic_stringIcSt11char_traitsIcESaIcEED1Ev(ptr noundef nonnull align 8 dereferenceable(32) %ref.tmp83) #10
  call void @_ZNSaIcED1Ev(ptr noundef nonnull align 1 dereferenceable(1) %ref.tmp84) #10
  call void @_ZNSt7__cxx1112basic_stringIcSt11char_traitsIcESaIcEED1Ev(ptr noundef nonnull align 8 dereferenceable(32) %ref.tmp69) #10
  call void @_ZNSt7__cxx1112basic_stringIcSt11char_traitsIcESaIcEED1Ev(ptr noundef nonnull align 8 dereferenceable(32) %agg.tmp75) #10
  call void @_ZNSt6vectorINSt7__cxx1112basic_stringIcSt11char_traitsIcESaIcEEESaIS5_EED2Ev(ptr noundef nonnull align 8 dereferenceable(24) %agg.tmp70) #10
  %18 = load ptr, ptr %printer.addr, align 8
  %vtable96 = load ptr, ptr %18, align 8
  %vfn97 = getelementptr inbounds ptr, ptr %vtable96, i64 2
  %19 = load ptr, ptr %vfn97, align 8
  invoke void %19(ptr noundef nonnull align 8 dereferenceable(8) %18, ptr noundef nonnull align 8 dereferenceable(48) %vars, ptr noundef @.str.36)
          to label %invoke.cont98 unwind label %lpad30

invoke.cont98:                                    ; preds = %invoke.cont88
  %20 = load ptr, ptr %printer.addr, align 8
  %vtable99 = load ptr, ptr %20, align 8
  %vfn100 = getelementptr inbounds ptr, ptr %vtable99, i64 5
  %21 = load ptr, ptr %vfn100, align 8
  invoke void %21(ptr noundef nonnull align 8 dereferenceable(8) %20)
          to label %invoke.cont101 unwind label %lpad30

invoke.cont101:                                   ; preds = %invoke.cont98
  %22 = load ptr, ptr %printer.addr, align 8
  %vtable102 = load ptr, ptr %22, align 8
  %vfn103 = getelementptr inbounds ptr, ptr %vtable102, i64 2
  %23 = load ptr, ptr %vfn103, align 8
  invoke void %23(ptr noundef nonnull align 8 dereferenceable(8) %22, ptr noundef nonnull align 8 dereferenceable(48) %vars, ptr noundef @.str.37)
          to label %invoke.cont104 unwind label %lpad30

invoke.cont104:                                   ; preds = %invoke.cont101
  %24 = load ptr, ptr %printer.addr, align 8
  %call105 = call noundef nonnull align 8 dereferenceable(8) ptr @_ZNKSt10unique_ptrIKN14grpc_generator6MethodESt14default_deleteIS2_EEdeEv(ptr noundef nonnull align 8 dereferenceable(8) %method) #10
  invoke void @_ZN17grpc_ts_generator12_GLOBAL__N_113GetStreamTypeEPN14grpc_generator7PrinterEPKNS1_6MethodEPSt3mapINSt7__cxx1112basic_stringIcSt11char_traitsIcESaIcEEESD_St4lessISD_ESaISt4pairIKSD_SD_EEE(ptr noundef %24, ptr noundef %call105, ptr noundef %vars)
          to label %invoke.cont106 unwind label %lpad30

invoke.cont106:                                   ; preds = %invoke.cont104
  %25 = load ptr, ptr %printer.addr, align 8
  %vtable107 = load ptr, ptr %25, align 8
  %vfn108 = getelementptr inbounds ptr, ptr %vtable107, i64 2
  %26 = load ptr, ptr %vfn108, align 8
  invoke void %26(ptr noundef nonnull align 8 dereferenceable(8) %25, ptr noundef nonnull align 8 dereferenceable(48) %vars, ptr noundef @.str.38)
          to label %invoke.cont109 unwind label %lpad30

invoke.cont109:                                   ; preds = %invoke.cont106
  %27 = load ptr, ptr %printer.addr, align 8
  %vtable110 = load ptr, ptr %27, align 8
  %vfn111 = getelementptr inbounds ptr, ptr %vtable110, i64 2
  %28 = load ptr, ptr %vfn111, align 8
  invoke void %28(ptr noundef nonnull align 8 dereferenceable(8) %27, ptr noundef nonnull align 8 dereferenceable(48) %vars, ptr noundef @.str.39)
          to label %invoke.cont112 unwind label %lpad30

invoke.cont112:                                   ; preds = %invoke.cont109
  %29 = load ptr, ptr %printer.addr, align 8
  %vtable113 = load ptr, ptr %29, align 8
  %vfn114 = getelementptr inbounds ptr, ptr %vtable113, i64 2
  %30 = load ptr, ptr %vfn114, align 8
  invoke void %30(ptr noundef nonnull align 8 dereferenceable(8) %29, ptr noundef nonnull align 8 dereferenceable(48) %vars, ptr noundef @.str.40)
          to label %invoke.cont115 unwind label %lpad30

invoke.cont115:                                   ; preds = %invoke.cont112
  %31 = load ptr, ptr %printer.addr, align 8
  %vtable116 = load ptr, ptr %31, align 8
  %vfn117 = getelementptr inbounds ptr, ptr %vtable116, i64 2
  %32 = load ptr, ptr %vfn117, align 8
  invoke void %32(ptr noundef nonnull align 8 dereferenceable(8) %31, ptr noundef nonnull align 8 dereferenceable(48) %vars, ptr noundef @.str.41)
          to label %invoke.cont118 unwind label %lpad30

invoke.cont118:                                   ; preds = %invoke.cont115
  %33 = load ptr, ptr %printer.addr, align 8
  %vtable119 = load ptr, ptr %33, align 8
  %vfn120 = getelementptr inbounds ptr, ptr %vtable119, i64 2
  %34 = load ptr, ptr %vfn120, align 8
  invoke void %34(ptr noundef nonnull align 8 dereferenceable(8) %33, ptr noundef nonnull align 8 dereferenceable(48) %vars, ptr noundef @.str.42)
          to label %invoke.cont121 unwind label %lpad30

invoke.cont121:                                   ; preds = %invoke.cont118
  %35 = load ptr, ptr %printer.addr, align 8
  %vtable122 = load ptr, ptr %35, align 8
  %vfn123 = getelementptr inbounds ptr, ptr %vtable122, i64 2
  %36 = load ptr, ptr %vfn123, align 8
  invoke void %36(ptr noundef nonnull align 8 dereferenceable(8) %35, ptr noundef nonnull align 8 dereferenceable(48) %vars, ptr noundef @.str.43)
          to label %invoke.cont124 unwind label %lpad30

invoke.cont124:                                   ; preds = %invoke.cont121
  %37 = load ptr, ptr %printer.addr, align 8
  %vtable125 = load ptr, ptr %37, align 8
  %vfn126 = getelementptr inbounds ptr, ptr %vtable125, i64 6
  %38 = load ptr, ptr %vfn126, align 8
  invoke void %38(ptr noundef nonnull align 8 dereferenceable(8) %37)
          to label %invoke.cont127 unwind label %lpad30

invoke.cont127:                                   ; preds = %invoke.cont124
  %39 = load ptr, ptr %printer.addr, align 8
  %vtable128 = load ptr, ptr %39, align 8
  %vfn129 = getelementptr inbounds ptr, ptr %vtable128, i64 3
  %40 = load ptr, ptr %vfn129, align 8
  invoke void %40(ptr noundef nonnull align 8 dereferenceable(8) %39, ptr noundef @.str.44)
          to label %invoke.cont130 unwind label %lpad30

invoke.cont130:                                   ; preds = %invoke.cont127
  call void @_ZNSt10unique_ptrIKN14grpc_generator6MethodESt14default_deleteIS2_EED2Ev(ptr noundef nonnull align 8 dereferenceable(8) %method) #10
  br label %for.inc

for.inc:                                          ; preds = %invoke.cont130
  %41 = load i32, ptr %it, align 4
  %inc = add nsw i32 %41, 1
  store i32 %inc, ptr %it, align 4
  br label %for.cond, !llvm.loop !8

lpad:                                             ; preds = %invoke.cont137, %invoke.cont134, %for.end, %for.body, %for.cond, %invoke.cont15, %invoke.cont9, %entry
  %42 = landingpad { ptr, i32 }
          cleanup
  %43 = extractvalue { ptr, i32 } %42, 0
  store ptr %43, ptr %exn.slot, align 8
  %44 = extractvalue { ptr, i32 } %42, 1
  store i32 %44, ptr %ehselector.slot, align 4
  br label %ehcleanup141

lpad2:                                            ; preds = %invoke.cont
  %45 = landingpad { ptr, i32 }
          cleanup
  %46 = extractvalue { ptr, i32 } %45, 0
  store ptr %46, ptr %exn.slot, align 8
  %47 = extractvalue { ptr, i32 } %45, 1
  store i32 %47, ptr %ehselector.slot, align 4
  br label %ehcleanup12

lpad6:                                            ; preds = %invoke.cont3
  %48 = landingpad { ptr, i32 }
          cleanup
  %49 = extractvalue { ptr, i32 } %48, 0
  store ptr %49, ptr %exn.slot, align 8
  %50 = extractvalue { ptr, i32 } %48, 1
  store i32 %50, ptr %ehselector.slot, align 4
  br label %ehcleanup

lpad8:                                            ; preds = %invoke.cont7
  %51 = landingpad { ptr, i32 }
          cleanup
  %52 = extractvalue { ptr, i32 } %51, 0
  store ptr %52, ptr %exn.slot, align 8
  %53 = extractvalue { ptr, i32 } %51, 1
  store i32 %53, ptr %ehselector.slot, align 4
  call void @_ZNSt7__cxx1112basic_stringIcSt11char_traitsIcESaIcEED1Ev(ptr noundef nonnull align 8 dereferenceable(32) %ref.tmp4) #10
  br label %ehcleanup

ehcleanup:                                        ; preds = %lpad8, %lpad6
  call void @_ZNSaIcED1Ev(ptr noundef nonnull align 1 dereferenceable(1) %ref.tmp5) #10
  call void @_ZNSt7__cxx1112basic_stringIcSt11char_traitsIcESaIcEED1Ev(ptr noundef nonnull align 8 dereferenceable(32) %ref.tmp) #10
  br label %ehcleanup12

ehcleanup12:                                      ; preds = %ehcleanup, %lpad2
  call void @_ZNSt7__cxx1112basic_stringIcSt11char_traitsIcESaIcEED1Ev(ptr noundef nonnull align 8 dereferenceable(32) %ref.tmp1) #10
  br label %ehcleanup141

lpad30:                                           ; preds = %invoke.cont127, %invoke.cont124, %invoke.cont121, %invoke.cont118, %invoke.cont115, %invoke.cont112, %invoke.cont109, %invoke.cont106, %invoke.cont104, %invoke.cont101, %invoke.cont98, %invoke.cont88, %invoke.cont61, %invoke.cont37, %invoke.cont25
  %54 = landingpad { ptr, i32 }
          cleanup
  %55 = extractvalue { ptr, i32 } %54, 0
  store ptr %55, ptr %exn.slot, align 8
  %56 = extractvalue { ptr, i32 } %54, 1
  store i32 %56, ptr %ehselector.slot, align 4
  br label %ehcleanup131

lpad34:                                           ; preds = %invoke.cont31
  %57 = landingpad { ptr, i32 }
          cleanup
  %58 = extractvalue { ptr, i32 } %57, 0
  store ptr %58, ptr %exn.slot, align 8
  %59 = extractvalue { ptr, i32 } %57, 1
  store i32 %59, ptr %ehselector.slot, align 4
  br label %ehcleanup41

lpad36:                                           ; preds = %invoke.cont35
  %60 = landingpad { ptr, i32 }
          cleanup
  %61 = extractvalue { ptr, i32 } %60, 0
  store ptr %61, ptr %exn.slot, align 8
  %62 = extractvalue { ptr, i32 } %60, 1
  store i32 %62, ptr %ehselector.slot, align 4
  call void @_ZNSt7__cxx1112basic_stringIcSt11char_traitsIcESaIcEED1Ev(ptr noundef nonnull align 8 dereferenceable(32) %ref.tmp32) #10
  br label %ehcleanup41

ehcleanup41:                                      ; preds = %lpad36, %lpad34
  call void @_ZNSaIcED1Ev(ptr noundef nonnull align 1 dereferenceable(1) %ref.tmp33) #10
  call void @_ZNSt7__cxx1112basic_stringIcSt11char_traitsIcESaIcEED1Ev(ptr noundef nonnull align 8 dereferenceable(32) %ref.tmp26) #10
  br label %ehcleanup131

lpad52:                                           ; preds = %invoke.cont47
  %63 = landingpad { ptr, i32 }
          cleanup
  %64 = extractvalue { ptr, i32 } %63, 0
  store ptr %64, ptr %exn.slot, align 8
  %65 = extractvalue { ptr, i32 } %63, 1
  store i32 %65, ptr %ehselector.slot, align 4
  br label %ehcleanup68

lpad54:                                           ; preds = %invoke.cont53
  %66 = landingpad { ptr, i32 }
          cleanup
  %67 = extractvalue { ptr, i32 } %66, 0
  store ptr %67, ptr %exn.slot, align 8
  %68 = extractvalue { ptr, i32 } %66, 1
  store i32 %68, ptr %ehselector.slot, align 4
  br label %ehcleanup67

lpad58:                                           ; preds = %invoke.cont55
  %69 = landingpad { ptr, i32 }
          cleanup
  %70 = extractvalue { ptr, i32 } %69, 0
  store ptr %70, ptr %exn.slot, align 8
  %71 = extractvalue { ptr, i32 } %69, 1
  store i32 %71, ptr %ehselector.slot, align 4
  br label %ehcleanup65

lpad60:                                           ; preds = %invoke.cont59
  %72 = landingpad { ptr, i32 }
          cleanup
  %73 = extractvalue { ptr, i32 } %72, 0
  store ptr %73, ptr %exn.slot, align 8
  %74 = extractvalue { ptr, i32 } %72, 1
  store i32 %74, ptr %ehselector.slot, align 4
  call void @_ZNSt7__cxx1112basic_stringIcSt11char_traitsIcESaIcEED1Ev(ptr noundef nonnull align 8 dereferenceable(32) %ref.tmp56) #10
  br label %ehcleanup65

ehcleanup65:                                      ; preds = %lpad60, %lpad58
  call void @_ZNSaIcED1Ev(ptr noundef nonnull align 1 dereferenceable(1) %ref.tmp57) #10
  call void @_ZNSt7__cxx1112basic_stringIcSt11char_traitsIcESaIcEED1Ev(ptr noundef nonnull align 8 dereferenceable(32) %ref.tmp43) #10
  br label %ehcleanup67

ehcleanup67:                                      ; preds = %ehcleanup65, %lpad54
  call void @_ZNSt7__cxx1112basic_stringIcSt11char_traitsIcESaIcEED1Ev(ptr noundef nonnull align 8 dereferenceable(32) %agg.tmp48) #10
  br label %ehcleanup68

ehcleanup68:                                      ; preds = %ehcleanup67, %lpad52
  call void @_ZNSt6vectorINSt7__cxx1112basic_stringIcSt11char_traitsIcESaIcEEESaIS5_EED2Ev(ptr noundef nonnull align 8 dereferenceable(24) %agg.tmp) #10
  br label %ehcleanup131

lpad79:                                           ; preds = %invoke.cont74
  %75 = landingpad { ptr, i32 }
          cleanup
  %76 = extractvalue { ptr, i32 } %75, 0
  store ptr %76, ptr %exn.slot, align 8
  %77 = extractvalue { ptr, i32 } %75, 1
  store i32 %77, ptr %ehselector.slot, align 4
  br label %ehcleanup95

lpad81:                                           ; preds = %invoke.cont80
  %78 = landingpad { ptr, i32 }
          cleanup
  %79 = extractvalue { ptr, i32 } %78, 0
  store ptr %79, ptr %exn.slot, align 8
  %80 = extractvalue { ptr, i32 } %78, 1
  store i32 %80, ptr %ehselector.slot, align 4
  br label %ehcleanup94

lpad85:                                           ; preds = %invoke.cont82
  %81 = landingpad { ptr, i32 }
          cleanup
  %82 = extractvalue { ptr, i32 } %81, 0
  store ptr %82, ptr %exn.slot, align 8
  %83 = extractvalue { ptr, i32 } %81, 1
  store i32 %83, ptr %ehselector.slot, align 4
  br label %ehcleanup92

lpad87:                                           ; preds = %invoke.cont86
  %84 = landingpad { ptr, i32 }
          cleanup
  %85 = extractvalue { ptr, i32 } %84, 0
  store ptr %85, ptr %exn.slot, align 8
  %86 = extractvalue { ptr, i32 } %84, 1
  store i32 %86, ptr %ehselector.slot, align 4
  call void @_ZNSt7__cxx1112basic_stringIcSt11char_traitsIcESaIcEED1Ev(ptr noundef nonnull align 8 dereferenceable(32) %ref.tmp83) #10
  br label %ehcleanup92

ehcleanup92:                                      ; preds = %lpad87, %lpad85
  call void @_ZNSaIcED1Ev(ptr noundef nonnull align 1 dereferenceable(1) %ref.tmp84) #10
  call void @_ZNSt7__cxx1112basic_stringIcSt11char_traitsIcESaIcEED1Ev(ptr noundef nonnull align 8 dereferenceable(32) %ref.tmp69) #10
  br label %ehcleanup94

ehcleanup94:                                      ; preds = %ehcleanup92, %lpad81
  call void @_ZNSt7__cxx1112basic_stringIcSt11char_traitsIcESaIcEED1Ev(ptr noundef nonnull align 8 dereferenceable(32) %agg.tmp75) #10
  br label %ehcleanup95

ehcleanup95:                                      ; preds = %ehcleanup94, %lpad79
  call void @_ZNSt6vectorINSt7__cxx1112basic_stringIcSt11char_traitsIcESaIcEEESaIS5_EED2Ev(ptr noundef nonnull align 8 dereferenceable(24) %agg.tmp70) #10
  br label %ehcleanup131

ehcleanup131:                                     ; preds = %ehcleanup95, %ehcleanup68, %ehcleanup41, %lpad30
  call void @_ZNSt10unique_ptrIKN14grpc_generator6MethodESt14default_deleteIS2_EED2Ev(ptr noundef nonnull align 8 dereferenceable(8) %method) #10
  br label %ehcleanup141

for.end:                                          ; preds = %invoke.cont21
  %87 = load ptr, ptr %printer.addr, align 8
  %vtable132 = load ptr, ptr %87, align 8
  %vfn133 = getelementptr inbounds ptr, ptr %vtable132, i64 6
  %88 = load ptr, ptr %vfn133, align 8
  invoke void %88(ptr noundef nonnull align 8 dereferenceable(8) %87)
          to label %invoke.cont134 unwind label %lpad

invoke.cont134:                                   ; preds = %for.end
  %89 = load ptr, ptr %printer.addr, align 8
  %vtable135 = load ptr, ptr %89, align 8
  %vfn136 = getelementptr inbounds ptr, ptr %vtable135, i64 3
  %90 = load ptr, ptr %vfn136, align 8
  invoke void %90(ptr noundef nonnull align 8 dereferenceable(8) %89, ptr noundef @.str.45)
          to label %invoke.cont137 unwind label %lpad

invoke.cont137:                                   ; preds = %invoke.cont134
  %91 = load ptr, ptr %printer.addr, align 8
  %vtable138 = load ptr, ptr %91, align 8
  %vfn139 = getelementptr inbounds ptr, ptr %vtable138, i64 2
  %92 = load ptr, ptr %vfn139, align 8
  invoke void %92(ptr noundef nonnull align 8 dereferenceable(8) %91, ptr noundef nonnull align 8 dereferenceable(48) %vars, ptr noundef @.str.46)
          to label %invoke.cont140 unwind label %lpad

invoke.cont140:                                   ; preds = %invoke.cont137
  call void @_ZNSt3mapINSt7__cxx1112basic_stringIcSt11char_traitsIcESaIcEEES5_St4lessIS5_ESaISt4pairIKS5_S5_EEED2Ev(ptr noundef nonnull align 8 dereferenceable(48) %vars) #10
  ret void

ehcleanup141:                                     ; preds = %ehcleanup131, %ehcleanup12, %lpad
  call void @_ZNSt3mapINSt7__cxx1112basic_stringIcSt11char_traitsIcESaIcEEES5_St4lessIS5_ESaISt4pairIKS5_S5_EEED2Ev(ptr noundef nonnull align 8 dereferenceable(48) %vars) #10
  br label %eh.resume

eh.resume:                                        ; preds = %ehcleanup141
  %exn = load ptr, ptr %exn.slot, align 8
  %sel = load i32, ptr %ehselector.slot, align 4
  %lpad.val = insertvalue { ptr, i32 } poison, ptr %exn, 0
  %lpad.val142 = insertvalue { ptr, i32 } %lpad.val, i32 %sel, 1
  resume { ptr, i32 } %lpad.val142
}

; Function Attrs: mustprogress nounwind uwtable
define linkonce_odr dso_local void @_ZNSt10unique_ptrIN14grpc_generator7PrinterESt14default_deleteIS1_EED2Ev(ptr noundef nonnull align 8 dereferenceable(8) %this) unnamed_addr #2 comdat align 2 personality ptr @__gxx_personality_v0 {
entry:
  %this.addr = alloca ptr, align 8
  %__ptr = alloca ptr, align 8
  store ptr %this, ptr %this.addr, align 8
  %this1 = load ptr, ptr %this.addr, align 8
  %_M_t = getelementptr inbounds %"class.std::unique_ptr", ptr %this1, i32 0, i32 0
  %call = call noundef nonnull align 8 dereferenceable(8) ptr @_ZNSt15__uniq_ptr_implIN14grpc_generator7PrinterESt14default_deleteIS1_EE6_M_ptrEv(ptr noundef nonnull align 8 dereferenceable(8) %_M_t) #10
  store ptr %call, ptr %__ptr, align 8
  %0 = load ptr, ptr %__ptr, align 8
  %1 = load ptr, ptr %0, align 8
  %cmp = icmp ne ptr %1, null
  br i1 %cmp, label %if.then, label %if.end

if.then:                                          ; preds = %entry
  %call2 = call noundef nonnull align 1 dereferenceable(1) ptr @_ZNSt10unique_ptrIN14grpc_generator7PrinterESt14default_deleteIS1_EE11get_deleterEv(ptr noundef nonnull align 8 dereferenceable(8) %this1) #10
  %2 = load ptr, ptr %__ptr, align 8
  %3 = load ptr, ptr %2, align 8
  invoke void @_ZNKSt14default_deleteIN14grpc_generator7PrinterEEclEPS1_(ptr noundef nonnull align 1 dereferenceable(1) %call2, ptr noundef %3)
          to label %invoke.cont unwind label %terminate.lpad

invoke.cont:                                      ; preds = %if.then
  br label %if.end

if.end:                                           ; preds = %invoke.cont, %entry
  %4 = load ptr, ptr %__ptr, align 8
  store ptr null, ptr %4, align 8
  ret void

terminate.lpad:                                   ; preds = %if.then
  %5 = landingpad { ptr, i32 }
          catch ptr null
  %6 = extractvalue { ptr, i32 } %5, 0
  call void @__clang_call_terminate(ptr %6) #12
  unreachable
}

; Function Attrs: mustprogress nounwind uwtable
define linkonce_odr dso_local void @_ZNSt3mapINSt7__cxx1112basic_stringIcSt11char_traitsIcESaIcEEES5_St4lessIS5_ESaISt4pairIKS5_S5_EEED2Ev(ptr noundef nonnull align 8 dereferenceable(48) %this) unnamed_addr #2 comdat align 2 {
entry:
  %this.addr = alloca ptr, align 8
  store ptr %this, ptr %this.addr, align 8
  %this1 = load ptr, ptr %this.addr, align 8
  %_M_t = getelementptr inbounds %"class.std::map", ptr %this1, i32 0, i32 0
  call void @_ZNSt8_Rb_treeINSt7__cxx1112basic_stringIcSt11char_traitsIcESaIcEEESt4pairIKS5_S5_ESt10_Select1stIS8_ESt4lessIS5_ESaIS8_EED2Ev(ptr noundef nonnull align 8 dereferenceable(48) %_M_t) #10
  ret void
}

; Function Attrs: mustprogress uwtable
define dso_local void @_ZN17grpc_ts_generator17GenerateInterfaceEPN14grpc_generator4FileEPKNS0_7ServiceERKNSt7__cxx1112basic_stringIcSt11char_traitsIcESaIcEEE(ptr noalias sret(%"class.std::__cxx11::basic_string") align 8 %agg.result, ptr noundef %file, ptr noundef %service, ptr noundef nonnull align 8 dereferenceable(32) %filename) #0 personality ptr @__gxx_personality_v0 {
entry:
  %result.ptr = alloca ptr, align 8
  %file.addr = alloca ptr, align 8
  %service.addr = alloca ptr, align 8
  %filename.addr = alloca ptr, align 8
  %nrvo = alloca i1, align 1
  %generated_functions = alloca %"class.std::set", align 8
  %vars = alloca %"class.std::map", align 8
  %ref.tmp = alloca %"class.std::__cxx11::basic_string", align 8
  %exn.slot = alloca ptr, align 8
  %ehselector.slot = alloca i32, align 4
  %ref.tmp1 = alloca %"class.std::__cxx11::basic_string", align 8
  %ref.tmp2 = alloca %"class.std::allocator", align 1
  %ref.tmp9 = alloca %"class.std::__cxx11::basic_string", align 8
  %ref.tmp14 = alloca %"class.std::__cxx11::basic_string", align 8
  %ref.tmp15 = alloca %"class.std::allocator", align 1
  %ref.tmp25 = alloca %"class.std::__cxx11::basic_string", align 8
  %ref.tmp29 = alloca %"class.std::__cxx11::basic_string", align 8
  %ref.tmp30 = alloca %"class.std::allocator", align 1
  %ref.tmp40 = alloca %"class.std::__cxx11::basic_string", align 8
  %ref.tmp41 = alloca %"class.std::__cxx11::basic_string", align 8
  %ref.tmp47 = alloca %"class.std::__cxx11::basic_string", align 8
  %ref.tmp48 = alloca %"class.std::allocator", align 1
  %ref.tmp59 = alloca %"class.std::__cxx11::basic_string", align 8
  %ref.tmp60 = alloca %"class.std::allocator", align 1
  %printer = alloca %"class.std::unique_ptr", align 8
  store ptr %agg.result, ptr %result.ptr, align 8
  store ptr %file, ptr %file.addr, align 8
  store ptr %service, ptr %service.addr, align 8
  store ptr %filename, ptr %filename.addr, align 8
  store i1 false, ptr %nrvo, align 1
  call void @_ZNSt7__cxx1112basic_stringIcSt11char_traitsIcESaIcEEC1Ev(ptr noundef nonnull align 8 dereferenceable(32) %agg.result) #10
  call void @_ZNSt3setINSt7__cxx1112basic_stringIcSt11char_traitsIcESaIcEEESt4lessIS5_ESaIS5_EEC2Ev(ptr noundef nonnull align 8 dereferenceable(48) %generated_functions) #10
  call void @_ZNSt3mapINSt7__cxx1112basic_stringIcSt11char_traitsIcESaIcEEES5_St4lessIS5_ESaISt4pairIKS5_S5_EEEC2Ev(ptr noundef nonnull align 8 dereferenceable(48) %vars) #10
  %0 = load ptr, ptr %file.addr, align 8
  %vtable = load ptr, ptr %0, align 8
  %vfn = getelementptr inbounds ptr, ptr %vtable, i64 7
  %1 = load ptr, ptr %vfn, align 8
  invoke void %1(ptr sret(%"class.std::__cxx11::basic_string") align 8 %ref.tmp, ptr noundef nonnull align 8 dereferenceable(8) %0)
          to label %invoke.cont unwind label %lpad

invoke.cont:                                      ; preds = %entry
  call void @_ZNSaIcEC1Ev(ptr noundef nonnull align 1 dereferenceable(1) %ref.tmp2) #10
  invoke void @_ZNSt7__cxx1112basic_stringIcSt11char_traitsIcESaIcEEC2IS3_EEPKcRKS3_(ptr noundef nonnull align 8 dereferenceable(32) %ref.tmp1, ptr noundef @.str, ptr noundef nonnull align 1 dereferenceable(1) %ref.tmp2)
          to label %invoke.cont4 unwind label %lpad3

invoke.cont4:                                     ; preds = %invoke.cont
  %call = invoke noundef nonnull align 8 dereferenceable(32) ptr @_ZNSt3mapINSt7__cxx1112basic_stringIcSt11char_traitsIcESaIcEEES5_St4lessIS5_ESaISt4pairIKS5_S5_EEEixEOS5_(ptr noundef nonnull align 8 dereferenceable(48) %vars, ptr noundef nonnull align 8 dereferenceable(32) %ref.tmp1)
          to label %invoke.cont6 unwind label %lpad5

invoke.cont6:                                     ; preds = %invoke.cont4
  %call7 = call noundef nonnull align 8 dereferenceable(32) ptr @_ZNSt7__cxx1112basic_stringIcSt11char_traitsIcESaIcEEaSEOS4_(ptr noundef nonnull align 8 dereferenceable(32) %call, ptr noundef nonnull align 8 dereferenceable(32) %ref.tmp) #10
  call void @_ZNSt7__cxx1112basic_stringIcSt11char_traitsIcESaIcEED1Ev(ptr noundef nonnull align 8 dereferenceable(32) %ref.tmp1) #10
  call void @_ZNSaIcED1Ev(ptr noundef nonnull align 1 dereferenceable(1) %ref.tmp2) #10
  call void @_ZNSt7__cxx1112basic_stringIcSt11char_traitsIcESaIcEED1Ev(ptr noundef nonnull align 8 dereferenceable(32) %ref.tmp) #10
  %2 = load ptr, ptr %file.addr, align 8
  %vtable10 = load ptr, ptr %2, align 8
  %vfn11 = getelementptr inbounds ptr, ptr %vtable10, i64 7
  %3 = load ptr, ptr %vfn11, align 8
  invoke void %3(ptr sret(%"class.std::__cxx11::basic_string") align 8 %ref.tmp9, ptr noundef nonnull align 8 dereferenceable(8) %2)
          to label %invoke.cont12 unwind label %lpad

invoke.cont12:                                    ; preds = %invoke.cont6
  %call13 = call noundef zeroext i1 @_ZNKSt7__cxx1112basic_stringIcSt11char_traitsIcESaIcEE5emptyEv(ptr noundef nonnull align 8 dereferenceable(32) %ref.tmp9) #10
  %lnot = xor i1 %call13, true
  call void @_ZNSt7__cxx1112basic_stringIcSt11char_traitsIcESaIcEED1Ev(ptr noundef nonnull align 8 dereferenceable(32) %ref.tmp9) #10
  br i1 %lnot, label %if.then, label %if.end

if.then:                                          ; preds = %invoke.cont12
  call void @_ZNSaIcEC1Ev(ptr noundef nonnull align 1 dereferenceable(1) %ref.tmp15) #10
  invoke void @_ZNSt7__cxx1112basic_stringIcSt11char_traitsIcESaIcEEC2IS3_EEPKcRKS3_(ptr noundef nonnull align 8 dereferenceable(32) %ref.tmp14, ptr noundef @.str, ptr noundef nonnull align 1 dereferenceable(1) %ref.tmp15)
          to label %invoke.cont17 unwind label %lpad16

invoke.cont17:                                    ; preds = %if.then
  %call20 = invoke noundef nonnull align 8 dereferenceable(32) ptr @_ZNSt3mapINSt7__cxx1112basic_stringIcSt11char_traitsIcESaIcEEES5_St4lessIS5_ESaISt4pairIKS5_S5_EEEixEOS5_(ptr noundef nonnull align 8 dereferenceable(48) %vars, ptr noundef nonnull align 8 dereferenceable(32) %ref.tmp14)
          to label %invoke.cont19 unwind label %lpad18

invoke.cont19:                                    ; preds = %invoke.cont17
  %call22 = invoke noundef nonnull align 8 dereferenceable(32) ptr @_ZNSt7__cxx1112basic_stringIcSt11char_traitsIcESaIcEE6appendEPKc(ptr noundef nonnull align 8 dereferenceable(32) %call20, ptr noundef @.str.1)
          to label %invoke.cont21 unwind label %lpad18

invoke.cont21:                                    ; preds = %invoke.cont19
  call void @_ZNSt7__cxx1112basic_stringIcSt11char_traitsIcESaIcEED1Ev(ptr noundef nonnull align 8 dereferenceable(32) %ref.tmp14) #10
  call void @_ZNSaIcED1Ev(ptr noundef nonnull align 1 dereferenceable(1) %ref.tmp15) #10
  br label %if.end

lpad:                                             ; preds = %invoke.cont66, %invoke.cont34, %if.end, %invoke.cont6, %entry
  %4 = landingpad { ptr, i32 }
          cleanup
  %5 = extractvalue { ptr, i32 } %4, 0
  store ptr %5, ptr %exn.slot, align 8
  %6 = extractvalue { ptr, i32 } %4, 1
  store i32 %6, ptr %ehselector.slot, align 4
  br label %ehcleanup91

lpad3:                                            ; preds = %invoke.cont
  %7 = landingpad { ptr, i32 }
          cleanup
  %8 = extractvalue { ptr, i32 } %7, 0
  store ptr %8, ptr %exn.slot, align 8
  %9 = extractvalue { ptr, i32 } %7, 1
  store i32 %9, ptr %ehselector.slot, align 4
  br label %ehcleanup

lpad5:                                            ; preds = %invoke.cont4
  %10 = landingpad { ptr, i32 }
          cleanup
  %11 = extractvalue { ptr, i32 } %10, 0
  store ptr %11, ptr %exn.slot, align 8
  %12 = extractvalue { ptr, i32 } %10, 1
  store i32 %12, ptr %ehselector.slot, align 4
  call void @_ZNSt7__cxx1112basic_stringIcSt11char_traitsIcESaIcEED1Ev(ptr noundef nonnull align 8 dereferenceable(32) %ref.tmp1) #10
  br label %ehcleanup

ehcleanup:                                        ; preds = %lpad5, %lpad3
  call void @_ZNSaIcED1Ev(ptr noundef nonnull align 1 dereferenceable(1) %ref.tmp2) #10
  call void @_ZNSt7__cxx1112basic_stringIcSt11char_traitsIcESaIcEED1Ev(ptr noundef nonnull align 8 dereferenceable(32) %ref.tmp) #10
  br label %ehcleanup91

lpad16:                                           ; preds = %if.then
  %13 = landingpad { ptr, i32 }
          cleanup
  %14 = extractvalue { ptr, i32 } %13, 0
  store ptr %14, ptr %exn.slot, align 8
  %15 = extractvalue { ptr, i32 } %13, 1
  store i32 %15, ptr %ehselector.slot, align 4
  br label %ehcleanup24

lpad18:                                           ; preds = %invoke.cont19, %invoke.cont17
  %16 = landingpad { ptr, i32 }
          cleanup
  %17 = extractvalue { ptr, i32 } %16, 0
  store ptr %17, ptr %exn.slot, align 8
  %18 = extractvalue { ptr, i32 } %16, 1
  store i32 %18, ptr %ehselector.slot, align 4
  call void @_ZNSt7__cxx1112basic_stringIcSt11char_traitsIcESaIcEED1Ev(ptr noundef nonnull align 8 dereferenceable(32) %ref.tmp14) #10
  br label %ehcleanup24

ehcleanup24:                                      ; preds = %lpad18, %lpad16
  call void @_ZNSaIcED1Ev(ptr noundef nonnull align 1 dereferenceable(1) %ref.tmp15) #10
  br label %ehcleanup91

if.end:                                           ; preds = %invoke.cont21, %invoke.cont12
  %19 = load ptr, ptr %service.addr, align 8
  %vtable26 = load ptr, ptr %19, align 8
  %vfn27 = getelementptr inbounds ptr, ptr %vtable26, i64 6
  %20 = load ptr, ptr %vfn27, align 8
  invoke void %20(ptr sret(%"class.std::__cxx11::basic_string") align 8 %ref.tmp25, ptr noundef nonnull align 8 dereferenceable(8) %19)
          to label %invoke.cont28 unwind label %lpad

invoke.cont28:                                    ; preds = %if.end
  call void @_ZNSaIcEC1Ev(ptr noundef nonnull align 1 dereferenceable(1) %ref.tmp30) #10
  invoke void @_ZNSt7__cxx1112basic_stringIcSt11char_traitsIcESaIcEEC2IS3_EEPKcRKS3_(ptr noundef nonnull align 8 dereferenceable(32) %ref.tmp29, ptr noundef @.str.2, ptr noundef nonnull align 1 dereferenceable(1) %ref.tmp30)
          to label %invoke.cont32 unwind label %lpad31

invoke.cont32:                                    ; preds = %invoke.cont28
  %call35 = invoke noundef nonnull align 8 dereferenceable(32) ptr @_ZNSt3mapINSt7__cxx1112basic_stringIcSt11char_traitsIcESaIcEEES5_St4lessIS5_ESaISt4pairIKS5_S5_EEEixEOS5_(ptr noundef nonnull align 8 dereferenceable(48) %vars, ptr noundef nonnull align 8 dereferenceable(32) %ref.tmp29)
          to label %invoke.cont34 unwind label %lpad33

invoke.cont34:                                    ; preds = %invoke.cont32
  %call36 = call noundef nonnull align 8 dereferenceable(32) ptr @_ZNSt7__cxx1112basic_stringIcSt11char_traitsIcESaIcEEaSEOS4_(ptr noundef nonnull align 8 dereferenceable(32) %call35, ptr noundef nonnull align 8 dereferenceable(32) %ref.tmp25) #10
  call void @_ZNSt7__cxx1112basic_stringIcSt11char_traitsIcESaIcEED1Ev(ptr noundef nonnull align 8 dereferenceable(32) %ref.tmp29) #10
  call void @_ZNSaIcED1Ev(ptr noundef nonnull align 1 dereferenceable(1) %ref.tmp30) #10
  call void @_ZNSt7__cxx1112basic_stringIcSt11char_traitsIcESaIcEED1Ev(ptr noundef nonnull align 8 dereferenceable(32) %ref.tmp25) #10
  %21 = load ptr, ptr %service.addr, align 8
  %vtable42 = load ptr, ptr %21, align 8
  %vfn43 = getelementptr inbounds ptr, ptr %vtable42, i64 6
  %22 = load ptr, ptr %vfn43, align 8
  invoke void %22(ptr sret(%"class.std::__cxx11::basic_string") align 8 %ref.tmp41, ptr noundef nonnull align 8 dereferenceable(8) %21)
          to label %invoke.cont44 unwind label %lpad

invoke.cont44:                                    ; preds = %invoke.cont34
  invoke void @_ZStplIcSt11char_traitsIcESaIcEENSt7__cxx1112basic_stringIT_T0_T1_EEOS8_PKS5_(ptr sret(%"class.std::__cxx11::basic_string") align 8 %ref.tmp40, ptr noundef nonnull align 8 dereferenceable(32) %ref.tmp41, ptr noundef @.str.3)
          to label %invoke.cont46 unwind label %lpad45

invoke.cont46:                                    ; preds = %invoke.cont44
  call void @_ZNSaIcEC1Ev(ptr noundef nonnull align 1 dereferenceable(1) %ref.tmp48) #10
  invoke void @_ZNSt7__cxx1112basic_stringIcSt11char_traitsIcESaIcEEC2IS3_EEPKcRKS3_(ptr noundef nonnull align 8 dereferenceable(32) %ref.tmp47, ptr noundef @.str.4, ptr noundef nonnull align 1 dereferenceable(1) %ref.tmp48)
          to label %invoke.cont50 unwind label %lpad49

invoke.cont50:                                    ; preds = %invoke.cont46
  %call53 = invoke noundef nonnull align 8 dereferenceable(32) ptr @_ZNSt3mapINSt7__cxx1112basic_stringIcSt11char_traitsIcESaIcEEES5_St4lessIS5_ESaISt4pairIKS5_S5_EEEixEOS5_(ptr noundef nonnull align 8 dereferenceable(48) %vars, ptr noundef nonnull align 8 dereferenceable(32) %ref.tmp47)
          to label %invoke.cont52 unwind label %lpad51

invoke.cont52:                                    ; preds = %invoke.cont50
  %call54 = call noundef nonnull align 8 dereferenceable(32) ptr @_ZNSt7__cxx1112basic_stringIcSt11char_traitsIcESaIcEEaSEOS4_(ptr noundef nonnull align 8 dereferenceable(32) %call53, ptr noundef nonnull align 8 dereferenceable(32) %ref.tmp40) #10
  call void @_ZNSt7__cxx1112basic_stringIcSt11char_traitsIcESaIcEED1Ev(ptr noundef nonnull align 8 dereferenceable(32) %ref.tmp47) #10
  call void @_ZNSaIcED1Ev(ptr noundef nonnull align 1 dereferenceable(1) %ref.tmp48) #10
  call void @_ZNSt7__cxx1112basic_stringIcSt11char_traitsIcESaIcEED1Ev(ptr noundef nonnull align 8 dereferenceable(32) %ref.tmp40) #10
  call void @_ZNSt7__cxx1112basic_stringIcSt11char_traitsIcESaIcEED1Ev(ptr noundef nonnull align 8 dereferenceable(32) %ref.tmp41) #10
  %23 = load ptr, ptr %filename.addr, align 8
  call void @_ZNSaIcEC1Ev(ptr noundef nonnull align 1 dereferenceable(1) %ref.tmp60) #10
  invoke void @_ZNSt7__cxx1112basic_stringIcSt11char_traitsIcESaIcEEC2IS3_EEPKcRKS3_(ptr noundef nonnull align 8 dereferenceable(32) %ref.tmp59, ptr noundef @.str.5, ptr noundef nonnull align 1 dereferenceable(1) %ref.tmp60)
          to label %invoke.cont62 unwind label %lpad61

invoke.cont62:                                    ; preds = %invoke.cont52
  %call65 = invoke noundef nonnull align 8 dereferenceable(32) ptr @_ZNSt3mapINSt7__cxx1112basic_stringIcSt11char_traitsIcESaIcEEES5_St4lessIS5_ESaISt4pairIKS5_S5_EEEixEOS5_(ptr noundef nonnull align 8 dereferenceable(48) %vars, ptr noundef nonnull align 8 dereferenceable(32) %ref.tmp59)
          to label %invoke.cont64 unwind label %lpad63

invoke.cont64:                                    ; preds = %invoke.cont62
  %call67 = invoke noundef nonnull align 8 dereferenceable(32) ptr @_ZNSt7__cxx1112basic_stringIcSt11char_traitsIcESaIcEEaSERKS4_(ptr noundef nonnull align 8 dereferenceable(32) %call65, ptr noundef nonnull align 8 dereferenceable(32) %23)
          to label %invoke.cont66 unwind label %lpad63

invoke.cont66:                                    ; preds = %invoke.cont64
  call void @_ZNSt7__cxx1112basic_stringIcSt11char_traitsIcESaIcEED1Ev(ptr noundef nonnull align 8 dereferenceable(32) %ref.tmp59) #10
  call void @_ZNSaIcED1Ev(ptr noundef nonnull align 1 dereferenceable(1) %ref.tmp60) #10
  %24 = load ptr, ptr %file.addr, align 8
  %vtable70 = load ptr, ptr %24, align 8
  %vfn71 = getelementptr inbounds ptr, ptr %vtable70, i64 12
  %25 = load ptr, ptr %vfn71, align 8
  invoke void %25(ptr sret(%"class.std::unique_ptr") align 8 %printer, ptr noundef nonnull align 8 dereferenceable(8) %24, ptr noundef %agg.result, i8 noundef signext 32)
          to label %invoke.cont72 unwind label %lpad

invoke.cont72:                                    ; preds = %invoke.cont66
  %26 = load ptr, ptr %service.addr, align 8
  %call73 = call noundef nonnull align 8 dereferenceable(8) ptr @_ZNKSt10unique_ptrIN14grpc_generator7PrinterESt14default_deleteIS1_EEdeEv(ptr noundef nonnull align 8 dereferenceable(8) %printer) #10
  invoke void @_ZN17grpc_ts_generator12_GLOBAL__N_115GenerateImportsEPKN14grpc_generator7ServiceEPNS1_7PrinterEPSt3mapINSt7__cxx1112basic_stringIcSt11char_traitsIcESaIcEEESD_St4lessISD_ESaISt4pairIKSD_SD_EEEb(ptr noundef %26, ptr noundef %call73, ptr noundef %vars, i1 noundef zeroext false)
          to label %invoke.cont75 unwind label %lpad74

invoke.cont75:                                    ; preds = %invoke.cont72
  %27 = load ptr, ptr %service.addr, align 8
  %call76 = call noundef nonnull align 8 dereferenceable(8) ptr @_ZNKSt10unique_ptrIN14grpc_generator7PrinterESt14default_deleteIS1_EEdeEv(ptr noundef nonnull align 8 dereferenceable(8) %printer) #10
  invoke void @_ZN17grpc_ts_generator12_GLOBAL__N_121GenerateMainInterfaceEPKN14grpc_generator7ServiceEPNS1_7PrinterEPSt3mapINSt7__cxx1112basic_stringIcSt11char_traitsIcESaIcEEESD_St4lessISD_ESaISt4pairIKSD_SD_EEE(ptr noundef %27, ptr noundef %call76, ptr noundef %vars)
          to label %invoke.cont77 unwind label %lpad74

invoke.cont77:                                    ; preds = %invoke.cont75
  %call78 = call noundef ptr @_ZNKSt10unique_ptrIN14grpc_generator7PrinterESt14default_deleteIS1_EEptEv(ptr noundef nonnull align 8 dereferenceable(8) %printer) #10
  %vtable79 = load ptr, ptr %call78, align 8
  %vfn80 = getelementptr inbounds ptr, ptr %vtable79, i64 3
  %28 = load ptr, ptr %vfn80, align 8
  invoke void %28(ptr noundef nonnull align 8 dereferenceable(8) %call78, ptr noundef @.str.6)
          to label %invoke.cont81 unwind label %lpad74

invoke.cont81:                                    ; preds = %invoke.cont77
  %29 = load ptr, ptr %service.addr, align 8
  %call82 = call noundef nonnull align 8 dereferenceable(8) ptr @_ZNKSt10unique_ptrIN14grpc_generator7PrinterESt14default_deleteIS1_EEdeEv(ptr noundef nonnull align 8 dereferenceable(8) %printer) #10
  invoke void @_ZN17grpc_ts_generator12_GLOBAL__N_123GenerateClientInterfaceEPKN14grpc_generator7ServiceEPNS1_7PrinterEPSt3mapINSt7__cxx1112basic_stringIcSt11char_traitsIcESaIcEEESD_St4lessISD_ESaISt4pairIKSD_SD_EEE(ptr noundef %29, ptr noundef %call82, ptr noundef %vars)
          to label %invoke.cont83 unwind label %lpad74

invoke.cont83:                                    ; preds = %invoke.cont81
  %call84 = call noundef ptr @_ZNKSt10unique_ptrIN14grpc_generator7PrinterESt14default_deleteIS1_EEptEv(ptr noundef nonnull align 8 dereferenceable(8) %printer) #10
  %vtable85 = load ptr, ptr %call84, align 8
  %vfn86 = getelementptr inbounds ptr, ptr %vtable85, i64 3
  %30 = load ptr, ptr %vfn86, align 8
  invoke void %30(ptr noundef nonnull align 8 dereferenceable(8) %call84, ptr noundef @.str.6)
          to label %invoke.cont87 unwind label %lpad74

invoke.cont87:                                    ; preds = %invoke.cont83
  %31 = load ptr, ptr %service.addr, align 8
  %call88 = call noundef nonnull align 8 dereferenceable(8) ptr @_ZNKSt10unique_ptrIN14grpc_generator7PrinterESt14default_deleteIS1_EEdeEv(ptr noundef nonnull align 8 dereferenceable(8) %printer) #10
  invoke void @_ZN17grpc_ts_generator12_GLOBAL__N_128GenerateClientClassInterfaceEPKN14grpc_generator7ServiceEPNS1_7PrinterEPSt3mapINSt7__cxx1112basic_stringIcSt11char_traitsIcESaIcEEESD_St4lessISD_ESaISt4pairIKSD_SD_EEE(ptr noundef %31, ptr noundef %call88, ptr noundef %vars)
          to label %invoke.cont89 unwind label %lpad74

invoke.cont89:                                    ; preds = %invoke.cont87
  store i1 true, ptr %nrvo, align 1
  call void @_ZNSt10unique_ptrIN14grpc_generator7PrinterESt14default_deleteIS1_EED2Ev(ptr noundef nonnull align 8 dereferenceable(8) %printer) #10
  call void @_ZNSt3mapINSt7__cxx1112basic_stringIcSt11char_traitsIcESaIcEEES5_St4lessIS5_ESaISt4pairIKS5_S5_EEED2Ev(ptr noundef nonnull align 8 dereferenceable(48) %vars) #10
  call void @_ZNSt3setINSt7__cxx1112basic_stringIcSt11char_traitsIcESaIcEEESt4lessIS5_ESaIS5_EED2Ev(ptr noundef nonnull align 8 dereferenceable(48) %generated_functions) #10
  %nrvo.val = load i1, ptr %nrvo, align 1
  br i1 %nrvo.val, label %nrvo.skipdtor, label %nrvo.unused

lpad31:                                           ; preds = %invoke.cont28
  %32 = landingpad { ptr, i32 }
          cleanup
  %33 = extractvalue { ptr, i32 } %32, 0
  store ptr %33, ptr %exn.slot, align 8
  %34 = extractvalue { ptr, i32 } %32, 1
  store i32 %34, ptr %ehselector.slot, align 4
  br label %ehcleanup38

lpad33:                                           ; preds = %invoke.cont32
  %35 = landingpad { ptr, i32 }
          cleanup
  %36 = extractvalue { ptr, i32 } %35, 0
  store ptr %36, ptr %exn.slot, align 8
  %37 = extractvalue { ptr, i32 } %35, 1
  store i32 %37, ptr %ehselector.slot, align 4
  call void @_ZNSt7__cxx1112basic_stringIcSt11char_traitsIcESaIcEED1Ev(ptr noundef nonnull align 8 dereferenceable(32) %ref.tmp29) #10
  br label %ehcleanup38

ehcleanup38:                                      ; preds = %lpad33, %lpad31
  call void @_ZNSaIcED1Ev(ptr noundef nonnull align 1 dereferenceable(1) %ref.tmp30) #10
  call void @_ZNSt7__cxx1112basic_stringIcSt11char_traitsIcESaIcEED1Ev(ptr noundef nonnull align 8 dereferenceable(32) %ref.tmp25) #10
  br label %ehcleanup91

lpad45:                                           ; preds = %invoke.cont44
  %38 = landingpad { ptr, i32 }
          cleanup
  %39 = extractvalue { ptr, i32 } %38, 0
  store ptr %39, ptr %exn.slot, align 8
  %40 = extractvalue { ptr, i32 } %38, 1
  store i32 %40, ptr %ehselector.slot, align 4
  br label %ehcleanup58

lpad49:                                           ; preds = %invoke.cont46
  %41 = landingpad { ptr, i32 }
          cleanup
  %42 = extractvalue { ptr, i32 } %41, 0
  store ptr %42, ptr %exn.slot, align 8
  %43 = extractvalue { ptr, i32 } %41, 1
  store i32 %43, ptr %ehselector.slot, align 4
  br label %ehcleanup56

lpad51:                                           ; preds = %invoke.cont50
  %44 = landingpad { ptr, i32 }
          cleanup
  %45 = extractvalue { ptr, i32 } %44, 0
  store ptr %45, ptr %exn.slot, align 8
  %46 = extractvalue { ptr, i32 } %44, 1
  store i32 %46, ptr %ehselector.slot, align 4
  call void @_ZNSt7__cxx1112basic_stringIcSt11char_traitsIcESaIcEED1Ev(ptr noundef nonnull align 8 dereferenceable(32) %ref.tmp47) #10
  br label %ehcleanup56

ehcleanup56:                                      ; preds = %lpad51, %lpad49
  call void @_ZNSaIcED1Ev(ptr noundef nonnull align 1 dereferenceable(1) %ref.tmp48) #10
  call void @_ZNSt7__cxx1112basic_stringIcSt11char_traitsIcESaIcEED1Ev(ptr noundef nonnull align 8 dereferenceable(32) %ref.tmp40) #10
  br label %ehcleanup58

ehcleanup58:                                      ; preds = %ehcleanup56, %lpad45
  call void @_ZNSt7__cxx1112basic_stringIcSt11char_traitsIcESaIcEED1Ev(ptr noundef nonnull align 8 dereferenceable(32) %ref.tmp41) #10
  br label %ehcleanup91

lpad61:                                           ; preds = %invoke.cont52
  %47 = landingpad { ptr, i32 }
          cleanup
  %48 = extractvalue { ptr, i32 } %47, 0
  store ptr %48, ptr %exn.slot, align 8
  %49 = extractvalue { ptr, i32 } %47, 1
  store i32 %49, ptr %ehselector.slot, align 4
  br label %ehcleanup69

lpad63:                                           ; preds = %invoke.cont64, %invoke.cont62
  %50 = landingpad { ptr, i32 }
          cleanup
  %51 = extractvalue { ptr, i32 } %50, 0
  store ptr %51, ptr %exn.slot, align 8
  %52 = extractvalue { ptr, i32 } %50, 1
  store i32 %52, ptr %ehselector.slot, align 4
  call void @_ZNSt7__cxx1112basic_stringIcSt11char_traitsIcESaIcEED1Ev(ptr noundef nonnull align 8 dereferenceable(32) %ref.tmp59) #10
  br label %ehcleanup69

ehcleanup69:                                      ; preds = %lpad63, %lpad61
  call void @_ZNSaIcED1Ev(ptr noundef nonnull align 1 dereferenceable(1) %ref.tmp60) #10
  br label %ehcleanup91

lpad74:                                           ; preds = %invoke.cont87, %invoke.cont83, %invoke.cont81, %invoke.cont77, %invoke.cont75, %invoke.cont72
  %53 = landingpad { ptr, i32 }
          cleanup
  %54 = extractvalue { ptr, i32 } %53, 0
  store ptr %54, ptr %exn.slot, align 8
  %55 = extractvalue { ptr, i32 } %53, 1
  store i32 %55, ptr %ehselector.slot, align 4
  call void @_ZNSt10unique_ptrIN14grpc_generator7PrinterESt14default_deleteIS1_EED2Ev(ptr noundef nonnull align 8 dereferenceable(8) %printer) #10
  br label %ehcleanup91

ehcleanup91:                                      ; preds = %lpad74, %ehcleanup69, %ehcleanup58, %ehcleanup38, %ehcleanup24, %ehcleanup, %lpad
  call void @_ZNSt3mapINSt7__cxx1112basic_stringIcSt11char_traitsIcESaIcEEES5_St4lessIS5_ESaISt4pairIKS5_S5_EEED2Ev(ptr noundef nonnull align 8 dereferenceable(48) %vars) #10
  call void @_ZNSt3setINSt7__cxx1112basic_stringIcSt11char_traitsIcESaIcEEESt4lessIS5_ESaIS5_EED2Ev(ptr noundef nonnull align 8 dereferenceable(48) %generated_functions) #10
  call void @_ZNSt7__cxx1112basic_stringIcSt11char_traitsIcESaIcEED1Ev(ptr noundef nonnull align 8 dereferenceable(32) %agg.result) #10
  br label %eh.resume

nrvo.unused:                                      ; preds = %invoke.cont89
  call void @_ZNSt7__cxx1112basic_stringIcSt11char_traitsIcESaIcEED1Ev(ptr noundef nonnull align 8 dereferenceable(32) %agg.result) #10
  br label %nrvo.skipdtor

nrvo.skipdtor:                                    ; preds = %nrvo.unused, %invoke.cont89
  ret void

eh.resume:                                        ; preds = %ehcleanup91
  %exn = load ptr, ptr %exn.slot, align 8
  %sel = load i32, ptr %ehselector.slot, align 4
  %lpad.val = insertvalue { ptr, i32 } poison, ptr %exn, 0
  %lpad.val94 = insertvalue { ptr, i32 } %lpad.val, i32 %sel, 1
  resume { ptr, i32 } %lpad.val94
}

; Function Attrs: mustprogress nounwind uwtable
define linkonce_odr dso_local void @_ZNSt3setINSt7__cxx1112basic_stringIcSt11char_traitsIcESaIcEEESt4lessIS5_ESaIS5_EEC2Ev(ptr noundef nonnull align 8 dereferenceable(48) %this) unnamed_addr #2 comdat align 2 {
entry:
  %this.addr = alloca ptr, align 8
  store ptr %this, ptr %this.addr, align 8
  %this1 = load ptr, ptr %this.addr, align 8
  %_M_t = getelementptr inbounds %"class.std::set", ptr %this1, i32 0, i32 0
  call void @_ZNSt8_Rb_treeINSt7__cxx1112basic_stringIcSt11char_traitsIcESaIcEEES5_St9_IdentityIS5_ESt4lessIS5_ESaIS5_EEC2Ev(ptr noundef nonnull align 8 dereferenceable(48) %_M_t) #10
  ret void
}

; Function Attrs: mustprogress uwtable
define internal void @_ZN17grpc_ts_generator12_GLOBAL__N_121GenerateMainInterfaceEPKN14grpc_generator7ServiceEPNS1_7PrinterEPSt3mapINSt7__cxx1112basic_stringIcSt11char_traitsIcESaIcEEESD_St4lessISD_ESaISt4pairIKSD_SD_EEE(ptr noundef %service, ptr noundef %printer, ptr noundef %dictonary) #0 personality ptr @__gxx_personality_v0 {
entry:
  %service.addr = alloca ptr, align 8
  %printer.addr = alloca ptr, align 8
  %dictonary.addr = alloca ptr, align 8
  %vars = alloca %"class.std::map", align 8
  %exn.slot = alloca ptr, align 8
  %ehselector.slot = alloca i32, align 4
  %it = alloca i32, align 4
  %method = alloca %"class.std::unique_ptr.9", align 8
  %ref.tmp = alloca %"class.std::__cxx11::basic_string", align 8
  %ref.tmp15 = alloca %"class.std::__cxx11::basic_string", align 8
  %ref.tmp16 = alloca %"class.std::allocator", align 1
  store ptr %service, ptr %service.addr, align 8
  store ptr %printer, ptr %printer.addr, align 8
  store ptr %dictonary, ptr %dictonary.addr, align 8
  %0 = load ptr, ptr %dictonary.addr, align 8
  call void @_ZNSt3mapINSt7__cxx1112basic_stringIcSt11char_traitsIcESaIcEEES5_St4lessIS5_ESaISt4pairIKS5_S5_EEEC2ERKSC_(ptr noundef nonnull align 8 dereferenceable(48) %vars, ptr noundef nonnull align 8 dereferenceable(48) %0)
  %1 = load ptr, ptr %printer.addr, align 8
  %vtable = load ptr, ptr %1, align 8
  %vfn = getelementptr inbounds ptr, ptr %vtable, i64 2
  %2 = load ptr, ptr %vfn, align 8
  invoke void %2(ptr noundef nonnull align 8 dereferenceable(8) %1, ptr noundef nonnull align 8 dereferenceable(48) %vars, ptr noundef @.str.53)
          to label %invoke.cont unwind label %lpad

invoke.cont:                                      ; preds = %entry
  %3 = load ptr, ptr %printer.addr, align 8
  %vtable1 = load ptr, ptr %3, align 8
  %vfn2 = getelementptr inbounds ptr, ptr %vtable1, i64 5
  %4 = load ptr, ptr %vfn2, align 8
  invoke void %4(ptr noundef nonnull align 8 dereferenceable(8) %3)
          to label %invoke.cont3 unwind label %lpad

invoke.cont3:                                     ; preds = %invoke.cont
  store i32 0, ptr %it, align 4
  br label %for.cond

for.cond:                                         ; preds = %for.inc, %invoke.cont3
  %5 = load i32, ptr %it, align 4
  %6 = load ptr, ptr %service.addr, align 8
  %vtable4 = load ptr, ptr %6, align 8
  %vfn5 = getelementptr inbounds ptr, ptr %vtable4, i64 8
  %7 = load ptr, ptr %vfn5, align 8
  %call = invoke noundef i32 %7(ptr noundef nonnull align 8 dereferenceable(8) %6)
          to label %invoke.cont6 unwind label %lpad

invoke.cont6:                                     ; preds = %for.cond
  %cmp = icmp slt i32 %5, %call
  br i1 %cmp, label %for.body, label %for.end

for.body:                                         ; preds = %invoke.cont6
  %8 = load ptr, ptr %service.addr, align 8
  %9 = load i32, ptr %it, align 4
  %vtable7 = load ptr, ptr %8, align 8
  %vfn8 = getelementptr inbounds ptr, ptr %vtable7, i64 9
  %10 = load ptr, ptr %vfn8, align 8
  invoke void %10(ptr sret(%"class.std::unique_ptr.9") align 8 %method, ptr noundef nonnull align 8 dereferenceable(8) %8, i32 noundef %9)
          to label %invoke.cont9 unwind label %lpad

invoke.cont9:                                     ; preds = %for.body
  %call10 = call noundef ptr @_ZNKSt10unique_ptrIKN14grpc_generator6MethodESt14default_deleteIS2_EEptEv(ptr noundef nonnull align 8 dereferenceable(8) %method) #10
  %vtable11 = load ptr, ptr %call10, align 8
  %vfn12 = getelementptr inbounds ptr, ptr %vtable11, i64 5
  %11 = load ptr, ptr %vfn12, align 8
  invoke void %11(ptr sret(%"class.std::__cxx11::basic_string") align 8 %ref.tmp, ptr noundef nonnull align 8 dereferenceable(8) %call10)
          to label %invoke.cont14 unwind label %lpad13

invoke.cont14:                                    ; preds = %invoke.cont9
  call void @_ZNSaIcEC1Ev(ptr noundef nonnull align 1 dereferenceable(1) %ref.tmp16) #10
  invoke void @_ZNSt7__cxx1112basic_stringIcSt11char_traitsIcESaIcEEC2IS3_EEPKcRKS3_(ptr noundef nonnull align 8 dereferenceable(32) %ref.tmp15, ptr noundef @.str.35, ptr noundef nonnull align 1 dereferenceable(1) %ref.tmp16)
          to label %invoke.cont18 unwind label %lpad17

invoke.cont18:                                    ; preds = %invoke.cont14
  %call21 = invoke noundef nonnull align 8 dereferenceable(32) ptr @_ZNSt3mapINSt7__cxx1112basic_stringIcSt11char_traitsIcESaIcEEES5_St4lessIS5_ESaISt4pairIKS5_S5_EEEixEOS5_(ptr noundef nonnull align 8 dereferenceable(48) %vars, ptr noundef nonnull align 8 dereferenceable(32) %ref.tmp15)
          to label %invoke.cont20 unwind label %lpad19

invoke.cont20:                                    ; preds = %invoke.cont18
  %call22 = call noundef nonnull align 8 dereferenceable(32) ptr @_ZNSt7__cxx1112basic_stringIcSt11char_traitsIcESaIcEEaSEOS4_(ptr noundef nonnull align 8 dereferenceable(32) %call21, ptr noundef nonnull align 8 dereferenceable(32) %ref.tmp) #10
  call void @_ZNSt7__cxx1112basic_stringIcSt11char_traitsIcESaIcEED1Ev(ptr noundef nonnull align 8 dereferenceable(32) %ref.tmp15) #10
  call void @_ZNSaIcED1Ev(ptr noundef nonnull align 1 dereferenceable(1) %ref.tmp16) #10
  call void @_ZNSt7__cxx1112basic_stringIcSt11char_traitsIcESaIcEED1Ev(ptr noundef nonnull align 8 dereferenceable(32) %ref.tmp) #10
  %12 = load ptr, ptr %printer.addr, align 8
  %vtable24 = load ptr, ptr %12, align 8
  %vfn25 = getelementptr inbounds ptr, ptr %vtable24, i64 2
  %13 = load ptr, ptr %vfn25, align 8
  invoke void %13(ptr noundef nonnull align 8 dereferenceable(8) %12, ptr noundef nonnull align 8 dereferenceable(48) %vars, ptr noundef @.str.54)
          to label %invoke.cont26 unwind label %lpad13

invoke.cont26:                                    ; preds = %invoke.cont20
  call void @_ZNSt10unique_ptrIKN14grpc_generator6MethodESt14default_deleteIS2_EED2Ev(ptr noundef nonnull align 8 dereferenceable(8) %method) #10
  br label %for.inc

for.inc:                                          ; preds = %invoke.cont26
  %14 = load i32, ptr %it, align 4
  %inc = add nsw i32 %14, 1
  store i32 %inc, ptr %it, align 4
  br label %for.cond, !llvm.loop !9

lpad:                                             ; preds = %invoke.cont43, %invoke.cont40, %invoke.cont37, %invoke.cont34, %invoke.cont33, %invoke.cont30, %for.end, %for.body, %for.cond, %invoke.cont, %entry
  %15 = landingpad { ptr, i32 }
          cleanup
  %16 = extractvalue { ptr, i32 } %15, 0
  store ptr %16, ptr %exn.slot, align 8
  %17 = extractvalue { ptr, i32 } %15, 1
  store i32 %17, ptr %ehselector.slot, align 4
  br label %ehcleanup45

lpad13:                                           ; preds = %invoke.cont20, %invoke.cont9
  %18 = landingpad { ptr, i32 }
          cleanup
  %19 = extractvalue { ptr, i32 } %18, 0
  store ptr %19, ptr %exn.slot, align 8
  %20 = extractvalue { ptr, i32 } %18, 1
  store i32 %20, ptr %ehselector.slot, align 4
  br label %ehcleanup27

lpad17:                                           ; preds = %invoke.cont14
  %21 = landingpad { ptr, i32 }
          cleanup
  %22 = extractvalue { ptr, i32 } %21, 0
  store ptr %22, ptr %exn.slot, align 8
  %23 = extractvalue { ptr, i32 } %21, 1
  store i32 %23, ptr %ehselector.slot, align 4
  br label %ehcleanup

lpad19:                                           ; preds = %invoke.cont18
  %24 = landingpad { ptr, i32 }
          cleanup
  %25 = extractvalue { ptr, i32 } %24, 0
  store ptr %25, ptr %exn.slot, align 8
  %26 = extractvalue { ptr, i32 } %24, 1
  store i32 %26, ptr %ehselector.slot, align 4
  call void @_ZNSt7__cxx1112basic_stringIcSt11char_traitsIcESaIcEED1Ev(ptr noundef nonnull align 8 dereferenceable(32) %ref.tmp15) #10
  br label %ehcleanup

ehcleanup:                                        ; preds = %lpad19, %lpad17
  call void @_ZNSaIcED1Ev(ptr noundef nonnull align 1 dereferenceable(1) %ref.tmp16) #10
  call void @_ZNSt7__cxx1112basic_stringIcSt11char_traitsIcESaIcEED1Ev(ptr noundef nonnull align 8 dereferenceable(32) %ref.tmp) #10
  br label %ehcleanup27

ehcleanup27:                                      ; preds = %ehcleanup, %lpad13
  call void @_ZNSt10unique_ptrIKN14grpc_generator6MethodESt14default_deleteIS2_EED2Ev(ptr noundef nonnull align 8 dereferenceable(8) %method) #10
  br label %ehcleanup45

for.end:                                          ; preds = %invoke.cont6
  %27 = load ptr, ptr %printer.addr, align 8
  %vtable28 = load ptr, ptr %27, align 8
  %vfn29 = getelementptr inbounds ptr, ptr %vtable28, i64 6
  %28 = load ptr, ptr %vfn29, align 8
  invoke void %28(ptr noundef nonnull align 8 dereferenceable(8) %27)
          to label %invoke.cont30 unwind label %lpad

invoke.cont30:                                    ; preds = %for.end
  %29 = load ptr, ptr %printer.addr, align 8
  %vtable31 = load ptr, ptr %29, align 8
  %vfn32 = getelementptr inbounds ptr, ptr %vtable31, i64 3
  %30 = load ptr, ptr %vfn32, align 8
  invoke void %30(ptr noundef nonnull align 8 dereferenceable(8) %29, ptr noundef @.str.27)
          to label %invoke.cont33 unwind label %lpad

invoke.cont33:                                    ; preds = %invoke.cont30
  %31 = load ptr, ptr %service.addr, align 8
  %32 = load ptr, ptr %printer.addr, align 8
  invoke void @_ZN17grpc_ts_generator12_GLOBAL__N_118GenerateInterfacesEPKN14grpc_generator7ServiceEPNS1_7PrinterEPSt3mapINSt7__cxx1112basic_stringIcSt11char_traitsIcESaIcEEESD_St4lessISD_ESaISt4pairIKSD_SD_EEE(ptr noundef %31, ptr noundef %32, ptr noundef %vars)
          to label %invoke.cont34 unwind label %lpad

invoke.cont34:                                    ; preds = %invoke.cont33
  %33 = load ptr, ptr %printer.addr, align 8
  %vtable35 = load ptr, ptr %33, align 8
  %vfn36 = getelementptr inbounds ptr, ptr %vtable35, i64 3
  %34 = load ptr, ptr %vfn36, align 8
  invoke void %34(ptr noundef nonnull align 8 dereferenceable(8) %33, ptr noundef @.str.6)
          to label %invoke.cont37 unwind label %lpad

invoke.cont37:                                    ; preds = %invoke.cont34
  %35 = load ptr, ptr %printer.addr, align 8
  %vtable38 = load ptr, ptr %35, align 8
  %vfn39 = getelementptr inbounds ptr, ptr %vtable38, i64 2
  %36 = load ptr, ptr %vfn39, align 8
  invoke void %36(ptr noundef nonnull align 8 dereferenceable(8) %35, ptr noundef nonnull align 8 dereferenceable(48) %vars, ptr noundef @.str.55)
          to label %invoke.cont40 unwind label %lpad

invoke.cont40:                                    ; preds = %invoke.cont37
  %37 = load ptr, ptr %printer.addr, align 8
  %vtable41 = load ptr, ptr %37, align 8
  %vfn42 = getelementptr inbounds ptr, ptr %vtable41, i64 3
  %38 = load ptr, ptr %vfn42, align 8
  invoke void %38(ptr noundef nonnull align 8 dereferenceable(8) %37, ptr noundef @.str.6)
          to label %invoke.cont43 unwind label %lpad

invoke.cont43:                                    ; preds = %invoke.cont40
  %39 = load ptr, ptr %service.addr, align 8
  %40 = load ptr, ptr %printer.addr, align 8
  invoke void @_ZN17grpc_ts_generator12_GLOBAL__N_125GenerateExportedInterfaceEPKN14grpc_generator7ServiceEPNS1_7PrinterEPSt3mapINSt7__cxx1112basic_stringIcSt11char_traitsIcESaIcEEESD_St4lessISD_ESaISt4pairIKSD_SD_EEE(ptr noundef %39, ptr noundef %40, ptr noundef %vars)
          to label %invoke.cont44 unwind label %lpad

invoke.cont44:                                    ; preds = %invoke.cont43
  call void @_ZNSt3mapINSt7__cxx1112basic_stringIcSt11char_traitsIcESaIcEEES5_St4lessIS5_ESaISt4pairIKS5_S5_EEED2Ev(ptr noundef nonnull align 8 dereferenceable(48) %vars) #10
  ret void

ehcleanup45:                                      ; preds = %ehcleanup27, %lpad
  call void @_ZNSt3mapINSt7__cxx1112basic_stringIcSt11char_traitsIcESaIcEEES5_St4lessIS5_ESaISt4pairIKS5_S5_EEED2Ev(ptr noundef nonnull align 8 dereferenceable(48) %vars) #10
  br label %eh.resume

eh.resume:                                        ; preds = %ehcleanup45
  %exn = load ptr, ptr %exn.slot, align 8
  %sel = load i32, ptr %ehselector.slot, align 4
  %lpad.val = insertvalue { ptr, i32 } poison, ptr %exn, 0
  %lpad.val46 = insertvalue { ptr, i32 } %lpad.val, i32 %sel, 1
  resume { ptr, i32 } %lpad.val46
}

; Function Attrs: mustprogress nounwind uwtable
define linkonce_odr dso_local noundef ptr @_ZNKSt10unique_ptrIN14grpc_generator7PrinterESt14default_deleteIS1_EEptEv(ptr noundef nonnull align 8 dereferenceable(8) %this) #2 comdat align 2 {
entry:
  %this.addr = alloca ptr, align 8
  store ptr %this, ptr %this.addr, align 8
  %this1 = load ptr, ptr %this.addr, align 8
  %call = call noundef ptr @_ZNKSt10unique_ptrIN14grpc_generator7PrinterESt14default_deleteIS1_EE3getEv(ptr noundef nonnull align 8 dereferenceable(8) %this1) #10
  ret ptr %call
}

; Function Attrs: mustprogress uwtable
define internal void @_ZN17grpc_ts_generator12_GLOBAL__N_123GenerateClientInterfaceEPKN14grpc_generator7ServiceEPNS1_7PrinterEPSt3mapINSt7__cxx1112basic_stringIcSt11char_traitsIcESaIcEEESD_St4lessISD_ESaISt4pairIKSD_SD_EEE(ptr noundef %service, ptr noundef %printer, ptr noundef %dictonary) #0 personality ptr @__gxx_personality_v0 {
entry:
  %service.addr = alloca ptr, align 8
  %printer.addr = alloca ptr, align 8
  %dictonary.addr = alloca ptr, align 8
  %vars = alloca %"class.std::map", align 8
  %exn.slot = alloca ptr, align 8
  %ehselector.slot = alloca i32, align 4
  %it = alloca i32, align 4
  %method = alloca %"class.std::unique_ptr.9", align 8
  %ref.tmp = alloca %"class.std::__cxx11::basic_string", align 8
  %ref.tmp15 = alloca %"class.std::__cxx11::basic_string", align 8
  %ref.tmp16 = alloca %"class.std::allocator", align 1
  %ref.tmp24 = alloca %"class.std::__cxx11::basic_string", align 8
  %agg.tmp = alloca %"class.std::vector", align 8
  %agg.tmp29 = alloca %"class.std::__cxx11::basic_string", align 8
  %ref.tmp37 = alloca %"class.std::__cxx11::basic_string", align 8
  %ref.tmp38 = alloca %"class.std::allocator", align 1
  %ref.tmp50 = alloca %"class.std::__cxx11::basic_string", align 8
  %agg.tmp51 = alloca %"class.std::vector", align 8
  %agg.tmp56 = alloca %"class.std::__cxx11::basic_string", align 8
  %ref.tmp64 = alloca %"class.std::__cxx11::basic_string", align 8
  %ref.tmp65 = alloca %"class.std::allocator", align 1
  %ref.tmp77 = alloca %"class.std::__cxx11::basic_string", align 8
  %ref.tmp78 = alloca %"class.std::allocator", align 1
  %cleanup.dest.slot = alloca i32, align 4
  store ptr %service, ptr %service.addr, align 8
  store ptr %printer, ptr %printer.addr, align 8
  store ptr %dictonary, ptr %dictonary.addr, align 8
  %0 = load ptr, ptr %dictonary.addr, align 8
  call void @_ZNSt3mapINSt7__cxx1112basic_stringIcSt11char_traitsIcESaIcEEES5_St4lessIS5_ESaISt4pairIKS5_S5_EEEC2ERKSC_(ptr noundef nonnull align 8 dereferenceable(48) %vars, ptr noundef nonnull align 8 dereferenceable(48) %0)
  %1 = load ptr, ptr %printer.addr, align 8
  %vtable = load ptr, ptr %1, align 8
  %vfn = getelementptr inbounds ptr, ptr %vtable, i64 2
  %2 = load ptr, ptr %vfn, align 8
  invoke void %2(ptr noundef nonnull align 8 dereferenceable(8) %1, ptr noundef nonnull align 8 dereferenceable(48) %vars, ptr noundef @.str.70)
          to label %invoke.cont unwind label %lpad

invoke.cont:                                      ; preds = %entry
  %3 = load ptr, ptr %printer.addr, align 8
  %vtable1 = load ptr, ptr %3, align 8
  %vfn2 = getelementptr inbounds ptr, ptr %vtable1, i64 5
  %4 = load ptr, ptr %vfn2, align 8
  invoke void %4(ptr noundef nonnull align 8 dereferenceable(8) %3)
          to label %invoke.cont3 unwind label %lpad

invoke.cont3:                                     ; preds = %invoke.cont
  store i32 0, ptr %it, align 4
  br label %for.cond

for.cond:                                         ; preds = %for.inc, %invoke.cont3
  %5 = load i32, ptr %it, align 4
  %6 = load ptr, ptr %service.addr, align 8
  %vtable4 = load ptr, ptr %6, align 8
  %vfn5 = getelementptr inbounds ptr, ptr %vtable4, i64 8
  %7 = load ptr, ptr %vfn5, align 8
  %call = invoke noundef i32 %7(ptr noundef nonnull align 8 dereferenceable(8) %6)
          to label %invoke.cont6 unwind label %lpad

invoke.cont6:                                     ; preds = %for.cond
  %cmp = icmp slt i32 %5, %call
  br i1 %cmp, label %for.body, label %for.end

for.body:                                         ; preds = %invoke.cont6
  %8 = load ptr, ptr %service.addr, align 8
  %9 = load i32, ptr %it, align 4
  %vtable7 = load ptr, ptr %8, align 8
  %vfn8 = getelementptr inbounds ptr, ptr %vtable7, i64 9
  %10 = load ptr, ptr %vfn8, align 8
  invoke void %10(ptr sret(%"class.std::unique_ptr.9") align 8 %method, ptr noundef nonnull align 8 dereferenceable(8) %8, i32 noundef %9)
          to label %invoke.cont9 unwind label %lpad

invoke.cont9:                                     ; preds = %for.body
  %call10 = call noundef ptr @_ZNKSt10unique_ptrIKN14grpc_generator6MethodESt14default_deleteIS2_EEptEv(ptr noundef nonnull align 8 dereferenceable(8) %method) #10
  %vtable11 = load ptr, ptr %call10, align 8
  %vfn12 = getelementptr inbounds ptr, ptr %vtable11, i64 5
  %11 = load ptr, ptr %vfn12, align 8
  invoke void %11(ptr sret(%"class.std::__cxx11::basic_string") align 8 %ref.tmp, ptr noundef nonnull align 8 dereferenceable(8) %call10)
          to label %invoke.cont14 unwind label %lpad13

invoke.cont14:                                    ; preds = %invoke.cont9
  call void @_ZNSaIcEC1Ev(ptr noundef nonnull align 1 dereferenceable(1) %ref.tmp16) #10
  invoke void @_ZNSt7__cxx1112basic_stringIcSt11char_traitsIcESaIcEEC2IS3_EEPKcRKS3_(ptr noundef nonnull align 8 dereferenceable(32) %ref.tmp15, ptr noundef @.str.35, ptr noundef nonnull align 1 dereferenceable(1) %ref.tmp16)
          to label %invoke.cont18 unwind label %lpad17

invoke.cont18:                                    ; preds = %invoke.cont14
  %call21 = invoke noundef nonnull align 8 dereferenceable(32) ptr @_ZNSt3mapINSt7__cxx1112basic_stringIcSt11char_traitsIcESaIcEEES5_St4lessIS5_ESaISt4pairIKS5_S5_EEEixEOS5_(ptr noundef nonnull align 8 dereferenceable(48) %vars, ptr noundef nonnull align 8 dereferenceable(32) %ref.tmp15)
          to label %invoke.cont20 unwind label %lpad19

invoke.cont20:                                    ; preds = %invoke.cont18
  %call22 = call noundef nonnull align 8 dereferenceable(32) ptr @_ZNSt7__cxx1112basic_stringIcSt11char_traitsIcESaIcEEaSEOS4_(ptr noundef nonnull align 8 dereferenceable(32) %call21, ptr noundef nonnull align 8 dereferenceable(32) %ref.tmp) #10
  call void @_ZNSt7__cxx1112basic_stringIcSt11char_traitsIcESaIcEED1Ev(ptr noundef nonnull align 8 dereferenceable(32) %ref.tmp15) #10
  call void @_ZNSaIcED1Ev(ptr noundef nonnull align 1 dereferenceable(1) %ref.tmp16) #10
  call void @_ZNSt7__cxx1112basic_stringIcSt11char_traitsIcESaIcEED1Ev(ptr noundef nonnull align 8 dereferenceable(32) %ref.tmp) #10
  %call25 = call noundef ptr @_ZNKSt10unique_ptrIKN14grpc_generator6MethodESt14default_deleteIS2_EEptEv(ptr noundef nonnull align 8 dereferenceable(8) %method) #10
  %vtable26 = load ptr, ptr %call25, align 8
  %vfn27 = getelementptr inbounds ptr, ptr %vtable26, i64 12
  %12 = load ptr, ptr %vfn27, align 8
  invoke void %12(ptr sret(%"class.std::vector") align 8 %agg.tmp, ptr noundef nonnull align 8 dereferenceable(8) %call25)
          to label %invoke.cont28 unwind label %lpad13

invoke.cont28:                                    ; preds = %invoke.cont20
  %call30 = call noundef ptr @_ZNKSt10unique_ptrIKN14grpc_generator6MethodESt14default_deleteIS2_EEptEv(ptr noundef nonnull align 8 dereferenceable(8) %method) #10
  %vtable31 = load ptr, ptr %call30, align 8
  %vfn32 = getelementptr inbounds ptr, ptr %vtable31, i64 13
  %13 = load ptr, ptr %vfn32, align 8
  invoke void %13(ptr sret(%"class.std::__cxx11::basic_string") align 8 %agg.tmp29, ptr noundef nonnull align 8 dereferenceable(8) %call30)
          to label %invoke.cont34 unwind label %lpad33

invoke.cont34:                                    ; preds = %invoke.cont28
  invoke void @_ZN17grpc_ts_generator12_GLOBAL__N_117GenerateNamespaceESt6vectorINSt7__cxx1112basic_stringIcSt11char_traitsIcESaIcEEESaIS7_EES7_b(ptr sret(%"class.std::__cxx11::basic_string") align 8 %ref.tmp24, ptr noundef %agg.tmp, ptr noundef %agg.tmp29, i1 noundef zeroext false)
          to label %invoke.cont36 unwind label %lpad35

invoke.cont36:                                    ; preds = %invoke.cont34
  call void @_ZNSaIcEC1Ev(ptr noundef nonnull align 1 dereferenceable(1) %ref.tmp38) #10
  invoke void @_ZNSt7__cxx1112basic_stringIcSt11char_traitsIcESaIcEEC2IS3_EEPKcRKS3_(ptr noundef nonnull align 8 dereferenceable(32) %ref.tmp37, ptr noundef @.str.9, ptr noundef nonnull align 1 dereferenceable(1) %ref.tmp38)
          to label %invoke.cont40 unwind label %lpad39

invoke.cont40:                                    ; preds = %invoke.cont36
  %call43 = invoke noundef nonnull align 8 dereferenceable(32) ptr @_ZNSt3mapINSt7__cxx1112basic_stringIcSt11char_traitsIcESaIcEEES5_St4lessIS5_ESaISt4pairIKS5_S5_EEEixEOS5_(ptr noundef nonnull align 8 dereferenceable(48) %vars, ptr noundef nonnull align 8 dereferenceable(32) %ref.tmp37)
          to label %invoke.cont42 unwind label %lpad41

invoke.cont42:                                    ; preds = %invoke.cont40
  %call44 = call noundef nonnull align 8 dereferenceable(32) ptr @_ZNSt7__cxx1112basic_stringIcSt11char_traitsIcESaIcEEaSEOS4_(ptr noundef nonnull align 8 dereferenceable(32) %call43, ptr noundef nonnull align 8 dereferenceable(32) %ref.tmp24) #10
  call void @_ZNSt7__cxx1112basic_stringIcSt11char_traitsIcESaIcEED1Ev(ptr noundef nonnull align 8 dereferenceable(32) %ref.tmp37) #10
  call void @_ZNSaIcED1Ev(ptr noundef nonnull align 1 dereferenceable(1) %ref.tmp38) #10
  call void @_ZNSt7__cxx1112basic_stringIcSt11char_traitsIcESaIcEED1Ev(ptr noundef nonnull align 8 dereferenceable(32) %ref.tmp24) #10
  call void @_ZNSt7__cxx1112basic_stringIcSt11char_traitsIcESaIcEED1Ev(ptr noundef nonnull align 8 dereferenceable(32) %agg.tmp29) #10
  call void @_ZNSt6vectorINSt7__cxx1112basic_stringIcSt11char_traitsIcESaIcEEESaIS5_EED2Ev(ptr noundef nonnull align 8 dereferenceable(24) %agg.tmp) #10
  %call52 = call noundef ptr @_ZNKSt10unique_ptrIKN14grpc_generator6MethodESt14default_deleteIS2_EEptEv(ptr noundef nonnull align 8 dereferenceable(8) %method) #10
  %vtable53 = load ptr, ptr %call52, align 8
  %vfn54 = getelementptr inbounds ptr, ptr %vtable53, i64 10
  %14 = load ptr, ptr %vfn54, align 8
  invoke void %14(ptr sret(%"class.std::vector") align 8 %agg.tmp51, ptr noundef nonnull align 8 dereferenceable(8) %call52)
          to label %invoke.cont55 unwind label %lpad13

invoke.cont55:                                    ; preds = %invoke.cont42
  %call57 = call noundef ptr @_ZNKSt10unique_ptrIKN14grpc_generator6MethodESt14default_deleteIS2_EEptEv(ptr noundef nonnull align 8 dereferenceable(8) %method) #10
  %vtable58 = load ptr, ptr %call57, align 8
  %vfn59 = getelementptr inbounds ptr, ptr %vtable58, i64 11
  %15 = load ptr, ptr %vfn59, align 8
  invoke void %15(ptr sret(%"class.std::__cxx11::basic_string") align 8 %agg.tmp56, ptr noundef nonnull align 8 dereferenceable(8) %call57)
          to label %invoke.cont61 unwind label %lpad60

invoke.cont61:                                    ; preds = %invoke.cont55
  invoke void @_ZN17grpc_ts_generator12_GLOBAL__N_117GenerateNamespaceESt6vectorINSt7__cxx1112basic_stringIcSt11char_traitsIcESaIcEEESaIS7_EES7_b(ptr sret(%"class.std::__cxx11::basic_string") align 8 %ref.tmp50, ptr noundef %agg.tmp51, ptr noundef %agg.tmp56, i1 noundef zeroext false)
          to label %invoke.cont63 unwind label %lpad62

invoke.cont63:                                    ; preds = %invoke.cont61
  call void @_ZNSaIcEC1Ev(ptr noundef nonnull align 1 dereferenceable(1) %ref.tmp65) #10
  invoke void @_ZNSt7__cxx1112basic_stringIcSt11char_traitsIcESaIcEEC2IS3_EEPKcRKS3_(ptr noundef nonnull align 8 dereferenceable(32) %ref.tmp64, ptr noundef @.str.10, ptr noundef nonnull align 1 dereferenceable(1) %ref.tmp65)
          to label %invoke.cont67 unwind label %lpad66

invoke.cont67:                                    ; preds = %invoke.cont63
  %call70 = invoke noundef nonnull align 8 dereferenceable(32) ptr @_ZNSt3mapINSt7__cxx1112basic_stringIcSt11char_traitsIcESaIcEEES5_St4lessIS5_ESaISt4pairIKS5_S5_EEEixEOS5_(ptr noundef nonnull align 8 dereferenceable(48) %vars, ptr noundef nonnull align 8 dereferenceable(32) %ref.tmp64)
          to label %invoke.cont69 unwind label %lpad68

invoke.cont69:                                    ; preds = %invoke.cont67
  %call71 = call noundef nonnull align 8 dereferenceable(32) ptr @_ZNSt7__cxx1112basic_stringIcSt11char_traitsIcESaIcEEaSEOS4_(ptr noundef nonnull align 8 dereferenceable(32) %call70, ptr noundef nonnull align 8 dereferenceable(32) %ref.tmp50) #10
  call void @_ZNSt7__cxx1112basic_stringIcSt11char_traitsIcESaIcEED1Ev(ptr noundef nonnull align 8 dereferenceable(32) %ref.tmp64) #10
  call void @_ZNSaIcED1Ev(ptr noundef nonnull align 1 dereferenceable(1) %ref.tmp65) #10
  call void @_ZNSt7__cxx1112basic_stringIcSt11char_traitsIcESaIcEED1Ev(ptr noundef nonnull align 8 dereferenceable(32) %ref.tmp50) #10
  call void @_ZNSt7__cxx1112basic_stringIcSt11char_traitsIcESaIcEED1Ev(ptr noundef nonnull align 8 dereferenceable(32) %agg.tmp56) #10
  call void @_ZNSt6vectorINSt7__cxx1112basic_stringIcSt11char_traitsIcESaIcEEESaIS5_EED2Ev(ptr noundef nonnull align 8 dereferenceable(24) %agg.tmp51) #10
  call void @_ZNSaIcEC1Ev(ptr noundef nonnull align 1 dereferenceable(1) %ref.tmp78) #10
  invoke void @_ZNSt7__cxx1112basic_stringIcSt11char_traitsIcESaIcEEC2IS3_EEPKcRKS3_(ptr noundef nonnull align 8 dereferenceable(32) %ref.tmp77, ptr noundef @.str.71, ptr noundef nonnull align 1 dereferenceable(1) %ref.tmp78)
          to label %invoke.cont80 unwind label %lpad79

invoke.cont80:                                    ; preds = %invoke.cont69
  %call83 = invoke noundef nonnull align 8 dereferenceable(32) ptr @_ZNSt3mapINSt7__cxx1112basic_stringIcSt11char_traitsIcESaIcEEES5_St4lessIS5_ESaISt4pairIKS5_S5_EEEixEOS5_(ptr noundef nonnull align 8 dereferenceable(48) %vars, ptr noundef nonnull align 8 dereferenceable(32) %ref.tmp77)
          to label %invoke.cont82 unwind label %lpad81

invoke.cont82:                                    ; preds = %invoke.cont80
  %call85 = invoke noundef nonnull align 8 dereferenceable(32) ptr @_ZNSt7__cxx1112basic_stringIcSt11char_traitsIcESaIcEEaSEPKc(ptr noundef nonnull align 8 dereferenceable(32) %call83, ptr noundef @.str.19)
          to label %invoke.cont84 unwind label %lpad81

invoke.cont84:                                    ; preds = %invoke.cont82
  call void @_ZNSt7__cxx1112basic_stringIcSt11char_traitsIcESaIcEED1Ev(ptr noundef nonnull align 8 dereferenceable(32) %ref.tmp77) #10
  call void @_ZNSaIcED1Ev(ptr noundef nonnull align 1 dereferenceable(1) %ref.tmp78) #10
  %call88 = call noundef ptr @_ZNKSt10unique_ptrIKN14grpc_generator6MethodESt14default_deleteIS2_EEptEv(ptr noundef nonnull align 8 dereferenceable(8) %method) #10
  %vtable89 = load ptr, ptr %call88, align 8
  %vfn90 = getelementptr inbounds ptr, ptr %vtable89, i64 15
  %16 = load ptr, ptr %vfn90, align 8
  %call92 = invoke noundef zeroext i1 %16(ptr noundef nonnull align 8 dereferenceable(8) %call88)
          to label %invoke.cont91 unwind label %lpad13

invoke.cont91:                                    ; preds = %invoke.cont84
  br i1 %call92, label %if.then, label %if.end

if.then:                                          ; preds = %invoke.cont91
  %17 = load ptr, ptr %printer.addr, align 8
  invoke void @_ZN17grpc_ts_generator12_GLOBAL__N_128GenerateUnaryClientInterfaceEPN14grpc_generator7PrinterEPSt3mapINSt7__cxx1112basic_stringIcSt11char_traitsIcESaIcEEESA_St4lessISA_ESaISt4pairIKSA_SA_EEE(ptr noundef %17, ptr noundef %vars)
          to label %invoke.cont93 unwind label %lpad13

invoke.cont93:                                    ; preds = %if.then
  store i32 4, ptr %cleanup.dest.slot, align 4
  br label %cleanup

lpad:                                             ; preds = %invoke.cont121, %for.end, %for.body, %for.cond, %invoke.cont, %entry
  %18 = landingpad { ptr, i32 }
          cleanup
  %19 = extractvalue { ptr, i32 } %18, 0
  store ptr %19, ptr %exn.slot, align 8
  %20 = extractvalue { ptr, i32 } %18, 1
  store i32 %20, ptr %ehselector.slot, align 4
  br label %ehcleanup125

lpad13:                                           ; preds = %if.then115, %if.end109, %if.then107, %if.end101, %if.then99, %if.end, %if.then, %invoke.cont84, %invoke.cont42, %invoke.cont20, %invoke.cont9
  %21 = landingpad { ptr, i32 }
          cleanup
  %22 = extractvalue { ptr, i32 } %21, 0
  store ptr %22, ptr %exn.slot, align 8
  %23 = extractvalue { ptr, i32 } %21, 1
  store i32 %23, ptr %ehselector.slot, align 4
  br label %ehcleanup118

lpad17:                                           ; preds = %invoke.cont14
  %24 = landingpad { ptr, i32 }
          cleanup
