target datalayout = "e-m:e-p270:32:32-p271:32:32-p272:64:64-i64:64-i128:128-f80:128-n8:16:32:64-S128"
target triple = "x86_64-unknown-linux-gnu"

%"class.std::ios_base::Init" = type { i8 }
%"struct.google::SiteFlag" = type { ptr, ptr, i64, ptr }
%"class.proxygen::CodecErrorResponseHandler" = type { %"class.proxygen::HTTPTransactionHandler", ptr }
%"class.proxygen::HTTPTransactionHandler" = type { %"struct.proxygen::TraceEventObserver" }
%"struct.proxygen::TraceEventObserver" = type { ptr }
%"class.google::LogMessageVoidify" = type { i8 }
%"class.google::LogMessage" = type { ptr, ptr, %"struct.google::LogMessageTime" }
%"struct.google::LogMessageTime" = type { %struct.tm, i64, i32, i64 }
%struct.tm = type { i32, i32, i32, i32, i32, i32, i32, i32, i32, i64, ptr }
%"class.std::unique_ptr.2" = type { %"struct.std::__uniq_ptr_data.3" }
%"struct.std::__uniq_ptr_data.3" = type { %"class.std::__uniq_ptr_impl.4" }
%"class.std::__uniq_ptr_impl.4" = type { %"class.std::tuple.5" }
%"class.std::tuple.5" = type { %"struct.std::_Tuple_impl.6" }
%"struct.std::_Tuple_impl.6" = type { %"struct.std::_Head_base.9" }
%"struct.std::_Head_base.9" = type { ptr }
%"class.google::LogMessageFatal" = type { %"class.google::LogMessage" }
%"struct.proxygen::WebTransport::BidiStreamHandle" = type { ptr, ptr }

$_ZN8proxygen22HTTPTransactionHandlerC2Ev = comdat any

$__clang_call_terminate = comdat any

$_ZN6google17LogMessageVoidifyC2Ev = comdat any

$_ZN6google17LogMessageVoidifyanERSo = comdat any

$_ZN8proxygen18TraceEventObserver19traceEventAvailableENS_10TraceEventE = comdat any

$_ZN8proxygen18TraceEventObserver15emitTraceEventsESt6vectorINS_10TraceEventESaIS2_EE = comdat any

$_ZN8proxygen22HTTPTransactionHandler16onBodyWithOffsetEmSt10unique_ptrIN5folly5IOBufESt14default_deleteIS3_EE = comdat any

$_ZN8proxygen22HTTPTransactionHandler13onChunkHeaderEm = comdat any

$_ZN8proxygen22HTTPTransactionHandler15onChunkCompleteEv = comdat any

$_ZN8proxygen22HTTPTransactionHandler20onInvariantViolationERKNS_13HTTPExceptionE = comdat any

$_ZN8proxygen25CodecErrorResponseHandler14onEgressPausedEv = comdat any

$_ZN8proxygen25CodecErrorResponseHandler15onEgressResumedEv = comdat any

$_ZN8proxygen22HTTPTransactionHandler19onPushedTransactionEPNS_15HTTPTransactionE = comdat any

$_ZN8proxygen22HTTPTransactionHandler15onExTransactionEPNS_15HTTPTransactionE = comdat any

$_ZN8proxygen22HTTPTransactionHandler8onGoawayENS_9ErrorCodeE = comdat any

$_ZN8proxygen22HTTPTransactionHandler10onDatagramESt10unique_ptrIN5folly5IOBufESt14default_deleteIS3_EE = comdat any

$_ZN8proxygen22HTTPTransactionHandler24onWebTransportBidiStreamEmNS_12WebTransport16BidiStreamHandleE = comdat any

$_ZN8proxygen22HTTPTransactionHandler23onWebTransportUniStreamEmPNS_12WebTransport16StreamReadHandleE = comdat any

$_ZN8proxygen22HTTPTransactionHandler26onWebTransportSessionCloseEN5folly8OptionalIjEE = comdat any

$_ZN8proxygen18TraceEventObserverC2Ev = comdat any

$_ZN8proxygen22HTTPTransactionHandlerD2Ev = comdat any

$_ZN8proxygen22HTTPTransactionHandlerD0Ev = comdat any

$_ZN8proxygen18TraceEventObserverD2Ev = comdat any

$_ZN8proxygen18TraceEventObserverD0Ev = comdat any

$_ZNSt10unique_ptrIN5folly5IOBufESt14default_deleteIS1_EEC2EOS4_ = comdat any

$_ZNSt10unique_ptrIN5folly5IOBufESt14default_deleteIS1_EED2Ev = comdat any

$_ZNSt15__uniq_ptr_dataIN5folly5IOBufESt14default_deleteIS1_ELb1ELb1EEC2EOS4_ = comdat any

$_ZNSt15__uniq_ptr_implIN5folly5IOBufESt14default_deleteIS1_EEC2EOS4_ = comdat any

$_ZNSt5tupleIJPN5folly5IOBufESt14default_deleteIS1_EEEC2EOS5_ = comdat any

$_ZNSt15__uniq_ptr_implIN5folly5IOBufESt14default_deleteIS1_EE6_M_ptrEv = comdat any

$_ZNSt11_Tuple_implILm0EJPN5folly5IOBufESt14default_deleteIS1_EEEC2EOS5_ = comdat any

$_ZNSt11_Tuple_implILm1EJSt14default_deleteIN5folly5IOBufEEEEC2EOS4_ = comdat any

$_ZSt3getILm0EJPN5folly5IOBufESt14default_deleteIS1_EEERNSt13tuple_elementIXT_ESt5tupleIJDpT0_EEE4typeERS9_ = comdat any

$_ZSt12__get_helperILm0EPN5folly5IOBufEJSt14default_deleteIS1_EEERT0_RSt11_Tuple_implIXT_EJS5_DpT1_EE = comdat any

$_ZNSt11_Tuple_implILm0EJPN5folly5IOBufESt14default_deleteIS1_EEE7_M_headERS5_ = comdat any

$_ZNSt10_Head_baseILm0EPN5folly5IOBufELb0EE7_M_headERS3_ = comdat any

$_ZNSt10unique_ptrIN5folly5IOBufESt14default_deleteIS1_EE11get_deleterEv = comdat any

$_ZNKSt14default_deleteIN5folly5IOBufEEclEPS1_ = comdat any

$_ZNSt15__uniq_ptr_implIN5folly5IOBufESt14default_deleteIS1_EE10_M_deleterEv = comdat any

$_ZSt3getILm1EJPN5folly5IOBufESt14default_deleteIS1_EEERNSt13tuple_elementIXT_ESt5tupleIJDpT0_EEE4typeERS9_ = comdat any

$_ZSt12__get_helperILm1ESt14default_deleteIN5folly5IOBufEEJEERT0_RSt11_Tuple_implIXT_EJS4_DpT1_EE = comdat any

$_ZNSt11_Tuple_implILm1EJSt14default_deleteIN5folly5IOBufEEEE7_M_headERS4_ = comdat any

$_ZNSt10_Head_baseILm1ESt14default_deleteIN5folly5IOBufEELb1EE7_M_headERS4_ = comdat any

$_ZTSN8proxygen22HTTPTransactionHandlerE = comdat any

$_ZTSN8proxygen18TraceEventObserverE = comdat any

$_ZTIN8proxygen18TraceEventObserverE = comdat any

$_ZTIN8proxygen22HTTPTransactionHandlerE = comdat any

$_ZTVN8proxygen22HTTPTransactionHandlerE = comdat any

$_ZTVN8proxygen18TraceEventObserverE = comdat any

@_ZStL8__ioinit = internal global %"class.std::ios_base::Init" zeroinitializer, align 1
@__dso_handle = external hidden global i8
@_ZTVN8proxygen25CodecErrorResponseHandlerE = unnamed_addr constant { [27 x ptr] } { [27 x ptr] [ptr null, ptr @_ZTIN8proxygen25CodecErrorResponseHandlerE, ptr @_ZN8proxygen25CodecErrorResponseHandlerD1Ev, ptr @_ZN8proxygen25CodecErrorResponseHandlerD0Ev, ptr @_ZN8proxygen18TraceEventObserver19traceEventAvailableENS_10TraceEventE, ptr @_ZN8proxygen18TraceEventObserver15emitTraceEventsESt6vectorINS_10TraceEventESaIS2_EE, ptr @_ZN8proxygen25CodecErrorResponseHandler14setTransactionEPNS_15HTTPTransactionE, ptr @_ZN8proxygen25CodecErrorResponseHandler17detachTransactionEv, ptr @_ZN8proxygen25CodecErrorResponseHandler17onHeadersCompleteESt10unique_ptrINS_11HTTPMessageESt14default_deleteIS2_EE, ptr @_ZN8proxygen25CodecErrorResponseHandler6onBodyESt10unique_ptrIN5folly5IOBufESt14default_deleteIS3_EE, ptr @_ZN8proxygen22HTTPTransactionHandler16onBodyWithOffsetEmSt10unique_ptrIN5folly5IOBufESt14default_deleteIS3_EE, ptr @_ZN8proxygen22HTTPTransactionHandler13onChunkHeaderEm, ptr @_ZN8proxygen22HTTPTransactionHandler15onChunkCompleteEv, ptr @_ZN8proxygen25CodecErrorResponseHandler10onTrailersESt10unique_ptrINS_11HTTPHeadersESt14default_deleteIS2_EE, ptr @_ZN8proxygen25CodecErrorResponseHandler5onEOMEv, ptr @_ZN8proxygen25CodecErrorResponseHandler9onUpgradeENS_15UpgradeProtocolE, ptr @_ZN8proxygen25CodecErrorResponseHandler7onErrorERKNS_13HTTPExceptionE, ptr @_ZN8proxygen22HTTPTransactionHandler20onInvariantViolationERKNS_13HTTPExceptionE, ptr @_ZN8proxygen25CodecErrorResponseHandler14onEgressPausedEv, ptr @_ZN8proxygen25CodecErrorResponseHandler15onEgressResumedEv, ptr @_ZN8proxygen22HTTPTransactionHandler19onPushedTransactionEPNS_15HTTPTransactionE, ptr @_ZN8proxygen22HTTPTransactionHandler15onExTransactionEPNS_15HTTPTransactionE, ptr @_ZN8proxygen22HTTPTransactionHandler8onGoawayENS_9ErrorCodeE, ptr @_ZN8proxygen22HTTPTransactionHandler10onDatagramESt10unique_ptrIN5folly5IOBufESt14default_deleteIS3_EE, ptr @_ZN8proxygen22HTTPTransactionHandler24onWebTransportBidiStreamEmNS_12WebTransport16BidiStreamHandleE, ptr @_ZN8proxygen22HTTPTransactionHandler23onWebTransportUniStreamEmPNS_12WebTransport16StreamReadHandleE, ptr @_ZN8proxygen22HTTPTransactionHandler26onWebTransportSessionCloseEN5folly8OptionalIjEE] }, align 8
@_ZZN8proxygen25CodecErrorResponseHandler17onHeadersCompleteESt10unique_ptrINS_11HTTPMessageESt14default_deleteIS2_EEE8vlocal__ = internal global %"struct.google::SiteFlag" zeroinitializer, align 8
@_ZN3fLI7FLAGS_vE = external global i32, align 4
@.str = private unnamed_addr constant [151 x i8] c"generated/home/dtcxzyw/WorkSpace/Projects/compilers/llvm-opt-benchmark/bench/proxygen/proxygen/proxygen/lib/http/session/CodecErrorResponseHandler.cpp\00", align 1
@.str.1 = private unnamed_addr constant [19 x i8] c"discarding headers\00", align 1
@_ZZN8proxygen25CodecErrorResponseHandler6onBodyESt10unique_ptrIN5folly5IOBufESt14default_deleteIS3_EEE8vlocal__ = internal global %"struct.google::SiteFlag" zeroinitializer, align 8
@.str.2 = private unnamed_addr constant [24 x i8] c"discarding request body\00", align 1
@_ZZN8proxygen25CodecErrorResponseHandler10onTrailersESt10unique_ptrINS_11HTTPHeadersESt14default_deleteIS2_EEE8vlocal__ = internal global %"struct.google::SiteFlag" zeroinitializer, align 8
@.str.3 = private unnamed_addr constant [28 x i8] c"discarding request trailers\00", align 1
@_ZZN8proxygen25CodecErrorResponseHandler7onErrorERKNS_13HTTPExceptionEE8vlocal__ = internal global %"struct.google::SiteFlag" zeroinitializer, align 8
@.str.4 = private unnamed_addr constant [18 x i8] c"processing error \00", align 1
@_ZTVN10__cxxabiv120__si_class_type_infoE = external global [0 x ptr]
@_ZTSN8proxygen25CodecErrorResponseHandlerE = constant [39 x i8] c"N8proxygen25CodecErrorResponseHandlerE\00", align 1
@_ZTSN8proxygen22HTTPTransactionHandlerE = linkonce_odr constant [36 x i8] c"N8proxygen22HTTPTransactionHandlerE\00", comdat, align 1
@_ZTVN10__cxxabiv117__class_type_infoE = external global [0 x ptr]
@_ZTSN8proxygen18TraceEventObserverE = linkonce_odr constant [32 x i8] c"N8proxygen18TraceEventObserverE\00", comdat, align 1
@_ZTIN8proxygen18TraceEventObserverE = linkonce_odr constant { ptr, ptr } { ptr getelementptr inbounds (ptr, ptr @_ZTVN10__cxxabiv117__class_type_infoE, i64 2), ptr @_ZTSN8proxygen18TraceEventObserverE }, comdat, align 8
@_ZTIN8proxygen22HTTPTransactionHandlerE = linkonce_odr constant { ptr, ptr, ptr } { ptr getelementptr inbounds (ptr, ptr @_ZTVN10__cxxabiv120__si_class_type_infoE, i64 2), ptr @_ZTSN8proxygen22HTTPTransactionHandlerE, ptr @_ZTIN8proxygen18TraceEventObserverE }, comdat, align 8
@_ZTIN8proxygen25CodecErrorResponseHandlerE = constant { ptr, ptr, ptr } { ptr getelementptr inbounds (ptr, ptr @_ZTVN10__cxxabiv120__si_class_type_infoE, i64 2), ptr @_ZTSN8proxygen25CodecErrorResponseHandlerE, ptr @_ZTIN8proxygen22HTTPTransactionHandlerE }, align 8
@_ZTVN8proxygen22HTTPTransactionHandlerE = linkonce_odr unnamed_addr constant { [27 x ptr] } { [27 x ptr] [ptr null, ptr @_ZTIN8proxygen22HTTPTransactionHandlerE, ptr @_ZN8proxygen22HTTPTransactionHandlerD2Ev, ptr @_ZN8proxygen22HTTPTransactionHandlerD0Ev, ptr @_ZN8proxygen18TraceEventObserver19traceEventAvailableENS_10TraceEventE, ptr @_ZN8proxygen18TraceEventObserver15emitTraceEventsESt6vectorINS_10TraceEventESaIS2_EE, ptr @__cxa_pure_virtual, ptr @__cxa_pure_virtual, ptr @__cxa_pure_virtual, ptr @__cxa_pure_virtual, ptr @_ZN8proxygen22HTTPTransactionHandler16onBodyWithOffsetEmSt10unique_ptrIN5folly5IOBufESt14default_deleteIS3_EE, ptr @_ZN8proxygen22HTTPTransactionHandler13onChunkHeaderEm, ptr @_ZN8proxygen22HTTPTransactionHandler15onChunkCompleteEv, ptr @__cxa_pure_virtual, ptr @__cxa_pure_virtual, ptr @__cxa_pure_virtual, ptr @__cxa_pure_virtual, ptr @_ZN8proxygen22HTTPTransactionHandler20onInvariantViolationERKNS_13HTTPExceptionE, ptr @__cxa_pure_virtual, ptr @__cxa_pure_virtual, ptr @_ZN8proxygen22HTTPTransactionHandler19onPushedTransactionEPNS_15HTTPTransactionE, ptr @_ZN8proxygen22HTTPTransactionHandler15onExTransactionEPNS_15HTTPTransactionE, ptr @_ZN8proxygen22HTTPTransactionHandler8onGoawayENS_9ErrorCodeE, ptr @_ZN8proxygen22HTTPTransactionHandler10onDatagramESt10unique_ptrIN5folly5IOBufESt14default_deleteIS3_EE, ptr @_ZN8proxygen22HTTPTransactionHandler24onWebTransportBidiStreamEmNS_12WebTransport16BidiStreamHandleE, ptr @_ZN8proxygen22HTTPTransactionHandler23onWebTransportUniStreamEmPNS_12WebTransport16StreamReadHandleE, ptr @_ZN8proxygen22HTTPTransactionHandler26onWebTransportSessionCloseEN5folly8OptionalIjEE] }, comdat, align 8
@_ZTVN8proxygen18TraceEventObserverE = linkonce_odr unnamed_addr constant { [6 x ptr] } { [6 x ptr] [ptr null, ptr @_ZTIN8proxygen18TraceEventObserverE, ptr @_ZN8proxygen18TraceEventObserverD2Ev, ptr @_ZN8proxygen18TraceEventObserverD0Ev, ptr @_ZN8proxygen18TraceEventObserver19traceEventAvailableENS_10TraceEventE, ptr @_ZN8proxygen18TraceEventObserver15emitTraceEventsESt6vectorINS_10TraceEventESaIS2_EE] }, comdat, align 8
@.str.5 = private unnamed_addr constant [139 x i8] c"generated/home/dtcxzyw/WorkSpace/Projects/compilers/llvm-opt-benchmark/bench/proxygen/proxygen/proxygen/lib/http/session/HTTPTransaction.h\00", align 1
@llvm.global_ctors = appending global [1 x { i32, ptr, ptr }] [{ i32, ptr, ptr } { i32 65535, ptr @_GLOBAL__sub_I_CodecErrorResponseHandler.cpp, ptr null }]

@_ZN8proxygen25CodecErrorResponseHandlerC1ENS_9ErrorCodeE = unnamed_addr alias void (ptr, i8), ptr @_ZN8proxygen25CodecErrorResponseHandlerC2ENS_9ErrorCodeE
@_ZN8proxygen25CodecErrorResponseHandlerD1Ev = unnamed_addr alias void (ptr), ptr @_ZN8proxygen25CodecErrorResponseHandlerD2Ev

; Function Attrs: uwtable
define internal void @__cxx_global_var_init() #0 section ".text.startup" {
entry:
  call void @_ZNSt8ios_base4InitC1Ev(ptr noundef nonnull align 1 dereferenceable(1) @_ZStL8__ioinit)
  %0 = call i32 @__cxa_atexit(ptr @_ZNSt8ios_base4InitD1Ev, ptr @_ZStL8__ioinit, ptr @__dso_handle) #3
  ret void
}

declare void @_ZNSt8ios_base4InitC1Ev(ptr noundef nonnull align 1 dereferenceable(1)) unnamed_addr #1

; Function Attrs: nounwind
declare void @_ZNSt8ios_base4InitD1Ev(ptr noundef nonnull align 1 dereferenceable(1)) unnamed_addr #2

; Function Attrs: nounwind
declare i32 @__cxa_atexit(ptr, ptr, ptr) #3

; Function Attrs: mustprogress nounwind uwtable
define void @_ZN8proxygen25CodecErrorResponseHandlerC2ENS_9ErrorCodeE(ptr noundef nonnull align 8 dereferenceable(16) %this, i8 noundef zeroext %0) unnamed_addr #4 align 2 {
entry:
  %this.addr = alloca ptr, align 8
  %.addr = alloca i8, align 1
  store ptr %this, ptr %this.addr, align 8
  store i8 %0, ptr %.addr, align 1
  %this1 = load ptr, ptr %this.addr, align 8
  call void @_ZN8proxygen22HTTPTransactionHandlerC2Ev(ptr noundef nonnull align 8 dereferenceable(8) %this1) #3
  store ptr getelementptr inbounds ({ [27 x ptr] }, ptr @_ZTVN8proxygen25CodecErrorResponseHandlerE, i32 0, inrange i32 0, i32 2), ptr %this1, align 8
  %txn_ = getelementptr inbounds %"class.proxygen::CodecErrorResponseHandler", ptr %this1, i32 0, i32 1
  store ptr null, ptr %txn_, align 8
  ret void
}

; Function Attrs: mustprogress nounwind uwtable
define linkonce_odr void @_ZN8proxygen22HTTPTransactionHandlerC2Ev(ptr noundef nonnull align 8 dereferenceable(8) %this) unnamed_addr #4 comdat align 2 {
entry:
  %this.addr = alloca ptr, align 8
  store ptr %this, ptr %this.addr, align 8
  %this1 = load ptr, ptr %this.addr, align 8
  call void @_ZN8proxygen18TraceEventObserverC2Ev(ptr noundef nonnull align 8 dereferenceable(8) %this1) #3
  store ptr getelementptr inbounds ({ [27 x ptr] }, ptr @_ZTVN8proxygen22HTTPTransactionHandlerE, i32 0, inrange i32 0, i32 2), ptr %this1, align 8
  ret void
}

; Function Attrs: mustprogress nounwind uwtable
define void @_ZN8proxygen25CodecErrorResponseHandlerD2Ev(ptr noundef nonnull align 8 dereferenceable(16) %this) unnamed_addr #4 align 2 {
entry:
  %this.addr = alloca ptr, align 8
  store ptr %this, ptr %this.addr, align 8
  %this1 = load ptr, ptr %this.addr, align 8
  call void @_ZN8proxygen22HTTPTransactionHandlerD2Ev(ptr noundef nonnull align 8 dereferenceable(8) %this1) #3
  ret void
}

; Function Attrs: mustprogress nounwind uwtable
define void @_ZN8proxygen25CodecErrorResponseHandlerD0Ev(ptr noundef nonnull align 8 dereferenceable(16) %this) unnamed_addr #4 align 2 {
entry:
  %this.addr = alloca ptr, align 8
  store ptr %this, ptr %this.addr, align 8
  %this1 = load ptr, ptr %this.addr, align 8
  call void @_ZN8proxygen25CodecErrorResponseHandlerD1Ev(ptr noundef nonnull align 8 dereferenceable(16) %this1) #3
  call void @_ZdlPv(ptr noundef %this1) #10
  ret void
}

; Function Attrs: nobuiltin nounwind
declare void @_ZdlPv(ptr noundef) #5

; Function Attrs: mustprogress nounwind uwtable
define void @_ZN8proxygen25CodecErrorResponseHandler14setTransactionEPNS_15HTTPTransactionE(ptr noundef nonnull align 8 dereferenceable(16) %this, ptr noundef %txn) unnamed_addr #4 align 2 {
entry:
  %this.addr = alloca ptr, align 8
  %txn.addr = alloca ptr, align 8
  store ptr %this, ptr %this.addr, align 8
  store ptr %txn, ptr %txn.addr, align 8
  %this1 = load ptr, ptr %this.addr, align 8
  %0 = load ptr, ptr %txn.addr, align 8
  %txn_ = getelementptr inbounds %"class.proxygen::CodecErrorResponseHandler", ptr %this1, i32 0, i32 1
  store ptr %0, ptr %txn_, align 8
  ret void
}

; Function Attrs: mustprogress nounwind uwtable
define void @_ZN8proxygen25CodecErrorResponseHandler17detachTransactionEv(ptr noundef nonnull align 8 dereferenceable(16) %this) unnamed_addr #4 align 2 {
entry:
  %this.addr = alloca ptr, align 8
  store ptr %this, ptr %this.addr, align 8
  %this1 = load ptr, ptr %this.addr, align 8
  %isnull = icmp eq ptr %this1, null
  br i1 %isnull, label %delete.end, label %delete.notnull

delete.notnull:                                   ; preds = %entry
  %vtable = load ptr, ptr %this1, align 8
  %vfn = getelementptr inbounds ptr, ptr %vtable, i64 1
  %0 = load ptr, ptr %vfn, align 8
  call void %0(ptr noundef nonnull align 8 dereferenceable(16) %this1) #3
  br label %delete.end

delete.end:                                       ; preds = %delete.notnull, %entry
  ret void
}

; Function Attrs: mustprogress nounwind uwtable
define void @_ZN8proxygen25CodecErrorResponseHandler17onHeadersCompleteESt10unique_ptrINS_11HTTPMessageESt14default_deleteIS2_EE(ptr noundef nonnull align 8 dereferenceable(16) %this, ptr noundef %0) unnamed_addr #4 align 2 personality ptr @__gxx_personality_v0 {
entry:
  %this.addr = alloca ptr, align 8
  %.indirect_addr = alloca ptr, align 8
  %verbose_level__ = alloca i32, align 4
  %tmp = alloca i8, align 1
  %ref.tmp = alloca %"class.google::LogMessageVoidify", align 1
  %ref.tmp6 = alloca %"class.google::LogMessage", align 8
  %cleanup.cond = alloca i1, align 1
  store ptr %this, ptr %this.addr, align 8
  store ptr %0, ptr %.indirect_addr, align 8
  store i32 4, ptr %verbose_level__, align 4
  %1 = load ptr, ptr @_ZZN8proxygen25CodecErrorResponseHandler17onHeadersCompleteESt10unique_ptrINS_11HTTPMessageESt14default_deleteIS2_EEE8vlocal__, align 8
  %cmp = icmp eq ptr %1, null
  store i1 false, ptr %cleanup.cond, align 1
  br i1 %cmp, label %cond.true, label %cond.false

cond.true:                                        ; preds = %entry
  %2 = load i32, ptr %verbose_level__, align 4
  %call = invoke noundef zeroext i1 @_ZN6google11InitVLOG3__EPNS_8SiteFlagEPiPKci(ptr noundef @_ZZN8proxygen25CodecErrorResponseHandler17onHeadersCompleteESt10unique_ptrINS_11HTTPMessageESt14default_deleteIS2_EEE8vlocal__, ptr noundef @_ZN3fLI7FLAGS_vE, ptr noundef @.str, i32 noundef %2)
          to label %invoke.cont unwind label %terminate.lpad

invoke.cont:                                      ; preds = %cond.true
  br label %cond.end

cond.false:                                       ; preds = %entry
  %3 = load ptr, ptr @_ZZN8proxygen25CodecErrorResponseHandler17onHeadersCompleteESt10unique_ptrINS_11HTTPMessageESt14default_deleteIS2_EEE8vlocal__, align 8
  %4 = load i32, ptr %3, align 4
  %5 = load i32, ptr %verbose_level__, align 4
  %cmp2 = icmp sge i32 %4, %5
  br label %cond.end

cond.end:                                         ; preds = %cond.false, %invoke.cont
  %cond = phi i1 [ %call, %invoke.cont ], [ %cmp2, %cond.false ]
  %frombool = zext i1 %cond to i8
  store i8 %frombool, ptr %tmp, align 1
  %6 = load i8, ptr %tmp, align 1
  %tobool = trunc i8 %6 to i1
  br i1 %tobool, label %cond.false4, label %cond.true3

cond.true3:                                       ; preds = %cond.end
  br label %cond.end13

cond.false4:                                      ; preds = %cond.end
  invoke void @_ZN6google17LogMessageVoidifyC2Ev(ptr noundef nonnull align 1 dereferenceable(1) %ref.tmp)
          to label %invoke.cont5 unwind label %terminate.lpad

invoke.cont5:                                     ; preds = %cond.false4
  invoke void @_ZN6google10LogMessageC1EPKci(ptr noundef nonnull align 8 dereferenceable(96) %ref.tmp6, ptr noundef @.str, i32 noundef 35)
          to label %invoke.cont7 unwind label %terminate.lpad

invoke.cont7:                                     ; preds = %invoke.cont5
  store i1 true, ptr %cleanup.cond, align 1
  %call9 = invoke noundef nonnull align 8 dereferenceable(8) ptr @_ZN6google10LogMessage6streamEv(ptr noundef nonnull align 8 dereferenceable(96) %ref.tmp6)
          to label %invoke.cont8 unwind label %terminate.lpad

invoke.cont8:                                     ; preds = %invoke.cont7
  %call11 = invoke noundef nonnull align 8 dereferenceable(8) ptr @_ZStlsISt11char_traitsIcEERSt13basic_ostreamIcT_ES5_PKc(ptr noundef nonnull align 8 dereferenceable(8) %call9, ptr noundef @.str.1)
          to label %invoke.cont10 unwind label %terminate.lpad

invoke.cont10:                                    ; preds = %invoke.cont8
  invoke void @_ZN6google17LogMessageVoidifyanERSo(ptr noundef nonnull align 1 dereferenceable(1) %ref.tmp, ptr noundef nonnull align 8 dereferenceable(8) %call11)
          to label %invoke.cont12 unwind label %terminate.lpad

invoke.cont12:                                    ; preds = %invoke.cont10
  br label %cond.end13

cond.end13:                                       ; preds = %invoke.cont12, %cond.true3
  %cleanup.is_active = load i1, ptr %cleanup.cond, align 1
  br i1 %cleanup.is_active, label %cleanup.action, label %cleanup.done

cleanup.action:                                   ; preds = %cond.end13
  call void @_ZN6google10LogMessageD1Ev(ptr noundef nonnull align 8 dereferenceable(96) %ref.tmp6) #3
  br label %cleanup.done

cleanup.done:                                     ; preds = %cleanup.action, %cond.end13
  ret void

terminate.lpad:                                   ; preds = %invoke.cont10, %invoke.cont8, %invoke.cont7, %invoke.cont5, %cond.false4, %cond.true
  %7 = landingpad { ptr, i32 }
          catch ptr null
  %8 = extractvalue { ptr, i32 } %7, 0
  call void @__clang_call_terminate(ptr %8) #11
  unreachable
}

declare noundef zeroext i1 @_ZN6google11InitVLOG3__EPNS_8SiteFlagEPiPKci(ptr noundef, ptr noundef, ptr noundef, i32 noundef) #1

declare i32 @__gxx_personality_v0(...)

; Function Attrs: noreturn nounwind uwtable
define linkonce_odr hidden void @__clang_call_terminate(ptr noundef %0) #6 comdat {
  %2 = call ptr @__cxa_begin_catch(ptr %0) #3
  call void @_ZSt9terminatev() #11
  unreachable
}

declare ptr @__cxa_begin_catch(ptr)

declare void @_ZSt9terminatev()

; Function Attrs: mustprogress nounwind uwtable
define linkonce_odr void @_ZN6google17LogMessageVoidifyC2Ev(ptr noundef nonnull align 1 dereferenceable(1) %this) unnamed_addr #4 comdat align 2 {
entry:
  %this.addr = alloca ptr, align 8
  store ptr %this, ptr %this.addr, align 8
  ret void
}

; Function Attrs: mustprogress nounwind uwtable
define linkonce_odr void @_ZN6google17LogMessageVoidifyanERSo(ptr noundef nonnull align 1 dereferenceable(1) %this, ptr noundef nonnull align 8 dereferenceable(8) %0) #4 comdat align 2 {
entry:
  %this.addr = alloca ptr, align 8
  %.addr = alloca ptr, align 8
  store ptr %this, ptr %this.addr, align 8
  store ptr %0, ptr %.addr, align 8
  ret void
}

declare noundef nonnull align 8 dereferenceable(8) ptr @_ZStlsISt11char_traitsIcEERSt13basic_ostreamIcT_ES5_PKc(ptr noundef nonnull align 8 dereferenceable(8), ptr noundef) #1

declare void @_ZN6google10LogMessageC1EPKci(ptr noundef nonnull align 8 dereferenceable(96), ptr noundef, i32 noundef) unnamed_addr #1

declare noundef nonnull align 8 dereferenceable(8) ptr @_ZN6google10LogMessage6streamEv(ptr noundef nonnull align 8 dereferenceable(96)) #1

; Function Attrs: nounwind
declare void @_ZN6google10LogMessageD1Ev(ptr noundef nonnull align 8 dereferenceable(96)) unnamed_addr #2

; Function Attrs: mustprogress nounwind uwtable
define void @_ZN8proxygen25CodecErrorResponseHandler6onBodyESt10unique_ptrIN5folly5IOBufESt14default_deleteIS3_EE(ptr noundef nonnull align 8 dereferenceable(16) %this, ptr noundef %0) unnamed_addr #4 align 2 personality ptr @__gxx_personality_v0 {
entry:
  %this.addr = alloca ptr, align 8
  %.indirect_addr = alloca ptr, align 8
  %verbose_level__ = alloca i32, align 4
  %tmp = alloca i8, align 1
  %ref.tmp = alloca %"class.google::LogMessageVoidify", align 1
  %ref.tmp6 = alloca %"class.google::LogMessage", align 8
  %cleanup.cond = alloca i1, align 1
  store ptr %this, ptr %this.addr, align 8
  store ptr %0, ptr %.indirect_addr, align 8
  store i32 4, ptr %verbose_level__, align 4
  %1 = load ptr, ptr @_ZZN8proxygen25CodecErrorResponseHandler6onBodyESt10unique_ptrIN5folly5IOBufESt14default_deleteIS3_EEE8vlocal__, align 8
  %cmp = icmp eq ptr %1, null
  store i1 false, ptr %cleanup.cond, align 1
  br i1 %cmp, label %cond.true, label %cond.false

cond.true:                                        ; preds = %entry
  %2 = load i32, ptr %verbose_level__, align 4
  %call = invoke noundef zeroext i1 @_ZN6google11InitVLOG3__EPNS_8SiteFlagEPiPKci(ptr noundef @_ZZN8proxygen25CodecErrorResponseHandler6onBodyESt10unique_ptrIN5folly5IOBufESt14default_deleteIS3_EEE8vlocal__, ptr noundef @_ZN3fLI7FLAGS_vE, ptr noundef @.str, i32 noundef %2)
          to label %invoke.cont unwind label %terminate.lpad

invoke.cont:                                      ; preds = %cond.true
  br label %cond.end

cond.false:                                       ; preds = %entry
  %3 = load ptr, ptr @_ZZN8proxygen25CodecErrorResponseHandler6onBodyESt10unique_ptrIN5folly5IOBufESt14default_deleteIS3_EEE8vlocal__, align 8
  %4 = load i32, ptr %3, align 4
  %5 = load i32, ptr %verbose_level__, align 4
  %cmp2 = icmp sge i32 %4, %5
  br label %cond.end

cond.end:                                         ; preds = %cond.false, %invoke.cont
  %cond = phi i1 [ %call, %invoke.cont ], [ %cmp2, %cond.false ]
  %frombool = zext i1 %cond to i8
  store i8 %frombool, ptr %tmp, align 1
  %6 = load i8, ptr %tmp, align 1
  %tobool = trunc i8 %6 to i1
  br i1 %tobool, label %cond.false4, label %cond.true3

cond.true3:                                       ; preds = %cond.end
  br label %cond.end13

cond.false4:                                      ; preds = %cond.end
  invoke void @_ZN6google17LogMessageVoidifyC2Ev(ptr noundef nonnull align 1 dereferenceable(1) %ref.tmp)
          to label %invoke.cont5 unwind label %terminate.lpad

invoke.cont5:                                     ; preds = %cond.false4
  invoke void @_ZN6google10LogMessageC1EPKci(ptr noundef nonnull align 8 dereferenceable(96) %ref.tmp6, ptr noundef @.str, i32 noundef 39)
          to label %invoke.cont7 unwind label %terminate.lpad

invoke.cont7:                                     ; preds = %invoke.cont5
  store i1 true, ptr %cleanup.cond, align 1
  %call9 = invoke noundef nonnull align 8 dereferenceable(8) ptr @_ZN6google10LogMessage6streamEv(ptr noundef nonnull align 8 dereferenceable(96) %ref.tmp6)
          to label %invoke.cont8 unwind label %terminate.lpad

invoke.cont8:                                     ; preds = %invoke.cont7
  %call11 = invoke noundef nonnull align 8 dereferenceable(8) ptr @_ZStlsISt11char_traitsIcEERSt13basic_ostreamIcT_ES5_PKc(ptr noundef nonnull align 8 dereferenceable(8) %call9, ptr noundef @.str.2)
          to label %invoke.cont10 unwind label %terminate.lpad

invoke.cont10:                                    ; preds = %invoke.cont8
  invoke void @_ZN6google17LogMessageVoidifyanERSo(ptr noundef nonnull align 1 dereferenceable(1) %ref.tmp, ptr noundef nonnull align 8 dereferenceable(8) %call11)
          to label %invoke.cont12 unwind label %terminate.lpad

invoke.cont12:                                    ; preds = %invoke.cont10
  br label %cond.end13

cond.end13:                                       ; preds = %invoke.cont12, %cond.true3
  %cleanup.is_active = load i1, ptr %cleanup.cond, align 1
  br i1 %cleanup.is_active, label %cleanup.action, label %cleanup.done

cleanup.action:                                   ; preds = %cond.end13
  call void @_ZN6google10LogMessageD1Ev(ptr noundef nonnull align 8 dereferenceable(96) %ref.tmp6) #3
  br label %cleanup.done

cleanup.done:                                     ; preds = %cleanup.action, %cond.end13
  ret void

terminate.lpad:                                   ; preds = %invoke.cont10, %invoke.cont8, %invoke.cont7, %invoke.cont5, %cond.false4, %cond.true
  %7 = landingpad { ptr, i32 }
          catch ptr null
  %8 = extractvalue { ptr, i32 } %7, 0
  call void @__clang_call_terminate(ptr %8) #11
  unreachable
}

; Function Attrs: mustprogress nounwind uwtable
define void @_ZN8proxygen25CodecErrorResponseHandler10onTrailersESt10unique_ptrINS_11HTTPHeadersESt14default_deleteIS2_EE(ptr noundef nonnull align 8 dereferenceable(16) %this, ptr noundef %0) unnamed_addr #4 align 2 personality ptr @__gxx_personality_v0 {
entry:
  %this.addr = alloca ptr, align 8
  %.indirect_addr = alloca ptr, align 8
  %verbose_level__ = alloca i32, align 4
  %tmp = alloca i8, align 1
  %ref.tmp = alloca %"class.google::LogMessageVoidify", align 1
  %ref.tmp6 = alloca %"class.google::LogMessage", align 8
  %cleanup.cond = alloca i1, align 1
  store ptr %this, ptr %this.addr, align 8
  store ptr %0, ptr %.indirect_addr, align 8
  store i32 4, ptr %verbose_level__, align 4
  %1 = load ptr, ptr @_ZZN8proxygen25CodecErrorResponseHandler10onTrailersESt10unique_ptrINS_11HTTPHeadersESt14default_deleteIS2_EEE8vlocal__, align 8
  %cmp = icmp eq ptr %1, null
  store i1 false, ptr %cleanup.cond, align 1
  br i1 %cmp, label %cond.true, label %cond.false

cond.true:                                        ; preds = %entry
  %2 = load i32, ptr %verbose_level__, align 4
  %call = invoke noundef zeroext i1 @_ZN6google11InitVLOG3__EPNS_8SiteFlagEPiPKci(ptr noundef @_ZZN8proxygen25CodecErrorResponseHandler10onTrailersESt10unique_ptrINS_11HTTPHeadersESt14default_deleteIS2_EEE8vlocal__, ptr noundef @_ZN3fLI7FLAGS_vE, ptr noundef @.str, i32 noundef %2)
          to label %invoke.cont unwind label %terminate.lpad

invoke.cont:                                      ; preds = %cond.true
  br label %cond.end

cond.false:                                       ; preds = %entry
  %3 = load ptr, ptr @_ZZN8proxygen25CodecErrorResponseHandler10onTrailersESt10unique_ptrINS_11HTTPHeadersESt14default_deleteIS2_EEE8vlocal__, align 8
  %4 = load i32, ptr %3, align 4
  %5 = load i32, ptr %verbose_level__, align 4
  %cmp2 = icmp sge i32 %4, %5
  br label %cond.end

cond.end:                                         ; preds = %cond.false, %invoke.cont
  %cond = phi i1 [ %call, %invoke.cont ], [ %cmp2, %cond.false ]
  %frombool = zext i1 %cond to i8
  store i8 %frombool, ptr %tmp, align 1
  %6 = load i8, ptr %tmp, align 1
  %tobool = trunc i8 %6 to i1
  br i1 %tobool, label %cond.false4, label %cond.true3

cond.true3:                                       ; preds = %cond.end
  br label %cond.end13

cond.false4:                                      ; preds = %cond.end
  invoke void @_ZN6google17LogMessageVoidifyC2Ev(ptr noundef nonnull align 1 dereferenceable(1) %ref.tmp)
          to label %invoke.cont5 unwind label %terminate.lpad

invoke.cont5:                                     ; preds = %cond.false4
  invoke void @_ZN6google10LogMessageC1EPKci(ptr noundef nonnull align 8 dereferenceable(96) %ref.tmp6, ptr noundef @.str, i32 noundef 44)
          to label %invoke.cont7 unwind label %terminate.lpad

invoke.cont7:                                     ; preds = %invoke.cont5
  store i1 true, ptr %cleanup.cond, align 1
  %call9 = invoke noundef nonnull align 8 dereferenceable(8) ptr @_ZN6google10LogMessage6streamEv(ptr noundef nonnull align 8 dereferenceable(96) %ref.tmp6)
          to label %invoke.cont8 unwind label %terminate.lpad

invoke.cont8:                                     ; preds = %invoke.cont7
  %call11 = invoke noundef nonnull align 8 dereferenceable(8) ptr @_ZStlsISt11char_traitsIcEERSt13basic_ostreamIcT_ES5_PKc(ptr noundef nonnull align 8 dereferenceable(8) %call9, ptr noundef @.str.3)
          to label %invoke.cont10 unwind label %terminate.lpad

invoke.cont10:                                    ; preds = %invoke.cont8
  invoke void @_ZN6google17LogMessageVoidifyanERSo(ptr noundef nonnull align 1 dereferenceable(1) %ref.tmp, ptr noundef nonnull align 8 dereferenceable(8) %call11)
          to label %invoke.cont12 unwind label %terminate.lpad

invoke.cont12:                                    ; preds = %invoke.cont10
  br label %cond.end13

cond.end13:                                       ; preds = %invoke.cont12, %cond.true3
  %cleanup.is_active = load i1, ptr %cleanup.cond, align 1
  br i1 %cleanup.is_active, label %cleanup.action, label %cleanup.done

cleanup.action:                                   ; preds = %cond.end13
  call void @_ZN6google10LogMessageD1Ev(ptr noundef nonnull align 8 dereferenceable(96) %ref.tmp6) #3
  br label %cleanup.done

cleanup.done:                                     ; preds = %cleanup.action, %cond.end13
  ret void

terminate.lpad:                                   ; preds = %invoke.cont10, %invoke.cont8, %invoke.cont7, %invoke.cont5, %cond.false4, %cond.true
  %7 = landingpad { ptr, i32 }
          catch ptr null
  %8 = extractvalue { ptr, i32 } %7, 0
  call void @__clang_call_terminate(ptr %8) #11
  unreachable
}

; Function Attrs: mustprogress nounwind uwtable
define void @_ZN8proxygen25CodecErrorResponseHandler5onEOMEv(ptr noundef nonnull align 8 dereferenceable(16) %this) unnamed_addr #4 align 2 {
entry:
  %this.addr = alloca ptr, align 8
  store ptr %this, ptr %this.addr, align 8
  ret void
}

; Function Attrs: mustprogress nounwind uwtable
define void @_ZN8proxygen25CodecErrorResponseHandler9onUpgradeENS_15UpgradeProtocolE(ptr noundef nonnull align 8 dereferenceable(16) %this, i32 noundef %0) unnamed_addr #4 align 2 {
entry:
  %this.addr = alloca ptr, align 8
  %.addr = alloca i32, align 4
  store ptr %this, ptr %this.addr, align 8
  store i32 %0, ptr %.addr, align 4
  ret void
}

; Function Attrs: mustprogress nounwind uwtable
define void @_ZN8proxygen25CodecErrorResponseHandler7onErrorERKNS_13HTTPExceptionE(ptr noundef nonnull align 8 dereferenceable(16) %this, ptr noundef nonnull align 8 dereferenceable(96) %error) unnamed_addr #4 align 2 personality ptr @__gxx_personality_v0 {
entry:
  %this.addr = alloca ptr, align 8
  %error.addr = alloca ptr, align 8
  %verbose_level__ = alloca i32, align 4
  %tmp = alloca i8, align 1
  %ref.tmp = alloca %"class.google::LogMessageVoidify", align 1
  %ref.tmp6 = alloca %"class.google::LogMessage", align 8
  %cleanup.cond = alloca i1, align 1
  store ptr %this, ptr %this.addr, align 8
  store ptr %error, ptr %error.addr, align 8
  %this1 = load ptr, ptr %this.addr, align 8
  store i32 4, ptr %verbose_level__, align 4
  %0 = load ptr, ptr @_ZZN8proxygen25CodecErrorResponseHandler7onErrorERKNS_13HTTPExceptionEE8vlocal__, align 8
  %cmp = icmp eq ptr %0, null
  store i1 false, ptr %cleanup.cond, align 1
  br i1 %cmp, label %cond.true, label %cond.false

cond.true:                                        ; preds = %entry
  %1 = load i32, ptr %verbose_level__, align 4
  %call = invoke noundef zeroext i1 @_ZN6google11InitVLOG3__EPNS_8SiteFlagEPiPKci(ptr noundef @_ZZN8proxygen25CodecErrorResponseHandler7onErrorERKNS_13HTTPExceptionEE8vlocal__, ptr noundef @_ZN3fLI7FLAGS_vE, ptr noundef @.str, i32 noundef %1)
          to label %invoke.cont unwind label %terminate.lpad

invoke.cont:                                      ; preds = %cond.true
  br label %cond.end

cond.false:                                       ; preds = %entry
  %2 = load ptr, ptr @_ZZN8proxygen25CodecErrorResponseHandler7onErrorERKNS_13HTTPExceptionEE8vlocal__, align 8
  %3 = load i32, ptr %2, align 4
  %4 = load i32, ptr %verbose_level__, align 4
  %cmp2 = icmp sge i32 %3, %4
  br label %cond.end

cond.end:                                         ; preds = %cond.false, %invoke.cont
  %cond = phi i1 [ %call, %invoke.cont ], [ %cmp2, %cond.false ]
  %frombool = zext i1 %cond to i8
  store i8 %frombool, ptr %tmp, align 1
  %5 = load i8, ptr %tmp, align 1
  %tobool = trunc i8 %5 to i1
  br i1 %tobool, label %cond.false4, label %cond.true3

cond.true3:                                       ; preds = %cond.end
  br label %cond.end15

cond.false4:                                      ; preds = %cond.end
  invoke void @_ZN6google17LogMessageVoidifyC2Ev(ptr noundef nonnull align 1 dereferenceable(1) %ref.tmp)
          to label %invoke.cont5 unwind label %terminate.lpad

invoke.cont5:                                     ; preds = %cond.false4
  invoke void @_ZN6google10LogMessageC1EPKci(ptr noundef nonnull align 8 dereferenceable(96) %ref.tmp6, ptr noundef @.str, i32 noundef 55)
          to label %invoke.cont7 unwind label %terminate.lpad

invoke.cont7:                                     ; preds = %invoke.cont5
  store i1 true, ptr %cleanup.cond, align 1
  %call9 = invoke noundef nonnull align 8 dereferenceable(8) ptr @_ZN6google10LogMessage6streamEv(ptr noundef nonnull align 8 dereferenceable(96) %ref.tmp6)
          to label %invoke.cont8 unwind label %terminate.lpad

invoke.cont8:                                     ; preds = %invoke.cont7
  %call11 = invoke noundef nonnull align 8 dereferenceable(8) ptr @_ZStlsISt11char_traitsIcEERSt13basic_ostreamIcT_ES5_PKc(ptr noundef nonnull align 8 dereferenceable(8) %call9, ptr noundef @.str.4)
          to label %invoke.cont10 unwind label %terminate.lpad

invoke.cont10:                                    ; preds = %invoke.cont8
  %6 = load ptr, ptr %error.addr, align 8
  %call13 = invoke noundef nonnull align 8 dereferenceable(8) ptr @_ZN8proxygenlsERSoRKNS_13HTTPExceptionE(ptr noundef nonnull align 8 dereferenceable(8) %call11, ptr noundef nonnull align 8 dereferenceable(96) %6)
          to label %invoke.cont12 unwind label %terminate.lpad

invoke.cont12:                                    ; preds = %invoke.cont10
  invoke void @_ZN6google17LogMessageVoidifyanERSo(ptr noundef nonnull align 1 dereferenceable(1) %ref.tmp, ptr noundef nonnull align 8 dereferenceable(8) %call13)
          to label %invoke.cont14 unwind label %terminate.lpad

invoke.cont14:                                    ; preds = %invoke.cont12
  br label %cond.end15

cond.end15:                                       ; preds = %invoke.cont14, %cond.true3
  %cleanup.is_active = load i1, ptr %cleanup.cond, align 1
  br i1 %cleanup.is_active, label %cleanup.action, label %cleanup.done

cleanup.action:                                   ; preds = %cond.end15
  call void @_ZN6google10LogMessageD1Ev(ptr noundef nonnull align 8 dereferenceable(96) %ref.tmp6) #3
  br label %cleanup.done

cleanup.done:                                     ; preds = %cleanup.action, %cond.end15
  %txn_ = getelementptr inbounds %"class.proxygen::CodecErrorResponseHandler", ptr %this1, i32 0, i32 1
  %7 = load ptr, ptr %txn_, align 8
  %vtable = load ptr, ptr %7, align 8
  %vfn = getelementptr inbounds ptr, ptr %vtable, i64 19
  %8 = load ptr, ptr %vfn, align 8
  invoke void %8(ptr noundef nonnull align 8 dereferenceable(912) %7)
          to label %invoke.cont16 unwind label %terminate.lpad

invoke.cont16:                                    ; preds = %cleanup.done
  ret void

terminate.lpad:                                   ; preds = %cleanup.done, %invoke.cont12, %invoke.cont10, %invoke.cont8, %invoke.cont7, %invoke.cont5, %cond.false4, %cond.true
  %9 = landingpad { ptr, i32 }
          catch ptr null
  %10 = extractvalue { ptr, i32 } %9, 0
  call void @__clang_call_terminate(ptr %10) #11
  unreachable
}

declare noundef nonnull align 8 dereferenceable(8) ptr @_ZN8proxygenlsERSoRKNS_13HTTPExceptionE(ptr noundef nonnull align 8 dereferenceable(8), ptr noundef nonnull align 8 dereferenceable(96)) #1

; Function Attrs: mustprogress nounwind uwtable
define linkonce_odr void @_ZN8proxygen18TraceEventObserver19traceEventAvailableENS_10TraceEventE(ptr noundef nonnull align 8 dereferenceable(8) %this, ptr noundef %0) unnamed_addr #4 comdat align 2 {
entry:
  %this.addr = alloca ptr, align 8
  %.indirect_addr = alloca ptr, align 8
  store ptr %this, ptr %this.addr, align 8
  store ptr %0, ptr %.indirect_addr, align 8
  ret void
}

; Function Attrs: mustprogress nounwind uwtable
define linkonce_odr void @_ZN8proxygen18TraceEventObserver15emitTraceEventsESt6vectorINS_10TraceEventESaIS2_EE(ptr noundef nonnull align 8 dereferenceable(8) %this, ptr noundef %0) unnamed_addr #4 comdat align 2 {
entry:
  %this.addr = alloca ptr, align 8
  %.indirect_addr = alloca ptr, align 8
  store ptr %this, ptr %this.addr, align 8
  store ptr %0, ptr %.indirect_addr, align 8
  ret void
}

; Function Attrs: mustprogress nounwind uwtable
define linkonce_odr void @_ZN8proxygen22HTTPTransactionHandler16onBodyWithOffsetEmSt10unique_ptrIN5folly5IOBufESt14default_deleteIS3_EE(ptr noundef nonnull align 8 dereferenceable(8) %this, i64 noundef %0, ptr noundef %chain) unnamed_addr #4 comdat align 2 {
entry:
  %this.addr = alloca ptr, align 8
  %.addr = alloca i64, align 8
  %chain.indirect_addr = alloca ptr, align 8
  %agg.tmp = alloca %"class.std::unique_ptr.2", align 8
  store ptr %this, ptr %this.addr, align 8
  store i64 %0, ptr %.addr, align 8
  store ptr %chain, ptr %chain.indirect_addr, align 8
  %this1 = load ptr, ptr %this.addr, align 8
  call void @_ZNSt10unique_ptrIN5folly5IOBufESt14default_deleteIS1_EEC2EOS4_(ptr noundef nonnull align 8 dereferenceable(8) %agg.tmp, ptr noundef nonnull align 8 dereferenceable(8) %chain) #3
  %vtable = load ptr, ptr %this1, align 8
  %vfn = getelementptr inbounds ptr, ptr %vtable, i64 7
  %1 = load ptr, ptr %vfn, align 8
  call void %1(ptr noundef nonnull align 8 dereferenceable(8) %this1, ptr noundef %agg.tmp) #3
  call void @_ZNSt10unique_ptrIN5folly5IOBufESt14default_deleteIS1_EED2Ev(ptr noundef nonnull align 8 dereferenceable(8) %agg.tmp) #3
  ret void
}

; Function Attrs: mustprogress nounwind uwtable
define linkonce_odr void @_ZN8proxygen22HTTPTransactionHandler13onChunkHeaderEm(ptr noundef nonnull align 8 dereferenceable(8) %this, i64 noundef %0) unnamed_addr #4 comdat align 2 {
entry:
  %this.addr = alloca ptr, align 8
  %.addr = alloca i64, align 8
  store ptr %this, ptr %this.addr, align 8
  store i64 %0, ptr %.addr, align 8
  ret void
}

; Function Attrs: mustprogress nounwind uwtable
define linkonce_odr void @_ZN8proxygen22HTTPTransactionHandler15onChunkCompleteEv(ptr noundef nonnull align 8 dereferenceable(8) %this) unnamed_addr #4 comdat align 2 {
entry:
  %this.addr = alloca ptr, align 8
  store ptr %this, ptr %this.addr, align 8
  ret void
}

; Function Attrs: mustprogress nounwind uwtable
define linkonce_odr void @_ZN8proxygen22HTTPTransactionHandler20onInvariantViolationERKNS_13HTTPExceptionE(ptr noundef nonnull align 8 dereferenceable(8) %this, ptr noundef nonnull align 8 dereferenceable(96) %error) unnamed_addr #4 comdat align 2 personality ptr @__gxx_personality_v0 {
entry:
  %this.addr = alloca ptr, align 8
  %error.addr = alloca ptr, align 8
  %ref.tmp = alloca %"class.google::LogMessageFatal", align 8
  store ptr %this, ptr %this.addr, align 8
  store ptr %error, ptr %error.addr, align 8
  invoke void @_ZN6google15LogMessageFatalC1EPKci(ptr noundef nonnull align 8 dereferenceable(96) %ref.tmp, ptr noundef @.str.5, i32 noundef 259)
          to label %invoke.cont unwind label %terminate.lpad

invoke.cont:                                      ; preds = %entry
  %call = invoke noundef nonnull align 8 dereferenceable(8) ptr @_ZN6google10LogMessage6streamEv(ptr noundef nonnull align 8 dereferenceable(96) %ref.tmp)
          to label %invoke.cont2 unwind label %terminate.lpad

invoke.cont2:                                     ; preds = %invoke.cont
  %0 = load ptr, ptr %error.addr, align 8
  %vtable = load ptr, ptr %0, align 8
  %vfn = getelementptr inbounds ptr, ptr %vtable, i64 2
  %1 = load ptr, ptr %vfn, align 8
  %call3 = call noundef ptr %1(ptr noundef nonnull align 8 dereferenceable(48) %0) #3
  %call5 = invoke noundef nonnull align 8 dereferenceable(8) ptr @_ZStlsISt11char_traitsIcEERSt13basic_ostreamIcT_ES5_PKc(ptr noundef nonnull align 8 dereferenceable(8) %call, ptr noundef %call3)
          to label %invoke.cont4 unwind label %terminate.lpad

invoke.cont4:                                     ; preds = %invoke.cont2
  call void @_ZN6google15LogMessageFatalD1Ev(ptr noundef nonnull align 8 dereferenceable(96) %ref.tmp) #11
  unreachable

terminate.lpad:                                   ; preds = %invoke.cont2, %invoke.cont, %entry
  %2 = landingpad { ptr, i32 }
          catch ptr null
  %3 = extractvalue { ptr, i32 } %2, 0
  call void @__clang_call_terminate(ptr %3) #11
  unreachable
}

; Function Attrs: mustprogress nounwind uwtable
define linkonce_odr void @_ZN8proxygen25CodecErrorResponseHandler14onEgressPausedEv(ptr noundef nonnull align 8 dereferenceable(16) %this) unnamed_addr #4 comdat align 2 {
entry:
  %this.addr = alloca ptr, align 8
  store ptr %this, ptr %this.addr, align 8
  ret void
}

; Function Attrs: mustprogress nounwind uwtable
define linkonce_odr void @_ZN8proxygen25CodecErrorResponseHandler15onEgressResumedEv(ptr noundef nonnull align 8 dereferenceable(16) %this) unnamed_addr #4 comdat align 2 {
entry:
  %this.addr = alloca ptr, align 8
  store ptr %this, ptr %this.addr, align 8
  ret void
}

; Function Attrs: mustprogress nounwind uwtable
define linkonce_odr void @_ZN8proxygen22HTTPTransactionHandler19onPushedTransactionEPNS_15HTTPTransactionE(ptr noundef nonnull align 8 dereferenceable(8) %this, ptr noundef %0) unnamed_addr #4 comdat align 2 {
entry:
  %this.addr = alloca ptr, align 8
  %.addr = alloca ptr, align 8
  store ptr %this, ptr %this.addr, align 8
  store ptr %0, ptr %.addr, align 8
  ret void
}

; Function Attrs: mustprogress nounwind uwtable
define linkonce_odr void @_ZN8proxygen22HTTPTransactionHandler15onExTransactionEPNS_15HTTPTransactionE(ptr noundef nonnull align 8 dereferenceable(8) %this, ptr noundef %0) unnamed_addr #4 comdat align 2 {
entry:
  %this.addr = alloca ptr, align 8
  %.addr = alloca ptr, align 8
  store ptr %this, ptr %this.addr, align 8
  store ptr %0, ptr %.addr, align 8
  ret void
}

; Function Attrs: mustprogress nounwind uwtable
define linkonce_odr void @_ZN8proxygen22HTTPTransactionHandler8onGoawayENS_9ErrorCodeE(ptr noundef nonnull align 8 dereferenceable(8) %this, i8 noundef zeroext %0) unnamed_addr #4 comdat align 2 {
entry:
  %this.addr = alloca ptr, align 8
  %.addr = alloca i8, align 1
  store ptr %this, ptr %this.addr, align 8
  store i8 %0, ptr %.addr, align 1
  ret void
}

; Function Attrs: mustprogress nounwind uwtable
define linkonce_odr void @_ZN8proxygen22HTTPTransactionHandler10onDatagramESt10unique_ptrIN5folly5IOBufESt14default_deleteIS3_EE(ptr noundef nonnull align 8 dereferenceable(8) %this, ptr noundef %0) unnamed_addr #4 comdat align 2 {
entry:
  %this.addr = alloca ptr, align 8
  %.indirect_addr = alloca ptr, align 8
  store ptr %this, ptr %this.addr, align 8
  store ptr %0, ptr %.indirect_addr, align 8
  ret void
}

; Function Attrs: mustprogress nounwind uwtable
define linkonce_odr void @_ZN8proxygen22HTTPTransactionHandler24onWebTransportBidiStreamEmNS_12WebTransport16BidiStreamHandleE(ptr noundef nonnull align 8 dereferenceable(8) %this, i64 noundef %0, ptr %.coerce0, ptr %.coerce1) unnamed_addr #4 comdat align 2 {
entry:
  %1 = alloca %"struct.proxygen::WebTransport::BidiStreamHandle", align 8
  %this.addr = alloca ptr, align 8
  %.addr = alloca i64, align 8
  %2 = getelementptr inbounds { ptr, ptr }, ptr %1, i32 0, i32 0
  store ptr %.coerce0, ptr %2, align 8
  %3 = getelementptr inbounds { ptr, ptr }, ptr %1, i32 0, i32 1
  store ptr %.coerce1, ptr %3, align 8
  store ptr %this, ptr %this.addr, align 8
  store i64 %0, ptr %.addr, align 8
  ret void
}

; Function Attrs: mustprogress nounwind uwtable
define linkonce_odr void @_ZN8proxygen22HTTPTransactionHandler23onWebTransportUniStreamEmPNS_12WebTransport16StreamReadHandleE(ptr noundef nonnull align 8 dereferenceable(8) %this, i64 noundef %0, ptr noundef %1) unnamed_addr #4 comdat align 2 {
entry:
  %this.addr = alloca ptr, align 8
  %.addr = alloca i64, align 8
  %.addr1 = alloca ptr, align 8
  store ptr %this, ptr %this.addr, align 8
  store i64 %0, ptr %.addr, align 8
  store ptr %1, ptr %.addr1, align 8
  ret void
}

; Function Attrs: mustprogress nounwind uwtable
define linkonce_odr void @_ZN8proxygen22HTTPTransactionHandler26onWebTransportSessionCloseEN5folly8OptionalIjEE(ptr noundef nonnull align 8 dereferenceable(8) %this, ptr noundef %0) unnamed_addr #4 comdat align 2 {
entry:
  %this.addr = alloca ptr, align 8
  %.indirect_addr = alloca ptr, align 8
  store ptr %this, ptr %this.addr, align 8
  store ptr %0, ptr %.indirect_addr, align 8
  ret void
}

; Function Attrs: mustprogress nounwind uwtable
define linkonce_odr void @_ZN8proxygen18TraceEventObserverC2Ev(ptr noundef nonnull align 8 dereferenceable(8) %this) unnamed_addr #4 comdat align 2 {
entry:
  %this.addr = alloca ptr, align 8
  store ptr %this, ptr %this.addr, align 8
  %this1 = load ptr, ptr %this.addr, align 8
  store ptr getelementptr inbounds ({ [6 x ptr] }, ptr @_ZTVN8proxygen18TraceEventObserverE, i32 0, inrange i32 0, i32 2), ptr %this1, align 8
  ret void
}

; Function Attrs: mustprogress nounwind uwtable
define linkonce_odr void @_ZN8proxygen22HTTPTransactionHandlerD2Ev(ptr noundef nonnull align 8 dereferenceable(8) %this) unnamed_addr #4 comdat align 2 {
entry:
  %this.addr = alloca ptr, align 8
  store ptr %this, ptr %this.addr, align 8
  %this1 = load ptr, ptr %this.addr, align 8
  call void @_ZN8proxygen18TraceEventObserverD2Ev(ptr noundef nonnull align 8 dereferenceable(8) %this1) #3
  ret void
}

; Function Attrs: mustprogress nounwind uwtable
define linkonce_odr void @_ZN8proxygen22HTTPTransactionHandlerD0Ev(ptr noundef nonnull align 8 dereferenceable(8) %this) unnamed_addr #4 comdat align 2 {
entry:
  %this.addr = alloca ptr, align 8
  store ptr %this, ptr %this.addr, align 8
  call void @llvm.trap() #11
  unreachable
}

declare void @__cxa_pure_virtual() unnamed_addr

; Function Attrs: mustprogress nounwind uwtable
define linkonce_odr void @_ZN8proxygen18TraceEventObserverD2Ev(ptr noundef nonnull align 8 dereferenceable(8) %this) unnamed_addr #4 comdat align 2 {
entry:
  %this.addr = alloca ptr, align 8
  store ptr %this, ptr %this.addr, align 8
  ret void
}

; Function Attrs: mustprogress nounwind uwtable
define linkonce_odr void @_ZN8proxygen18TraceEventObserverD0Ev(ptr noundef nonnull align 8 dereferenceable(8) %this) unnamed_addr #4 comdat align 2 {
entry:
  %this.addr = alloca ptr, align 8
  store ptr %this, ptr %this.addr, align 8
  %this1 = load ptr, ptr %this.addr, align 8
  call void @_ZN8proxygen18TraceEventObserverD2Ev(ptr noundef nonnull align 8 dereferenceable(8) %this1) #3
  call void @_ZdlPv(ptr noundef %this1) #10
  ret void
}

; Function Attrs: cold noreturn nounwind memory(inaccessiblemem: write)
declare void @llvm.trap() #7

; Function Attrs: mustprogress nounwind uwtable
define linkonce_odr void @_ZNSt10unique_ptrIN5folly5IOBufESt14default_deleteIS1_EEC2EOS4_(ptr noundef nonnull align 8 dereferenceable(8) %this, ptr noundef nonnull align 8 dereferenceable(8) %0) unnamed_addr #4 comdat align 2 {
entry:
  %this.addr = alloca ptr, align 8
  %.addr = alloca ptr, align 8
  store ptr %this, ptr %this.addr, align 8
  store ptr %0, ptr %.addr, align 8
  %this1 = load ptr, ptr %this.addr, align 8
  %_M_t = getelementptr inbounds %"class.std::unique_ptr.2", ptr %this1, i32 0, i32 0
  %1 = load ptr, ptr %.addr, align 8
  %_M_t2 = getelementptr inbounds %"class.std::unique_ptr.2", ptr %1, i32 0, i32 0
  call void @_ZNSt15__uniq_ptr_dataIN5folly5IOBufESt14default_deleteIS1_ELb1ELb1EEC2EOS4_(ptr noundef nonnull align 8 dereferenceable(8) %_M_t, ptr noundef nonnull align 8 dereferenceable(8) %_M_t2) #3
  ret void
}

; Function Attrs: mustprogress nounwind uwtable
define linkonce_odr void @_ZNSt10unique_ptrIN5folly5IOBufESt14default_deleteIS1_EED2Ev(ptr noundef nonnull align 8 dereferenceable(8) %this) unnamed_addr #4 comdat align 2 personality ptr @__gxx_personality_v0 {
entry:
  %this.addr = alloca ptr, align 8
  %__ptr = alloca ptr, align 8
  store ptr %this, ptr %this.addr, align 8
  %this1 = load ptr, ptr %this.addr, align 8
  %_M_t = getelementptr inbounds %"class.std::unique_ptr.2", ptr %this1, i32 0, i32 0
  %call = call noundef nonnull align 8 dereferenceable(8) ptr @_ZNSt15__uniq_ptr_implIN5folly5IOBufESt14default_deleteIS1_EE6_M_ptrEv(ptr noundef nonnull align 8 dereferenceable(8) %_M_t) #3
  store ptr %call, ptr %__ptr, align 8
  %0 = load ptr, ptr %__ptr, align 8
  %1 = load ptr, ptr %0, align 8
  %cmp = icmp ne ptr %1, null
  br i1 %cmp, label %if.then, label %if.end

if.then:                                          ; preds = %entry
  %call2 = call noundef nonnull align 1 dereferenceable(1) ptr @_ZNSt10unique_ptrIN5folly5IOBufESt14default_deleteIS1_EE11get_deleterEv(ptr noundef nonnull align 8 dereferenceable(8) %this1) #3
  %2 = load ptr, ptr %__ptr, align 8
  %3 = load ptr, ptr %2, align 8
  invoke void @_ZNKSt14default_deleteIN5folly5IOBufEEclEPS1_(ptr noundef nonnull align 1 dereferenceable(1) %call2, ptr noundef %3)
          to label %invoke.cont unwind label %terminate.lpad

invoke.cont:                                      ; preds = %if.then
  br label %if.end

if.end:                                           ; preds = %invoke.cont, %entry
  %4 = load ptr, ptr %__ptr, align 8
  store ptr null, ptr %4, align 8
  ret void

terminate.lpad:                                   ; preds = %if.then
  %5 = landingpad { ptr, i32 }
          catch ptr null
  %6 = extractvalue { ptr, i32 } %5, 0
  call void @__clang_call_terminate(ptr %6) #11
  unreachable
}

; Function Attrs: mustprogress nounwind uwtable
define linkonce_odr void @_ZNSt15__uniq_ptr_dataIN5folly5IOBufESt14default_deleteIS1_ELb1ELb1EEC2EOS4_(ptr noundef nonnull align 8 dereferenceable(8) %this, ptr noundef nonnull align 8 dereferenceable(8) %0) unnamed_addr #4 comdat align 2 {
entry:
  %this.addr = alloca ptr, align 8
  %.addr = alloca ptr, align 8
  store ptr %this, ptr %this.addr, align 8
  store ptr %0, ptr %.addr, align 8
  %this1 = load ptr, ptr %this.addr, align 8
  %1 = load ptr, ptr %.addr, align 8
  call void @_ZNSt15__uniq_ptr_implIN5folly5IOBufESt14default_deleteIS1_EEC2EOS4_(ptr noundef nonnull align 8 dereferenceable(8) %this1, ptr noundef nonnull align 8 dereferenceable(8) %1) #3
  ret void
}

; Function Attrs: mustprogress nounwind uwtable
define linkonce_odr void @_ZNSt15__uniq_ptr_implIN5folly5IOBufESt14default_deleteIS1_EEC2EOS4_(ptr noundef nonnull align 8 dereferenceable(8) %this, ptr noundef nonnull align 8 dereferenceable(8) %__u) unnamed_addr #4 comdat align 2 {
entry:
  %this.addr = alloca ptr, align 8
  %__u.addr = alloca ptr, align 8
  store ptr %this, ptr %this.addr, align 8
  store ptr %__u, ptr %__u.addr, align 8
  %this1 = load ptr, ptr %this.addr, align 8
  %_M_t = getelementptr inbounds %"class.std::__uniq_ptr_impl.4", ptr %this1, i32 0, i32 0
  %0 = load ptr, ptr %__u.addr, align 8
  %_M_t2 = getelementptr inbounds %"class.std::__uniq_ptr_impl.4", ptr %0, i32 0, i32 0
  call void @_ZNSt5tupleIJPN5folly5IOBufESt14default_deleteIS1_EEEC2EOS5_(ptr noundef nonnull align 8 dereferenceable(8) %_M_t, ptr noundef nonnull align 8 dereferenceable(8) %_M_t2) #3
  %1 = load ptr, ptr %__u.addr, align 8
  %call = call noundef nonnull align 8 dereferenceable(8) ptr @_ZNSt15__uniq_ptr_implIN5folly5IOBufESt14default_deleteIS1_EE6_M_ptrEv(ptr noundef nonnull align 8 dereferenceable(8) %1) #3
  store ptr null, ptr %call, align 8
  ret void
}

; Function Attrs: mustprogress nounwind uwtable
define linkonce_odr void @_ZNSt5tupleIJPN5folly5IOBufESt14default_deleteIS1_EEEC2EOS5_(ptr noundef nonnull align 8 dereferenceable(8) %this, ptr noundef nonnull align 8 dereferenceable(8) %0) unnamed_addr #4 comdat align 2 {
entry:
  %this.addr = alloca ptr, align 8
  %.addr = alloca ptr, align 8
  store ptr %this, ptr %this.addr, align 8
  store ptr %0, ptr %.addr, align 8
  %this1 = load ptr, ptr %this.addr, align 8
  %1 = load ptr, ptr %.addr, align 8
  call void @_ZNSt11_Tuple_implILm0EJPN5folly5IOBufESt14default_deleteIS1_EEEC2EOS5_(ptr noundef nonnull align 8 dereferenceable(8) %this1, ptr noundef nonnull align 8 dereferenceable(8) %1) #3
  ret void
}

; Function Attrs: mustprogress nounwind uwtable
define linkonce_odr noundef nonnull align 8 dereferenceable(8) ptr @_ZNSt15__uniq_ptr_implIN5folly5IOBufESt14default_deleteIS1_EE6_M_ptrEv(ptr noundef nonnull align 8 dereferenceable(8) %this) #4 comdat align 2 {
entry:
  %this.addr = alloca ptr, align 8
  store ptr %this, ptr %this.addr, align 8
  %this1 = load ptr, ptr %this.addr, align 8
  %_M_t = getelementptr inbounds %"class.std::__uniq_ptr_impl.4", ptr %this1, i32 0, i32 0
  %call = call noundef nonnull align 8 dereferenceable(8) ptr @_ZSt3getILm0EJPN5folly5IOBufESt14default_deleteIS1_EEERNSt13tuple_elementIXT_ESt5tupleIJDpT0_EEE4typeERS9_(ptr noundef nonnull align 8 dereferenceable(8) %_M_t) #3
  ret ptr %call
}

; Function Attrs: mustprogress nounwind uwtable
define linkonce_odr void @_ZNSt11_Tuple_implILm0EJPN5folly5IOBufESt14default_deleteIS1_EEEC2EOS5_(ptr noundef nonnull align 8 dereferenceable(8) %this, ptr noundef nonnull align 8 dereferenceable(8) %0) unnamed_addr #4 comdat align 2 {
entry:
  %this.addr = alloca ptr, align 8
  %.addr = alloca ptr, align 8
  store ptr %this, ptr %this.addr, align 8
  store ptr %0, ptr %.addr, align 8
  %this1 = load ptr, ptr %this.addr, align 8
  %1 = load ptr, ptr %.addr, align 8
  call void @_ZNSt11_Tuple_implILm1EJSt14default_deleteIN5folly5IOBufEEEEC2EOS4_(ptr noundef nonnull align 1 dereferenceable(1) %this1, ptr noundef nonnull align 1 dereferenceable(1) %1) #3
  %2 = load ptr, ptr %.addr, align 8
  call void @llvm.memcpy.p0.p0.i64(ptr align 8 %this1, ptr align 8 %2, i64 8, i1 false)
  ret void
}

; Function Attrs: mustprogress nounwind uwtable
define linkonce_odr void @_ZNSt11_Tuple_implILm1EJSt14default_deleteIN5folly5IOBufEEEEC2EOS4_(ptr noundef nonnull align 1 dereferenceable(1) %this, ptr noundef nonnull align 1 dereferenceable(1) %__in) unnamed_addr #4 comdat align 2 {
entry:
  %this.addr = alloca ptr, align 8
  %__in.addr = alloca ptr, align 8
  store ptr %this, ptr %this.addr, align 8
  store ptr %__in, ptr %__in.addr, align 8
  ret void
}

; Function Attrs: nocallback nofree nounwind willreturn memory(argmem: readwrite)
declare void @llvm.memcpy.p0.p0.i64(ptr noalias nocapture writeonly, ptr noalias nocapture readonly, i64, i1 immarg) #8

; Function Attrs: mustprogress nounwind uwtable
define linkonce_odr noundef nonnull align 8 dereferenceable(8) ptr @_ZSt3getILm0EJPN5folly5IOBufESt14default_deleteIS1_EEERNSt13tuple_elementIXT_ESt5tupleIJDpT0_EEE4typeERS9_(ptr noundef nonnull align 8 dereferenceable(8) %__t) #4 comdat {
entry:
  %__t.addr = alloca ptr, align 8
  store ptr %__t, ptr %__t.addr, align 8
  %0 = load ptr, ptr %__t.addr, align 8
  %call = call noundef nonnull align 8 dereferenceable(8) ptr @_ZSt12__get_helperILm0EPN5folly5IOBufEJSt14default_deleteIS1_EEERT0_RSt11_Tuple_implIXT_EJS5_DpT1_EE(ptr noundef nonnull align 8 dereferenceable(8) %0) #3
  ret ptr %call
}

; Function Attrs: mustprogress nounwind uwtable
define linkonce_odr noundef nonnull align 8 dereferenceable(8) ptr @_ZSt12__get_helperILm0EPN5folly5IOBufEJSt14default_deleteIS1_EEERT0_RSt11_Tuple_implIXT_EJS5_DpT1_EE(ptr noundef nonnull align 8 dereferenceable(8) %__t) #4 comdat {
entry:
  %__t.addr = alloca ptr, align 8
  store ptr %__t, ptr %__t.addr, align 8
  %0 = load ptr, ptr %__t.addr, align 8
  %call = call noundef nonnull align 8 dereferenceable(8) ptr @_ZNSt11_Tuple_implILm0EJPN5folly5IOBufESt14default_deleteIS1_EEE7_M_headERS5_(ptr noundef nonnull align 8 dereferenceable(8) %0) #3
  ret ptr %call
}

; Function Attrs: mustprogress nounwind uwtable
define linkonce_odr noundef nonnull align 8 dereferenceable(8) ptr @_ZNSt11_Tuple_implILm0EJPN5folly5IOBufESt14default_deleteIS1_EEE7_M_headERS5_(ptr noundef nonnull align 8 dereferenceable(8) %__t) #4 comdat align 2 {
entry:
  %__t.addr = alloca ptr, align 8
  store ptr %__t, ptr %__t.addr, align 8
  %0 = load ptr, ptr %__t.addr, align 8
  %call = call noundef nonnull align 8 dereferenceable(8) ptr @_ZNSt10_Head_baseILm0EPN5folly5IOBufELb0EE7_M_headERS3_(ptr noundef nonnull align 8 dereferenceable(8) %0) #3
  ret ptr %call
}

; Function Attrs: mustprogress nounwind uwtable
define linkonce_odr noundef nonnull align 8 dereferenceable(8) ptr @_ZNSt10_Head_baseILm0EPN5folly5IOBufELb0EE7_M_headERS3_(ptr noundef nonnull align 8 dereferenceable(8) %__b) #4 comdat align 2 {
entry:
  %__b.addr = alloca ptr, align 8
  store ptr %__b, ptr %__b.addr, align 8
  %0 = load ptr, ptr %__b.addr, align 8
  %_M_head_impl = getelementptr inbounds %"struct.std::_Head_base.9", ptr %0, i32 0, i32 0
  ret ptr %_M_head_impl
}

; Function Attrs: mustprogress nounwind uwtable
define linkonce_odr noundef nonnull align 1 dereferenceable(1) ptr @_ZNSt10unique_ptrIN5folly5IOBufESt14default_deleteIS1_EE11get_deleterEv(ptr noundef nonnull align 8 dereferenceable(8) %this) #4 comdat align 2 {
entry:
  %this.addr = alloca ptr, align 8
  store ptr %this, ptr %this.addr, align 8
  %this1 = load ptr, ptr %this.addr, align 8
  %_M_t = getelementptr inbounds %"class.std::unique_ptr.2", ptr %this1, i32 0, i32 0
  %call = call noundef nonnull align 1 dereferenceable(1) ptr @_ZNSt15__uniq_ptr_implIN5folly5IOBufESt14default_deleteIS1_EE10_M_deleterEv(ptr noundef nonnull align 8 dereferenceable(8) %_M_t) #3
  ret ptr %call
}

; Function Attrs: mustprogress nounwind uwtable
define linkonce_odr void @_ZNKSt14default_deleteIN5folly5IOBufEEclEPS1_(ptr noundef nonnull align 1 dereferenceable(1) %this, ptr noundef %__ptr) #4 comdat align 2 {
entry:
  %this.addr = alloca ptr, align 8
  %__ptr.addr = alloca ptr, align 8
  store ptr %this, ptr %this.addr, align 8
  store ptr %__ptr, ptr %__ptr.addr, align 8
  %0 = load ptr, ptr %__ptr.addr, align 8
  %isnull = icmp eq ptr %0, null
  br i1 %isnull, label %delete.end, label %delete.notnull

delete.notnull:                                   ; preds = %entry
  call void @_ZN5folly5IOBufD1Ev(ptr noundef nonnull align 8 dereferenceable(56) %0) #3
  call void @_ZN5folly5IOBufdlEPv(ptr noundef %0) #3
  br label %delete.end

delete.end:                                       ; preds = %delete.notnull, %entry
  ret void
}

; Function Attrs: mustprogress nounwind uwtable
define linkonce_odr noundef nonnull align 1 dereferenceable(1) ptr @_ZNSt15__uniq_ptr_implIN5folly5IOBufESt14default_deleteIS1_EE10_M_deleterEv(ptr noundef nonnull align 8 dereferenceable(8) %this) #4 comdat align 2 {
entry:
  %this.addr = alloca ptr, align 8
  store ptr %this, ptr %this.addr, align 8
  %this1 = load ptr, ptr %this.addr, align 8
  %_M_t = getelementptr inbounds %"class.std::__uniq_ptr_impl.4", ptr %this1, i32 0, i32 0
  %call = call noundef nonnull align 1 dereferenceable(1) ptr @_ZSt3getILm1EJPN5folly5IOBufESt14default_deleteIS1_EEERNSt13tuple_elementIXT_ESt5tupleIJDpT0_EEE4typeERS9_(ptr noundef nonnull align 8 dereferenceable(8) %_M_t) #3
  ret ptr %call
}

; Function Attrs: mustprogress nounwind uwtable
define linkonce_odr noundef nonnull align 1 dereferenceable(1) ptr @_ZSt3getILm1EJPN5folly5IOBufESt14default_deleteIS1_EEERNSt13tuple_elementIXT_ESt5tupleIJDpT0_EEE4typeERS9_(ptr noundef nonnull align 8 dereferenceable(8) %__t) #4 comdat {
entry:
  %__t.addr = alloca ptr, align 8
  store ptr %__t, ptr %__t.addr, align 8
  %0 = load ptr, ptr %__t.addr, align 8
  %call = call noundef nonnull align 1 dereferenceable(1) ptr @_ZSt12__get_helperILm1ESt14default_deleteIN5folly5IOBufEEJEERT0_RSt11_Tuple_implIXT_EJS4_DpT1_EE(ptr noundef nonnull align 1 dereferenceable(1) %0) #3
  ret ptr %call
}

; Function Attrs: mustprogress nounwind uwtable
define linkonce_odr noundef nonnull align 1 dereferenceable(1) ptr @_ZSt12__get_helperILm1ESt14default_deleteIN5folly5IOBufEEJEERT0_RSt11_Tuple_implIXT_EJS4_DpT1_EE(ptr noundef nonnull align 1 dereferenceable(1) %__t) #4 comdat {
entry:
  %__t.addr = alloca ptr, align 8
  store ptr %__t, ptr %__t.addr, align 8
  %0 = load ptr, ptr %__t.addr, align 8
  %call = call noundef nonnull align 1 dereferenceable(1) ptr @_ZNSt11_Tuple_implILm1EJSt14default_deleteIN5folly5IOBufEEEE7_M_headERS4_(ptr noundef nonnull align 1 dereferenceable(1) %0) #3
  ret ptr %call
}

; Function Attrs: mustprogress nounwind uwtable
define linkonce_odr noundef nonnull align 1 dereferenceable(1) ptr @_ZNSt11_Tuple_implILm1EJSt14default_deleteIN5folly5IOBufEEEE7_M_headERS4_(ptr noundef nonnull align 1 dereferenceable(1) %__t) #4 comdat align 2 {
entry:
  %__t.addr = alloca ptr, align 8
  store ptr %__t, ptr %__t.addr, align 8
  %0 = load ptr, ptr %__t.addr, align 8
  %call = call noundef nonnull align 1 dereferenceable(1) ptr @_ZNSt10_Head_baseILm1ESt14default_deleteIN5folly5IOBufEELb1EE7_M_headERS4_(ptr noundef nonnull align 1 dereferenceable(1) %0) #3
  ret ptr %call
}

; Function Attrs: mustprogress nounwind uwtable
define linkonce_odr noundef nonnull align 1 dereferenceable(1) ptr @_ZNSt10_Head_baseILm1ESt14default_deleteIN5folly5IOBufEELb1EE7_M_headERS4_(ptr noundef nonnull align 1 dereferenceable(1) %__b) #4 comdat align 2 {
entry:
  %__b.addr = alloca ptr, align 8
  store ptr %__b, ptr %__b.addr, align 8
  %0 = load ptr, ptr %__b.addr, align 8
  ret ptr %0
}

; Function Attrs: nounwind
declare void @_ZN5folly5IOBufD1Ev(ptr noundef nonnull align 8 dereferenceable(56)) unnamed_addr #2

; Function Attrs: nounwind
declare void @_ZN5folly5IOBufdlEPv(ptr noundef) #2

declare void @_ZN6google15LogMessageFatalC1EPKci(ptr noundef nonnull align 8 dereferenceable(96), ptr noundef, i32 noundef) unnamed_addr #1

; Function Attrs: noreturn nounwind
declare void @_ZN6google15LogMessageFatalD1Ev(ptr noundef nonnull align 8 dereferenceable(96)) unnamed_addr #9

; Function Attrs: uwtable
define internal void @_GLOBAL__sub_I_CodecErrorResponseHandler.cpp() #0 section ".text.startup" {
entry:
  call void @__cxx_global_var_init()
  ret void
}

attributes #0 = { uwtable "frame-pointer"="all" "min-legal-vector-width"="0" "no-trapping-math"="true" "stack-protector-buffer-size"="8" "target-cpu"="x86-64" "target-features"="+cmov,+cx8,+fxsr,+mmx,+sse,+sse2,+x87" "tune-cpu"="generic" }
attributes #1 = { "frame-pointer"="all" "no-trapping-math"="true" "stack-protector-buffer-size"="8" "target-cpu"="x86-64" "target-features"="+cmov,+cx8,+fxsr,+mmx,+sse,+sse2,+x87" "tune-cpu"="generic" }
attributes #2 = { nounwind "frame-pointer"="all" "no-trapping-math"="true" "stack-protector-buffer-size"="8" "target-cpu"="x86-64" "target-features"="+cmov,+cx8,+fxsr,+mmx,+sse,+sse2,+x87" "tune-cpu"="generic" }
attributes #3 = { nounwind }
attributes #4 = { mustprogress nounwind uwtable "frame-pointer"="all" "min-legal-vector-width"="0" "no-trapping-math"="true" "stack-protector-buffer-size"="8" "target-cpu"="x86-64" "target-features"="+cmov,+cx8,+fxsr,+mmx,+sse,+sse2,+x87" "tune-cpu"="generic" }
attributes #5 = { nobuiltin nounwind "frame-pointer"="all" "no-trapping-math"="true" "stack-protector-buffer-size"="8" "target-cpu"="x86-64" "target-features"="+cmov,+cx8,+fxsr,+mmx,+sse,+sse2,+x87" "tune-cpu"="generic" }
attributes #6 = { noreturn nounwind uwtable "frame-pointer"="all" "no-trapping-math"="true" "stack-protector-buffer-size"="8" "target-cpu"="x86-64" "target-features"="+cmov,+cx8,+fxsr,+mmx,+sse,+sse2,+x87" "tune-cpu"="generic" }
attributes #7 = { cold noreturn nounwind memory(inaccessiblemem: write) }
attributes #8 = { nocallback nofree nounwind willreturn memory(argmem: readwrite) }
attributes #9 = { noreturn nounwind "frame-pointer"="all" "no-trapping-math"="true" "stack-protector-buffer-size"="8" "target-cpu"="x86-64" "target-features"="+cmov,+cx8,+fxsr,+mmx,+sse,+sse2,+x87" "tune-cpu"="generic" }
attributes #10 = { builtin nounwind }
attributes #11 = { noreturn nounwind }

!llvm.module.flags = !{!0, !1, !2, !3}

!0 = !{i32 1, !"wchar_size", i32 4}
!1 = !{i32 8, !"PIC Level", i32 2}
!2 = !{i32 7, !"uwtable", i32 2}
!3 = !{i32 7, !"frame-pointer", i32 2}
