target datalayout = "e-m:e-p270:32:32-p271:32:32-p272:64:64-i64:64-i128:128-f80:128-n8:16:32:64-S128"
target triple = "x86_64-unknown-linux-gnu"

%"class.std::ios_base::Init" = type { i8 }
%"struct.proxygen::HPACK::Instruction" = type { i8, i8 }
%"struct.google::SiteFlag" = type { ptr, ptr, i64, ptr }
%"struct.google::CheckOpString" = type { ptr }
%"class.google::LogMessageFatal" = type { %"class.google::LogMessage" }
%"class.google::LogMessage" = type { ptr, ptr, %"struct.google::LogMessageTime" }
%"struct.google::LogMessageTime" = type { %struct.tm, i64, i32, i64 }
%struct.tm = type { i32, i32, i32, i32, i32, i32, i32, i32, i32, i64, ptr }
%"class.google::LogMessageVoidify" = type { i8 }
%"class.proxygen::HPACKEncoderBase" = type <{ ptr, %"class.proxygen::HPACKEncodeBuffer", i8, [7 x i8] }>
%"class.proxygen::HPACKEncodeBuffer" = type <{ %"class.folly::IOBufQueue", ptr, %"class.folly::io::QueueAppender", i32, i32, i32, [4 x i8] }>
%"class.folly::IOBufQueue" = type { %"struct.folly::IOBufQueue::Options", i64, %"class.std::unique_ptr", ptr, ptr, %"struct.folly::IOBufQueue::WritableRangeCacheData", ptr }
%"struct.folly::IOBufQueue::Options" = type { i8 }
%"class.std::unique_ptr" = type { %"struct.std::__uniq_ptr_data" }
%"struct.std::__uniq_ptr_data" = type { %"class.std::__uniq_ptr_impl" }
%"class.std::__uniq_ptr_impl" = type { %"class.std::tuple" }
%"class.std::tuple" = type { %"struct.std::_Tuple_impl" }
%"struct.std::_Tuple_impl" = type { %"struct.std::_Head_base.1" }
%"struct.std::_Head_base.1" = type { ptr }
%"struct.folly::IOBufQueue::WritableRangeCacheData" = type <{ %"struct.std::pair", i8, [7 x i8] }>
%"struct.std::pair" = type { ptr, ptr }
%"class.folly::io::QueueAppender" = type { %"class.folly::IOBufQueue::WritableRangeCache", i64 }
%"class.folly::IOBufQueue::WritableRangeCache" = type { %"struct.folly::IOBufQueue::WritableRangeCacheData", ptr }
%"class.google::base::CheckOpMessageBuilder" = type { ptr }

$_ZN6google12Check_EQImplIhhEEPNSt7__cxx1112basic_stringIcSt11char_traitsIcESaIcEEERKT_RKT0_PKc = comdat any

$_ZN6google21GetReferenceableValueEh = comdat any

$_ZN6google13CheckOpStringC2EPNSt7__cxx1112basic_stringIcSt11char_traitsIcESaIcEEE = comdat any

$_ZNK6google13CheckOpStringcvbEv = comdat any

$_ZN6google17LogMessageVoidifyC2Ev = comdat any

$_ZN6google17LogMessageVoidifyanERSo = comdat any

$_ZN6google17MakeCheckOpStringIhhEEPNSt7__cxx1112basic_stringIcSt11char_traitsIcESaIcEEERKT_RKT0_PKc = comdat any

$_ZN6google4base21CheckOpMessageBuilder7ForVar1Ev = comdat any

@_ZStL8__ioinit = internal global %"class.std::ios_base::Init" zeroinitializer, align 1
@__dso_handle = external hidden global i8
@_ZN8proxygen5HPACKL17TABLE_SIZE_UPDATEE = internal constant %"struct.proxygen::HPACK::Instruction" { i8 32, i8 5 }, align 1
@_ZN8proxygen5HPACKL19Q_TABLE_SIZE_UPDATEE = internal constant %"struct.proxygen::HPACK::Instruction" { i8 32, i8 5 }, align 1
@.str = private unnamed_addr constant [65 x i8] c"HPACK::TABLE_SIZE_UPDATE.code == HPACK::Q_TABLE_SIZE_UPDATE.code\00", align 1
@.str.1 = private unnamed_addr constant [149 x i8] c"generated/home/dtcxzyw/WorkSpace/Projects/compilers/llvm-opt-benchmark/bench/proxygen/proxygen/proxygen/lib/http/codec/compress/HPACKEncoderBase.cpp\00", align 1
@.str.2 = private unnamed_addr constant [29 x i8] c"Code assumes these are equal\00", align 1
@_ZZN8proxygen16HPACKEncoderBase26handlePendingContextUpdateERNS_17HPACKEncodeBufferEjE8vlocal__ = internal global %"struct.google::SiteFlag" zeroinitializer, align 8
@_ZN3fLI7FLAGS_vE = external global i32, align 4
@.str.3 = private unnamed_addr constant [33 x i8] c"Encoding table size update size=\00", align 1
@llvm.global_ctors = appending global [1 x { i32, ptr, ptr }] [{ i32, ptr, ptr } { i32 65535, ptr @_GLOBAL__sub_I_HPACKEncoderBase.cpp, ptr null }]

; Function Attrs: uwtable
define internal void @__cxx_global_var_init() #0 section ".text.startup" {
entry:
  call void @_ZNSt8ios_base4InitC1Ev(ptr noundef nonnull align 1 dereferenceable(1) @_ZStL8__ioinit)
  %0 = call i32 @__cxa_atexit(ptr @_ZNSt8ios_base4InitD1Ev, ptr @_ZStL8__ioinit, ptr @__dso_handle) #3
  ret void
}

declare void @_ZNSt8ios_base4InitC1Ev(ptr noundef nonnull align 1 dereferenceable(1)) unnamed_addr #1

; Function Attrs: nounwind
declare void @_ZNSt8ios_base4InitD1Ev(ptr noundef nonnull align 1 dereferenceable(1)) unnamed_addr #2

; Function Attrs: nounwind
declare i32 @__cxa_atexit(ptr, ptr, ptr) #3

; Function Attrs: mustprogress uwtable
define noundef i32 @_ZN8proxygen16HPACKEncoderBase26handlePendingContextUpdateERNS_17HPACKEncodeBufferEj(ptr noundef nonnull align 8 dereferenceable(145) %this, ptr noundef nonnull align 8 dereferenceable(132) %buf, i32 noundef %tableCapacity) #4 align 2 personality ptr @__gxx_personality_v0 {
entry:
  %this.addr = alloca ptr, align 8
  %buf.addr = alloca ptr, align 8
  %tableCapacity.addr = alloca i32, align 4
  %_result = alloca %"struct.google::CheckOpString", align 8
  %ref.tmp = alloca i8, align 1
  %ref.tmp2 = alloca i8, align 1
  %ref.tmp6 = alloca %"class.google::LogMessageFatal", align 8
  %exn.slot = alloca ptr, align 8
  %ehselector.slot = alloca i32, align 4
  %encoded = alloca i32, align 4
  %verbose_level__ = alloca i32, align 4
  %tmp = alloca i8, align 1
  %ref.tmp15 = alloca %"class.google::LogMessageVoidify", align 1
  %ref.tmp16 = alloca %"class.google::LogMessage", align 8
  %cleanup.cond = alloca i1, align 1
  store ptr %this, ptr %this.addr, align 8
  store ptr %buf, ptr %buf.addr, align 8
  store i32 %tableCapacity, ptr %tableCapacity.addr, align 4
  %this1 = load ptr, ptr %this.addr, align 8
  br label %while.cond

while.cond:                                       ; preds = %entry
  %call = call noundef zeroext i8 @_ZN6google21GetReferenceableValueEh(i8 noundef zeroext 32)
  store i8 %call, ptr %ref.tmp, align 1
  %call3 = call noundef zeroext i8 @_ZN6google21GetReferenceableValueEh(i8 noundef zeroext 32)
  store i8 %call3, ptr %ref.tmp2, align 1
  %call4 = call noundef ptr @_ZN6google12Check_EQImplIhhEEPNSt7__cxx1112basic_stringIcSt11char_traitsIcESaIcEEERKT_RKT0_PKc(ptr noundef nonnull align 1 dereferenceable(1) %ref.tmp, ptr noundef nonnull align 1 dereferenceable(1) %ref.tmp2, ptr noundef @.str)
  call void @_ZN6google13CheckOpStringC2EPNSt7__cxx1112basic_stringIcSt11char_traitsIcESaIcEEE(ptr noundef nonnull align 8 dereferenceable(8) %_result, ptr noundef %call4)
  %call5 = call noundef zeroext i1 @_ZNK6google13CheckOpStringcvbEv(ptr noundef nonnull align 8 dereferenceable(8) %_result)
  br i1 %call5, label %while.body, label %while.end

while.body:                                       ; preds = %while.cond
  call void @_ZN6google15LogMessageFatalC1EPKciRKNS_13CheckOpStringE(ptr noundef nonnull align 8 dereferenceable(96) %ref.tmp6, ptr noundef @.str.1, i32 noundef 15, ptr noundef nonnull align 8 dereferenceable(8) %_result)
  %call7 = invoke noundef nonnull align 8 dereferenceable(8) ptr @_ZN6google10LogMessage6streamEv(ptr noundef nonnull align 8 dereferenceable(96) %ref.tmp6)
          to label %invoke.cont unwind label %lpad

invoke.cont:                                      ; preds = %while.body
  %call9 = invoke noundef nonnull align 8 dereferenceable(8) ptr @_ZStlsISt11char_traitsIcEERSt13basic_ostreamIcT_ES5_PKc(ptr noundef nonnull align 8 dereferenceable(8) %call7, ptr noundef @.str.2)
          to label %invoke.cont8 unwind label %lpad

invoke.cont8:                                     ; preds = %invoke.cont
  call void @_ZN6google15LogMessageFatalD1Ev(ptr noundef nonnull align 8 dereferenceable(96) %ref.tmp6) #7
  unreachable

lpad:                                             ; preds = %invoke.cont, %while.body
  %0 = landingpad { ptr, i32 }
          cleanup
  %1 = extractvalue { ptr, i32 } %0, 0
  store ptr %1, ptr %exn.slot, align 8
  %2 = extractvalue { ptr, i32 } %0, 1
  store i32 %2, ptr %ehselector.slot, align 4
  call void @_ZN6google15LogMessageFatalD1Ev(ptr noundef nonnull align 8 dereferenceable(96) %ref.tmp6) #7
  unreachable

3:                                                ; No predecessors!
  br label %eh.resume

while.end:                                        ; preds = %while.cond
  store i32 0, ptr %encoded, align 4
  %pendingContextUpdate_ = getelementptr inbounds %"class.proxygen::HPACKEncoderBase", ptr %this1, i32 0, i32 2
  %4 = load i8, ptr %pendingContextUpdate_, align 8
  %tobool = trunc i8 %4 to i1
  br i1 %tobool, label %if.then, label %if.end

if.then:                                          ; preds = %while.end
  store i32 5, ptr %verbose_level__, align 4
  %5 = load ptr, ptr @_ZZN8proxygen16HPACKEncoderBase26handlePendingContextUpdateERNS_17HPACKEncodeBufferEjE8vlocal__, align 8
  %cmp = icmp eq ptr %5, null
  store i1 false, ptr %cleanup.cond, align 1
  br i1 %cmp, label %cond.true, label %cond.false

cond.true:                                        ; preds = %if.then
  %6 = load i32, ptr %verbose_level__, align 4
  %call10 = call noundef zeroext i1 @_ZN6google11InitVLOG3__EPNS_8SiteFlagEPiPKci(ptr noundef @_ZZN8proxygen16HPACKEncoderBase26handlePendingContextUpdateERNS_17HPACKEncodeBufferEjE8vlocal__, ptr noundef @_ZN3fLI7FLAGS_vE, ptr noundef @.str.1, i32 noundef %6)
  br label %cond.end

cond.false:                                       ; preds = %if.then
  %7 = load ptr, ptr @_ZZN8proxygen16HPACKEncoderBase26handlePendingContextUpdateERNS_17HPACKEncodeBufferEjE8vlocal__, align 8
  %8 = load i32, ptr %7, align 4
  %9 = load i32, ptr %verbose_level__, align 4
  %cmp11 = icmp sge i32 %8, %9
  br label %cond.end

cond.end:                                         ; preds = %cond.false, %cond.true
  %cond = phi i1 [ %call10, %cond.true ], [ %cmp11, %cond.false ]
  %frombool = zext i1 %cond to i8
  store i8 %frombool, ptr %tmp, align 1
  %10 = load i8, ptr %tmp, align 1
  %tobool12 = trunc i8 %10 to i1
  br i1 %tobool12, label %cond.false14, label %cond.true13

cond.true13:                                      ; preds = %cond.end
  br label %cond.end25

cond.false14:                                     ; preds = %cond.end
  call void @_ZN6google17LogMessageVoidifyC2Ev(ptr noundef nonnull align 1 dereferenceable(1) %ref.tmp15)
  call void @_ZN6google10LogMessageC1EPKci(ptr noundef nonnull align 8 dereferenceable(96) %ref.tmp16, ptr noundef @.str.1, i32 noundef 19)
  store i1 true, ptr %cleanup.cond, align 1
  %call19 = invoke noundef nonnull align 8 dereferenceable(8) ptr @_ZN6google10LogMessage6streamEv(ptr noundef nonnull align 8 dereferenceable(96) %ref.tmp16)
          to label %invoke.cont18 unwind label %lpad17

invoke.cont18:                                    ; preds = %cond.false14
  %call21 = invoke noundef nonnull align 8 dereferenceable(8) ptr @_ZStlsISt11char_traitsIcEERSt13basic_ostreamIcT_ES5_PKc(ptr noundef nonnull align 8 dereferenceable(8) %call19, ptr noundef @.str.3)
          to label %invoke.cont20 unwind label %lpad17

invoke.cont20:                                    ; preds = %invoke.cont18
  %11 = load i32, ptr %tableCapacity.addr, align 4
  %call23 = invoke noundef nonnull align 8 dereferenceable(8) ptr @_ZNSolsEj(ptr noundef nonnull align 8 dereferenceable(8) %call21, i32 noundef %11)
          to label %invoke.cont22 unwind label %lpad17

invoke.cont22:                                    ; preds = %invoke.cont20
  invoke void @_ZN6google17LogMessageVoidifyanERSo(ptr noundef nonnull align 1 dereferenceable(1) %ref.tmp15, ptr noundef nonnull align 8 dereferenceable(8) %call23)
          to label %invoke.cont24 unwind label %lpad17

invoke.cont24:                                    ; preds = %invoke.cont22
  br label %cond.end25

cond.end25:                                       ; preds = %invoke.cont24, %cond.true13
  %cleanup.is_active = load i1, ptr %cleanup.cond, align 1
  br i1 %cleanup.is_active, label %cleanup.action, label %cleanup.done

cleanup.action:                                   ; preds = %cond.end25
  call void @_ZN6google10LogMessageD1Ev(ptr noundef nonnull align 8 dereferenceable(96) %ref.tmp16) #3
  br label %cleanup.done

cleanup.done:                                     ; preds = %cleanup.action, %cond.end25
  %12 = load ptr, ptr %buf.addr, align 8
  %13 = load i32, ptr %tableCapacity.addr, align 4
  %conv = zext i32 %13 to i64
  %call29 = call noundef i32 @_ZN8proxygen17HPACKEncodeBuffer13encodeIntegerEmRKNS_5HPACK11InstructionE(ptr noundef nonnull align 8 dereferenceable(132) %12, i64 noundef %conv, ptr noundef nonnull align 1 dereferenceable(2) @_ZN8proxygen5HPACKL17TABLE_SIZE_UPDATEE)
  store i32 %call29, ptr %encoded, align 4
  %pendingContextUpdate_30 = getelementptr inbounds %"class.proxygen::HPACKEncoderBase", ptr %this1, i32 0, i32 2
  store i8 0, ptr %pendingContextUpdate_30, align 8
  br label %if.end

lpad17:                                           ; preds = %invoke.cont22, %invoke.cont20, %invoke.cont18, %cond.false14
  %14 = landingpad { ptr, i32 }
          cleanup
  %15 = extractvalue { ptr, i32 } %14, 0
  store ptr %15, ptr %exn.slot, align 8
  %16 = extractvalue { ptr, i32 } %14, 1
  store i32 %16, ptr %ehselector.slot, align 4
  %cleanup.is_active26 = load i1, ptr %cleanup.cond, align 1
  br i1 %cleanup.is_active26, label %cleanup.action27, label %cleanup.done28

cleanup.action27:                                 ; preds = %lpad17
  call void @_ZN6google10LogMessageD1Ev(ptr noundef nonnull align 8 dereferenceable(96) %ref.tmp16) #3
  br label %cleanup.done28

cleanup.done28:                                   ; preds = %cleanup.action27, %lpad17
  br label %eh.resume

if.end:                                           ; preds = %cleanup.done, %while.end
  %17 = load i32, ptr %encoded, align 4
  ret i32 %17

eh.resume:                                        ; preds = %cleanup.done28, %3
  %exn = load ptr, ptr %exn.slot, align 8
  %sel = load i32, ptr %ehselector.slot, align 4
  %lpad.val = insertvalue { ptr, i32 } poison, ptr %exn, 0
  %lpad.val31 = insertvalue { ptr, i32 } %lpad.val, i32 %sel, 1
  resume { ptr, i32 } %lpad.val31
}

; Function Attrs: mustprogress uwtable
define linkonce_odr noundef ptr @_ZN6google12Check_EQImplIhhEEPNSt7__cxx1112basic_stringIcSt11char_traitsIcESaIcEEERKT_RKT0_PKc(ptr noundef nonnull align 1 dereferenceable(1) %v1, ptr noundef nonnull align 1 dereferenceable(1) %v2, ptr noundef %exprtext) #4 comdat {
entry:
  %retval = alloca ptr, align 8
  %v1.addr = alloca ptr, align 8
  %v2.addr = alloca ptr, align 8
  %exprtext.addr = alloca ptr, align 8
  store ptr %v1, ptr %v1.addr, align 8
  store ptr %v2, ptr %v2.addr, align 8
  store ptr %exprtext, ptr %exprtext.addr, align 8
  %0 = load ptr, ptr %v1.addr, align 8
  %1 = load i8, ptr %0, align 1
  %conv = zext i8 %1 to i32
  %2 = load ptr, ptr %v2.addr, align 8
  %3 = load i8, ptr %2, align 1
  %conv1 = zext i8 %3 to i32
  %cmp = icmp eq i32 %conv, %conv1
  %lnot = xor i1 %cmp, true
  %lnot2 = xor i1 %lnot, true
  br i1 %lnot2, label %if.then, label %if.else

if.then:                                          ; preds = %entry
  store ptr null, ptr %retval, align 8
  br label %return

if.else:                                          ; preds = %entry
  %4 = load ptr, ptr %v1.addr, align 8
  %5 = load ptr, ptr %v2.addr, align 8
  %6 = load ptr, ptr %exprtext.addr, align 8
  %call = call noundef ptr @_ZN6google17MakeCheckOpStringIhhEEPNSt7__cxx1112basic_stringIcSt11char_traitsIcESaIcEEERKT_RKT0_PKc(ptr noundef nonnull align 1 dereferenceable(1) %4, ptr noundef nonnull align 1 dereferenceable(1) %5, ptr noundef %6)
  store ptr %call, ptr %retval, align 8
  br label %return

return:                                           ; preds = %if.else, %if.then
  %7 = load ptr, ptr %retval, align 8
  ret ptr %7
}

; Function Attrs: mustprogress nounwind uwtable
define linkonce_odr noundef zeroext i8 @_ZN6google21GetReferenceableValueEh(i8 noundef zeroext %t) #5 comdat {
entry:
  %t.addr = alloca i8, align 1
  store i8 %t, ptr %t.addr, align 1
  %0 = load i8, ptr %t.addr, align 1
  ret i8 %0
}

; Function Attrs: mustprogress nounwind uwtable
define linkonce_odr void @_ZN6google13CheckOpStringC2EPNSt7__cxx1112basic_stringIcSt11char_traitsIcESaIcEEE(ptr noundef nonnull align 8 dereferenceable(8) %this, ptr noundef %str) unnamed_addr #5 comdat align 2 {
entry:
  %this.addr = alloca ptr, align 8
  %str.addr = alloca ptr, align 8
  store ptr %this, ptr %this.addr, align 8
  store ptr %str, ptr %str.addr, align 8
  %this1 = load ptr, ptr %this.addr, align 8
  %str_ = getelementptr inbounds %"struct.google::CheckOpString", ptr %this1, i32 0, i32 0
  %0 = load ptr, ptr %str.addr, align 8
  store ptr %0, ptr %str_, align 8
  ret void
}

; Function Attrs: mustprogress nounwind uwtable
define linkonce_odr noundef zeroext i1 @_ZNK6google13CheckOpStringcvbEv(ptr noundef nonnull align 8 dereferenceable(8) %this) #5 comdat align 2 {
entry:
  %this.addr = alloca ptr, align 8
  store ptr %this, ptr %this.addr, align 8
  %this1 = load ptr, ptr %this.addr, align 8
  %str_ = getelementptr inbounds %"struct.google::CheckOpString", ptr %this1, i32 0, i32 0
  %0 = load ptr, ptr %str_, align 8
  %cmp = icmp ne ptr %0, null
  ret i1 %cmp
}

declare noundef nonnull align 8 dereferenceable(8) ptr @_ZStlsISt11char_traitsIcEERSt13basic_ostreamIcT_ES5_PKc(ptr noundef nonnull align 8 dereferenceable(8), ptr noundef) #1

declare void @_ZN6google15LogMessageFatalC1EPKciRKNS_13CheckOpStringE(ptr noundef nonnull align 8 dereferenceable(96), ptr noundef, i32 noundef, ptr noundef nonnull align 8 dereferenceable(8)) unnamed_addr #1

declare noundef nonnull align 8 dereferenceable(8) ptr @_ZN6google10LogMessage6streamEv(ptr noundef nonnull align 8 dereferenceable(96)) #1

declare i32 @__gxx_personality_v0(...)

; Function Attrs: noreturn nounwind
declare void @_ZN6google15LogMessageFatalD1Ev(ptr noundef nonnull align 8 dereferenceable(96)) unnamed_addr #6

declare noundef zeroext i1 @_ZN6google11InitVLOG3__EPNS_8SiteFlagEPiPKci(ptr noundef, ptr noundef, ptr noundef, i32 noundef) #1

; Function Attrs: mustprogress nounwind uwtable
define linkonce_odr void @_ZN6google17LogMessageVoidifyC2Ev(ptr noundef nonnull align 1 dereferenceable(1) %this) unnamed_addr #5 comdat align 2 {
entry:
  %this.addr = alloca ptr, align 8
  store ptr %this, ptr %this.addr, align 8
  ret void
}

; Function Attrs: mustprogress nounwind uwtable
define linkonce_odr void @_ZN6google17LogMessageVoidifyanERSo(ptr noundef nonnull align 1 dereferenceable(1) %this, ptr noundef nonnull align 8 dereferenceable(8) %0) #5 comdat align 2 {
entry:
  %this.addr = alloca ptr, align 8
  %.addr = alloca ptr, align 8
  store ptr %this, ptr %this.addr, align 8
  store ptr %0, ptr %.addr, align 8
  ret void
}

declare void @_ZN6google10LogMessageC1EPKci(ptr noundef nonnull align 8 dereferenceable(96), ptr noundef, i32 noundef) unnamed_addr #1

declare noundef nonnull align 8 dereferenceable(8) ptr @_ZNSolsEj(ptr noundef nonnull align 8 dereferenceable(8), i32 noundef) #1

; Function Attrs: nounwind
declare void @_ZN6google10LogMessageD1Ev(ptr noundef nonnull align 8 dereferenceable(96)) unnamed_addr #2

declare noundef i32 @_ZN8proxygen17HPACKEncodeBuffer13encodeIntegerEmRKNS_5HPACK11InstructionE(ptr noundef nonnull align 8 dereferenceable(132), i64 noundef, ptr noundef nonnull align 1 dereferenceable(2)) #1

; Function Attrs: mustprogress uwtable
define linkonce_odr noundef ptr @_ZN6google17MakeCheckOpStringIhhEEPNSt7__cxx1112basic_stringIcSt11char_traitsIcESaIcEEERKT_RKT0_PKc(ptr noundef nonnull align 1 dereferenceable(1) %v1, ptr noundef nonnull align 1 dereferenceable(1) %v2, ptr noundef %exprtext) #4 comdat personality ptr @__gxx_personality_v0 {
entry:
  %v1.addr = alloca ptr, align 8
  %v2.addr = alloca ptr, align 8
  %exprtext.addr = alloca ptr, align 8
  %comb = alloca %"class.google::base::CheckOpMessageBuilder", align 8
  %exn.slot = alloca ptr, align 8
  %ehselector.slot = alloca i32, align 4
  store ptr %v1, ptr %v1.addr, align 8
  store ptr %v2, ptr %v2.addr, align 8
  store ptr %exprtext, ptr %exprtext.addr, align 8
  %0 = load ptr, ptr %exprtext.addr, align 8
  call void @_ZN6google4base21CheckOpMessageBuilderC1EPKc(ptr noundef nonnull align 8 dereferenceable(8) %comb, ptr noundef %0)
  %call = invoke noundef ptr @_ZN6google4base21CheckOpMessageBuilder7ForVar1Ev(ptr noundef nonnull align 8 dereferenceable(8) %comb)
          to label %invoke.cont unwind label %lpad

invoke.cont:                                      ; preds = %entry
  %1 = load ptr, ptr %v1.addr, align 8
  invoke void @_ZN6google22MakeCheckOpValueStringIhEEvPSoRKT_(ptr noundef %call, ptr noundef nonnull align 1 dereferenceable(1) %1)
          to label %invoke.cont1 unwind label %lpad

invoke.cont1:                                     ; preds = %invoke.cont
  %call3 = invoke noundef ptr @_ZN6google4base21CheckOpMessageBuilder7ForVar2Ev(ptr noundef nonnull align 8 dereferenceable(8) %comb)
          to label %invoke.cont2 unwind label %lpad

invoke.cont2:                                     ; preds = %invoke.cont1
  %2 = load ptr, ptr %v2.addr, align 8
  invoke void @_ZN6google22MakeCheckOpValueStringIhEEvPSoRKT_(ptr noundef %call3, ptr noundef nonnull align 1 dereferenceable(1) %2)
          to label %invoke.cont4 unwind label %lpad

invoke.cont4:                                     ; preds = %invoke.cont2
  %call6 = invoke noundef ptr @_ZN6google4base21CheckOpMessageBuilder9NewStringB5cxx11Ev(ptr noundef nonnull align 8 dereferenceable(8) %comb)
          to label %invoke.cont5 unwind label %lpad

invoke.cont5:                                     ; preds = %invoke.cont4
  call void @_ZN6google4base21CheckOpMessageBuilderD1Ev(ptr noundef nonnull align 8 dereferenceable(8) %comb) #3
  ret ptr %call6

lpad:                                             ; preds = %invoke.cont4, %invoke.cont2, %invoke.cont1, %invoke.cont, %entry
  %3 = landingpad { ptr, i32 }
          cleanup
  %4 = extractvalue { ptr, i32 } %3, 0
  store ptr %4, ptr %exn.slot, align 8
  %5 = extractvalue { ptr, i32 } %3, 1
  store i32 %5, ptr %ehselector.slot, align 4
  call void @_ZN6google4base21CheckOpMessageBuilderD1Ev(ptr noundef nonnull align 8 dereferenceable(8) %comb) #3
  br label %eh.resume

eh.resume:                                        ; preds = %lpad
  %exn = load ptr, ptr %exn.slot, align 8
  %sel = load i32, ptr %ehselector.slot, align 4
  %lpad.val = insertvalue { ptr, i32 } poison, ptr %exn, 0
  %lpad.val7 = insertvalue { ptr, i32 } %lpad.val, i32 %sel, 1
  resume { ptr, i32 } %lpad.val7
}

declare void @_ZN6google4base21CheckOpMessageBuilderC1EPKc(ptr noundef nonnull align 8 dereferenceable(8), ptr noundef) unnamed_addr #1

declare void @_ZN6google22MakeCheckOpValueStringIhEEvPSoRKT_(ptr noundef, ptr noundef nonnull align 1 dereferenceable(1)) #1

; Function Attrs: mustprogress nounwind uwtable
define linkonce_odr noundef ptr @_ZN6google4base21CheckOpMessageBuilder7ForVar1Ev(ptr noundef nonnull align 8 dereferenceable(8) %this) #5 comdat align 2 {
entry:
  %this.addr = alloca ptr, align 8
  store ptr %this, ptr %this.addr, align 8
  %this1 = load ptr, ptr %this.addr, align 8
  %stream_ = getelementptr inbounds %"class.google::base::CheckOpMessageBuilder", ptr %this1, i32 0, i32 0
  %0 = load ptr, ptr %stream_, align 8
  ret ptr %0
}

declare noundef ptr @_ZN6google4base21CheckOpMessageBuilder7ForVar2Ev(ptr noundef nonnull align 8 dereferenceable(8)) #1

declare noundef ptr @_ZN6google4base21CheckOpMessageBuilder9NewStringB5cxx11Ev(ptr noundef nonnull align 8 dereferenceable(8)) #1

; Function Attrs: nounwind
declare void @_ZN6google4base21CheckOpMessageBuilderD1Ev(ptr noundef nonnull align 8 dereferenceable(8)) unnamed_addr #2

; Function Attrs: uwtable
define internal void @_GLOBAL__sub_I_HPACKEncoderBase.cpp() #0 section ".text.startup" {
entry:
  call void @__cxx_global_var_init()
  ret void
}

attributes #0 = { uwtable "frame-pointer"="all" "min-legal-vector-width"="0" "no-trapping-math"="true" "stack-protector-buffer-size"="8" "target-cpu"="x86-64" "target-features"="+cmov,+cx8,+fxsr,+mmx,+sse,+sse2,+x87" "tune-cpu"="generic" }
attributes #1 = { "frame-pointer"="all" "no-trapping-math"="true" "stack-protector-buffer-size"="8" "target-cpu"="x86-64" "target-features"="+cmov,+cx8,+fxsr,+mmx,+sse,+sse2,+x87" "tune-cpu"="generic" }
attributes #2 = { nounwind "frame-pointer"="all" "no-trapping-math"="true" "stack-protector-buffer-size"="8" "target-cpu"="x86-64" "target-features"="+cmov,+cx8,+fxsr,+mmx,+sse,+sse2,+x87" "tune-cpu"="generic" }
attributes #3 = { nounwind }
attributes #4 = { mustprogress uwtable "frame-pointer"="all" "min-legal-vector-width"="0" "no-trapping-math"="true" "stack-protector-buffer-size"="8" "target-cpu"="x86-64" "target-features"="+cmov,+cx8,+fxsr,+mmx,+sse,+sse2,+x87" "tune-cpu"="generic" }
attributes #5 = { mustprogress nounwind uwtable "frame-pointer"="all" "min-legal-vector-width"="0" "no-trapping-math"="true" "stack-protector-buffer-size"="8" "target-cpu"="x86-64" "target-features"="+cmov,+cx8,+fxsr,+mmx,+sse,+sse2,+x87" "tune-cpu"="generic" }
attributes #6 = { noreturn nounwind "frame-pointer"="all" "no-trapping-math"="true" "stack-protector-buffer-size"="8" "target-cpu"="x86-64" "target-features"="+cmov,+cx8,+fxsr,+mmx,+sse,+sse2,+x87" "tune-cpu"="generic" }
attributes #7 = { noreturn nounwind }

!llvm.module.flags = !{!0, !1, !2, !3}

!0 = !{i32 1, !"wchar_size", i32 4}
!1 = !{i32 8, !"PIC Level", i32 2}
!2 = !{i32 7, !"uwtable", i32 2}
!3 = !{i32 7, !"frame-pointer", i32 2}
