target datalayout = "e-m:e-p270:32:32-p271:32:32-p272:64:64-i64:64-i128:128-f80:128-n8:16:32:64-S128"
target triple = "x86_64-unknown-linux-gnu"

%"class.std::ios_base::Init" = type { i8 }
%"struct.google::SiteFlag" = type { ptr, ptr, i64, ptr }
%"class.std::chrono::duration.150" = type { i64 }
%"class.std::__cxx11::basic_string" = type { %"struct.std::__cxx11::basic_string<char>::_Alloc_hider", i64, %union.anon.73 }
%"struct.std::__cxx11::basic_string<char>::_Alloc_hider" = type { ptr }
%union.anon.73 = type { i64, [8 x i8] }
%"struct.std::piecewise_construct_t" = type { i8 }
%"struct.folly::Unit" = type { i8 }
%"struct.folly::unsafe_default_initialized_cv" = type { i8 }
%"class.folly::Optional" = type { %"struct.folly::Optional<unsigned long>::StorageTriviallyDestructible" }
%"struct.folly::Optional<unsigned long>::StorageTriviallyDestructible" = type <{ %union.anon, i8, [7 x i8] }>
%union.anon = type { i64 }
%"struct.folly::tag_t" = type { i8 }
%"struct.folly::c_array" = type { [43 x i8] }
%"struct.std::in_place_type_t" = type { i8 }
%"struct.folly::c_array.284" = type { [20 x i64] }
%"struct.folly::c_array.285" = type { [100 x i16] }
%"struct.folly::tag_t.286" = type { i8 }
%"struct.folly::c_array.287" = type { [66 x i8] }
%"struct.std::_Swallow_assign" = type { i8 }
%"struct.std::in_place_t" = type { i8 }
%"struct.folly::identity_fn" = type { i8 }
%"struct.folly::c_array.324" = type { [5 x i8] }
%"struct.std::in_place_type_t.353" = type { i8 }
%"struct.proxygen::http2::PriorityUpdate" = type { i64, i8, i8 }
%"struct.folly::IOBufQueue::Options" = type { i8 }
%"class.proxygen::HTTPTransaction" = type { %"class.folly::HHWheelTimerBase<std::chrono::duration<long, std::ratio<1, 1000>>>::Callback", %"class.folly::DelayedDestructionBase.base", %"class.proxygen::HTTPTransaction::RateLimitCallback", %"class.std::unique_ptr", %"class.folly::IOBufQueue", %"struct.proxygen::HTTPTransaction::BufferMeta", i8, i8, i8, i32, i64, i32, i32, ptr, ptr, ptr, %"struct.proxygen::CompressionInfo", %"class.proxygen::Window", %"class.proxygen::Window", ptr, %"class.std::unique_ptr.12", %"class.std::__cxx11::list", ptr, ptr, %"class.folly::Optional", %"class.folly::Optional.0", %"class.std::set", %"class.std::set", %"struct.proxygen::http2::PriorityUpdate", i64, i64, double, i64, i64, %"class.folly::Optional", %"class.folly::Optional", %"class.folly::Optional", %"class.folly::Optional", i64, %"class.std::map", i24, i16, i64, %"class.std::chrono::time_point", i64, %"class.folly::Optional.27", ptr, i64, i8, %"class.std::map.30", %"class.std::map.35", %"class.proxygen::HTTPTransaction::TxnWebTransport" }
%"class.folly::HHWheelTimerBase<std::chrono::duration<long, std::ratio<1, 1000>>>::Callback" = type { ptr, %"class.boost::intrusive::list_base_hook", ptr, %"class.std::chrono::time_point", i32, %"class.std::shared_ptr" }
%"class.boost::intrusive::list_base_hook" = type { %"class.boost::intrusive::generic_hook" }
%"class.boost::intrusive::generic_hook" = type { %"struct.boost::intrusive::node_holder" }
%"struct.boost::intrusive::node_holder" = type { %"struct.boost::intrusive::list_node" }
%"struct.boost::intrusive::list_node" = type { ptr, ptr }
%"class.std::shared_ptr" = type { %"class.std::__shared_ptr" }
%"class.std::__shared_ptr" = type { ptr, %"class.std::__shared_count" }
%"class.std::__shared_count" = type { ptr }
%"class.folly::DelayedDestructionBase.base" = type <{ ptr, i32 }>
%"class.proxygen::HTTPTransaction::RateLimitCallback" = type { %"class.folly::HHWheelTimerBase<std::chrono::duration<long, std::ratio<1, 1000>>>::Callback", ptr }
%"class.std::unique_ptr" = type { %"struct.std::__uniq_ptr_data" }
%"struct.std::__uniq_ptr_data" = type { %"class.std::__uniq_ptr_impl" }
%"class.std::__uniq_ptr_impl" = type { %"class.std::tuple" }
%"class.std::tuple" = type { %"struct.std::_Tuple_impl" }
%"struct.std::_Tuple_impl" = type { %"struct.std::_Head_base.3" }
%"struct.std::_Head_base.3" = type { ptr }
%"class.folly::IOBufQueue" = type { %"struct.folly::IOBufQueue::Options", i64, %"class.std::unique_ptr.4", ptr, ptr, %"struct.folly::IOBufQueue::WritableRangeCacheData", ptr }
%"class.std::unique_ptr.4" = type { %"struct.std::__uniq_ptr_data.5" }
%"struct.std::__uniq_ptr_data.5" = type { %"class.std::__uniq_ptr_impl.6" }
%"class.std::__uniq_ptr_impl.6" = type { %"class.std::tuple.7" }
%"class.std::tuple.7" = type { %"struct.std::_Tuple_impl.8" }
%"struct.std::_Tuple_impl.8" = type { %"struct.std::_Head_base.11" }
%"struct.std::_Head_base.11" = type { ptr }
%"struct.folly::IOBufQueue::WritableRangeCacheData" = type <{ %"struct.std::pair", i8, [7 x i8] }>
%"struct.std::pair" = type { ptr, ptr }
%"struct.proxygen::HTTPTransaction::BufferMeta" = type { i64 }
%"struct.proxygen::CompressionInfo" = type { %"struct.proxygen::CompressionInfoPart", %"struct.proxygen::CompressionInfoPart" }
%"struct.proxygen::CompressionInfoPart" = type { i32, i32, i32, i32, i32, i32, i32 }
%"class.proxygen::Window" = type { i32, i32 }
%"class.std::unique_ptr.12" = type { %"struct.std::__uniq_ptr_data.13" }
%"struct.std::__uniq_ptr_data.13" = type { %"class.std::__uniq_ptr_impl.14" }
%"class.std::__uniq_ptr_impl.14" = type { %"class.std::tuple.15" }
%"class.std::tuple.15" = type { %"struct.std::_Tuple_impl.16" }
%"struct.std::_Tuple_impl.16" = type { %"struct.std::_Head_base.19" }
%"struct.std::_Head_base.19" = type { ptr }
%"class.std::__cxx11::list" = type { %"class.std::__cxx11::_List_base" }
%"class.std::__cxx11::_List_base" = type { %"struct.std::__cxx11::_List_base<proxygen::HTTPTransaction::Chunk, std::allocator<proxygen::HTTPTransaction::Chunk>>::_List_impl" }
%"struct.std::__cxx11::_List_base<proxygen::HTTPTransaction::Chunk, std::allocator<proxygen::HTTPTransaction::Chunk>>::_List_impl" = type { %"struct.std::__detail::_List_node_header" }
%"struct.std::__detail::_List_node_header" = type { %"struct.std::__detail::_List_node_base", i64 }
%"struct.std::__detail::_List_node_base" = type { ptr, ptr }
%"class.folly::Optional.0" = type { %"struct.folly::Optional<proxygen::HTTPCodec::ExAttributes>::StorageTriviallyDestructible" }
%"struct.folly::Optional<proxygen::HTTPCodec::ExAttributes>::StorageTriviallyDestructible" = type { %union.anon.1, i8, [7 x i8] }
%union.anon.1 = type { %"struct.proxygen::HTTPCodec::ExAttributes" }
%"struct.proxygen::HTTPCodec::ExAttributes" = type <{ i64, i8, [7 x i8] }>
%"class.std::set" = type { %"class.std::_Rb_tree" }
%"class.std::_Rb_tree" = type { %"struct.std::_Rb_tree<unsigned long, unsigned long, std::_Identity<unsigned long>, std::less<unsigned long>>::_Rb_tree_impl" }
%"struct.std::_Rb_tree<unsigned long, unsigned long, std::_Identity<unsigned long>, std::less<unsigned long>>::_Rb_tree_impl" = type { %"struct.std::_Rb_tree_key_compare", %"struct.std::_Rb_tree_header" }
%"struct.std::_Rb_tree_key_compare" = type { %"struct.std::less" }
%"struct.std::less" = type { i8 }
%"struct.std::_Rb_tree_header" = type { %"struct.std::_Rb_tree_node_base", i64 }
%"struct.std::_Rb_tree_node_base" = type { i32, ptr, ptr, ptr }
%"class.std::map" = type { %"class.std::_Rb_tree.23" }
%"class.std::_Rb_tree.23" = type { %"struct.std::_Rb_tree<unsigned long, std::pair<const unsigned long, proxygen::ByteEvent::EventFlags>, std::_Select1st<std::pair<const unsigned long, proxygen::ByteEvent::EventFlags>>, std::less<unsigned long>>::_Rb_tree_impl" }
%"struct.std::_Rb_tree<unsigned long, std::pair<const unsigned long, proxygen::ByteEvent::EventFlags>, std::_Select1st<std::pair<const unsigned long, proxygen::ByteEvent::EventFlags>>, std::less<unsigned long>>::_Rb_tree_impl" = type { %"struct.std::_Rb_tree_key_compare", %"struct.std::_Rb_tree_header" }
%"class.std::chrono::time_point" = type { %"class.std::chrono::duration" }
%"class.std::chrono::duration" = type { i64 }
%"class.folly::Optional.27" = type { %"struct.folly::Optional<std::chrono::duration<long, std::ratio<1, 1000>>>::StorageTriviallyDestructible" }
%"struct.folly::Optional<std::chrono::duration<long, std::ratio<1, 1000>>>::StorageTriviallyDestructible" = type <{ %union.anon.28, i8, [7 x i8] }>
%union.anon.28 = type { %"class.std::chrono::duration.29" }
%"class.std::chrono::duration.29" = type { i64 }
%"class.std::map.30" = type { %"class.std::_Rb_tree.31" }
%"class.std::_Rb_tree.31" = type { %"struct.std::_Rb_tree<unsigned long, std::pair<const unsigned long, proxygen::HTTPTransaction::TxnStreamWriteHandle>, std::_Select1st<std::pair<const unsigned long, proxygen::HTTPTransaction::TxnStreamWriteHandle>>, std::less<unsigned long>>::_Rb_tree_impl" }
%"struct.std::_Rb_tree<unsigned long, std::pair<const unsigned long, proxygen::HTTPTransaction::TxnStreamWriteHandle>, std::_Select1st<std::pair<const unsigned long, proxygen::HTTPTransaction::TxnStreamWriteHandle>>, std::less<unsigned long>>::_Rb_tree_impl" = type { %"struct.std::_Rb_tree_key_compare", %"struct.std::_Rb_tree_header" }
%"class.std::map.35" = type { %"class.std::_Rb_tree.36" }
%"class.std::_Rb_tree.36" = type { %"struct.std::_Rb_tree<unsigned long, std::pair<const unsigned long, proxygen::HTTPTransaction::TxnStreamReadHandle>, std::_Select1st<std::pair<const unsigned long, proxygen::HTTPTransaction::TxnStreamReadHandle>>, std::less<unsigned long>>::_Rb_tree_impl" }
%"struct.std::_Rb_tree<unsigned long, std::pair<const unsigned long, proxygen::HTTPTransaction::TxnStreamReadHandle>, std::_Select1st<std::pair<const unsigned long, proxygen::HTTPTransaction::TxnStreamReadHandle>>, std::less<unsigned long>>::_Rb_tree_impl" = type { %"struct.std::_Rb_tree_key_compare", %"struct.std::_Rb_tree_header" }
%"class.proxygen::HTTPTransaction::TxnWebTransport" = type { %"class.proxygen::WebTransport", ptr }
%"class.proxygen::WebTransport" = type { ptr }
%"class.folly::DelayedDestructionBase" = type <{ ptr, i32, [4 x i8] }>
%"class.proxygen::HTTP2PriorityQueueBase" = type { %"class.proxygen::HTTPCodec::PriorityQueue", i64 }
%"class.proxygen::HTTPCodec::PriorityQueue" = type { ptr }
%"class.google::LogMessageVoidify" = type { i8 }
%"class.google::LogMessage" = type { ptr, ptr, %"struct.google::LogMessageTime" }
%"struct.google::LogMessageTime" = type { %struct.tm, i64, i32, i64 }
%struct.tm = type { i32, i32, i32, i32, i32, i32, i32, i32, i32, i64, ptr }
%"struct.std::_Rb_tree_iterator" = type { ptr }
%"class.folly::Expected" = type { %"struct.folly::expected_detail::ExpectedStorage.base", [3 x i8] }
%"struct.folly::expected_detail::ExpectedStorage.base" = type <{ i8, [3 x i8], i32, %"struct.folly::Unit" }>
%"struct.std::_Rb_tree_iterator.54" = type { ptr }
%"struct.std::pair.40" = type { i64, %"class.proxygen::HTTPTransaction::TxnStreamReadHandle" }
%"class.proxygen::HTTPTransaction::TxnStreamReadHandle" = type { %"class.proxygen::WebTransport::StreamReadHandle", ptr, i64, %"class.folly::Optional.42", %"class.folly::IOBufQueue", i8, [3 x i8], %"class.folly::Optional.44", %"class.folly::CancellationSource" }
%"class.proxygen::WebTransport::StreamReadHandle" = type { %"class.proxygen::WebTransport::StreamHandleBase" }
%"class.proxygen::WebTransport::StreamHandleBase" = type { ptr }
%"class.folly::Optional.42" = type { %"struct.folly::Optional<folly::Promise<proxygen::WebTransport::StreamData>>::StorageNonTriviallyDestructible" }
%"struct.folly::Optional<folly::Promise<proxygen::WebTransport::StreamData>>::StorageNonTriviallyDestructible" = type <{ %union.anon.43, i8, [7 x i8] }>
%union.anon.43 = type { %"class.folly::Promise" }
%"class.folly::Promise" = type { i8, ptr }
%"class.folly::Optional.44" = type { %"struct.folly::Optional<unsigned int>::StorageTriviallyDestructible" }
%"struct.folly::Optional<unsigned int>::StorageTriviallyDestructible" = type <{ %union.anon.45, i8, [3 x i8] }>
%union.anon.45 = type { i32 }
%"class.folly::CancellationSource" = type { %"class.std::unique_ptr.46" }
%"class.std::unique_ptr.46" = type { %"struct.std::__uniq_ptr_data.47" }
%"struct.std::__uniq_ptr_data.47" = type { %"class.std::__uniq_ptr_impl.48" }
%"class.std::__uniq_ptr_impl.48" = type { %"class.std::tuple.49" }
%"class.std::tuple.49" = type { %"struct.std::_Tuple_impl.50" }
%"struct.std::_Tuple_impl.50" = type { %"struct.std::_Head_base.53" }
%"struct.std::_Head_base.53" = type { ptr }
%"struct.std::pair.55" = type { i64, %"class.proxygen::HTTPTransaction::TxnStreamWriteHandle" }
%"class.proxygen::HTTPTransaction::TxnStreamWriteHandle" = type { %"class.proxygen::WebTransport::StreamWriteHandle", ptr, i64, %"class.folly::Optional.57", %"class.folly::CancellationSource" }
%"class.proxygen::WebTransport::StreamWriteHandle" = type { %"class.proxygen::WebTransport::StreamHandleBase", %"class.folly::Optional.44" }
%"class.folly::Optional.57" = type { %"struct.folly::Optional<folly::Promise<folly::Unit>>::StorageNonTriviallyDestructible" }
%"struct.folly::Optional<folly::Promise<folly::Unit>>::StorageNonTriviallyDestructible" = type <{ %union.anon.58, i8, [7 x i8] }>
%union.anon.58 = type { %"class.folly::Promise.59" }
%"class.folly::Promise.59" = type { i8, ptr }
%"class.proxygen::WebTransport::Exception" = type <{ %"class.std::runtime_error", i32, [4 x i8] }>
%"class.std::runtime_error" = type { %"class.std::exception", %"struct.std::__cow_string" }
%"class.std::exception" = type { ptr }
%"struct.std::__cow_string" = type { %union.anon.121 }
%union.anon.121 = type { ptr }
%"class.folly::CancellationToken" = type { %"class.std::unique_ptr.203" }
%"class.std::unique_ptr.203" = type { %"struct.std::__uniq_ptr_data.204" }
%"struct.std::__uniq_ptr_data.204" = type { %"class.std::__uniq_ptr_impl.205" }
%"class.std::__uniq_ptr_impl.205" = type { %"class.std::tuple.206" }
%"class.std::tuple.206" = type { %"struct.std::_Tuple_impl.207" }
%"struct.std::_Tuple_impl.207" = type { %"struct.std::_Head_base.53" }
%"class.google::LogMessageFatal" = type { %"class.google::LogMessage" }
%"class.folly::DelayedDestructionBase::DestructorGuard" = type { ptr }
%"class.folly::Optional.119" = type { %"struct.folly::Optional<proxygen::HTTPMethod>::StorageTriviallyDestructible" }
%"struct.folly::Optional<proxygen::HTTPMethod>::StorageTriviallyDestructible" = type <{ %union.anon.120, i8, [3 x i8] }>
%union.anon.120 = type { i32 }
%"class.std::unique_ptr.60" = type { %"struct.std::__uniq_ptr_data.61" }
%"struct.std::__uniq_ptr_data.61" = type { %"class.std::__uniq_ptr_impl.62" }
%"class.std::__uniq_ptr_impl.62" = type { %"class.std::tuple.63" }
%"class.std::tuple.63" = type { %"struct.std::_Tuple_impl.64" }
%"struct.std::_Tuple_impl.64" = type { %"struct.std::_Head_base.67" }
%"struct.std::_Head_base.67" = type { ptr }
%"class.proxygen::HTTPMessage" = type { %"class.std::chrono::time_point", %"class.folly::SocketAddress", %"class.std::__cxx11::basic_string", %"class.std::__cxx11::basic_string", %"class.std::__cxx11::basic_string", %"class.std::__cxx11::basic_string", %"struct.proxygen::HTTPMessage::Fields", %"class.std::map.84", %"class.std::map.92", %"class.proxygen::HTTPHeaders", %"class.std::unique_ptr.12", %"struct.proxygen::HTTPHeaderSize", i32, %"class.std::unique_ptr.12", i32, i32, ptr, ptr, %"class.std::unique_ptr.76", i8, [7 x i8], %"class.folly::Optional.108", %"struct.std::pair.117", i8, i32 }
%"class.folly::SocketAddress" = type <{ %"union.folly::SocketAddress::AddrStorage", i16, i8, [5 x i8] }>
%"union.folly::SocketAddress::AddrStorage" = type { %"struct.folly::SocketAddress::ExternalUnixAddr", [8 x i8] }
%"struct.folly::SocketAddress::ExternalUnixAddr" = type { ptr, i32 }
%"struct.proxygen::HTTPMessage::Fields" = type { i8, %"union.proxygen::HTTPMessage::Fields::Data" }
%"union.proxygen::HTTPMessage::Fields::Data" = type { %"struct.proxygen::HTTPMessage::Response", [136 x i8] }
%"struct.proxygen::HTTPMessage::Response" = type { i16, %"class.std::__cxx11::basic_string", %"class.std::__cxx11::basic_string" }
%"class.std::map.84" = type { %"class.std::_Rb_tree.85" }
%"class.std::_Rb_tree.85" = type { %"struct.std::_Rb_tree<folly::Range<const char *>, std::pair<const folly::Range<const char *>, folly::Range<const char *>>, std::_Select1st<std::pair<const folly::Range<const char *>, folly::Range<const char *>>>, std::less<folly::Range<const char *>>>::_Rb_tree_impl" }
%"struct.std::_Rb_tree<folly::Range<const char *>, std::pair<const folly::Range<const char *>, folly::Range<const char *>>, std::_Select1st<std::pair<const folly::Range<const char *>, folly::Range<const char *>>>, std::less<folly::Range<const char *>>>::_Rb_tree_impl" = type { %"struct.std::_Rb_tree_key_compare.89", %"struct.std::_Rb_tree_header" }
%"struct.std::_Rb_tree_key_compare.89" = type { %"struct.std::less.90" }
%"struct.std::less.90" = type { i8 }
%"class.std::map.92" = type { %"class.std::_Rb_tree.93" }
%"class.std::_Rb_tree.93" = type { %"struct.std::_Rb_tree<std::__cxx11::basic_string<char>, std::pair<const std::__cxx11::basic_string<char>, std::__cxx11::basic_string<char>>, std::_Select1st<std::pair<const std::__cxx11::basic_string<char>, std::__cxx11::basic_string<char>>>, std::less<std::__cxx11::basic_string<char>>>::_Rb_tree_impl" }
%"struct.std::_Rb_tree<std::__cxx11::basic_string<char>, std::pair<const std::__cxx11::basic_string<char>, std::__cxx11::basic_string<char>>, std::_Select1st<std::pair<const std::__cxx11::basic_string<char>, std::__cxx11::basic_string<char>>>, std::less<std::__cxx11::basic_string<char>>>::_Rb_tree_impl" = type { %"struct.std::_Rb_tree_key_compare.97", %"struct.std::_Rb_tree_header" }
%"struct.std::_Rb_tree_key_compare.97" = type { %"struct.std::less.98" }
%"struct.std::less.98" = type { i8 }
%"class.proxygen::HTTPHeaders" = type { %"class.std::unique_ptr.100", i64, i64, i64 }
%"class.std::unique_ptr.100" = type { %"struct.std::__uniq_ptr_data.101" }
%"struct.std::__uniq_ptr_data.101" = type { %"class.std::__uniq_ptr_impl.102" }
%"class.std::__uniq_ptr_impl.102" = type { %"class.std::tuple.103" }
%"class.std::tuple.103" = type { %"struct.std::_Tuple_impl.104" }
%"struct.std::_Tuple_impl.104" = type { %"struct.std::_Head_base.107" }
%"struct.std::_Head_base.107" = type { ptr }
%"struct.proxygen::HTTPHeaderSize" = type { i32, i32, i32 }
%"class.std::unique_ptr.76" = type { %"struct.std::__uniq_ptr_data.77" }
%"struct.std::__uniq_ptr_data.77" = type { %"class.std::__uniq_ptr_impl.78" }
%"class.std::__uniq_ptr_impl.78" = type { %"class.std::tuple.79" }
%"class.std::tuple.79" = type { %"struct.std::_Tuple_impl.80" }
%"struct.std::_Tuple_impl.80" = type { %"struct.std::_Head_base.83" }
%"struct.std::_Head_base.83" = type { ptr }
%"class.folly::Optional.108" = type { %"struct.folly::Optional<std::tuple<unsigned long, bool, unsigned char>>::StorageTriviallyDestructible" }
%"struct.folly::Optional<std::tuple<unsigned long, bool, unsigned char>>::StorageTriviallyDestructible" = type <{ %union.anon.109, i8, [7 x i8] }>
%union.anon.109 = type { %"class.std::tuple.110" }
%"class.std::tuple.110" = type { %"struct.std::_Tuple_impl.111" }
%"struct.std::_Tuple_impl.111" = type { %"struct.std::_Tuple_impl.112", %"struct.std::_Head_base.116" }
%"struct.std::_Tuple_impl.112" = type { %"struct.std::_Tuple_impl.113", %"struct.std::_Head_base.115" }
%"struct.std::_Tuple_impl.113" = type { %"struct.std::_Head_base.114" }
%"struct.std::_Head_base.114" = type { i8 }
%"struct.std::_Head_base.115" = type { i8 }
%"struct.std::_Head_base.116" = type { i64 }
%"struct.std::pair.117" = type { i8, i8 }
%"class.std::__cxx11::basic_stringstream" = type { %"class.std::basic_iostream.base", %"class.std::__cxx11::basic_stringbuf", %"class.std::basic_ios" }
%"class.std::basic_iostream.base" = type { %"class.std::basic_istream.base", %"class.std::basic_ostream.base" }
%"class.std::basic_istream.base" = type { ptr, i64 }
%"class.std::basic_ostream.base" = type { ptr }
%"class.std::__cxx11::basic_stringbuf" = type { %"class.std::basic_streambuf", i32, %"class.std::__cxx11::basic_string" }
%"class.std::basic_streambuf" = type { ptr, ptr, ptr, ptr, ptr, ptr, ptr, %"class.std::locale" }
%"class.std::locale" = type { ptr }
%"class.std::basic_ios" = type { %"class.std::ios_base", ptr, i8, i8, ptr, ptr, ptr, ptr }
%"class.std::ios_base" = type { ptr, i64, i64, i32, i32, i32, ptr, %"struct.std::ios_base::_Words", [8 x %"struct.std::ios_base::_Words"], i32, ptr, %"class.std::locale" }
%"struct.std::ios_base::_Words" = type { ptr, i64 }
%"class.proxygen::HTTPException" = type { %"class.proxygen::Exception", i32, i32, %"class.folly::Optional.133", %"class.folly::Optional.135", i32, %"class.std::unique_ptr.4", %"class.std::unique_ptr.60" }
%"class.proxygen::Exception" = type { %"class.std::exception", %"class.std::__cxx11::basic_string", i32, i32 }
%"class.folly::Optional.133" = type { %"struct.folly::Optional<proxygen::HTTP3::ErrorCode>::StorageTriviallyDestructible" }
%"struct.folly::Optional<proxygen::HTTP3::ErrorCode>::StorageTriviallyDestructible" = type <{ %union.anon.134, i8, [7 x i8] }>
%union.anon.134 = type { i64 }
%"class.folly::Optional.135" = type { %"struct.folly::Optional<proxygen::ErrorCode>::StorageTriviallyDestructible" }
%"struct.folly::Optional<proxygen::ErrorCode>::StorageTriviallyDestructible" = type { %union.anon.136, i8 }
%union.anon.136 = type { i8 }
%"class.std::allocator.70" = type { i8 }
%class.anon.305 = type { ptr }
%"class.folly::Range" = type { ptr, ptr }
%"class.std::queue" = type { %"class.std::deque" }
%"class.std::deque" = type { %"class.std::_Deque_base" }
%"class.std::_Deque_base" = type { %"struct.std::_Deque_base<proxygen::HTTPEvent, std::allocator<proxygen::HTTPEvent>>::_Deque_impl" }
%"struct.std::_Deque_base<proxygen::HTTPEvent, std::allocator<proxygen::HTTPEvent>>::_Deque_impl" = type { %"struct.std::_Deque_base<proxygen::HTTPEvent, std::allocator<proxygen::HTTPEvent>>::_Deque_impl_data" }
%"struct.std::_Deque_base<proxygen::HTTPEvent, std::allocator<proxygen::HTTPEvent>>::_Deque_impl_data" = type { ptr, i64, %"struct.std::_Deque_iterator", %"struct.std::_Deque_iterator" }
%"struct.std::_Deque_iterator" = type { ptr, ptr, ptr, ptr }
%"class.folly::Expected.321" = type { %"struct.folly::expected_detail::ExpectedStorage.322" }
%"struct.folly::expected_detail::ExpectedStorage.322" = type { i8, i8, i64 }
%class.anon.323 = type { ptr }
%"class.folly::detail::ScopeGuardImpl.279" = type { %"class.folly::detail::ScopeGuardImplBase", %class.anon.280 }
%"class.folly::detail::ScopeGuardImplBase" = type { i8 }
%class.anon.280 = type { ptr }
%"struct.std::pair.325" = type { i8, i8 }
%"class.std::tuple.327" = type { %"struct.std::_Tuple_impl.328" }
%"struct.std::_Tuple_impl.328" = type { %"struct.std::_Tuple_impl.292", %"struct.std::_Head_base.329" }
%"struct.std::_Tuple_impl.292" = type { %"struct.std::_Head_base.293" }
%"struct.std::_Head_base.293" = type { ptr }
%"struct.std::_Head_base.329" = type { ptr }
%"struct.std::pair.288" = type { i8, i8 }
%"class.std::tuple.332" = type { %"struct.std::_Tuple_impl.333" }
%"struct.std::_Tuple_impl.333" = type { %"struct.std::_Tuple_impl.292", %"struct.std::_Head_base.334" }
%"struct.std::_Head_base.334" = type { ptr }
%"class.std::unique_ptr.139" = type { %"struct.std::__uniq_ptr_data.140" }
%"struct.std::__uniq_ptr_data.140" = type { %"class.std::__uniq_ptr_impl.141" }
%"class.std::__uniq_ptr_impl.141" = type { %"class.std::tuple.142" }
%"class.std::tuple.142" = type { %"struct.std::_Tuple_impl.143" }
%"struct.std::_Tuple_impl.143" = type { %"struct.std::_Head_base.146" }
%"struct.std::_Head_base.146" = type { ptr }
%"struct.google::CheckOpString" = type { ptr }
%"struct.proxygen::HTTPTransaction::Chunk" = type <{ i64, i8, [7 x i8] }>
%"struct.std::_List_iterator" = type { ptr }
%"struct.std::_Rb_tree_iterator.147" = type { ptr }
%"struct.std::pair.148" = type <{ i64, i8, [7 x i8] }>
%"struct.std::pair.161" = type <{ %"struct.std::_Rb_tree_iterator.147", i8, [7 x i8] }>
%"struct.std::pair.338" = type { ptr, ptr }
%"struct.std::_Rb_tree_const_iterator.337" = type { ptr }
%"class.folly::Expected.164" = type { %"struct.folly::expected_detail::ExpectedStorage.base.167", [7 x i8] }
%"struct.folly::expected_detail::ExpectedStorage.base.167" = type <{ %union.anon.166, i8 }>
%union.anon.166 = type { %"struct.proxygen::WebTransport::BidiStreamHandle" }
%"struct.proxygen::WebTransport::BidiStreamHandle" = type { ptr, ptr }
%"class.folly::Expected.169" = type { %"struct.folly::expected_detail::ExpectedStorage.170" }
%"struct.folly::expected_detail::ExpectedStorage.170" = type { i8, i32, i64 }
%"class.folly::Unexpected" = type { i32 }
%"struct.std::pair.171" = type <{ %"struct.std::_Rb_tree_iterator", i8, [7 x i8] }>
%"class.std::tuple.174" = type { %"struct.std::_Tuple_impl.175" }
%"struct.std::_Tuple_impl.175" = type { %"struct.std::_Head_base.176" }
%"struct.std::_Head_base.176" = type { ptr }
%"class.std::tuple.177" = type { %"struct.std::_Tuple_impl.178" }
%"struct.std::_Tuple_impl.178" = type { %"struct.std::_Tuple_impl.179", %"struct.std::_Head_base.181" }
%"struct.std::_Tuple_impl.179" = type { %"struct.std::_Head_base.180" }
%"struct.std::_Head_base.180" = type { ptr }
%"struct.std::_Head_base.181" = type { ptr }
%"struct.std::pair.182" = type <{ %"struct.std::_Rb_tree_iterator.54", i8, [7 x i8] }>
%"class.folly::Expected.185" = type { %"struct.folly::expected_detail::ExpectedStorage.186" }
%"struct.folly::expected_detail::ExpectedStorage.186" = type { i8, i32, ptr }
%"class.folly::Expected.187" = type { %"struct.folly::expected_detail::ExpectedStorage.188" }
%"struct.folly::expected_detail::ExpectedStorage.188" = type { i8, i32, i32 }
%"class.folly::Optional.189" = type { %"struct.folly::Optional<std::__cxx11::basic_string<char>>::StorageNonTriviallyDestructible" }
%"struct.folly::Optional<std::__cxx11::basic_string<char>>::StorageNonTriviallyDestructible" = type <{ %union.anon.190, i8, [7 x i8] }>
%union.anon.190 = type { %"class.std::__cxx11::basic_string" }
%"class.folly::detail::ScopeGuardImpl" = type { %"class.folly::detail::ScopeGuardImplBase", %class.anon }
%class.anon = type { ptr }
%"class.folly::detail::ScopeGuardImpl.191" = type { %"class.folly::detail::ScopeGuardImplBase", %class.anon.192 }
%class.anon.192 = type { ptr }
%"class.proxygen::HTTPEvent" = type { %"class.std::unique_ptr.60", %"class.std::unique_ptr.4", %"class.std::unique_ptr.12", %"class.std::unique_ptr.125", i64, i64, i8, i8, i32 }
%"class.std::unique_ptr.125" = type { %"struct.std::__uniq_ptr_data.126" }
%"struct.std::__uniq_ptr_data.126" = type { %"class.std::__uniq_ptr_impl.127" }
%"class.std::__uniq_ptr_impl.127" = type { %"class.std::tuple.128" }
%"class.std::tuple.128" = type { %"struct.std::_Tuple_impl.129" }
%"struct.std::_Tuple_impl.129" = type { %"struct.std::_Head_base.132" }
%"struct.std::_Head_base.132" = type { ptr }
%"struct.std::pair.193" = type <{ %"struct.std::_Rb_tree_const_iterator", i8, [7 x i8] }>
%"struct.std::_Rb_tree_const_iterator" = type { ptr }
%"struct.std::pair.295" = type <{ %"struct.std::_Rb_tree_iterator.297", i8, [7 x i8] }>
%"struct.std::_Rb_tree_iterator.297" = type { ptr }
%"struct.proxygen::HTTPPriority" = type { ptr, i64 }
%"class.folly::Expected.196" = type { %"struct.folly::expected_detail::ExpectedStorage.base.199", [7 x i8] }
%"struct.folly::expected_detail::ExpectedStorage.base.199" = type { %"struct.folly::expected_detail::ExpectedUnion.base" }
%"struct.folly::expected_detail::ExpectedUnion.base" = type <{ %union.anon.198, i8 }>
%union.anon.198 = type { %"class.folly::SemiFuture" }
%"class.folly::SemiFuture" = type { %"class.folly::futures::detail::FutureBase" }
%"class.folly::futures::detail::FutureBase" = type { ptr }
%"class.folly::exception_wrapper" = type { %"class.std::__exception_ptr::exception_ptr" }
%"class.std::__exception_ptr::exception_ptr" = type { ptr }
%"struct.std::pair.201" = type { %"class.folly::Promise.59", %"class.folly::SemiFuture" }
%"class.folly::Try" = type { %"class.folly::detail::TryBase" }
%"class.folly::detail::TryBase" = type { i32, %union.anon.229 }
%union.anon.229 = type { %"class.folly::exception_wrapper" }
%"struct.proxygen::WebTransport::StreamData" = type <{ %"class.std::unique_ptr.4", i8, [7 x i8] }>
%"class.folly::Try.247" = type { %"class.folly::detail::TryBase.248" }
%"class.folly::detail::TryBase.248" = type { i32, %union.anon.249 }
%union.anon.249 = type { %"class.folly::exception_wrapper", [8 x i8] }
%"class.folly::SemiFuture.210" = type { %"class.folly::futures::detail::FutureBase.211" }
%"class.folly::futures::detail::FutureBase.211" = type { ptr }
%"struct.std::pair.212" = type { %"class.folly::Promise", %"class.folly::SemiFuture.210" }
%"class.folly::Future" = type { %"class.folly::futures::detail::FutureBase.211" }
%"class.folly::futures::detail::KeepAliveOrDeferred" = type { i32, %union.anon.233 }
%union.anon.233 = type { %"class.std::unique_ptr.234" }
%"class.std::unique_ptr.234" = type { %"struct.std::__uniq_ptr_data.235" }
%"struct.std::__uniq_ptr_data.235" = type { %"class.std::__uniq_ptr_impl.236" }
%"class.std::__uniq_ptr_impl.236" = type { %"class.std::tuple.237" }
%"class.std::tuple.237" = type { %"struct.std::_Tuple_impl.238" }
%"struct.std::_Tuple_impl.238" = type { %"struct.std::_Head_base.241" }
%"struct.std::_Head_base.241" = type { ptr }
%"class.folly::Future.228" = type { %"class.folly::futures::detail::FutureBase" }
%"class.folly::Expected.216" = type { %"struct.folly::expected_detail::ExpectedStorage.base.226", [7 x i8] }
%"struct.folly::expected_detail::ExpectedStorage.base.226" = type { %"struct.folly::expected_detail::ExpectedUnion.base.220" }
%"struct.folly::expected_detail::ExpectedUnion.base.220" = type <{ %union.anon.219, i8 }>
%union.anon.219 = type { %"class.folly::SemiFuture.210" }
%"class.folly::futures::detail::ResultHolder" = type { %union.anon.230 }
%union.anon.230 = type { %"class.folly::Try" }
%"class.folly::futures::detail::CoreBase" = type { ptr, [8 x i8], %"class.folly::Function", %"struct.std::atomic", %"struct.std::atomic.232", %"struct.std::atomic.232", %"class.folly::futures::detail::KeepAliveOrDeferred", %"class.std::shared_ptr", %"struct.std::atomic.242", ptr, [8 x i8] }
%"class.folly::Function" = type { %"union.folly::detail::function::Data", ptr, ptr }
%"union.folly::detail::function::Data" = type { ptr, [40 x i8] }
%"struct.std::atomic" = type { i8 }
%"struct.std::atomic.232" = type { %"struct.std::__atomic_base" }
%"struct.std::__atomic_base" = type { i8 }
%"struct.std::atomic.242" = type { %"struct.std::__atomic_base.243" }
%"struct.std::__atomic_base.243" = type { i64 }
%"class.std::bad_function_call" = type { %"class.std::exception" }
%"class.std::logic_error" = type { %"class.std::exception", %"struct.std::__cow_string" }
%"class.folly::FutureInvalid" = type { %"class.folly::FutureException" }
%"class.folly::FutureException" = type { %"class.folly::static_what_exception" }
%"class.folly::static_what_exception" = type { %"class.std::logic_error", ptr }
%"struct.folly::expected_detail::ExpectedUnion.218" = type <{ %union.anon.219, i8, [7 x i8] }>
%"struct.folly::expected_detail::ExpectedStorage" = type <{ i8, [3 x i8], i32, %"struct.folly::Unit", [3 x i8] }>
%"class.folly::OptionalEmptyException" = type { %"class.std::runtime_error" }
%"struct.std::_Rb_tree_node" = type { %"struct.std::_Rb_tree_node_base", %"struct.__gnu_cxx::__aligned_membuf" }
%"struct.__gnu_cxx::__aligned_membuf" = type { [152 x i8] }
%"struct.std::_Rb_tree_node.263" = type { %"struct.std::_Rb_tree_node_base", %"struct.__gnu_cxx::__aligned_membuf.264" }
%"struct.__gnu_cxx::__aligned_membuf.264" = type { [72 x i8] }
%"struct.std::_Rb_tree_node.265" = type { %"struct.std::_Rb_tree_node_base", %"struct.__gnu_cxx::__aligned_membuf.266" }
%"struct.__gnu_cxx::__aligned_membuf.266" = type { [16 x i8] }
%"struct.std::_Rb_tree_node.267" = type { %"struct.std::_Rb_tree_node_base", %"struct.__gnu_cxx::__aligned_membuf.268" }
%"struct.__gnu_cxx::__aligned_membuf.268" = type { [8 x i8] }
%"struct.std::_List_node" = type { %"struct.std::__detail::_List_node_base", %"struct.__gnu_cxx::__aligned_membuf.269" }
%"struct.__gnu_cxx::__aligned_membuf.269" = type { [16 x i8] }
%"class.std::allocator.274" = type { i8 }
%"class.folly::IOBuf" = type { i64, ptr, i64, ptr, ptr, ptr, i64 }
%"class.google::base::CheckOpMessageBuilder" = type { ptr }
%"struct.folly::IOBuf::SharedInfo" = type <{ ptr, ptr, ptr, %"struct.std::atomic.281", i8, i8, %"struct.folly::MicroSpinLock", i8 }>
%"struct.std::atomic.281" = type { %"struct.std::__atomic_base.282" }
%"struct.std::__atomic_base.282" = type { i32 }
%"struct.folly::MicroSpinLock" = type { i8 }
%"struct.folly::expected_detail::ExpectedStorage.165" = type <{ %union.anon.166, i8, [7 x i8] }>
%"struct.folly::expected_detail::ExpectedUnion" = type <{ %union.anon.198, i8, [7 x i8] }>
%"class.folly::BrokenPromise" = type { %"class.folly::PromiseException" }
%"class.folly::PromiseException" = type { %"class.folly::static_what_exception" }
%"class.folly::Executor::KeepAlive" = type { i64 }
%"class.folly::detail::CancellationState" = type { ptr, %"struct.std::atomic.242", ptr, %"class.std::thread::id" }
%"class.std::thread::id" = type { i64 }
%"struct.folly::Ignore" = type { i8 }
%"class.folly::futures::detail::ResultHolder.245" = type { %union.anon.246 }
%union.anon.246 = type { %"class.folly::Try.247" }
%"class.std::tuple.290" = type { %"struct.std::_Tuple_impl.291" }
%"struct.std::_Tuple_impl.291" = type { %"struct.std::_Tuple_impl.292", %"struct.std::_Head_base.294" }
%"struct.std::_Head_base.294" = type { ptr }
%"struct.std::__allocated_ptr" = type { ptr, ptr }
%struct._Guard = type { ptr }
%"struct.std::pair.299" = type { ptr, ptr }
%"struct.std::_Identity" = type { i8 }
%"struct.std::_Rb_tree<unsigned long, unsigned long, std::_Identity<unsigned long>, std::less<unsigned long>>::_Alloc_node" = type { ptr }
%"struct.std::_Select1st" = type { i8 }
%"struct.std::_Select1st.303" = type { i8 }
%"class.folly::Expected.306" = type { %"struct.folly::expected_detail::ExpectedStorage.base.309", [7 x i8] }
%"struct.folly::expected_detail::ExpectedStorage.base.309" = type <{ %union.anon.308, i8 }>
%union.anon.308 = type { %"class.folly::Range" }
%"class.folly::Expected.311" = type { %"struct.folly::expected_detail::ExpectedStorage.312" }
%"struct.folly::expected_detail::ExpectedStorage.312" = type { i8, i8, %"struct.folly::Unit" }
%"struct.folly::detail::CheckTrailingSpace" = type { i8 }
%class.anon.313 = type { ptr }
%class.anon.314 = type { ptr }
%class.anon.315 = type { ptr }
%"class.folly::Expected.316" = type { %"struct.folly::expected_detail::ExpectedStorage.317" }
%"struct.folly::expected_detail::ExpectedStorage.317" = type { i8, i8, i64 }
%class.anon.318 = type { ptr, ptr }
%"class.folly::Unexpected.319" = type { i8 }
%"class.folly::BadExpectedAccess" = type { %"class.std::exception" }
%"struct.folly::expected_detail::ExpectedStorage.307" = type <{ %union.anon.308, i8, [7 x i8] }>
%"class.folly::ConversionError" = type <{ %"struct.folly::ConversionErrorBase", i8, [7 x i8] }>
%"struct.folly::ConversionErrorBase" = type { %"class.std::range_error" }
%"class.std::range_error" = type { %"class.std::runtime_error" }
%"class.folly::BadExpectedAccess.320" = type <{ %"class.folly::BadExpectedAccess", i8, [7 x i8] }>
%"struct.std::__atomic_base.331" = type { i32 }
%"struct.std::_Select1st.340" = type { i8 }
%"struct.std::_Rb_tree<unsigned long, std::pair<const unsigned long, proxygen::ByteEvent::EventFlags>, std::_Select1st<std::pair<const unsigned long, proxygen::ByteEvent::EventFlags>>, std::less<unsigned long>>::_Auto_node" = type { ptr, ptr }
%"class.folly::BadExpectedAccess.342" = type <{ %"class.folly::BadExpectedAccess", i32, [4 x i8] }>
%"struct.std::_Rb_tree<unsigned long, std::pair<const unsigned long, proxygen::HTTPTransaction::TxnStreamReadHandle>, std::_Select1st<std::pair<const unsigned long, proxygen::HTTPTransaction::TxnStreamReadHandle>>, std::less<unsigned long>>::_Auto_node" = type { ptr, ptr }
%"struct.std::_Rb_tree<unsigned long, std::pair<const unsigned long, proxygen::HTTPTransaction::TxnStreamWriteHandle>, std::_Select1st<std::pair<const unsigned long, proxygen::HTTPTransaction::TxnStreamWriteHandle>>, std::less<unsigned long>>::_Auto_node" = type { ptr, ptr }
%"struct.std::pair.345" = type { %"struct.std::_Rb_tree_iterator.54", %"struct.std::_Rb_tree_iterator.54" }
%"struct.std::_Rb_tree_const_iterator.347" = type { ptr }
%"struct.std::pair.348" = type { %"struct.std::_Rb_tree_iterator", %"struct.std::_Rb_tree_iterator" }
%"struct.std::_Rb_tree_const_iterator.350" = type { ptr }
%"class.folly::FutureAlreadyRetrieved" = type { %"class.folly::PromiseException" }
%"class.folly::PromiseInvalid" = type { %"class.folly::PromiseException" }
%"class.folly::PromiseAlreadySatisfied" = type { %"class.folly::PromiseException" }

$_ZN5folly22DelayedDestructionBaseC2Ev = comdat any

$_ZN8proxygen15HTTPTransaction17RateLimitCallbackC2ERS0_ = comdat any

$_ZNSt10unique_ptrISt5queueIN8proxygen9HTTPEventESt5dequeIS2_SaIS2_EEESt14default_deleteIS6_EEC2IS8_vEEv = comdat any

$_ZN5folly10IOBufQueue16cacheChainLengthEv = comdat any

$_ZN8proxygen15HTTPTransaction10BufferMetaC2Ev = comdat any

$_ZN8proxygen12StateMachineINS_27HTTPTransactionEgressSMDataEE14getNewInstanceEv = comdat any

$_ZN8proxygen12StateMachineINS_28HTTPTransactionIngressSMDataEE14getNewInstanceEv = comdat any

$_ZN8proxygen15CompressionInfoC2Ev = comdat any

$_ZNSt10unique_ptrIN8proxygen11HTTPHeadersESt14default_deleteIS1_EEC2IS3_vEEv = comdat any

$_ZNSt7__cxx114listIN8proxygen15HTTPTransaction5ChunkESaIS3_EEC2Ev = comdat any

$_ZN5folly8OptionalImEC2ERKS1_ = comdat any

$_ZN5folly8OptionalIN8proxygen9HTTPCodec12ExAttributesEEC2Ev = comdat any

$_ZNSt3setImSt4lessImESaImEEC2Ev = comdat any

$_ZN5folly8OptionalImEC2Ev = comdat any

$_ZN5folly8OptionalImEC2EOm = comdat any

$_ZNSt3mapImN8proxygen9ByteEvent10EventFlagsESt4lessImESaISt4pairIKmS2_EEEC2Ev = comdat any

$_ZNSt6chrono10time_pointINS_3_V212steady_clockENS_8durationIlSt5ratioILl1ELl1000000000EEEEEC2Ev = comdat any

$_ZN5folly8OptionalINSt6chrono8durationIlSt5ratioILl1ELl1000EEEEEC2ERKS6_ = comdat any

$_ZNSt3mapImN8proxygen15HTTPTransaction20TxnStreamWriteHandleESt4lessImESaISt4pairIKmS2_EEEC2Ev = comdat any

$_ZNSt3mapImN8proxygen15HTTPTransaction19TxnStreamReadHandleESt4lessImESaISt4pairIKmS2_EEEC2Ev = comdat any

$_ZN8proxygen15HTTPTransaction15TxnWebTransportC2ERS0_ = comdat any

$_ZNK5folly8OptionalImEcvbEv = comdat any

$_ZNK8proxygen15HTTPTransaction10isUpstreamEv = comdat any

$_ZNK5folly8OptionalIN8proxygen9HTTPCodec12ExAttributesEEcvbEv = comdat any

$_ZN5folly8OptionalIN8proxygen9HTTPCodec12ExAttributesEEaSIRS4_EES6_OT_ = comdat any

$_ZN5folly8OptionalIN8proxygen9HTTPCodec12ExAttributesEEptEv = comdat any

$_ZNK8proxygen15HTTPTransaction17isRemoteInitiatedEv = comdat any

$_ZNK8proxygen15HTTPTransaction8isPushedEv = comdat any

$_ZN8proxygen22HTTP2PriorityQueueBase9getRootIdEv = comdat any

$_ZN8proxygen15HTTPTransaction15TxnWebTransportD2Ev = comdat any

$_ZNSt3mapImN8proxygen15HTTPTransaction19TxnStreamReadHandleESt4lessImESaISt4pairIKmS2_EEED2Ev = comdat any

$_ZNSt3mapImN8proxygen15HTTPTransaction20TxnStreamWriteHandleESt4lessImESaISt4pairIKmS2_EEED2Ev = comdat any

$_ZNSt3mapImN8proxygen9ByteEvent10EventFlagsESt4lessImESaISt4pairIKmS2_EEED2Ev = comdat any

$_ZNSt3setImSt4lessImESaImEED2Ev = comdat any

$_ZNSt7__cxx114listIN8proxygen15HTTPTransaction5ChunkESaIS3_EED2Ev = comdat any

$_ZNSt10unique_ptrIN8proxygen11HTTPHeadersESt14default_deleteIS1_EED2Ev = comdat any

$_ZNSt10unique_ptrISt5queueIN8proxygen9HTTPEventESt5dequeIS2_SaIS2_EEESt14default_deleteIS6_EED2Ev = comdat any

$_ZN8proxygen15HTTPTransaction17RateLimitCallbackD2Ev = comdat any

$_ZNK8proxygen15HTTPTransaction16isEgressCompleteEv = comdat any

$_ZNK8proxygen15HTTPTransaction17isIngressCompleteEv = comdat any

$_ZNK8proxygen15HTTPTransaction10isEnqueuedEv = comdat any

$_ZN6google17LogMessageVoidifyC2Ev = comdat any

$_ZN6google17LogMessageVoidifyanERSo = comdat any

$_ZNSt3mapImN8proxygen15HTTPTransaction19TxnStreamReadHandleESt4lessImESaISt4pairIKmS2_EEE5beginEv = comdat any

$_ZStneRKSt17_Rb_tree_iteratorISt4pairIKmN8proxygen15HTTPTransaction19TxnStreamReadHandleEEES8_ = comdat any

$_ZNSt3mapImN8proxygen15HTTPTransaction19TxnStreamReadHandleESt4lessImESaISt4pairIKmS2_EEE3endEv = comdat any

$_ZNKSt17_Rb_tree_iteratorISt4pairIKmN8proxygen15HTTPTransaction19TxnStreamReadHandleEEEptEv = comdat any

$_ZNSt17_Rb_tree_iteratorISt4pairIKmN8proxygen15HTTPTransaction19TxnStreamReadHandleEEEppEi = comdat any

$_ZNK8proxygen15HTTPTransaction19TxnStreamReadHandle4openEv = comdat any

$_ZNSt3mapImN8proxygen15HTTPTransaction19TxnStreamReadHandleESt4lessImESaISt4pairIKmS2_EEE5clearEv = comdat any

$_ZNSt3mapImN8proxygen15HTTPTransaction20TxnStreamWriteHandleESt4lessImESaISt4pairIKmS2_EEE5beginEv = comdat any

$_ZStneRKSt17_Rb_tree_iteratorISt4pairIKmN8proxygen15HTTPTransaction20TxnStreamWriteHandleEEES8_ = comdat any

$_ZNSt3mapImN8proxygen15HTTPTransaction20TxnStreamWriteHandleESt4lessImESaISt4pairIKmS2_EEE3endEv = comdat any

$_ZNKSt17_Rb_tree_iteratorISt4pairIKmN8proxygen15HTTPTransaction20TxnStreamWriteHandleEEEptEv = comdat any

$_ZNSt17_Rb_tree_iteratorISt4pairIKmN8proxygen15HTTPTransaction20TxnStreamWriteHandleEEEppEi = comdat any

$_ZNSt3mapImN8proxygen15HTTPTransaction20TxnStreamWriteHandleESt4lessImESaISt4pairIKmS2_EEE4findERS6_ = comdat any

$_ZNSt3mapImN8proxygen15HTTPTransaction20TxnStreamWriteHandleESt4lessImESaISt4pairIKmS2_EEE5clearEv = comdat any

$__clang_call_terminate = comdat any

$_ZN8proxygen15HTTPTransaction7dequeueEv = comdat any

$_ZN5folly22DelayedDestructionBase15DestructorGuardC2EPS0_ = comdat any

$_ZNKSt10unique_ptrIN8proxygen11HTTPMessageESt14default_deleteIS1_EEptEv = comdat any

$_ZN8proxygen11HTTPMessage8setSeqNoEi = comdat any

$_ZNK8proxygen11HTTPMessage10isResponseEv = comdat any

$_ZNK8proxygen11HTTPMessage9isRequestEv = comdat any

$_ZNK8proxygen11HTTPMessage7isFinalEv = comdat any

$_ZN5follyeqIN8proxygen10HTTPMethodES2_EEbRKNS_8OptionalIT_EERKT0_ = comdat any

$_ZN8proxygen12WebTransport16isConnectMessageERKNS_11HTTPMessageE = comdat any

$_ZNKSt10unique_ptrIN8proxygen11HTTPMessageESt14default_deleteIS1_EEdeEv = comdat any

$_ZN5follyneIN8proxygen10HTTPMethodES2_EEbRKNS_8OptionalIT_EERKT0_ = comdat any

$_ZN8proxygen11HTTPMessage10getHeadersEv = comdat any

$_ZNK8proxygen11HTTPHeaders16getSingleOrEmptyINS_14HTTPHeaderCodeEEERKNSt7__cxx1112basic_stringIcSt11char_traitsIcESaIcEEERKT_ = comdat any

$_ZN5folly2toImNSt7__cxx1112basic_stringIcSt11char_traitsIcESaIcEEEEENSt9enable_ifIXaasr12IsSomeStringIT0_EE5valuentsr3std7is_sameINS_5RangeIPKcEET_EE5valueESD_E4typeERKS8_ = comdat any

$_ZN5folly8OptionalImEaSImEERS1_OT_ = comdat any

$_ZNR5folly8OptionalImE5valueEv = comdat any

$_ZN5folly8OptionalImEaSIRmEERS1_OT_ = comdat any

$_ZNK8proxygen11HTTPMessage20getIngressHeaderSizeEv = comdat any

$_ZNKSt10unique_ptrISt5queueIN8proxygen9HTTPEventESt5dequeIS2_SaIS2_EEESt14default_deleteIS6_EEptEv = comdat any

$_ZNSt5queueIN8proxygen9HTTPEventESt5dequeIS1_SaIS1_EEE7emplaceIJRmNS1_4TypeESt10unique_ptrINS0_11HTTPMessageESt14default_deleteISA_EEEEEDcDpOT_ = comdat any

$_ZNSt10unique_ptrIN8proxygen11HTTPMessageESt14default_deleteIS1_EEC2EOS4_ = comdat any

$_ZNSt10unique_ptrIN8proxygen11HTTPMessageESt14default_deleteIS1_EED2Ev = comdat any

$_ZN5folly22DelayedDestructionBase15DestructorGuardD2Ev = comdat any

$_ZN8proxygen15HTTPTransaction14refreshTimeoutEv = comdat any

$_ZNK5folly8OptionalImE9has_valueEv = comdat any

$_ZN5folly2toINSt7__cxx1112basic_stringIcSt11char_traitsIcESaIcEEEJA54_cmA25_cmEEENSt9enable_ifIXaasr12IsSomeStringIT_EE5valueoonesZT0_Li1Entsr3std7is_sameISA_19__type_pack_elementIXmisPvDpT0_ELi1EEJvSD_EEEE5valueESA_E4typeEDpRKSC_ = comdat any

$_ZN8proxygen9Exception16setProxygenErrorENS_13ProxygenErrorE = comdat any

$_ZN8proxygen13HTTPExceptionD2Ev = comdat any

$_ZNK8proxygen15HTTPTransaction16isIngressEOMSeenEv = comdat any

$_ZNKSt10unique_ptrIN5folly5IOBufESt14default_deleteIS1_EEptEv = comdat any

$_ZNSt5queueIN8proxygen9HTTPEventESt5dequeIS1_SaIS1_EEE7emplaceIJRmNS1_4TypeESt10unique_ptrIN5folly5IOBufESt14default_deleteISB_EEEEEDcDpOT_ = comdat any

$_ZNSt10unique_ptrIN5folly5IOBufESt14default_deleteIS1_EEC2EOS4_ = comdat any

$_ZNSt10unique_ptrIN5folly5IOBufESt14default_deleteIS1_EED2Ev = comdat any

$_ZNSt5queueIN8proxygen9HTTPEventESt5dequeIS1_SaIS1_EEE7emplaceIJRmNS1_4TypeES7_EEEDcDpOT_ = comdat any

$_ZNSt5queueIN8proxygen9HTTPEventESt5dequeIS1_SaIS1_EEE7emplaceIJRmNS1_4TypeEEEEDcDpOT_ = comdat any

$_ZNSt5queueIN8proxygen9HTTPEventESt5dequeIS1_SaIS1_EEE7emplaceIJRmNS1_4TypeESt10unique_ptrINS0_11HTTPHeadersESt14default_deleteISA_EEEEEDcDpOT_ = comdat any

$_ZNSt10unique_ptrIN8proxygen11HTTPHeadersESt14default_deleteIS1_EEC2EOS4_ = comdat any

$_ZNSt5queueIN8proxygen9HTTPEventESt5dequeIS1_SaIS1_EEE7emplaceIJRmNS1_4TypeERNS0_15UpgradeProtocolEEEEDcDpOT_ = comdat any

$_ZN5folly2toINSt7__cxx1112basic_stringIcSt11char_traitsIcESaIcEEEJA62_cmEEENSt9enable_ifIXaasr12IsSomeStringIT_EE5valueoonesZT0_Li1Entsr3std7is_sameIS9_19__type_pack_elementIXmisPvDpT0_ELi1EEJvSC_EEEE5valueES9_E4typeEDpRKSB_ = comdat any

$_ZNK8proxygen15HTTPTransaction12isDownstreamEv = comdat any

$_ZNSt10unique_ptrISt5queueIN8proxygen9HTTPEventESt5dequeIS2_SaIS2_EEESt14default_deleteIS6_EE5resetEPS6_ = comdat any

$_ZNK8proxygen15HTTPTransaction29getOutstandingEgressBodyBytesEv = comdat any

$_ZN5folly2toIlmEENSt9enable_ifIXsr6detail14IsArithToArithIT_T0_EE5valueES2_E4typeERKS3_ = comdat any

$_ZN5folly10IOBufQueue4moveEv = comdat any

$_ZN8proxygen12StateMachineINS_28HTTPTransactionIngressSMDataEE7transitERNS1_5StateENS1_5EventE = comdat any

$_ZN8proxygen12StateMachineINS_27HTTPTransactionEgressSMDataEE7transitERNS1_5StateENS1_5EventE = comdat any

$_ZN8proxygen13HTTPException18setCodecStatusCodeENS_9ErrorCodeE = comdat any

$_ZNK8proxygen13HTTPException12getDirectionEv = comdat any

$_ZNK8proxygen9Exception16getProxygenErrorEv = comdat any

$_ZNK8proxygen13HTTPException18hasCodecStatusCodeEv = comdat any

$_ZNK8proxygen13HTTPException18getCodecStatusCodeEv = comdat any

$_ZNK8proxygen15HTTPTransaction22shouldNotifyExTxnErrorENS_13HTTPException9DirectionE = comdat any

$_ZN5folly2toINSt7__cxx1112basic_stringIcSt11char_traitsIcESaIcEEEJA27_cmEEENSt9enable_ifIXaasr12IsSomeStringIT_EE5valueoonesZT0_Li1Entsr3std7is_sameIS9_19__type_pack_elementIXmisPvDpT0_ELi1EEJvSC_EEEE5valueES9_E4typeEDpRKSB_ = comdat any

$_ZN5folly2toINSt7__cxx1112basic_stringIcSt11char_traitsIcESaIcEEEJA26_cmEEENSt9enable_ifIXaasr12IsSomeStringIT_EE5valueoonesZT0_Li1Entsr3std7is_sameIS9_19__type_pack_elementIXmisPvDpT0_ELi1EEJvSC_EEEE5valueES9_E4typeEDpRKSB_ = comdat any

$_ZNK8proxygen11HTTPMessage13is1xxResponseEv = comdat any

$_ZNK8proxygen11HTTPMessage10getHeadersEv = comdat any

$_ZN8proxygen14HTTPHeaderSizeC2Ev = comdat any

$_ZNK5folly10IOBufQueue5emptyEv = comdat any

$_ZNR5folly8OptionalImEdeEv = comdat any

$_ZNSt10unique_ptrIN8proxygen16DSRRequestSenderESt14default_deleteIS1_EEC2EOS4_ = comdat any

$_ZNSt10unique_ptrIN8proxygen16DSRRequestSenderESt14default_deleteIS1_EED2Ev = comdat any

$_ZNKSt10unique_ptrIN5folly5IOBufESt14default_deleteIS1_EEcvbEv = comdat any

$_ZNKSt7__cxx114listIN8proxygen15HTTPTransaction5ChunkESaIS3_EE5emptyEv = comdat any

$_ZN6google12Check_LEImplImmEEPNSt7__cxx1112basic_stringIcSt11char_traitsIcESaIcEEERKT_RKT0_PKc = comdat any

$_ZN6google21GetReferenceableValueEm = comdat any

$_ZNSt7__cxx114listIN8proxygen15HTTPTransaction5ChunkESaIS3_EE4backEv = comdat any

$_ZN6google13CheckOpStringC2EPNSt7__cxx1112basic_stringIcSt11char_traitsIcESaIcEEE = comdat any

$_ZNK6google13CheckOpStringcvbEv = comdat any

$_ZSt3minIjERKT_S2_S2_ = comdat any

$_ZNK8proxygen15HTTPTransaction17isEgressEOMQueuedEv = comdat any

$_ZSt3minImERKT_S2_S2_ = comdat any

$_ZNK5folly10IOBufQueue11chainLengthEv = comdat any

$_ZN5folly10IOBufQueue5splitEm = comdat any

$_ZNK8proxygen15HTTPTransaction13hasPendingEOMEv = comdat any

$_ZNSt7__cxx114listIN8proxygen15HTTPTransaction5ChunkESaIS3_EE5frontEv = comdat any

$_ZNSt7__cxx114listIN8proxygen15HTTPTransaction5ChunkESaIS3_EE9pop_frontEv = comdat any

$_ZN6google12Check_EQImplImiEEPNSt7__cxx1112basic_stringIcSt11char_traitsIcESaIcEEERKT_RKT0_PKc = comdat any

$_ZN6google21GetReferenceableValueEi = comdat any

$_ZN8proxygen15HTTPTransaction10BufferMeta5splitEm = comdat any

$_ZNSt3mapImN8proxygen9ByteEvent10EventFlagsESt4lessImESaISt4pairIKmS2_EEE5beginEv = comdat any

$_ZStneRKSt17_Rb_tree_iteratorISt4pairIKmN8proxygen9ByteEvent10EventFlagsEEES8_ = comdat any

$_ZNSt3mapImN8proxygen9ByteEvent10EventFlagsESt4lessImESaISt4pairIKmS2_EEE3endEv = comdat any

$_ZNKSt17_Rb_tree_iteratorISt4pairIKmN8proxygen9ByteEvent10EventFlagsEEEptEv = comdat any

$_ZNSt3mapImN8proxygen9ByteEvent10EventFlagsESt4lessImESaISt4pairIKmS2_EEE5eraseB5cxx11ESt17_Rb_tree_iteratorIS7_E = comdat any

$_ZN8proxygen19millisecondsBetweenINSt6chrono3_V212steady_clockEEENS1_8durationIlSt5ratioILl1ELl1000EEEENS1_10time_pointIT_NS9_8durationEEESB_ = comdat any

$_ZN8proxygen14getCurrentTimeINSt6chrono3_V212steady_clockEEENS1_10time_pointIT_NS5_8durationEEEv = comdat any

$_ZNKSt6chrono8durationIlSt5ratioILl1ELl1000EEE5countEv = comdat any

$_ZNSt6chrono8durationIlSt5ratioILl1ELl1000EEEC2IlvEERKT_ = comdat any

$_ZNSt6chronogtIlSt5ratioILl1ELl1000EElS1_ILl1ELl1EEEEbRKNS_8durationIT_T0_EERKNS4_IT1_T2_EE = comdat any

$_ZNKSt10unique_ptrIN8proxygen11HTTPHeadersESt14default_deleteIS1_EE3getEv = comdat any

$_ZNSt10unique_ptrIN8proxygen11HTTPHeadersESt14default_deleteIS1_EE5resetEPS1_ = comdat any

$_ZNSt7__cxx1112basic_stringIcSt11char_traitsIcESaIcEEC2IS3_EEPKcRKS3_ = comdat any

$_ZN6google12Check_GTImplImiEEPNSt7__cxx1112basic_stringIcSt11char_traitsIcESaIcEEERKT_RKT0_PKc = comdat any

$_ZN5folly2toINSt7__cxx1112basic_stringIcSt11char_traitsIcESaIcEEEJiA4_cjEEENSt9enable_ifIXaasr12IsSomeStringIT_EE5valueoonesZT0_Li1Entsr3std7is_sameIS9_19__type_pack_elementIXmisPvDpT0_ELi1EEJvSC_EEEE5valueES9_E4typeEDpRKSB_ = comdat any

$_ZNKSt10unique_ptrIN8proxygen11HTTPHeadersESt14default_deleteIS1_EEcvbEv = comdat any

$_ZN6google12Check_LTImplImlEEPNSt7__cxx1112basic_stringIcSt11char_traitsIcESaIcEEERKT_RKT0_PKc = comdat any

$_ZN6google21GetReferenceableValueEl = comdat any

$_ZNSt14numeric_limitsIlE3maxEv = comdat any

$_ZN5folly2toINSt7__cxx1112basic_stringIcSt11char_traitsIcESaIcEEEJA45_cmEEENSt9enable_ifIXaasr12IsSomeStringIT_EE5valueoonesZT0_Li1Entsr3std7is_sameIS9_19__type_pack_elementIXmisPvDpT0_ELi1EEJvSC_EEEE5valueES9_E4typeEDpRKSB_ = comdat any

$_ZN5folly2toINSt7__cxx1112basic_stringIcSt11char_traitsIcESaIcEEEJA48_cmA11_cmEEENSt9enable_ifIXaasr12IsSomeStringIT_EE5valueoonesZT0_Li1Entsr3std7is_sameISA_19__type_pack_elementIXmisPvDpT0_ELi1EEJvSD_EEEE5valueESA_E4typeEDpRKSC_ = comdat any

$_ZNSt3mapImN8proxygen9ByteEvent10EventFlagsESt4lessImESaISt4pairIKmS2_EEE7emplaceIJRmRS2_EEES5_ISt17_Rb_tree_iteratorIS7_EbEDpOT_ = comdat any

$_ZNK5folly8ExpectedImN8proxygen12WebTransport9ErrorCodeEEcvbEv = comdat any

$_ZN5folly14makeUnexpectedIN8proxygen12WebTransport9ErrorCodeEEENS_10UnexpectedINSt5decayIT_E4typeEEEOS6_ = comdat any

$_ZN5folly8ExpectedIN8proxygen12WebTransport16BidiStreamHandleENS2_9ErrorCodeEEC2ILb0ETnNSt9enable_ifIXooT_scbL_ZNSt17integral_constantIbLb1EE5valueEEEiE4typeELi0EEEONS_10UnexpectedIS4_EE = comdat any

$_ZNSt3mapImN8proxygen15HTTPTransaction19TxnStreamReadHandleESt4lessImESaISt4pairIKmS2_EEE7emplaceIJRKSt21piecewise_construct_tSt5tupleIJRmEESE_IJRS1_SF_EEEEES5_ISt17_Rb_tree_iteratorIS7_EbEDpOT_ = comdat any

$_ZSt16forward_as_tupleIJRmEESt5tupleIJDpOT_EES4_ = comdat any

$_ZNR5folly8ExpectedImN8proxygen12WebTransport9ErrorCodeEEdeEv = comdat any

$_ZSt16forward_as_tupleIJRN8proxygen15HTTPTransactionERmEESt5tupleIJDpOT_EES7_ = comdat any

$_ZNSt3mapImN8proxygen15HTTPTransaction20TxnStreamWriteHandleESt4lessImESaISt4pairIKmS2_EEE7emplaceIJRKSt21piecewise_construct_tSt5tupleIJRmEESE_IJRS1_SF_EEEEES5_ISt17_Rb_tree_iteratorIS7_EbEDpOT_ = comdat any

$_ZN5folly8ExpectedIN8proxygen12WebTransport16BidiStreamHandleENS2_9ErrorCodeEEC2ILb0ETnNSt9enable_ifIXooT_scbL_ZNSt17integral_constantIbLb1EE5valueEEEiE4typeELi0EEEOS3_ = comdat any

$_ZN5folly8ExpectedIPN8proxygen12WebTransport17StreamWriteHandleENS2_9ErrorCodeEEC2ILb0ETnNSt9enable_ifIXooT_scbL_ZNSt17integral_constantIbLb1EE5valueEEEiE4typeELi0EEEONS_10UnexpectedIS5_EE = comdat any

$_ZN5folly8ExpectedIPN8proxygen12WebTransport17StreamWriteHandleENS2_9ErrorCodeEEC2IPNS1_15HTTPTransaction20TxnStreamWriteHandleELb0ETnNSt9enable_ifIXooT0_scbaasr3std14is_convertibleIT_S4_EE5valuentsr3std14is_convertibleISC_S5_EE5valueEiE4typeELi0EEEOSC_ = comdat any

$_ZNK5folly8ExpectedIN8proxygen15HTTPTransaction9Transport7FCStateENS1_12WebTransport9ErrorCodeEE8hasErrorEv = comdat any

$_ZNSt3mapImN8proxygen15HTTPTransaction20TxnStreamWriteHandleESt4lessImESaISt4pairIKmS2_EEE5eraseERS6_ = comdat any

$_ZNSt3mapImN8proxygen15HTTPTransaction19TxnStreamReadHandleESt4lessImESaISt4pairIKmS2_EEE5eraseERS6_ = comdat any

$_ZNKSt10unique_ptrISt5queueIN8proxygen9HTTPEventESt5dequeIS2_SaIS2_EEESt14default_deleteIS6_EEcvbEv = comdat any

$_ZNKSt5queueIN8proxygen9HTTPEventESt5dequeIS1_SaIS1_EEE4sizeEv = comdat any

$_ZNKSt5queueIN8proxygen9HTTPEventESt5dequeIS1_SaIS1_EEE5emptyEv = comdat any

$_ZNSt5queueIN8proxygen9HTTPEventESt5dequeIS1_SaIS1_EEE5frontEv = comdat any

$_ZNK8proxygen9HTTPEvent8getEventEv = comdat any

$_ZN8proxygen9HTTPEvent10getHeadersEv = comdat any

$_ZN8proxygen9HTTPEvent7getBodyEv = comdat any

$_ZNK8proxygen9HTTPEvent14getChunkLengthEv = comdat any

$_ZN8proxygen9HTTPEvent11getTrailersEv = comdat any

$_ZN8proxygen9HTTPEvent18getUpgradeProtocolEv = comdat any

$_ZNK8proxygen15HTTPTransaction15isEgressEOMSeenEv = comdat any

$_ZN8proxygen19CompressionInfoPartaSERKS0_ = comdat any

$_ZSt11make_uniqueISt5queueIN8proxygen9HTTPEventESt5dequeIS2_SaIS2_EEEJEENSt8__detail9_MakeUniqIT_E15__single_objectEDpOT0_ = comdat any

$_ZNSt10unique_ptrISt5queueIN8proxygen9HTTPEventESt5dequeIS2_SaIS2_EEESt14default_deleteIS6_EEaSEOS9_ = comdat any

$_ZN8proxygen15HTTPTransaction10getHandlerEv = comdat any

$_ZNSt3setImSt4lessImESaImEE6insertEOm = comdat any

$_ZNK8proxygen15HTTPTransaction5getIDEv = comdat any

$_ZNK8proxygen15HTTPTransaction16getControlStreamEv = comdat any

$_ZNO5folly8OptionalImEdeEv = comdat any

$_ZN5folly8OptionalINSt6chrono8durationIlSt5ratioILl1ELl1000EEEEEaSIRS5_EERS6_OT_ = comdat any

$_ZNSt6chrono13duration_castINS_8durationIlSt5ratioILl1ELl1000EEEElS3_EENSt9enable_ifIXsr13__is_durationIT_EE5valueES6_E4typeERKNS1_IT0_T1_EE = comdat any

$_ZN8proxygen11HTTPMessage17normalizePriorityEa = comdat any

$_ZN8proxygen12HTTPPriorityC2ERKS0_ = comdat any

$_ZN8proxygen12HTTPPriorityD2Ev = comdat any

$_ZNK5folly8OptionalINS_7PromiseINS_4UnitEEEEcvbEv = comdat any

$_ZNK5folly8OptionalIjEcvbEv = comdat any

$_ZN5folly14makeSemiFutureINS_4UnitEEENS_10SemiFutureIT_EENS_17exception_wrapperE = comdat any

$_ZN5folly22make_exception_wrapperIN8proxygen12WebTransport9ExceptionEJRjEEENS_17exception_wrapperEDpOT0_ = comdat any

$_ZNR5folly8OptionalIjEdeEv = comdat any

$_ZN5folly8ExpectedINS_10SemiFutureINS_4UnitEEEN8proxygen12WebTransport9ErrorCodeEEC2ILb0ETnNSt9enable_ifIXooT_scbL_ZNSt17integral_constantIbLb1EE5valueEEEiE4typeELi0EEEOS3_ = comdat any

$_ZN5folly10SemiFutureINS_4UnitEED2Ev = comdat any

$_ZN5folly17exception_wrapperD2Ev = comdat any

$_ZN5folly14makeUnexpectedIRN8proxygen12WebTransport9ErrorCodeEEENS_10UnexpectedINSt5decayIT_E4typeEEEOS7_ = comdat any

$_ZNR5folly8ExpectedIN8proxygen15HTTPTransaction9Transport7FCStateENS1_12WebTransport9ErrorCodeEE5errorEv = comdat any

$_ZN5folly8ExpectedINS_10SemiFutureINS_4UnitEEEN8proxygen12WebTransport9ErrorCodeEEC2ILb0ETnNSt9enable_ifIXooT_scbL_ZNSt17integral_constantIbLb1EE5valueEEEiE4typeELi0EEEONS_10UnexpectedIS6_EE = comdat any

$_ZNR5folly8ExpectedIN8proxygen15HTTPTransaction9Transport7FCStateENS1_12WebTransport9ErrorCodeEEdeEv = comdat any

$_ZN5folly14makeSemiFutureIRKNS_4UnitEEENS_10SemiFutureINSt5decayIT_E4typeEEEOS6_ = comdat any

$_ZN5folly19makePromiseContractINS_4UnitEEESt4pairINS_7PromiseIT_EENS_10SemiFutureIS4_EEEv = comdat any

$_ZN5folly8OptionalINS_7PromiseINS_4UnitEEEE7emplaceIJS3_EEERS3_DpOT_ = comdat any

$_ZNSt4pairIN5folly7PromiseINS0_4UnitEEENS0_10SemiFutureIS2_EEED2Ev = comdat any

$_ZNK5folly18CancellationSource8getTokenEv = comdat any

$_ZN5folly8OptionalINS_7PromiseINS_4UnitEEEEptEv = comdat any

$_ZN5folly7PromiseINS_4UnitEE12setExceptionIN8proxygen12WebTransport9ExceptionEEENSt9enable_ifIXsr3std10is_base_ofISt9exceptionNSt5decayIT_E4typeEEE5valueEvE4typeEOSA_ = comdat any

$_ZN8proxygen12WebTransport9ExceptionC2Ej = comdat any

$_ZN8proxygen12WebTransport9ExceptionD2Ev = comdat any

$_ZN5folly8OptionalINS_7PromiseINS_4UnitEEEE5resetEv = comdat any

$_ZN5folly8OptionalIjEaSIRjEERS1_OT_ = comdat any

$_ZNK5folly18CancellationSource19requestCancellationEv = comdat any

$_ZN5folly17CancellationTokenD2Ev = comdat any

$_ZN5folly7PromiseINS_4UnitEE8setValueIS1_EENSt9enable_ifIXsr3std7is_sameIS1_T_EE5valueEvE4typeEv = comdat any

$_ZNK5folly8OptionalINS_7PromiseIN8proxygen12WebTransport10StreamDataEEEEcvbEv = comdat any

$_ZN5folly8OptionalINS_7PromiseIN8proxygen12WebTransport10StreamDataEEEEptEv = comdat any

$_ZN5folly7PromiseIN8proxygen12WebTransport10StreamDataEE8setValueIS3_EEvOT_ = comdat any

$_ZN8proxygen12WebTransport10StreamDataD2Ev = comdat any

$_ZN5folly8OptionalINS_7PromiseIN8proxygen12WebTransport10StreamDataEEEE5resetEv = comdat any

$_ZN5folly7PromiseIN8proxygen12WebTransport10StreamDataEE12setExceptionINS2_9ExceptionEEENSt9enable_ifIXsr3std10is_base_ofISt9exceptionNSt5decayIT_E4typeEEE5valueEvE4typeEOSA_ = comdat any

$_ZNSt3mapImN8proxygen15HTTPTransaction19TxnStreamReadHandleESt4lessImESaISt4pairIKmS2_EEE4findERS6_ = comdat any

$_ZN5folly14makeSemiFutureIN8proxygen12WebTransport10StreamDataEEENS_10SemiFutureIT_EENS_17exception_wrapperE = comdat any

$_ZN5folly17exception_wrapperC2EOS0_ = comdat any

$_ZN5folly19makePromiseContractIN8proxygen12WebTransport10StreamDataEEESt4pairINS_7PromiseIT_EENS_10SemiFutureIS6_EEEv = comdat any

$_ZN5folly8OptionalINS_7PromiseIN8proxygen12WebTransport10StreamDataEEEE7emplaceIJS5_EEERS5_DpOT_ = comdat any

$_ZN5folly10SemiFutureIN8proxygen12WebTransport10StreamDataEEC2EOS4_ = comdat any

$_ZNSt4pairIN5folly7PromiseIN8proxygen12WebTransport10StreamDataEEENS0_10SemiFutureIS4_EEED2Ev = comdat any

$_ZN5folly10makeFutureIN8proxygen12WebTransport10StreamDataEEENS_6FutureINSt5decayIT_E4typeEEEOS6_ = comdat any

$_ZN5folly10SemiFutureIN8proxygen12WebTransport10StreamDataEEC2EONS_6FutureIS3_EE = comdat any

$_ZN5folly6FutureIN8proxygen12WebTransport10StreamDataEED2Ev = comdat any

$_ZN8proxygen15HTTPTransaction20TxnStreamWriteHandleD2Ev = comdat any

$_ZN8proxygen15HTTPTransaction20TxnStreamWriteHandleD0Ev = comdat any

$_ZN8proxygen15HTTPTransaction20TxnStreamWriteHandle5getIDEv = comdat any

$_ZN8proxygen15HTTPTransaction20TxnStreamWriteHandle14getCancelTokenEv = comdat any

$_ZN8proxygen15HTTPTransaction20TxnStreamWriteHandle11resetStreamEj = comdat any

$_ZN8proxygen15HTTPTransaction19TxnStreamReadHandleD2Ev = comdat any

$_ZN8proxygen15HTTPTransaction19TxnStreamReadHandleD0Ev = comdat any

$_ZN8proxygen15HTTPTransaction19TxnStreamReadHandle5getIDEv = comdat any

$_ZN8proxygen15HTTPTransaction19TxnStreamReadHandle14getCancelTokenEv = comdat any

$_ZN8proxygen15HTTPTransaction19TxnStreamReadHandle11stopSendingEj = comdat any

$_ZN8proxygen15HTTPTransaction14timeoutExpiredEv = comdat any

$_ZN8proxygen15HTTPTransaction10setHandlerEPNS_22HTTPTransactionHandlerE = comdat any

$_ZNK8proxygen15HTTPTransaction21extraResponseExpectedEv = comdat any

$_ZNK8proxygen15HTTPTransaction16getReceiveWindowEv = comdat any

$_ZN8proxygen15HTTPTransaction20setTransportCallbackEPNS_32HTTPTransactionTransportCallbackE = comdat any

$_ZNK8proxygen15HTTPTransaction14canSendHeadersEv = comdat any

$_ZN8proxygen15HTTPTransaction15sendChunkHeaderEm = comdat any

$_ZN8proxygen15HTTPTransaction19sendChunkTerminatorEv = comdat any

$_ZN8proxygen15HTTPTransaction12sendTrailersERKNS_11HTTPHeadersE = comdat any

$_ZN8proxygen15HTTPTransaction20newPushedTransactionEPNS_26HTTPPushTransactionHandlerEPNS_13ProxygenErrorE = comdat any

$_ZN8proxygen15HTTPTransaction16newExTransactionEPNS_22HTTPTransactionHandlerEb = comdat any

$_ZN8proxygen15HTTPTransaction25addWaitingForReplaySafetyEPN5folly14AsyncTransport20ReplaySafetyCallbackE = comdat any

$_ZN8proxygen15HTTPTransaction28removeWaitingForReplaySafetyEPN5folly14AsyncTransport20ReplaySafetyCallbackE = comdat any

$_ZNK8proxygen15HTTPTransaction26needToBlockForReplaySafetyEv = comdat any

$_ZN5folly22DelayedDestructionBaseD2Ev = comdat any

$_ZN5folly22DelayedDestructionBaseD0Ev = comdat any

$_ZN8proxygen15HTTPTransaction17RateLimitCallbackD0Ev = comdat any

$_ZN8proxygen15HTTPTransaction17RateLimitCallback14timeoutExpiredEv = comdat any

$_ZN8proxygen15HTTPTransaction17RateLimitCallback16callbackCanceledEv = comdat any

$_ZNSt15__uniq_ptr_dataISt5queueIN8proxygen9HTTPEventESt5dequeIS2_SaIS2_EEESt14default_deleteIS6_ELb1ELb1EEC2Ev = comdat any

$_ZNSt15__uniq_ptr_implISt5queueIN8proxygen9HTTPEventESt5dequeIS2_SaIS2_EEESt14default_deleteIS6_EEC2Ev = comdat any

$_ZNSt5tupleIJPSt5queueIN8proxygen9HTTPEventESt5dequeIS2_SaIS2_EEESt14default_deleteIS6_EEEC2ILb1ETnNSt9enable_ifIXclsr17_TupleConstraintsIXT_ES7_S9_EE37__is_implicitly_default_constructibleEEbE4typeELb1EEEv = comdat any

$_ZNSt11_Tuple_implILm0EJPSt5queueIN8proxygen9HTTPEventESt5dequeIS2_SaIS2_EEESt14default_deleteIS6_EEEC2Ev = comdat any

$_ZNSt11_Tuple_implILm1EJSt14default_deleteISt5queueIN8proxygen9HTTPEventESt5dequeIS3_SaIS3_EEEEEEC2Ev = comdat any

$_ZNSt10_Head_baseILm0EPSt5queueIN8proxygen9HTTPEventESt5dequeIS2_SaIS2_EEELb0EEC2Ev = comdat any

$_ZNSt10_Head_baseILm1ESt14default_deleteISt5queueIN8proxygen9HTTPEventESt5dequeIS3_SaIS3_EEEELb1EEC2Ev = comdat any

$_ZN5folly10IOBufQueue7OptionsC2Ev = comdat any

$_ZN8proxygen19CompressionInfoPartC2Ev = comdat any

$_ZNSt15__uniq_ptr_dataIN8proxygen11HTTPHeadersESt14default_deleteIS1_ELb1ELb1EEC2Ev = comdat any

$_ZNSt15__uniq_ptr_implIN8proxygen11HTTPHeadersESt14default_deleteIS1_EEC2Ev = comdat any

$_ZNSt5tupleIJPN8proxygen11HTTPHeadersESt14default_deleteIS1_EEEC2ILb1ETnNSt9enable_ifIXclsr17_TupleConstraintsIXT_ES2_S4_EE37__is_implicitly_default_constructibleEEbE4typeELb1EEEv = comdat any

$_ZNSt11_Tuple_implILm0EJPN8proxygen11HTTPHeadersESt14default_deleteIS1_EEEC2Ev = comdat any

$_ZNSt11_Tuple_implILm1EJSt14default_deleteIN8proxygen11HTTPHeadersEEEEC2Ev = comdat any

$_ZNSt10_Head_baseILm0EPN8proxygen11HTTPHeadersELb0EEC2Ev = comdat any

$_ZNSt10_Head_baseILm1ESt14default_deleteIN8proxygen11HTTPHeadersEELb1EEC2Ev = comdat any

$_ZNSt7__cxx1110_List_baseIN8proxygen15HTTPTransaction5ChunkESaIS3_EEC2Ev = comdat any

$_ZNSt7__cxx1110_List_baseIN8proxygen15HTTPTransaction5ChunkESaIS3_EE10_List_implC2Ev = comdat any

$_ZNSaISt10_List_nodeIN8proxygen15HTTPTransaction5ChunkEEEC2Ev = comdat any

$_ZNSt8__detail17_List_node_headerC2Ev = comdat any

$_ZNSt15__new_allocatorISt10_List_nodeIN8proxygen15HTTPTransaction5ChunkEEEC2Ev = comdat any

$_ZNSt8__detail17_List_node_header7_M_initEv = comdat any

$_ZN5folly8OptionalIN8proxygen9HTTPCodec12ExAttributesEE28StorageTriviallyDestructibleC2Ev = comdat any

$_ZNSt8_Rb_treeImmSt9_IdentityImESt4lessImESaImEEC2Ev = comdat any

$_ZNSt8_Rb_treeImmSt9_IdentityImESt4lessImESaImEE13_Rb_tree_implIS3_Lb1EEC2Ev = comdat any

$_ZNSaISt13_Rb_tree_nodeImEEC2Ev = comdat any

$_ZNSt20_Rb_tree_key_compareISt4lessImEEC2Ev = comdat any

$_ZNSt15_Rb_tree_headerC2Ev = comdat any

$_ZNSt15__new_allocatorISt13_Rb_tree_nodeImEEC2Ev = comdat any

$_ZNSt15_Rb_tree_header8_M_resetEv = comdat any

$_ZN5folly8OptionalImE28StorageTriviallyDestructibleC2Ev = comdat any

$_ZN5folly8OptionalImE9constructIJmEEEvDpOT_ = comdat any

$_ZNSt8_Rb_treeImSt4pairIKmN8proxygen9ByteEvent10EventFlagsEESt10_Select1stIS5_ESt4lessImESaIS5_EEC2Ev = comdat any

$_ZNSt8_Rb_treeImSt4pairIKmN8proxygen9ByteEvent10EventFlagsEESt10_Select1stIS5_ESt4lessImESaIS5_EE13_Rb_tree_implIS9_Lb1EEC2Ev = comdat any

$_ZNSaISt13_Rb_tree_nodeISt4pairIKmN8proxygen9ByteEvent10EventFlagsEEEEC2Ev = comdat any

$_ZNSt15__new_allocatorISt13_Rb_tree_nodeISt4pairIKmN8proxygen9ByteEvent10EventFlagsEEEEC2Ev = comdat any

$_ZNSt6chrono8durationIlSt5ratioILl1ELl1000000000EEE4zeroEv = comdat any

$_ZNSt6chrono15duration_valuesIlE4zeroEv = comdat any

$_ZNSt6chrono8durationIlSt5ratioILl1ELl1000000000EEEC2IlvEERKT_ = comdat any

$_ZNSt8_Rb_treeImSt4pairIKmN8proxygen15HTTPTransaction20TxnStreamWriteHandleEESt10_Select1stIS5_ESt4lessImESaIS5_EEC2Ev = comdat any

$_ZNSt8_Rb_treeImSt4pairIKmN8proxygen15HTTPTransaction20TxnStreamWriteHandleEESt10_Select1stIS5_ESt4lessImESaIS5_EE13_Rb_tree_implIS9_Lb1EEC2Ev = comdat any

$_ZNSaISt13_Rb_tree_nodeISt4pairIKmN8proxygen15HTTPTransaction20TxnStreamWriteHandleEEEEC2Ev = comdat any

$_ZNSt15__new_allocatorISt13_Rb_tree_nodeISt4pairIKmN8proxygen15HTTPTransaction20TxnStreamWriteHandleEEEEC2Ev = comdat any

$_ZNSt8_Rb_treeImSt4pairIKmN8proxygen15HTTPTransaction19TxnStreamReadHandleEESt10_Select1stIS5_ESt4lessImESaIS5_EEC2Ev = comdat any

$_ZNSt8_Rb_treeImSt4pairIKmN8proxygen15HTTPTransaction19TxnStreamReadHandleEESt10_Select1stIS5_ESt4lessImESaIS5_EE13_Rb_tree_implIS9_Lb1EEC2Ev = comdat any

$_ZNSaISt13_Rb_tree_nodeISt4pairIKmN8proxygen15HTTPTransaction19TxnStreamReadHandleEEEEC2Ev = comdat any

$_ZNSt15__new_allocatorISt13_Rb_tree_nodeISt4pairIKmN8proxygen15HTTPTransaction19TxnStreamReadHandleEEEEC2Ev = comdat any

$_ZN8proxygen12WebTransportC2Ev = comdat any

$_ZN8proxygen15HTTPTransaction15TxnWebTransportD0Ev = comdat any

$_ZN8proxygen15HTTPTransaction15TxnWebTransport15createUniStreamEv = comdat any

$_ZN8proxygen15HTTPTransaction15TxnWebTransport16createBidiStreamEv = comdat any

$_ZN8proxygen15HTTPTransaction15TxnWebTransport20awaitUniStreamCreditEv = comdat any

$_ZN8proxygen15HTTPTransaction15TxnWebTransport21awaitBidiStreamCreditEv = comdat any

$_ZN8proxygen15HTTPTransaction15TxnWebTransport14readStreamDataEm = comdat any

$_ZN8proxygen15HTTPTransaction15TxnWebTransport15writeStreamDataEmSt10unique_ptrIN5folly5IOBufESt14default_deleteIS4_EEb = comdat any

$_ZN8proxygen15HTTPTransaction15TxnWebTransport11resetStreamEmj = comdat any

$_ZN8proxygen15HTTPTransaction15TxnWebTransport11stopSendingEmj = comdat any

$_ZN8proxygen15HTTPTransaction15TxnWebTransport12sendDatagramESt10unique_ptrIN5folly5IOBufESt14default_deleteIS4_EE = comdat any

$_ZN8proxygen15HTTPTransaction15TxnWebTransport12closeSessionEN5folly8OptionalIjEE = comdat any

$_ZN8proxygen12WebTransportD2Ev = comdat any

$_ZN8proxygen12WebTransportD0Ev = comdat any

$_ZN5folly10makeFutureIRKNS_4UnitEEENS_6FutureINSt5decayIT_E4typeEEEOS6_ = comdat any

$_ZN5folly10SemiFutureINS_4UnitEEC2EONS_6FutureIS1_EE = comdat any

$_ZN5folly6FutureINS_4UnitEED2Ev = comdat any

$_ZN5folly10makeFutureINS_4UnitEEENS_6FutureIT_EENS_3TryIS3_EE = comdat any

$_ZN5folly3TryINS_4UnitEECI2NS_6detail7TryBaseIS1_EEERKS1_ = comdat any

$_ZN5folly3TryINS_4UnitEED2Ev = comdat any

$_ZN5folly7futures6detail4CoreINS_4UnitEE4makeEONS_3TryIS3_EE = comdat any

$_ZN5folly6FutureINS_4UnitEEC2EPNS_7futures6detail4CoreIS1_EE = comdat any

$_ZN5folly7futures6detail4CoreINS_4UnitEEC2EONS_3TryIS3_EE = comdat any

$_ZN5folly7futures6detail12ResultHolderINS_4UnitEEC2Ev = comdat any

$_ZN5folly7futures6detail8CoreBaseC2ENS1_5StateEh = comdat any

$_ZN5folly3TryINS_4UnitEEC2EOS2_ = comdat any

$_ZN5folly7futures6detail4CoreINS_4UnitEED2Ev = comdat any

$_ZN5folly7futures6detail4CoreINS_4UnitEED0Ev = comdat any

$_ZN5folly8FunctionIFvRNS_7futures6detail8CoreBaseEONS_8Executor9KeepAliveIS5_EEPNS_17exception_wrapperEEEC2Ev = comdat any

$_ZNSt6atomicIN5folly7futures6detail5StateEEC2ES3_ = comdat any

$_ZNSt6atomicIhEC2Eh = comdat any

$_ZN5folly7futures6detail19KeepAliveOrDeferredC2Ev = comdat any

$_ZNSt10shared_ptrIN5folly14RequestContextEEC2Ev = comdat any

$_ZN5folly6detail8function14FunctionTraitsIFvRNS_7futures6detail8CoreBaseEONS_8Executor9KeepAliveIS7_EEPNS_17exception_wrapperEEE10uninitCallES6_SA_SC_RNS1_4DataE = comdat any

$_ZN5folly6detail16throw_exception_ISt17bad_function_callJEEEvDpT0_ = comdat any

$_ZN5folly15throw_exceptionISt17bad_function_callEEvOT_ = comdat any

$_ZNSt17bad_function_callC2Ev = comdat any

$_ZNSt17bad_function_callC2ERKS_ = comdat any

$_ZNSt9exceptionC2ERKS_ = comdat any

$_ZNSt9exceptionC2Ev = comdat any

$_ZNSt13__atomic_baseIhEC2Eh = comdat any

$_ZNSt10unique_ptrIN5folly7futures6detail16DeferredExecutorENS2_13UniqueDeleterEEC2IS4_vEEv = comdat any

$_ZNSt15__uniq_ptr_dataIN5folly7futures6detail16DeferredExecutorENS2_13UniqueDeleterELb1ELb1EEC2Ev = comdat any

$_ZNSt15__uniq_ptr_implIN5folly7futures6detail16DeferredExecutorENS2_13UniqueDeleterEEC2Ev = comdat any

$_ZNSt5tupleIJPN5folly7futures6detail16DeferredExecutorENS2_13UniqueDeleterEEEC2ILb1ETnNSt9enable_ifIXclsr17_TupleConstraintsIXT_ES4_S5_EE37__is_implicitly_default_constructibleEEbE4typeELb1EEEv = comdat any

$_ZNSt11_Tuple_implILm0EJPN5folly7futures6detail16DeferredExecutorENS2_13UniqueDeleterEEEC2Ev = comdat any

$_ZNSt11_Tuple_implILm1EJN5folly7futures6detail13UniqueDeleterEEEC2Ev = comdat any

$_ZNSt10_Head_baseILm0EPN5folly7futures6detail16DeferredExecutorELb0EEC2Ev = comdat any

$_ZNSt10_Head_baseILm1EN5folly7futures6detail13UniqueDeleterELb1EEC2Ev = comdat any

$_ZNSt12__shared_ptrIN5folly14RequestContextELN9__gnu_cxx12_Lock_policyE2EEC2Ev = comdat any

$_ZNSt14__shared_countILN9__gnu_cxx12_Lock_policyE2EEC2Ev = comdat any

$_ZN5folly6detail7TryBaseINS_4UnitEEC2EOS3_ = comdat any

$_ZNKSt13__atomic_baseIhEcvhEv = comdat any

$_ZNKSt6atomicIN5folly7futures6detail5StateEE4loadESt12memory_order = comdat any

$_ZN5folly7futures6detail8CoreBase12detachFutureEv = comdat any

$_ZN5folly7futures6detail12ResultHolderINS_4UnitEED2Ev = comdat any

$_ZStanSt12memory_orderSt23__memory_order_modifier = comdat any

$_ZN5folly6detail15terminate_with_ISt11logic_errorJPKcEEEvDpT0_ = comdat any

$_ZN5folly15throw_exceptionISt11logic_errorEEvOT_ = comdat any

$_ZN5folly7futures6detail10FutureBaseINS_4UnitEEC2EPNS1_4CoreIS3_EE = comdat any

$_ZN5folly6detail7TryBaseINS_4UnitEEC2ERKS2_ = comdat any

$_ZN5folly6detail7TryBaseINS_4UnitEED2Ev = comdat any

$_ZN5folly7futures6detail10FutureBaseINS_4UnitEEC2EONS_6FutureIS3_EE = comdat any

$_ZN5folly7futures6detail10FutureBaseINS_4UnitEE11setExecutorENS1_19KeepAliveOrDeferredE = comdat any

$_ZN5folly7futures6detail10FutureBaseINS_4UnitEE7getCoreEv = comdat any

$_ZN5folly7futures6detail8CoreBase11setExecutorEONS1_19KeepAliveOrDeferredE = comdat any

$_ZN5folly7futures6detail10FutureBaseINS_4UnitEE11getCoreImplIS4_EEDcRT_ = comdat any

$_ZN5folly6detail16throw_exception_INS_13FutureInvalidEJEEEvDpT0_ = comdat any

$_ZN5folly15throw_exceptionINS_13FutureInvalidEEEvOT_ = comdat any

$_ZN5folly13FutureInvalidC2Ev = comdat any

$_ZN5folly13FutureInvalidD2Ev = comdat any

$_ZN5folly13FutureInvalidC2EOS0_ = comdat any

$_ZN5folly15FutureExceptionC2EOS0_ = comdat any

$_ZN5folly13FutureInvalidD0Ev = comdat any

$_ZNK5folly21static_what_exceptionISt11logic_errorE4whatEv = comdat any

$_ZN5folly21static_what_exceptionISt11logic_errorEC2EOS2_ = comdat any

$_ZN5folly15FutureExceptionD2Ev = comdat any

$_ZN5folly15FutureExceptionD0Ev = comdat any

$_ZN5folly21static_what_exceptionISt11logic_errorED2Ev = comdat any

$_ZN5folly21static_what_exceptionISt11logic_errorED0Ev = comdat any

$_ZN5folly15FutureExceptionCI2NS_21static_what_exceptionISt11logic_errorEEENS1_IS2_E15static_lifetimeEPKc = comdat any

$_ZN5folly21static_what_exceptionISt11logic_errorEC2ENS2_15static_lifetimeEPKc = comdat any

$_ZNKSt6atomicIN5folly7futures6detail5StateEEcvS3_Ev = comdat any

$_ZN5folly7futures6detail10FutureBaseINS_4UnitEED2Ev = comdat any

$_ZN5folly7futures6detail10FutureBaseINS_4UnitEE6detachEv = comdat any

$_ZSteqRKSt17_Rb_tree_iteratorISt4pairIKmN8proxygen15HTTPTransaction19TxnStreamReadHandleEEES8_ = comdat any

$_ZN5folly8ExpectedINS_10SemiFutureIN8proxygen12WebTransport10StreamDataEEENS3_9ErrorCodeEEC2ILb0ETnNSt9enable_ifIXooT_scbL_ZNSt17integral_constantIbLb1EE5valueEEEiE4typeELi0EEEONS_10UnexpectedIS6_EE = comdat any

$_ZN5folly8ExpectedINS_10SemiFutureIN8proxygen12WebTransport10StreamDataEEENS3_9ErrorCodeEEC2ILb0ETnNSt9enable_ifIXooT_scbL_ZNSt17integral_constantIbLb1EE5valueEEEiE4typeELi0EEEOS5_ = comdat any

$_ZN5folly10SemiFutureIN8proxygen12WebTransport10StreamDataEED2Ev = comdat any

$_ZNR5folly10UnexpectedIN8proxygen12WebTransport9ErrorCodeEE5errorEv = comdat any

$_ZN5folly15expected_detail15ExpectedStorageINS_10SemiFutureIN8proxygen12WebTransport10StreamDataEEENS4_9ErrorCodeELNS0_11StorageTypeE2EECI2NS0_13ExpectedUnionIS6_S7_EEIJS7_EEENS0_8ErrorTagEDpOT_ = comdat any

$_ZN5folly15expected_detail13ExpectedUnionINS_10SemiFutureIN8proxygen12WebTransport10StreamDataEEENS4_9ErrorCodeEEC2IJS7_EEENS0_8ErrorTagEDpOT_ = comdat any

$_ZN5folly15expected_detail15ExpectedStorageINS_10SemiFutureIN8proxygen12WebTransport10StreamDataEEENS4_9ErrorCodeELNS0_11StorageTypeE2EECI2NS0_13ExpectedUnionIS6_S7_EEIJS6_EEENS0_8ValueTagEDpOT_ = comdat any

$_ZN5folly15expected_detail13ExpectedUnionINS_10SemiFutureIN8proxygen12WebTransport10StreamDataEEENS4_9ErrorCodeEEC2IJS6_EEENS0_8ValueTagEDpOT_ = comdat any

$_ZN5folly10SemiFutureIN8proxygen12WebTransport10StreamDataEE23releaseDeferredExecutorEPNS_7futures6detail4CoreIS3_EE = comdat any

$_ZN5folly7futures6detail10FutureBaseIN8proxygen12WebTransport10StreamDataEED2Ev = comdat any

$_ZNK5folly7futures6detail8CoreBase11hasCallbackEv = comdat any

$_ZNKSt10unique_ptrIN5folly7futures6detail16DeferredExecutorENS2_13UniqueDeleterEE3getEv = comdat any

$_ZNKSt10unique_ptrIN5folly7futures6detail16DeferredExecutorENS2_13UniqueDeleterEEcvbEv = comdat any

$_ZNSt10unique_ptrIN5folly7futures6detail16DeferredExecutorENS2_13UniqueDeleterEED2Ev = comdat any

$_ZN5folly7futures6detailanENS1_5StateES2_ = comdat any

$_ZNKSt15__uniq_ptr_implIN5folly7futures6detail16DeferredExecutorENS2_13UniqueDeleterEE6_M_ptrEv = comdat any

$_ZSt3getILm0EJPN5folly7futures6detail16DeferredExecutorENS2_13UniqueDeleterEEERKNSt13tuple_elementIXT_ESt5tupleIJDpT0_EEE4typeERKSA_ = comdat any

$_ZSt12__get_helperILm0EPN5folly7futures6detail16DeferredExecutorEJNS2_13UniqueDeleterEEERKT0_RKSt11_Tuple_implIXT_EJS6_DpT1_EE = comdat any

$_ZNSt11_Tuple_implILm0EJPN5folly7futures6detail16DeferredExecutorENS2_13UniqueDeleterEEE7_M_headERKS6_ = comdat any

$_ZNSt10_Head_baseILm0EPN5folly7futures6detail16DeferredExecutorELb0EE7_M_headERKS5_ = comdat any

$_ZNSt15__uniq_ptr_implIN5folly7futures6detail16DeferredExecutorENS2_13UniqueDeleterEE6_M_ptrEv = comdat any

$_ZNSt10unique_ptrIN5folly7futures6detail16DeferredExecutorENS2_13UniqueDeleterEE11get_deleterEv = comdat any

$_ZSt3getILm0EJPN5folly7futures6detail16DeferredExecutorENS2_13UniqueDeleterEEERNSt13tuple_elementIXT_ESt5tupleIJDpT0_EEE4typeERSA_ = comdat any

$_ZSt12__get_helperILm0EPN5folly7futures6detail16DeferredExecutorEJNS2_13UniqueDeleterEEERT0_RSt11_Tuple_implIXT_EJS6_DpT1_EE = comdat any

$_ZNSt11_Tuple_implILm0EJPN5folly7futures6detail16DeferredExecutorENS2_13UniqueDeleterEEE7_M_headERS6_ = comdat any

$_ZNSt10_Head_baseILm0EPN5folly7futures6detail16DeferredExecutorELb0EE7_M_headERS5_ = comdat any

$_ZNSt15__uniq_ptr_implIN5folly7futures6detail16DeferredExecutorENS2_13UniqueDeleterEE10_M_deleterEv = comdat any

$_ZSt3getILm1EJPN5folly7futures6detail16DeferredExecutorENS2_13UniqueDeleterEEERNSt13tuple_elementIXT_ESt5tupleIJDpT0_EEE4typeERSA_ = comdat any

$_ZSt12__get_helperILm1EN5folly7futures6detail13UniqueDeleterEJEERT0_RSt11_Tuple_implIXT_EJS4_DpT1_EE = comdat any

$_ZNSt11_Tuple_implILm1EJN5folly7futures6detail13UniqueDeleterEEE7_M_headERS4_ = comdat any

$_ZNSt10_Head_baseILm1EN5folly7futures6detail13UniqueDeleterELb1EE7_M_headERS4_ = comdat any

$_ZN5folly7futures6detail10FutureBaseIN8proxygen12WebTransport10StreamDataEE6detachEv = comdat any

$_ZSteqRKSt17_Rb_tree_iteratorISt4pairIKmN8proxygen15HTTPTransaction20TxnStreamWriteHandleEEES8_ = comdat any

$_ZN5folly8ExpectedINS_4UnitEN8proxygen12WebTransport9ErrorCodeEEC2ILb0ETnNSt9enable_ifIXooT_scbL_ZNSt17integral_constantIbLb1EE5valueEEEiE4typeELi0EEEONS_10UnexpectedIS4_EE = comdat any

$_ZN5folly15expected_detail15ExpectedStorageINS_4UnitEN8proxygen12WebTransport9ErrorCodeELNS0_11StorageTypeE0EEC2IJS5_EEENS0_8ErrorTagEDpOT_ = comdat any

$_ZN5folly8ExpectedINS_4UnitEN8proxygen12WebTransport9ErrorCodeEEC2ILb0ETnNSt9enable_ifIXooT_scbL_ZNSt17integral_constantIbLb1EE5valueEEEiE4typeELi0EEERKS1_ = comdat any

$_ZN5folly15expected_detail15ExpectedStorageINS_4UnitEN8proxygen12WebTransport9ErrorCodeELNS0_11StorageTypeE0EEC2IJRKS2_EEENS0_8ValueTagEDpOT_ = comdat any

$_ZNK5folly8OptionalIN8proxygen9HTTPCodec12ExAttributesEE9has_valueEv = comdat any

$_ZNR5folly8OptionalIN8proxygen9HTTPCodec12ExAttributesEE5valueEv = comdat any

$_ZNK5folly8OptionalIN8proxygen9HTTPCodec12ExAttributesEE13require_valueEv = comdat any

$_ZN5folly6detail16throw_exception_INS_22OptionalEmptyExceptionEJEEEvDpT0_ = comdat any

$_ZN5folly15throw_exceptionINS_22OptionalEmptyExceptionEEEvOT_ = comdat any

$_ZN5folly22OptionalEmptyExceptionC2Ev = comdat any

$_ZN5folly22OptionalEmptyExceptionD2Ev = comdat any

$_ZN5folly22OptionalEmptyExceptionC2EOS0_ = comdat any

$_ZN5folly22OptionalEmptyExceptionD0Ev = comdat any

$_ZNSt8_Rb_treeImSt4pairIKmN8proxygen15HTTPTransaction19TxnStreamReadHandleEESt10_Select1stIS5_ESt4lessImESaIS5_EED2Ev = comdat any

$_ZNSt8_Rb_treeImSt4pairIKmN8proxygen15HTTPTransaction19TxnStreamReadHandleEESt10_Select1stIS5_ESt4lessImESaIS5_EE8_M_eraseEPSt13_Rb_tree_nodeIS5_E = comdat any

$_ZNSt8_Rb_treeImSt4pairIKmN8proxygen15HTTPTransaction19TxnStreamReadHandleEESt10_Select1stIS5_ESt4lessImESaIS5_EE8_M_beginEv = comdat any

$_ZNSt8_Rb_treeImSt4pairIKmN8proxygen15HTTPTransaction19TxnStreamReadHandleEESt10_Select1stIS5_ESt4lessImESaIS5_EE13_Rb_tree_implIS9_Lb1EED2Ev = comdat any

$_ZNSt8_Rb_treeImSt4pairIKmN8proxygen15HTTPTransaction19TxnStreamReadHandleEESt10_Select1stIS5_ESt4lessImESaIS5_EE8_S_rightEPSt18_Rb_tree_node_base = comdat any

$_ZNSt8_Rb_treeImSt4pairIKmN8proxygen15HTTPTransaction19TxnStreamReadHandleEESt10_Select1stIS5_ESt4lessImESaIS5_EE7_S_leftEPSt18_Rb_tree_node_base = comdat any

$_ZNSt8_Rb_treeImSt4pairIKmN8proxygen15HTTPTransaction19TxnStreamReadHandleEESt10_Select1stIS5_ESt4lessImESaIS5_EE12_M_drop_nodeEPSt13_Rb_tree_nodeIS5_E = comdat any

$_ZNSt8_Rb_treeImSt4pairIKmN8proxygen15HTTPTransaction19TxnStreamReadHandleEESt10_Select1stIS5_ESt4lessImESaIS5_EE15_M_destroy_nodeEPSt13_Rb_tree_nodeIS5_E = comdat any

$_ZNSt8_Rb_treeImSt4pairIKmN8proxygen15HTTPTransaction19TxnStreamReadHandleEESt10_Select1stIS5_ESt4lessImESaIS5_EE11_M_put_nodeEPSt13_Rb_tree_nodeIS5_E = comdat any

$_ZNSt16allocator_traitsISaISt13_Rb_tree_nodeISt4pairIKmN8proxygen15HTTPTransaction19TxnStreamReadHandleEEEEE7destroyIS6_EEvRS8_PT_ = comdat any

$_ZNSt8_Rb_treeImSt4pairIKmN8proxygen15HTTPTransaction19TxnStreamReadHandleEESt10_Select1stIS5_ESt4lessImESaIS5_EE21_M_get_Node_allocatorEv = comdat any

$_ZNSt13_Rb_tree_nodeISt4pairIKmN8proxygen15HTTPTransaction19TxnStreamReadHandleEEE9_M_valptrEv = comdat any

$_ZNSt15__new_allocatorISt13_Rb_tree_nodeISt4pairIKmN8proxygen15HTTPTransaction19TxnStreamReadHandleEEEE7destroyIS6_EEvPT_ = comdat any

$_ZNSt4pairIKmN8proxygen15HTTPTransaction19TxnStreamReadHandleEED2Ev = comdat any

$_ZN9__gnu_cxx16__aligned_membufISt4pairIKmN8proxygen15HTTPTransaction19TxnStreamReadHandleEEE6_M_ptrEv = comdat any

$_ZN9__gnu_cxx16__aligned_membufISt4pairIKmN8proxygen15HTTPTransaction19TxnStreamReadHandleEEE7_M_addrEv = comdat any

$_ZNSt16allocator_traitsISaISt13_Rb_tree_nodeISt4pairIKmN8proxygen15HTTPTransaction19TxnStreamReadHandleEEEEE10deallocateERS8_PS7_m = comdat any

$_ZNSt15__new_allocatorISt13_Rb_tree_nodeISt4pairIKmN8proxygen15HTTPTransaction19TxnStreamReadHandleEEEE10deallocateEPS7_m = comdat any

$_ZNKSt8_Rb_treeImSt4pairIKmN8proxygen15HTTPTransaction19TxnStreamReadHandleEESt10_Select1stIS5_ESt4lessImESaIS5_EE9_M_mbeginEv = comdat any

$_ZNSaISt13_Rb_tree_nodeISt4pairIKmN8proxygen15HTTPTransaction19TxnStreamReadHandleEEEED2Ev = comdat any

$_ZNSt15__new_allocatorISt13_Rb_tree_nodeISt4pairIKmN8proxygen15HTTPTransaction19TxnStreamReadHandleEEEED2Ev = comdat any

$_ZNSt8_Rb_treeImSt4pairIKmN8proxygen15HTTPTransaction20TxnStreamWriteHandleEESt10_Select1stIS5_ESt4lessImESaIS5_EED2Ev = comdat any

$_ZNSt8_Rb_treeImSt4pairIKmN8proxygen15HTTPTransaction20TxnStreamWriteHandleEESt10_Select1stIS5_ESt4lessImESaIS5_EE8_M_eraseEPSt13_Rb_tree_nodeIS5_E = comdat any

$_ZNSt8_Rb_treeImSt4pairIKmN8proxygen15HTTPTransaction20TxnStreamWriteHandleEESt10_Select1stIS5_ESt4lessImESaIS5_EE8_M_beginEv = comdat any

$_ZNSt8_Rb_treeImSt4pairIKmN8proxygen15HTTPTransaction20TxnStreamWriteHandleEESt10_Select1stIS5_ESt4lessImESaIS5_EE13_Rb_tree_implIS9_Lb1EED2Ev = comdat any

$_ZNSt8_Rb_treeImSt4pairIKmN8proxygen15HTTPTransaction20TxnStreamWriteHandleEESt10_Select1stIS5_ESt4lessImESaIS5_EE8_S_rightEPSt18_Rb_tree_node_base = comdat any

$_ZNSt8_Rb_treeImSt4pairIKmN8proxygen15HTTPTransaction20TxnStreamWriteHandleEESt10_Select1stIS5_ESt4lessImESaIS5_EE7_S_leftEPSt18_Rb_tree_node_base = comdat any

$_ZNSt8_Rb_treeImSt4pairIKmN8proxygen15HTTPTransaction20TxnStreamWriteHandleEESt10_Select1stIS5_ESt4lessImESaIS5_EE12_M_drop_nodeEPSt13_Rb_tree_nodeIS5_E = comdat any

$_ZNSt8_Rb_treeImSt4pairIKmN8proxygen15HTTPTransaction20TxnStreamWriteHandleEESt10_Select1stIS5_ESt4lessImESaIS5_EE15_M_destroy_nodeEPSt13_Rb_tree_nodeIS5_E = comdat any

$_ZNSt8_Rb_treeImSt4pairIKmN8proxygen15HTTPTransaction20TxnStreamWriteHandleEESt10_Select1stIS5_ESt4lessImESaIS5_EE11_M_put_nodeEPSt13_Rb_tree_nodeIS5_E = comdat any

$_ZNSt16allocator_traitsISaISt13_Rb_tree_nodeISt4pairIKmN8proxygen15HTTPTransaction20TxnStreamWriteHandleEEEEE7destroyIS6_EEvRS8_PT_ = comdat any

$_ZNSt8_Rb_treeImSt4pairIKmN8proxygen15HTTPTransaction20TxnStreamWriteHandleEESt10_Select1stIS5_ESt4lessImESaIS5_EE21_M_get_Node_allocatorEv = comdat any

$_ZNSt13_Rb_tree_nodeISt4pairIKmN8proxygen15HTTPTransaction20TxnStreamWriteHandleEEE9_M_valptrEv = comdat any

$_ZNSt15__new_allocatorISt13_Rb_tree_nodeISt4pairIKmN8proxygen15HTTPTransaction20TxnStreamWriteHandleEEEE7destroyIS6_EEvPT_ = comdat any

$_ZNSt4pairIKmN8proxygen15HTTPTransaction20TxnStreamWriteHandleEED2Ev = comdat any

$_ZN9__gnu_cxx16__aligned_membufISt4pairIKmN8proxygen15HTTPTransaction20TxnStreamWriteHandleEEE6_M_ptrEv = comdat any

$_ZN9__gnu_cxx16__aligned_membufISt4pairIKmN8proxygen15HTTPTransaction20TxnStreamWriteHandleEEE7_M_addrEv = comdat any

$_ZNSt16allocator_traitsISaISt13_Rb_tree_nodeISt4pairIKmN8proxygen15HTTPTransaction20TxnStreamWriteHandleEEEEE10deallocateERS8_PS7_m = comdat any

$_ZNSt15__new_allocatorISt13_Rb_tree_nodeISt4pairIKmN8proxygen15HTTPTransaction20TxnStreamWriteHandleEEEE10deallocateEPS7_m = comdat any

$_ZNKSt8_Rb_treeImSt4pairIKmN8proxygen15HTTPTransaction20TxnStreamWriteHandleEESt10_Select1stIS5_ESt4lessImESaIS5_EE9_M_mbeginEv = comdat any

$_ZNSaISt13_Rb_tree_nodeISt4pairIKmN8proxygen15HTTPTransaction20TxnStreamWriteHandleEEEED2Ev = comdat any

$_ZNSt15__new_allocatorISt13_Rb_tree_nodeISt4pairIKmN8proxygen15HTTPTransaction20TxnStreamWriteHandleEEEED2Ev = comdat any

$_ZNSt8_Rb_treeImSt4pairIKmN8proxygen9ByteEvent10EventFlagsEESt10_Select1stIS5_ESt4lessImESaIS5_EED2Ev = comdat any

$_ZNSt8_Rb_treeImSt4pairIKmN8proxygen9ByteEvent10EventFlagsEESt10_Select1stIS5_ESt4lessImESaIS5_EE8_M_eraseEPSt13_Rb_tree_nodeIS5_E = comdat any

$_ZNSt8_Rb_treeImSt4pairIKmN8proxygen9ByteEvent10EventFlagsEESt10_Select1stIS5_ESt4lessImESaIS5_EE8_M_beginEv = comdat any

$_ZNSt8_Rb_treeImSt4pairIKmN8proxygen9ByteEvent10EventFlagsEESt10_Select1stIS5_ESt4lessImESaIS5_EE13_Rb_tree_implIS9_Lb1EED2Ev = comdat any

$_ZNSt8_Rb_treeImSt4pairIKmN8proxygen9ByteEvent10EventFlagsEESt10_Select1stIS5_ESt4lessImESaIS5_EE8_S_rightEPSt18_Rb_tree_node_base = comdat any

$_ZNSt8_Rb_treeImSt4pairIKmN8proxygen9ByteEvent10EventFlagsEESt10_Select1stIS5_ESt4lessImESaIS5_EE7_S_leftEPSt18_Rb_tree_node_base = comdat any

$_ZNSt8_Rb_treeImSt4pairIKmN8proxygen9ByteEvent10EventFlagsEESt10_Select1stIS5_ESt4lessImESaIS5_EE12_M_drop_nodeEPSt13_Rb_tree_nodeIS5_E = comdat any

$_ZNSt8_Rb_treeImSt4pairIKmN8proxygen9ByteEvent10EventFlagsEESt10_Select1stIS5_ESt4lessImESaIS5_EE15_M_destroy_nodeEPSt13_Rb_tree_nodeIS5_E = comdat any

$_ZNSt8_Rb_treeImSt4pairIKmN8proxygen9ByteEvent10EventFlagsEESt10_Select1stIS5_ESt4lessImESaIS5_EE11_M_put_nodeEPSt13_Rb_tree_nodeIS5_E = comdat any

$_ZNSt16allocator_traitsISaISt13_Rb_tree_nodeISt4pairIKmN8proxygen9ByteEvent10EventFlagsEEEEE7destroyIS6_EEvRS8_PT_ = comdat any

$_ZNSt8_Rb_treeImSt4pairIKmN8proxygen9ByteEvent10EventFlagsEESt10_Select1stIS5_ESt4lessImESaIS5_EE21_M_get_Node_allocatorEv = comdat any

$_ZNSt13_Rb_tree_nodeISt4pairIKmN8proxygen9ByteEvent10EventFlagsEEE9_M_valptrEv = comdat any

$_ZNSt15__new_allocatorISt13_Rb_tree_nodeISt4pairIKmN8proxygen9ByteEvent10EventFlagsEEEE7destroyIS6_EEvPT_ = comdat any

$_ZN9__gnu_cxx16__aligned_membufISt4pairIKmN8proxygen9ByteEvent10EventFlagsEEE6_M_ptrEv = comdat any

$_ZN9__gnu_cxx16__aligned_membufISt4pairIKmN8proxygen9ByteEvent10EventFlagsEEE7_M_addrEv = comdat any

$_ZNSt16allocator_traitsISaISt13_Rb_tree_nodeISt4pairIKmN8proxygen9ByteEvent10EventFlagsEEEEE10deallocateERS8_PS7_m = comdat any

$_ZNSt15__new_allocatorISt13_Rb_tree_nodeISt4pairIKmN8proxygen9ByteEvent10EventFlagsEEEE10deallocateEPS7_m = comdat any

$_ZNKSt8_Rb_treeImSt4pairIKmN8proxygen9ByteEvent10EventFlagsEESt10_Select1stIS5_ESt4lessImESaIS5_EE9_M_mbeginEv = comdat any

$_ZNSaISt13_Rb_tree_nodeISt4pairIKmN8proxygen9ByteEvent10EventFlagsEEEED2Ev = comdat any

$_ZNSt15__new_allocatorISt13_Rb_tree_nodeISt4pairIKmN8proxygen9ByteEvent10EventFlagsEEEED2Ev = comdat any

$_ZNSt8_Rb_treeImmSt9_IdentityImESt4lessImESaImEED2Ev = comdat any

$_ZNSt8_Rb_treeImmSt9_IdentityImESt4lessImESaImEE8_M_eraseEPSt13_Rb_tree_nodeImE = comdat any

$_ZNSt8_Rb_treeImmSt9_IdentityImESt4lessImESaImEE8_M_beginEv = comdat any

$_ZNSt8_Rb_treeImmSt9_IdentityImESt4lessImESaImEE13_Rb_tree_implIS3_Lb1EED2Ev = comdat any

$_ZNSt8_Rb_treeImmSt9_IdentityImESt4lessImESaImEE8_S_rightEPSt18_Rb_tree_node_base = comdat any

$_ZNSt8_Rb_treeImmSt9_IdentityImESt4lessImESaImEE7_S_leftEPSt18_Rb_tree_node_base = comdat any

$_ZNSt8_Rb_treeImmSt9_IdentityImESt4lessImESaImEE12_M_drop_nodeEPSt13_Rb_tree_nodeImE = comdat any

$_ZNSt8_Rb_treeImmSt9_IdentityImESt4lessImESaImEE15_M_destroy_nodeEPSt13_Rb_tree_nodeImE = comdat any

$_ZNSt8_Rb_treeImmSt9_IdentityImESt4lessImESaImEE11_M_put_nodeEPSt13_Rb_tree_nodeImE = comdat any

$_ZNSt16allocator_traitsISaISt13_Rb_tree_nodeImEEE7destroyImEEvRS2_PT_ = comdat any

$_ZNSt8_Rb_treeImmSt9_IdentityImESt4lessImESaImEE21_M_get_Node_allocatorEv = comdat any

$_ZNSt13_Rb_tree_nodeImE9_M_valptrEv = comdat any

$_ZNSt15__new_allocatorISt13_Rb_tree_nodeImEE7destroyImEEvPT_ = comdat any

$_ZN9__gnu_cxx16__aligned_membufImE6_M_ptrEv = comdat any

$_ZN9__gnu_cxx16__aligned_membufImE7_M_addrEv = comdat any

$_ZNSt16allocator_traitsISaISt13_Rb_tree_nodeImEEE10deallocateERS2_PS1_m = comdat any

$_ZNSt15__new_allocatorISt13_Rb_tree_nodeImEE10deallocateEPS1_m = comdat any

$_ZNKSt8_Rb_treeImmSt9_IdentityImESt4lessImESaImEE9_M_mbeginEv = comdat any

$_ZNSaISt13_Rb_tree_nodeImEED2Ev = comdat any

$_ZNSt15__new_allocatorISt13_Rb_tree_nodeImEED2Ev = comdat any

$_ZNSt7__cxx1110_List_baseIN8proxygen15HTTPTransaction5ChunkESaIS3_EED2Ev = comdat any

$_ZNSt7__cxx1110_List_baseIN8proxygen15HTTPTransaction5ChunkESaIS3_EE8_M_clearEv = comdat any

$_ZNSt7__cxx1110_List_baseIN8proxygen15HTTPTransaction5ChunkESaIS3_EE10_List_implD2Ev = comdat any

$_ZNSt10_List_nodeIN8proxygen15HTTPTransaction5ChunkEE9_M_valptrEv = comdat any

$_ZNSt16allocator_traitsISaISt10_List_nodeIN8proxygen15HTTPTransaction5ChunkEEEE7destroyIS3_EEvRS5_PT_ = comdat any

$_ZNSt7__cxx1110_List_baseIN8proxygen15HTTPTransaction5ChunkESaIS3_EE21_M_get_Node_allocatorEv = comdat any

$_ZNSt7__cxx1110_List_baseIN8proxygen15HTTPTransaction5ChunkESaIS3_EE11_M_put_nodeEPSt10_List_nodeIS3_E = comdat any

$_ZN9__gnu_cxx16__aligned_membufIN8proxygen15HTTPTransaction5ChunkEE6_M_ptrEv = comdat any

$_ZN9__gnu_cxx16__aligned_membufIN8proxygen15HTTPTransaction5ChunkEE7_M_addrEv = comdat any

$_ZNSt15__new_allocatorISt10_List_nodeIN8proxygen15HTTPTransaction5ChunkEEE7destroyIS3_EEvPT_ = comdat any

$_ZNSt16allocator_traitsISaISt10_List_nodeIN8proxygen15HTTPTransaction5ChunkEEEE10deallocateERS5_PS4_m = comdat any

$_ZNSt15__new_allocatorISt10_List_nodeIN8proxygen15HTTPTransaction5ChunkEEE10deallocateEPS4_m = comdat any

$_ZNSaISt10_List_nodeIN8proxygen15HTTPTransaction5ChunkEEED2Ev = comdat any

$_ZNSt15__new_allocatorISt10_List_nodeIN8proxygen15HTTPTransaction5ChunkEEED2Ev = comdat any

$_ZNK5folly8OptionalIN8proxygen10HTTPMethodEE8hasValueEv = comdat any

$_ZNKR5folly8OptionalIN8proxygen10HTTPMethodEE5valueEv = comdat any

$_ZNK5folly8OptionalIN8proxygen10HTTPMethodEE9has_valueEv = comdat any

$_ZNK5folly8OptionalIN8proxygen10HTTPMethodEE13require_valueEv = comdat any

$_ZNK8proxygen11HTTPMessage18getUpgradeProtocolB5cxx11Ev = comdat any

$_ZSteqIcEN9__gnu_cxx11__enable_ifIXsr9__is_charIT_EE7__valueEbE6__typeERKNSt7__cxx1112basic_stringIS2_St11char_traitsIS2_ESaIS2_EEESC_ = comdat any

$_ZNKSt10unique_ptrINSt7__cxx1112basic_stringIcSt11char_traitsIcESaIcEEESt14default_deleteIS5_EE3getEv = comdat any

$_ZNKSt15__uniq_ptr_implINSt7__cxx1112basic_stringIcSt11char_traitsIcESaIcEEESt14default_deleteIS5_EE6_M_ptrEv = comdat any

$_ZSt3getILm0EJPNSt7__cxx1112basic_stringIcSt11char_traitsIcESaIcEEESt14default_deleteIS5_EEERKNSt13tuple_elementIXT_ESt5tupleIJDpT0_EEE4typeERKSD_ = comdat any

$_ZSt12__get_helperILm0EPNSt7__cxx1112basic_stringIcSt11char_traitsIcESaIcEEEJSt14default_deleteIS5_EEERKT0_RKSt11_Tuple_implIXT_EJS9_DpT1_EE = comdat any

$_ZNSt11_Tuple_implILm0EJPNSt7__cxx1112basic_stringIcSt11char_traitsIcESaIcEEESt14default_deleteIS5_EEE7_M_headERKS9_ = comdat any

$_ZNSt10_Head_baseILm0EPNSt7__cxx1112basic_stringIcSt11char_traitsIcESaIcEEELb0EE7_M_headERKS7_ = comdat any

$_ZNSt11char_traitsIcE7compareEPKcS2_m = comdat any

$_ZNK5folly8OptionalImE13require_valueEv = comdat any

$_ZNSt5dequeIN8proxygen9HTTPEventESaIS1_EE12emplace_backIJRmNS1_4TypeESt10unique_ptrINS0_11HTTPMessageESt14default_deleteIS8_EEEEERS1_DpOT_ = comdat any

$_ZNSt16allocator_traitsISaIN8proxygen9HTTPEventEEE9constructIS1_JRmNS1_4TypeESt10unique_ptrINS0_11HTTPMessageESt14default_deleteIS8_EEEEEvRS2_PT_DpOT0_ = comdat any

$_ZNSt5dequeIN8proxygen9HTTPEventESaIS1_EE16_M_push_back_auxIJRmNS1_4TypeESt10unique_ptrINS0_11HTTPMessageESt14default_deleteIS8_EEEEEvDpOT_ = comdat any

$_ZNSt5dequeIN8proxygen9HTTPEventESaIS1_EE4backEv = comdat any

$_ZNSt15__new_allocatorIN8proxygen9HTTPEventEE9constructIS1_JRmNS1_4TypeESt10unique_ptrINS0_11HTTPMessageESt14default_deleteIS7_EEEEEvPT_DpOT0_ = comdat any

$_ZN8proxygen9HTTPEventC2EmNS0_4TypeESt10unique_ptrINS_11HTTPMessageESt14default_deleteIS3_EE = comdat any

$_ZNSt10unique_ptrIN5folly5IOBufESt14default_deleteIS1_EEC2IS3_vEEv = comdat any

$_ZNSt10unique_ptrIN8proxygen13HTTPExceptionESt14default_deleteIS1_EEC2IS3_vEEv = comdat any

$_ZNSt15__uniq_ptr_dataIN5folly5IOBufESt14default_deleteIS1_ELb1ELb1EEC2Ev = comdat any

$_ZNSt15__uniq_ptr_implIN5folly5IOBufESt14default_deleteIS1_EEC2Ev = comdat any

$_ZNSt5tupleIJPN5folly5IOBufESt14default_deleteIS1_EEEC2ILb1ETnNSt9enable_ifIXclsr17_TupleConstraintsIXT_ES2_S4_EE37__is_implicitly_default_constructibleEEbE4typeELb1EEEv = comdat any

$_ZNSt11_Tuple_implILm0EJPN5folly5IOBufESt14default_deleteIS1_EEEC2Ev = comdat any

$_ZNSt11_Tuple_implILm1EJSt14default_deleteIN5folly5IOBufEEEEC2Ev = comdat any

$_ZNSt10_Head_baseILm0EPN5folly5IOBufELb0EEC2Ev = comdat any

$_ZNSt10_Head_baseILm1ESt14default_deleteIN5folly5IOBufEELb1EEC2Ev = comdat any

$_ZNSt15__uniq_ptr_dataIN8proxygen13HTTPExceptionESt14default_deleteIS1_ELb1ELb1EEC2Ev = comdat any

$_ZNSt15__uniq_ptr_implIN8proxygen13HTTPExceptionESt14default_deleteIS1_EEC2Ev = comdat any

$_ZNSt5tupleIJPN8proxygen13HTTPExceptionESt14default_deleteIS1_EEEC2ILb1ETnNSt9enable_ifIXclsr17_TupleConstraintsIXT_ES2_S4_EE37__is_implicitly_default_constructibleEEbE4typeELb1EEEv = comdat any

$_ZNSt11_Tuple_implILm0EJPN8proxygen13HTTPExceptionESt14default_deleteIS1_EEEC2Ev = comdat any

$_ZNSt11_Tuple_implILm1EJSt14default_deleteIN8proxygen13HTTPExceptionEEEEC2Ev = comdat any

$_ZNSt10_Head_baseILm0EPN8proxygen13HTTPExceptionELb0EEC2Ev = comdat any

$_ZNSt10_Head_baseILm1ESt14default_deleteIN8proxygen13HTTPExceptionEELb1EEC2Ev = comdat any

$_ZNKSt5dequeIN8proxygen9HTTPEventESaIS1_EE4sizeEv = comdat any

$_ZNKSt5dequeIN8proxygen9HTTPEventESaIS1_EE8max_sizeEv = comdat any

$_ZNSt5dequeIN8proxygen9HTTPEventESaIS1_EE22_M_reserve_map_at_backEm = comdat any

$_ZNSt11_Deque_baseIN8proxygen9HTTPEventESaIS1_EE16_M_allocate_nodeEv = comdat any

$_ZNSt15_Deque_iteratorIN8proxygen9HTTPEventERS1_PS1_E11_M_set_nodeEPS3_ = comdat any

$_ZNSt11_Deque_baseIN8proxygen9HTTPEventESaIS1_EE18_M_deallocate_nodeEPS1_ = comdat any

$_ZStmiRKSt15_Deque_iteratorIN8proxygen9HTTPEventERS1_PS1_ES6_ = comdat any

$_ZNSt15_Deque_iteratorIN8proxygen9HTTPEventERS1_PS1_E14_S_buffer_sizeEv = comdat any

$_ZSt16__deque_buf_sizem = comdat any

$_ZNSt5dequeIN8proxygen9HTTPEventESaIS1_EE11_S_max_sizeERKS2_ = comdat any

$_ZNKSt11_Deque_baseIN8proxygen9HTTPEventESaIS1_EE19_M_get_Tp_allocatorEv = comdat any

$_ZNSt16allocator_traitsISaIN8proxygen9HTTPEventEEE8max_sizeERKS2_ = comdat any

$_ZNKSt15__new_allocatorIN8proxygen9HTTPEventEE8max_sizeEv = comdat any

$_ZNKSt15__new_allocatorIN8proxygen9HTTPEventEE11_M_max_sizeEv = comdat any

$_ZNSt5dequeIN8proxygen9HTTPEventESaIS1_EE17_M_reallocate_mapEmb = comdat any

$_ZSt4copyIPPN8proxygen9HTTPEventES3_ET0_T_S5_S4_ = comdat any

$_ZSt13copy_backwardIPPN8proxygen9HTTPEventES3_ET0_T_S5_S4_ = comdat any

$_ZSt3maxImERKT_S2_S2_ = comdat any

$_ZNSt11_Deque_baseIN8proxygen9HTTPEventESaIS1_EE15_M_allocate_mapEm = comdat any

$_ZNSt11_Deque_baseIN8proxygen9HTTPEventESaIS1_EE17_M_deallocate_mapEPPS1_m = comdat any

$_ZSt13__copy_move_aILb0EPPN8proxygen9HTTPEventES3_ET1_T0_S5_S4_ = comdat any

$_ZSt12__miter_baseIPPN8proxygen9HTTPEventEET_S4_ = comdat any

$_ZSt12__niter_wrapIPPN8proxygen9HTTPEventEET_RKS4_S4_ = comdat any

$_ZSt14__copy_move_a1ILb0EPPN8proxygen9HTTPEventES3_ET1_T0_S5_S4_ = comdat any

$_ZSt12__niter_baseIPPN8proxygen9HTTPEventEET_S4_ = comdat any

$_ZSt14__copy_move_a2ILb0EPPN8proxygen9HTTPEventES3_ET1_T0_S5_S4_ = comdat any

$_ZNSt11__copy_moveILb0ELb1ESt26random_access_iterator_tagE8__copy_mIPN8proxygen9HTTPEventEEEPT_PKS6_S9_S7_ = comdat any

$_ZSt22__copy_move_backward_aILb0EPPN8proxygen9HTTPEventES3_ET1_T0_S5_S4_ = comdat any

$_ZSt23__copy_move_backward_a1ILb0EPPN8proxygen9HTTPEventES3_ET1_T0_S5_S4_ = comdat any

$_ZSt23__copy_move_backward_a2ILb0EPPN8proxygen9HTTPEventES3_ET1_T0_S5_S4_ = comdat any

$_ZNSt20__copy_move_backwardILb0ELb1ESt26random_access_iterator_tagE13__copy_move_bIPN8proxygen9HTTPEventEEEPT_PKS6_S9_S7_ = comdat any

$_ZNKSt11_Deque_baseIN8proxygen9HTTPEventESaIS1_EE20_M_get_map_allocatorEv = comdat any

$_ZNSt16allocator_traitsISaIPN8proxygen9HTTPEventEEE8allocateERS3_m = comdat any

$_ZNSaIPN8proxygen9HTTPEventEED2Ev = comdat any

$_ZNSaIPN8proxygen9HTTPEventEEC2IS0_EERKSaIT_E = comdat any

$_ZNSt15__new_allocatorIPN8proxygen9HTTPEventEEC2Ev = comdat any

$_ZNSt15__new_allocatorIPN8proxygen9HTTPEventEE8allocateEmPKv = comdat any

$_ZNKSt15__new_allocatorIPN8proxygen9HTTPEventEE11_M_max_sizeEv = comdat any

$_ZNSt15__new_allocatorIPN8proxygen9HTTPEventEED2Ev = comdat any

$_ZNSt16allocator_traitsISaIPN8proxygen9HTTPEventEEE10deallocateERS3_PS2_m = comdat any

$_ZNSt15__new_allocatorIPN8proxygen9HTTPEventEE10deallocateEPS2_m = comdat any

$_ZNSt16allocator_traitsISaIN8proxygen9HTTPEventEEE8allocateERS2_m = comdat any

$_ZNSt15__new_allocatorIN8proxygen9HTTPEventEE8allocateEmPKv = comdat any

$_ZNSt16allocator_traitsISaIN8proxygen9HTTPEventEEE10deallocateERS2_PS1_m = comdat any

$_ZNSt15__new_allocatorIN8proxygen9HTTPEventEE10deallocateEPS1_m = comdat any

$_ZNSt5dequeIN8proxygen9HTTPEventESaIS1_EE3endEv = comdat any

$_ZNSt15_Deque_iteratorIN8proxygen9HTTPEventERS1_PS1_EmmEv = comdat any

$_ZNKSt15_Deque_iteratorIN8proxygen9HTTPEventERS1_PS1_EdeEv = comdat any

$_ZNSt15_Deque_iteratorIN8proxygen9HTTPEventERS1_PS1_EC2ERKS4_ = comdat any

$_ZNSt15__uniq_ptr_dataIN8proxygen11HTTPMessageESt14default_deleteIS1_ELb1ELb1EEC2EOS4_ = comdat any

$_ZNSt15__uniq_ptr_implIN8proxygen11HTTPMessageESt14default_deleteIS1_EEC2EOS4_ = comdat any

$_ZNSt5tupleIJPN8proxygen11HTTPMessageESt14default_deleteIS1_EEEC2EOS5_ = comdat any

$_ZNSt15__uniq_ptr_implIN8proxygen11HTTPMessageESt14default_deleteIS1_EE6_M_ptrEv = comdat any

$_ZNSt11_Tuple_implILm0EJPN8proxygen11HTTPMessageESt14default_deleteIS1_EEEC2EOS5_ = comdat any

$_ZNSt11_Tuple_implILm1EJSt14default_deleteIN8proxygen11HTTPMessageEEEEC2EOS4_ = comdat any

$_ZSt3getILm0EJPN8proxygen11HTTPMessageESt14default_deleteIS1_EEERNSt13tuple_elementIXT_ESt5tupleIJDpT0_EEE4typeERS9_ = comdat any

$_ZSt12__get_helperILm0EPN8proxygen11HTTPMessageEJSt14default_deleteIS1_EEERT0_RSt11_Tuple_implIXT_EJS5_DpT1_EE = comdat any

$_ZNSt11_Tuple_implILm0EJPN8proxygen11HTTPMessageESt14default_deleteIS1_EEE7_M_headERS5_ = comdat any

$_ZNSt10_Head_baseILm0EPN8proxygen11HTTPMessageELb0EE7_M_headERS3_ = comdat any

$_ZNK8proxygen15HTTPTransaction14hasIdleTimeoutEv = comdat any

$_ZNSt6chrononeIlSt5ratioILl1ELl1000EElS2_EEbRKNS_8durationIT_T0_EERKNS3_IT1_T2_EE = comdat any

$_ZNR5folly8OptionalINSt6chrono8durationIlSt5ratioILl1ELl1000EEEEE5valueEv = comdat any

$_ZNSt6chrono8durationIlSt5ratioILl1ELl1000EEE4zeroEv = comdat any

$_ZNK5folly8OptionalINSt6chrono8durationIlSt5ratioILl1ELl1000EEEEE9has_valueEv = comdat any

$_ZNSt6chronoeqIlSt5ratioILl1ELl1000EElS2_EEbRKNS_8durationIT_T0_EERKNS3_IT1_T2_EE = comdat any

$_ZNK5folly8OptionalINSt6chrono8durationIlSt5ratioILl1ELl1000EEEEE13require_valueEv = comdat any

$_ZN8proxygen9ExceptionD2Ev = comdat any

$_ZN8proxygen13HTTPExceptionD0Ev = comdat any

$_ZNK8proxygen15HTTPTransaction18isIngressEOMQueuedEv = comdat any

$_ZNSt5dequeIN8proxygen9HTTPEventESaIS1_EE12emplace_backIJRmNS1_4TypeESt10unique_ptrIN5folly5IOBufESt14default_deleteIS9_EEEEERS1_DpOT_ = comdat any

$_ZNSt16allocator_traitsISaIN8proxygen9HTTPEventEEE9constructIS1_JRmNS1_4TypeESt10unique_ptrIN5folly5IOBufESt14default_deleteIS9_EEEEEvRS2_PT_DpOT0_ = comdat any

$_ZNSt5dequeIN8proxygen9HTTPEventESaIS1_EE16_M_push_back_auxIJRmNS1_4TypeESt10unique_ptrIN5folly5IOBufESt14default_deleteIS9_EEEEEvDpOT_ = comdat any

$_ZNSt15__new_allocatorIN8proxygen9HTTPEventEE9constructIS1_JRmNS1_4TypeESt10unique_ptrIN5folly5IOBufESt14default_deleteIS8_EEEEEvPT_DpOT0_ = comdat any

$_ZN8proxygen9HTTPEventC2EmNS0_4TypeESt10unique_ptrIN5folly5IOBufESt14default_deleteIS4_EE = comdat any

$_ZNSt10unique_ptrIN8proxygen11HTTPMessageESt14default_deleteIS1_EEC2IS3_vEEv = comdat any

$_ZNSt15__uniq_ptr_dataIN8proxygen11HTTPMessageESt14default_deleteIS1_ELb1ELb1EEC2Ev = comdat any

$_ZNSt15__uniq_ptr_implIN8proxygen11HTTPMessageESt14default_deleteIS1_EEC2Ev = comdat any

$_ZNSt5tupleIJPN8proxygen11HTTPMessageESt14default_deleteIS1_EEEC2ILb1ETnNSt9enable_ifIXclsr17_TupleConstraintsIXT_ES2_S4_EE37__is_implicitly_default_constructibleEEbE4typeELb1EEEv = comdat any

$_ZNSt11_Tuple_implILm0EJPN8proxygen11HTTPMessageESt14default_deleteIS1_EEEC2Ev = comdat any

$_ZNSt11_Tuple_implILm1EJSt14default_deleteIN8proxygen11HTTPMessageEEEEC2Ev = comdat any

$_ZNSt10_Head_baseILm0EPN8proxygen11HTTPMessageELb0EEC2Ev = comdat any

$_ZNSt10_Head_baseILm1ESt14default_deleteIN8proxygen11HTTPMessageEELb1EEC2Ev = comdat any

$_ZNSt15__uniq_ptr_dataIN5folly5IOBufESt14default_deleteIS1_ELb1ELb1EEC2EOS4_ = comdat any

$_ZNSt15__uniq_ptr_implIN5folly5IOBufESt14default_deleteIS1_EEC2EOS4_ = comdat any

$_ZNSt5tupleIJPN5folly5IOBufESt14default_deleteIS1_EEEC2EOS5_ = comdat any

$_ZNSt15__uniq_ptr_implIN5folly5IOBufESt14default_deleteIS1_EE6_M_ptrEv = comdat any

$_ZNSt11_Tuple_implILm0EJPN5folly5IOBufESt14default_deleteIS1_EEEC2EOS5_ = comdat any

$_ZNSt11_Tuple_implILm1EJSt14default_deleteIN5folly5IOBufEEEEC2EOS4_ = comdat any

$_ZSt3getILm0EJPN5folly5IOBufESt14default_deleteIS1_EEERNSt13tuple_elementIXT_ESt5tupleIJDpT0_EEE4typeERS9_ = comdat any

$_ZSt12__get_helperILm0EPN5folly5IOBufEJSt14default_deleteIS1_EEERT0_RSt11_Tuple_implIXT_EJS5_DpT1_EE = comdat any

$_ZNSt11_Tuple_implILm0EJPN5folly5IOBufESt14default_deleteIS1_EEE7_M_headERS5_ = comdat any

$_ZNSt10_Head_baseILm0EPN5folly5IOBufELb0EE7_M_headERS3_ = comdat any

$_ZNSt5dequeIN8proxygen9HTTPEventESaIS1_EE12emplace_backIJRmNS1_4TypeES5_EEERS1_DpOT_ = comdat any

$_ZNSt16allocator_traitsISaIN8proxygen9HTTPEventEEE9constructIS1_JRmNS1_4TypeES5_EEEvRS2_PT_DpOT0_ = comdat any

$_ZNSt5dequeIN8proxygen9HTTPEventESaIS1_EE16_M_push_back_auxIJRmNS1_4TypeES5_EEEvDpOT_ = comdat any

$_ZNSt15__new_allocatorIN8proxygen9HTTPEventEE9constructIS1_JRmNS1_4TypeES4_EEEvPT_DpOT0_ = comdat any

$_ZN8proxygen9HTTPEventC2EmNS0_4TypeEm = comdat any

$_ZNSt10unique_ptrIN8proxygen13HTTPExceptionESt14default_deleteIS1_EED2Ev = comdat any

$_ZNSt15__uniq_ptr_implIN8proxygen13HTTPExceptionESt14default_deleteIS1_EE6_M_ptrEv = comdat any

$_ZNSt10unique_ptrIN8proxygen13HTTPExceptionESt14default_deleteIS1_EE11get_deleterEv = comdat any

$_ZNKSt14default_deleteIN8proxygen13HTTPExceptionEEclEPS1_ = comdat any

$_ZSt3getILm0EJPN8proxygen13HTTPExceptionESt14default_deleteIS1_EEERNSt13tuple_elementIXT_ESt5tupleIJDpT0_EEE4typeERS9_ = comdat any

$_ZSt12__get_helperILm0EPN8proxygen13HTTPExceptionEJSt14default_deleteIS1_EEERT0_RSt11_Tuple_implIXT_EJS5_DpT1_EE = comdat any

$_ZNSt11_Tuple_implILm0EJPN8proxygen13HTTPExceptionESt14default_deleteIS1_EEE7_M_headERS5_ = comdat any

$_ZNSt10_Head_baseILm0EPN8proxygen13HTTPExceptionELb0EE7_M_headERS3_ = comdat any

$_ZNSt15__uniq_ptr_implIN8proxygen13HTTPExceptionESt14default_deleteIS1_EE10_M_deleterEv = comdat any

$_ZSt3getILm1EJPN8proxygen13HTTPExceptionESt14default_deleteIS1_EEERNSt13tuple_elementIXT_ESt5tupleIJDpT0_EEE4typeERS9_ = comdat any

$_ZSt12__get_helperILm1ESt14default_deleteIN8proxygen13HTTPExceptionEEJEERT0_RSt11_Tuple_implIXT_EJS4_DpT1_EE = comdat any

$_ZNSt11_Tuple_implILm1EJSt14default_deleteIN8proxygen13HTTPExceptionEEEE7_M_headERS4_ = comdat any

$_ZNSt10_Head_baseILm1ESt14default_deleteIN8proxygen13HTTPExceptionEELb1EE7_M_headERS4_ = comdat any

$_ZNSt5dequeIN8proxygen9HTTPEventESaIS1_EE12emplace_backIJRmNS1_4TypeEEEERS1_DpOT_ = comdat any

$_ZNSt16allocator_traitsISaIN8proxygen9HTTPEventEEE9constructIS1_JRmNS1_4TypeEEEEvRS2_PT_DpOT0_ = comdat any

$_ZNSt5dequeIN8proxygen9HTTPEventESaIS1_EE16_M_push_back_auxIJRmNS1_4TypeEEEEvDpOT_ = comdat any

$_ZNSt15__new_allocatorIN8proxygen9HTTPEventEE9constructIS1_JRmNS1_4TypeEEEEvPT_DpOT0_ = comdat any

$_ZN8proxygen9HTTPEventC2EmNS0_4TypeEb = comdat any

$_ZNSt5dequeIN8proxygen9HTTPEventESaIS1_EE12emplace_backIJRmNS1_4TypeESt10unique_ptrINS0_11HTTPHeadersESt14default_deleteIS8_EEEEERS1_DpOT_ = comdat any

$_ZNSt16allocator_traitsISaIN8proxygen9HTTPEventEEE9constructIS1_JRmNS1_4TypeESt10unique_ptrINS0_11HTTPHeadersESt14default_deleteIS8_EEEEEvRS2_PT_DpOT0_ = comdat any

$_ZNSt5dequeIN8proxygen9HTTPEventESaIS1_EE16_M_push_back_auxIJRmNS1_4TypeESt10unique_ptrINS0_11HTTPHeadersESt14default_deleteIS8_EEEEEvDpOT_ = comdat any

$_ZNSt15__new_allocatorIN8proxygen9HTTPEventEE9constructIS1_JRmNS1_4TypeESt10unique_ptrINS0_11HTTPHeadersESt14default_deleteIS7_EEEEEvPT_DpOT0_ = comdat any

$_ZN8proxygen9HTTPEventC2EmNS0_4TypeESt10unique_ptrINS_11HTTPHeadersESt14default_deleteIS3_EE = comdat any

$_ZNSt15__uniq_ptr_dataIN8proxygen11HTTPHeadersESt14default_deleteIS1_ELb1ELb1EEC2EOS4_ = comdat any

$_ZNSt15__uniq_ptr_implIN8proxygen11HTTPHeadersESt14default_deleteIS1_EEC2EOS4_ = comdat any

$_ZNSt5tupleIJPN8proxygen11HTTPHeadersESt14default_deleteIS1_EEEC2EOS5_ = comdat any

$_ZNSt15__uniq_ptr_implIN8proxygen11HTTPHeadersESt14default_deleteIS1_EE6_M_ptrEv = comdat any

$_ZNSt11_Tuple_implILm0EJPN8proxygen11HTTPHeadersESt14default_deleteIS1_EEEC2EOS5_ = comdat any

$_ZNSt11_Tuple_implILm1EJSt14default_deleteIN8proxygen11HTTPHeadersEEEEC2EOS4_ = comdat any

$_ZSt3getILm0EJPN8proxygen11HTTPHeadersESt14default_deleteIS1_EEERNSt13tuple_elementIXT_ESt5tupleIJDpT0_EEE4typeERS9_ = comdat any

$_ZSt12__get_helperILm0EPN8proxygen11HTTPHeadersEJSt14default_deleteIS1_EEERT0_RSt11_Tuple_implIXT_EJS5_DpT1_EE = comdat any

$_ZNSt11_Tuple_implILm0EJPN8proxygen11HTTPHeadersESt14default_deleteIS1_EEE7_M_headERS5_ = comdat any

$_ZNSt10_Head_baseILm0EPN8proxygen11HTTPHeadersELb0EE7_M_headERS3_ = comdat any

$_ZNSt5dequeIN8proxygen9HTTPEventESaIS1_EE12emplace_backIJRmNS1_4TypeERNS0_15UpgradeProtocolEEEERS1_DpOT_ = comdat any

$_ZNSt16allocator_traitsISaIN8proxygen9HTTPEventEEE9constructIS1_JRmNS1_4TypeERNS0_15UpgradeProtocolEEEEvRS2_PT_DpOT0_ = comdat any

$_ZNSt5dequeIN8proxygen9HTTPEventESaIS1_EE16_M_push_back_auxIJRmNS1_4TypeERNS0_15UpgradeProtocolEEEEvDpOT_ = comdat any

$_ZNSt15__new_allocatorIN8proxygen9HTTPEventEE9constructIS1_JRmNS1_4TypeERNS0_15UpgradeProtocolEEEEvPT_DpOT0_ = comdat any

$_ZN8proxygen9HTTPEventC2EmNS0_4TypeENS_15UpgradeProtocolE = comdat any

$_ZN5folly10IOBufQueue11updateGuardEv = comdat any

$_ZN5folly6detail14ScopeGuardImplIZNS_10IOBufQueue11updateGuardEvEUlvE_Lb1EED2Ev = comdat any

$_ZNK5folly10IOBufQueue10flushCacheEv = comdat any

$_ZN5folly9makeGuardIZNS_10IOBufQueue11updateGuardEvEUlvE_EENS_6detail14ScopeGuardImplINSt5decayIT_E4typeELb1EEEOS6_ = comdat any

$_ZNK5folly10IOBufQueue20dcheckCacheIntegrityEv = comdat any

$_ZN5folly5IOBuf4prevEv = comdat any

$_ZN6google12Check_EQImplIPvS1_EEPNSt7__cxx1112basic_stringIcSt11char_traitsIcESaIcEEERKT_RKT0_PKc = comdat any

$_ZN6google21GetReferenceableValueIPvEERKT_S4_ = comdat any

$_ZN5folly5IOBuf12writableTailEv = comdat any

$_ZNK5folly5IOBuf8tailroomEv = comdat any

$_ZN5folly5IOBuf6appendEm = comdat any

$_ZN6google12Check_LEImplIPvS1_EEPNSt7__cxx1112basic_stringIcSt11char_traitsIcESaIcEEERKT_RKT0_PKc = comdat any

$_ZStneIN5folly5IOBufESt14default_deleteIS1_EEbRKSt10unique_ptrIT_T0_EDn = comdat any

$_ZN6google17MakeCheckOpStringIPvS1_EEPNSt7__cxx1112basic_stringIcSt11char_traitsIcESaIcEEERKT_RKT0_PKc = comdat any

$_ZN6google22MakeCheckOpValueStringIPvEEvPSoRKT_ = comdat any

$_ZN6google4base21CheckOpMessageBuilder7ForVar1Ev = comdat any

$_ZNK5folly5IOBuf9bufferEndEv = comdat any

$_ZNK5folly5IOBuf4tailEv = comdat any

$_ZN5folly6detail14ScopeGuardImplIZNS_10IOBufQueue11updateGuardEvEUlvE_Lb1EEC2EOS3_ = comdat any

$_ZN5folly6detail14ScopeGuardImplIZNS_10IOBufQueue11updateGuardEvEUlvE_Lb1EE12makeFailsafeESt17integral_constantIbLb1EEPKv = comdat any

$_ZN5folly6detail14ScopeGuardImplIZNS_10IOBufQueue11updateGuardEvEUlvE_Lb1EEC2IS3_EEOT_ONS0_18ScopeGuardImplBaseE = comdat any

$_ZN5folly6detail18ScopeGuardImplBase19makeEmptyScopeGuardEv = comdat any

$_ZN5folly6detail18ScopeGuardImplBaseC2Eb = comdat any

$_ZN5folly6detail18ScopeGuardImplBase7dismissEv = comdat any

$_ZN5folly6detail14ScopeGuardImplIZNS_10IOBufQueue11updateGuardEvEUlvE_Lb1EE7executeEv = comdat any

$_ZZN5folly10IOBufQueue11updateGuardEvENKUlvE_clEv = comdat any

$_ZN5folly10IOBufQueue23updateWritableTailCacheEv = comdat any

$_ZSteqIN5folly5IOBufESt14default_deleteIS1_EEbRKSt10unique_ptrIT_T0_EDn = comdat any

$_ZNK5folly5IOBuf11isSharedOneEv = comdat any

$_ZNSt4pairIPhS0_EC2IRS0_S0_TnNSt9enable_ifIXaaclsr5_PCCPE22_MoveConstructiblePairIT_T0_EEclsr5_PCCPE30_ImplicitlyMoveConvertiblePairIS5_S6_EEEbE4typeELb1EEEOS5_OS6_ = comdat any

$_ZNSt4pairIPhS0_EaSEOS1_ = comdat any

$_ZNSt4pairIPhS0_EC2IS0_S0_TnNSt9enable_ifIXsr6__and_ISt37__is_implicitly_default_constructibleIT_ES4_IT0_EEE5valueEbE4typeELb1EEEv = comdat any

$_ZNK5folly5IOBuf10sharedInfoEv = comdat any

$_ZN8proxygen13HTTPException8setErrnoEj = comdat any

$_ZN5folly8OptionalIN8proxygen9ErrorCodeEEaSIRS2_EERS3_OT_ = comdat any

$_ZN5folly8OptionalIN8proxygen9ErrorCodeEE6assignERKS2_ = comdat any

$_ZNK5folly8OptionalIN8proxygen9ErrorCodeEE8hasValueEv = comdat any

$_ZN5folly8OptionalIN8proxygen9ErrorCodeEE9constructIJRKS2_EEEvDpOT_ = comdat any

$_ZNK5folly8OptionalIN8proxygen9ErrorCodeEE9has_valueEv = comdat any

$_ZNKR5folly8OptionalIN8proxygen9ErrorCodeEEdeEv = comdat any

$_ZNKR5folly8OptionalIN8proxygen9ErrorCodeEE5valueEv = comdat any

$_ZNK5folly8OptionalIN8proxygen9ErrorCodeEE13require_valueEv = comdat any

$_ZNK8proxygen15HTTPTransaction16isUnidirectionalEv = comdat any

$_ZNK8proxygen15HTTPTransaction15isExTransactionEv = comdat any

$_ZNK5folly8OptionalIN8proxygen9HTTPCodec12ExAttributesEEptEv = comdat any

$_ZNKR5folly8OptionalIN8proxygen9HTTPCodec12ExAttributesEE5valueEv = comdat any

$_ZNSt15__uniq_ptr_dataIN8proxygen16DSRRequestSenderESt14default_deleteIS1_ELb1ELb1EEC2EOS4_ = comdat any

$_ZNSt15__uniq_ptr_implIN8proxygen16DSRRequestSenderESt14default_deleteIS1_EEC2EOS4_ = comdat any

$_ZNSt5tupleIJPN8proxygen16DSRRequestSenderESt14default_deleteIS1_EEEC2EOS5_ = comdat any

$_ZNSt15__uniq_ptr_implIN8proxygen16DSRRequestSenderESt14default_deleteIS1_EE6_M_ptrEv = comdat any

$_ZNSt11_Tuple_implILm0EJPN8proxygen16DSRRequestSenderESt14default_deleteIS1_EEEC2EOS5_ = comdat any

$_ZNSt11_Tuple_implILm1EJSt14default_deleteIN8proxygen16DSRRequestSenderEEEEC2EOS4_ = comdat any

$_ZSt3getILm0EJPN8proxygen16DSRRequestSenderESt14default_deleteIS1_EEERNSt13tuple_elementIXT_ESt5tupleIJDpT0_EEE4typeERS9_ = comdat any

$_ZSt12__get_helperILm0EPN8proxygen16DSRRequestSenderEJSt14default_deleteIS1_EEERT0_RSt11_Tuple_implIXT_EJS5_DpT1_EE = comdat any

$_ZNSt11_Tuple_implILm0EJPN8proxygen16DSRRequestSenderESt14default_deleteIS1_EEE7_M_headERS5_ = comdat any

$_ZNSt10_Head_baseILm0EPN8proxygen16DSRRequestSenderELb0EE7_M_headERS3_ = comdat any

$_ZN6google12Check_GEImplImmEEPNSt7__cxx1112basic_stringIcSt11char_traitsIcESaIcEEERKT_RKT0_PKc = comdat any

$_ZN8proxygen15HTTPTransaction10BufferMetaC2Em = comdat any

$_ZN6google17MakeCheckOpStringImmEEPNSt7__cxx1112basic_stringIcSt11char_traitsIcESaIcEEERKT_RKT0_PKc = comdat any

$_ZN6google22MakeCheckOpValueStringImEEvPSoRKT_ = comdat any

$_ZNSt6chronoltIlSt5ratioILl1ELl1EElS1_ILl1ELl1000EEEEbRKNS_8durationIT_T0_EERKNS4_IT1_T2_EE = comdat any

$_ZNSt6chrono8durationIlSt5ratioILl1ELl1000EEEC2IlS1_ILl1ELl1EEvEERKNS0_IT_T0_EE = comdat any

$_ZNSt6chrono13duration_castINS_8durationIlSt5ratioILl1ELl1000EEEElS2_ILl1ELl1EEEENSt9enable_ifIXsr13__is_durationIT_EE5valueES7_E4typeERKNS1_IT0_T1_EE = comdat any

$_ZNSt6chrono20__duration_cast_implINS_8durationIlSt5ratioILl1ELl1000EEEES2_ILl1000ELl1EElLb0ELb1EE6__castIlS2_ILl1ELl1EEEES4_RKNS1_IT_T0_EE = comdat any

$_ZNKSt6chrono8durationIlSt5ratioILl1ELl1EEE5countEv = comdat any

$_ZNK5folly8ExpectedImN8proxygen12WebTransport9ErrorCodeEE8hasValueEv = comdat any

$_ZN5folly10UnexpectedIN8proxygen12WebTransport9ErrorCodeEEC2EOS3_ = comdat any

$_ZN5folly15expected_detail15ExpectedStorageIN8proxygen12WebTransport16BidiStreamHandleENS3_9ErrorCodeELNS0_11StorageTypeE1EEC2IJS5_EEENS0_8ErrorTagEDpOT_ = comdat any

$_ZNSt5tupleIJRmEEC2ILb1ETnNSt9enable_ifIXclsr4_TCCIXT_EEE29__is_implicitly_constructibleIS0_EEEbE4typeELb1EEES0_ = comdat any

$_ZNSt11_Tuple_implILm0EJRmEEC2ES0_ = comdat any

$_ZNSt10_Head_baseILm0ERmLb0EEC2ES0_ = comdat any

$_ZNSt5tupleIJRN8proxygen15HTTPTransactionERmEEC2ILb1ETnNSt9enable_ifIXclsr4_TCCIXT_EEE29__is_implicitly_constructibleIS2_S3_EEEbE4typeELb1EEES2_S3_ = comdat any

$_ZNSt11_Tuple_implILm0EJRN8proxygen15HTTPTransactionERmEEC2ES2_S3_ = comdat any

$_ZNSt11_Tuple_implILm1EJRmEEC2ES0_ = comdat any

$_ZNSt10_Head_baseILm0ERN8proxygen15HTTPTransactionELb0EEC2ES2_ = comdat any

$_ZNSt10_Head_baseILm1ERmLb0EEC2ES0_ = comdat any

$_ZN5folly15expected_detail15ExpectedStorageIN8proxygen12WebTransport16BidiStreamHandleENS3_9ErrorCodeELNS0_11StorageTypeE1EEC2IJS4_EEENS0_8ValueTagEDpOT_ = comdat any

$_ZN5folly15expected_detail15ExpectedStorageIPN8proxygen12WebTransport17StreamWriteHandleENS3_9ErrorCodeELNS0_11StorageTypeE0EEC2IJS6_EEENS0_8ErrorTagEDpOT_ = comdat any

$_ZN5folly15expected_detail15ExpectedStorageIPN8proxygen12WebTransport17StreamWriteHandleENS3_9ErrorCodeELNS0_11StorageTypeE0EEC2IJPNS2_15HTTPTransaction20TxnStreamWriteHandleEEEENS0_8ValueTagEDpOT_ = comdat any

$_ZNSt15__uniq_ptr_dataISt5queueIN8proxygen9HTTPEventESt5dequeIS2_SaIS2_EEESt14default_deleteIS6_ELb1ELb1EEaSEOS9_ = comdat any

$_ZNSt15__uniq_ptr_implISt5queueIN8proxygen9HTTPEventESt5dequeIS2_SaIS2_EEESt14default_deleteIS6_EEaSEOS9_ = comdat any

$_ZNSt15__uniq_ptr_implISt5queueIN8proxygen9HTTPEventESt5dequeIS2_SaIS2_EEESt14default_deleteIS6_EE5resetEPS6_ = comdat any

$_ZNSt15__uniq_ptr_implISt5queueIN8proxygen9HTTPEventESt5dequeIS2_SaIS2_EEESt14default_deleteIS6_EE7releaseEv = comdat any

$_ZNSt15__uniq_ptr_implISt5queueIN8proxygen9HTTPEventESt5dequeIS2_SaIS2_EEESt14default_deleteIS6_EE10_M_deleterEv = comdat any

$_ZNSt15__uniq_ptr_implISt5queueIN8proxygen9HTTPEventESt5dequeIS2_SaIS2_EEESt14default_deleteIS6_EE6_M_ptrEv = comdat any

$_ZNKSt14default_deleteISt5queueIN8proxygen9HTTPEventESt5dequeIS2_SaIS2_EEEEclEPS6_ = comdat any

$_ZSt3getILm0EJPSt5queueIN8proxygen9HTTPEventESt5dequeIS2_SaIS2_EEESt14default_deleteIS6_EEERNSt13tuple_elementIXT_ESt5tupleIJDpT0_EEE4typeERSE_ = comdat any

$_ZSt12__get_helperILm0EPSt5queueIN8proxygen9HTTPEventESt5dequeIS2_SaIS2_EEEJSt14default_deleteIS6_EEERT0_RSt11_Tuple_implIXT_EJSA_DpT1_EE = comdat any

$_ZNSt11_Tuple_implILm0EJPSt5queueIN8proxygen9HTTPEventESt5dequeIS2_SaIS2_EEESt14default_deleteIS6_EEE7_M_headERSA_ = comdat any

$_ZNSt10_Head_baseILm0EPSt5queueIN8proxygen9HTTPEventESt5dequeIS2_SaIS2_EEELb0EE7_M_headERS8_ = comdat any

$_ZNSt5queueIN8proxygen9HTTPEventESt5dequeIS1_SaIS1_EEED2Ev = comdat any

$_ZNSt5dequeIN8proxygen9HTTPEventESaIS1_EED2Ev = comdat any

$_ZNSt5dequeIN8proxygen9HTTPEventESaIS1_EE15_M_destroy_dataESt15_Deque_iteratorIS1_RS1_PS1_ES7_RKS2_ = comdat any

$_ZNSt5dequeIN8proxygen9HTTPEventESaIS1_EE5beginEv = comdat any

$_ZNSt11_Deque_baseIN8proxygen9HTTPEventESaIS1_EE19_M_get_Tp_allocatorEv = comdat any

$_ZNSt11_Deque_baseIN8proxygen9HTTPEventESaIS1_EED2Ev = comdat any

$_ZNSt5dequeIN8proxygen9HTTPEventESaIS1_EE19_M_destroy_data_auxESt15_Deque_iteratorIS1_RS1_PS1_ES7_ = comdat any

$_ZSt8_DestroyIPN8proxygen9HTTPEventES1_EvT_S3_RSaIT0_E = comdat any

$_ZNSt5dequeIN8proxygen9HTTPEventESaIS1_EE14_S_buffer_sizeEv = comdat any

$_ZSt8_DestroyIPN8proxygen9HTTPEventEEvT_S3_ = comdat any

$_ZNSt12_Destroy_auxILb0EE9__destroyIPN8proxygen9HTTPEventEEEvT_S5_ = comdat any

$_ZSt8_DestroyIN8proxygen9HTTPEventEEvPT_ = comdat any

$_ZN8proxygen9HTTPEventD2Ev = comdat any

$_ZNSt11_Deque_baseIN8proxygen9HTTPEventESaIS1_EE16_M_destroy_nodesEPPS1_S5_ = comdat any

$_ZNSt11_Deque_baseIN8proxygen9HTTPEventESaIS1_EE11_Deque_implD2Ev = comdat any

$_ZNSaIN8proxygen9HTTPEventEED2Ev = comdat any

$_ZNSt15__new_allocatorIN8proxygen9HTTPEventEED2Ev = comdat any

$_ZSt3getILm1EJPSt5queueIN8proxygen9HTTPEventESt5dequeIS2_SaIS2_EEESt14default_deleteIS6_EEERNSt13tuple_elementIXT_ESt5tupleIJDpT0_EEE4typeERSE_ = comdat any

$_ZSt12__get_helperILm1ESt14default_deleteISt5queueIN8proxygen9HTTPEventESt5dequeIS3_SaIS3_EEEEJEERT0_RSt11_Tuple_implIXT_EJS9_DpT1_EE = comdat any

$_ZNSt11_Tuple_implILm1EJSt14default_deleteISt5queueIN8proxygen9HTTPEventESt5dequeIS3_SaIS3_EEEEEE7_M_headERS9_ = comdat any

$_ZNSt10_Head_baseILm1ESt14default_deleteISt5queueIN8proxygen9HTTPEventESt5dequeIS3_SaIS3_EEEELb1EE7_M_headERS9_ = comdat any

$_ZN5folly8OptionalImEC2ERKm = comdat any

$_ZN5folly8OptionalImE9constructIJRKmEEEvDpOT_ = comdat any

$_ZNSt6chrono20__duration_cast_implINS_8durationIlSt5ratioILl1ELl1000EEEES2_ILl1ELl1EElLb1ELb1EE6__castIlS3_EES4_RKNS1_IT_T0_EE = comdat any

$_ZN8proxygen12HTTPPriorityD0Ev = comdat any

$_ZNK5folly8OptionalINS_7PromiseINS_4UnitEEEE9has_valueEv = comdat any

$_ZNK5folly8OptionalIjE9has_valueEv = comdat any

$_ZNR5folly8OptionalIjE5valueEv = comdat any

$_ZNK5folly8OptionalIjE13require_valueEv = comdat any

$_ZN5folly15expected_detail15ExpectedStorageINS_10SemiFutureINS_4UnitEEEN8proxygen12WebTransport9ErrorCodeELNS0_11StorageTypeE2EECI2NS0_13ExpectedUnionIS4_S7_EEIJS4_EEENS0_8ValueTagEDpOT_ = comdat any

$_ZN5folly15expected_detail13ExpectedUnionINS_10SemiFutureINS_4UnitEEEN8proxygen12WebTransport9ErrorCodeEEC2IJS4_EEENS0_8ValueTagEDpOT_ = comdat any

$_ZN5folly10SemiFutureINS_4UnitEEC2EOS2_ = comdat any

$_ZN5folly7futures6detail10FutureBaseINS_4UnitEEC2EONS_10SemiFutureIS3_EE = comdat any

$_ZNSt15__exception_ptr13exception_ptrD2Ev = comdat any

$_ZN5folly10UnexpectedIN8proxygen12WebTransport9ErrorCodeEEC2ERKS3_ = comdat any

$_ZN5folly15expected_detail15ExpectedStorageINS_10SemiFutureINS_4UnitEEEN8proxygen12WebTransport9ErrorCodeELNS0_11StorageTypeE2EECI2NS0_13ExpectedUnionIS4_S7_EEIJS7_EEENS0_8ErrorTagEDpOT_ = comdat any

$_ZN5folly15expected_detail13ExpectedUnionINS_10SemiFutureINS_4UnitEEEN8proxygen12WebTransport9ErrorCodeEEC2IJS7_EEENS0_8ErrorTagEDpOT_ = comdat any

$_ZN5folly7PromiseINS_4UnitEED2Ev = comdat any

$_ZN5folly7PromiseINS_4UnitEE6detachEv = comdat any

$_ZN5folly7futures6detail32coreDetachPromiseMaybeWithResultINS_4UnitEEEvRNS1_4CoreIT_EE = comdat any

$_ZN5folly7futures6detail4CoreINS_4UnitEE9setResultEONS_3TryIS3_EE = comdat any

$_ZN5folly13BrokenPromiseC2INS_4UnitEEENS_5tag_tIJT_EEE = comdat any

$_ZN5folly17exception_wrapperC2INS_13BrokenPromiseES2_TnNSt9enable_ifIXscbsr11ConjunctionISt10is_base_ofISt9exceptionNSt5decayIT0_E4typeEENS0_22IsRegularExceptionTypeIS7_EEEE5valueElE4typeELl203EEEOT_ = comdat any

$_ZN5folly3TryINS_4UnitEECI2NS_6detail7TryBaseIS1_EEENS_17exception_wrapperE = comdat any

$_ZN5folly13BrokenPromiseD2Ev = comdat any

$_ZN5folly7futures6detail8CoreBase13detachPromiseEv = comdat any

$_ZN5folly7futures6detail4CoreINS_4UnitEE9setResultEONS_8Executor9KeepAliveIS5_EEONS_3TryIS3_EE = comdat any

$_ZN5folly8Executor9KeepAliveIS0_EC2Ev = comdat any

$_ZN5folly8Executor9KeepAliveIS0_ED2Ev = comdat any

$_ZN5folly8Executor9KeepAliveIS0_E5resetEv = comdat any

$_ZNK5folly8Executor9KeepAliveIS0_E3getEv = comdat any

$_ZSt8exchangeImiET_RS0_OT0_ = comdat any

$_ZSt10__exchangeImiET_RS0_OT0_ = comdat any

$_ZN5folly13BrokenPromise13error_messageINS_4UnitEEEPKcv = comdat any

$_ZN5folly16PromiseExceptionCI2NS_21static_what_exceptionISt11logic_errorEEENS1_IS2_E15static_lifetimeEPKc = comdat any

$_ZN5folly13BrokenPromiseD0Ev = comdat any

$_ZN5folly16PromiseExceptionD2Ev = comdat any

$_ZN5folly16PromiseExceptionD0Ev = comdat any

$_ZN5folly24exception_wrapper_detail10dont_sliceINS_13BrokenPromiseEEEOT_S4_ = comdat any

$_ZN5folly17exception_wrapperC2INS_13BrokenPromiseEJS2_EEENS0_11PrivateCtorESt15in_place_type_tIT_EDpOT0_ = comdat any

$_ZSt18make_exception_ptrIN5folly13BrokenPromiseEENSt15__exception_ptr13exception_ptrET_ = comdat any

$_ZN5folly13BrokenPromiseC2EOS0_ = comdat any

$_ZNSt15__exception_ptr12__dest_thunkIN5folly13BrokenPromiseEEEvPv = comdat any

$_ZN5folly13BrokenPromiseC2ERKS0_ = comdat any

$_ZN5folly16PromiseExceptionC2ERKS0_ = comdat any

$_ZN5folly21static_what_exceptionISt11logic_errorEC2ERKS2_ = comdat any

$_ZN5folly16PromiseExceptionC2EOS0_ = comdat any

$_ZN5folly6detail7TryBaseINS_4UnitEEC2ENS_17exception_wrapperE = comdat any

$_ZStneIN5folly6detail17CancellationStateENS1_30CancellationStateSourceDeleterEEbRKSt10unique_ptrIT_T0_EDn = comdat any

$_ZNKSt10unique_ptrIN5folly6detail17CancellationStateENS1_30CancellationStateSourceDeleterEEptEv = comdat any

$_ZN5folly6detail17CancellationState17addTokenReferenceEv = comdat any

$_ZN5folly17CancellationTokenC2ESt10unique_ptrINS_6detail17CancellationStateENS2_29CancellationStateTokenDeleterEE = comdat any

$_ZNSt10unique_ptrIN5folly6detail17CancellationStateENS1_29CancellationStateTokenDeleterEED2Ev = comdat any

$_ZN5folly17CancellationTokenC2Ev = comdat any

$_ZNKSt10unique_ptrIN5folly6detail17CancellationStateENS1_30CancellationStateSourceDeleterEEcvbEv = comdat any

$_ZNKSt10unique_ptrIN5folly6detail17CancellationStateENS1_30CancellationStateSourceDeleterEE3getEv = comdat any

$_ZNKSt15__uniq_ptr_implIN5folly6detail17CancellationStateENS1_30CancellationStateSourceDeleterEE6_M_ptrEv = comdat any

$_ZSt3getILm0EJPN5folly6detail17CancellationStateENS1_30CancellationStateSourceDeleterEEERKNSt13tuple_elementIXT_ESt5tupleIJDpT0_EEE4typeERKS9_ = comdat any

$_ZSt12__get_helperILm0EPN5folly6detail17CancellationStateEJNS1_30CancellationStateSourceDeleterEEERKT0_RKSt11_Tuple_implIXT_EJS5_DpT1_EE = comdat any

$_ZNSt11_Tuple_implILm0EJPN5folly6detail17CancellationStateENS1_30CancellationStateSourceDeleterEEE7_M_headERKS5_ = comdat any

$_ZNSt10_Head_baseILm0EPN5folly6detail17CancellationStateELb0EE7_M_headERKS4_ = comdat any

$_ZNSt10unique_ptrIN5folly6detail17CancellationStateENS1_29CancellationStateTokenDeleterEEC2IS3_vEEPS2_ = comdat any

$_ZNSt15__uniq_ptr_dataIN5folly6detail17CancellationStateENS1_29CancellationStateTokenDeleterELb1ELb1EECI2St15__uniq_ptr_implIS2_S3_EEPS2_ = comdat any

$_ZNSt15__uniq_ptr_implIN5folly6detail17CancellationStateENS1_29CancellationStateTokenDeleterEEC2EPS2_ = comdat any

$_ZNSt5tupleIJPN5folly6detail17CancellationStateENS1_29CancellationStateTokenDeleterEEEC2ILb1ETnNSt9enable_ifIXclsr17_TupleConstraintsIXT_ES3_S4_EE37__is_implicitly_default_constructibleEEbE4typeELb1EEEv = comdat any

$_ZNSt15__uniq_ptr_implIN5folly6detail17CancellationStateENS1_29CancellationStateTokenDeleterEE6_M_ptrEv = comdat any

$_ZNSt11_Tuple_implILm0EJPN5folly6detail17CancellationStateENS1_29CancellationStateTokenDeleterEEEC2Ev = comdat any

$_ZNSt11_Tuple_implILm1EJN5folly6detail29CancellationStateTokenDeleterEEEC2Ev = comdat any

$_ZNSt10_Head_baseILm0EPN5folly6detail17CancellationStateELb0EEC2Ev = comdat any

$_ZNSt10_Head_baseILm1EN5folly6detail29CancellationStateTokenDeleterELb1EEC2Ev = comdat any

$_ZSt3getILm0EJPN5folly6detail17CancellationStateENS1_29CancellationStateTokenDeleterEEERNSt13tuple_elementIXT_ESt5tupleIJDpT0_EEE4typeERS9_ = comdat any

$_ZSt12__get_helperILm0EPN5folly6detail17CancellationStateEJNS1_29CancellationStateTokenDeleterEEERT0_RSt11_Tuple_implIXT_EJS5_DpT1_EE = comdat any

$_ZNSt11_Tuple_implILm0EJPN5folly6detail17CancellationStateENS1_29CancellationStateTokenDeleterEEE7_M_headERS5_ = comdat any

$_ZNSt10_Head_baseILm0EPN5folly6detail17CancellationStateELb0EE7_M_headERS4_ = comdat any

$_ZNSt10unique_ptrIN5folly6detail17CancellationStateENS1_29CancellationStateTokenDeleterEEC2EOS4_ = comdat any

$_ZNSt15__uniq_ptr_dataIN5folly6detail17CancellationStateENS1_29CancellationStateTokenDeleterELb1ELb1EEC2EOS4_ = comdat any

$_ZNSt15__uniq_ptr_implIN5folly6detail17CancellationStateENS1_29CancellationStateTokenDeleterEEC2EOS4_ = comdat any

$_ZNSt5tupleIJPN5folly6detail17CancellationStateENS1_29CancellationStateTokenDeleterEEEC2EOS5_ = comdat any

$_ZNSt11_Tuple_implILm0EJPN5folly6detail17CancellationStateENS1_29CancellationStateTokenDeleterEEEC2EOS5_ = comdat any

$_ZNSt11_Tuple_implILm1EJN5folly6detail29CancellationStateTokenDeleterEEEC2EOS3_ = comdat any

$_ZNSt10unique_ptrIN5folly6detail17CancellationStateENS1_29CancellationStateTokenDeleterEE11get_deleterEv = comdat any

$_ZN5folly6detail29CancellationStateTokenDeleterclEPNS0_17CancellationStateE = comdat any

$_ZNSt15__uniq_ptr_implIN5folly6detail17CancellationStateENS1_29CancellationStateTokenDeleterEE10_M_deleterEv = comdat any

$_ZSt3getILm1EJPN5folly6detail17CancellationStateENS1_29CancellationStateTokenDeleterEEERNSt13tuple_elementIXT_ESt5tupleIJDpT0_EEE4typeERS9_ = comdat any

$_ZSt12__get_helperILm1EN5folly6detail29CancellationStateTokenDeleterEJEERT0_RSt11_Tuple_implIXT_EJS3_DpT1_EE = comdat any

$_ZNSt11_Tuple_implILm1EJN5folly6detail29CancellationStateTokenDeleterEEE7_M_headERS3_ = comdat any

$_ZNSt10_Head_baseILm1EN5folly6detail29CancellationStateTokenDeleterELb1EE7_M_headERS3_ = comdat any

$_ZN5folly6detail17CancellationState20removeTokenReferenceEv = comdat any

$_ZNSt10unique_ptrIN5folly6detail17CancellationStateENS1_29CancellationStateTokenDeleterEEC2IS3_vEEv = comdat any

$_ZNSt15__uniq_ptr_dataIN5folly6detail17CancellationStateENS1_29CancellationStateTokenDeleterELb1ELb1EEC2Ev = comdat any

$_ZNSt15__uniq_ptr_implIN5folly6detail17CancellationStateENS1_29CancellationStateTokenDeleterEEC2Ev = comdat any

$_ZNR5folly8OptionalINS_7PromiseINS_4UnitEEEE5valueEv = comdat any

$_ZNK5folly8OptionalINS_7PromiseINS_4UnitEEEE13require_valueEv = comdat any

$_ZN5folly2toINSt7__cxx1112basic_stringIcSt11char_traitsIcESaIcEEEJA43_cjEEENSt9enable_ifIXaasr12IsSomeStringIT_EE5valueoonesZT0_Li1Entsr3std7is_sameIS9_19__type_pack_elementIXmisPvDpT0_ELi1EEJvSC_EEEE5valueES9_E4typeEDpRKSB_ = comdat any

$_ZN8proxygen12WebTransport9ExceptionD0Ev = comdat any

$_ZN5folly11toAppendFitIJA43_cjPNSt7__cxx1112basic_stringIcSt11char_traitsIcESaIcEEEEEENSt9enable_ifIXsr12IsSomeStringINSt14remove_pointerI19__type_pack_elementIXmisPDpT_ELi1EEJSD_EEE4typeEEE5valueEvE4typeEDpRKSC_ = comdat any

$_ZN5folly6detail15reserveInTargetIA43_cjJPNSt7__cxx1112basic_stringIcSt11char_traitsIcESaIcEEEEEEvRKT_RKT0_DpRKT1_ = comdat any

$_ZN5folly8toAppendIJA43_cjPNSt7__cxx1112basic_stringIcSt11char_traitsIcESaIcEEEEEENSt9enable_ifIXaagesZT_Li3Esr12IsSomeStringINSt14remove_pointerI19__type_pack_elementIXmisPDpT_ELi1EEJSD_EEE4typeEEE5valueEvE4typeEDpRKSC_ = comdat any

$_ZN5folly6detail14getLastElementIJPNSt7__cxx1112basic_stringIcSt11char_traitsIcESaIcEEEEEERK19__type_pack_elementIXmisPDpT_ELi1EEJSB_EEDpRKSA_ = comdat any

$_ZN5folly6detail25EstimateSpaceToReserveAllISt16integer_sequenceImJLm0ELm1ELm2EEEE4callIJA43_cjPNSt7__cxx1112basic_stringIcSt11char_traitsIcESaIcEEEEEEmDpRKT_ = comdat any

$_ZN5folly6detail15LastElementImplIJNS_6IgnoreEEE4callIPNSt7__cxx1112basic_stringIcSt11char_traitsIcESaIcEEEEERKT_SE_ = comdat any

$_ZN5folly19estimateSpaceNeededILm43EEEmRAT__Kc = comdat any

$_ZN5folly19estimateSpaceNeededIjEENSt9enable_ifIXaaaaaa13is_integral_vIT_Ent11is_signed_vIS2_EgestS2_Li4EltstS2_Li16EEmE4typeES2_ = comdat any

$_ZN5folly21to_ascii_size_decimalEm = comdat any

$_ZN5folly13to_ascii_sizeILm10EEEmm = comdat any

$_ZN5folly6detail18ToAppendStrImplAllISt16integer_sequenceImJLm0ELm1ELm2EEEE4callIJA43_cjPNSt7__cxx1112basic_stringIcSt11char_traitsIcESaIcEEEEEEvDpRKT_ = comdat any

$_ZN5folly6detail14getLastElementIJA43_cjPNSt7__cxx1112basic_stringIcSt11char_traitsIcESaIcEEEEEERK19__type_pack_elementIXmisPDpT_ELi1EEJSC_EEDpRKSB_ = comdat any

$_ZN5folly6detail15LastElementImplIJNS_6IgnoreES2_S2_EE4callIPNSt7__cxx1112basic_stringIcSt11char_traitsIcESaIcEEEEERKT_S2_S2_SE_ = comdat any

$_ZN5folly6IgnoreC2IA43_cEERKT_ = comdat any

$_ZN5folly6IgnoreC2IjEERKT_ = comdat any

$_ZN5folly8toAppendINSt7__cxx1112basic_stringIcSt11char_traitsIcESaIcEEEPKcEENSt9enable_ifIXaasr3std14is_convertibleIT0_S8_EE5valuesr12IsSomeStringIT_EE5valueEvE4typeESA_PSB_ = comdat any

$_ZN5folly8toAppendINSt7__cxx1112basic_stringIcSt11char_traitsIcESaIcEEEjEENSt9enable_ifIXaaaaaa13is_integral_vIT0_Ent11is_signed_vIS8_Esr12IsSomeStringIT_EE5valuegestS8_Li4EEvE4typeES8_PS9_ = comdat any

$_ZN5folly16to_ascii_decimalILm20EEEmRAT__cm = comdat any

$_ZN5folly14to_ascii_lowerILm10ELm20EEEmRAT0__cm = comdat any

$_ZN5folly13to_ascii_withILm10ENS_17to_ascii_alphabetILb0EEELm20EEEmRAT1__cm = comdat any

$_ZNK5folly8OptionalINS_7PromiseIN8proxygen12WebTransport10StreamDataEEEE9has_valueEv = comdat any

$_ZNR5folly8OptionalINS_7PromiseIN8proxygen12WebTransport10StreamDataEEEE5valueEv = comdat any

$_ZNK5folly8OptionalINS_7PromiseIN8proxygen12WebTransport10StreamDataEEEE13require_valueEv = comdat any

$_ZN5folly17exception_wrapper8extract_EONSt15__exception_ptr13exception_ptrE = comdat any

$_ZNSt15__exception_ptr13exception_ptrC2Ev = comdat any

$_ZN5folly7PromiseIN8proxygen12WebTransport10StreamDataEED2Ev = comdat any

$_ZN5folly7PromiseIN8proxygen12WebTransport10StreamDataEE6detachEv = comdat any

$_ZN5folly7futures6detail32coreDetachPromiseMaybeWithResultIN8proxygen12WebTransport10StreamDataEEEvRNS1_4CoreIT_EE = comdat any

$_ZN5folly7futures6detail4CoreIN8proxygen12WebTransport10StreamDataEE9setResultEONS_3TryIS5_EE = comdat any

$_ZN5folly13BrokenPromiseC2IN8proxygen12WebTransport10StreamDataEEENS_5tag_tIJT_EEE = comdat any

$_ZN5folly3TryIN8proxygen12WebTransport10StreamDataEECI2NS_6detail7TryBaseIS3_EEENS_17exception_wrapperE = comdat any

$_ZN5folly3TryIN8proxygen12WebTransport10StreamDataEED2Ev = comdat any

$_ZN5folly7futures6detail4CoreIN8proxygen12WebTransport10StreamDataEE9setResultEONS_8Executor9KeepAliveIS7_EEONS_3TryIS5_EE = comdat any

$_ZN5folly3TryIN8proxygen12WebTransport10StreamDataEEC2EOS4_ = comdat any

$_ZN5folly6detail7TryBaseIN8proxygen12WebTransport10StreamDataEEC2EOS5_ = comdat any

$_ZN8proxygen12WebTransport10StreamDataC2EOS1_ = comdat any

$_ZN5folly13BrokenPromise13error_messageIN8proxygen12WebTransport10StreamDataEEEPKcv = comdat any

$_ZN5folly6detail7TryBaseIN8proxygen12WebTransport10StreamDataEEC2ENS_17exception_wrapperE = comdat any

$_ZN5folly6detail7TryBaseIN8proxygen12WebTransport10StreamDataEED2Ev = comdat any

$_ZN5folly18CancellationSourceD2Ev = comdat any

$_ZN5folly8OptionalINS_7PromiseINS_4UnitEEEED2Ev = comdat any

$_ZNSt10unique_ptrIN5folly6detail17CancellationStateENS1_30CancellationStateSourceDeleterEED2Ev = comdat any

$_ZNSt15__uniq_ptr_implIN5folly6detail17CancellationStateENS1_30CancellationStateSourceDeleterEE6_M_ptrEv = comdat any

$_ZNSt10unique_ptrIN5folly6detail17CancellationStateENS1_30CancellationStateSourceDeleterEE11get_deleterEv = comdat any

$_ZN5folly6detail30CancellationStateSourceDeleterclEPNS0_17CancellationStateE = comdat any

$_ZSt3getILm0EJPN5folly6detail17CancellationStateENS1_30CancellationStateSourceDeleterEEERNSt13tuple_elementIXT_ESt5tupleIJDpT0_EEE4typeERS9_ = comdat any

$_ZSt12__get_helperILm0EPN5folly6detail17CancellationStateEJNS1_30CancellationStateSourceDeleterEEERT0_RSt11_Tuple_implIXT_EJS5_DpT1_EE = comdat any

$_ZNSt11_Tuple_implILm0EJPN5folly6detail17CancellationStateENS1_30CancellationStateSourceDeleterEEE7_M_headERS5_ = comdat any

$_ZNSt15__uniq_ptr_implIN5folly6detail17CancellationStateENS1_30CancellationStateSourceDeleterEE10_M_deleterEv = comdat any

$_ZSt3getILm1EJPN5folly6detail17CancellationStateENS1_30CancellationStateSourceDeleterEEERNSt13tuple_elementIXT_ESt5tupleIJDpT0_EEE4typeERS9_ = comdat any

$_ZSt12__get_helperILm1EN5folly6detail30CancellationStateSourceDeleterEJEERT0_RSt11_Tuple_implIXT_EJS3_DpT1_EE = comdat any

$_ZNSt11_Tuple_implILm1EJN5folly6detail30CancellationStateSourceDeleterEEE7_M_headERS3_ = comdat any

$_ZNSt10_Head_baseILm1EN5folly6detail30CancellationStateSourceDeleterELb1EE7_M_headERS3_ = comdat any

$_ZN5folly6detail17CancellationState21removeSourceReferenceEv = comdat any

$_ZN5folly8OptionalINS_7PromiseINS_4UnitEEEE31StorageNonTriviallyDestructibleD2Ev = comdat any

$_ZN5folly8OptionalINS_7PromiseINS_4UnitEEEE31StorageNonTriviallyDestructible5clearEv = comdat any

$_ZN5folly8OptionalINS_7PromiseIN8proxygen12WebTransport10StreamDataEEEED2Ev = comdat any

$_ZN5folly8OptionalINS_7PromiseIN8proxygen12WebTransport10StreamDataEEEE31StorageNonTriviallyDestructibleD2Ev = comdat any

$_ZN5folly8OptionalINS_7PromiseIN8proxygen12WebTransport10StreamDataEEEE31StorageNonTriviallyDestructible5clearEv = comdat any

$_ZN8proxygen12StateMachineINS_27HTTPTransactionEgressSMDataEE10canTransitENS1_5StateENS1_5EventE = comdat any

$_ZSt3tieIJKSt15_Swallow_assignbEESt5tupleIJDpRT_EES5_ = comdat any

$_ZNSt5tupleIJRKSt15_Swallow_assignRbEEaSIN8proxygen27HTTPTransactionEgressSMData5StateEbEENSt9enable_ifIXcl12__assignableIT_T0_EEERS4_E4typeEOSt4pairISA_SB_E = comdat any

$_ZNSt5tupleIJRKSt15_Swallow_assignRbEEC2ILb1ETnNSt9enable_ifIXclsr4_TCCIXT_EEE29__is_implicitly_constructibleIS2_S3_EEEbE4typeELb1EEES2_S3_ = comdat any

$_ZNSt11_Tuple_implILm0EJRKSt15_Swallow_assignRbEEC2ES2_S3_ = comdat any

$_ZNSt11_Tuple_implILm1EJRbEEC2ES0_ = comdat any

$_ZNSt10_Head_baseILm0ERKSt15_Swallow_assignLb0EEC2ES2_ = comdat any

$_ZNSt10_Head_baseILm1ERbLb0EEC2ES0_ = comdat any

$_ZNSt11_Tuple_implILm0EJRKSt15_Swallow_assignRbEE7_M_headERS4_ = comdat any

$_ZNKSt15_Swallow_assignaSIN8proxygen27HTTPTransactionEgressSMData5StateEEERKS_RKT_ = comdat any

$_ZNSt11_Tuple_implILm0EJRKSt15_Swallow_assignRbEE7_M_tailERS4_ = comdat any

$_ZNSt11_Tuple_implILm1EJRbEE7_M_headERS1_ = comdat any

$_ZNSt10_Head_baseILm0ERKSt15_Swallow_assignLb0EE7_M_headERS3_ = comdat any

$_ZNSt10_Head_baseILm1ERbLb0EE7_M_headERS1_ = comdat any

$_ZNSt7__cxx114listIN8proxygen15HTTPTransaction5ChunkESaIS3_EE12emplace_backIJRmEEERS3_DpOT_ = comdat any

$_ZNSt7__cxx114listIN8proxygen15HTTPTransaction5ChunkESaIS3_EE9_M_insertIJRmEEEvSt14_List_iteratorIS3_EDpOT_ = comdat any

$_ZNSt7__cxx114listIN8proxygen15HTTPTransaction5ChunkESaIS3_EE3endEv = comdat any

$_ZNSt7__cxx114listIN8proxygen15HTTPTransaction5ChunkESaIS3_EE14_M_create_nodeIJRmEEEPSt10_List_nodeIS3_EDpOT_ = comdat any

$_ZNSt7__cxx1110_List_baseIN8proxygen15HTTPTransaction5ChunkESaIS3_EE11_M_inc_sizeEm = comdat any

$_ZNSt7__cxx1110_List_baseIN8proxygen15HTTPTransaction5ChunkESaIS3_EE11_M_get_nodeEv = comdat any

$_ZNSt15__allocated_ptrISaISt10_List_nodeIN8proxygen15HTTPTransaction5ChunkEEEEC2ERS5_PS4_ = comdat any

$_ZNSt16allocator_traitsISaISt10_List_nodeIN8proxygen15HTTPTransaction5ChunkEEEE9constructIS3_JRmEEEvRS5_PT_DpOT0_ = comdat any

$_ZNSt15__allocated_ptrISaISt10_List_nodeIN8proxygen15HTTPTransaction5ChunkEEEEaSEDn = comdat any

$_ZNSt15__allocated_ptrISaISt10_List_nodeIN8proxygen15HTTPTransaction5ChunkEEEED2Ev = comdat any

$_ZNSt16allocator_traitsISaISt10_List_nodeIN8proxygen15HTTPTransaction5ChunkEEEE8allocateERS5_m = comdat any

$_ZNSt15__new_allocatorISt10_List_nodeIN8proxygen15HTTPTransaction5ChunkEEE8allocateEmPKv = comdat any

$_ZNKSt15__new_allocatorISt10_List_nodeIN8proxygen15HTTPTransaction5ChunkEEE11_M_max_sizeEv = comdat any

$_ZNSt15__new_allocatorISt10_List_nodeIN8proxygen15HTTPTransaction5ChunkEEE9constructIS3_JRmEEEvPT_DpOT0_ = comdat any

$_ZN8proxygen15HTTPTransaction5ChunkC2Em = comdat any

$_ZNSt14_List_iteratorIN8proxygen15HTTPTransaction5ChunkEEC2EPNSt8__detail15_List_node_baseE = comdat any

$_ZNSt11char_traitsIcE6lengthEPKc = comdat any

$_ZNSt7__cxx1112basic_stringIcSt11char_traitsIcESaIcEE12_M_constructIPKcEEvT_S8_St20forward_iterator_tag = comdat any

$_ZNSt7__cxx1112basic_stringIcSt11char_traitsIcESaIcEE12_Alloc_hiderD2Ev = comdat any

$_ZSt8distanceIPKcENSt15iterator_traitsIT_E15difference_typeES3_S3_ = comdat any

$_ZZNSt7__cxx1112basic_stringIcSt11char_traitsIcESaIcEE12_M_constructIPKcEEvT_S8_St20forward_iterator_tagEN6_GuardC2EPS4_ = comdat any

$_ZZNSt7__cxx1112basic_stringIcSt11char_traitsIcESaIcEE12_M_constructIPKcEEvT_S8_St20forward_iterator_tagEN6_GuardD2Ev = comdat any

$_ZSt10__distanceIPKcENSt15iterator_traitsIT_E15difference_typeES3_S3_St26random_access_iterator_tag = comdat any

$_ZSt19__iterator_categoryIPKcENSt15iterator_traitsIT_E17iterator_categoryERKS3_ = comdat any

$_ZNSt10unique_ptrIN5folly5IOBufESt14default_deleteIS1_EE11get_deleterEv = comdat any

$_ZNKSt14default_deleteIN5folly5IOBufEEclEPS1_ = comdat any

$_ZNSt15__uniq_ptr_implIN5folly5IOBufESt14default_deleteIS1_EE10_M_deleterEv = comdat any

$_ZSt3getILm1EJPN5folly5IOBufESt14default_deleteIS1_EEERNSt13tuple_elementIXT_ESt5tupleIJDpT0_EEE4typeERS9_ = comdat any

$_ZSt12__get_helperILm1ESt14default_deleteIN5folly5IOBufEEJEERT0_RSt11_Tuple_implIXT_EJS4_DpT1_EE = comdat any

$_ZNSt11_Tuple_implILm1EJSt14default_deleteIN5folly5IOBufEEEE7_M_headERS4_ = comdat any

$_ZNSt10_Head_baseILm1ESt14default_deleteIN5folly5IOBufEELb1EE7_M_headERS4_ = comdat any

$_ZNKSt10unique_ptrIN5folly5IOBufESt14default_deleteIS1_EE3getEv = comdat any

$_ZNKSt15__uniq_ptr_implIN5folly5IOBufESt14default_deleteIS1_EE6_M_ptrEv = comdat any

$_ZSt3getILm0EJPN5folly5IOBufESt14default_deleteIS1_EEERKNSt13tuple_elementIXT_ESt5tupleIJDpT0_EEE4typeERKS9_ = comdat any

$_ZSt12__get_helperILm0EPN5folly5IOBufEJSt14default_deleteIS1_EEERKT0_RKSt11_Tuple_implIXT_EJS5_DpT1_EE = comdat any

$_ZNSt11_Tuple_implILm0EJPN5folly5IOBufESt14default_deleteIS1_EEE7_M_headERKS5_ = comdat any

$_ZNSt10_Head_baseILm0EPN5folly5IOBufELb0EE7_M_headERKS3_ = comdat any

$_ZNKSt15__uniq_ptr_implIN8proxygen11HTTPHeadersESt14default_deleteIS1_EE6_M_ptrEv = comdat any

$_ZSt3getILm0EJPN8proxygen11HTTPHeadersESt14default_deleteIS1_EEERKNSt13tuple_elementIXT_ESt5tupleIJDpT0_EEE4typeERKS9_ = comdat any

$_ZSt12__get_helperILm0EPN8proxygen11HTTPHeadersEJSt14default_deleteIS1_EEERKT0_RKSt11_Tuple_implIXT_EJS5_DpT1_EE = comdat any

$_ZNSt11_Tuple_implILm0EJPN8proxygen11HTTPHeadersESt14default_deleteIS1_EEE7_M_headERKS5_ = comdat any

$_ZNSt10_Head_baseILm0EPN8proxygen11HTTPHeadersELb0EE7_M_headERKS3_ = comdat any

$_ZNSt10unique_ptrIN8proxygen11HTTPMessageESt14default_deleteIS1_EE11get_deleterEv = comdat any

$_ZNKSt14default_deleteIN8proxygen11HTTPMessageEEclEPS1_ = comdat any

$_ZNSt15__uniq_ptr_implIN8proxygen11HTTPMessageESt14default_deleteIS1_EE10_M_deleterEv = comdat any

$_ZSt3getILm1EJPN8proxygen11HTTPMessageESt14default_deleteIS1_EEERNSt13tuple_elementIXT_ESt5tupleIJDpT0_EEE4typeERS9_ = comdat any

$_ZSt12__get_helperILm1ESt14default_deleteIN8proxygen11HTTPMessageEEJEERT0_RSt11_Tuple_implIXT_EJS4_DpT1_EE = comdat any

$_ZNSt11_Tuple_implILm1EJSt14default_deleteIN8proxygen11HTTPMessageEEEE7_M_headERS4_ = comdat any

$_ZNSt10_Head_baseILm1ESt14default_deleteIN8proxygen11HTTPMessageEELb1EE7_M_headERS4_ = comdat any

$_ZNSt10unique_ptrIN8proxygen11HTTPHeadersESt14default_deleteIS1_EE11get_deleterEv = comdat any

$_ZNKSt14default_deleteIN8proxygen11HTTPHeadersEEclEPS1_ = comdat any

$_ZNSt15__uniq_ptr_implIN8proxygen11HTTPHeadersESt14default_deleteIS1_EE10_M_deleterEv = comdat any

$_ZSt3getILm1EJPN8proxygen11HTTPHeadersESt14default_deleteIS1_EEERNSt13tuple_elementIXT_ESt5tupleIJDpT0_EEE4typeERS9_ = comdat any

$_ZSt12__get_helperILm1ESt14default_deleteIN8proxygen11HTTPHeadersEEJEERT0_RSt11_Tuple_implIXT_EJS4_DpT1_EE = comdat any

$_ZNSt11_Tuple_implILm1EJSt14default_deleteIN8proxygen11HTTPHeadersEEEE7_M_headERS4_ = comdat any

$_ZNSt10_Head_baseILm1ESt14default_deleteIN8proxygen11HTTPHeadersEELb1EE7_M_headERS4_ = comdat any

$_ZN5folly10SemiFutureINS_4UnitEE23releaseDeferredExecutorEPNS_7futures6detail4CoreIS1_EE = comdat any

$_ZN6google17MakeCheckOpStringImiEEPNSt7__cxx1112basic_stringIcSt11char_traitsIcESaIcEEERKT_RKT0_PKc = comdat any

$_ZN6google22MakeCheckOpValueStringIiEEvPSoRKT_ = comdat any

$_ZNSt15__uniq_ptr_implIN8proxygen11HTTPHeadersESt14default_deleteIS1_EE5resetEPS1_ = comdat any

$_ZNSt8_Rb_treeImmSt9_IdentityImESt4lessImESaImEE16_M_insert_uniqueImEESt4pairISt17_Rb_tree_iteratorImEbEOT_ = comdat any

$_ZNSt4pairISt23_Rb_tree_const_iteratorImEbEC2IRSt17_Rb_tree_iteratorImERbTnNSt9enable_ifIXaaclsr5_PCCPE22_MoveConstructiblePairIT_T0_EEclsr5_PCCPE30_ImplicitlyMoveConvertiblePairIS9_SA_EEEbE4typeELb1EEEOS9_OSA_ = comdat any

$_ZNSt8_Rb_treeImmSt9_IdentityImESt4lessImESaImEE24_M_get_insert_unique_posERKm = comdat any

$_ZNKSt9_IdentityImEclERm = comdat any

$_ZNSt8_Rb_treeImmSt9_IdentityImESt4lessImESaImEE11_Alloc_nodeC2ERS5_ = comdat any

$_ZNSt8_Rb_treeImmSt9_IdentityImESt4lessImESaImEE10_M_insert_ImNS5_11_Alloc_nodeEEESt17_Rb_tree_iteratorImEPSt18_Rb_tree_node_baseSB_OT_RT0_ = comdat any

$_ZNSt4pairISt17_Rb_tree_iteratorImEbEC2IS1_bTnNSt9enable_ifIXaaclsr5_PCCPE22_MoveConstructiblePairIT_T0_EEclsr5_PCCPE30_ImplicitlyMoveConvertiblePairIS5_S6_EEEbE4typeELb1EEEOS5_OS6_ = comdat any

$_ZNSt17_Rb_tree_iteratorImEC2EPSt18_Rb_tree_node_base = comdat any

$_ZNSt8_Rb_treeImmSt9_IdentityImESt4lessImESaImEE6_M_endEv = comdat any

$_ZNKSt4lessImEclERKmS2_ = comdat any

$_ZNSt8_Rb_treeImmSt9_IdentityImESt4lessImESaImEE6_S_keyEPKSt13_Rb_tree_nodeImE = comdat any

$_ZSteqRKSt17_Rb_tree_iteratorImES2_ = comdat any

$_ZNSt8_Rb_treeImmSt9_IdentityImESt4lessImESaImEE5beginEv = comdat any

$_ZNSt4pairIPSt18_Rb_tree_node_baseS1_EC2IRPSt13_Rb_tree_nodeImERS1_TnNSt9enable_ifIXaaclsr5_PCCPE22_MoveConstructiblePairIT_T0_EEclsr5_PCCPE30_ImplicitlyMoveConvertiblePairISA_SB_EEEbE4typeELb1EEEOSA_OSB_ = comdat any

$_ZNSt17_Rb_tree_iteratorImEmmEv = comdat any

$_ZNSt8_Rb_treeImmSt9_IdentityImESt4lessImESaImEE6_S_keyEPKSt18_Rb_tree_node_base = comdat any

$_ZNSt4pairIPSt18_Rb_tree_node_baseS1_EC2IS1_S1_TnNSt9enable_ifIXaaclsr5_PCCPE18_ConstructiblePairIT_T0_EEclsr5_PCCPE26_ImplicitlyConvertiblePairIS5_S6_EEEbE4typeELb1EEERKS1_SA_ = comdat any

$_ZNKSt9_IdentityImEclERKm = comdat any

$_ZNKSt13_Rb_tree_nodeImE9_M_valptrEv = comdat any

$_ZNK9__gnu_cxx16__aligned_membufImE6_M_ptrEv = comdat any

$_ZNK9__gnu_cxx16__aligned_membufImE7_M_addrEv = comdat any

$_ZNKSt8_Rb_treeImmSt9_IdentityImESt4lessImESaImEE11_Alloc_nodeclImEEPSt13_Rb_tree_nodeImEOT_ = comdat any

$_ZNSt8_Rb_treeImmSt9_IdentityImESt4lessImESaImEE14_M_create_nodeIJmEEEPSt13_Rb_tree_nodeImEDpOT_ = comdat any

$_ZNSt8_Rb_treeImmSt9_IdentityImESt4lessImESaImEE11_M_get_nodeEv = comdat any

$_ZNSt8_Rb_treeImmSt9_IdentityImESt4lessImESaImEE17_M_construct_nodeIJmEEEvPSt13_Rb_tree_nodeImEDpOT_ = comdat any

$_ZNSt16allocator_traitsISaISt13_Rb_tree_nodeImEEE8allocateERS2_m = comdat any

$_ZNSt15__new_allocatorISt13_Rb_tree_nodeImEE8allocateEmPKv = comdat any

$_ZNKSt15__new_allocatorISt13_Rb_tree_nodeImEE11_M_max_sizeEv = comdat any

$_ZNSt16allocator_traitsISaISt13_Rb_tree_nodeImEEE9constructImJmEEEvRS2_PT_DpOT0_ = comdat any

$_ZNSt15__new_allocatorISt13_Rb_tree_nodeImEE9constructImJmEEEvPT_DpOT0_ = comdat any

$_ZNSt23_Rb_tree_const_iteratorImEC2ERKSt17_Rb_tree_iteratorImE = comdat any

$_ZNK5folly8OptionalImE8hasValueEv = comdat any

$_ZNKR5folly8OptionalImE5valueEv = comdat any

$_ZNSt8_Rb_treeImSt4pairIKmN8proxygen15HTTPTransaction19TxnStreamReadHandleEESt10_Select1stIS5_ESt4lessImESaIS5_EE4findERS1_ = comdat any

$_ZNSt8_Rb_treeImSt4pairIKmN8proxygen15HTTPTransaction19TxnStreamReadHandleEESt10_Select1stIS5_ESt4lessImESaIS5_EE14_M_lower_boundEPSt13_Rb_tree_nodeIS5_EPSt18_Rb_tree_node_baseRS1_ = comdat any

$_ZNSt8_Rb_treeImSt4pairIKmN8proxygen15HTTPTransaction19TxnStreamReadHandleEESt10_Select1stIS5_ESt4lessImESaIS5_EE6_M_endEv = comdat any

$_ZNSt8_Rb_treeImSt4pairIKmN8proxygen15HTTPTransaction19TxnStreamReadHandleEESt10_Select1stIS5_ESt4lessImESaIS5_EE3endEv = comdat any

$_ZNSt8_Rb_treeImSt4pairIKmN8proxygen15HTTPTransaction19TxnStreamReadHandleEESt10_Select1stIS5_ESt4lessImESaIS5_EE6_S_keyEPKSt18_Rb_tree_node_base = comdat any

$_ZNSt8_Rb_treeImSt4pairIKmN8proxygen15HTTPTransaction19TxnStreamReadHandleEESt10_Select1stIS5_ESt4lessImESaIS5_EE6_S_keyEPKSt13_Rb_tree_nodeIS5_E = comdat any

$_ZNSt17_Rb_tree_iteratorISt4pairIKmN8proxygen15HTTPTransaction19TxnStreamReadHandleEEEC2EPSt18_Rb_tree_node_base = comdat any

$_ZNKSt10_Select1stISt4pairIKmN8proxygen15HTTPTransaction19TxnStreamReadHandleEEEclERKS5_ = comdat any

$_ZNKSt13_Rb_tree_nodeISt4pairIKmN8proxygen15HTTPTransaction19TxnStreamReadHandleEEE9_M_valptrEv = comdat any

$_ZNK9__gnu_cxx16__aligned_membufISt4pairIKmN8proxygen15HTTPTransaction19TxnStreamReadHandleEEE6_M_ptrEv = comdat any

$_ZNK9__gnu_cxx16__aligned_membufISt4pairIKmN8proxygen15HTTPTransaction19TxnStreamReadHandleEEE7_M_addrEv = comdat any

$_ZN5folly7futures6detail10FutureBaseIN8proxygen12WebTransport10StreamDataEEC2EONS_10SemiFutureIS5_EE = comdat any

$_ZNSt8_Rb_treeImSt4pairIKmN8proxygen15HTTPTransaction20TxnStreamWriteHandleEESt10_Select1stIS5_ESt4lessImESaIS5_EE4findERS1_ = comdat any

$_ZNSt8_Rb_treeImSt4pairIKmN8proxygen15HTTPTransaction20TxnStreamWriteHandleEESt10_Select1stIS5_ESt4lessImESaIS5_EE14_M_lower_boundEPSt13_Rb_tree_nodeIS5_EPSt18_Rb_tree_node_baseRS1_ = comdat any

$_ZNSt8_Rb_treeImSt4pairIKmN8proxygen15HTTPTransaction20TxnStreamWriteHandleEESt10_Select1stIS5_ESt4lessImESaIS5_EE6_M_endEv = comdat any

$_ZNSt8_Rb_treeImSt4pairIKmN8proxygen15HTTPTransaction20TxnStreamWriteHandleEESt10_Select1stIS5_ESt4lessImESaIS5_EE3endEv = comdat any

$_ZNSt8_Rb_treeImSt4pairIKmN8proxygen15HTTPTransaction20TxnStreamWriteHandleEESt10_Select1stIS5_ESt4lessImESaIS5_EE6_S_keyEPKSt18_Rb_tree_node_base = comdat any

$_ZNSt8_Rb_treeImSt4pairIKmN8proxygen15HTTPTransaction20TxnStreamWriteHandleEESt10_Select1stIS5_ESt4lessImESaIS5_EE6_S_keyEPKSt13_Rb_tree_nodeIS5_E = comdat any

$_ZNSt17_Rb_tree_iteratorISt4pairIKmN8proxygen15HTTPTransaction20TxnStreamWriteHandleEEEC2EPSt18_Rb_tree_node_base = comdat any

$_ZNKSt10_Select1stISt4pairIKmN8proxygen15HTTPTransaction20TxnStreamWriteHandleEEEclERKS5_ = comdat any

$_ZNKSt13_Rb_tree_nodeISt4pairIKmN8proxygen15HTTPTransaction20TxnStreamWriteHandleEEE9_M_valptrEv = comdat any

$_ZNK9__gnu_cxx16__aligned_membufISt4pairIKmN8proxygen15HTTPTransaction20TxnStreamWriteHandleEEE6_M_ptrEv = comdat any

$_ZNK9__gnu_cxx16__aligned_membufISt4pairIKmN8proxygen15HTTPTransaction20TxnStreamWriteHandleEEE7_M_addrEv = comdat any

$_ZN5folly8OptionalINSt6chrono8durationIlSt5ratioILl1ELl1000EEEEE28StorageTriviallyDestructibleC2Ev = comdat any

$_ZNK5folly8OptionalINSt6chrono8durationIlSt5ratioILl1ELl1000EEEEE8hasValueEv = comdat any

$_ZN5folly8OptionalINSt6chrono8durationIlSt5ratioILl1ELl1000EEEEE9constructIJRKS5_EEEvDpOT_ = comdat any

$_ZNKR5folly8OptionalINSt6chrono8durationIlSt5ratioILl1ELl1000EEEEE5valueEv = comdat any

$_ZN8proxygen27HTTPTransactionEgressSMData15getInitialStateEv = comdat any

$_ZN8proxygen28HTTPTransactionIngressSMData15getInitialStateEv = comdat any

$_ZNSt10unique_ptrISt5queueIN8proxygen9HTTPEventESt5dequeIS2_SaIS2_EEESt14default_deleteIS6_EE11get_deleterEv = comdat any

$_ZN5folly8OptionalIN8proxygen9HTTPCodec12ExAttributesEE6assignERKS4_ = comdat any

$_ZNK5folly8OptionalIN8proxygen9HTTPCodec12ExAttributesEE8hasValueEv = comdat any

$_ZN5folly8OptionalIN8proxygen9HTTPCodec12ExAttributesEE6assignERKS3_ = comdat any

$_ZN5folly8OptionalIN8proxygen9HTTPCodec12ExAttributesEE5resetEv = comdat any

$_ZN5folly8OptionalIN8proxygen9HTTPCodec12ExAttributesEE9constructIJRKS3_EEEvDpOT_ = comdat any

$_ZN5folly8OptionalIN8proxygen9HTTPCodec12ExAttributesEE28StorageTriviallyDestructible5clearEv = comdat any

$_ZNSt8_Rb_treeImSt4pairIKmN8proxygen15HTTPTransaction19TxnStreamReadHandleEESt10_Select1stIS5_ESt4lessImESaIS5_EE5beginEv = comdat any

$_ZNSt8_Rb_treeImSt4pairIKmN8proxygen15HTTPTransaction19TxnStreamReadHandleEESt10_Select1stIS5_ESt4lessImESaIS5_EE5clearEv = comdat any

$_ZNSt8_Rb_treeImSt4pairIKmN8proxygen15HTTPTransaction20TxnStreamWriteHandleEESt10_Select1stIS5_ESt4lessImESaIS5_EE5beginEv = comdat any

$_ZNSt8_Rb_treeImSt4pairIKmN8proxygen15HTTPTransaction20TxnStreamWriteHandleEESt10_Select1stIS5_ESt4lessImESaIS5_EE5clearEv = comdat any

$_ZNKSt10unique_ptrIN8proxygen11HTTPMessageESt14default_deleteIS1_EE3getEv = comdat any

$_ZNKSt15__uniq_ptr_implIN8proxygen11HTTPMessageESt14default_deleteIS1_EE6_M_ptrEv = comdat any

$_ZSt3getILm0EJPN8proxygen11HTTPMessageESt14default_deleteIS1_EEERKNSt13tuple_elementIXT_ESt5tupleIJDpT0_EEE4typeERKS9_ = comdat any

$_ZSt12__get_helperILm0EPN8proxygen11HTTPMessageEJSt14default_deleteIS1_EEERKT0_RKSt11_Tuple_implIXT_EJS5_DpT1_EE = comdat any

$_ZNSt11_Tuple_implILm0EJPN8proxygen11HTTPMessageESt14default_deleteIS1_EEE7_M_headERKS5_ = comdat any

$_ZNSt10_Head_baseILm0EPN8proxygen11HTTPMessageELb0EE7_M_headERKS3_ = comdat any

$_ZNK8proxygen11HTTPHeaders20forEachValueOfHeaderIZNKS0_16getSingleOrEmptyINS_14HTTPHeaderCodeEEERKNSt7__cxx1112basic_stringIcSt11char_traitsIcESaIcEEERKT_EUlSB_E_EEbS3_SC_ = comdat any

$_ZNK8proxygen11HTTPHeaders5codesEv = comdat any

$_ZZNK8proxygen11HTTPHeaders16getSingleOrEmptyINS_14HTTPHeaderCodeEEERKNSt7__cxx1112basic_stringIcSt11char_traitsIcESaIcEEERKT_ENKUlSA_E_clESA_ = comdat any

$_ZNK8proxygen11HTTPHeaders6valuesB5cxx11Ev = comdat any

$_ZNK8proxygen11HTTPHeaders5codesEPKhm = comdat any

$_ZNKSt10unique_ptrIA_hSt14default_deleteIS0_EE3getEv = comdat any

$_ZNKSt15__uniq_ptr_implIhSt14default_deleteIA_hEE6_M_ptrEv = comdat any

$_ZSt3getILm0EJPhSt14default_deleteIA_hEEERKNSt13tuple_elementIXT_ESt5tupleIJDpT0_EEE4typeERKS8_ = comdat any

$_ZSt12__get_helperILm0EPhJSt14default_deleteIA_hEEERKT0_RKSt11_Tuple_implIXT_EJS4_DpT1_EE = comdat any

$_ZNSt11_Tuple_implILm0EJPhSt14default_deleteIA_hEEE7_M_headERKS4_ = comdat any

$_ZNSt10_Head_baseILm0EPhLb0EE7_M_headERKS1_ = comdat any

$_ZNK8proxygen11HTTPHeaders6valuesB5cxx11EPKhm = comdat any

$_ZN5folly2toImEENSt9enable_ifIXntsr3std7is_sameINS_5RangeIPKcEET_EE5valueES6_E4typeES5_ = comdat any

$_ZN5folly5RangeIPKcEC2ES2_m = comdat any

$_ZN5folly6detail11parseToWrapImEENSt9enable_ifIXntsr3std7is_voidIDTcl7parseTotlNS_5RangeIPKcEEEclsr3stdE7declvalIRT_EEEEEE5valueES9_E4typeES6_S8_ = comdat any

$_ZNR5folly8ExpectedINS_5RangeIPKcEENS_14ConversionCodeEE11thenOrThrowINS_6detail18CheckTrailingSpaceEZNS_2toImEENSt9enable_ifIXntsr3std7is_sameIS4_T_EE5valueESC_E4typeES4_EUlS5_E_EEDTclclsr3stdE7declvalISC_EEclL_ZSt7declvalIRS4_EDTcl9__declvalISC_ELi0EEEvEEEEOSC_OT0_ = comdat any

$_ZNO5folly8ExpectedINS_4UnitENS_14ConversionCodeEE11thenOrThrowIZNS_2toImEENSt9enable_ifIXntsr3std7is_sameINS_5RangeIPKcEET_EE5valueESB_E4typeESA_EUlS1_E_ZNS5_ImEESD_SA_EUlS2_E0_EEDTclclsr3stdE7declvalISB_EEclL_ZSt7declvalIOS1_EDTcl9__declvalISB_ELi0EEEvEEEEOSB_OT0_ = comdat any

$_ZN5folly7parseToImEENSt9enable_ifIX15is_arithmetic_vIT_EENS_8ExpectedINS_5RangeIPKcEENS_14ConversionCodeEEEE4typeES7_RS2_ = comdat any

$_ZN5folly6detail9convertToImEENSt9enable_ifIXaa13is_integral_vIT_Entsr3std7is_sameIS3_bEE5valueENS_8ExpectedIS3_NS_14ConversionCodeEEEE4typeEPNS_5RangeIPKcEE = comdat any

$_ZNO5folly8ExpectedImNS_14ConversionCodeEE4thenIJZNS_7parseToImEENSt9enable_ifIX15is_arithmetic_vIT_EENS0_INS_5RangeIPKcEES1_EEE4typeESA_RS6_EUlmE_ELb0ETnNS5_IXooT0_scbgesZT_Li1EEiE4typeELi0EEEDTclsr15expected_detail14ExpectedHelperE5then_clL_ZSt7declvalIONS_15expected_detail15ExpectedStorageImS1_LNSJ_11StorageTypeE0EEEEDTcl9__declvalIS6_ELi0EEEvEEspclsr3stdE7declvalIT_EEEEDpOSP_ = comdat any

$_ZN5folly15expected_detail15ExpectedStorageImNS_14ConversionCodeELNS0_11StorageTypeE0EE24uninitializedByExceptionEv = comdat any

$_ZN5folly15expected_detail30expected_detail_ExpectedHelper14ExpectedHelper5then_INS0_15ExpectedStorageImNS_14ConversionCodeELNS0_11StorageTypeE0EEEZNS_7parseToImEENSt9enable_ifIX15is_arithmetic_vIT_EENS_8ExpectedINS_5RangeIPKcEES5_EEE4typeESF_RSA_EUlmE_JES5_S2_EEDTclsrT3_5then_clsrSL_7return_IT2_Ecmclclsr3stdE7declvalIT0_EEcldtclsr3stdE7declvalISA_EE5valueEEL_ZNS_L4unitEEEspclsr3stdE7declvalIT1_EEEEOSA_OSN_DpOSO_ = comdat any

$_ZNR5folly8ExpectedImNS_14ConversionCodeEE4baseEv = comdat any

$_ZN5folly6detail16throw_exception_INS_17BadExpectedAccessIvEEJEEEvDpT0_ = comdat any

$_ZN5folly15throw_exceptionINS_17BadExpectedAccessIvEEEEvOT_ = comdat any

$_ZN5folly17BadExpectedAccessIvEC2Ev = comdat any

$_ZN5folly17BadExpectedAccessIvED2Ev = comdat any

$_ZN5folly17BadExpectedAccessIvEC2ERKS1_ = comdat any

$_ZN5folly17BadExpectedAccessIvED0Ev = comdat any

$_ZNK5folly17BadExpectedAccessIvE4whatEv = comdat any

$_ZN5folly15expected_detail30expected_detail_ExpectedHelper14ExpectedHelper5then_INS_8ExpectedINS_5RangeIPKcEENS_14ConversionCodeEEEEENSt5decayIT_E4typeEOSC_ = comdat any

$_ZN5folly15expected_detail30expected_detail_ExpectedHelper14ExpectedHelper7return_INS_14ConversionCodeENS_5RangeIPKcEEEENS_8ExpectedINSt5decayIT0_E4typeET_EEOSB_ = comdat any

$_ZN5folly15expected_detail30expected_detail_ExpectedHelpercmINS_5RangeIPKcEEEEOT_S8_NS_4UnitE = comdat any

$_ZZN5folly7parseToImEENSt9enable_ifIX15is_arithmetic_vIT_EENS_8ExpectedINS_5RangeIPKcEENS_14ConversionCodeEEEE4typeES7_RS2_ENKUlmE_clEm = comdat any

$_ZNO5folly15expected_detail15ExpectedStorageImNS_14ConversionCodeELNS0_11StorageTypeE0EE5valueEv = comdat any

$_ZN5folly14makeUnexpectedINS_14ConversionCodeEEENS_10UnexpectedINSt5decayIT_E4typeEEEOS4_ = comdat any

$_ZNO5folly15expected_detail15ExpectedStorageImNS_14ConversionCodeELNS0_11StorageTypeE0EE5errorEv = comdat any

$_ZN5folly8ExpectedINS_5RangeIPKcEENS_14ConversionCodeEEC2ILb0ETnNSt9enable_ifIXooT_scbL_ZNSt17integral_constantIbLb1EE5valueEEEiE4typeELi0EEEONS_10UnexpectedIS5_EE = comdat any

$_ZN5folly12makeExpectedINS_14ConversionCodeENS_5RangeIPKcEEEENS_8ExpectedINSt5decayIT0_E4typeET_EEOS8_ = comdat any

$_ZN5folly8ExpectedINS_5RangeIPKcEENS_14ConversionCodeEEC2IJS4_ELb0ETnNSt9enable_ifIXooT0_scbsr3std16is_constructibleIS4_DpOT_EE5valueEiE4typeELi0EEESt10in_place_tSB_ = comdat any

$_ZN5folly15expected_detail15ExpectedStorageINS_5RangeIPKcEENS_14ConversionCodeELNS0_11StorageTypeE1EEC2IJS5_EEENS0_8ValueTagEDpOT_ = comdat any

$_ZN5folly10UnexpectedINS_14ConversionCodeEEC2EOS1_ = comdat any

$_ZNR5folly10UnexpectedINS_14ConversionCodeEE5errorEv = comdat any

$_ZN5folly15expected_detail15ExpectedStorageINS_5RangeIPKcEENS_14ConversionCodeELNS0_11StorageTypeE1EEC2IJS6_EEENS0_8ErrorTagEDpOT_ = comdat any

$_ZN5folly15expected_detail15ExpectedStorageINS_5RangeIPKcEENS_14ConversionCodeELNS0_11StorageTypeE1EE24uninitializedByExceptionEv = comdat any

$_ZN5folly15expected_detail30expected_detail_ExpectedHelper14ExpectedHelper12thenOrThrow_IRNS0_15ExpectedStorageINS_5RangeIPKcEENS_14ConversionCodeELNS0_11StorageTypeE1EEENS_6detail18CheckTrailingSpaceEZNS_2toImEENSt9enable_ifIXntsr3std7is_sameIS8_T_EE5valueESH_E4typeES8_EUlS9_E_NS_8ExpectedINS_4UnitES9_EEvLb0ETnNSG_IXooT4_scbsr3std7is_voidIT3_EE5valueEiE4typeELi0EEET2_OSH_OT0_OT1_ = comdat any

$_ZNR5folly8ExpectedINS_5RangeIPKcEENS_14ConversionCodeEE4baseEv = comdat any

$_ZNK5folly6detail18CheckTrailingSpaceclENS_5RangeIPKcEE = comdat any

$_ZNR5folly15expected_detail15ExpectedStorageINS_5RangeIPKcEENS_14ConversionCodeELNS0_11StorageTypeE1EE5valueEv = comdat any

$_ZZN5folly2toImEENSt9enable_ifIXntsr3std7is_sameINS_5RangeIPKcEET_EE5valueES6_E4typeES5_ENKUlNS_14ConversionCodeEE_clES9_ = comdat any

$_ZNR5folly15expected_detail15ExpectedStorageINS_5RangeIPKcEENS_14ConversionCodeELNS0_11StorageTypeE1EE5errorEv = comdat any

$_ZN5folly6detail20enforceWhitespaceErrENS_5RangeIPKcEE = comdat any

$_ZN5folly14makeUnexpectedIRNS_14ConversionCodeEEENS_10UnexpectedINSt5decayIT_E4typeEEEOS5_ = comdat any

$_ZN5folly8ExpectedINS_4UnitENS_14ConversionCodeEEC2ILb0ETnNSt9enable_ifIXooT_scbL_ZNSt17integral_constantIbLb1EE5valueEEEiE4typeELi0EEEONS_10UnexpectedIS2_EE = comdat any

$_ZN5folly8ExpectedINS_4UnitENS_14ConversionCodeEEC2ILb0ETnNSt9enable_ifIXooT_scbL_ZNSt17integral_constantIbLb1EE5valueEEEiE4typeELi0EEERKS1_ = comdat any

$_ZNK5folly5RangeIPKcE5beginEv = comdat any

$_ZNK5folly5RangeIPKcE3endEv = comdat any

$_ZN5folly10UnexpectedINS_14ConversionCodeEEC2ERKS1_ = comdat any

$_ZN5folly15expected_detail15ExpectedStorageINS_4UnitENS_14ConversionCodeELNS0_11StorageTypeE0EEC2IJS3_EEENS0_8ErrorTagEDpOT_ = comdat any

$_ZN5folly15expected_detail15ExpectedStorageINS_4UnitENS_14ConversionCodeELNS0_11StorageTypeE0EEC2IJRKS2_EEENS0_8ValueTagEDpOT_ = comdat any

$_ZN5folly15throw_exceptionINS_15ConversionErrorEEEvOT_ = comdat any

$_ZN5folly15ConversionErrorD2Ev = comdat any

$_ZN5folly15ConversionErrorC2EOS0_ = comdat any

$_ZN5folly19ConversionErrorBaseC2EOS0_ = comdat any

$_ZN5folly15ConversionErrorD0Ev = comdat any

$_ZNSt11range_errorC2EOS_ = comdat any

$_ZN5folly19ConversionErrorBaseD2Ev = comdat any

$_ZN5folly19ConversionErrorBaseD0Ev = comdat any

$_ZN5folly6detail16throw_exception_INS_17BadExpectedAccessINS_14ConversionCodeEEEJS3_EEEvDpT0_ = comdat any

$_ZN5folly15throw_exceptionINS_17BadExpectedAccessINS_14ConversionCodeEEEEEvOT_ = comdat any

$_ZN5folly17BadExpectedAccessINS_14ConversionCodeEEC2ES1_ = comdat any

$_ZN5folly17BadExpectedAccessINS_14ConversionCodeEED2Ev = comdat any

$_ZN5folly17BadExpectedAccessINS_14ConversionCodeEEC2EOS2_ = comdat any

$_ZN5folly17BadExpectedAccessINS_14ConversionCodeEED0Ev = comdat any

$_ZN5folly15expected_detail15ExpectedStorageINS_4UnitENS_14ConversionCodeELNS0_11StorageTypeE0EE24uninitializedByExceptionEv = comdat any

$_ZN5folly15expected_detail30expected_detail_ExpectedHelper14ExpectedHelper12thenOrThrow_INS0_15ExpectedStorageINS_4UnitENS_14ConversionCodeELNS0_11StorageTypeE0EEEZNS_2toImEENSt9enable_ifIXntsr3std7is_sameINS_5RangeIPKcEET_EE5valueESF_E4typeESE_EUlS5_E_ZNS9_ImEESH_SE_EUlS6_E0_mvLb0ETnNSA_IXooT4_scbsr3std7is_voidIT3_EE5valueEiE4typeELi0EEET2_OSF_OT0_OT1_ = comdat any

$_ZNR5folly8ExpectedINS_4UnitENS_14ConversionCodeEE4baseEv = comdat any

$_ZZN5folly2toImEENSt9enable_ifIXntsr3std7is_sameINS_5RangeIPKcEET_EE5valueES6_E4typeES5_ENKUlNS_4UnitEE_clES9_ = comdat any

$_ZNO5folly15expected_detail15ExpectedStorageINS_4UnitENS_14ConversionCodeELNS0_11StorageTypeE0EE5valueEv = comdat any

$_ZZN5folly2toImEENSt9enable_ifIXntsr3std7is_sameINS_5RangeIPKcEET_EE5valueES6_E4typeES5_ENKUlNS_14ConversionCodeEE0_clES9_ = comdat any

$_ZNR5folly15expected_detail15ExpectedStorageINS_4UnitENS_14ConversionCodeELNS0_11StorageTypeE0EE5errorEv = comdat any

$_ZNO5folly15expected_detail15ExpectedStorageINS_4UnitENS_14ConversionCodeELNS0_11StorageTypeE0EE5errorEv = comdat any

$_ZNR5folly8ExpectedINS_5RangeIPKcEENS_14ConversionCodeEE5valueEv = comdat any

$_ZNK5folly8ExpectedINS_5RangeIPKcEENS_14ConversionCodeEE12requireValueEv = comdat any

$_ZNK5folly8ExpectedINS_5RangeIPKcEENS_14ConversionCodeEE8hasValueEv = comdat any

$_ZNK5folly8ExpectedINS_5RangeIPKcEENS_14ConversionCodeEE8hasErrorEv = comdat any

$_ZN5folly8OptionalImE6assignEOm = comdat any

$_ZN5folly8OptionalImE6assignERKm = comdat any

$_ZNKSt10unique_ptrISt5queueIN8proxygen9HTTPEventESt5dequeIS2_SaIS2_EEESt14default_deleteIS6_EE3getEv = comdat any

$_ZNKSt15__uniq_ptr_implISt5queueIN8proxygen9HTTPEventESt5dequeIS2_SaIS2_EEESt14default_deleteIS6_EE6_M_ptrEv = comdat any

$_ZSt3getILm0EJPSt5queueIN8proxygen9HTTPEventESt5dequeIS2_SaIS2_EEESt14default_deleteIS6_EEERKNSt13tuple_elementIXT_ESt5tupleIJDpT0_EEE4typeERKSE_ = comdat any

$_ZSt12__get_helperILm0EPSt5queueIN8proxygen9HTTPEventESt5dequeIS2_SaIS2_EEEJSt14default_deleteIS6_EEERKT0_RKSt11_Tuple_implIXT_EJSA_DpT1_EE = comdat any

$_ZNSt11_Tuple_implILm0EJPSt5queueIN8proxygen9HTTPEventESt5dequeIS2_SaIS2_EEESt14default_deleteIS6_EEE7_M_headERKSA_ = comdat any

$_ZNSt10_Head_baseILm0EPSt5queueIN8proxygen9HTTPEventESt5dequeIS2_SaIS2_EEELb0EE7_M_headERKS8_ = comdat any

$_ZN5folly11toAppendFitIJA54_cmA25_cmPNSt7__cxx1112basic_stringIcSt11char_traitsIcESaIcEEEEEENSt9enable_ifIXsr12IsSomeStringINSt14remove_pointerI19__type_pack_elementIXmisPDpT_ELi1EEJSE_EEE4typeEEE5valueEvE4typeEDpRKSD_ = comdat any

$_ZN5folly6detail15reserveInTargetIA54_cmJA25_cmPNSt7__cxx1112basic_stringIcSt11char_traitsIcESaIcEEEEEEvRKT_RKT0_DpRKT1_ = comdat any

$_ZN5folly8toAppendIJA54_cmA25_cmPNSt7__cxx1112basic_stringIcSt11char_traitsIcESaIcEEEEEENSt9enable_ifIXaagesZT_Li3Esr12IsSomeStringINSt14remove_pointerI19__type_pack_elementIXmisPDpT_ELi1EEJSE_EEE4typeEEE5valueEvE4typeEDpRKSD_ = comdat any

$_ZN5folly6detail14getLastElementIJA25_cmPNSt7__cxx1112basic_stringIcSt11char_traitsIcESaIcEEEEEERK19__type_pack_elementIXmisPDpT_ELi1EEJSC_EEDpRKSB_ = comdat any

$_ZN5folly6detail25EstimateSpaceToReserveAllISt16integer_sequenceImJLm0ELm1ELm2ELm3ELm4EEEE4callIJA54_cmA25_cmPNSt7__cxx1112basic_stringIcSt11char_traitsIcESaIcEEEEEEmDpRKT_ = comdat any

$_ZN5folly6IgnoreC2IA25_cEERKT_ = comdat any

$_ZN5folly6IgnoreC2ImEERKT_ = comdat any

$_ZN5folly19estimateSpaceNeededILm54EEEmRAT__Kc = comdat any

$_ZN5folly19estimateSpaceNeededImEENSt9enable_ifIXaaaaaa13is_integral_vIT_Ent11is_signed_vIS2_EgestS2_Li4EltstS2_Li16EEmE4typeES2_ = comdat any

$_ZN5folly19estimateSpaceNeededILm25EEEmRAT__Kc = comdat any

$_ZN5folly6detail18ToAppendStrImplAllISt16integer_sequenceImJLm0ELm1ELm2ELm3ELm4EEEE4callIJA54_cmA25_cmPNSt7__cxx1112basic_stringIcSt11char_traitsIcESaIcEEEEEEvDpRKT_ = comdat any

$_ZN5folly6detail14getLastElementIJA54_cmA25_cmPNSt7__cxx1112basic_stringIcSt11char_traitsIcESaIcEEEEEERK19__type_pack_elementIXmisPDpT_ELi1EEJSD_EEDpRKSC_ = comdat any

$_ZN5folly6detail15LastElementImplIJNS_6IgnoreES2_S2_S2_S2_EE4callIPNSt7__cxx1112basic_stringIcSt11char_traitsIcESaIcEEEEERKT_S2_S2_S2_S2_SE_ = comdat any

$_ZN5folly6IgnoreC2IA54_cEERKT_ = comdat any

$_ZN5folly8toAppendINSt7__cxx1112basic_stringIcSt11char_traitsIcESaIcEEEmEENSt9enable_ifIXaaaaaa13is_integral_vIT0_Ent11is_signed_vIS8_Esr12IsSomeStringIT_EE5valuegestS8_Li4EEvE4typeES8_PS9_ = comdat any

$_ZN5folly11toAppendFitIJA62_cmPNSt7__cxx1112basic_stringIcSt11char_traitsIcESaIcEEEEEENSt9enable_ifIXsr12IsSomeStringINSt14remove_pointerI19__type_pack_elementIXmisPDpT_ELi1EEJSD_EEE4typeEEE5valueEvE4typeEDpRKSC_ = comdat any

$_ZN5folly6detail15reserveInTargetIA62_cmJPNSt7__cxx1112basic_stringIcSt11char_traitsIcESaIcEEEEEEvRKT_RKT0_DpRKT1_ = comdat any

$_ZN5folly8toAppendIJA62_cmPNSt7__cxx1112basic_stringIcSt11char_traitsIcESaIcEEEEEENSt9enable_ifIXaagesZT_Li3Esr12IsSomeStringINSt14remove_pointerI19__type_pack_elementIXmisPDpT_ELi1EEJSD_EEE4typeEEE5valueEvE4typeEDpRKSC_ = comdat any

$_ZN5folly6detail25EstimateSpaceToReserveAllISt16integer_sequenceImJLm0ELm1ELm2EEEE4callIJA62_cmPNSt7__cxx1112basic_stringIcSt11char_traitsIcESaIcEEEEEEmDpRKT_ = comdat any

$_ZN5folly19estimateSpaceNeededILm62EEEmRAT__Kc = comdat any

$_ZN5folly6detail18ToAppendStrImplAllISt16integer_sequenceImJLm0ELm1ELm2EEEE4callIJA62_cmPNSt7__cxx1112basic_stringIcSt11char_traitsIcESaIcEEEEEEvDpRKT_ = comdat any

$_ZN5folly6detail14getLastElementIJA62_cmPNSt7__cxx1112basic_stringIcSt11char_traitsIcESaIcEEEEEERK19__type_pack_elementIXmisPDpT_ELi1EEJSC_EEDpRKSB_ = comdat any

$_ZN5folly6IgnoreC2IA62_cEERKT_ = comdat any

$_ZN5folly5tryToIlmEENSt9enable_ifIXsr6detail14IsArithToArithIT_T0_EE5valueENS_8ExpectedIS2_NS_14ConversionCodeEEEE4typeERKS3_ = comdat any

$_ZNO5folly8ExpectedIlNS_14ConversionCodeEE11thenOrThrowIRKNS_11identity_fnEZNS_2toIlmEENSt9enable_ifIXsr6detail14IsArithToArithIT_T0_EE5valueES9_E4typeERKSA_EUlS1_E_EEDTclclsr3stdE7declvalIS9_EEclL_ZSt7declvalIOlEDTcl9__declvalIS9_ELi0EEEvEEEEOS9_OSA_ = comdat any

$_ZN5folly6detail9convertToIlmEENSt9enable_ifIXaaaaaa13is_integral_vIT0_Entsr3std7is_sameIT_S3_EE5valuentsr3std7is_sameIS4_bEE5value13is_integral_vIS4_EENS_8ExpectedIS4_NS_14ConversionCodeEEEE4typeERKS3_ = comdat any

$_ZN5folly12greater_thanIlTnT_Ll9223372036854775807EmEEbT1_ = comdat any

$_ZN5folly8ExpectedIlNS_14ConversionCodeEEC2ILb0ETnNSt9enable_ifIXooT_scbL_ZNSt17integral_constantIbLb1EE5valueEEEiE4typeELi0EEEONS_10UnexpectedIS1_EE = comdat any

$_ZN5folly8ExpectedIlNS_14ConversionCodeEEC2ILb0ETnNSt9enable_ifIXooT_scbL_ZNSt17integral_constantIbLb1EE5valueEEEiE4typeELi0EEEOl = comdat any

$_ZN5folly6detail17greater_than_implIlTnT_Ll9223372036854775807EmEEbT1_ = comdat any

$_ZN5folly15expected_detail15ExpectedStorageIlNS_14ConversionCodeELNS0_11StorageTypeE0EEC2IJS2_EEENS0_8ErrorTagEDpOT_ = comdat any

$_ZN5folly15expected_detail15ExpectedStorageIlNS_14ConversionCodeELNS0_11StorageTypeE0EEC2IJlEEENS0_8ValueTagEDpOT_ = comdat any

$_ZN5folly15expected_detail15ExpectedStorageIlNS_14ConversionCodeELNS0_11StorageTypeE0EE24uninitializedByExceptionEv = comdat any

$_ZN5folly15expected_detail30expected_detail_ExpectedHelper14ExpectedHelper12thenOrThrow_INS0_15ExpectedStorageIlNS_14ConversionCodeELNS0_11StorageTypeE0EEERKNS_11identity_fnEZNS_2toIlmEENSt9enable_ifIXsr6detail14IsArithToArithIT_T0_EE5valueESD_E4typeERKSE_EUlS5_E_OlNS_15ConversionErrorELb0ETnNSC_IXooT4_scbntsr3std7is_voidIT3_EE5valueEiE4typeELi0EEET2_OSD_OSE_OT1_ = comdat any

$_ZNR5folly8ExpectedIlNS_14ConversionCodeEE4baseEv = comdat any

$_ZNK5folly11identity_fnclIlEEOT_S3_ = comdat any

$_ZNO5folly15expected_detail15ExpectedStorageIlNS_14ConversionCodeELNS0_11StorageTypeE0EE5valueEv = comdat any

$_ZZN5folly2toIlmEENSt9enable_ifIXsr6detail14IsArithToArithIT_T0_EE5valueES2_E4typeERKS3_ENKUlNS_14ConversionCodeEE_clES8_ = comdat any

$_ZNO5folly15expected_detail15ExpectedStorageIlNS_14ConversionCodeELNS0_11StorageTypeE0EE5errorEv = comdat any

$_ZN5folly6detail10errorValueIlmEENSt7__cxx1112basic_stringIcSt11char_traitsIcESaIcEEERKT0_ = comdat any

$_ZN5folly5RangeIPKcEC2ISaIcES2_TnNS_6detail13IsCharPointerIT0_E10const_typeELi0EEERKNSt7__cxx1112basic_stringIcSt11char_traitsIcET_EE = comdat any

$_ZN5folly2toINSt7__cxx1112basic_stringIcSt11char_traitsIcESaIcEEEJA2_cPKcA3_cmEEENSt9enable_ifIXaasr12IsSomeStringIT_EE5valueoonesZT0_Li1Entsr3std7is_sameISC_19__type_pack_elementIXmisPvDpT0_ELi1EEJvSF_EEEE5valueESC_E4typeEDpRKSE_ = comdat any

$_ZN5folly11pretty_nameIlEEPKcv = comdat any

$_ZN5folly11toAppendFitIJA2_cPKcA3_cmPNSt7__cxx1112basic_stringIcSt11char_traitsIcESaIcEEEEEENSt9enable_ifIXsr12IsSomeStringINSt14remove_pointerI19__type_pack_elementIXmisPDpT_ELi1EEJSG_EEE4typeEEE5valueEvE4typeEDpRKSF_ = comdat any

$_ZN5folly6detail15reserveInTargetIA2_cPKcJA3_cmPNSt7__cxx1112basic_stringIcSt11char_traitsIcESaIcEEEEEEvRKT_RKT0_DpRKT1_ = comdat any

$_ZN5folly8toAppendIJA2_cPKcA3_cmPNSt7__cxx1112basic_stringIcSt11char_traitsIcESaIcEEEEEENSt9enable_ifIXaagesZT_Li3Esr12IsSomeStringINSt14remove_pointerI19__type_pack_elementIXmisPDpT_ELi1EEJSG_EEE4typeEEE5valueEvE4typeEDpRKSF_ = comdat any

$_ZN5folly6detail14getLastElementIJA3_cmPNSt7__cxx1112basic_stringIcSt11char_traitsIcESaIcEEEEEERK19__type_pack_elementIXmisPDpT_ELi1EEJSC_EEDpRKSB_ = comdat any

$_ZN5folly6detail25EstimateSpaceToReserveAllISt16integer_sequenceImJLm0ELm1ELm2ELm3ELm4EEEE4callIJA2_cPKcA3_cmPNSt7__cxx1112basic_stringIcSt11char_traitsIcESaIcEEEEEEmDpRKT_ = comdat any

$_ZN5folly6IgnoreC2IA3_cEERKT_ = comdat any

$_ZN5folly19estimateSpaceNeededILm2EEEmRAT__Kc = comdat any

$_ZN5folly19estimateSpaceNeededIPKcEENSt9enable_ifIXsr3std14is_convertibleIT_S2_EE5valueEmE4typeES4_ = comdat any

$_ZN5folly19estimateSpaceNeededILm3EEEmRAT__Kc = comdat any

$_ZN5folly6detail18ToAppendStrImplAllISt16integer_sequenceImJLm0ELm1ELm2ELm3ELm4EEEE4callIJA2_cPKcA3_cmPNSt7__cxx1112basic_stringIcSt11char_traitsIcESaIcEEEEEEvDpRKT_ = comdat any

$_ZN5folly6detail14getLastElementIJA2_cPKcA3_cmPNSt7__cxx1112basic_stringIcSt11char_traitsIcESaIcEEEEEERK19__type_pack_elementIXmisPDpT_ELi1EEJSF_EEDpRKSE_ = comdat any

$_ZN5folly6IgnoreC2IA2_cEERKT_ = comdat any

$_ZN5folly6IgnoreC2IPKcEERKT_ = comdat any

$_ZN5folly6detail18pretty_name_carrayIlEERKDav = comdat any

$_ZSt3tieIJN8proxygen28HTTPTransactionIngressSMData5StateEbEESt5tupleIJDpRT_EES6_ = comdat any

$_ZNSt5tupleIJRN8proxygen28HTTPTransactionIngressSMData5StateERbEEaSIS2_bEENSt9enable_ifIXcl12__assignableIT_T0_EEERS5_E4typeEOSt4pairIS8_S9_E = comdat any

$_ZNSt13__atomic_baseIiEppEv = comdat any

$_ZNSt13__atomic_baseIiEmIEi = comdat any

$_ZNKSt13__atomic_baseIiEcviEv = comdat any

$_ZN8proxygen28HTTPTransactionIngressSMData7getNameB5cxx11Ev = comdat any

$_ZNSt5tupleIJRN8proxygen28HTTPTransactionIngressSMData5StateERbEEC2ILb1ETnNSt9enable_ifIXclsr4_TCCIXT_EEE29__is_implicitly_constructibleIS3_S4_EEEbE4typeELb1EEES3_S4_ = comdat any

$_ZNSt11_Tuple_implILm0EJRN8proxygen28HTTPTransactionIngressSMData5StateERbEEC2ES3_S4_ = comdat any

$_ZNSt10_Head_baseILm0ERN8proxygen28HTTPTransactionIngressSMData5StateELb0EEC2ES3_ = comdat any

$_ZNSt11_Tuple_implILm0EJRN8proxygen28HTTPTransactionIngressSMData5StateERbEE7_M_headERS5_ = comdat any

$_ZNSt11_Tuple_implILm0EJRN8proxygen28HTTPTransactionIngressSMData5StateERbEE7_M_tailERS5_ = comdat any

$_ZNSt10_Head_baseILm0ERN8proxygen28HTTPTransactionIngressSMData5StateELb0EE7_M_headERS4_ = comdat any

$_ZSt3tieIJN8proxygen27HTTPTransactionEgressSMData5StateEbEESt5tupleIJDpRT_EES6_ = comdat any

$_ZNSt5tupleIJRN8proxygen27HTTPTransactionEgressSMData5StateERbEEaSIS2_bEENSt9enable_ifIXcl12__assignableIT_T0_EEERS5_E4typeEOSt4pairIS8_S9_E = comdat any

$_ZN8proxygen27HTTPTransactionEgressSMData7getNameB5cxx11Ev = comdat any

$_ZNSt5tupleIJRN8proxygen27HTTPTransactionEgressSMData5StateERbEEC2ILb1ETnNSt9enable_ifIXclsr4_TCCIXT_EEE29__is_implicitly_constructibleIS3_S4_EEEbE4typeELb1EEES3_S4_ = comdat any

$_ZNSt11_Tuple_implILm0EJRN8proxygen27HTTPTransactionEgressSMData5StateERbEEC2ES3_S4_ = comdat any

$_ZNSt10_Head_baseILm0ERN8proxygen27HTTPTransactionEgressSMData5StateELb0EEC2ES3_ = comdat any

$_ZNSt11_Tuple_implILm0EJRN8proxygen27HTTPTransactionEgressSMData5StateERbEE7_M_headERS5_ = comdat any

$_ZNSt11_Tuple_implILm0EJRN8proxygen27HTTPTransactionEgressSMData5StateERbEE7_M_tailERS5_ = comdat any

$_ZNSt10_Head_baseILm0ERN8proxygen27HTTPTransactionEgressSMData5StateELb0EE7_M_headERS4_ = comdat any

$_ZN5folly11toAppendFitIJA27_cmPNSt7__cxx1112basic_stringIcSt11char_traitsIcESaIcEEEEEENSt9enable_ifIXsr12IsSomeStringINSt14remove_pointerI19__type_pack_elementIXmisPDpT_ELi1EEJSD_EEE4typeEEE5valueEvE4typeEDpRKSC_ = comdat any

$_ZN5folly6detail15reserveInTargetIA27_cmJPNSt7__cxx1112basic_stringIcSt11char_traitsIcESaIcEEEEEEvRKT_RKT0_DpRKT1_ = comdat any

$_ZN5folly8toAppendIJA27_cmPNSt7__cxx1112basic_stringIcSt11char_traitsIcESaIcEEEEEENSt9enable_ifIXaagesZT_Li3Esr12IsSomeStringINSt14remove_pointerI19__type_pack_elementIXmisPDpT_ELi1EEJSD_EEE4typeEEE5valueEvE4typeEDpRKSC_ = comdat any

$_ZN5folly6detail25EstimateSpaceToReserveAllISt16integer_sequenceImJLm0ELm1ELm2EEEE4callIJA27_cmPNSt7__cxx1112basic_stringIcSt11char_traitsIcESaIcEEEEEEmDpRKT_ = comdat any

$_ZN5folly19estimateSpaceNeededILm27EEEmRAT__Kc = comdat any

$_ZN5folly6detail18ToAppendStrImplAllISt16integer_sequenceImJLm0ELm1ELm2EEEE4callIJA27_cmPNSt7__cxx1112basic_stringIcSt11char_traitsIcESaIcEEEEEEvDpRKT_ = comdat any

$_ZN5folly6detail14getLastElementIJA27_cmPNSt7__cxx1112basic_stringIcSt11char_traitsIcESaIcEEEEEERK19__type_pack_elementIXmisPDpT_ELi1EEJSC_EEDpRKSB_ = comdat any

$_ZN5folly6IgnoreC2IA27_cEERKT_ = comdat any

$_ZN5folly11toAppendFitIJA26_cmPNSt7__cxx1112basic_stringIcSt11char_traitsIcESaIcEEEEEENSt9enable_ifIXsr12IsSomeStringINSt14remove_pointerI19__type_pack_elementIXmisPDpT_ELi1EEJSD_EEE4typeEEE5valueEvE4typeEDpRKSC_ = comdat any

$_ZN5folly6detail15reserveInTargetIA26_cmJPNSt7__cxx1112basic_stringIcSt11char_traitsIcESaIcEEEEEEvRKT_RKT0_DpRKT1_ = comdat any

$_ZN5folly8toAppendIJA26_cmPNSt7__cxx1112basic_stringIcSt11char_traitsIcESaIcEEEEEENSt9enable_ifIXaagesZT_Li3Esr12IsSomeStringINSt14remove_pointerI19__type_pack_elementIXmisPDpT_ELi1EEJSD_EEE4typeEEE5valueEvE4typeEDpRKSC_ = comdat any

$_ZN5folly6detail25EstimateSpaceToReserveAllISt16integer_sequenceImJLm0ELm1ELm2EEEE4callIJA26_cmPNSt7__cxx1112basic_stringIcSt11char_traitsIcESaIcEEEEEEmDpRKT_ = comdat any

$_ZN5folly19estimateSpaceNeededILm26EEEmRAT__Kc = comdat any

$_ZN5folly6detail18ToAppendStrImplAllISt16integer_sequenceImJLm0ELm1ELm2EEEE4callIJA26_cmPNSt7__cxx1112basic_stringIcSt11char_traitsIcESaIcEEEEEEvDpRKT_ = comdat any

$_ZN5folly6detail14getLastElementIJA26_cmPNSt7__cxx1112basic_stringIcSt11char_traitsIcESaIcEEEEEERK19__type_pack_elementIXmisPDpT_ELi1EEJSC_EEDpRKSB_ = comdat any

$_ZN5folly6IgnoreC2IA26_cEERKT_ = comdat any

$_ZNSt10unique_ptrIN8proxygen16DSRRequestSenderESt14default_deleteIS1_EE11get_deleterEv = comdat any

$_ZNKSt14default_deleteIN8proxygen16DSRRequestSenderEEclEPS1_ = comdat any

$_ZNSt15__uniq_ptr_implIN8proxygen16DSRRequestSenderESt14default_deleteIS1_EE10_M_deleterEv = comdat any

$_ZSt3getILm1EJPN8proxygen16DSRRequestSenderESt14default_deleteIS1_EEERNSt13tuple_elementIXT_ESt5tupleIJDpT0_EEE4typeERS9_ = comdat any

$_ZSt12__get_helperILm1ESt14default_deleteIN8proxygen16DSRRequestSenderEEJEERT0_RSt11_Tuple_implIXT_EJS4_DpT1_EE = comdat any

$_ZNSt11_Tuple_implILm1EJSt14default_deleteIN8proxygen16DSRRequestSenderEEEE7_M_headERS4_ = comdat any

$_ZNSt10_Head_baseILm1ESt14default_deleteIN8proxygen16DSRRequestSenderEELb1EE7_M_headERS4_ = comdat any

$_ZNSt14_List_iteratorIN8proxygen15HTTPTransaction5ChunkEEmmEv = comdat any

$_ZNKSt14_List_iteratorIN8proxygen15HTTPTransaction5ChunkEEdeEv = comdat any

$_ZNSt7__cxx114listIN8proxygen15HTTPTransaction5ChunkESaIS3_EE5beginEv = comdat any

$_ZNSt7__cxx114listIN8proxygen15HTTPTransaction5ChunkESaIS3_EE8_M_eraseESt14_List_iteratorIS3_E = comdat any

$_ZNSt7__cxx1110_List_baseIN8proxygen15HTTPTransaction5ChunkESaIS3_EE11_M_dec_sizeEm = comdat any

$_ZNSt8_Rb_treeImSt4pairIKmN8proxygen9ByteEvent10EventFlagsEESt10_Select1stIS5_ESt4lessImESaIS5_EE5beginEv = comdat any

$_ZNSt17_Rb_tree_iteratorISt4pairIKmN8proxygen9ByteEvent10EventFlagsEEEC2EPSt18_Rb_tree_node_base = comdat any

$_ZNSt8_Rb_treeImSt4pairIKmN8proxygen9ByteEvent10EventFlagsEESt10_Select1stIS5_ESt4lessImESaIS5_EE3endEv = comdat any

$_ZNSt8_Rb_treeImSt4pairIKmN8proxygen9ByteEvent10EventFlagsEESt10_Select1stIS5_ESt4lessImESaIS5_EE5eraseB5cxx11ESt17_Rb_tree_iteratorIS5_E = comdat any

$_ZNSt17_Rb_tree_iteratorISt4pairIKmN8proxygen9ByteEvent10EventFlagsEEEppEv = comdat any

$_ZNSt8_Rb_treeImSt4pairIKmN8proxygen9ByteEvent10EventFlagsEESt10_Select1stIS5_ESt4lessImESaIS5_EE12_M_erase_auxESt23_Rb_tree_const_iteratorIS5_E = comdat any

$_ZNSt23_Rb_tree_const_iteratorISt4pairIKmN8proxygen9ByteEvent10EventFlagsEEEC2ERKSt17_Rb_tree_iteratorIS5_E = comdat any

$_ZNSt6chrono13duration_castINS_8durationIlSt5ratioILl1ELl1000EEEElS2_ILl1ELl1000000000EEEENSt9enable_ifIXsr13__is_durationIT_EE5valueES7_E4typeERKNS1_IT0_T1_EE = comdat any

$_ZNSt6chronomiINS_3_V212steady_clockENS_8durationIlSt5ratioILl1ELl1000000000EEEES6_EENSt11common_typeIJT0_T1_EE4typeERKNS_10time_pointIT_S8_EERKNSC_ISD_S9_EE = comdat any

$_ZNSt6chrono20__duration_cast_implINS_8durationIlSt5ratioILl1ELl1000EEEES2_ILl1ELl1000000EElLb1ELb0EE6__castIlS2_ILl1ELl1000000000EEEES4_RKNS1_IT_T0_EE = comdat any

$_ZNKSt6chrono8durationIlSt5ratioILl1ELl1000000000EEE5countEv = comdat any

$_ZNSt6chronomiIlSt5ratioILl1ELl1000000000EElS2_EENSt11common_typeIJNS_8durationIT_T0_EENS4_IT1_T2_EEEE4typeERKS7_RKSA_ = comdat any

$_ZNKSt6chrono10time_pointINS_3_V212steady_clockENS_8durationIlSt5ratioILl1ELl1000000000EEEEE16time_since_epochEv = comdat any

$_ZN5folly11toAppendFitIJiA4_cjPNSt7__cxx1112basic_stringIcSt11char_traitsIcESaIcEEEEEENSt9enable_ifIXsr12IsSomeStringINSt14remove_pointerI19__type_pack_elementIXmisPDpT_ELi1EEJSD_EEE4typeEEE5valueEvE4typeEDpRKSC_ = comdat any

$_ZN5folly6detail15reserveInTargetIiA4_cJjPNSt7__cxx1112basic_stringIcSt11char_traitsIcESaIcEEEEEEvRKT_RKT0_DpRKT1_ = comdat any

$_ZN5folly8toAppendIJiA4_cjPNSt7__cxx1112basic_stringIcSt11char_traitsIcESaIcEEEEEENSt9enable_ifIXaagesZT_Li3Esr12IsSomeStringINSt14remove_pointerI19__type_pack_elementIXmisPDpT_ELi1EEJSD_EEE4typeEEE5valueEvE4typeEDpRKSC_ = comdat any

$_ZN5folly6detail14getLastElementIJjPNSt7__cxx1112basic_stringIcSt11char_traitsIcESaIcEEEEEERK19__type_pack_elementIXmisPDpT_ELi1EEJSB_EEDpRKSA_ = comdat any

$_ZN5folly6detail25EstimateSpaceToReserveAllISt16integer_sequenceImJLm0ELm1ELm2ELm3EEEE4callIJiA4_cjPNSt7__cxx1112basic_stringIcSt11char_traitsIcESaIcEEEEEEmDpRKT_ = comdat any

$_ZN5folly6detail15LastElementImplIJNS_6IgnoreES2_EE4callIPNSt7__cxx1112basic_stringIcSt11char_traitsIcESaIcEEEEERKT_S2_SE_ = comdat any

$_ZN5folly19estimateSpaceNeededIiEENSt9enable_ifIXaaaaaa13is_integral_vIT_E11is_signed_vIS2_EgestS2_Li4EltstS2_Li16EEmE4typeES2_ = comdat any

$_ZN5folly19estimateSpaceNeededILm4EEEmRAT__Kc = comdat any

$_ZN5folly6detail18ToAppendStrImplAllISt16integer_sequenceImJLm0ELm1ELm2ELm3EEEE4callIJiA4_cjPNSt7__cxx1112basic_stringIcSt11char_traitsIcESaIcEEEEEEvDpRKT_ = comdat any

$_ZN5folly6detail14getLastElementIJiA4_cjPNSt7__cxx1112basic_stringIcSt11char_traitsIcESaIcEEEEEERK19__type_pack_elementIXmisPDpT_ELi1EEJSC_EEDpRKSB_ = comdat any

$_ZN5folly6detail15LastElementImplIJNS_6IgnoreES2_S2_S2_EE4callIPNSt7__cxx1112basic_stringIcSt11char_traitsIcESaIcEEEEERKT_S2_S2_S2_SE_ = comdat any

$_ZN5folly6IgnoreC2IiEERKT_ = comdat any

$_ZN5folly6IgnoreC2IA4_cEERKT_ = comdat any

$_ZN5folly8toAppendINSt7__cxx1112basic_stringIcSt11char_traitsIcESaIcEEEiEENSt9enable_ifIXaaaaaa13is_integral_vIT0_E11is_signed_vIS8_Esr12IsSomeStringIT_EE5valuegestS8_Li4EEvE4typeES8_PS9_ = comdat any

$_ZN6google17MakeCheckOpStringImlEEPNSt7__cxx1112basic_stringIcSt11char_traitsIcESaIcEEERKT_RKT0_PKc = comdat any

$_ZN6google22MakeCheckOpValueStringIlEEvPSoRKT_ = comdat any

$_ZN5folly11toAppendFitIJA45_cmPNSt7__cxx1112basic_stringIcSt11char_traitsIcESaIcEEEEEENSt9enable_ifIXsr12IsSomeStringINSt14remove_pointerI19__type_pack_elementIXmisPDpT_ELi1EEJSD_EEE4typeEEE5valueEvE4typeEDpRKSC_ = comdat any

$_ZN5folly6detail15reserveInTargetIA45_cmJPNSt7__cxx1112basic_stringIcSt11char_traitsIcESaIcEEEEEEvRKT_RKT0_DpRKT1_ = comdat any

$_ZN5folly8toAppendIJA45_cmPNSt7__cxx1112basic_stringIcSt11char_traitsIcESaIcEEEEEENSt9enable_ifIXaagesZT_Li3Esr12IsSomeStringINSt14remove_pointerI19__type_pack_elementIXmisPDpT_ELi1EEJSD_EEE4typeEEE5valueEvE4typeEDpRKSC_ = comdat any

$_ZN5folly6detail25EstimateSpaceToReserveAllISt16integer_sequenceImJLm0ELm1ELm2EEEE4callIJA45_cmPNSt7__cxx1112basic_stringIcSt11char_traitsIcESaIcEEEEEEmDpRKT_ = comdat any

$_ZN5folly19estimateSpaceNeededILm45EEEmRAT__Kc = comdat any

$_ZN5folly6detail18ToAppendStrImplAllISt16integer_sequenceImJLm0ELm1ELm2EEEE4callIJA45_cmPNSt7__cxx1112basic_stringIcSt11char_traitsIcESaIcEEEEEEvDpRKT_ = comdat any

$_ZN5folly6detail14getLastElementIJA45_cmPNSt7__cxx1112basic_stringIcSt11char_traitsIcESaIcEEEEEERK19__type_pack_elementIXmisPDpT_ELi1EEJSC_EEDpRKSB_ = comdat any

$_ZN5folly6IgnoreC2IA45_cEERKT_ = comdat any

$_ZN5folly11toAppendFitIJA48_cmA11_cmPNSt7__cxx1112basic_stringIcSt11char_traitsIcESaIcEEEEEENSt9enable_ifIXsr12IsSomeStringINSt14remove_pointerI19__type_pack_elementIXmisPDpT_ELi1EEJSE_EEE4typeEEE5valueEvE4typeEDpRKSD_ = comdat any

$_ZN5folly6detail15reserveInTargetIA48_cmJA11_cmPNSt7__cxx1112basic_stringIcSt11char_traitsIcESaIcEEEEEEvRKT_RKT0_DpRKT1_ = comdat any

$_ZN5folly8toAppendIJA48_cmA11_cmPNSt7__cxx1112basic_stringIcSt11char_traitsIcESaIcEEEEEENSt9enable_ifIXaagesZT_Li3Esr12IsSomeStringINSt14remove_pointerI19__type_pack_elementIXmisPDpT_ELi1EEJSE_EEE4typeEEE5valueEvE4typeEDpRKSD_ = comdat any

$_ZN5folly6detail14getLastElementIJA11_cmPNSt7__cxx1112basic_stringIcSt11char_traitsIcESaIcEEEEEERK19__type_pack_elementIXmisPDpT_ELi1EEJSC_EEDpRKSB_ = comdat any

$_ZN5folly6detail25EstimateSpaceToReserveAllISt16integer_sequenceImJLm0ELm1ELm2ELm3ELm4EEEE4callIJA48_cmA11_cmPNSt7__cxx1112basic_stringIcSt11char_traitsIcESaIcEEEEEEmDpRKT_ = comdat any

$_ZN5folly6IgnoreC2IA11_cEERKT_ = comdat any

$_ZN5folly19estimateSpaceNeededILm48EEEmRAT__Kc = comdat any

$_ZN5folly19estimateSpaceNeededILm11EEEmRAT__Kc = comdat any

$_ZN5folly6detail18ToAppendStrImplAllISt16integer_sequenceImJLm0ELm1ELm2ELm3ELm4EEEE4callIJA48_cmA11_cmPNSt7__cxx1112basic_stringIcSt11char_traitsIcESaIcEEEEEEvDpRKT_ = comdat any

$_ZN5folly6detail14getLastElementIJA48_cmA11_cmPNSt7__cxx1112basic_stringIcSt11char_traitsIcESaIcEEEEEERK19__type_pack_elementIXmisPDpT_ELi1EEJSD_EEDpRKSC_ = comdat any

$_ZN5folly6IgnoreC2IA48_cEERKT_ = comdat any

$_ZNSt4pairIRmRN8proxygen9ByteEvent10EventFlagsEEC2IS0_S4_TnNSt9enable_ifIXaaclsr5_PCCPE18_ConstructiblePairIT_T0_EEclsr5_PCCPE26_ImplicitlyConvertiblePairIS8_S9_EEEbE4typeELb1EEES0_S4_ = comdat any

$_ZSt3getILm0ERmRN8proxygen9ByteEvent10EventFlagsEEONSt13tuple_elementIXT_ESt4pairIT0_T1_EE4typeEOS9_ = comdat any

$_ZSt3getILm1ERmRN8proxygen9ByteEvent10EventFlagsEEONSt13tuple_elementIXT_ESt4pairIT0_T1_EE4typeEOS9_ = comdat any

$_ZNSt3mapImN8proxygen9ByteEvent10EventFlagsESt4lessImESaISt4pairIKmS2_EEE11lower_boundERS6_ = comdat any

$_ZSteqRKSt17_Rb_tree_iteratorISt4pairIKmN8proxygen9ByteEvent10EventFlagsEEES8_ = comdat any

$_ZNKSt3mapImN8proxygen9ByteEvent10EventFlagsESt4lessImESaISt4pairIKmS2_EEE8key_compEv = comdat any

$_ZNKSt17_Rb_tree_iteratorISt4pairIKmN8proxygen9ByteEvent10EventFlagsEEEdeEv = comdat any

$_ZNSt3mapImN8proxygen9ByteEvent10EventFlagsESt4lessImESaISt4pairIKmS2_EEE12emplace_hintIJRmRS2_EEESt17_Rb_tree_iteratorIS7_ESt23_Rb_tree_const_iteratorIS7_EDpOT_ = comdat any

$_ZNSt4pairISt17_Rb_tree_iteratorIS_IKmN8proxygen9ByteEvent10EventFlagsEEEbEC2IRS6_bTnNSt9enable_ifIXaaclsr5_PCCPE22_MoveConstructiblePairIT_T0_EEclsr5_PCCPE30_ImplicitlyMoveConvertiblePairISB_SC_EEEbE4typeELb1EEEOSB_OSC_ = comdat any

$_ZNSt10__pair_getILm0EE10__move_getIRmRN8proxygen9ByteEvent10EventFlagsEEEOT_OSt4pairIS7_T0_E = comdat any

$_ZNSt10__pair_getILm1EE10__move_getIRmRN8proxygen9ByteEvent10EventFlagsEEEOT0_OSt4pairIT_S7_E = comdat any

$_ZNSt8_Rb_treeImSt4pairIKmN8proxygen9ByteEvent10EventFlagsEESt10_Select1stIS5_ESt4lessImESaIS5_EE11lower_boundERS1_ = comdat any

$_ZNSt8_Rb_treeImSt4pairIKmN8proxygen9ByteEvent10EventFlagsEESt10_Select1stIS5_ESt4lessImESaIS5_EE14_M_lower_boundEPSt13_Rb_tree_nodeIS5_EPSt18_Rb_tree_node_baseRS1_ = comdat any

$_ZNSt8_Rb_treeImSt4pairIKmN8proxygen9ByteEvent10EventFlagsEESt10_Select1stIS5_ESt4lessImESaIS5_EE6_M_endEv = comdat any

$_ZNSt8_Rb_treeImSt4pairIKmN8proxygen9ByteEvent10EventFlagsEESt10_Select1stIS5_ESt4lessImESaIS5_EE6_S_keyEPKSt13_Rb_tree_nodeIS5_E = comdat any

$_ZNKSt10_Select1stISt4pairIKmN8proxygen9ByteEvent10EventFlagsEEEclERKS5_ = comdat any

$_ZNKSt13_Rb_tree_nodeISt4pairIKmN8proxygen9ByteEvent10EventFlagsEEE9_M_valptrEv = comdat any

$_ZNK9__gnu_cxx16__aligned_membufISt4pairIKmN8proxygen9ByteEvent10EventFlagsEEE6_M_ptrEv = comdat any

$_ZNK9__gnu_cxx16__aligned_membufISt4pairIKmN8proxygen9ByteEvent10EventFlagsEEE7_M_addrEv = comdat any

$_ZNKSt8_Rb_treeImSt4pairIKmN8proxygen9ByteEvent10EventFlagsEESt10_Select1stIS5_ESt4lessImESaIS5_EE8key_compEv = comdat any

$_ZNSt8_Rb_treeImSt4pairIKmN8proxygen9ByteEvent10EventFlagsEESt10_Select1stIS5_ESt4lessImESaIS5_EE22_M_emplace_hint_uniqueIJRmRS4_EEESt17_Rb_tree_iteratorIS5_ESt23_Rb_tree_const_iteratorIS5_EDpOT_ = comdat any

$_ZNSt8_Rb_treeImSt4pairIKmN8proxygen9ByteEvent10EventFlagsEESt10_Select1stIS5_ESt4lessImESaIS5_EE10_Auto_nodeC2IJRmRS4_EEERSB_DpOT_ = comdat any

$_ZNSt8_Rb_treeImSt4pairIKmN8proxygen9ByteEvent10EventFlagsEESt10_Select1stIS5_ESt4lessImESaIS5_EE29_M_get_insert_hint_unique_posESt23_Rb_tree_const_iteratorIS5_ERS1_ = comdat any

$_ZNKSt8_Rb_treeImSt4pairIKmN8proxygen9ByteEvent10EventFlagsEESt10_Select1stIS5_ESt4lessImESaIS5_EE10_Auto_node6_M_keyEv = comdat any

$_ZNSt8_Rb_treeImSt4pairIKmN8proxygen9ByteEvent10EventFlagsEESt10_Select1stIS5_ESt4lessImESaIS5_EE10_Auto_node9_M_insertES0_IPSt18_Rb_tree_node_baseSE_E = comdat any

$_ZNSt8_Rb_treeImSt4pairIKmN8proxygen9ByteEvent10EventFlagsEESt10_Select1stIS5_ESt4lessImESaIS5_EE10_Auto_nodeD2Ev = comdat any

$_ZNSt8_Rb_treeImSt4pairIKmN8proxygen9ByteEvent10EventFlagsEESt10_Select1stIS5_ESt4lessImESaIS5_EE14_M_create_nodeIJRmRS4_EEEPSt13_Rb_tree_nodeIS5_EDpOT_ = comdat any

$_ZNSt8_Rb_treeImSt4pairIKmN8proxygen9ByteEvent10EventFlagsEESt10_Select1stIS5_ESt4lessImESaIS5_EE11_M_get_nodeEv = comdat any

$_ZNSt8_Rb_treeImSt4pairIKmN8proxygen9ByteEvent10EventFlagsEESt10_Select1stIS5_ESt4lessImESaIS5_EE17_M_construct_nodeIJRmRS4_EEEvPSt13_Rb_tree_nodeIS5_EDpOT_ = comdat any

$_ZNSt16allocator_traitsISaISt13_Rb_tree_nodeISt4pairIKmN8proxygen9ByteEvent10EventFlagsEEEEE8allocateERS8_m = comdat any

$_ZNSt15__new_allocatorISt13_Rb_tree_nodeISt4pairIKmN8proxygen9ByteEvent10EventFlagsEEEE8allocateEmPKv = comdat any

$_ZNKSt15__new_allocatorISt13_Rb_tree_nodeISt4pairIKmN8proxygen9ByteEvent10EventFlagsEEEE11_M_max_sizeEv = comdat any

$_ZNSt16allocator_traitsISaISt13_Rb_tree_nodeISt4pairIKmN8proxygen9ByteEvent10EventFlagsEEEEE9constructIS6_JRmRS5_EEEvRS8_PT_DpOT0_ = comdat any

$_ZNSt15__new_allocatorISt13_Rb_tree_nodeISt4pairIKmN8proxygen9ByteEvent10EventFlagsEEEE9constructIS6_JRmRS5_EEEvPT_DpOT0_ = comdat any

$_ZNSt4pairIKmN8proxygen9ByteEvent10EventFlagsEEC2IRmRS3_TnNSt9enable_ifIXaaclsr5_PCCPE22_MoveConstructiblePairIT_T0_EEclsr5_PCCPE30_ImplicitlyMoveConvertiblePairIS9_SA_EEEbE4typeELb1EEEOS9_OSA_ = comdat any

$_ZNKSt23_Rb_tree_const_iteratorISt4pairIKmN8proxygen9ByteEvent10EventFlagsEEE13_M_const_castEv = comdat any

$_ZNKSt8_Rb_treeImSt4pairIKmN8proxygen9ByteEvent10EventFlagsEESt10_Select1stIS5_ESt4lessImESaIS5_EE4sizeEv = comdat any

$_ZNSt8_Rb_treeImSt4pairIKmN8proxygen9ByteEvent10EventFlagsEESt10_Select1stIS5_ESt4lessImESaIS5_EE6_S_keyEPKSt18_Rb_tree_node_base = comdat any

$_ZNSt8_Rb_treeImSt4pairIKmN8proxygen9ByteEvent10EventFlagsEESt10_Select1stIS5_ESt4lessImESaIS5_EE12_M_rightmostEv = comdat any

$_ZNSt8_Rb_treeImSt4pairIKmN8proxygen9ByteEvent10EventFlagsEESt10_Select1stIS5_ESt4lessImESaIS5_EE24_M_get_insert_unique_posERS1_ = comdat any

$_ZNSt8_Rb_treeImSt4pairIKmN8proxygen9ByteEvent10EventFlagsEESt10_Select1stIS5_ESt4lessImESaIS5_EE11_M_leftmostEv = comdat any

$_ZNSt4pairIPSt18_Rb_tree_node_baseS1_EC2IRS1_S4_TnNSt9enable_ifIXaaclsr5_PCCPE22_MoveConstructiblePairIT_T0_EEclsr5_PCCPE30_ImplicitlyMoveConvertiblePairIS6_S7_EEEbE4typeELb1EEEOS6_OS7_ = comdat any

$_ZNSt17_Rb_tree_iteratorISt4pairIKmN8proxygen9ByteEvent10EventFlagsEEEmmEv = comdat any

$_ZNSt4pairIPSt18_Rb_tree_node_baseS1_EC2IRPSt13_Rb_tree_nodeIS_IKmN8proxygen9ByteEvent10EventFlagsEEERS1_TnNSt9enable_ifIXaaclsr5_PCCPE22_MoveConstructiblePairIT_T0_EEclsr5_PCCPE30_ImplicitlyMoveConvertiblePairISF_SG_EEEbE4typeELb1EEEOSF_OSG_ = comdat any

$_ZNSt8_Rb_treeImSt4pairIKmN8proxygen9ByteEvent10EventFlagsEESt10_Select1stIS5_ESt4lessImESaIS5_EE14_M_insert_nodeEPSt18_Rb_tree_node_baseSD_PSt13_Rb_tree_nodeIS5_E = comdat any

$_ZNR5folly8ExpectedImN8proxygen12WebTransport9ErrorCodeEE5valueEv = comdat any

$_ZNK5folly8ExpectedImN8proxygen12WebTransport9ErrorCodeEE12requireValueEv = comdat any

$_ZNR5folly15expected_detail15ExpectedStorageImN8proxygen12WebTransport9ErrorCodeELNS0_11StorageTypeE0EE5valueEv = comdat any

$_ZNK5folly8ExpectedImN8proxygen12WebTransport9ErrorCodeEE8hasErrorEv = comdat any

$_ZN5folly6detail16throw_exception_INS_17BadExpectedAccessIN8proxygen12WebTransport9ErrorCodeEEEJS5_EEEvDpT0_ = comdat any

$_ZN5folly15throw_exceptionINS_17BadExpectedAccessIN8proxygen12WebTransport9ErrorCodeEEEEEvOT_ = comdat any

$_ZN5folly17BadExpectedAccessIN8proxygen12WebTransport9ErrorCodeEEC2ES3_ = comdat any

$_ZN5folly17BadExpectedAccessIN8proxygen12WebTransport9ErrorCodeEED2Ev = comdat any

$_ZN5folly17BadExpectedAccessIN8proxygen12WebTransport9ErrorCodeEEC2EOS4_ = comdat any

$_ZN5folly17BadExpectedAccessIN8proxygen12WebTransport9ErrorCodeEED0Ev = comdat any

$_ZNSt8_Rb_treeImSt4pairIKmN8proxygen15HTTPTransaction19TxnStreamReadHandleEESt10_Select1stIS5_ESt4lessImESaIS5_EE17_M_emplace_uniqueIJRKSt21piecewise_construct_tSt5tupleIJRmEESG_IJRS3_SH_EEEEES0_ISt17_Rb_tree_iteratorIS5_EbEDpOT_ = comdat any

$_ZNSt8_Rb_treeImSt4pairIKmN8proxygen15HTTPTransaction19TxnStreamReadHandleEESt10_Select1stIS5_ESt4lessImESaIS5_EE10_Auto_nodeC2IJRKSt21piecewise_construct_tSt5tupleIJRmEESH_IJRS3_SI_EEEEERSB_DpOT_ = comdat any

$_ZNSt8_Rb_treeImSt4pairIKmN8proxygen15HTTPTransaction19TxnStreamReadHandleEESt10_Select1stIS5_ESt4lessImESaIS5_EE24_M_get_insert_unique_posERS1_ = comdat any

$_ZNKSt8_Rb_treeImSt4pairIKmN8proxygen15HTTPTransaction19TxnStreamReadHandleEESt10_Select1stIS5_ESt4lessImESaIS5_EE10_Auto_node6_M_keyEv = comdat any

$_ZNSt8_Rb_treeImSt4pairIKmN8proxygen15HTTPTransaction19TxnStreamReadHandleEESt10_Select1stIS5_ESt4lessImESaIS5_EE10_Auto_node9_M_insertES0_IPSt18_Rb_tree_node_baseSE_E = comdat any

$_ZNSt4pairISt17_Rb_tree_iteratorIS_IKmN8proxygen15HTTPTransaction19TxnStreamReadHandleEEEbEC2IS6_bTnNSt9enable_ifIXaaclsr5_PCCPE22_MoveConstructiblePairIT_T0_EEclsr5_PCCPE30_ImplicitlyMoveConvertiblePairISA_SB_EEEbE4typeELb1EEEOSA_OSB_ = comdat any

$_ZNSt8_Rb_treeImSt4pairIKmN8proxygen15HTTPTransaction19TxnStreamReadHandleEESt10_Select1stIS5_ESt4lessImESaIS5_EE10_Auto_nodeD2Ev = comdat any

$_ZNSt8_Rb_treeImSt4pairIKmN8proxygen15HTTPTransaction19TxnStreamReadHandleEESt10_Select1stIS5_ESt4lessImESaIS5_EE14_M_create_nodeIJRKSt21piecewise_construct_tSt5tupleIJRmEESG_IJRS3_SH_EEEEEPSt13_Rb_tree_nodeIS5_EDpOT_ = comdat any

$_ZNSt8_Rb_treeImSt4pairIKmN8proxygen15HTTPTransaction19TxnStreamReadHandleEESt10_Select1stIS5_ESt4lessImESaIS5_EE11_M_get_nodeEv = comdat any

$_ZNSt8_Rb_treeImSt4pairIKmN8proxygen15HTTPTransaction19TxnStreamReadHandleEESt10_Select1stIS5_ESt4lessImESaIS5_EE17_M_construct_nodeIJRKSt21piecewise_construct_tSt5tupleIJRmEESG_IJRS3_SH_EEEEEvPSt13_Rb_tree_nodeIS5_EDpOT_ = comdat any

$_ZNSt16allocator_traitsISaISt13_Rb_tree_nodeISt4pairIKmN8proxygen15HTTPTransaction19TxnStreamReadHandleEEEEE8allocateERS8_m = comdat any

$_ZNSt15__new_allocatorISt13_Rb_tree_nodeISt4pairIKmN8proxygen15HTTPTransaction19TxnStreamReadHandleEEEE8allocateEmPKv = comdat any

$_ZNKSt15__new_allocatorISt13_Rb_tree_nodeISt4pairIKmN8proxygen15HTTPTransaction19TxnStreamReadHandleEEEE11_M_max_sizeEv = comdat any

$_ZNSt16allocator_traitsISaISt13_Rb_tree_nodeISt4pairIKmN8proxygen15HTTPTransaction19TxnStreamReadHandleEEEEE9constructIS6_JRKSt21piecewise_construct_tSt5tupleIJRmEESE_IJRS4_SF_EEEEEvRS8_PT_DpOT0_ = comdat any

$_ZNSt15__new_allocatorISt13_Rb_tree_nodeISt4pairIKmN8proxygen15HTTPTransaction19TxnStreamReadHandleEEEE9constructIS6_JRKSt21piecewise_construct_tSt5tupleIJRmEESD_IJRS4_SE_EEEEEvPT_DpOT0_ = comdat any

$_ZNSt5tupleIJRmEEC2EOS1_ = comdat any

$_ZNSt5tupleIJRN8proxygen15HTTPTransactionERmEEC2EOS4_ = comdat any

$_ZNSt4pairIKmN8proxygen15HTTPTransaction19TxnStreamReadHandleEEC2IJRmEJRS2_S6_EEESt21piecewise_construct_tSt5tupleIJDpT_EES9_IJDpT0_EE = comdat any

$_ZNSt11_Tuple_implILm0EJRmEEC2EOS1_ = comdat any

$_ZNSt11_Tuple_implILm0EJRN8proxygen15HTTPTransactionERmEEC2EOS4_ = comdat any

$_ZNSt11_Tuple_implILm1EJRmEEC2EOS1_ = comdat any

$_ZNSt4pairIKmN8proxygen15HTTPTransaction19TxnStreamReadHandleEEC2IJRmEJLm0EEJRS2_S6_EJLm0ELm1EEEERSt5tupleIJDpT_EERS8_IJDpT1_EESt12_Index_tupleIJXspT0_EEESH_IJXspT2_EEE = comdat any

$_ZSt3getILm0EJRmEERNSt13tuple_elementIXT_ESt5tupleIJDpT0_EEE4typeERS5_ = comdat any

$_ZSt3getILm0EJRN8proxygen15HTTPTransactionERmEERNSt13tuple_elementIXT_ESt5tupleIJDpT0_EEE4typeERS8_ = comdat any

$_ZSt3getILm1EJRN8proxygen15HTTPTransactionERmEERNSt13tuple_elementIXT_ESt5tupleIJDpT0_EEE4typeERS8_ = comdat any

$_ZN8proxygen15HTTPTransaction19TxnStreamReadHandleC2ERS0_m = comdat any

$_ZSt12__get_helperILm0ERmJEERT0_RSt11_Tuple_implIXT_EJS1_DpT1_EE = comdat any

$_ZNSt11_Tuple_implILm0EJRmEE7_M_headERS1_ = comdat any

$_ZNSt10_Head_baseILm0ERmLb0EE7_M_headERS1_ = comdat any

$_ZSt12__get_helperILm0ERN8proxygen15HTTPTransactionEJRmEERT0_RSt11_Tuple_implIXT_EJS4_DpT1_EE = comdat any

$_ZNSt11_Tuple_implILm0EJRN8proxygen15HTTPTransactionERmEE7_M_headERS4_ = comdat any

$_ZNSt10_Head_baseILm0ERN8proxygen15HTTPTransactionELb0EE7_M_headERS3_ = comdat any

$_ZSt12__get_helperILm1ERmJEERT0_RSt11_Tuple_implIXT_EJS1_DpT1_EE = comdat any

$_ZNSt11_Tuple_implILm1EJRmEE7_M_headERS1_ = comdat any

$_ZNSt10_Head_baseILm1ERmLb0EE7_M_headERS1_ = comdat any

$_ZN8proxygen12WebTransport16StreamReadHandleC2Ev = comdat any

$_ZN5folly8OptionalINS_7PromiseIN8proxygen12WebTransport10StreamDataEEEEC2Ev = comdat any

$_ZN5folly8OptionalIjEC2Ev = comdat any

$_ZN5folly18CancellationSourceC2Ev = comdat any

$_ZN8proxygen12WebTransport16StreamHandleBaseC2Ev = comdat any

$_ZN8proxygen12WebTransport16StreamReadHandleD2Ev = comdat any

$_ZN8proxygen12WebTransport16StreamReadHandleD0Ev = comdat any

$_ZN8proxygen12WebTransport16StreamHandleBaseD2Ev = comdat any

$_ZN8proxygen12WebTransport16StreamHandleBaseD0Ev = comdat any

$_ZN5folly8OptionalINS_7PromiseIN8proxygen12WebTransport10StreamDataEEEE31StorageNonTriviallyDestructibleC2Ev = comdat any

$_ZN5folly8OptionalIjE28StorageTriviallyDestructibleC2Ev = comdat any

$_ZN5folly6detail17CancellationState6createEv = comdat any

$_ZN5folly6detail17CancellationStateC2Ev = comdat any

$_ZNSt10unique_ptrIN5folly6detail17CancellationStateENS1_30CancellationStateSourceDeleterEEC2IS3_vEEPS2_ = comdat any

$_ZNSt6atomicImEC2Em = comdat any

$_ZNSt6thread2idC2Ev = comdat any

$_ZNSt13__atomic_baseImEC2Em = comdat any

$_ZNSt15__uniq_ptr_dataIN5folly6detail17CancellationStateENS1_30CancellationStateSourceDeleterELb1ELb1EECI2St15__uniq_ptr_implIS2_S3_EEPS2_ = comdat any

$_ZNSt15__uniq_ptr_implIN5folly6detail17CancellationStateENS1_30CancellationStateSourceDeleterEEC2EPS2_ = comdat any

$_ZNSt5tupleIJPN5folly6detail17CancellationStateENS1_30CancellationStateSourceDeleterEEEC2ILb1ETnNSt9enable_ifIXclsr17_TupleConstraintsIXT_ES3_S4_EE37__is_implicitly_default_constructibleEEbE4typeELb1EEEv = comdat any

$_ZNSt11_Tuple_implILm0EJPN5folly6detail17CancellationStateENS1_30CancellationStateSourceDeleterEEEC2Ev = comdat any

$_ZNSt11_Tuple_implILm1EJN5folly6detail30CancellationStateSourceDeleterEEEC2Ev = comdat any

$_ZNSt10_Head_baseILm1EN5folly6detail30CancellationStateSourceDeleterELb1EEC2Ev = comdat any

$_ZNSt4pairIPSt18_Rb_tree_node_baseS1_EC2IRPSt13_Rb_tree_nodeIS_IKmN8proxygen15HTTPTransaction19TxnStreamReadHandleEEERS1_TnNSt9enable_ifIXaaclsr5_PCCPE22_MoveConstructiblePairIT_T0_EEclsr5_PCCPE30_ImplicitlyMoveConvertiblePairISF_SG_EEEbE4typeELb1EEEOSF_OSG_ = comdat any

$_ZNSt17_Rb_tree_iteratorISt4pairIKmN8proxygen15HTTPTransaction19TxnStreamReadHandleEEEmmEv = comdat any

$_ZNSt8_Rb_treeImSt4pairIKmN8proxygen15HTTPTransaction19TxnStreamReadHandleEESt10_Select1stIS5_ESt4lessImESaIS5_EE14_M_insert_nodeEPSt18_Rb_tree_node_baseSD_PSt13_Rb_tree_nodeIS5_E = comdat any

$_ZNSt8_Rb_treeImSt4pairIKmN8proxygen15HTTPTransaction20TxnStreamWriteHandleEESt10_Select1stIS5_ESt4lessImESaIS5_EE17_M_emplace_uniqueIJRKSt21piecewise_construct_tSt5tupleIJRmEESG_IJRS3_SH_EEEEES0_ISt17_Rb_tree_iteratorIS5_EbEDpOT_ = comdat any

$_ZNSt8_Rb_treeImSt4pairIKmN8proxygen15HTTPTransaction20TxnStreamWriteHandleEESt10_Select1stIS5_ESt4lessImESaIS5_EE10_Auto_nodeC2IJRKSt21piecewise_construct_tSt5tupleIJRmEESH_IJRS3_SI_EEEEERSB_DpOT_ = comdat any

$_ZNSt8_Rb_treeImSt4pairIKmN8proxygen15HTTPTransaction20TxnStreamWriteHandleEESt10_Select1stIS5_ESt4lessImESaIS5_EE24_M_get_insert_unique_posERS1_ = comdat any

$_ZNKSt8_Rb_treeImSt4pairIKmN8proxygen15HTTPTransaction20TxnStreamWriteHandleEESt10_Select1stIS5_ESt4lessImESaIS5_EE10_Auto_node6_M_keyEv = comdat any

$_ZNSt8_Rb_treeImSt4pairIKmN8proxygen15HTTPTransaction20TxnStreamWriteHandleEESt10_Select1stIS5_ESt4lessImESaIS5_EE10_Auto_node9_M_insertES0_IPSt18_Rb_tree_node_baseSE_E = comdat any

$_ZNSt4pairISt17_Rb_tree_iteratorIS_IKmN8proxygen15HTTPTransaction20TxnStreamWriteHandleEEEbEC2IS6_bTnNSt9enable_ifIXaaclsr5_PCCPE22_MoveConstructiblePairIT_T0_EEclsr5_PCCPE30_ImplicitlyMoveConvertiblePairISA_SB_EEEbE4typeELb1EEEOSA_OSB_ = comdat any

$_ZNSt8_Rb_treeImSt4pairIKmN8proxygen15HTTPTransaction20TxnStreamWriteHandleEESt10_Select1stIS5_ESt4lessImESaIS5_EE10_Auto_nodeD2Ev = comdat any

$_ZNSt8_Rb_treeImSt4pairIKmN8proxygen15HTTPTransaction20TxnStreamWriteHandleEESt10_Select1stIS5_ESt4lessImESaIS5_EE14_M_create_nodeIJRKSt21piecewise_construct_tSt5tupleIJRmEESG_IJRS3_SH_EEEEEPSt13_Rb_tree_nodeIS5_EDpOT_ = comdat any

$_ZNSt8_Rb_treeImSt4pairIKmN8proxygen15HTTPTransaction20TxnStreamWriteHandleEESt10_Select1stIS5_ESt4lessImESaIS5_EE11_M_get_nodeEv = comdat any

$_ZNSt8_Rb_treeImSt4pairIKmN8proxygen15HTTPTransaction20TxnStreamWriteHandleEESt10_Select1stIS5_ESt4lessImESaIS5_EE17_M_construct_nodeIJRKSt21piecewise_construct_tSt5tupleIJRmEESG_IJRS3_SH_EEEEEvPSt13_Rb_tree_nodeIS5_EDpOT_ = comdat any

$_ZNSt16allocator_traitsISaISt13_Rb_tree_nodeISt4pairIKmN8proxygen15HTTPTransaction20TxnStreamWriteHandleEEEEE8allocateERS8_m = comdat any

$_ZNSt15__new_allocatorISt13_Rb_tree_nodeISt4pairIKmN8proxygen15HTTPTransaction20TxnStreamWriteHandleEEEE8allocateEmPKv = comdat any

$_ZNKSt15__new_allocatorISt13_Rb_tree_nodeISt4pairIKmN8proxygen15HTTPTransaction20TxnStreamWriteHandleEEEE11_M_max_sizeEv = comdat any

$_ZNSt16allocator_traitsISaISt13_Rb_tree_nodeISt4pairIKmN8proxygen15HTTPTransaction20TxnStreamWriteHandleEEEEE9constructIS6_JRKSt21piecewise_construct_tSt5tupleIJRmEESE_IJRS4_SF_EEEEEvRS8_PT_DpOT0_ = comdat any

$_ZNSt15__new_allocatorISt13_Rb_tree_nodeISt4pairIKmN8proxygen15HTTPTransaction20TxnStreamWriteHandleEEEE9constructIS6_JRKSt21piecewise_construct_tSt5tupleIJRmEESD_IJRS4_SE_EEEEEvPT_DpOT0_ = comdat any

$_ZNSt4pairIKmN8proxygen15HTTPTransaction20TxnStreamWriteHandleEEC2IJRmEJRS2_S6_EEESt21piecewise_construct_tSt5tupleIJDpT_EES9_IJDpT0_EE = comdat any

$_ZNSt4pairIKmN8proxygen15HTTPTransaction20TxnStreamWriteHandleEEC2IJRmEJLm0EEJRS2_S6_EJLm0ELm1EEEERSt5tupleIJDpT_EERS8_IJDpT1_EESt12_Index_tupleIJXspT0_EEESH_IJXspT2_EEE = comdat any

$_ZN8proxygen15HTTPTransaction20TxnStreamWriteHandleC2ERS0_m = comdat any

$_ZN8proxygen12WebTransport17StreamWriteHandleC2Ev = comdat any

$_ZN5folly8OptionalINS_7PromiseINS_4UnitEEEEC2Ev = comdat any

$_ZN8proxygen12WebTransport17StreamWriteHandleD2Ev = comdat any

$_ZN8proxygen12WebTransport17StreamWriteHandleD0Ev = comdat any

$_ZN5folly8OptionalINS_7PromiseINS_4UnitEEEE31StorageNonTriviallyDestructibleC2Ev = comdat any

$_ZNSt4pairIPSt18_Rb_tree_node_baseS1_EC2IRPSt13_Rb_tree_nodeIS_IKmN8proxygen15HTTPTransaction20TxnStreamWriteHandleEEERS1_TnNSt9enable_ifIXaaclsr5_PCCPE22_MoveConstructiblePairIT_T0_EEclsr5_PCCPE30_ImplicitlyMoveConvertiblePairISF_SG_EEEbE4typeELb1EEEOSF_OSG_ = comdat any

$_ZNSt17_Rb_tree_iteratorISt4pairIKmN8proxygen15HTTPTransaction20TxnStreamWriteHandleEEEmmEv = comdat any

$_ZNSt8_Rb_treeImSt4pairIKmN8proxygen15HTTPTransaction20TxnStreamWriteHandleEESt10_Select1stIS5_ESt4lessImESaIS5_EE14_M_insert_nodeEPSt18_Rb_tree_node_baseSD_PSt13_Rb_tree_nodeIS5_E = comdat any

$_ZNSt8_Rb_treeImSt4pairIKmN8proxygen15HTTPTransaction20TxnStreamWriteHandleEESt10_Select1stIS5_ESt4lessImESaIS5_EE5eraseERS1_ = comdat any

$_ZNSt8_Rb_treeImSt4pairIKmN8proxygen15HTTPTransaction20TxnStreamWriteHandleEESt10_Select1stIS5_ESt4lessImESaIS5_EE11equal_rangeERS1_ = comdat any

$_ZNKSt8_Rb_treeImSt4pairIKmN8proxygen15HTTPTransaction20TxnStreamWriteHandleEESt10_Select1stIS5_ESt4lessImESaIS5_EE4sizeEv = comdat any

$_ZNSt8_Rb_treeImSt4pairIKmN8proxygen15HTTPTransaction20TxnStreamWriteHandleEESt10_Select1stIS5_ESt4lessImESaIS5_EE12_M_erase_auxESt23_Rb_tree_const_iteratorIS5_ESD_ = comdat any

$_ZNSt23_Rb_tree_const_iteratorISt4pairIKmN8proxygen15HTTPTransaction20TxnStreamWriteHandleEEEC2ERKSt17_Rb_tree_iteratorIS5_E = comdat any

$_ZNSt8_Rb_treeImSt4pairIKmN8proxygen15HTTPTransaction20TxnStreamWriteHandleEESt10_Select1stIS5_ESt4lessImESaIS5_EE14_M_upper_boundEPSt13_Rb_tree_nodeIS5_EPSt18_Rb_tree_node_baseRS1_ = comdat any

$_ZNSt4pairISt17_Rb_tree_iteratorIS_IKmN8proxygen15HTTPTransaction20TxnStreamWriteHandleEEES6_EC2IS6_S6_TnNSt9enable_ifIXaaclsr5_PCCPE22_MoveConstructiblePairIT_T0_EEclsr5_PCCPE30_ImplicitlyMoveConvertiblePairISA_SB_EEEbE4typeELb1EEEOSA_OSB_ = comdat any

$_ZSteqRKSt23_Rb_tree_const_iteratorISt4pairIKmN8proxygen15HTTPTransaction20TxnStreamWriteHandleEEES8_ = comdat any

$_ZStneRKSt23_Rb_tree_const_iteratorISt4pairIKmN8proxygen15HTTPTransaction20TxnStreamWriteHandleEEES8_ = comdat any

$_ZNSt8_Rb_treeImSt4pairIKmN8proxygen15HTTPTransaction20TxnStreamWriteHandleEESt10_Select1stIS5_ESt4lessImESaIS5_EE12_M_erase_auxESt23_Rb_tree_const_iteratorIS5_E = comdat any

$_ZNSt23_Rb_tree_const_iteratorISt4pairIKmN8proxygen15HTTPTransaction20TxnStreamWriteHandleEEEppEi = comdat any

$_ZNSt8_Rb_treeImSt4pairIKmN8proxygen15HTTPTransaction19TxnStreamReadHandleEESt10_Select1stIS5_ESt4lessImESaIS5_EE5eraseERS1_ = comdat any

$_ZNSt8_Rb_treeImSt4pairIKmN8proxygen15HTTPTransaction19TxnStreamReadHandleEESt10_Select1stIS5_ESt4lessImESaIS5_EE11equal_rangeERS1_ = comdat any

$_ZNKSt8_Rb_treeImSt4pairIKmN8proxygen15HTTPTransaction19TxnStreamReadHandleEESt10_Select1stIS5_ESt4lessImESaIS5_EE4sizeEv = comdat any

$_ZNSt8_Rb_treeImSt4pairIKmN8proxygen15HTTPTransaction19TxnStreamReadHandleEESt10_Select1stIS5_ESt4lessImESaIS5_EE12_M_erase_auxESt23_Rb_tree_const_iteratorIS5_ESD_ = comdat any

$_ZNSt23_Rb_tree_const_iteratorISt4pairIKmN8proxygen15HTTPTransaction19TxnStreamReadHandleEEEC2ERKSt17_Rb_tree_iteratorIS5_E = comdat any

$_ZNSt8_Rb_treeImSt4pairIKmN8proxygen15HTTPTransaction19TxnStreamReadHandleEESt10_Select1stIS5_ESt4lessImESaIS5_EE14_M_upper_boundEPSt13_Rb_tree_nodeIS5_EPSt18_Rb_tree_node_baseRS1_ = comdat any

$_ZNSt4pairISt17_Rb_tree_iteratorIS_IKmN8proxygen15HTTPTransaction19TxnStreamReadHandleEEES6_EC2IS6_S6_TnNSt9enable_ifIXaaclsr5_PCCPE22_MoveConstructiblePairIT_T0_EEclsr5_PCCPE30_ImplicitlyMoveConvertiblePairISA_SB_EEEbE4typeELb1EEEOSA_OSB_ = comdat any

$_ZSteqRKSt23_Rb_tree_const_iteratorISt4pairIKmN8proxygen15HTTPTransaction19TxnStreamReadHandleEEES8_ = comdat any

$_ZStneRKSt23_Rb_tree_const_iteratorISt4pairIKmN8proxygen15HTTPTransaction19TxnStreamReadHandleEEES8_ = comdat any

$_ZNSt8_Rb_treeImSt4pairIKmN8proxygen15HTTPTransaction19TxnStreamReadHandleEESt10_Select1stIS5_ESt4lessImESaIS5_EE12_M_erase_auxESt23_Rb_tree_const_iteratorIS5_E = comdat any

$_ZNSt23_Rb_tree_const_iteratorISt4pairIKmN8proxygen15HTTPTransaction19TxnStreamReadHandleEEEppEi = comdat any

$_ZNKSt5dequeIN8proxygen9HTTPEventESaIS1_EE5emptyEv = comdat any

$_ZSteqRKSt15_Deque_iteratorIN8proxygen9HTTPEventERS1_PS1_ES6_ = comdat any

$_ZNSt5dequeIN8proxygen9HTTPEventESaIS1_EE5frontEv = comdat any

$_ZNSt5queueIN8proxygen9HTTPEventESt5dequeIS1_SaIS1_EEE3popEv = comdat any

$_ZNSt5dequeIN8proxygen9HTTPEventESaIS1_EE9pop_frontEv = comdat any

$_ZNSt16allocator_traitsISaIN8proxygen9HTTPEventEEE7destroyIS1_EEvRS2_PT_ = comdat any

$_ZNSt5dequeIN8proxygen9HTTPEventESaIS1_EE16_M_pop_front_auxEv = comdat any

$_ZNSt15__new_allocatorIN8proxygen9HTTPEventEE7destroyIS1_EEvPT_ = comdat any

$_ZNSt5queueIN8proxygen9HTTPEventESt5dequeIS1_SaIS1_EEEC2IS4_vEEv = comdat any

$_ZNSt10unique_ptrISt5queueIN8proxygen9HTTPEventESt5dequeIS2_SaIS2_EEESt14default_deleteIS6_EEC2IS8_vEEPS6_ = comdat any

$_ZNSt5dequeIN8proxygen9HTTPEventESaIS1_EEC2Ev = comdat any

$_ZNSt11_Deque_baseIN8proxygen9HTTPEventESaIS1_EEC2Ev = comdat any

$_ZNSt11_Deque_baseIN8proxygen9HTTPEventESaIS1_EE11_Deque_implC2Ev = comdat any

$_ZNSt11_Deque_baseIN8proxygen9HTTPEventESaIS1_EE17_M_initialize_mapEm = comdat any

$_ZNSaIN8proxygen9HTTPEventEEC2Ev = comdat any

$_ZNSt11_Deque_baseIN8proxygen9HTTPEventESaIS1_EE16_Deque_impl_dataC2Ev = comdat any

$_ZNSt15__new_allocatorIN8proxygen9HTTPEventEEC2Ev = comdat any

$_ZNSt15_Deque_iteratorIN8proxygen9HTTPEventERS1_PS1_EC2Ev = comdat any

$_ZNSt11_Deque_baseIN8proxygen9HTTPEventESaIS1_EE15_M_create_nodesEPPS1_S5_ = comdat any

$_ZNSt15__uniq_ptr_dataISt5queueIN8proxygen9HTTPEventESt5dequeIS2_SaIS2_EEESt14default_deleteIS6_ELb1ELb1EECI2St15__uniq_ptr_implIS6_S8_EEPS6_ = comdat any

$_ZNSt15__uniq_ptr_implISt5queueIN8proxygen9HTTPEventESt5dequeIS2_SaIS2_EEESt14default_deleteIS6_EEC2EPS6_ = comdat any

$_ZN5folly8OptionalINSt6chrono8durationIlSt5ratioILl1ELl1000EEEEE6assignERKS5_ = comdat any

$_ZN5folly17exception_wrapperC2IN8proxygen12WebTransport9ExceptionEJRjETnNSt9enable_ifIXscbsr22IsRegularExceptionTypeIT_EE5valueElE4typeELl221EEESt15in_place_type_tIS7_EDpOT0_ = comdat any

$_ZN5folly17exception_wrapperC2IN8proxygen12WebTransport9ExceptionEJRjEEENS0_11PrivateCtorESt15in_place_type_tIT_EDpOT0_ = comdat any

$_ZSt18make_exception_ptrIN8proxygen12WebTransport9ExceptionEENSt15__exception_ptr13exception_ptrET_ = comdat any

$_ZNSt15__exception_ptr12__dest_thunkIN8proxygen12WebTransport9ExceptionEEEvPv = comdat any

$_ZN8proxygen12WebTransport9ExceptionC2ERKS1_ = comdat any

$_ZN5folly14makeSemiFutureINS_4UnitEEENS_10SemiFutureIT_EENS_3TryIS3_EE = comdat any

$_ZN5folly10SemiFutureINS_4UnitEEC2EPNS_7futures6detail4CoreIS1_EE = comdat any

$_ZNK5folly8ExpectedIN8proxygen15HTTPTransaction9Transport7FCStateENS1_12WebTransport9ErrorCodeEE12requireErrorEv = comdat any

$_ZNR5folly15expected_detail15ExpectedStorageIN8proxygen15HTTPTransaction9Transport7FCStateENS2_12WebTransport9ErrorCodeELNS0_11StorageTypeE0EE5errorEv = comdat any

$_ZNR5folly8ExpectedIN8proxygen15HTTPTransaction9Transport7FCStateENS1_12WebTransport9ErrorCodeEE5valueEv = comdat any

$_ZNK5folly8ExpectedIN8proxygen15HTTPTransaction9Transport7FCStateENS1_12WebTransport9ErrorCodeEE12requireValueEv = comdat any

$_ZNR5folly15expected_detail15ExpectedStorageIN8proxygen15HTTPTransaction9Transport7FCStateENS2_12WebTransport9ErrorCodeELNS0_11StorageTypeE0EE5valueEv = comdat any

$_ZNK5folly8ExpectedIN8proxygen15HTTPTransaction9Transport7FCStateENS1_12WebTransport9ErrorCodeEE8hasValueEv = comdat any

$_ZN5folly7PromiseINS_4UnitEEC2Ev = comdat any

$_ZN5folly7PromiseINS_4UnitEE13getSemiFutureEv = comdat any

$_ZSt9make_pairIN5folly7PromiseINS0_4UnitEEENS0_10SemiFutureIS2_EEESt4pairINSt25__strip_reference_wrapperINSt5decayIT_E4typeEE6__typeENS7_INS8_IT0_E4typeEE6__typeEEOS9_OSE_ = comdat any

$_ZN5folly7futures6detail4CoreINS_4UnitEE4makeEv = comdat any

$_ZN5folly7futures6detail4CoreINS_4UnitEEC2Ev = comdat any

$_ZN5folly7PromiseINS_4UnitEE7getCoreEv = comdat any

$_ZN5folly6detail16throw_exception_INS_22FutureAlreadyRetrievedEJEEEvDpT0_ = comdat any

$_ZN5folly15throw_exceptionINS_22FutureAlreadyRetrievedEEEvOT_ = comdat any

$_ZN5folly22FutureAlreadyRetrievedC2Ev = comdat any

$_ZN5folly22FutureAlreadyRetrievedD2Ev = comdat any

$_ZN5folly22FutureAlreadyRetrievedC2EOS0_ = comdat any

$_ZN5folly22FutureAlreadyRetrievedD0Ev = comdat any

$_ZN5folly7PromiseINS_4UnitEE11getCoreImplINS_7futures6detail4CoreIS1_EEEERT_PS8_ = comdat any

$_ZN5folly6detail16throw_exception_INS_14PromiseInvalidEJEEEvDpT0_ = comdat any

$_ZN5folly15throw_exceptionINS_14PromiseInvalidEEEvOT_ = comdat any

$_ZN5folly14PromiseInvalidC2Ev = comdat any

$_ZN5folly14PromiseInvalidD2Ev = comdat any

$_ZN5folly14PromiseInvalidC2EOS0_ = comdat any

$_ZN5folly14PromiseInvalidD0Ev = comdat any

$_ZNSt4pairIN5folly7PromiseINS0_4UnitEEENS0_10SemiFutureIS2_EEEC2IS3_S5_TnNSt9enable_ifIXaaclsr5_PCCPE22_MoveConstructiblePairIT_T0_EEclsr5_PCCPE30_ImplicitlyMoveConvertiblePairIS9_SA_EEEbE4typeELb1EEEOS9_OSA_ = comdat any

$_ZN5folly7PromiseINS_4UnitEEC2EOS2_ = comdat any

$_ZSt8exchangeIbbET_RS0_OT0_ = comdat any

$_ZSt8exchangeIPN5folly7futures6detail4CoreINS0_4UnitEEEDnET_RS7_OT0_ = comdat any

$_ZSt10__exchangeIbbET_RS0_OT0_ = comdat any

$_ZSt10__exchangeIPN5folly7futures6detail4CoreINS0_4UnitEEEDnET_RS7_OT0_ = comdat any

$_ZN5folly8OptionalINS_7PromiseINS_4UnitEEEE9constructIJS3_EEEvDpOT_ = comdat any

$_ZN5folly7PromiseINS_4UnitEE12setExceptionENS_17exception_wrapperE = comdat any

$_ZN5folly22make_exception_wrapperIN8proxygen12WebTransport9ExceptionEJS3_EEENS_17exception_wrapperEDpOT0_ = comdat any

$_ZN5folly7PromiseINS_4UnitEE6setTryEONS_3TryIS1_EE = comdat any

$_ZNK5folly7PromiseINS_4UnitEE16throwIfFulfilledEv = comdat any

$_ZNK5folly7PromiseINS_4UnitEE7getCoreEv = comdat any

$_ZN5folly6detail16throw_exception_INS_23PromiseAlreadySatisfiedEJEEEvDpT0_ = comdat any

$_ZN5folly15throw_exceptionINS_23PromiseAlreadySatisfiedEEEvOT_ = comdat any

$_ZN5folly23PromiseAlreadySatisfiedC2Ev = comdat any

$_ZN5folly23PromiseAlreadySatisfiedD2Ev = comdat any

$_ZN5folly23PromiseAlreadySatisfiedC2EOS0_ = comdat any

$_ZN5folly23PromiseAlreadySatisfiedD0Ev = comdat any

$_ZN5folly17exception_wrapperC2IN8proxygen12WebTransport9ExceptionEJS4_ETnNSt9enable_ifIXscbsr22IsRegularExceptionTypeIT_EE5valueElE4typeELl221EEESt15in_place_type_tIS6_EDpOT0_ = comdat any

$_ZN5folly17exception_wrapperC2IN8proxygen12WebTransport9ExceptionEJS4_EEENS0_11PrivateCtorESt15in_place_type_tIT_EDpOT0_ = comdat any

$_ZN8proxygen12WebTransport9ExceptionC2EOS1_ = comdat any

$_ZN5folly8OptionalIjE6assignERKj = comdat any

$_ZNK5folly8OptionalIjE8hasValueEv = comdat any

$_ZN5folly8OptionalIjE9constructIJRKjEEEvDpOT_ = comdat any

$_ZN5folly3TryINS_4UnitEECI2NS_6detail7TryBaseIS1_EEEOS1_ = comdat any

$_ZN5folly6detail7TryBaseINS_4UnitEEC2EOS2_ = comdat any

$_ZN5folly7PromiseIN8proxygen12WebTransport10StreamDataEE6setTryEONS_3TryIS3_EE = comdat any

$_ZN5folly3TryIN8proxygen12WebTransport10StreamDataEECI2NS_6detail7TryBaseIS3_EEEOS3_ = comdat any

$_ZNK5folly7PromiseIN8proxygen12WebTransport10StreamDataEE16throwIfFulfilledEv = comdat any

$_ZNK5folly7PromiseIN8proxygen12WebTransport10StreamDataEE7getCoreEv = comdat any

$_ZN5folly7PromiseIN8proxygen12WebTransport10StreamDataEE11getCoreImplINS_7futures6detail4CoreIS3_EEEERT_PSA_ = comdat any

$_ZN5folly6detail7TryBaseIN8proxygen12WebTransport10StreamDataEEC2EOS4_ = comdat any

$_ZN5folly7PromiseIN8proxygen12WebTransport10StreamDataEE12setExceptionENS_17exception_wrapperE = comdat any

$_ZN5folly14makeSemiFutureIN8proxygen12WebTransport10StreamDataEEENS_10SemiFutureIT_EENS_3TryIS5_EE = comdat any

$_ZN5folly7futures6detail4CoreIN8proxygen12WebTransport10StreamDataEE4makeEONS_3TryIS5_EE = comdat any

$_ZN5folly10SemiFutureIN8proxygen12WebTransport10StreamDataEEC2EPNS_7futures6detail4CoreIS3_EE = comdat any

$_ZN5folly7futures6detail4CoreIN8proxygen12WebTransport10StreamDataEEC2EONS_3TryIS5_EE = comdat any

$_ZN5folly7futures6detail12ResultHolderIN8proxygen12WebTransport10StreamDataEEC2Ev = comdat any

$_ZN5folly7futures6detail4CoreIN8proxygen12WebTransport10StreamDataEED2Ev = comdat any

$_ZN5folly7futures6detail4CoreIN8proxygen12WebTransport10StreamDataEED0Ev = comdat any

$_ZN5folly7futures6detail12ResultHolderIN8proxygen12WebTransport10StreamDataEED2Ev = comdat any

$_ZN5folly7futures6detail10FutureBaseIN8proxygen12WebTransport10StreamDataEEC2EPNS1_4CoreIS5_EE = comdat any

$_ZN5folly7PromiseIN8proxygen12WebTransport10StreamDataEEC2Ev = comdat any

$_ZN5folly7PromiseIN8proxygen12WebTransport10StreamDataEE13getSemiFutureEv = comdat any

$_ZSt9make_pairIN5folly7PromiseIN8proxygen12WebTransport10StreamDataEEENS0_10SemiFutureIS4_EEESt4pairINSt25__strip_reference_wrapperINSt5decayIT_E4typeEE6__typeENS9_INSA_IT0_E4typeEE6__typeEEOSB_OSG_ = comdat any

$_ZN5folly7futures6detail4CoreIN8proxygen12WebTransport10StreamDataEE4makeEv = comdat any

$_ZN5folly7futures6detail4CoreIN8proxygen12WebTransport10StreamDataEEC2Ev = comdat any

$_ZN5folly7PromiseIN8proxygen12WebTransport10StreamDataEE7getCoreEv = comdat any

$_ZNSt4pairIN5folly7PromiseIN8proxygen12WebTransport10StreamDataEEENS0_10SemiFutureIS4_EEEC2IS5_S7_TnNSt9enable_ifIXaaclsr5_PCCPE22_MoveConstructiblePairIT_T0_EEclsr5_PCCPE30_ImplicitlyMoveConvertiblePairISB_SC_EEEbE4typeELb1EEEOSB_OSC_ = comdat any

$_ZN5folly7PromiseIN8proxygen12WebTransport10StreamDataEEC2EOS4_ = comdat any

$_ZSt8exchangeIPN5folly7futures6detail4CoreIN8proxygen12WebTransport10StreamDataEEEDnET_RS9_OT0_ = comdat any

$_ZSt10__exchangeIPN5folly7futures6detail4CoreIN8proxygen12WebTransport10StreamDataEEEDnET_RS9_OT0_ = comdat any

$_ZN5folly8OptionalINS_7PromiseIN8proxygen12WebTransport10StreamDataEEEE9constructIJS5_EEEvDpOT_ = comdat any

$_ZN5folly10makeFutureIN8proxygen12WebTransport10StreamDataEEENS_6FutureIT_EENS_3TryIS5_EE = comdat any

$_ZN5folly6FutureIN8proxygen12WebTransport10StreamDataEEC2EPNS_7futures6detail4CoreIS3_EE = comdat any

$_ZN5folly7futures6detail10FutureBaseIN8proxygen12WebTransport10StreamDataEEC2EONS_6FutureIS5_EE = comdat any

$_ZN5folly7futures6detail10FutureBaseIN8proxygen12WebTransport10StreamDataEE11setExecutorENS1_19KeepAliveOrDeferredE = comdat any

$_ZN5folly7futures6detail10FutureBaseIN8proxygen12WebTransport10StreamDataEE7getCoreEv = comdat any

$_ZN5folly7futures6detail10FutureBaseIN8proxygen12WebTransport10StreamDataEE11getCoreImplIS6_EEDcRT_ = comdat any

$_ZTSN5folly15ConversionErrorE = comdat any

$_ZTSN5folly19ConversionErrorBaseE = comdat any

$_ZTIN5folly19ConversionErrorBaseE = comdat any

$_ZTIN5folly15ConversionErrorE = comdat any

$_ZSt19piecewise_construct = comdat any

$_ZTSN8proxygen12WebTransport17StreamWriteHandleE = comdat any

$_ZTSN8proxygen12WebTransport16StreamHandleBaseE = comdat any

$_ZTIN8proxygen12WebTransport16StreamHandleBaseE = comdat any

$_ZTIN8proxygen12WebTransport17StreamWriteHandleE = comdat any

$_ZTSN8proxygen12WebTransport16StreamReadHandleE = comdat any

$_ZTIN8proxygen12WebTransport16StreamReadHandleE = comdat any

$_ZTSN5folly16HHWheelTimerBaseINSt6chrono8durationIlSt5ratioILl1ELl1000EEEEE8CallbackE = comdat any

$_ZTSN5boost9intrusive14list_base_hookIJNS0_9link_modeILNS0_14link_mode_typeE2EEEEEE = comdat any

$_ZTSN5boost9intrusive12generic_hookILNS0_10algo_typesE0ENS0_16list_node_traitsIPvEENS0_7dft_tagELNS0_14link_mode_typeE2ELNS0_14base_hook_typeE1EEE = comdat any

$_ZTSN5boost9intrusive11node_holderINS0_9list_nodeIPvEENS0_7dft_tagELj1EEE = comdat any

$_ZTSN5boost9intrusive9list_nodeIPvEE = comdat any

$_ZTIN5boost9intrusive9list_nodeIPvEE = comdat any

$_ZTIN5boost9intrusive11node_holderINS0_9list_nodeIPvEENS0_7dft_tagELj1EEE = comdat any

$_ZTSN5boost9intrusive17hook_tags_definerINS0_12generic_hookILNS0_10algo_typesE0ENS0_16list_node_traitsIPvEENS0_7dft_tagELNS0_14link_mode_typeE2ELNS0_14base_hook_typeE1EEELj1EEE = comdat any

$_ZTIN5boost9intrusive17hook_tags_definerINS0_12generic_hookILNS0_10algo_typesE0ENS0_16list_node_traitsIPvEENS0_7dft_tagELNS0_14link_mode_typeE2ELNS0_14base_hook_typeE1EEELj1EEE = comdat any

$_ZTIN5boost9intrusive12generic_hookILNS0_10algo_typesE0ENS0_16list_node_traitsIPvEENS0_7dft_tagELNS0_14link_mode_typeE2ELNS0_14base_hook_typeE1EEE = comdat any

$_ZTIN5boost9intrusive14list_base_hookIJNS0_9link_modeILNS0_14link_mode_typeE2EEEEEE = comdat any

$_ZTIN5folly16HHWheelTimerBaseINSt6chrono8durationIlSt5ratioILl1ELl1000EEEEE8CallbackE = comdat any

$_ZTSN5folly22DelayedDestructionBaseE = comdat any

$_ZTIN5folly22DelayedDestructionBaseE = comdat any

$_ZTVN5folly22DelayedDestructionBaseE = comdat any

$_ZTVN8proxygen15HTTPTransaction17RateLimitCallbackE = comdat any

$_ZTSN8proxygen15HTTPTransaction17RateLimitCallbackE = comdat any

$_ZTIN8proxygen15HTTPTransaction17RateLimitCallbackE = comdat any

$_ZN5folly26unsafe_default_initializedE = comdat any

$_ZTVN8proxygen15HTTPTransaction15TxnWebTransportE = comdat any

$_ZTSN8proxygen15HTTPTransaction15TxnWebTransportE = comdat any

$_ZTSN8proxygen12WebTransportE = comdat any

$_ZTIN8proxygen12WebTransportE = comdat any

$_ZTIN8proxygen15HTTPTransaction15TxnWebTransportE = comdat any

$_ZTVN8proxygen12WebTransportE = comdat any

$_ZTVN5folly7futures6detail4CoreINS_4UnitEEE = comdat any

$_ZTSN5folly7futures6detail4CoreINS_4UnitEEE = comdat any

$_ZTSN5folly7futures6detail12ResultHolderINS_4UnitEEE = comdat any

$_ZTIN5folly7futures6detail12ResultHolderINS_4UnitEEE = comdat any

$_ZTIN5folly7futures6detail4CoreINS_4UnitEEE = comdat any

$_ZTSN5folly13FutureInvalidE = comdat any

$_ZTSN5folly15FutureExceptionE = comdat any

$_ZTSN5folly21static_what_exceptionISt11logic_errorEE = comdat any

$_ZTIN5folly21static_what_exceptionISt11logic_errorEE = comdat any

$_ZTIN5folly15FutureExceptionE = comdat any

$_ZTIN5folly13FutureInvalidE = comdat any

$_ZTVN5folly13FutureInvalidE = comdat any

$_ZTVN5folly15FutureExceptionE = comdat any

$_ZTVN5folly21static_what_exceptionISt11logic_errorEE = comdat any

$_ZTSN5folly22OptionalEmptyExceptionE = comdat any

$_ZTIN5folly22OptionalEmptyExceptionE = comdat any

$_ZTVN5folly22OptionalEmptyExceptionE = comdat any

$_ZZN8proxygen12WebTransport16isConnectMessageERKNS_11HTTPMessageEE13kWebTransportB5cxx11 = comdat any

$_ZGVZN8proxygen12WebTransport16isConnectMessageERKNS_11HTTPMessageEE13kWebTransportB5cxx11 = comdat any

$_ZTVN8proxygen13HTTPExceptionE = comdat any

$_ZTSN8proxygen13HTTPExceptionE = comdat any

$_ZTIN8proxygen13HTTPExceptionE = comdat any

$_ZTVN8proxygen12HTTPPriorityE = comdat any

$_ZTSN8proxygen12HTTPPriorityE = comdat any

$_ZTIN8proxygen12HTTPPriorityE = comdat any

$_ZN5folly3tagIJNS_4UnitEEEE = comdat any

$_ZTVN5folly13BrokenPromiseE = comdat any

$_ZTSN5folly13BrokenPromiseE = comdat any

$_ZTSN5folly16PromiseExceptionE = comdat any

$_ZTIN5folly16PromiseExceptionE = comdat any

$_ZTIN5folly13BrokenPromiseE = comdat any

$_ZZN5folly13BrokenPromise13error_messageINS_4UnitEEEPKcvE3str = comdat any

$_ZTVN5folly16PromiseExceptionE = comdat any

$_ZSt13in_place_typeIN5folly13BrokenPromiseEE = comdat any

$_ZTVN8proxygen12WebTransport9ExceptionE = comdat any

$_ZTSN8proxygen12WebTransport9ExceptionE = comdat any

$_ZTIN8proxygen12WebTransport9ExceptionE = comdat any

$_ZN5folly3tagIJN8proxygen12WebTransport10StreamDataEEEE = comdat any

$_ZZN5folly13BrokenPromise13error_messageIN8proxygen12WebTransport10StreamDataEEEPKcvE3str = comdat any

$_ZSt6ignore = comdat any

$_ZTSN5folly17BadExpectedAccessIvEE = comdat any

$_ZTIN5folly17BadExpectedAccessIvEE = comdat any

$_ZTVN5folly17BadExpectedAccessIvEE = comdat any

$_ZSt8in_place = comdat any

$_ZTVN5folly15ConversionErrorE = comdat any

$_ZTVN5folly19ConversionErrorBaseE = comdat any

$_ZTSN5folly17BadExpectedAccessINS_14ConversionCodeEEE = comdat any

$_ZTIN5folly17BadExpectedAccessINS_14ConversionCodeEEE = comdat any

$_ZTVN5folly17BadExpectedAccessINS_14ConversionCodeEEE = comdat any

$_ZN5folly8identityE = comdat any

$_ZN5folly6detail18pretty_name_zarrayIlNS0_14pretty_tag_gccEE6zarrayE = comdat any

$_ZZN8proxygen12StateMachineINS_28HTTPTransactionIngressSMDataEE7transitERNS1_5StateENS1_5EventEE14occurrences_33 = comdat any

$_ZZN8proxygen12StateMachineINS_28HTTPTransactionIngressSMDataEE7transitERNS1_5StateENS1_5EventEE20occurrences_mod_n_33 = comdat any

$_ZZN8proxygen12StateMachineINS_28HTTPTransactionIngressSMDataEE7transitERNS1_5StateENS1_5EventEE8vlocal__ = comdat any

$_ZZN8proxygen12StateMachineINS_27HTTPTransactionEgressSMDataEE7transitERNS1_5StateENS1_5EventEE14occurrences_33 = comdat any

$_ZZN8proxygen12StateMachineINS_27HTTPTransactionEgressSMDataEE7transitERNS1_5StateENS1_5EventEE20occurrences_mod_n_33 = comdat any

$_ZZN8proxygen12StateMachineINS_27HTTPTransactionEgressSMDataEE7transitERNS1_5StateENS1_5EventEE8vlocal__ = comdat any

$_ZTSN5folly17BadExpectedAccessIN8proxygen12WebTransport9ErrorCodeEEE = comdat any

$_ZTIN5folly17BadExpectedAccessIN8proxygen12WebTransport9ErrorCodeEEE = comdat any

$_ZTVN5folly17BadExpectedAccessIN8proxygen12WebTransport9ErrorCodeEEE = comdat any

$_ZTVN8proxygen12WebTransport16StreamReadHandleE = comdat any

$_ZTVN8proxygen12WebTransport16StreamHandleBaseE = comdat any

$_ZTVN8proxygen12WebTransport17StreamWriteHandleE = comdat any

$_ZSt13in_place_typeIN8proxygen12WebTransport9ExceptionEE = comdat any

$_ZTSN5folly22FutureAlreadyRetrievedE = comdat any

$_ZTIN5folly22FutureAlreadyRetrievedE = comdat any

$_ZTVN5folly22FutureAlreadyRetrievedE = comdat any

$_ZTSN5folly14PromiseInvalidE = comdat any

$_ZTIN5folly14PromiseInvalidE = comdat any

$_ZTVN5folly14PromiseInvalidE = comdat any

$_ZTSN5folly23PromiseAlreadySatisfiedE = comdat any

$_ZTIN5folly23PromiseAlreadySatisfiedE = comdat any

$_ZTVN5folly23PromiseAlreadySatisfiedE = comdat any

$_ZTVN5folly7futures6detail4CoreIN8proxygen12WebTransport10StreamDataEEE = comdat any

$_ZTSN5folly7futures6detail4CoreIN8proxygen12WebTransport10StreamDataEEE = comdat any

$_ZTSN5folly7futures6detail12ResultHolderIN8proxygen12WebTransport10StreamDataEEE = comdat any

$_ZTIN5folly7futures6detail12ResultHolderIN8proxygen12WebTransport10StreamDataEEE = comdat any

$_ZTIN5folly7futures6detail4CoreIN8proxygen12WebTransport10StreamDataEEE = comdat any

@_ZStL8__ioinit = internal global %"class.std::ios_base::Init" zeroinitializer, align 1
@__dso_handle = external hidden global i8
@_ZN8proxygen15HTTPTransaction18egressBufferLimit_E = global i64 65536, align 8
@_ZTVN8proxygen15HTTPTransactionE = unnamed_addr constant { [33 x ptr], [5 x ptr] } { [33 x ptr] [ptr null, ptr @_ZTIN8proxygen15HTTPTransactionE, ptr @_ZN8proxygen15HTTPTransactionD1Ev, ptr @_ZN8proxygen15HTTPTransactionD0Ev, ptr @_ZN8proxygen15HTTPTransaction14timeoutExpiredEv, ptr @_ZN5folly16HHWheelTimerBaseINSt6chrono8durationIlSt5ratioILl1ELl1000EEEEE8Callback16callbackCanceledEv, ptr @_ZN8proxygen15HTTPTransaction10setHandlerEPNS_22HTTPTransactionHandlerE, ptr @_ZNK8proxygen15HTTPTransaction21extraResponseExpectedEv, ptr @_ZN8proxygen15HTTPTransaction16setReceiveWindowEj, ptr @_ZNK8proxygen15HTTPTransaction16getReceiveWindowEv, ptr @_ZN8proxygen15HTTPTransaction20setTransportCallbackEPNS_32HTTPTransactionTransportCallbackE, ptr @_ZNK8proxygen15HTTPTransaction14canSendHeadersEv, ptr @_ZN8proxygen15HTTPTransaction11sendHeadersERKNS_11HTTPMessageE, ptr @_ZN8proxygen15HTTPTransaction18sendHeadersWithEOMERKNS_11HTTPMessageE, ptr @_ZN8proxygen15HTTPTransaction26sendHeadersWithOptionalEOMERKNS_11HTTPMessageEb, ptr @_ZN8proxygen15HTTPTransaction23sendHeadersWithDelegateERKNS_11HTTPMessageESt10unique_ptrINS_16DSRRequestSenderESt14default_deleteIS5_EE, ptr @_ZN8proxygen15HTTPTransaction8sendBodyESt10unique_ptrIN5folly5IOBufESt14default_deleteIS3_EE, ptr @_ZN8proxygen15HTTPTransaction15sendChunkHeaderEm, ptr @_ZN8proxygen15HTTPTransaction19sendChunkTerminatorEv, ptr @_ZN8proxygen15HTTPTransaction12sendTrailersERKNS_11HTTPHeadersE, ptr @_ZN8proxygen15HTTPTransaction7sendEOMEv, ptr @_ZN8proxygen15HTTPTransaction9sendAbortEv, ptr @_ZN8proxygen15HTTPTransaction12pauseIngressEv, ptr @_ZN8proxygen15HTTPTransaction13resumeIngressEv, ptr @_ZN8proxygen15HTTPTransaction20newPushedTransactionEPNS_26HTTPPushTransactionHandlerEPNS_13ProxygenErrorE, ptr @_ZN8proxygen15HTTPTransaction16newExTransactionEPNS_22HTTPTransactionHandlerEb, ptr @_ZN8proxygen15HTTPTransaction21updateAndSendPriorityENS_12HTTPPriorityE, ptr @_ZN8proxygen15HTTPTransaction25addWaitingForReplaySafetyEPN5folly14AsyncTransport20ReplaySafetyCallbackE, ptr @_ZN8proxygen15HTTPTransaction28removeWaitingForReplaySafetyEPN5folly14AsyncTransport20ReplaySafetyCallbackE, ptr @_ZNK8proxygen15HTTPTransaction26needToBlockForReplaySafetyEv, ptr @_ZN8proxygen15HTTPTransaction12sendDatagramESt10unique_ptrIN5folly5IOBufESt14default_deleteIS3_EE, ptr @_ZN8proxygen15HTTPTransaction13addBufferMetaEv, ptr @_ZN8proxygen15HTTPTransaction16onDelayedDestroyEb], [5 x ptr] [ptr inttoptr (i64 -64 to ptr), ptr @_ZTIN8proxygen15HTTPTransactionE, ptr @_ZThn64_N8proxygen15HTTPTransactionD1Ev, ptr @_ZThn64_N8proxygen15HTTPTransactionD0Ev, ptr @_ZThn64_N8proxygen15HTTPTransaction16onDelayedDestroyEb] }, align 8
@_ZZN8proxygen15HTTPTransaction16onDelayedDestroyEbE8vlocal__ = internal global %"struct.google::SiteFlag" zeroinitializer, align 8
@_ZN3fLI7FLAGS_vE = external global i32, align 4
@.str = private unnamed_addr constant [141 x i8] c"generated/home/dtcxzyw/WorkSpace/Projects/compilers/llvm-opt-benchmark/bench/proxygen/proxygen/proxygen/lib/http/session/HTTPTransaction.cpp\00", align 1
@.str.1 = private unnamed_addr constant [24 x i8] c"destroying transaction \00", align 1
@_ZZN8proxygen15HTTPTransaction16onDelayedDestroyEbE8vlocal___0 = internal global %"struct.google::SiteFlag" zeroinitializer, align 8
@.str.2 = private unnamed_addr constant [24 x i8] c"aborting WT ingress id=\00", align 1
@_ZZN8proxygen15HTTPTransaction16onDelayedDestroyEbE8vlocal___1 = internal global %"struct.google::SiteFlag" zeroinitializer, align 8
@.str.3 = private unnamed_addr constant [36 x i8] c"WT ingress already complete for id=\00", align 1
@_ZTVN10__cxxabiv120__si_class_type_infoE = external global [0 x ptr]
@_ZTSN5folly15ConversionErrorE = linkonce_odr constant [26 x i8] c"N5folly15ConversionErrorE\00", comdat, align 1
@_ZTSN5folly19ConversionErrorBaseE = linkonce_odr constant [30 x i8] c"N5folly19ConversionErrorBaseE\00", comdat, align 1
@_ZTISt11range_error = external constant ptr
@_ZTIN5folly19ConversionErrorBaseE = linkonce_odr constant { ptr, ptr, ptr } { ptr getelementptr inbounds (ptr, ptr @_ZTVN10__cxxabiv120__si_class_type_infoE, i64 2), ptr @_ZTSN5folly19ConversionErrorBaseE, ptr @_ZTISt11range_error }, comdat, align 8
@_ZTIN5folly15ConversionErrorE = linkonce_odr constant { ptr, ptr, ptr } { ptr getelementptr inbounds (ptr, ptr @_ZTVN10__cxxabiv120__si_class_type_infoE, i64 2), ptr @_ZTSN5folly15ConversionErrorE, ptr @_ZTIN5folly19ConversionErrorBaseE }, comdat, align 8
@.str.4 = private unnamed_addr constant [25 x i8] c"Invalid content-length: \00", align 1
@.str.5 = private unnamed_addr constant [6 x i8] c", ex=\00", align 1
@.str.6 = private unnamed_addr constant [2 x i8] c" \00", align 1
@_ZZN8proxygen15HTTPTransaction24onIngressHeadersCompleteESt10unique_ptrINS_11HTTPMessageESt14default_deleteIS2_EEE8vlocal__ = internal global %"struct.google::SiteFlag" zeroinitializer, align 8
@.str.7 = private unnamed_addr constant [30 x i8] c"Queued ingress event of type \00", align 1
@.str.8 = private unnamed_addr constant [54 x i8] c"Content-Length/body mismatch onIngressBody: received=\00", align 1
@.str.9 = private unnamed_addr constant [25 x i8] c" expecting no more than \00", align 1
@.str.10 = private unnamed_addr constant [36 x i8] c"onIngressBody after ingress closed \00", align 1
@_ZZN8proxygen15HTTPTransaction13onIngressBodyESt10unique_ptrIN5folly5IOBufESt14default_deleteIS3_EEtE8vlocal__ = internal global %"struct.google::SiteFlag" zeroinitializer, align 8
@.str.11 = private unnamed_addr constant [37 x i8] c"recvWindow_.reserve failed with len=\00", align 1
@.str.12 = private unnamed_addr constant [10 x i8] c" padding=\00", align 1
@.str.13 = private unnamed_addr constant [11 x i8] c" capacity=\00", align 1
@.str.14 = private unnamed_addr constant [14 x i8] c" outstanding=\00", align 1
@.str.15 = private unnamed_addr constant [26 x i8] c"recvWindow_.free(padding)\00", align 1
@_ZZN8proxygen15HTTPTransaction13onIngressBodyESt10unique_ptrIN5folly5IOBufESt14default_deleteIS3_EEtE8vlocal___0 = internal global %"struct.google::SiteFlag" zeroinitializer, align 8
@.str.16 = private unnamed_addr constant [7 x i8] c" size=\00", align 1
@.str.17 = private unnamed_addr constant [22 x i8] c"recvWindow_.free(len)\00", align 1
@_ZZN8proxygen15HTTPTransaction20onIngressChunkHeaderEmE8vlocal__ = internal global %"struct.google::SiteFlag" zeroinitializer, align 8
@_ZZN8proxygen15HTTPTransaction22onIngressChunkCompleteEvE8vlocal__ = internal global %"struct.google::SiteFlag" zeroinitializer, align 8
@_ZZN8proxygen15HTTPTransaction17onIngressTrailersESt10unique_ptrINS_11HTTPHeadersESt14default_deleteIS2_EEE8vlocal__ = internal global %"struct.google::SiteFlag" zeroinitializer, align 8
@_ZZN8proxygen15HTTPTransaction16onIngressUpgradeENS_15UpgradeProtocolEE8vlocal__ = internal global %"struct.google::SiteFlag" zeroinitializer, align 8
@.str.18 = private unnamed_addr constant [35 x i8] c"onIngressEOM after ingress closed \00", align 1
@_ZZN8proxygen15HTTPTransaction12onIngressEOMEvE8vlocal__ = internal global %"struct.google::SiteFlag" zeroinitializer, align 8
@.str.19 = private unnamed_addr constant [62 x i8] c"Content-Length/body mismatch onIngressEOM: expecting another \00", align 1
@_ZZN8proxygen15HTTPTransaction12onIngressEOMEvE8vlocal___0 = internal global %"struct.google::SiteFlag" zeroinitializer, align 8
@_ZZN8proxygen15HTTPTransaction17processIngressEOMEvE8vlocal__ = internal global %"struct.google::SiteFlag" zeroinitializer, align 8
@.str.20 = private unnamed_addr constant [16 x i8] c"ingress EOM on \00", align 1
@_ZZN8proxygen15HTTPTransaction19markIngressCompleteEvE8vlocal__ = internal global %"struct.google::SiteFlag" zeroinitializer, align 8
@.str.21 = private unnamed_addr constant [29 x i8] c"Marking ingress complete on \00", align 1
@_ZZN8proxygen15HTTPTransaction18markEgressCompleteEvE8vlocal__ = internal global %"struct.google::SiteFlag" zeroinitializer, align 8
@.str.22 = private unnamed_addr constant [28 x i8] c"Marking egress complete on \00", align 1
@.str.23 = private unnamed_addr constant [41 x i8] c"Invalid ingress state transition, state=\00", align 1
@.str.24 = private unnamed_addr constant [9 x i8] c", event=\00", align 1
@.str.25 = private unnamed_addr constant [12 x i8] c", streamID=\00", align 1
@.str.26 = private unnamed_addr constant [40 x i8] c"Invalid egress state transition, state=\00", align 1
@.str.27 = private unnamed_addr constant [24 x i8] c"invariantViolation msg=\00", align 1
@.str.28 = private unnamed_addr constant [11 x i8] c" aborted_=\00", align 1
@.str.29 = private unnamed_addr constant [41 x i8] c"Invariant violation with no handler; ex=\00", align 1
@_ZZN8proxygen15HTTPTransaction7onErrorERKNS_13HTTPExceptionEE8vlocal__ = internal global %"struct.google::SiteFlag" zeroinitializer, align 8
@.str.30 = private unnamed_addr constant [78 x i8] c"Converting ingress error to ingress+egress due to flow control, and aborting \00", align 1
@.str.31 = private unnamed_addr constant [84 x i8] c"Check failed: error.getDirection() == HTTPException::Direction::INGRESS_AND_EGRESS \00", align 1
@_ZZN8proxygen15HTTPTransaction8onGoawayENS_9ErrorCodeEE8vlocal__ = internal global %"struct.google::SiteFlag" zeroinitializer, align 8
@.str.32 = private unnamed_addr constant [33 x i8] c"received GOAWAY notification on \00", align 1
@_ZZN8proxygen15HTTPTransaction16onIngressTimeoutEvE8vlocal__ = internal global %"struct.google::SiteFlag" zeroinitializer, align 8
@.str.33 = private unnamed_addr constant [20 x i8] c"ingress timeout on \00", align 1
@.str.34 = private unnamed_addr constant [27 x i8] c"ingress timeout, streamID=\00", align 1
@_ZZN8proxygen15HTTPTransaction21onIngressWindowUpdateEjE8vlocal__ = internal global %"struct.google::SiteFlag" zeroinitializer, align 8
@.str.35 = private unnamed_addr constant [19 x i8] c"Remote side ack'd \00", align 1
@.str.36 = private unnamed_addr constant [8 x i8] c" bytes \00", align 1
@.str.37 = private unnamed_addr constant [37 x i8] c"sendWindow_.free failed with amount=\00", align 1
@.str.38 = private unnamed_addr constant [51 x i8] c"sendWindow_.setCapacity failed with newWindowSize=\00", align 1
@_ZZN8proxygen15HTTPTransaction15onEgressTimeoutEvE8vlocal__ = internal global %"struct.google::SiteFlag" zeroinitializer, align 8
@.str.39 = private unnamed_addr constant [19 x i8] c"egress timeout on \00", align 1
@.str.40 = private unnamed_addr constant [26 x i8] c"egress timeout, streamID=\00", align 1
@.str.41 = private unnamed_addr constant [35 x i8] c"Check failed: !isEgressComplete() \00", align 1
@.str.42 = private unnamed_addr constant [21 x i8] c"!headers.isRequest()\00", align 1
@.str.43 = private unnamed_addr constant [47 x i8] c"Delegate response must include CL header. txn=\00", align 1
@.str.44 = private unnamed_addr constant [37 x i8] c"This transaction cannot be delegated\00", align 1
@.str.45 = private unnamed_addr constant [41 x i8] c"Upstream transaction cannot be delegated\00", align 1
@.str.46 = private unnamed_addr constant [32 x i8] c"Only H3 and HQ can be delegated\00", align 1
@.str.47 = private unnamed_addr constant [28 x i8] c"deferredEgressBody_.empty()\00", align 1
@.str.48 = private unnamed_addr constant [17 x i8] c"!useFlowControl_\00", align 1
@.str.49 = private unnamed_addr constant [20 x i8] c"!isEgressComplete()\00", align 1
@.str.50 = private unnamed_addr constant [64 x i8] c"egressState_ != HTTPTransactionEgressSM::State::ChunkHeaderSent\00", align 1
@.str.51 = private unnamed_addr constant [58 x i8] c"This transaction can not use delegated body sending. txn=\00", align 1
@.str.52 = private unnamed_addr constant [32 x i8] c"deferredBufferMeta_.length == 0\00", align 1
@.str.53 = private unnamed_addr constant [38 x i8] c"Check failed: !chunkHeaders_.empty() \00", align 1
@.str.54 = private unnamed_addr constant [39 x i8] c"bodyLen <= chunkHeaders_.back().length\00", align 1
@.str.55 = private unnamed_addr constant [36 x i8] c"Sent body longer than chunk header \00", align 1
@.str.56 = private unnamed_addr constant [28 x i8] c"!deferredBufferMeta_.length\00", align 1
@.str.57 = private unnamed_addr constant [50 x i8] c"!actualResponseLength_ || !*actualResponseLength_\00", align 1
@.str.58 = private unnamed_addr constant [28 x i8] c"Check failed: isEnqueued() \00", align 1
@.str.59 = private unnamed_addr constant [57 x i8] c"(bytesLeft > 0 || isEgressEOMQueued()) && sendWindow > 0\00", align 1
@.str.60 = private unnamed_addr constant [29 x i8] c"delegatedTransactionChecks()\00", align 1
@_ZZN8proxygen15HTTPTransaction16sendDeferredBodyEjE8vlocal__ = internal global %"struct.google::SiteFlag" zeroinitializer, align 8
@.str.61 = private unnamed_addr constant [9 x i8] c"sending \00", align 1
@.str.62 = private unnamed_addr constant [11 x i8] c" fin=false\00", align 1
@.str.63 = private unnamed_addr constant [13 x i8] c"canSend == 0\00", align 1
@.str.64 = private unnamed_addr constant [22 x i8] c"bufferMeta.length > 0\00", align 1
@_ZZN8proxygen15HTTPTransaction22sendDeferredBufferMetaEjE8vlocal__ = internal global %"struct.google::SiteFlag" zeroinitializer, align 8
@.str.65 = private unnamed_addr constant [73 x i8] c"Cannot send deferred buffer meta due to delegatedTransactionChecks. txn=\00", align 1
@_ZZN8proxygen15HTTPTransaction22sendDeferredBufferMetaEjE8vlocal___0 = internal global %"struct.google::SiteFlag" zeroinitializer, align 8
@.str.66 = private unnamed_addr constant [25 x i8] c"DSR transaction sending \00", align 1
@.str.67 = private unnamed_addr constant [21 x i8] c" bytes of body. eom=\00", align 1
@.str.68 = private unnamed_addr constant [4 x i8] c"yes\00", align 1
@.str.69 = private unnamed_addr constant [3 x i8] c"no\00", align 1
@_ZN8proxygen12_GLOBAL__N_118kRateLimitMaxDelayE = internal constant %"class.std::chrono::duration.150" { i64 10 }, align 8
@_ZZN8proxygen15HTTPTransaction22maybeDelayForRateLimitEvE8vlocal__ = internal global %"struct.google::SiteFlag" zeroinitializer, align 8
@.str.70 = private unnamed_addr constant [35 x i8] c"ratelim: Required delay too long (\00", align 1
@.str.71 = private unnamed_addr constant [14 x i8] c"ms), ignoring\00", align 1
@_ZZN8proxygen15HTTPTransaction10sendEOMNowEvE8vlocal__ = internal global %"struct.google::SiteFlag" zeroinitializer, align 8
@.str.72 = private unnamed_addr constant [15 x i8] c"egress EOM on \00", align 1
@_ZZN8proxygen15HTTPTransaction11sendBodyNowESt10unique_ptrIN5folly5IOBufESt14default_deleteIS3_EEmbE7noneStrB5cxx11 = internal global %"class.std::__cxx11::basic_string" zeroinitializer, align 8
@_ZGVZN8proxygen15HTTPTransaction11sendBodyNowESt10unique_ptrIN5folly5IOBufESt14default_deleteIS3_EEmbE7noneStrB5cxx11 = internal global i64 0, align 8
@.str.73 = private unnamed_addr constant [5 x i8] c"None\00", align 1
@.str.74 = private unnamed_addr constant [20 x i8] c"Check failed: body \00", align 1
@.str.75 = private unnamed_addr constant [12 x i8] c"bodyLen > 0\00", align 1
@.str.76 = private unnamed_addr constant [44 x i8] c"Check failed: sendWindow_.reserve(bodyLen) \00", align 1
@_ZZN8proxygen15HTTPTransaction11sendBodyNowESt10unique_ptrIN5folly5IOBufESt14default_deleteIS3_EEmbE8vlocal__ = internal global %"struct.google::SiteFlag" zeroinitializer, align 8
@.str.77 = private unnamed_addr constant [9 x i8] c"Sending \00", align 1
@.str.78 = private unnamed_addr constant [17 x i8] c" send_window is \00", align 1
@.str.79 = private unnamed_addr constant [4 x i8] c" / \00", align 1
@.str.80 = private unnamed_addr constant [11 x i8] c" trailers=\00", align 1
@.str.81 = private unnamed_addr constant [46 x i8] c"bodyLen < std::numeric_limits<int64_t>::max()\00", align 1
@.str.82 = private unnamed_addr constant [45 x i8] c"window blocked with ingress error, streamID=\00", align 1
@.str.83 = private unnamed_addr constant [48 x i8] c"Content-Length/body mismatch sendEOM: expected=\00", align 1
@.str.84 = private unnamed_addr constant [11 x i8] c", actual= \00", align 1
@_ZZN8proxygen15HTTPTransaction7sendEOMEvE8vlocal__ = internal global %"struct.google::SiteFlag" zeroinitializer, align 8
@.str.85 = private unnamed_addr constant [31 x i8] c"Queued egress EOM with no body\00", align 1
@.str.86 = private unnamed_addr constant [14 x i8] c"[egressState=\00", align 1
@.str.87 = private unnamed_addr constant [3 x i8] c", \00", align 1
@.str.88 = private unnamed_addr constant [14 x i8] c"ingressState=\00", align 1
@.str.89 = private unnamed_addr constant [14 x i8] c"egressPaused=\00", align 1
@.str.90 = private unnamed_addr constant [15 x i8] c"ingressPaused=\00", align 1
@.str.91 = private unnamed_addr constant [9 x i8] c"aborted=\00", align 1
@.str.92 = private unnamed_addr constant [10 x i8] c"enqueued=\00", align 1
@.str.93 = private unnamed_addr constant [13 x i8] c"chainLength=\00", align 1
@.str.94 = private unnamed_addr constant [15 x i8] c"bufferMetaLen=\00", align 1
@.str.95 = private unnamed_addr constant [2 x i8] c"]\00", align 1
@.str.96 = private unnamed_addr constant [5 x i8] c" on \00", align 1
@_ZZN8proxygen15HTTPTransaction7sendEOMEvE8vlocal___0 = internal global %"struct.google::SiteFlag" zeroinitializer, align 8
@.str.97 = private unnamed_addr constant [22 x i8] c"Queued egress EOM on \00", align 1
@_ZZN8proxygen15HTTPTransaction9sendAbortENS_9ErrorCodeEE8vlocal__ = internal global %"struct.google::SiteFlag" zeroinitializer, align 8
@.str.98 = private unnamed_addr constant [25 x i8] c"skipping redundant abort\00", align 1
@_ZZN8proxygen15HTTPTransaction9sendAbortENS_9ErrorCodeEE8vlocal___0 = internal global %"struct.google::SiteFlag" zeroinitializer, align 8
@.str.99 = private unnamed_addr constant [22 x i8] c"aborting transaction \00", align 1
@_ZSt19piecewise_construct = linkonce_odr constant %"struct.std::piecewise_construct_t" zeroinitializer, comdat, align 1
@_ZZN8proxygen15HTTPTransaction12pauseIngressEvE8vlocal__ = internal global %"struct.google::SiteFlag" zeroinitializer, align 8
@.str.100 = private unnamed_addr constant [22 x i8] c"pauseIngress request \00", align 1
@_ZZN8proxygen15HTTPTransaction12pauseIngressEvE8vlocal___0 = internal global %"struct.google::SiteFlag" zeroinitializer, align 8
@.str.101 = private unnamed_addr constant [36 x i8] c"can't pause ingress; ingressPaused=\00", align 1
@_ZZN8proxygen15HTTPTransaction13resumeIngressEvE8vlocal__ = internal global %"struct.google::SiteFlag" zeroinitializer, align 8
@.str.102 = private unnamed_addr constant [23 x i8] c"resumeIngress request \00", align 1
@_ZZN8proxygen15HTTPTransaction13resumeIngressEvE8vlocal___0 = internal global %"struct.google::SiteFlag" zeroinitializer, align 8
@.str.103 = private unnamed_addr constant [37 x i8] c"can't resume ingress, ingressPaused=\00", align 1
@.str.104 = private unnamed_addr constant [19 x i8] c", ingressComplete=\00", align 1
@.str.105 = private unnamed_addr constant [13 x i8] c", inResume_=\00", align 1
@_ZZN8proxygen15HTTPTransaction13resumeIngressEvE8vlocal___1 = internal global %"struct.google::SiteFlag" zeroinitializer, align 8
@.str.106 = private unnamed_addr constant [32 x i8] c"skipping recursive resume loop \00", align 1
@_ZZN8proxygen15HTTPTransaction13resumeIngressEvE8vlocal___2 = internal global %"struct.google::SiteFlag" zeroinitializer, align 8
@.str.107 = private unnamed_addr constant [46 x i8] c"Processing deferred ingress callback of type \00", align 1
@.str.108 = private unnamed_addr constant [12 x i8] c"unreachable\00", align 1
@_ZZN8proxygen15HTTPTransaction11pauseEgressEvE8vlocal__ = internal global %"struct.google::SiteFlag" zeroinitializer, align 8
@.str.109 = private unnamed_addr constant [23 x i8] c"asked to pause egress \00", align 1
@_ZZN8proxygen15HTTPTransaction11pauseEgressEvE8vlocal___0 = internal global %"struct.google::SiteFlag" zeroinitializer, align 8
@.str.110 = private unnamed_addr constant [23 x i8] c"egress already paused \00", align 1
@_ZZN8proxygen15HTTPTransaction12resumeEgressEvE8vlocal__ = internal global %"struct.google::SiteFlag" zeroinitializer, align 8
@.str.111 = private unnamed_addr constant [24 x i8] c"asked to resume egress \00", align 1
@_ZZN8proxygen15HTTPTransaction12resumeEgressEvE8vlocal___0 = internal global %"struct.google::SiteFlag" zeroinitializer, align 8
@.str.112 = private unnamed_addr constant [27 x i8] c"egress already not paused \00", align 1
@_ZZN8proxygen15HTTPTransaction18setEgressRateLimitEmE8vlocal__ = internal global %"struct.google::SiteFlag" zeroinitializer, align 8
@.str.113 = private unnamed_addr constant [25 x i8] c"ratelim: Limit too low (\00", align 1
@.str.114 = private unnamed_addr constant [12 x i8] c"), ignoring\00", align 1
@.str.115 = private unnamed_addr constant [28 x i8] c"Check failed: queueHandle_ \00", align 1
@_ZZN8proxygen15HTTPTransaction23updateHandlerPauseStateEvE8vlocal__ = internal global %"struct.google::SiteFlag" zeroinitializer, align 8
@.str.116 = private unnamed_addr constant [63 x i8] c"transaction already egress complete, not updating pause state \00", align 1
@_ZZN8proxygen15HTTPTransaction23updateHandlerPauseStateEvE8vlocal___0 = internal global %"struct.google::SiteFlag" zeroinitializer, align 8
@.str.117 = private unnamed_addr constant [41 x i8] c"transaction stalled by flow control txn=\00", align 1
@_ZZN8proxygen15HTTPTransaction23updateHandlerPauseStateEvE8vlocal___1 = internal global %"struct.google::SiteFlag" zeroinitializer, align 8
@.str.118 = private unnamed_addr constant [40 x i8] c"Not resuming handler, buffer full, txn=\00", align 1
@_ZZN8proxygen15HTTPTransaction23updateHandlerPauseStateEvE8vlocal___2 = internal global %"struct.google::SiteFlag" zeroinitializer, align 8
@.str.119 = private unnamed_addr constant [55 x i8] c"txn hasn't egressed headers, not updating pause state \00", align 1
@_ZZN8proxygen15HTTPTransaction23updateHandlerPauseStateEvE8vlocal___3 = internal global %"struct.google::SiteFlag" zeroinitializer, align 8
@.str.120 = private unnamed_addr constant [19 x i8] c"egress paused txn=\00", align 1
@_ZZN8proxygen15HTTPTransaction23updateHandlerPauseStateEvE8vlocal___4 = internal global %"struct.google::SiteFlag" zeroinitializer, align 8
@.str.121 = private unnamed_addr constant [20 x i8] c"egress resumed txn=\00", align 1
@.str.122 = private unnamed_addr constant [58 x i8] c"Adding Pushed transaction on a delegated HTTPTransaction \00", align 1
@.str.123 = private unnamed_addr constant [23 x i8] c"is not supported. txn=\00", align 1
@.str.124 = private unnamed_addr constant [32 x i8] c"*pushTxn->assocStreamId_ == id_\00", align 1
@_ZZN8proxygen15HTTPTransaction19onPushedTransactionEPS0_E8vlocal__ = internal global %"struct.google::SiteFlag" zeroinitializer, align 8
@.str.125 = private unnamed_addr constant [44 x i8] c"Cannot add a pushed txn to an unhandled txn\00", align 1
@_ZZN8proxygen15HTTPTransaction19onPushedTransactionEPS0_E8vlocal___0 = internal global %"struct.google::SiteFlag" zeroinitializer, align 8
@.str.126 = private unnamed_addr constant [48 x i8] c"Failed to create a handler for push transaction\00", align 1
@.str.127 = private unnamed_addr constant [56 x i8] c"Adding ExTransaction on a delegated HTTPTransaction is \00", align 1
@.str.128 = private unnamed_addr constant [20 x i8] c"not supported. txn=\00", align 1
@.str.129 = private unnamed_addr constant [36 x i8] c"*(exTxn->getControlStream()) == id_\00", align 1
@.str.130 = private unnamed_addr constant [39 x i8] c"Cannot add a exTxn to an unhandled txn\00", align 1
@.str.131 = private unnamed_addr constant [45 x i8] c"Failed to create a handler for ExTransaction\00", align 1
@_ZZN8proxygen15HTTPTransaction14setIdleTimeoutENSt6chrono8durationIlSt5ratioILl1ELl1000EEEEE8vlocal__ = internal global %"struct.google::SiteFlag" zeroinitializer, align 8
@.str.132 = private unnamed_addr constant [42 x i8] c"HTTPTransaction: idle timeout is set to  \00", align 1
@_ZZN8proxygen15HTTPTransaction16setReceiveWindowEjE8vlocal__ = internal global %"struct.google::SiteFlag" zeroinitializer, align 8
@.str.133 = private unnamed_addr constant [35 x i8] c"Refusing to shrink the recv window\00", align 1
@_ZZN8proxygen15HTTPTransaction17flushWindowUpdateEvE8vlocal__ = internal global %"struct.google::SiteFlag" zeroinitializer, align 8
@.str.134 = private unnamed_addr constant [16 x i8] c"recv_window is \00", align 1
@.str.135 = private unnamed_addr constant [15 x i8] c" after acking \00", align 1
@.str.136 = private unnamed_addr constant [17 x i8] c"newPriority >= 0\00", align 1
@.str.137 = private unnamed_addr constant [53 x i8] c"Received priority update on ingress only transaction\00", align 1
@_ZZN8proxygen15HTTPTransaction10onDatagramESt10unique_ptrIN5folly5IOBufESt14default_deleteIS3_EEE8vlocal__ = internal global %"struct.google::SiteFlag" zeroinitializer, align 8
@.str.138 = private unnamed_addr constant [22 x i8] c"datagram received on \00", align 1
@.str.139 = private unnamed_addr constant [16 x i8] c"Handler not set\00", align 1
@.str.140 = private unnamed_addr constant [30 x i8] c"Check failed: !writePromise_ \00", align 1
@.str.141 = private unnamed_addr constant [36 x i8] c"Wait for previous write to complete\00", align 1
@_ZN5follyL4unitE = internal constant %"struct.folly::Unit" undef, align 1
@_ZZN8proxygen15HTTPTransaction19TxnStreamReadHandle13dataAvailableESt10unique_ptrIN5folly5IOBufESt14default_deleteIS4_EEbE8vlocal__ = internal global %"struct.google::SiteFlag" zeroinitializer, align 8
@.str.142 = private unnamed_addr constant [22 x i8] c"dataAvailable buflen=\00", align 1
@.str.143 = private unnamed_addr constant [6 x i8] c" eof=\00", align 1
@_ZZN8proxygen15HTTPTransaction19TxnStreamReadHandle13dataAvailableESt10unique_ptrIN5folly5IOBufESt14default_deleteIS4_EEbE8vlocal___0 = internal global %"struct.google::SiteFlag" zeroinitializer, align 8
@.str.144 = private unnamed_addr constant [58 x i8] c"Check failed: ingressStreamIt != wtIngressStreams_.end() \00", align 1
@.str.145 = private unnamed_addr constant [50 x i8] c"Check failed: wtStream != wtEgressStreams_.end() \00", align 1
@.str.146 = private unnamed_addr constant [29 x i8] c"Check failed: !readPromise_ \00", align 1
@.str.147 = private unnamed_addr constant [19 x i8] c"One read at a time\00", align 1
@_ZTVN8proxygen15HTTPTransaction20TxnStreamWriteHandleE = unnamed_addr constant { [8 x ptr] } { [8 x ptr] [ptr null, ptr @_ZTIN8proxygen15HTTPTransaction20TxnStreamWriteHandleE, ptr @_ZN8proxygen15HTTPTransaction20TxnStreamWriteHandleD2Ev, ptr @_ZN8proxygen15HTTPTransaction20TxnStreamWriteHandleD0Ev, ptr @_ZN8proxygen15HTTPTransaction20TxnStreamWriteHandle5getIDEv, ptr @_ZN8proxygen15HTTPTransaction20TxnStreamWriteHandle14getCancelTokenEv, ptr @_ZN8proxygen15HTTPTransaction20TxnStreamWriteHandle15writeStreamDataESt10unique_ptrIN5folly5IOBufESt14default_deleteIS4_EEb, ptr @_ZN8proxygen15HTTPTransaction20TxnStreamWriteHandle11resetStreamEj] }, align 8
@_ZTSN8proxygen15HTTPTransaction20TxnStreamWriteHandleE = constant [51 x i8] c"N8proxygen15HTTPTransaction20TxnStreamWriteHandleE\00", align 1
@_ZTSN8proxygen12WebTransport17StreamWriteHandleE = linkonce_odr constant [45 x i8] c"N8proxygen12WebTransport17StreamWriteHandleE\00", comdat, align 1
@_ZTVN10__cxxabiv117__class_type_infoE = external global [0 x ptr]
@_ZTSN8proxygen12WebTransport16StreamHandleBaseE = linkonce_odr constant [44 x i8] c"N8proxygen12WebTransport16StreamHandleBaseE\00", comdat, align 1
@_ZTIN8proxygen12WebTransport16StreamHandleBaseE = linkonce_odr constant { ptr, ptr } { ptr getelementptr inbounds (ptr, ptr @_ZTVN10__cxxabiv117__class_type_infoE, i64 2), ptr @_ZTSN8proxygen12WebTransport16StreamHandleBaseE }, comdat, align 8
@_ZTIN8proxygen12WebTransport17StreamWriteHandleE = linkonce_odr constant { ptr, ptr, ptr } { ptr getelementptr inbounds (ptr, ptr @_ZTVN10__cxxabiv120__si_class_type_infoE, i64 2), ptr @_ZTSN8proxygen12WebTransport17StreamWriteHandleE, ptr @_ZTIN8proxygen12WebTransport16StreamHandleBaseE }, comdat, align 8
@_ZTIN8proxygen15HTTPTransaction20TxnStreamWriteHandleE = constant { ptr, ptr, ptr } { ptr getelementptr inbounds (ptr, ptr @_ZTVN10__cxxabiv120__si_class_type_infoE, i64 2), ptr @_ZTSN8proxygen15HTTPTransaction20TxnStreamWriteHandleE, ptr @_ZTIN8proxygen12WebTransport17StreamWriteHandleE }, align 8
@_ZTVN8proxygen15HTTPTransaction19TxnStreamReadHandleE = unnamed_addr constant { [8 x ptr] } { [8 x ptr] [ptr null, ptr @_ZTIN8proxygen15HTTPTransaction19TxnStreamReadHandleE, ptr @_ZN8proxygen15HTTPTransaction19TxnStreamReadHandleD2Ev, ptr @_ZN8proxygen15HTTPTransaction19TxnStreamReadHandleD0Ev, ptr @_ZN8proxygen15HTTPTransaction19TxnStreamReadHandle5getIDEv, ptr @_ZN8proxygen15HTTPTransaction19TxnStreamReadHandle14getCancelTokenEv, ptr @_ZN8proxygen15HTTPTransaction19TxnStreamReadHandle14readStreamDataEv, ptr @_ZN8proxygen15HTTPTransaction19TxnStreamReadHandle11stopSendingEj] }, align 8
@_ZTSN8proxygen15HTTPTransaction19TxnStreamReadHandleE = constant [50 x i8] c"N8proxygen15HTTPTransaction19TxnStreamReadHandleE\00", align 1
@_ZTSN8proxygen12WebTransport16StreamReadHandleE = linkonce_odr constant [44 x i8] c"N8proxygen12WebTransport16StreamReadHandleE\00", comdat, align 1
@_ZTIN8proxygen12WebTransport16StreamReadHandleE = linkonce_odr constant { ptr, ptr, ptr } { ptr getelementptr inbounds (ptr, ptr @_ZTVN10__cxxabiv120__si_class_type_infoE, i64 2), ptr @_ZTSN8proxygen12WebTransport16StreamReadHandleE, ptr @_ZTIN8proxygen12WebTransport16StreamHandleBaseE }, comdat, align 8
@_ZTIN8proxygen15HTTPTransaction19TxnStreamReadHandleE = constant { ptr, ptr, ptr } { ptr getelementptr inbounds (ptr, ptr @_ZTVN10__cxxabiv120__si_class_type_infoE, i64 2), ptr @_ZTSN8proxygen15HTTPTransaction19TxnStreamReadHandleE, ptr @_ZTIN8proxygen12WebTransport16StreamReadHandleE }, align 8
@_ZTVN10__cxxabiv121__vmi_class_type_infoE = external global [0 x ptr]
@_ZTSN8proxygen15HTTPTransactionE = constant [29 x i8] c"N8proxygen15HTTPTransactionE\00", align 1
@_ZTSN5folly16HHWheelTimerBaseINSt6chrono8durationIlSt5ratioILl1ELl1000EEEEE8CallbackE = linkonce_odr constant [82 x i8] c"N5folly16HHWheelTimerBaseINSt6chrono8durationIlSt5ratioILl1ELl1000EEEEE8CallbackE\00", comdat, align 1
@_ZTSN5boost9intrusive14list_base_hookIJNS0_9link_modeILNS0_14link_mode_typeE2EEEEEE = linkonce_odr constant [80 x i8] c"N5boost9intrusive14list_base_hookIJNS0_9link_modeILNS0_14link_mode_typeE2EEEEEE\00", comdat, align 1
@_ZTSN5boost9intrusive12generic_hookILNS0_10algo_typesE0ENS0_16list_node_traitsIPvEENS0_7dft_tagELNS0_14link_mode_typeE2ELNS0_14base_hook_typeE1EEE = linkonce_odr constant [143 x i8] c"N5boost9intrusive12generic_hookILNS0_10algo_typesE0ENS0_16list_node_traitsIPvEENS0_7dft_tagELNS0_14link_mode_typeE2ELNS0_14base_hook_typeE1EEE\00", comdat, align 1
@_ZTSN5boost9intrusive11node_holderINS0_9list_nodeIPvEENS0_7dft_tagELj1EEE = linkonce_odr constant [70 x i8] c"N5boost9intrusive11node_holderINS0_9list_nodeIPvEENS0_7dft_tagELj1EEE\00", comdat, align 1
@_ZTSN5boost9intrusive9list_nodeIPvEE = linkonce_odr constant [33 x i8] c"N5boost9intrusive9list_nodeIPvEE\00", comdat, align 1
@_ZTIN5boost9intrusive9list_nodeIPvEE = linkonce_odr constant { ptr, ptr } { ptr getelementptr inbounds (ptr, ptr @_ZTVN10__cxxabiv117__class_type_infoE, i64 2), ptr @_ZTSN5boost9intrusive9list_nodeIPvEE }, comdat, align 8
@_ZTIN5boost9intrusive11node_holderINS0_9list_nodeIPvEENS0_7dft_tagELj1EEE = linkonce_odr constant { ptr, ptr, ptr } { ptr getelementptr inbounds (ptr, ptr @_ZTVN10__cxxabiv120__si_class_type_infoE, i64 2), ptr @_ZTSN5boost9intrusive11node_holderINS0_9list_nodeIPvEENS0_7dft_tagELj1EEE, ptr @_ZTIN5boost9intrusive9list_nodeIPvEE }, comdat, align 8
@_ZTSN5boost9intrusive17hook_tags_definerINS0_12generic_hookILNS0_10algo_typesE0ENS0_16list_node_traitsIPvEENS0_7dft_tagELNS0_14link_mode_typeE2ELNS0_14base_hook_typeE1EEELj1EEE = linkonce_odr constant [173 x i8] c"N5boost9intrusive17hook_tags_definerINS0_12generic_hookILNS0_10algo_typesE0ENS0_16list_node_traitsIPvEENS0_7dft_tagELNS0_14link_mode_typeE2ELNS0_14base_hook_typeE1EEELj1EEE\00", comdat, align 1
@_ZTIN5boost9intrusive17hook_tags_definerINS0_12generic_hookILNS0_10algo_typesE0ENS0_16list_node_traitsIPvEENS0_7dft_tagELNS0_14link_mode_typeE2ELNS0_14base_hook_typeE1EEELj1EEE = linkonce_odr constant { ptr, ptr } { ptr getelementptr inbounds (ptr, ptr @_ZTVN10__cxxabiv117__class_type_infoE, i64 2), ptr @_ZTSN5boost9intrusive17hook_tags_definerINS0_12generic_hookILNS0_10algo_typesE0ENS0_16list_node_traitsIPvEENS0_7dft_tagELNS0_14link_mode_typeE2ELNS0_14base_hook_typeE1EEELj1EEE }, comdat, align 8
@_ZTIN5boost9intrusive12generic_hookILNS0_10algo_typesE0ENS0_16list_node_traitsIPvEENS0_7dft_tagELNS0_14link_mode_typeE2ELNS0_14base_hook_typeE1EEE = linkonce_odr constant { ptr, ptr, i32, i32, ptr, i64, ptr, i64 } { ptr getelementptr inbounds (ptr, ptr @_ZTVN10__cxxabiv121__vmi_class_type_infoE, i64 2), ptr @_ZTSN5boost9intrusive12generic_hookILNS0_10algo_typesE0ENS0_16list_node_traitsIPvEENS0_7dft_tagELNS0_14link_mode_typeE2ELNS0_14base_hook_typeE1EEE, i32 0, i32 2, ptr @_ZTIN5boost9intrusive11node_holderINS0_9list_nodeIPvEENS0_7dft_tagELj1EEE, i64 2, ptr @_ZTIN5boost9intrusive17hook_tags_definerINS0_12generic_hookILNS0_10algo_typesE0ENS0_16list_node_traitsIPvEENS0_7dft_tagELNS0_14link_mode_typeE2ELNS0_14base_hook_typeE1EEELj1EEE, i64 2 }, comdat, align 8
@_ZTIN5boost9intrusive14list_base_hookIJNS0_9link_modeILNS0_14link_mode_typeE2EEEEEE = linkonce_odr constant { ptr, ptr, ptr } { ptr getelementptr inbounds (ptr, ptr @_ZTVN10__cxxabiv120__si_class_type_infoE, i64 2), ptr @_ZTSN5boost9intrusive14list_base_hookIJNS0_9link_modeILNS0_14link_mode_typeE2EEEEEE, ptr @_ZTIN5boost9intrusive12generic_hookILNS0_10algo_typesE0ENS0_16list_node_traitsIPvEENS0_7dft_tagELNS0_14link_mode_typeE2ELNS0_14base_hook_typeE1EEE }, comdat, align 8
@_ZTIN5folly16HHWheelTimerBaseINSt6chrono8durationIlSt5ratioILl1ELl1000EEEEE8CallbackE = linkonce_odr constant { ptr, ptr, i32, i32, ptr, i64 } { ptr getelementptr inbounds (ptr, ptr @_ZTVN10__cxxabiv121__vmi_class_type_infoE, i64 2), ptr @_ZTSN5folly16HHWheelTimerBaseINSt6chrono8durationIlSt5ratioILl1ELl1000EEEEE8CallbackE, i32 0, i32 1, ptr @_ZTIN5boost9intrusive14list_base_hookIJNS0_9link_modeILNS0_14link_mode_typeE2EEEEEE, i64 2050 }, comdat, align 8
@_ZTSN5folly22DelayedDestructionBaseE = linkonce_odr constant [33 x i8] c"N5folly22DelayedDestructionBaseE\00", comdat, align 1
@_ZTIN5folly22DelayedDestructionBaseE = linkonce_odr constant { ptr, ptr } { ptr getelementptr inbounds (ptr, ptr @_ZTVN10__cxxabiv117__class_type_infoE, i64 2), ptr @_ZTSN5folly22DelayedDestructionBaseE }, comdat, align 8
@_ZTIN8proxygen15HTTPTransactionE = constant { ptr, ptr, i32, i32, ptr, i64, ptr, i64 } { ptr getelementptr inbounds (ptr, ptr @_ZTVN10__cxxabiv121__vmi_class_type_infoE, i64 2), ptr @_ZTSN8proxygen15HTTPTransactionE, i32 0, i32 2, ptr @_ZTIN5folly16HHWheelTimerBaseINSt6chrono8durationIlSt5ratioILl1ELl1000EEEEE8CallbackE, i64 2, ptr @_ZTIN5folly22DelayedDestructionBaseE, i64 16386 }, align 8
@_ZTVN5folly22DelayedDestructionBaseE = linkonce_odr unnamed_addr constant { [5 x ptr] } { [5 x ptr] [ptr null, ptr @_ZTIN5folly22DelayedDestructionBaseE, ptr @_ZN5folly22DelayedDestructionBaseD2Ev, ptr @_ZN5folly22DelayedDestructionBaseD0Ev, ptr @__cxa_pure_virtual] }, comdat, align 8
@_ZTVN8proxygen15HTTPTransaction17RateLimitCallbackE = linkonce_odr unnamed_addr constant { [6 x ptr] } { [6 x ptr] [ptr null, ptr @_ZTIN8proxygen15HTTPTransaction17RateLimitCallbackE, ptr @_ZN8proxygen15HTTPTransaction17RateLimitCallbackD2Ev, ptr @_ZN8proxygen15HTTPTransaction17RateLimitCallbackD0Ev, ptr @_ZN8proxygen15HTTPTransaction17RateLimitCallback14timeoutExpiredEv, ptr @_ZN8proxygen15HTTPTransaction17RateLimitCallback16callbackCanceledEv] }, comdat, align 8
@_ZTSN8proxygen15HTTPTransaction17RateLimitCallbackE = linkonce_odr constant [48 x i8] c"N8proxygen15HTTPTransaction17RateLimitCallbackE\00", comdat, align 1
@_ZTIN8proxygen15HTTPTransaction17RateLimitCallbackE = linkonce_odr constant { ptr, ptr, ptr } { ptr getelementptr inbounds (ptr, ptr @_ZTVN10__cxxabiv120__si_class_type_infoE, i64 2), ptr @_ZTSN8proxygen15HTTPTransaction17RateLimitCallbackE, ptr @_ZTIN5folly16HHWheelTimerBaseINSt6chrono8durationIlSt5ratioILl1ELl1000EEEEE8CallbackE }, comdat, align 8
@_ZN5folly26unsafe_default_initializedE = linkonce_odr constant %"struct.folly::unsafe_default_initialized_cv" undef, comdat, align 1
@_ZTVN8proxygen15HTTPTransaction15TxnWebTransportE = linkonce_odr unnamed_addr constant { [14 x ptr] } { [14 x ptr] [ptr null, ptr @_ZTIN8proxygen15HTTPTransaction15TxnWebTransportE, ptr @_ZN8proxygen15HTTPTransaction15TxnWebTransportD2Ev, ptr @_ZN8proxygen15HTTPTransaction15TxnWebTransportD0Ev, ptr @_ZN8proxygen15HTTPTransaction15TxnWebTransport15createUniStreamEv, ptr @_ZN8proxygen15HTTPTransaction15TxnWebTransport16createBidiStreamEv, ptr @_ZN8proxygen15HTTPTransaction15TxnWebTransport20awaitUniStreamCreditEv, ptr @_ZN8proxygen15HTTPTransaction15TxnWebTransport21awaitBidiStreamCreditEv, ptr @_ZN8proxygen15HTTPTransaction15TxnWebTransport14readStreamDataEm, ptr @_ZN8proxygen15HTTPTransaction15TxnWebTransport15writeStreamDataEmSt10unique_ptrIN5folly5IOBufESt14default_deleteIS4_EEb, ptr @_ZN8proxygen15HTTPTransaction15TxnWebTransport11resetStreamEmj, ptr @_ZN8proxygen15HTTPTransaction15TxnWebTransport11stopSendingEmj, ptr @_ZN8proxygen15HTTPTransaction15TxnWebTransport12sendDatagramESt10unique_ptrIN5folly5IOBufESt14default_deleteIS4_EE, ptr @_ZN8proxygen15HTTPTransaction15TxnWebTransport12closeSessionEN5folly8OptionalIjEE] }, comdat, align 8
@_ZTSN8proxygen15HTTPTransaction15TxnWebTransportE = linkonce_odr constant [46 x i8] c"N8proxygen15HTTPTransaction15TxnWebTransportE\00", comdat, align 1
@_ZTSN8proxygen12WebTransportE = linkonce_odr constant [26 x i8] c"N8proxygen12WebTransportE\00", comdat, align 1
@_ZTIN8proxygen12WebTransportE = linkonce_odr constant { ptr, ptr } { ptr getelementptr inbounds (ptr, ptr @_ZTVN10__cxxabiv117__class_type_infoE, i64 2), ptr @_ZTSN8proxygen12WebTransportE }, comdat, align 8
@_ZTIN8proxygen15HTTPTransaction15TxnWebTransportE = linkonce_odr constant { ptr, ptr, ptr } { ptr getelementptr inbounds (ptr, ptr @_ZTVN10__cxxabiv120__si_class_type_infoE, i64 2), ptr @_ZTSN8proxygen15HTTPTransaction15TxnWebTransportE, ptr @_ZTIN8proxygen12WebTransportE }, comdat, align 8
@_ZTVN8proxygen12WebTransportE = linkonce_odr unnamed_addr constant { [14 x ptr] } { [14 x ptr] [ptr null, ptr @_ZTIN8proxygen12WebTransportE, ptr @_ZN8proxygen12WebTransportD2Ev, ptr @_ZN8proxygen12WebTransportD0Ev, ptr @__cxa_pure_virtual, ptr @__cxa_pure_virtual, ptr @__cxa_pure_virtual, ptr @__cxa_pure_virtual, ptr @__cxa_pure_virtual, ptr @__cxa_pure_virtual, ptr @__cxa_pure_virtual, ptr @__cxa_pure_virtual, ptr @__cxa_pure_virtual, ptr @__cxa_pure_virtual] }, comdat, align 8
@_ZTVN5folly7futures6detail4CoreINS_4UnitEEE = linkonce_odr unnamed_addr constant { [4 x ptr] } { [4 x ptr] [ptr null, ptr @_ZTIN5folly7futures6detail4CoreINS_4UnitEEE, ptr @_ZN5folly7futures6detail4CoreINS_4UnitEED2Ev, ptr @_ZN5folly7futures6detail4CoreINS_4UnitEED0Ev] }, comdat, align 8
@_ZTSN5folly7futures6detail4CoreINS_4UnitEEE = linkonce_odr constant [40 x i8] c"N5folly7futures6detail4CoreINS_4UnitEEE\00", comdat, align 1
@_ZTSN5folly7futures6detail12ResultHolderINS_4UnitEEE = linkonce_odr constant [49 x i8] c"N5folly7futures6detail12ResultHolderINS_4UnitEEE\00", comdat, align 1
@_ZTIN5folly7futures6detail12ResultHolderINS_4UnitEEE = linkonce_odr constant { ptr, ptr } { ptr getelementptr inbounds (ptr, ptr @_ZTVN10__cxxabiv117__class_type_infoE, i64 2), ptr @_ZTSN5folly7futures6detail12ResultHolderINS_4UnitEEE }, comdat, align 8
@_ZTIN5folly7futures6detail8CoreBaseE = external constant ptr
@_ZTIN5folly7futures6detail4CoreINS_4UnitEEE = linkonce_odr constant { ptr, ptr, i32, i32, ptr, i64, ptr, i64 } { ptr getelementptr inbounds (ptr, ptr @_ZTVN10__cxxabiv121__vmi_class_type_infoE, i64 2), ptr @_ZTSN5folly7futures6detail4CoreINS_4UnitEEE, i32 0, i32 2, ptr @_ZTIN5folly7futures6detail12ResultHolderINS_4UnitEEE, i64 34816, ptr @_ZTIN5folly7futures6detail8CoreBaseE, i64 2 }, comdat, align 8
@_ZTVN5folly7futures6detail8CoreBaseE = external unnamed_addr constant { [4 x ptr] }, align 8
@_ZTISt17bad_function_call = external constant ptr
@_ZTVSt17bad_function_call = external unnamed_addr constant { [5 x ptr] }, align 8
@_ZTVSt9exception = external unnamed_addr constant { [5 x ptr] }, align 8
@.str.148 = private unnamed_addr constant [99 x i8] c"generated/home/dtcxzyw/WorkSpace/SDK/vcpkg/installed/x64-linux/include/folly/futures/detail/Core.h\00", align 1
@.str.149 = private unnamed_addr constant [30 x i8] c"Check failed: attached_ == 0 \00", align 1
@.str.150 = private unnamed_addr constant [23 x i8] c"~Core unexpected state\00", align 1
@_ZTISt11logic_error = external constant ptr
@_ZTSN5folly13FutureInvalidE = linkonce_odr constant [24 x i8] c"N5folly13FutureInvalidE\00", comdat, align 1
@_ZTSN5folly15FutureExceptionE = linkonce_odr constant [26 x i8] c"N5folly15FutureExceptionE\00", comdat, align 1
@_ZTSN5folly21static_what_exceptionISt11logic_errorEE = linkonce_odr constant [49 x i8] c"N5folly21static_what_exceptionISt11logic_errorEE\00", comdat, align 1
@_ZTIN5folly21static_what_exceptionISt11logic_errorEE = linkonce_odr constant { ptr, ptr, ptr } { ptr getelementptr inbounds (ptr, ptr @_ZTVN10__cxxabiv120__si_class_type_infoE, i64 2), ptr @_ZTSN5folly21static_what_exceptionISt11logic_errorEE, ptr @_ZTISt11logic_error }, comdat, align 8
@_ZTIN5folly15FutureExceptionE = linkonce_odr constant { ptr, ptr, ptr } { ptr getelementptr inbounds (ptr, ptr @_ZTVN10__cxxabiv120__si_class_type_infoE, i64 2), ptr @_ZTSN5folly15FutureExceptionE, ptr @_ZTIN5folly21static_what_exceptionISt11logic_errorEE }, comdat, align 8
@_ZTIN5folly13FutureInvalidE = linkonce_odr constant { ptr, ptr, ptr } { ptr getelementptr inbounds (ptr, ptr @_ZTVN10__cxxabiv120__si_class_type_infoE, i64 2), ptr @_ZTSN5folly13FutureInvalidE, ptr @_ZTIN5folly15FutureExceptionE }, comdat, align 8
@_ZTVN5folly13FutureInvalidE = linkonce_odr unnamed_addr constant { [5 x ptr] } { [5 x ptr] [ptr null, ptr @_ZTIN5folly13FutureInvalidE, ptr @_ZN5folly13FutureInvalidD2Ev, ptr @_ZN5folly13FutureInvalidD0Ev, ptr @_ZNK5folly21static_what_exceptionISt11logic_errorE4whatEv] }, comdat, align 8
@_ZTVN5folly15FutureExceptionE = linkonce_odr unnamed_addr constant { [5 x ptr] } { [5 x ptr] [ptr null, ptr @_ZTIN5folly15FutureExceptionE, ptr @_ZN5folly15FutureExceptionD2Ev, ptr @_ZN5folly15FutureExceptionD0Ev, ptr @_ZNK5folly21static_what_exceptionISt11logic_errorE4whatEv] }, comdat, align 8
@_ZTVN5folly21static_what_exceptionISt11logic_errorEE = linkonce_odr unnamed_addr constant { [5 x ptr] } { [5 x ptr] [ptr null, ptr @_ZTIN5folly21static_what_exceptionISt11logic_errorEE, ptr @_ZN5folly21static_what_exceptionISt11logic_errorED2Ev, ptr @_ZN5folly21static_what_exceptionISt11logic_errorED0Ev, ptr @_ZNK5folly21static_what_exceptionISt11logic_errorE4whatEv] }, comdat, align 8
@.str.151 = private unnamed_addr constant [15 x i8] c"Future invalid\00", align 1
@.str.152 = private unnamed_addr constant [89 x i8] c"Check failed: state_ != State::OnlyCallback && state_ != State::OnlyCallbackAllowInline \00", align 1
@_ZTSN5folly22OptionalEmptyExceptionE = linkonce_odr constant [33 x i8] c"N5folly22OptionalEmptyExceptionE\00", comdat, align 1
@_ZTISt13runtime_error = external constant ptr
@_ZTIN5folly22OptionalEmptyExceptionE = linkonce_odr constant { ptr, ptr, ptr } { ptr getelementptr inbounds (ptr, ptr @_ZTVN10__cxxabiv120__si_class_type_infoE, i64 2), ptr @_ZTSN5folly22OptionalEmptyExceptionE, ptr @_ZTISt13runtime_error }, comdat, align 8
@_ZTVN5folly22OptionalEmptyExceptionE = linkonce_odr unnamed_addr constant { [5 x ptr] } { [5 x ptr] [ptr null, ptr @_ZTIN5folly22OptionalEmptyExceptionE, ptr @_ZN5folly22OptionalEmptyExceptionD2Ev, ptr @_ZN5folly22OptionalEmptyExceptionD0Ev, ptr @_ZNKSt13runtime_error4whatEv] }, comdat, align 8
@.str.153 = private unnamed_addr constant [35 x i8] c"Empty Optional cannot be unwrapped\00", align 1
@.str.154 = private unnamed_addr constant [139 x i8] c"generated/home/dtcxzyw/WorkSpace/Projects/compilers/llvm-opt-benchmark/bench/proxygen/proxygen/proxygen/lib/http/session/HTTPTransaction.h\00", align 1
@_ZZN8proxygen12WebTransport16isConnectMessageERKNS_11HTTPMessageEE13kWebTransportB5cxx11 = linkonce_odr global %"class.std::__cxx11::basic_string" zeroinitializer, comdat, align 8
@_ZGVZN8proxygen12WebTransport16isConnectMessageERKNS_11HTTPMessageEE13kWebTransportB5cxx11 = linkonce_odr global i64 0, comdat, align 8
@.str.155 = private unnamed_addr constant [13 x i8] c"webtransport\00", align 1
@.str.156 = private unnamed_addr constant [48 x i8] c"cannot create std::deque larger than max_size()\00", align 1
@_ZTVN8proxygen13HTTPExceptionE = linkonce_odr unnamed_addr constant { [5 x ptr] } { [5 x ptr] [ptr null, ptr @_ZTIN8proxygen13HTTPExceptionE, ptr @_ZN8proxygen13HTTPExceptionD2Ev, ptr @_ZN8proxygen13HTTPExceptionD0Ev, ptr @_ZNK8proxygen9Exception4whatEv] }, comdat, align 8
@_ZTSN8proxygen13HTTPExceptionE = linkonce_odr constant [27 x i8] c"N8proxygen13HTTPExceptionE\00", comdat, align 1
@_ZTIN8proxygen9ExceptionE = external constant ptr
@_ZTIN8proxygen13HTTPExceptionE = linkonce_odr constant { ptr, ptr, ptr } { ptr getelementptr inbounds (ptr, ptr @_ZTVN10__cxxabiv120__si_class_type_infoE, i64 2), ptr @_ZTSN8proxygen13HTTPExceptionE, ptr @_ZTIN8proxygen9ExceptionE }, comdat, align 8
@_ZTVN8proxygen9ExceptionE = external unnamed_addr constant { [5 x ptr] }, align 8
@.str.157 = private unnamed_addr constant [133 x i8] c"generated/home/dtcxzyw/WorkSpace/Projects/compilers/llvm-opt-benchmark/bench/proxygen/proxygen/proxygen/lib/http/session/HTTPEvent.h\00", align 1
@.str.158 = private unnamed_addr constant [43 x i8] c"Check failed: event == Type::CHUNK_HEADER \00", align 1
@.str.159 = private unnamed_addr constant [87 x i8] c"(void*)(buf->writableTail() + buf->tailroom()) == (void*)cachePtr_->cachedRange.second\00", align 1
@.str.160 = private unnamed_addr constant [93 x i8] c"generated/home/dtcxzyw/WorkSpace/SDK/vcpkg/installed/x64-linux/include/folly/io/IOBufQueue.h\00", align 1
@.str.161 = private unnamed_addr constant [57 x i8] c"(void*)tailStart_ <= (void*)cachePtr_->cachedRange.first\00", align 1
@.str.162 = private unnamed_addr constant [76 x i8] c"(void*)cachePtr_->cachedRange.first <= (void*)cachePtr_->cachedRange.second\00", align 1
@.str.163 = private unnamed_addr constant [99 x i8] c"Check failed: cachePtr_->cachedRange.first != nullptr || cachePtr_->cachedRange.second == nullptr \00", align 1
@.str.164 = private unnamed_addr constant [35 x i8] c"Check failed: cachePtr_->attached \00", align 1
@.str.165 = private unnamed_addr constant [32 x i8] c"Check failed: head_ != nullptr \00", align 1
@.str.166 = private unnamed_addr constant [59 x i8] c"Check failed: tailStart_ == head_->prev()->writableTail() \00", align 1
@.str.167 = private unnamed_addr constant [58 x i8] c"Check failed: tailStart_ <= cachePtr_->cachedRange.first \00", align 1
@.str.168 = private unnamed_addr constant [77 x i8] c"Check failed: cachePtr_->cachedRange.first >= head_->prev()->writableTail() \00", align 1
@.str.169 = private unnamed_addr constant [106 x i8] c"Check failed: cachePtr_->cachedRange.second == head_->prev()->writableTail() + head_->prev()->tailroom() \00", align 1
@.str.170 = private unnamed_addr constant [46 x i8] c"Check failed: reusableTail_ == head_->prev() \00", align 1
@.str.171 = private unnamed_addr constant [21 x i8] c"amount <= tailroom()\00", align 1
@.str.172 = private unnamed_addr constant [88 x i8] c"generated/home/dtcxzyw/WorkSpace/SDK/vcpkg/installed/x64-linux/include/folly/io/IOBuf.h\00", align 1
@.str.173 = private unnamed_addr constant [129 x i8] c"generated/home/dtcxzyw/WorkSpace/Projects/compilers/llvm-opt-benchmark/bench/proxygen/proxygen/proxygen/lib/http/HTTPException.h\00", align 1
@.str.174 = private unnamed_addr constant [36 x i8] c"Check failed: hasCodecStatusCode() \00", align 1
@.str.175 = private unnamed_addr constant [36 x i8] c"IOBufQueue: chain length not cached\00", align 1
@_ZTISt16invalid_argument = external constant ptr
@.str.176 = private unnamed_addr constant [19 x i8] c"length >= splitLen\00", align 1
@.str.177 = private unnamed_addr constant [44 x i8] c"Check failed: event_ == Type::CHUNK_HEADER \00", align 1
@_ZN8proxygen9HTTPCodec8NoStreamE = external global %"class.folly::Optional", align 8
@_ZTVN8proxygen12HTTPPriorityE = linkonce_odr unnamed_addr constant { [4 x ptr] } { [4 x ptr] [ptr null, ptr @_ZTIN8proxygen12HTTPPriorityE, ptr @_ZN8proxygen12HTTPPriorityD2Ev, ptr @_ZN8proxygen12HTTPPriorityD0Ev] }, comdat, align 8
@_ZTSN8proxygen12HTTPPriorityE = linkonce_odr constant [26 x i8] c"N8proxygen12HTTPPriorityE\00", comdat, align 1
@_ZTIN8proxygen12HTTPPriorityE = linkonce_odr constant { ptr, ptr } { ptr getelementptr inbounds (ptr, ptr @_ZTVN10__cxxabiv117__class_type_infoE, i64 2), ptr @_ZTSN8proxygen12HTTPPriorityE }, comdat, align 8
@_ZN5folly3tagIJNS_4UnitEEEE = linkonce_odr constant %"struct.folly::tag_t" undef, comdat, align 1
@_ZTVN5folly13BrokenPromiseE = linkonce_odr unnamed_addr constant { [5 x ptr] } { [5 x ptr] [ptr null, ptr @_ZTIN5folly13BrokenPromiseE, ptr @_ZN5folly13BrokenPromiseD2Ev, ptr @_ZN5folly13BrokenPromiseD0Ev, ptr @_ZNK5folly21static_what_exceptionISt11logic_errorE4whatEv] }, comdat, align 8
@_ZTSN5folly13BrokenPromiseE = linkonce_odr constant [24 x i8] c"N5folly13BrokenPromiseE\00", comdat, align 1
@_ZTSN5folly16PromiseExceptionE = linkonce_odr constant [27 x i8] c"N5folly16PromiseExceptionE\00", comdat, align 1
@_ZTIN5folly16PromiseExceptionE = linkonce_odr constant { ptr, ptr, ptr } { ptr getelementptr inbounds (ptr, ptr @_ZTVN10__cxxabiv120__si_class_type_infoE, i64 2), ptr @_ZTSN5folly16PromiseExceptionE, ptr @_ZTIN5folly21static_what_exceptionISt11logic_errorEE }, comdat, align 8
@_ZTIN5folly13BrokenPromiseE = linkonce_odr constant { ptr, ptr, ptr } { ptr getelementptr inbounds (ptr, ptr @_ZTVN10__cxxabiv120__si_class_type_infoE, i64 2), ptr @_ZTSN5folly13BrokenPromiseE, ptr @_ZTIN5folly16PromiseExceptionE }, comdat, align 8
@_ZZN5folly13BrokenPromise13error_messageINS_4UnitEEEPKcvE3str = linkonce_odr constant %"struct.folly::c_array" { [43 x i8] c"Broken promise for type name `folly::Unit`\00" }, comdat, align 1
@_ZTVN5folly16PromiseExceptionE = linkonce_odr unnamed_addr constant { [5 x ptr] } { [5 x ptr] [ptr null, ptr @_ZTIN5folly16PromiseExceptionE, ptr @_ZN5folly16PromiseExceptionD2Ev, ptr @_ZN5folly16PromiseExceptionD0Ev, ptr @_ZNK5folly21static_what_exceptionISt11logic_errorE4whatEv] }, comdat, align 8
@_ZSt13in_place_typeIN5folly13BrokenPromiseEE = linkonce_odr constant %"struct.std::in_place_type_t" zeroinitializer, comdat, align 1
@.str.178 = private unnamed_addr constant [27 x i8] c"Check failed: hasResult() \00", align 1
@.str.179 = private unnamed_addr constant [101 x i8] c"generated/home/dtcxzyw/WorkSpace/SDK/vcpkg/installed/x64-linux/include/folly/CancellationToken-inl.h\00", align 1
@.str.180 = private unnamed_addr constant [86 x i8] c"Check failed: (oldState & kTokenReferenceCountMask) >= kTokenReferenceCountIncrement \00", align 1
@.str.181 = private unnamed_addr constant [43 x i8] c"Peer reset or abandoned stream with error=\00", align 1
@_ZTVN8proxygen12WebTransport9ExceptionE = linkonce_odr unnamed_addr constant { [5 x ptr] } { [5 x ptr] [ptr null, ptr @_ZTIN8proxygen12WebTransport9ExceptionE, ptr @_ZN8proxygen12WebTransport9ExceptionD2Ev, ptr @_ZN8proxygen12WebTransport9ExceptionD0Ev, ptr @_ZNKSt13runtime_error4whatEv] }, comdat, align 8
@_ZTSN8proxygen12WebTransport9ExceptionE = linkonce_odr constant [36 x i8] c"N8proxygen12WebTransport9ExceptionE\00", comdat, align 1
@_ZTIN8proxygen12WebTransport9ExceptionE = linkonce_odr constant { ptr, ptr, ptr } { ptr getelementptr inbounds (ptr, ptr @_ZTVN10__cxxabiv120__si_class_type_infoE, i64 2), ptr @_ZTSN8proxygen12WebTransport9ExceptionE, ptr @_ZTISt13runtime_error }, comdat, align 8
@_ZN5folly6detail15to_ascii_powersILm10EmE4dataE = external global %"struct.folly::c_array.284", align 8
@_ZN5folly6detail14to_ascii_tableILm10ENS_17to_ascii_alphabetILb0EEEE4dataE = external global %"struct.folly::c_array.285", align 2
@_ZN5folly3tagIJN8proxygen12WebTransport10StreamDataEEEE = linkonce_odr constant %"struct.folly::tag_t.286" undef, comdat, align 1
@_ZZN5folly13BrokenPromise13error_messageIN8proxygen12WebTransport10StreamDataEEEPKcvE3str = linkonce_odr constant %"struct.folly::c_array.287" { [66 x i8] c"Broken promise for type name `proxygen::WebTransport::StreamData`\00" }, comdat, align 1
@.str.182 = private unnamed_addr constant [88 x i8] c"Check failed: (oldState & kSourceReferenceCountMask) >= kSourceReferenceCountIncrement \00", align 1
@_ZSt6ignore = linkonce_odr constant %"struct.std::_Swallow_assign" undef, comdat, align 1
@.str.183 = private unnamed_addr constant [50 x i8] c"Chunked-encoding doesn't support BufferMeta write\00", align 1
@.str.184 = private unnamed_addr constant [60 x i8] c"Creating Pushed transaction on a delegated HTTPTransaction \00", align 1
@.str.185 = private unnamed_addr constant [18 x i8] c"is not supported.\00", align 1
@.str.186 = private unnamed_addr constant [58 x i8] c"Creating ExTransaction on a delegated HTTPTransaction is \00", align 1
@.str.187 = private unnamed_addr constant [15 x i8] c"not supported.\00", align 1
@.str.188 = private unnamed_addr constant [50 x i8] c"basic_string: construction from null is not valid\00", align 1
@_ZN8proxygen12empty_stringB5cxx11E = external global %"class.std::__cxx11::basic_string", align 8
@_ZTSN5folly17BadExpectedAccessIvEE = linkonce_odr constant [31 x i8] c"N5folly17BadExpectedAccessIvEE\00", comdat, align 1
@_ZTISt9exception = external constant ptr
@_ZTIN5folly17BadExpectedAccessIvEE = linkonce_odr constant { ptr, ptr, ptr } { ptr getelementptr inbounds (ptr, ptr @_ZTVN10__cxxabiv120__si_class_type_infoE, i64 2), ptr @_ZTSN5folly17BadExpectedAccessIvEE, ptr @_ZTISt9exception }, comdat, align 8
@_ZTVN5folly17BadExpectedAccessIvEE = linkonce_odr unnamed_addr constant { [5 x ptr] } { [5 x ptr] [ptr null, ptr @_ZTIN5folly17BadExpectedAccessIvEE, ptr @_ZN5folly17BadExpectedAccessIvED2Ev, ptr @_ZN5folly17BadExpectedAccessIvED0Ev, ptr @_ZNK5folly17BadExpectedAccessIvE4whatEv] }, comdat, align 8
@.str.189 = private unnamed_addr constant [20 x i8] c"bad expected access\00", align 1
@_ZSt8in_place = linkonce_odr constant %"struct.std::in_place_t" zeroinitializer, comdat, align 1
@_ZTVN5folly15ConversionErrorE = linkonce_odr unnamed_addr constant { [5 x ptr] } { [5 x ptr] [ptr null, ptr @_ZTIN5folly15ConversionErrorE, ptr @_ZN5folly15ConversionErrorD2Ev, ptr @_ZN5folly15ConversionErrorD0Ev, ptr @_ZNKSt13runtime_error4whatEv] }, comdat, align 8
@_ZTVN5folly19ConversionErrorBaseE = linkonce_odr unnamed_addr constant { [5 x ptr] } { [5 x ptr] [ptr null, ptr @_ZTIN5folly19ConversionErrorBaseE, ptr @_ZN5folly19ConversionErrorBaseD2Ev, ptr @_ZN5folly19ConversionErrorBaseD0Ev, ptr @_ZNKSt13runtime_error4whatEv] }, comdat, align 8
@_ZTVSt11range_error = external unnamed_addr constant { [5 x ptr] }, align 8
@_ZTSN5folly17BadExpectedAccessINS_14ConversionCodeEEE = linkonce_odr constant [50 x i8] c"N5folly17BadExpectedAccessINS_14ConversionCodeEEE\00", comdat, align 1
@_ZTIN5folly17BadExpectedAccessINS_14ConversionCodeEEE = linkonce_odr constant { ptr, ptr, ptr } { ptr getelementptr inbounds (ptr, ptr @_ZTVN10__cxxabiv120__si_class_type_infoE, i64 2), ptr @_ZTSN5folly17BadExpectedAccessINS_14ConversionCodeEEE, ptr @_ZTIN5folly17BadExpectedAccessIvEE }, comdat, align 8
@_ZTVN5folly17BadExpectedAccessINS_14ConversionCodeEEE = linkonce_odr unnamed_addr constant { [5 x ptr] } { [5 x ptr] [ptr null, ptr @_ZTIN5folly17BadExpectedAccessINS_14ConversionCodeEEE, ptr @_ZN5folly17BadExpectedAccessINS_14ConversionCodeEED2Ev, ptr @_ZN5folly17BadExpectedAccessINS_14ConversionCodeEED0Ev, ptr @_ZNK5folly17BadExpectedAccessIvE4whatEv] }, comdat, align 8
@_ZN5folly8identityE = linkonce_odr constant %"struct.folly::identity_fn" undef, comdat, align 1
@.str.190 = private unnamed_addr constant [2 x i8] c"(\00", align 1
@.str.191 = private unnamed_addr constant [3 x i8] c") \00", align 1
@_ZN5folly6detail18pretty_name_zarrayIlNS0_14pretty_tag_gccEE6zarrayE = linkonce_odr constant %"struct.folly::c_array.324" { [5 x i8] c"long\00" }, comdat, align 1
@_ZZN8proxygen12StateMachineINS_28HTTPTransactionIngressSMDataEE7transitERNS1_5StateENS1_5EventEE14occurrences_33 = linkonce_odr global { i32 } zeroinitializer, comdat, align 4
@_ZZN8proxygen12StateMachineINS_28HTTPTransactionIngressSMDataEE7transitERNS1_5StateENS1_5EventEE20occurrences_mod_n_33 = linkonce_odr global { i32 } zeroinitializer, comdat, align 4
@.str.192 = private unnamed_addr constant [129 x i8] c"generated/home/dtcxzyw/WorkSpace/Projects/compilers/llvm-opt-benchmark/bench/proxygen/proxygen/proxygen/lib/utils/StateMachine.h\00", align 1
@.str.193 = private unnamed_addr constant [29 x i8] c": invalid transition tried: \00", align 1
@_ZZN8proxygen12StateMachineINS_28HTTPTransactionIngressSMDataEE7transitERNS1_5StateENS1_5EventEE8vlocal__ = linkonce_odr global %"struct.google::SiteFlag" zeroinitializer, comdat, align 8
@.str.194 = private unnamed_addr constant [22 x i8] c": transitioning from \00", align 1
@.str.195 = private unnamed_addr constant [5 x i8] c" to \00", align 1
@.str.196 = private unnamed_addr constant [23 x i8] c"HTTPTransactionIngress\00", align 1
@_ZZN8proxygen12StateMachineINS_27HTTPTransactionEgressSMDataEE7transitERNS1_5StateENS1_5EventEE14occurrences_33 = linkonce_odr global { i32 } zeroinitializer, comdat, align 4
@_ZZN8proxygen12StateMachineINS_27HTTPTransactionEgressSMDataEE7transitERNS1_5StateENS1_5EventEE20occurrences_mod_n_33 = linkonce_odr global { i32 } zeroinitializer, comdat, align 4
@_ZZN8proxygen12StateMachineINS_27HTTPTransactionEgressSMDataEE7transitERNS1_5StateENS1_5EventEE8vlocal__ = linkonce_odr global %"struct.google::SiteFlag" zeroinitializer, comdat, align 8
@.str.197 = private unnamed_addr constant [22 x i8] c"HTTPTransactionEgress\00", align 1
@_ZTSN5folly17BadExpectedAccessIN8proxygen12WebTransport9ErrorCodeEEE = linkonce_odr constant [65 x i8] c"N5folly17BadExpectedAccessIN8proxygen12WebTransport9ErrorCodeEEE\00", comdat, align 1
@_ZTIN5folly17BadExpectedAccessIN8proxygen12WebTransport9ErrorCodeEEE = linkonce_odr constant { ptr, ptr, ptr } { ptr getelementptr inbounds (ptr, ptr @_ZTVN10__cxxabiv120__si_class_type_infoE, i64 2), ptr @_ZTSN5folly17BadExpectedAccessIN8proxygen12WebTransport9ErrorCodeEEE, ptr @_ZTIN5folly17BadExpectedAccessIvEE }, comdat, align 8
@_ZTVN5folly17BadExpectedAccessIN8proxygen12WebTransport9ErrorCodeEEE = linkonce_odr unnamed_addr constant { [5 x ptr] } { [5 x ptr] [ptr null, ptr @_ZTIN5folly17BadExpectedAccessIN8proxygen12WebTransport9ErrorCodeEEE, ptr @_ZN5folly17BadExpectedAccessIN8proxygen12WebTransport9ErrorCodeEED2Ev, ptr @_ZN5folly17BadExpectedAccessIN8proxygen12WebTransport9ErrorCodeEED0Ev, ptr @_ZNK5folly17BadExpectedAccessIvE4whatEv] }, comdat, align 8
@_ZTVN8proxygen12WebTransport16StreamReadHandleE = linkonce_odr unnamed_addr constant { [8 x ptr] } { [8 x ptr] [ptr null, ptr @_ZTIN8proxygen12WebTransport16StreamReadHandleE, ptr @_ZN8proxygen12WebTransport16StreamReadHandleD2Ev, ptr @_ZN8proxygen12WebTransport16StreamReadHandleD0Ev, ptr @__cxa_pure_virtual, ptr @__cxa_pure_virtual, ptr @__cxa_pure_virtual, ptr @__cxa_pure_virtual] }, comdat, align 8
@_ZTVN8proxygen12WebTransport16StreamHandleBaseE = linkonce_odr unnamed_addr constant { [6 x ptr] } { [6 x ptr] [ptr null, ptr @_ZTIN8proxygen12WebTransport16StreamHandleBaseE, ptr @_ZN8proxygen12WebTransport16StreamHandleBaseD2Ev, ptr @_ZN8proxygen12WebTransport16StreamHandleBaseD0Ev, ptr @__cxa_pure_virtual, ptr @__cxa_pure_virtual] }, comdat, align 8
@_ZTVN5folly6detail17CancellationStateE = external unnamed_addr constant { [4 x ptr] }, align 8
@_ZTVN8proxygen12WebTransport17StreamWriteHandleE = linkonce_odr unnamed_addr constant { [8 x ptr] } { [8 x ptr] [ptr null, ptr @_ZTIN8proxygen12WebTransport17StreamWriteHandleE, ptr @_ZN8proxygen12WebTransport17StreamWriteHandleD2Ev, ptr @_ZN8proxygen12WebTransport17StreamWriteHandleD0Ev, ptr @__cxa_pure_virtual, ptr @__cxa_pure_virtual, ptr @__cxa_pure_virtual, ptr @__cxa_pure_virtual] }, comdat, align 8
@_ZSt13in_place_typeIN8proxygen12WebTransport9ExceptionEE = linkonce_odr constant %"struct.std::in_place_type_t.353" zeroinitializer, comdat, align 1
@_ZTSN5folly22FutureAlreadyRetrievedE = linkonce_odr constant [33 x i8] c"N5folly22FutureAlreadyRetrievedE\00", comdat, align 1
@_ZTIN5folly22FutureAlreadyRetrievedE = linkonce_odr constant { ptr, ptr, ptr } { ptr getelementptr inbounds (ptr, ptr @_ZTVN10__cxxabiv120__si_class_type_infoE, i64 2), ptr @_ZTSN5folly22FutureAlreadyRetrievedE, ptr @_ZTIN5folly16PromiseExceptionE }, comdat, align 8
@_ZTVN5folly22FutureAlreadyRetrievedE = linkonce_odr unnamed_addr constant { [5 x ptr] } { [5 x ptr] [ptr null, ptr @_ZTIN5folly22FutureAlreadyRetrievedE, ptr @_ZN5folly22FutureAlreadyRetrievedD2Ev, ptr @_ZN5folly22FutureAlreadyRetrievedD0Ev, ptr @_ZNK5folly21static_what_exceptionISt11logic_errorE4whatEv] }, comdat, align 8
@.str.198 = private unnamed_addr constant [25 x i8] c"Future already retrieved\00", align 1
@_ZTSN5folly14PromiseInvalidE = linkonce_odr constant [25 x i8] c"N5folly14PromiseInvalidE\00", comdat, align 1
@_ZTIN5folly14PromiseInvalidE = linkonce_odr constant { ptr, ptr, ptr } { ptr getelementptr inbounds (ptr, ptr @_ZTVN10__cxxabiv120__si_class_type_infoE, i64 2), ptr @_ZTSN5folly14PromiseInvalidE, ptr @_ZTIN5folly16PromiseExceptionE }, comdat, align 8
@_ZTVN5folly14PromiseInvalidE = linkonce_odr unnamed_addr constant { [5 x ptr] } { [5 x ptr] [ptr null, ptr @_ZTIN5folly14PromiseInvalidE, ptr @_ZN5folly14PromiseInvalidD2Ev, ptr @_ZN5folly14PromiseInvalidD0Ev, ptr @_ZNK5folly21static_what_exceptionISt11logic_errorE4whatEv] }, comdat, align 8
@.str.199 = private unnamed_addr constant [16 x i8] c"Promise invalid\00", align 1
@_ZTSN5folly23PromiseAlreadySatisfiedE = linkonce_odr constant [34 x i8] c"N5folly23PromiseAlreadySatisfiedE\00", comdat, align 1
@_ZTIN5folly23PromiseAlreadySatisfiedE = linkonce_odr constant { ptr, ptr, ptr } { ptr getelementptr inbounds (ptr, ptr @_ZTVN10__cxxabiv120__si_class_type_infoE, i64 2), ptr @_ZTSN5folly23PromiseAlreadySatisfiedE, ptr @_ZTIN5folly16PromiseExceptionE }, comdat, align 8
@_ZTVN5folly23PromiseAlreadySatisfiedE = linkonce_odr unnamed_addr constant { [5 x ptr] } { [5 x ptr] [ptr null, ptr @_ZTIN5folly23PromiseAlreadySatisfiedE, ptr @_ZN5folly23PromiseAlreadySatisfiedD2Ev, ptr @_ZN5folly23PromiseAlreadySatisfiedD0Ev, ptr @_ZNK5folly21static_what_exceptionISt11logic_errorE4whatEv] }, comdat, align 8
@.str.200 = private unnamed_addr constant [26 x i8] c"Promise already satisfied\00", align 1
@_ZTVN5folly7futures6detail4CoreIN8proxygen12WebTransport10StreamDataEEE = linkonce_odr unnamed_addr constant { [4 x ptr] } { [4 x ptr] [ptr null, ptr @_ZTIN5folly7futures6detail4CoreIN8proxygen12WebTransport10StreamDataEEE, ptr @_ZN5folly7futures6detail4CoreIN8proxygen12WebTransport10StreamDataEED2Ev, ptr @_ZN5folly7futures6detail4CoreIN8proxygen12WebTransport10StreamDataEED0Ev] }, comdat, align 8
@_ZTSN5folly7futures6detail4CoreIN8proxygen12WebTransport10StreamDataEEE = linkonce_odr constant [68 x i8] c"N5folly7futures6detail4CoreIN8proxygen12WebTransport10StreamDataEEE\00", comdat, align 1
@_ZTSN5folly7futures6detail12ResultHolderIN8proxygen12WebTransport10StreamDataEEE = linkonce_odr constant [77 x i8] c"N5folly7futures6detail12ResultHolderIN8proxygen12WebTransport10StreamDataEEE\00", comdat, align 1
@_ZTIN5folly7futures6detail12ResultHolderIN8proxygen12WebTransport10StreamDataEEE = linkonce_odr constant { ptr, ptr } { ptr getelementptr inbounds (ptr, ptr @_ZTVN10__cxxabiv117__class_type_infoE, i64 2), ptr @_ZTSN5folly7futures6detail12ResultHolderIN8proxygen12WebTransport10StreamDataEEE }, comdat, align 8
@_ZTIN5folly7futures6detail4CoreIN8proxygen12WebTransport10StreamDataEEE = linkonce_odr constant { ptr, ptr, i32, i32, ptr, i64, ptr, i64 } { ptr getelementptr inbounds (ptr, ptr @_ZTVN10__cxxabiv121__vmi_class_type_infoE, i64 2), ptr @_ZTSN5folly7futures6detail4CoreIN8proxygen12WebTransport10StreamDataEEE, i32 0, i32 2, ptr @_ZTIN5folly7futures6detail12ResultHolderIN8proxygen12WebTransport10StreamDataEEE, i64 34816, ptr @_ZTIN5folly7futures6detail8CoreBaseE, i64 2 }, comdat, align 8
@llvm.global_ctors = appending global [1 x { i32, ptr, ptr }] [{ i32, ptr, ptr } { i32 65535, ptr @_GLOBAL__sub_I_HTTPTransaction.cpp, ptr null }]

@_ZN8proxygen15HTTPTransactionC1ENS_18TransportDirectionEmjRNS0_9TransportERNS_22HTTP2PriorityQueueBaseEPN5folly16HHWheelTimerBaseINSt6chrono8durationIlSt5ratioILl1ELl1000EEEEEERKNS6_8OptionalISC_EEPNS_16HTTPSessionStatsEbjjNS_5http214PriorityUpdateENSF_ImEENSF_INS_9HTTPCodec12ExAttributesEEEb = unnamed_addr alias void (ptr, i8, i64, i32, ptr, ptr, ptr, ptr, ptr, i1, i32, i32, ptr, ptr, ptr, i1), ptr @_ZN8proxygen15HTTPTransactionC2ENS_18TransportDirectionEmjRNS0_9TransportERNS_22HTTP2PriorityQueueBaseEPN5folly16HHWheelTimerBaseINSt6chrono8durationIlSt5ratioILl1ELl1000EEEEEERKNS6_8OptionalISC_EEPNS_16HTTPSessionStatsEbjjNS_5http214PriorityUpdateENSF_ImEENSF_INS_9HTTPCodec12ExAttributesEEEb
@_ZN8proxygen15HTTPTransactionD1Ev = unnamed_addr alias void (ptr), ptr @_ZN8proxygen15HTTPTransactionD2Ev

; Function Attrs: uwtable
define internal void @__cxx_global_var_init() #0 section ".text.startup" {
entry:
  call void @_ZNSt8ios_base4InitC1Ev(ptr noundef nonnull align 1 dereferenceable(1) @_ZStL8__ioinit)
  %0 = call i32 @__cxa_atexit(ptr @_ZNSt8ios_base4InitD1Ev, ptr @_ZStL8__ioinit, ptr @__dso_handle) #3
  ret void
}

declare void @_ZNSt8ios_base4InitC1Ev(ptr noundef nonnull align 1 dereferenceable(1)) unnamed_addr #1

; Function Attrs: nounwind
declare void @_ZNSt8ios_base4InitD1Ev(ptr noundef nonnull align 1 dereferenceable(1)) unnamed_addr #2

; Function Attrs: nounwind
declare i32 @__cxa_atexit(ptr, ptr, ptr) #3

; Function Attrs: mustprogress uwtable
define void @_ZN8proxygen15HTTPTransactionC2ENS_18TransportDirectionEmjRNS0_9TransportERNS_22HTTP2PriorityQueueBaseEPN5folly16HHWheelTimerBaseINSt6chrono8durationIlSt5ratioILl1ELl1000EEEEEERKNS6_8OptionalISC_EEPNS_16HTTPSessionStatsEbjjNS_5http214PriorityUpdateENSF_ImEENSF_INS_9HTTPCodec12ExAttributesEEEb(ptr noundef nonnull align 8 dereferenceable(912) %this, i8 noundef zeroext %direction, i64 noundef %id, i32 noundef %seqNo, ptr noundef nonnull align 8 dereferenceable(8) %transport, ptr noundef nonnull align 8 dereferenceable(16) %egressQueue, ptr noundef %timer, ptr noundef nonnull align 8 dereferenceable(16) %defaultIdleTimeout, ptr noundef %stats, i1 noundef zeroext %useFlowControl, i32 noundef %receiveInitialWindowSize, i32 noundef %sendInitialWindowSize, ptr noundef byval(%"struct.proxygen::http2::PriorityUpdate") align 8 %priority, ptr noundef %assocId, ptr noundef %exAttributes, i1 noundef zeroext %setIngressTimeoutAfterEom) unnamed_addr #4 align 2 personality ptr @__gxx_personality_v0 {
entry:
  %this.addr = alloca ptr, align 8
  %direction.addr = alloca i8, align 1
  %id.addr = alloca i64, align 8
  %seqNo.addr = alloca i32, align 4
  %transport.addr = alloca ptr, align 8
  %egressQueue.addr = alloca ptr, align 8
  %timer.addr = alloca ptr, align 8
  %defaultIdleTimeout.addr = alloca ptr, align 8
  %stats.addr = alloca ptr, align 8
  %useFlowControl.addr = alloca i8, align 1
  %receiveInitialWindowSize.addr = alloca i32, align 4
  %sendInitialWindowSize.addr = alloca i32, align 4
  %assocId.indirect_addr = alloca ptr, align 8
  %exAttributes.indirect_addr = alloca ptr, align 8
  %setIngressTimeoutAfterEom.addr = alloca i8, align 1
  %exn.slot = alloca ptr, align 8
  %ehselector.slot = alloca i32, align 4
  %ref.tmp = alloca %"struct.folly::IOBufQueue::Options", align 1
  %ref.tmp16 = alloca i64, align 8
  %agg.tmp = alloca %"struct.proxygen::http2::PriorityUpdate", align 8
  store ptr %this, ptr %this.addr, align 8
  store i8 %direction, ptr %direction.addr, align 1
  store i64 %id, ptr %id.addr, align 8
  store i32 %seqNo, ptr %seqNo.addr, align 4
  store ptr %transport, ptr %transport.addr, align 8
  store ptr %egressQueue, ptr %egressQueue.addr, align 8
  store ptr %timer, ptr %timer.addr, align 8
  store ptr %defaultIdleTimeout, ptr %defaultIdleTimeout.addr, align 8
  store ptr %stats, ptr %stats.addr, align 8
  %frombool = zext i1 %useFlowControl to i8
  store i8 %frombool, ptr %useFlowControl.addr, align 1
  store i32 %receiveInitialWindowSize, ptr %receiveInitialWindowSize.addr, align 4
  store i32 %sendInitialWindowSize, ptr %sendInitialWindowSize.addr, align 4
  store ptr %assocId, ptr %assocId.indirect_addr, align 8
  store ptr %exAttributes, ptr %exAttributes.indirect_addr, align 8
  %frombool1 = zext i1 %setIngressTimeoutAfterEom to i8
  store i8 %frombool1, ptr %setIngressTimeoutAfterEom.addr, align 1
  %this2 = load ptr, ptr %this.addr, align 8
  call void @_ZN5folly16HHWheelTimerBaseINSt6chrono8durationIlSt5ratioILl1ELl1000EEEEE8CallbackC2Ev(ptr noundef nonnull align 8 dereferenceable(64) %this2)
  %0 = getelementptr inbounds i8, ptr %this2, i64 64
  invoke void @_ZN5folly22DelayedDestructionBaseC2Ev(ptr noundef nonnull align 8 dereferenceable(12) %0)
          to label %invoke.cont unwind label %lpad

invoke.cont:                                      ; preds = %entry
  store ptr getelementptr inbounds ({ [33 x ptr], [5 x ptr] }, ptr @_ZTVN8proxygen15HTTPTransactionE, i32 0, inrange i32 0, i32 2), ptr %this2, align 8
  %add.ptr = getelementptr inbounds i8, ptr %this2, i64 64
  store ptr getelementptr inbounds ({ [33 x ptr], [5 x ptr] }, ptr @_ZTVN8proxygen15HTTPTransactionE, i32 0, inrange i32 1, i32 2), ptr %add.ptr, align 8
  %rateLimitCallback_ = getelementptr inbounds %"class.proxygen::HTTPTransaction", ptr %this2, i32 0, i32 2
  invoke void @_ZN8proxygen15HTTPTransaction17RateLimitCallbackC2ERS0_(ptr noundef nonnull align 8 dereferenceable(72) %rateLimitCallback_, ptr noundef nonnull align 8 dereferenceable(912) %this2)
          to label %invoke.cont4 unwind label %lpad3

invoke.cont4:                                     ; preds = %invoke.cont
  %deferredIngress_ = getelementptr inbounds %"class.proxygen::HTTPTransaction", ptr %this2, i32 0, i32 3
  call void @_ZNSt10unique_ptrISt5queueIN8proxygen9HTTPEventESt5dequeIS2_SaIS2_EEESt14default_deleteIS6_EEC2IS8_vEEv(ptr noundef nonnull align 8 dereferenceable(8) %deferredIngress_) #3
  %deferredEgressBody_ = getelementptr inbounds %"class.proxygen::HTTPTransaction", ptr %this2, i32 0, i32 4
  %call = invoke i8 @_ZN5folly10IOBufQueue16cacheChainLengthEv()
          to label %invoke.cont6 unwind label %lpad5

invoke.cont6:                                     ; preds = %invoke.cont4
  %coerce.dive = getelementptr inbounds %"struct.folly::IOBufQueue::Options", ptr %ref.tmp, i32 0, i32 0
  store i8 %call, ptr %coerce.dive, align 1
  invoke void @_ZN5folly10IOBufQueueC1ERKNS0_7OptionsE(ptr noundef nonnull align 8 dereferenceable(72) %deferredEgressBody_, ptr noundef nonnull align 1 dereferenceable(1) %ref.tmp)
          to label %invoke.cont7 unwind label %lpad5

invoke.cont7:                                     ; preds = %invoke.cont6
  %deferredBufferMeta_ = getelementptr inbounds %"class.proxygen::HTTPTransaction", ptr %this2, i32 0, i32 5
  call void @_ZN8proxygen15HTTPTransaction10BufferMetaC2Ev(ptr noundef nonnull align 8 dereferenceable(8) %deferredBufferMeta_) #3
  %direction_ = getelementptr inbounds %"class.proxygen::HTTPTransaction", ptr %this2, i32 0, i32 6
  %1 = load i8, ptr %direction.addr, align 1
  store i8 %1, ptr %direction_, align 8
  %egressState_ = getelementptr inbounds %"class.proxygen::HTTPTransaction", ptr %this2, i32 0, i32 7
  %call10 = invoke noundef zeroext i8 @_ZN8proxygen12StateMachineINS_27HTTPTransactionEgressSMDataEE14getNewInstanceEv()
          to label %invoke.cont9 unwind label %lpad8

invoke.cont9:                                     ; preds = %invoke.cont7
  store i8 %call10, ptr %egressState_, align 1
  %ingressState_ = getelementptr inbounds %"class.proxygen::HTTPTransaction", ptr %this2, i32 0, i32 8
  %call12 = invoke noundef zeroext i8 @_ZN8proxygen12StateMachineINS_28HTTPTransactionIngressSMDataEE14getNewInstanceEv()
          to label %invoke.cont11 unwind label %lpad8

invoke.cont11:                                    ; preds = %invoke.cont9
  store i8 %call12, ptr %ingressState_, align 2
  %recvToAck_ = getelementptr inbounds %"class.proxygen::HTTPTransaction", ptr %this2, i32 0, i32 9
  store i32 0, ptr %recvToAck_, align 4
  %id_ = getelementptr inbounds %"class.proxygen::HTTPTransaction", ptr %this2, i32 0, i32 10
  %2 = load i64, ptr %id.addr, align 8
  store i64 %2, ptr %id_, align 8
  %seqNo_ = getelementptr inbounds %"class.proxygen::HTTPTransaction", ptr %this2, i32 0, i32 11
  %3 = load i32, ptr %seqNo.addr, align 4
  store i32 %3, ptr %seqNo_, align 8
  %maxDeferredIngress_ = getelementptr inbounds %"class.proxygen::HTTPTransaction", ptr %this2, i32 0, i32 12
  store i32 0, ptr %maxDeferredIngress_, align 4
  %handler_ = getelementptr inbounds %"class.proxygen::HTTPTransaction", ptr %this2, i32 0, i32 13
  store ptr null, ptr %handler_, align 8
  %transport_ = getelementptr inbounds %"class.proxygen::HTTPTransaction", ptr %this2, i32 0, i32 14
  %4 = load ptr, ptr %transport.addr, align 8
  store ptr %4, ptr %transport_, align 8
  %stats_ = getelementptr inbounds %"class.proxygen::HTTPTransaction", ptr %this2, i32 0, i32 15
  %5 = load ptr, ptr %stats.addr, align 8
  store ptr %5, ptr %stats_, align 8
  %tableInfo_ = getelementptr inbounds %"class.proxygen::HTTPTransaction", ptr %this2, i32 0, i32 16
  invoke void @_ZN8proxygen15CompressionInfoC2Ev(ptr noundef nonnull align 4 dereferenceable(56) %tableInfo_)
          to label %invoke.cont13 unwind label %lpad8

invoke.cont13:                                    ; preds = %invoke.cont11
  %recvWindow_ = getelementptr inbounds %"class.proxygen::HTTPTransaction", ptr %this2, i32 0, i32 17
  %6 = load i32, ptr %receiveInitialWindowSize.addr, align 4
  invoke void @_ZN8proxygen6WindowC1Ej(ptr noundef nonnull align 4 dereferenceable(8) %recvWindow_, i32 noundef %6)
          to label %invoke.cont14 unwind label %lpad8

invoke.cont14:                                    ; preds = %invoke.cont13
  %sendWindow_ = getelementptr inbounds %"class.proxygen::HTTPTransaction", ptr %this2, i32 0, i32 18
  %7 = load i32, ptr %sendInitialWindowSize.addr, align 4
  invoke void @_ZN8proxygen6WindowC1Ej(ptr noundef nonnull align 4 dereferenceable(8) %sendWindow_, i32 noundef %7)
          to label %invoke.cont15 unwind label %lpad8

invoke.cont15:                                    ; preds = %invoke.cont14
  %transportCallback_ = getelementptr inbounds %"class.proxygen::HTTPTransaction", ptr %this2, i32 0, i32 19
  store ptr null, ptr %transportCallback_, align 8
  %trailers_ = getelementptr inbounds %"class.proxygen::HTTPTransaction", ptr %this2, i32 0, i32 20
  call void @_ZNSt10unique_ptrIN8proxygen11HTTPHeadersESt14default_deleteIS1_EEC2IS3_vEEv(ptr noundef nonnull align 8 dereferenceable(8) %trailers_) #3
  %chunkHeaders_ = getelementptr inbounds %"class.proxygen::HTTPTransaction", ptr %this2, i32 0, i32 21
  call void @_ZNSt7__cxx114listIN8proxygen15HTTPTransaction5ChunkESaIS3_EEC2Ev(ptr noundef nonnull align 8 dereferenceable(24) %chunkHeaders_) #3
  %egressQueue_ = getelementptr inbounds %"class.proxygen::HTTPTransaction", ptr %this2, i32 0, i32 22
  %8 = load ptr, ptr %egressQueue.addr, align 8
  store ptr %8, ptr %egressQueue_, align 8
  %queueHandle_ = getelementptr inbounds %"class.proxygen::HTTPTransaction", ptr %this2, i32 0, i32 23
  store ptr null, ptr %queueHandle_, align 8
  %assocStreamId_ = getelementptr inbounds %"class.proxygen::HTTPTransaction", ptr %this2, i32 0, i32 24
  call void @_ZN5folly8OptionalImEC2ERKS1_(ptr noundef nonnull align 8 dereferenceable(16) %assocStreamId_, ptr noundef nonnull align 8 dereferenceable(16) %assocId) #3
  %exAttributes_ = getelementptr inbounds %"class.proxygen::HTTPTransaction", ptr %this2, i32 0, i32 25
  call void @_ZN5folly8OptionalIN8proxygen9HTTPCodec12ExAttributesEEC2Ev(ptr noundef nonnull align 8 dereferenceable(24) %exAttributes_) #3
  %pushedTransactions_ = getelementptr inbounds %"class.proxygen::HTTPTransaction", ptr %this2, i32 0, i32 26
  call void @_ZNSt3setImSt4lessImESaImEEC2Ev(ptr noundef nonnull align 8 dereferenceable(48) %pushedTransactions_) #3
  %exTransactions_ = getelementptr inbounds %"class.proxygen::HTTPTransaction", ptr %this2, i32 0, i32 27
  call void @_ZNSt3setImSt4lessImESaImEEC2Ev(ptr noundef nonnull align 8 dereferenceable(48) %exTransactions_) #3
  %priority_ = getelementptr inbounds %"class.proxygen::HTTPTransaction", ptr %this2, i32 0, i32 28
  call void @llvm.memcpy.p0.p0.i64(ptr align 8 %priority_, ptr align 8 %priority, i64 16, i1 false)
  %insertDepth_ = getelementptr inbounds %"class.proxygen::HTTPTransaction", ptr %this2, i32 0, i32 29
  store i64 0, ptr %insertDepth_, align 8
  %currentDepth_ = getelementptr inbounds %"class.proxygen::HTTPTransaction", ptr %this2, i32 0, i32 30
  store i64 0, ptr %currentDepth_, align 8
  %cumulativeRatio_ = getelementptr inbounds %"class.proxygen::HTTPTransaction", ptr %this2, i32 0, i32 31
  store double 0.000000e+00, ptr %cumulativeRatio_, align 8
  %egressCalls_ = getelementptr inbounds %"class.proxygen::HTTPTransaction", ptr %this2, i32 0, i32 32
  store i64 0, ptr %egressCalls_, align 8
  %pendingByteEvents_ = getelementptr inbounds %"class.proxygen::HTTPTransaction", ptr %this2, i32 0, i32 33
  store i64 0, ptr %pendingByteEvents_, align 8
  %expectedIngressContentLength_ = getelementptr inbounds %"class.proxygen::HTTPTransaction", ptr %this2, i32 0, i32 34
  call void @_ZN5folly8OptionalImEC2Ev(ptr noundef nonnull align 8 dereferenceable(16) %expectedIngressContentLength_) #3
  %expectedIngressContentLengthRemaining_ = getelementptr inbounds %"class.proxygen::HTTPTransaction", ptr %this2, i32 0, i32 35
  call void @_ZN5folly8OptionalImEC2Ev(ptr noundef nonnull align 8 dereferenceable(16) %expectedIngressContentLengthRemaining_) #3
  %expectedResponseLength_ = getelementptr inbounds %"class.proxygen::HTTPTransaction", ptr %this2, i32 0, i32 36
  call void @_ZN5folly8OptionalImEC2Ev(ptr noundef nonnull align 8 dereferenceable(16) %expectedResponseLength_) #3
  %actualResponseLength_ = getelementptr inbounds %"class.proxygen::HTTPTransaction", ptr %this2, i32 0, i32 37
  store i64 0, ptr %ref.tmp16, align 8
  call void @_ZN5folly8OptionalImEC2EOm(ptr noundef nonnull align 8 dereferenceable(16) %actualResponseLength_, ptr noundef nonnull align 8 dereferenceable(8) %ref.tmp16) #3
  %bodyBytesEgressed_ = getelementptr inbounds %"class.proxygen::HTTPTransaction", ptr %this2, i32 0, i32 38
  store i64 0, ptr %bodyBytesEgressed_, align 8
  %egressBodyOffsetsToTrack_ = getelementptr inbounds %"class.proxygen::HTTPTransaction", ptr %this2, i32 0, i32 39
  call void @_ZNSt3mapImN8proxygen9ByteEvent10EventFlagsESt4lessImESaISt4pairIKmS2_EEEC2Ev(ptr noundef nonnull align 8 dereferenceable(48) %egressBodyOffsetsToTrack_) #3
  %ingressPaused_ = getelementptr inbounds %"class.proxygen::HTTPTransaction", ptr %this2, i32 0, i32 40
  %bf.load = load i32, ptr %ingressPaused_, align 8
  %bf.clear = and i32 %bf.load, -2
  %bf.set = or i32 %bf.clear, 0
  store i32 %bf.set, ptr %ingressPaused_, align 8
  %egressPaused_ = getelementptr inbounds %"class.proxygen::HTTPTransaction", ptr %this2, i32 0, i32 40
  %bf.load17 = load i32, ptr %egressPaused_, align 8
  %bf.clear18 = and i32 %bf.load17, -3
  %bf.set19 = or i32 %bf.clear18, 0
  store i32 %bf.set19, ptr %egressPaused_, align 8
  %flowControlPaused_ = getelementptr inbounds %"class.proxygen::HTTPTransaction", ptr %this2, i32 0, i32 40
  %bf.load20 = load i32, ptr %flowControlPaused_, align 8
  %bf.clear21 = and i32 %bf.load20, -5
  %bf.set22 = or i32 %bf.clear21, 0
  store i32 %bf.set22, ptr %flowControlPaused_, align 8
  %handlerEgressPaused_ = getelementptr inbounds %"class.proxygen::HTTPTransaction", ptr %this2, i32 0, i32 40
  %bf.load23 = load i32, ptr %handlerEgressPaused_, align 8
  %bf.clear24 = and i32 %bf.load23, -9
  %bf.set25 = or i32 %bf.clear24, 0
  store i32 %bf.set25, ptr %handlerEgressPaused_, align 8
  %egressRateLimited_ = getelementptr inbounds %"class.proxygen::HTTPTransaction", ptr %this2, i32 0, i32 40
  %bf.load26 = load i32, ptr %egressRateLimited_, align 8
  %bf.clear27 = and i32 %bf.load26, -17
  %bf.set28 = or i32 %bf.clear27, 0
  store i32 %bf.set28, ptr %egressRateLimited_, align 8
  %useFlowControl_ = getelementptr inbounds %"class.proxygen::HTTPTransaction", ptr %this2, i32 0, i32 40
  %9 = load i8, ptr %useFlowControl.addr, align 1
  %tobool = trunc i8 %9 to i1
  %10 = zext i1 %tobool to i32
  %bf.load29 = load i32, ptr %useFlowControl_, align 8
  %bf.shl = shl i32 %10, 5
  %bf.clear30 = and i32 %bf.load29, -33
  %bf.set31 = or i32 %bf.clear30, %bf.shl
  store i32 %bf.set31, ptr %useFlowControl_, align 8
  %aborted_ = getelementptr inbounds %"class.proxygen::HTTPTransaction", ptr %this2, i32 0, i32 40
  %bf.load32 = load i32, ptr %aborted_, align 8
  %bf.clear33 = and i32 %bf.load32, -65
  %bf.set34 = or i32 %bf.clear33, 0
  store i32 %bf.set34, ptr %aborted_, align 8
  %deleting_ = getelementptr inbounds %"class.proxygen::HTTPTransaction", ptr %this2, i32 0, i32 40
  %bf.load35 = load i32, ptr %deleting_, align 8
  %bf.clear36 = and i32 %bf.load35, -129
  %bf.set37 = or i32 %bf.clear36, 0
  store i32 %bf.set37, ptr %deleting_, align 8
  %firstByteSent_ = getelementptr inbounds %"class.proxygen::HTTPTransaction", ptr %this2, i32 0, i32 40
  %bf.load38 = load i32, ptr %firstByteSent_, align 8
  %bf.clear39 = and i32 %bf.load38, -257
  %bf.set40 = or i32 %bf.clear39, 0
  store i32 %bf.set40, ptr %firstByteSent_, align 8
  %firstHeaderByteSent_ = getelementptr inbounds %"class.proxygen::HTTPTransaction", ptr %this2, i32 0, i32 40
  %bf.load41 = load i32, ptr %firstHeaderByteSent_, align 8
  %bf.clear42 = and i32 %bf.load41, -513
  %bf.set43 = or i32 %bf.clear42, 0
  store i32 %bf.set43, ptr %firstHeaderByteSent_, align 8
  %inResume_ = getelementptr inbounds %"class.proxygen::HTTPTransaction", ptr %this2, i32 0, i32 40
  %bf.load44 = load i32, ptr %inResume_, align 8
  %bf.clear45 = and i32 %bf.load44, -1025
  %bf.set46 = or i32 %bf.clear45, 0
  store i32 %bf.set46, ptr %inResume_, align 8
  %isCountedTowardsStreamLimit_ = getelementptr inbounds %"class.proxygen::HTTPTransaction", ptr %this2, i32 0, i32 40
  %bf.load47 = load i32, ptr %isCountedTowardsStreamLimit_, align 8
  %bf.clear48 = and i32 %bf.load47, -2049
  %bf.set49 = or i32 %bf.clear48, 0
  store i32 %bf.set49, ptr %isCountedTowardsStreamLimit_, align 8
  %ingressErrorSeen_ = getelementptr inbounds %"class.proxygen::HTTPTransaction", ptr %this2, i32 0, i32 40
  %bf.load50 = load i32, ptr %ingressErrorSeen_, align 8
  %bf.clear51 = and i32 %bf.load50, -4097
  %bf.set52 = or i32 %bf.clear51, 0
  store i32 %bf.set52, ptr %ingressErrorSeen_, align 8
  %priorityFallback_ = getelementptr inbounds %"class.proxygen::HTTPTransaction", ptr %this2, i32 0, i32 40
  %bf.load53 = load i32, ptr %priorityFallback_, align 8
  %bf.clear54 = and i32 %bf.load53, -8193
  %bf.set55 = or i32 %bf.clear54, 0
  store i32 %bf.set55, ptr %priorityFallback_, align 8
  %headRequest_ = getelementptr inbounds %"class.proxygen::HTTPTransaction", ptr %this2, i32 0, i32 40
  %bf.load56 = load i32, ptr %headRequest_, align 8
  %bf.clear57 = and i32 %bf.load56, -16385
  %bf.set58 = or i32 %bf.clear57, 0
  store i32 %bf.set58, ptr %headRequest_, align 8
  %enableLastByteFlushedTracking_ = getelementptr inbounds %"class.proxygen::HTTPTransaction", ptr %this2, i32 0, i32 40
  %bf.load59 = load i32, ptr %enableLastByteFlushedTracking_, align 8
  %bf.clear60 = and i32 %bf.load59, -32769
  %bf.set61 = or i32 %bf.clear60, 0
  store i32 %bf.set61, ptr %enableLastByteFlushedTracking_, align 8
  %wtConnectStream_ = getelementptr inbounds %"class.proxygen::HTTPTransaction", ptr %this2, i32 0, i32 40
  %bf.load62 = load i32, ptr %wtConnectStream_, align 8
  %bf.clear63 = and i32 %bf.load62, -65537
  %bf.set64 = or i32 %bf.clear63, 0
  store i32 %bf.set64, ptr %wtConnectStream_, align 8
  %egressHeadersDelivered_ = getelementptr inbounds %"class.proxygen::HTTPTransaction", ptr %this2, i32 0, i32 40
  %bf.load65 = load i32, ptr %egressHeadersDelivered_, align 8
  %bf.clear66 = and i32 %bf.load65, -131073
  %bf.set67 = or i32 %bf.clear66, 0
  store i32 %bf.set67, ptr %egressHeadersDelivered_, align 8
  %has1xxResponse_ = getelementptr inbounds %"class.proxygen::HTTPTransaction", ptr %this2, i32 0, i32 40
  %bf.load68 = load i32, ptr %has1xxResponse_, align 8
  %bf.clear69 = and i32 %bf.load68, -262145
  %bf.set70 = or i32 %bf.clear69, 0
  store i32 %bf.set70, ptr %has1xxResponse_, align 8
  %isDelegated_ = getelementptr inbounds %"class.proxygen::HTTPTransaction", ptr %this2, i32 0, i32 40
  %bf.load71 = load i32, ptr %isDelegated_, align 8
  %bf.clear72 = and i32 %bf.load71, -524289
  %bf.set73 = or i32 %bf.clear72, 0
  store i32 %bf.set73, ptr %isDelegated_, align 8
  %lastResponseStatus_ = getelementptr inbounds %"class.proxygen::HTTPTransaction", ptr %this2, i32 0, i32 41
  store i16 0, ptr %lastResponseStatus_, align 4
  %egressLimitBytesPerMs_ = getelementptr inbounds %"class.proxygen::HTTPTransaction", ptr %this2, i32 0, i32 42
  store i64 0, ptr %egressLimitBytesPerMs_, align 8
  %startRateLimit_ = getelementptr inbounds %"class.proxygen::HTTPTransaction", ptr %this2, i32 0, i32 43
  invoke void @_ZNSt6chrono10time_pointINS_3_V212steady_clockENS_8durationIlSt5ratioILl1ELl1000000000EEEEEC2Ev(ptr noundef nonnull align 8 dereferenceable(8) %startRateLimit_)
          to label %invoke.cont75 unwind label %lpad74

invoke.cont75:                                    ; preds = %invoke.cont15
  %numLimitedBytesEgressed_ = getelementptr inbounds %"class.proxygen::HTTPTransaction", ptr %this2, i32 0, i32 44
  store i64 0, ptr %numLimitedBytesEgressed_, align 8
  %idleTimeout_ = getelementptr inbounds %"class.proxygen::HTTPTransaction", ptr %this2, i32 0, i32 45
  %11 = load ptr, ptr %defaultIdleTimeout.addr, align 8
  call void @_ZN5folly8OptionalINSt6chrono8durationIlSt5ratioILl1ELl1000EEEEEC2ERKS6_(ptr noundef nonnull align 8 dereferenceable(16) %idleTimeout_, ptr noundef nonnull align 8 dereferenceable(16) %11) #3
  %timer_ = getelementptr inbounds %"class.proxygen::HTTPTransaction", ptr %this2, i32 0, i32 46
  %12 = load ptr, ptr %timer.addr, align 8
  store ptr %12, ptr %timer_, align 8
  %ingressBodyOffset_ = getelementptr inbounds %"class.proxygen::HTTPTransaction", ptr %this2, i32 0, i32 47
  store i64 0, ptr %ingressBodyOffset_, align 8
  %setIngressTimeoutAfterEom_ = getelementptr inbounds %"class.proxygen::HTTPTransaction", ptr %this2, i32 0, i32 48
  %13 = load i8, ptr %setIngressTimeoutAfterEom.addr, align 1
  %tobool76 = trunc i8 %13 to i1
  %frombool77 = zext i1 %tobool76 to i8
  store i8 %frombool77, ptr %setIngressTimeoutAfterEom_, align 8
  %wtEgressStreams_ = getelementptr inbounds %"class.proxygen::HTTPTransaction", ptr %this2, i32 0, i32 49
  call void @_ZNSt3mapImN8proxygen15HTTPTransaction20TxnStreamWriteHandleESt4lessImESaISt4pairIKmS2_EEEC2Ev(ptr noundef nonnull align 8 dereferenceable(48) %wtEgressStreams_) #3
  %wtIngressStreams_ = getelementptr inbounds %"class.proxygen::HTTPTransaction", ptr %this2, i32 0, i32 50
  call void @_ZNSt3mapImN8proxygen15HTTPTransaction19TxnStreamReadHandleESt4lessImESaISt4pairIKmS2_EEEC2Ev(ptr noundef nonnull align 8 dereferenceable(48) %wtIngressStreams_) #3
  %webTransport_ = getelementptr inbounds %"class.proxygen::HTTPTransaction", ptr %this2, i32 0, i32 51
  invoke void @_ZN8proxygen15HTTPTransaction15TxnWebTransportC2ERS0_(ptr noundef nonnull align 8 dereferenceable(16) %webTransport_, ptr noundef nonnull align 8 dereferenceable(912) %this2)
          to label %invoke.cont79 unwind label %lpad78

invoke.cont79:                                    ; preds = %invoke.cont75
  %assocStreamId_80 = getelementptr inbounds %"class.proxygen::HTTPTransaction", ptr %this2, i32 0, i32 24
  %call81 = call noundef zeroext i1 @_ZNK5folly8OptionalImEcvbEv(ptr noundef nonnull align 8 dereferenceable(16) %assocStreamId_80) #3
  br i1 %call81, label %if.then, label %if.end88

if.then:                                          ; preds = %invoke.cont79
  %call84 = invoke noundef zeroext i1 @_ZNK8proxygen15HTTPTransaction10isUpstreamEv(ptr noundef nonnull align 8 dereferenceable(912) %this2)
          to label %invoke.cont83 unwind label %lpad82

invoke.cont83:                                    ; preds = %if.then
  br i1 %call84, label %if.then85, label %if.else

if.then85:                                        ; preds = %invoke.cont83
  %egressState_86 = getelementptr inbounds %"class.proxygen::HTTPTransaction", ptr %this2, i32 0, i32 7
  store i8 9, ptr %egressState_86, align 1
  br label %if.end

lpad:                                             ; preds = %entry
  %14 = landingpad { ptr, i32 }
          cleanup
  %15 = extractvalue { ptr, i32 } %14, 0
  store ptr %15, ptr %exn.slot, align 8
  %16 = extractvalue { ptr, i32 } %14, 1
  store i32 %16, ptr %ehselector.slot, align 4
  br label %ehcleanup151

lpad3:                                            ; preds = %invoke.cont
  %17 = landingpad { ptr, i32 }
          cleanup
  %18 = extractvalue { ptr, i32 } %17, 0
  store ptr %18, ptr %exn.slot, align 8
  %19 = extractvalue { ptr, i32 } %17, 1
  store i32 %19, ptr %ehselector.slot, align 4
  br label %ehcleanup150

lpad5:                                            ; preds = %invoke.cont6, %invoke.cont4
  %20 = landingpad { ptr, i32 }
          cleanup
  %21 = extractvalue { ptr, i32 } %20, 0
  store ptr %21, ptr %exn.slot, align 8
  %22 = extractvalue { ptr, i32 } %20, 1
  store i32 %22, ptr %ehselector.slot, align 4
  br label %ehcleanup148

lpad8:                                            ; preds = %invoke.cont14, %invoke.cont13, %invoke.cont11, %invoke.cont9, %invoke.cont7
  %23 = landingpad { ptr, i32 }
          cleanup
  %24 = extractvalue { ptr, i32 } %23, 0
  store ptr %24, ptr %exn.slot, align 8
  %25 = extractvalue { ptr, i32 } %23, 1
  store i32 %25, ptr %ehselector.slot, align 4
  br label %ehcleanup147

lpad74:                                           ; preds = %invoke.cont15
  %26 = landingpad { ptr, i32 }
          cleanup
  %27 = extractvalue { ptr, i32 } %26, 0
  store ptr %27, ptr %exn.slot, align 8
  %28 = extractvalue { ptr, i32 } %26, 1
  store i32 %28, ptr %ehselector.slot, align 4
  br label %ehcleanup142

lpad78:                                           ; preds = %invoke.cont75
  %29 = landingpad { ptr, i32 }
          cleanup
  %30 = extractvalue { ptr, i32 } %29, 0
  store ptr %30, ptr %exn.slot, align 8
  %31 = extractvalue { ptr, i32 } %29, 1
  store i32 %31, ptr %ehselector.slot, align 4
  br label %ehcleanup

lpad82:                                           ; preds = %if.end126, %if.then117, %lor.lhs.false, %if.end107, %if.then98, %invoke.cont92, %if.then90, %if.then
  %32 = landingpad { ptr, i32 }
          cleanup
  %33 = extractvalue { ptr, i32 } %32, 0
  store ptr %33, ptr %exn.slot, align 8
  %34 = extractvalue { ptr, i32 } %32, 1
  store i32 %34, ptr %ehselector.slot, align 4
  call void @_ZN8proxygen15HTTPTransaction15TxnWebTransportD2Ev(ptr noundef nonnull align 8 dereferenceable(16) %webTransport_) #3
  br label %ehcleanup

if.else:                                          ; preds = %invoke.cont83
  %ingressState_87 = getelementptr inbounds %"class.proxygen::HTTPTransaction", ptr %this2, i32 0, i32 8
  store i8 10, ptr %ingressState_87, align 2
  br label %if.end

if.end:                                           ; preds = %if.else, %if.then85
  br label %if.end88

if.end88:                                         ; preds = %if.end, %invoke.cont79
  %call89 = call noundef zeroext i1 @_ZNK5folly8OptionalIN8proxygen9HTTPCodec12ExAttributesEEcvbEv(ptr noundef nonnull align 8 dereferenceable(24) %exAttributes) #3
  br i1 %call89, label %if.then90, label %if.end107

if.then90:                                        ; preds = %if.end88
  %exAttributes_91 = getelementptr inbounds %"class.proxygen::HTTPTransaction", ptr %this2, i32 0, i32 25
  %call93 = invoke noundef nonnull align 8 dereferenceable(24) ptr @_ZN5folly8OptionalIN8proxygen9HTTPCodec12ExAttributesEEaSIRS4_EES6_OT_(ptr noundef nonnull align 8 dereferenceable(24) %exAttributes_91, ptr noundef nonnull align 8 dereferenceable(24) %exAttributes)
          to label %invoke.cont92 unwind label %lpad82

invoke.cont92:                                    ; preds = %if.then90
  %exAttributes_94 = getelementptr inbounds %"class.proxygen::HTTPTransaction", ptr %this2, i32 0, i32 25
  %call96 = invoke noundef ptr @_ZN5folly8OptionalIN8proxygen9HTTPCodec12ExAttributesEEptEv(ptr noundef nonnull align 8 dereferenceable(24) %exAttributes_94)
          to label %invoke.cont95 unwind label %lpad82

invoke.cont95:                                    ; preds = %invoke.cont92
  %unidirectional = getelementptr inbounds %"struct.proxygen::HTTPCodec::ExAttributes", ptr %call96, i32 0, i32 1
  %35 = load i8, ptr %unidirectional, align 8
  %tobool97 = trunc i8 %35 to i1
  br i1 %tobool97, label %if.then98, label %if.end106

if.then98:                                        ; preds = %invoke.cont95
  %call100 = invoke noundef zeroext i1 @_ZNK8proxygen15HTTPTransaction17isRemoteInitiatedEv(ptr noundef nonnull align 8 dereferenceable(912) %this2)
          to label %invoke.cont99 unwind label %lpad82

invoke.cont99:                                    ; preds = %if.then98
  br i1 %call100, label %if.then101, label %if.else103

if.then101:                                       ; preds = %invoke.cont99
  %egressState_102 = getelementptr inbounds %"class.proxygen::HTTPTransaction", ptr %this2, i32 0, i32 7
  store i8 9, ptr %egressState_102, align 1
  br label %if.end105

if.else103:                                       ; preds = %invoke.cont99
  %ingressState_104 = getelementptr inbounds %"class.proxygen::HTTPTransaction", ptr %this2, i32 0, i32 8
  store i8 10, ptr %ingressState_104, align 2
  br label %if.end105

if.end105:                                        ; preds = %if.else103, %if.then101
  br label %if.end106

if.end106:                                        ; preds = %if.end105, %invoke.cont95
  br label %if.end107

if.end107:                                        ; preds = %if.end106, %if.end88
  invoke void @_ZN8proxygen15HTTPTransaction17updateReadTimeoutEv(ptr noundef nonnull align 8 dereferenceable(912) %this2)
          to label %invoke.cont108 unwind label %lpad82

invoke.cont108:                                   ; preds = %if.end107
  %stats_109 = getelementptr inbounds %"class.proxygen::HTTPTransaction", ptr %this2, i32 0, i32 15
  %36 = load ptr, ptr %stats_109, align 8
  %tobool110 = icmp ne ptr %36, null
  br i1 %tobool110, label %if.then111, label %if.end113

if.then111:                                       ; preds = %invoke.cont108
  %stats_112 = getelementptr inbounds %"class.proxygen::HTTPTransaction", ptr %this2, i32 0, i32 15
  %37 = load ptr, ptr %stats_112, align 8
  %vtable = load ptr, ptr %37, align 8
  %vfn = getelementptr inbounds ptr, ptr %vtable, i64 14
  %38 = load ptr, ptr %vfn, align 8
  call void %38(ptr noundef nonnull align 8 dereferenceable(8) %37) #3
  br label %if.end113

if.end113:                                        ; preds = %if.then111, %invoke.cont108
  %direction_114 = getelementptr inbounds %"class.proxygen::HTTPTransaction", ptr %this2, i32 0, i32 6
  %39 = load i8, ptr %direction_114, align 8
  %cmp = icmp eq i8 %39, 0
  br i1 %cmp, label %if.then117, label %lor.lhs.false

lor.lhs.false:                                    ; preds = %if.end113
  %call116 = invoke noundef zeroext i1 @_ZNK8proxygen15HTTPTransaction8isPushedEv(ptr noundef nonnull align 8 dereferenceable(912) %this2)
          to label %invoke.cont115 unwind label %lpad82

invoke.cont115:                                   ; preds = %lor.lhs.false
  br i1 %call116, label %if.end126, label %if.then117

if.then117:                                       ; preds = %invoke.cont115, %if.end113
  %egressQueue_118 = getelementptr inbounds %"class.proxygen::HTTPTransaction", ptr %this2, i32 0, i32 22
  %40 = load ptr, ptr %egressQueue_118, align 8
  %id_119 = getelementptr inbounds %"class.proxygen::HTTPTransaction", ptr %this2, i32 0, i32 10
  %41 = load i64, ptr %id_119, align 8
  call void @llvm.memcpy.p0.p0.i64(ptr align 8 %agg.tmp, ptr align 8 %priority, i64 16, i1 false)
  %insertDepth_120 = getelementptr inbounds %"class.proxygen::HTTPTransaction", ptr %this2, i32 0, i32 29
  %42 = getelementptr inbounds { i64, i64 }, ptr %agg.tmp, i32 0, i32 0
  %43 = load i64, ptr %42, align 8
  %44 = getelementptr inbounds { i64, i64 }, ptr %agg.tmp, i32 0, i32 1
  %45 = load i64, ptr %44, align 8
  %vtable121 = load ptr, ptr %40, align 8
  %vfn122 = getelementptr inbounds ptr, ptr %vtable121, i64 3
  %46 = load ptr, ptr %vfn122, align 8
  %call124 = invoke noundef ptr %46(ptr noundef nonnull align 8 dereferenceable(16) %40, i64 noundef %41, i64 %43, i64 %45, ptr noundef %this2, i1 noundef zeroext false, ptr noundef %insertDepth_120)
          to label %invoke.cont123 unwind label %lpad82

invoke.cont123:                                   ; preds = %if.then117
  %queueHandle_125 = getelementptr inbounds %"class.proxygen::HTTPTransaction", ptr %this2, i32 0, i32 23
  store ptr %call124, ptr %queueHandle_125, align 8
  br label %if.end126

if.end126:                                        ; preds = %invoke.cont123, %invoke.cont115
  %streamDependency = getelementptr inbounds %"struct.proxygen::http2::PriorityUpdate", ptr %priority, i32 0, i32 0
  %47 = load i64, ptr %streamDependency, align 8
  %egressQueue_127 = getelementptr inbounds %"class.proxygen::HTTPTransaction", ptr %this2, i32 0, i32 22
  %48 = load ptr, ptr %egressQueue_127, align 8
  %call129 = invoke noundef i64 @_ZN8proxygen22HTTP2PriorityQueueBase9getRootIdEv(ptr noundef nonnull align 8 dereferenceable(16) %48)
          to label %invoke.cont128 unwind label %lpad82

invoke.cont128:                                   ; preds = %if.end126
  %cmp130 = icmp ne i64 %47, %call129
  br i1 %cmp130, label %land.lhs.true, label %if.end138

land.lhs.true:                                    ; preds = %invoke.cont128
  %insertDepth_131 = getelementptr inbounds %"class.proxygen::HTTPTransaction", ptr %this2, i32 0, i32 29
  %49 = load i64, ptr %insertDepth_131, align 8
  %cmp132 = icmp eq i64 %49, 1
  br i1 %cmp132, label %if.then133, label %if.end138

if.then133:                                       ; preds = %land.lhs.true
  %priorityFallback_134 = getelementptr inbounds %"class.proxygen::HTTPTransaction", ptr %this2, i32 0, i32 40
  %bf.load135 = load i32, ptr %priorityFallback_134, align 8
  %bf.clear136 = and i32 %bf.load135, -8193
  %bf.set137 = or i32 %bf.clear136, 8192
  store i32 %bf.set137, ptr %priorityFallback_134, align 8
  br label %if.end138

if.end138:                                        ; preds = %if.then133, %land.lhs.true, %invoke.cont128
  %insertDepth_139 = getelementptr inbounds %"class.proxygen::HTTPTransaction", ptr %this2, i32 0, i32 29
  %50 = load i64, ptr %insertDepth_139, align 8
  %currentDepth_140 = getelementptr inbounds %"class.proxygen::HTTPTransaction", ptr %this2, i32 0, i32 30
  store i64 %50, ptr %currentDepth_140, align 8
  ret void

ehcleanup:                                        ; preds = %lpad82, %lpad78
  call void @_ZNSt3mapImN8proxygen15HTTPTransaction19TxnStreamReadHandleESt4lessImESaISt4pairIKmS2_EEED2Ev(ptr noundef nonnull align 8 dereferenceable(48) %wtIngressStreams_) #3
  call void @_ZNSt3mapImN8proxygen15HTTPTransaction20TxnStreamWriteHandleESt4lessImESaISt4pairIKmS2_EEED2Ev(ptr noundef nonnull align 8 dereferenceable(48) %wtEgressStreams_) #3
  br label %ehcleanup142

ehcleanup142:                                     ; preds = %ehcleanup, %lpad74
  call void @_ZNSt3mapImN8proxygen9ByteEvent10EventFlagsESt4lessImESaISt4pairIKmS2_EEED2Ev(ptr noundef nonnull align 8 dereferenceable(48) %egressBodyOffsetsToTrack_) #3
  call void @_ZNSt3setImSt4lessImESaImEED2Ev(ptr noundef nonnull align 8 dereferenceable(48) %exTransactions_) #3
  call void @_ZNSt3setImSt4lessImESaImEED2Ev(ptr noundef nonnull align 8 dereferenceable(48) %pushedTransactions_) #3
  call void @_ZNSt7__cxx114listIN8proxygen15HTTPTransaction5ChunkESaIS3_EED2Ev(ptr noundef nonnull align 8 dereferenceable(24) %chunkHeaders_) #3
  call void @_ZNSt10unique_ptrIN8proxygen11HTTPHeadersESt14default_deleteIS1_EED2Ev(ptr noundef nonnull align 8 dereferenceable(8) %trailers_) #3
  br label %ehcleanup147

ehcleanup147:                                     ; preds = %ehcleanup142, %lpad8
  call void @_ZN5folly10IOBufQueueD1Ev(ptr noundef nonnull align 8 dereferenceable(72) %deferredEgressBody_) #3
  br label %ehcleanup148

ehcleanup148:                                     ; preds = %ehcleanup147, %lpad5
  call void @_ZNSt10unique_ptrISt5queueIN8proxygen9HTTPEventESt5dequeIS2_SaIS2_EEESt14default_deleteIS6_EED2Ev(ptr noundef nonnull align 8 dereferenceable(8) %deferredIngress_) #3
  call void @_ZN8proxygen15HTTPTransaction17RateLimitCallbackD2Ev(ptr noundef nonnull align 8 dereferenceable(72) %rateLimitCallback_) #3
  br label %ehcleanup150

ehcleanup150:                                     ; preds = %ehcleanup148, %lpad3
  %51 = getelementptr inbounds i8, ptr %this2, i64 64
  call void @_ZN5folly22DelayedDestructionBaseD2Ev(ptr noundef nonnull align 8 dereferenceable(12) %51) #3
  br label %ehcleanup151

ehcleanup151:                                     ; preds = %ehcleanup150, %lpad
  call void @_ZN5folly16HHWheelTimerBaseINSt6chrono8durationIlSt5ratioILl1ELl1000EEEEE8CallbackD2Ev(ptr noundef nonnull align 8 dereferenceable(64) %this2) #3
  br label %eh.resume

eh.resume:                                        ; preds = %ehcleanup151
  %exn = load ptr, ptr %exn.slot, align 8
  %sel = load i32, ptr %ehselector.slot, align 4
  %lpad.val = insertvalue { ptr, i32 } poison, ptr %exn, 0
  %lpad.val152 = insertvalue { ptr, i32 } %lpad.val, i32 %sel, 1
  resume { ptr, i32 } %lpad.val152
}

declare void @_ZN5folly16HHWheelTimerBaseINSt6chrono8durationIlSt5ratioILl1ELl1000EEEEE8CallbackC2Ev(ptr noundef nonnull align 8 dereferenceable(64)) unnamed_addr #1

; Function Attrs: mustprogress nounwind uwtable
define linkonce_odr void @_ZN5folly22DelayedDestructionBaseC2Ev(ptr noundef nonnull align 8 dereferenceable(12) %this) unnamed_addr #5 comdat align 2 {
entry:
  %this.addr = alloca ptr, align 8
  store ptr %this, ptr %this.addr, align 8
  %this1 = load ptr, ptr %this.addr, align 8
  store ptr getelementptr inbounds ({ [5 x ptr] }, ptr @_ZTVN5folly22DelayedDestructionBaseE, i32 0, inrange i32 0, i32 2), ptr %this1, align 8
  %guardCount_ = getelementptr inbounds %"class.folly::DelayedDestructionBase", ptr %this1, i32 0, i32 1
  store i32 0, ptr %guardCount_, align 8
  ret void
}

declare i32 @__gxx_personality_v0(...)

; Function Attrs: mustprogress uwtable
define linkonce_odr void @_ZN8proxygen15HTTPTransaction17RateLimitCallbackC2ERS0_(ptr noundef nonnull align 8 dereferenceable(72) %this, ptr noundef nonnull align 8 dereferenceable(912) %txn) unnamed_addr #4 comdat align 2 {
entry:
  %this.addr = alloca ptr, align 8
  %txn.addr = alloca ptr, align 8
  store ptr %this, ptr %this.addr, align 8
  store ptr %txn, ptr %txn.addr, align 8
  %this1 = load ptr, ptr %this.addr, align 8
  call void @_ZN5folly16HHWheelTimerBaseINSt6chrono8durationIlSt5ratioILl1ELl1000EEEEE8CallbackC2Ev(ptr noundef nonnull align 8 dereferenceable(64) %this1)
  store ptr getelementptr inbounds ({ [6 x ptr] }, ptr @_ZTVN8proxygen15HTTPTransaction17RateLimitCallbackE, i32 0, inrange i32 0, i32 2), ptr %this1, align 8
  %txn_ = getelementptr inbounds %"class.proxygen::HTTPTransaction::RateLimitCallback", ptr %this1, i32 0, i32 1
  %0 = load ptr, ptr %txn.addr, align 8
  store ptr %0, ptr %txn_, align 8
  ret void
}

; Function Attrs: mustprogress nounwind uwtable
define linkonce_odr void @_ZNSt10unique_ptrISt5queueIN8proxygen9HTTPEventESt5dequeIS2_SaIS2_EEESt14default_deleteIS6_EEC2IS8_vEEv(ptr noundef nonnull align 8 dereferenceable(8) %this) unnamed_addr #5 comdat align 2 {
entry:
  %this.addr = alloca ptr, align 8
  store ptr %this, ptr %this.addr, align 8
  %this1 = load ptr, ptr %this.addr, align 8
  %_M_t = getelementptr inbounds %"class.std::unique_ptr", ptr %this1, i32 0, i32 0
  call void @llvm.memset.p0.i64(ptr align 8 %_M_t, i8 0, i64 8, i1 false)
  call void @_ZNSt15__uniq_ptr_dataISt5queueIN8proxygen9HTTPEventESt5dequeIS2_SaIS2_EEESt14default_deleteIS6_ELb1ELb1EEC2Ev(ptr noundef nonnull align 8 dereferenceable(8) %_M_t) #3
  ret void
}

; Function Attrs: mustprogress uwtable
define linkonce_odr i8 @_ZN5folly10IOBufQueue16cacheChainLengthEv() #4 comdat align 2 {
entry:
  %retval = alloca %"struct.folly::IOBufQueue::Options", align 1
  call void @_ZN5folly10IOBufQueue7OptionsC2Ev(ptr noundef nonnull align 1 dereferenceable(1) %retval)
  %cacheChainLength = getelementptr inbounds %"struct.folly::IOBufQueue::Options", ptr %retval, i32 0, i32 0
  store i8 1, ptr %cacheChainLength, align 1
  %coerce.dive = getelementptr inbounds %"struct.folly::IOBufQueue::Options", ptr %retval, i32 0, i32 0
  %0 = load i8, ptr %coerce.dive, align 1
  ret i8 %0
}

declare void @_ZN5folly10IOBufQueueC1ERKNS0_7OptionsE(ptr noundef nonnull align 8 dereferenceable(72), ptr noundef nonnull align 1 dereferenceable(1)) unnamed_addr #1

; Function Attrs: mustprogress nounwind uwtable
define linkonce_odr void @_ZN8proxygen15HTTPTransaction10BufferMetaC2Ev(ptr noundef nonnull align 8 dereferenceable(8) %this) unnamed_addr #5 comdat align 2 {
entry:
  %this.addr = alloca ptr, align 8
  store ptr %this, ptr %this.addr, align 8
  %this1 = load ptr, ptr %this.addr, align 8
  %length = getelementptr inbounds %"struct.proxygen::HTTPTransaction::BufferMeta", ptr %this1, i32 0, i32 0
  store i64 0, ptr %length, align 8
  ret void
}

; Function Attrs: mustprogress uwtable
define linkonce_odr noundef zeroext i8 @_ZN8proxygen12StateMachineINS_27HTTPTransactionEgressSMDataEE14getNewInstanceEv() #4 comdat align 2 {
entry:
  %call = call noundef zeroext i8 @_ZN8proxygen27HTTPTransactionEgressSMData15getInitialStateEv()
  ret i8 %call
}

; Function Attrs: mustprogress uwtable
define linkonce_odr noundef zeroext i8 @_ZN8proxygen12StateMachineINS_28HTTPTransactionIngressSMDataEE14getNewInstanceEv() #4 comdat align 2 {
entry:
  %call = call noundef zeroext i8 @_ZN8proxygen28HTTPTransactionIngressSMData15getInitialStateEv()
  ret i8 %call
}

; Function Attrs: mustprogress uwtable
define linkonce_odr void @_ZN8proxygen15CompressionInfoC2Ev(ptr noundef nonnull align 4 dereferenceable(56) %this) unnamed_addr #4 comdat align 2 {
entry:
  %this.addr = alloca ptr, align 8
  store ptr %this, ptr %this.addr, align 8
  %this1 = load ptr, ptr %this.addr, align 8
  %egress = getelementptr inbounds %"struct.proxygen::CompressionInfo", ptr %this1, i32 0, i32 0
  call void @_ZN8proxygen19CompressionInfoPartC2Ev(ptr noundef nonnull align 4 dereferenceable(28) %egress)
  %ingress = getelementptr inbounds %"struct.proxygen::CompressionInfo", ptr %this1, i32 0, i32 1
  call void @_ZN8proxygen19CompressionInfoPartC2Ev(ptr noundef nonnull align 4 dereferenceable(28) %ingress)
  ret void
}

declare void @_ZN8proxygen6WindowC1Ej(ptr noundef nonnull align 4 dereferenceable(8), i32 noundef) unnamed_addr #1

; Function Attrs: mustprogress nounwind uwtable
define linkonce_odr void @_ZNSt10unique_ptrIN8proxygen11HTTPHeadersESt14default_deleteIS1_EEC2IS3_vEEv(ptr noundef nonnull align 8 dereferenceable(8) %this) unnamed_addr #5 comdat align 2 {
entry:
  %this.addr = alloca ptr, align 8
  store ptr %this, ptr %this.addr, align 8
  %this1 = load ptr, ptr %this.addr, align 8
  %_M_t = getelementptr inbounds %"class.std::unique_ptr.12", ptr %this1, i32 0, i32 0
  call void @llvm.memset.p0.i64(ptr align 8 %_M_t, i8 0, i64 8, i1 false)
  call void @_ZNSt15__uniq_ptr_dataIN8proxygen11HTTPHeadersESt14default_deleteIS1_ELb1ELb1EEC2Ev(ptr noundef nonnull align 8 dereferenceable(8) %_M_t) #3
  ret void
}

; Function Attrs: mustprogress nounwind uwtable
define linkonce_odr void @_ZNSt7__cxx114listIN8proxygen15HTTPTransaction5ChunkESaIS3_EEC2Ev(ptr noundef nonnull align 8 dereferenceable(24) %this) unnamed_addr #5 comdat align 2 {
entry:
  %this.addr = alloca ptr, align 8
  store ptr %this, ptr %this.addr, align 8
  %this1 = load ptr, ptr %this.addr, align 8
  call void @_ZNSt7__cxx1110_List_baseIN8proxygen15HTTPTransaction5ChunkESaIS3_EEC2Ev(ptr noundef nonnull align 8 dereferenceable(24) %this1) #3
  ret void
}

; Function Attrs: mustprogress nounwind uwtable
define linkonce_odr void @_ZN5folly8OptionalImEC2ERKS1_(ptr noundef nonnull align 8 dereferenceable(16) %this, ptr noundef nonnull align 8 dereferenceable(16) %src) unnamed_addr #5 comdat align 2 personality ptr @__gxx_personality_v0 {
entry:
  %this.addr = alloca ptr, align 8
  %src.addr = alloca ptr, align 8
  store ptr %this, ptr %this.addr, align 8
  store ptr %src, ptr %src.addr, align 8
  %this1 = load ptr, ptr %this.addr, align 8
  %storage_ = getelementptr inbounds %"class.folly::Optional", ptr %this1, i32 0, i32 0
  invoke void @_ZN5folly8OptionalImE28StorageTriviallyDestructibleC2Ev(ptr noundef nonnull align 8 dereferenceable(9) %storage_)
          to label %invoke.cont unwind label %terminate.lpad

invoke.cont:                                      ; preds = %entry
  %0 = load ptr, ptr %src.addr, align 8
  %call = call noundef zeroext i1 @_ZNK5folly8OptionalImE8hasValueEv(ptr noundef nonnull align 8 dereferenceable(16) %0) #3
  br i1 %call, label %if.then, label %if.end

if.then:                                          ; preds = %invoke.cont
  %1 = load ptr, ptr %src.addr, align 8
  %call3 = invoke noundef nonnull align 8 dereferenceable(8) ptr @_ZNKR5folly8OptionalImE5valueEv(ptr noundef nonnull align 8 dereferenceable(16) %1)
          to label %invoke.cont2 unwind label %terminate.lpad

invoke.cont2:                                     ; preds = %if.then
  call void @_ZN5folly8OptionalImE9constructIJRKmEEEvDpOT_(ptr noundef nonnull align 8 dereferenceable(16) %this1, ptr noundef nonnull align 8 dereferenceable(8) %call3)
  br label %if.end

if.end:                                           ; preds = %invoke.cont2, %invoke.cont
  ret void

terminate.lpad:                                   ; preds = %if.then, %entry
  %2 = landingpad { ptr, i32 }
          catch ptr null
  %3 = extractvalue { ptr, i32 } %2, 0
  call void @__clang_call_terminate(ptr %3) #20
  unreachable
}

; Function Attrs: mustprogress nounwind uwtable
define linkonce_odr void @_ZN5folly8OptionalIN8proxygen9HTTPCodec12ExAttributesEEC2Ev(ptr noundef nonnull align 8 dereferenceable(24) %this) unnamed_addr #5 comdat align 2 personality ptr @__gxx_personality_v0 {
entry:
  %this.addr = alloca ptr, align 8
  store ptr %this, ptr %this.addr, align 8
  %this1 = load ptr, ptr %this.addr, align 8
  %storage_ = getelementptr inbounds %"class.folly::Optional.0", ptr %this1, i32 0, i32 0
  invoke void @_ZN5folly8OptionalIN8proxygen9HTTPCodec12ExAttributesEE28StorageTriviallyDestructibleC2Ev(ptr noundef nonnull align 8 dereferenceable(17) %storage_)
          to label %invoke.cont unwind label %terminate.lpad

invoke.cont:                                      ; preds = %entry
  ret void

terminate.lpad:                                   ; preds = %entry
  %0 = landingpad { ptr, i32 }
          catch ptr null
  %1 = extractvalue { ptr, i32 } %0, 0
  call void @__clang_call_terminate(ptr %1) #20
  unreachable
}

; Function Attrs: mustprogress nounwind uwtable
define linkonce_odr void @_ZNSt3setImSt4lessImESaImEEC2Ev(ptr noundef nonnull align 8 dereferenceable(48) %this) unnamed_addr #5 comdat align 2 {
entry:
  %this.addr = alloca ptr, align 8
  store ptr %this, ptr %this.addr, align 8
  %this1 = load ptr, ptr %this.addr, align 8
  %_M_t = getelementptr inbounds %"class.std::set", ptr %this1, i32 0, i32 0
  call void @_ZNSt8_Rb_treeImmSt9_IdentityImESt4lessImESaImEEC2Ev(ptr noundef nonnull align 8 dereferenceable(48) %_M_t) #3
  ret void
}

; Function Attrs: nocallback nofree nounwind willreturn memory(argmem: readwrite)
declare void @llvm.memcpy.p0.p0.i64(ptr noalias nocapture writeonly, ptr noalias nocapture readonly, i64, i1 immarg) #6

; Function Attrs: mustprogress nounwind uwtable
define linkonce_odr void @_ZN5folly8OptionalImEC2Ev(ptr noundef nonnull align 8 dereferenceable(16) %this) unnamed_addr #5 comdat align 2 personality ptr @__gxx_personality_v0 {
entry:
  %this.addr = alloca ptr, align 8
  store ptr %this, ptr %this.addr, align 8
  %this1 = load ptr, ptr %this.addr, align 8
  %storage_ = getelementptr inbounds %"class.folly::Optional", ptr %this1, i32 0, i32 0
  invoke void @_ZN5folly8OptionalImE28StorageTriviallyDestructibleC2Ev(ptr noundef nonnull align 8 dereferenceable(9) %storage_)
          to label %invoke.cont unwind label %terminate.lpad

invoke.cont:                                      ; preds = %entry
  ret void

terminate.lpad:                                   ; preds = %entry
  %0 = landingpad { ptr, i32 }
          catch ptr null
  %1 = extractvalue { ptr, i32 } %0, 0
  call void @__clang_call_terminate(ptr %1) #20
  unreachable
}

; Function Attrs: mustprogress nounwind uwtable
define linkonce_odr void @_ZN5folly8OptionalImEC2EOm(ptr noundef nonnull align 8 dereferenceable(16) %this, ptr noundef nonnull align 8 dereferenceable(8) %newValue) unnamed_addr #5 comdat align 2 personality ptr @__gxx_personality_v0 {
entry:
  %this.addr = alloca ptr, align 8
  %newValue.addr = alloca ptr, align 8
  store ptr %this, ptr %this.addr, align 8
  store ptr %newValue, ptr %newValue.addr, align 8
  %this1 = load ptr, ptr %this.addr, align 8
  %storage_ = getelementptr inbounds %"class.folly::Optional", ptr %this1, i32 0, i32 0
  invoke void @_ZN5folly8OptionalImE28StorageTriviallyDestructibleC2Ev(ptr noundef nonnull align 8 dereferenceable(9) %storage_)
          to label %invoke.cont unwind label %terminate.lpad

invoke.cont:                                      ; preds = %entry
  %0 = load ptr, ptr %newValue.addr, align 8
  invoke void @_ZN5folly8OptionalImE9constructIJmEEEvDpOT_(ptr noundef nonnull align 8 dereferenceable(16) %this1, ptr noundef nonnull align 8 dereferenceable(8) %0)
          to label %invoke.cont2 unwind label %terminate.lpad

invoke.cont2:                                     ; preds = %invoke.cont
  ret void

terminate.lpad:                                   ; preds = %invoke.cont, %entry
  %1 = landingpad { ptr, i32 }
          catch ptr null
  %2 = extractvalue { ptr, i32 } %1, 0
  call void @__clang_call_terminate(ptr %2) #20
  unreachable
}

; Function Attrs: mustprogress nounwind uwtable
define linkonce_odr void @_ZNSt3mapImN8proxygen9ByteEvent10EventFlagsESt4lessImESaISt4pairIKmS2_EEEC2Ev(ptr noundef nonnull align 8 dereferenceable(48) %this) unnamed_addr #5 comdat align 2 {
entry:
  %this.addr = alloca ptr, align 8
  store ptr %this, ptr %this.addr, align 8
  %this1 = load ptr, ptr %this.addr, align 8
  %_M_t = getelementptr inbounds %"class.std::map", ptr %this1, i32 0, i32 0
  call void @_ZNSt8_Rb_treeImSt4pairIKmN8proxygen9ByteEvent10EventFlagsEESt10_Select1stIS5_ESt4lessImESaIS5_EEC2Ev(ptr noundef nonnull align 8 dereferenceable(48) %_M_t) #3
  ret void
}

; Function Attrs: mustprogress nounwind uwtable
define linkonce_odr void @_ZNSt6chrono10time_pointINS_3_V212steady_clockENS_8durationIlSt5ratioILl1ELl1000000000EEEEEC2Ev(ptr noundef nonnull align 8 dereferenceable(8) %this) unnamed_addr #5 comdat align 2 {
entry:
  %this.addr = alloca ptr, align 8
  store ptr %this, ptr %this.addr, align 8
  %this1 = load ptr, ptr %this.addr, align 8
  %__d = getelementptr inbounds %"class.std::chrono::time_point", ptr %this1, i32 0, i32 0
  %call = call i64 @_ZNSt6chrono8durationIlSt5ratioILl1ELl1000000000EEE4zeroEv() #3
  %coerce.dive = getelementptr inbounds %"class.std::chrono::duration", ptr %__d, i32 0, i32 0
  store i64 %call, ptr %coerce.dive, align 8
  ret void
}

; Function Attrs: mustprogress nounwind uwtable
define linkonce_odr void @_ZN5folly8OptionalINSt6chrono8durationIlSt5ratioILl1ELl1000EEEEEC2ERKS6_(ptr noundef nonnull align 8 dereferenceable(16) %this, ptr noundef nonnull align 8 dereferenceable(16) %src) unnamed_addr #5 comdat align 2 personality ptr @__gxx_personality_v0 {
entry:
  %this.addr = alloca ptr, align 8
  %src.addr = alloca ptr, align 8
  store ptr %this, ptr %this.addr, align 8
  store ptr %src, ptr %src.addr, align 8
  %this1 = load ptr, ptr %this.addr, align 8
  %storage_ = getelementptr inbounds %"class.folly::Optional.27", ptr %this1, i32 0, i32 0
  invoke void @_ZN5folly8OptionalINSt6chrono8durationIlSt5ratioILl1ELl1000EEEEE28StorageTriviallyDestructibleC2Ev(ptr noundef nonnull align 8 dereferenceable(9) %storage_)
          to label %invoke.cont unwind label %terminate.lpad

invoke.cont:                                      ; preds = %entry
  %0 = load ptr, ptr %src.addr, align 8
  %call = call noundef zeroext i1 @_ZNK5folly8OptionalINSt6chrono8durationIlSt5ratioILl1ELl1000EEEEE8hasValueEv(ptr noundef nonnull align 8 dereferenceable(16) %0) #3
  br i1 %call, label %if.then, label %if.end

if.then:                                          ; preds = %invoke.cont
  %1 = load ptr, ptr %src.addr, align 8
  %call3 = invoke noundef nonnull align 8 dereferenceable(8) ptr @_ZNKR5folly8OptionalINSt6chrono8durationIlSt5ratioILl1ELl1000EEEEE5valueEv(ptr noundef nonnull align 8 dereferenceable(16) %1)
          to label %invoke.cont2 unwind label %terminate.lpad

invoke.cont2:                                     ; preds = %if.then
  invoke void @_ZN5folly8OptionalINSt6chrono8durationIlSt5ratioILl1ELl1000EEEEE9constructIJRKS5_EEEvDpOT_(ptr noundef nonnull align 8 dereferenceable(16) %this1, ptr noundef nonnull align 8 dereferenceable(8) %call3)
          to label %invoke.cont4 unwind label %terminate.lpad

invoke.cont4:                                     ; preds = %invoke.cont2
  br label %if.end

if.end:                                           ; preds = %invoke.cont4, %invoke.cont
  ret void

terminate.lpad:                                   ; preds = %invoke.cont2, %if.then, %entry
  %2 = landingpad { ptr, i32 }
          catch ptr null
  %3 = extractvalue { ptr, i32 } %2, 0
  call void @__clang_call_terminate(ptr %3) #20
  unreachable
}

; Function Attrs: mustprogress nounwind uwtable
define linkonce_odr void @_ZNSt3mapImN8proxygen15HTTPTransaction20TxnStreamWriteHandleESt4lessImESaISt4pairIKmS2_EEEC2Ev(ptr noundef nonnull align 8 dereferenceable(48) %this) unnamed_addr #5 comdat align 2 {
entry:
  %this.addr = alloca ptr, align 8
  store ptr %this, ptr %this.addr, align 8
  %this1 = load ptr, ptr %this.addr, align 8
  %_M_t = getelementptr inbounds %"class.std::map.30", ptr %this1, i32 0, i32 0
  call void @_ZNSt8_Rb_treeImSt4pairIKmN8proxygen15HTTPTransaction20TxnStreamWriteHandleEESt10_Select1stIS5_ESt4lessImESaIS5_EEC2Ev(ptr noundef nonnull align 8 dereferenceable(48) %_M_t) #3
  ret void
}

; Function Attrs: mustprogress nounwind uwtable
define linkonce_odr void @_ZNSt3mapImN8proxygen15HTTPTransaction19TxnStreamReadHandleESt4lessImESaISt4pairIKmS2_EEEC2Ev(ptr noundef nonnull align 8 dereferenceable(48) %this) unnamed_addr #5 comdat align 2 {
entry:
  %this.addr = alloca ptr, align 8
  store ptr %this, ptr %this.addr, align 8
  %this1 = load ptr, ptr %this.addr, align 8
  %_M_t = getelementptr inbounds %"class.std::map.35", ptr %this1, i32 0, i32 0
  call void @_ZNSt8_Rb_treeImSt4pairIKmN8proxygen15HTTPTransaction19TxnStreamReadHandleEESt10_Select1stIS5_ESt4lessImESaIS5_EEC2Ev(ptr noundef nonnull align 8 dereferenceable(48) %_M_t) #3
  ret void
}

; Function Attrs: mustprogress nounwind uwtable
define linkonce_odr void @_ZN8proxygen15HTTPTransaction15TxnWebTransportC2ERS0_(ptr noundef nonnull align 8 dereferenceable(16) %this, ptr noundef nonnull align 8 dereferenceable(912) %txn) unnamed_addr #5 comdat align 2 {
entry:
  %this.addr = alloca ptr, align 8
  %txn.addr = alloca ptr, align 8
  store ptr %this, ptr %this.addr, align 8
  store ptr %txn, ptr %txn.addr, align 8
  %this1 = load ptr, ptr %this.addr, align 8
  call void @_ZN8proxygen12WebTransportC2Ev(ptr noundef nonnull align 8 dereferenceable(8) %this1) #3
  store ptr getelementptr inbounds ({ [14 x ptr] }, ptr @_ZTVN8proxygen15HTTPTransaction15TxnWebTransportE, i32 0, inrange i32 0, i32 2), ptr %this1, align 8
  %txn_ = getelementptr inbounds %"class.proxygen::HTTPTransaction::TxnWebTransport", ptr %this1, i32 0, i32 1
  %0 = load ptr, ptr %txn.addr, align 8
  store ptr %0, ptr %txn_, align 8
  ret void
}

; Function Attrs: mustprogress nounwind uwtable
define linkonce_odr noundef zeroext i1 @_ZNK5folly8OptionalImEcvbEv(ptr noundef nonnull align 8 dereferenceable(16) %this) #5 comdat align 2 {
entry:
  %this.addr = alloca ptr, align 8
  store ptr %this, ptr %this.addr, align 8
  %this1 = load ptr, ptr %this.addr, align 8
  %call = call noundef zeroext i1 @_ZNK5folly8OptionalImE9has_valueEv(ptr noundef nonnull align 8 dereferenceable(16) %this1) #3
  ret i1 %call
}

; Function Attrs: mustprogress nounwind uwtable
define linkonce_odr noundef zeroext i1 @_ZNK8proxygen15HTTPTransaction10isUpstreamEv(ptr noundef nonnull align 8 dereferenceable(912) %this) #5 comdat align 2 {
entry:
  %this.addr = alloca ptr, align 8
  store ptr %this, ptr %this.addr, align 8
  %this1 = load ptr, ptr %this.addr, align 8
  %direction_ = getelementptr inbounds %"class.proxygen::HTTPTransaction", ptr %this1, i32 0, i32 6
  %0 = load i8, ptr %direction_, align 8
  %cmp = icmp eq i8 %0, 1
  ret i1 %cmp
}

; Function Attrs: mustprogress nounwind uwtable
define linkonce_odr noundef zeroext i1 @_ZNK5folly8OptionalIN8proxygen9HTTPCodec12ExAttributesEEcvbEv(ptr noundef nonnull align 8 dereferenceable(24) %this) #5 comdat align 2 {
entry:
  %this.addr = alloca ptr, align 8
  store ptr %this, ptr %this.addr, align 8
  %this1 = load ptr, ptr %this.addr, align 8
  %call = call noundef zeroext i1 @_ZNK5folly8OptionalIN8proxygen9HTTPCodec12ExAttributesEE9has_valueEv(ptr noundef nonnull align 8 dereferenceable(24) %this1) #3
  ret i1 %call
}

; Function Attrs: mustprogress uwtable
define linkonce_odr noundef nonnull align 8 dereferenceable(24) ptr @_ZN5folly8OptionalIN8proxygen9HTTPCodec12ExAttributesEEaSIRS4_EES6_OT_(ptr noundef nonnull align 8 dereferenceable(24) %this, ptr noundef nonnull align 8 dereferenceable(24) %arg) #4 comdat align 2 {
entry:
  %this.addr = alloca ptr, align 8
  %arg.addr = alloca ptr, align 8
  store ptr %this, ptr %this.addr, align 8
  store ptr %arg, ptr %arg.addr, align 8
  %this1 = load ptr, ptr %this.addr, align 8
  %0 = load ptr, ptr %arg.addr, align 8
  call void @_ZN5folly8OptionalIN8proxygen9HTTPCodec12ExAttributesEE6assignERKS4_(ptr noundef nonnull align 8 dereferenceable(24) %this1, ptr noundef nonnull align 8 dereferenceable(24) %0)
  ret ptr %this1
}

; Function Attrs: mustprogress uwtable
define linkonce_odr noundef ptr @_ZN5folly8OptionalIN8proxygen9HTTPCodec12ExAttributesEEptEv(ptr noundef nonnull align 8 dereferenceable(24) %this) #4 comdat align 2 {
entry:
  %this.addr = alloca ptr, align 8
  store ptr %this, ptr %this.addr, align 8
  %this1 = load ptr, ptr %this.addr, align 8
  %call = call noundef nonnull align 8 dereferenceable(9) ptr @_ZNR5folly8OptionalIN8proxygen9HTTPCodec12ExAttributesEE5valueEv(ptr noundef nonnull align 8 dereferenceable(24) %this1)
  ret ptr %call
}

; Function Attrs: mustprogress nounwind uwtable
define linkonce_odr noundef zeroext i1 @_ZNK8proxygen15HTTPTransaction17isRemoteInitiatedEv(ptr noundef nonnull align 8 dereferenceable(912) %this) #5 comdat align 2 {
entry:
  %this.addr = alloca ptr, align 8
  store ptr %this, ptr %this.addr, align 8
  %this1 = load ptr, ptr %this.addr, align 8
  %direction_ = getelementptr inbounds %"class.proxygen::HTTPTransaction", ptr %this1, i32 0, i32 6
  %0 = load i8, ptr %direction_, align 8
  %cmp = icmp eq i8 %0, 0
  br i1 %cmp, label %land.lhs.true, label %lor.rhs

land.lhs.true:                                    ; preds = %entry
  %id_ = getelementptr inbounds %"class.proxygen::HTTPTransaction", ptr %this1, i32 0, i32 10
  %1 = load i64, ptr %id_, align 8
  %rem = urem i64 %1, 2
  %cmp2 = icmp eq i64 %rem, 1
  br i1 %cmp2, label %lor.end, label %lor.rhs

lor.rhs:                                          ; preds = %land.lhs.true, %entry
  %direction_3 = getelementptr inbounds %"class.proxygen::HTTPTransaction", ptr %this1, i32 0, i32 6
  %2 = load i8, ptr %direction_3, align 8
  %cmp4 = icmp eq i8 %2, 1
  br i1 %cmp4, label %land.rhs, label %land.end

land.rhs:                                         ; preds = %lor.rhs
  %id_5 = getelementptr inbounds %"class.proxygen::HTTPTransaction", ptr %this1, i32 0, i32 10
  %3 = load i64, ptr %id_5, align 8
  %rem6 = urem i64 %3, 2
  %cmp7 = icmp eq i64 %rem6, 0
  br label %land.end

land.end:                                         ; preds = %land.rhs, %lor.rhs
  %4 = phi i1 [ false, %lor.rhs ], [ %cmp7, %land.rhs ]
  br label %lor.end

lor.end:                                          ; preds = %land.end, %land.lhs.true
  %5 = phi i1 [ true, %land.lhs.true ], [ %4, %land.end ]
  ret i1 %5
}

; Function Attrs: mustprogress uwtable
define void @_ZN8proxygen15HTTPTransaction17updateReadTimeoutEv(ptr noundef nonnull align 8 dereferenceable(912) %this) #4 align 2 {
entry:
  %this.addr = alloca ptr, align 8
  store ptr %this, ptr %this.addr, align 8
  %this1 = load ptr, ptr %this.addr, align 8
  %call = call noundef zeroext i1 @_ZNK8proxygen15HTTPTransaction18isExpectingIngressEv(ptr noundef nonnull align 8 dereferenceable(912) %this1)
  br i1 %call, label %if.then, label %if.else

if.then:                                          ; preds = %entry
  call void @_ZN8proxygen15HTTPTransaction14refreshTimeoutEv(ptr noundef nonnull align 8 dereferenceable(912) %this1)
  br label %if.end

if.else:                                          ; preds = %entry
  call void @_ZN5folly16HHWheelTimerBaseINSt6chrono8durationIlSt5ratioILl1ELl1000EEEEE8Callback13cancelTimeoutEv(ptr noundef nonnull align 8 dereferenceable(64) %this1)
  br label %if.end

if.end:                                           ; preds = %if.else, %if.then
  ret void
}

; Function Attrs: mustprogress nounwind uwtable
define linkonce_odr noundef zeroext i1 @_ZNK8proxygen15HTTPTransaction8isPushedEv(ptr noundef nonnull align 8 dereferenceable(912) %this) #5 comdat align 2 {
entry:
  %this.addr = alloca ptr, align 8
  store ptr %this, ptr %this.addr, align 8
  %this1 = load ptr, ptr %this.addr, align 8
  %assocStreamId_ = getelementptr inbounds %"class.proxygen::HTTPTransaction", ptr %this1, i32 0, i32 24
  %call = call noundef zeroext i1 @_ZNK5folly8OptionalImE9has_valueEv(ptr noundef nonnull align 8 dereferenceable(16) %assocStreamId_) #3
  ret i1 %call
}

; Function Attrs: mustprogress nounwind uwtable
define linkonce_odr noundef i64 @_ZN8proxygen22HTTP2PriorityQueueBase9getRootIdEv(ptr noundef nonnull align 8 dereferenceable(16) %this) #5 comdat align 2 {
entry:
  %this.addr = alloca ptr, align 8
  store ptr %this, ptr %this.addr, align 8
  %this1 = load ptr, ptr %this.addr, align 8
  %rootNodeId_ = getelementptr inbounds %"class.proxygen::HTTP2PriorityQueueBase", ptr %this1, i32 0, i32 1
  %0 = load i64, ptr %rootNodeId_, align 8
  ret i64 %0
}

; Function Attrs: mustprogress nounwind uwtable
define linkonce_odr void @_ZN8proxygen15HTTPTransaction15TxnWebTransportD2Ev(ptr noundef nonnull align 8 dereferenceable(16) %this) unnamed_addr #5 comdat align 2 {
entry:
  %this.addr = alloca ptr, align 8
  store ptr %this, ptr %this.addr, align 8
  %this1 = load ptr, ptr %this.addr, align 8
  call void @_ZN8proxygen12WebTransportD2Ev(ptr noundef nonnull align 8 dereferenceable(8) %this1) #3
  ret void
}

; Function Attrs: mustprogress nounwind uwtable
define linkonce_odr void @_ZNSt3mapImN8proxygen15HTTPTransaction19TxnStreamReadHandleESt4lessImESaISt4pairIKmS2_EEED2Ev(ptr noundef nonnull align 8 dereferenceable(48) %this) unnamed_addr #5 comdat align 2 {
entry:
  %this.addr = alloca ptr, align 8
  store ptr %this, ptr %this.addr, align 8
  %this1 = load ptr, ptr %this.addr, align 8
  %_M_t = getelementptr inbounds %"class.std::map.35", ptr %this1, i32 0, i32 0
  call void @_ZNSt8_Rb_treeImSt4pairIKmN8proxygen15HTTPTransaction19TxnStreamReadHandleEESt10_Select1stIS5_ESt4lessImESaIS5_EED2Ev(ptr noundef nonnull align 8 dereferenceable(48) %_M_t) #3
  ret void
}

; Function Attrs: mustprogress nounwind uwtable
define linkonce_odr void @_ZNSt3mapImN8proxygen15HTTPTransaction20TxnStreamWriteHandleESt4lessImESaISt4pairIKmS2_EEED2Ev(ptr noundef nonnull align 8 dereferenceable(48) %this) unnamed_addr #5 comdat align 2 {
entry:
  %this.addr = alloca ptr, align 8
  store ptr %this, ptr %this.addr, align 8
  %this1 = load ptr, ptr %this.addr, align 8
  %_M_t = getelementptr inbounds %"class.std::map.30", ptr %this1, i32 0, i32 0
  call void @_ZNSt8_Rb_treeImSt4pairIKmN8proxygen15HTTPTransaction20TxnStreamWriteHandleEESt10_Select1stIS5_ESt4lessImESaIS5_EED2Ev(ptr noundef nonnull align 8 dereferenceable(48) %_M_t) #3
  ret void
}

; Function Attrs: mustprogress nounwind uwtable
define linkonce_odr void @_ZNSt3mapImN8proxygen9ByteEvent10EventFlagsESt4lessImESaISt4pairIKmS2_EEED2Ev(ptr noundef nonnull align 8 dereferenceable(48) %this) unnamed_addr #5 comdat align 2 {
entry:
  %this.addr = alloca ptr, align 8
  store ptr %this, ptr %this.addr, align 8
  %this1 = load ptr, ptr %this.addr, align 8
  %_M_t = getelementptr inbounds %"class.std::map", ptr %this1, i32 0, i32 0
  call void @_ZNSt8_Rb_treeImSt4pairIKmN8proxygen9ByteEvent10EventFlagsEESt10_Select1stIS5_ESt4lessImESaIS5_EED2Ev(ptr noundef nonnull align 8 dereferenceable(48) %_M_t) #3
  ret void
}

; Function Attrs: mustprogress nounwind uwtable
define linkonce_odr void @_ZNSt3setImSt4lessImESaImEED2Ev(ptr noundef nonnull align 8 dereferenceable(48) %this) unnamed_addr #5 comdat align 2 {
entry:
  %this.addr = alloca ptr, align 8
  store ptr %this, ptr %this.addr, align 8
  %this1 = load ptr, ptr %this.addr, align 8
  %_M_t = getelementptr inbounds %"class.std::set", ptr %this1, i32 0, i32 0
  call void @_ZNSt8_Rb_treeImmSt9_IdentityImESt4lessImESaImEED2Ev(ptr noundef nonnull align 8 dereferenceable(48) %_M_t) #3
  ret void
}

; Function Attrs: mustprogress nounwind uwtable
define linkonce_odr void @_ZNSt7__cxx114listIN8proxygen15HTTPTransaction5ChunkESaIS3_EED2Ev(ptr noundef nonnull align 8 dereferenceable(24) %this) unnamed_addr #5 comdat align 2 {
entry:
  %this.addr = alloca ptr, align 8
  store ptr %this, ptr %this.addr, align 8
  %this1 = load ptr, ptr %this.addr, align 8
  call void @_ZNSt7__cxx1110_List_baseIN8proxygen15HTTPTransaction5ChunkESaIS3_EED2Ev(ptr noundef nonnull align 8 dereferenceable(24) %this1) #3
  ret void
}

; Function Attrs: mustprogress nounwind uwtable
define linkonce_odr void @_ZNSt10unique_ptrIN8proxygen11HTTPHeadersESt14default_deleteIS1_EED2Ev(ptr noundef nonnull align 8 dereferenceable(8) %this) unnamed_addr #5 comdat align 2 personality ptr @__gxx_personality_v0 {
entry:
  %this.addr = alloca ptr, align 8
  %__ptr = alloca ptr, align 8
  store ptr %this, ptr %this.addr, align 8
  %this1 = load ptr, ptr %this.addr, align 8
  %_M_t = getelementptr inbounds %"class.std::unique_ptr.12", ptr %this1, i32 0, i32 0
  %call = call noundef nonnull align 8 dereferenceable(8) ptr @_ZNSt15__uniq_ptr_implIN8proxygen11HTTPHeadersESt14default_deleteIS1_EE6_M_ptrEv(ptr noundef nonnull align 8 dereferenceable(8) %_M_t) #3
  store ptr %call, ptr %__ptr, align 8
  %0 = load ptr, ptr %__ptr, align 8
  %1 = load ptr, ptr %0, align 8
  %cmp = icmp ne ptr %1, null
  br i1 %cmp, label %if.then, label %if.end

if.then:                                          ; preds = %entry
  %call2 = call noundef nonnull align 1 dereferenceable(1) ptr @_ZNSt10unique_ptrIN8proxygen11HTTPHeadersESt14default_deleteIS1_EE11get_deleterEv(ptr noundef nonnull align 8 dereferenceable(8) %this1) #3
  %2 = load ptr, ptr %__ptr, align 8
  %3 = load ptr, ptr %2, align 8
  invoke void @_ZNKSt14default_deleteIN8proxygen11HTTPHeadersEEclEPS1_(ptr noundef nonnull align 1 dereferenceable(1) %call2, ptr noundef %3)
          to label %invoke.cont unwind label %terminate.lpad

invoke.cont:                                      ; preds = %if.then
  br label %if.end

if.end:                                           ; preds = %invoke.cont, %entry
  %4 = load ptr, ptr %__ptr, align 8
  store ptr null, ptr %4, align 8
  ret void

terminate.lpad:                                   ; preds = %if.then
  %5 = landingpad { ptr, i32 }
          catch ptr null
  %6 = extractvalue { ptr, i32 } %5, 0
  call void @__clang_call_terminate(ptr %6) #20
  unreachable
}

; Function Attrs: nounwind
declare void @_ZN5folly10IOBufQueueD1Ev(ptr noundef nonnull align 8 dereferenceable(72)) unnamed_addr #2

; Function Attrs: mustprogress nounwind uwtable
define linkonce_odr void @_ZNSt10unique_ptrISt5queueIN8proxygen9HTTPEventESt5dequeIS2_SaIS2_EEESt14default_deleteIS6_EED2Ev(ptr noundef nonnull align 8 dereferenceable(8) %this) unnamed_addr #5 comdat align 2 {
entry:
  %this.addr = alloca ptr, align 8
  %__ptr = alloca ptr, align 8
  store ptr %this, ptr %this.addr, align 8
  %this1 = load ptr, ptr %this.addr, align 8
  %_M_t = getelementptr inbounds %"class.std::unique_ptr", ptr %this1, i32 0, i32 0
  %call = call noundef nonnull align 8 dereferenceable(8) ptr @_ZNSt15__uniq_ptr_implISt5queueIN8proxygen9HTTPEventESt5dequeIS2_SaIS2_EEESt14default_deleteIS6_EE6_M_ptrEv(ptr noundef nonnull align 8 dereferenceable(8) %_M_t) #3
  store ptr %call, ptr %__ptr, align 8
  %0 = load ptr, ptr %__ptr, align 8
  %1 = load ptr, ptr %0, align 8
  %cmp = icmp ne ptr %1, null
  br i1 %cmp, label %if.then, label %if.end

if.then:                                          ; preds = %entry
  %call2 = call noundef nonnull align 1 dereferenceable(1) ptr @_ZNSt10unique_ptrISt5queueIN8proxygen9HTTPEventESt5dequeIS2_SaIS2_EEESt14default_deleteIS6_EE11get_deleterEv(ptr noundef nonnull align 8 dereferenceable(8) %this1) #3
  %2 = load ptr, ptr %__ptr, align 8
  %3 = load ptr, ptr %2, align 8
  call void @_ZNKSt14default_deleteISt5queueIN8proxygen9HTTPEventESt5dequeIS2_SaIS2_EEEEclEPS6_(ptr noundef nonnull align 1 dereferenceable(1) %call2, ptr noundef %3)
  br label %if.end

if.end:                                           ; preds = %if.then, %entry
  %4 = load ptr, ptr %__ptr, align 8
  store ptr null, ptr %4, align 8
  ret void
}

; Function Attrs: mustprogress nounwind uwtable
define linkonce_odr void @_ZN8proxygen15HTTPTransaction17RateLimitCallbackD2Ev(ptr noundef nonnull align 8 dereferenceable(72) %this) unnamed_addr #5 comdat align 2 {
entry:
  %this.addr = alloca ptr, align 8
  store ptr %this, ptr %this.addr, align 8
  %this1 = load ptr, ptr %this.addr, align 8
  call void @_ZN5folly16HHWheelTimerBaseINSt6chrono8durationIlSt5ratioILl1ELl1000EEEEE8CallbackD2Ev(ptr noundef nonnull align 8 dereferenceable(64) %this1) #3
  ret void
}

; Function Attrs: nounwind
declare void @_ZN5folly16HHWheelTimerBaseINSt6chrono8durationIlSt5ratioILl1ELl1000EEEEE8CallbackD2Ev(ptr noundef nonnull align 8 dereferenceable(64)) unnamed_addr #2

; Function Attrs: mustprogress uwtable
define void @_ZN8proxygen15HTTPTransaction16onDelayedDestroyEb(ptr noundef nonnull align 8 dereferenceable(912) %this, i1 noundef zeroext %delayed) unnamed_addr #4 align 2 personality ptr @__gxx_personality_v0 {
entry:
  %this.addr = alloca ptr, align 8
  %delayed.addr = alloca i8, align 1
  %verbose_level__ = alloca i32, align 4
  %tmp = alloca i8, align 1
  %ref.tmp = alloca %"class.google::LogMessageVoidify", align 1
  %ref.tmp13 = alloca %"class.google::LogMessage", align 8
  %cleanup.cond = alloca i1, align 1
  %exn.slot = alloca ptr, align 8
  %ehselector.slot = alloca i32, align 4
  %ingressStreamIt = alloca %"struct.std::_Rb_tree_iterator", align 8
  %ref.tmp28 = alloca %"struct.std::_Rb_tree_iterator", align 8
  %id = alloca i64, align 8
  %stream = alloca ptr, align 8
  %coerce = alloca %"struct.std::_Rb_tree_iterator", align 8
  %verbose_level__39 = alloca i32, align 4
  %tmp40 = alloca i8, align 1
  %ref.tmp52 = alloca %"class.google::LogMessageVoidify", align 1
  %ref.tmp53 = alloca %"class.google::LogMessage", align 8
  %cleanup.cond54 = alloca i1, align 1
  %coerce71 = alloca %"class.folly::Expected", align 4
  %verbose_level__73 = alloca i32, align 4
  %tmp74 = alloca i8, align 1
  %ref.tmp86 = alloca %"class.google::LogMessageVoidify", align 1
  %ref.tmp87 = alloca %"class.google::LogMessage", align 8
  %cleanup.cond88 = alloca i1, align 1
  %egressStreamIt = alloca %"struct.std::_Rb_tree_iterator.54", align 8
  %ref.tmp109 = alloca %"struct.std::_Rb_tree_iterator.54", align 8
  %id115 = alloca i64, align 8
  %stream118 = alloca ptr, align 8
  %coerce122 = alloca %"struct.std::_Rb_tree_iterator.54", align 8
  %ref.tmp124 = alloca %"struct.std::_Rb_tree_iterator.54", align 8
  %ref.tmp128 = alloca %"struct.std::_Rb_tree_iterator.54", align 8
  %coerce135 = alloca %"class.folly::Expected", align 4
  %bytesBuffered = alloca i32, align 4
  store ptr %this, ptr %this.addr, align 8
  %frombool = zext i1 %delayed to i8
  store i8 %frombool, ptr %delayed.addr, align 1
  %this1 = load ptr, ptr %this.addr, align 8
  %call = call noundef zeroext i1 @_ZNK8proxygen15HTTPTransaction16isEgressCompleteEv(ptr noundef nonnull align 8 dereferenceable(912) %this1)
  br i1 %call, label %lor.lhs.false, label %if.then

lor.lhs.false:                                    ; preds = %entry
  %call2 = call noundef zeroext i1 @_ZNK8proxygen15HTTPTransaction17isIngressCompleteEv(ptr noundef nonnull align 8 dereferenceable(912) %this1)
  br i1 %call2, label %lor.lhs.false3, label %if.then

lor.lhs.false3:                                   ; preds = %lor.lhs.false
  %call4 = call noundef zeroext i1 @_ZNK8proxygen15HTTPTransaction10isEnqueuedEv(ptr noundef nonnull align 8 dereferenceable(912) %this1)
  br i1 %call4, label %if.then, label %lor.lhs.false5

lor.lhs.false5:                                   ; preds = %lor.lhs.false3
  %pendingByteEvents_ = getelementptr inbounds %"class.proxygen::HTTPTransaction", ptr %this1, i32 0, i32 33
  %0 = load i64, ptr %pendingByteEvents_, align 8
  %cmp = icmp ugt i64 %0, 0
  br i1 %cmp, label %if.then, label %lor.lhs.false6

lor.lhs.false6:                                   ; preds = %lor.lhs.false5
  %deleting_ = getelementptr inbounds %"class.proxygen::HTTPTransaction", ptr %this1, i32 0, i32 40
  %bf.load = load i32, ptr %deleting_, align 8
  %bf.lshr = lshr i32 %bf.load, 7
  %bf.clear = and i32 %bf.lshr, 1
  %bf.cast = trunc i32 %bf.clear to i1
  br i1 %bf.cast, label %if.then, label %if.end

if.then:                                          ; preds = %lor.lhs.false6, %lor.lhs.false5, %lor.lhs.false3, %lor.lhs.false, %entry
  br label %return

if.end:                                           ; preds = %lor.lhs.false6
  store i32 4, ptr %verbose_level__, align 4
  %1 = load ptr, ptr @_ZZN8proxygen15HTTPTransaction16onDelayedDestroyEbE8vlocal__, align 8
  %cmp7 = icmp eq ptr %1, null
  store i1 false, ptr %cleanup.cond, align 1
  br i1 %cmp7, label %cond.true, label %cond.false

cond.true:                                        ; preds = %if.end
  %2 = load i32, ptr %verbose_level__, align 4
  %call8 = call noundef zeroext i1 @_ZN6google11InitVLOG3__EPNS_8SiteFlagEPiPKci(ptr noundef @_ZZN8proxygen15HTTPTransaction16onDelayedDestroyEbE8vlocal__, ptr noundef @_ZN3fLI7FLAGS_vE, ptr noundef @.str, i32 noundef %2)
  br label %cond.end

cond.false:                                       ; preds = %if.end
  %3 = load ptr, ptr @_ZZN8proxygen15HTTPTransaction16onDelayedDestroyEbE8vlocal__, align 8
  %4 = load i32, ptr %3, align 4
  %5 = load i32, ptr %verbose_level__, align 4
  %cmp9 = icmp sge i32 %4, %5
  br label %cond.end

cond.end:                                         ; preds = %cond.false, %cond.true
  %cond = phi i1 [ %call8, %cond.true ], [ %cmp9, %cond.false ]
  %frombool10 = zext i1 %cond to i8
  store i8 %frombool10, ptr %tmp, align 1
  %6 = load i8, ptr %tmp, align 1
  %tobool = trunc i8 %6 to i1
  br i1 %tobool, label %cond.false12, label %cond.true11

cond.true11:                                      ; preds = %cond.end
  br label %cond.end20

cond.false12:                                     ; preds = %cond.end
  call void @_ZN6google17LogMessageVoidifyC2Ev(ptr noundef nonnull align 1 dereferenceable(1) %ref.tmp)
  call void @_ZN6google10LogMessageC1EPKci(ptr noundef nonnull align 8 dereferenceable(96) %ref.tmp13, ptr noundef @.str, i32 noundef 154)
  store i1 true, ptr %cleanup.cond, align 1
  %call14 = invoke noundef nonnull align 8 dereferenceable(8) ptr @_ZN6google10LogMessage6streamEv(ptr noundef nonnull align 8 dereferenceable(96) %ref.tmp13)
          to label %invoke.cont unwind label %lpad

invoke.cont:                                      ; preds = %cond.false12
  %call16 = invoke noundef nonnull align 8 dereferenceable(8) ptr @_ZStlsISt11char_traitsIcEERSt13basic_ostreamIcT_ES5_PKc(ptr noundef nonnull align 8 dereferenceable(8) %call14, ptr noundef @.str.1)
          to label %invoke.cont15 unwind label %lpad

invoke.cont15:                                    ; preds = %invoke.cont
  %call18 = invoke noundef nonnull align 8 dereferenceable(8) ptr @_ZN8proxygenlsERSoRKNS_15HTTPTransactionE(ptr noundef nonnull align 8 dereferenceable(8) %call16, ptr noundef nonnull align 8 dereferenceable(912) %this1)
          to label %invoke.cont17 unwind label %lpad

invoke.cont17:                                    ; preds = %invoke.cont15
  invoke void @_ZN6google17LogMessageVoidifyanERSo(ptr noundef nonnull align 1 dereferenceable(1) %ref.tmp, ptr noundef nonnull align 8 dereferenceable(8) %call18)
          to label %invoke.cont19 unwind label %lpad

invoke.cont19:                                    ; preds = %invoke.cont17
  br label %cond.end20

cond.end20:                                       ; preds = %invoke.cont19, %cond.true11
  %cleanup.is_active = load i1, ptr %cleanup.cond, align 1
  br i1 %cleanup.is_active, label %cleanup.action, label %cleanup.done

cleanup.action:                                   ; preds = %cond.end20
  call void @_ZN6google10LogMessageD1Ev(ptr noundef nonnull align 8 dereferenceable(96) %ref.tmp13) #3
  br label %cleanup.done

cleanup.done:                                     ; preds = %cleanup.action, %cond.end20
  %deleting_24 = getelementptr inbounds %"class.proxygen::HTTPTransaction", ptr %this1, i32 0, i32 40
  %bf.load25 = load i32, ptr %deleting_24, align 8
  %bf.clear26 = and i32 %bf.load25, -129
  %bf.set = or i32 %bf.clear26, 128
  store i32 %bf.set, ptr %deleting_24, align 8
  %wtIngressStreams_ = getelementptr inbounds %"class.proxygen::HTTPTransaction", ptr %this1, i32 0, i32 50
  %call27 = call ptr @_ZNSt3mapImN8proxygen15HTTPTransaction19TxnStreamReadHandleESt4lessImESaISt4pairIKmS2_EEE5beginEv(ptr noundef nonnull align 8 dereferenceable(48) %wtIngressStreams_) #3
  %coerce.dive = getelementptr inbounds %"struct.std::_Rb_tree_iterator", ptr %ingressStreamIt, i32 0, i32 0
  store ptr %call27, ptr %coerce.dive, align 8
  br label %for.cond

for.cond:                                         ; preds = %if.end104, %cleanup.done
  %wtIngressStreams_29 = getelementptr inbounds %"class.proxygen::HTTPTransaction", ptr %this1, i32 0, i32 50
  %call30 = call ptr @_ZNSt3mapImN8proxygen15HTTPTransaction19TxnStreamReadHandleESt4lessImESaISt4pairIKmS2_EEE3endEv(ptr noundef nonnull align 8 dereferenceable(48) %wtIngressStreams_29) #3
  %coerce.dive31 = getelementptr inbounds %"struct.std::_Rb_tree_iterator", ptr %ref.tmp28, i32 0, i32 0
  store ptr %call30, ptr %coerce.dive31, align 8
  %call32 = call noundef zeroext i1 @_ZStneRKSt17_Rb_tree_iteratorISt4pairIKmN8proxygen15HTTPTransaction19TxnStreamReadHandleEEES8_(ptr noundef nonnull align 8 dereferenceable(8) %ingressStreamIt, ptr noundef nonnull align 8 dereferenceable(8) %ref.tmp28) #3
  br i1 %call32, label %for.body, label %for.end

for.body:                                         ; preds = %for.cond
  %call33 = call noundef ptr @_ZNKSt17_Rb_tree_iteratorISt4pairIKmN8proxygen15HTTPTransaction19TxnStreamReadHandleEEEptEv(ptr noundef nonnull align 8 dereferenceable(8) %ingressStreamIt) #3
  %first = getelementptr inbounds %"struct.std::pair.40", ptr %call33, i32 0, i32 0
  %7 = load i64, ptr %first, align 8
  store i64 %7, ptr %id, align 8
  %call34 = call noundef ptr @_ZNKSt17_Rb_tree_iteratorISt4pairIKmN8proxygen15HTTPTransaction19TxnStreamReadHandleEEEptEv(ptr noundef nonnull align 8 dereferenceable(8) %ingressStreamIt) #3
  %second = getelementptr inbounds %"struct.std::pair.40", ptr %call34, i32 0, i32 1
  store ptr %second, ptr %stream, align 8
  %call35 = call ptr @_ZNSt17_Rb_tree_iteratorISt4pairIKmN8proxygen15HTTPTransaction19TxnStreamReadHandleEEEppEi(ptr noundef nonnull align 8 dereferenceable(8) %ingressStreamIt, i32 noundef 0) #3
  %coerce.dive36 = getelementptr inbounds %"struct.std::_Rb_tree_iterator", ptr %coerce, i32 0, i32 0
  store ptr %call35, ptr %coerce.dive36, align 8
  %8 = load ptr, ptr %stream, align 8
  %call37 = call noundef zeroext i1 @_ZNK8proxygen15HTTPTransaction19TxnStreamReadHandle4openEv(ptr noundef nonnull align 8 dereferenceable(144) %8)
  br i1 %call37, label %if.then38, label %if.else

if.then38:                                        ; preds = %for.body
  store i32 4, ptr %verbose_level__39, align 4
  %9 = load ptr, ptr @_ZZN8proxygen15HTTPTransaction16onDelayedDestroyEbE8vlocal___0, align 8
  %cmp41 = icmp eq ptr %9, null
  store i1 false, ptr %cleanup.cond54, align 1
  br i1 %cmp41, label %cond.true42, label %cond.false44

cond.true42:                                      ; preds = %if.then38
  %10 = load i32, ptr %verbose_level__39, align 4
  %call43 = call noundef zeroext i1 @_ZN6google11InitVLOG3__EPNS_8SiteFlagEPiPKci(ptr noundef @_ZZN8proxygen15HTTPTransaction16onDelayedDestroyEbE8vlocal___0, ptr noundef @_ZN3fLI7FLAGS_vE, ptr noundef @.str, i32 noundef %10)
  br label %cond.end46

cond.false44:                                     ; preds = %if.then38
  %11 = load ptr, ptr @_ZZN8proxygen15HTTPTransaction16onDelayedDestroyEbE8vlocal___0, align 8
  %12 = load i32, ptr %11, align 4
  %13 = load i32, ptr %verbose_level__39, align 4
  %cmp45 = icmp sge i32 %12, %13
  br label %cond.end46

cond.end46:                                       ; preds = %cond.false44, %cond.true42
  %cond47 = phi i1 [ %call43, %cond.true42 ], [ %cmp45, %cond.false44 ]
  %frombool48 = zext i1 %cond47 to i8
  store i8 %frombool48, ptr %tmp40, align 1
  %14 = load i8, ptr %tmp40, align 1
  %tobool49 = trunc i8 %14 to i1
  br i1 %tobool49, label %cond.false51, label %cond.true50

cond.true50:                                      ; preds = %cond.end46
  br label %cond.end63

cond.false51:                                     ; preds = %cond.end46
  call void @_ZN6google17LogMessageVoidifyC2Ev(ptr noundef nonnull align 1 dereferenceable(1) %ref.tmp52)
  call void @_ZN6google10LogMessageC1EPKci(ptr noundef nonnull align 8 dereferenceable(96) %ref.tmp53, ptr noundef @.str, i32 noundef 164)
  store i1 true, ptr %cleanup.cond54, align 1
  %call57 = invoke noundef nonnull align 8 dereferenceable(8) ptr @_ZN6google10LogMessage6streamEv(ptr noundef nonnull align 8 dereferenceable(96) %ref.tmp53)
          to label %invoke.cont56 unwind label %lpad55

invoke.cont56:                                    ; preds = %cond.false51
  %call59 = invoke noundef nonnull align 8 dereferenceable(8) ptr @_ZStlsISt11char_traitsIcEERSt13basic_ostreamIcT_ES5_PKc(ptr noundef nonnull align 8 dereferenceable(8) %call57, ptr noundef @.str.2)
          to label %invoke.cont58 unwind label %lpad55

invoke.cont58:                                    ; preds = %invoke.cont56
  %15 = load i64, ptr %id, align 8
  %call61 = invoke noundef nonnull align 8 dereferenceable(8) ptr @_ZNSolsEm(ptr noundef nonnull align 8 dereferenceable(8) %call59, i64 noundef %15)
          to label %invoke.cont60 unwind label %lpad55

invoke.cont60:                                    ; preds = %invoke.cont58
  invoke void @_ZN6google17LogMessageVoidifyanERSo(ptr noundef nonnull align 1 dereferenceable(1) %ref.tmp52, ptr noundef nonnull align 8 dereferenceable(8) %call61)
          to label %invoke.cont62 unwind label %lpad55

invoke.cont62:                                    ; preds = %invoke.cont60
  br label %cond.end63

cond.end63:                                       ; preds = %invoke.cont62, %cond.true50
  %cleanup.is_active64 = load i1, ptr %cleanup.cond54, align 1
  br i1 %cleanup.is_active64, label %cleanup.action65, label %cleanup.done66

cleanup.action65:                                 ; preds = %cond.end63
  call void @_ZN6google10LogMessageD1Ev(ptr noundef nonnull align 8 dereferenceable(96) %ref.tmp53) #3
  br label %cleanup.done66

cleanup.done66:                                   ; preds = %cleanup.action65, %cond.end63
  %16 = load ptr, ptr %stream, align 8
  call void @_ZN8proxygen15HTTPTransaction19TxnStreamReadHandle5errorEj(ptr noundef nonnull align 8 dereferenceable(144) %16, i32 noundef -1)
  %transport_ = getelementptr inbounds %"class.proxygen::HTTPTransaction", ptr %this1, i32 0, i32 14
  %17 = load ptr, ptr %transport_, align 8
  %18 = load i64, ptr %id, align 8
  %vtable = load ptr, ptr %17, align 8
  %vfn = getelementptr inbounds ptr, ptr %vtable, i64 53
  %19 = load ptr, ptr %vfn, align 8
  %call70 = call i64 %19(ptr noundef nonnull align 8 dereferenceable(8) %17, i64 noundef %18, i32 noundef -1)
  %coerce.dive72 = getelementptr inbounds %"class.folly::Expected", ptr %coerce71, i32 0, i32 0
  store i64 %call70, ptr %coerce.dive72, align 4
  br label %if.end104

lpad:                                             ; preds = %invoke.cont17, %invoke.cont15, %invoke.cont, %cond.false12
  %20 = landingpad { ptr, i32 }
          cleanup
  %21 = extractvalue { ptr, i32 } %20, 0
  store ptr %21, ptr %exn.slot, align 8
  %22 = extractvalue { ptr, i32 } %20, 1
  store i32 %22, ptr %ehselector.slot, align 4
  %cleanup.is_active21 = load i1, ptr %cleanup.cond, align 1
  br i1 %cleanup.is_active21, label %cleanup.action22, label %cleanup.done23

cleanup.action22:                                 ; preds = %lpad
  call void @_ZN6google10LogMessageD1Ev(ptr noundef nonnull align 8 dereferenceable(96) %ref.tmp13) #3
  br label %cleanup.done23

cleanup.done23:                                   ; preds = %cleanup.action22, %lpad
  br label %eh.resume

lpad55:                                           ; preds = %invoke.cont60, %invoke.cont58, %invoke.cont56, %cond.false51
  %23 = landingpad { ptr, i32 }
          cleanup
  %24 = extractvalue { ptr, i32 } %23, 0
  store ptr %24, ptr %exn.slot, align 8
  %25 = extractvalue { ptr, i32 } %23, 1
  store i32 %25, ptr %ehselector.slot, align 4
  %cleanup.is_active67 = load i1, ptr %cleanup.cond54, align 1
  br i1 %cleanup.is_active67, label %cleanup.action68, label %cleanup.done69

cleanup.action68:                                 ; preds = %lpad55
  call void @_ZN6google10LogMessageD1Ev(ptr noundef nonnull align 8 dereferenceable(96) %ref.tmp53) #3
  br label %cleanup.done69

cleanup.done69:                                   ; preds = %cleanup.action68, %lpad55
  br label %eh.resume

if.else:                                          ; preds = %for.body
  store i32 4, ptr %verbose_level__73, align 4
  %26 = load ptr, ptr @_ZZN8proxygen15HTTPTransaction16onDelayedDestroyEbE8vlocal___1, align 8
  %cmp75 = icmp eq ptr %26, null
  store i1 false, ptr %cleanup.cond88, align 1
  br i1 %cmp75, label %cond.true76, label %cond.false78

cond.true76:                                      ; preds = %if.else
  %27 = load i32, ptr %verbose_level__73, align 4
  %call77 = call noundef zeroext i1 @_ZN6google11InitVLOG3__EPNS_8SiteFlagEPiPKci(ptr noundef @_ZZN8proxygen15HTTPTransaction16onDelayedDestroyEbE8vlocal___1, ptr noundef @_ZN3fLI7FLAGS_vE, ptr noundef @.str, i32 noundef %27)
  br label %cond.end80

cond.false78:                                     ; preds = %if.else
  %28 = load ptr, ptr @_ZZN8proxygen15HTTPTransaction16onDelayedDestroyEbE8vlocal___1, align 8
  %29 = load i32, ptr %28, align 4
  %30 = load i32, ptr %verbose_level__73, align 4
  %cmp79 = icmp sge i32 %29, %30
  br label %cond.end80

cond.end80:                                       ; preds = %cond.false78, %cond.true76
  %cond81 = phi i1 [ %call77, %cond.true76 ], [ %cmp79, %cond.false78 ]
  %frombool82 = zext i1 %cond81 to i8
  store i8 %frombool82, ptr %tmp74, align 1
  %31 = load i8, ptr %tmp74, align 1
  %tobool83 = trunc i8 %31 to i1
  br i1 %tobool83, label %cond.false85, label %cond.true84

cond.true84:                                      ; preds = %cond.end80
  br label %cond.end97

cond.false85:                                     ; preds = %cond.end80
  call void @_ZN6google17LogMessageVoidifyC2Ev(ptr noundef nonnull align 1 dereferenceable(1) %ref.tmp86)
  call void @_ZN6google10LogMessageC1EPKci(ptr noundef nonnull align 8 dereferenceable(96) %ref.tmp87, ptr noundef @.str, i32 noundef 171)
  store i1 true, ptr %cleanup.cond88, align 1
  %call91 = invoke noundef nonnull align 8 dereferenceable(8) ptr @_ZN6google10LogMessage6streamEv(ptr noundef nonnull align 8 dereferenceable(96) %ref.tmp87)
          to label %invoke.cont90 unwind label %lpad89

invoke.cont90:                                    ; preds = %cond.false85
  %call93 = invoke noundef nonnull align 8 dereferenceable(8) ptr @_ZStlsISt11char_traitsIcEERSt13basic_ostreamIcT_ES5_PKc(ptr noundef nonnull align 8 dereferenceable(8) %call91, ptr noundef @.str.3)
          to label %invoke.cont92 unwind label %lpad89

invoke.cont92:                                    ; preds = %invoke.cont90
  %32 = load i64, ptr %id, align 8
  %call95 = invoke noundef nonnull align 8 dereferenceable(8) ptr @_ZNSolsEm(ptr noundef nonnull align 8 dereferenceable(8) %call93, i64 noundef %32)
          to label %invoke.cont94 unwind label %lpad89

invoke.cont94:                                    ; preds = %invoke.cont92
  invoke void @_ZN6google17LogMessageVoidifyanERSo(ptr noundef nonnull align 1 dereferenceable(1) %ref.tmp86, ptr noundef nonnull align 8 dereferenceable(8) %call95)
          to label %invoke.cont96 unwind label %lpad89

invoke.cont96:                                    ; preds = %invoke.cont94
  br label %cond.end97

cond.end97:                                       ; preds = %invoke.cont96, %cond.true84
  %cleanup.is_active98 = load i1, ptr %cleanup.cond88, align 1
  br i1 %cleanup.is_active98, label %cleanup.action99, label %cleanup.done100

cleanup.action99:                                 ; preds = %cond.end97
  call void @_ZN6google10LogMessageD1Ev(ptr noundef nonnull align 8 dereferenceable(96) %ref.tmp87) #3
  br label %cleanup.done100

cleanup.done100:                                  ; preds = %cleanup.action99, %cond.end97
  br label %if.end104

lpad89:                                           ; preds = %invoke.cont94, %invoke.cont92, %invoke.cont90, %cond.false85
  %33 = landingpad { ptr, i32 }
          cleanup
  %34 = extractvalue { ptr, i32 } %33, 0
  store ptr %34, ptr %exn.slot, align 8
  %35 = extractvalue { ptr, i32 } %33, 1
  store i32 %35, ptr %ehselector.slot, align 4
  %cleanup.is_active101 = load i1, ptr %cleanup.cond88, align 1
  br i1 %cleanup.is_active101, label %cleanup.action102, label %cleanup.done103

cleanup.action102:                                ; preds = %lpad89
  call void @_ZN6google10LogMessageD1Ev(ptr noundef nonnull align 8 dereferenceable(96) %ref.tmp87) #3
  br label %cleanup.done103

cleanup.done103:                                  ; preds = %cleanup.action102, %lpad89
  br label %eh.resume

if.end104:                                        ; preds = %cleanup.done100, %cleanup.done66
  br label %for.cond, !llvm.loop !4

for.end:                                          ; preds = %for.cond
  %wtIngressStreams_105 = getelementptr inbounds %"class.proxygen::HTTPTransaction", ptr %this1, i32 0, i32 50
  call void @_ZNSt3mapImN8proxygen15HTTPTransaction19TxnStreamReadHandleESt4lessImESaISt4pairIKmS2_EEE5clearEv(ptr noundef nonnull align 8 dereferenceable(48) %wtIngressStreams_105) #3
  %wtEgressStreams_ = getelementptr inbounds %"class.proxygen::HTTPTransaction", ptr %this1, i32 0, i32 49
  %call106 = call ptr @_ZNSt3mapImN8proxygen15HTTPTransaction20TxnStreamWriteHandleESt4lessImESaISt4pairIKmS2_EEE5beginEv(ptr noundef nonnull align 8 dereferenceable(48) %wtEgressStreams_) #3
  %coerce.dive107 = getelementptr inbounds %"struct.std::_Rb_tree_iterator.54", ptr %egressStreamIt, i32 0, i32 0
  store ptr %call106, ptr %coerce.dive107, align 8
  br label %for.cond108

for.cond108:                                      ; preds = %if.end137, %for.end
  %wtEgressStreams_110 = getelementptr inbounds %"class.proxygen::HTTPTransaction", ptr %this1, i32 0, i32 49
  %call111 = call ptr @_ZNSt3mapImN8proxygen15HTTPTransaction20TxnStreamWriteHandleESt4lessImESaISt4pairIKmS2_EEE3endEv(ptr noundef nonnull align 8 dereferenceable(48) %wtEgressStreams_110) #3
  %coerce.dive112 = getelementptr inbounds %"struct.std::_Rb_tree_iterator.54", ptr %ref.tmp109, i32 0, i32 0
  store ptr %call111, ptr %coerce.dive112, align 8
  %call113 = call noundef zeroext i1 @_ZStneRKSt17_Rb_tree_iteratorISt4pairIKmN8proxygen15HTTPTransaction20TxnStreamWriteHandleEEES8_(ptr noundef nonnull align 8 dereferenceable(8) %egressStreamIt, ptr noundef nonnull align 8 dereferenceable(8) %ref.tmp109) #3
  br i1 %call113, label %for.body114, label %for.end138

for.body114:                                      ; preds = %for.cond108
  %call116 = call noundef ptr @_ZNKSt17_Rb_tree_iteratorISt4pairIKmN8proxygen15HTTPTransaction20TxnStreamWriteHandleEEEptEv(ptr noundef nonnull align 8 dereferenceable(8) %egressStreamIt) #3
  %first117 = getelementptr inbounds %"struct.std::pair.55", ptr %call116, i32 0, i32 0
  %36 = load i64, ptr %first117, align 8
  store i64 %36, ptr %id115, align 8
  %call119 = call noundef ptr @_ZNKSt17_Rb_tree_iteratorISt4pairIKmN8proxygen15HTTPTransaction20TxnStreamWriteHandleEEEptEv(ptr noundef nonnull align 8 dereferenceable(8) %egressStreamIt) #3
  %second120 = getelementptr inbounds %"struct.std::pair.55", ptr %call119, i32 0, i32 1
  store ptr %second120, ptr %stream118, align 8
  %call121 = call ptr @_ZNSt17_Rb_tree_iteratorISt4pairIKmN8proxygen15HTTPTransaction20TxnStreamWriteHandleEEEppEi(ptr noundef nonnull align 8 dereferenceable(8) %egressStreamIt, i32 noundef 0) #3
  %coerce.dive123 = getelementptr inbounds %"struct.std::_Rb_tree_iterator.54", ptr %coerce122, i32 0, i32 0
  store ptr %call121, ptr %coerce.dive123, align 8
  %37 = load ptr, ptr %stream118, align 8
  call void @_ZN8proxygen15HTTPTransaction20TxnStreamWriteHandle13onStopSendingEj(ptr noundef nonnull align 8 dereferenceable(64) %37, i32 noundef -1)
  %wtEgressStreams_125 = getelementptr inbounds %"class.proxygen::HTTPTransaction", ptr %this1, i32 0, i32 49
  %call126 = call ptr @_ZNSt3mapImN8proxygen15HTTPTransaction20TxnStreamWriteHandleESt4lessImESaISt4pairIKmS2_EEE4findERS6_(ptr noundef nonnull align 8 dereferenceable(48) %wtEgressStreams_125, ptr noundef nonnull align 8 dereferenceable(8) %id115)
  %coerce.dive127 = getelementptr inbounds %"struct.std::_Rb_tree_iterator.54", ptr %ref.tmp124, i32 0, i32 0
  store ptr %call126, ptr %coerce.dive127, align 8
  %wtEgressStreams_129 = getelementptr inbounds %"class.proxygen::HTTPTransaction", ptr %this1, i32 0, i32 49
  %call130 = call ptr @_ZNSt3mapImN8proxygen15HTTPTransaction20TxnStreamWriteHandleESt4lessImESaISt4pairIKmS2_EEE3endEv(ptr noundef nonnull align 8 dereferenceable(48) %wtEgressStreams_129) #3
  %coerce.dive131 = getelementptr inbounds %"struct.std::_Rb_tree_iterator.54", ptr %ref.tmp128, i32 0, i32 0
  store ptr %call130, ptr %coerce.dive131, align 8
  %call132 = call noundef zeroext i1 @_ZStneRKSt17_Rb_tree_iteratorISt4pairIKmN8proxygen15HTTPTransaction20TxnStreamWriteHandleEEES8_(ptr noundef nonnull align 8 dereferenceable(8) %ref.tmp124, ptr noundef nonnull align 8 dereferenceable(8) %ref.tmp128) #3
  br i1 %call132, label %if.then133, label %if.end137

if.then133:                                       ; preds = %for.body114
  %38 = load i64, ptr %id115, align 8
  %call134 = call i64 @_ZN8proxygen15HTTPTransaction23resetWebTransportEgressEmj(ptr noundef nonnull align 8 dereferenceable(912) %this1, i64 noundef %38, i32 noundef -1)
  %coerce.dive136 = getelementptr inbounds %"class.folly::Expected", ptr %coerce135, i32 0, i32 0
  store i64 %call134, ptr %coerce.dive136, align 4
  br label %if.end137

if.end137:                                        ; preds = %if.then133, %for.body114
  br label %for.cond108, !llvm.loop !6

for.end138:                                       ; preds = %for.cond108
  %wtEgressStreams_139 = getelementptr inbounds %"class.proxygen::HTTPTransaction", ptr %this1, i32 0, i32 49
  call void @_ZNSt3mapImN8proxygen15HTTPTransaction20TxnStreamWriteHandleESt4lessImESaISt4pairIKmS2_EEE5clearEv(ptr noundef nonnull align 8 dereferenceable(48) %wtEgressStreams_139) #3
  %handler_ = getelementptr inbounds %"class.proxygen::HTTPTransaction", ptr %this1, i32 0, i32 13
  %39 = load ptr, ptr %handler_, align 8
  %tobool140 = icmp ne ptr %39, null
  br i1 %tobool140, label %if.then141, label %if.end146

if.then141:                                       ; preds = %for.end138
  %handler_142 = getelementptr inbounds %"class.proxygen::HTTPTransaction", ptr %this1, i32 0, i32 13
  %40 = load ptr, ptr %handler_142, align 8
  %vtable143 = load ptr, ptr %40, align 8
  %vfn144 = getelementptr inbounds ptr, ptr %vtable143, i64 5
  %41 = load ptr, ptr %vfn144, align 8
  call void %41(ptr noundef nonnull align 8 dereferenceable(8) %40) #3
  %handler_145 = getelementptr inbounds %"class.proxygen::HTTPTransaction", ptr %this1, i32 0, i32 13
  store ptr null, ptr %handler_145, align 8
  br label %if.end146

if.end146:                                        ; preds = %if.then141, %for.end138
  %transportCallback_ = getelementptr inbounds %"class.proxygen::HTTPTransaction", ptr %this1, i32 0, i32 19
  store ptr null, ptr %transportCallback_, align 8
  %recvWindow_ = getelementptr inbounds %"class.proxygen::HTTPTransaction", ptr %this1, i32 0, i32 17
  %call147 = call noundef i32 @_ZNK8proxygen6Window14getOutstandingEv(ptr noundef nonnull align 4 dereferenceable(8) %recvWindow_)
  store i32 %call147, ptr %bytesBuffered, align 4
  %42 = load i32, ptr %bytesBuffered, align 4
  %tobool148 = icmp ne i32 %42, 0
  br i1 %tobool148, label %if.then149, label %if.end153

if.then149:                                       ; preds = %if.end146
  %transport_150 = getelementptr inbounds %"class.proxygen::HTTPTransaction", ptr %this1, i32 0, i32 14
  %43 = load ptr, ptr %transport_150, align 8
  %44 = load i32, ptr %bytesBuffered, align 4
  %vtable151 = load ptr, ptr %43, align 8
  %vfn152 = getelementptr inbounds ptr, ptr %vtable151, i64 18
  %45 = load ptr, ptr %vfn152, align 8
  call void %45(ptr noundef nonnull align 8 dereferenceable(8) %43, i32 noundef %44) #3
  br label %if.end153

if.end153:                                        ; preds = %if.then149, %if.end146
  %transport_154 = getelementptr inbounds %"class.proxygen::HTTPTransaction", ptr %this1, i32 0, i32 14
  %46 = load ptr, ptr %transport_154, align 8
  %vtable155 = load ptr, ptr %46, align 8
  %vfn156 = getelementptr inbounds ptr, ptr %vtable155, i64 17
  %47 = load ptr, ptr %vfn156, align 8
  call void %47(ptr noundef nonnull align 8 dereferenceable(8) %46, ptr noundef %this1) #3
  br label %return

return:                                           ; preds = %if.end153, %if.then
  ret void

eh.resume:                                        ; preds = %cleanup.done103, %cleanup.done69, %cleanup.done23
  %exn = load ptr, ptr %exn.slot, align 8
  %sel = load i32, ptr %ehselector.slot, align 4
  %lpad.val = insertvalue { ptr, i32 } poison, ptr %exn, 0
  %lpad.val157 = insertvalue { ptr, i32 } %lpad.val, i32 %sel, 1
  resume { ptr, i32 } %lpad.val157
}

; Function Attrs: mustprogress nounwind uwtable
define linkonce_odr noundef zeroext i1 @_ZNK8proxygen15HTTPTransaction16isEgressCompleteEv(ptr noundef nonnull align 8 dereferenceable(912) %this) #5 comdat align 2 {
entry:
  %this.addr = alloca ptr, align 8
  store ptr %this, ptr %this.addr, align 8
  %this1 = load ptr, ptr %this.addr, align 8
  %egressState_ = getelementptr inbounds %"class.proxygen::HTTPTransaction", ptr %this1, i32 0, i32 7
  %0 = load i8, ptr %egressState_, align 1
  %cmp = icmp eq i8 %0, 9
  ret i1 %cmp
}

; Function Attrs: mustprogress nounwind uwtable
define linkonce_odr noundef zeroext i1 @_ZNK8proxygen15HTTPTransaction17isIngressCompleteEv(ptr noundef nonnull align 8 dereferenceable(912) %this) #5 comdat align 2 {
entry:
  %this.addr = alloca ptr, align 8
  store ptr %this, ptr %this.addr, align 8
  %this1 = load ptr, ptr %this.addr, align 8
  %ingressState_ = getelementptr inbounds %"class.proxygen::HTTPTransaction", ptr %this1, i32 0, i32 8
  %0 = load i8, ptr %ingressState_, align 2
  %cmp = icmp eq i8 %0, 10
  ret i1 %cmp
}

; Function Attrs: mustprogress uwtable
define linkonce_odr noundef zeroext i1 @_ZNK8proxygen15HTTPTransaction10isEnqueuedEv(ptr noundef nonnull align 8 dereferenceable(912) %this) #4 comdat align 2 {
entry:
  %this.addr = alloca ptr, align 8
  store ptr %this, ptr %this.addr, align 8
  %this1 = load ptr, ptr %this.addr, align 8
  %queueHandle_ = getelementptr inbounds %"class.proxygen::HTTPTransaction", ptr %this1, i32 0, i32 23
  %0 = load ptr, ptr %queueHandle_, align 8
  %tobool = icmp ne ptr %0, null
  br i1 %tobool, label %cond.true, label %cond.false

cond.true:                                        ; preds = %entry
  %queueHandle_2 = getelementptr inbounds %"class.proxygen::HTTPTransaction", ptr %this1, i32 0, i32 23
  %1 = load ptr, ptr %queueHandle_2, align 8
  %vtable = load ptr, ptr %1, align 8
  %vfn = getelementptr inbounds ptr, ptr %vtable, i64 2
  %2 = load ptr, ptr %vfn, align 8
  %call = call noundef zeroext i1 %2(ptr noundef nonnull align 8 dereferenceable(8) %1)
  br label %cond.end

cond.false:                                       ; preds = %entry
  br label %cond.end

cond.end:                                         ; preds = %cond.false, %cond.true
  %cond = phi i1 [ %call, %cond.true ], [ false, %cond.false ]
  ret i1 %cond
}

declare noundef zeroext i1 @_ZN6google11InitVLOG3__EPNS_8SiteFlagEPiPKci(ptr noundef, ptr noundef, ptr noundef, i32 noundef) #1

; Function Attrs: mustprogress nounwind uwtable
define linkonce_odr void @_ZN6google17LogMessageVoidifyC2Ev(ptr noundef nonnull align 1 dereferenceable(1) %this) unnamed_addr #5 comdat align 2 {
entry:
  %this.addr = alloca ptr, align 8
  store ptr %this, ptr %this.addr, align 8
  ret void
}

; Function Attrs: mustprogress nounwind uwtable
define linkonce_odr void @_ZN6google17LogMessageVoidifyanERSo(ptr noundef nonnull align 1 dereferenceable(1) %this, ptr noundef nonnull align 8 dereferenceable(8) %0) #5 comdat align 2 {
entry:
  %this.addr = alloca ptr, align 8
  %.addr = alloca ptr, align 8
  store ptr %this, ptr %this.addr, align 8
  store ptr %0, ptr %.addr, align 8
  ret void
}

; Function Attrs: mustprogress uwtable
define noundef nonnull align 8 dereferenceable(8) ptr @_ZN8proxygenlsERSoRKNS_15HTTPTransactionE(ptr noundef nonnull align 8 dereferenceable(8) %os, ptr noundef nonnull align 8 dereferenceable(912) %txn) #4 {
entry:
  %os.addr = alloca ptr, align 8
  %txn.addr = alloca ptr, align 8
  store ptr %os, ptr %os.addr, align 8
  store ptr %txn, ptr %txn.addr, align 8
  %0 = load ptr, ptr %txn.addr, align 8
  %1 = load ptr, ptr %os.addr, align 8
  call void @_ZNK8proxygen15HTTPTransaction8describeERSo(ptr noundef nonnull align 8 dereferenceable(912) %0, ptr noundef nonnull align 8 dereferenceable(8) %1)
  %2 = load ptr, ptr %os.addr, align 8
  ret ptr %2
}

declare noundef nonnull align 8 dereferenceable(8) ptr @_ZStlsISt11char_traitsIcEERSt13basic_ostreamIcT_ES5_PKc(ptr noundef nonnull align 8 dereferenceable(8), ptr noundef) #1

declare void @_ZN6google10LogMessageC1EPKci(ptr noundef nonnull align 8 dereferenceable(96), ptr noundef, i32 noundef) unnamed_addr #1

declare noundef nonnull align 8 dereferenceable(8) ptr @_ZN6google10LogMessage6streamEv(ptr noundef nonnull align 8 dereferenceable(96)) #1

; Function Attrs: nounwind
declare void @_ZN6google10LogMessageD1Ev(ptr noundef nonnull align 8 dereferenceable(96)) unnamed_addr #2

; Function Attrs: mustprogress nounwind uwtable
define linkonce_odr ptr @_ZNSt3mapImN8proxygen15HTTPTransaction19TxnStreamReadHandleESt4lessImESaISt4pairIKmS2_EEE5beginEv(ptr noundef nonnull align 8 dereferenceable(48) %this) #5 comdat align 2 {
entry:
  %retval = alloca %"struct.std::_Rb_tree_iterator", align 8
  %this.addr = alloca ptr, align 8
  store ptr %this, ptr %this.addr, align 8
  %this1 = load ptr, ptr %this.addr, align 8
  %_M_t = getelementptr inbounds %"class.std::map.35", ptr %this1, i32 0, i32 0
  %call = call ptr @_ZNSt8_Rb_treeImSt4pairIKmN8proxygen15HTTPTransaction19TxnStreamReadHandleEESt10_Select1stIS5_ESt4lessImESaIS5_EE5beginEv(ptr noundef nonnull align 8 dereferenceable(48) %_M_t) #3
  %coerce.dive = getelementptr inbounds %"struct.std::_Rb_tree_iterator", ptr %retval, i32 0, i32 0
  store ptr %call, ptr %coerce.dive, align 8
  %coerce.dive2 = getelementptr inbounds %"struct.std::_Rb_tree_iterator", ptr %retval, i32 0, i32 0
  %0 = load ptr, ptr %coerce.dive2, align 8
  ret ptr %0
}

; Function Attrs: mustprogress nounwind uwtable
define linkonce_odr noundef zeroext i1 @_ZStneRKSt17_Rb_tree_iteratorISt4pairIKmN8proxygen15HTTPTransaction19TxnStreamReadHandleEEES8_(ptr noundef nonnull align 8 dereferenceable(8) %__x, ptr noundef nonnull align 8 dereferenceable(8) %__y) #5 comdat {
entry:
  %__x.addr = alloca ptr, align 8
  %__y.addr = alloca ptr, align 8
  store ptr %__x, ptr %__x.addr, align 8
  store ptr %__y, ptr %__y.addr, align 8
  %0 = load ptr, ptr %__x.addr, align 8
  %_M_node = getelementptr inbounds %"struct.std::_Rb_tree_iterator", ptr %0, i32 0, i32 0
  %1 = load ptr, ptr %_M_node, align 8
  %2 = load ptr, ptr %__y.addr, align 8
  %_M_node1 = getelementptr inbounds %"struct.std::_Rb_tree_iterator", ptr %2, i32 0, i32 0
  %3 = load ptr, ptr %_M_node1, align 8
  %cmp = icmp ne ptr %1, %3
  ret i1 %cmp
}

; Function Attrs: mustprogress nounwind uwtable
define linkonce_odr ptr @_ZNSt3mapImN8proxygen15HTTPTransaction19TxnStreamReadHandleESt4lessImESaISt4pairIKmS2_EEE3endEv(ptr noundef nonnull align 8 dereferenceable(48) %this) #5 comdat align 2 {
entry:
  %retval = alloca %"struct.std::_Rb_tree_iterator", align 8
  %this.addr = alloca ptr, align 8
  store ptr %this, ptr %this.addr, align 8
  %this1 = load ptr, ptr %this.addr, align 8
  %_M_t = getelementptr inbounds %"class.std::map.35", ptr %this1, i32 0, i32 0
  %call = call ptr @_ZNSt8_Rb_treeImSt4pairIKmN8proxygen15HTTPTransaction19TxnStreamReadHandleEESt10_Select1stIS5_ESt4lessImESaIS5_EE3endEv(ptr noundef nonnull align 8 dereferenceable(48) %_M_t) #3
  %coerce.dive = getelementptr inbounds %"struct.std::_Rb_tree_iterator", ptr %retval, i32 0, i32 0
  store ptr %call, ptr %coerce.dive, align 8
  %coerce.dive2 = getelementptr inbounds %"struct.std::_Rb_tree_iterator", ptr %retval, i32 0, i32 0
  %0 = load ptr, ptr %coerce.dive2, align 8
  ret ptr %0
}

; Function Attrs: mustprogress nounwind uwtable
define linkonce_odr noundef ptr @_ZNKSt17_Rb_tree_iteratorISt4pairIKmN8proxygen15HTTPTransaction19TxnStreamReadHandleEEEptEv(ptr noundef nonnull align 8 dereferenceable(8) %this) #5 comdat align 2 {
entry:
  %this.addr = alloca ptr, align 8
  store ptr %this, ptr %this.addr, align 8
  %this1 = load ptr, ptr %this.addr, align 8
  %_M_node = getelementptr inbounds %"struct.std::_Rb_tree_iterator", ptr %this1, i32 0, i32 0
  %0 = load ptr, ptr %_M_node, align 8
  %call = call noundef ptr @_ZNSt13_Rb_tree_nodeISt4pairIKmN8proxygen15HTTPTransaction19TxnStreamReadHandleEEE9_M_valptrEv(ptr noundef nonnull align 8 dereferenceable(184) %0)
  ret ptr %call
}

; Function Attrs: mustprogress nounwind uwtable
define linkonce_odr ptr @_ZNSt17_Rb_tree_iteratorISt4pairIKmN8proxygen15HTTPTransaction19TxnStreamReadHandleEEEppEi(ptr noundef nonnull align 8 dereferenceable(8) %this, i32 noundef %0) #5 comdat align 2 {
entry:
  %retval = alloca %"struct.std::_Rb_tree_iterator", align 8
  %this.addr = alloca ptr, align 8
  %.addr = alloca i32, align 4
  store ptr %this, ptr %this.addr, align 8
  store i32 %0, ptr %.addr, align 4
  %this1 = load ptr, ptr %this.addr, align 8
  call void @llvm.memcpy.p0.p0.i64(ptr align 8 %retval, ptr align 8 %this1, i64 8, i1 false)
  %_M_node = getelementptr inbounds %"struct.std::_Rb_tree_iterator", ptr %this1, i32 0, i32 0
  %1 = load ptr, ptr %_M_node, align 8
  %call = call noundef ptr @_ZSt18_Rb_tree_incrementPSt18_Rb_tree_node_base(ptr noundef %1) #21
  %_M_node2 = getelementptr inbounds %"struct.std::_Rb_tree_iterator", ptr %this1, i32 0, i32 0
  store ptr %call, ptr %_M_node2, align 8
  %coerce.dive = getelementptr inbounds %"struct.std::_Rb_tree_iterator", ptr %retval, i32 0, i32 0
  %2 = load ptr, ptr %coerce.dive, align 8
  ret ptr %2
}

; Function Attrs: mustprogress nounwind uwtable
define linkonce_odr noundef zeroext i1 @_ZNK8proxygen15HTTPTransaction19TxnStreamReadHandle4openEv(ptr noundef nonnull align 8 dereferenceable(144) %this) #5 comdat align 2 {
entry:
  %this.addr = alloca ptr, align 8
  store ptr %this, ptr %this.addr, align 8
  %this1 = load ptr, ptr %this.addr, align 8
  %eof_ = getelementptr inbounds %"class.proxygen::HTTPTransaction::TxnStreamReadHandle", ptr %this1, i32 0, i32 5
  %0 = load i8, ptr %eof_, align 8
  %tobool = trunc i8 %0 to i1
  br i1 %tobool, label %land.end, label %land.rhs

land.rhs:                                         ; preds = %entry
  %error_ = getelementptr inbounds %"class.proxygen::HTTPTransaction::TxnStreamReadHandle", ptr %this1, i32 0, i32 7
  %call = call noundef zeroext i1 @_ZNK5folly8OptionalIjEcvbEv(ptr noundef nonnull align 4 dereferenceable(8) %error_) #3
  %lnot = xor i1 %call, true
  br label %land.end

land.end:                                         ; preds = %land.rhs, %entry
  %1 = phi i1 [ false, %entry ], [ %lnot, %land.rhs ]
  ret i1 %1
}

declare noundef nonnull align 8 dereferenceable(8) ptr @_ZNSolsEm(ptr noundef nonnull align 8 dereferenceable(8), i64 noundef) #1

; Function Attrs: mustprogress uwtable
define void @_ZN8proxygen15HTTPTransaction19TxnStreamReadHandle5errorEj(ptr noundef nonnull align 8 dereferenceable(144) %this, i32 noundef %error) #4 align 2 personality ptr @__gxx_personality_v0 {
entry:
  %this.addr = alloca ptr, align 8
  %error.addr = alloca i32, align 4
  %ref.tmp = alloca %"class.proxygen::WebTransport::Exception", align 8
  %exn.slot = alloca ptr, align 8
  %ehselector.slot = alloca i32, align 4
  %ref.tmp6 = alloca i64, align 8
  store ptr %this, ptr %this.addr, align 8
  store i32 %error, ptr %error.addr, align 4
  %this1 = load ptr, ptr %this.addr, align 8
  %cancellationSource_ = getelementptr inbounds %"class.proxygen::HTTPTransaction::TxnStreamReadHandle", ptr %this1, i32 0, i32 8
  %call = call noundef zeroext i1 @_ZNK5folly18CancellationSource19requestCancellationEv(ptr noundef nonnull align 8 dereferenceable(8) %cancellationSource_) #3
  %readPromise_ = getelementptr inbounds %"class.proxygen::HTTPTransaction::TxnStreamReadHandle", ptr %this1, i32 0, i32 3
  %call2 = call noundef zeroext i1 @_ZNK5folly8OptionalINS_7PromiseIN8proxygen12WebTransport10StreamDataEEEEcvbEv(ptr noundef nonnull align 8 dereferenceable(24) %readPromise_) #3
  br i1 %call2, label %if.then, label %if.else

if.then:                                          ; preds = %entry
  %readPromise_3 = getelementptr inbounds %"class.proxygen::HTTPTransaction::TxnStreamReadHandle", ptr %this1, i32 0, i32 3
  %call4 = call noundef ptr @_ZN5folly8OptionalINS_7PromiseIN8proxygen12WebTransport10StreamDataEEEEptEv(ptr noundef nonnull align 8 dereferenceable(24) %readPromise_3)
  %0 = load i32, ptr %error.addr, align 4
  call void @_ZN8proxygen12WebTransport9ExceptionC2Ej(ptr noundef nonnull align 8 dereferenceable(20) %ref.tmp, i32 noundef %0)
  invoke void @_ZN5folly7PromiseIN8proxygen12WebTransport10StreamDataEE12setExceptionINS2_9ExceptionEEENSt9enable_ifIXsr3std10is_base_ofISt9exceptionNSt5decayIT_E4typeEEE5valueEvE4typeEOSA_(ptr noundef nonnull align 8 dereferenceable(16) %call4, ptr noundef nonnull align 8 dereferenceable(20) %ref.tmp)
          to label %invoke.cont unwind label %lpad

invoke.cont:                                      ; preds = %if.then
  call void @_ZN8proxygen12WebTransport9ExceptionD2Ev(ptr noundef nonnull align 8 dereferenceable(20) %ref.tmp) #3
  %readPromise_5 = getelementptr inbounds %"class.proxygen::HTTPTransaction::TxnStreamReadHandle", ptr %this1, i32 0, i32 3
  call void @_ZN5folly8OptionalINS_7PromiseIN8proxygen12WebTransport10StreamDataEEEE5resetEv(ptr noundef nonnull align 8 dereferenceable(24) %readPromise_5) #3
  %txn_ = getelementptr inbounds %"class.proxygen::HTTPTransaction::TxnStreamReadHandle", ptr %this1, i32 0, i32 1
  %1 = load ptr, ptr %txn_, align 8
  %wtIngressStreams_ = getelementptr inbounds %"class.proxygen::HTTPTransaction", ptr %1, i32 0, i32 50
  %vtable = load ptr, ptr %this1, align 8
  %vfn = getelementptr inbounds ptr, ptr %vtable, i64 2
  %2 = load ptr, ptr %vfn, align 8
  %call7 = call noundef i64 %2(ptr noundef nonnull align 8 dereferenceable(144) %this1)
  store i64 %call7, ptr %ref.tmp6, align 8
  %call8 = call noundef i64 @_ZNSt3mapImN8proxygen15HTTPTransaction19TxnStreamReadHandleESt4lessImESaISt4pairIKmS2_EEE5eraseERS6_(ptr noundef nonnull align 8 dereferenceable(48) %wtIngressStreams_, ptr noundef nonnull align 8 dereferenceable(8) %ref.tmp6)
  br label %if.end

lpad:                                             ; preds = %if.then
  %3 = landingpad { ptr, i32 }
          cleanup
  %4 = extractvalue { ptr, i32 } %3, 0
  store ptr %4, ptr %exn.slot, align 8
  %5 = extractvalue { ptr, i32 } %3, 1
  store i32 %5, ptr %ehselector.slot, align 4
  call void @_ZN8proxygen12WebTransport9ExceptionD2Ev(ptr noundef nonnull align 8 dereferenceable(20) %ref.tmp) #3
  br label %eh.resume

if.else:                                          ; preds = %entry
  %error_ = getelementptr inbounds %"class.proxygen::HTTPTransaction::TxnStreamReadHandle", ptr %this1, i32 0, i32 7
  %call9 = call noundef nonnull align 4 dereferenceable(8) ptr @_ZN5folly8OptionalIjEaSIRjEERS1_OT_(ptr noundef nonnull align 4 dereferenceable(8) %error_, ptr noundef nonnull align 4 dereferenceable(4) %error.addr)
  br label %if.end

if.end:                                           ; preds = %if.else, %invoke.cont
  ret void

eh.resume:                                        ; preds = %lpad
  %exn = load ptr, ptr %exn.slot, align 8
  %sel = load i32, ptr %ehselector.slot, align 4
  %lpad.val = insertvalue { ptr, i32 } poison, ptr %exn, 0
  %lpad.val10 = insertvalue { ptr, i32 } %lpad.val, i32 %sel, 1
  resume { ptr, i32 } %lpad.val10
}

; Function Attrs: mustprogress nounwind uwtable
define linkonce_odr void @_ZNSt3mapImN8proxygen15HTTPTransaction19TxnStreamReadHandleESt4lessImESaISt4pairIKmS2_EEE5clearEv(ptr noundef nonnull align 8 dereferenceable(48) %this) #5 comdat align 2 {
entry:
  %this.addr = alloca ptr, align 8
  store ptr %this, ptr %this.addr, align 8
  %this1 = load ptr, ptr %this.addr, align 8
  %_M_t = getelementptr inbounds %"class.std::map.35", ptr %this1, i32 0, i32 0
  call void @_ZNSt8_Rb_treeImSt4pairIKmN8proxygen15HTTPTransaction19TxnStreamReadHandleEESt10_Select1stIS5_ESt4lessImESaIS5_EE5clearEv(ptr noundef nonnull align 8 dereferenceable(48) %_M_t) #3
  ret void
}

; Function Attrs: mustprogress nounwind uwtable
define linkonce_odr ptr @_ZNSt3mapImN8proxygen15HTTPTransaction20TxnStreamWriteHandleESt4lessImESaISt4pairIKmS2_EEE5beginEv(ptr noundef nonnull align 8 dereferenceable(48) %this) #5 comdat align 2 {
entry:
  %retval = alloca %"struct.std::_Rb_tree_iterator.54", align 8
  %this.addr = alloca ptr, align 8
  store ptr %this, ptr %this.addr, align 8
  %this1 = load ptr, ptr %this.addr, align 8
  %_M_t = getelementptr inbounds %"class.std::map.30", ptr %this1, i32 0, i32 0
  %call = call ptr @_ZNSt8_Rb_treeImSt4pairIKmN8proxygen15HTTPTransaction20TxnStreamWriteHandleEESt10_Select1stIS5_ESt4lessImESaIS5_EE5beginEv(ptr noundef nonnull align 8 dereferenceable(48) %_M_t) #3
  %coerce.dive = getelementptr inbounds %"struct.std::_Rb_tree_iterator.54", ptr %retval, i32 0, i32 0
  store ptr %call, ptr %coerce.dive, align 8
  %coerce.dive2 = getelementptr inbounds %"struct.std::_Rb_tree_iterator.54", ptr %retval, i32 0, i32 0
  %0 = load ptr, ptr %coerce.dive2, align 8
  ret ptr %0
}

; Function Attrs: mustprogress nounwind uwtable
define linkonce_odr noundef zeroext i1 @_ZStneRKSt17_Rb_tree_iteratorISt4pairIKmN8proxygen15HTTPTransaction20TxnStreamWriteHandleEEES8_(ptr noundef nonnull align 8 dereferenceable(8) %__x, ptr noundef nonnull align 8 dereferenceable(8) %__y) #5 comdat {
entry:
  %__x.addr = alloca ptr, align 8
  %__y.addr = alloca ptr, align 8
  store ptr %__x, ptr %__x.addr, align 8
  store ptr %__y, ptr %__y.addr, align 8
  %0 = load ptr, ptr %__x.addr, align 8
  %_M_node = getelementptr inbounds %"struct.std::_Rb_tree_iterator.54", ptr %0, i32 0, i32 0
  %1 = load ptr, ptr %_M_node, align 8
  %2 = load ptr, ptr %__y.addr, align 8
  %_M_node1 = getelementptr inbounds %"struct.std::_Rb_tree_iterator.54", ptr %2, i32 0, i32 0
  %3 = load ptr, ptr %_M_node1, align 8
  %cmp = icmp ne ptr %1, %3
  ret i1 %cmp
}

; Function Attrs: mustprogress nounwind uwtable
define linkonce_odr ptr @_ZNSt3mapImN8proxygen15HTTPTransaction20TxnStreamWriteHandleESt4lessImESaISt4pairIKmS2_EEE3endEv(ptr noundef nonnull align 8 dereferenceable(48) %this) #5 comdat align 2 {
entry:
  %retval = alloca %"struct.std::_Rb_tree_iterator.54", align 8
  %this.addr = alloca ptr, align 8
  store ptr %this, ptr %this.addr, align 8
  %this1 = load ptr, ptr %this.addr, align 8
  %_M_t = getelementptr inbounds %"class.std::map.30", ptr %this1, i32 0, i32 0
  %call = call ptr @_ZNSt8_Rb_treeImSt4pairIKmN8proxygen15HTTPTransaction20TxnStreamWriteHandleEESt10_Select1stIS5_ESt4lessImESaIS5_EE3endEv(ptr noundef nonnull align 8 dereferenceable(48) %_M_t) #3
  %coerce.dive = getelementptr inbounds %"struct.std::_Rb_tree_iterator.54", ptr %retval, i32 0, i32 0
  store ptr %call, ptr %coerce.dive, align 8
  %coerce.dive2 = getelementptr inbounds %"struct.std::_Rb_tree_iterator.54", ptr %retval, i32 0, i32 0
  %0 = load ptr, ptr %coerce.dive2, align 8
  ret ptr %0
}

; Function Attrs: mustprogress nounwind uwtable
define linkonce_odr noundef ptr @_ZNKSt17_Rb_tree_iteratorISt4pairIKmN8proxygen15HTTPTransaction20TxnStreamWriteHandleEEEptEv(ptr noundef nonnull align 8 dereferenceable(8) %this) #5 comdat align 2 {
entry:
  %this.addr = alloca ptr, align 8
  store ptr %this, ptr %this.addr, align 8
  %this1 = load ptr, ptr %this.addr, align 8
  %_M_node = getelementptr inbounds %"struct.std::_Rb_tree_iterator.54", ptr %this1, i32 0, i32 0
  %0 = load ptr, ptr %_M_node, align 8
  %call = call noundef ptr @_ZNSt13_Rb_tree_nodeISt4pairIKmN8proxygen15HTTPTransaction20TxnStreamWriteHandleEEE9_M_valptrEv(ptr noundef nonnull align 8 dereferenceable(104) %0)
  ret ptr %call
}

; Function Attrs: mustprogress nounwind uwtable
define linkonce_odr ptr @_ZNSt17_Rb_tree_iteratorISt4pairIKmN8proxygen15HTTPTransaction20TxnStreamWriteHandleEEEppEi(ptr noundef nonnull align 8 dereferenceable(8) %this, i32 noundef %0) #5 comdat align 2 {
entry:
  %retval = alloca %"struct.std::_Rb_tree_iterator.54", align 8
  %this.addr = alloca ptr, align 8
  %.addr = alloca i32, align 4
  store ptr %this, ptr %this.addr, align 8
  store i32 %0, ptr %.addr, align 4
  %this1 = load ptr, ptr %this.addr, align 8
  call void @llvm.memcpy.p0.p0.i64(ptr align 8 %retval, ptr align 8 %this1, i64 8, i1 false)
  %_M_node = getelementptr inbounds %"struct.std::_Rb_tree_iterator.54", ptr %this1, i32 0, i32 0
  %1 = load ptr, ptr %_M_node, align 8
  %call = call noundef ptr @_ZSt18_Rb_tree_incrementPSt18_Rb_tree_node_base(ptr noundef %1) #21
  %_M_node2 = getelementptr inbounds %"struct.std::_Rb_tree_iterator.54", ptr %this1, i32 0, i32 0
  store ptr %call, ptr %_M_node2, align 8
  %coerce.dive = getelementptr inbounds %"struct.std::_Rb_tree_iterator.54", ptr %retval, i32 0, i32 0
  %2 = load ptr, ptr %coerce.dive, align 8
  ret ptr %2
}

; Function Attrs: mustprogress uwtable
define void @_ZN8proxygen15HTTPTransaction20TxnStreamWriteHandle13onStopSendingEj(ptr noundef nonnull align 8 dereferenceable(64) %this, i32 noundef %errorCode) #4 align 2 personality ptr @__gxx_personality_v0 {
entry:
  %this.addr = alloca ptr, align 8
  %errorCode.addr = alloca i32, align 4
  %token = alloca %"class.folly::CancellationToken", align 8
  %exn.slot = alloca ptr, align 8
  %ehselector.slot = alloca i32, align 4
  %ref.tmp = alloca %"class.proxygen::WebTransport::Exception", align 8
  store ptr %this, ptr %this.addr, align 8
  store i32 %errorCode, ptr %errorCode.addr, align 4
  %this1 = load ptr, ptr %this.addr, align 8
  %cancellationSource_ = getelementptr inbounds %"class.proxygen::HTTPTransaction::TxnStreamWriteHandle", ptr %this1, i32 0, i32 4
  call void @_ZNK5folly18CancellationSource8getTokenEv(ptr sret(%"class.folly::CancellationToken") align 8 %token, ptr noundef nonnull align 8 dereferenceable(8) %cancellationSource_) #3
  %writePromise_ = getelementptr inbounds %"class.proxygen::HTTPTransaction::TxnStreamWriteHandle", ptr %this1, i32 0, i32 3
  %call = call noundef zeroext i1 @_ZNK5folly8OptionalINS_7PromiseINS_4UnitEEEEcvbEv(ptr noundef nonnull align 8 dereferenceable(24) %writePromise_) #3
  br i1 %call, label %if.then, label %if.else

if.then:                                          ; preds = %entry
  %writePromise_2 = getelementptr inbounds %"class.proxygen::HTTPTransaction::TxnStreamWriteHandle", ptr %this1, i32 0, i32 3
  %call3 = invoke noundef ptr @_ZN5folly8OptionalINS_7PromiseINS_4UnitEEEEptEv(ptr noundef nonnull align 8 dereferenceable(24) %writePromise_2)
          to label %invoke.cont unwind label %lpad

invoke.cont:                                      ; preds = %if.then
  %0 = load i32, ptr %errorCode.addr, align 4
  invoke void @_ZN8proxygen12WebTransport9ExceptionC2Ej(ptr noundef nonnull align 8 dereferenceable(20) %ref.tmp, i32 noundef %0)
          to label %invoke.cont4 unwind label %lpad

invoke.cont4:                                     ; preds = %invoke.cont
  invoke void @_ZN5folly7PromiseINS_4UnitEE12setExceptionIN8proxygen12WebTransport9ExceptionEEENSt9enable_ifIXsr3std10is_base_ofISt9exceptionNSt5decayIT_E4typeEEE5valueEvE4typeEOSA_(ptr noundef nonnull align 8 dereferenceable(16) %call3, ptr noundef nonnull align 8 dereferenceable(20) %ref.tmp)
          to label %invoke.cont6 unwind label %lpad5

invoke.cont6:                                     ; preds = %invoke.cont4
  call void @_ZN8proxygen12WebTransport9ExceptionD2Ev(ptr noundef nonnull align 8 dereferenceable(20) %ref.tmp) #3
  %writePromise_7 = getelementptr inbounds %"class.proxygen::HTTPTransaction::TxnStreamWriteHandle", ptr %this1, i32 0, i32 3
  call void @_ZN5folly8OptionalINS_7PromiseINS_4UnitEEEE5resetEv(ptr noundef nonnull align 8 dereferenceable(24) %writePromise_7) #3
  br label %if.end15

lpad:                                             ; preds = %if.then9, %invoke.cont, %if.then
  %1 = landingpad { ptr, i32 }
          cleanup
  %2 = extractvalue { ptr, i32 } %1, 0
  store ptr %2, ptr %exn.slot, align 8
  %3 = extractvalue { ptr, i32 } %1, 1
  store i32 %3, ptr %ehselector.slot, align 4
  br label %ehcleanup

lpad5:                                            ; preds = %invoke.cont4
  %4 = landingpad { ptr, i32 }
          cleanup
  %5 = extractvalue { ptr, i32 } %4, 0
  store ptr %5, ptr %exn.slot, align 8
  %6 = extractvalue { ptr, i32 } %4, 1
  store i32 %6, ptr %ehselector.slot, align 4
  call void @_ZN8proxygen12WebTransport9ExceptionD2Ev(ptr noundef nonnull align 8 dereferenceable(20) %ref.tmp) #3
  br label %ehcleanup

if.else:                                          ; preds = %entry
  %stopSendingErrorCode_ = getelementptr inbounds %"class.proxygen::WebTransport::StreamWriteHandle", ptr %this1, i32 0, i32 1
  %call8 = call noundef zeroext i1 @_ZNK5folly8OptionalIjEcvbEv(ptr noundef nonnull align 4 dereferenceable(8) %stopSendingErrorCode_) #3
  br i1 %call8, label %if.end, label %if.then9

if.then9:                                         ; preds = %if.else
  %stopSendingErrorCode_10 = getelementptr inbounds %"class.proxygen::WebTransport::StreamWriteHandle", ptr %this1, i32 0, i32 1
  %call12 = invoke noundef nonnull align 4 dereferenceable(8) ptr @_ZN5folly8OptionalIjEaSIRjEERS1_OT_(ptr noundef nonnull align 4 dereferenceable(8) %stopSendingErrorCode_10, ptr noundef nonnull align 4 dereferenceable(4) %errorCode.addr)
          to label %invoke.cont11 unwind label %lpad

invoke.cont11:                                    ; preds = %if.then9
  %cancellationSource_13 = getelementptr inbounds %"class.proxygen::HTTPTransaction::TxnStreamWriteHandle", ptr %this1, i32 0, i32 4
  %call14 = call noundef zeroext i1 @_ZNK5folly18CancellationSource19requestCancellationEv(ptr noundef nonnull align 8 dereferenceable(8) %cancellationSource_13) #3
  br label %if.end

if.end:                                           ; preds = %invoke.cont11, %if.else
  br label %if.end15

if.end15:                                         ; preds = %if.end, %invoke.cont6
  call void @_ZN5folly17CancellationTokenD2Ev(ptr noundef nonnull align 8 dereferenceable(8) %token) #3
  ret void

ehcleanup:                                        ; preds = %lpad5, %lpad
  call void @_ZN5folly17CancellationTokenD2Ev(ptr noundef nonnull align 8 dereferenceable(8) %token) #3
  br label %eh.resume

eh.resume:                                        ; preds = %ehcleanup
  %exn = load ptr, ptr %exn.slot, align 8
  %sel = load i32, ptr %ehselector.slot, align 4
  %lpad.val = insertvalue { ptr, i32 } poison, ptr %exn, 0
  %lpad.val16 = insertvalue { ptr, i32 } %lpad.val, i32 %sel, 1
  resume { ptr, i32 } %lpad.val16
}

; Function Attrs: mustprogress uwtable
define linkonce_odr ptr @_ZNSt3mapImN8proxygen15HTTPTransaction20TxnStreamWriteHandleESt4lessImESaISt4pairIKmS2_EEE4findERS6_(ptr noundef nonnull align 8 dereferenceable(48) %this, ptr noundef nonnull align 8 dereferenceable(8) %__x) #4 comdat align 2 {
entry:
  %retval = alloca %"struct.std::_Rb_tree_iterator.54", align 8
  %this.addr = alloca ptr, align 8
  %__x.addr = alloca ptr, align 8
  store ptr %this, ptr %this.addr, align 8
  store ptr %__x, ptr %__x.addr, align 8
  %this1 = load ptr, ptr %this.addr, align 8
  %_M_t = getelementptr inbounds %"class.std::map.30", ptr %this1, i32 0, i32 0
  %0 = load ptr, ptr %__x.addr, align 8
  %call = call ptr @_ZNSt8_Rb_treeImSt4pairIKmN8proxygen15HTTPTransaction20TxnStreamWriteHandleEESt10_Select1stIS5_ESt4lessImESaIS5_EE4findERS1_(ptr noundef nonnull align 8 dereferenceable(48) %_M_t, ptr noundef nonnull align 8 dereferenceable(8) %0)
  %coerce.dive = getelementptr inbounds %"struct.std::_Rb_tree_iterator.54", ptr %retval, i32 0, i32 0
  store ptr %call, ptr %coerce.dive, align 8
  %coerce.dive2 = getelementptr inbounds %"struct.std::_Rb_tree_iterator.54", ptr %retval, i32 0, i32 0
  %1 = load ptr, ptr %coerce.dive2, align 8
  ret ptr %1
}

; Function Attrs: mustprogress uwtable
define i64 @_ZN8proxygen15HTTPTransaction23resetWebTransportEgressEmj(ptr noundef nonnull align 8 dereferenceable(912) %this, i64 noundef %id, i32 noundef %errorCode) #4 align 2 {
entry:
  %retval = alloca %"class.folly::Expected", align 4
  %this.addr = alloca ptr, align 8
  %id.addr = alloca i64, align 8
  %errorCode.addr = alloca i32, align 4
  store ptr %this, ptr %this.addr, align 8
  store i64 %id, ptr %id.addr, align 8
  store i32 %errorCode, ptr %errorCode.addr, align 4
  %this1 = load ptr, ptr %this.addr, align 8
  %transport_ = getelementptr inbounds %"class.proxygen::HTTPTransaction", ptr %this1, i32 0, i32 14
  %0 = load ptr, ptr %transport_, align 8
  %1 = load i64, ptr %id.addr, align 8
  %2 = load i32, ptr %errorCode.addr, align 4
  %vtable = load ptr, ptr %0, align 8
  %vfn = getelementptr inbounds ptr, ptr %vtable, i64 50
  %3 = load ptr, ptr %vfn, align 8
  %call = call i64 %3(ptr noundef nonnull align 8 dereferenceable(8) %0, i64 noundef %1, i32 noundef %2)
  %coerce.dive = getelementptr inbounds %"class.folly::Expected", ptr %retval, i32 0, i32 0
  store i64 %call, ptr %coerce.dive, align 4
  %wtEgressStreams_ = getelementptr inbounds %"class.proxygen::HTTPTransaction", ptr %this1, i32 0, i32 49
  %call2 = call noundef i64 @_ZNSt3mapImN8proxygen15HTTPTransaction20TxnStreamWriteHandleESt4lessImESaISt4pairIKmS2_EEE5eraseERS6_(ptr noundef nonnull align 8 dereferenceable(48) %wtEgressStreams_, ptr noundef nonnull align 8 dereferenceable(8) %id.addr)
  %coerce.dive3 = getelementptr inbounds %"class.folly::Expected", ptr %retval, i32 0, i32 0
  %4 = load i64, ptr %coerce.dive3, align 4
  ret i64 %4
}

; Function Attrs: mustprogress nounwind uwtable
define linkonce_odr void @_ZNSt3mapImN8proxygen15HTTPTransaction20TxnStreamWriteHandleESt4lessImESaISt4pairIKmS2_EEE5clearEv(ptr noundef nonnull align 8 dereferenceable(48) %this) #5 comdat align 2 {
entry:
  %this.addr = alloca ptr, align 8
  store ptr %this, ptr %this.addr, align 8
  %this1 = load ptr, ptr %this.addr, align 8
  %_M_t = getelementptr inbounds %"class.std::map.30", ptr %this1, i32 0, i32 0
  call void @_ZNSt8_Rb_treeImSt4pairIKmN8proxygen15HTTPTransaction20TxnStreamWriteHandleEESt10_Select1stIS5_ESt4lessImESaIS5_EE5clearEv(ptr noundef nonnull align 8 dereferenceable(48) %_M_t) #3
  ret void
}

declare noundef i32 @_ZNK8proxygen6Window14getOutstandingEv(ptr noundef nonnull align 4 dereferenceable(8)) #1

; Function Attrs: uwtable
define void @_ZThn64_N8proxygen15HTTPTransaction16onDelayedDestroyEb(ptr noundef %this, i1 noundef zeroext %delayed) unnamed_addr #0 align 2 {
entry:
  %this.addr = alloca ptr, align 8
  %delayed.addr = alloca i8, align 1
  store ptr %this, ptr %this.addr, align 8
  %frombool = zext i1 %delayed to i8
  store i8 %frombool, ptr %delayed.addr, align 1
  %this1 = load ptr, ptr %this.addr, align 8
  %0 = getelementptr inbounds i8, ptr %this1, i64 -64
  %1 = load i8, ptr %delayed.addr, align 1
  %tobool = trunc i8 %1 to i1
  tail call void @_ZN8proxygen15HTTPTransaction16onDelayedDestroyEb(ptr noundef nonnull align 8 dereferenceable(912) %0, i1 noundef zeroext %tobool)
  ret void
}

; Function Attrs: mustprogress nounwind uwtable
define void @_ZN8proxygen15HTTPTransactionD2Ev(ptr noundef nonnull align 8 dereferenceable(912) %this) unnamed_addr #5 align 2 personality ptr @__gxx_personality_v0 {
entry:
  %this.addr = alloca ptr, align 8
  store ptr %this, ptr %this.addr, align 8
  %this1 = load ptr, ptr %this.addr, align 8
  store ptr getelementptr inbounds ({ [33 x ptr], [5 x ptr] }, ptr @_ZTVN8proxygen15HTTPTransactionE, i32 0, inrange i32 0, i32 2), ptr %this1, align 8
  %add.ptr = getelementptr inbounds i8, ptr %this1, i64 64
  store ptr getelementptr inbounds ({ [33 x ptr], [5 x ptr] }, ptr @_ZTVN8proxygen15HTTPTransactionE, i32 0, inrange i32 1, i32 2), ptr %add.ptr, align 8
  %call = invoke noundef zeroext i1 @_ZNK5folly16HHWheelTimerBaseINSt6chrono8durationIlSt5ratioILl1ELl1000EEEEE8Callback11isScheduledEv(ptr noundef nonnull align 8 dereferenceable(64) %this1)
          to label %invoke.cont unwind label %terminate.lpad

invoke.cont:                                      ; preds = %entry
  br i1 %call, label %if.then, label %if.end

if.then:                                          ; preds = %invoke.cont
  invoke void @_ZN5folly16HHWheelTimerBaseINSt6chrono8durationIlSt5ratioILl1ELl1000EEEEE8Callback13cancelTimeoutEv(ptr noundef nonnull align 8 dereferenceable(64) %this1)
          to label %invoke.cont2 unwind label %terminate.lpad

invoke.cont2:                                     ; preds = %if.then
  br label %if.end

if.end:                                           ; preds = %invoke.cont2, %invoke.cont
  %stats_ = getelementptr inbounds %"class.proxygen::HTTPTransaction", ptr %this1, i32 0, i32 15
  %0 = load ptr, ptr %stats_, align 8
  %tobool = icmp ne ptr %0, null
  br i1 %tobool, label %if.then3, label %if.end5

if.then3:                                         ; preds = %if.end
  %stats_4 = getelementptr inbounds %"class.proxygen::HTTPTransaction", ptr %this1, i32 0, i32 15
  %1 = load ptr, ptr %stats_4, align 8
  %vtable = load ptr, ptr %1, align 8
  %vfn = getelementptr inbounds ptr, ptr %vtable, i64 15
  %2 = load ptr, ptr %vfn, align 8
  call void %2(ptr noundef nonnull align 8 dereferenceable(8) %1) #3
  br label %if.end5

if.end5:                                          ; preds = %if.then3, %if.end
  %call7 = invoke noundef zeroext i1 @_ZNK8proxygen15HTTPTransaction10isEnqueuedEv(ptr noundef nonnull align 8 dereferenceable(912) %this1)
          to label %invoke.cont6 unwind label %terminate.lpad

invoke.cont6:                                     ; preds = %if.end5
  br i1 %call7, label %if.then8, label %if.end10

if.then8:                                         ; preds = %invoke.cont6
  invoke void @_ZN8proxygen15HTTPTransaction7dequeueEv(ptr noundef nonnull align 8 dereferenceable(912) %this1)
          to label %invoke.cont9 unwind label %terminate.lpad

invoke.cont9:                                     ; preds = %if.then8
  br label %if.end10

if.end10:                                         ; preds = %invoke.cont9, %invoke.cont6
  %queueHandle_ = getelementptr inbounds %"class.proxygen::HTTPTransaction", ptr %this1, i32 0, i32 23
  %3 = load ptr, ptr %queueHandle_, align 8
  %tobool11 = icmp ne ptr %3, null
  br i1 %tobool11, label %if.then12, label %if.end17

if.then12:                                        ; preds = %if.end10
  %egressQueue_ = getelementptr inbounds %"class.proxygen::HTTPTransaction", ptr %this1, i32 0, i32 22
  %4 = load ptr, ptr %egressQueue_, align 8
  %queueHandle_13 = getelementptr inbounds %"class.proxygen::HTTPTransaction", ptr %this1, i32 0, i32 23
  %5 = load ptr, ptr %queueHandle_13, align 8
  %vtable14 = load ptr, ptr %4, align 8
  %vfn15 = getelementptr inbounds ptr, ptr %vtable14, i64 5
  %6 = load ptr, ptr %vfn15, align 8
  invoke void %6(ptr noundef nonnull align 8 dereferenceable(16) %4, ptr noundef %5)
          to label %invoke.cont16 unwind label %terminate.lpad

invoke.cont16:                                    ; preds = %if.then12
  br label %if.end17

if.end17:                                         ; preds = %invoke.cont16, %if.end10
  %webTransport_ = getelementptr inbounds %"class.proxygen::HTTPTransaction", ptr %this1, i32 0, i32 51
  call void @_ZN8proxygen15HTTPTransaction15TxnWebTransportD2Ev(ptr noundef nonnull align 8 dereferenceable(16) %webTransport_) #3
  %wtIngressStreams_ = getelementptr inbounds %"class.proxygen::HTTPTransaction", ptr %this1, i32 0, i32 50
  call void @_ZNSt3mapImN8proxygen15HTTPTransaction19TxnStreamReadHandleESt4lessImESaISt4pairIKmS2_EEED2Ev(ptr noundef nonnull align 8 dereferenceable(48) %wtIngressStreams_) #3
  %wtEgressStreams_ = getelementptr inbounds %"class.proxygen::HTTPTransaction", ptr %this1, i32 0, i32 49
  call void @_ZNSt3mapImN8proxygen15HTTPTransaction20TxnStreamWriteHandleESt4lessImESaISt4pairIKmS2_EEED2Ev(ptr noundef nonnull align 8 dereferenceable(48) %wtEgressStreams_) #3
  %egressBodyOffsetsToTrack_ = getelementptr inbounds %"class.proxygen::HTTPTransaction", ptr %this1, i32 0, i32 39
  call void @_ZNSt3mapImN8proxygen9ByteEvent10EventFlagsESt4lessImESaISt4pairIKmS2_EEED2Ev(ptr noundef nonnull align 8 dereferenceable(48) %egressBodyOffsetsToTrack_) #3
  %exTransactions_ = getelementptr inbounds %"class.proxygen::HTTPTransaction", ptr %this1, i32 0, i32 27
  call void @_ZNSt3setImSt4lessImESaImEED2Ev(ptr noundef nonnull align 8 dereferenceable(48) %exTransactions_) #3
  %pushedTransactions_ = getelementptr inbounds %"class.proxygen::HTTPTransaction", ptr %this1, i32 0, i32 26
  call void @_ZNSt3setImSt4lessImESaImEED2Ev(ptr noundef nonnull align 8 dereferenceable(48) %pushedTransactions_) #3
  %chunkHeaders_ = getelementptr inbounds %"class.proxygen::HTTPTransaction", ptr %this1, i32 0, i32 21
  call void @_ZNSt7__cxx114listIN8proxygen15HTTPTransaction5ChunkESaIS3_EED2Ev(ptr noundef nonnull align 8 dereferenceable(24) %chunkHeaders_) #3
  %trailers_ = getelementptr inbounds %"class.proxygen::HTTPTransaction", ptr %this1, i32 0, i32 20
  call void @_ZNSt10unique_ptrIN8proxygen11HTTPHeadersESt14default_deleteIS1_EED2Ev(ptr noundef nonnull align 8 dereferenceable(8) %trailers_) #3
  %deferredEgressBody_ = getelementptr inbounds %"class.proxygen::HTTPTransaction", ptr %this1, i32 0, i32 4
  call void @_ZN5folly10IOBufQueueD1Ev(ptr noundef nonnull align 8 dereferenceable(72) %deferredEgressBody_) #3
  %deferredIngress_ = getelementptr inbounds %"class.proxygen::HTTPTransaction", ptr %this1, i32 0, i32 3
  call void @_ZNSt10unique_ptrISt5queueIN8proxygen9HTTPEventESt5dequeIS2_SaIS2_EEESt14default_deleteIS6_EED2Ev(ptr noundef nonnull align 8 dereferenceable(8) %deferredIngress_) #3
  %rateLimitCallback_ = getelementptr inbounds %"class.proxygen::HTTPTransaction", ptr %this1, i32 0, i32 2
  call void @_ZN8proxygen15HTTPTransaction17RateLimitCallbackD2Ev(ptr noundef nonnull align 8 dereferenceable(72) %rateLimitCallback_) #3
  %7 = getelementptr inbounds i8, ptr %this1, i64 64
  call void @_ZN5folly22DelayedDestructionBaseD2Ev(ptr noundef nonnull align 8 dereferenceable(12) %7) #3
  call void @_ZN5folly16HHWheelTimerBaseINSt6chrono8durationIlSt5ratioILl1ELl1000EEEEE8CallbackD2Ev(ptr noundef nonnull align 8 dereferenceable(64) %this1) #3
  ret void

terminate.lpad:                                   ; preds = %if.then12, %if.then8, %if.end5, %if.then, %entry
  %8 = landingpad { ptr, i32 }
          catch ptr null
  %9 = extractvalue { ptr, i32 } %8, 0
  call void @__clang_call_terminate(ptr %9) #20
  unreachable
}

declare noundef zeroext i1 @_ZNK5folly16HHWheelTimerBaseINSt6chrono8durationIlSt5ratioILl1ELl1000EEEEE8Callback11isScheduledEv(ptr noundef nonnull align 8 dereferenceable(64)) #1

; Function Attrs: noreturn nounwind uwtable
define linkonce_odr hidden void @__clang_call_terminate(ptr noundef %0) #7 comdat {
  %2 = call ptr @__cxa_begin_catch(ptr %0) #3
  call void @_ZSt9terminatev() #20
  unreachable
}

declare ptr @__cxa_begin_catch(ptr)

declare void @_ZSt9terminatev()

declare void @_ZN5folly16HHWheelTimerBaseINSt6chrono8durationIlSt5ratioILl1ELl1000EEEEE8Callback13cancelTimeoutEv(ptr noundef nonnull align 8 dereferenceable(64)) #1

; Function Attrs: mustprogress uwtable
define linkonce_odr void @_ZN8proxygen15HTTPTransaction7dequeueEv(ptr noundef nonnull align 8 dereferenceable(912) %this) #4 comdat align 2 personality ptr @__gxx_personality_v0 {
entry:
  %this.addr = alloca ptr, align 8
  %ref.tmp = alloca %"class.google::LogMessageVoidify", align 1
  %ref.tmp2 = alloca %"class.google::LogMessageFatal", align 8
  %cleanup.cond = alloca i1, align 1
  %exn.slot = alloca ptr, align 8
  %ehselector.slot = alloca i32, align 4
  store ptr %this, ptr %this.addr, align 8
  %this1 = load ptr, ptr %this.addr, align 8
  %call = call noundef zeroext i1 @_ZNK8proxygen15HTTPTransaction10isEnqueuedEv(ptr noundef nonnull align 8 dereferenceable(912) %this1)
  %lnot = xor i1 %call, true
  store i1 false, ptr %cleanup.cond, align 1
  br i1 %lnot, label %cond.false, label %cond.true

cond.true:                                        ; preds = %entry
  br label %cond.end

cond.false:                                       ; preds = %entry
  call void @_ZN6google17LogMessageVoidifyC2Ev(ptr noundef nonnull align 1 dereferenceable(1) %ref.tmp)
  call void @_ZN6google15LogMessageFatalC1EPKci(ptr noundef nonnull align 8 dereferenceable(96) %ref.tmp2, ptr noundef @.str.154, i32 noundef 1688)
  store i1 true, ptr %cleanup.cond, align 1
  %call3 = invoke noundef nonnull align 8 dereferenceable(8) ptr @_ZN6google10LogMessage6streamEv(ptr noundef nonnull align 8 dereferenceable(96) %ref.tmp2)
          to label %invoke.cont unwind label %lpad

invoke.cont:                                      ; preds = %cond.false
  %call5 = invoke noundef nonnull align 8 dereferenceable(8) ptr @_ZStlsISt11char_traitsIcEERSt13basic_ostreamIcT_ES5_PKc(ptr noundef nonnull align 8 dereferenceable(8) %call3, ptr noundef @.str.58)
          to label %invoke.cont4 unwind label %lpad

invoke.cont4:                                     ; preds = %invoke.cont
  call void @_ZN6google17LogMessageVoidifyanERSo(ptr noundef nonnull align 1 dereferenceable(1) %ref.tmp, ptr noundef nonnull align 8 dereferenceable(8) %call5)
  br label %cond.end

cond.end:                                         ; preds = %invoke.cont4, %cond.true
  %cleanup.is_active = load i1, ptr %cleanup.cond, align 1
  br i1 %cleanup.is_active, label %cleanup.action, label %cleanup.done

cleanup.action:                                   ; preds = %cond.end
  call void @_ZN6google15LogMessageFatalD1Ev(ptr noundef nonnull align 8 dereferenceable(96) %ref.tmp2) #20
  unreachable

lpad:                                             ; preds = %invoke.cont, %cond.false
  %0 = landingpad { ptr, i32 }
          cleanup
  %1 = extractvalue { ptr, i32 } %0, 0
  store ptr %1, ptr %exn.slot, align 8
  %2 = extractvalue { ptr, i32 } %0, 1
  store i32 %2, ptr %ehselector.slot, align 4
  %cleanup.is_active6 = load i1, ptr %cleanup.cond, align 1
  br i1 %cleanup.is_active6, label %cleanup.action7, label %cleanup.done8

3:                                                ; No predecessors!
  br label %cleanup.done

cleanup.done:                                     ; preds = %3, %cond.end
  %egressQueue_ = getelementptr inbounds %"class.proxygen::HTTPTransaction", ptr %this1, i32 0, i32 22
  %4 = load ptr, ptr %egressQueue_, align 8
  %queueHandle_ = getelementptr inbounds %"class.proxygen::HTTPTransaction", ptr %this1, i32 0, i32 23
  %5 = load ptr, ptr %queueHandle_, align 8
  %vtable = load ptr, ptr %4, align 8
  %vfn = getelementptr inbounds ptr, ptr %vtable, i64 7
  %6 = load ptr, ptr %vfn, align 8
  call void %6(ptr noundef nonnull align 8 dereferenceable(16) %4, ptr noundef %5)
  ret void

cleanup.action7:                                  ; preds = %lpad
  call void @_ZN6google15LogMessageFatalD1Ev(ptr noundef nonnull align 8 dereferenceable(96) %ref.tmp2) #20
  unreachable

7:                                                ; No predecessors!
  br label %cleanup.done8

cleanup.done8:                                    ; preds = %7, %lpad
  br label %eh.resume

eh.resume:                                        ; preds = %cleanup.done8
  %exn = load ptr, ptr %exn.slot, align 8
  %sel = load i32, ptr %ehselector.slot, align 4
  %lpad.val = insertvalue { ptr, i32 } poison, ptr %exn, 0
  %lpad.val9 = insertvalue { ptr, i32 } %lpad.val, i32 %sel, 1
  resume { ptr, i32 } %lpad.val9
}

; Function Attrs: nounwind uwtable
define void @_ZThn64_N8proxygen15HTTPTransactionD1Ev(ptr noundef %this) unnamed_addr #8 align 2 {
entry:
  %this.addr = alloca ptr, align 8
  store ptr %this, ptr %this.addr, align 8
  %this1 = load ptr, ptr %this.addr, align 8
  %0 = getelementptr inbounds i8, ptr %this1, i64 -64
  tail call void @_ZN8proxygen15HTTPTransactionD1Ev(ptr noundef nonnull align 8 dereferenceable(912) %0) #3
  ret void
}

; Function Attrs: mustprogress nounwind uwtable
define void @_ZN8proxygen15HTTPTransactionD0Ev(ptr noundef nonnull align 8 dereferenceable(912) %this) unnamed_addr #5 align 2 {
entry:
  %this.addr = alloca ptr, align 8
  store ptr %this, ptr %this.addr, align 8
  %this1 = load ptr, ptr %this.addr, align 8
  call void @_ZN8proxygen15HTTPTransactionD1Ev(ptr noundef nonnull align 8 dereferenceable(912) %this1) #3
  call void @_ZdlPv(ptr noundef %this1) #22
  ret void
}

; Function Attrs: nobuiltin nounwind
declare void @_ZdlPv(ptr noundef) #9

; Function Attrs: nounwind uwtable
define void @_ZThn64_N8proxygen15HTTPTransactionD0Ev(ptr noundef %this) unnamed_addr #8 align 2 {
entry:
  %this.addr = alloca ptr, align 8
  store ptr %this, ptr %this.addr, align 8
  %this1 = load ptr, ptr %this.addr, align 8
  %0 = getelementptr inbounds i8, ptr %this1, i64 -64
  tail call void @_ZN8proxygen15HTTPTransactionD0Ev(ptr noundef nonnull align 8 dereferenceable(912) %0) #3
  ret void
}

; Function Attrs: mustprogress uwtable
define void @_ZN8proxygen15HTTPTransaction5resetEbjjj(ptr noundef nonnull align 8 dereferenceable(912) %this, i1 noundef zeroext %useFlowControl, i32 noundef %receiveInitialWindowSize, i32 noundef %receiveStreamWindowSize, i32 noundef %sendInitialWindowSize) #4 align 2 {
entry:
  %this.addr = alloca ptr, align 8
  %useFlowControl.addr = alloca i8, align 1
  %receiveInitialWindowSize.addr = alloca i32, align 4
  %receiveStreamWindowSize.addr = alloca i32, align 4
  %sendInitialWindowSize.addr = alloca i32, align 4
  store ptr %this, ptr %this.addr, align 8
  %frombool = zext i1 %useFlowControl to i8
  store i8 %frombool, ptr %useFlowControl.addr, align 1
  store i32 %receiveInitialWindowSize, ptr %receiveInitialWindowSize.addr, align 4
  store i32 %receiveStreamWindowSize, ptr %receiveStreamWindowSize.addr, align 4
  store i32 %sendInitialWindowSize, ptr %sendInitialWindowSize.addr, align 4
  %this1 = load ptr, ptr %this.addr, align 8
  %0 = load i8, ptr %useFlowControl.addr, align 1
  %tobool = trunc i8 %0 to i1
  %useFlowControl_ = getelementptr inbounds %"class.proxygen::HTTPTransaction", ptr %this1, i32 0, i32 40
  %1 = zext i1 %tobool to i32
  %bf.load = load i32, ptr %useFlowControl_, align 8
  %bf.shl = shl i32 %1, 5
  %bf.clear = and i32 %bf.load, -33
  %bf.set = or i32 %bf.clear, %bf.shl
  store i32 %bf.set, ptr %useFlowControl_, align 8
  %recvWindow_ = getelementptr inbounds %"class.proxygen::HTTPTransaction", ptr %this1, i32 0, i32 17
  %2 = load i32, ptr %receiveInitialWindowSize.addr, align 4
  %call = call noundef zeroext i1 @_ZN8proxygen6Window11setCapacityEj(ptr noundef nonnull align 4 dereferenceable(8) %recvWindow_, i32 noundef %2)
  %3 = load i32, ptr %receiveStreamWindowSize.addr, align 4
  %vtable = load ptr, ptr %this1, align 8
  %vfn = getelementptr inbounds ptr, ptr %vtable, i64 6
  %4 = load ptr, ptr %vfn, align 8
  call void %4(ptr noundef nonnull align 8 dereferenceable(912) %this1, i32 noundef %3)
  %sendWindow_ = getelementptr inbounds %"class.proxygen::HTTPTransaction", ptr %this1, i32 0, i32 18
  %5 = load i32, ptr %sendInitialWindowSize.addr, align 4
  %call2 = call noundef zeroext i1 @_ZN8proxygen6Window11setCapacityEj(ptr noundef nonnull align 4 dereferenceable(8) %sendWindow_, i32 noundef %5)
  ret void
}

declare noundef zeroext i1 @_ZN8proxygen6Window11setCapacityEj(ptr noundef nonnull align 4 dereferenceable(8), i32 noundef) #1

; Function Attrs: mustprogress uwtable
define void @_ZN8proxygen15HTTPTransaction24onIngressHeadersCompleteESt10unique_ptrINS_11HTTPMessageESt14default_deleteIS2_EE(ptr noundef nonnull align 8 dereferenceable(912) %this, ptr noundef %msg) #4 align 2 personality ptr @__gxx_personality_v0 {
entry:
  %this.addr = alloca ptr, align 8
  %msg.indirect_addr = alloca ptr, align 8
  %g = alloca %"class.folly::DelayedDestructionBase::DestructorGuard", align 8
  %exn.slot = alloca ptr, align 8
  %ehselector.slot = alloca i32, align 4
  %nonFinalPushHeaders = alloca i8, align 1
  %cleanup.dest.slot = alloca i32, align 4
  %ref.tmp = alloca %"class.folly::Optional.119", align 4
  %ref.tmp33 = alloca i32, align 4
  %ref.tmp48 = alloca %"class.folly::Optional.119", align 4
  %ref.tmp51 = alloca i32, align 4
  %contentLen = alloca ptr, align 8
  %ref.tmp73 = alloca i8, align 1
  %ref.tmp78 = alloca i64, align 8
  %ex = alloca ptr, align 8
  %ref.tmp84 = alloca %"class.google::LogMessage", align 8
  %ref.tmp125 = alloca %"struct.proxygen::CompressionInfo", align 4
  %ref.tmp138 = alloca i8, align 1
  %verbose_level__ = alloca i32, align 4
  %tmp = alloca i8, align 1
  %ref.tmp149 = alloca %"class.google::LogMessageVoidify", align 1
  %ref.tmp151 = alloca %"class.google::LogMessage", align 8
  %cleanup.cond = alloca i1, align 1
  %agg.tmp = alloca %"class.std::unique_ptr.60", align 8
  store ptr %this, ptr %this.addr, align 8
  store ptr %msg, ptr %msg.indirect_addr, align 8
  %this1 = load ptr, ptr %this.addr, align 8
  %add.ptr = getelementptr inbounds i8, ptr %this1, i64 64
  call void @_ZN5folly22DelayedDestructionBase15DestructorGuardC2EPS0_(ptr noundef nonnull align 8 dereferenceable(8) %g, ptr noundef %add.ptr)
  %call = call noundef ptr @_ZNKSt10unique_ptrIN8proxygen11HTTPMessageESt14default_deleteIS1_EEptEv(ptr noundef nonnull align 8 dereferenceable(8) %msg) #3
  %seqNo_ = getelementptr inbounds %"class.proxygen::HTTPTransaction", ptr %this1, i32 0, i32 11
  %0 = load i32, ptr %seqNo_, align 8
  invoke void @_ZN8proxygen11HTTPMessage8setSeqNoEi(ptr noundef nonnull align 8 dereferenceable(616) %call, i32 noundef %0)
          to label %invoke.cont unwind label %lpad

invoke.cont:                                      ; preds = %entry
  %call3 = invoke noundef zeroext i1 @_ZNK8proxygen15HTTPTransaction10isUpstreamEv(ptr noundef nonnull align 8 dereferenceable(912) %this1)
          to label %invoke.cont2 unwind label %lpad

invoke.cont2:                                     ; preds = %invoke.cont
  br i1 %call3, label %land.lhs.true, label %if.end

land.lhs.true:                                    ; preds = %invoke.cont2
  %call5 = invoke noundef zeroext i1 @_ZNK8proxygen15HTTPTransaction8isPushedEv(ptr noundef nonnull align 8 dereferenceable(912) %this1)
          to label %invoke.cont4 unwind label %lpad

invoke.cont4:                                     ; preds = %land.lhs.true
  br i1 %call5, label %if.end, label %land.lhs.true6

land.lhs.true6:                                   ; preds = %invoke.cont4
  %call7 = call noundef ptr @_ZNKSt10unique_ptrIN8proxygen11HTTPMessageESt14default_deleteIS1_EEptEv(ptr noundef nonnull align 8 dereferenceable(8) %msg) #3
  %call9 = invoke noundef zeroext i1 @_ZNK8proxygen11HTTPMessage10isResponseEv(ptr noundef nonnull align 8 dereferenceable(616) %call7)
          to label %invoke.cont8 unwind label %lpad

invoke.cont8:                                     ; preds = %land.lhs.true6
  br i1 %call9, label %if.then, label %if.end

if.then:                                          ; preds = %invoke.cont8
  %call10 = call noundef ptr @_ZNKSt10unique_ptrIN8proxygen11HTTPMessageESt14default_deleteIS1_EEptEv(ptr noundef nonnull align 8 dereferenceable(8) %msg) #3
  %call12 = invoke noundef zeroext i16 @_ZNK8proxygen11HTTPMessage13getStatusCodeEv(ptr noundef nonnull align 8 dereferenceable(616) %call10)
          to label %invoke.cont11 unwind label %lpad

invoke.cont11:                                    ; preds = %if.then
  %lastResponseStatus_ = getelementptr inbounds %"class.proxygen::HTTPTransaction", ptr %this1, i32 0, i32 41
  store i16 %call12, ptr %lastResponseStatus_, align 4
  br label %if.end

lpad:                                             ; preds = %invoke.cont150, %cond.false148, %cond.true, %invoke.cont136, %if.then135, %invoke.cont132, %invoke.cont131, %if.end124, %if.then117, %invoke.cont109, %if.then107, %invoke.cont101, %invoke.cont71, %if.then69, %invoke.cont63, %land.rhs61, %lor.rhs, %invoke.cont50, %land.lhs.true47, %if.end43, %invoke.cont34, %invoke.cont32, %if.then30, %if.end26, %land.end22, %land.end, %land.rhs, %if.end, %if.then, %land.lhs.true6, %land.lhs.true, %invoke.cont, %entry
  %1 = landingpad { ptr, i32 }
          cleanup
  %2 = extractvalue { ptr, i32 } %1, 0
  store ptr %2, ptr %exn.slot, align 8
  %3 = extractvalue { ptr, i32 } %1, 1
  store i32 %3, ptr %ehselector.slot, align 4
  br label %ehcleanup174

if.end:                                           ; preds = %invoke.cont11, %invoke.cont8, %invoke.cont4, %invoke.cont2
  %call14 = invoke noundef zeroext i1 @_ZNK8proxygen15HTTPTransaction8isPushedEv(ptr noundef nonnull align 8 dereferenceable(912) %this1)
          to label %invoke.cont13 unwind label %lpad

invoke.cont13:                                    ; preds = %if.end
  br i1 %call14, label %land.rhs, label %land.end

land.rhs:                                         ; preds = %invoke.cont13
  %call15 = call noundef ptr @_ZNKSt10unique_ptrIN8proxygen11HTTPMessageESt14default_deleteIS1_EEptEv(ptr noundef nonnull align 8 dereferenceable(8) %msg) #3
  %call17 = invoke noundef zeroext i1 @_ZNK8proxygen11HTTPMessage9isRequestEv(ptr noundef nonnull align 8 dereferenceable(616) %call15)
          to label %invoke.cont16 unwind label %lpad

invoke.cont16:                                    ; preds = %land.rhs
  br label %land.end

land.end:                                         ; preds = %invoke.cont16, %invoke.cont13
  %4 = phi i1 [ false, %invoke.cont13 ], [ %call17, %invoke.cont16 ]
  %frombool = zext i1 %4 to i8
  store i8 %frombool, ptr %nonFinalPushHeaders, align 1
  %call18 = call noundef ptr @_ZNKSt10unique_ptrIN8proxygen11HTTPMessageESt14default_deleteIS1_EEptEv(ptr noundef nonnull align 8 dereferenceable(8) %msg) #3
  %call20 = invoke noundef zeroext i1 @_ZNK8proxygen11HTTPMessage7isFinalEv(ptr noundef nonnull align 8 dereferenceable(616) %call18)
          to label %invoke.cont19 unwind label %lpad

invoke.cont19:                                    ; preds = %land.end
  br i1 %call20, label %land.rhs21, label %land.end22

land.rhs21:                                       ; preds = %invoke.cont19
  %5 = load i8, ptr %nonFinalPushHeaders, align 1
  %tobool = trunc i8 %5 to i1
  %lnot = xor i1 %tobool, true
  br label %land.end22

land.end22:                                       ; preds = %land.rhs21, %invoke.cont19
  %6 = phi i1 [ false, %invoke.cont19 ], [ %lnot, %land.rhs21 ]
  %cond = select i1 %6, i8 1, i8 0
  %call24 = invoke noundef zeroext i1 @_ZN8proxygen15HTTPTransaction30validateIngressStateTransitionENS_28HTTPTransactionIngressSMData5EventE(ptr noundef nonnull align 8 dereferenceable(912) %this1, i8 noundef zeroext %cond)
          to label %invoke.cont23 unwind label %lpad

invoke.cont23:                                    ; preds = %land.end22
  br i1 %call24, label %if.end26, label %if.then25

if.then25:                                        ; preds = %invoke.cont23
  store i32 1, ptr %cleanup.dest.slot, align 4
  br label %cleanup

if.end26:                                         ; preds = %invoke.cont23
  %call27 = call noundef ptr @_ZNKSt10unique_ptrIN8proxygen11HTTPMessageESt14default_deleteIS1_EEptEv(ptr noundef nonnull align 8 dereferenceable(8) %msg) #3
  %call29 = invoke noundef zeroext i1 @_ZNK8proxygen11HTTPMessage9isRequestEv(ptr noundef nonnull align 8 dereferenceable(616) %call27)
          to label %invoke.cont28 unwind label %lpad

invoke.cont28:                                    ; preds = %if.end26
  br i1 %call29, label %if.then30, label %if.end43

if.then30:                                        ; preds = %invoke.cont28
  %call31 = call noundef ptr @_ZNKSt10unique_ptrIN8proxygen11HTTPMessageESt14default_deleteIS1_EEptEv(ptr noundef nonnull align 8 dereferenceable(8) %msg) #3
  invoke void @_ZNK8proxygen11HTTPMessage9getMethodEv(ptr sret(%"class.folly::Optional.119") align 4 %ref.tmp, ptr noundef nonnull align 8 dereferenceable(616) %call31)
          to label %invoke.cont32 unwind label %lpad

invoke.cont32:                                    ; preds = %if.then30
  store i32 4, ptr %ref.tmp33, align 4
  %call35 = invoke noundef zeroext i1 @_ZN5follyeqIN8proxygen10HTTPMethodES2_EEbRKNS_8OptionalIT_EERKT0_(ptr noundef nonnull align 4 dereferenceable(8) %ref.tmp, ptr noundef nonnull align 4 dereferenceable(4) %ref.tmp33)
          to label %invoke.cont34 unwind label %lpad

invoke.cont34:                                    ; preds = %invoke.cont32
  %headRequest_ = getelementptr inbounds %"class.proxygen::HTTPTransaction", ptr %this1, i32 0, i32 40
  %7 = zext i1 %call35 to i32
  %bf.load = load i32, ptr %headRequest_, align 8
  %bf.shl = shl i32 %7, 14
  %bf.clear = and i32 %bf.load, -16385
  %bf.set = or i32 %bf.clear, %bf.shl
  store i32 %bf.set, ptr %headRequest_, align 8
  %call36 = call noundef nonnull align 8 dereferenceable(616) ptr @_ZNKSt10unique_ptrIN8proxygen11HTTPMessageESt14default_deleteIS1_EEdeEv(ptr noundef nonnull align 8 dereferenceable(8) %msg) #3
  %call38 = invoke noundef zeroext i1 @_ZN8proxygen12WebTransport16isConnectMessageERKNS_11HTTPMessageE(ptr noundef nonnull align 8 dereferenceable(616) %call36)
          to label %invoke.cont37 unwind label %lpad

invoke.cont37:                                    ; preds = %invoke.cont34
  %wtConnectStream_ = getelementptr inbounds %"class.proxygen::HTTPTransaction", ptr %this1, i32 0, i32 40
  %8 = zext i1 %call38 to i32
  %bf.load39 = load i32, ptr %wtConnectStream_, align 8
  %bf.shl40 = shl i32 %8, 16
  %bf.clear41 = and i32 %bf.load39, -65537
  %bf.set42 = or i32 %bf.clear41, %bf.shl40
  store i32 %bf.set42, ptr %wtConnectStream_, align 8
  br label %if.end43

if.end43:                                         ; preds = %invoke.cont37, %invoke.cont28
  %call44 = call noundef ptr @_ZNKSt10unique_ptrIN8proxygen11HTTPMessageESt14default_deleteIS1_EEptEv(ptr noundef nonnull align 8 dereferenceable(8) %msg) #3
  %call46 = invoke noundef zeroext i1 @_ZNK8proxygen11HTTPMessage9isRequestEv(ptr noundef nonnull align 8 dereferenceable(616) %call44)
          to label %invoke.cont45 unwind label %lpad

invoke.cont45:                                    ; preds = %if.end43
  br i1 %call46, label %land.lhs.true47, label %lor.rhs

land.lhs.true47:                                  ; preds = %invoke.cont45
  %call49 = call noundef ptr @_ZNKSt10unique_ptrIN8proxygen11HTTPMessageESt14default_deleteIS1_EEptEv(ptr noundef nonnull align 8 dereferenceable(8) %msg) #3
  invoke void @_ZNK8proxygen11HTTPMessage9getMethodEv(ptr sret(%"class.folly::Optional.119") align 4 %ref.tmp48, ptr noundef nonnull align 8 dereferenceable(616) %call49)
          to label %invoke.cont50 unwind label %lpad

invoke.cont50:                                    ; preds = %land.lhs.true47
  store i32 5, ptr %ref.tmp51, align 4
  %call53 = invoke noundef zeroext i1 @_ZN5follyneIN8proxygen10HTTPMethodES2_EEbRKNS_8OptionalIT_EERKT0_(ptr noundef nonnull align 4 dereferenceable(8) %ref.tmp48, ptr noundef nonnull align 4 dereferenceable(4) %ref.tmp51)
          to label %invoke.cont52 unwind label %lpad

invoke.cont52:                                    ; preds = %invoke.cont50
  br i1 %call53, label %lor.end, label %lor.rhs

lor.rhs:                                          ; preds = %invoke.cont52, %invoke.cont45
  %call54 = call noundef ptr @_ZNKSt10unique_ptrIN8proxygen11HTTPMessageESt14default_deleteIS1_EEptEv(ptr noundef nonnull align 8 dereferenceable(8) %msg) #3
  %call56 = invoke noundef zeroext i1 @_ZNK8proxygen11HTTPMessage10isResponseEv(ptr noundef nonnull align 8 dereferenceable(616) %call54)
          to label %invoke.cont55 unwind label %lpad

invoke.cont55:                                    ; preds = %lor.rhs
  br i1 %call56, label %land.lhs.true57, label %land.end68

land.lhs.true57:                                  ; preds = %invoke.cont55
  %headRequest_58 = getelementptr inbounds %"class.proxygen::HTTPTransaction", ptr %this1, i32 0, i32 40
  %bf.load59 = load i32, ptr %headRequest_58, align 8
  %bf.lshr = lshr i32 %bf.load59, 14
  %bf.clear60 = and i32 %bf.lshr, 1
  %bf.cast = trunc i32 %bf.clear60 to i1
  br i1 %bf.cast, label %land.end68, label %land.rhs61

land.rhs61:                                       ; preds = %land.lhs.true57
  %call62 = call noundef ptr @_ZNKSt10unique_ptrIN8proxygen11HTTPMessageESt14default_deleteIS1_EEptEv(ptr noundef nonnull align 8 dereferenceable(8) %msg) #3
  %call64 = invoke noundef zeroext i16 @_ZNK8proxygen11HTTPMessage13getStatusCodeEv(ptr noundef nonnull align 8 dereferenceable(616) %call62)
          to label %invoke.cont63 unwind label %lpad

invoke.cont63:                                    ; preds = %land.rhs61
  %conv = zext i16 %call64 to i32
  %call66 = invoke noundef zeroext i1 @_ZN8proxygen7RFC261623responseBodyMustBeEmptyEj(i32 noundef %conv)
          to label %invoke.cont65 unwind label %lpad

invoke.cont65:                                    ; preds = %invoke.cont63
  %lnot67 = xor i1 %call66, true
  br label %land.end68

land.end68:                                       ; preds = %invoke.cont65, %land.lhs.true57, %invoke.cont55
  %9 = phi i1 [ false, %land.lhs.true57 ], [ false, %invoke.cont55 ], [ %lnot67, %invoke.cont65 ]
  br label %lor.end

lor.end:                                          ; preds = %land.end68, %invoke.cont52
  %10 = phi i1 [ true, %invoke.cont52 ], [ %9, %land.end68 ]
  br i1 %10, label %if.then69, label %if.end115

if.then69:                                        ; preds = %lor.end
  %call70 = call noundef ptr @_ZNKSt10unique_ptrIN8proxygen11HTTPMessageESt14default_deleteIS1_EEptEv(ptr noundef nonnull align 8 dereferenceable(8) %msg) #3
  %call72 = invoke noundef nonnull align 8 dereferenceable(32) ptr @_ZN8proxygen11HTTPMessage10getHeadersEv(ptr noundef nonnull align 8 dereferenceable(616) %call70)
          to label %invoke.cont71 unwind label %lpad

invoke.cont71:                                    ; preds = %if.then69
  store i8 29, ptr %ref.tmp73, align 1
  %call75 = invoke noundef nonnull align 8 dereferenceable(32) ptr @_ZNK8proxygen11HTTPHeaders16getSingleOrEmptyINS_14HTTPHeaderCodeEEERKNSt7__cxx1112basic_stringIcSt11char_traitsIcESaIcEEERKT_(ptr noundef nonnull align 8 dereferenceable(32) %call72, ptr noundef nonnull align 1 dereferenceable(1) %ref.tmp73)
          to label %invoke.cont74 unwind label %lpad

invoke.cont74:                                    ; preds = %invoke.cont71
  store ptr %call75, ptr %contentLen, align 8
  %11 = load ptr, ptr %contentLen, align 8
  %call76 = call noundef zeroext i1 @_ZNKSt7__cxx1112basic_stringIcSt11char_traitsIcESaIcEE5emptyEv(ptr noundef nonnull align 8 dereferenceable(32) %11) #3
  br i1 %call76, label %if.end114, label %if.then77

if.then77:                                        ; preds = %invoke.cont74
  %12 = load ptr, ptr %contentLen, align 8
  %call81 = invoke noundef i64 @_ZN5folly2toImNSt7__cxx1112basic_stringIcSt11char_traitsIcESaIcEEEEENSt9enable_ifIXaasr12IsSomeStringIT0_EE5valuentsr3std7is_sameINS_5RangeIPKcEET_EE5valueESD_E4typeERKS8_(ptr noundef nonnull align 8 dereferenceable(32) %12)
          to label %invoke.cont80 unwind label %lpad79

invoke.cont80:                                    ; preds = %if.then77
  store i64 %call81, ptr %ref.tmp78, align 8
  %expectedIngressContentLengthRemaining_ = getelementptr inbounds %"class.proxygen::HTTPTransaction", ptr %this1, i32 0, i32 35
  %call83 = invoke noundef nonnull align 8 dereferenceable(16) ptr @_ZN5folly8OptionalImEaSImEERS1_OT_(ptr noundef nonnull align 8 dereferenceable(16) %expectedIngressContentLengthRemaining_, ptr noundef nonnull align 8 dereferenceable(8) %ref.tmp78)
          to label %invoke.cont82 unwind label %lpad79

invoke.cont82:                                    ; preds = %invoke.cont80
  br label %try.cont

lpad79:                                           ; preds = %invoke.cont80, %if.then77
  %13 = landingpad { ptr, i32 }
          cleanup
          catch ptr @_ZTIN5folly15ConversionErrorE
  %14 = extractvalue { ptr, i32 } %13, 0
  store ptr %14, ptr %exn.slot, align 8
  %15 = extractvalue { ptr, i32 } %13, 1
  store i32 %15, ptr %ehselector.slot, align 4
  br label %catch.dispatch

catch.dispatch:                                   ; preds = %lpad79
  %sel = load i32, ptr %ehselector.slot, align 4
  %16 = call i32 @llvm.eh.typeid.for(ptr @_ZTIN5folly15ConversionErrorE) #3
  %matches = icmp eq i32 %sel, %16
  br i1 %matches, label %catch, label %ehcleanup174

catch:                                            ; preds = %catch.dispatch
  %exn = load ptr, ptr %exn.slot, align 8
  %17 = call ptr @__cxa_begin_catch(ptr %exn) #3
  store ptr %17, ptr %ex, align 8
  invoke void @_ZN6google10LogMessageC1EPKcii(ptr noundef nonnull align 8 dereferenceable(96) %ref.tmp84, ptr noundef @.str, i32 noundef 263, i32 noundef 2)
          to label %invoke.cont86 unwind label %lpad85

invoke.cont86:                                    ; preds = %catch
  %call89 = invoke noundef nonnull align 8 dereferenceable(8) ptr @_ZN6google10LogMessage6streamEv(ptr noundef nonnull align 8 dereferenceable(96) %ref.tmp84)
          to label %invoke.cont88 unwind label %lpad87

invoke.cont88:                                    ; preds = %invoke.cont86
  %call91 = invoke noundef nonnull align 8 dereferenceable(8) ptr @_ZStlsISt11char_traitsIcEERSt13basic_ostreamIcT_ES5_PKc(ptr noundef nonnull align 8 dereferenceable(8) %call89, ptr noundef @.str.4)
          to label %invoke.cont90 unwind label %lpad87

invoke.cont90:                                    ; preds = %invoke.cont88
  %18 = load ptr, ptr %contentLen, align 8
  %call93 = invoke noundef nonnull align 8 dereferenceable(8) ptr @_ZStlsIcSt11char_traitsIcESaIcEERSt13basic_ostreamIT_T0_ES7_RKNSt7__cxx1112basic_stringIS4_S5_T1_EE(ptr noundef nonnull align 8 dereferenceable(8) %call91, ptr noundef nonnull align 8 dereferenceable(32) %18)
          to label %invoke.cont92 unwind label %lpad87

invoke.cont92:                                    ; preds = %invoke.cont90
  %call95 = invoke noundef nonnull align 8 dereferenceable(8) ptr @_ZStlsISt11char_traitsIcEERSt13basic_ostreamIcT_ES5_PKc(ptr noundef nonnull align 8 dereferenceable(8) %call93, ptr noundef @.str.5)
          to label %invoke.cont94 unwind label %lpad87

invoke.cont94:                                    ; preds = %invoke.cont92
  %19 = load ptr, ptr %ex, align 8
  %vtable = load ptr, ptr %19, align 8
  %vfn = getelementptr inbounds ptr, ptr %vtable, i64 2
  %20 = load ptr, ptr %vfn, align 8
  %call96 = call noundef ptr %20(ptr noundef nonnull align 8 dereferenceable(16) %19) #3
  %call98 = invoke noundef nonnull align 8 dereferenceable(8) ptr @_ZStlsISt11char_traitsIcEERSt13basic_ostreamIcT_ES5_PKc(ptr noundef nonnull align 8 dereferenceable(8) %call95, ptr noundef %call96)
          to label %invoke.cont97 unwind label %lpad87

invoke.cont97:                                    ; preds = %invoke.cont94
  %call100 = invoke noundef nonnull align 8 dereferenceable(8) ptr @_ZStlsISt11char_traitsIcEERSt13basic_ostreamIcT_ES5_PKc(ptr noundef nonnull align 8 dereferenceable(8) %call98, ptr noundef @.str.6)
          to label %invoke.cont99 unwind label %lpad87

invoke.cont99:                                    ; preds = %invoke.cont97
  %call102 = invoke noundef nonnull align 8 dereferenceable(8) ptr @_ZN8proxygenlsERSoRKNS_15HTTPTransactionE(ptr noundef nonnull align 8 dereferenceable(8) %call100, ptr noundef nonnull align 8 dereferenceable(912) %this1)
          to label %invoke.cont101 unwind label %lpad87

invoke.cont101:                                   ; preds = %invoke.cont99
  call void @_ZN6google10LogMessageD1Ev(ptr noundef nonnull align 8 dereferenceable(96) %ref.tmp84) #3
  invoke void @__cxa_end_catch()
          to label %invoke.cont103 unwind label %lpad

invoke.cont103:                                   ; preds = %invoke.cont101
  br label %try.cont

try.cont:                                         ; preds = %invoke.cont103, %invoke.cont82
  %expectedIngressContentLengthRemaining_105 = getelementptr inbounds %"class.proxygen::HTTPTransaction", ptr %this1, i32 0, i32 35
  %call106 = call noundef zeroext i1 @_ZNK5folly8OptionalImEcvbEv(ptr noundef nonnull align 8 dereferenceable(16) %expectedIngressContentLengthRemaining_105) #3
  br i1 %call106, label %if.then107, label %if.end113

if.then107:                                       ; preds = %try.cont
  %expectedIngressContentLengthRemaining_108 = getelementptr inbounds %"class.proxygen::HTTPTransaction", ptr %this1, i32 0, i32 35
  %call110 = invoke noundef nonnull align 8 dereferenceable(8) ptr @_ZNR5folly8OptionalImE5valueEv(ptr noundef nonnull align 8 dereferenceable(16) %expectedIngressContentLengthRemaining_108)
          to label %invoke.cont109 unwind label %lpad

invoke.cont109:                                   ; preds = %if.then107
  %expectedIngressContentLength_ = getelementptr inbounds %"class.proxygen::HTTPTransaction", ptr %this1, i32 0, i32 34
  %call112 = invoke noundef nonnull align 8 dereferenceable(16) ptr @_ZN5folly8OptionalImEaSIRmEERS1_OT_(ptr noundef nonnull align 8 dereferenceable(16) %expectedIngressContentLength_, ptr noundef nonnull align 8 dereferenceable(8) %call110)
          to label %invoke.cont111 unwind label %lpad

invoke.cont111:                                   ; preds = %invoke.cont109
  br label %if.end113

lpad85:                                           ; preds = %catch
  %21 = landingpad { ptr, i32 }
          cleanup
  %22 = extractvalue { ptr, i32 } %21, 0
  store ptr %22, ptr %exn.slot, align 8
  %23 = extractvalue { ptr, i32 } %21, 1
  store i32 %23, ptr %ehselector.slot, align 4
  br label %ehcleanup

lpad87:                                           ; preds = %invoke.cont99, %invoke.cont97, %invoke.cont94, %invoke.cont92, %invoke.cont90, %invoke.cont88, %invoke.cont86
  %24 = landingpad { ptr, i32 }
          cleanup
  %25 = extractvalue { ptr, i32 } %24, 0
  store ptr %25, ptr %exn.slot, align 8
  %26 = extractvalue { ptr, i32 } %24, 1
  store i32 %26, ptr %ehselector.slot, align 4
  call void @_ZN6google10LogMessageD1Ev(ptr noundef nonnull align 8 dereferenceable(96) %ref.tmp84) #3
  br label %ehcleanup

ehcleanup:                                        ; preds = %lpad87, %lpad85
  invoke void @__cxa_end_catch()
          to label %invoke.cont104 unwind label %terminate.lpad

invoke.cont104:                                   ; preds = %ehcleanup
  br label %ehcleanup174

if.end113:                                        ; preds = %invoke.cont111, %try.cont
  br label %if.end114

if.end114:                                        ; preds = %if.end113, %invoke.cont74
  br label %if.end115

if.end115:                                        ; preds = %if.end114, %lor.end
  %transportCallback_ = getelementptr inbounds %"class.proxygen::HTTPTransaction", ptr %this1, i32 0, i32 19
  %27 = load ptr, ptr %transportCallback_, align 8
  %tobool116 = icmp ne ptr %27, null
  br i1 %tobool116, label %if.then117, label %if.end124

if.then117:                                       ; preds = %if.end115
  %transportCallback_118 = getelementptr inbounds %"class.proxygen::HTTPTransaction", ptr %this1, i32 0, i32 19
  %28 = load ptr, ptr %transportCallback_118, align 8
  %call119 = call noundef ptr @_ZNKSt10unique_ptrIN8proxygen11HTTPMessageESt14default_deleteIS1_EEptEv(ptr noundef nonnull align 8 dereferenceable(8) %msg) #3
  %call121 = invoke noundef nonnull align 4 dereferenceable(12) ptr @_ZNK8proxygen11HTTPMessage20getIngressHeaderSizeEv(ptr noundef nonnull align 8 dereferenceable(616) %call119)
          to label %invoke.cont120 unwind label %lpad

invoke.cont120:                                   ; preds = %if.then117
  %vtable122 = load ptr, ptr %28, align 8
  %vfn123 = getelementptr inbounds ptr, ptr %vtable122, i64 9
  %29 = load ptr, ptr %vfn123, align 8
  call void %29(ptr noundef nonnull align 8 dereferenceable(8) %28, ptr noundef nonnull align 4 dereferenceable(12) %call121) #3
  br label %if.end124

if.end124:                                        ; preds = %invoke.cont120, %if.end115
  %transport_ = getelementptr inbounds %"class.proxygen::HTTPTransaction", ptr %this1, i32 0, i32 14
  %30 = load ptr, ptr %transport_, align 8
  %vtable126 = load ptr, ptr %30, align 8
  %vfn127 = getelementptr inbounds ptr, ptr %vtable126, i64 28
  %31 = load ptr, ptr %vfn127, align 8
  %call128 = call noundef nonnull align 8 dereferenceable(8) ptr %31(ptr noundef nonnull align 8 dereferenceable(8) %30) #3
  %vtable129 = load ptr, ptr %call128, align 8
  %vfn130 = getelementptr inbounds ptr, ptr %vtable129, i64 2
  %32 = load ptr, ptr %vfn130, align 8
  invoke void %32(ptr sret(%"struct.proxygen::CompressionInfo") align 4 %ref.tmp125, ptr noundef nonnull align 8 dereferenceable(8) %call128)
          to label %invoke.cont131 unwind label %lpad

invoke.cont131:                                   ; preds = %if.end124
  invoke void @_ZN8proxygen15HTTPTransaction28updateIngressCompressionInfoERKNS_15CompressionInfoE(ptr noundef nonnull align 8 dereferenceable(912) %this1, ptr noundef nonnull align 4 dereferenceable(56) %ref.tmp125)
          to label %invoke.cont132 unwind label %lpad

invoke.cont132:                                   ; preds = %invoke.cont131
  %call134 = invoke noundef zeroext i1 @_ZNK8proxygen15HTTPTransaction16mustQueueIngressEv(ptr noundef nonnull align 8 dereferenceable(912) %this1)
          to label %invoke.cont133 unwind label %lpad

invoke.cont133:                                   ; preds = %invoke.cont132
  br i1 %call134, label %if.then135, label %if.else

if.then135:                                       ; preds = %invoke.cont133
  invoke void @_ZN8proxygen15HTTPTransaction26checkCreateDeferredIngressEv(ptr noundef nonnull align 8 dereferenceable(912) %this1)
          to label %invoke.cont136 unwind label %lpad

invoke.cont136:                                   ; preds = %if.then135
  %deferredIngress_ = getelementptr inbounds %"class.proxygen::HTTPTransaction", ptr %this1, i32 0, i32 3
  %call137 = call noundef ptr @_ZNKSt10unique_ptrISt5queueIN8proxygen9HTTPEventESt5dequeIS2_SaIS2_EEESt14default_deleteIS6_EEptEv(ptr noundef nonnull align 8 dereferenceable(8) %deferredIngress_) #3
  %id_ = getelementptr inbounds %"class.proxygen::HTTPTransaction", ptr %this1, i32 0, i32 10
  store i8 1, ptr %ref.tmp138, align 1
  %call140 = invoke noundef nonnull align 8 dereferenceable(56) ptr @_ZNSt5queueIN8proxygen9HTTPEventESt5dequeIS1_SaIS1_EEE7emplaceIJRmNS1_4TypeESt10unique_ptrINS0_11HTTPMessageESt14default_deleteISA_EEEEEDcDpOT_(ptr noundef nonnull align 8 dereferenceable(80) %call137, ptr noundef nonnull align 8 dereferenceable(8) %id_, ptr noundef nonnull align 1 dereferenceable(1) %ref.tmp138, ptr noundef nonnull align 8 dereferenceable(8) %msg)
          to label %invoke.cont139 unwind label %lpad

invoke.cont139:                                   ; preds = %invoke.cont136
  store i32 4, ptr %verbose_level__, align 4
  %33 = load ptr, ptr @_ZZN8proxygen15HTTPTransaction24onIngressHeadersCompleteESt10unique_ptrINS_11HTTPMessageESt14default_deleteIS2_EEE8vlocal__, align 8
  %cmp = icmp eq ptr %33, null
  store i1 false, ptr %cleanup.cond, align 1
  br i1 %cmp, label %cond.true, label %cond.false

cond.true:                                        ; preds = %invoke.cont139
  %34 = load i32, ptr %verbose_level__, align 4
  %call142 = invoke noundef zeroext i1 @_ZN6google11InitVLOG3__EPNS_8SiteFlagEPiPKci(ptr noundef @_ZZN8proxygen15HTTPTransaction24onIngressHeadersCompleteESt10unique_ptrINS_11HTTPMessageESt14default_deleteIS2_EEE8vlocal__, ptr noundef @_ZN3fLI7FLAGS_vE, ptr noundef @.str, i32 noundef %34)
          to label %invoke.cont141 unwind label %lpad

invoke.cont141:                                   ; preds = %cond.true
  br label %cond.end

cond.false:                                       ; preds = %invoke.cont139
  %35 = load ptr, ptr @_ZZN8proxygen15HTTPTransaction24onIngressHeadersCompleteESt10unique_ptrINS_11HTTPMessageESt14default_deleteIS2_EEE8vlocal__, align 8
  %36 = load i32, ptr %35, align 4
  %37 = load i32, ptr %verbose_level__, align 4
  %cmp143 = icmp sge i32 %36, %37
  br label %cond.end

cond.end:                                         ; preds = %cond.false, %invoke.cont141
  %cond144 = phi i1 [ %call142, %invoke.cont141 ], [ %cmp143, %cond.false ]
  %frombool145 = zext i1 %cond144 to i8
  store i8 %frombool145, ptr %tmp, align 1
  %38 = load i8, ptr %tmp, align 1
  %tobool146 = trunc i8 %38 to i1
  br i1 %tobool146, label %cond.false148, label %cond.true147

cond.true147:                                     ; preds = %cond.end
  br label %cond.end165

cond.false148:                                    ; preds = %cond.end
  invoke void @_ZN6google17LogMessageVoidifyC2Ev(ptr noundef nonnull align 1 dereferenceable(1) %ref.tmp149)
          to label %invoke.cont150 unwind label %lpad

invoke.cont150:                                   ; preds = %cond.false148
  invoke void @_ZN6google10LogMessageC1EPKci(ptr noundef nonnull align 8 dereferenceable(96) %ref.tmp151, ptr noundef @.str, i32 noundef 280)
          to label %invoke.cont152 unwind label %lpad

invoke.cont152:                                   ; preds = %invoke.cont150
  store i1 true, ptr %cleanup.cond, align 1
  %call155 = invoke noundef nonnull align 8 dereferenceable(8) ptr @_ZN6google10LogMessage6streamEv(ptr noundef nonnull align 8 dereferenceable(96) %ref.tmp151)
          to label %invoke.cont154 unwind label %lpad153

invoke.cont154:                                   ; preds = %invoke.cont152
  %call157 = invoke noundef nonnull align 8 dereferenceable(8) ptr @_ZStlsISt11char_traitsIcEERSt13basic_ostreamIcT_ES5_PKc(ptr noundef nonnull align 8 dereferenceable(8) %call155, ptr noundef @.str.7)
          to label %invoke.cont156 unwind label %lpad153

invoke.cont156:                                   ; preds = %invoke.cont154
  %call159 = invoke noundef nonnull align 8 dereferenceable(8) ptr @_ZN8proxygenlsERSoNS_9HTTPEvent4TypeE(ptr noundef nonnull align 8 dereferenceable(8) %call157, i8 noundef zeroext 1)
          to label %invoke.cont158 unwind label %lpad153

invoke.cont158:                                   ; preds = %invoke.cont156
  %call161 = invoke noundef nonnull align 8 dereferenceable(8) ptr @_ZStlsISt11char_traitsIcEERSt13basic_ostreamIcT_ES5_PKc(ptr noundef nonnull align 8 dereferenceable(8) %call159, ptr noundef @.str.6)
          to label %invoke.cont160 unwind label %lpad153

invoke.cont160:                                   ; preds = %invoke.cont158
  %call163 = invoke noundef nonnull align 8 dereferenceable(8) ptr @_ZN8proxygenlsERSoRKNS_15HTTPTransactionE(ptr noundef nonnull align 8 dereferenceable(8) %call161, ptr noundef nonnull align 8 dereferenceable(912) %this1)
          to label %invoke.cont162 unwind label %lpad153

invoke.cont162:                                   ; preds = %invoke.cont160
  invoke void @_ZN6google17LogMessageVoidifyanERSo(ptr noundef nonnull align 1 dereferenceable(1) %ref.tmp149, ptr noundef nonnull align 8 dereferenceable(8) %call163)
          to label %invoke.cont164 unwind label %lpad153

invoke.cont164:                                   ; preds = %invoke.cont162
  br label %cond.end165

cond.end165:                                      ; preds = %invoke.cont164, %cond.true147
  %cleanup.is_active = load i1, ptr %cleanup.cond, align 1
  br i1 %cleanup.is_active, label %cleanup.action, label %cleanup.done

cleanup.action:                                   ; preds = %cond.end165
  call void @_ZN6google10LogMessageD1Ev(ptr noundef nonnull align 8 dereferenceable(96) %ref.tmp151) #3
  br label %cleanup.done

cleanup.done:                                     ; preds = %cleanup.action, %cond.end165
  br label %if.end173

lpad153:                                          ; preds = %invoke.cont162, %invoke.cont160, %invoke.cont158, %invoke.cont156, %invoke.cont154, %invoke.cont152
  %39 = landingpad { ptr, i32 }
          cleanup
  %40 = extractvalue { ptr, i32 } %39, 0
  store ptr %40, ptr %exn.slot, align 8
  %41 = extractvalue { ptr, i32 } %39, 1
  store i32 %41, ptr %ehselector.slot, align 4
  %cleanup.is_active167 = load i1, ptr %cleanup.cond, align 1
  br i1 %cleanup.is_active167, label %cleanup.action168, label %cleanup.done169

cleanup.action168:                                ; preds = %lpad153
  call void @_ZN6google10LogMessageD1Ev(ptr noundef nonnull align 8 dereferenceable(96) %ref.tmp151) #3
  br label %cleanup.done169

cleanup.done169:                                  ; preds = %cleanup.action168, %lpad153
  br label %ehcleanup174

if.else:                                          ; preds = %invoke.cont133
  call void @_ZNSt10unique_ptrIN8proxygen11HTTPMessageESt14default_deleteIS1_EEC2EOS4_(ptr noundef nonnull align 8 dereferenceable(8) %agg.tmp, ptr noundef nonnull align 8 dereferenceable(8) %msg) #3
  invoke void @_ZN8proxygen15HTTPTransaction29processIngressHeadersCompleteESt10unique_ptrINS_11HTTPMessageESt14default_deleteIS2_EE(ptr noundef nonnull align 8 dereferenceable(912) %this1, ptr noundef %agg.tmp)
          to label %invoke.cont171 unwind label %lpad170

invoke.cont171:                                   ; preds = %if.else
  call void @_ZNSt10unique_ptrIN8proxygen11HTTPMessageESt14default_deleteIS1_EED2Ev(ptr noundef nonnull align 8 dereferenceable(8) %agg.tmp) #3
  br label %if.end173

lpad170:                                          ; preds = %if.else
  %42 = landingpad { ptr, i32 }
          cleanup
  %43 = extractvalue { ptr, i32 } %42, 0
  store ptr %43, ptr %exn.slot, align 8
  %44 = extractvalue { ptr, i32 } %42, 1
  store i32 %44, ptr %ehselector.slot, align 4
  call void @_ZNSt10unique_ptrIN8proxygen11HTTPMessageESt14default_deleteIS1_EED2Ev(ptr noundef nonnull align 8 dereferenceable(8) %agg.tmp) #3
  br label %ehcleanup174

if.end173:                                        ; preds = %invoke.cont171, %cleanup.done
  store i32 0, ptr %cleanup.dest.slot, align 4
  br label %cleanup

cleanup:                                          ; preds = %if.end173, %if.then25
  call void @_ZN5folly22DelayedDestructionBase15DestructorGuardD2Ev(ptr noundef nonnull align 8 dereferenceable(8) %g) #3
  %cleanup.dest = load i32, ptr %cleanup.dest.slot, align 4
  switch i32 %cleanup.dest, label %unreachable [
    i32 0, label %cleanup.cont
    i32 1, label %cleanup.cont
  ]

cleanup.cont:                                     ; preds = %cleanup, %cleanup
  ret void

ehcleanup174:                                     ; preds = %lpad170, %cleanup.done169, %invoke.cont104, %catch.dispatch, %lpad
  call void @_ZN5folly22DelayedDestructionBase15DestructorGuardD2Ev(ptr noundef nonnull align 8 dereferenceable(8) %g) #3
  br label %eh.resume

eh.resume:                                        ; preds = %ehcleanup174
  %exn175 = load ptr, ptr %exn.slot, align 8
  %sel176 = load i32, ptr %ehselector.slot, align 4
  %lpad.val = insertvalue { ptr, i32 } poison, ptr %exn175, 0
  %lpad.val177 = insertvalue { ptr, i32 } %lpad.val, i32 %sel176, 1
  resume { ptr, i32 } %lpad.val177

terminate.lpad:                                   ; preds = %ehcleanup
  %45 = landingpad { ptr, i32 }
          catch ptr null
  %46 = extractvalue { ptr, i32 } %45, 0
  call void @__clang_call_terminate(ptr %46) #20
  unreachable

unreachable:                                      ; preds = %cleanup
  unreachable
}

; Function Attrs: mustprogress nounwind uwtable
define linkonce_odr void @_ZN5folly22DelayedDestructionBase15DestructorGuardC2EPS0_(ptr noundef nonnull align 8 dereferenceable(8) %this, ptr noundef %dd) unnamed_addr #5 comdat align 2 {
entry:
  %this.addr = alloca ptr, align 8
  %dd.addr = alloca ptr, align 8
  store ptr %this, ptr %this.addr, align 8
  store ptr %dd, ptr %dd.addr, align 8
  %this1 = load ptr, ptr %this.addr, align 8
  %dd_ = getelementptr inbounds %"class.folly::DelayedDestructionBase::DestructorGuard", ptr %this1, i32 0, i32 0
  %0 = load ptr, ptr %dd.addr, align 8
  store ptr %0, ptr %dd_, align 8
  %dd_2 = getelementptr inbounds %"class.folly::DelayedDestructionBase::DestructorGuard", ptr %this1, i32 0, i32 0
  %1 = load ptr, ptr %dd_2, align 8
  %cmp = icmp ne ptr %1, null
  br i1 %cmp, label %if.then, label %if.end

if.then:                                          ; preds = %entry
  %dd_3 = getelementptr inbounds %"class.folly::DelayedDestructionBase::DestructorGuard", ptr %this1, i32 0, i32 0
  %2 = load ptr, ptr %dd_3, align 8
  %guardCount_ = getelementptr inbounds %"class.folly::DelayedDestructionBase", ptr %2, i32 0, i32 1
  %3 = load i32, ptr %guardCount_, align 8
  %inc = add i32 %3, 1
  store i32 %inc, ptr %guardCount_, align 8
  br label %if.end

if.end:                                           ; preds = %if.then, %entry
  ret void
}

; Function Attrs: mustprogress nounwind uwtable
define linkonce_odr noundef ptr @_ZNKSt10unique_ptrIN8proxygen11HTTPMessageESt14default_deleteIS1_EEptEv(ptr noundef nonnull align 8 dereferenceable(8) %this) #5 comdat align 2 {
entry:
  %this.addr = alloca ptr, align 8
  store ptr %this, ptr %this.addr, align 8
  %this1 = load ptr, ptr %this.addr, align 8
  %call = call noundef ptr @_ZNKSt10unique_ptrIN8proxygen11HTTPMessageESt14default_deleteIS1_EE3getEv(ptr noundef nonnull align 8 dereferenceable(8) %this1) #3
  ret ptr %call
}

; Function Attrs: mustprogress nounwind uwtable
define linkonce_odr void @_ZN8proxygen11HTTPMessage8setSeqNoEi(ptr noundef nonnull align 8 dereferenceable(616) %this, i32 noundef %seqNo) #5 comdat align 2 {
entry:
  %this.addr = alloca ptr, align 8
  %seqNo.addr = alloca i32, align 4
  store ptr %this, ptr %this.addr, align 8
  store i32 %seqNo, ptr %seqNo.addr, align 4
  %this1 = load ptr, ptr %this.addr, align 8
  %0 = load i32, ptr %seqNo.addr, align 4
  %seqNo_ = getelementptr inbounds %"class.proxygen::HTTPMessage", ptr %this1, i32 0, i32 14
  store i32 %0, ptr %seqNo_, align 8
  ret void
}

; Function Attrs: mustprogress nounwind uwtable
define linkonce_odr noundef zeroext i1 @_ZNK8proxygen11HTTPMessage10isResponseEv(ptr noundef nonnull align 8 dereferenceable(616) %this) #5 comdat align 2 {
entry:
  %this.addr = alloca ptr, align 8
  store ptr %this, ptr %this.addr, align 8
  %this1 = load ptr, ptr %this.addr, align 8
  %fields_ = getelementptr inbounds %"class.proxygen::HTTPMessage", ptr %this1, i32 0, i32 6
  %which_ = getelementptr inbounds %"struct.proxygen::HTTPMessage::Fields", ptr %fields_, i32 0, i32 0
  %0 = load i8, ptr %which_, align 8
  %cmp = icmp eq i8 %0, 2
  ret i1 %cmp
}

declare noundef zeroext i16 @_ZNK8proxygen11HTTPMessage13getStatusCodeEv(ptr noundef nonnull align 8 dereferenceable(616)) #1

; Function Attrs: mustprogress nounwind uwtable
define linkonce_odr noundef zeroext i1 @_ZNK8proxygen11HTTPMessage9isRequestEv(ptr noundef nonnull align 8 dereferenceable(616) %this) #5 comdat align 2 {
entry:
  %this.addr = alloca ptr, align 8
  store ptr %this, ptr %this.addr, align 8
  %this1 = load ptr, ptr %this.addr, align 8
  %fields_ = getelementptr inbounds %"class.proxygen::HTTPMessage", ptr %this1, i32 0, i32 6
  %which_ = getelementptr inbounds %"struct.proxygen::HTTPMessage::Fields", ptr %fields_, i32 0, i32 0
  %0 = load i8, ptr %which_, align 8
  %cmp = icmp eq i8 %0, 1
  ret i1 %cmp
}

; Function Attrs: mustprogress uwtable
define noundef zeroext i1 @_ZN8proxygen15HTTPTransaction30validateIngressStateTransitionENS_28HTTPTransactionIngressSMData5EventE(ptr noundef nonnull align 8 dereferenceable(912) %this, i8 noundef zeroext %event) #4 align 2 personality ptr @__gxx_personality_v0 {
entry:
  %retval = alloca i1, align 1
  %this.addr = alloca ptr, align 8
  %event.addr = alloca i8, align 1
  %g = alloca %"class.folly::DelayedDestructionBase::DestructorGuard", align 8
  %exn.slot = alloca ptr, align 8
  %ehselector.slot = alloca i32, align 4
  %ss = alloca %"class.std::__cxx11::basic_stringstream", align 8
  %ex = alloca %"class.proxygen::HTTPException", align 8
  %agg.tmp = alloca %"class.std::__cxx11::basic_string", align 8
  %cleanup.dest.slot = alloca i32, align 4
  store ptr %this, ptr %this.addr, align 8
  store i8 %event, ptr %event.addr, align 1
  %this1 = load ptr, ptr %this.addr, align 8
  %add.ptr = getelementptr inbounds i8, ptr %this1, i64 64
  call void @_ZN5folly22DelayedDestructionBase15DestructorGuardC2EPS0_(ptr noundef nonnull align 8 dereferenceable(8) %g, ptr noundef %add.ptr)
  %ingressState_ = getelementptr inbounds %"class.proxygen::HTTPTransaction", ptr %this1, i32 0, i32 8
  %0 = load i8, ptr %event.addr, align 1
  %call = invoke noundef zeroext i1 @_ZN8proxygen12StateMachineINS_28HTTPTransactionIngressSMDataEE7transitERNS1_5StateENS1_5EventE(ptr noundef nonnull align 1 dereferenceable(1) %ingressState_, i8 noundef zeroext %0)
          to label %invoke.cont unwind label %lpad

invoke.cont:                                      ; preds = %entry
  br i1 %call, label %if.end, label %if.then

if.then:                                          ; preds = %invoke.cont
  invoke void @_ZNSt7__cxx1118basic_stringstreamIcSt11char_traitsIcESaIcEEC1Ev(ptr noundef nonnull align 8 dereferenceable(128) %ss)
          to label %invoke.cont2 unwind label %lpad

invoke.cont2:                                     ; preds = %if.then
  %add.ptr3 = getelementptr inbounds i8, ptr %ss, i64 16
  %call6 = invoke noundef nonnull align 8 dereferenceable(8) ptr @_ZStlsISt11char_traitsIcEERSt13basic_ostreamIcT_ES5_PKc(ptr noundef nonnull align 8 dereferenceable(8) %add.ptr3, ptr noundef @.str.23)
          to label %invoke.cont5 unwind label %lpad4

invoke.cont5:                                     ; preds = %invoke.cont2
  %ingressState_7 = getelementptr inbounds %"class.proxygen::HTTPTransaction", ptr %this1, i32 0, i32 8
  %1 = load i8, ptr %ingressState_7, align 2
  %call9 = invoke noundef nonnull align 8 dereferenceable(8) ptr @_ZN8proxygenlsERSoNS_28HTTPTransactionIngressSMData5StateE(ptr noundef nonnull align 8 dereferenceable(8) %call6, i8 noundef zeroext %1)
          to label %invoke.cont8 unwind label %lpad4

invoke.cont8:                                     ; preds = %invoke.cont5
  %call11 = invoke noundef nonnull align 8 dereferenceable(8) ptr @_ZStlsISt11char_traitsIcEERSt13basic_ostreamIcT_ES5_PKc(ptr noundef nonnull align 8 dereferenceable(8) %call9, ptr noundef @.str.24)
          to label %invoke.cont10 unwind label %lpad4

invoke.cont10:                                    ; preds = %invoke.cont8
  %2 = load i8, ptr %event.addr, align 1
  %call13 = invoke noundef nonnull align 8 dereferenceable(8) ptr @_ZN8proxygenlsERSoNS_28HTTPTransactionIngressSMData5EventE(ptr noundef nonnull align 8 dereferenceable(8) %call11, i8 noundef zeroext %2)
          to label %invoke.cont12 unwind label %lpad4

invoke.cont12:                                    ; preds = %invoke.cont10
  %call15 = invoke noundef nonnull align 8 dereferenceable(8) ptr @_ZStlsISt11char_traitsIcEERSt13basic_ostreamIcT_ES5_PKc(ptr noundef nonnull align 8 dereferenceable(8) %call13, ptr noundef @.str.25)
          to label %invoke.cont14 unwind label %lpad4

invoke.cont14:                                    ; preds = %invoke.cont12
  %id_ = getelementptr inbounds %"class.proxygen::HTTPTransaction", ptr %this1, i32 0, i32 10
  %3 = load i64, ptr %id_, align 8
  %call17 = invoke noundef nonnull align 8 dereferenceable(8) ptr @_ZNSolsEm(ptr noundef nonnull align 8 dereferenceable(8) %call15, i64 noundef %3)
          to label %invoke.cont16 unwind label %lpad4

invoke.cont16:                                    ; preds = %invoke.cont14
  invoke void @_ZNKSt7__cxx1118basic_stringstreamIcSt11char_traitsIcESaIcEE3strEv(ptr sret(%"class.std::__cxx11::basic_string") align 8 %agg.tmp, ptr noundef nonnull align 8 dereferenceable(128) %ss)
          to label %invoke.cont18 unwind label %lpad4

invoke.cont18:                                    ; preds = %invoke.cont16
  invoke void @_ZN8proxygen12_GLOBAL__N_117stateMachineErrorENS_13HTTPException9DirectionENSt7__cxx1112basic_stringIcSt11char_traitsIcESaIcEEE(ptr sret(%"class.proxygen::HTTPException") align 8 %ex, i32 noundef 0, ptr noundef %agg.tmp)
          to label %invoke.cont20 unwind label %lpad19

invoke.cont20:                                    ; preds = %invoke.cont18
  call void @_ZNSt7__cxx1112basic_stringIcSt11char_traitsIcESaIcEED1Ev(ptr noundef nonnull align 8 dereferenceable(32) %agg.tmp) #3
  invoke void @_ZN8proxygen15HTTPTransaction7onErrorERKNS_13HTTPExceptionE(ptr noundef nonnull align 8 dereferenceable(912) %this1, ptr noundef nonnull align 8 dereferenceable(96) %ex)
          to label %invoke.cont22 unwind label %lpad21

invoke.cont22:                                    ; preds = %invoke.cont20
  store i1 false, ptr %retval, align 1
  store i32 1, ptr %cleanup.dest.slot, align 4
  call void @_ZN8proxygen13HTTPExceptionD2Ev(ptr noundef nonnull align 8 dereferenceable(96) %ex) #3
  call void @_ZNSt7__cxx1118basic_stringstreamIcSt11char_traitsIcESaIcEED1Ev(ptr noundef nonnull align 8 dereferenceable(128) %ss) #3
  br label %cleanup

lpad:                                             ; preds = %if.then, %entry
  %4 = landingpad { ptr, i32 }
          cleanup
  %5 = extractvalue { ptr, i32 } %4, 0
  store ptr %5, ptr %exn.slot, align 8
  %6 = extractvalue { ptr, i32 } %4, 1
  store i32 %6, ptr %ehselector.slot, align 4
  br label %ehcleanup23

lpad4:                                            ; preds = %invoke.cont16, %invoke.cont14, %invoke.cont12, %invoke.cont10, %invoke.cont8, %invoke.cont5, %invoke.cont2
  %7 = landingpad { ptr, i32 }
          cleanup
  %8 = extractvalue { ptr, i32 } %7, 0
  store ptr %8, ptr %exn.slot, align 8
  %9 = extractvalue { ptr, i32 } %7, 1
  store i32 %9, ptr %ehselector.slot, align 4
  br label %ehcleanup

lpad19:                                           ; preds = %invoke.cont18
  %10 = landingpad { ptr, i32 }
          cleanup
  %11 = extractvalue { ptr, i32 } %10, 0
  store ptr %11, ptr %exn.slot, align 8
  %12 = extractvalue { ptr, i32 } %10, 1
  store i32 %12, ptr %ehselector.slot, align 4
  call void @_ZNSt7__cxx1112basic_stringIcSt11char_traitsIcESaIcEED1Ev(ptr noundef nonnull align 8 dereferenceable(32) %agg.tmp) #3
  br label %ehcleanup

lpad21:                                           ; preds = %invoke.cont20
  %13 = landingpad { ptr, i32 }
          cleanup
  %14 = extractvalue { ptr, i32 } %13, 0
  store ptr %14, ptr %exn.slot, align 8
  %15 = extractvalue { ptr, i32 } %13, 1
  store i32 %15, ptr %ehselector.slot, align 4
  call void @_ZN8proxygen13HTTPExceptionD2Ev(ptr noundef nonnull align 8 dereferenceable(96) %ex) #3
  br label %ehcleanup

ehcleanup:                                        ; preds = %lpad21, %lpad19, %lpad4
  call void @_ZNSt7__cxx1118basic_stringstreamIcSt11char_traitsIcESaIcEED1Ev(ptr noundef nonnull align 8 dereferenceable(128) %ss) #3
  br label %ehcleanup23

if.end:                                           ; preds = %invoke.cont
  store i1 true, ptr %retval, align 1
  store i32 1, ptr %cleanup.dest.slot, align 4
  br label %cleanup

cleanup:                                          ; preds = %if.end, %invoke.cont22
  call void @_ZN5folly22DelayedDestructionBase15DestructorGuardD2Ev(ptr noundef nonnull align 8 dereferenceable(8) %g) #3
  %16 = load i1, ptr %retval, align 1
  ret i1 %16

ehcleanup23:                                      ; preds = %ehcleanup, %lpad
  call void @_ZN5folly22DelayedDestructionBase15DestructorGuardD2Ev(ptr noundef nonnull align 8 dereferenceable(8) %g) #3
  br label %eh.resume

eh.resume:                                        ; preds = %ehcleanup23
  %exn = load ptr, ptr %exn.slot, align 8
  %sel = load i32, ptr %ehselector.slot, align 4
  %lpad.val = insertvalue { ptr, i32 } poison, ptr %exn, 0
  %lpad.val24 = insertvalue { ptr, i32 } %lpad.val, i32 %sel, 1
  resume { ptr, i32 } %lpad.val24
}

; Function Attrs: mustprogress uwtable
define linkonce_odr noundef zeroext i1 @_ZNK8proxygen11HTTPMessage7isFinalEv(ptr noundef nonnull align 8 dereferenceable(616) %this) #4 comdat align 2 {
entry:
  %this.addr = alloca ptr, align 8
  store ptr %this, ptr %this.addr, align 8
  %this1 = load ptr, ptr %this.addr, align 8
  %call = call noundef zeroext i1 @_ZNK8proxygen11HTTPMessage9isRequestEv(ptr noundef nonnull align 8 dereferenceable(616) %this1)
  br i1 %call, label %lor.end, label %lor.lhs.false

lor.lhs.false:                                    ; preds = %entry
  %call2 = call noundef zeroext i1 @_ZNK8proxygen11HTTPMessage13is1xxResponseEv(ptr noundef nonnull align 8 dereferenceable(616) %this1)
  br i1 %call2, label %lor.rhs, label %lor.end

lor.rhs:                                          ; preds = %lor.lhs.false
  %call3 = call noundef zeroext i16 @_ZNK8proxygen11HTTPMessage13getStatusCodeEv(ptr noundef nonnull align 8 dereferenceable(616) %this1)
  %conv = zext i16 %call3 to i32
  %cmp = icmp eq i32 %conv, 101
  br label %lor.end

lor.end:                                          ; preds = %lor.rhs, %lor.lhs.false, %entry
  %0 = phi i1 [ true, %lor.lhs.false ], [ true, %entry ], [ %cmp, %lor.rhs ]
  ret i1 %0
}

; Function Attrs: mustprogress uwtable
define linkonce_odr noundef zeroext i1 @_ZN5follyeqIN8proxygen10HTTPMethodES2_EEbRKNS_8OptionalIT_EERKT0_(ptr noundef nonnull align 4 dereferenceable(8) %a, ptr noundef nonnull align 4 dereferenceable(4) %b) #4 comdat {
entry:
  %a.addr = alloca ptr, align 8
  %b.addr = alloca ptr, align 8
  store ptr %a, ptr %a.addr, align 8
  store ptr %b, ptr %b.addr, align 8
  %0 = load ptr, ptr %a.addr, align 8
  %call = call noundef zeroext i1 @_ZNK5folly8OptionalIN8proxygen10HTTPMethodEE8hasValueEv(ptr noundef nonnull align 4 dereferenceable(8) %0) #3
  br i1 %call, label %land.rhs, label %land.end

land.rhs:                                         ; preds = %entry
  %1 = load ptr, ptr %a.addr, align 8
  %call1 = call noundef nonnull align 4 dereferenceable(4) ptr @_ZNKR5folly8OptionalIN8proxygen10HTTPMethodEE5valueEv(ptr noundef nonnull align 4 dereferenceable(8) %1)
  %2 = load i32, ptr %call1, align 4
  %3 = load ptr, ptr %b.addr, align 8
  %4 = load i32, ptr %3, align 4
  %cmp = icmp eq i32 %2, %4
  br label %land.end

land.end:                                         ; preds = %land.rhs, %entry
  %5 = phi i1 [ false, %entry ], [ %cmp, %land.rhs ]
  ret i1 %5
}

declare void @_ZNK8proxygen11HTTPMessage9getMethodEv(ptr sret(%"class.folly::Optional.119") align 4, ptr noundef nonnull align 8 dereferenceable(616)) #1

; Function Attrs: mustprogress uwtable
define linkonce_odr noundef zeroext i1 @_ZN8proxygen12WebTransport16isConnectMessageERKNS_11HTTPMessageE(ptr noundef nonnull align 8 dereferenceable(616) %msg) #4 comdat align 2 personality ptr @__gxx_personality_v0 {
entry:
  %msg.addr = alloca ptr, align 8
  %ref.tmp = alloca %"class.std::allocator.70", align 1
  %exn.slot = alloca ptr, align 8
  %ehselector.slot = alloca i32, align 4
  %ref.tmp1 = alloca %"class.folly::Optional.119", align 4
  %ref.tmp2 = alloca i32, align 4
  store ptr %msg, ptr %msg.addr, align 8
  %0 = load atomic i8, ptr @_ZGVZN8proxygen12WebTransport16isConnectMessageERKNS_11HTTPMessageEE13kWebTransportB5cxx11 acquire, align 8
  %guard.uninitialized = icmp eq i8 %0, 0
  br i1 %guard.uninitialized, label %init.check, label %init.end, !prof !7

init.check:                                       ; preds = %entry
  %1 = call i32 @__cxa_guard_acquire(ptr @_ZGVZN8proxygen12WebTransport16isConnectMessageERKNS_11HTTPMessageEE13kWebTransportB5cxx11) #3
  %tobool = icmp ne i32 %1, 0
  br i1 %tobool, label %init, label %init.end

init:                                             ; preds = %init.check
  call void @_ZNSaIcEC1Ev(ptr noundef nonnull align 1 dereferenceable(1) %ref.tmp) #3
  invoke void @_ZNSt7__cxx1112basic_stringIcSt11char_traitsIcESaIcEEC2IS3_EEPKcRKS3_(ptr noundef nonnull align 8 dereferenceable(32) @_ZZN8proxygen12WebTransport16isConnectMessageERKNS_11HTTPMessageEE13kWebTransportB5cxx11, ptr noundef @.str.155, ptr noundef nonnull align 1 dereferenceable(1) %ref.tmp)
          to label %invoke.cont unwind label %lpad

invoke.cont:                                      ; preds = %init
  call void @_ZNSaIcED1Ev(ptr noundef nonnull align 1 dereferenceable(1) %ref.tmp) #3
  %2 = call i32 @__cxa_atexit(ptr @_ZNSt7__cxx1112basic_stringIcSt11char_traitsIcESaIcEED1Ev, ptr @_ZZN8proxygen12WebTransport16isConnectMessageERKNS_11HTTPMessageEE13kWebTransportB5cxx11, ptr @__dso_handle) #3
  call void @__cxa_guard_release(ptr @_ZGVZN8proxygen12WebTransport16isConnectMessageERKNS_11HTTPMessageEE13kWebTransportB5cxx11) #3
  br label %init.end

init.end:                                         ; preds = %invoke.cont, %init.check, %entry
  %3 = load ptr, ptr %msg.addr, align 8
  %call = call noundef zeroext i1 @_ZNK8proxygen11HTTPMessage9isRequestEv(ptr noundef nonnull align 8 dereferenceable(616) %3)
  br i1 %call, label %land.lhs.true, label %land.end

land.lhs.true:                                    ; preds = %init.end
  %4 = load ptr, ptr %msg.addr, align 8
  call void @_ZNK8proxygen11HTTPMessage9getMethodEv(ptr sret(%"class.folly::Optional.119") align 4 %ref.tmp1, ptr noundef nonnull align 8 dereferenceable(616) %4)
  store i32 5, ptr %ref.tmp2, align 4
  %call3 = call noundef zeroext i1 @_ZN5follyeqIN8proxygen10HTTPMethodES2_EEbRKNS_8OptionalIT_EERKT0_(ptr noundef nonnull align 4 dereferenceable(8) %ref.tmp1, ptr noundef nonnull align 4 dereferenceable(4) %ref.tmp2)
  br i1 %call3, label %land.lhs.true4, label %land.end

land.lhs.true4:                                   ; preds = %land.lhs.true
  %5 = load ptr, ptr %msg.addr, align 8
  %call5 = call noundef ptr @_ZNK8proxygen11HTTPMessage18getUpgradeProtocolB5cxx11Ev(ptr noundef nonnull align 8 dereferenceable(616) %5)
  %tobool6 = icmp ne ptr %call5, null
  br i1 %tobool6, label %land.rhs, label %land.end

land.rhs:                                         ; preds = %land.lhs.true4
  %6 = load ptr, ptr %msg.addr, align 8
  %call7 = call noundef ptr @_ZNK8proxygen11HTTPMessage18getUpgradeProtocolB5cxx11Ev(ptr noundef nonnull align 8 dereferenceable(616) %6)
  %call8 = call noundef zeroext i1 @_ZSteqIcEN9__gnu_cxx11__enable_ifIXsr9__is_charIT_EE7__valueEbE6__typeERKNSt7__cxx1112basic_stringIS2_St11char_traitsIS2_ESaIS2_EEESC_(ptr noundef nonnull align 8 dereferenceable(32) %call7, ptr noundef nonnull align 8 dereferenceable(32) @_ZZN8proxygen12WebTransport16isConnectMessageERKNS_11HTTPMessageEE13kWebTransportB5cxx11) #3
  br label %land.end

land.end:                                         ; preds = %land.rhs, %land.lhs.true4, %land.lhs.true, %init.end
  %7 = phi i1 [ false, %land.lhs.true4 ], [ false, %land.lhs.true ], [ false, %init.end ], [ %call8, %land.rhs ]
  ret i1 %7

lpad:                                             ; preds = %init
  %8 = landingpad { ptr, i32 }
          cleanup
  %9 = extractvalue { ptr, i32 } %8, 0
  store ptr %9, ptr %exn.slot, align 8
  %10 = extractvalue { ptr, i32 } %8, 1
  store i32 %10, ptr %ehselector.slot, align 4
  call void @_ZNSaIcED1Ev(ptr noundef nonnull align 1 dereferenceable(1) %ref.tmp) #3
  call void @__cxa_guard_abort(ptr @_ZGVZN8proxygen12WebTransport16isConnectMessageERKNS_11HTTPMessageEE13kWebTransportB5cxx11) #3
  br label %eh.resume

eh.resume:                                        ; preds = %lpad
  %exn = load ptr, ptr %exn.slot, align 8
  %sel = load i32, ptr %ehselector.slot, align 4
  %lpad.val = insertvalue { ptr, i32 } poison, ptr %exn, 0
  %lpad.val9 = insertvalue { ptr, i32 } %lpad.val, i32 %sel, 1
  resume { ptr, i32 } %lpad.val9
}

; Function Attrs: mustprogress nounwind uwtable
define linkonce_odr noundef nonnull align 8 dereferenceable(616) ptr @_ZNKSt10unique_ptrIN8proxygen11HTTPMessageESt14default_deleteIS1_EEdeEv(ptr noundef nonnull align 8 dereferenceable(8) %this) #5 comdat align 2 {
entry:
  %this.addr = alloca ptr, align 8
  store ptr %this, ptr %this.addr, align 8
  %this1 = load ptr, ptr %this.addr, align 8
  br label %do.body

do.body:                                          ; preds = %entry
  br label %do.cond

do.cond:                                          ; preds = %do.body
  br label %do.end

do.end:                                           ; preds = %do.cond
  %call = call noundef ptr @_ZNKSt10unique_ptrIN8proxygen11HTTPMessageESt14default_deleteIS1_EE3getEv(ptr noundef nonnull align 8 dereferenceable(8) %this1) #3
  ret ptr %call
}

; Function Attrs: mustprogress uwtable
define linkonce_odr noundef zeroext i1 @_ZN5follyneIN8proxygen10HTTPMethodES2_EEbRKNS_8OptionalIT_EERKT0_(ptr noundef nonnull align 4 dereferenceable(8) %a, ptr noundef nonnull align 4 dereferenceable(4) %b) #4 comdat {
entry:
  %a.addr = alloca ptr, align 8
  %b.addr = alloca ptr, align 8
  store ptr %a, ptr %a.addr, align 8
  store ptr %b, ptr %b.addr, align 8
  %0 = load ptr, ptr %a.addr, align 8
  %1 = load ptr, ptr %b.addr, align 8
  %call = call noundef zeroext i1 @_ZN5follyeqIN8proxygen10HTTPMethodES2_EEbRKNS_8OptionalIT_EERKT0_(ptr noundef nonnull align 4 dereferenceable(8) %0, ptr noundef nonnull align 4 dereferenceable(4) %1)
  %lnot = xor i1 %call, true
  ret i1 %lnot
}

declare noundef zeroext i1 @_ZN8proxygen7RFC261623responseBodyMustBeEmptyEj(i32 noundef) #1

; Function Attrs: mustprogress nounwind uwtable
define linkonce_odr noundef nonnull align 8 dereferenceable(32) ptr @_ZN8proxygen11HTTPMessage10getHeadersEv(ptr noundef nonnull align 8 dereferenceable(616) %this) #5 comdat align 2 {
entry:
  %this.addr = alloca ptr, align 8
  store ptr %this, ptr %this.addr, align 8
  %this1 = load ptr, ptr %this.addr, align 8
  %headers_ = getelementptr inbounds %"class.proxygen::HTTPMessage", ptr %this1, i32 0, i32 9
  ret ptr %headers_
}

; Function Attrs: mustprogress uwtable
define linkonce_odr noundef nonnull align 8 dereferenceable(32) ptr @_ZNK8proxygen11HTTPHeaders16getSingleOrEmptyINS_14HTTPHeaderCodeEEERKNSt7__cxx1112basic_stringIcSt11char_traitsIcESaIcEEERKT_(ptr noundef nonnull align 8 dereferenceable(32) %this, ptr noundef nonnull align 1 dereferenceable(1) %nameOrCode) #4 comdat align 2 {
entry:
  %retval = alloca ptr, align 8
  %this.addr = alloca ptr, align 8
  %nameOrCode.addr = alloca ptr, align 8
  %res = alloca ptr, align 8
  %agg.tmp = alloca %class.anon.305, align 8
  store ptr %this, ptr %this.addr, align 8
  store ptr %nameOrCode, ptr %nameOrCode.addr, align 8
  %this1 = load ptr, ptr %this.addr, align 8
  store ptr null, ptr %res, align 8
  %0 = load ptr, ptr %nameOrCode.addr, align 8
  %1 = load i8, ptr %0, align 1
  %2 = getelementptr inbounds %class.anon.305, ptr %agg.tmp, i32 0, i32 0
  store ptr %res, ptr %2, align 8
  %coerce.dive = getelementptr inbounds %class.anon.305, ptr %agg.tmp, i32 0, i32 0
  %3 = load ptr, ptr %coerce.dive, align 8
  %call = call noundef zeroext i1 @_ZNK8proxygen11HTTPHeaders20forEachValueOfHeaderIZNKS0_16getSingleOrEmptyINS_14HTTPHeaderCodeEEERKNSt7__cxx1112basic_stringIcSt11char_traitsIcESaIcEEERKT_EUlSB_E_EEbS3_SC_(ptr noundef nonnull align 8 dereferenceable(32) %this1, i8 noundef zeroext %1, ptr %3)
  %4 = load ptr, ptr %res, align 8
  %cmp = icmp eq ptr %4, null
  br i1 %cmp, label %if.then, label %if.else

if.then:                                          ; preds = %entry
  store ptr @_ZN8proxygen12empty_stringB5cxx11E, ptr %retval, align 8
  br label %return

if.else:                                          ; preds = %entry
  %5 = load ptr, ptr %res, align 8
  store ptr %5, ptr %retval, align 8
  br label %return

return:                                           ; preds = %if.else, %if.then
  %6 = load ptr, ptr %retval, align 8
  ret ptr %6
}

; Function Attrs: nounwind
declare noundef zeroext i1 @_ZNKSt7__cxx1112basic_stringIcSt11char_traitsIcESaIcEE5emptyEv(ptr noundef nonnull align 8 dereferenceable(32)) #2

; Function Attrs: mustprogress uwtable
define linkonce_odr noundef i64 @_ZN5folly2toImNSt7__cxx1112basic_stringIcSt11char_traitsIcESaIcEEEEENSt9enable_ifIXaasr12IsSomeStringIT0_EE5valuentsr3std7is_sameINS_5RangeIPKcEET_EE5valueESD_E4typeERKS8_(ptr noundef nonnull align 8 dereferenceable(32) %src) #4 comdat {
entry:
  %src.addr = alloca ptr, align 8
  %agg.tmp = alloca %"class.folly::Range", align 8
  store ptr %src, ptr %src.addr, align 8
  %0 = load ptr, ptr %src.addr, align 8
  %call = call noundef ptr @_ZNKSt7__cxx1112basic_stringIcSt11char_traitsIcESaIcEE4dataEv(ptr noundef nonnull align 8 dereferenceable(32) %0) #3
  %1 = load ptr, ptr %src.addr, align 8
  %call1 = call noundef i64 @_ZNKSt7__cxx1112basic_stringIcSt11char_traitsIcESaIcEE4sizeEv(ptr noundef nonnull align 8 dereferenceable(32) %1) #3
  call void @_ZN5folly5RangeIPKcEC2ES2_m(ptr noundef nonnull align 8 dereferenceable(16) %agg.tmp, ptr noundef %call, i64 noundef %call1)
  %2 = getelementptr inbounds { ptr, ptr }, ptr %agg.tmp, i32 0, i32 0
  %3 = load ptr, ptr %2, align 8
  %4 = getelementptr inbounds { ptr, ptr }, ptr %agg.tmp, i32 0, i32 1
  %5 = load ptr, ptr %4, align 8
  %call2 = call noundef i64 @_ZN5folly2toImEENSt9enable_ifIXntsr3std7is_sameINS_5RangeIPKcEET_EE5valueES6_E4typeES5_(ptr %3, ptr %5)
  ret i64 %call2
}

; Function Attrs: mustprogress uwtable
define linkonce_odr noundef nonnull align 8 dereferenceable(16) ptr @_ZN5folly8OptionalImEaSImEERS1_OT_(ptr noundef nonnull align 8 dereferenceable(16) %this, ptr noundef nonnull align 8 dereferenceable(8) %arg) #4 comdat align 2 {
entry:
  %this.addr = alloca ptr, align 8
  %arg.addr = alloca ptr, align 8
  store ptr %this, ptr %this.addr, align 8
  store ptr %arg, ptr %arg.addr, align 8
  %this1 = load ptr, ptr %this.addr, align 8
  %0 = load ptr, ptr %arg.addr, align 8
  call void @_ZN5folly8OptionalImE6assignEOm(ptr noundef nonnull align 8 dereferenceable(16) %this1, ptr noundef nonnull align 8 dereferenceable(8) %0)
  ret ptr %this1
}

; Function Attrs: nounwind memory(none)
declare i32 @llvm.eh.typeid.for(ptr) #10

declare noundef nonnull align 8 dereferenceable(8) ptr @_ZStlsIcSt11char_traitsIcESaIcEERSt13basic_ostreamIT_T0_ES7_RKNSt7__cxx1112basic_stringIS4_S5_T1_EE(ptr noundef nonnull align 8 dereferenceable(8), ptr noundef nonnull align 8 dereferenceable(32)) #1

declare void @_ZN6google10LogMessageC1EPKcii(ptr noundef nonnull align 8 dereferenceable(96), ptr noundef, i32 noundef, i32 noundef) unnamed_addr #1

declare void @__cxa_end_catch()

; Function Attrs: mustprogress uwtable
define linkonce_odr noundef nonnull align 8 dereferenceable(8) ptr @_ZNR5folly8OptionalImE5valueEv(ptr noundef nonnull align 8 dereferenceable(16) %this) #4 comdat align 2 {
entry:
  %this.addr = alloca ptr, align 8
  store ptr %this, ptr %this.addr, align 8
  %this1 = load ptr, ptr %this.addr, align 8
  call void @_ZNK5folly8OptionalImE13require_valueEv(ptr noundef nonnull align 8 dereferenceable(16) %this1)
  %storage_ = getelementptr inbounds %"class.folly::Optional", ptr %this1, i32 0, i32 0
  %0 = getelementptr inbounds %"struct.folly::Optional<unsigned long>::StorageTriviallyDestructible", ptr %storage_, i32 0, i32 0
  ret ptr %0
}

; Function Attrs: mustprogress uwtable
define linkonce_odr noundef nonnull align 8 dereferenceable(16) ptr @_ZN5folly8OptionalImEaSIRmEERS1_OT_(ptr noundef nonnull align 8 dereferenceable(16) %this, ptr noundef nonnull align 8 dereferenceable(8) %arg) #4 comdat align 2 {
entry:
  %this.addr = alloca ptr, align 8
  %arg.addr = alloca ptr, align 8
  store ptr %this, ptr %this.addr, align 8
  store ptr %arg, ptr %arg.addr, align 8
  %this1 = load ptr, ptr %this.addr, align 8
  %0 = load ptr, ptr %arg.addr, align 8
  call void @_ZN5folly8OptionalImE6assignERKm(ptr noundef nonnull align 8 dereferenceable(16) %this1, ptr noundef nonnull align 8 dereferenceable(8) %0)
  ret ptr %this1
}

; Function Attrs: mustprogress nounwind uwtable
define linkonce_odr noundef nonnull align 4 dereferenceable(12) ptr @_ZNK8proxygen11HTTPMessage20getIngressHeaderSizeEv(ptr noundef nonnull align 8 dereferenceable(616) %this) #5 comdat align 2 {
entry:
  %this.addr = alloca ptr, align 8
  store ptr %this, ptr %this.addr, align 8
  %this1 = load ptr, ptr %this.addr, align 8
  %size_ = getelementptr inbounds %"class.proxygen::HTTPMessage", ptr %this1, i32 0, i32 11
  ret ptr %size_
}

; Function Attrs: mustprogress uwtable
define void @_ZN8proxygen15HTTPTransaction28updateIngressCompressionInfoERKNS_15CompressionInfoE(ptr noundef nonnull align 8 dereferenceable(912) %this, ptr noundef nonnull align 4 dereferenceable(56) %tableInfo) #4 align 2 {
entry:
  %this.addr = alloca ptr, align 8
  %tableInfo.addr = alloca ptr, align 8
  store ptr %this, ptr %this.addr, align 8
  store ptr %tableInfo, ptr %tableInfo.addr, align 8
  %this1 = load ptr, ptr %this.addr, align 8
  %0 = load ptr, ptr %tableInfo.addr, align 8
  %ingress = getelementptr inbounds %"struct.proxygen::CompressionInfo", ptr %0, i32 0, i32 1
  %tableInfo_ = getelementptr inbounds %"class.proxygen::HTTPTransaction", ptr %this1, i32 0, i32 16
  %ingress2 = getelementptr inbounds %"struct.proxygen::CompressionInfo", ptr %tableInfo_, i32 0, i32 1
  %call = call noundef nonnull align 4 dereferenceable(28) ptr @_ZN8proxygen19CompressionInfoPartaSERKS0_(ptr noundef nonnull align 4 dereferenceable(28) %ingress2, ptr noundef nonnull align 4 dereferenceable(28) %ingress)
  ret void
}

; Function Attrs: mustprogress uwtable
define noundef zeroext i1 @_ZNK8proxygen15HTTPTransaction16mustQueueIngressEv(ptr noundef nonnull align 8 dereferenceable(912) %this) #4 align 2 {
entry:
  %this.addr = alloca ptr, align 8
  store ptr %this, ptr %this.addr, align 8
  %this1 = load ptr, ptr %this.addr, align 8
  %ingressPaused_ = getelementptr inbounds %"class.proxygen::HTTPTransaction", ptr %this1, i32 0, i32 40
  %bf.load = load i32, ptr %ingressPaused_, align 8
  %bf.clear = and i32 %bf.load, 1
  %bf.cast = trunc i32 %bf.clear to i1
  br i1 %bf.cast, label %lor.end, label %lor.rhs

lor.rhs:                                          ; preds = %entry
  %deferredIngress_ = getelementptr inbounds %"class.proxygen::HTTPTransaction", ptr %this1, i32 0, i32 3
  %call = call noundef zeroext i1 @_ZNKSt10unique_ptrISt5queueIN8proxygen9HTTPEventESt5dequeIS2_SaIS2_EEESt14default_deleteIS6_EEcvbEv(ptr noundef nonnull align 8 dereferenceable(8) %deferredIngress_) #3
  br i1 %call, label %land.rhs, label %land.end

land.rhs:                                         ; preds = %lor.rhs
  %deferredIngress_2 = getelementptr inbounds %"class.proxygen::HTTPTransaction", ptr %this1, i32 0, i32 3
  %call3 = call noundef ptr @_ZNKSt10unique_ptrISt5queueIN8proxygen9HTTPEventESt5dequeIS2_SaIS2_EEESt14default_deleteIS6_EEptEv(ptr noundef nonnull align 8 dereferenceable(8) %deferredIngress_2) #3
  %call4 = call noundef zeroext i1 @_ZNKSt5queueIN8proxygen9HTTPEventESt5dequeIS1_SaIS1_EEE5emptyEv(ptr noundef nonnull align 8 dereferenceable(80) %call3)
  %lnot = xor i1 %call4, true
  br label %land.end

land.end:                                         ; preds = %land.rhs, %lor.rhs
  %0 = phi i1 [ false, %lor.rhs ], [ %lnot, %land.rhs ]
  br label %lor.end

lor.end:                                          ; preds = %land.end, %entry
  %1 = phi i1 [ true, %entry ], [ %0, %land.end ]
  ret i1 %1
}

; Function Attrs: mustprogress uwtable
define void @_ZN8proxygen15HTTPTransaction26checkCreateDeferredIngressEv(ptr noundef nonnull align 8 dereferenceable(912) %this) #4 align 2 {
entry:
  %this.addr = alloca ptr, align 8
  %ref.tmp = alloca %"class.std::unique_ptr", align 8
  store ptr %this, ptr %this.addr, align 8
  %this1 = load ptr, ptr %this.addr, align 8
  %deferredIngress_ = getelementptr inbounds %"class.proxygen::HTTPTransaction", ptr %this1, i32 0, i32 3
  %call = call noundef zeroext i1 @_ZNKSt10unique_ptrISt5queueIN8proxygen9HTTPEventESt5dequeIS2_SaIS2_EEESt14default_deleteIS6_EEcvbEv(ptr noundef nonnull align 8 dereferenceable(8) %deferredIngress_) #3
  br i1 %call, label %if.end, label %if.then

if.then:                                          ; preds = %entry
  call void @_ZSt11make_uniqueISt5queueIN8proxygen9HTTPEventESt5dequeIS2_SaIS2_EEEJEENSt8__detail9_MakeUniqIT_E15__single_objectEDpOT0_(ptr sret(%"class.std::unique_ptr") align 8 %ref.tmp)
  %deferredIngress_2 = getelementptr inbounds %"class.proxygen::HTTPTransaction", ptr %this1, i32 0, i32 3
  %call3 = call noundef nonnull align 8 dereferenceable(8) ptr @_ZNSt10unique_ptrISt5queueIN8proxygen9HTTPEventESt5dequeIS2_SaIS2_EEESt14default_deleteIS6_EEaSEOS9_(ptr noundef nonnull align 8 dereferenceable(8) %deferredIngress_2, ptr noundef nonnull align 8 dereferenceable(8) %ref.tmp) #3
  call void @_ZNSt10unique_ptrISt5queueIN8proxygen9HTTPEventESt5dequeIS2_SaIS2_EEESt14default_deleteIS6_EED2Ev(ptr noundef nonnull align 8 dereferenceable(8) %ref.tmp) #3
  br label %if.end

if.end:                                           ; preds = %if.then, %entry
  ret void
}

; Function Attrs: mustprogress nounwind uwtable
define linkonce_odr noundef ptr @_ZNKSt10unique_ptrISt5queueIN8proxygen9HTTPEventESt5dequeIS2_SaIS2_EEESt14default_deleteIS6_EEptEv(ptr noundef nonnull align 8 dereferenceable(8) %this) #5 comdat align 2 {
entry:
