target datalayout = "e-m:e-p270:32:32-p271:32:32-p272:64:64-i64:64-i128:128-f80:128-n8:16:32:64-S128"
target triple = "x86_64-unknown-linux-gnu"

%"class.std::__cxx11::basic_string" = type { %"struct.std::__cxx11::basic_string<char>::_Alloc_hider", i64, %union.anon }
%"struct.std::__cxx11::basic_string<char>::_Alloc_hider" = type { ptr }
%union.anon = type { i64, [8 x i8] }
%"class.std::unordered_map" = type { %"class.std::_Hashtable" }
%"class.std::_Hashtable" = type { ptr, i64, %"struct.std::__detail::_Hash_node_base", i64, %"struct.std::__detail::_Prime_rehash_policy", ptr }
%"struct.std::__detail::_Hash_node_base" = type { ptr }
%"struct.std::__detail::_Prime_rehash_policy" = type { float, i64 }
%"class.std::unordered_map.8" = type { %"class.std::_Hashtable.9" }
%"class.std::_Hashtable.9" = type { ptr, i64, %"struct.std::__detail::_Hash_node_base", i64, %"struct.std::__detail::_Prime_rehash_policy", ptr }
%"class.std::unordered_map.29" = type { %"class.std::_Hashtable.30" }
%"class.std::_Hashtable.30" = type { ptr, i64, %"struct.std::__detail::_Hash_node_base", i64, %"struct.std::__detail::_Prime_rehash_policy", ptr }
%"class.std::unordered_map.50" = type { %"class.std::_Hashtable.51" }
%"class.std::_Hashtable.51" = type { ptr, i64, %"struct.std::__detail::_Hash_node_base", i64, %"struct.std::__detail::_Prime_rehash_policy", ptr }
%"class.std::unordered_map.71" = type { %"class.std::_Hashtable.72" }
%"class.std::_Hashtable.72" = type { ptr, i64, %"struct.std::__detail::_Hash_node_base", i64, %"struct.std::__detail::_Prime_rehash_policy", ptr }
%"class.std::allocator" = type { i8 }
%"class.std::initializer_list" = type { ptr, i64 }
%"struct.std::pair" = type <{ %"class.std::__cxx11::basic_string", i8, [7 x i8] }>
%"struct.std::hash" = type { i8 }
%"struct.std::equal_to" = type { i8 }
%"class.std::allocator.5" = type { i8 }
%"class.std::initializer_list.22" = type { ptr, i64 }
%"struct.std::pair.23" = type <{ %"class.std::__cxx11::basic_string", i32, [4 x i8] }>
%"class.std::allocator.26" = type { i8 }
%"class.std::initializer_list.43" = type { ptr, i64 }
%"struct.std::pair.44" = type <{ %"class.std::__cxx11::basic_string", i8, [7 x i8] }>
%"class.std::allocator.47" = type { i8 }
%"class.std::initializer_list.64" = type { ptr, i64 }
%"struct.std::pair.65" = type <{ %"class.std::__cxx11::basic_string", i8, [7 x i8] }>
%"class.std::allocator.68" = type { i8 }
%"class.std::initializer_list.85" = type { ptr, i64 }
%"struct.std::pair.86" = type { %"class.std::__cxx11::basic_string", %"class.rocksdb::OptionTypeInfo" }
%"class.rocksdb::OptionTypeInfo" = type <{ i32, [4 x i8], %"class.std::function", %"class.std::function.88", %"class.std::function.90", %"class.std::function.92", %"class.std::function.94", i32, i32, i32, [4 x i8] }>
%"class.std::function" = type { %"class.std::_Function_base", ptr }
%"class.std::_Function_base" = type { %"union.std::_Any_data", ptr }
%"union.std::_Any_data" = type { %"union.std::_Nocopy_types" }
%"union.std::_Nocopy_types" = type { { i64, i64 } }
%"class.std::function.88" = type { %"class.std::_Function_base", ptr }
%"class.std::function.90" = type { %"class.std::_Function_base", ptr }
%"class.std::function.92" = type { %"class.std::_Function_base", ptr }
%"class.std::function.94" = type { %"class.std::_Function_base", ptr }
%"class.std::allocator.96" = type { i8 }
%class.anon = type { i8 }
%class.anon.99 = type { i8 }
%class.anon.101 = type { i8 }
%class.anon.103 = type { i8 }
%class.anon.105 = type { i8 }
%class.anon.107 = type { i8 }
%class.anon.291 = type { i8 }
%class.anon.293 = type { ptr }
%class.anon.294 = type { ptr }
%class.anon.295 = type { i8 }
%class.anon.298 = type { ptr }
%class.anon.299 = type { ptr }
%class.anon.300 = type { i8 }
%class.anon.303 = type { ptr }
%class.anon.304 = type { ptr }
%class.anon.305 = type { i8 }
%class.anon.308 = type { i8 }
%class.anon.310 = type { i8 }
%class.anon.312 = type { ptr }
%class.anon.313 = type { ptr }
%class.anon.314 = type { i8 }
%"class.std::unique_ptr" = type { %"struct.std::__uniq_ptr_data" }
%"struct.std::__uniq_ptr_data" = type { %"class.std::__uniq_ptr_impl" }
%"class.std::__uniq_ptr_impl" = type { %"class.std::tuple" }
%"class.std::tuple" = type { %"struct.std::_Tuple_impl" }
%"struct.std::_Tuple_impl" = type { %"struct.std::_Head_base.110" }
%"struct.std::_Head_base.110" = type { ptr }
%"class.rocksdb::MutableDBConfigurable" = type { %"class.rocksdb::Configurable", %"struct.rocksdb::MutableDBOptions", ptr }
%"class.rocksdb::Configurable" = type { ptr, %"class.std::vector" }
%"class.std::vector" = type { %"struct.std::_Vector_base" }
%"struct.std::_Vector_base" = type { %"struct.std::_Vector_base<rocksdb::Configurable::RegisteredOptions, std::allocator<rocksdb::Configurable::RegisteredOptions>>::_Vector_impl" }
%"struct.std::_Vector_base<rocksdb::Configurable::RegisteredOptions, std::allocator<rocksdb::Configurable::RegisteredOptions>>::_Vector_impl" = type { %"struct.std::_Vector_base<rocksdb::Configurable::RegisteredOptions, std::allocator<rocksdb::Configurable::RegisteredOptions>>::_Vector_impl_data" }
%"struct.std::_Vector_base<rocksdb::Configurable::RegisteredOptions, std::allocator<rocksdb::Configurable::RegisteredOptions>>::_Vector_impl_data" = type { ptr, ptr, ptr }
%"struct.rocksdb::MutableDBOptions" = type { i32, i32, i32, i8, i64, i64, i64, i64, i32, i32, i64, i32, i64, i64, i8, i64, i32, %"class.std::__cxx11::basic_string" }
%"struct.rocksdb::ImmutableDBOptions" = type <{ i8, i8, i8, i8, i8, i8, i8, i8, ptr, %"class.std::shared_ptr", %"class.std::shared_ptr.114", %"class.std::shared_ptr.117", i8, [3 x i8], i32, %"class.std::shared_ptr.120", i8, [7 x i8], %"class.std::vector.123", %"class.std::__cxx11::basic_string", %"class.std::__cxx11::basic_string", i64, i64, i64, i64, i64, i32, [4 x i8], i64, i64, i64, i64, i8, i8, i8, i8, i8, i8, i8, i8, i64, %"class.std::shared_ptr.128", i32, [4 x i8], i64, i8, [7 x i8], %"class.std::vector.131", i8, i8, i8, i8, i8, [3 x i8], i64, i64, i8, i8, i8, i8, [4 x i8], %"class.std::shared_ptr.136", ptr, i8, i8, i8, i8, i8, i8, i8, i8, i8, i8, i8, [5 x i8], i64, %"class.std::shared_ptr.139", i8, [3 x i8], i32, i64, i8, [7 x i8], %"class.std::__cxx11::basic_string", %"class.rocksdb::SmallEnumSet", i8, [7 x i8], %"class.std::shared_ptr.142", ptr, ptr, ptr, %"class.std::shared_ptr.145", i8, [7 x i8] }>
%"class.std::shared_ptr" = type { %"class.std::__shared_ptr" }
%"class.std::__shared_ptr" = type { ptr, %"class.std::__shared_count" }
%"class.std::__shared_count" = type { ptr }
%"class.std::shared_ptr.114" = type { %"class.std::__shared_ptr.115" }
%"class.std::__shared_ptr.115" = type { ptr, %"class.std::__shared_count" }
%"class.std::shared_ptr.117" = type { %"class.std::__shared_ptr.118" }
%"class.std::__shared_ptr.118" = type { ptr, %"class.std::__shared_count" }
%"class.std::shared_ptr.120" = type { %"class.std::__shared_ptr.121" }
%"class.std::__shared_ptr.121" = type { ptr, %"class.std::__shared_count" }
%"class.std::vector.123" = type { %"struct.std::_Vector_base.124" }
%"struct.std::_Vector_base.124" = type { %"struct.std::_Vector_base<rocksdb::DbPath, std::allocator<rocksdb::DbPath>>::_Vector_impl" }
%"struct.std::_Vector_base<rocksdb::DbPath, std::allocator<rocksdb::DbPath>>::_Vector_impl" = type { %"struct.std::_Vector_base<rocksdb::DbPath, std::allocator<rocksdb::DbPath>>::_Vector_impl_data" }
%"struct.std::_Vector_base<rocksdb::DbPath, std::allocator<rocksdb::DbPath>>::_Vector_impl_data" = type { ptr, ptr, ptr }
%"class.std::shared_ptr.128" = type { %"class.std::__shared_ptr.129" }
%"class.std::__shared_ptr.129" = type { ptr, %"class.std::__shared_count" }
%"class.std::vector.131" = type { %"struct.std::_Vector_base.132" }
%"struct.std::_Vector_base.132" = type { %"struct.std::_Vector_base<std::shared_ptr<rocksdb::EventListener>, std::allocator<std::shared_ptr<rocksdb::EventListener>>>::_Vector_impl" }
%"struct.std::_Vector_base<std::shared_ptr<rocksdb::EventListener>, std::allocator<std::shared_ptr<rocksdb::EventListener>>>::_Vector_impl" = type { %"struct.std::_Vector_base<std::shared_ptr<rocksdb::EventListener>, std::allocator<std::shared_ptr<rocksdb::EventListener>>>::_Vector_impl_data" }
%"struct.std::_Vector_base<std::shared_ptr<rocksdb::EventListener>, std::allocator<std::shared_ptr<rocksdb::EventListener>>>::_Vector_impl_data" = type { ptr, ptr, ptr }
%"class.std::shared_ptr.136" = type { %"class.std::__shared_ptr.137" }
%"class.std::__shared_ptr.137" = type { ptr, %"class.std::__shared_count" }
%"class.std::shared_ptr.139" = type { %"class.std::__shared_ptr.140" }
%"class.std::__shared_ptr.140" = type { ptr, %"class.std::__shared_count" }
%"class.rocksdb::SmallEnumSet" = type { i64 }
%"class.std::shared_ptr.142" = type { %"class.std::__shared_ptr.143" }
%"class.std::__shared_ptr.143" = type { ptr, %"class.std::__shared_count" }
%"class.std::shared_ptr.145" = type { %"class.std::__shared_ptr.146" }
%"class.std::__shared_ptr.146" = type { ptr, %"class.std::__shared_count" }
%"struct.rocksdb::DBOptions" = type { i8, i8, i8, i8, i8, i8, i8, i8, ptr, %"class.std::shared_ptr", %"class.std::shared_ptr.114", %"class.std::shared_ptr.117", i8, i32, i32, i64, %"class.std::shared_ptr.120", i8, %"class.std::vector.123", %"class.std::__cxx11::basic_string", %"class.std::__cxx11::basic_string", i64, i32, i32, i32, i32, i64, i64, i64, i64, i64, i32, i64, i64, i64, i8, i8, i8, i8, i8, i8, i32, i32, i8, i64, i8, i64, %"class.std::shared_ptr.128", i32, i64, i64, i64, i8, i64, i64, i8, %"class.std::vector.131", i8, i64, i8, i8, i8, i8, i64, i64, i64, i8, i8, i8, i8, %"class.std::shared_ptr.136", ptr, i8, i8, i8, i8, i8, i8, i8, i8, i8, i8, i8, i64, %"class.std::shared_ptr.139", i8, i32, i64, i8, %"class.std::__cxx11::basic_string", %"class.rocksdb::SmallEnumSet", %"class.std::shared_ptr.145", i8, i8, %"class.std::__cxx11::basic_string" }
%"class.rocksdb::DBOptionsConfigurable" = type { %"class.rocksdb::MutableDBConfigurable", %"struct.rocksdb::ImmutableDBOptions", %"struct.rocksdb::DBOptions" }
%"struct.rocksdb::Options" = type <{ %"struct.rocksdb::DBOptions", %"struct.rocksdb::ColumnFamilyOptions.base", [4 x i8] }>
%"struct.rocksdb::ColumnFamilyOptions.base" = type <{ %"struct.rocksdb::AdvancedColumnFamilyOptions", ptr, %"class.std::shared_ptr.174", ptr, %"class.std::shared_ptr.177", i64, i8, i8, [6 x i8], %"struct.rocksdb::CompressionOptions", %"struct.rocksdb::CompressionOptions", i32, [4 x i8], %"class.std::shared_ptr.148", i64, i64, i8, [7 x i8], %"class.std::shared_ptr.180", %"class.std::vector.123", %"class.std::shared_ptr.183", %"class.std::shared_ptr.186", i32 }>
%"struct.rocksdb::AdvancedColumnFamilyOptions" = type { i32, i32, i32, i64, i8, i64, double, ptr, double, i8, i64, %"class.std::shared_ptr.148", i32, i64, %"class.std::vector.151", i32, i32, i32, i64, i32, i8, i8, double, %"class.std::vector.156", i64, i8, i64, i64, i8, i8, [2 x i8], %"class.rocksdb::CompactionOptionsUniversal", %"struct.rocksdb::CompactionOptionsFIFO", i64, %"class.std::shared_ptr.166", %"class.std::vector.169", i64, i8, i8, i8, i8, i8, i64, i64, i64, i8, i8, i8, i64, i64, i8, i64, i64, i8, i8, double, double, i64, i32, %"class.std::shared_ptr.136", i8, i32, i8, i8, i32 }
%"class.std::vector.151" = type { %"struct.std::_Vector_base.152" }
%"struct.std::_Vector_base.152" = type { %"struct.std::_Vector_base<rocksdb::CompressionType, std::allocator<rocksdb::CompressionType>>::_Vector_impl" }
%"struct.std::_Vector_base<rocksdb::CompressionType, std::allocator<rocksdb::CompressionType>>::_Vector_impl" = type { %"struct.std::_Vector_base<rocksdb::CompressionType, std::allocator<rocksdb::CompressionType>>::_Vector_impl_data" }
%"struct.std::_Vector_base<rocksdb::CompressionType, std::allocator<rocksdb::CompressionType>>::_Vector_impl_data" = type { ptr, ptr, ptr }
%"class.std::vector.156" = type { %"struct.std::_Vector_base.157" }
%"struct.std::_Vector_base.157" = type { %"struct.std::_Vector_base<int, std::allocator<int>>::_Vector_impl" }
%"struct.std::_Vector_base<int, std::allocator<int>>::_Vector_impl" = type { %"struct.std::_Vector_base<int, std::allocator<int>>::_Vector_impl_data" }
%"struct.std::_Vector_base<int, std::allocator<int>>::_Vector_impl_data" = type { ptr, ptr, ptr }
%"class.rocksdb::CompactionOptionsUniversal" = type <{ i32, i32, i32, i32, i32, i32, i8, i8, [2 x i8] }>
%"struct.rocksdb::CompactionOptionsFIFO" = type { i64, i8, i64, %"class.std::vector.161" }
%"class.std::vector.161" = type { %"struct.std::_Vector_base.162" }
%"struct.std::_Vector_base.162" = type { %"struct.std::_Vector_base<rocksdb::FileTemperatureAge, std::allocator<rocksdb::FileTemperatureAge>>::_Vector_impl" }
%"struct.std::_Vector_base<rocksdb::FileTemperatureAge, std::allocator<rocksdb::FileTemperatureAge>>::_Vector_impl" = type { %"struct.std::_Vector_base<rocksdb::FileTemperatureAge, std::allocator<rocksdb::FileTemperatureAge>>::_Vector_impl_data" }
%"struct.std::_Vector_base<rocksdb::FileTemperatureAge, std::allocator<rocksdb::FileTemperatureAge>>::_Vector_impl_data" = type { ptr, ptr, ptr }
%"class.std::shared_ptr.166" = type { %"class.std::__shared_ptr.167" }
%"class.std::__shared_ptr.167" = type { ptr, %"class.std::__shared_count" }
%"class.std::vector.169" = type { %"struct.std::_Vector_base.170" }
%"struct.std::_Vector_base.170" = type { %"struct.std::_Vector_base<std::shared_ptr<rocksdb::TablePropertiesCollectorFactory>, std::allocator<std::shared_ptr<rocksdb::TablePropertiesCollectorFactory>>>::_Vector_impl" }
%"struct.std::_Vector_base<std::shared_ptr<rocksdb::TablePropertiesCollectorFactory>, std::allocator<std::shared_ptr<rocksdb::TablePropertiesCollectorFactory>>>::_Vector_impl" = type { %"struct.std::_Vector_base<std::shared_ptr<rocksdb::TablePropertiesCollectorFactory>, std::allocator<std::shared_ptr<rocksdb::TablePropertiesCollectorFactory>>>::_Vector_impl_data" }
%"struct.std::_Vector_base<std::shared_ptr<rocksdb::TablePropertiesCollectorFactory>, std::allocator<std::shared_ptr<rocksdb::TablePropertiesCollectorFactory>>>::_Vector_impl_data" = type { ptr, ptr, ptr }
%"class.std::shared_ptr.174" = type { %"class.std::__shared_ptr.175" }
%"class.std::__shared_ptr.175" = type { ptr, %"class.std::__shared_count" }
%"class.std::shared_ptr.177" = type { %"class.std::__shared_ptr.178" }
%"class.std::__shared_ptr.178" = type { ptr, %"class.std::__shared_count" }
%"struct.rocksdb::CompressionOptions" = type <{ i32, i32, i32, i32, i32, i32, i8, [7 x i8], i64, i8, [3 x i8], i32, i8, [7 x i8] }>
%"class.std::shared_ptr.148" = type { %"class.std::__shared_ptr.149" }
%"class.std::__shared_ptr.149" = type { ptr, %"class.std::__shared_count" }
%"class.std::shared_ptr.180" = type { %"class.std::__shared_ptr.181" }
%"class.std::__shared_ptr.181" = type { ptr, %"class.std::__shared_count" }
%"class.std::shared_ptr.183" = type { %"class.std::__shared_ptr.184" }
%"class.std::__shared_ptr.184" = type { ptr, %"class.std::__shared_count" }
%"class.std::shared_ptr.186" = type { %"class.std::__shared_ptr.187" }
%"class.std::__shared_ptr.187" = type { ptr, %"class.std::__shared_count" }
%"class.std::allocator.125" = type { i8 }
%"class.__gnu_cxx::__normal_iterator" = type { ptr }
%"class.std::allocator.133" = type { i8 }
%"class.__gnu_cxx::__normal_iterator.260" = type { ptr }
%"class.std::__shared_ptr.190" = type { ptr, %"class.std::__shared_count" }
%"class.rocksdb::Statistics" = type <{ %"class.rocksdb::Customizable", %"struct.std::atomic", [7 x i8] }>
%"class.rocksdb::Customizable" = type { %"class.rocksdb::Configurable" }
%"struct.std::atomic" = type { i8 }
%"struct.rocksdb::DbPath" = type { %"class.std::__cxx11::basic_string", i64 }
%"class.rocksdb::Status" = type { i8, i8, i8, i8, i8, i8, %"class.std::unique_ptr.197" }
%"class.std::unique_ptr.197" = type { %"struct.std::__uniq_ptr_data.198" }
%"struct.std::__uniq_ptr_data.198" = type { %"class.std::__uniq_ptr_impl.199" }
%"class.std::__uniq_ptr_impl.199" = type { %"class.std::tuple.200" }
%"class.std::tuple.200" = type { %"struct.std::_Tuple_impl.201" }
%"struct.std::_Tuple_impl.201" = type { %"struct.std::_Head_base.204" }
%"struct.std::_Head_base.204" = type { ptr }
%"struct.rocksdb::ConfigOptions" = type { i8, i8, i8, i8, i8, %"class.std::__cxx11::basic_string", i32, i8, i64, ptr, %"class.std::shared_ptr.205" }
%"class.std::shared_ptr.205" = type { %"class.std::__shared_ptr.206" }
%"class.std::__shared_ptr.206" = type { ptr, %"class.std::__shared_count" }
%"struct.std::__detail::_Hash_node_value_base" = type { %"struct.__gnu_cxx::__aligned_buffer" }
%"struct.__gnu_cxx::__aligned_buffer" = type { %"union.std::aligned_storage<40, 8>::type" }
%"union.std::aligned_storage<40, 8>::type" = type { [40 x i8] }
%"class.std::allocator.222" = type { i8 }
%"struct.std::__detail::_Hash_node_value_base.227" = type { %"struct.__gnu_cxx::__aligned_buffer.228" }
%"struct.__gnu_cxx::__aligned_buffer.228" = type { %"union.std::aligned_storage<40, 8>::type" }
%"struct.std::__detail::_Hash_node_value_base.231" = type { %"struct.__gnu_cxx::__aligned_buffer.232" }
%"struct.__gnu_cxx::__aligned_buffer.232" = type { %"union.std::aligned_storage<40, 8>::type" }
%"struct.std::__detail::_Hash_node_value_base.235" = type { %"struct.__gnu_cxx::__aligned_buffer.236" }
%"struct.__gnu_cxx::__aligned_buffer.236" = type { %"union.std::aligned_storage<40, 8>::type" }
%"struct.std::__detail::_Hash_node_value_base.239" = type { %"struct.__gnu_cxx::__aligned_buffer.240" }
%"struct.__gnu_cxx::__aligned_buffer.240" = type { %"union.std::aligned_storage<216, 8>::type" }
%"union.std::aligned_storage<216, 8>::type" = type { [216 x i8] }
%"struct.std::__detail::_Node_const_iterator" = type { %"struct.std::__detail::_Node_iterator_base" }
%"struct.std::__detail::_Node_iterator_base" = type { ptr }
%"struct.std::pair.243" = type { %"class.std::__cxx11::basic_string", %"class.std::__cxx11::basic_string" }
%"struct.rocksdb::Configurable::RegisteredOptions" = type { %"class.std::__cxx11::basic_string", ptr, ptr }
%"class.std::unordered_map.208" = type { %"class.std::_Hashtable.209" }
%"class.std::_Hashtable.209" = type { ptr, i64, %"struct.std::__detail::_Hash_node_base", i64, %"struct.std::__detail::_Prime_rehash_policy", ptr }
%"struct.std::__detail::_Select1st" = type { i8 }
%"struct.std::__detail::_Hash_node_value_base.247" = type { %"struct.__gnu_cxx::__aligned_buffer.248" }
%"struct.__gnu_cxx::__aligned_buffer.248" = type { %"union.std::aligned_storage<64, 8>::type" }
%"union.std::aligned_storage<64, 8>::type" = type { [64 x i8] }
%"struct.std::__detail::_Mod_range_hashing" = type { i8 }
%"struct.std::__detail::_Hash_node_code_cache" = type { i64 }
%"class.std::__shared_ptr.252" = type { ptr, %"class.std::__shared_count" }
%"class.std::_Sp_counted_base" = type { ptr, i32, i32 }
%"struct.rocksdb::ColumnFamilyOptions" = type <{ %"struct.rocksdb::AdvancedColumnFamilyOptions", ptr, %"class.std::shared_ptr.174", ptr, %"class.std::shared_ptr.177", i64, i8, i8, [6 x i8], %"struct.rocksdb::CompressionOptions", %"struct.rocksdb::CompressionOptions", i32, [4 x i8], %"class.std::shared_ptr.148", i64, i64, i8, [7 x i8], %"class.std::shared_ptr.180", %"class.std::vector.123", %"class.std::shared_ptr.183", %"class.std::shared_ptr.186", i32, [4 x i8] }>
%"class.std::shared_ptr.254" = type { %"class.std::__shared_ptr.255" }
%"class.std::__shared_ptr.255" = type { ptr, %"class.std::__shared_count" }
%struct._Guard = type { ptr }
%"class.std::shared_ptr.257" = type { %"class.std::__shared_ptr.258" }
%"class.std::__shared_ptr.258" = type { ptr, %"class.std::__shared_count" }
%"struct.std::pair.261" = type <{ %"struct.std::__detail::_Node_iterator", i8, [7 x i8] }>
%"struct.std::__detail::_Node_iterator" = type { %"struct.std::__detail::_Node_iterator_base.263" }
%"struct.std::__detail::_Node_iterator_base.263" = type { ptr }
%"struct.std::__detail::_AllocNode" = type { ptr }
%"class.std::allocator.2" = type { i8 }
%"struct.std::_Hashtable<std::__cxx11::basic_string<char>, std::pair<const std::__cxx11::basic_string<char>, rocksdb::WALRecoveryMode>, std::allocator<std::pair<const std::__cxx11::basic_string<char>, rocksdb::WALRecoveryMode>>, std::__detail::_Select1st, std::equal_to<std::__cxx11::basic_string<char>>, std::hash<string>, std::__detail::_Mod_range_hashing, std::__detail::_Default_ranged_hash, std::__detail::_Prime_rehash_policy, std::__detail::_Hashtable_traits<true, false, true>>::_Scoped_node" = type { ptr, ptr }
%"struct.std::pair.265" = type { i8, i64 }
%"struct.std::pair.267" = type <{ %"struct.std::__detail::_Node_iterator.269", i8, [7 x i8] }>
%"struct.std::__detail::_Node_iterator.269" = type { %"struct.std::__detail::_Node_iterator_base.270" }
%"struct.std::__detail::_Node_iterator_base.270" = type { ptr }
%"struct.std::__detail::_AllocNode.272" = type { ptr }
%"class.std::allocator.19" = type { i8 }
%"struct.std::_Hashtable<std::__cxx11::basic_string<char>, std::pair<const std::__cxx11::basic_string<char>, rocksdb::DBOptions::AccessHint>, std::allocator<std::pair<const std::__cxx11::basic_string<char>, rocksdb::DBOptions::AccessHint>>, std::__detail::_Select1st, std::equal_to<std::__cxx11::basic_string<char>>, std::hash<string>, std::__detail::_Mod_range_hashing, std::__detail::_Default_ranged_hash, std::__detail::_Prime_rehash_policy, std::__detail::_Hashtable_traits<true, false, true>>::_Scoped_node" = type { ptr, ptr }
%"struct.std::pair.273" = type <{ %"struct.std::__detail::_Node_iterator.275", i8, [7 x i8] }>
%"struct.std::__detail::_Node_iterator.275" = type { %"struct.std::__detail::_Node_iterator_base.276" }
%"struct.std::__detail::_Node_iterator_base.276" = type { ptr }
%"struct.std::__detail::_AllocNode.278" = type { ptr }
%"class.std::allocator.40" = type { i8 }
%"struct.std::_Hashtable<std::__cxx11::basic_string<char>, std::pair<const std::__cxx11::basic_string<char>, rocksdb::CacheTier>, std::allocator<std::pair<const std::__cxx11::basic_string<char>, rocksdb::CacheTier>>, std::__detail::_Select1st, std::equal_to<std::__cxx11::basic_string<char>>, std::hash<string>, std::__detail::_Mod_range_hashing, std::__detail::_Default_ranged_hash, std::__detail::_Prime_rehash_policy, std::__detail::_Hashtable_traits<true, false, true>>::_Scoped_node" = type { ptr, ptr }
%"struct.std::pair.279" = type <{ %"struct.std::__detail::_Node_iterator.281", i8, [7 x i8] }>
%"struct.std::__detail::_Node_iterator.281" = type { %"struct.std::__detail::_Node_iterator_base.282" }
%"struct.std::__detail::_Node_iterator_base.282" = type { ptr }
%"struct.std::__detail::_AllocNode.284" = type { ptr }
%"class.std::allocator.61" = type { i8 }
%"struct.std::_Hashtable<std::__cxx11::basic_string<char>, std::pair<const std::__cxx11::basic_string<char>, rocksdb::InfoLogLevel>, std::allocator<std::pair<const std::__cxx11::basic_string<char>, rocksdb::InfoLogLevel>>, std::__detail::_Select1st, std::equal_to<std::__cxx11::basic_string<char>>, std::hash<string>, std::__detail::_Mod_range_hashing, std::__detail::_Default_ranged_hash, std::__detail::_Prime_rehash_policy, std::__detail::_Hashtable_traits<true, false, true>>::_Scoped_node" = type { ptr, ptr }
%"struct.std::pair.285" = type <{ %"struct.std::__detail::_Node_iterator.287", i8, [7 x i8] }>
%"struct.std::__detail::_Node_iterator.287" = type { %"struct.std::__detail::_Node_iterator_base.288" }
%"struct.std::__detail::_Node_iterator_base.288" = type { ptr }
%"struct.std::__detail::_AllocNode.290" = type { ptr }
%"class.std::allocator.82" = type { i8 }
%"struct.std::_Hashtable<std::__cxx11::basic_string<char>, std::pair<const std::__cxx11::basic_string<char>, rocksdb::OptionTypeInfo>, std::allocator<std::pair<const std::__cxx11::basic_string<char>, rocksdb::OptionTypeInfo>>, std::__detail::_Select1st, std::equal_to<std::__cxx11::basic_string<char>>, std::hash<string>, std::__detail::_Mod_range_hashing, std::__detail::_Default_ranged_hash, std::__detail::_Prime_rehash_policy, std::__detail::_Hashtable_traits<true, false, true>>::_Scoped_node" = type { ptr, ptr }
%"class.rocksdb::Slice" = type { ptr, i64 }
%"struct.std::__detail::_Node_const_iterator.297" = type { %"struct.std::__detail::_Node_iterator_base.263" }
%"struct.std::__detail::_Node_const_iterator.302" = type { %"struct.std::__detail::_Node_iterator_base.270" }
%"struct.std::__detail::_Node_const_iterator.307" = type { %"struct.std::__detail::_Node_iterator_base.282" }
%"struct.std::__detail::_Node_const_iterator.316" = type { %"struct.std::__detail::_Node_iterator_base.276" }
%"class.std::_Sp_counted_ptr" = type { %"class.std::_Sp_counted_base", ptr }
%"class.__gnu_cxx::__normal_iterator.318" = type { ptr }

$_ZNSt7__cxx1112basic_stringIcSt11char_traitsIcESaIcEEC2IS3_EEPKcRKS3_ = comdat any

$_ZNSt4pairIKNSt7__cxx1112basic_stringIcSt11char_traitsIcESaIcEEEN7rocksdb15WALRecoveryModeEEC2IRA30_KcS8_TnNSt9enable_ifIXaaclsr5_PCCPE22_MoveConstructiblePairIT_T0_EEclsr5_PCCPE30_ImplicitlyMoveConvertiblePairISF_SG_EEEbE4typeELb1EEEOSF_OSG_ = comdat any

$_ZNSt4pairIKNSt7__cxx1112basic_stringIcSt11char_traitsIcESaIcEEEN7rocksdb15WALRecoveryModeEEC2IRA21_KcS8_TnNSt9enable_ifIXaaclsr5_PCCPE22_MoveConstructiblePairIT_T0_EEclsr5_PCCPE30_ImplicitlyMoveConvertiblePairISF_SG_EEEbE4typeELb1EEEOSF_OSG_ = comdat any

$_ZNSt4pairIKNSt7__cxx1112basic_stringIcSt11char_traitsIcESaIcEEEN7rocksdb15WALRecoveryModeEEC2IRA25_KcS8_TnNSt9enable_ifIXaaclsr5_PCCPE22_MoveConstructiblePairIT_T0_EEclsr5_PCCPE30_ImplicitlyMoveConvertiblePairISF_SG_EEEbE4typeELb1EEEOSF_OSG_ = comdat any

$_ZNSt4pairIKNSt7__cxx1112basic_stringIcSt11char_traitsIcESaIcEEEN7rocksdb15WALRecoveryModeEED2Ev = comdat any

$_ZNSaISt4pairIKNSt7__cxx1112basic_stringIcSt11char_traitsIcESaIcEEEN7rocksdb15WALRecoveryModeEEEC2Ev = comdat any

$_ZNSt13unordered_mapINSt7__cxx1112basic_stringIcSt11char_traitsIcESaIcEEEN7rocksdb15WALRecoveryModeESt4hashIS5_ESt8equal_toIS5_ESaISt4pairIKS5_S7_EEEC2ESt16initializer_listISE_EmRKS9_RKSB_RKSF_ = comdat any

$_ZNSaISt4pairIKNSt7__cxx1112basic_stringIcSt11char_traitsIcESaIcEEEN7rocksdb15WALRecoveryModeEEED2Ev = comdat any

$_ZNSt13unordered_mapINSt7__cxx1112basic_stringIcSt11char_traitsIcESaIcEEEN7rocksdb15WALRecoveryModeESt4hashIS5_ESt8equal_toIS5_ESaISt4pairIKS5_S7_EEED2Ev = comdat any

$_ZNSt4pairIKNSt7__cxx1112basic_stringIcSt11char_traitsIcESaIcEEEN7rocksdb9DBOptions10AccessHintEEC2IRA5_KcS9_TnNSt9enable_ifIXaaclsr5_PCCPE22_MoveConstructiblePairIT_T0_EEclsr5_PCCPE30_ImplicitlyMoveConvertiblePairISG_SH_EEEbE4typeELb1EEEOSG_OSH_ = comdat any

$_ZNSt4pairIKNSt7__cxx1112basic_stringIcSt11char_traitsIcESaIcEEEN7rocksdb9DBOptions10AccessHintEEC2IRA7_KcS9_TnNSt9enable_ifIXaaclsr5_PCCPE22_MoveConstructiblePairIT_T0_EEclsr5_PCCPE30_ImplicitlyMoveConvertiblePairISG_SH_EEEbE4typeELb1EEEOSG_OSH_ = comdat any

$_ZNSt4pairIKNSt7__cxx1112basic_stringIcSt11char_traitsIcESaIcEEEN7rocksdb9DBOptions10AccessHintEEC2IRA11_KcS9_TnNSt9enable_ifIXaaclsr5_PCCPE22_MoveConstructiblePairIT_T0_EEclsr5_PCCPE30_ImplicitlyMoveConvertiblePairISG_SH_EEEbE4typeELb1EEEOSG_OSH_ = comdat any

$_ZNSt4pairIKNSt7__cxx1112basic_stringIcSt11char_traitsIcESaIcEEEN7rocksdb9DBOptions10AccessHintEEC2IRA9_KcS9_TnNSt9enable_ifIXaaclsr5_PCCPE22_MoveConstructiblePairIT_T0_EEclsr5_PCCPE30_ImplicitlyMoveConvertiblePairISG_SH_EEEbE4typeELb1EEEOSG_OSH_ = comdat any

$_ZNSt4pairIKNSt7__cxx1112basic_stringIcSt11char_traitsIcESaIcEEEN7rocksdb9DBOptions10AccessHintEED2Ev = comdat any

$_ZNSaISt4pairIKNSt7__cxx1112basic_stringIcSt11char_traitsIcESaIcEEEN7rocksdb9DBOptions10AccessHintEEEC2Ev = comdat any

$_ZNSt13unordered_mapINSt7__cxx1112basic_stringIcSt11char_traitsIcESaIcEEEN7rocksdb9DBOptions10AccessHintESt4hashIS5_ESt8equal_toIS5_ESaISt4pairIKS5_S8_EEEC2ESt16initializer_listISF_EmRKSA_RKSC_RKSG_ = comdat any

$_ZNSaISt4pairIKNSt7__cxx1112basic_stringIcSt11char_traitsIcESaIcEEEN7rocksdb9DBOptions10AccessHintEEED2Ev = comdat any

$_ZNSt13unordered_mapINSt7__cxx1112basic_stringIcSt11char_traitsIcESaIcEEEN7rocksdb9DBOptions10AccessHintESt4hashIS5_ESt8equal_toIS5_ESaISt4pairIKS5_S8_EEED2Ev = comdat any

$_ZNSt4pairIKNSt7__cxx1112basic_stringIcSt11char_traitsIcESaIcEEEN7rocksdb9CacheTierEEC2IRA14_KcS8_TnNSt9enable_ifIXaaclsr5_PCCPE22_MoveConstructiblePairIT_T0_EEclsr5_PCCPE30_ImplicitlyMoveConvertiblePairISF_SG_EEEbE4typeELb1EEEOSF_OSG_ = comdat any

$_ZNSt4pairIKNSt7__cxx1112basic_stringIcSt11char_traitsIcESaIcEEEN7rocksdb9CacheTierEEC2IRA22_KcS8_TnNSt9enable_ifIXaaclsr5_PCCPE22_MoveConstructiblePairIT_T0_EEclsr5_PCCPE30_ImplicitlyMoveConvertiblePairISF_SG_EEEbE4typeELb1EEEOSF_OSG_ = comdat any

$_ZNSt4pairIKNSt7__cxx1112basic_stringIcSt11char_traitsIcESaIcEEEN7rocksdb9CacheTierEED2Ev = comdat any

$_ZNSaISt4pairIKNSt7__cxx1112basic_stringIcSt11char_traitsIcESaIcEEEN7rocksdb9CacheTierEEEC2Ev = comdat any

$_ZNSt13unordered_mapINSt7__cxx1112basic_stringIcSt11char_traitsIcESaIcEEEN7rocksdb9CacheTierESt4hashIS5_ESt8equal_toIS5_ESaISt4pairIKS5_S7_EEEC2ESt16initializer_listISE_EmRKS9_RKSB_RKSF_ = comdat any

$_ZNSaISt4pairIKNSt7__cxx1112basic_stringIcSt11char_traitsIcESaIcEEEN7rocksdb9CacheTierEEED2Ev = comdat any

$_ZNSt13unordered_mapINSt7__cxx1112basic_stringIcSt11char_traitsIcESaIcEEEN7rocksdb9CacheTierESt4hashIS5_ESt8equal_toIS5_ESaISt4pairIKS5_S7_EEED2Ev = comdat any

$_ZNSt4pairIKNSt7__cxx1112basic_stringIcSt11char_traitsIcESaIcEEEN7rocksdb12InfoLogLevelEEC2IRA12_KcS8_TnNSt9enable_ifIXaaclsr5_PCCPE22_MoveConstructiblePairIT_T0_EEclsr5_PCCPE30_ImplicitlyMoveConvertiblePairISF_SG_EEEbE4typeELb1EEEOSF_OSG_ = comdat any

$_ZNSt4pairIKNSt7__cxx1112basic_stringIcSt11char_traitsIcESaIcEEEN7rocksdb12InfoLogLevelEEC2IRA11_KcS8_TnNSt9enable_ifIXaaclsr5_PCCPE22_MoveConstructiblePairIT_T0_EEclsr5_PCCPE30_ImplicitlyMoveConvertiblePairISF_SG_EEEbE4typeELb1EEEOSF_OSG_ = comdat any

$_ZNSt4pairIKNSt7__cxx1112basic_stringIcSt11char_traitsIcESaIcEEEN7rocksdb12InfoLogLevelEEC2IRA13_KcS8_TnNSt9enable_ifIXaaclsr5_PCCPE22_MoveConstructiblePairIT_T0_EEclsr5_PCCPE30_ImplicitlyMoveConvertiblePairISF_SG_EEEbE4typeELb1EEEOSF_OSG_ = comdat any

$_ZNSt4pairIKNSt7__cxx1112basic_stringIcSt11char_traitsIcESaIcEEEN7rocksdb12InfoLogLevelEED2Ev = comdat any

$_ZNSaISt4pairIKNSt7__cxx1112basic_stringIcSt11char_traitsIcESaIcEEEN7rocksdb12InfoLogLevelEEEC2Ev = comdat any

$_ZNSt13unordered_mapINSt7__cxx1112basic_stringIcSt11char_traitsIcESaIcEEEN7rocksdb12InfoLogLevelESt4hashIS5_ESt8equal_toIS5_ESaISt4pairIKS5_S7_EEEC2ESt16initializer_listISE_EmRKS9_RKSB_RKSF_ = comdat any

$_ZNSaISt4pairIKNSt7__cxx1112basic_stringIcSt11char_traitsIcESaIcEEEN7rocksdb12InfoLogLevelEEED2Ev = comdat any

$_ZNSt13unordered_mapINSt7__cxx1112basic_stringIcSt11char_traitsIcESaIcEEEN7rocksdb12InfoLogLevelESt4hashIS5_ESt8equal_toIS5_ESaISt4pairIKS5_S7_EEED2Ev = comdat any

$_ZN7rocksdb14OptionTypeInfoC2EiNS_10OptionTypeENS_22OptionVerificationTypeENS_15OptionTypeFlagsE = comdat any

$_ZNSt4pairIKNSt7__cxx1112basic_stringIcSt11char_traitsIcESaIcEEEN7rocksdb14OptionTypeInfoEEC2IS6_S8_TnNSt9enable_ifIXaaclsr5_PCCPE18_ConstructiblePairIT_T0_EEclsr5_PCCPE26_ImplicitlyConvertiblePairISC_SD_EEEbE4typeELb1EEERS6_RKS8_ = comdat any

$_ZNSaISt4pairIKNSt7__cxx1112basic_stringIcSt11char_traitsIcESaIcEEEN7rocksdb14OptionTypeInfoEEEC2Ev = comdat any

$_ZNSt13unordered_mapINSt7__cxx1112basic_stringIcSt11char_traitsIcESaIcEEEN7rocksdb14OptionTypeInfoESt4hashIS5_ESt8equal_toIS5_ESaISt4pairIKS5_S7_EEEC2ESt16initializer_listISE_EmRKS9_RKSB_RKSF_ = comdat any

$_ZNSaISt4pairIKNSt7__cxx1112basic_stringIcSt11char_traitsIcESaIcEEEN7rocksdb14OptionTypeInfoEEED2Ev = comdat any

$_ZNSt4pairIKNSt7__cxx1112basic_stringIcSt11char_traitsIcESaIcEEEN7rocksdb14OptionTypeInfoEED2Ev = comdat any

$_ZN7rocksdb14OptionTypeInfoD2Ev = comdat any

$_ZNSt13unordered_mapINSt7__cxx1112basic_stringIcSt11char_traitsIcESaIcEEEN7rocksdb14OptionTypeInfoESt4hashIS5_ESt8equal_toIS5_ESaISt4pairIKS5_S7_EEED2Ev = comdat any

$_ZN7rocksdb14OptionTypeInfo14AsCustomRawPtrINS_9WalFilterEEES0_iNS_22OptionVerificationTypeENS_15OptionTypeFlagsE = comdat any

$_ZN7rocksdborERKNS_15OptionTypeFlagsES2_ = comdat any

$_ZNSt4pairIKNSt7__cxx1112basic_stringIcSt11char_traitsIcESaIcEEEN7rocksdb14OptionTypeInfoEEC2IRA11_KcS8_TnNSt9enable_ifIXaaclsr5_PCCPE22_MoveConstructiblePairIT_T0_EEclsr5_PCCPE30_ImplicitlyMoveConvertiblePairISF_SG_EEEbE4typeELb1EEEOSF_OSG_ = comdat any

$_ZN7rocksdb14OptionTypeInfo4EnumINS_15WALRecoveryModeEEES0_iPKSt13unordered_mapINSt7__cxx1112basic_stringIcSt11char_traitsIcESaIcEEET_St4hashIS9_ESt8equal_toIS9_ESaISt4pairIKS9_SA_EEENS_15OptionTypeFlagsE = comdat any

$_ZNSt4pairIKNSt7__cxx1112basic_stringIcSt11char_traitsIcESaIcEEEN7rocksdb14OptionTypeInfoEEC2IRA18_KcS8_TnNSt9enable_ifIXaaclsr5_PCCPE22_MoveConstructiblePairIT_T0_EEclsr5_PCCPE30_ImplicitlyMoveConvertiblePairISF_SG_EEEbE4typeELb1EEEOSF_OSG_ = comdat any

$_ZN7rocksdb14OptionTypeInfo4EnumINS_9DBOptions10AccessHintEEES0_iPKSt13unordered_mapINSt7__cxx1112basic_stringIcSt11char_traitsIcESaIcEEET_St4hashISA_ESt8equal_toISA_ESaISt4pairIKSA_SB_EEENS_15OptionTypeFlagsE = comdat any

$_ZNSt4pairIKNSt7__cxx1112basic_stringIcSt11char_traitsIcESaIcEEEN7rocksdb14OptionTypeInfoEEC2IRA32_KcS8_TnNSt9enable_ifIXaaclsr5_PCCPE22_MoveConstructiblePairIT_T0_EEclsr5_PCCPE30_ImplicitlyMoveConvertiblePairISF_SG_EEEbE4typeELb1EEEOSF_OSG_ = comdat any

$_ZN7rocksdb14OptionTypeInfo4EnumINS_12InfoLogLevelEEES0_iPKSt13unordered_mapINSt7__cxx1112basic_stringIcSt11char_traitsIcESaIcEEET_St4hashIS9_ESt8equal_toIS9_ESaISt4pairIKS9_SA_EEENS_15OptionTypeFlagsE = comdat any

$_ZNSt4pairIKNSt7__cxx1112basic_stringIcSt11char_traitsIcESaIcEEEN7rocksdb14OptionTypeInfoEEC2IRA15_KcS8_TnNSt9enable_ifIXaaclsr5_PCCPE22_MoveConstructiblePairIT_T0_EEclsr5_PCCPE30_ImplicitlyMoveConvertiblePairISF_SG_EEEbE4typeELb1EEEOSF_OSG_ = comdat any

$_ZN7rocksdb14OptionTypeInfoC2EiNS_10OptionTypeENS_22OptionVerificationTypeENS_15OptionTypeFlagsERKSt8functionIFNS_6StatusERKNS_13ConfigOptionsERKNSt7__cxx1112basic_stringIcSt11char_traitsIcESaIcEEESG_PvEE = comdat any

$_ZN7rocksdb14OptionTypeInfo12SetParseFuncERKSt8functionIFNS_6StatusERKNS_13ConfigOptionsERKNSt7__cxx1112basic_stringIcSt11char_traitsIcESaIcEEESD_PvEE = comdat any

$_ZN7rocksdb14OptionTypeInfo14SetPrepareFuncERKSt8functionIFNS_6StatusERKNS_13ConfigOptionsERKNSt7__cxx1112basic_stringIcSt11char_traitsIcESaIcEEEPvEE = comdat any

$_ZN7rocksdb14OptionTypeInfo15SetValidateFuncERKSt8functionIFNS_6StatusERKNS_9DBOptionsERKNS_19ColumnFamilyOptionsERKNSt7__cxx1112basic_stringIcSt11char_traitsIcESaIcEEEPKvEE = comdat any

$_ZNSt4pairIKNSt7__cxx1112basic_stringIcSt11char_traitsIcESaIcEEEN7rocksdb14OptionTypeInfoEEC2IRA4_KcRS8_TnNSt9enable_ifIXaaclsr5_PCCPE22_MoveConstructiblePairIT_T0_EEclsr5_PCCPE30_ImplicitlyMoveConvertiblePairISG_SH_EEEbE4typeELb1EEEOSG_OSH_ = comdat any

$_ZN7rocksdb14OptionTypeInfo17AsCustomSharedPtrINS_22FileChecksumGenFactoryEEES0_iNS_22OptionVerificationTypeENS_15OptionTypeFlagsE = comdat any

$_ZNSt4pairIKNSt7__cxx1112basic_stringIcSt11char_traitsIcESaIcEEEN7rocksdb14OptionTypeInfoEEC2IRA26_KcS8_TnNSt9enable_ifIXaaclsr5_PCCPE22_MoveConstructiblePairIT_T0_EEclsr5_PCCPE30_ImplicitlyMoveConvertiblePairISF_SG_EEEbE4typeELb1EEEOSF_OSG_ = comdat any

$_ZN7rocksdb14OptionTypeInfo17AsCustomSharedPtrINS_10StatisticsEEES0_iNS_22OptionVerificationTypeENS_15OptionTypeFlagsE = comdat any

$_ZNSt8functionIFbRKN7rocksdb13ConfigOptionsERKNSt7__cxx1112basic_stringIcSt11char_traitsIcESaIcEEEPKvSD_PS9_EEC2EDn = comdat any

$_ZN7rocksdb14OptionTypeInfoC2EiNS_10OptionTypeENS_22OptionVerificationTypeENS_15OptionTypeFlagsERKSt8functionIFNS_6StatusERKNS_13ConfigOptionsERKNSt7__cxx1112basic_stringIcSt11char_traitsIcESaIcEEESG_PvEERKS4_IFS5_S8_SG_PKvPSE_EERKS4_IFbS8_SG_SN_SN_SO_EE = comdat any

$_ZN7rocksdb14OptionTypeInfo4EnumINS_9CacheTierEEES0_iPKSt13unordered_mapINSt7__cxx1112basic_stringIcSt11char_traitsIcESaIcEEET_St4hashIS9_ESt8equal_toIS9_ESaISt4pairIKS9_SA_EEENS_15OptionTypeFlagsE = comdat any

$_ZNSt4pairIKNSt7__cxx1112basic_stringIcSt11char_traitsIcESaIcEEEN7rocksdb14OptionTypeInfoEEC2IRA23_KcS8_TnNSt9enable_ifIXaaclsr5_PCCPE22_MoveConstructiblePairIT_T0_EEclsr5_PCCPE30_ImplicitlyMoveConvertiblePairISF_SG_EEEbE4typeELb1EEEOSF_OSG_ = comdat any

$_ZNSt8functionIFbRKN7rocksdb13ConfigOptionsERKNSt7__cxx1112basic_stringIcSt11char_traitsIcESaIcEEEPKvSD_PS9_EED2Ev = comdat any

$_ZNSt8functionIFN7rocksdb6StatusERKNS0_13ConfigOptionsERKNSt7__cxx1112basic_stringIcSt11char_traitsIcESaIcEEEPKvPSA_EED2Ev = comdat any

$_ZNSt8functionIFN7rocksdb6StatusERKNS0_13ConfigOptionsERKNSt7__cxx1112basic_stringIcSt11char_traitsIcESaIcEEESC_PvEED2Ev = comdat any

$_ZNSt8functionIFN7rocksdb6StatusERKNS0_9DBOptionsERKNS0_19ColumnFamilyOptionsERKNSt7__cxx1112basic_stringIcSt11char_traitsIcESaIcEEEPKvEED2Ev = comdat any

$_ZNSt8functionIFN7rocksdb6StatusERKNS0_13ConfigOptionsERKNSt7__cxx1112basic_stringIcSt11char_traitsIcESaIcEEEPvEED2Ev = comdat any

$_ZN7rocksdb21MutableDBConfigurableC2ERKNS_16MutableDBOptionsEPKSt13unordered_mapINSt7__cxx1112basic_stringIcSt11char_traitsIcESaIcEEESA_St4hashISA_ESt8equal_toISA_ESaISt4pairIKSA_SA_EEE = comdat any

$_ZNSt10unique_ptrIN7rocksdb12ConfigurableESt14default_deleteIS1_EEC2IS3_vEEPS1_ = comdat any

$_ZNSt10unique_ptrIN7rocksdb12ConfigurableESt14default_deleteIS1_EED2Ev = comdat any

$_ZN7rocksdb21DBOptionsConfigurableC2ERKNS_9DBOptionsEPKSt13unordered_mapINSt7__cxx1112basic_stringIcSt11char_traitsIcESaIcEEESA_St4hashISA_ESt8equal_toISA_ESaISt4pairIKSA_SA_EEE = comdat any

$_ZN7rocksdb7OptionsC2Ev = comdat any

$_ZN7rocksdb7OptionsD2Ev = comdat any

$_ZNSt10shared_ptrIN7rocksdb11RateLimiterEEC2ERKS2_ = comdat any

$_ZNSt10shared_ptrIN7rocksdb14SstFileManagerEEC2ERKS2_ = comdat any

$_ZNSt10shared_ptrIN7rocksdb6LoggerEEC2ERKS2_ = comdat any

$_ZNSt10shared_ptrIN7rocksdb10StatisticsEEC2ERKS2_ = comdat any

$_ZNSt6vectorIN7rocksdb6DbPathESaIS1_EEC2ERKS3_ = comdat any

$_ZNSt10shared_ptrIN7rocksdb18WriteBufferManagerEEC2ERKS2_ = comdat any

$_ZNSt6vectorISt10shared_ptrIN7rocksdb13EventListenerEESaIS3_EEC2ERKS5_ = comdat any

$_ZNSt10shared_ptrIN7rocksdb5CacheEEC2ERKS2_ = comdat any

$_ZNSt10shared_ptrIN7rocksdb22FileChecksumGenFactoryEEC2ERKS2_ = comdat any

$_ZNSt10shared_ptrIN7rocksdb10FileSystemEEC2Ev = comdat any

$_ZNSt10shared_ptrIN7rocksdb17CompactionServiceEEC2ERKS2_ = comdat any

$_ZNSt10shared_ptrIN7rocksdb10FileSystemEEaSERKS2_ = comdat any

$_ZNKSt12__shared_ptrIN7rocksdb11SystemClockELN9__gnu_cxx12_Lock_policyE2EE3getEv = comdat any

$_ZNKSt12__shared_ptrIN7rocksdb6LoggerELN9__gnu_cxx12_Lock_policyE2EE3getEv = comdat any

$_ZNKSt12__shared_ptrIN7rocksdb10StatisticsELN9__gnu_cxx12_Lock_policyE2EE3getEv = comdat any

$_ZNSt10shared_ptrIN7rocksdb17CompactionServiceEED2Ev = comdat any

$_ZNSt10shared_ptrIN7rocksdb10FileSystemEED2Ev = comdat any

$_ZNSt10shared_ptrIN7rocksdb22FileChecksumGenFactoryEED2Ev = comdat any

$_ZNSt10shared_ptrIN7rocksdb5CacheEED2Ev = comdat any

$_ZNSt6vectorISt10shared_ptrIN7rocksdb13EventListenerEESaIS3_EED2Ev = comdat any

$_ZNSt10shared_ptrIN7rocksdb18WriteBufferManagerEED2Ev = comdat any

$_ZNSt6vectorIN7rocksdb6DbPathESaIS1_EED2Ev = comdat any

$_ZNSt10shared_ptrIN7rocksdb10StatisticsEED2Ev = comdat any

$_ZNSt10shared_ptrIN7rocksdb6LoggerEED2Ev = comdat any

$_ZNSt10shared_ptrIN7rocksdb14SstFileManagerEED2Ev = comdat any

$_ZNSt10shared_ptrIN7rocksdb11RateLimiterEED2Ev = comdat any

$_ZNKSt19__shared_ptr_accessIN7rocksdb10FileSystemELN9__gnu_cxx12_Lock_policyE2ELb0ELb0EEptEv = comdat any

$_ZNK7rocksdb10Statistics15get_stats_levelEv = comdat any

$_ZNKSt12__shared_ptrIN7rocksdb18WriteBufferManagerELN9__gnu_cxx12_Lock_policyE2EE3getEv = comdat any

$_ZNKSt12__shared_ptrIN7rocksdb11RateLimiterELN9__gnu_cxx12_Lock_policyE2EE3getEv = comdat any

$_ZNKSt12__shared_ptrIN7rocksdb14SstFileManagerELN9__gnu_cxx12_Lock_policyE2EEcvbEv = comdat any

$_ZNKSt19__shared_ptr_accessIN7rocksdb14SstFileManagerELN9__gnu_cxx12_Lock_policyE2ELb0ELb0EEptEv = comdat any

$_ZNKSt12__shared_ptrIN7rocksdb5CacheELN9__gnu_cxx12_Lock_policyE2EEcvbEv = comdat any

$_ZNKSt19__shared_ptr_accessIN7rocksdb5CacheELN9__gnu_cxx12_Lock_policyE2ELb0ELb0EEptEv = comdat any

$_ZNKSt12__shared_ptrIN7rocksdb22FileChecksumGenFactoryELN9__gnu_cxx12_Lock_policyE2EEcvbEv = comdat any

$_ZNKSt19__shared_ptr_accessIN7rocksdb22FileChecksumGenFactoryELN9__gnu_cxx12_Lock_policyE2ELb0ELb0EEptEv = comdat any

$_ZNKSt6vectorIN7rocksdb6DbPathESaIS1_EEixEm = comdat any

$_ZNK7rocksdb6Status14IsNotSupportedEv = comdat any

$_ZSteqIcEN9__gnu_cxx11__enable_ifIXsr9__is_charIT_EE7__valueEbE6__typeERKNSt7__cxx1112basic_stringIS2_St11char_traitsIS2_ESaIS2_EEESC_ = comdat any

$_ZN7rocksdb6StatusD2Ev = comdat any

$_ZN7rocksdb16MutableDBOptionsaSERKS0_ = comdat any

$_ZNK7rocksdb6Status2okEv = comdat any

$_ZN7rocksdb13ConfigOptionsD2Ev = comdat any

$_ZNSt10_HashtableINSt7__cxx1112basic_stringIcSt11char_traitsIcESaIcEEESt4pairIKS5_N7rocksdb15WALRecoveryModeEESaISA_ENSt8__detail10_Select1stESt8equal_toIS5_ESt4hashIS5_ENSC_18_Mod_range_hashingENSC_20_Default_ranged_hashENSC_20_Prime_rehash_policyENSC_17_Hashtable_traitsILb1ELb0ELb1EEEED2Ev = comdat any

$_ZNSt10_HashtableINSt7__cxx1112basic_stringIcSt11char_traitsIcESaIcEEESt4pairIKS5_N7rocksdb15WALRecoveryModeEESaISA_ENSt8__detail10_Select1stESt8equal_toIS5_ESt4hashIS5_ENSC_18_Mod_range_hashingENSC_20_Default_ranged_hashENSC_20_Prime_rehash_policyENSC_17_Hashtable_traitsILb1ELb0ELb1EEEE5clearEv = comdat any

$_ZNSt10_HashtableINSt7__cxx1112basic_stringIcSt11char_traitsIcESaIcEEESt4pairIKS5_N7rocksdb15WALRecoveryModeEESaISA_ENSt8__detail10_Select1stESt8equal_toIS5_ESt4hashIS5_ENSC_18_Mod_range_hashingENSC_20_Default_ranged_hashENSC_20_Prime_rehash_policyENSC_17_Hashtable_traitsILb1ELb0ELb1EEEE21_M_deallocate_bucketsEv = comdat any

$__clang_call_terminate = comdat any

$_ZNSt8__detail16_Hashtable_allocISaINS_10_Hash_nodeISt4pairIKNSt7__cxx1112basic_stringIcSt11char_traitsIcESaIcEEEN7rocksdb15WALRecoveryModeEELb1EEEEED2Ev = comdat any

$_ZNSt8__detail16_Hashtable_allocISaINS_10_Hash_nodeISt4pairIKNSt7__cxx1112basic_stringIcSt11char_traitsIcESaIcEEEN7rocksdb15WALRecoveryModeEELb1EEEEE19_M_deallocate_nodesEPSD_ = comdat any

$_ZNKSt10_HashtableINSt7__cxx1112basic_stringIcSt11char_traitsIcESaIcEEESt4pairIKS5_N7rocksdb15WALRecoveryModeEESaISA_ENSt8__detail10_Select1stESt8equal_toIS5_ESt4hashIS5_ENSC_18_Mod_range_hashingENSC_20_Default_ranged_hashENSC_20_Prime_rehash_policyENSC_17_Hashtable_traitsILb1ELb0ELb1EEEE8_M_beginEv = comdat any

$_ZNKSt8__detail10_Hash_nodeISt4pairIKNSt7__cxx1112basic_stringIcSt11char_traitsIcESaIcEEEN7rocksdb15WALRecoveryModeEELb1EE7_M_nextEv = comdat any

$_ZNSt8__detail16_Hashtable_allocISaINS_10_Hash_nodeISt4pairIKNSt7__cxx1112basic_stringIcSt11char_traitsIcESaIcEEEN7rocksdb15WALRecoveryModeEELb1EEEEE18_M_deallocate_nodeEPSD_ = comdat any

$_ZNSt16allocator_traitsISaINSt8__detail10_Hash_nodeISt4pairIKNSt7__cxx1112basic_stringIcSt11char_traitsIcESaIcEEEN7rocksdb15WALRecoveryModeEELb1EEEEE7destroyISC_EEvRSE_PT_ = comdat any

$_ZNSt8__detail16_Hashtable_allocISaINS_10_Hash_nodeISt4pairIKNSt7__cxx1112basic_stringIcSt11char_traitsIcESaIcEEEN7rocksdb15WALRecoveryModeEELb1EEEEE17_M_node_allocatorEv = comdat any

$_ZNSt8__detail21_Hash_node_value_baseISt4pairIKNSt7__cxx1112basic_stringIcSt11char_traitsIcESaIcEEEN7rocksdb15WALRecoveryModeEEE9_M_valptrEv = comdat any

$_ZNSt8__detail16_Hashtable_allocISaINS_10_Hash_nodeISt4pairIKNSt7__cxx1112basic_stringIcSt11char_traitsIcESaIcEEEN7rocksdb15WALRecoveryModeEELb1EEEEE22_M_deallocate_node_ptrEPSD_ = comdat any

$_ZNSt15__new_allocatorINSt8__detail10_Hash_nodeISt4pairIKNSt7__cxx1112basic_stringIcSt11char_traitsIcESaIcEEEN7rocksdb15WALRecoveryModeEELb1EEEE7destroyISC_EEvPT_ = comdat any

$_ZNSt8__detail21_Hashtable_ebo_helperILi0ESaINS_10_Hash_nodeISt4pairIKNSt7__cxx1112basic_stringIcSt11char_traitsIcESaIcEEEN7rocksdb15WALRecoveryModeEELb1EEEELb1EE6_M_getEv = comdat any

$_ZN9__gnu_cxx16__aligned_bufferISt4pairIKNSt7__cxx1112basic_stringIcSt11char_traitsIcESaIcEEEN7rocksdb15WALRecoveryModeEEE6_M_ptrEv = comdat any

$_ZN9__gnu_cxx16__aligned_bufferISt4pairIKNSt7__cxx1112basic_stringIcSt11char_traitsIcESaIcEEEN7rocksdb15WALRecoveryModeEEE7_M_addrEv = comdat any

$_ZNSt19__ptr_traits_ptr_toIPNSt8__detail10_Hash_nodeISt4pairIKNSt7__cxx1112basic_stringIcSt11char_traitsIcESaIcEEEN7rocksdb15WALRecoveryModeEELb1EEESD_Lb0EE10pointer_toERSD_ = comdat any

$_ZNSt16allocator_traitsISaINSt8__detail10_Hash_nodeISt4pairIKNSt7__cxx1112basic_stringIcSt11char_traitsIcESaIcEEEN7rocksdb15WALRecoveryModeEELb1EEEEE10deallocateERSE_PSD_m = comdat any

$_ZNSt15__new_allocatorINSt8__detail10_Hash_nodeISt4pairIKNSt7__cxx1112basic_stringIcSt11char_traitsIcESaIcEEEN7rocksdb15WALRecoveryModeEELb1EEEE10deallocateEPSD_m = comdat any

$_ZNSt10_HashtableINSt7__cxx1112basic_stringIcSt11char_traitsIcESaIcEEESt4pairIKS5_N7rocksdb15WALRecoveryModeEESaISA_ENSt8__detail10_Select1stESt8equal_toIS5_ESt4hashIS5_ENSC_18_Mod_range_hashingENSC_20_Default_ranged_hashENSC_20_Prime_rehash_policyENSC_17_Hashtable_traitsILb1ELb0ELb1EEEE21_M_deallocate_bucketsEPPNSC_15_Hash_node_baseEm = comdat any

$_ZNKSt10_HashtableINSt7__cxx1112basic_stringIcSt11char_traitsIcESaIcEEESt4pairIKS5_N7rocksdb15WALRecoveryModeEESaISA_ENSt8__detail10_Select1stESt8equal_toIS5_ESt4hashIS5_ENSC_18_Mod_range_hashingENSC_20_Default_ranged_hashENSC_20_Prime_rehash_policyENSC_17_Hashtable_traitsILb1ELb0ELb1EEEE21_M_uses_single_bucketEPPNSC_15_Hash_node_baseE = comdat any

$_ZNSt8__detail16_Hashtable_allocISaINS_10_Hash_nodeISt4pairIKNSt7__cxx1112basic_stringIcSt11char_traitsIcESaIcEEEN7rocksdb15WALRecoveryModeEELb1EEEEE21_M_deallocate_bucketsEPPNS_15_Hash_node_baseEm = comdat any

$_ZNSt19__ptr_traits_ptr_toIPPNSt8__detail15_Hash_node_baseES2_Lb0EE10pointer_toERS2_ = comdat any

$_ZNSaIPNSt8__detail15_Hash_node_baseEEC2INS_10_Hash_nodeISt4pairIKNSt7__cxx1112basic_stringIcSt11char_traitsIcESaIcEEEN7rocksdb15WALRecoveryModeEELb1EEEEERKSaIT_E = comdat any

$_ZNSt16allocator_traitsISaIPNSt8__detail15_Hash_node_baseEEE10deallocateERS3_PS2_m = comdat any

$_ZNSaIPNSt8__detail15_Hash_node_baseEED2Ev = comdat any

$_ZNSt15__new_allocatorIPNSt8__detail15_Hash_node_baseEEC2Ev = comdat any

$_ZNSt15__new_allocatorIPNSt8__detail15_Hash_node_baseEE10deallocateEPS2_m = comdat any

$_ZNSt15__new_allocatorIPNSt8__detail15_Hash_node_baseEED2Ev = comdat any

$_ZNSt8__detail21_Hashtable_ebo_helperILi0ESaINS_10_Hash_nodeISt4pairIKNSt7__cxx1112basic_stringIcSt11char_traitsIcESaIcEEEN7rocksdb15WALRecoveryModeEELb1EEEELb1EED2Ev = comdat any

$_ZNSt15__new_allocatorINSt8__detail10_Hash_nodeISt4pairIKNSt7__cxx1112basic_stringIcSt11char_traitsIcESaIcEEEN7rocksdb15WALRecoveryModeEELb1EEEED2Ev = comdat any

$_ZNSt10_HashtableINSt7__cxx1112basic_stringIcSt11char_traitsIcESaIcEEESt4pairIKS5_N7rocksdb9DBOptions10AccessHintEESaISB_ENSt8__detail10_Select1stESt8equal_toIS5_ESt4hashIS5_ENSD_18_Mod_range_hashingENSD_20_Default_ranged_hashENSD_20_Prime_rehash_policyENSD_17_Hashtable_traitsILb1ELb0ELb1EEEED2Ev = comdat any

$_ZNSt10_HashtableINSt7__cxx1112basic_stringIcSt11char_traitsIcESaIcEEESt4pairIKS5_N7rocksdb9DBOptions10AccessHintEESaISB_ENSt8__detail10_Select1stESt8equal_toIS5_ESt4hashIS5_ENSD_18_Mod_range_hashingENSD_20_Default_ranged_hashENSD_20_Prime_rehash_policyENSD_17_Hashtable_traitsILb1ELb0ELb1EEEE5clearEv = comdat any

$_ZNSt10_HashtableINSt7__cxx1112basic_stringIcSt11char_traitsIcESaIcEEESt4pairIKS5_N7rocksdb9DBOptions10AccessHintEESaISB_ENSt8__detail10_Select1stESt8equal_toIS5_ESt4hashIS5_ENSD_18_Mod_range_hashingENSD_20_Default_ranged_hashENSD_20_Prime_rehash_policyENSD_17_Hashtable_traitsILb1ELb0ELb1EEEE21_M_deallocate_bucketsEv = comdat any

$_ZNSt8__detail16_Hashtable_allocISaINS_10_Hash_nodeISt4pairIKNSt7__cxx1112basic_stringIcSt11char_traitsIcESaIcEEEN7rocksdb9DBOptions10AccessHintEELb1EEEEED2Ev = comdat any

$_ZNSt8__detail16_Hashtable_allocISaINS_10_Hash_nodeISt4pairIKNSt7__cxx1112basic_stringIcSt11char_traitsIcESaIcEEEN7rocksdb9DBOptions10AccessHintEELb1EEEEE19_M_deallocate_nodesEPSE_ = comdat any

$_ZNKSt10_HashtableINSt7__cxx1112basic_stringIcSt11char_traitsIcESaIcEEESt4pairIKS5_N7rocksdb9DBOptions10AccessHintEESaISB_ENSt8__detail10_Select1stESt8equal_toIS5_ESt4hashIS5_ENSD_18_Mod_range_hashingENSD_20_Default_ranged_hashENSD_20_Prime_rehash_policyENSD_17_Hashtable_traitsILb1ELb0ELb1EEEE8_M_beginEv = comdat any

$_ZNKSt8__detail10_Hash_nodeISt4pairIKNSt7__cxx1112basic_stringIcSt11char_traitsIcESaIcEEEN7rocksdb9DBOptions10AccessHintEELb1EE7_M_nextEv = comdat any

$_ZNSt8__detail16_Hashtable_allocISaINS_10_Hash_nodeISt4pairIKNSt7__cxx1112basic_stringIcSt11char_traitsIcESaIcEEEN7rocksdb9DBOptions10AccessHintEELb1EEEEE18_M_deallocate_nodeEPSE_ = comdat any

$_ZNSt16allocator_traitsISaINSt8__detail10_Hash_nodeISt4pairIKNSt7__cxx1112basic_stringIcSt11char_traitsIcESaIcEEEN7rocksdb9DBOptions10AccessHintEELb1EEEEE7destroyISD_EEvRSF_PT_ = comdat any

$_ZNSt8__detail16_Hashtable_allocISaINS_10_Hash_nodeISt4pairIKNSt7__cxx1112basic_stringIcSt11char_traitsIcESaIcEEEN7rocksdb9DBOptions10AccessHintEELb1EEEEE17_M_node_allocatorEv = comdat any

$_ZNSt8__detail21_Hash_node_value_baseISt4pairIKNSt7__cxx1112basic_stringIcSt11char_traitsIcESaIcEEEN7rocksdb9DBOptions10AccessHintEEE9_M_valptrEv = comdat any

$_ZNSt8__detail16_Hashtable_allocISaINS_10_Hash_nodeISt4pairIKNSt7__cxx1112basic_stringIcSt11char_traitsIcESaIcEEEN7rocksdb9DBOptions10AccessHintEELb1EEEEE22_M_deallocate_node_ptrEPSE_ = comdat any

$_ZNSt15__new_allocatorINSt8__detail10_Hash_nodeISt4pairIKNSt7__cxx1112basic_stringIcSt11char_traitsIcESaIcEEEN7rocksdb9DBOptions10AccessHintEELb1EEEE7destroyISD_EEvPT_ = comdat any

$_ZNSt8__detail21_Hashtable_ebo_helperILi0ESaINS_10_Hash_nodeISt4pairIKNSt7__cxx1112basic_stringIcSt11char_traitsIcESaIcEEEN7rocksdb9DBOptions10AccessHintEELb1EEEELb1EE6_M_getEv = comdat any

$_ZN9__gnu_cxx16__aligned_bufferISt4pairIKNSt7__cxx1112basic_stringIcSt11char_traitsIcESaIcEEEN7rocksdb9DBOptions10AccessHintEEE6_M_ptrEv = comdat any

$_ZN9__gnu_cxx16__aligned_bufferISt4pairIKNSt7__cxx1112basic_stringIcSt11char_traitsIcESaIcEEEN7rocksdb9DBOptions10AccessHintEEE7_M_addrEv = comdat any

$_ZNSt19__ptr_traits_ptr_toIPNSt8__detail10_Hash_nodeISt4pairIKNSt7__cxx1112basic_stringIcSt11char_traitsIcESaIcEEEN7rocksdb9DBOptions10AccessHintEELb1EEESE_Lb0EE10pointer_toERSE_ = comdat any

$_ZNSt16allocator_traitsISaINSt8__detail10_Hash_nodeISt4pairIKNSt7__cxx1112basic_stringIcSt11char_traitsIcESaIcEEEN7rocksdb9DBOptions10AccessHintEELb1EEEEE10deallocateERSF_PSE_m = comdat any

$_ZNSt15__new_allocatorINSt8__detail10_Hash_nodeISt4pairIKNSt7__cxx1112basic_stringIcSt11char_traitsIcESaIcEEEN7rocksdb9DBOptions10AccessHintEELb1EEEE10deallocateEPSE_m = comdat any

$_ZNSt10_HashtableINSt7__cxx1112basic_stringIcSt11char_traitsIcESaIcEEESt4pairIKS5_N7rocksdb9DBOptions10AccessHintEESaISB_ENSt8__detail10_Select1stESt8equal_toIS5_ESt4hashIS5_ENSD_18_Mod_range_hashingENSD_20_Default_ranged_hashENSD_20_Prime_rehash_policyENSD_17_Hashtable_traitsILb1ELb0ELb1EEEE21_M_deallocate_bucketsEPPNSD_15_Hash_node_baseEm = comdat any

$_ZNKSt10_HashtableINSt7__cxx1112basic_stringIcSt11char_traitsIcESaIcEEESt4pairIKS5_N7rocksdb9DBOptions10AccessHintEESaISB_ENSt8__detail10_Select1stESt8equal_toIS5_ESt4hashIS5_ENSD_18_Mod_range_hashingENSD_20_Default_ranged_hashENSD_20_Prime_rehash_policyENSD_17_Hashtable_traitsILb1ELb0ELb1EEEE21_M_uses_single_bucketEPPNSD_15_Hash_node_baseE = comdat any

$_ZNSt8__detail16_Hashtable_allocISaINS_10_Hash_nodeISt4pairIKNSt7__cxx1112basic_stringIcSt11char_traitsIcESaIcEEEN7rocksdb9DBOptions10AccessHintEELb1EEEEE21_M_deallocate_bucketsEPPNS_15_Hash_node_baseEm = comdat any

$_ZNSaIPNSt8__detail15_Hash_node_baseEEC2INS_10_Hash_nodeISt4pairIKNSt7__cxx1112basic_stringIcSt11char_traitsIcESaIcEEEN7rocksdb9DBOptions10AccessHintEELb1EEEEERKSaIT_E = comdat any

$_ZNSt8__detail21_Hashtable_ebo_helperILi0ESaINS_10_Hash_nodeISt4pairIKNSt7__cxx1112basic_stringIcSt11char_traitsIcESaIcEEEN7rocksdb9DBOptions10AccessHintEELb1EEEELb1EED2Ev = comdat any

$_ZNSt15__new_allocatorINSt8__detail10_Hash_nodeISt4pairIKNSt7__cxx1112basic_stringIcSt11char_traitsIcESaIcEEEN7rocksdb9DBOptions10AccessHintEELb1EEEED2Ev = comdat any

$_ZNSt10_HashtableINSt7__cxx1112basic_stringIcSt11char_traitsIcESaIcEEESt4pairIKS5_N7rocksdb9CacheTierEESaISA_ENSt8__detail10_Select1stESt8equal_toIS5_ESt4hashIS5_ENSC_18_Mod_range_hashingENSC_20_Default_ranged_hashENSC_20_Prime_rehash_policyENSC_17_Hashtable_traitsILb1ELb0ELb1EEEED2Ev = comdat any

$_ZNSt10_HashtableINSt7__cxx1112basic_stringIcSt11char_traitsIcESaIcEEESt4pairIKS5_N7rocksdb9CacheTierEESaISA_ENSt8__detail10_Select1stESt8equal_toIS5_ESt4hashIS5_ENSC_18_Mod_range_hashingENSC_20_Default_ranged_hashENSC_20_Prime_rehash_policyENSC_17_Hashtable_traitsILb1ELb0ELb1EEEE5clearEv = comdat any

$_ZNSt10_HashtableINSt7__cxx1112basic_stringIcSt11char_traitsIcESaIcEEESt4pairIKS5_N7rocksdb9CacheTierEESaISA_ENSt8__detail10_Select1stESt8equal_toIS5_ESt4hashIS5_ENSC_18_Mod_range_hashingENSC_20_Default_ranged_hashENSC_20_Prime_rehash_policyENSC_17_Hashtable_traitsILb1ELb0ELb1EEEE21_M_deallocate_bucketsEv = comdat any

$_ZNSt8__detail16_Hashtable_allocISaINS_10_Hash_nodeISt4pairIKNSt7__cxx1112basic_stringIcSt11char_traitsIcESaIcEEEN7rocksdb9CacheTierEELb1EEEEED2Ev = comdat any

$_ZNSt8__detail16_Hashtable_allocISaINS_10_Hash_nodeISt4pairIKNSt7__cxx1112basic_stringIcSt11char_traitsIcESaIcEEEN7rocksdb9CacheTierEELb1EEEEE19_M_deallocate_nodesEPSD_ = comdat any

$_ZNKSt10_HashtableINSt7__cxx1112basic_stringIcSt11char_traitsIcESaIcEEESt4pairIKS5_N7rocksdb9CacheTierEESaISA_ENSt8__detail10_Select1stESt8equal_toIS5_ESt4hashIS5_ENSC_18_Mod_range_hashingENSC_20_Default_ranged_hashENSC_20_Prime_rehash_policyENSC_17_Hashtable_traitsILb1ELb0ELb1EEEE8_M_beginEv = comdat any

$_ZNKSt8__detail10_Hash_nodeISt4pairIKNSt7__cxx1112basic_stringIcSt11char_traitsIcESaIcEEEN7rocksdb9CacheTierEELb1EE7_M_nextEv = comdat any

$_ZNSt8__detail16_Hashtable_allocISaINS_10_Hash_nodeISt4pairIKNSt7__cxx1112basic_stringIcSt11char_traitsIcESaIcEEEN7rocksdb9CacheTierEELb1EEEEE18_M_deallocate_nodeEPSD_ = comdat any

$_ZNSt16allocator_traitsISaINSt8__detail10_Hash_nodeISt4pairIKNSt7__cxx1112basic_stringIcSt11char_traitsIcESaIcEEEN7rocksdb9CacheTierEELb1EEEEE7destroyISC_EEvRSE_PT_ = comdat any

$_ZNSt8__detail16_Hashtable_allocISaINS_10_Hash_nodeISt4pairIKNSt7__cxx1112basic_stringIcSt11char_traitsIcESaIcEEEN7rocksdb9CacheTierEELb1EEEEE17_M_node_allocatorEv = comdat any

$_ZNSt8__detail21_Hash_node_value_baseISt4pairIKNSt7__cxx1112basic_stringIcSt11char_traitsIcESaIcEEEN7rocksdb9CacheTierEEE9_M_valptrEv = comdat any

$_ZNSt8__detail16_Hashtable_allocISaINS_10_Hash_nodeISt4pairIKNSt7__cxx1112basic_stringIcSt11char_traitsIcESaIcEEEN7rocksdb9CacheTierEELb1EEEEE22_M_deallocate_node_ptrEPSD_ = comdat any

$_ZNSt15__new_allocatorINSt8__detail10_Hash_nodeISt4pairIKNSt7__cxx1112basic_stringIcSt11char_traitsIcESaIcEEEN7rocksdb9CacheTierEELb1EEEE7destroyISC_EEvPT_ = comdat any

$_ZNSt8__detail21_Hashtable_ebo_helperILi0ESaINS_10_Hash_nodeISt4pairIKNSt7__cxx1112basic_stringIcSt11char_traitsIcESaIcEEEN7rocksdb9CacheTierEELb1EEEELb1EE6_M_getEv = comdat any

$_ZN9__gnu_cxx16__aligned_bufferISt4pairIKNSt7__cxx1112basic_stringIcSt11char_traitsIcESaIcEEEN7rocksdb9CacheTierEEE6_M_ptrEv = comdat any

$_ZN9__gnu_cxx16__aligned_bufferISt4pairIKNSt7__cxx1112basic_stringIcSt11char_traitsIcESaIcEEEN7rocksdb9CacheTierEEE7_M_addrEv = comdat any

$_ZNSt19__ptr_traits_ptr_toIPNSt8__detail10_Hash_nodeISt4pairIKNSt7__cxx1112basic_stringIcSt11char_traitsIcESaIcEEEN7rocksdb9CacheTierEELb1EEESD_Lb0EE10pointer_toERSD_ = comdat any

$_ZNSt16allocator_traitsISaINSt8__detail10_Hash_nodeISt4pairIKNSt7__cxx1112basic_stringIcSt11char_traitsIcESaIcEEEN7rocksdb9CacheTierEELb1EEEEE10deallocateERSE_PSD_m = comdat any

$_ZNSt15__new_allocatorINSt8__detail10_Hash_nodeISt4pairIKNSt7__cxx1112basic_stringIcSt11char_traitsIcESaIcEEEN7rocksdb9CacheTierEELb1EEEE10deallocateEPSD_m = comdat any

$_ZNSt10_HashtableINSt7__cxx1112basic_stringIcSt11char_traitsIcESaIcEEESt4pairIKS5_N7rocksdb9CacheTierEESaISA_ENSt8__detail10_Select1stESt8equal_toIS5_ESt4hashIS5_ENSC_18_Mod_range_hashingENSC_20_Default_ranged_hashENSC_20_Prime_rehash_policyENSC_17_Hashtable_traitsILb1ELb0ELb1EEEE21_M_deallocate_bucketsEPPNSC_15_Hash_node_baseEm = comdat any

$_ZNKSt10_HashtableINSt7__cxx1112basic_stringIcSt11char_traitsIcESaIcEEESt4pairIKS5_N7rocksdb9CacheTierEESaISA_ENSt8__detail10_Select1stESt8equal_toIS5_ESt4hashIS5_ENSC_18_Mod_range_hashingENSC_20_Default_ranged_hashENSC_20_Prime_rehash_policyENSC_17_Hashtable_traitsILb1ELb0ELb1EEEE21_M_uses_single_bucketEPPNSC_15_Hash_node_baseE = comdat any

$_ZNSt8__detail16_Hashtable_allocISaINS_10_Hash_nodeISt4pairIKNSt7__cxx1112basic_stringIcSt11char_traitsIcESaIcEEEN7rocksdb9CacheTierEELb1EEEEE21_M_deallocate_bucketsEPPNS_15_Hash_node_baseEm = comdat any

$_ZNSaIPNSt8__detail15_Hash_node_baseEEC2INS_10_Hash_nodeISt4pairIKNSt7__cxx1112basic_stringIcSt11char_traitsIcESaIcEEEN7rocksdb9CacheTierEELb1EEEEERKSaIT_E = comdat any

$_ZNSt8__detail21_Hashtable_ebo_helperILi0ESaINS_10_Hash_nodeISt4pairIKNSt7__cxx1112basic_stringIcSt11char_traitsIcESaIcEEEN7rocksdb9CacheTierEELb1EEEELb1EED2Ev = comdat any

$_ZNSt15__new_allocatorINSt8__detail10_Hash_nodeISt4pairIKNSt7__cxx1112basic_stringIcSt11char_traitsIcESaIcEEEN7rocksdb9CacheTierEELb1EEEED2Ev = comdat any

$_ZNSt10_HashtableINSt7__cxx1112basic_stringIcSt11char_traitsIcESaIcEEESt4pairIKS5_N7rocksdb12InfoLogLevelEESaISA_ENSt8__detail10_Select1stESt8equal_toIS5_ESt4hashIS5_ENSC_18_Mod_range_hashingENSC_20_Default_ranged_hashENSC_20_Prime_rehash_policyENSC_17_Hashtable_traitsILb1ELb0ELb1EEEED2Ev = comdat any

$_ZNSt10_HashtableINSt7__cxx1112basic_stringIcSt11char_traitsIcESaIcEEESt4pairIKS5_N7rocksdb12InfoLogLevelEESaISA_ENSt8__detail10_Select1stESt8equal_toIS5_ESt4hashIS5_ENSC_18_Mod_range_hashingENSC_20_Default_ranged_hashENSC_20_Prime_rehash_policyENSC_17_Hashtable_traitsILb1ELb0ELb1EEEE5clearEv = comdat any

$_ZNSt10_HashtableINSt7__cxx1112basic_stringIcSt11char_traitsIcESaIcEEESt4pairIKS5_N7rocksdb12InfoLogLevelEESaISA_ENSt8__detail10_Select1stESt8equal_toIS5_ESt4hashIS5_ENSC_18_Mod_range_hashingENSC_20_Default_ranged_hashENSC_20_Prime_rehash_policyENSC_17_Hashtable_traitsILb1ELb0ELb1EEEE21_M_deallocate_bucketsEv = comdat any

$_ZNSt8__detail16_Hashtable_allocISaINS_10_Hash_nodeISt4pairIKNSt7__cxx1112basic_stringIcSt11char_traitsIcESaIcEEEN7rocksdb12InfoLogLevelEELb1EEEEED2Ev = comdat any

$_ZNSt8__detail16_Hashtable_allocISaINS_10_Hash_nodeISt4pairIKNSt7__cxx1112basic_stringIcSt11char_traitsIcESaIcEEEN7rocksdb12InfoLogLevelEELb1EEEEE19_M_deallocate_nodesEPSD_ = comdat any

$_ZNKSt10_HashtableINSt7__cxx1112basic_stringIcSt11char_traitsIcESaIcEEESt4pairIKS5_N7rocksdb12InfoLogLevelEESaISA_ENSt8__detail10_Select1stESt8equal_toIS5_ESt4hashIS5_ENSC_18_Mod_range_hashingENSC_20_Default_ranged_hashENSC_20_Prime_rehash_policyENSC_17_Hashtable_traitsILb1ELb0ELb1EEEE8_M_beginEv = comdat any

$_ZNKSt8__detail10_Hash_nodeISt4pairIKNSt7__cxx1112basic_stringIcSt11char_traitsIcESaIcEEEN7rocksdb12InfoLogLevelEELb1EE7_M_nextEv = comdat any

$_ZNSt8__detail16_Hashtable_allocISaINS_10_Hash_nodeISt4pairIKNSt7__cxx1112basic_stringIcSt11char_traitsIcESaIcEEEN7rocksdb12InfoLogLevelEELb1EEEEE18_M_deallocate_nodeEPSD_ = comdat any

$_ZNSt16allocator_traitsISaINSt8__detail10_Hash_nodeISt4pairIKNSt7__cxx1112basic_stringIcSt11char_traitsIcESaIcEEEN7rocksdb12InfoLogLevelEELb1EEEEE7destroyISC_EEvRSE_PT_ = comdat any

$_ZNSt8__detail16_Hashtable_allocISaINS_10_Hash_nodeISt4pairIKNSt7__cxx1112basic_stringIcSt11char_traitsIcESaIcEEEN7rocksdb12InfoLogLevelEELb1EEEEE17_M_node_allocatorEv = comdat any

$_ZNSt8__detail21_Hash_node_value_baseISt4pairIKNSt7__cxx1112basic_stringIcSt11char_traitsIcESaIcEEEN7rocksdb12InfoLogLevelEEE9_M_valptrEv = comdat any

$_ZNSt8__detail16_Hashtable_allocISaINS_10_Hash_nodeISt4pairIKNSt7__cxx1112basic_stringIcSt11char_traitsIcESaIcEEEN7rocksdb12InfoLogLevelEELb1EEEEE22_M_deallocate_node_ptrEPSD_ = comdat any

$_ZNSt15__new_allocatorINSt8__detail10_Hash_nodeISt4pairIKNSt7__cxx1112basic_stringIcSt11char_traitsIcESaIcEEEN7rocksdb12InfoLogLevelEELb1EEEE7destroyISC_EEvPT_ = comdat any

$_ZNSt8__detail21_Hashtable_ebo_helperILi0ESaINS_10_Hash_nodeISt4pairIKNSt7__cxx1112basic_stringIcSt11char_traitsIcESaIcEEEN7rocksdb12InfoLogLevelEELb1EEEELb1EE6_M_getEv = comdat any

$_ZN9__gnu_cxx16__aligned_bufferISt4pairIKNSt7__cxx1112basic_stringIcSt11char_traitsIcESaIcEEEN7rocksdb12InfoLogLevelEEE6_M_ptrEv = comdat any

$_ZN9__gnu_cxx16__aligned_bufferISt4pairIKNSt7__cxx1112basic_stringIcSt11char_traitsIcESaIcEEEN7rocksdb12InfoLogLevelEEE7_M_addrEv = comdat any

$_ZNSt19__ptr_traits_ptr_toIPNSt8__detail10_Hash_nodeISt4pairIKNSt7__cxx1112basic_stringIcSt11char_traitsIcESaIcEEEN7rocksdb12InfoLogLevelEELb1EEESD_Lb0EE10pointer_toERSD_ = comdat any

$_ZNSt16allocator_traitsISaINSt8__detail10_Hash_nodeISt4pairIKNSt7__cxx1112basic_stringIcSt11char_traitsIcESaIcEEEN7rocksdb12InfoLogLevelEELb1EEEEE10deallocateERSE_PSD_m = comdat any

$_ZNSt15__new_allocatorINSt8__detail10_Hash_nodeISt4pairIKNSt7__cxx1112basic_stringIcSt11char_traitsIcESaIcEEEN7rocksdb12InfoLogLevelEELb1EEEE10deallocateEPSD_m = comdat any

$_ZNSt10_HashtableINSt7__cxx1112basic_stringIcSt11char_traitsIcESaIcEEESt4pairIKS5_N7rocksdb12InfoLogLevelEESaISA_ENSt8__detail10_Select1stESt8equal_toIS5_ESt4hashIS5_ENSC_18_Mod_range_hashingENSC_20_Default_ranged_hashENSC_20_Prime_rehash_policyENSC_17_Hashtable_traitsILb1ELb0ELb1EEEE21_M_deallocate_bucketsEPPNSC_15_Hash_node_baseEm = comdat any

$_ZNKSt10_HashtableINSt7__cxx1112basic_stringIcSt11char_traitsIcESaIcEEESt4pairIKS5_N7rocksdb12InfoLogLevelEESaISA_ENSt8__detail10_Select1stESt8equal_toIS5_ESt4hashIS5_ENSC_18_Mod_range_hashingENSC_20_Default_ranged_hashENSC_20_Prime_rehash_policyENSC_17_Hashtable_traitsILb1ELb0ELb1EEEE21_M_uses_single_bucketEPPNSC_15_Hash_node_baseE = comdat any

$_ZNSt8__detail16_Hashtable_allocISaINS_10_Hash_nodeISt4pairIKNSt7__cxx1112basic_stringIcSt11char_traitsIcESaIcEEEN7rocksdb12InfoLogLevelEELb1EEEEE21_M_deallocate_bucketsEPPNS_15_Hash_node_baseEm = comdat any

$_ZNSaIPNSt8__detail15_Hash_node_baseEEC2INS_10_Hash_nodeISt4pairIKNSt7__cxx1112basic_stringIcSt11char_traitsIcESaIcEEEN7rocksdb12InfoLogLevelEELb1EEEEERKSaIT_E = comdat any

$_ZNSt8__detail21_Hashtable_ebo_helperILi0ESaINS_10_Hash_nodeISt4pairIKNSt7__cxx1112basic_stringIcSt11char_traitsIcESaIcEEEN7rocksdb12InfoLogLevelEELb1EEEELb1EED2Ev = comdat any

$_ZNSt15__new_allocatorINSt8__detail10_Hash_nodeISt4pairIKNSt7__cxx1112basic_stringIcSt11char_traitsIcESaIcEEEN7rocksdb12InfoLogLevelEELb1EEEED2Ev = comdat any

$_ZNSt8functionIFN7rocksdb6StatusERKNS0_13ConfigOptionsERKNSt7__cxx1112basic_stringIcSt11char_traitsIcESaIcEEESC_PvEEC2EDn = comdat any

$_ZNSt8functionIFN7rocksdb6StatusERKNS0_13ConfigOptionsERKNSt7__cxx1112basic_stringIcSt11char_traitsIcESaIcEEEPKvPSA_EEC2EDn = comdat any

$_ZNSt8functionIFN7rocksdb6StatusERKNS0_13ConfigOptionsERKNSt7__cxx1112basic_stringIcSt11char_traitsIcESaIcEEEPvEEC2Ev = comdat any

$_ZNSt8functionIFN7rocksdb6StatusERKNS0_9DBOptionsERKNS0_19ColumnFamilyOptionsERKNSt7__cxx1112basic_stringIcSt11char_traitsIcESaIcEEEPKvEEC2Ev = comdat any

$_ZNSt14_Function_baseC2Ev = comdat any

$_ZN7rocksdb14OptionTypeInfoC2ERKS0_ = comdat any

$_ZNSt8functionIFN7rocksdb6StatusERKNS0_13ConfigOptionsERKNSt7__cxx1112basic_stringIcSt11char_traitsIcESaIcEEESC_PvEEC2ERKSF_ = comdat any

$_ZNSt8functionIFN7rocksdb6StatusERKNS0_13ConfigOptionsERKNSt7__cxx1112basic_stringIcSt11char_traitsIcESaIcEEEPKvPSA_EEC2ERKSH_ = comdat any

$_ZNSt8functionIFbRKN7rocksdb13ConfigOptionsERKNSt7__cxx1112basic_stringIcSt11char_traitsIcESaIcEEEPKvSD_PS9_EEC2ERKSG_ = comdat any

$_ZNSt8functionIFN7rocksdb6StatusERKNS0_13ConfigOptionsERKNSt7__cxx1112basic_stringIcSt11char_traitsIcESaIcEEEPvEEC2ERKSF_ = comdat any

$_ZNSt8functionIFN7rocksdb6StatusERKNS0_9DBOptionsERKNS0_19ColumnFamilyOptionsERKNSt7__cxx1112basic_stringIcSt11char_traitsIcESaIcEEEPKvEEC2ERKSJ_ = comdat any

$_ZNKSt8functionIFN7rocksdb6StatusERKNS0_13ConfigOptionsERKNSt7__cxx1112basic_stringIcSt11char_traitsIcESaIcEEESC_PvEEcvbEv = comdat any

$_ZNSt14_Function_baseD2Ev = comdat any

$_ZNKSt14_Function_base8_M_emptyEv = comdat any

$_ZNKSt8functionIFN7rocksdb6StatusERKNS0_13ConfigOptionsERKNSt7__cxx1112basic_stringIcSt11char_traitsIcESaIcEEEPKvPSA_EEcvbEv = comdat any

$_ZNKSt8functionIFbRKN7rocksdb13ConfigOptionsERKNSt7__cxx1112basic_stringIcSt11char_traitsIcESaIcEEEPKvSD_PS9_EEcvbEv = comdat any

$_ZNKSt8functionIFN7rocksdb6StatusERKNS0_13ConfigOptionsERKNSt7__cxx1112basic_stringIcSt11char_traitsIcESaIcEEEPvEEcvbEv = comdat any

$_ZNKSt8functionIFN7rocksdb6StatusERKNS0_9DBOptionsERKNS0_19ColumnFamilyOptionsERKNSt7__cxx1112basic_stringIcSt11char_traitsIcESaIcEEEPKvEEcvbEv = comdat any

$_ZNSt10_HashtableINSt7__cxx1112basic_stringIcSt11char_traitsIcESaIcEEESt4pairIKS5_N7rocksdb14OptionTypeInfoEESaISA_ENSt8__detail10_Select1stESt8equal_toIS5_ESt4hashIS5_ENSC_18_Mod_range_hashingENSC_20_Default_ranged_hashENSC_20_Prime_rehash_policyENSC_17_Hashtable_traitsILb1ELb0ELb1EEEED2Ev = comdat any

$_ZNSt10_HashtableINSt7__cxx1112basic_stringIcSt11char_traitsIcESaIcEEESt4pairIKS5_N7rocksdb14OptionTypeInfoEESaISA_ENSt8__detail10_Select1stESt8equal_toIS5_ESt4hashIS5_ENSC_18_Mod_range_hashingENSC_20_Default_ranged_hashENSC_20_Prime_rehash_policyENSC_17_Hashtable_traitsILb1ELb0ELb1EEEE5clearEv = comdat any

$_ZNSt10_HashtableINSt7__cxx1112basic_stringIcSt11char_traitsIcESaIcEEESt4pairIKS5_N7rocksdb14OptionTypeInfoEESaISA_ENSt8__detail10_Select1stESt8equal_toIS5_ESt4hashIS5_ENSC_18_Mod_range_hashingENSC_20_Default_ranged_hashENSC_20_Prime_rehash_policyENSC_17_Hashtable_traitsILb1ELb0ELb1EEEE21_M_deallocate_bucketsEv = comdat any

$_ZNSt8__detail16_Hashtable_allocISaINS_10_Hash_nodeISt4pairIKNSt7__cxx1112basic_stringIcSt11char_traitsIcESaIcEEEN7rocksdb14OptionTypeInfoEELb1EEEEED2Ev = comdat any

$_ZNSt8__detail16_Hashtable_allocISaINS_10_Hash_nodeISt4pairIKNSt7__cxx1112basic_stringIcSt11char_traitsIcESaIcEEEN7rocksdb14OptionTypeInfoEELb1EEEEE19_M_deallocate_nodesEPSD_ = comdat any

$_ZNKSt10_HashtableINSt7__cxx1112basic_stringIcSt11char_traitsIcESaIcEEESt4pairIKS5_N7rocksdb14OptionTypeInfoEESaISA_ENSt8__detail10_Select1stESt8equal_toIS5_ESt4hashIS5_ENSC_18_Mod_range_hashingENSC_20_Default_ranged_hashENSC_20_Prime_rehash_policyENSC_17_Hashtable_traitsILb1ELb0ELb1EEEE8_M_beginEv = comdat any

$_ZNKSt8__detail10_Hash_nodeISt4pairIKNSt7__cxx1112basic_stringIcSt11char_traitsIcESaIcEEEN7rocksdb14OptionTypeInfoEELb1EE7_M_nextEv = comdat any

$_ZNSt8__detail16_Hashtable_allocISaINS_10_Hash_nodeISt4pairIKNSt7__cxx1112basic_stringIcSt11char_traitsIcESaIcEEEN7rocksdb14OptionTypeInfoEELb1EEEEE18_M_deallocate_nodeEPSD_ = comdat any

$_ZNSt16allocator_traitsISaINSt8__detail10_Hash_nodeISt4pairIKNSt7__cxx1112basic_stringIcSt11char_traitsIcESaIcEEEN7rocksdb14OptionTypeInfoEELb1EEEEE7destroyISC_EEvRSE_PT_ = comdat any

$_ZNSt8__detail16_Hashtable_allocISaINS_10_Hash_nodeISt4pairIKNSt7__cxx1112basic_stringIcSt11char_traitsIcESaIcEEEN7rocksdb14OptionTypeInfoEELb1EEEEE17_M_node_allocatorEv = comdat any

$_ZNSt8__detail21_Hash_node_value_baseISt4pairIKNSt7__cxx1112basic_stringIcSt11char_traitsIcESaIcEEEN7rocksdb14OptionTypeInfoEEE9_M_valptrEv = comdat any

$_ZNSt8__detail16_Hashtable_allocISaINS_10_Hash_nodeISt4pairIKNSt7__cxx1112basic_stringIcSt11char_traitsIcESaIcEEEN7rocksdb14OptionTypeInfoEELb1EEEEE22_M_deallocate_node_ptrEPSD_ = comdat any

$_ZNSt15__new_allocatorINSt8__detail10_Hash_nodeISt4pairIKNSt7__cxx1112basic_stringIcSt11char_traitsIcESaIcEEEN7rocksdb14OptionTypeInfoEELb1EEEE7destroyISC_EEvPT_ = comdat any

$_ZNSt8__detail21_Hashtable_ebo_helperILi0ESaINS_10_Hash_nodeISt4pairIKNSt7__cxx1112basic_stringIcSt11char_traitsIcESaIcEEEN7rocksdb14OptionTypeInfoEELb1EEEELb1EE6_M_getEv = comdat any

$_ZN9__gnu_cxx16__aligned_bufferISt4pairIKNSt7__cxx1112basic_stringIcSt11char_traitsIcESaIcEEEN7rocksdb14OptionTypeInfoEEE6_M_ptrEv = comdat any

$_ZN9__gnu_cxx16__aligned_bufferISt4pairIKNSt7__cxx1112basic_stringIcSt11char_traitsIcESaIcEEEN7rocksdb14OptionTypeInfoEEE7_M_addrEv = comdat any

$_ZNSt19__ptr_traits_ptr_toIPNSt8__detail10_Hash_nodeISt4pairIKNSt7__cxx1112basic_stringIcSt11char_traitsIcESaIcEEEN7rocksdb14OptionTypeInfoEELb1EEESD_Lb0EE10pointer_toERSD_ = comdat any

$_ZNSt16allocator_traitsISaINSt8__detail10_Hash_nodeISt4pairIKNSt7__cxx1112basic_stringIcSt11char_traitsIcESaIcEEEN7rocksdb14OptionTypeInfoEELb1EEEEE10deallocateERSE_PSD_m = comdat any

$_ZNSt15__new_allocatorINSt8__detail10_Hash_nodeISt4pairIKNSt7__cxx1112basic_stringIcSt11char_traitsIcESaIcEEEN7rocksdb14OptionTypeInfoEELb1EEEE10deallocateEPSD_m = comdat any

$_ZNSt10_HashtableINSt7__cxx1112basic_stringIcSt11char_traitsIcESaIcEEESt4pairIKS5_N7rocksdb14OptionTypeInfoEESaISA_ENSt8__detail10_Select1stESt8equal_toIS5_ESt4hashIS5_ENSC_18_Mod_range_hashingENSC_20_Default_ranged_hashENSC_20_Prime_rehash_policyENSC_17_Hashtable_traitsILb1ELb0ELb1EEEE21_M_deallocate_bucketsEPPNSC_15_Hash_node_baseEm = comdat any

$_ZNKSt10_HashtableINSt7__cxx1112basic_stringIcSt11char_traitsIcESaIcEEESt4pairIKS5_N7rocksdb14OptionTypeInfoEESaISA_ENSt8__detail10_Select1stESt8equal_toIS5_ESt4hashIS5_ENSC_18_Mod_range_hashingENSC_20_Default_ranged_hashENSC_20_Prime_rehash_policyENSC_17_Hashtable_traitsILb1ELb0ELb1EEEE21_M_uses_single_bucketEPPNSC_15_Hash_node_baseE = comdat any

$_ZNSt8__detail16_Hashtable_allocISaINS_10_Hash_nodeISt4pairIKNSt7__cxx1112basic_stringIcSt11char_traitsIcESaIcEEEN7rocksdb14OptionTypeInfoEELb1EEEEE21_M_deallocate_bucketsEPPNS_15_Hash_node_baseEm = comdat any

$_ZNSaIPNSt8__detail15_Hash_node_baseEEC2INS_10_Hash_nodeISt4pairIKNSt7__cxx1112basic_stringIcSt11char_traitsIcESaIcEEEN7rocksdb14OptionTypeInfoEELb1EEEEERKSaIT_E = comdat any

$_ZNSt8__detail21_Hashtable_ebo_helperILi0ESaINS_10_Hash_nodeISt4pairIKNSt7__cxx1112basic_stringIcSt11char_traitsIcESaIcEEEN7rocksdb14OptionTypeInfoEELb1EEEELb1EED2Ev = comdat any

$_ZNSt15__new_allocatorINSt8__detail10_Hash_nodeISt4pairIKNSt7__cxx1112basic_stringIcSt11char_traitsIcESaIcEEEN7rocksdb14OptionTypeInfoEELb1EEEED2Ev = comdat any

$_ZN7rocksdb14OptionTypeInfoC2EOS0_ = comdat any

$_ZNSt8functionIFN7rocksdb6StatusERKNS0_13ConfigOptionsERKNSt7__cxx1112basic_stringIcSt11char_traitsIcESaIcEEESC_PvEEC2EOSF_ = comdat any

$_ZNSt8functionIFN7rocksdb6StatusERKNS0_13ConfigOptionsERKNSt7__cxx1112basic_stringIcSt11char_traitsIcESaIcEEEPKvPSA_EEC2EOSH_ = comdat any

$_ZNSt8functionIFbRKN7rocksdb13ConfigOptionsERKNSt7__cxx1112basic_stringIcSt11char_traitsIcESaIcEEEPKvSD_PS9_EEC2EOSG_ = comdat any

$_ZNSt8functionIFN7rocksdb6StatusERKNS0_13ConfigOptionsERKNSt7__cxx1112basic_stringIcSt11char_traitsIcESaIcEEEPvEEC2EOSF_ = comdat any

$_ZNSt8functionIFN7rocksdb6StatusERKNS0_9DBOptionsERKNS0_19ColumnFamilyOptionsERKNSt7__cxx1112basic_stringIcSt11char_traitsIcESaIcEEEPKvEEC2EOSJ_ = comdat any

$_ZNSt8functionIFN7rocksdb6StatusERKNS0_13ConfigOptionsERKNSt7__cxx1112basic_stringIcSt11char_traitsIcESaIcEEESC_PvEEaSERKSF_ = comdat any

$_ZNSt8functionIFN7rocksdb6StatusERKNS0_13ConfigOptionsERKNSt7__cxx1112basic_stringIcSt11char_traitsIcESaIcEEESC_PvEE4swapERSF_ = comdat any

$_ZSt4swapISt9_Any_dataENSt9enable_ifIXsr6__and_ISt6__not_ISt15__is_tuple_likeIT_EESt21is_move_constructibleIS4_ESt18is_move_assignableIS4_EEE5valueEvE4typeERS4_SD_ = comdat any

$_ZSt4swapIPFbRSt9_Any_dataRKS0_St18_Manager_operationEENSt9enable_ifIXsr6__and_ISt6__not_ISt15__is_tuple_likeIT_EESt21is_move_constructibleISA_ESt18is_move_assignableISA_EEE5valueEvE4typeERSA_SJ_ = comdat any

$_ZSt4swapIPFN7rocksdb6StatusERKSt9_Any_dataRKNS0_13ConfigOptionsERKNSt7__cxx1112basic_stringIcSt11char_traitsIcESaIcEEESF_OPvEENSt9enable_ifIXsr6__and_ISt6__not_ISt15__is_tuple_likeIT_EESt21is_move_constructibleISN_ESt18is_move_assignableISN_EEE5valueEvE4typeERSN_SW_ = comdat any

$_ZNSt8functionIFN7rocksdb6StatusERKNS0_13ConfigOptionsERKNSt7__cxx1112basic_stringIcSt11char_traitsIcESaIcEEEPvEEaSERKSF_ = comdat any

$_ZNSt8functionIFN7rocksdb6StatusERKNS0_13ConfigOptionsERKNSt7__cxx1112basic_stringIcSt11char_traitsIcESaIcEEEPvEE4swapERSF_ = comdat any

$_ZSt4swapIPFN7rocksdb6StatusERKSt9_Any_dataRKNS0_13ConfigOptionsERKNSt7__cxx1112basic_stringIcSt11char_traitsIcESaIcEEEOPvEENSt9enable_ifIXsr6__and_ISt6__not_ISt15__is_tuple_likeIT_EESt21is_move_constructibleISN_ESt18is_move_assignableISN_EEE5valueEvE4typeERSN_SW_ = comdat any

$_ZNSt8functionIFN7rocksdb6StatusERKNS0_9DBOptionsERKNS0_19ColumnFamilyOptionsERKNSt7__cxx1112basic_stringIcSt11char_traitsIcESaIcEEEPKvEEaSERKSJ_ = comdat any

$_ZNSt8functionIFN7rocksdb6StatusERKNS0_9DBOptionsERKNS0_19ColumnFamilyOptionsERKNSt7__cxx1112basic_stringIcSt11char_traitsIcESaIcEEEPKvEE4swapERSJ_ = comdat any

$_ZSt4swapIPFN7rocksdb6StatusERKSt9_Any_dataRKNS0_9DBOptionsERKNS0_19ColumnFamilyOptionsERKNSt7__cxx1112basic_stringIcSt11char_traitsIcESaIcEEEOPKvEENSt9enable_ifIXsr6__and_ISt6__not_ISt15__is_tuple_likeIT_EESt21is_move_constructibleISR_ESt18is_move_assignableISR_EEE5valueEvE4typeERSR_S10_ = comdat any

$_ZN7rocksdb12ConfigurableC2Ev = comdat any

$_ZN7rocksdb16MutableDBOptionsC2ERKS0_ = comdat any

$_ZN7rocksdb12Configurable15RegisterOptionsINS_16MutableDBOptionsEEEvPT_PKSt13unordered_mapINSt7__cxx1112basic_stringIcSt11char_traitsIcESaIcEEENS_14OptionTypeInfoESt4hashISB_ESt8equal_toISB_ESaISt4pairIKSB_SC_EEE = comdat any

$_ZN7rocksdb16MutableDBOptionsD2Ev = comdat any

$_ZN7rocksdb12ConfigurableD2Ev = comdat any

$_ZN7rocksdb21MutableDBConfigurableD2Ev = comdat any

$_ZN7rocksdb21MutableDBConfigurableD0Ev = comdat any

$_ZNK7rocksdb12Configurable19GetPrintableOptionsB5cxx11Ev = comdat any

$_ZNK7rocksdb21MutableDBConfigurable15OptionsAreEqualERKNS_13ConfigOptionsERKNS_14OptionTypeInfoERKNSt7__cxx1112basic_stringIcSt11char_traitsIcESaIcEEEPKvSG_PSC_ = comdat any

$_ZNSt6vectorIN7rocksdb12Configurable17RegisteredOptionsESaIS2_EEC2Ev = comdat any

$_ZNSt12_Vector_baseIN7rocksdb12Configurable17RegisteredOptionsESaIS2_EEC2Ev = comdat any

$_ZNSt12_Vector_baseIN7rocksdb12Configurable17RegisteredOptionsESaIS2_EE12_Vector_implC2Ev = comdat any

$_ZNSaIN7rocksdb12Configurable17RegisteredOptionsEEC2Ev = comdat any

$_ZNSt12_Vector_baseIN7rocksdb12Configurable17RegisteredOptionsESaIS2_EE17_Vector_impl_dataC2Ev = comdat any

$_ZNSt15__new_allocatorIN7rocksdb12Configurable17RegisteredOptionsEEC2Ev = comdat any

$_ZN7rocksdb16MutableDBOptions5kNameEv = comdat any

$_ZNSt6vectorIN7rocksdb12Configurable17RegisteredOptionsESaIS2_EED2Ev = comdat any

$_ZSt8_DestroyIPN7rocksdb12Configurable17RegisteredOptionsES2_EvT_S4_RSaIT0_E = comdat any

$_ZNSt12_Vector_baseIN7rocksdb12Configurable17RegisteredOptionsESaIS2_EE19_M_get_Tp_allocatorEv = comdat any

$_ZNSt12_Vector_baseIN7rocksdb12Configurable17RegisteredOptionsESaIS2_EED2Ev = comdat any

$_ZSt8_DestroyIPN7rocksdb12Configurable17RegisteredOptionsEEvT_S4_ = comdat any

$_ZNSt12_Destroy_auxILb0EE9__destroyIPN7rocksdb12Configurable17RegisteredOptionsEEEvT_S6_ = comdat any

$_ZSt8_DestroyIN7rocksdb12Configurable17RegisteredOptionsEEvPT_ = comdat any

$_ZN7rocksdb12Configurable17RegisteredOptionsD2Ev = comdat any

$_ZNSt12_Vector_baseIN7rocksdb12Configurable17RegisteredOptionsESaIS2_EE13_M_deallocateEPS2_m = comdat any

$_ZNSt12_Vector_baseIN7rocksdb12Configurable17RegisteredOptionsESaIS2_EE12_Vector_implD2Ev = comdat any

$_ZNSt16allocator_traitsISaIN7rocksdb12Configurable17RegisteredOptionsEEE10deallocateERS3_PS2_m = comdat any

$_ZNSt15__new_allocatorIN7rocksdb12Configurable17RegisteredOptionsEE10deallocateEPS2_m = comdat any

$_ZNSaIN7rocksdb12Configurable17RegisteredOptionsEED2Ev = comdat any

$_ZNSt15__new_allocatorIN7rocksdb12Configurable17RegisteredOptionsEED2Ev = comdat any

$_ZNK7rocksdb14OptionTypeInfo8IsByNameEv = comdat any

$_ZNKSt13unordered_mapINSt7__cxx1112basic_stringIcSt11char_traitsIcESaIcEEES5_St4hashIS5_ESt8equal_toIS5_ESaISt4pairIKS5_S5_EEE4findERSB_ = comdat any

$_ZNSt8__detaileqERKNS_19_Node_iterator_baseISt4pairIKNSt7__cxx1112basic_stringIcSt11char_traitsIcESaIcEEES7_ELb1EEESC_ = comdat any

$_ZNKSt13unordered_mapINSt7__cxx1112basic_stringIcSt11char_traitsIcESaIcEEES5_St4hashIS5_ESt8equal_toIS5_ESaISt4pairIKS5_S5_EEE3endEv = comdat any

$_ZNKSt8__detail20_Node_const_iteratorISt4pairIKNSt7__cxx1112basic_stringIcSt11char_traitsIcESaIcEEES7_ELb0ELb1EEptEv = comdat any

$_ZNK7rocksdb14OptionTypeInfo14IsConfigurableEv = comdat any

$_ZNK7rocksdb14OptionTypeInfo12AsRawPointerINS_12ConfigurableEEEPKT_PKv = comdat any

$_ZNSt8__detailneERKNS_19_Node_iterator_baseISt4pairIKNSt7__cxx1112basic_stringIcSt11char_traitsIcESaIcEEES7_ELb1EEESC_ = comdat any

$_ZStneIcSt11char_traitsIcESaIcEEbRKNSt7__cxx1112basic_stringIT_T0_T1_EESA_ = comdat any

$_ZNKSt10_HashtableINSt7__cxx1112basic_stringIcSt11char_traitsIcESaIcEEESt4pairIKS5_S5_ESaIS8_ENSt8__detail10_Select1stESt8equal_toIS5_ESt4hashIS5_ENSA_18_Mod_range_hashingENSA_20_Default_ranged_hashENSA_20_Prime_rehash_policyENSA_17_Hashtable_traitsILb1ELb0ELb1EEEE4findERS7_ = comdat any

$_ZNKSt10_HashtableINSt7__cxx1112basic_stringIcSt11char_traitsIcESaIcEEESt4pairIKS5_S5_ESaIS8_ENSt8__detail10_Select1stESt8equal_toIS5_ESt4hashIS5_ENSA_18_Mod_range_hashingENSA_20_Default_ranged_hashENSA_20_Prime_rehash_policyENSA_17_Hashtable_traitsILb1ELb0ELb1EEEE4sizeEv = comdat any

$_ZNSt10_HashtableINSt7__cxx1112basic_stringIcSt11char_traitsIcESaIcEEESt4pairIKS5_S5_ESaIS8_ENSt8__detail10_Select1stESt8equal_toIS5_ESt4hashIS5_ENSA_18_Mod_range_hashingENSA_20_Default_ranged_hashENSA_20_Prime_rehash_policyENSA_17_Hashtable_traitsILb1ELb0ELb1EEEE22__small_size_thresholdEv = comdat any

$_ZNKSt10_HashtableINSt7__cxx1112basic_stringIcSt11char_traitsIcESaIcEEESt4pairIKS5_S5_ESaIS8_ENSt8__detail10_Select1stESt8equal_toIS5_ESt4hashIS5_ENSA_18_Mod_range_hashingENSA_20_Default_ranged_hashENSA_20_Prime_rehash_policyENSA_17_Hashtable_traitsILb1ELb0ELb1EEEE5beginEv = comdat any

$_ZNKSt10_HashtableINSt7__cxx1112basic_stringIcSt11char_traitsIcESaIcEEESt4pairIKS5_S5_ESaIS8_ENSt8__detail10_Select1stESt8equal_toIS5_ESt4hashIS5_ENSA_18_Mod_range_hashingENSA_20_Default_ranged_hashENSA_20_Prime_rehash_policyENSA_17_Hashtable_traitsILb1ELb0ELb1EEEE3endEv = comdat any

$_ZNKSt8__detail15_Hashtable_baseINSt7__cxx1112basic_stringIcSt11char_traitsIcESaIcEEESt4pairIKS6_S6_ENS_10_Select1stESt8equal_toIS6_ESt4hashIS6_ENS_18_Mod_range_hashingENS_20_Default_ranged_hashENS_17_Hashtable_traitsILb1ELb0ELb1EEEE13_M_key_equalsERS8_RKNS_16_Hash_node_valueIS9_Lb1EEE = comdat any

$_ZNSt8__detail20_Node_const_iteratorISt4pairIKNSt7__cxx1112basic_stringIcSt11char_traitsIcESaIcEEES7_ELb0ELb1EEppEv = comdat any

$_ZNKSt8__detail15_Hash_code_baseINSt7__cxx1112basic_stringIcSt11char_traitsIcESaIcEEESt4pairIKS6_S6_ENS_10_Select1stESt4hashIS6_ENS_18_Mod_range_hashingENS_20_Default_ranged_hashELb1EE12_M_hash_codeERS8_ = comdat any

$_ZNKSt10_HashtableINSt7__cxx1112basic_stringIcSt11char_traitsIcESaIcEEESt4pairIKS5_S5_ESaIS8_ENSt8__detail10_Select1stESt8equal_toIS5_ESt4hashIS5_ENSA_18_Mod_range_hashingENSA_20_Default_ranged_hashENSA_20_Prime_rehash_policyENSA_17_Hashtable_traitsILb1ELb0ELb1EEEE15_M_bucket_indexEm = comdat any

$_ZNKSt10_HashtableINSt7__cxx1112basic_stringIcSt11char_traitsIcESaIcEEESt4pairIKS5_S5_ESaIS8_ENSt8__detail10_Select1stESt8equal_toIS5_ESt4hashIS5_ENSA_18_Mod_range_hashingENSA_20_Default_ranged_hashENSA_20_Prime_rehash_policyENSA_17_Hashtable_traitsILb1ELb0ELb1EEEE12_M_find_nodeEmRS7_m = comdat any

$_ZNSt8__detail20_Node_const_iteratorISt4pairIKNSt7__cxx1112basic_stringIcSt11char_traitsIcESaIcEEES7_ELb0ELb1EEC2EPNS_10_Hash_nodeIS9_Lb1EEE = comdat any

$_ZNSt8__detail22_Hashtable_hash_traitsISt4hashINSt7__cxx1112basic_stringIcSt11char_traitsIcESaIcEEEEE22__small_size_thresholdEv = comdat any

$_ZNKSt10_HashtableINSt7__cxx1112basic_stringIcSt11char_traitsIcESaIcEEESt4pairIKS5_S5_ESaIS8_ENSt8__detail10_Select1stESt8equal_toIS5_ESt4hashIS5_ENSA_18_Mod_range_hashingENSA_20_Default_ranged_hashENSA_20_Prime_rehash_policyENSA_17_Hashtable_traitsILb1ELb0ELb1EEEE8_M_beginEv = comdat any

$_ZNKSt8__detail15_Hashtable_baseINSt7__cxx1112basic_stringIcSt11char_traitsIcESaIcEEESt4pairIKS6_S6_ENS_10_Select1stESt8equal_toIS6_ESt4hashIS6_ENS_18_Mod_range_hashingENS_20_Default_ranged_hashENS_17_Hashtable_traitsILb1ELb0ELb1EEEE5_M_eqEv = comdat any

$_ZNKSt8equal_toINSt7__cxx1112basic_stringIcSt11char_traitsIcESaIcEEEEclERKS5_S8_ = comdat any

$_ZNKSt8__detail10_Select1stclIRKSt4pairIKNSt7__cxx1112basic_stringIcSt11char_traitsIcESaIcEEES8_EEEONS0_10__1st_typeIT_E4typeEOSE_ = comdat any

$_ZNKSt8__detail21_Hash_node_value_baseISt4pairIKNSt7__cxx1112basic_stringIcSt11char_traitsIcESaIcEEES7_EE4_M_vEv = comdat any

$_ZNKSt8__detail21_Hashtable_ebo_helperILi0ESt8equal_toINSt7__cxx1112basic_stringIcSt11char_traitsIcESaIcEEEELb1EE7_M_cgetEv = comdat any

$_ZNKSt8__detail21_Hash_node_value_baseISt4pairIKNSt7__cxx1112basic_stringIcSt11char_traitsIcESaIcEEES7_EE9_M_valptrEv = comdat any

$_ZNK9__gnu_cxx16__aligned_bufferISt4pairIKNSt7__cxx1112basic_stringIcSt11char_traitsIcESaIcEEES7_EE6_M_ptrEv = comdat any

$_ZNK9__gnu_cxx16__aligned_bufferISt4pairIKNSt7__cxx1112basic_stringIcSt11char_traitsIcESaIcEEES7_EE7_M_addrEv = comdat any

$_ZNSt8__detail19_Node_iterator_baseISt4pairIKNSt7__cxx1112basic_stringIcSt11char_traitsIcESaIcEEES7_ELb1EE7_M_incrEv = comdat any

$_ZNKSt8__detail10_Hash_nodeISt4pairIKNSt7__cxx1112basic_stringIcSt11char_traitsIcESaIcEEES7_ELb1EE7_M_nextEv = comdat any

$_ZNKSt8__detail15_Hash_code_baseINSt7__cxx1112basic_stringIcSt11char_traitsIcESaIcEEESt4pairIKS6_S6_ENS_10_Select1stESt4hashIS6_ENS_18_Mod_range_hashingENS_20_Default_ranged_hashELb1EE7_M_hashEv = comdat any

$_ZNKSt4hashINSt7__cxx1112basic_stringIcSt11char_traitsIcESaIcEEEEclERKS5_ = comdat any

$_ZNKSt8__detail21_Hashtable_ebo_helperILi1ESt4hashINSt7__cxx1112basic_stringIcSt11char_traitsIcESaIcEEEELb1EE7_M_cgetEv = comdat any

$_ZNSt10_Hash_impl4hashEPKvmm = comdat any

$_ZNKSt8__detail15_Hash_code_baseINSt7__cxx1112basic_stringIcSt11char_traitsIcESaIcEEESt4pairIKS6_S6_ENS_10_Select1stESt4hashIS6_ENS_18_Mod_range_hashingENS_20_Default_ranged_hashELb1EE15_M_bucket_indexEmm = comdat any

$_ZNKSt8__detail18_Mod_range_hashingclEmm = comdat any

$_ZNKSt10_HashtableINSt7__cxx1112basic_stringIcSt11char_traitsIcESaIcEEESt4pairIKS5_S5_ESaIS8_ENSt8__detail10_Select1stESt8equal_toIS5_ESt4hashIS5_ENSA_18_Mod_range_hashingENSA_20_Default_ranged_hashENSA_20_Prime_rehash_policyENSA_17_Hashtable_traitsILb1ELb0ELb1EEEE19_M_find_before_nodeEmRS7_m = comdat any

$_ZNKSt8__detail15_Hashtable_baseINSt7__cxx1112basic_stringIcSt11char_traitsIcESaIcEEESt4pairIKS6_S6_ENS_10_Select1stESt8equal_toIS6_ESt4hashIS6_ENS_18_Mod_range_hashingENS_20_Default_ranged_hashENS_17_Hashtable_traitsILb1ELb0ELb1EEEE9_M_equalsERS8_mRKNS_16_Hash_node_valueIS9_Lb1EEE = comdat any

$_ZNKSt10_HashtableINSt7__cxx1112basic_stringIcSt11char_traitsIcESaIcEEESt4pairIKS5_S5_ESaIS8_ENSt8__detail10_Select1stESt8equal_toIS5_ESt4hashIS5_ENSA_18_Mod_range_hashingENSA_20_Default_ranged_hashENSA_20_Prime_rehash_policyENSA_17_Hashtable_traitsILb1ELb0ELb1EEEE15_M_bucket_indexERKNSA_16_Hash_node_valueIS8_Lb1EEE = comdat any

$_ZNSt8__detail15_Hashtable_baseINSt7__cxx1112basic_stringIcSt11char_traitsIcESaIcEEESt4pairIKS6_S6_ENS_10_Select1stESt8equal_toIS6_ESt4hashIS6_ENS_18_Mod_range_hashingENS_20_Default_ranged_hashENS_17_Hashtable_traitsILb1ELb0ELb1EEEE9_S_equalsEmRKNS_21_Hash_node_code_cacheILb1EEE = comdat any

$_ZNKSt8__detail15_Hash_code_baseINSt7__cxx1112basic_stringIcSt11char_traitsIcESaIcEEESt4pairIKS6_S6_ENS_10_Select1stESt4hashIS6_ENS_18_Mod_range_hashingENS_20_Default_ranged_hashELb1EE15_M_bucket_indexERKNS_16_Hash_node_valueIS9_Lb1EEEm = comdat any

$_ZNSt8__detail19_Node_iterator_baseISt4pairIKNSt7__cxx1112basic_stringIcSt11char_traitsIcESaIcEEES7_ELb1EEC2EPNS_10_Hash_nodeIS9_Lb1EEE = comdat any

$_ZNSt8__detail21_Hash_node_value_baseISt4pairIKNSt7__cxx1112basic_stringIcSt11char_traitsIcESaIcEEES7_EE9_M_valptrEv = comdat any

$_ZN9__gnu_cxx16__aligned_bufferISt4pairIKNSt7__cxx1112basic_stringIcSt11char_traitsIcESaIcEEES7_EE6_M_ptrEv = comdat any

$_ZN9__gnu_cxx16__aligned_bufferISt4pairIKNSt7__cxx1112basic_stringIcSt11char_traitsIcESaIcEEES7_EE7_M_addrEv = comdat any

$_ZNK7rocksdb14OptionTypeInfo11IsUniquePtrEv = comdat any

$_ZNK7rocksdb14OptionTypeInfo11GetOffsetAsISt10unique_ptrINS_12ConfigurableESt14default_deleteIS3_EEEEPKT_PKv = comdat any

$_ZNKSt10unique_ptrIN7rocksdb12ConfigurableESt14default_deleteIS1_EE3getEv = comdat any

$_ZNK7rocksdb14OptionTypeInfo11IsSharedPtrEv = comdat any

$_ZNK7rocksdb14OptionTypeInfo11GetOffsetAsISt10shared_ptrINS_12ConfigurableEEEEPKT_PKv = comdat any

$_ZNKSt12__shared_ptrIN7rocksdb12ConfigurableELN9__gnu_cxx12_Lock_policyE2EE3getEv = comdat any

$_ZNK7rocksdb14OptionTypeInfo8IsRawPtrEv = comdat any

$_ZNK7rocksdb14OptionTypeInfo11GetOffsetAsIKPNS_12ConfigurableEEEPKT_PKv = comdat any

$_ZNK7rocksdb14OptionTypeInfo11GetOffsetAsINS_12ConfigurableEEEPKT_PKv = comdat any

$_ZNK7rocksdb14OptionTypeInfo9IsEnabledENS_15OptionTypeFlagsE = comdat any

$_ZN7rocksdbanERKNS_15OptionTypeFlagsES2_ = comdat any

$_ZNK7rocksdb14OptionTypeInfo9GetOffsetEPKv = comdat any

$_ZNKSt15__uniq_ptr_implIN7rocksdb12ConfigurableESt14default_deleteIS1_EE6_M_ptrEv = comdat any

$_ZSt3getILm0EJPN7rocksdb12ConfigurableESt14default_deleteIS1_EEERKNSt13tuple_elementIXT_ESt5tupleIJDpT0_EEE4typeERKS9_ = comdat any

$_ZSt12__get_helperILm0EPN7rocksdb12ConfigurableEJSt14default_deleteIS1_EEERKT0_RKSt11_Tuple_implIXT_EJS5_DpT1_EE = comdat any

$_ZNSt11_Tuple_implILm0EJPN7rocksdb12ConfigurableESt14default_deleteIS1_EEE7_M_headERKS5_ = comdat any

$_ZNSt10_Head_baseILm0EPN7rocksdb12ConfigurableELb0EE7_M_headERKS3_ = comdat any

$_ZN7rocksdb9DBOptionsC2ERKS0_ = comdat any

$_ZN7rocksdb18ImmutableDBOptionsaSEOS0_ = comdat any

$_ZN7rocksdb18ImmutableDBOptionsD2Ev = comdat any

$_ZN7rocksdb9DBOptionsD2Ev = comdat any

$_ZN7rocksdb12Configurable15RegisterOptionsINS_18ImmutableDBOptionsEEEvPT_PKSt13unordered_mapINSt7__cxx1112basic_stringIcSt11char_traitsIcESaIcEEENS_14OptionTypeInfoESt4hashISB_ESt8equal_toISB_ESaISt4pairIKSB_SC_EEE = comdat any

$_ZN7rocksdb21DBOptionsConfigurableD2Ev = comdat any

$_ZN7rocksdb21DBOptionsConfigurableD0Ev = comdat any

$_ZNK7rocksdb21DBOptionsConfigurable13GetOptionsPtrERKNSt7__cxx1112basic_stringIcSt11char_traitsIcESaIcEEE = comdat any

$_ZN7rocksdb21DBOptionsConfigurable16ConfigureOptionsERKNS_13ConfigOptionsERKSt13unordered_mapINSt7__cxx1112basic_stringIcSt11char_traitsIcESaIcEEESA_St4hashISA_ESt8equal_toISA_ESaISt4pairIKSA_SA_EEEPSJ_ = comdat any

$_ZNSt10shared_ptrIN7rocksdb11RateLimiterEEaSEOS2_ = comdat any

$_ZNSt10shared_ptrIN7rocksdb14SstFileManagerEEaSEOS2_ = comdat any

$_ZNSt10shared_ptrIN7rocksdb6LoggerEEaSEOS2_ = comdat any

$_ZNSt10shared_ptrIN7rocksdb10StatisticsEEaSEOS2_ = comdat any

$_ZNSt6vectorIN7rocksdb6DbPathESaIS1_EEaSEOS3_ = comdat any

$_ZNSt10shared_ptrIN7rocksdb18WriteBufferManagerEEaSEOS2_ = comdat any

$_ZNSt6vectorISt10shared_ptrIN7rocksdb13EventListenerEESaIS3_EEaSEOS5_ = comdat any

$_ZNSt10shared_ptrIN7rocksdb5CacheEEaSEOS2_ = comdat any

$_ZNSt10shared_ptrIN7rocksdb22FileChecksumGenFactoryEEaSEOS2_ = comdat any

$_ZNSt10shared_ptrIN7rocksdb10FileSystemEEaSEOS2_ = comdat any

$_ZNSt10shared_ptrIN7rocksdb17CompactionServiceEEaSEOS2_ = comdat any

$_ZNSt12__shared_ptrIN7rocksdb11RateLimiterELN9__gnu_cxx12_Lock_policyE2EEaSEOS4_ = comdat any

$_ZNSt12__shared_ptrIN7rocksdb11RateLimiterELN9__gnu_cxx12_Lock_policyE2EEC2EOS4_ = comdat any

$_ZNSt12__shared_ptrIN7rocksdb11RateLimiterELN9__gnu_cxx12_Lock_policyE2EE4swapERS4_ = comdat any

$_ZNSt12__shared_ptrIN7rocksdb11RateLimiterELN9__gnu_cxx12_Lock_policyE2EED2Ev = comdat any

$_ZNSt14__shared_countILN9__gnu_cxx12_Lock_policyE2EEC2Ev = comdat any

$_ZNSt14__shared_countILN9__gnu_cxx12_Lock_policyE2EE7_M_swapERS2_ = comdat any

$_ZSt4swapIPN7rocksdb11RateLimiterEENSt9enable_ifIXsr6__and_ISt6__not_ISt15__is_tuple_likeIT_EESt21is_move_constructibleIS6_ESt18is_move_assignableIS6_EEE5valueEvE4typeERS6_SF_ = comdat any

$_ZNSt14__shared_countILN9__gnu_cxx12_Lock_policyE2EED2Ev = comdat any

$_ZNSt16_Sp_counted_baseILN9__gnu_cxx12_Lock_policyE2EE10_M_releaseEv = comdat any

$_ZNSt16_Sp_counted_baseILN9__gnu_cxx12_Lock_policyE2EE24_M_release_last_use_coldEv = comdat any

$_ZNSt16_Sp_counted_baseILN9__gnu_cxx12_Lock_policyE2EE19_M_release_last_useEv = comdat any

$_ZNSt12__shared_ptrIN7rocksdb14SstFileManagerELN9__gnu_cxx12_Lock_policyE2EEaSEOS4_ = comdat any

$_ZNSt12__shared_ptrIN7rocksdb14SstFileManagerELN9__gnu_cxx12_Lock_policyE2EEC2EOS4_ = comdat any

$_ZNSt12__shared_ptrIN7rocksdb14SstFileManagerELN9__gnu_cxx12_Lock_policyE2EE4swapERS4_ = comdat any

$_ZNSt12__shared_ptrIN7rocksdb14SstFileManagerELN9__gnu_cxx12_Lock_policyE2EED2Ev = comdat any

$_ZSt4swapIPN7rocksdb14SstFileManagerEENSt9enable_ifIXsr6__and_ISt6__not_ISt15__is_tuple_likeIT_EESt21is_move_constructibleIS6_ESt18is_move_assignableIS6_EEE5valueEvE4typeERS6_SF_ = comdat any

$_ZNSt12__shared_ptrIN7rocksdb6LoggerELN9__gnu_cxx12_Lock_policyE2EEaSEOS4_ = comdat any

$_ZNSt12__shared_ptrIN7rocksdb6LoggerELN9__gnu_cxx12_Lock_policyE2EEC2EOS4_ = comdat any

$_ZNSt12__shared_ptrIN7rocksdb6LoggerELN9__gnu_cxx12_Lock_policyE2EE4swapERS4_ = comdat any

$_ZNSt12__shared_ptrIN7rocksdb6LoggerELN9__gnu_cxx12_Lock_policyE2EED2Ev = comdat any

$_ZSt4swapIPN7rocksdb6LoggerEENSt9enable_ifIXsr6__and_ISt6__not_ISt15__is_tuple_likeIT_EESt21is_move_constructibleIS6_ESt18is_move_assignableIS6_EEE5valueEvE4typeERS6_SF_ = comdat any

$_ZNSt12__shared_ptrIN7rocksdb10StatisticsELN9__gnu_cxx12_Lock_policyE2EEaSEOS4_ = comdat any

$_ZNSt12__shared_ptrIN7rocksdb10StatisticsELN9__gnu_cxx12_Lock_policyE2EEC2EOS4_ = comdat any

$_ZNSt12__shared_ptrIN7rocksdb10StatisticsELN9__gnu_cxx12_Lock_policyE2EE4swapERS4_ = comdat any

$_ZNSt12__shared_ptrIN7rocksdb10StatisticsELN9__gnu_cxx12_Lock_policyE2EED2Ev = comdat any

$_ZSt4swapIPN7rocksdb10StatisticsEENSt9enable_ifIXsr6__and_ISt6__not_ISt15__is_tuple_likeIT_EESt21is_move_constructibleIS6_ESt18is_move_assignableIS6_EEE5valueEvE4typeERS6_SF_ = comdat any

$_ZNSt6vectorIN7rocksdb6DbPathESaIS1_EE14_M_move_assignEOS3_St17integral_constantIbLb1EE = comdat any

$_ZNKSt12_Vector_baseIN7rocksdb6DbPathESaIS1_EE13get_allocatorEv = comdat any

$_ZNSt6vectorIN7rocksdb6DbPathESaIS1_EEC2ERKS2_ = comdat any

$_ZNSaIN7rocksdb6DbPathEED2Ev = comdat any

$_ZNSt12_Vector_baseIN7rocksdb6DbPathESaIS1_EE17_Vector_impl_data12_M_swap_dataERS4_ = comdat any

$_ZSt15__alloc_on_moveISaIN7rocksdb6DbPathEEEvRT_S4_ = comdat any

$_ZNSt12_Vector_baseIN7rocksdb6DbPathESaIS1_EE19_M_get_Tp_allocatorEv = comdat any

$_ZNKSt12_Vector_baseIN7rocksdb6DbPathESaIS1_EE19_M_get_Tp_allocatorEv = comdat any

$_ZNSaIN7rocksdb6DbPathEEC2ERKS1_ = comdat any

$_ZNSt15__new_allocatorIN7rocksdb6DbPathEEC2ERKS2_ = comdat any

$_ZNSt12_Vector_baseIN7rocksdb6DbPathESaIS1_EEC2ERKS2_ = comdat any

$_ZNSt12_Vector_baseIN7rocksdb6DbPathESaIS1_EE12_Vector_implC2ERKS2_ = comdat any

$_ZNSt15__new_allocatorIN7rocksdb6DbPathEED2Ev = comdat any

$_ZNSt12_Vector_baseIN7rocksdb6DbPathESaIS1_EE17_Vector_impl_dataC2Ev = comdat any

$_ZNSt12_Vector_baseIN7rocksdb6DbPathESaIS1_EE17_Vector_impl_data12_M_copy_dataERKS4_ = comdat any

$_ZNSt12__shared_ptrIN7rocksdb18WriteBufferManagerELN9__gnu_cxx12_Lock_policyE2EEaSEOS4_ = comdat any

$_ZNSt12__shared_ptrIN7rocksdb18WriteBufferManagerELN9__gnu_cxx12_Lock_policyE2EEC2EOS4_ = comdat any

$_ZNSt12__shared_ptrIN7rocksdb18WriteBufferManagerELN9__gnu_cxx12_Lock_policyE2EE4swapERS4_ = comdat any

$_ZNSt12__shared_ptrIN7rocksdb18WriteBufferManagerELN9__gnu_cxx12_Lock_policyE2EED2Ev = comdat any

$_ZSt4swapIPN7rocksdb18WriteBufferManagerEENSt9enable_ifIXsr6__and_ISt6__not_ISt15__is_tuple_likeIT_EESt21is_move_constructibleIS6_ESt18is_move_assignableIS6_EEE5valueEvE4typeERS6_SF_ = comdat any

$_ZNSt6vectorISt10shared_ptrIN7rocksdb13EventListenerEESaIS3_EE14_M_move_assignEOS5_St17integral_constantIbLb1EE = comdat any

$_ZNKSt12_Vector_baseISt10shared_ptrIN7rocksdb13EventListenerEESaIS3_EE13get_allocatorEv = comdat any

$_ZNSt6vectorISt10shared_ptrIN7rocksdb13EventListenerEESaIS3_EEC2ERKS4_ = comdat any

$_ZNSaISt10shared_ptrIN7rocksdb13EventListenerEEED2Ev = comdat any

$_ZNSt12_Vector_baseISt10shared_ptrIN7rocksdb13EventListenerEESaIS3_EE17_Vector_impl_data12_M_swap_dataERS6_ = comdat any

$_ZSt15__alloc_on_moveISaISt10shared_ptrIN7rocksdb13EventListenerEEEEvRT_S6_ = comdat any

$_ZNSt12_Vector_baseISt10shared_ptrIN7rocksdb13EventListenerEESaIS3_EE19_M_get_Tp_allocatorEv = comdat any

$_ZNKSt12_Vector_baseISt10shared_ptrIN7rocksdb13EventListenerEESaIS3_EE19_M_get_Tp_allocatorEv = comdat any

$_ZNSaISt10shared_ptrIN7rocksdb13EventListenerEEEC2ERKS3_ = comdat any

$_ZNSt15__new_allocatorISt10shared_ptrIN7rocksdb13EventListenerEEEC2ERKS4_ = comdat any

$_ZNSt12_Vector_baseISt10shared_ptrIN7rocksdb13EventListenerEESaIS3_EEC2ERKS4_ = comdat any

$_ZNSt12_Vector_baseISt10shared_ptrIN7rocksdb13EventListenerEESaIS3_EE12_Vector_implC2ERKS4_ = comdat any

$_ZNSt15__new_allocatorISt10shared_ptrIN7rocksdb13EventListenerEEED2Ev = comdat any

$_ZNSt12_Vector_baseISt10shared_ptrIN7rocksdb13EventListenerEESaIS3_EE17_Vector_impl_dataC2Ev = comdat any

$_ZNSt12_Vector_baseISt10shared_ptrIN7rocksdb13EventListenerEESaIS3_EE17_Vector_impl_data12_M_copy_dataERKS6_ = comdat any

$_ZNSt12__shared_ptrIN7rocksdb5CacheELN9__gnu_cxx12_Lock_policyE2EEaSEOS4_ = comdat any

$_ZNSt12__shared_ptrIN7rocksdb5CacheELN9__gnu_cxx12_Lock_policyE2EEC2EOS4_ = comdat any

$_ZNSt12__shared_ptrIN7rocksdb5CacheELN9__gnu_cxx12_Lock_policyE2EE4swapERS4_ = comdat any

$_ZNSt12__shared_ptrIN7rocksdb5CacheELN9__gnu_cxx12_Lock_policyE2EED2Ev = comdat any

$_ZSt4swapIPN7rocksdb5CacheEENSt9enable_ifIXsr6__and_ISt6__not_ISt15__is_tuple_likeIT_EESt21is_move_constructibleIS6_ESt18is_move_assignableIS6_EEE5valueEvE4typeERS6_SF_ = comdat any

$_ZNSt12__shared_ptrIN7rocksdb22FileChecksumGenFactoryELN9__gnu_cxx12_Lock_policyE2EEaSEOS4_ = comdat any

$_ZNSt12__shared_ptrIN7rocksdb22FileChecksumGenFactoryELN9__gnu_cxx12_Lock_policyE2EEC2EOS4_ = comdat any

$_ZNSt12__shared_ptrIN7rocksdb22FileChecksumGenFactoryELN9__gnu_cxx12_Lock_policyE2EE4swapERS4_ = comdat any

$_ZNSt12__shared_ptrIN7rocksdb22FileChecksumGenFactoryELN9__gnu_cxx12_Lock_policyE2EED2Ev = comdat any

$_ZSt4swapIPN7rocksdb22FileChecksumGenFactoryEENSt9enable_ifIXsr6__and_ISt6__not_ISt15__is_tuple_likeIT_EESt21is_move_constructibleIS6_ESt18is_move_assignableIS6_EEE5valueEvE4typeERS6_SF_ = comdat any

$_ZNSt12__shared_ptrIN7rocksdb10FileSystemELN9__gnu_cxx12_Lock_policyE2EEaSEOS4_ = comdat any

$_ZNSt12__shared_ptrIN7rocksdb10FileSystemELN9__gnu_cxx12_Lock_policyE2EEC2EOS4_ = comdat any

$_ZNSt12__shared_ptrIN7rocksdb10FileSystemELN9__gnu_cxx12_Lock_policyE2EE4swapERS4_ = comdat any

$_ZNSt12__shared_ptrIN7rocksdb10FileSystemELN9__gnu_cxx12_Lock_policyE2EED2Ev = comdat any

$_ZSt4swapIPN7rocksdb10FileSystemEENSt9enable_ifIXsr6__and_ISt6__not_ISt15__is_tuple_likeIT_EESt21is_move_constructibleIS6_ESt18is_move_assignableIS6_EEE5valueEvE4typeERS6_SF_ = comdat any

$_ZNSt12__shared_ptrIN7rocksdb17CompactionServiceELN9__gnu_cxx12_Lock_policyE2EEaSEOS4_ = comdat any

$_ZNSt12__shared_ptrIN7rocksdb17CompactionServiceELN9__gnu_cxx12_Lock_policyE2EEC2EOS4_ = comdat any

$_ZNSt12__shared_ptrIN7rocksdb17CompactionServiceELN9__gnu_cxx12_Lock_policyE2EE4swapERS4_ = comdat any

$_ZNSt12__shared_ptrIN7rocksdb17CompactionServiceELN9__gnu_cxx12_Lock_policyE2EED2Ev = comdat any

$_ZSt4swapIPN7rocksdb17CompactionServiceEENSt9enable_ifIXsr6__and_ISt6__not_ISt15__is_tuple_likeIT_EESt21is_move_constructibleIS6_ESt18is_move_assignableIS6_EEE5valueEvE4typeERS6_SF_ = comdat any

$_ZN7rocksdb18ImmutableDBOptions5kNameEv = comdat any

$_ZN7rocksdb9DBOptionsaSEOS0_ = comdat any

$_ZN7rocksdb6StatusaSEOS0_ = comdat any

$_ZNK7rocksdb6Status11MarkCheckedEv = comdat any

$_ZNK7rocksdb6Status9MustCheckEv = comdat any

$_ZNSt10unique_ptrIA_KcSt14default_deleteIS1_EEaSEOS4_ = comdat any

$_ZNSt15__uniq_ptr_dataIKcSt14default_deleteIA_S0_ELb1ELb1EEaSEOS4_ = comdat any

$_ZNSt15__uniq_ptr_implIKcSt14default_deleteIA_S0_EEaSEOS4_ = comdat any

$_ZNSt15__uniq_ptr_implIKcSt14default_deleteIA_S0_EE5resetEPS0_ = comdat any

$_ZNSt15__uniq_ptr_implIKcSt14default_deleteIA_S0_EE7releaseEv = comdat any

$_ZNSt15__uniq_ptr_implIKcSt14default_deleteIA_S0_EE10_M_deleterEv = comdat any

$_ZNSt15__uniq_ptr_implIKcSt14default_deleteIA_S0_EE6_M_ptrEv = comdat any

$_ZNKSt14default_deleteIA_KcEclIS0_EENSt9enable_ifIXsr14is_convertibleIPA_T_PS1_EE5valueEvE4typeEPS5_ = comdat any

$_ZSt3getILm0EJPKcSt14default_deleteIA_S0_EEERNSt13tuple_elementIXT_ESt5tupleIJDpT0_EEE4typeERS9_ = comdat any

$_ZSt12__get_helperILm0EPKcJSt14default_deleteIA_S0_EEERT0_RSt11_Tuple_implIXT_EJS5_DpT1_EE = comdat any

$_ZNSt11_Tuple_implILm0EJPKcSt14default_deleteIA_S0_EEE7_M_headERS5_ = comdat any

$_ZNSt10_Head_baseILm0EPKcLb0EE7_M_headERS2_ = comdat any

$_ZSt3getILm1EJPKcSt14default_deleteIA_S0_EEERNSt13tuple_elementIXT_ESt5tupleIJDpT0_EEE4typeERS9_ = comdat any

$_ZSt12__get_helperILm1ESt14default_deleteIA_KcEJEERT0_RSt11_Tuple_implIXT_EJS4_DpT1_EE = comdat any

$_ZNSt11_Tuple_implILm1EJSt14default_deleteIA_KcEEE7_M_headERS4_ = comdat any

$_ZNSt10_Head_baseILm1ESt14default_deleteIA_KcELb1EE7_M_headERS4_ = comdat any

$_ZN7rocksdb19ColumnFamilyOptionsD2Ev = comdat any

$_ZNSt10shared_ptrIN7rocksdb21SstPartitionerFactoryEED2Ev = comdat any

$_ZNSt10shared_ptrIN7rocksdb21ConcurrentTaskLimiterEED2Ev = comdat any

$_ZNSt10shared_ptrIN7rocksdb12TableFactoryEED2Ev = comdat any

$_ZNSt10shared_ptrIKN7rocksdb14SliceTransformEED2Ev = comdat any

$_ZNSt10shared_ptrIN7rocksdb23CompactionFilterFactoryEED2Ev = comdat any

$_ZNSt10shared_ptrIN7rocksdb13MergeOperatorEED2Ev = comdat any

$_ZN7rocksdb27AdvancedColumnFamilyOptionsD2Ev = comdat any

$_ZNSt12__shared_ptrIN7rocksdb21SstPartitionerFactoryELN9__gnu_cxx12_Lock_policyE2EED2Ev = comdat any

$_ZNSt12__shared_ptrIN7rocksdb21ConcurrentTaskLimiterELN9__gnu_cxx12_Lock_policyE2EED2Ev = comdat any

$_ZNSt12__shared_ptrIN7rocksdb12TableFactoryELN9__gnu_cxx12_Lock_policyE2EED2Ev = comdat any

$_ZNSt12__shared_ptrIKN7rocksdb14SliceTransformELN9__gnu_cxx12_Lock_policyE2EED2Ev = comdat any

$_ZNSt12__shared_ptrIN7rocksdb23CompactionFilterFactoryELN9__gnu_cxx12_Lock_policyE2EED2Ev = comdat any

$_ZNSt12__shared_ptrIN7rocksdb13MergeOperatorELN9__gnu_cxx12_Lock_policyE2EED2Ev = comdat any

$_ZNSt6vectorISt10shared_ptrIN7rocksdb31TablePropertiesCollectorFactoryEESaIS3_EED2Ev = comdat any

$_ZNSt10shared_ptrIN7rocksdb18MemTableRepFactoryEED2Ev = comdat any

$_ZN7rocksdb21CompactionOptionsFIFOD2Ev = comdat any

$_ZNSt6vectorIiSaIiEED2Ev = comdat any

$_ZNSt6vectorIN7rocksdb15CompressionTypeESaIS1_EED2Ev = comdat any

$_ZSt8_DestroyIPSt10shared_ptrIN7rocksdb31TablePropertiesCollectorFactoryEES3_EvT_S5_RSaIT0_E = comdat any

$_ZNSt12_Vector_baseISt10shared_ptrIN7rocksdb31TablePropertiesCollectorFactoryEESaIS3_EE19_M_get_Tp_allocatorEv = comdat any

$_ZNSt12_Vector_baseISt10shared_ptrIN7rocksdb31TablePropertiesCollectorFactoryEESaIS3_EED2Ev = comdat any

$_ZSt8_DestroyIPSt10shared_ptrIN7rocksdb31TablePropertiesCollectorFactoryEEEvT_S5_ = comdat any

$_ZNSt12_Destroy_auxILb0EE9__destroyIPSt10shared_ptrIN7rocksdb31TablePropertiesCollectorFactoryEEEEvT_S7_ = comdat any

$_ZSt8_DestroyISt10shared_ptrIN7rocksdb31TablePropertiesCollectorFactoryEEEvPT_ = comdat any

$_ZNSt10shared_ptrIN7rocksdb31TablePropertiesCollectorFactoryEED2Ev = comdat any

$_ZNSt12__shared_ptrIN7rocksdb31TablePropertiesCollectorFactoryELN9__gnu_cxx12_Lock_policyE2EED2Ev = comdat any

$_ZNSt12_Vector_baseISt10shared_ptrIN7rocksdb31TablePropertiesCollectorFactoryEESaIS3_EE13_M_deallocateEPS3_m = comdat any

$_ZNSt12_Vector_baseISt10shared_ptrIN7rocksdb31TablePropertiesCollectorFactoryEESaIS3_EE12_Vector_implD2Ev = comdat any

$_ZNSt16allocator_traitsISaISt10shared_ptrIN7rocksdb31TablePropertiesCollectorFactoryEEEE10deallocateERS4_PS3_m = comdat any

$_ZNSt15__new_allocatorISt10shared_ptrIN7rocksdb31TablePropertiesCollectorFactoryEEE10deallocateEPS3_m = comdat any

$_ZNSaISt10shared_ptrIN7rocksdb31TablePropertiesCollectorFactoryEEED2Ev = comdat any

$_ZNSt15__new_allocatorISt10shared_ptrIN7rocksdb31TablePropertiesCollectorFactoryEEED2Ev = comdat any

$_ZNSt12__shared_ptrIN7rocksdb18MemTableRepFactoryELN9__gnu_cxx12_Lock_policyE2EED2Ev = comdat any

$_ZNSt6vectorIN7rocksdb18FileTemperatureAgeESaIS1_EED2Ev = comdat any

$_ZSt8_DestroyIPN7rocksdb18FileTemperatureAgeES1_EvT_S3_RSaIT0_E = comdat any

$_ZNSt12_Vector_baseIN7rocksdb18FileTemperatureAgeESaIS1_EE19_M_get_Tp_allocatorEv = comdat any

$_ZNSt12_Vector_baseIN7rocksdb18FileTemperatureAgeESaIS1_EED2Ev = comdat any

$_ZSt8_DestroyIPN7rocksdb18FileTemperatureAgeEEvT_S3_ = comdat any

$_ZNSt12_Destroy_auxILb1EE9__destroyIPN7rocksdb18FileTemperatureAgeEEEvT_S5_ = comdat any

$_ZNSt12_Vector_baseIN7rocksdb18FileTemperatureAgeESaIS1_EE13_M_deallocateEPS1_m = comdat any

$_ZNSt12_Vector_baseIN7rocksdb18FileTemperatureAgeESaIS1_EE12_Vector_implD2Ev = comdat any

$_ZNSt16allocator_traitsISaIN7rocksdb18FileTemperatureAgeEEE10deallocateERS2_PS1_m = comdat any

$_ZNSt15__new_allocatorIN7rocksdb18FileTemperatureAgeEE10deallocateEPS1_m = comdat any

$_ZNSaIN7rocksdb18FileTemperatureAgeEED2Ev = comdat any

$_ZNSt15__new_allocatorIN7rocksdb18FileTemperatureAgeEED2Ev = comdat any

$_ZSt8_DestroyIPiiEvT_S1_RSaIT0_E = comdat any

$_ZNSt12_Vector_baseIiSaIiEE19_M_get_Tp_allocatorEv = comdat any

$_ZNSt12_Vector_baseIiSaIiEED2Ev = comdat any

$_ZSt8_DestroyIPiEvT_S1_ = comdat any

$_ZNSt12_Destroy_auxILb1EE9__destroyIPiEEvT_S3_ = comdat any

$_ZNSt12_Vector_baseIiSaIiEE13_M_deallocateEPim = comdat any

$_ZNSt12_Vector_baseIiSaIiEE12_Vector_implD2Ev = comdat any

$_ZNSt16allocator_traitsISaIiEE10deallocateERS0_Pim = comdat any

$_ZNSt15__new_allocatorIiE10deallocateEPim = comdat any

$_ZNSaIiED2Ev = comdat any

$_ZNSt15__new_allocatorIiED2Ev = comdat any

$_ZSt8_DestroyIPN7rocksdb15CompressionTypeES1_EvT_S3_RSaIT0_E = comdat any

$_ZNSt12_Vector_baseIN7rocksdb15CompressionTypeESaIS1_EE19_M_get_Tp_allocatorEv = comdat any

$_ZNSt12_Vector_baseIN7rocksdb15CompressionTypeESaIS1_EED2Ev = comdat any

$_ZSt8_DestroyIPN7rocksdb15CompressionTypeEEvT_S3_ = comdat any

$_ZNSt12_Destroy_auxILb1EE9__destroyIPN7rocksdb15CompressionTypeEEEvT_S5_ = comdat any

$_ZNSt12_Vector_baseIN7rocksdb15CompressionTypeESaIS1_EE13_M_deallocateEPS1_m = comdat any

$_ZNSt12_Vector_baseIN7rocksdb15CompressionTypeESaIS1_EE12_Vector_implD2Ev = comdat any

$_ZNSt16allocator_traitsISaIN7rocksdb15CompressionTypeEEE10deallocateERS2_PS1_m = comdat any

$_ZNSt15__new_allocatorIN7rocksdb15CompressionTypeEE10deallocateEPS1_m = comdat any

$_ZNSaIN7rocksdb15CompressionTypeEED2Ev = comdat any

$_ZNSt15__new_allocatorIN7rocksdb15CompressionTypeEED2Ev = comdat any

$_ZNSt12__shared_ptrIN7rocksdb11RateLimiterELN9__gnu_cxx12_Lock_policyE2EEC2ERKS4_ = comdat any

$_ZNSt14__shared_countILN9__gnu_cxx12_Lock_policyE2EEC2ERKS2_ = comdat any

$_ZNSt16_Sp_counted_baseILN9__gnu_cxx12_Lock_policyE2EE15_M_add_ref_copyEv = comdat any

$_ZNSt12__shared_ptrIN7rocksdb14SstFileManagerELN9__gnu_cxx12_Lock_policyE2EEC2ERKS4_ = comdat any

$_ZNSt12__shared_ptrIN7rocksdb6LoggerELN9__gnu_cxx12_Lock_policyE2EEC2ERKS4_ = comdat any

$_ZNSt12__shared_ptrIN7rocksdb10StatisticsELN9__gnu_cxx12_Lock_policyE2EEC2ERKS4_ = comdat any

$_ZNSt12__shared_ptrIN7rocksdb18WriteBufferManagerELN9__gnu_cxx12_Lock_policyE2EEC2ERKS4_ = comdat any

$_ZNSt12__shared_ptrIN7rocksdb5CacheELN9__gnu_cxx12_Lock_policyE2EEC2ERKS4_ = comdat any

$_ZNSt12__shared_ptrIN7rocksdb22FileChecksumGenFactoryELN9__gnu_cxx12_Lock_policyE2EEC2ERKS4_ = comdat any

$_ZNSt12__shared_ptrIN7rocksdb10FileSystemELN9__gnu_cxx12_Lock_policyE2EEC2Ev = comdat any

$_ZNSt12__shared_ptrIN7rocksdb17CompactionServiceELN9__gnu_cxx12_Lock_policyE2EEC2ERKS4_ = comdat any

$_ZNSt12__shared_ptrIN7rocksdb10FileSystemELN9__gnu_cxx12_Lock_policyE2EEaSERKS4_ = comdat any

$_ZNSt14__shared_countILN9__gnu_cxx12_Lock_policyE2EEaSERKS2_ = comdat any

$_ZNKSt6atomicIN7rocksdb10StatsLevelEE4loadESt12memory_order = comdat any

$_ZNK7rocksdb6Status4codeEv = comdat any

$_ZNSt10unique_ptrIA_KcSt14default_deleteIS1_EED2Ev = comdat any

$_ZNSt10unique_ptrIA_KcSt14default_deleteIS1_EE11get_deleterEv = comdat any

$_ZNSt10shared_ptrIN7rocksdb14ObjectRegistryEED2Ev = comdat any

$_ZNSt12__shared_ptrIN7rocksdb14ObjectRegistryELN9__gnu_cxx12_Lock_policyE2EED2Ev = comdat any

$_ZNSt11char_traitsIcE6lengthEPKc = comdat any

$_ZNSt7__cxx1112basic_stringIcSt11char_traitsIcESaIcEE12_M_constructIPKcEEvT_S8_St20forward_iterator_tag = comdat any

$_ZNSt7__cxx1112basic_stringIcSt11char_traitsIcESaIcEE12_Alloc_hiderD2Ev = comdat any

$_ZSt8distanceIPKcENSt15iterator_traitsIT_E15difference_typeES3_S3_ = comdat any

$_ZZNSt7__cxx1112basic_stringIcSt11char_traitsIcESaIcEE12_M_constructIPKcEEvT_S8_St20forward_iterator_tagEN6_GuardC2EPS4_ = comdat any

$_ZZNSt7__cxx1112basic_stringIcSt11char_traitsIcESaIcEE12_M_constructIPKcEEvT_S8_St20forward_iterator_tagEN6_GuardD2Ev = comdat any

$_ZSt10__distanceIPKcENSt15iterator_traitsIT_E15difference_typeES3_S3_St26random_access_iterator_tag = comdat any

$_ZSt19__iterator_categoryIPKcENSt15iterator_traitsIT_E17iterator_categoryERKS3_ = comdat any

$_ZSt8_DestroyIPN7rocksdb6DbPathES1_EvT_S3_RSaIT0_E = comdat any

$_ZNSt12_Vector_baseIN7rocksdb6DbPathESaIS1_EED2Ev = comdat any

$_ZSt8_DestroyIPN7rocksdb6DbPathEEvT_S3_ = comdat any

$_ZNSt12_Destroy_auxILb0EE9__destroyIPN7rocksdb6DbPathEEEvT_S5_ = comdat any

$_ZSt8_DestroyIN7rocksdb6DbPathEEvPT_ = comdat any

$_ZN7rocksdb6DbPathD2Ev = comdat any

$_ZNSt12_Vector_baseIN7rocksdb6DbPathESaIS1_EE13_M_deallocateEPS1_m = comdat any

$_ZNSt12_Vector_baseIN7rocksdb6DbPathESaIS1_EE12_Vector_implD2Ev = comdat any

$_ZNSt16allocator_traitsISaIN7rocksdb6DbPathEEE10deallocateERS2_PS1_m = comdat any

$_ZNSt15__new_allocatorIN7rocksdb6DbPathEE10deallocateEPS1_m = comdat any

$_ZSt8_DestroyIPSt10shared_ptrIN7rocksdb13EventListenerEES3_EvT_S5_RSaIT0_E = comdat any

$_ZNSt12_Vector_baseISt10shared_ptrIN7rocksdb13EventListenerEESaIS3_EED2Ev = comdat any

$_ZSt8_DestroyIPSt10shared_ptrIN7rocksdb13EventListenerEEEvT_S5_ = comdat any

$_ZNSt12_Destroy_auxILb0EE9__destroyIPSt10shared_ptrIN7rocksdb13EventListenerEEEEvT_S7_ = comdat any

$_ZSt8_DestroyISt10shared_ptrIN7rocksdb13EventListenerEEEvPT_ = comdat any

$_ZNSt10shared_ptrIN7rocksdb13EventListenerEED2Ev = comdat any

$_ZNSt12__shared_ptrIN7rocksdb13EventListenerELN9__gnu_cxx12_Lock_policyE2EED2Ev = comdat any

$_ZNSt12_Vector_baseISt10shared_ptrIN7rocksdb13EventListenerEESaIS3_EE13_M_deallocateEPS3_m = comdat any

$_ZNSt12_Vector_baseISt10shared_ptrIN7rocksdb13EventListenerEESaIS3_EE12_Vector_implD2Ev = comdat any

$_ZNSt16allocator_traitsISaISt10shared_ptrIN7rocksdb13EventListenerEEEE10deallocateERS4_PS3_m = comdat any

$_ZNSt15__new_allocatorISt10shared_ptrIN7rocksdb13EventListenerEEE10deallocateEPS3_m = comdat any

$_ZNKSt6vectorIN7rocksdb6DbPathESaIS1_EE4sizeEv = comdat any

$_ZN9__gnu_cxx14__alloc_traitsISaIN7rocksdb6DbPathEES2_E17_S_select_on_copyERKS3_ = comdat any

$_ZNSt12_Vector_baseIN7rocksdb6DbPathESaIS1_EEC2EmRKS2_ = comdat any

$_ZSt22__uninitialized_copy_aIN9__gnu_cxx17__normal_iteratorIPKN7rocksdb6DbPathESt6vectorIS3_SaIS3_EEEEPS3_S3_ET0_T_SC_SB_RSaIT1_E = comdat any

$_ZNKSt6vectorIN7rocksdb6DbPathESaIS1_EE5beginEv = comdat any

$_ZNKSt6vectorIN7rocksdb6DbPathESaIS1_EE3endEv = comdat any

$_ZNSt16allocator_traitsISaIN7rocksdb6DbPathEEE37select_on_container_copy_constructionERKS2_ = comdat any

$_ZNSt12_Vector_baseIN7rocksdb6DbPathESaIS1_EE17_M_create_storageEm = comdat any

$_ZNSt12_Vector_baseIN7rocksdb6DbPathESaIS1_EE11_M_allocateEm = comdat any

$_ZNSt16allocator_traitsISaIN7rocksdb6DbPathEEE8allocateERS2_m = comdat any

$_ZNSt15__new_allocatorIN7rocksdb6DbPathEE8allocateEmPKv = comdat any

$_ZNKSt15__new_allocatorIN7rocksdb6DbPathEE11_M_max_sizeEv = comdat any

$_ZSt18uninitialized_copyIN9__gnu_cxx17__normal_iteratorIPKN7rocksdb6DbPathESt6vectorIS3_SaIS3_EEEEPS3_ET0_T_SC_SB_ = comdat any

$_ZNSt20__uninitialized_copyILb0EE13__uninit_copyIN9__gnu_cxx17__normal_iteratorIPKN7rocksdb6DbPathESt6vectorIS5_SaIS5_EEEEPS5_EET0_T_SE_SD_ = comdat any

$_ZSt16__do_uninit_copyIN9__gnu_cxx17__normal_iteratorIPKN7rocksdb6DbPathESt6vectorIS3_SaIS3_EEEEPS3_ET0_T_SC_SB_ = comdat any

$_ZN9__gnu_cxxneIPKN7rocksdb6DbPathESt6vectorIS2_SaIS2_EEEEbRKNS_17__normal_iteratorIT_T0_EESD_ = comdat any

$_ZSt10_ConstructIN7rocksdb6DbPathEJRKS1_EEvPT_DpOT0_ = comdat any

$_ZNK9__gnu_cxx17__normal_iteratorIPKN7rocksdb6DbPathESt6vectorIS2_SaIS2_EEEdeEv = comdat any

$_ZN9__gnu_cxx17__normal_iteratorIPKN7rocksdb6DbPathESt6vectorIS2_SaIS2_EEEppEv = comdat any

$_ZNK9__gnu_cxx17__normal_iteratorIPKN7rocksdb6DbPathESt6vectorIS2_SaIS2_EEE4baseEv = comdat any

$_ZN7rocksdb6DbPathC2ERKS0_ = comdat any

$_ZN9__gnu_cxx17__normal_iteratorIPKN7rocksdb6DbPathESt6vectorIS2_SaIS2_EEEC2ERKS4_ = comdat any

$_ZNKSt6vectorISt10shared_ptrIN7rocksdb13EventListenerEESaIS3_EE4sizeEv = comdat any

$_ZN9__gnu_cxx14__alloc_traitsISaISt10shared_ptrIN7rocksdb13EventListenerEEES4_E17_S_select_on_copyERKS5_ = comdat any

$_ZNSt12_Vector_baseISt10shared_ptrIN7rocksdb13EventListenerEESaIS3_EEC2EmRKS4_ = comdat any

$_ZSt22__uninitialized_copy_aIN9__gnu_cxx17__normal_iteratorIPKSt10shared_ptrIN7rocksdb13EventListenerEESt6vectorIS5_SaIS5_EEEEPS5_S5_ET0_T_SE_SD_RSaIT1_E = comdat any

$_ZNKSt6vectorISt10shared_ptrIN7rocksdb13EventListenerEESaIS3_EE5beginEv = comdat any

$_ZNKSt6vectorISt10shared_ptrIN7rocksdb13EventListenerEESaIS3_EE3endEv = comdat any

$_ZNSt16allocator_traitsISaISt10shared_ptrIN7rocksdb13EventListenerEEEE37select_on_container_copy_constructionERKS4_ = comdat any

$_ZNSt12_Vector_baseISt10shared_ptrIN7rocksdb13EventListenerEESaIS3_EE17_M_create_storageEm = comdat any

$_ZNSt12_Vector_baseISt10shared_ptrIN7rocksdb13EventListenerEESaIS3_EE11_M_allocateEm = comdat any

$_ZNSt16allocator_traitsISaISt10shared_ptrIN7rocksdb13EventListenerEEEE8allocateERS4_m = comdat any

$_ZNSt15__new_allocatorISt10shared_ptrIN7rocksdb13EventListenerEEE8allocateEmPKv = comdat any

$_ZNKSt15__new_allocatorISt10shared_ptrIN7rocksdb13EventListenerEEE11_M_max_sizeEv = comdat any

$_ZSt18uninitialized_copyIN9__gnu_cxx17__normal_iteratorIPKSt10shared_ptrIN7rocksdb13EventListenerEESt6vectorIS5_SaIS5_EEEEPS5_ET0_T_SE_SD_ = comdat any

$_ZNSt20__uninitialized_copyILb0EE13__uninit_copyIN9__gnu_cxx17__normal_iteratorIPKSt10shared_ptrIN7rocksdb13EventListenerEESt6vectorIS7_SaIS7_EEEEPS7_EET0_T_SG_SF_ = comdat any

$_ZSt16__do_uninit_copyIN9__gnu_cxx17__normal_iteratorIPKSt10shared_ptrIN7rocksdb13EventListenerEESt6vectorIS5_SaIS5_EEEEPS5_ET0_T_SE_SD_ = comdat any

$_ZN9__gnu_cxxneIPKSt10shared_ptrIN7rocksdb13EventListenerEESt6vectorIS4_SaIS4_EEEEbRKNS_17__normal_iteratorIT_T0_EESF_ = comdat any

$_ZSt10_ConstructISt10shared_ptrIN7rocksdb13EventListenerEEJRKS3_EEvPT_DpOT0_ = comdat any

$_ZNK9__gnu_cxx17__normal_iteratorIPKSt10shared_ptrIN7rocksdb13EventListenerEESt6vectorIS4_SaIS4_EEEdeEv = comdat any

$_ZN9__gnu_cxx17__normal_iteratorIPKSt10shared_ptrIN7rocksdb13EventListenerEESt6vectorIS4_SaIS4_EEEppEv = comdat any

$_ZNK9__gnu_cxx17__normal_iteratorIPKSt10shared_ptrIN7rocksdb13EventListenerEESt6vectorIS4_SaIS4_EEE4baseEv = comdat any

$_ZNSt10shared_ptrIN7rocksdb13EventListenerEEC2ERKS2_ = comdat any

$_ZNSt12__shared_ptrIN7rocksdb13EventListenerELN9__gnu_cxx12_Lock_policyE2EEC2ERKS4_ = comdat any

$_ZN9__gnu_cxx17__normal_iteratorIPKSt10shared_ptrIN7rocksdb13EventListenerEESt6vectorIS4_SaIS4_EEEC2ERKS6_ = comdat any

$_ZNSt11char_traitsIcE7compareEPKcS2_m = comdat any

$_ZNKSt19__shared_ptr_accessIN7rocksdb5CacheELN9__gnu_cxx12_Lock_policyE2ELb0ELb0EE6_M_getEv = comdat any

$_ZNKSt12__shared_ptrIN7rocksdb5CacheELN9__gnu_cxx12_Lock_policyE2EE3getEv = comdat any

$_ZNKSt19__shared_ptr_accessIN7rocksdb10FileSystemELN9__gnu_cxx12_Lock_policyE2ELb0ELb0EE6_M_getEv = comdat any

$_ZNKSt12__shared_ptrIN7rocksdb10FileSystemELN9__gnu_cxx12_Lock_policyE2EE3getEv = comdat any

$_ZNSt15__new_allocatorISt4pairIKNSt7__cxx1112basic_stringIcSt11char_traitsIcESaIcEEEN7rocksdb15WALRecoveryModeEEEC2Ev = comdat any

$_ZNSt15__new_allocatorISt4pairIKNSt7__cxx1112basic_stringIcSt11char_traitsIcESaIcEEEN7rocksdb15WALRecoveryModeEEED2Ev = comdat any

$_ZNSt10_HashtableINSt7__cxx1112basic_stringIcSt11char_traitsIcESaIcEEESt4pairIKS5_N7rocksdb15WALRecoveryModeEESaISA_ENSt8__detail10_Select1stESt8equal_toIS5_ESt4hashIS5_ENSC_18_Mod_range_hashingENSC_20_Default_ranged_hashENSC_20_Prime_rehash_policyENSC_17_Hashtable_traitsILb1ELb0ELb1EEEEC2ESt16initializer_listISA_EmRKSH_RKSF_RKSB_ = comdat any

$_ZNKSt16initializer_listISt4pairIKNSt7__cxx1112basic_stringIcSt11char_traitsIcESaIcEEEN7rocksdb15WALRecoveryModeEEE5beginEv = comdat any

$_ZNKSt16initializer_listISt4pairIKNSt7__cxx1112basic_stringIcSt11char_traitsIcESaIcEEEN7rocksdb15WALRecoveryModeEEE3endEv = comdat any

$_ZNSt10_HashtableINSt7__cxx1112basic_stringIcSt11char_traitsIcESaIcEEESt4pairIKS5_N7rocksdb15WALRecoveryModeEESaISA_ENSt8__detail10_Select1stESt8equal_toIS5_ESt4hashIS5_ENSC_18_Mod_range_hashingENSC_20_Default_ranged_hashENSC_20_Prime_rehash_policyENSC_17_Hashtable_traitsILb1ELb0ELb1EEEEC2IPKSA_EET_SR_mRKSH_RKSF_RKSB_St17integral_constantIbLb1EE = comdat any

$_ZNKSt16initializer_listISt4pairIKNSt7__cxx1112basic_stringIcSt11char_traitsIcESaIcEEEN7rocksdb15WALRecoveryModeEEE4sizeEv = comdat any

$_ZNSt10_HashtableINSt7__cxx1112basic_stringIcSt11char_traitsIcESaIcEEESt4pairIKS5_N7rocksdb15WALRecoveryModeEESaISA_ENSt8__detail10_Select1stESt8equal_toIS5_ESt4hashIS5_ENSC_18_Mod_range_hashingENSC_20_Default_ranged_hashENSC_20_Prime_rehash_policyENSC_17_Hashtable_traitsILb1ELb0ELb1EEEEC2EmRKSH_RKSF_RKSB_ = comdat any

$_ZNSt8__detail12_Insert_baseINSt7__cxx1112basic_stringIcSt11char_traitsIcESaIcEEESt4pairIKS6_N7rocksdb15WALRecoveryModeEESaISB_ENS_10_Select1stESt8equal_toIS6_ESt4hashIS6_ENS_18_Mod_range_hashingENS_20_Default_ranged_hashENS_20_Prime_rehash_policyENS_17_Hashtable_traitsILb1ELb0ELb1EEEE6insertERKSB_ = comdat any

$_ZNSt10_HashtableINSt7__cxx1112basic_stringIcSt11char_traitsIcESaIcEEESt4pairIKS5_N7rocksdb15WALRecoveryModeEESaISA_ENSt8__detail10_Select1stESt8equal_toIS5_ESt4hashIS5_ENSC_18_Mod_range_hashingENSC_20_Default_ranged_hashENSC_20_Prime_rehash_policyENSC_17_Hashtable_traitsILb1ELb0ELb1EEEEC2ERKSH_RKSF_RKSB_ = comdat any

$_ZNSt10_HashtableINSt7__cxx1112basic_stringIcSt11char_traitsIcESaIcEEESt4pairIKS5_N7rocksdb15WALRecoveryModeEESaISA_ENSt8__detail10_Select1stESt8equal_toIS5_ESt4hashIS5_ENSC_18_Mod_range_hashingENSC_20_Default_ranged_hashENSC_20_Prime_rehash_policyENSC_17_Hashtable_traitsILb1ELb0ELb1EEEE19_M_allocate_bucketsEm = comdat any

$_ZNSt8__detail15_Hashtable_baseINSt7__cxx1112basic_stringIcSt11char_traitsIcESaIcEEESt4pairIKS6_N7rocksdb15WALRecoveryModeEENS_10_Select1stESt8equal_toIS6_ESt4hashIS6_ENS_18_Mod_range_hashingENS_20_Default_ranged_hashENS_17_Hashtable_traitsILb1ELb0ELb1EEEEC2ERKSG_RKSE_ = comdat any

$_ZNSaINSt8__detail10_Hash_nodeISt4pairIKNSt7__cxx1112basic_stringIcSt11char_traitsIcESaIcEEEN7rocksdb15WALRecoveryModeEELb1EEEEC2ISB_EERKSaIT_E = comdat any

$_ZNSt8__detail16_Hashtable_allocISaINS_10_Hash_nodeISt4pairIKNSt7__cxx1112basic_stringIcSt11char_traitsIcESaIcEEEN7rocksdb15WALRecoveryModeEELb1EEEEEC2ISE_EEOT_ = comdat any

$_ZNSaINSt8__detail10_Hash_nodeISt4pairIKNSt7__cxx1112basic_stringIcSt11char_traitsIcESaIcEEEN7rocksdb15WALRecoveryModeEELb1EEEED2Ev = comdat any

$_ZNSt27_Enable_default_constructorILb1ENSt8__detail15_Hash_node_baseEEC2ESt31_Enable_default_constructor_tag = comdat any

$_ZNSt8__detail15_Hash_node_baseC2Ev = comdat any

$_ZNSt8__detail20_Prime_rehash_policyC2Ef = comdat any

$_ZNSt8__detail15_Hash_code_baseINSt7__cxx1112basic_stringIcSt11char_traitsIcESaIcEEESt4pairIKS6_N7rocksdb15WALRecoveryModeEENS_10_Select1stESt4hashIS6_ENS_18_Mod_range_hashingENS_20_Default_ranged_hashELb1EEC2ERKSE_ = comdat any

$_ZNSt8__detail21_Hashtable_ebo_helperILi0ESt8equal_toINSt7__cxx1112basic_stringIcSt11char_traitsIcESaIcEEEELb1EEC2IRKS8_EEOT_ = comdat any

$_ZNSt8__detail21_Hashtable_ebo_helperILi1ESt4hashINSt7__cxx1112basic_stringIcSt11char_traitsIcESaIcEEEELb1EEC2IRKS8_EEOT_ = comdat any

$_ZNSt15__new_allocatorINSt8__detail10_Hash_nodeISt4pairIKNSt7__cxx1112basic_stringIcSt11char_traitsIcESaIcEEEN7rocksdb15WALRecoveryModeEELb1EEEEC2Ev = comdat any

$_ZNSt8__detail21_Hashtable_ebo_helperILi0ESaINS_10_Hash_nodeISt4pairIKNSt7__cxx1112basic_stringIcSt11char_traitsIcESaIcEEEN7rocksdb15WALRecoveryModeEELb1EEEELb1EEC2ISE_EEOT_ = comdat any

$_ZNSaINSt8__detail10_Hash_nodeISt4pairIKNSt7__cxx1112basic_stringIcSt11char_traitsIcESaIcEEEN7rocksdb15WALRecoveryModeEELb1EEEEC2ERKSD_ = comdat any

$_ZNSt15__new_allocatorINSt8__detail10_Hash_nodeISt4pairIKNSt7__cxx1112basic_stringIcSt11char_traitsIcESaIcEEEN7rocksdb15WALRecoveryModeEELb1EEEEC2ERKSE_ = comdat any

$_ZNSt8__detail16_Hashtable_allocISaINS_10_Hash_nodeISt4pairIKNSt7__cxx1112basic_stringIcSt11char_traitsIcESaIcEEEN7rocksdb15WALRecoveryModeEELb1EEEEE19_M_allocate_bucketsEm = comdat any

$_ZNSt16allocator_traitsISaIPNSt8__detail15_Hash_node_baseEEE8allocateERS3_m = comdat any

$_ZSt12__to_addressIPNSt8__detail15_Hash_node_baseEEPT_S4_ = comdat any

$_ZNSt15__new_allocatorIPNSt8__detail15_Hash_node_baseEE8allocateEmPKv = comdat any

$_ZNKSt15__new_allocatorIPNSt8__detail15_Hash_node_baseEE11_M_max_sizeEv = comdat any

$_ZNSt8__detail12_Insert_baseINSt7__cxx1112basic_stringIcSt11char_traitsIcESaIcEEESt4pairIKS6_N7rocksdb15WALRecoveryModeEESaISB_ENS_10_Select1stESt8equal_toIS6_ESt4hashIS6_ENS_18_Mod_range_hashingENS_20_Default_ranged_hashENS_20_Prime_rehash_policyENS_17_Hashtable_traitsILb1ELb0ELb1EEEE20_M_conjure_hashtableEv = comdat any

$_ZNSt8__detail10_AllocNodeISaINS_10_Hash_nodeISt4pairIKNSt7__cxx1112basic_stringIcSt11char_traitsIcESaIcEEEN7rocksdb15WALRecoveryModeEELb1EEEEEC2ERNS_16_Hashtable_allocISE_EE = comdat any

$_ZNSt10_HashtableINSt7__cxx1112basic_stringIcSt11char_traitsIcESaIcEEESt4pairIKS5_N7rocksdb15WALRecoveryModeEESaISA_ENSt8__detail10_Select1stESt8equal_toIS5_ESt4hashIS5_ENSC_18_Mod_range_hashingENSC_20_Default_ranged_hashENSC_20_Prime_rehash_policyENSC_17_Hashtable_traitsILb1ELb0ELb1EEEE9_M_insertIRKSA_NSC_10_AllocNodeISaINSC_10_Hash_nodeISA_Lb1EEEEEEEES6_INSC_14_Node_iteratorISA_Lb0ELb1EEEbEOT_RKT0_St17integral_constantIbLb1EE = comdat any

$_ZNSt10_HashtableINSt7__cxx1112basic_stringIcSt11char_traitsIcESaIcEEESt4pairIKS5_N7rocksdb15WALRecoveryModeEESaISA_ENSt8__detail10_Select1stESt8equal_toIS5_ESt4hashIS5_ENSC_18_Mod_range_hashingENSC_20_Default_ranged_hashENSC_20_Prime_rehash_policyENSC_17_Hashtable_traitsILb1ELb0ELb1EEEE16_M_insert_uniqueIRS7_RKSA_NSC_10_AllocNodeISaINSC_10_Hash_nodeISA_Lb1EEEEEEEES6_INSC_14_Node_iteratorISA_Lb0ELb1EEEbEOT_OT0_RKT1_ = comdat any

$_ZNSt10_HashtableINSt7__cxx1112basic_stringIcSt11char_traitsIcESaIcEEESt4pairIKS5_N7rocksdb15WALRecoveryModeEESaISA_ENSt8__detail10_Select1stESt8equal_toIS5_ESt4hashIS5_ENSC_18_Mod_range_hashingENSC_20_Default_ranged_hashENSC_20_Prime_rehash_policyENSC_17_Hashtable_traitsILb1ELb0ELb1EEEE14_S_forward_keyERS7_ = comdat any

$_ZNKSt8__detail10_Select1stclIRKSt4pairIKNSt7__cxx1112basic_stringIcSt11char_traitsIcESaIcEEEN7rocksdb15WALRecoveryModeEEEEONS0_10__1st_typeIT_E4typeEOSG_ = comdat any

$_ZNKSt10_HashtableINSt7__cxx1112basic_stringIcSt11char_traitsIcESaIcEEESt4pairIKS5_N7rocksdb15WALRecoveryModeEESaISA_ENSt8__detail10_Select1stESt8equal_toIS5_ESt4hashIS5_ENSC_18_Mod_range_hashingENSC_20_Default_ranged_hashENSC_20_Prime_rehash_policyENSC_17_Hashtable_traitsILb1ELb0ELb1EEEE4sizeEv = comdat any

$_ZNSt10_HashtableINSt7__cxx1112basic_stringIcSt11char_traitsIcESaIcEEESt4pairIKS5_N7rocksdb15WALRecoveryModeEESaISA_ENSt8__detail10_Select1stESt8equal_toIS5_ESt4hashIS5_ENSC_18_Mod_range_hashingENSC_20_Default_ranged_hashENSC_20_Prime_rehash_policyENSC_17_Hashtable_traitsILb1ELb0ELb1EEEE22__small_size_thresholdEv = comdat any

$_ZNSt10_HashtableINSt7__cxx1112basic_stringIcSt11char_traitsIcESaIcEEESt4pairIKS5_N7rocksdb15WALRecoveryModeEESaISA_ENSt8__detail10_Select1stESt8equal_toIS5_ESt4hashIS5_ENSC_18_Mod_range_hashingENSC_20_Default_ranged_hashENSC_20_Prime_rehash_policyENSC_17_Hashtable_traitsILb1ELb0ELb1EEEE5beginEv = comdat any

$_ZNSt8__detailneERKNS_19_Node_iterator_baseISt4pairIKNSt7__cxx1112basic_stringIcSt11char_traitsIcESaIcEEEN7rocksdb15WALRecoveryModeEELb1EEESE_ = comdat any

$_ZNSt10_HashtableINSt7__cxx1112basic_stringIcSt11char_traitsIcESaIcEEESt4pairIKS5_N7rocksdb15WALRecoveryModeEESaISA_ENSt8__detail10_Select1stESt8equal_toIS5_ESt4hashIS5_ENSC_18_Mod_range_hashingENSC_20_Default_ranged_hashENSC_20_Prime_rehash_policyENSC_17_Hashtable_traitsILb1ELb0ELb1EEEE3endEv = comdat any

$_ZNKSt8__detail15_Hashtable_baseINSt7__cxx1112basic_stringIcSt11char_traitsIcESaIcEEESt4pairIKS6_N7rocksdb15WALRecoveryModeEENS_10_Select1stESt8equal_toIS6_ESt4hashIS6_ENS_18_Mod_range_hashingENS_20_Default_ranged_hashENS_17_Hashtable_traitsILb1ELb0ELb1EEEE16_M_key_equals_trIS6_EEbRKT_RKNS_16_Hash_node_valueISB_Lb1EEE = comdat any

$_ZNSt4pairINSt8__detail14_Node_iteratorIS_IKNSt7__cxx1112basic_stringIcSt11char_traitsIcESaIcEEEN7rocksdb15WALRecoveryModeEELb0ELb1EEEbEC2IRSC_bTnNSt9enable_ifIXaaclsr5_PCCPE22_MoveConstructiblePairIT_T0_EEclsr5_PCCPE30_ImplicitlyMoveConvertiblePairISH_SI_EEEbE4typeELb1EEEOSH_OSI_ = comdat any

$_ZNSt8__detail14_Node_iteratorISt4pairIKNSt7__cxx1112basic_stringIcSt11char_traitsIcESaIcEEEN7rocksdb15WALRecoveryModeEELb0ELb1EEppEv = comdat any

$_ZNKSt8__detail15_Hash_code_baseINSt7__cxx1112basic_stringIcSt11char_traitsIcESaIcEEESt4pairIKS6_N7rocksdb15WALRecoveryModeEENS_10_Select1stESt4hashIS6_ENS_18_Mod_range_hashingENS_20_Default_ranged_hashELb1EE15_M_hash_code_trIS6_EEmRKT_ = comdat any

$_ZNKSt10_HashtableINSt7__cxx1112basic_stringIcSt11char_traitsIcESaIcEEESt4pairIKS5_N7rocksdb15WALRecoveryModeEESaISA_ENSt8__detail10_Select1stESt8equal_toIS5_ESt4hashIS5_ENSC_18_Mod_range_hashingENSC_20_Default_ranged_hashENSC_20_Prime_rehash_policyENSC_17_Hashtable_traitsILb1ELb0ELb1EEEE15_M_bucket_indexEm = comdat any

$_ZNKSt10_HashtableINSt7__cxx1112basic_stringIcSt11char_traitsIcESaIcEEESt4pairIKS5_N7rocksdb15WALRecoveryModeEESaISA_ENSt8__detail10_Select1stESt8equal_toIS5_ESt4hashIS5_ENSC_18_Mod_range_hashingENSC_20_Default_ranged_hashENSC_20_Prime_rehash_policyENSC_17_Hashtable_traitsILb1ELb0ELb1EEEE15_M_find_node_trIS5_EEPNSC_10_Hash_nodeISA_Lb1EEEmRKT_m = comdat any

$_ZNSt8__detail14_Node_iteratorISt4pairIKNSt7__cxx1112basic_stringIcSt11char_traitsIcESaIcEEEN7rocksdb15WALRecoveryModeEELb0ELb1EEC2EPNS_10_Hash_nodeISB_Lb1EEE = comdat any

$_ZNSt4pairINSt8__detail14_Node_iteratorIS_IKNSt7__cxx1112basic_stringIcSt11char_traitsIcESaIcEEEN7rocksdb15WALRecoveryModeEELb0ELb1EEEbEC2ISC_bTnNSt9enable_ifIXaaclsr5_PCCPE22_MoveConstructiblePairIT_T0_EEclsr5_PCCPE30_ImplicitlyMoveConvertiblePairISG_SH_EEEbE4typeELb1EEEOSG_OSH_ = comdat any

$_ZNSt8__detail12_NodeBuilderINS_10_Select1stEE8_S_buildIRKNSt7__cxx1112basic_stringIcSt11char_traitsIcESaIcEEERKSt4pairISA_N7rocksdb15WALRecoveryModeEENS_10_AllocNodeISaINS_10_Hash_nodeISF_Lb1EEEEEEEEPNT1_11__node_typeEOT_OT0_RKSN_ = comdat any

$_ZNSt10_HashtableINSt7__cxx1112basic_stringIcSt11char_traitsIcESaIcEEESt4pairIKS5_N7rocksdb15WALRecoveryModeEESaISA_ENSt8__detail10_Select1stESt8equal_toIS5_ESt4hashIS5_ENSC_18_Mod_range_hashingENSC_20_Default_ranged_hashENSC_20_Prime_rehash_policyENSC_17_Hashtable_traitsILb1ELb0ELb1EEEE12_Scoped_nodeC2EPNSC_10_Hash_nodeISA_Lb1EEEPNSC_16_Hashtable_allocISaISQ_EEE = comdat any

$_ZNSt10_HashtableINSt7__cxx1112basic_stringIcSt11char_traitsIcESaIcEEESt4pairIKS5_N7rocksdb15WALRecoveryModeEESaISA_ENSt8__detail10_Select1stESt8equal_toIS5_ESt4hashIS5_ENSC_18_Mod_range_hashingENSC_20_Default_ranged_hashENSC_20_Prime_rehash_policyENSC_17_Hashtable_traitsILb1ELb0ELb1EEEE21_M_insert_unique_nodeEmmPNSC_10_Hash_nodeISA_Lb1EEEm = comdat any

$_ZNSt10_HashtableINSt7__cxx1112basic_stringIcSt11char_traitsIcESaIcEEESt4pairIKS5_N7rocksdb15WALRecoveryModeEESaISA_ENSt8__detail10_Select1stESt8equal_toIS5_ESt4hashIS5_ENSC_18_Mod_range_hashingENSC_20_Default_ranged_hashENSC_20_Prime_rehash_policyENSC_17_Hashtable_traitsILb1ELb0ELb1EEEE12_Scoped_nodeD2Ev = comdat any

$_ZNKSt8__detail15_Hashtable_baseINSt7__cxx1112basic_stringIcSt11char_traitsIcESaIcEEESt4pairIKS6_N7rocksdb15WALRecoveryModeEENS_10_Select1stESt8equal_toIS6_ESt4hashIS6_ENS_18_Mod_range_hashingENS_20_Default_ranged_hashENS_17_Hashtable_traitsILb1ELb0ELb1EEEE5_M_eqEv = comdat any

$_ZNKSt8__detail21_Hash_node_value_baseISt4pairIKNSt7__cxx1112basic_stringIcSt11char_traitsIcESaIcEEEN7rocksdb15WALRecoveryModeEEE4_M_vEv = comdat any

$_ZNKSt8__detail21_Hash_node_value_baseISt4pairIKNSt7__cxx1112basic_stringIcSt11char_traitsIcESaIcEEEN7rocksdb15WALRecoveryModeEEE9_M_valptrEv = comdat any

$_ZNK9__gnu_cxx16__aligned_bufferISt4pairIKNSt7__cxx1112basic_stringIcSt11char_traitsIcESaIcEEEN7rocksdb15WALRecoveryModeEEE6_M_ptrEv = comdat any

$_ZNK9__gnu_cxx16__aligned_bufferISt4pairIKNSt7__cxx1112basic_stringIcSt11char_traitsIcESaIcEEEN7rocksdb15WALRecoveryModeEEE7_M_addrEv = comdat any

$_ZNSt8__detail19_Node_iterator_baseISt4pairIKNSt7__cxx1112basic_stringIcSt11char_traitsIcESaIcEEEN7rocksdb15WALRecoveryModeEELb1EE7_M_incrEv = comdat any

$_ZNKSt8__detail15_Hash_code_baseINSt7__cxx1112basic_stringIcSt11char_traitsIcESaIcEEESt4pairIKS6_N7rocksdb15WALRecoveryModeEENS_10_Select1stESt4hashIS6_ENS_18_Mod_range_hashingENS_20_Default_ranged_hashELb1EE7_M_hashEv = comdat any

$_ZNKSt8__detail15_Hash_code_baseINSt7__cxx1112basic_stringIcSt11char_traitsIcESaIcEEESt4pairIKS6_N7rocksdb15WALRecoveryModeEENS_10_Select1stESt4hashIS6_ENS_18_Mod_range_hashingENS_20_Default_ranged_hashELb1EE15_M_bucket_indexEmm = comdat any

$_ZNKSt10_HashtableINSt7__cxx1112basic_stringIcSt11char_traitsIcESaIcEEESt4pairIKS5_N7rocksdb15WALRecoveryModeEESaISA_ENSt8__detail10_Select1stESt8equal_toIS5_ESt4hashIS5_ENSC_18_Mod_range_hashingENSC_20_Default_ranged_hashENSC_20_Prime_rehash_policyENSC_17_Hashtable_traitsILb1ELb0ELb1EEEE22_M_find_before_node_trIS5_EEPNSC_15_Hash_node_baseEmRKT_m = comdat any

$_ZNKSt8__detail15_Hashtable_baseINSt7__cxx1112basic_stringIcSt11char_traitsIcESaIcEEESt4pairIKS6_N7rocksdb15WALRecoveryModeEENS_10_Select1stESt8equal_toIS6_ESt4hashIS6_ENS_18_Mod_range_hashingENS_20_Default_ranged_hashENS_17_Hashtable_traitsILb1ELb0ELb1EEEE12_M_equals_trIS6_EEbRKT_mRKNS_16_Hash_node_valueISB_Lb1EEE = comdat any

$_ZNKSt10_HashtableINSt7__cxx1112basic_stringIcSt11char_traitsIcESaIcEEESt4pairIKS5_N7rocksdb15WALRecoveryModeEESaISA_ENSt8__detail10_Select1stESt8equal_toIS5_ESt4hashIS5_ENSC_18_Mod_range_hashingENSC_20_Default_ranged_hashENSC_20_Prime_rehash_policyENSC_17_Hashtable_traitsILb1ELb0ELb1EEEE15_M_bucket_indexERKNSC_16_Hash_node_valueISA_Lb1EEE = comdat any

$_ZNSt8__detail15_Hashtable_baseINSt7__cxx1112basic_stringIcSt11char_traitsIcESaIcEEESt4pairIKS6_N7rocksdb15WALRecoveryModeEENS_10_Select1stESt8equal_toIS6_ESt4hashIS6_ENS_18_Mod_range_hashingENS_20_Default_ranged_hashENS_17_Hashtable_traitsILb1ELb0ELb1EEEE9_S_equalsEmRKNS_21_Hash_node_code_cacheILb1EEE = comdat any

$_ZNKSt8__detail15_Hash_code_baseINSt7__cxx1112basic_stringIcSt11char_traitsIcESaIcEEESt4pairIKS6_N7rocksdb15WALRecoveryModeEENS_10_Select1stESt4hashIS6_ENS_18_Mod_range_hashingENS_20_Default_ranged_hashELb1EE15_M_bucket_indexERKNS_16_Hash_node_valueISB_Lb1EEEm = comdat any

$_ZNSt8__detail19_Node_iterator_baseISt4pairIKNSt7__cxx1112basic_stringIcSt11char_traitsIcESaIcEEEN7rocksdb15WALRecoveryModeEELb1EEC2EPNS_10_Hash_nodeISB_Lb1EEE = comdat any

$_ZNKSt8__detail10_AllocNodeISaINS_10_Hash_nodeISt4pairIKNSt7__cxx1112basic_stringIcSt11char_traitsIcESaIcEEEN7rocksdb15WALRecoveryModeEELb1EEEEEclIJRS9_RKSB_EEEPSD_DpOT_ = comdat any

$_ZNSt8__detail16_Hashtable_allocISaINS_10_Hash_nodeISt4pairIKNSt7__cxx1112basic_stringIcSt11char_traitsIcESaIcEEEN7rocksdb15WALRecoveryModeEELb1EEEEE16_M_allocate_nodeIJRS9_RKSB_EEEPSD_DpOT_ = comdat any

$_ZNSt16allocator_traitsISaINSt8__detail10_Hash_nodeISt4pairIKNSt7__cxx1112basic_stringIcSt11char_traitsIcESaIcEEEN7rocksdb15WALRecoveryModeEELb1EEEEE8allocateERSE_m = comdat any

$_ZSt12__to_addressINSt8__detail10_Hash_nodeISt4pairIKNSt7__cxx1112basic_stringIcSt11char_traitsIcESaIcEEEN7rocksdb15WALRecoveryModeEELb1EEEEPT_SF_ = comdat any

$_ZNSt8__detail10_Hash_nodeISt4pairIKNSt7__cxx1112basic_stringIcSt11char_traitsIcESaIcEEEN7rocksdb15WALRecoveryModeEELb1EEC2Ev = comdat any

$_ZNSt16allocator_traitsISaINSt8__detail10_Hash_nodeISt4pairIKNSt7__cxx1112basic_stringIcSt11char_traitsIcESaIcEEEN7rocksdb15WALRecoveryModeEELb1EEEEE9constructISC_JRS9_RKSB_EEEvRSE_PT_DpOT0_ = comdat any

$_ZNSt15__new_allocatorINSt8__detail10_Hash_nodeISt4pairIKNSt7__cxx1112basic_stringIcSt11char_traitsIcESaIcEEEN7rocksdb15WALRecoveryModeEELb1EEEE8allocateEmPKv = comdat any

$_ZNKSt15__new_allocatorINSt8__detail10_Hash_nodeISt4pairIKNSt7__cxx1112basic_stringIcSt11char_traitsIcESaIcEEEN7rocksdb15WALRecoveryModeEELb1EEEE11_M_max_sizeEv = comdat any

$_ZNSt15__new_allocatorINSt8__detail10_Hash_nodeISt4pairIKNSt7__cxx1112basic_stringIcSt11char_traitsIcESaIcEEEN7rocksdb15WALRecoveryModeEELb1EEEE9constructISC_JRS9_RKSB_EEEvPT_DpOT0_ = comdat any

$_ZNSt4pairIKNSt7__cxx1112basic_stringIcSt11char_traitsIcESaIcEEEN7rocksdb15WALRecoveryModeEEC2IS6_S8_TnNSt9enable_ifIXaaclsr5_PCCPE18_ConstructiblePairIT_T0_EEclsr5_PCCPE26_ImplicitlyConvertiblePairISC_SD_EEEbE4typeELb1EEERS6_RKS8_ = comdat any

$_ZNKSt8__detail20_Prime_rehash_policy8_M_stateEv = comdat any

$_ZNSt10_HashtableINSt7__cxx1112basic_stringIcSt11char_traitsIcESaIcEEESt4pairIKS5_N7rocksdb15WALRecoveryModeEESaISA_ENSt8__detail10_Select1stESt8equal_toIS5_ESt4hashIS5_ENSC_18_Mod_range_hashingENSC_20_Default_ranged_hashENSC_20_Prime_rehash_policyENSC_17_Hashtable_traitsILb1ELb0ELb1EEEE9_M_rehashEmRKm = comdat any

$_ZNKSt8__detail15_Hash_code_baseINSt7__cxx1112basic_stringIcSt11char_traitsIcESaIcEEESt4pairIKS6_N7rocksdb15WALRecoveryModeEENS_10_Select1stESt4hashIS6_ENS_18_Mod_range_hashingENS_20_Default_ranged_hashELb1EE13_M_store_codeERNS_21_Hash_node_code_cacheILb1EEEm = comdat any

$_ZNSt10_HashtableINSt7__cxx1112basic_stringIcSt11char_traitsIcESaIcEEESt4pairIKS5_N7rocksdb15WALRecoveryModeEESaISA_ENSt8__detail10_Select1stESt8equal_toIS5_ESt4hashIS5_ENSC_18_Mod_range_hashingENSC_20_Default_ranged_hashENSC_20_Prime_rehash_policyENSC_17_Hashtable_traitsILb1ELb0ELb1EEEE22_M_insert_bucket_beginEmPNSC_10_Hash_nodeISA_Lb1EEE = comdat any

$_ZNSt10_HashtableINSt7__cxx1112basic_stringIcSt11char_traitsIcESaIcEEESt4pairIKS5_N7rocksdb15WALRecoveryModeEESaISA_ENSt8__detail10_Select1stESt8equal_toIS5_ESt4hashIS5_ENSC_18_Mod_range_hashingENSC_20_Default_ranged_hashENSC_20_Prime_rehash_policyENSC_17_Hashtable_traitsILb1ELb0ELb1EEEE13_M_rehash_auxEmSt17integral_constantIbLb1EE = comdat any

$_ZNSt8__detail20_Prime_rehash_policy8_M_resetEm = comdat any

$_ZNSt15__new_allocatorISt4pairIKNSt7__cxx1112basic_stringIcSt11char_traitsIcESaIcEEEN7rocksdb9DBOptions10AccessHintEEEC2Ev = comdat any

$_ZNSt15__new_allocatorISt4pairIKNSt7__cxx1112basic_stringIcSt11char_traitsIcESaIcEEEN7rocksdb9DBOptions10AccessHintEEED2Ev = comdat any

$_ZNSt10_HashtableINSt7__cxx1112basic_stringIcSt11char_traitsIcESaIcEEESt4pairIKS5_N7rocksdb9DBOptions10AccessHintEESaISB_ENSt8__detail10_Select1stESt8equal_toIS5_ESt4hashIS5_ENSD_18_Mod_range_hashingENSD_20_Default_ranged_hashENSD_20_Prime_rehash_policyENSD_17_Hashtable_traitsILb1ELb0ELb1EEEEC2ESt16initializer_listISB_EmRKSI_RKSG_RKSC_ = comdat any

$_ZNKSt16initializer_listISt4pairIKNSt7__cxx1112basic_stringIcSt11char_traitsIcESaIcEEEN7rocksdb9DBOptions10AccessHintEEE5beginEv = comdat any

$_ZNKSt16initializer_listISt4pairIKNSt7__cxx1112basic_stringIcSt11char_traitsIcESaIcEEEN7rocksdb9DBOptions10AccessHintEEE3endEv = comdat any

$_ZNSt10_HashtableINSt7__cxx1112basic_stringIcSt11char_traitsIcESaIcEEESt4pairIKS5_N7rocksdb9DBOptions10AccessHintEESaISB_ENSt8__detail10_Select1stESt8equal_toIS5_ESt4hashIS5_ENSD_18_Mod_range_hashingENSD_20_Default_ranged_hashENSD_20_Prime_rehash_policyENSD_17_Hashtable_traitsILb1ELb0ELb1EEEEC2IPKSB_EET_SS_mRKSI_RKSG_RKSC_St17integral_constantIbLb1EE = comdat any

$_ZNKSt16initializer_listISt4pairIKNSt7__cxx1112basic_stringIcSt11char_traitsIcESaIcEEEN7rocksdb9DBOptions10AccessHintEEE4sizeEv = comdat any

$_ZNSt10_HashtableINSt7__cxx1112basic_stringIcSt11char_traitsIcESaIcEEESt4pairIKS5_N7rocksdb9DBOptions10AccessHintEESaISB_ENSt8__detail10_Select1stESt8equal_toIS5_ESt4hashIS5_ENSD_18_Mod_range_hashingENSD_20_Default_ranged_hashENSD_20_Prime_rehash_policyENSD_17_Hashtable_traitsILb1ELb0ELb1EEEEC2EmRKSI_RKSG_RKSC_ = comdat any

$_ZNSt8__detail12_Insert_baseINSt7__cxx1112basic_stringIcSt11char_traitsIcESaIcEEESt4pairIKS6_N7rocksdb9DBOptions10AccessHintEESaISC_ENS_10_Select1stESt8equal_toIS6_ESt4hashIS6_ENS_18_Mod_range_hashingENS_20_Default_ranged_hashENS_20_Prime_rehash_policyENS_17_Hashtable_traitsILb1ELb0ELb1EEEE6insertERKSC_ = comdat any

$_ZNSt10_HashtableINSt7__cxx1112basic_stringIcSt11char_traitsIcESaIcEEESt4pairIKS5_N7rocksdb9DBOptions10AccessHintEESaISB_ENSt8__detail10_Select1stESt8equal_toIS5_ESt4hashIS5_ENSD_18_Mod_range_hashingENSD_20_Default_ranged_hashENSD_20_Prime_rehash_policyENSD_17_Hashtable_traitsILb1ELb0ELb1EEEEC2ERKSI_RKSG_RKSC_ = comdat any

$_ZNSt10_HashtableINSt7__cxx1112basic_stringIcSt11char_traitsIcESaIcEEESt4pairIKS5_N7rocksdb9DBOptions10AccessHintEESaISB_ENSt8__detail10_Select1stESt8equal_toIS5_ESt4hashIS5_ENSD_18_Mod_range_hashingENSD_20_Default_ranged_hashENSD_20_Prime_rehash_policyENSD_17_Hashtable_traitsILb1ELb0ELb1EEEE19_M_allocate_bucketsEm = comdat any

$_ZNSt8__detail15_Hashtable_baseINSt7__cxx1112basic_stringIcSt11char_traitsIcESaIcEEESt4pairIKS6_N7rocksdb9DBOptions10AccessHintEENS_10_Select1stESt8equal_toIS6_ESt4hashIS6_ENS_18_Mod_range_hashingENS_20_Default_ranged_hashENS_17_Hashtable_traitsILb1ELb0ELb1EEEEC2ERKSH_RKSF_ = comdat any

$_ZNSaINSt8__detail10_Hash_nodeISt4pairIKNSt7__cxx1112basic_stringIcSt11char_traitsIcESaIcEEEN7rocksdb9DBOptions10AccessHintEELb1EEEEC2ISC_EERKSaIT_E = comdat any

$_ZNSt8__detail16_Hashtable_allocISaINS_10_Hash_nodeISt4pairIKNSt7__cxx1112basic_stringIcSt11char_traitsIcESaIcEEEN7rocksdb9DBOptions10AccessHintEELb1EEEEEC2ISF_EEOT_ = comdat any

$_ZNSaINSt8__detail10_Hash_nodeISt4pairIKNSt7__cxx1112basic_stringIcSt11char_traitsIcESaIcEEEN7rocksdb9DBOptions10AccessHintEELb1EEEED2Ev = comdat any

$_ZNSt8__detail15_Hash_code_baseINSt7__cxx1112basic_stringIcSt11char_traitsIcESaIcEEESt4pairIKS6_N7rocksdb9DBOptions10AccessHintEENS_10_Select1stESt4hashIS6_ENS_18_Mod_range_hashingENS_20_Default_ranged_hashELb1EEC2ERKSF_ = comdat any

$_ZNSt15__new_allocatorINSt8__detail10_Hash_nodeISt4pairIKNSt7__cxx1112basic_stringIcSt11char_traitsIcESaIcEEEN7rocksdb9DBOptions10AccessHintEELb1EEEEC2Ev = comdat any

$_ZNSt8__detail21_Hashtable_ebo_helperILi0ESaINS_10_Hash_nodeISt4pairIKNSt7__cxx1112basic_stringIcSt11char_traitsIcESaIcEEEN7rocksdb9DBOptions10AccessHintEELb1EEEELb1EEC2ISF_EEOT_ = comdat any

$_ZNSaINSt8__detail10_Hash_nodeISt4pairIKNSt7__cxx1112basic_stringIcSt11char_traitsIcESaIcEEEN7rocksdb9DBOptions10AccessHintEELb1EEEEC2ERKSE_ = comdat any

$_ZNSt15__new_allocatorINSt8__detail10_Hash_nodeISt4pairIKNSt7__cxx1112basic_stringIcSt11char_traitsIcESaIcEEEN7rocksdb9DBOptions10AccessHintEELb1EEEEC2ERKSF_ = comdat any

$_ZNSt8__detail16_Hashtable_allocISaINS_10_Hash_nodeISt4pairIKNSt7__cxx1112basic_stringIcSt11char_traitsIcESaIcEEEN7rocksdb9DBOptions10AccessHintEELb1EEEEE19_M_allocate_bucketsEm = comdat any

$_ZNSt8__detail12_Insert_baseINSt7__cxx1112basic_stringIcSt11char_traitsIcESaIcEEESt4pairIKS6_N7rocksdb9DBOptions10AccessHintEESaISC_ENS_10_Select1stESt8equal_toIS6_ESt4hashIS6_ENS_18_Mod_range_hashingENS_20_Default_ranged_hashENS_20_Prime_rehash_policyENS_17_Hashtable_traitsILb1ELb0ELb1EEEE20_M_conjure_hashtableEv = comdat any

$_ZNSt8__detail10_AllocNodeISaINS_10_Hash_nodeISt4pairIKNSt7__cxx1112basic_stringIcSt11char_traitsIcESaIcEEEN7rocksdb9DBOptions10AccessHintEELb1EEEEEC2ERNS_16_Hashtable_allocISF_EE = comdat any

$_ZNSt10_HashtableINSt7__cxx1112basic_stringIcSt11char_traitsIcESaIcEEESt4pairIKS5_N7rocksdb9DBOptions10AccessHintEESaISB_ENSt8__detail10_Select1stESt8equal_toIS5_ESt4hashIS5_ENSD_18_Mod_range_hashingENSD_20_Default_ranged_hashENSD_20_Prime_rehash_policyENSD_17_Hashtable_traitsILb1ELb0ELb1EEEE9_M_insertIRKSB_NSD_10_AllocNodeISaINSD_10_Hash_nodeISB_Lb1EEEEEEEES6_INSD_14_Node_iteratorISB_Lb0ELb1EEEbEOT_RKT0_St17integral_constantIbLb1EE = comdat any

$_ZNSt10_HashtableINSt7__cxx1112basic_stringIcSt11char_traitsIcESaIcEEESt4pairIKS5_N7rocksdb9DBOptions10AccessHintEESaISB_ENSt8__detail10_Select1stESt8equal_toIS5_ESt4hashIS5_ENSD_18_Mod_range_hashingENSD_20_Default_ranged_hashENSD_20_Prime_rehash_policyENSD_17_Hashtable_traitsILb1ELb0ELb1EEEE16_M_insert_uniqueIRS7_RKSB_NSD_10_AllocNodeISaINSD_10_Hash_nodeISB_Lb1EEEEEEEES6_INSD_14_Node_iteratorISB_Lb0ELb1EEEbEOT_OT0_RKT1_ = comdat any

$_ZNSt10_HashtableINSt7__cxx1112basic_stringIcSt11char_traitsIcESaIcEEESt4pairIKS5_N7rocksdb9DBOptions10AccessHintEESaISB_ENSt8__detail10_Select1stESt8equal_toIS5_ESt4hashIS5_ENSD_18_Mod_range_hashingENSD_20_Default_ranged_hashENSD_20_Prime_rehash_policyENSD_17_Hashtable_traitsILb1ELb0ELb1EEEE14_S_forward_keyERS7_ = comdat any

$_ZNKSt8__detail10_Select1stclIRKSt4pairIKNSt7__cxx1112basic_stringIcSt11char_traitsIcESaIcEEEN7rocksdb9DBOptions10AccessHintEEEEONS0_10__1st_typeIT_E4typeEOSH_ = comdat any

$_ZNKSt10_HashtableINSt7__cxx1112basic_stringIcSt11char_traitsIcESaIcEEESt4pairIKS5_N7rocksdb9DBOptions10AccessHintEESaISB_ENSt8__detail10_Select1stESt8equal_toIS5_ESt4hashIS5_ENSD_18_Mod_range_hashingENSD_20_Default_ranged_hashENSD_20_Prime_rehash_policyENSD_17_Hashtable_traitsILb1ELb0ELb1EEEE4sizeEv = comdat any

$_ZNSt10_HashtableINSt7__cxx1112basic_stringIcSt11char_traitsIcESaIcEEESt4pairIKS5_N7rocksdb9DBOptions10AccessHintEESaISB_ENSt8__detail10_Select1stESt8equal_toIS5_ESt4hashIS5_ENSD_18_Mod_range_hashingENSD_20_Default_ranged_hashENSD_20_Prime_rehash_policyENSD_17_Hashtable_traitsILb1ELb0ELb1EEEE22__small_size_thresholdEv = comdat any

$_ZNSt10_HashtableINSt7__cxx1112basic_stringIcSt11char_traitsIcESaIcEEESt4pairIKS5_N7rocksdb9DBOptions10AccessHintEESaISB_ENSt8__detail10_Select1stESt8equal_toIS5_ESt4hashIS5_ENSD_18_Mod_range_hashingENSD_20_Default_ranged_hashENSD_20_Prime_rehash_policyENSD_17_Hashtable_traitsILb1ELb0ELb1EEEE5beginEv = comdat any

$_ZNSt8__detailneERKNS_19_Node_iterator_baseISt4pairIKNSt7__cxx1112basic_stringIcSt11char_traitsIcESaIcEEEN7rocksdb9DBOptions10AccessHintEELb1EEESF_ = comdat any

$_ZNSt10_HashtableINSt7__cxx1112basic_stringIcSt11char_traitsIcESaIcEEESt4pairIKS5_N7rocksdb9DBOptions10AccessHintEESaISB_ENSt8__detail10_Select1stESt8equal_toIS5_ESt4hashIS5_ENSD_18_Mod_range_hashingENSD_20_Default_ranged_hashENSD_20_Prime_rehash_policyENSD_17_Hashtable_traitsILb1ELb0ELb1EEEE3endEv = comdat any

$_ZNKSt8__detail15_Hashtable_baseINSt7__cxx1112basic_stringIcSt11char_traitsIcESaIcEEESt4pairIKS6_N7rocksdb9DBOptions10AccessHintEENS_10_Select1stESt8equal_toIS6_ESt4hashIS6_ENS_18_Mod_range_hashingENS_20_Default_ranged_hashENS_17_Hashtable_traitsILb1ELb0ELb1EEEE16_M_key_equals_trIS6_EEbRKT_RKNS_16_Hash_node_valueISC_Lb1EEE = comdat any

$_ZNSt4pairINSt8__detail14_Node_iteratorIS_IKNSt7__cxx1112basic_stringIcSt11char_traitsIcESaIcEEEN7rocksdb9DBOptions10AccessHintEELb0ELb1EEEbEC2IRSD_bTnNSt9enable_ifIXaaclsr5_PCCPE22_MoveConstructiblePairIT_T0_EEclsr5_PCCPE30_ImplicitlyMoveConvertiblePairISI_SJ_EEEbE4typeELb1EEEOSI_OSJ_ = comdat any

$_ZNSt8__detail14_Node_iteratorISt4pairIKNSt7__cxx1112basic_stringIcSt11char_traitsIcESaIcEEEN7rocksdb9DBOptions10AccessHintEELb0ELb1EEppEv = comdat any

$_ZNKSt8__detail15_Hash_code_baseINSt7__cxx1112basic_stringIcSt11char_traitsIcESaIcEEESt4pairIKS6_N7rocksdb9DBOptions10AccessHintEENS_10_Select1stESt4hashIS6_ENS_18_Mod_range_hashingENS_20_Default_ranged_hashELb1EE15_M_hash_code_trIS6_EEmRKT_ = comdat any

$_ZNKSt10_HashtableINSt7__cxx1112basic_stringIcSt11char_traitsIcESaIcEEESt4pairIKS5_N7rocksdb9DBOptions10AccessHintEESaISB_ENSt8__detail10_Select1stESt8equal_toIS5_ESt4hashIS5_ENSD_18_Mod_range_hashingENSD_20_Default_ranged_hashENSD_20_Prime_rehash_policyENSD_17_Hashtable_traitsILb1ELb0ELb1EEEE15_M_bucket_indexEm = comdat any

$_ZNKSt10_HashtableINSt7__cxx1112basic_stringIcSt11char_traitsIcESaIcEEESt4pairIKS5_N7rocksdb9DBOptions10AccessHintEESaISB_ENSt8__detail10_Select1stESt8equal_toIS5_ESt4hashIS5_ENSD_18_Mod_range_hashingENSD_20_Default_ranged_hashENSD_20_Prime_rehash_policyENSD_17_Hashtable_traitsILb1ELb0ELb1EEEE15_M_find_node_trIS5_EEPNSD_10_Hash_nodeISB_Lb1EEEmRKT_m = comdat any

$_ZNSt8__detail14_Node_iteratorISt4pairIKNSt7__cxx1112basic_stringIcSt11char_traitsIcESaIcEEEN7rocksdb9DBOptions10AccessHintEELb0ELb1EEC2EPNS_10_Hash_nodeISC_Lb1EEE = comdat any

$_ZNSt4pairINSt8__detail14_Node_iteratorIS_IKNSt7__cxx1112basic_stringIcSt11char_traitsIcESaIcEEEN7rocksdb9DBOptions10AccessHintEELb0ELb1EEEbEC2ISD_bTnNSt9enable_ifIXaaclsr5_PCCPE22_MoveConstructiblePairIT_T0_EEclsr5_PCCPE30_ImplicitlyMoveConvertiblePairISH_SI_EEEbE4typeELb1EEEOSH_OSI_ = comdat any

$_ZNSt8__detail12_NodeBuilderINS_10_Select1stEE8_S_buildIRKNSt7__cxx1112basic_stringIcSt11char_traitsIcESaIcEEERKSt4pairISA_N7rocksdb9DBOptions10AccessHintEENS_10_AllocNodeISaINS_10_Hash_nodeISG_Lb1EEEEEEEEPNT1_11__node_typeEOT_OT0_RKSO_ = comdat any

$_ZNSt10_HashtableINSt7__cxx1112basic_stringIcSt11char_traitsIcESaIcEEESt4pairIKS5_N7rocksdb9DBOptions10AccessHintEESaISB_ENSt8__detail10_Select1stESt8equal_toIS5_ESt4hashIS5_ENSD_18_Mod_range_hashingENSD_20_Default_ranged_hashENSD_20_Prime_rehash_policyENSD_17_Hashtable_traitsILb1ELb0ELb1EEEE12_Scoped_nodeC2EPNSD_10_Hash_nodeISB_Lb1EEEPNSD_16_Hashtable_allocISaISR_EEE = comdat any

$_ZNSt10_HashtableINSt7__cxx1112basic_stringIcSt11char_traitsIcESaIcEEESt4pairIKS5_N7rocksdb9DBOptions10AccessHintEESaISB_ENSt8__detail10_Select1stESt8equal_toIS5_ESt4hashIS5_ENSD_18_Mod_range_hashingENSD_20_Default_ranged_hashENSD_20_Prime_rehash_policyENSD_17_Hashtable_traitsILb1ELb0ELb1EEEE21_M_insert_unique_nodeEmmPNSD_10_Hash_nodeISB_Lb1EEEm = comdat any

$_ZNSt10_HashtableINSt7__cxx1112basic_stringIcSt11char_traitsIcESaIcEEESt4pairIKS5_N7rocksdb9DBOptions10AccessHintEESaISB_ENSt8__detail10_Select1stESt8equal_toIS5_ESt4hashIS5_ENSD_18_Mod_range_hashingENSD_20_Default_ranged_hashENSD_20_Prime_rehash_policyENSD_17_Hashtable_traitsILb1ELb0ELb1EEEE12_Scoped_nodeD2Ev = comdat any

$_ZNKSt8__detail15_Hashtable_baseINSt7__cxx1112basic_stringIcSt11char_traitsIcESaIcEEESt4pairIKS6_N7rocksdb9DBOptions10AccessHintEENS_10_Select1stESt8equal_toIS6_ESt4hashIS6_ENS_18_Mod_range_hashingENS_20_Default_ranged_hashENS_17_Hashtable_traitsILb1ELb0ELb1EEEE5_M_eqEv = comdat any

$_ZNKSt8__detail21_Hash_node_value_baseISt4pairIKNSt7__cxx1112basic_stringIcSt11char_traitsIcESaIcEEEN7rocksdb9DBOptions10AccessHintEEE4_M_vEv = comdat any

$_ZNKSt8__detail21_Hash_node_value_baseISt4pairIKNSt7__cxx1112basic_stringIcSt11char_traitsIcESaIcEEEN7rocksdb9DBOptions10AccessHintEEE9_M_valptrEv = comdat any

$_ZNK9__gnu_cxx16__aligned_bufferISt4pairIKNSt7__cxx1112basic_stringIcSt11char_traitsIcESaIcEEEN7rocksdb9DBOptions10AccessHintEEE6_M_ptrEv = comdat any

$_ZNK9__gnu_cxx16__aligned_bufferISt4pairIKNSt7__cxx1112basic_stringIcSt11char_traitsIcESaIcEEEN7rocksdb9DBOptions10AccessHintEEE7_M_addrEv = comdat any

$_ZNSt8__detail19_Node_iterator_baseISt4pairIKNSt7__cxx1112basic_stringIcSt11char_traitsIcESaIcEEEN7rocksdb9DBOptions10AccessHintEELb1EE7_M_incrEv = comdat any

$_ZNKSt8__detail15_Hash_code_baseINSt7__cxx1112basic_stringIcSt11char_traitsIcESaIcEEESt4pairIKS6_N7rocksdb9DBOptions10AccessHintEENS_10_Select1stESt4hashIS6_ENS_18_Mod_range_hashingENS_20_Default_ranged_hashELb1EE7_M_hashEv = comdat any

$_ZNKSt8__detail15_Hash_code_baseINSt7__cxx1112basic_stringIcSt11char_traitsIcESaIcEEESt4pairIKS6_N7rocksdb9DBOptions10AccessHintEENS_10_Select1stESt4hashIS6_ENS_18_Mod_range_hashingENS_20_Default_ranged_hashELb1EE15_M_bucket_indexEmm = comdat any

$_ZNKSt10_HashtableINSt7__cxx1112basic_stringIcSt11char_traitsIcESaIcEEESt4pairIKS5_N7rocksdb9DBOptions10AccessHintEESaISB_ENSt8__detail10_Select1stESt8equal_toIS5_ESt4hashIS5_ENSD_18_Mod_range_hashingENSD_20_Default_ranged_hashENSD_20_Prime_rehash_policyENSD_17_Hashtable_traitsILb1ELb0ELb1EEEE22_M_find_before_node_trIS5_EEPNSD_15_Hash_node_baseEmRKT_m = comdat any

$_ZNKSt8__detail15_Hashtable_baseINSt7__cxx1112basic_stringIcSt11char_traitsIcESaIcEEESt4pairIKS6_N7rocksdb9DBOptions10AccessHintEENS_10_Select1stESt8equal_toIS6_ESt4hashIS6_ENS_18_Mod_range_hashingENS_20_Default_ranged_hashENS_17_Hashtable_traitsILb1ELb0ELb1EEEE12_M_equals_trIS6_EEbRKT_mRKNS_16_Hash_node_valueISC_Lb1EEE = comdat any

$_ZNKSt10_HashtableINSt7__cxx1112basic_stringIcSt11char_traitsIcESaIcEEESt4pairIKS5_N7rocksdb9DBOptions10AccessHintEESaISB_ENSt8__detail10_Select1stESt8equal_toIS5_ESt4hashIS5_ENSD_18_Mod_range_hashingENSD_20_Default_ranged_hashENSD_20_Prime_rehash_policyENSD_17_Hashtable_traitsILb1ELb0ELb1EEEE15_M_bucket_indexERKNSD_16_Hash_node_valueISB_Lb1EEE = comdat any

$_ZNSt8__detail15_Hashtable_baseINSt7__cxx1112basic_stringIcSt11char_traitsIcESaIcEEESt4pairIKS6_N7rocksdb9DBOptions10AccessHintEENS_10_Select1stESt8equal_toIS6_ESt4hashIS6_ENS_18_Mod_range_hashingENS_20_Default_ranged_hashENS_17_Hashtable_traitsILb1ELb0ELb1EEEE9_S_equalsEmRKNS_21_Hash_node_code_cacheILb1EEE = comdat any

$_ZNKSt8__detail15_Hash_code_baseINSt7__cxx1112basic_stringIcSt11char_traitsIcESaIcEEESt4pairIKS6_N7rocksdb9DBOptions10AccessHintEENS_10_Select1stESt4hashIS6_ENS_18_Mod_range_hashingENS_20_Default_ranged_hashELb1EE15_M_bucket_indexERKNS_16_Hash_node_valueISC_Lb1EEEm = comdat any

$_ZNSt8__detail19_Node_iterator_baseISt4pairIKNSt7__cxx1112basic_stringIcSt11char_traitsIcESaIcEEEN7rocksdb9DBOptions10AccessHintEELb1EEC2EPNS_10_Hash_nodeISC_Lb1EEE = comdat any

$_ZNKSt8__detail10_AllocNodeISaINS_10_Hash_nodeISt4pairIKNSt7__cxx1112basic_stringIcSt11char_traitsIcESaIcEEEN7rocksdb9DBOptions10AccessHintEELb1EEEEEclIJRS9_RKSC_EEEPSE_DpOT_ = comdat any

$_ZNSt8__detail16_Hashtable_allocISaINS_10_Hash_nodeISt4pairIKNSt7__cxx1112basic_stringIcSt11char_traitsIcESaIcEEEN7rocksdb9DBOptions10AccessHintEELb1EEEEE16_M_allocate_nodeIJRS9_RKSC_EEEPSE_DpOT_ = comdat any

$_ZNSt16allocator_traitsISaINSt8__detail10_Hash_nodeISt4pairIKNSt7__cxx1112basic_stringIcSt11char_traitsIcESaIcEEEN7rocksdb9DBOptions10AccessHintEELb1EEEEE8allocateERSF_m = comdat any

$_ZSt12__to_addressINSt8__detail10_Hash_nodeISt4pairIKNSt7__cxx1112basic_stringIcSt11char_traitsIcESaIcEEEN7rocksdb9DBOptions10AccessHintEELb1EEEEPT_SG_ = comdat any

$_ZNSt8__detail10_Hash_nodeISt4pairIKNSt7__cxx1112basic_stringIcSt11char_traitsIcESaIcEEEN7rocksdb9DBOptions10AccessHintEELb1EEC2Ev = comdat any

$_ZNSt16allocator_traitsISaINSt8__detail10_Hash_nodeISt4pairIKNSt7__cxx1112basic_stringIcSt11char_traitsIcESaIcEEEN7rocksdb9DBOptions10AccessHintEELb1EEEEE9constructISD_JRS9_RKSC_EEEvRSF_PT_DpOT0_ = comdat any

$_ZNSt15__new_allocatorINSt8__detail10_Hash_nodeISt4pairIKNSt7__cxx1112basic_stringIcSt11char_traitsIcESaIcEEEN7rocksdb9DBOptions10AccessHintEELb1EEEE8allocateEmPKv = comdat any

$_ZNKSt15__new_allocatorINSt8__detail10_Hash_nodeISt4pairIKNSt7__cxx1112basic_stringIcSt11char_traitsIcESaIcEEEN7rocksdb9DBOptions10AccessHintEELb1EEEE11_M_max_sizeEv = comdat any

$_ZNSt15__new_allocatorINSt8__detail10_Hash_nodeISt4pairIKNSt7__cxx1112basic_stringIcSt11char_traitsIcESaIcEEEN7rocksdb9DBOptions10AccessHintEELb1EEEE9constructISD_JRS9_RKSC_EEEvPT_DpOT0_ = comdat any

$_ZNSt4pairIKNSt7__cxx1112basic_stringIcSt11char_traitsIcESaIcEEEN7rocksdb9DBOptions10AccessHintEEC2IS6_S9_TnNSt9enable_ifIXaaclsr5_PCCPE18_ConstructiblePairIT_T0_EEclsr5_PCCPE26_ImplicitlyConvertiblePairISD_SE_EEEbE4typeELb1EEERS6_RKS9_ = comdat any

$_ZNSt10_HashtableINSt7__cxx1112basic_stringIcSt11char_traitsIcESaIcEEESt4pairIKS5_N7rocksdb9DBOptions10AccessHintEESaISB_ENSt8__detail10_Select1stESt8equal_toIS5_ESt4hashIS5_ENSD_18_Mod_range_hashingENSD_20_Default_ranged_hashENSD_20_Prime_rehash_policyENSD_17_Hashtable_traitsILb1ELb0ELb1EEEE9_M_rehashEmRKm = comdat any

$_ZNKSt8__detail15_Hash_code_baseINSt7__cxx1112basic_stringIcSt11char_traitsIcESaIcEEESt4pairIKS6_N7rocksdb9DBOptions10AccessHintEENS_10_Select1stESt4hashIS6_ENS_18_Mod_range_hashingENS_20_Default_ranged_hashELb1EE13_M_store_codeERNS_21_Hash_node_code_cacheILb1EEEm = comdat any

$_ZNSt10_HashtableINSt7__cxx1112basic_stringIcSt11char_traitsIcESaIcEEESt4pairIKS5_N7rocksdb9DBOptions10AccessHintEESaISB_ENSt8__detail10_Select1stESt8equal_toIS5_ESt4hashIS5_ENSD_18_Mod_range_hashingENSD_20_Default_ranged_hashENSD_20_Prime_rehash_policyENSD_17_Hashtable_traitsILb1ELb0ELb1EEEE22_M_insert_bucket_beginEmPNSD_10_Hash_nodeISB_Lb1EEE = comdat any

$_ZNSt10_HashtableINSt7__cxx1112basic_stringIcSt11char_traitsIcESaIcEEESt4pairIKS5_N7rocksdb9DBOptions10AccessHintEESaISB_ENSt8__detail10_Select1stESt8equal_toIS5_ESt4hashIS5_ENSD_18_Mod_range_hashingENSD_20_Default_ranged_hashENSD_20_Prime_rehash_policyENSD_17_Hashtable_traitsILb1ELb0ELb1EEEE13_M_rehash_auxEmSt17integral_constantIbLb1EE = comdat any

$_ZNSt15__new_allocatorISt4pairIKNSt7__cxx1112basic_stringIcSt11char_traitsIcESaIcEEEN7rocksdb9CacheTierEEEC2Ev = comdat any

$_ZNSt15__new_allocatorISt4pairIKNSt7__cxx1112basic_stringIcSt11char_traitsIcESaIcEEEN7rocksdb9CacheTierEEED2Ev = comdat any

$_ZNSt10_HashtableINSt7__cxx1112basic_stringIcSt11char_traitsIcESaIcEEESt4pairIKS5_N7rocksdb9CacheTierEESaISA_ENSt8__detail10_Select1stESt8equal_toIS5_ESt4hashIS5_ENSC_18_Mod_range_hashingENSC_20_Default_ranged_hashENSC_20_Prime_rehash_policyENSC_17_Hashtable_traitsILb1ELb0ELb1EEEEC2ESt16initializer_listISA_EmRKSH_RKSF_RKSB_ = comdat any

$_ZNKSt16initializer_listISt4pairIKNSt7__cxx1112basic_stringIcSt11char_traitsIcESaIcEEEN7rocksdb9CacheTierEEE5beginEv = comdat any

$_ZNKSt16initializer_listISt4pairIKNSt7__cxx1112basic_stringIcSt11char_traitsIcESaIcEEEN7rocksdb9CacheTierEEE3endEv = comdat any

$_ZNSt10_HashtableINSt7__cxx1112basic_stringIcSt11char_traitsIcESaIcEEESt4pairIKS5_N7rocksdb9CacheTierEESaISA_ENSt8__detail10_Select1stESt8equal_toIS5_ESt4hashIS5_ENSC_18_Mod_range_hashingENSC_20_Default_ranged_hashENSC_20_Prime_rehash_policyENSC_17_Hashtable_traitsILb1ELb0ELb1EEEEC2IPKSA_EET_SR_mRKSH_RKSF_RKSB_St17integral_constantIbLb1EE = comdat any

$_ZNKSt16initializer_listISt4pairIKNSt7__cxx1112basic_stringIcSt11char_traitsIcESaIcEEEN7rocksdb9CacheTierEEE4sizeEv = comdat any

$_ZNSt10_HashtableINSt7__cxx1112basic_stringIcSt11char_traitsIcESaIcEEESt4pairIKS5_N7rocksdb9CacheTierEESaISA_ENSt8__detail10_Select1stESt8equal_toIS5_ESt4hashIS5_ENSC_18_Mod_range_hashingENSC_20_Default_ranged_hashENSC_20_Prime_rehash_policyENSC_17_Hashtable_traitsILb1ELb0ELb1EEEEC2EmRKSH_RKSF_RKSB_ = comdat any

$_ZNSt8__detail12_Insert_baseINSt7__cxx1112basic_stringIcSt11char_traitsIcESaIcEEESt4pairIKS6_N7rocksdb9CacheTierEESaISB_ENS_10_Select1stESt8equal_toIS6_ESt4hashIS6_ENS_18_Mod_range_hashingENS_20_Default_ranged_hashENS_20_Prime_rehash_policyENS_17_Hashtable_traitsILb1ELb0ELb1EEEE6insertERKSB_ = comdat any

$_ZNSt10_HashtableINSt7__cxx1112basic_stringIcSt11char_traitsIcESaIcEEESt4pairIKS5_N7rocksdb9CacheTierEESaISA_ENSt8__detail10_Select1stESt8equal_toIS5_ESt4hashIS5_ENSC_18_Mod_range_hashingENSC_20_Default_ranged_hashENSC_20_Prime_rehash_policyENSC_17_Hashtable_traitsILb1ELb0ELb1EEEEC2ERKSH_RKSF_RKSB_ = comdat any

$_ZNSt10_HashtableINSt7__cxx1112basic_stringIcSt11char_traitsIcESaIcEEESt4pairIKS5_N7rocksdb9CacheTierEESaISA_ENSt8__detail10_Select1stESt8equal_toIS5_ESt4hashIS5_ENSC_18_Mod_range_hashingENSC_20_Default_ranged_hashENSC_20_Prime_rehash_policyENSC_17_Hashtable_traitsILb1ELb0ELb1EEEE19_M_allocate_bucketsEm = comdat any

$_ZNSt8__detail15_Hashtable_baseINSt7__cxx1112basic_stringIcSt11char_traitsIcESaIcEEESt4pairIKS6_N7rocksdb9CacheTierEENS_10_Select1stESt8equal_toIS6_ESt4hashIS6_ENS_18_Mod_range_hashingENS_20_Default_ranged_hashENS_17_Hashtable_traitsILb1ELb0ELb1EEEEC2ERKSG_RKSE_ = comdat any

$_ZNSaINSt8__detail10_Hash_nodeISt4pairIKNSt7__cxx1112basic_stringIcSt11char_traitsIcESaIcEEEN7rocksdb9CacheTierEELb1EEEEC2ISB_EERKSaIT_E = comdat any

$_ZNSt8__detail16_Hashtable_allocISaINS_10_Hash_nodeISt4pairIKNSt7__cxx1112basic_stringIcSt11char_traitsIcESaIcEEEN7rocksdb9CacheTierEELb1EEEEEC2ISE_EEOT_ = comdat any

$_ZNSaINSt8__detail10_Hash_nodeISt4pairIKNSt7__cxx1112basic_stringIcSt11char_traitsIcESaIcEEEN7rocksdb9CacheTierEELb1EEEED2Ev = comdat any

$_ZNSt8__detail15_Hash_code_baseINSt7__cxx1112basic_stringIcSt11char_traitsIcESaIcEEESt4pairIKS6_N7rocksdb9CacheTierEENS_10_Select1stESt4hashIS6_ENS_18_Mod_range_hashingENS_20_Default_ranged_hashELb1EEC2ERKSE_ = comdat any

$_ZNSt15__new_allocatorINSt8__detail10_Hash_nodeISt4pairIKNSt7__cxx1112basic_stringIcSt11char_traitsIcESaIcEEEN7rocksdb9CacheTierEELb1EEEEC2Ev = comdat any

$_ZNSt8__detail21_Hashtable_ebo_helperILi0ESaINS_10_Hash_nodeISt4pairIKNSt7__cxx1112basic_stringIcSt11char_traitsIcESaIcEEEN7rocksdb9CacheTierEELb1EEEELb1EEC2ISE_EEOT_ = comdat any

$_ZNSaINSt8__detail10_Hash_nodeISt4pairIKNSt7__cxx1112basic_stringIcSt11char_traitsIcESaIcEEEN7rocksdb9CacheTierEELb1EEEEC2ERKSD_ = comdat any

$_ZNSt15__new_allocatorINSt8__detail10_Hash_nodeISt4pairIKNSt7__cxx1112basic_stringIcSt11char_traitsIcESaIcEEEN7rocksdb9CacheTierEELb1EEEEC2ERKSE_ = comdat any

$_ZNSt8__detail16_Hashtable_allocISaINS_10_Hash_nodeISt4pairIKNSt7__cxx1112basic_stringIcSt11char_traitsIcESaIcEEEN7rocksdb9CacheTierEELb1EEEEE19_M_allocate_bucketsEm = comdat any

$_ZNSt8__detail12_Insert_baseINSt7__cxx1112basic_stringIcSt11char_traitsIcESaIcEEESt4pairIKS6_N7rocksdb9CacheTierEESaISB_ENS_10_Select1stESt8equal_toIS6_ESt4hashIS6_ENS_18_Mod_range_hashingENS_20_Default_ranged_hashENS_20_Prime_rehash_policyENS_17_Hashtable_traitsILb1ELb0ELb1EEEE20_M_conjure_hashtableEv = comdat any

$_ZNSt8__detail10_AllocNodeISaINS_10_Hash_nodeISt4pairIKNSt7__cxx1112basic_stringIcSt11char_traitsIcESaIcEEEN7rocksdb9CacheTierEELb1EEEEEC2ERNS_16_Hashtable_allocISE_EE = comdat any

$_ZNSt10_HashtableINSt7__cxx1112basic_stringIcSt11char_traitsIcESaIcEEESt4pairIKS5_N7rocksdb9CacheTierEESaISA_ENSt8__detail10_Select1stESt8equal_toIS5_ESt4hashIS5_ENSC_18_Mod_range_hashingENSC_20_Default_ranged_hashENSC_20_Prime_rehash_policyENSC_17_Hashtable_traitsILb1ELb0ELb1EEEE9_M_insertIRKSA_NSC_10_AllocNodeISaINSC_10_Hash_nodeISA_Lb1EEEEEEEES6_INSC_14_Node_iteratorISA_Lb0ELb1EEEbEOT_RKT0_St17integral_constantIbLb1EE = comdat any

$_ZNSt10_HashtableINSt7__cxx1112basic_stringIcSt11char_traitsIcESaIcEEESt4pairIKS5_N7rocksdb9CacheTierEESaISA_ENSt8__detail10_Select1stESt8equal_toIS5_ESt4hashIS5_ENSC_18_Mod_range_hashingENSC_20_Default_ranged_hashENSC_20_Prime_rehash_policyENSC_17_Hashtable_traitsILb1ELb0ELb1EEEE16_M_insert_uniqueIRS7_RKSA_NSC_10_AllocNodeISaINSC_10_Hash_nodeISA_Lb1EEEEEEEES6_INSC_14_Node_iteratorISA_Lb0ELb1EEEbEOT_OT0_RKT1_ = comdat any

$_ZNSt10_HashtableINSt7__cxx1112basic_stringIcSt11char_traitsIcESaIcEEESt4pairIKS5_N7rocksdb9CacheTierEESaISA_ENSt8__detail10_Select1stESt8equal_toIS5_ESt4hashIS5_ENSC_18_Mod_range_hashingENSC_20_Default_ranged_hashENSC_20_Prime_rehash_policyENSC_17_Hashtable_traitsILb1ELb0ELb1EEEE14_S_forward_keyERS7_ = comdat any

$_ZNKSt8__detail10_Select1stclIRKSt4pairIKNSt7__cxx1112basic_stringIcSt11char_traitsIcESaIcEEEN7rocksdb9CacheTierEEEEONS0_10__1st_typeIT_E4typeEOSG_ = comdat any

$_ZNKSt10_HashtableINSt7__cxx1112basic_stringIcSt11char_traitsIcESaIcEEESt4pairIKS5_N7rocksdb9CacheTierEESaISA_ENSt8__detail10_Select1stESt8equal_toIS5_ESt4hashIS5_ENSC_18_Mod_range_hashingENSC_20_Default_ranged_hashENSC_20_Prime_rehash_policyENSC_17_Hashtable_traitsILb1ELb0ELb1EEEE4sizeEv = comdat any

$_ZNSt10_HashtableINSt7__cxx1112basic_stringIcSt11char_traitsIcESaIcEEESt4pairIKS5_N7rocksdb9CacheTierEESaISA_ENSt8__detail10_Select1stESt8equal_toIS5_ESt4hashIS5_ENSC_18_Mod_range_hashingENSC_20_Default_ranged_hashENSC_20_Prime_rehash_policyENSC_17_Hashtable_traitsILb1ELb0ELb1EEEE22__small_size_thresholdEv = comdat any

$_ZNSt10_HashtableINSt7__cxx1112basic_stringIcSt11char_traitsIcESaIcEEESt4pairIKS5_N7rocksdb9CacheTierEESaISA_ENSt8__detail10_Select1stESt8equal_toIS5_ESt4hashIS5_ENSC_18_Mod_range_hashingENSC_20_Default_ranged_hashENSC_20_Prime_rehash_policyENSC_17_Hashtable_traitsILb1ELb0ELb1EEEE5beginEv = comdat any

$_ZNSt8__detailneERKNS_19_Node_iterator_baseISt4pairIKNSt7__cxx1112basic_stringIcSt11char_traitsIcESaIcEEEN7rocksdb9CacheTierEELb1EEESE_ = comdat any

$_ZNSt10_HashtableINSt7__cxx1112basic_stringIcSt11char_traitsIcESaIcEEESt4pairIKS5_N7rocksdb9CacheTierEESaISA_ENSt8__detail10_Select1stESt8equal_toIS5_ESt4hashIS5_ENSC_18_Mod_range_hashingENSC_20_Default_ranged_hashENSC_20_Prime_rehash_policyENSC_17_Hashtable_traitsILb1ELb0ELb1EEEE3endEv = comdat any

$_ZNKSt8__detail15_Hashtable_baseINSt7__cxx1112basic_stringIcSt11char_traitsIcESaIcEEESt4pairIKS6_N7rocksdb9CacheTierEENS_10_Select1stESt8equal_toIS6_ESt4hashIS6_ENS_18_Mod_range_hashingENS_20_Default_ranged_hashENS_17_Hashtable_traitsILb1ELb0ELb1EEEE16_M_key_equals_trIS6_EEbRKT_RKNS_16_Hash_node_valueISB_Lb1EEE = comdat any

$_ZNSt4pairINSt8__detail14_Node_iteratorIS_IKNSt7__cxx1112basic_stringIcSt11char_traitsIcESaIcEEEN7rocksdb9CacheTierEELb0ELb1EEEbEC2IRSC_bTnNSt9enable_ifIXaaclsr5_PCCPE22_MoveConstructiblePairIT_T0_EEclsr5_PCCPE30_ImplicitlyMoveConvertiblePairISH_SI_EEEbE4typeELb1EEEOSH_OSI_ = comdat any

$_ZNSt8__detail14_Node_iteratorISt4pairIKNSt7__cxx1112basic_stringIcSt11char_traitsIcESaIcEEEN7rocksdb9CacheTierEELb0ELb1EEppEv = comdat any

$_ZNKSt8__detail15_Hash_code_baseINSt7__cxx1112basic_stringIcSt11char_traitsIcESaIcEEESt4pairIKS6_N7rocksdb9CacheTierEENS_10_Select1stESt4hashIS6_ENS_18_Mod_range_hashingENS_20_Default_ranged_hashELb1EE15_M_hash_code_trIS6_EEmRKT_ = comdat any

$_ZNKSt10_HashtableINSt7__cxx1112basic_stringIcSt11char_traitsIcESaIcEEESt4pairIKS5_N7rocksdb9CacheTierEESaISA_ENSt8__detail10_Select1stESt8equal_toIS5_ESt4hashIS5_ENSC_18_Mod_range_hashingENSC_20_Default_ranged_hashENSC_20_Prime_rehash_policyENSC_17_Hashtable_traitsILb1ELb0ELb1EEEE15_M_bucket_indexEm = comdat any

$_ZNKSt10_HashtableINSt7__cxx1112basic_stringIcSt11char_traitsIcESaIcEEESt4pairIKS5_N7rocksdb9CacheTierEESaISA_ENSt8__detail10_Select1stESt8equal_toIS5_ESt4hashIS5_ENSC_18_Mod_range_hashingENSC_20_Default_ranged_hashENSC_20_Prime_rehash_policyENSC_17_Hashtable_traitsILb1ELb0ELb1EEEE15_M_find_node_trIS5_EEPNSC_10_Hash_nodeISA_Lb1EEEmRKT_m = comdat any

$_ZNSt8__detail14_Node_iteratorISt4pairIKNSt7__cxx1112basic_stringIcSt11char_traitsIcESaIcEEEN7rocksdb9CacheTierEELb0ELb1EEC2EPNS_10_Hash_nodeISB_Lb1EEE = comdat any

$_ZNSt4pairINSt8__detail14_Node_iteratorIS_IKNSt7__cxx1112basic_stringIcSt11char_traitsIcESaIcEEEN7rocksdb9CacheTierEELb0ELb1EEEbEC2ISC_bTnNSt9enable_ifIXaaclsr5_PCCPE22_MoveConstructiblePairIT_T0_EEclsr5_PCCPE30_ImplicitlyMoveConvertiblePairISG_SH_EEEbE4typeELb1EEEOSG_OSH_ = comdat any

$_ZNSt8__detail12_NodeBuilderINS_10_Select1stEE8_S_buildIRKNSt7__cxx1112basic_stringIcSt11char_traitsIcESaIcEEERKSt4pairISA_N7rocksdb9CacheTierEENS_10_AllocNodeISaINS_10_Hash_nodeISF_Lb1EEEEEEEEPNT1_11__node_typeEOT_OT0_RKSN_ = comdat any

$_ZNSt10_HashtableINSt7__cxx1112basic_stringIcSt11char_traitsIcESaIcEEESt4pairIKS5_N7rocksdb9CacheTierEESaISA_ENSt8__detail10_Select1stESt8equal_toIS5_ESt4hashIS5_ENSC_18_Mod_range_hashingENSC_20_Default_ranged_hashENSC_20_Prime_rehash_policyENSC_17_Hashtable_traitsILb1ELb0ELb1EEEE12_Scoped_nodeC2EPNSC_10_Hash_nodeISA_Lb1EEEPNSC_16_Hashtable_allocISaISQ_EEE = comdat any

$_ZNSt10_HashtableINSt7__cxx1112basic_stringIcSt11char_traitsIcESaIcEEESt4pairIKS5_N7rocksdb9CacheTierEESaISA_ENSt8__detail10_Select1stESt8equal_toIS5_ESt4hashIS5_ENSC_18_Mod_range_hashingENSC_20_Default_ranged_hashENSC_20_Prime_rehash_policyENSC_17_Hashtable_traitsILb1ELb0ELb1EEEE21_M_insert_unique_nodeEmmPNSC_10_Hash_nodeISA_Lb1EEEm = comdat any

$_ZNSt10_HashtableINSt7__cxx1112basic_stringIcSt11char_traitsIcESaIcEEESt4pairIKS5_N7rocksdb9CacheTierEESaISA_ENSt8__detail10_Select1stESt8equal_toIS5_ESt4hashIS5_ENSC_18_Mod_range_hashingENSC_20_Default_ranged_hashENSC_20_Prime_rehash_policyENSC_17_Hashtable_traitsILb1ELb0ELb1EEEE12_Scoped_nodeD2Ev = comdat any

$_ZNKSt8__detail15_Hashtable_baseINSt7__cxx1112basic_stringIcSt11char_traitsIcESaIcEEESt4pairIKS6_N7rocksdb9CacheTierEENS_10_Select1stESt8equal_toIS6_ESt4hashIS6_ENS_18_Mod_range_hashingENS_20_Default_ranged_hashENS_17_Hashtable_traitsILb1ELb0ELb1EEEE5_M_eqEv = comdat any

$_ZNKSt8__detail21_Hash_node_value_baseISt4pairIKNSt7__cxx1112basic_stringIcSt11char_traitsIcESaIcEEEN7rocksdb9CacheTierEEE4_M_vEv = comdat any

$_ZNKSt8__detail21_Hash_node_value_baseISt4pairIKNSt7__cxx1112basic_stringIcSt11char_traitsIcESaIcEEEN7rocksdb9CacheTierEEE9_M_valptrEv = comdat any

$_ZNK9__gnu_cxx16__aligned_bufferISt4pairIKNSt7__cxx1112basic_stringIcSt11char_traitsIcESaIcEEEN7rocksdb9CacheTierEEE6_M_ptrEv = comdat any

$_ZNK9__gnu_cxx16__aligned_bufferISt4pairIKNSt7__cxx1112basic_stringIcSt11char_traitsIcESaIcEEEN7rocksdb9CacheTierEEE7_M_addrEv = comdat any

$_ZNSt8__detail19_Node_iterator_baseISt4pairIKNSt7__cxx1112basic_stringIcSt11char_traitsIcESaIcEEEN7rocksdb9CacheTierEELb1EE7_M_incrEv = comdat any

$_ZNKSt8__detail15_Hash_code_baseINSt7__cxx1112basic_stringIcSt11char_traitsIcESaIcEEESt4pairIKS6_N7rocksdb9CacheTierEENS_10_Select1stESt4hashIS6_ENS_18_Mod_range_hashingENS_20_Default_ranged_hashELb1EE7_M_hashEv = comdat any

$_ZNKSt8__detail15_Hash_code_baseINSt7__cxx1112basic_stringIcSt11char_traitsIcESaIcEEESt4pairIKS6_N7rocksdb9CacheTierEENS_10_Select1stESt4hashIS6_ENS_18_Mod_range_hashingENS_20_Default_ranged_hashELb1EE15_M_bucket_indexEmm = comdat any

$_ZNKSt10_HashtableINSt7__cxx1112basic_stringIcSt11char_traitsIcESaIcEEESt4pairIKS5_N7rocksdb9CacheTierEESaISA_ENSt8__detail10_Select1stESt8equal_toIS5_ESt4hashIS5_ENSC_18_Mod_range_hashingENSC_20_Default_ranged_hashENSC_20_Prime_rehash_policyENSC_17_Hashtable_traitsILb1ELb0ELb1EEEE22_M_find_before_node_trIS5_EEPNSC_15_Hash_node_baseEmRKT_m = comdat any

$_ZNKSt8__detail15_Hashtable_baseINSt7__cxx1112basic_stringIcSt11char_traitsIcESaIcEEESt4pairIKS6_N7rocksdb9CacheTierEENS_10_Select1stESt8equal_toIS6_ESt4hashIS6_ENS_18_Mod_range_hashingENS_20_Default_ranged_hashENS_17_Hashtable_traitsILb1ELb0ELb1EEEE12_M_equals_trIS6_EEbRKT_mRKNS_16_Hash_node_valueISB_Lb1EEE = comdat any

$_ZNKSt10_HashtableINSt7__cxx1112basic_stringIcSt11char_traitsIcESaIcEEESt4pairIKS5_N7rocksdb9CacheTierEESaISA_ENSt8__detail10_Select1stESt8equal_toIS5_ESt4hashIS5_ENSC_18_Mod_range_hashingENSC_20_Default_ranged_hashENSC_20_Prime_rehash_policyENSC_17_Hashtable_traitsILb1ELb0ELb1EEEE15_M_bucket_indexERKNSC_16_Hash_node_valueISA_Lb1EEE = comdat any

$_ZNSt8__detail15_Hashtable_baseINSt7__cxx1112basic_stringIcSt11char_traitsIcESaIcEEESt4pairIKS6_N7rocksdb9CacheTierEENS_10_Select1stESt8equal_toIS6_ESt4hashIS6_ENS_18_Mod_range_hashingENS_20_Default_ranged_hashENS_17_Hashtable_traitsILb1ELb0ELb1EEEE9_S_equalsEmRKNS_21_Hash_node_code_cacheILb1EEE = comdat any

$_ZNKSt8__detail15_Hash_code_baseINSt7__cxx1112basic_stringIcSt11char_traitsIcESaIcEEESt4pairIKS6_N7rocksdb9CacheTierEENS_10_Select1stESt4hashIS6_ENS_18_Mod_range_hashingENS_20_Default_ranged_hashELb1EE15_M_bucket_indexERKNS_16_Hash_node_valueISB_Lb1EEEm = comdat any

$_ZNSt8__detail19_Node_iterator_baseISt4pairIKNSt7__cxx1112basic_stringIcSt11char_traitsIcESaIcEEEN7rocksdb9CacheTierEELb1EEC2EPNS_10_Hash_nodeISB_Lb1EEE = comdat any

$_ZNKSt8__detail10_AllocNodeISaINS_10_Hash_nodeISt4pairIKNSt7__cxx1112basic_stringIcSt11char_traitsIcESaIcEEEN7rocksdb9CacheTierEELb1EEEEEclIJRS9_RKSB_EEEPSD_DpOT_ = comdat any

$_ZNSt8__detail16_Hashtable_allocISaINS_10_Hash_nodeISt4pairIKNSt7__cxx1112basic_stringIcSt11char_traitsIcESaIcEEEN7rocksdb9CacheTierEELb1EEEEE16_M_allocate_nodeIJRS9_RKSB_EEEPSD_DpOT_ = comdat any

$_ZNSt16allocator_traitsISaINSt8__detail10_Hash_nodeISt4pairIKNSt7__cxx1112basic_stringIcSt11char_traitsIcESaIcEEEN7rocksdb9CacheTierEELb1EEEEE8allocateERSE_m = comdat any

$_ZSt12__to_addressINSt8__detail10_Hash_nodeISt4pairIKNSt7__cxx1112basic_stringIcSt11char_traitsIcESaIcEEEN7rocksdb9CacheTierEELb1EEEEPT_SF_ = comdat any

$_ZNSt8__detail10_Hash_nodeISt4pairIKNSt7__cxx1112basic_stringIcSt11char_traitsIcESaIcEEEN7rocksdb9CacheTierEELb1EEC2Ev = comdat any

$_ZNSt16allocator_traitsISaINSt8__detail10_Hash_nodeISt4pairIKNSt7__cxx1112basic_stringIcSt11char_traitsIcESaIcEEEN7rocksdb9CacheTierEELb1EEEEE9constructISC_JRS9_RKSB_EEEvRSE_PT_DpOT0_ = comdat any

$_ZNSt15__new_allocatorINSt8__detail10_Hash_nodeISt4pairIKNSt7__cxx1112basic_stringIcSt11char_traitsIcESaIcEEEN7rocksdb9CacheTierEELb1EEEE8allocateEmPKv = comdat any

$_ZNKSt15__new_allocatorINSt8__detail10_Hash_nodeISt4pairIKNSt7__cxx1112basic_stringIcSt11char_traitsIcESaIcEEEN7rocksdb9CacheTierEELb1EEEE11_M_max_sizeEv = comdat any

$_ZNSt15__new_allocatorINSt8__detail10_Hash_nodeISt4pairIKNSt7__cxx1112basic_stringIcSt11char_traitsIcESaIcEEEN7rocksdb9CacheTierEELb1EEEE9constructISC_JRS9_RKSB_EEEvPT_DpOT0_ = comdat any

$_ZNSt4pairIKNSt7__cxx1112basic_stringIcSt11char_traitsIcESaIcEEEN7rocksdb9CacheTierEEC2IS6_S8_TnNSt9enable_ifIXaaclsr5_PCCPE18_ConstructiblePairIT_T0_EEclsr5_PCCPE26_ImplicitlyConvertiblePairISC_SD_EEEbE4typeELb1EEERS6_RKS8_ = comdat any

$_ZNSt10_HashtableINSt7__cxx1112basic_stringIcSt11char_traitsIcESaIcEEESt4pairIKS5_N7rocksdb9CacheTierEESaISA_ENSt8__detail10_Select1stESt8equal_toIS5_ESt4hashIS5_ENSC_18_Mod_range_hashingENSC_20_Default_ranged_hashENSC_20_Prime_rehash_policyENSC_17_Hashtable_traitsILb1ELb0ELb1EEEE9_M_rehashEmRKm = comdat any

$_ZNKSt8__detail15_Hash_code_baseINSt7__cxx1112basic_stringIcSt11char_traitsIcESaIcEEESt4pairIKS6_N7rocksdb9CacheTierEENS_10_Select1stESt4hashIS6_ENS_18_Mod_range_hashingENS_20_Default_ranged_hashELb1EE13_M_store_codeERNS_21_Hash_node_code_cacheILb1EEEm = comdat any

$_ZNSt10_HashtableINSt7__cxx1112basic_stringIcSt11char_traitsIcESaIcEEESt4pairIKS5_N7rocksdb9CacheTierEESaISA_ENSt8__detail10_Select1stESt8equal_toIS5_ESt4hashIS5_ENSC_18_Mod_range_hashingENSC_20_Default_ranged_hashENSC_20_Prime_rehash_policyENSC_17_Hashtable_traitsILb1ELb0ELb1EEEE22_M_insert_bucket_beginEmPNSC_10_Hash_nodeISA_Lb1EEE = comdat any

$_ZNSt10_HashtableINSt7__cxx1112basic_stringIcSt11char_traitsIcESaIcEEESt4pairIKS5_N7rocksdb9CacheTierEESaISA_ENSt8__detail10_Select1stESt8equal_toIS5_ESt4hashIS5_ENSC_18_Mod_range_hashingENSC_20_Default_ranged_hashENSC_20_Prime_rehash_policyENSC_17_Hashtable_traitsILb1ELb0ELb1EEEE13_M_rehash_auxEmSt17integral_constantIbLb1EE = comdat any

$_ZNSt15__new_allocatorISt4pairIKNSt7__cxx1112basic_stringIcSt11char_traitsIcESaIcEEEN7rocksdb12InfoLogLevelEEEC2Ev = comdat any

$_ZNSt15__new_allocatorISt4pairIKNSt7__cxx1112basic_stringIcSt11char_traitsIcESaIcEEEN7rocksdb12InfoLogLevelEEED2Ev = comdat any

$_ZNSt10_HashtableINSt7__cxx1112basic_stringIcSt11char_traitsIcESaIcEEESt4pairIKS5_N7rocksdb12InfoLogLevelEESaISA_ENSt8__detail10_Select1stESt8equal_toIS5_ESt4hashIS5_ENSC_18_Mod_range_hashingENSC_20_Default_ranged_hashENSC_20_Prime_rehash_policyENSC_17_Hashtable_traitsILb1ELb0ELb1EEEEC2ESt16initializer_listISA_EmRKSH_RKSF_RKSB_ = comdat any

$_ZNKSt16initializer_listISt4pairIKNSt7__cxx1112basic_stringIcSt11char_traitsIcESaIcEEEN7rocksdb12InfoLogLevelEEE5beginEv = comdat any

$_ZNKSt16initializer_listISt4pairIKNSt7__cxx1112basic_stringIcSt11char_traitsIcESaIcEEEN7rocksdb12InfoLogLevelEEE3endEv = comdat any

$_ZNSt10_HashtableINSt7__cxx1112basic_stringIcSt11char_traitsIcESaIcEEESt4pairIKS5_N7rocksdb12InfoLogLevelEESaISA_ENSt8__detail10_Select1stESt8equal_toIS5_ESt4hashIS5_ENSC_18_Mod_range_hashingENSC_20_Default_ranged_hashENSC_20_Prime_rehash_policyENSC_17_Hashtable_traitsILb1ELb0ELb1EEEEC2IPKSA_EET_SR_mRKSH_RKSF_RKSB_St17integral_constantIbLb1EE = comdat any

$_ZNKSt16initializer_listISt4pairIKNSt7__cxx1112basic_stringIcSt11char_traitsIcESaIcEEEN7rocksdb12InfoLogLevelEEE4sizeEv = comdat any

$_ZNSt10_HashtableINSt7__cxx1112basic_stringIcSt11char_traitsIcESaIcEEESt4pairIKS5_N7rocksdb12InfoLogLevelEESaISA_ENSt8__detail10_Select1stESt8equal_toIS5_ESt4hashIS5_ENSC_18_Mod_range_hashingENSC_20_Default_ranged_hashENSC_20_Prime_rehash_policyENSC_17_Hashtable_traitsILb1ELb0ELb1EEEEC2EmRKSH_RKSF_RKSB_ = comdat any

$_ZNSt8__detail12_Insert_baseINSt7__cxx1112basic_stringIcSt11char_traitsIcESaIcEEESt4pairIKS6_N7rocksdb12InfoLogLevelEESaISB_ENS_10_Select1stESt8equal_toIS6_ESt4hashIS6_ENS_18_Mod_range_hashingENS_20_Default_ranged_hashENS_20_Prime_rehash_policyENS_17_Hashtable_traitsILb1ELb0ELb1EEEE6insertERKSB_ = comdat any

$_ZNSt10_HashtableINSt7__cxx1112basic_stringIcSt11char_traitsIcESaIcEEESt4pairIKS5_N7rocksdb12InfoLogLevelEESaISA_ENSt8__detail10_Select1stESt8equal_toIS5_ESt4hashIS5_ENSC_18_Mod_range_hashingENSC_20_Default_ranged_hashENSC_20_Prime_rehash_policyENSC_17_Hashtable_traitsILb1ELb0ELb1EEEEC2ERKSH_RKSF_RKSB_ = comdat any

$_ZNSt10_HashtableINSt7__cxx1112basic_stringIcSt11char_traitsIcESaIcEEESt4pairIKS5_N7rocksdb12InfoLogLevelEESaISA_ENSt8__detail10_Select1stESt8equal_toIS5_ESt4hashIS5_ENSC_18_Mod_range_hashingENSC_20_Default_ranged_hashENSC_20_Prime_rehash_policyENSC_17_Hashtable_traitsILb1ELb0ELb1EEEE19_M_allocate_bucketsEm = comdat any

$_ZNSt8__detail15_Hashtable_baseINSt7__cxx1112basic_stringIcSt11char_traitsIcESaIcEEESt4pairIKS6_N7rocksdb12InfoLogLevelEENS_10_Select1stESt8equal_toIS6_ESt4hashIS6_ENS_18_Mod_range_hashingENS_20_Default_ranged_hashENS_17_Hashtable_traitsILb1ELb0ELb1EEEEC2ERKSG_RKSE_ = comdat any

$_ZNSaINSt8__detail10_Hash_nodeISt4pairIKNSt7__cxx1112basic_stringIcSt11char_traitsIcESaIcEEEN7rocksdb12InfoLogLevelEELb1EEEEC2ISB_EERKSaIT_E = comdat any

$_ZNSt8__detail16_Hashtable_allocISaINS_10_Hash_nodeISt4pairIKNSt7__cxx1112basic_stringIcSt11char_traitsIcESaIcEEEN7rocksdb12InfoLogLevelEELb1EEEEEC2ISE_EEOT_ = comdat any

$_ZNSaINSt8__detail10_Hash_nodeISt4pairIKNSt7__cxx1112basic_stringIcSt11char_traitsIcESaIcEEEN7rocksdb12InfoLogLevelEELb1EEEED2Ev = comdat any

$_ZNSt8__detail15_Hash_code_baseINSt7__cxx1112basic_stringIcSt11char_traitsIcESaIcEEESt4pairIKS6_N7rocksdb12InfoLogLevelEENS_10_Select1stESt4hashIS6_ENS_18_Mod_range_hashingENS_20_Default_ranged_hashELb1EEC2ERKSE_ = comdat any

$_ZNSt15__new_allocatorINSt8__detail10_Hash_nodeISt4pairIKNSt7__cxx1112basic_stringIcSt11char_traitsIcESaIcEEEN7rocksdb12InfoLogLevelEELb1EEEEC2Ev = comdat any

$_ZNSt8__detail21_Hashtable_ebo_helperILi0ESaINS_10_Hash_nodeISt4pairIKNSt7__cxx1112basic_stringIcSt11char_traitsIcESaIcEEEN7rocksdb12InfoLogLevelEELb1EEEELb1EEC2ISE_EEOT_ = comdat any

$_ZNSaINSt8__detail10_Hash_nodeISt4pairIKNSt7__cxx1112basic_stringIcSt11char_traitsIcESaIcEEEN7rocksdb12InfoLogLevelEELb1EEEEC2ERKSD_ = comdat any

$_ZNSt15__new_allocatorINSt8__detail10_Hash_nodeISt4pairIKNSt7__cxx1112basic_stringIcSt11char_traitsIcESaIcEEEN7rocksdb12InfoLogLevelEELb1EEEEC2ERKSE_ = comdat any

$_ZNSt8__detail16_Hashtable_allocISaINS_10_Hash_nodeISt4pairIKNSt7__cxx1112basic_stringIcSt11char_traitsIcESaIcEEEN7rocksdb12InfoLogLevelEELb1EEEEE19_M_allocate_bucketsEm = comdat any

$_ZNSt8__detail12_Insert_baseINSt7__cxx1112basic_stringIcSt11char_traitsIcESaIcEEESt4pairIKS6_N7rocksdb12InfoLogLevelEESaISB_ENS_10_Select1stESt8equal_toIS6_ESt4hashIS6_ENS_18_Mod_range_hashingENS_20_Default_ranged_hashENS_20_Prime_rehash_policyENS_17_Hashtable_traitsILb1ELb0ELb1EEEE20_M_conjure_hashtableEv = comdat any

$_ZNSt8__detail10_AllocNodeISaINS_10_Hash_nodeISt4pairIKNSt7__cxx1112basic_stringIcSt11char_traitsIcESaIcEEEN7rocksdb12InfoLogLevelEELb1EEEEEC2ERNS_16_Hashtable_allocISE_EE = comdat any

$_ZNSt10_HashtableINSt7__cxx1112basic_stringIcSt11char_traitsIcESaIcEEESt4pairIKS5_N7rocksdb12InfoLogLevelEESaISA_ENSt8__detail10_Select1stESt8equal_toIS5_ESt4hashIS5_ENSC_18_Mod_range_hashingENSC_20_Default_ranged_hashENSC_20_Prime_rehash_policyENSC_17_Hashtable_traitsILb1ELb0ELb1EEEE9_M_insertIRKSA_NSC_10_AllocNodeISaINSC_10_Hash_nodeISA_Lb1EEEEEEEES6_INSC_14_Node_iteratorISA_Lb0ELb1EEEbEOT_RKT0_St17integral_constantIbLb1EE = comdat any

$_ZNSt10_HashtableINSt7__cxx1112basic_stringIcSt11char_traitsIcESaIcEEESt4pairIKS5_N7rocksdb12InfoLogLevelEESaISA_ENSt8__detail10_Select1stESt8equal_toIS5_ESt4hashIS5_ENSC_18_Mod_range_hashingENSC_20_Default_ranged_hashENSC_20_Prime_rehash_policyENSC_17_Hashtable_traitsILb1ELb0ELb1EEEE16_M_insert_uniqueIRS7_RKSA_NSC_10_AllocNodeISaINSC_10_Hash_nodeISA_Lb1EEEEEEEES6_INSC_14_Node_iteratorISA_Lb0ELb1EEEbEOT_OT0_RKT1_ = comdat any

$_ZNSt10_HashtableINSt7__cxx1112basic_stringIcSt11char_traitsIcESaIcEEESt4pairIKS5_N7rocksdb12InfoLogLevelEESaISA_ENSt8__detail10_Select1stESt8equal_toIS5_ESt4hashIS5_ENSC_18_Mod_range_hashingENSC_20_Default_ranged_hashENSC_20_Prime_rehash_policyENSC_17_Hashtable_traitsILb1ELb0ELb1EEEE14_S_forward_keyERS7_ = comdat any

$_ZNKSt8__detail10_Select1stclIRKSt4pairIKNSt7__cxx1112basic_stringIcSt11char_traitsIcESaIcEEEN7rocksdb12InfoLogLevelEEEEONS0_10__1st_typeIT_E4typeEOSG_ = comdat any

$_ZNKSt10_HashtableINSt7__cxx1112basic_stringIcSt11char_traitsIcESaIcEEESt4pairIKS5_N7rocksdb12InfoLogLevelEESaISA_ENSt8__detail10_Select1stESt8equal_toIS5_ESt4hashIS5_ENSC_18_Mod_range_hashingENSC_20_Default_ranged_hashENSC_20_Prime_rehash_policyENSC_17_Hashtable_traitsILb1ELb0ELb1EEEE4sizeEv = comdat any

$_ZNSt10_HashtableINSt7__cxx1112basic_stringIcSt11char_traitsIcESaIcEEESt4pairIKS5_N7rocksdb12InfoLogLevelEESaISA_ENSt8__detail10_Select1stESt8equal_toIS5_ESt4hashIS5_ENSC_18_Mod_range_hashingENSC_20_Default_ranged_hashENSC_20_Prime_rehash_policyENSC_17_Hashtable_traitsILb1ELb0ELb1EEEE22__small_size_thresholdEv = comdat any

$_ZNSt10_HashtableINSt7__cxx1112basic_stringIcSt11char_traitsIcESaIcEEESt4pairIKS5_N7rocksdb12InfoLogLevelEESaISA_ENSt8__detail10_Select1stESt8equal_toIS5_ESt4hashIS5_ENSC_18_Mod_range_hashingENSC_20_Default_ranged_hashENSC_20_Prime_rehash_policyENSC_17_Hashtable_traitsILb1ELb0ELb1EEEE5beginEv = comdat any

$_ZNSt8__detailneERKNS_19_Node_iterator_baseISt4pairIKNSt7__cxx1112basic_stringIcSt11char_traitsIcESaIcEEEN7rocksdb12InfoLogLevelEELb1EEESE_ = comdat any

$_ZNSt10_HashtableINSt7__cxx1112basic_stringIcSt11char_traitsIcESaIcEEESt4pairIKS5_N7rocksdb12InfoLogLevelEESaISA_ENSt8__detail10_Select1stESt8equal_toIS5_ESt4hashIS5_ENSC_18_Mod_range_hashingENSC_20_Default_ranged_hashENSC_20_Prime_rehash_policyENSC_17_Hashtable_traitsILb1ELb0ELb1EEEE3endEv = comdat any

$_ZNKSt8__detail15_Hashtable_baseINSt7__cxx1112basic_stringIcSt11char_traitsIcESaIcEEESt4pairIKS6_N7rocksdb12InfoLogLevelEENS_10_Select1stESt8equal_toIS6_ESt4hashIS6_ENS_18_Mod_range_hashingENS_20_Default_ranged_hashENS_17_Hashtable_traitsILb1ELb0ELb1EEEE16_M_key_equals_trIS6_EEbRKT_RKNS_16_Hash_node_valueISB_Lb1EEE = comdat any

$_ZNSt4pairINSt8__detail14_Node_iteratorIS_IKNSt7__cxx1112basic_stringIcSt11char_traitsIcESaIcEEEN7rocksdb12InfoLogLevelEELb0ELb1EEEbEC2IRSC_bTnNSt9enable_ifIXaaclsr5_PCCPE22_MoveConstructiblePairIT_T0_EEclsr5_PCCPE30_ImplicitlyMoveConvertiblePairISH_SI_EEEbE4typeELb1EEEOSH_OSI_ = comdat any

$_ZNSt8__detail14_Node_iteratorISt4pairIKNSt7__cxx1112basic_stringIcSt11char_traitsIcESaIcEEEN7rocksdb12InfoLogLevelEELb0ELb1EEppEv = comdat any

$_ZNKSt8__detail15_Hash_code_baseINSt7__cxx1112basic_stringIcSt11char_traitsIcESaIcEEESt4pairIKS6_N7rocksdb12InfoLogLevelEENS_10_Select1stESt4hashIS6_ENS_18_Mod_range_hashingENS_20_Default_ranged_hashELb1EE15_M_hash_code_trIS6_EEmRKT_ = comdat any

$_ZNKSt10_HashtableINSt7__cxx1112basic_stringIcSt11char_traitsIcESaIcEEESt4pairIKS5_N7rocksdb12InfoLogLevelEESaISA_ENSt8__detail10_Select1stESt8equal_toIS5_ESt4hashIS5_ENSC_18_Mod_range_hashingENSC_20_Default_ranged_hashENSC_20_Prime_rehash_policyENSC_17_Hashtable_traitsILb1ELb0ELb1EEEE15_M_bucket_indexEm = comdat any

$_ZNKSt10_HashtableINSt7__cxx1112basic_stringIcSt11char_traitsIcESaIcEEESt4pairIKS5_N7rocksdb12InfoLogLevelEESaISA_ENSt8__detail10_Select1stESt8equal_toIS5_ESt4hashIS5_ENSC_18_Mod_range_hashingENSC_20_Default_ranged_hashENSC_20_Prime_rehash_policyENSC_17_Hashtable_traitsILb1ELb0ELb1EEEE15_M_find_node_trIS5_EEPNSC_10_Hash_nodeISA_Lb1EEEmRKT_m = comdat any

$_ZNSt8__detail14_Node_iteratorISt4pairIKNSt7__cxx1112basic_stringIcSt11char_traitsIcESaIcEEEN7rocksdb12InfoLogLevelEELb0ELb1EEC2EPNS_10_Hash_nodeISB_Lb1EEE = comdat any

$_ZNSt4pairINSt8__detail14_Node_iteratorIS_IKNSt7__cxx1112basic_stringIcSt11char_traitsIcESaIcEEEN7rocksdb12InfoLogLevelEELb0ELb1EEEbEC2ISC_bTnNSt9enable_ifIXaaclsr5_PCCPE22_MoveConstructiblePairIT_T0_EEclsr5_PCCPE30_ImplicitlyMoveConvertiblePairISG_SH_EEEbE4typeELb1EEEOSG_OSH_ = comdat any

$_ZNSt8__detail12_NodeBuilderINS_10_Select1stEE8_S_buildIRKNSt7__cxx1112basic_stringIcSt11char_traitsIcESaIcEEERKSt4pairISA_N7rocksdb12InfoLogLevelEENS_10_AllocNodeISaINS_10_Hash_nodeISF_Lb1EEEEEEEEPNT1_11__node_typeEOT_OT0_RKSN_ = comdat any

$_ZNSt10_HashtableINSt7__cxx1112basic_stringIcSt11char_traitsIcESaIcEEESt4pairIKS5_N7rocksdb12InfoLogLevelEESaISA_ENSt8__detail10_Select1stESt8equal_toIS5_ESt4hashIS5_ENSC_18_Mod_range_hashingENSC_20_Default_ranged_hashENSC_20_Prime_rehash_policyENSC_17_Hashtable_traitsILb1ELb0ELb1EEEE12_Scoped_nodeC2EPNSC_10_Hash_nodeISA_Lb1EEEPNSC_16_Hashtable_allocISaISQ_EEE = comdat any

$_ZNSt10_HashtableINSt7__cxx1112basic_stringIcSt11char_traitsIcESaIcEEESt4pairIKS5_N7rocksdb12InfoLogLevelEESaISA_ENSt8__detail10_Select1stESt8equal_toIS5_ESt4hashIS5_ENSC_18_Mod_range_hashingENSC_20_Default_ranged_hashENSC_20_Prime_rehash_policyENSC_17_Hashtable_traitsILb1ELb0ELb1EEEE21_M_insert_unique_nodeEmmPNSC_10_Hash_nodeISA_Lb1EEEm = comdat any

$_ZNSt10_HashtableINSt7__cxx1112basic_stringIcSt11char_traitsIcESaIcEEESt4pairIKS5_N7rocksdb12InfoLogLevelEESaISA_ENSt8__detail10_Select1stESt8equal_toIS5_ESt4hashIS5_ENSC_18_Mod_range_hashingENSC_20_Default_ranged_hashENSC_20_Prime_rehash_policyENSC_17_Hashtable_traitsILb1ELb0ELb1EEEE12_Scoped_nodeD2Ev = comdat any

$_ZNKSt8__detail15_Hashtable_baseINSt7__cxx1112basic_stringIcSt11char_traitsIcESaIcEEESt4pairIKS6_N7rocksdb12InfoLogLevelEENS_10_Select1stESt8equal_toIS6_ESt4hashIS6_ENS_18_Mod_range_hashingENS_20_Default_ranged_hashENS_17_Hashtable_traitsILb1ELb0ELb1EEEE5_M_eqEv = comdat any

$_ZNKSt8__detail21_Hash_node_value_baseISt4pairIKNSt7__cxx1112basic_stringIcSt11char_traitsIcESaIcEEEN7rocksdb12InfoLogLevelEEE4_M_vEv = comdat any

$_ZNKSt8__detail21_Hash_node_value_baseISt4pairIKNSt7__cxx1112basic_stringIcSt11char_traitsIcESaIcEEEN7rocksdb12InfoLogLevelEEE9_M_valptrEv = comdat any

$_ZNK9__gnu_cxx16__aligned_bufferISt4pairIKNSt7__cxx1112basic_stringIcSt11char_traitsIcESaIcEEEN7rocksdb12InfoLogLevelEEE6_M_ptrEv = comdat any

$_ZNK9__gnu_cxx16__aligned_bufferISt4pairIKNSt7__cxx1112basic_stringIcSt11char_traitsIcESaIcEEEN7rocksdb12InfoLogLevelEEE7_M_addrEv = comdat any

$_ZNSt8__detail19_Node_iterator_baseISt4pairIKNSt7__cxx1112basic_stringIcSt11char_traitsIcESaIcEEEN7rocksdb12InfoLogLevelEELb1EE7_M_incrEv = comdat any

$_ZNKSt8__detail15_Hash_code_baseINSt7__cxx1112basic_stringIcSt11char_traitsIcESaIcEEESt4pairIKS6_N7rocksdb12InfoLogLevelEENS_10_Select1stESt4hashIS6_ENS_18_Mod_range_hashingENS_20_Default_ranged_hashELb1EE7_M_hashEv = comdat any

$_ZNKSt8__detail15_Hash_code_baseINSt7__cxx1112basic_stringIcSt11char_traitsIcESaIcEEESt4pairIKS6_N7rocksdb12InfoLogLevelEENS_10_Select1stESt4hashIS6_ENS_18_Mod_range_hashingENS_20_Default_ranged_hashELb1EE15_M_bucket_indexEmm = comdat any

$_ZNKSt10_HashtableINSt7__cxx1112basic_stringIcSt11char_traitsIcESaIcEEESt4pairIKS5_N7rocksdb12InfoLogLevelEESaISA_ENSt8__detail10_Select1stESt8equal_toIS5_ESt4hashIS5_ENSC_18_Mod_range_hashingENSC_20_Default_ranged_hashENSC_20_Prime_rehash_policyENSC_17_Hashtable_traitsILb1ELb0ELb1EEEE22_M_find_before_node_trIS5_EEPNSC_15_Hash_node_baseEmRKT_m = comdat any

$_ZNKSt8__detail15_Hashtable_baseINSt7__cxx1112basic_stringIcSt11char_traitsIcESaIcEEESt4pairIKS6_N7rocksdb12InfoLogLevelEENS_10_Select1stESt8equal_toIS6_ESt4hashIS6_ENS_18_Mod_range_hashingENS_20_Default_ranged_hashENS_17_Hashtable_traitsILb1ELb0ELb1EEEE12_M_equals_trIS6_EEbRKT_mRKNS_16_Hash_node_valueISB_Lb1EEE = comdat any

$_ZNKSt10_HashtableINSt7__cxx1112basic_stringIcSt11char_traitsIcESaIcEEESt4pairIKS5_N7rocksdb12InfoLogLevelEESaISA_ENSt8__detail10_Select1stESt8equal_toIS5_ESt4hashIS5_ENSC_18_Mod_range_hashingENSC_20_Default_ranged_hashENSC_20_Prime_rehash_policyENSC_17_Hashtable_traitsILb1ELb0ELb1EEEE15_M_bucket_indexERKNSC_16_Hash_node_valueISA_Lb1EEE = comdat any

$_ZNSt8__detail15_Hashtable_baseINSt7__cxx1112basic_stringIcSt11char_traitsIcESaIcEEESt4pairIKS6_N7rocksdb12InfoLogLevelEENS_10_Select1stESt8equal_toIS6_ESt4hashIS6_ENS_18_Mod_range_hashingENS_20_Default_ranged_hashENS_17_Hashtable_traitsILb1ELb0ELb1EEEE9_S_equalsEmRKNS_21_Hash_node_code_cacheILb1EEE = comdat any

$_ZNKSt8__detail15_Hash_code_baseINSt7__cxx1112basic_stringIcSt11char_traitsIcESaIcEEESt4pairIKS6_N7rocksdb12InfoLogLevelEENS_10_Select1stESt4hashIS6_ENS_18_Mod_range_hashingENS_20_Default_ranged_hashELb1EE15_M_bucket_indexERKNS_16_Hash_node_valueISB_Lb1EEEm = comdat any

$_ZNSt8__detail19_Node_iterator_baseISt4pairIKNSt7__cxx1112basic_stringIcSt11char_traitsIcESaIcEEEN7rocksdb12InfoLogLevelEELb1EEC2EPNS_10_Hash_nodeISB_Lb1EEE = comdat any

$_ZNKSt8__detail10_AllocNodeISaINS_10_Hash_nodeISt4pairIKNSt7__cxx1112basic_stringIcSt11char_traitsIcESaIcEEEN7rocksdb12InfoLogLevelEELb1EEEEEclIJRS9_RKSB_EEEPSD_DpOT_ = comdat any

$_ZNSt8__detail16_Hashtable_allocISaINS_10_Hash_nodeISt4pairIKNSt7__cxx1112basic_stringIcSt11char_traitsIcESaIcEEEN7rocksdb12InfoLogLevelEELb1EEEEE16_M_allocate_nodeIJRS9_RKSB_EEEPSD_DpOT_ = comdat any

$_ZNSt16allocator_traitsISaINSt8__detail10_Hash_nodeISt4pairIKNSt7__cxx1112basic_stringIcSt11char_traitsIcESaIcEEEN7rocksdb12InfoLogLevelEELb1EEEEE8allocateERSE_m = comdat any

$_ZSt12__to_addressINSt8__detail10_Hash_nodeISt4pairIKNSt7__cxx1112basic_stringIcSt11char_traitsIcESaIcEEEN7rocksdb12InfoLogLevelEELb1EEEEPT_SF_ = comdat any

$_ZNSt8__detail10_Hash_nodeISt4pairIKNSt7__cxx1112basic_stringIcSt11char_traitsIcESaIcEEEN7rocksdb12InfoLogLevelEELb1EEC2Ev = comdat any

$_ZNSt16allocator_traitsISaINSt8__detail10_Hash_nodeISt4pairIKNSt7__cxx1112basic_stringIcSt11char_traitsIcESaIcEEEN7rocksdb12InfoLogLevelEELb1EEEEE9constructISC_JRS9_RKSB_EEEvRSE_PT_DpOT0_ = comdat any

$_ZNSt15__new_allocatorINSt8__detail10_Hash_nodeISt4pairIKNSt7__cxx1112basic_stringIcSt11char_traitsIcESaIcEEEN7rocksdb12InfoLogLevelEELb1EEEE8allocateEmPKv = comdat any

$_ZNKSt15__new_allocatorINSt8__detail10_Hash_nodeISt4pairIKNSt7__cxx1112basic_stringIcSt11char_traitsIcESaIcEEEN7rocksdb12InfoLogLevelEELb1EEEE11_M_max_sizeEv = comdat any

$_ZNSt15__new_allocatorINSt8__detail10_Hash_nodeISt4pairIKNSt7__cxx1112basic_stringIcSt11char_traitsIcESaIcEEEN7rocksdb12InfoLogLevelEELb1EEEE9constructISC_JRS9_RKSB_EEEvPT_DpOT0_ = comdat any

$_ZNSt4pairIKNSt7__cxx1112basic_stringIcSt11char_traitsIcESaIcEEEN7rocksdb12InfoLogLevelEEC2IS6_S8_TnNSt9enable_ifIXaaclsr5_PCCPE18_ConstructiblePairIT_T0_EEclsr5_PCCPE26_ImplicitlyConvertiblePairISC_SD_EEEbE4typeELb1EEERS6_RKS8_ = comdat any

$_ZNSt10_HashtableINSt7__cxx1112basic_stringIcSt11char_traitsIcESaIcEEESt4pairIKS5_N7rocksdb12InfoLogLevelEESaISA_ENSt8__detail10_Select1stESt8equal_toIS5_ESt4hashIS5_ENSC_18_Mod_range_hashingENSC_20_Default_ranged_hashENSC_20_Prime_rehash_policyENSC_17_Hashtable_traitsILb1ELb0ELb1EEEE9_M_rehashEmRKm = comdat any

$_ZNKSt8__detail15_Hash_code_baseINSt7__cxx1112basic_stringIcSt11char_traitsIcESaIcEEESt4pairIKS6_N7rocksdb12InfoLogLevelEENS_10_Select1stESt4hashIS6_ENS_18_Mod_range_hashingENS_20_Default_ranged_hashELb1EE13_M_store_codeERNS_21_Hash_node_code_cacheILb1EEEm = comdat any

$_ZNSt10_HashtableINSt7__cxx1112basic_stringIcSt11char_traitsIcESaIcEEESt4pairIKS5_N7rocksdb12InfoLogLevelEESaISA_ENSt8__detail10_Select1stESt8equal_toIS5_ESt4hashIS5_ENSC_18_Mod_range_hashingENSC_20_Default_ranged_hashENSC_20_Prime_rehash_policyENSC_17_Hashtable_traitsILb1ELb0ELb1EEEE22_M_insert_bucket_beginEmPNSC_10_Hash_nodeISA_Lb1EEE = comdat any

$_ZNSt10_HashtableINSt7__cxx1112basic_stringIcSt11char_traitsIcESaIcEEESt4pairIKS5_N7rocksdb12InfoLogLevelEESaISA_ENSt8__detail10_Select1stESt8equal_toIS5_ESt4hashIS5_ENSC_18_Mod_range_hashingENSC_20_Default_ranged_hashENSC_20_Prime_rehash_policyENSC_17_Hashtable_traitsILb1ELb0ELb1EEEE13_M_rehash_auxEmSt17integral_constantIbLb1EE = comdat any

$_ZNSt15__new_allocatorISt4pairIKNSt7__cxx1112basic_stringIcSt11char_traitsIcESaIcEEEN7rocksdb14OptionTypeInfoEEEC2Ev = comdat any

$_ZNSt15__new_allocatorISt4pairIKNSt7__cxx1112basic_stringIcSt11char_traitsIcESaIcEEEN7rocksdb14OptionTypeInfoEEED2Ev = comdat any

$_ZNSt10_HashtableINSt7__cxx1112basic_stringIcSt11char_traitsIcESaIcEEESt4pairIKS5_N7rocksdb14OptionTypeInfoEESaISA_ENSt8__detail10_Select1stESt8equal_toIS5_ESt4hashIS5_ENSC_18_Mod_range_hashingENSC_20_Default_ranged_hashENSC_20_Prime_rehash_policyENSC_17_Hashtable_traitsILb1ELb0ELb1EEEEC2ESt16initializer_listISA_EmRKSH_RKSF_RKSB_ = comdat any

$_ZNKSt16initializer_listISt4pairIKNSt7__cxx1112basic_stringIcSt11char_traitsIcESaIcEEEN7rocksdb14OptionTypeInfoEEE5beginEv = comdat any

$_ZNKSt16initializer_listISt4pairIKNSt7__cxx1112basic_stringIcSt11char_traitsIcESaIcEEEN7rocksdb14OptionTypeInfoEEE3endEv = comdat any

$_ZNSt10_HashtableINSt7__cxx1112basic_stringIcSt11char_traitsIcESaIcEEESt4pairIKS5_N7rocksdb14OptionTypeInfoEESaISA_ENSt8__detail10_Select1stESt8equal_toIS5_ESt4hashIS5_ENSC_18_Mod_range_hashingENSC_20_Default_ranged_hashENSC_20_Prime_rehash_policyENSC_17_Hashtable_traitsILb1ELb0ELb1EEEEC2IPKSA_EET_SR_mRKSH_RKSF_RKSB_St17integral_constantIbLb1EE = comdat any

$_ZNKSt16initializer_listISt4pairIKNSt7__cxx1112basic_stringIcSt11char_traitsIcESaIcEEEN7rocksdb14OptionTypeInfoEEE4sizeEv = comdat any

$_ZNSt10_HashtableINSt7__cxx1112basic_stringIcSt11char_traitsIcESaIcEEESt4pairIKS5_N7rocksdb14OptionTypeInfoEESaISA_ENSt8__detail10_Select1stESt8equal_toIS5_ESt4hashIS5_ENSC_18_Mod_range_hashingENSC_20_Default_ranged_hashENSC_20_Prime_rehash_policyENSC_17_Hashtable_traitsILb1ELb0ELb1EEEEC2EmRKSH_RKSF_RKSB_ = comdat any

$_ZNSt8__detail12_Insert_baseINSt7__cxx1112basic_stringIcSt11char_traitsIcESaIcEEESt4pairIKS6_N7rocksdb14OptionTypeInfoEESaISB_ENS_10_Select1stESt8equal_toIS6_ESt4hashIS6_ENS_18_Mod_range_hashingENS_20_Default_ranged_hashENS_20_Prime_rehash_policyENS_17_Hashtable_traitsILb1ELb0ELb1EEEE6insertERKSB_ = comdat any

$_ZNSt10_HashtableINSt7__cxx1112basic_stringIcSt11char_traitsIcESaIcEEESt4pairIKS5_N7rocksdb14OptionTypeInfoEESaISA_ENSt8__detail10_Select1stESt8equal_toIS5_ESt4hashIS5_ENSC_18_Mod_range_hashingENSC_20_Default_ranged_hashENSC_20_Prime_rehash_policyENSC_17_Hashtable_traitsILb1ELb0ELb1EEEEC2ERKSH_RKSF_RKSB_ = comdat any

$_ZNSt10_HashtableINSt7__cxx1112basic_stringIcSt11char_traitsIcESaIcEEESt4pairIKS5_N7rocksdb14OptionTypeInfoEESaISA_ENSt8__detail10_Select1stESt8equal_toIS5_ESt4hashIS5_ENSC_18_Mod_range_hashingENSC_20_Default_ranged_hashENSC_20_Prime_rehash_policyENSC_17_Hashtable_traitsILb1ELb0ELb1EEEE19_M_allocate_bucketsEm = comdat any

$_ZNSt8__detail15_Hashtable_baseINSt7__cxx1112basic_stringIcSt11char_traitsIcESaIcEEESt4pairIKS6_N7rocksdb14OptionTypeInfoEENS_10_Select1stESt8equal_toIS6_ESt4hashIS6_ENS_18_Mod_range_hashingENS_20_Default_ranged_hashENS_17_Hashtable_traitsILb1ELb0ELb1EEEEC2ERKSG_RKSE_ = comdat any

$_ZNSaINSt8__detail10_Hash_nodeISt4pairIKNSt7__cxx1112basic_stringIcSt11char_traitsIcESaIcEEEN7rocksdb14OptionTypeInfoEELb1EEEEC2ISB_EERKSaIT_E = comdat any

$_ZNSt8__detail16_Hashtable_allocISaINS_10_Hash_nodeISt4pairIKNSt7__cxx1112basic_stringIcSt11char_traitsIcESaIcEEEN7rocksdb14OptionTypeInfoEELb1EEEEEC2ISE_EEOT_ = comdat any

$_ZNSaINSt8__detail10_Hash_nodeISt4pairIKNSt7__cxx1112basic_stringIcSt11char_traitsIcESaIcEEEN7rocksdb14OptionTypeInfoEELb1EEEED2Ev = comdat any

$_ZNSt8__detail15_Hash_code_baseINSt7__cxx1112basic_stringIcSt11char_traitsIcESaIcEEESt4pairIKS6_N7rocksdb14OptionTypeInfoEENS_10_Select1stESt4hashIS6_ENS_18_Mod_range_hashingENS_20_Default_ranged_hashELb1EEC2ERKSE_ = comdat any

$_ZNSt15__new_allocatorINSt8__detail10_Hash_nodeISt4pairIKNSt7__cxx1112basic_stringIcSt11char_traitsIcESaIcEEEN7rocksdb14OptionTypeInfoEELb1EEEEC2Ev = comdat any

$_ZNSt8__detail21_Hashtable_ebo_helperILi0ESaINS_10_Hash_nodeISt4pairIKNSt7__cxx1112basic_stringIcSt11char_traitsIcESaIcEEEN7rocksdb14OptionTypeInfoEELb1EEEELb1EEC2ISE_EEOT_ = comdat any

$_ZNSaINSt8__detail10_Hash_nodeISt4pairIKNSt7__cxx1112basic_stringIcSt11char_traitsIcESaIcEEEN7rocksdb14OptionTypeInfoEELb1EEEEC2ERKSD_ = comdat any

$_ZNSt15__new_allocatorINSt8__detail10_Hash_nodeISt4pairIKNSt7__cxx1112basic_stringIcSt11char_traitsIcESaIcEEEN7rocksdb14OptionTypeInfoEELb1EEEEC2ERKSE_ = comdat any

$_ZNSt8__detail16_Hashtable_allocISaINS_10_Hash_nodeISt4pairIKNSt7__cxx1112basic_stringIcSt11char_traitsIcESaIcEEEN7rocksdb14OptionTypeInfoEELb1EEEEE19_M_allocate_bucketsEm = comdat any

$_ZNSt8__detail12_Insert_baseINSt7__cxx1112basic_stringIcSt11char_traitsIcESaIcEEESt4pairIKS6_N7rocksdb14OptionTypeInfoEESaISB_ENS_10_Select1stESt8equal_toIS6_ESt4hashIS6_ENS_18_Mod_range_hashingENS_20_Default_ranged_hashENS_20_Prime_rehash_policyENS_17_Hashtable_traitsILb1ELb0ELb1EEEE20_M_conjure_hashtableEv = comdat any

$_ZNSt8__detail10_AllocNodeISaINS_10_Hash_nodeISt4pairIKNSt7__cxx1112basic_stringIcSt11char_traitsIcESaIcEEEN7rocksdb14OptionTypeInfoEELb1EEEEEC2ERNS_16_Hashtable_allocISE_EE = comdat any

$_ZNSt10_HashtableINSt7__cxx1112basic_stringIcSt11char_traitsIcESaIcEEESt4pairIKS5_N7rocksdb14OptionTypeInfoEESaISA_ENSt8__detail10_Select1stESt8equal_toIS5_ESt4hashIS5_ENSC_18_Mod_range_hashingENSC_20_Default_ranged_hashENSC_20_Prime_rehash_policyENSC_17_Hashtable_traitsILb1ELb0ELb1EEEE9_M_insertIRKSA_NSC_10_AllocNodeISaINSC_10_Hash_nodeISA_Lb1EEEEEEEES6_INSC_14_Node_iteratorISA_Lb0ELb1EEEbEOT_RKT0_St17integral_constantIbLb1EE = comdat any

$_ZNSt10_HashtableINSt7__cxx1112basic_stringIcSt11char_traitsIcESaIcEEESt4pairIKS5_N7rocksdb14OptionTypeInfoEESaISA_ENSt8__detail10_Select1stESt8equal_toIS5_ESt4hashIS5_ENSC_18_Mod_range_hashingENSC_20_Default_ranged_hashENSC_20_Prime_rehash_policyENSC_17_Hashtable_traitsILb1ELb0ELb1EEEE16_M_insert_uniqueIRS7_RKSA_NSC_10_AllocNodeISaINSC_10_Hash_nodeISA_Lb1EEEEEEEES6_INSC_14_Node_iteratorISA_Lb0ELb1EEEbEOT_OT0_RKT1_ = comdat any

$_ZNSt10_HashtableINSt7__cxx1112basic_stringIcSt11char_traitsIcESaIcEEESt4pairIKS5_N7rocksdb14OptionTypeInfoEESaISA_ENSt8__detail10_Select1stESt8equal_toIS5_ESt4hashIS5_ENSC_18_Mod_range_hashingENSC_20_Default_ranged_hashENSC_20_Prime_rehash_policyENSC_17_Hashtable_traitsILb1ELb0ELb1EEEE14_S_forward_keyERS7_ = comdat any

$_ZNKSt8__detail10_Select1stclIRKSt4pairIKNSt7__cxx1112basic_stringIcSt11char_traitsIcESaIcEEEN7rocksdb14OptionTypeInfoEEEEONS0_10__1st_typeIT_E4typeEOSG_ = comdat any

$_ZNKSt10_HashtableINSt7__cxx1112basic_stringIcSt11char_traitsIcESaIcEEESt4pairIKS5_N7rocksdb14OptionTypeInfoEESaISA_ENSt8__detail10_Select1stESt8equal_toIS5_ESt4hashIS5_ENSC_18_Mod_range_hashingENSC_20_Default_ranged_hashENSC_20_Prime_rehash_policyENSC_17_Hashtable_traitsILb1ELb0ELb1EEEE4sizeEv = comdat any

$_ZNSt10_HashtableINSt7__cxx1112basic_stringIcSt11char_traitsIcESaIcEEESt4pairIKS5_N7rocksdb14OptionTypeInfoEESaISA_ENSt8__detail10_Select1stESt8equal_toIS5_ESt4hashIS5_ENSC_18_Mod_range_hashingENSC_20_Default_ranged_hashENSC_20_Prime_rehash_policyENSC_17_Hashtable_traitsILb1ELb0ELb1EEEE22__small_size_thresholdEv = comdat any

$_ZNSt10_HashtableINSt7__cxx1112basic_stringIcSt11char_traitsIcESaIcEEESt4pairIKS5_N7rocksdb14OptionTypeInfoEESaISA_ENSt8__detail10_Select1stESt8equal_toIS5_ESt4hashIS5_ENSC_18_Mod_range_hashingENSC_20_Default_ranged_hashENSC_20_Prime_rehash_policyENSC_17_Hashtable_traitsILb1ELb0ELb1EEEE5beginEv = comdat any

$_ZNSt8__detailneERKNS_19_Node_iterator_baseISt4pairIKNSt7__cxx1112basic_stringIcSt11char_traitsIcESaIcEEEN7rocksdb14OptionTypeInfoEELb1EEESE_ = comdat any

$_ZNSt10_HashtableINSt7__cxx1112basic_stringIcSt11char_traitsIcESaIcEEESt4pairIKS5_N7rocksdb14OptionTypeInfoEESaISA_ENSt8__detail10_Select1stESt8equal_toIS5_ESt4hashIS5_ENSC_18_Mod_range_hashingENSC_20_Default_ranged_hashENSC_20_Prime_rehash_policyENSC_17_Hashtable_traitsILb1ELb0ELb1EEEE3endEv = comdat any

$_ZNKSt8__detail15_Hashtable_baseINSt7__cxx1112basic_stringIcSt11char_traitsIcESaIcEEESt4pairIKS6_N7rocksdb14OptionTypeInfoEENS_10_Select1stESt8equal_toIS6_ESt4hashIS6_ENS_18_Mod_range_hashingENS_20_Default_ranged_hashENS_17_Hashtable_traitsILb1ELb0ELb1EEEE16_M_key_equals_trIS6_EEbRKT_RKNS_16_Hash_node_valueISB_Lb1EEE = comdat any

$_ZNSt4pairINSt8__detail14_Node_iteratorIS_IKNSt7__cxx1112basic_stringIcSt11char_traitsIcESaIcEEEN7rocksdb14OptionTypeInfoEELb0ELb1EEEbEC2IRSC_bTnNSt9enable_ifIXaaclsr5_PCCPE22_MoveConstructiblePairIT_T0_EEclsr5_PCCPE30_ImplicitlyMoveConvertiblePairISH_SI_EEEbE4typeELb1EEEOSH_OSI_ = comdat any

$_ZNSt8__detail14_Node_iteratorISt4pairIKNSt7__cxx1112basic_stringIcSt11char_traitsIcESaIcEEEN7rocksdb14OptionTypeInfoEELb0ELb1EEppEv = comdat any

$_ZNKSt8__detail15_Hash_code_baseINSt7__cxx1112basic_stringIcSt11char_traitsIcESaIcEEESt4pairIKS6_N7rocksdb14OptionTypeInfoEENS_10_Select1stESt4hashIS6_ENS_18_Mod_range_hashingENS_20_Default_ranged_hashELb1EE15_M_hash_code_trIS6_EEmRKT_ = comdat any

$_ZNKSt10_HashtableINSt7__cxx1112basic_stringIcSt11char_traitsIcESaIcEEESt4pairIKS5_N7rocksdb14OptionTypeInfoEESaISA_ENSt8__detail10_Select1stESt8equal_toIS5_ESt4hashIS5_ENSC_18_Mod_range_hashingENSC_20_Default_ranged_hashENSC_20_Prime_rehash_policyENSC_17_Hashtable_traitsILb1ELb0ELb1EEEE15_M_bucket_indexEm = comdat any

$_ZNKSt10_HashtableINSt7__cxx1112basic_stringIcSt11char_traitsIcESaIcEEESt4pairIKS5_N7rocksdb14OptionTypeInfoEESaISA_ENSt8__detail10_Select1stESt8equal_toIS5_ESt4hashIS5_ENSC_18_Mod_range_hashingENSC_20_Default_ranged_hashENSC_20_Prime_rehash_policyENSC_17_Hashtable_traitsILb1ELb0ELb1EEEE15_M_find_node_trIS5_EEPNSC_10_Hash_nodeISA_Lb1EEEmRKT_m = comdat any

$_ZNSt8__detail14_Node_iteratorISt4pairIKNSt7__cxx1112basic_stringIcSt11char_traitsIcESaIcEEEN7rocksdb14OptionTypeInfoEELb0ELb1EEC2EPNS_10_Hash_nodeISB_Lb1EEE = comdat any

$_ZNSt4pairINSt8__detail14_Node_iteratorIS_IKNSt7__cxx1112basic_stringIcSt11char_traitsIcESaIcEEEN7rocksdb14OptionTypeInfoEELb0ELb1EEEbEC2ISC_bTnNSt9enable_ifIXaaclsr5_PCCPE22_MoveConstructiblePairIT_T0_EEclsr5_PCCPE30_ImplicitlyMoveConvertiblePairISG_SH_EEEbE4typeELb1EEEOSG_OSH_ = comdat any

$_ZNSt8__detail12_NodeBuilderINS_10_Select1stEE8_S_buildIRKNSt7__cxx1112basic_stringIcSt11char_traitsIcESaIcEEERKSt4pairISA_N7rocksdb14OptionTypeInfoEENS_10_AllocNodeISaINS_10_Hash_nodeISF_Lb1EEEEEEEEPNT1_11__node_typeEOT_OT0_RKSN_ = comdat any

$_ZNSt10_HashtableINSt7__cxx1112basic_stringIcSt11char_traitsIcESaIcEEESt4pairIKS5_N7rocksdb14OptionTypeInfoEESaISA_ENSt8__detail10_Select1stESt8equal_toIS5_ESt4hashIS5_ENSC_18_Mod_range_hashingENSC_20_Default_ranged_hashENSC_20_Prime_rehash_policyENSC_17_Hashtable_traitsILb1ELb0ELb1EEEE12_Scoped_nodeC2EPNSC_10_Hash_nodeISA_Lb1EEEPNSC_16_Hashtable_allocISaISQ_EEE = comdat any

$_ZNSt10_HashtableINSt7__cxx1112basic_stringIcSt11char_traitsIcESaIcEEESt4pairIKS5_N7rocksdb14OptionTypeInfoEESaISA_ENSt8__detail10_Select1stESt8equal_toIS5_ESt4hashIS5_ENSC_18_Mod_range_hashingENSC_20_Default_ranged_hashENSC_20_Prime_rehash_policyENSC_17_Hashtable_traitsILb1ELb0ELb1EEEE21_M_insert_unique_nodeEmmPNSC_10_Hash_nodeISA_Lb1EEEm = comdat any

$_ZNSt10_HashtableINSt7__cxx1112basic_stringIcSt11char_traitsIcESaIcEEESt4pairIKS5_N7rocksdb14OptionTypeInfoEESaISA_ENSt8__detail10_Select1stESt8equal_toIS5_ESt4hashIS5_ENSC_18_Mod_range_hashingENSC_20_Default_ranged_hashENSC_20_Prime_rehash_policyENSC_17_Hashtable_traitsILb1ELb0ELb1EEEE12_Scoped_nodeD2Ev = comdat any

$_ZNKSt8__detail15_Hashtable_baseINSt7__cxx1112basic_stringIcSt11char_traitsIcESaIcEEESt4pairIKS6_N7rocksdb14OptionTypeInfoEENS_10_Select1stESt8equal_toIS6_ESt4hashIS6_ENS_18_Mod_range_hashingENS_20_Default_ranged_hashENS_17_Hashtable_traitsILb1ELb0ELb1EEEE5_M_eqEv = comdat any

$_ZNKSt8__detail21_Hash_node_value_baseISt4pairIKNSt7__cxx1112basic_stringIcSt11char_traitsIcESaIcEEEN7rocksdb14OptionTypeInfoEEE4_M_vEv = comdat any

$_ZNKSt8__detail21_Hash_node_value_baseISt4pairIKNSt7__cxx1112basic_stringIcSt11char_traitsIcESaIcEEEN7rocksdb14OptionTypeInfoEEE9_M_valptrEv = comdat any

$_ZNK9__gnu_cxx16__aligned_bufferISt4pairIKNSt7__cxx1112basic_stringIcSt11char_traitsIcESaIcEEEN7rocksdb14OptionTypeInfoEEE6_M_ptrEv = comdat any

$_ZNK9__gnu_cxx16__aligned_bufferISt4pairIKNSt7__cxx1112basic_stringIcSt11char_traitsIcESaIcEEEN7rocksdb14OptionTypeInfoEEE7_M_addrEv = comdat any

$_ZNSt8__detail19_Node_iterator_baseISt4pairIKNSt7__cxx1112basic_stringIcSt11char_traitsIcESaIcEEEN7rocksdb14OptionTypeInfoEELb1EE7_M_incrEv = comdat any

$_ZNKSt8__detail15_Hash_code_baseINSt7__cxx1112basic_stringIcSt11char_traitsIcESaIcEEESt4pairIKS6_N7rocksdb14OptionTypeInfoEENS_10_Select1stESt4hashIS6_ENS_18_Mod_range_hashingENS_20_Default_ranged_hashELb1EE7_M_hashEv = comdat any

$_ZNKSt8__detail15_Hash_code_baseINSt7__cxx1112basic_stringIcSt11char_traitsIcESaIcEEESt4pairIKS6_N7rocksdb14OptionTypeInfoEENS_10_Select1stESt4hashIS6_ENS_18_Mod_range_hashingENS_20_Default_ranged_hashELb1EE15_M_bucket_indexEmm = comdat any

$_ZNKSt10_HashtableINSt7__cxx1112basic_stringIcSt11char_traitsIcESaIcEEESt4pairIKS5_N7rocksdb14OptionTypeInfoEESaISA_ENSt8__detail10_Select1stESt8equal_toIS5_ESt4hashIS5_ENSC_18_Mod_range_hashingENSC_20_Default_ranged_hashENSC_20_Prime_rehash_policyENSC_17_Hashtable_traitsILb1ELb0ELb1EEEE22_M_find_before_node_trIS5_EEPNSC_15_Hash_node_baseEmRKT_m = comdat any

$_ZNKSt8__detail15_Hashtable_baseINSt7__cxx1112basic_stringIcSt11char_traitsIcESaIcEEESt4pairIKS6_N7rocksdb14OptionTypeInfoEENS_10_Select1stESt8equal_toIS6_ESt4hashIS6_ENS_18_Mod_range_hashingENS_20_Default_ranged_hashENS_17_Hashtable_traitsILb1ELb0ELb1EEEE12_M_equals_trIS6_EEbRKT_mRKNS_16_Hash_node_valueISB_Lb1EEE = comdat any

$_ZNKSt10_HashtableINSt7__cxx1112basic_stringIcSt11char_traitsIcESaIcEEESt4pairIKS5_N7rocksdb14OptionTypeInfoEESaISA_ENSt8__detail10_Select1stESt8equal_toIS5_ESt4hashIS5_ENSC_18_Mod_range_hashingENSC_20_Default_ranged_hashENSC_20_Prime_rehash_policyENSC_17_Hashtable_traitsILb1ELb0ELb1EEEE15_M_bucket_indexERKNSC_16_Hash_node_valueISA_Lb1EEE = comdat any

$_ZNSt8__detail15_Hashtable_baseINSt7__cxx1112basic_stringIcSt11char_traitsIcESaIcEEESt4pairIKS6_N7rocksdb14OptionTypeInfoEENS_10_Select1stESt8equal_toIS6_ESt4hashIS6_ENS_18_Mod_range_hashingENS_20_Default_ranged_hashENS_17_Hashtable_traitsILb1ELb0ELb1EEEE9_S_equalsEmRKNS_21_Hash_node_code_cacheILb1EEE = comdat any

$_ZNKSt8__detail15_Hash_code_baseINSt7__cxx1112basic_stringIcSt11char_traitsIcESaIcEEESt4pairIKS6_N7rocksdb14OptionTypeInfoEENS_10_Select1stESt4hashIS6_ENS_18_Mod_range_hashingENS_20_Default_ranged_hashELb1EE15_M_bucket_indexERKNS_16_Hash_node_valueISB_Lb1EEEm = comdat any

$_ZNSt8__detail19_Node_iterator_baseISt4pairIKNSt7__cxx1112basic_stringIcSt11char_traitsIcESaIcEEEN7rocksdb14OptionTypeInfoEELb1EEC2EPNS_10_Hash_nodeISB_Lb1EEE = comdat any

$_ZNKSt8__detail10_AllocNodeISaINS_10_Hash_nodeISt4pairIKNSt7__cxx1112basic_stringIcSt11char_traitsIcESaIcEEEN7rocksdb14OptionTypeInfoEELb1EEEEEclIJRS9_RKSB_EEEPSD_DpOT_ = comdat any

$_ZNSt8__detail16_Hashtable_allocISaINS_10_Hash_nodeISt4pairIKNSt7__cxx1112basic_stringIcSt11char_traitsIcESaIcEEEN7rocksdb14OptionTypeInfoEELb1EEEEE16_M_allocate_nodeIJRS9_RKSB_EEEPSD_DpOT_ = comdat any

$_ZNSt16allocator_traitsISaINSt8__detail10_Hash_nodeISt4pairIKNSt7__cxx1112basic_stringIcSt11char_traitsIcESaIcEEEN7rocksdb14OptionTypeInfoEELb1EEEEE8allocateERSE_m = comdat any

$_ZSt12__to_addressINSt8__detail10_Hash_nodeISt4pairIKNSt7__cxx1112basic_stringIcSt11char_traitsIcESaIcEEEN7rocksdb14OptionTypeInfoEELb1EEEEPT_SF_ = comdat any

$_ZNSt8__detail10_Hash_nodeISt4pairIKNSt7__cxx1112basic_stringIcSt11char_traitsIcESaIcEEEN7rocksdb14OptionTypeInfoEELb1EEC2Ev = comdat any

$_ZNSt16allocator_traitsISaINSt8__detail10_Hash_nodeISt4pairIKNSt7__cxx1112basic_stringIcSt11char_traitsIcESaIcEEEN7rocksdb14OptionTypeInfoEELb1EEEEE9constructISC_JRS9_RKSB_EEEvRSE_PT_DpOT0_ = comdat any

$_ZNSt15__new_allocatorINSt8__detail10_Hash_nodeISt4pairIKNSt7__cxx1112basic_stringIcSt11char_traitsIcESaIcEEEN7rocksdb14OptionTypeInfoEELb1EEEE8allocateEmPKv = comdat any

$_ZNKSt15__new_allocatorINSt8__detail10_Hash_nodeISt4pairIKNSt7__cxx1112basic_stringIcSt11char_traitsIcESaIcEEEN7rocksdb14OptionTypeInfoEELb1EEEE11_M_max_sizeEv = comdat any

$_ZNSt15__new_allocatorINSt8__detail10_Hash_nodeISt4pairIKNSt7__cxx1112basic_stringIcSt11char_traitsIcESaIcEEEN7rocksdb14OptionTypeInfoEELb1EEEE9constructISC_JRS9_RKSB_EEEvPT_DpOT0_ = comdat any

$_ZNSt10_HashtableINSt7__cxx1112basic_stringIcSt11char_traitsIcESaIcEEESt4pairIKS5_N7rocksdb14OptionTypeInfoEESaISA_ENSt8__detail10_Select1stESt8equal_toIS5_ESt4hashIS5_ENSC_18_Mod_range_hashingENSC_20_Default_ranged_hashENSC_20_Prime_rehash_policyENSC_17_Hashtable_traitsILb1ELb0ELb1EEEE9_M_rehashEmRKm = comdat any

$_ZNKSt8__detail15_Hash_code_baseINSt7__cxx1112basic_stringIcSt11char_traitsIcESaIcEEESt4pairIKS6_N7rocksdb14OptionTypeInfoEENS_10_Select1stESt4hashIS6_ENS_18_Mod_range_hashingENS_20_Default_ranged_hashELb1EE13_M_store_codeERNS_21_Hash_node_code_cacheILb1EEEm = comdat any

$_ZNSt10_HashtableINSt7__cxx1112basic_stringIcSt11char_traitsIcESaIcEEESt4pairIKS5_N7rocksdb14OptionTypeInfoEESaISA_ENSt8__detail10_Select1stESt8equal_toIS5_ESt4hashIS5_ENSC_18_Mod_range_hashingENSC_20_Default_ranged_hashENSC_20_Prime_rehash_policyENSC_17_Hashtable_traitsILb1ELb0ELb1EEEE22_M_insert_bucket_beginEmPNSC_10_Hash_nodeISA_Lb1EEE = comdat any

$_ZNSt10_HashtableINSt7__cxx1112basic_stringIcSt11char_traitsIcESaIcEEESt4pairIKS5_N7rocksdb14OptionTypeInfoEESaISA_ENSt8__detail10_Select1stESt8equal_toIS5_ESt4hashIS5_ENSC_18_Mod_range_hashingENSC_20_Default_ranged_hashENSC_20_Prime_rehash_policyENSC_17_Hashtable_traitsILb1ELb0ELb1EEEE13_M_rehash_auxEmSt17integral_constantIbLb1EE = comdat any

$_ZNSt8functionIFN7rocksdb6StatusERKNS0_13ConfigOptionsERKNSt7__cxx1112basic_stringIcSt11char_traitsIcESaIcEEESC_PvEEC2IZNS0_14OptionTypeInfo14AsCustomRawPtrINS0_9WalFilterEEESH_iNS0_22OptionVerificationTypeENS0_15OptionTypeFlagsEEUlS4_SC_SC_SD_E_vEEOT_ = comdat any

$_ZNSt14_Function_base13_Base_managerIZN7rocksdb14OptionTypeInfo14AsCustomRawPtrINS1_9WalFilterEEES2_iNS1_22OptionVerificationTypeENS1_15OptionTypeFlagsEEUlRKNS1_13ConfigOptionsERKNSt7__cxx1112basic_stringIcSt11char_traitsIcESaIcEEESH_PvE_E21_M_not_empty_functionISJ_EEbRKT_ = comdat any

$_ZNSt14_Function_base13_Base_managerIZN7rocksdb14OptionTypeInfo14AsCustomRawPtrINS1_9WalFilterEEES2_iNS1_22OptionVerificationTypeENS1_15OptionTypeFlagsEEUlRKNS1_13ConfigOptionsERKNSt7__cxx1112basic_stringIcSt11char_traitsIcESaIcEEESH_PvE_E15_M_init_functorISJ_EEvRSt9_Any_dataOT_ = comdat any

$_ZNSt17_Function_handlerIFN7rocksdb6StatusERKNS0_13ConfigOptionsERKNSt7__cxx1112basic_stringIcSt11char_traitsIcESaIcEEESC_PvEZNS0_14OptionTypeInfo14AsCustomRawPtrINS0_9WalFilterEEESF_iNS0_22OptionVerificationTypeENS0_15OptionTypeFlagsEEUlS4_SC_SC_SD_E_E9_M_invokeERKSt9_Any_dataS4_SC_SC_OSD_ = comdat any

$_ZNSt17_Function_handlerIFN7rocksdb6StatusERKNS0_13ConfigOptionsERKNSt7__cxx1112basic_stringIcSt11char_traitsIcESaIcEEESC_PvEZNS0_14OptionTypeInfo14AsCustomRawPtrINS0_9WalFilterEEESF_iNS0_22OptionVerificationTypeENS0_15OptionTypeFlagsEEUlS4_SC_SC_SD_E_E10_M_managerERSt9_Any_dataRKSM_St18_Manager_operation = comdat any

$_ZNSt14_Function_base13_Base_managerIZN7rocksdb14OptionTypeInfo14AsCustomRawPtrINS1_9WalFilterEEES2_iNS1_22OptionVerificationTypeENS1_15OptionTypeFlagsEEUlRKNS1_13ConfigOptionsERKNSt7__cxx1112basic_stringIcSt11char_traitsIcESaIcEEESH_PvE_E9_M_createISJ_EEvRSt9_Any_dataOT_St17integral_constantIbLb1EE = comdat any

$_ZNSt9_Any_data9_M_accessEv = comdat any

$_ZSt10__invoke_rIN7rocksdb6StatusERZNS0_14OptionTypeInfo14AsCustomRawPtrINS0_9WalFilterEEES2_iNS0_22OptionVerificationTypeENS0_15OptionTypeFlagsEEUlRKNS0_13ConfigOptionsERKNSt7__cxx1112basic_stringIcSt11char_traitsIcESaIcEEESH_PvE_JS9_SH_SH_SI_EENSt9enable_ifIX16is_invocable_r_vIT_T0_DpT1_EESM_E4typeEOSN_DpOSO_ = comdat any

$_ZNSt14_Function_base13_Base_managerIZN7rocksdb14OptionTypeInfo14AsCustomRawPtrINS1_9WalFilterEEES2_iNS1_22OptionVerificationTypeENS1_15OptionTypeFlagsEEUlRKNS1_13ConfigOptionsERKNSt7__cxx1112basic_stringIcSt11char_traitsIcESaIcEEESH_PvE_E14_M_get_pointerERKSt9_Any_data = comdat any

$_ZSt13__invoke_implIN7rocksdb6StatusERZNS0_14OptionTypeInfo14AsCustomRawPtrINS0_9WalFilterEEES2_iNS0_22OptionVerificationTypeENS0_15OptionTypeFlagsEEUlRKNS0_13ConfigOptionsERKNSt7__cxx1112basic_stringIcSt11char_traitsIcESaIcEEESH_PvE_JS9_SH_SH_SI_EET_St14__invoke_otherOT0_DpOT1_ = comdat any

$_ZZN7rocksdb14OptionTypeInfo14AsCustomRawPtrINS_9WalFilterEEES0_iNS_22OptionVerificationTypeENS_15OptionTypeFlagsEENKUlRKNS_13ConfigOptionsERKNSt7__cxx1112basic_stringIcSt11char_traitsIcESaIcEEESF_PvE_clES7_SF_SF_SG_ = comdat any

$_ZSteqIcSt11char_traitsIcESaIcEEbRKNSt7__cxx1112basic_stringIT_T0_T1_EEPKS5_ = comdat any

$_ZN7rocksdb14OptionTypeInfo11kIdPropNameEv = comdat any

$_ZN7rocksdb6Status2OKEv = comdat any

$_ZN7rocksdb6StatusC2Ev = comdat any

$_ZNSt10unique_ptrIA_KcSt14default_deleteIS1_EEC2IS3_vEEDn = comdat any

$_ZNSt15__uniq_ptr_dataIKcSt14default_deleteIA_S0_ELb1ELb1EEC2Ev = comdat any

$_ZNSt15__uniq_ptr_implIKcSt14default_deleteIA_S0_EEC2Ev = comdat any

$_ZNSt5tupleIJPKcSt14default_deleteIA_S0_EEEC2ILb1ETnNSt9enable_ifIXclsr17_TupleConstraintsIXT_ES1_S4_EE37__is_implicitly_default_constructibleEEbE4typeELb1EEEv = comdat any

$_ZNSt11_Tuple_implILm0EJPKcSt14default_deleteIA_S0_EEEC2Ev = comdat any

$_ZNSt11_Tuple_implILm1EJSt14default_deleteIA_KcEEEC2Ev = comdat any

$_ZNSt10_Head_baseILm0EPKcLb0EEC2Ev = comdat any

$_ZNSt10_Head_baseILm1ESt14default_deleteIA_KcELb1EEC2Ev = comdat any

$_ZNKSt9_Any_data9_M_accessIZN7rocksdb14OptionTypeInfo14AsCustomRawPtrINS1_9WalFilterEEES2_iNS1_22OptionVerificationTypeENS1_15OptionTypeFlagsEEUlRKNS1_13ConfigOptionsERKNSt7__cxx1112basic_stringIcSt11char_traitsIcESaIcEEESH_PvE_EERKT_v = comdat any

$_ZNKSt9_Any_data9_M_accessEv = comdat any

$_ZNSt9_Any_data9_M_accessIPZN7rocksdb14OptionTypeInfo14AsCustomRawPtrINS1_9WalFilterEEES2_iNS1_22OptionVerificationTypeENS1_15OptionTypeFlagsEEUlRKNS1_13ConfigOptionsERKNSt7__cxx1112basic_stringIcSt11char_traitsIcESaIcEEESH_PvE_EERT_v = comdat any

$_ZNSt14_Function_base13_Base_managerIZN7rocksdb14OptionTypeInfo14AsCustomRawPtrINS1_9WalFilterEEES2_iNS1_22OptionVerificationTypeENS1_15OptionTypeFlagsEEUlRKNS1_13ConfigOptionsERKNSt7__cxx1112basic_stringIcSt11char_traitsIcESaIcEEESH_PvE_E10_M_managerERSt9_Any_dataRKSL_St18_Manager_operation = comdat any

$_ZNSt9_Any_data9_M_accessIPKSt9type_infoEERT_v = comdat any

$_ZNSt14_Function_base13_Base_managerIZN7rocksdb14OptionTypeInfo14AsCustomRawPtrINS1_9WalFilterEEES2_iNS1_22OptionVerificationTypeENS1_15OptionTypeFlagsEEUlRKNS1_13ConfigOptionsERKNSt7__cxx1112basic_stringIcSt11char_traitsIcESaIcEEESH_PvE_E15_M_init_functorIRKSJ_EEvRSt9_Any_dataOT_ = comdat any

$_ZNSt14_Function_base13_Base_managerIZN7rocksdb14OptionTypeInfo14AsCustomRawPtrINS1_9WalFilterEEES2_iNS1_22OptionVerificationTypeENS1_15OptionTypeFlagsEEUlRKNS1_13ConfigOptionsERKNSt7__cxx1112basic_stringIcSt11char_traitsIcESaIcEEESH_PvE_E10_M_destroyERSt9_Any_dataSt17integral_constantIbLb1EE = comdat any

$_ZNSt14_Function_base13_Base_managerIZN7rocksdb14OptionTypeInfo14AsCustomRawPtrINS1_9WalFilterEEES2_iNS1_22OptionVerificationTypeENS1_15OptionTypeFlagsEEUlRKNS1_13ConfigOptionsERKNSt7__cxx1112basic_stringIcSt11char_traitsIcESaIcEEESH_PvE_E9_M_createIRKSJ_EEvRSt9_Any_dataOT_St17integral_constantIbLb1EE = comdat any

$_ZNSt9_Any_data9_M_accessIZN7rocksdb14OptionTypeInfo14AsCustomRawPtrINS1_9WalFilterEEES2_iNS1_22OptionVerificationTypeENS1_15OptionTypeFlagsEEUlRKNS1_13ConfigOptionsERKNSt7__cxx1112basic_stringIcSt11char_traitsIcESaIcEEESH_PvE_EERT_v = comdat any

$_ZNSt8functionIFN7rocksdb6StatusERKNS0_13ConfigOptionsERKNSt7__cxx1112basic_stringIcSt11char_traitsIcESaIcEEESC_PvEEC2IZNS0_14OptionTypeInfo4EnumINS0_15WALRecoveryModeEEESH_iPKSt13unordered_mapISA_T_St4hashISA_ESt8equal_toISA_ESaISt4pairISB_SL_EEENS0_15OptionTypeFlagsEEUlS4_SC_SC_SD_E_vEEOSL_ = comdat any

$_ZN7rocksdb14OptionTypeInfo16SetSerializeFuncERKSt8functionIFNS_6StatusERKNS_13ConfigOptionsERKNSt7__cxx1112basic_stringIcSt11char_traitsIcESaIcEEEPKvPSB_EE = comdat any

$_ZNSt8functionIFN7rocksdb6StatusERKNS0_13ConfigOptionsERKNSt7__cxx1112basic_stringIcSt11char_traitsIcESaIcEEEPKvPSA_EEC2IZNS0_14OptionTypeInfo4EnumINS0_15WALRecoveryModeEEESJ_iPKSt13unordered_mapISA_T_St4hashISA_ESt8equal_toISA_ESaISt4pairISB_SN_EEENS0_15OptionTypeFlagsEEUlS4_SC_SE_SF_E_vEEOSN_ = comdat any

$_ZN7rocksdb14OptionTypeInfo13SetEqualsFuncERKSt8functionIFbRKNS_13ConfigOptionsERKNSt7__cxx1112basic_stringIcSt11char_traitsIcESaIcEEEPKvSE_PSA_EE = comdat any

$_ZNSt8functionIFbRKN7rocksdb13ConfigOptionsERKNSt7__cxx1112basic_stringIcSt11char_traitsIcESaIcEEEPKvSD_PS9_EEC2IZNS0_14OptionTypeInfo4EnumINS0_15WALRecoveryModeEEESI_iPKSt13unordered_mapIS9_T_St4hashIS9_ESt8equal_toIS9_ESaISt4pairISA_SM_EEENS0_15OptionTypeFlagsEEUlS3_SB_SD_SD_SE_E_vEEOSM_ = comdat any

$_ZNSt14_Function_base13_Base_managerIZN7rocksdb14OptionTypeInfo4EnumINS1_15WALRecoveryModeEEES2_iPKSt13unordered_mapINSt7__cxx1112basic_stringIcSt11char_traitsIcESaIcEEET_St4hashISB_ESt8equal_toISB_ESaISt4pairIKSB_SC_EEENS1_15OptionTypeFlagsEEUlRKNS1_13ConfigOptionsERSI_SS_PvE_E21_M_not_empty_functionISU_EEbRKSC_ = comdat any

$_ZNSt14_Function_base13_Base_managerIZN7rocksdb14OptionTypeInfo4EnumINS1_15WALRecoveryModeEEES2_iPKSt13unordered_mapINSt7__cxx1112basic_stringIcSt11char_traitsIcESaIcEEET_St4hashISB_ESt8equal_toISB_ESaISt4pairIKSB_SC_EEENS1_15OptionTypeFlagsEEUlRKNS1_13ConfigOptionsERSI_SS_PvE_E15_M_init_functorISU_EEvRSt9_Any_dataOSC_ = comdat any

$_ZNSt17_Function_handlerIFN7rocksdb6StatusERKNS0_13ConfigOptionsERKNSt7__cxx1112basic_stringIcSt11char_traitsIcESaIcEEESC_PvEZNS0_14OptionTypeInfo4EnumINS0_15WALRecoveryModeEEESF_iPKSt13unordered_mapISA_T_St4hashISA_ESt8equal_toISA_ESaISt4pairISB_SJ_EEENS0_15OptionTypeFlagsEEUlS4_SC_SC_SD_E_E9_M_invokeERKSt9_Any_dataS4_SC_SC_OSD_ = comdat any

$_ZNSt17_Function_handlerIFN7rocksdb6StatusERKNS0_13ConfigOptionsERKNSt7__cxx1112basic_stringIcSt11char_traitsIcESaIcEEESC_PvEZNS0_14OptionTypeInfo4EnumINS0_15WALRecoveryModeEEESF_iPKSt13unordered_mapISA_T_St4hashISA_ESt8equal_toISA_ESaISt4pairISB_SJ_EEENS0_15OptionTypeFlagsEEUlS4_SC_SC_SD_E_E10_M_managerERSt9_Any_dataRKSX_St18_Manager_operation = comdat any

$_ZNSt14_Function_base13_Base_managerIZN7rocksdb14OptionTypeInfo4EnumINS1_15WALRecoveryModeEEES2_iPKSt13unordered_mapINSt7__cxx1112basic_stringIcSt11char_traitsIcESaIcEEET_St4hashISB_ESt8equal_toISB_ESaISt4pairIKSB_SC_EEENS1_15OptionTypeFlagsEEUlRKNS1_13ConfigOptionsERSI_SS_PvE_E9_M_createISU_EEvRSt9_Any_dataOSC_St17integral_constantIbLb1EE = comdat any

$_ZSt10__invoke_rIN7rocksdb6StatusERZNS0_14OptionTypeInfo4EnumINS0_15WALRecoveryModeEEES2_iPKSt13unordered_mapINSt7__cxx1112basic_stringIcSt11char_traitsIcESaIcEEET_St4hashISB_ESt8equal_toISB_ESaISt4pairIKSB_SC_EEENS0_15OptionTypeFlagsEEUlRKNS0_13ConfigOptionsERSI_SS_PvE_JSR_SS_SS_ST_EENSt9enable_ifIX16is_invocable_r_vISC_T0_DpT1_EESC_E4typeEOSX_DpOSY_ = comdat any

$_ZNSt14_Function_base13_Base_managerIZN7rocksdb14OptionTypeInfo4EnumINS1_15WALRecoveryModeEEES2_iPKSt13unordered_mapINSt7__cxx1112basic_stringIcSt11char_traitsIcESaIcEEET_St4hashISB_ESt8equal_toISB_ESaISt4pairIKSB_SC_EEENS1_15OptionTypeFlagsEEUlRKNS1_13ConfigOptionsERSI_SS_PvE_E14_M_get_pointerERKSt9_Any_data = comdat any

$_ZSt13__invoke_implIN7rocksdb6StatusERZNS0_14OptionTypeInfo4EnumINS0_15WALRecoveryModeEEES2_iPKSt13unordered_mapINSt7__cxx1112basic_stringIcSt11char_traitsIcESaIcEEET_St4hashISB_ESt8equal_toISB_ESaISt4pairIKSB_SC_EEENS0_15OptionTypeFlagsEEUlRKNS0_13ConfigOptionsERSI_SS_PvE_JSR_SS_SS_ST_EESC_St14__invoke_otherOT0_DpOT1_ = comdat any

$_ZZN7rocksdb14OptionTypeInfo4EnumINS_15WALRecoveryModeEEES0_iPKSt13unordered_mapINSt7__cxx1112basic_stringIcSt11char_traitsIcESaIcEEET_St4hashIS9_ESt8equal_toIS9_ESaISt4pairIKS9_SA_EEENS_15OptionTypeFlagsEENKUlRKNS_13ConfigOptionsERSG_SQ_PvE_clESP_SQ_SQ_SR_ = comdat any

$_ZN7rocksdb6Status12NotSupportedERKNS_5SliceES3_ = comdat any

$_ZN7rocksdb5SliceC2EPKc = comdat any

$_ZN7rocksdb5SliceC2ERKNSt7__cxx1112basic_stringIcSt11char_traitsIcESaIcEEE = comdat any

$_ZN7rocksdb9ParseEnumINS_15WALRecoveryModeEEEbRKSt13unordered_mapINSt7__cxx1112basic_stringIcSt11char_traitsIcESaIcEEET_St4hashIS8_ESt8equal_toIS8_ESaISt4pairIKS8_S9_EEERSF_PS9_ = comdat any

$_ZN7rocksdb6Status15InvalidArgumentERKNS_5SliceES3_ = comdat any

$_ZN7rocksdb6StatusC2ENS0_4CodeERKNS_5SliceES4_ = comdat any

$_ZNKSt13unordered_mapINSt7__cxx1112basic_stringIcSt11char_traitsIcESaIcEEEN7rocksdb15WALRecoveryModeESt4hashIS5_ESt8equal_toIS5_ESaISt4pairIKS5_S7_EEE4findERSD_ = comdat any

$_ZNKSt13unordered_mapINSt7__cxx1112basic_stringIcSt11char_traitsIcESaIcEEEN7rocksdb15WALRecoveryModeESt4hashIS5_ESt8equal_toIS5_ESaISt4pairIKS5_S7_EEE3endEv = comdat any

$_ZNKSt8__detail20_Node_const_iteratorISt4pairIKNSt7__cxx1112basic_stringIcSt11char_traitsIcESaIcEEEN7rocksdb15WALRecoveryModeEELb0ELb1EEptEv = comdat any

$_ZNKSt10_HashtableINSt7__cxx1112basic_stringIcSt11char_traitsIcESaIcEEESt4pairIKS5_N7rocksdb15WALRecoveryModeEESaISA_ENSt8__detail10_Select1stESt8equal_toIS5_ESt4hashIS5_ENSC_18_Mod_range_hashingENSC_20_Default_ranged_hashENSC_20_Prime_rehash_policyENSC_17_Hashtable_traitsILb1ELb0ELb1EEEE4findERS7_ = comdat any

$_ZNKSt10_HashtableINSt7__cxx1112basic_stringIcSt11char_traitsIcESaIcEEESt4pairIKS5_N7rocksdb15WALRecoveryModeEESaISA_ENSt8__detail10_Select1stESt8equal_toIS5_ESt4hashIS5_ENSC_18_Mod_range_hashingENSC_20_Default_ranged_hashENSC_20_Prime_rehash_policyENSC_17_Hashtable_traitsILb1ELb0ELb1EEEE5beginEv = comdat any

$_ZNKSt10_HashtableINSt7__cxx1112basic_stringIcSt11char_traitsIcESaIcEEESt4pairIKS5_N7rocksdb15WALRecoveryModeEESaISA_ENSt8__detail10_Select1stESt8equal_toIS5_ESt4hashIS5_ENSC_18_Mod_range_hashingENSC_20_Default_ranged_hashENSC_20_Prime_rehash_policyENSC_17_Hashtable_traitsILb1ELb0ELb1EEEE3endEv = comdat any

$_ZNKSt8__detail15_Hashtable_baseINSt7__cxx1112basic_stringIcSt11char_traitsIcESaIcEEESt4pairIKS6_N7rocksdb15WALRecoveryModeEENS_10_Select1stESt8equal_toIS6_ESt4hashIS6_ENS_18_Mod_range_hashingENS_20_Default_ranged_hashENS_17_Hashtable_traitsILb1ELb0ELb1EEEE13_M_key_equalsERS8_RKNS_16_Hash_node_valueISB_Lb1EEE = comdat any

$_ZNSt8__detail20_Node_const_iteratorISt4pairIKNSt7__cxx1112basic_stringIcSt11char_traitsIcESaIcEEEN7rocksdb15WALRecoveryModeEELb0ELb1EEppEv = comdat any

$_ZNKSt8__detail15_Hash_code_baseINSt7__cxx1112basic_stringIcSt11char_traitsIcESaIcEEESt4pairIKS6_N7rocksdb15WALRecoveryModeEENS_10_Select1stESt4hashIS6_ENS_18_Mod_range_hashingENS_20_Default_ranged_hashELb1EE12_M_hash_codeERS8_ = comdat any

$_ZNKSt10_HashtableINSt7__cxx1112basic_stringIcSt11char_traitsIcESaIcEEESt4pairIKS5_N7rocksdb15WALRecoveryModeEESaISA_ENSt8__detail10_Select1stESt8equal_toIS5_ESt4hashIS5_ENSC_18_Mod_range_hashingENSC_20_Default_ranged_hashENSC_20_Prime_rehash_policyENSC_17_Hashtable_traitsILb1ELb0ELb1EEEE12_M_find_nodeEmRS7_m = comdat any

$_ZNSt8__detail20_Node_const_iteratorISt4pairIKNSt7__cxx1112basic_stringIcSt11char_traitsIcESaIcEEEN7rocksdb15WALRecoveryModeEELb0ELb1EEC2EPNS_10_Hash_nodeISB_Lb1EEE = comdat any

$_ZNKSt10_HashtableINSt7__cxx1112basic_stringIcSt11char_traitsIcESaIcEEESt4pairIKS5_N7rocksdb15WALRecoveryModeEESaISA_ENSt8__detail10_Select1stESt8equal_toIS5_ESt4hashIS5_ENSC_18_Mod_range_hashingENSC_20_Default_ranged_hashENSC_20_Prime_rehash_policyENSC_17_Hashtable_traitsILb1ELb0ELb1EEEE19_M_find_before_nodeEmRS7_m = comdat any

$_ZNKSt8__detail15_Hashtable_baseINSt7__cxx1112basic_stringIcSt11char_traitsIcESaIcEEESt4pairIKS6_N7rocksdb15WALRecoveryModeEENS_10_Select1stESt8equal_toIS6_ESt4hashIS6_ENS_18_Mod_range_hashingENS_20_Default_ranged_hashENS_17_Hashtable_traitsILb1ELb0ELb1EEEE9_M_equalsERS8_mRKNS_16_Hash_node_valueISB_Lb1EEE = comdat any

$_ZNKSt9_Any_data9_M_accessIZN7rocksdb14OptionTypeInfo4EnumINS1_15WALRecoveryModeEEES2_iPKSt13unordered_mapINSt7__cxx1112basic_stringIcSt11char_traitsIcESaIcEEET_St4hashISB_ESt8equal_toISB_ESaISt4pairIKSB_SC_EEENS1_15OptionTypeFlagsEEUlRKNS1_13ConfigOptionsERSI_SS_PvE_EERKSC_v = comdat any

$_ZNSt9_Any_data9_M_accessIPZN7rocksdb14OptionTypeInfo4EnumINS1_15WALRecoveryModeEEES2_iPKSt13unordered_mapINSt7__cxx1112basic_stringIcSt11char_traitsIcESaIcEEET_St4hashISB_ESt8equal_toISB_ESaISt4pairIKSB_SC_EEENS1_15OptionTypeFlagsEEUlRKNS1_13ConfigOptionsERSI_SS_PvE_EERSC_v = comdat any

$_ZNSt14_Function_base13_Base_managerIZN7rocksdb14OptionTypeInfo4EnumINS1_15WALRecoveryModeEEES2_iPKSt13unordered_mapINSt7__cxx1112basic_stringIcSt11char_traitsIcESaIcEEET_St4hashISB_ESt8equal_toISB_ESaISt4pairIKSB_SC_EEENS1_15OptionTypeFlagsEEUlRKNS1_13ConfigOptionsERSI_SS_PvE_E10_M_managerERSt9_Any_dataRKSW_St18_Manager_operation = comdat any

$_ZNSt14_Function_base13_Base_managerIZN7rocksdb14OptionTypeInfo4EnumINS1_15WALRecoveryModeEEES2_iPKSt13unordered_mapINSt7__cxx1112basic_stringIcSt11char_traitsIcESaIcEEET_St4hashISB_ESt8equal_toISB_ESaISt4pairIKSB_SC_EEENS1_15OptionTypeFlagsEEUlRKNS1_13ConfigOptionsERSI_SS_PvE_E15_M_init_functorIRKSU_EEvRSt9_Any_dataOSC_ = comdat any

$_ZNSt14_Function_base13_Base_managerIZN7rocksdb14OptionTypeInfo4EnumINS1_15WALRecoveryModeEEES2_iPKSt13unordered_mapINSt7__cxx1112basic_stringIcSt11char_traitsIcESaIcEEET_St4hashISB_ESt8equal_toISB_ESaISt4pairIKSB_SC_EEENS1_15OptionTypeFlagsEEUlRKNS1_13ConfigOptionsERSI_SS_PvE_E10_M_destroyERSt9_Any_dataSt17integral_constantIbLb1EE = comdat any

$_ZNSt14_Function_base13_Base_managerIZN7rocksdb14OptionTypeInfo4EnumINS1_15WALRecoveryModeEEES2_iPKSt13unordered_mapINSt7__cxx1112basic_stringIcSt11char_traitsIcESaIcEEET_St4hashISB_ESt8equal_toISB_ESaISt4pairIKSB_SC_EEENS1_15OptionTypeFlagsEEUlRKNS1_13ConfigOptionsERSI_SS_PvE_E9_M_createIRKSU_EEvRSt9_Any_dataOSC_St17integral_constantIbLb1EE = comdat any

$_ZNSt9_Any_data9_M_accessIZN7rocksdb14OptionTypeInfo4EnumINS1_15WALRecoveryModeEEES2_iPKSt13unordered_mapINSt7__cxx1112basic_stringIcSt11char_traitsIcESaIcEEET_St4hashISB_ESt8equal_toISB_ESaISt4pairIKSB_SC_EEENS1_15OptionTypeFlagsEEUlRKNS1_13ConfigOptionsERSI_SS_PvE_EERSC_v = comdat any

$_ZNSt8functionIFN7rocksdb6StatusERKNS0_13ConfigOptionsERKNSt7__cxx1112basic_stringIcSt11char_traitsIcESaIcEEEPKvPSA_EEaSERKSH_ = comdat any

$_ZNSt8functionIFN7rocksdb6StatusERKNS0_13ConfigOptionsERKNSt7__cxx1112basic_stringIcSt11char_traitsIcESaIcEEEPKvPSA_EE4swapERSH_ = comdat any

$_ZSt4swapIPFN7rocksdb6StatusERKSt9_Any_dataRKNS0_13ConfigOptionsERKNSt7__cxx1112basic_stringIcSt11char_traitsIcESaIcEEEOPKvOPSD_EENSt9enable_ifIXsr6__and_ISt6__not_ISt15__is_tuple_likeIT_EESt21is_move_constructibleISQ_ESt18is_move_assignableISQ_EEE5valueEvE4typeERSQ_SZ_ = comdat any

$_ZNSt14_Function_base13_Base_managerIZN7rocksdb14OptionTypeInfo4EnumINS1_15WALRecoveryModeEEES2_iPKSt13unordered_mapINSt7__cxx1112basic_stringIcSt11char_traitsIcESaIcEEET_St4hashISB_ESt8equal_toISB_ESaISt4pairIKSB_SC_EEENS1_15OptionTypeFlagsEEUlRKNS1_13ConfigOptionsERSI_PKvPSB_E_E21_M_not_empty_functionISW_EEbRKSC_ = comdat any

$_ZNSt14_Function_base13_Base_managerIZN7rocksdb14OptionTypeInfo4EnumINS1_15WALRecoveryModeEEES2_iPKSt13unordered_mapINSt7__cxx1112basic_stringIcSt11char_traitsIcESaIcEEET_St4hashISB_ESt8equal_toISB_ESaISt4pairIKSB_SC_EEENS1_15OptionTypeFlagsEEUlRKNS1_13ConfigOptionsERSI_PKvPSB_E_E15_M_init_functorISW_EEvRSt9_Any_dataOSC_ = comdat any

$_ZNSt17_Function_handlerIFN7rocksdb6StatusERKNS0_13ConfigOptionsERKNSt7__cxx1112basic_stringIcSt11char_traitsIcESaIcEEEPKvPSA_EZNS0_14OptionTypeInfo4EnumINS0_15WALRecoveryModeEEESH_iPKSt13unordered_mapISA_T_St4hashISA_ESt8equal_toISA_ESaISt4pairISB_SL_EEENS0_15OptionTypeFlagsEEUlS4_SC_SE_SF_E_E9_M_invokeERKSt9_Any_dataS4_SC_OSE_OSF_ = comdat any

$_ZNSt17_Function_handlerIFN7rocksdb6StatusERKNS0_13ConfigOptionsERKNSt7__cxx1112basic_stringIcSt11char_traitsIcESaIcEEEPKvPSA_EZNS0_14OptionTypeInfo4EnumINS0_15WALRecoveryModeEEESH_iPKSt13unordered_mapISA_T_St4hashISA_ESt8equal_toISA_ESaISt4pairISB_SL_EEENS0_15OptionTypeFlagsEEUlS4_SC_SE_SF_E_E10_M_managerERSt9_Any_dataRKSZ_St18_Manager_operation = comdat any

$_ZNSt14_Function_base13_Base_managerIZN7rocksdb14OptionTypeInfo4EnumINS1_15WALRecoveryModeEEES2_iPKSt13unordered_mapINSt7__cxx1112basic_stringIcSt11char_traitsIcESaIcEEET_St4hashISB_ESt8equal_toISB_ESaISt4pairIKSB_SC_EEENS1_15OptionTypeFlagsEEUlRKNS1_13ConfigOptionsERSI_PKvPSB_E_E9_M_createISW_EEvRSt9_Any_dataOSC_St17integral_constantIbLb1EE = comdat any

$_ZSt10__invoke_rIN7rocksdb6StatusERZNS0_14OptionTypeInfo4EnumINS0_15WALRecoveryModeEEES2_iPKSt13unordered_mapINSt7__cxx1112basic_stringIcSt11char_traitsIcESaIcEEET_St4hashISB_ESt8equal_toISB_ESaISt4pairIKSB_SC_EEENS0_15OptionTypeFlagsEEUlRKNS0_13ConfigOptionsERSI_PKvPSB_E_JSR_SS_SU_SV_EENSt9enable_ifIX16is_invocable_r_vISC_T0_DpT1_EESC_E4typeEOSZ_DpOS10_ = comdat any

$_ZNSt14_Function_base13_Base_managerIZN7rocksdb14OptionTypeInfo4EnumINS1_15WALRecoveryModeEEES2_iPKSt13unordered_mapINSt7__cxx1112basic_stringIcSt11char_traitsIcESaIcEEET_St4hashISB_ESt8equal_toISB_ESaISt4pairIKSB_SC_EEENS1_15OptionTypeFlagsEEUlRKNS1_13ConfigOptionsERSI_PKvPSB_E_E14_M_get_pointerERKSt9_Any_data = comdat any

$_ZSt13__invoke_implIN7rocksdb6StatusERZNS0_14OptionTypeInfo4EnumINS0_15WALRecoveryModeEEES2_iPKSt13unordered_mapINSt7__cxx1112basic_stringIcSt11char_traitsIcESaIcEEET_St4hashISB_ESt8equal_toISB_ESaISt4pairIKSB_SC_EEENS0_15OptionTypeFlagsEEUlRKNS0_13ConfigOptionsERSI_PKvPSB_E_JSR_SS_SU_SV_EESC_St14__invoke_otherOT0_DpOT1_ = comdat any

$_ZZN7rocksdb14OptionTypeInfo4EnumINS_15WALRecoveryModeEEES0_iPKSt13unordered_mapINSt7__cxx1112basic_stringIcSt11char_traitsIcESaIcEEET_St4hashIS9_ESt8equal_toIS9_ESaISt4pairIKS9_SA_EEENS_15OptionTypeFlagsEENKUlRKNS_13ConfigOptionsERSG_PKvPS9_E_clESP_SQ_SS_ST_ = comdat any

$_ZN7rocksdb13SerializeEnumINS_15WALRecoveryModeEEEbRKSt13unordered_mapINSt7__cxx1112basic_stringIcSt11char_traitsIcESaIcEEET_St4hashIS8_ESt8equal_toIS8_ESaISt4pairIKS8_S9_EEERKS9_PS8_ = comdat any

$_ZNKSt13unordered_mapINSt7__cxx1112basic_stringIcSt11char_traitsIcESaIcEEEN7rocksdb15WALRecoveryModeESt4hashIS5_ESt8equal_toIS5_ESaISt4pairIKS5_S7_EEE5beginEv = comdat any

$_ZNKSt8__detail20_Node_const_iteratorISt4pairIKNSt7__cxx1112basic_stringIcSt11char_traitsIcESaIcEEEN7rocksdb15WALRecoveryModeEELb0ELb1EEdeEv = comdat any

$_ZNSt8__detail21_Hash_node_value_baseISt4pairIKNSt7__cxx1112basic_stringIcSt11char_traitsIcESaIcEEEN7rocksdb15WALRecoveryModeEEE4_M_vEv = comdat any

$_ZNKSt9_Any_data9_M_accessIZN7rocksdb14OptionTypeInfo4EnumINS1_15WALRecoveryModeEEES2_iPKSt13unordered_mapINSt7__cxx1112basic_stringIcSt11char_traitsIcESaIcEEET_St4hashISB_ESt8equal_toISB_ESaISt4pairIKSB_SC_EEENS1_15OptionTypeFlagsEEUlRKNS1_13ConfigOptionsERSI_PKvPSB_E_EERKSC_v = comdat any

$_ZNSt9_Any_data9_M_accessIPZN7rocksdb14OptionTypeInfo4EnumINS1_15WALRecoveryModeEEES2_iPKSt13unordered_mapINSt7__cxx1112basic_stringIcSt11char_traitsIcESaIcEEET_St4hashISB_ESt8equal_toISB_ESaISt4pairIKSB_SC_EEENS1_15OptionTypeFlagsEEUlRKNS1_13ConfigOptionsERSI_PKvPSB_E_EERSC_v = comdat any

$_ZNSt14_Function_base13_Base_managerIZN7rocksdb14OptionTypeInfo4EnumINS1_15WALRecoveryModeEEES2_iPKSt13unordered_mapINSt7__cxx1112basic_stringIcSt11char_traitsIcESaIcEEET_St4hashISB_ESt8equal_toISB_ESaISt4pairIKSB_SC_EEENS1_15OptionTypeFlagsEEUlRKNS1_13ConfigOptionsERSI_PKvPSB_E_E10_M_managerERSt9_Any_dataRKSY_St18_Manager_operation = comdat any

$_ZNSt14_Function_base13_Base_managerIZN7rocksdb14OptionTypeInfo4EnumINS1_15WALRecoveryModeEEES2_iPKSt13unordered_mapINSt7__cxx1112basic_stringIcSt11char_traitsIcESaIcEEET_St4hashISB_ESt8equal_toISB_ESaISt4pairIKSB_SC_EEENS1_15OptionTypeFlagsEEUlRKNS1_13ConfigOptionsERSI_PKvPSB_E_E15_M_init_functorIRKSW_EEvRSt9_Any_dataOSC_ = comdat any

$_ZNSt14_Function_base13_Base_managerIZN7rocksdb14OptionTypeInfo4EnumINS1_15WALRecoveryModeEEES2_iPKSt13unordered_mapINSt7__cxx1112basic_stringIcSt11char_traitsIcESaIcEEET_St4hashISB_ESt8equal_toISB_ESaISt4pairIKSB_SC_EEENS1_15OptionTypeFlagsEEUlRKNS1_13ConfigOptionsERSI_PKvPSB_E_E10_M_destroyERSt9_Any_dataSt17integral_constantIbLb1EE = comdat any

$_ZNSt14_Function_base13_Base_managerIZN7rocksdb14OptionTypeInfo4EnumINS1_15WALRecoveryModeEEES2_iPKSt13unordered_mapINSt7__cxx1112basic_stringIcSt11char_traitsIcESaIcEEET_St4hashISB_ESt8equal_toISB_ESaISt4pairIKSB_SC_EEENS1_15OptionTypeFlagsEEUlRKNS1_13ConfigOptionsERSI_PKvPSB_E_E9_M_createIRKSW_EEvRSt9_Any_dataOSC_St17integral_constantIbLb1EE = comdat any

$_ZNSt9_Any_data9_M_accessIZN7rocksdb14OptionTypeInfo4EnumINS1_15WALRecoveryModeEEES2_iPKSt13unordered_mapINSt7__cxx1112basic_stringIcSt11char_traitsIcESaIcEEET_St4hashISB_ESt8equal_toISB_ESaISt4pairIKSB_SC_EEENS1_15OptionTypeFlagsEEUlRKNS1_13ConfigOptionsERSI_PKvPSB_E_EERSC_v = comdat any

$_ZNSt8functionIFbRKN7rocksdb13ConfigOptionsERKNSt7__cxx1112basic_stringIcSt11char_traitsIcESaIcEEEPKvSD_PS9_EEaSERKSG_ = comdat any

$_ZNSt8functionIFbRKN7rocksdb13ConfigOptionsERKNSt7__cxx1112basic_stringIcSt11char_traitsIcESaIcEEEPKvSD_PS9_EE4swapERSG_ = comdat any

$_ZSt4swapIPFbRKSt9_Any_dataRKN7rocksdb13ConfigOptionsERKNSt7__cxx1112basic_stringIcSt11char_traitsIcESaIcEEEOPKvSH_OPSC_EENSt9enable_ifIXsr6__and_ISt6__not_ISt15__is_tuple_likeIT_EESt21is_move_constructibleISP_ESt18is_move_assignableISP_EEE5valueEvE4typeERSP_SY_ = comdat any

$_ZNSt14_Function_base13_Base_managerIZN7rocksdb14OptionTypeInfo4EnumINS1_15WALRecoveryModeEEES2_iPKSt13unordered_mapINSt7__cxx1112basic_stringIcSt11char_traitsIcESaIcEEET_St4hashISB_ESt8equal_toISB_ESaISt4pairIKSB_SC_EEENS1_15OptionTypeFlagsEEUlRKNS1_13ConfigOptionsERSI_PKvSU_PSB_E_E21_M_not_empty_functionISW_EEbRKSC_ = comdat any

$_ZNSt14_Function_base13_Base_managerIZN7rocksdb14OptionTypeInfo4EnumINS1_15WALRecoveryModeEEES2_iPKSt13unordered_mapINSt7__cxx1112basic_stringIcSt11char_traitsIcESaIcEEET_St4hashISB_ESt8equal_toISB_ESaISt4pairIKSB_SC_EEENS1_15OptionTypeFlagsEEUlRKNS1_13ConfigOptionsERSI_PKvSU_PSB_E_E15_M_init_functorISW_EEvRSt9_Any_dataOSC_ = comdat any

$_ZNSt17_Function_handlerIFbRKN7rocksdb13ConfigOptionsERKNSt7__cxx1112basic_stringIcSt11char_traitsIcESaIcEEEPKvSD_PS9_EZNS0_14OptionTypeInfo4EnumINS0_15WALRecoveryModeEEESG_iPKSt13unordered_mapIS9_T_St4hashIS9_ESt8equal_toIS9_ESaISt4pairISA_SK_EEENS0_15OptionTypeFlagsEEUlS3_SB_SD_SD_SE_E_E9_M_invokeERKSt9_Any_dataS3_SB_OSD_S11_OSE_ = comdat any

$_ZNSt17_Function_handlerIFbRKN7rocksdb13ConfigOptionsERKNSt7__cxx1112basic_stringIcSt11char_traitsIcESaIcEEEPKvSD_PS9_EZNS0_14OptionTypeInfo4EnumINS0_15WALRecoveryModeEEESG_iPKSt13unordered_mapIS9_T_St4hashIS9_ESt8equal_toIS9_ESaISt4pairISA_SK_EEENS0_15OptionTypeFlagsEEUlS3_SB_SD_SD_SE_E_E10_M_managerERSt9_Any_dataRKSY_St18_Manager_operation = comdat any

$_ZNSt14_Function_base13_Base_managerIZN7rocksdb14OptionTypeInfo4EnumINS1_15WALRecoveryModeEEES2_iPKSt13unordered_mapINSt7__cxx1112basic_stringIcSt11char_traitsIcESaIcEEET_St4hashISB_ESt8equal_toISB_ESaISt4pairIKSB_SC_EEENS1_15OptionTypeFlagsEEUlRKNS1_13ConfigOptionsERSI_PKvSU_PSB_E_E9_M_createISW_EEvRSt9_Any_dataOSC_St17integral_constantIbLb1EE = comdat any

$_ZSt10__invoke_rIbRZN7rocksdb14OptionTypeInfo4EnumINS0_15WALRecoveryModeEEES1_iPKSt13unordered_mapINSt7__cxx1112basic_stringIcSt11char_traitsIcESaIcEEET_St4hashISA_ESt8equal_toISA_ESaISt4pairIKSA_SB_EEENS0_15OptionTypeFlagsEEUlRKNS0_13ConfigOptionsERSH_PKvST_PSA_E_JSQ_SR_ST_ST_SU_EENSt9enable_ifIX16is_invocable_r_vISB_T0_DpT1_EESB_E4typeEOSY_DpOSZ_ = comdat any

$_ZNSt14_Function_base13_Base_managerIZN7rocksdb14OptionTypeInfo4EnumINS1_15WALRecoveryModeEEES2_iPKSt13unordered_mapINSt7__cxx1112basic_stringIcSt11char_traitsIcESaIcEEET_St4hashISB_ESt8equal_toISB_ESaISt4pairIKSB_SC_EEENS1_15OptionTypeFlagsEEUlRKNS1_13ConfigOptionsERSI_PKvSU_PSB_E_E14_M_get_pointerERKSt9_Any_data = comdat any

$_ZSt13__invoke_implIbRZN7rocksdb14OptionTypeInfo4EnumINS0_15WALRecoveryModeEEES1_iPKSt13unordered_mapINSt7__cxx1112basic_stringIcSt11char_traitsIcESaIcEEET_St4hashISA_ESt8equal_toISA_ESaISt4pairIKSA_SB_EEENS0_15OptionTypeFlagsEEUlRKNS0_13ConfigOptionsERSH_PKvST_PSA_E_JSQ_SR_ST_ST_SU_EESB_St14__invoke_otherOT0_DpOT1_ = comdat any

$_ZZN7rocksdb14OptionTypeInfo4EnumINS_15WALRecoveryModeEEES0_iPKSt13unordered_mapINSt7__cxx1112basic_stringIcSt11char_traitsIcESaIcEEET_St4hashIS9_ESt8equal_toIS9_ESaISt4pairIKS9_SA_EEENS_15OptionTypeFlagsEENKUlRKNS_13ConfigOptionsERSG_PKvSS_PS9_E_clESP_SQ_SS_SS_ST_ = comdat any

$_ZNKSt9_Any_data9_M_accessIZN7rocksdb14OptionTypeInfo4EnumINS1_15WALRecoveryModeEEES2_iPKSt13unordered_mapINSt7__cxx1112basic_stringIcSt11char_traitsIcESaIcEEET_St4hashISB_ESt8equal_toISB_ESaISt4pairIKSB_SC_EEENS1_15OptionTypeFlagsEEUlRKNS1_13ConfigOptionsERSI_PKvSU_PSB_E_EERKSC_v = comdat any

$_ZNSt9_Any_data9_M_accessIPZN7rocksdb14OptionTypeInfo4EnumINS1_15WALRecoveryModeEEES2_iPKSt13unordered_mapINSt7__cxx1112basic_stringIcSt11char_traitsIcESaIcEEET_St4hashISB_ESt8equal_toISB_ESaISt4pairIKSB_SC_EEENS1_15OptionTypeFlagsEEUlRKNS1_13ConfigOptionsERSI_PKvSU_PSB_E_EERSC_v = comdat any

$_ZNSt14_Function_base13_Base_managerIZN7rocksdb14OptionTypeInfo4EnumINS1_15WALRecoveryModeEEES2_iPKSt13unordered_mapINSt7__cxx1112basic_stringIcSt11char_traitsIcESaIcEEET_St4hashISB_ESt8equal_toISB_ESaISt4pairIKSB_SC_EEENS1_15OptionTypeFlagsEEUlRKNS1_13ConfigOptionsERSI_PKvSU_PSB_E_E10_M_managerERSt9_Any_dataRKSY_St18_Manager_operation = comdat any

$_ZNSt14_Function_base13_Base_managerIZN7rocksdb14OptionTypeInfo4EnumINS1_15WALRecoveryModeEEES2_iPKSt13unordered_mapINSt7__cxx1112basic_stringIcSt11char_traitsIcESaIcEEET_St4hashISB_ESt8equal_toISB_ESaISt4pairIKSB_SC_EEENS1_15OptionTypeFlagsEEUlRKNS1_13ConfigOptionsERSI_PKvSU_PSB_E_E15_M_init_functorIRKSW_EEvRSt9_Any_dataOSC_ = comdat any

$_ZNSt14_Function_base13_Base_managerIZN7rocksdb14OptionTypeInfo4EnumINS1_15WALRecoveryModeEEES2_iPKSt13unordered_mapINSt7__cxx1112basic_stringIcSt11char_traitsIcESaIcEEET_St4hashISB_ESt8equal_toISB_ESaISt4pairIKSB_SC_EEENS1_15OptionTypeFlagsEEUlRKNS1_13ConfigOptionsERSI_PKvSU_PSB_E_E10_M_destroyERSt9_Any_dataSt17integral_constantIbLb1EE = comdat any

$_ZNSt14_Function_base13_Base_managerIZN7rocksdb14OptionTypeInfo4EnumINS1_15WALRecoveryModeEEES2_iPKSt13unordered_mapINSt7__cxx1112basic_stringIcSt11char_traitsIcESaIcEEET_St4hashISB_ESt8equal_toISB_ESaISt4pairIKSB_SC_EEENS1_15OptionTypeFlagsEEUlRKNS1_13ConfigOptionsERSI_PKvSU_PSB_E_E9_M_createIRKSW_EEvRSt9_Any_dataOSC_St17integral_constantIbLb1EE = comdat any

$_ZNSt9_Any_data9_M_accessIZN7rocksdb14OptionTypeInfo4EnumINS1_15WALRecoveryModeEEES2_iPKSt13unordered_mapINSt7__cxx1112basic_stringIcSt11char_traitsIcESaIcEEET_St4hashISB_ESt8equal_toISB_ESaISt4pairIKSB_SC_EEENS1_15OptionTypeFlagsEEUlRKNS1_13ConfigOptionsERSI_PKvSU_PSB_E_EERSC_v = comdat any

$_ZNSt8functionIFN7rocksdb6StatusERKNS0_13ConfigOptionsERKNSt7__cxx1112basic_stringIcSt11char_traitsIcESaIcEEESC_PvEEC2IZNS0_14OptionTypeInfo4EnumINS0_9DBOptions10AccessHintEEESH_iPKSt13unordered_mapISA_T_St4hashISA_ESt8equal_toISA_ESaISt4pairISB_SM_EEENS0_15OptionTypeFlagsEEUlS4_SC_SC_SD_E_vEEOSM_ = comdat any

$_ZNSt8functionIFN7rocksdb6StatusERKNS0_13ConfigOptionsERKNSt7__cxx1112basic_stringIcSt11char_traitsIcESaIcEEEPKvPSA_EEC2IZNS0_14OptionTypeInfo4EnumINS0_9DBOptions10AccessHintEEESJ_iPKSt13unordered_mapISA_T_St4hashISA_ESt8equal_toISA_ESaISt4pairISB_SO_EEENS0_15OptionTypeFlagsEEUlS4_SC_SE_SF_E_vEEOSO_ = comdat any

$_ZNSt8functionIFbRKN7rocksdb13ConfigOptionsERKNSt7__cxx1112basic_stringIcSt11char_traitsIcESaIcEEEPKvSD_PS9_EEC2IZNS0_14OptionTypeInfo4EnumINS0_9DBOptions10AccessHintEEESI_iPKSt13unordered_mapIS9_T_St4hashIS9_ESt8equal_toIS9_ESaISt4pairISA_SN_EEENS0_15OptionTypeFlagsEEUlS3_SB_SD_SD_SE_E_vEEOSN_ = comdat any

$_ZNSt14_Function_base13_Base_managerIZN7rocksdb14OptionTypeInfo4EnumINS1_9DBOptions10AccessHintEEES2_iPKSt13unordered_mapINSt7__cxx1112basic_stringIcSt11char_traitsIcESaIcEEET_St4hashISC_ESt8equal_toISC_ESaISt4pairIKSC_SD_EEENS1_15OptionTypeFlagsEEUlRKNS1_13ConfigOptionsERSJ_ST_PvE_E21_M_not_empty_functionISV_EEbRKSD_ = comdat any

$_ZNSt14_Function_base13_Base_managerIZN7rocksdb14OptionTypeInfo4EnumINS1_9DBOptions10AccessHintEEES2_iPKSt13unordered_mapINSt7__cxx1112basic_stringIcSt11char_traitsIcESaIcEEET_St4hashISC_ESt8equal_toISC_ESaISt4pairIKSC_SD_EEENS1_15OptionTypeFlagsEEUlRKNS1_13ConfigOptionsERSJ_ST_PvE_E15_M_init_functorISV_EEvRSt9_Any_dataOSD_ = comdat any

$_ZNSt17_Function_handlerIFN7rocksdb6StatusERKNS0_13ConfigOptionsERKNSt7__cxx1112basic_stringIcSt11char_traitsIcESaIcEEESC_PvEZNS0_14OptionTypeInfo4EnumINS0_9DBOptions10AccessHintEEESF_iPKSt13unordered_mapISA_T_St4hashISA_ESt8equal_toISA_ESaISt4pairISB_SK_EEENS0_15OptionTypeFlagsEEUlS4_SC_SC_SD_E_E9_M_invokeERKSt9_Any_dataS4_SC_SC_OSD_ = comdat any

$_ZNSt17_Function_handlerIFN7rocksdb6StatusERKNS0_13ConfigOptionsERKNSt7__cxx1112basic_stringIcSt11char_traitsIcESaIcEEESC_PvEZNS0_14OptionTypeInfo4EnumINS0_9DBOptions10AccessHintEEESF_iPKSt13unordered_mapISA_T_St4hashISA_ESt8equal_toISA_ESaISt4pairISB_SK_EEENS0_15OptionTypeFlagsEEUlS4_SC_SC_SD_E_E10_M_managerERSt9_Any_dataRKSY_St18_Manager_operation = comdat any

$_ZNSt14_Function_base13_Base_managerIZN7rocksdb14OptionTypeInfo4EnumINS1_9DBOptions10AccessHintEEES2_iPKSt13unordered_mapINSt7__cxx1112basic_stringIcSt11char_traitsIcESaIcEEET_St4hashISC_ESt8equal_toISC_ESaISt4pairIKSC_SD_EEENS1_15OptionTypeFlagsEEUlRKNS1_13ConfigOptionsERSJ_ST_PvE_E9_M_createISV_EEvRSt9_Any_dataOSD_St17integral_constantIbLb1EE = comdat any

$_ZSt10__invoke_rIN7rocksdb6StatusERZNS0_14OptionTypeInfo4EnumINS0_9DBOptions10AccessHintEEES2_iPKSt13unordered_mapINSt7__cxx1112basic_stringIcSt11char_traitsIcESaIcEEET_St4hashISC_ESt8equal_toISC_ESaISt4pairIKSC_SD_EEENS0_15OptionTypeFlagsEEUlRKNS0_13ConfigOptionsERSJ_ST_PvE_JSS_ST_ST_SU_EENSt9enable_ifIX16is_invocable_r_vISD_T0_DpT1_EESD_E4typeEOSY_DpOSZ_ = comdat any

$_ZNSt14_Function_base13_Base_managerIZN7rocksdb14OptionTypeInfo4EnumINS1_9DBOptions10AccessHintEEES2_iPKSt13unordered_mapINSt7__cxx1112basic_stringIcSt11char_traitsIcESaIcEEET_St4hashISC_ESt8equal_toISC_ESaISt4pairIKSC_SD_EEENS1_15OptionTypeFlagsEEUlRKNS1_13ConfigOptionsERSJ_ST_PvE_E14_M_get_pointerERKSt9_Any_data = comdat any

$_ZSt13__invoke_implIN7rocksdb6StatusERZNS0_14OptionTypeInfo4EnumINS0_9DBOptions10AccessHintEEES2_iPKSt13unordered_mapINSt7__cxx1112basic_stringIcSt11char_traitsIcESaIcEEET_St4hashISC_ESt8equal_toISC_ESaISt4pairIKSC_SD_EEENS0_15OptionTypeFlagsEEUlRKNS0_13ConfigOptionsERSJ_ST_PvE_JSS_ST_ST_SU_EESD_St14__invoke_otherOT0_DpOT1_ = comdat any

$_ZZN7rocksdb14OptionTypeInfo4EnumINS_9DBOptions10AccessHintEEES0_iPKSt13unordered_mapINSt7__cxx1112basic_stringIcSt11char_traitsIcESaIcEEET_St4hashISA_ESt8equal_toISA_ESaISt4pairIKSA_SB_EEENS_15OptionTypeFlagsEENKUlRKNS_13ConfigOptionsERSH_SR_PvE_clESQ_SR_SR_SS_ = comdat any

$_ZN7rocksdb9ParseEnumINS_9DBOptions10AccessHintEEEbRKSt13unordered_mapINSt7__cxx1112basic_stringIcSt11char_traitsIcESaIcEEET_St4hashIS9_ESt8equal_toIS9_ESaISt4pairIKS9_SA_EEERSG_PSA_ = comdat any

$_ZNKSt13unordered_mapINSt7__cxx1112basic_stringIcSt11char_traitsIcESaIcEEEN7rocksdb9DBOptions10AccessHintESt4hashIS5_ESt8equal_toIS5_ESaISt4pairIKS5_S8_EEE4findERSE_ = comdat any

$_ZNKSt13unordered_mapINSt7__cxx1112basic_stringIcSt11char_traitsIcESaIcEEEN7rocksdb9DBOptions10AccessHintESt4hashIS5_ESt8equal_toIS5_ESaISt4pairIKS5_S8_EEE3endEv = comdat any

$_ZNKSt8__detail20_Node_const_iteratorISt4pairIKNSt7__cxx1112basic_stringIcSt11char_traitsIcESaIcEEEN7rocksdb9DBOptions10AccessHintEELb0ELb1EEptEv = comdat any

$_ZNKSt10_HashtableINSt7__cxx1112basic_stringIcSt11char_traitsIcESaIcEEESt4pairIKS5_N7rocksdb9DBOptions10AccessHintEESaISB_ENSt8__detail10_Select1stESt8equal_toIS5_ESt4hashIS5_ENSD_18_Mod_range_hashingENSD_20_Default_ranged_hashENSD_20_Prime_rehash_policyENSD_17_Hashtable_traitsILb1ELb0ELb1EEEE4findERS7_ = comdat any

$_ZNKSt10_HashtableINSt7__cxx1112basic_stringIcSt11char_traitsIcESaIcEEESt4pairIKS5_N7rocksdb9DBOptions10AccessHintEESaISB_ENSt8__detail10_Select1stESt8equal_toIS5_ESt4hashIS5_ENSD_18_Mod_range_hashingENSD_20_Default_ranged_hashENSD_20_Prime_rehash_policyENSD_17_Hashtable_traitsILb1ELb0ELb1EEEE5beginEv = comdat any

$_ZNKSt10_HashtableINSt7__cxx1112basic_stringIcSt11char_traitsIcESaIcEEESt4pairIKS5_N7rocksdb9DBOptions10AccessHintEESaISB_ENSt8__detail10_Select1stESt8equal_toIS5_ESt4hashIS5_ENSD_18_Mod_range_hashingENSD_20_Default_ranged_hashENSD_20_Prime_rehash_policyENSD_17_Hashtable_traitsILb1ELb0ELb1EEEE3endEv = comdat any

$_ZNKSt8__detail15_Hashtable_baseINSt7__cxx1112basic_stringIcSt11char_traitsIcESaIcEEESt4pairIKS6_N7rocksdb9DBOptions10AccessHintEENS_10_Select1stESt8equal_toIS6_ESt4hashIS6_ENS_18_Mod_range_hashingENS_20_Default_ranged_hashENS_17_Hashtable_traitsILb1ELb0ELb1EEEE13_M_key_equalsERS8_RKNS_16_Hash_node_valueISC_Lb1EEE = comdat any

$_ZNSt8__detail20_Node_const_iteratorISt4pairIKNSt7__cxx1112basic_stringIcSt11char_traitsIcESaIcEEEN7rocksdb9DBOptions10AccessHintEELb0ELb1EEppEv = comdat any

$_ZNKSt8__detail15_Hash_code_baseINSt7__cxx1112basic_stringIcSt11char_traitsIcESaIcEEESt4pairIKS6_N7rocksdb9DBOptions10AccessHintEENS_10_Select1stESt4hashIS6_ENS_18_Mod_range_hashingENS_20_Default_ranged_hashELb1EE12_M_hash_codeERS8_ = comdat any

$_ZNKSt10_HashtableINSt7__cxx1112basic_stringIcSt11char_traitsIcESaIcEEESt4pairIKS5_N7rocksdb9DBOptions10AccessHintEESaISB_ENSt8__detail10_Select1stESt8equal_toIS5_ESt4hashIS5_ENSD_18_Mod_range_hashingENSD_20_Default_ranged_hashENSD_20_Prime_rehash_policyENSD_17_Hashtable_traitsILb1ELb0ELb1EEEE12_M_find_nodeEmRS7_m = comdat any

$_ZNSt8__detail20_Node_const_iteratorISt4pairIKNSt7__cxx1112basic_stringIcSt11char_traitsIcESaIcEEEN7rocksdb9DBOptions10AccessHintEELb0ELb1EEC2EPNS_10_Hash_nodeISC_Lb1EEE = comdat any

$_ZNKSt10_HashtableINSt7__cxx1112basic_stringIcSt11char_traitsIcESaIcEEESt4pairIKS5_N7rocksdb9DBOptions10AccessHintEESaISB_ENSt8__detail10_Select1stESt8equal_toIS5_ESt4hashIS5_ENSD_18_Mod_range_hashingENSD_20_Default_ranged_hashENSD_20_Prime_rehash_policyENSD_17_Hashtable_traitsILb1ELb0ELb1EEEE19_M_find_before_nodeEmRS7_m = comdat any

$_ZNKSt8__detail15_Hashtable_baseINSt7__cxx1112basic_stringIcSt11char_traitsIcESaIcEEESt4pairIKS6_N7rocksdb9DBOptions10AccessHintEENS_10_Select1stESt8equal_toIS6_ESt4hashIS6_ENS_18_Mod_range_hashingENS_20_Default_ranged_hashENS_17_Hashtable_traitsILb1ELb0ELb1EEEE9_M_equalsERS8_mRKNS_16_Hash_node_valueISC_Lb1EEE = comdat any

$_ZNKSt9_Any_data9_M_accessIZN7rocksdb14OptionTypeInfo4EnumINS1_9DBOptions10AccessHintEEES2_iPKSt13unordered_mapINSt7__cxx1112basic_stringIcSt11char_traitsIcESaIcEEET_St4hashISC_ESt8equal_toISC_ESaISt4pairIKSC_SD_EEENS1_15OptionTypeFlagsEEUlRKNS1_13ConfigOptionsERSJ_ST_PvE_EERKSD_v = comdat any

$_ZNSt9_Any_data9_M_accessIPZN7rocksdb14OptionTypeInfo4EnumINS1_9DBOptions10AccessHintEEES2_iPKSt13unordered_mapINSt7__cxx1112basic_stringIcSt11char_traitsIcESaIcEEET_St4hashISC_ESt8equal_toISC_ESaISt4pairIKSC_SD_EEENS1_15OptionTypeFlagsEEUlRKNS1_13ConfigOptionsERSJ_ST_PvE_EERSD_v = comdat any

$_ZNSt14_Function_base13_Base_managerIZN7rocksdb14OptionTypeInfo4EnumINS1_9DBOptions10AccessHintEEES2_iPKSt13unordered_mapINSt7__cxx1112basic_stringIcSt11char_traitsIcESaIcEEET_St4hashISC_ESt8equal_toISC_ESaISt4pairIKSC_SD_EEENS1_15OptionTypeFlagsEEUlRKNS1_13ConfigOptionsERSJ_ST_PvE_E10_M_managerERSt9_Any_dataRKSX_St18_Manager_operation = comdat any

$_ZNSt14_Function_base13_Base_managerIZN7rocksdb14OptionTypeInfo4EnumINS1_9DBOptions10AccessHintEEES2_iPKSt13unordered_mapINSt7__cxx1112basic_stringIcSt11char_traitsIcESaIcEEET_St4hashISC_ESt8equal_toISC_ESaISt4pairIKSC_SD_EEENS1_15OptionTypeFlagsEEUlRKNS1_13ConfigOptionsERSJ_ST_PvE_E15_M_init_functorIRKSV_EEvRSt9_Any_dataOSD_ = comdat any

$_ZNSt14_Function_base13_Base_managerIZN7rocksdb14OptionTypeInfo4EnumINS1_9DBOptions10AccessHintEEES2_iPKSt13unordered_mapINSt7__cxx1112basic_stringIcSt11char_traitsIcESaIcEEET_St4hashISC_ESt8equal_toISC_ESaISt4pairIKSC_SD_EEENS1_15OptionTypeFlagsEEUlRKNS1_13ConfigOptionsERSJ_ST_PvE_E10_M_destroyERSt9_Any_dataSt17integral_constantIbLb1EE = comdat any

$_ZNSt14_Function_base13_Base_managerIZN7rocksdb14OptionTypeInfo4EnumINS1_9DBOptions10AccessHintEEES2_iPKSt13unordered_mapINSt7__cxx1112basic_stringIcSt11char_traitsIcESaIcEEET_St4hashISC_ESt8equal_toISC_ESaISt4pairIKSC_SD_EEENS1_15OptionTypeFlagsEEUlRKNS1_13ConfigOptionsERSJ_ST_PvE_E9_M_createIRKSV_EEvRSt9_Any_dataOSD_St17integral_constantIbLb1EE = comdat any

$_ZNSt9_Any_data9_M_accessIZN7rocksdb14OptionTypeInfo4EnumINS1_9DBOptions10AccessHintEEES2_iPKSt13unordered_mapINSt7__cxx1112basic_stringIcSt11char_traitsIcESaIcEEET_St4hashISC_ESt8equal_toISC_ESaISt4pairIKSC_SD_EEENS1_15OptionTypeFlagsEEUlRKNS1_13ConfigOptionsERSJ_ST_PvE_EERSD_v = comdat any

$_ZNSt14_Function_base13_Base_managerIZN7rocksdb14OptionTypeInfo4EnumINS1_9DBOptions10AccessHintEEES2_iPKSt13unordered_mapINSt7__cxx1112basic_stringIcSt11char_traitsIcESaIcEEET_St4hashISC_ESt8equal_toISC_ESaISt4pairIKSC_SD_EEENS1_15OptionTypeFlagsEEUlRKNS1_13ConfigOptionsERSJ_PKvPSC_E_E21_M_not_empty_functionISX_EEbRKSD_ = comdat any

$_ZNSt14_Function_base13_Base_managerIZN7rocksdb14OptionTypeInfo4EnumINS1_9DBOptions10AccessHintEEES2_iPKSt13unordered_mapINSt7__cxx1112basic_stringIcSt11char_traitsIcESaIcEEET_St4hashISC_ESt8equal_toISC_ESaISt4pairIKSC_SD_EEENS1_15OptionTypeFlagsEEUlRKNS1_13ConfigOptionsERSJ_PKvPSC_E_E15_M_init_functorISX_EEvRSt9_Any_dataOSD_ = comdat any

$_ZNSt17_Function_handlerIFN7rocksdb6StatusERKNS0_13ConfigOptionsERKNSt7__cxx1112basic_stringIcSt11char_traitsIcESaIcEEEPKvPSA_EZNS0_14OptionTypeInfo4EnumINS0_9DBOptions10AccessHintEEESH_iPKSt13unordered_mapISA_T_St4hashISA_ESt8equal_toISA_ESaISt4pairISB_SM_EEENS0_15OptionTypeFlagsEEUlS4_SC_SE_SF_E_E9_M_invokeERKSt9_Any_dataS4_SC_OSE_OSF_ = comdat any

$_ZNSt17_Function_handlerIFN7rocksdb6StatusERKNS0_13ConfigOptionsERKNSt7__cxx1112basic_stringIcSt11char_traitsIcESaIcEEEPKvPSA_EZNS0_14OptionTypeInfo4EnumINS0_9DBOptions10AccessHintEEESH_iPKSt13unordered_mapISA_T_St4hashISA_ESt8equal_toISA_ESaISt4pairISB_SM_EEENS0_15OptionTypeFlagsEEUlS4_SC_SE_SF_E_E10_M_managerERSt9_Any_dataRKS10_St18_Manager_operation = comdat any

$_ZNSt14_Function_base13_Base_managerIZN7rocksdb14OptionTypeInfo4EnumINS1_9DBOptions10AccessHintEEES2_iPKSt13unordered_mapINSt7__cxx1112basic_stringIcSt11char_traitsIcESaIcEEET_St4hashISC_ESt8equal_toISC_ESaISt4pairIKSC_SD_EEENS1_15OptionTypeFlagsEEUlRKNS1_13ConfigOptionsERSJ_PKvPSC_E_E9_M_createISX_EEvRSt9_Any_dataOSD_St17integral_constantIbLb1EE = comdat any

$_ZSt10__invoke_rIN7rocksdb6StatusERZNS0_14OptionTypeInfo4EnumINS0_9DBOptions10AccessHintEEES2_iPKSt13unordered_mapINSt7__cxx1112basic_stringIcSt11char_traitsIcESaIcEEET_St4hashISC_ESt8equal_toISC_ESaISt4pairIKSC_SD_EEENS0_15OptionTypeFlagsEEUlRKNS0_13ConfigOptionsERSJ_PKvPSC_E_JSS_ST_SV_SW_EENSt9enable_ifIX16is_invocable_r_vISD_T0_DpT1_EESD_E4typeEOS10_DpOS11_ = comdat any

$_ZNSt14_Function_base13_Base_managerIZN7rocksdb14OptionTypeInfo4EnumINS1_9DBOptions10AccessHintEEES2_iPKSt13unordered_mapINSt7__cxx1112basic_stringIcSt11char_traitsIcESaIcEEET_St4hashISC_ESt8equal_toISC_ESaISt4pairIKSC_SD_EEENS1_15OptionTypeFlagsEEUlRKNS1_13ConfigOptionsERSJ_PKvPSC_E_E14_M_get_pointerERKSt9_Any_data = comdat any

$_ZSt13__invoke_implIN7rocksdb6StatusERZNS0_14OptionTypeInfo4EnumINS0_9DBOptions10AccessHintEEES2_iPKSt13unordered_mapINSt7__cxx1112basic_stringIcSt11char_traitsIcESaIcEEET_St4hashISC_ESt8equal_toISC_ESaISt4pairIKSC_SD_EEENS0_15OptionTypeFlagsEEUlRKNS0_13ConfigOptionsERSJ_PKvPSC_E_JSS_ST_SV_SW_EESD_St14__invoke_otherOT0_DpOT1_ = comdat any

$_ZZN7rocksdb14OptionTypeInfo4EnumINS_9DBOptions10AccessHintEEES0_iPKSt13unordered_mapINSt7__cxx1112basic_stringIcSt11char_traitsIcESaIcEEET_St4hashISA_ESt8equal_toISA_ESaISt4pairIKSA_SB_EEENS_15OptionTypeFlagsEENKUlRKNS_13ConfigOptionsERSH_PKvPSA_E_clESQ_SR_ST_SU_ = comdat any

$_ZN7rocksdb13SerializeEnumINS_9DBOptions10AccessHintEEEbRKSt13unordered_mapINSt7__cxx1112basic_stringIcSt11char_traitsIcESaIcEEET_St4hashIS9_ESt8equal_toIS9_ESaISt4pairIKS9_SA_EEERKSA_PS9_ = comdat any

$_ZNKSt13unordered_mapINSt7__cxx1112basic_stringIcSt11char_traitsIcESaIcEEEN7rocksdb9DBOptions10AccessHintESt4hashIS5_ESt8equal_toIS5_ESaISt4pairIKS5_S8_EEE5beginEv = comdat any

$_ZNKSt8__detail20_Node_const_iteratorISt4pairIKNSt7__cxx1112basic_stringIcSt11char_traitsIcESaIcEEEN7rocksdb9DBOptions10AccessHintEELb0ELb1EEdeEv = comdat any

$_ZNSt8__detail21_Hash_node_value_baseISt4pairIKNSt7__cxx1112basic_stringIcSt11char_traitsIcESaIcEEEN7rocksdb9DBOptions10AccessHintEEE4_M_vEv = comdat any

$_ZNKSt9_Any_data9_M_accessIZN7rocksdb14OptionTypeInfo4EnumINS1_9DBOptions10AccessHintEEES2_iPKSt13unordered_mapINSt7__cxx1112basic_stringIcSt11char_traitsIcESaIcEEET_St4hashISC_ESt8equal_toISC_ESaISt4pairIKSC_SD_EEENS1_15OptionTypeFlagsEEUlRKNS1_13ConfigOptionsERSJ_PKvPSC_E_EERKSD_v = comdat any

$_ZNSt9_Any_data9_M_accessIPZN7rocksdb14OptionTypeInfo4EnumINS1_9DBOptions10AccessHintEEES2_iPKSt13unordered_mapINSt7__cxx1112basic_stringIcSt11char_traitsIcESaIcEEET_St4hashISC_ESt8equal_toISC_ESaISt4pairIKSC_SD_EEENS1_15OptionTypeFlagsEEUlRKNS1_13ConfigOptionsERSJ_PKvPSC_E_EERSD_v = comdat any

$_ZNSt14_Function_base13_Base_managerIZN7rocksdb14OptionTypeInfo4EnumINS1_9DBOptions10AccessHintEEES2_iPKSt13unordered_mapINSt7__cxx1112basic_stringIcSt11char_traitsIcESaIcEEET_St4hashISC_ESt8equal_toISC_ESaISt4pairIKSC_SD_EEENS1_15OptionTypeFlagsEEUlRKNS1_13ConfigOptionsERSJ_PKvPSC_E_E10_M_managerERSt9_Any_dataRKSZ_St18_Manager_operation = comdat any

$_ZNSt14_Function_base13_Base_managerIZN7rocksdb14OptionTypeInfo4EnumINS1_9DBOptions10AccessHintEEES2_iPKSt13unordered_mapINSt7__cxx1112basic_stringIcSt11char_traitsIcESaIcEEET_St4hashISC_ESt8equal_toISC_ESaISt4pairIKSC_SD_EEENS1_15OptionTypeFlagsEEUlRKNS1_13ConfigOptionsERSJ_PKvPSC_E_E15_M_init_functorIRKSX_EEvRSt9_Any_dataOSD_ = comdat any

$_ZNSt14_Function_base13_Base_managerIZN7rocksdb14OptionTypeInfo4EnumINS1_9DBOptions10AccessHintEEES2_iPKSt13unordered_mapINSt7__cxx1112basic_stringIcSt11char_traitsIcESaIcEEET_St4hashISC_ESt8equal_toISC_ESaISt4pairIKSC_SD_EEENS1_15OptionTypeFlagsEEUlRKNS1_13ConfigOptionsERSJ_PKvPSC_E_E10_M_destroyERSt9_Any_dataSt17integral_constantIbLb1EE = comdat any

$_ZNSt14_Function_base13_Base_managerIZN7rocksdb14OptionTypeInfo4EnumINS1_9DBOptions10AccessHintEEES2_iPKSt13unordered_mapINSt7__cxx1112basic_stringIcSt11char_traitsIcESaIcEEET_St4hashISC_ESt8equal_toISC_ESaISt4pairIKSC_SD_EEENS1_15OptionTypeFlagsEEUlRKNS1_13ConfigOptionsERSJ_PKvPSC_E_E9_M_createIRKSX_EEvRSt9_Any_dataOSD_St17integral_constantIbLb1EE = comdat any

$_ZNSt9_Any_data9_M_accessIZN7rocksdb14OptionTypeInfo4EnumINS1_9DBOptions10AccessHintEEES2_iPKSt13unordered_mapINSt7__cxx1112basic_stringIcSt11char_traitsIcESaIcEEET_St4hashISC_ESt8equal_toISC_ESaISt4pairIKSC_SD_EEENS1_15OptionTypeFlagsEEUlRKNS1_13ConfigOptionsERSJ_PKvPSC_E_EERSD_v = comdat any

$_ZNSt14_Function_base13_Base_managerIZN7rocksdb14OptionTypeInfo4EnumINS1_9DBOptions10AccessHintEEES2_iPKSt13unordered_mapINSt7__cxx1112basic_stringIcSt11char_traitsIcESaIcEEET_St4hashISC_ESt8equal_toISC_ESaISt4pairIKSC_SD_EEENS1_15OptionTypeFlagsEEUlRKNS1_13ConfigOptionsERSJ_PKvSV_PSC_E_E21_M_not_empty_functionISX_EEbRKSD_ = comdat any

$_ZNSt14_Function_base13_Base_managerIZN7rocksdb14OptionTypeInfo4EnumINS1_9DBOptions10AccessHintEEES2_iPKSt13unordered_mapINSt7__cxx1112basic_stringIcSt11char_traitsIcESaIcEEET_St4hashISC_ESt8equal_toISC_ESaISt4pairIKSC_SD_EEENS1_15OptionTypeFlagsEEUlRKNS1_13ConfigOptionsERSJ_PKvSV_PSC_E_E15_M_init_functorISX_EEvRSt9_Any_dataOSD_ = comdat any

$_ZNSt17_Function_handlerIFbRKN7rocksdb13ConfigOptionsERKNSt7__cxx1112basic_stringIcSt11char_traitsIcESaIcEEEPKvSD_PS9_EZNS0_14OptionTypeInfo4EnumINS0_9DBOptions10AccessHintEEESG_iPKSt13unordered_mapIS9_T_St4hashIS9_ESt8equal_toIS9_ESaISt4pairISA_SL_EEENS0_15OptionTypeFlagsEEUlS3_SB_SD_SD_SE_E_E9_M_invokeERKSt9_Any_dataS3_SB_OSD_S12_OSE_ = comdat any

$_ZNSt17_Function_handlerIFbRKN7rocksdb13ConfigOptionsERKNSt7__cxx1112basic_stringIcSt11char_traitsIcESaIcEEEPKvSD_PS9_EZNS0_14OptionTypeInfo4EnumINS0_9DBOptions10AccessHintEEESG_iPKSt13unordered_mapIS9_T_St4hashIS9_ESt8equal_toIS9_ESaISt4pairISA_SL_EEENS0_15OptionTypeFlagsEEUlS3_SB_SD_SD_SE_E_E10_M_managerERSt9_Any_dataRKSZ_St18_Manager_operation = comdat any

$_ZNSt14_Function_base13_Base_managerIZN7rocksdb14OptionTypeInfo4EnumINS1_9DBOptions10AccessHintEEES2_iPKSt13unordered_mapINSt7__cxx1112basic_stringIcSt11char_traitsIcESaIcEEET_St4hashISC_ESt8equal_toISC_ESaISt4pairIKSC_SD_EEENS1_15OptionTypeFlagsEEUlRKNS1_13ConfigOptionsERSJ_PKvSV_PSC_E_E9_M_createISX_EEvRSt9_Any_dataOSD_St17integral_constantIbLb1EE = comdat any

$_ZSt10__invoke_rIbRZN7rocksdb14OptionTypeInfo4EnumINS0_9DBOptions10AccessHintEEES1_iPKSt13unordered_mapINSt7__cxx1112basic_stringIcSt11char_traitsIcESaIcEEET_St4hashISB_ESt8equal_toISB_ESaISt4pairIKSB_SC_EEENS0_15OptionTypeFlagsEEUlRKNS0_13ConfigOptionsERSI_PKvSU_PSB_E_JSR_SS_SU_SU_SV_EENSt9enable_ifIX16is_invocable_r_vISC_T0_DpT1_EESC_E4typeEOSZ_DpOS10_ = comdat any

$_ZNSt14_Function_base13_Base_managerIZN7rocksdb14OptionTypeInfo4EnumINS1_9DBOptions10AccessHintEEES2_iPKSt13unordered_mapINSt7__cxx1112basic_stringIcSt11char_traitsIcESaIcEEET_St4hashISC_ESt8equal_toISC_ESaISt4pairIKSC_SD_EEENS1_15OptionTypeFlagsEEUlRKNS1_13ConfigOptionsERSJ_PKvSV_PSC_E_E14_M_get_pointerERKSt9_Any_data = comdat any

$_ZSt13__invoke_implIbRZN7rocksdb14OptionTypeInfo4EnumINS0_9DBOptions10AccessHintEEES1_iPKSt13unordered_mapINSt7__cxx1112basic_stringIcSt11char_traitsIcESaIcEEET_St4hashISB_ESt8equal_toISB_ESaISt4pairIKSB_SC_EEENS0_15OptionTypeFlagsEEUlRKNS0_13ConfigOptionsERSI_PKvSU_PSB_E_JSR_SS_SU_SU_SV_EESC_St14__invoke_otherOT0_DpOT1_ = comdat any

$_ZZN7rocksdb14OptionTypeInfo4EnumINS_9DBOptions10AccessHintEEES0_iPKSt13unordered_mapINSt7__cxx1112basic_stringIcSt11char_traitsIcESaIcEEET_St4hashISA_ESt8equal_toISA_ESaISt4pairIKSA_SB_EEENS_15OptionTypeFlagsEENKUlRKNS_13ConfigOptionsERSH_PKvST_PSA_E_clESQ_SR_ST_ST_SU_ = comdat any

$_ZNKSt9_Any_data9_M_accessIZN7rocksdb14OptionTypeInfo4EnumINS1_9DBOptions10AccessHintEEES2_iPKSt13unordered_mapINSt7__cxx1112basic_stringIcSt11char_traitsIcESaIcEEET_St4hashISC_ESt8equal_toISC_ESaISt4pairIKSC_SD_EEENS1_15OptionTypeFlagsEEUlRKNS1_13ConfigOptionsERSJ_PKvSV_PSC_E_EERKSD_v = comdat any

$_ZNSt9_Any_data9_M_accessIPZN7rocksdb14OptionTypeInfo4EnumINS1_9DBOptions10AccessHintEEES2_iPKSt13unordered_mapINSt7__cxx1112basic_stringIcSt11char_traitsIcESaIcEEET_St4hashISC_ESt8equal_toISC_ESaISt4pairIKSC_SD_EEENS1_15OptionTypeFlagsEEUlRKNS1_13ConfigOptionsERSJ_PKvSV_PSC_E_EERSD_v = comdat any

$_ZNSt14_Function_base13_Base_managerIZN7rocksdb14OptionTypeInfo4EnumINS1_9DBOptions10AccessHintEEES2_iPKSt13unordered_mapINSt7__cxx1112basic_stringIcSt11char_traitsIcESaIcEEET_St4hashISC_ESt8equal_toISC_ESaISt4pairIKSC_SD_EEENS1_15OptionTypeFlagsEEUlRKNS1_13ConfigOptionsERSJ_PKvSV_PSC_E_E10_M_managerERSt9_Any_dataRKSZ_St18_Manager_operation = comdat any

$_ZNSt14_Function_base13_Base_managerIZN7rocksdb14OptionTypeInfo4EnumINS1_9DBOptions10AccessHintEEES2_iPKSt13unordered_mapINSt7__cxx1112basic_stringIcSt11char_traitsIcESaIcEEET_St4hashISC_ESt8equal_toISC_ESaISt4pairIKSC_SD_EEENS1_15OptionTypeFlagsEEUlRKNS1_13ConfigOptionsERSJ_PKvSV_PSC_E_E15_M_init_functorIRKSX_EEvRSt9_Any_dataOSD_ = comdat any

$_ZNSt14_Function_base13_Base_managerIZN7rocksdb14OptionTypeInfo4EnumINS1_9DBOptions10AccessHintEEES2_iPKSt13unordered_mapINSt7__cxx1112basic_stringIcSt11char_traitsIcESaIcEEET_St4hashISC_ESt8equal_toISC_ESaISt4pairIKSC_SD_EEENS1_15OptionTypeFlagsEEUlRKNS1_13ConfigOptionsERSJ_PKvSV_PSC_E_E10_M_destroyERSt9_Any_dataSt17integral_constantIbLb1EE = comdat any

$_ZNSt14_Function_base13_Base_managerIZN7rocksdb14OptionTypeInfo4EnumINS1_9DBOptions10AccessHintEEES2_iPKSt13unordered_mapINSt7__cxx1112basic_stringIcSt11char_traitsIcESaIcEEET_St4hashISC_ESt8equal_toISC_ESaISt4pairIKSC_SD_EEENS1_15OptionTypeFlagsEEUlRKNS1_13ConfigOptionsERSJ_PKvSV_PSC_E_E9_M_createIRKSX_EEvRSt9_Any_dataOSD_St17integral_constantIbLb1EE = comdat any

$_ZNSt9_Any_data9_M_accessIZN7rocksdb14OptionTypeInfo4EnumINS1_9DBOptions10AccessHintEEES2_iPKSt13unordered_mapINSt7__cxx1112basic_stringIcSt11char_traitsIcESaIcEEET_St4hashISC_ESt8equal_toISC_ESaISt4pairIKSC_SD_EEENS1_15OptionTypeFlagsEEUlRKNS1_13ConfigOptionsERSJ_PKvSV_PSC_E_EERSD_v = comdat any

$_ZNSt8functionIFN7rocksdb6StatusERKNS0_13ConfigOptionsERKNSt7__cxx1112basic_stringIcSt11char_traitsIcESaIcEEESC_PvEEC2IZNS0_14OptionTypeInfo4EnumINS0_12InfoLogLevelEEESH_iPKSt13unordered_mapISA_T_St4hashISA_ESt8equal_toISA_ESaISt4pairISB_SL_EEENS0_15OptionTypeFlagsEEUlS4_SC_SC_SD_E_vEEOSL_ = comdat any

$_ZNSt8functionIFN7rocksdb6StatusERKNS0_13ConfigOptionsERKNSt7__cxx1112basic_stringIcSt11char_traitsIcESaIcEEEPKvPSA_EEC2IZNS0_14OptionTypeInfo4EnumINS0_12InfoLogLevelEEESJ_iPKSt13unordered_mapISA_T_St4hashISA_ESt8equal_toISA_ESaISt4pairISB_SN_EEENS0_15OptionTypeFlagsEEUlS4_SC_SE_SF_E_vEEOSN_ = comdat any

$_ZNSt8functionIFbRKN7rocksdb13ConfigOptionsERKNSt7__cxx1112basic_stringIcSt11char_traitsIcESaIcEEEPKvSD_PS9_EEC2IZNS0_14OptionTypeInfo4EnumINS0_12InfoLogLevelEEESI_iPKSt13unordered_mapIS9_T_St4hashIS9_ESt8equal_toIS9_ESaISt4pairISA_SM_EEENS0_15OptionTypeFlagsEEUlS3_SB_SD_SD_SE_E_vEEOSM_ = comdat any

$_ZNSt14_Function_base13_Base_managerIZN7rocksdb14OptionTypeInfo4EnumINS1_12InfoLogLevelEEES2_iPKSt13unordered_mapINSt7__cxx1112basic_stringIcSt11char_traitsIcESaIcEEET_St4hashISB_ESt8equal_toISB_ESaISt4pairIKSB_SC_EEENS1_15OptionTypeFlagsEEUlRKNS1_13ConfigOptionsERSI_SS_PvE_E21_M_not_empty_functionISU_EEbRKSC_ = comdat any

$_ZNSt14_Function_base13_Base_managerIZN7rocksdb14OptionTypeInfo4EnumINS1_12InfoLogLevelEEES2_iPKSt13unordered_mapINSt7__cxx1112basic_stringIcSt11char_traitsIcESaIcEEET_St4hashISB_ESt8equal_toISB_ESaISt4pairIKSB_SC_EEENS1_15OptionTypeFlagsEEUlRKNS1_13ConfigOptionsERSI_SS_PvE_E15_M_init_functorISU_EEvRSt9_Any_dataOSC_ = comdat any

$_ZNSt17_Function_handlerIFN7rocksdb6StatusERKNS0_13ConfigOptionsERKNSt7__cxx1112basic_stringIcSt11char_traitsIcESaIcEEESC_PvEZNS0_14OptionTypeInfo4EnumINS0_12InfoLogLevelEEESF_iPKSt13unordered_mapISA_T_St4hashISA_ESt8equal_toISA_ESaISt4pairISB_SJ_EEENS0_15OptionTypeFlagsEEUlS4_SC_SC_SD_E_E9_M_invokeERKSt9_Any_dataS4_SC_SC_OSD_ = comdat any

$_ZNSt17_Function_handlerIFN7rocksdb6StatusERKNS0_13ConfigOptionsERKNSt7__cxx1112basic_stringIcSt11char_traitsIcESaIcEEESC_PvEZNS0_14OptionTypeInfo4EnumINS0_12InfoLogLevelEEESF_iPKSt13unordered_mapISA_T_St4hashISA_ESt8equal_toISA_ESaISt4pairISB_SJ_EEENS0_15OptionTypeFlagsEEUlS4_SC_SC_SD_E_E10_M_managerERSt9_Any_dataRKSX_St18_Manager_operation = comdat any

$_ZNSt14_Function_base13_Base_managerIZN7rocksdb14OptionTypeInfo4EnumINS1_12InfoLogLevelEEES2_iPKSt13unordered_mapINSt7__cxx1112basic_stringIcSt11char_traitsIcESaIcEEET_St4hashISB_ESt8equal_toISB_ESaISt4pairIKSB_SC_EEENS1_15OptionTypeFlagsEEUlRKNS1_13ConfigOptionsERSI_SS_PvE_E9_M_createISU_EEvRSt9_Any_dataOSC_St17integral_constantIbLb1EE = comdat any

$_ZSt10__invoke_rIN7rocksdb6StatusERZNS0_14OptionTypeInfo4EnumINS0_12InfoLogLevelEEES2_iPKSt13unordered_mapINSt7__cxx1112basic_stringIcSt11char_traitsIcESaIcEEET_St4hashISB_ESt8equal_toISB_ESaISt4pairIKSB_SC_EEENS0_15OptionTypeFlagsEEUlRKNS0_13ConfigOptionsERSI_SS_PvE_JSR_SS_SS_ST_EENSt9enable_ifIX16is_invocable_r_vISC_T0_DpT1_EESC_E4typeEOSX_DpOSY_ = comdat any

$_ZNSt14_Function_base13_Base_managerIZN7rocksdb14OptionTypeInfo4EnumINS1_12InfoLogLevelEEES2_iPKSt13unordered_mapINSt7__cxx1112basic_stringIcSt11char_traitsIcESaIcEEET_St4hashISB_ESt8equal_toISB_ESaISt4pairIKSB_SC_EEENS1_15OptionTypeFlagsEEUlRKNS1_13ConfigOptionsERSI_SS_PvE_E14_M_get_pointerERKSt9_Any_data = comdat any

$_ZSt13__invoke_implIN7rocksdb6StatusERZNS0_14OptionTypeInfo4EnumINS0_12InfoLogLevelEEES2_iPKSt13unordered_mapINSt7__cxx1112basic_stringIcSt11char_traitsIcESaIcEEET_St4hashISB_ESt8equal_toISB_ESaISt4pairIKSB_SC_EEENS0_15OptionTypeFlagsEEUlRKNS0_13ConfigOptionsERSI_SS_PvE_JSR_SS_SS_ST_EESC_St14__invoke_otherOT0_DpOT1_ = comdat any

$_ZZN7rocksdb14OptionTypeInfo4EnumINS_12InfoLogLevelEEES0_iPKSt13unordered_mapINSt7__cxx1112basic_stringIcSt11char_traitsIcESaIcEEET_St4hashIS9_ESt8equal_toIS9_ESaISt4pairIKS9_SA_EEENS_15OptionTypeFlagsEENKUlRKNS_13ConfigOptionsERSG_SQ_PvE_clESP_SQ_SQ_SR_ = comdat any

$_ZN7rocksdb9ParseEnumINS_12InfoLogLevelEEEbRKSt13unordered_mapINSt7__cxx1112basic_stringIcSt11char_traitsIcESaIcEEET_St4hashIS8_ESt8equal_toIS8_ESaISt4pairIKS8_S9_EEERSF_PS9_ = comdat any

$_ZNKSt13unordered_mapINSt7__cxx1112basic_stringIcSt11char_traitsIcESaIcEEEN7rocksdb12InfoLogLevelESt4hashIS5_ESt8equal_toIS5_ESaISt4pairIKS5_S7_EEE4findERSD_ = comdat any

$_ZNKSt13unordered_mapINSt7__cxx1112basic_stringIcSt11char_traitsIcESaIcEEEN7rocksdb12InfoLogLevelESt4hashIS5_ESt8equal_toIS5_ESaISt4pairIKS5_S7_EEE3endEv = comdat any

$_ZNKSt8__detail20_Node_const_iteratorISt4pairIKNSt7__cxx1112basic_stringIcSt11char_traitsIcESaIcEEEN7rocksdb12InfoLogLevelEELb0ELb1EEptEv = comdat any

$_ZNKSt10_HashtableINSt7__cxx1112basic_stringIcSt11char_traitsIcESaIcEEESt4pairIKS5_N7rocksdb12InfoLogLevelEESaISA_ENSt8__detail10_Select1stESt8equal_toIS5_ESt4hashIS5_ENSC_18_Mod_range_hashingENSC_20_Default_ranged_hashENSC_20_Prime_rehash_policyENSC_17_Hashtable_traitsILb1ELb0ELb1EEEE4findERS7_ = comdat any

$_ZNKSt10_HashtableINSt7__cxx1112basic_stringIcSt11char_traitsIcESaIcEEESt4pairIKS5_N7rocksdb12InfoLogLevelEESaISA_ENSt8__detail10_Select1stESt8equal_toIS5_ESt4hashIS5_ENSC_18_Mod_range_hashingENSC_20_Default_ranged_hashENSC_20_Prime_rehash_policyENSC_17_Hashtable_traitsILb1ELb0ELb1EEEE5beginEv = comdat any

$_ZNKSt10_HashtableINSt7__cxx1112basic_stringIcSt11char_traitsIcESaIcEEESt4pairIKS5_N7rocksdb12InfoLogLevelEESaISA_ENSt8__detail10_Select1stESt8equal_toIS5_ESt4hashIS5_ENSC_18_Mod_range_hashingENSC_20_Default_ranged_hashENSC_20_Prime_rehash_policyENSC_17_Hashtable_traitsILb1ELb0ELb1EEEE3endEv = comdat any

$_ZNKSt8__detail15_Hashtable_baseINSt7__cxx1112basic_stringIcSt11char_traitsIcESaIcEEESt4pairIKS6_N7rocksdb12InfoLogLevelEENS_10_Select1stESt8equal_toIS6_ESt4hashIS6_ENS_18_Mod_range_hashingENS_20_Default_ranged_hashENS_17_Hashtable_traitsILb1ELb0ELb1EEEE13_M_key_equalsERS8_RKNS_16_Hash_node_valueISB_Lb1EEE = comdat any

$_ZNSt8__detail20_Node_const_iteratorISt4pairIKNSt7__cxx1112basic_stringIcSt11char_traitsIcESaIcEEEN7rocksdb12InfoLogLevelEELb0ELb1EEppEv = comdat any

$_ZNKSt8__detail15_Hash_code_baseINSt7__cxx1112basic_stringIcSt11char_traitsIcESaIcEEESt4pairIKS6_N7rocksdb12InfoLogLevelEENS_10_Select1stESt4hashIS6_ENS_18_Mod_range_hashingENS_20_Default_ranged_hashELb1EE12_M_hash_codeERS8_ = comdat any

$_ZNKSt10_HashtableINSt7__cxx1112basic_stringIcSt11char_traitsIcESaIcEEESt4pairIKS5_N7rocksdb12InfoLogLevelEESaISA_ENSt8__detail10_Select1stESt8equal_toIS5_ESt4hashIS5_ENSC_18_Mod_range_hashingENSC_20_Default_ranged_hashENSC_20_Prime_rehash_policyENSC_17_Hashtable_traitsILb1ELb0ELb1EEEE12_M_find_nodeEmRS7_m = comdat any

$_ZNSt8__detail20_Node_const_iteratorISt4pairIKNSt7__cxx1112basic_stringIcSt11char_traitsIcESaIcEEEN7rocksdb12InfoLogLevelEELb0ELb1EEC2EPNS_10_Hash_nodeISB_Lb1EEE = comdat any

$_ZNKSt10_HashtableINSt7__cxx1112basic_stringIcSt11char_traitsIcESaIcEEESt4pairIKS5_N7rocksdb12InfoLogLevelEESaISA_ENSt8__detail10_Select1stESt8equal_toIS5_ESt4hashIS5_ENSC_18_Mod_range_hashingENSC_20_Default_ranged_hashENSC_20_Prime_rehash_policyENSC_17_Hashtable_traitsILb1ELb0ELb1EEEE19_M_find_before_nodeEmRS7_m = comdat any

$_ZNKSt8__detail15_Hashtable_baseINSt7__cxx1112basic_stringIcSt11char_traitsIcESaIcEEESt4pairIKS6_N7rocksdb12InfoLogLevelEENS_10_Select1stESt8equal_toIS6_ESt4hashIS6_ENS_18_Mod_range_hashingENS_20_Default_ranged_hashENS_17_Hashtable_traitsILb1ELb0ELb1EEEE9_M_equalsERS8_mRKNS_16_Hash_node_valueISB_Lb1EEE = comdat any

$_ZNKSt9_Any_data9_M_accessIZN7rocksdb14OptionTypeInfo4EnumINS1_12InfoLogLevelEEES2_iPKSt13unordered_mapINSt7__cxx1112basic_stringIcSt11char_traitsIcESaIcEEET_St4hashISB_ESt8equal_toISB_ESaISt4pairIKSB_SC_EEENS1_15OptionTypeFlagsEEUlRKNS1_13ConfigOptionsERSI_SS_PvE_EERKSC_v = comdat any

$_ZNSt9_Any_data9_M_accessIPZN7rocksdb14OptionTypeInfo4EnumINS1_12InfoLogLevelEEES2_iPKSt13unordered_mapINSt7__cxx1112basic_stringIcSt11char_traitsIcESaIcEEET_St4hashISB_ESt8equal_toISB_ESaISt4pairIKSB_SC_EEENS1_15OptionTypeFlagsEEUlRKNS1_13ConfigOptionsERSI_SS_PvE_EERSC_v = comdat any

$_ZNSt14_Function_base13_Base_managerIZN7rocksdb14OptionTypeInfo4EnumINS1_12InfoLogLevelEEES2_iPKSt13unordered_mapINSt7__cxx1112basic_stringIcSt11char_traitsIcESaIcEEET_St4hashISB_ESt8equal_toISB_ESaISt4pairIKSB_SC_EEENS1_15OptionTypeFlagsEEUlRKNS1_13ConfigOptionsERSI_SS_PvE_E10_M_managerERSt9_Any_dataRKSW_St18_Manager_operation = comdat any

$_ZNSt14_Function_base13_Base_managerIZN7rocksdb14OptionTypeInfo4EnumINS1_12InfoLogLevelEEES2_iPKSt13unordered_mapINSt7__cxx1112basic_stringIcSt11char_traitsIcESaIcEEET_St4hashISB_ESt8equal_toISB_ESaISt4pairIKSB_SC_EEENS1_15OptionTypeFlagsEEUlRKNS1_13ConfigOptionsERSI_SS_PvE_E15_M_init_functorIRKSU_EEvRSt9_Any_dataOSC_ = comdat any

$_ZNSt14_Function_base13_Base_managerIZN7rocksdb14OptionTypeInfo4EnumINS1_12InfoLogLevelEEES2_iPKSt13unordered_mapINSt7__cxx1112basic_stringIcSt11char_traitsIcESaIcEEET_St4hashISB_ESt8equal_toISB_ESaISt4pairIKSB_SC_EEENS1_15OptionTypeFlagsEEUlRKNS1_13ConfigOptionsERSI_SS_PvE_E10_M_destroyERSt9_Any_dataSt17integral_constantIbLb1EE = comdat any

$_ZNSt14_Function_base13_Base_managerIZN7rocksdb14OptionTypeInfo4EnumINS1_12InfoLogLevelEEES2_iPKSt13unordered_mapINSt7__cxx1112basic_stringIcSt11char_traitsIcESaIcEEET_St4hashISB_ESt8equal_toISB_ESaISt4pairIKSB_SC_EEENS1_15OptionTypeFlagsEEUlRKNS1_13ConfigOptionsERSI_SS_PvE_E9_M_createIRKSU_EEvRSt9_Any_dataOSC_St17integral_constantIbLb1EE = comdat any

$_ZNSt9_Any_data9_M_accessIZN7rocksdb14OptionTypeInfo4EnumINS1_12InfoLogLevelEEES2_iPKSt13unordered_mapINSt7__cxx1112basic_stringIcSt11char_traitsIcESaIcEEET_St4hashISB_ESt8equal_toISB_ESaISt4pairIKSB_SC_EEENS1_15OptionTypeFlagsEEUlRKNS1_13ConfigOptionsERSI_SS_PvE_EERSC_v = comdat any

$_ZNSt14_Function_base13_Base_managerIZN7rocksdb14OptionTypeInfo4EnumINS1_12InfoLogLevelEEES2_iPKSt13unordered_mapINSt7__cxx1112basic_stringIcSt11char_traitsIcESaIcEEET_St4hashISB_ESt8equal_toISB_ESaISt4pairIKSB_SC_EEENS1_15OptionTypeFlagsEEUlRKNS1_13ConfigOptionsERSI_PKvPSB_E_E21_M_not_empty_functionISW_EEbRKSC_ = comdat any

$_ZNSt14_Function_base13_Base_managerIZN7rocksdb14OptionTypeInfo4EnumINS1_12InfoLogLevelEEES2_iPKSt13unordered_mapINSt7__cxx1112basic_stringIcSt11char_traitsIcESaIcEEET_St4hashISB_ESt8equal_toISB_ESaISt4pairIKSB_SC_EEENS1_15OptionTypeFlagsEEUlRKNS1_13ConfigOptionsERSI_PKvPSB_E_E15_M_init_functorISW_EEvRSt9_Any_dataOSC_ = comdat any

$_ZNSt17_Function_handlerIFN7rocksdb6StatusERKNS0_13ConfigOptionsERKNSt7__cxx1112basic_stringIcSt11char_traitsIcESaIcEEEPKvPSA_EZNS0_14OptionTypeInfo4EnumINS0_12InfoLogLevelEEESH_iPKSt13unordered_mapISA_T_St4hashISA_ESt8equal_toISA_ESaISt4pairISB_SL_EEENS0_15OptionTypeFlagsEEUlS4_SC_SE_SF_E_E9_M_invokeERKSt9_Any_dataS4_SC_OSE_OSF_ = comdat any

$_ZNSt17_Function_handlerIFN7rocksdb6StatusERKNS0_13ConfigOptionsERKNSt7__cxx1112basic_stringIcSt11char_traitsIcESaIcEEEPKvPSA_EZNS0_14OptionTypeInfo4EnumINS0_12InfoLogLevelEEESH_iPKSt13unordered_mapISA_T_St4hashISA_ESt8equal_toISA_ESaISt4pairISB_SL_EEENS0_15OptionTypeFlagsEEUlS4_SC_SE_SF_E_E10_M_managerERSt9_Any_dataRKSZ_St18_Manager_operation = comdat any

$_ZNSt14_Function_base13_Base_managerIZN7rocksdb14OptionTypeInfo4EnumINS1_12InfoLogLevelEEES2_iPKSt13unordered_mapINSt7__cxx1112basic_stringIcSt11char_traitsIcESaIcEEET_St4hashISB_ESt8equal_toISB_ESaISt4pairIKSB_SC_EEENS1_15OptionTypeFlagsEEUlRKNS1_13ConfigOptionsERSI_PKvPSB_E_E9_M_createISW_EEvRSt9_Any_dataOSC_St17integral_constantIbLb1EE = comdat any

$_ZSt10__invoke_rIN7rocksdb6StatusERZNS0_14OptionTypeInfo4EnumINS0_12InfoLogLevelEEES2_iPKSt13unordered_mapINSt7__cxx1112basic_stringIcSt11char_traitsIcESaIcEEET_St4hashISB_ESt8equal_toISB_ESaISt4pairIKSB_SC_EEENS0_15OptionTypeFlagsEEUlRKNS0_13ConfigOptionsERSI_PKvPSB_E_JSR_SS_SU_SV_EENSt9enable_ifIX16is_invocable_r_vISC_T0_DpT1_EESC_E4typeEOSZ_DpOS10_ = comdat any

$_ZNSt14_Function_base13_Base_managerIZN7rocksdb14OptionTypeInfo4EnumINS1_12InfoLogLevelEEES2_iPKSt13unordered_mapINSt7__cxx1112basic_stringIcSt11char_traitsIcESaIcEEET_St4hashISB_ESt8equal_toISB_ESaISt4pairIKSB_SC_EEENS1_15OptionTypeFlagsEEUlRKNS1_13ConfigOptionsERSI_PKvPSB_E_E14_M_get_pointerERKSt9_Any_data = comdat any

$_ZSt13__invoke_implIN7rocksdb6StatusERZNS0_14OptionTypeInfo4EnumINS0_12InfoLogLevelEEES2_iPKSt13unordered_mapINSt7__cxx1112basic_stringIcSt11char_traitsIcESaIcEEET_St4hashISB_ESt8equal_toISB_ESaISt4pairIKSB_SC_EEENS0_15OptionTypeFlagsEEUlRKNS0_13ConfigOptionsERSI_PKvPSB_E_JSR_SS_SU_SV_EESC_St14__invoke_otherOT0_DpOT1_ = comdat any

$_ZZN7rocksdb14OptionTypeInfo4EnumINS_12InfoLogLevelEEES0_iPKSt13unordered_mapINSt7__cxx1112basic_stringIcSt11char_traitsIcESaIcEEET_St4hashIS9_ESt8equal_toIS9_ESaISt4pairIKS9_SA_EEENS_15OptionTypeFlagsEENKUlRKNS_13ConfigOptionsERSG_PKvPS9_E_clESP_SQ_SS_ST_ = comdat any

$_ZN7rocksdb13SerializeEnumINS_12InfoLogLevelEEEbRKSt13unordered_mapINSt7__cxx1112basic_stringIcSt11char_traitsIcESaIcEEET_St4hashIS8_ESt8equal_toIS8_ESaISt4pairIKS8_S9_EEERKS9_PS8_ = comdat any

$_ZNKSt13unordered_mapINSt7__cxx1112basic_stringIcSt11char_traitsIcESaIcEEEN7rocksdb12InfoLogLevelESt4hashIS5_ESt8equal_toIS5_ESaISt4pairIKS5_S7_EEE5beginEv = comdat any

$_ZNKSt8__detail20_Node_const_iteratorISt4pairIKNSt7__cxx1112basic_stringIcSt11char_traitsIcESaIcEEEN7rocksdb12InfoLogLevelEELb0ELb1EEdeEv = comdat any

$_ZNSt8__detail21_Hash_node_value_baseISt4pairIKNSt7__cxx1112basic_stringIcSt11char_traitsIcESaIcEEEN7rocksdb12InfoLogLevelEEE4_M_vEv = comdat any

$_ZNKSt9_Any_data9_M_accessIZN7rocksdb14OptionTypeInfo4EnumINS1_12InfoLogLevelEEES2_iPKSt13unordered_mapINSt7__cxx1112basic_stringIcSt11char_traitsIcESaIcEEET_St4hashISB_ESt8equal_toISB_ESaISt4pairIKSB_SC_EEENS1_15OptionTypeFlagsEEUlRKNS1_13ConfigOptionsERSI_PKvPSB_E_EERKSC_v = comdat any

$_ZNSt9_Any_data9_M_accessIPZN7rocksdb14OptionTypeInfo4EnumINS1_12InfoLogLevelEEES2_iPKSt13unordered_mapINSt7__cxx1112basic_stringIcSt11char_traitsIcESaIcEEET_St4hashISB_ESt8equal_toISB_ESaISt4pairIKSB_SC_EEENS1_15OptionTypeFlagsEEUlRKNS1_13ConfigOptionsERSI_PKvPSB_E_EERSC_v = comdat any

$_ZNSt14_Function_base13_Base_managerIZN7rocksdb14OptionTypeInfo4EnumINS1_12InfoLogLevelEEES2_iPKSt13unordered_mapINSt7__cxx1112basic_stringIcSt11char_traitsIcESaIcEEET_St4hashISB_ESt8equal_toISB_ESaISt4pairIKSB_SC_EEENS1_15OptionTypeFlagsEEUlRKNS1_13ConfigOptionsERSI_PKvPSB_E_E10_M_managerERSt9_Any_dataRKSY_St18_Manager_operation = comdat any

$_ZNSt14_Function_base13_Base_managerIZN7rocksdb14OptionTypeInfo4EnumINS1_12InfoLogLevelEEES2_iPKSt13unordered_mapINSt7__cxx1112basic_stringIcSt11char_traitsIcESaIcEEET_St4hashISB_ESt8equal_toISB_ESaISt4pairIKSB_SC_EEENS1_15OptionTypeFlagsEEUlRKNS1_13ConfigOptionsERSI_PKvPSB_E_E15_M_init_functorIRKSW_EEvRSt9_Any_dataOSC_ = comdat any

$_ZNSt14_Function_base13_Base_managerIZN7rocksdb14OptionTypeInfo4EnumINS1_12InfoLogLevelEEES2_iPKSt13unordered_mapINSt7__cxx1112basic_stringIcSt11char_traitsIcESaIcEEET_St4hashISB_ESt8equal_toISB_ESaISt4pairIKSB_SC_EEENS1_15OptionTypeFlagsEEUlRKNS1_13ConfigOptionsERSI_PKvPSB_E_E10_M_destroyERSt9_Any_dataSt17integral_constantIbLb1EE = comdat any

$_ZNSt14_Function_base13_Base_managerIZN7rocksdb14OptionTypeInfo4EnumINS1_12InfoLogLevelEEES2_iPKSt13unordered_mapINSt7__cxx1112basic_stringIcSt11char_traitsIcESaIcEEET_St4hashISB_ESt8equal_toISB_ESaISt4pairIKSB_SC_EEENS1_15OptionTypeFlagsEEUlRKNS1_13ConfigOptionsERSI_PKvPSB_E_E9_M_createIRKSW_EEvRSt9_Any_dataOSC_St17integral_constantIbLb1EE = comdat any

$_ZNSt9_Any_data9_M_accessIZN7rocksdb14OptionTypeInfo4EnumINS1_12InfoLogLevelEEES2_iPKSt13unordered_mapINSt7__cxx1112basic_stringIcSt11char_traitsIcESaIcEEET_St4hashISB_ESt8equal_toISB_ESaISt4pairIKSB_SC_EEENS1_15OptionTypeFlagsEEUlRKNS1_13ConfigOptionsERSI_PKvPSB_E_EERSC_v = comdat any

$_ZNSt14_Function_base13_Base_managerIZN7rocksdb14OptionTypeInfo4EnumINS1_12InfoLogLevelEEES2_iPKSt13unordered_mapINSt7__cxx1112basic_stringIcSt11char_traitsIcESaIcEEET_St4hashISB_ESt8equal_toISB_ESaISt4pairIKSB_SC_EEENS1_15OptionTypeFlagsEEUlRKNS1_13ConfigOptionsERSI_PKvSU_PSB_E_E21_M_not_empty_functionISW_EEbRKSC_ = comdat any

$_ZNSt14_Function_base13_Base_managerIZN7rocksdb14OptionTypeInfo4EnumINS1_12InfoLogLevelEEES2_iPKSt13unordered_mapINSt7__cxx1112basic_stringIcSt11char_traitsIcESaIcEEET_St4hashISB_ESt8equal_toISB_ESaISt4pairIKSB_SC_EEENS1_15OptionTypeFlagsEEUlRKNS1_13ConfigOptionsERSI_PKvSU_PSB_E_E15_M_init_functorISW_EEvRSt9_Any_dataOSC_ = comdat any

$_ZNSt17_Function_handlerIFbRKN7rocksdb13ConfigOptionsERKNSt7__cxx1112basic_stringIcSt11char_traitsIcESaIcEEEPKvSD_PS9_EZNS0_14OptionTypeInfo4EnumINS0_12InfoLogLevelEEESG_iPKSt13unordered_mapIS9_T_St4hashIS9_ESt8equal_toIS9_ESaISt4pairISA_SK_EEENS0_15OptionTypeFlagsEEUlS3_SB_SD_SD_SE_E_E9_M_invokeERKSt9_Any_dataS3_SB_OSD_S11_OSE_ = comdat any

$_ZNSt17_Function_handlerIFbRKN7rocksdb13ConfigOptionsERKNSt7__cxx1112basic_stringIcSt11char_traitsIcESaIcEEEPKvSD_PS9_EZNS0_14OptionTypeInfo4EnumINS0_12InfoLogLevelEEESG_iPKSt13unordered_mapIS9_T_St4hashIS9_ESt8equal_toIS9_ESaISt4pairISA_SK_EEENS0_15OptionTypeFlagsEEUlS3_SB_SD_SD_SE_E_E10_M_managerERSt9_Any_dataRKSY_St18_Manager_operation = comdat any

$_ZNSt14_Function_base13_Base_managerIZN7rocksdb14OptionTypeInfo4EnumINS1_12InfoLogLevelEEES2_iPKSt13unordered_mapINSt7__cxx1112basic_stringIcSt11char_traitsIcESaIcEEET_St4hashISB_ESt8equal_toISB_ESaISt4pairIKSB_SC_EEENS1_15OptionTypeFlagsEEUlRKNS1_13ConfigOptionsERSI_PKvSU_PSB_E_E9_M_createISW_EEvRSt9_Any_dataOSC_St17integral_constantIbLb1EE = comdat any

$_ZSt10__invoke_rIbRZN7rocksdb14OptionTypeInfo4EnumINS0_12InfoLogLevelEEES1_iPKSt13unordered_mapINSt7__cxx1112basic_stringIcSt11char_traitsIcESaIcEEET_St4hashISA_ESt8equal_toISA_ESaISt4pairIKSA_SB_EEENS0_15OptionTypeFlagsEEUlRKNS0_13ConfigOptionsERSH_PKvST_PSA_E_JSQ_SR_ST_ST_SU_EENSt9enable_ifIX16is_invocable_r_vISB_T0_DpT1_EESB_E4typeEOSY_DpOSZ_ = comdat any

$_ZNSt14_Function_base13_Base_managerIZN7rocksdb14OptionTypeInfo4EnumINS1_12InfoLogLevelEEES2_iPKSt13unordered_mapINSt7__cxx1112basic_stringIcSt11char_traitsIcESaIcEEET_St4hashISB_ESt8equal_toISB_ESaISt4pairIKSB_SC_EEENS1_15OptionTypeFlagsEEUlRKNS1_13ConfigOptionsERSI_PKvSU_PSB_E_E14_M_get_pointerERKSt9_Any_data = comdat any

$_ZSt13__invoke_implIbRZN7rocksdb14OptionTypeInfo4EnumINS0_12InfoLogLevelEEES1_iPKSt13unordered_mapINSt7__cxx1112basic_stringIcSt11char_traitsIcESaIcEEET_St4hashISA_ESt8equal_toISA_ESaISt4pairIKSA_SB_EEENS0_15OptionTypeFlagsEEUlRKNS0_13ConfigOptionsERSH_PKvST_PSA_E_JSQ_SR_ST_ST_SU_EESB_St14__invoke_otherOT0_DpOT1_ = comdat any

$_ZZN7rocksdb14OptionTypeInfo4EnumINS_12InfoLogLevelEEES0_iPKSt13unordered_mapINSt7__cxx1112basic_stringIcSt11char_traitsIcESaIcEEET_St4hashIS9_ESt8equal_toIS9_ESaISt4pairIKS9_SA_EEENS_15OptionTypeFlagsEENKUlRKNS_13ConfigOptionsERSG_PKvSS_PS9_E_clESP_SQ_SS_SS_ST_ = comdat any

$_ZNKSt9_Any_data9_M_accessIZN7rocksdb14OptionTypeInfo4EnumINS1_12InfoLogLevelEEES2_iPKSt13unordered_mapINSt7__cxx1112basic_stringIcSt11char_traitsIcESaIcEEET_St4hashISB_ESt8equal_toISB_ESaISt4pairIKSB_SC_EEENS1_15OptionTypeFlagsEEUlRKNS1_13ConfigOptionsERSI_PKvSU_PSB_E_EERKSC_v = comdat any

$_ZNSt9_Any_data9_M_accessIPZN7rocksdb14OptionTypeInfo4EnumINS1_12InfoLogLevelEEES2_iPKSt13unordered_mapINSt7__cxx1112basic_stringIcSt11char_traitsIcESaIcEEET_St4hashISB_ESt8equal_toISB_ESaISt4pairIKSB_SC_EEENS1_15OptionTypeFlagsEEUlRKNS1_13ConfigOptionsERSI_PKvSU_PSB_E_EERSC_v = comdat any

$_ZNSt14_Function_base13_Base_managerIZN7rocksdb14OptionTypeInfo4EnumINS1_12InfoLogLevelEEES2_iPKSt13unordered_mapINSt7__cxx1112basic_stringIcSt11char_traitsIcESaIcEEET_St4hashISB_ESt8equal_toISB_ESaISt4pairIKSB_SC_EEENS1_15OptionTypeFlagsEEUlRKNS1_13ConfigOptionsERSI_PKvSU_PSB_E_E10_M_managerERSt9_Any_dataRKSY_St18_Manager_operation = comdat any

$_ZNSt14_Function_base13_Base_managerIZN7rocksdb14OptionTypeInfo4EnumINS1_12InfoLogLevelEEES2_iPKSt13unordered_mapINSt7__cxx1112basic_stringIcSt11char_traitsIcESaIcEEET_St4hashISB_ESt8equal_toISB_ESaISt4pairIKSB_SC_EEENS1_15OptionTypeFlagsEEUlRKNS1_13ConfigOptionsERSI_PKvSU_PSB_E_E15_M_init_functorIRKSW_EEvRSt9_Any_dataOSC_ = comdat any

$_ZNSt14_Function_base13_Base_managerIZN7rocksdb14OptionTypeInfo4EnumINS1_12InfoLogLevelEEES2_iPKSt13unordered_mapINSt7__cxx1112basic_stringIcSt11char_traitsIcESaIcEEET_St4hashISB_ESt8equal_toISB_ESaISt4pairIKSB_SC_EEENS1_15OptionTypeFlagsEEUlRKNS1_13ConfigOptionsERSI_PKvSU_PSB_E_E10_M_destroyERSt9_Any_dataSt17integral_constantIbLb1EE = comdat any

$_ZNSt14_Function_base13_Base_managerIZN7rocksdb14OptionTypeInfo4EnumINS1_12InfoLogLevelEEES2_iPKSt13unordered_mapINSt7__cxx1112basic_stringIcSt11char_traitsIcESaIcEEET_St4hashISB_ESt8equal_toISB_ESaISt4pairIKSB_SC_EEENS1_15OptionTypeFlagsEEUlRKNS1_13ConfigOptionsERSI_PKvSU_PSB_E_E9_M_createIRKSW_EEvRSt9_Any_dataOSC_St17integral_constantIbLb1EE = comdat any

$_ZNSt9_Any_data9_M_accessIZN7rocksdb14OptionTypeInfo4EnumINS1_12InfoLogLevelEEES2_iPKSt13unordered_mapINSt7__cxx1112basic_stringIcSt11char_traitsIcESaIcEEET_St4hashISB_ESt8equal_toISB_ESaISt4pairIKSB_SC_EEENS1_15OptionTypeFlagsEEUlRKNS1_13ConfigOptionsERSI_PKvSU_PSB_E_EERSC_v = comdat any

$_ZNSt8functionIFN7rocksdb6StatusERKNS0_13ConfigOptionsERKNSt7__cxx1112basic_stringIcSt11char_traitsIcESaIcEEESC_PvEEC2IZNS0_14OptionTypeInfo17AsCustomSharedPtrINS0_22FileChecksumGenFactoryEEESH_iNS0_22OptionVerificationTypeENS0_15OptionTypeFlagsEEUlS4_SC_SC_SD_E_vEEOT_ = comdat any

$_ZNSt14_Function_base13_Base_managerIZN7rocksdb14OptionTypeInfo17AsCustomSharedPtrINS1_22FileChecksumGenFactoryEEES2_iNS1_22OptionVerificationTypeENS1_15OptionTypeFlagsEEUlRKNS1_13ConfigOptionsERKNSt7__cxx1112basic_stringIcSt11char_traitsIcESaIcEEESH_PvE_E21_M_not_empty_functionISJ_EEbRKT_ = comdat any

$_ZNSt14_Function_base13_Base_managerIZN7rocksdb14OptionTypeInfo17AsCustomSharedPtrINS1_22FileChecksumGenFactoryEEES2_iNS1_22OptionVerificationTypeENS1_15OptionTypeFlagsEEUlRKNS1_13ConfigOptionsERKNSt7__cxx1112basic_stringIcSt11char_traitsIcESaIcEEESH_PvE_E15_M_init_functorISJ_EEvRSt9_Any_dataOT_ = comdat any

$_ZNSt17_Function_handlerIFN7rocksdb6StatusERKNS0_13ConfigOptionsERKNSt7__cxx1112basic_stringIcSt11char_traitsIcESaIcEEESC_PvEZNS0_14OptionTypeInfo17AsCustomSharedPtrINS0_22FileChecksumGenFactoryEEESF_iNS0_22OptionVerificationTypeENS0_15OptionTypeFlagsEEUlS4_SC_SC_SD_E_E9_M_invokeERKSt9_Any_dataS4_SC_SC_OSD_ = comdat any

$_ZNSt17_Function_handlerIFN7rocksdb6StatusERKNS0_13ConfigOptionsERKNSt7__cxx1112basic_stringIcSt11char_traitsIcESaIcEEESC_PvEZNS0_14OptionTypeInfo17AsCustomSharedPtrINS0_22FileChecksumGenFactoryEEESF_iNS0_22OptionVerificationTypeENS0_15OptionTypeFlagsEEUlS4_SC_SC_SD_E_E10_M_managerERSt9_Any_dataRKSM_St18_Manager_operation = comdat any

$_ZNSt14_Function_base13_Base_managerIZN7rocksdb14OptionTypeInfo17AsCustomSharedPtrINS1_22FileChecksumGenFactoryEEES2_iNS1_22OptionVerificationTypeENS1_15OptionTypeFlagsEEUlRKNS1_13ConfigOptionsERKNSt7__cxx1112basic_stringIcSt11char_traitsIcESaIcEEESH_PvE_E9_M_createISJ_EEvRSt9_Any_dataOT_St17integral_constantIbLb1EE = comdat any

$_ZSt10__invoke_rIN7rocksdb6StatusERZNS0_14OptionTypeInfo17AsCustomSharedPtrINS0_22FileChecksumGenFactoryEEES2_iNS0_22OptionVerificationTypeENS0_15OptionTypeFlagsEEUlRKNS0_13ConfigOptionsERKNSt7__cxx1112basic_stringIcSt11char_traitsIcESaIcEEESH_PvE_JS9_SH_SH_SI_EENSt9enable_ifIX16is_invocable_r_vIT_T0_DpT1_EESM_E4typeEOSN_DpOSO_ = comdat any

$_ZNSt14_Function_base13_Base_managerIZN7rocksdb14OptionTypeInfo17AsCustomSharedPtrINS1_22FileChecksumGenFactoryEEES2_iNS1_22OptionVerificationTypeENS1_15OptionTypeFlagsEEUlRKNS1_13ConfigOptionsERKNSt7__cxx1112basic_stringIcSt11char_traitsIcESaIcEEESH_PvE_E14_M_get_pointerERKSt9_Any_data = comdat any

$_ZSt13__invoke_implIN7rocksdb6StatusERZNS0_14OptionTypeInfo17AsCustomSharedPtrINS0_22FileChecksumGenFactoryEEES2_iNS0_22OptionVerificationTypeENS0_15OptionTypeFlagsEEUlRKNS0_13ConfigOptionsERKNSt7__cxx1112basic_stringIcSt11char_traitsIcESaIcEEESH_PvE_JS9_SH_SH_SI_EET_St14__invoke_otherOT0_DpOT1_ = comdat any

$_ZZN7rocksdb14OptionTypeInfo17AsCustomSharedPtrINS_22FileChecksumGenFactoryEEES0_iNS_22OptionVerificationTypeENS_15OptionTypeFlagsEENKUlRKNS_13ConfigOptionsERKNSt7__cxx1112basic_stringIcSt11char_traitsIcESaIcEEESF_PvE_clES7_SF_SF_SG_ = comdat any

$_ZNSt12__shared_ptrIN7rocksdb22FileChecksumGenFactoryELN9__gnu_cxx12_Lock_policyE2EE5resetEv = comdat any

$_ZNSt12__shared_ptrIN7rocksdb22FileChecksumGenFactoryELN9__gnu_cxx12_Lock_policyE2EEC2Ev = comdat any

$_ZNKSt9_Any_data9_M_accessIZN7rocksdb14OptionTypeInfo17AsCustomSharedPtrINS1_22FileChecksumGenFactoryEEES2_iNS1_22OptionVerificationTypeENS1_15OptionTypeFlagsEEUlRKNS1_13ConfigOptionsERKNSt7__cxx1112basic_stringIcSt11char_traitsIcESaIcEEESH_PvE_EERKT_v = comdat any

$_ZNSt9_Any_data9_M_accessIPZN7rocksdb14OptionTypeInfo17AsCustomSharedPtrINS1_22FileChecksumGenFactoryEEES2_iNS1_22OptionVerificationTypeENS1_15OptionTypeFlagsEEUlRKNS1_13ConfigOptionsERKNSt7__cxx1112basic_stringIcSt11char_traitsIcESaIcEEESH_PvE_EERT_v = comdat any

$_ZNSt14_Function_base13_Base_managerIZN7rocksdb14OptionTypeInfo17AsCustomSharedPtrINS1_22FileChecksumGenFactoryEEES2_iNS1_22OptionVerificationTypeENS1_15OptionTypeFlagsEEUlRKNS1_13ConfigOptionsERKNSt7__cxx1112basic_stringIcSt11char_traitsIcESaIcEEESH_PvE_E10_M_managerERSt9_Any_dataRKSL_St18_Manager_operation = comdat any

$_ZNSt14_Function_base13_Base_managerIZN7rocksdb14OptionTypeInfo17AsCustomSharedPtrINS1_22FileChecksumGenFactoryEEES2_iNS1_22OptionVerificationTypeENS1_15OptionTypeFlagsEEUlRKNS1_13ConfigOptionsERKNSt7__cxx1112basic_stringIcSt11char_traitsIcESaIcEEESH_PvE_E15_M_init_functorIRKSJ_EEvRSt9_Any_dataOT_ = comdat any

$_ZNSt14_Function_base13_Base_managerIZN7rocksdb14OptionTypeInfo17AsCustomSharedPtrINS1_22FileChecksumGenFactoryEEES2_iNS1_22OptionVerificationTypeENS1_15OptionTypeFlagsEEUlRKNS1_13ConfigOptionsERKNSt7__cxx1112basic_stringIcSt11char_traitsIcESaIcEEESH_PvE_E10_M_destroyERSt9_Any_dataSt17integral_constantIbLb1EE = comdat any

$_ZNSt14_Function_base13_Base_managerIZN7rocksdb14OptionTypeInfo17AsCustomSharedPtrINS1_22FileChecksumGenFactoryEEES2_iNS1_22OptionVerificationTypeENS1_15OptionTypeFlagsEEUlRKNS1_13ConfigOptionsERKNSt7__cxx1112basic_stringIcSt11char_traitsIcESaIcEEESH_PvE_E9_M_createIRKSJ_EEvRSt9_Any_dataOT_St17integral_constantIbLb1EE = comdat any

$_ZNSt9_Any_data9_M_accessIZN7rocksdb14OptionTypeInfo17AsCustomSharedPtrINS1_22FileChecksumGenFactoryEEES2_iNS1_22OptionVerificationTypeENS1_15OptionTypeFlagsEEUlRKNS1_13ConfigOptionsERKNSt7__cxx1112basic_stringIcSt11char_traitsIcESaIcEEESH_PvE_EERT_v = comdat any

$_ZNSt8functionIFN7rocksdb6StatusERKNS0_13ConfigOptionsERKNSt7__cxx1112basic_stringIcSt11char_traitsIcESaIcEEESC_PvEEC2IZNS0_14OptionTypeInfo17AsCustomSharedPtrINS0_10StatisticsEEESH_iNS0_22OptionVerificationTypeENS0_15OptionTypeFlagsEEUlS4_SC_SC_SD_E_vEEOT_ = comdat any

$_ZNSt14_Function_base13_Base_managerIZN7rocksdb14OptionTypeInfo17AsCustomSharedPtrINS1_10StatisticsEEES2_iNS1_22OptionVerificationTypeENS1_15OptionTypeFlagsEEUlRKNS1_13ConfigOptionsERKNSt7__cxx1112basic_stringIcSt11char_traitsIcESaIcEEESH_PvE_E21_M_not_empty_functionISJ_EEbRKT_ = comdat any

$_ZNSt14_Function_base13_Base_managerIZN7rocksdb14OptionTypeInfo17AsCustomSharedPtrINS1_10StatisticsEEES2_iNS1_22OptionVerificationTypeENS1_15OptionTypeFlagsEEUlRKNS1_13ConfigOptionsERKNSt7__cxx1112basic_stringIcSt11char_traitsIcESaIcEEESH_PvE_E15_M_init_functorISJ_EEvRSt9_Any_dataOT_ = comdat any

$_ZNSt17_Function_handlerIFN7rocksdb6StatusERKNS0_13ConfigOptionsERKNSt7__cxx1112basic_stringIcSt11char_traitsIcESaIcEEESC_PvEZNS0_14OptionTypeInfo17AsCustomSharedPtrINS0_10StatisticsEEESF_iNS0_22OptionVerificationTypeENS0_15OptionTypeFlagsEEUlS4_SC_SC_SD_E_E9_M_invokeERKSt9_Any_dataS4_SC_SC_OSD_ = comdat any

$_ZNSt17_Function_handlerIFN7rocksdb6StatusERKNS0_13ConfigOptionsERKNSt7__cxx1112basic_stringIcSt11char_traitsIcESaIcEEESC_PvEZNS0_14OptionTypeInfo17AsCustomSharedPtrINS0_10StatisticsEEESF_iNS0_22OptionVerificationTypeENS0_15OptionTypeFlagsEEUlS4_SC_SC_SD_E_E10_M_managerERSt9_Any_dataRKSM_St18_Manager_operation = comdat any

$_ZNSt14_Function_base13_Base_managerIZN7rocksdb14OptionTypeInfo17AsCustomSharedPtrINS1_10StatisticsEEES2_iNS1_22OptionVerificationTypeENS1_15OptionTypeFlagsEEUlRKNS1_13ConfigOptionsERKNSt7__cxx1112basic_stringIcSt11char_traitsIcESaIcEEESH_PvE_E9_M_createISJ_EEvRSt9_Any_dataOT_St17integral_constantIbLb1EE = comdat any

$_ZSt10__invoke_rIN7rocksdb6StatusERZNS0_14OptionTypeInfo17AsCustomSharedPtrINS0_10StatisticsEEES2_iNS0_22OptionVerificationTypeENS0_15OptionTypeFlagsEEUlRKNS0_13ConfigOptionsERKNSt7__cxx1112basic_stringIcSt11char_traitsIcESaIcEEESH_PvE_JS9_SH_SH_SI_EENSt9enable_ifIX16is_invocable_r_vIT_T0_DpT1_EESM_E4typeEOSN_DpOSO_ = comdat any

$_ZNSt14_Function_base13_Base_managerIZN7rocksdb14OptionTypeInfo17AsCustomSharedPtrINS1_10StatisticsEEES2_iNS1_22OptionVerificationTypeENS1_15OptionTypeFlagsEEUlRKNS1_13ConfigOptionsERKNSt7__cxx1112basic_stringIcSt11char_traitsIcESaIcEEESH_PvE_E14_M_get_pointerERKSt9_Any_data = comdat any

$_ZSt13__invoke_implIN7rocksdb6StatusERZNS0_14OptionTypeInfo17AsCustomSharedPtrINS0_10StatisticsEEES2_iNS0_22OptionVerificationTypeENS0_15OptionTypeFlagsEEUlRKNS0_13ConfigOptionsERKNSt7__cxx1112basic_stringIcSt11char_traitsIcESaIcEEESH_PvE_JS9_SH_SH_SI_EET_St14__invoke_otherOT0_DpOT1_ = comdat any

$_ZZN7rocksdb14OptionTypeInfo17AsCustomSharedPtrINS_10StatisticsEEES0_iNS_22OptionVerificationTypeENS_15OptionTypeFlagsEENKUlRKNS_13ConfigOptionsERKNSt7__cxx1112basic_stringIcSt11char_traitsIcESaIcEEESF_PvE_clES7_SF_SF_SG_ = comdat any

$_ZNSt12__shared_ptrIN7rocksdb10StatisticsELN9__gnu_cxx12_Lock_policyE2EE5resetEv = comdat any

$_ZNSt12__shared_ptrIN7rocksdb10StatisticsELN9__gnu_cxx12_Lock_policyE2EEC2Ev = comdat any

$_ZNKSt9_Any_data9_M_accessIZN7rocksdb14OptionTypeInfo17AsCustomSharedPtrINS1_10StatisticsEEES2_iNS1_22OptionVerificationTypeENS1_15OptionTypeFlagsEEUlRKNS1_13ConfigOptionsERKNSt7__cxx1112basic_stringIcSt11char_traitsIcESaIcEEESH_PvE_EERKT_v = comdat any

$_ZNSt9_Any_data9_M_accessIPZN7rocksdb14OptionTypeInfo17AsCustomSharedPtrINS1_10StatisticsEEES2_iNS1_22OptionVerificationTypeENS1_15OptionTypeFlagsEEUlRKNS1_13ConfigOptionsERKNSt7__cxx1112basic_stringIcSt11char_traitsIcESaIcEEESH_PvE_EERT_v = comdat any

$_ZNSt14_Function_base13_Base_managerIZN7rocksdb14OptionTypeInfo17AsCustomSharedPtrINS1_10StatisticsEEES2_iNS1_22OptionVerificationTypeENS1_15OptionTypeFlagsEEUlRKNS1_13ConfigOptionsERKNSt7__cxx1112basic_stringIcSt11char_traitsIcESaIcEEESH_PvE_E10_M_managerERSt9_Any_dataRKSL_St18_Manager_operation = comdat any

$_ZNSt14_Function_base13_Base_managerIZN7rocksdb14OptionTypeInfo17AsCustomSharedPtrINS1_10StatisticsEEES2_iNS1_22OptionVerificationTypeENS1_15OptionTypeFlagsEEUlRKNS1_13ConfigOptionsERKNSt7__cxx1112basic_stringIcSt11char_traitsIcESaIcEEESH_PvE_E15_M_init_functorIRKSJ_EEvRSt9_Any_dataOT_ = comdat any

$_ZNSt14_Function_base13_Base_managerIZN7rocksdb14OptionTypeInfo17AsCustomSharedPtrINS1_10StatisticsEEES2_iNS1_22OptionVerificationTypeENS1_15OptionTypeFlagsEEUlRKNS1_13ConfigOptionsERKNSt7__cxx1112basic_stringIcSt11char_traitsIcESaIcEEESH_PvE_E10_M_destroyERSt9_Any_dataSt17integral_constantIbLb1EE = comdat any

$_ZNSt14_Function_base13_Base_managerIZN7rocksdb14OptionTypeInfo17AsCustomSharedPtrINS1_10StatisticsEEES2_iNS1_22OptionVerificationTypeENS1_15OptionTypeFlagsEEUlRKNS1_13ConfigOptionsERKNSt7__cxx1112basic_stringIcSt11char_traitsIcESaIcEEESH_PvE_E9_M_createIRKSJ_EEvRSt9_Any_dataOT_St17integral_constantIbLb1EE = comdat any

$_ZNSt9_Any_data9_M_accessIZN7rocksdb14OptionTypeInfo17AsCustomSharedPtrINS1_10StatisticsEEES2_iNS1_22OptionVerificationTypeENS1_15OptionTypeFlagsEEUlRKNS1_13ConfigOptionsERKNSt7__cxx1112basic_stringIcSt11char_traitsIcESaIcEEESH_PvE_EERT_v = comdat any

$_ZNSt8functionIFN7rocksdb6StatusERKNS0_13ConfigOptionsERKNSt7__cxx1112basic_stringIcSt11char_traitsIcESaIcEEESC_PvEEC2IZNS0_14OptionTypeInfo4EnumINS0_9CacheTierEEESH_iPKSt13unordered_mapISA_T_St4hashISA_ESt8equal_toISA_ESaISt4pairISB_SL_EEENS0_15OptionTypeFlagsEEUlS4_SC_SC_SD_E_vEEOSL_ = comdat any

$_ZNSt8functionIFN7rocksdb6StatusERKNS0_13ConfigOptionsERKNSt7__cxx1112basic_stringIcSt11char_traitsIcESaIcEEEPKvPSA_EEC2IZNS0_14OptionTypeInfo4EnumINS0_9CacheTierEEESJ_iPKSt13unordered_mapISA_T_St4hashISA_ESt8equal_toISA_ESaISt4pairISB_SN_EEENS0_15OptionTypeFlagsEEUlS4_SC_SE_SF_E_vEEOSN_ = comdat any

$_ZNSt8functionIFbRKN7rocksdb13ConfigOptionsERKNSt7__cxx1112basic_stringIcSt11char_traitsIcESaIcEEEPKvSD_PS9_EEC2IZNS0_14OptionTypeInfo4EnumINS0_9CacheTierEEESI_iPKSt13unordered_mapIS9_T_St4hashIS9_ESt8equal_toIS9_ESaISt4pairISA_SM_EEENS0_15OptionTypeFlagsEEUlS3_SB_SD_SD_SE_E_vEEOSM_ = comdat any

$_ZNSt14_Function_base13_Base_managerIZN7rocksdb14OptionTypeInfo4EnumINS1_9CacheTierEEES2_iPKSt13unordered_mapINSt7__cxx1112basic_stringIcSt11char_traitsIcESaIcEEET_St4hashISB_ESt8equal_toISB_ESaISt4pairIKSB_SC_EEENS1_15OptionTypeFlagsEEUlRKNS1_13ConfigOptionsERSI_SS_PvE_E21_M_not_empty_functionISU_EEbRKSC_ = comdat any

$_ZNSt14_Function_base13_Base_managerIZN7rocksdb14OptionTypeInfo4EnumINS1_9CacheTierEEES2_iPKSt13unordered_mapINSt7__cxx1112basic_stringIcSt11char_traitsIcESaIcEEET_St4hashISB_ESt8equal_toISB_ESaISt4pairIKSB_SC_EEENS1_15OptionTypeFlagsEEUlRKNS1_13ConfigOptionsERSI_SS_PvE_E15_M_init_functorISU_EEvRSt9_Any_dataOSC_ = comdat any

$_ZNSt17_Function_handlerIFN7rocksdb6StatusERKNS0_13ConfigOptionsERKNSt7__cxx1112basic_stringIcSt11char_traitsIcESaIcEEESC_PvEZNS0_14OptionTypeInfo4EnumINS0_9CacheTierEEESF_iPKSt13unordered_mapISA_T_St4hashISA_ESt8equal_toISA_ESaISt4pairISB_SJ_EEENS0_15OptionTypeFlagsEEUlS4_SC_SC_SD_E_E9_M_invokeERKSt9_Any_dataS4_SC_SC_OSD_ = comdat any

$_ZNSt17_Function_handlerIFN7rocksdb6StatusERKNS0_13ConfigOptionsERKNSt7__cxx1112basic_stringIcSt11char_traitsIcESaIcEEESC_PvEZNS0_14OptionTypeInfo4EnumINS0_9CacheTierEEESF_iPKSt13unordered_mapISA_T_St4hashISA_ESt8equal_toISA_ESaISt4pairISB_SJ_EEENS0_15OptionTypeFlagsEEUlS4_SC_SC_SD_E_E10_M_managerERSt9_Any_dataRKSX_St18_Manager_operation = comdat any

$_ZNSt14_Function_base13_Base_managerIZN7rocksdb14OptionTypeInfo4EnumINS1_9CacheTierEEES2_iPKSt13unordered_mapINSt7__cxx1112basic_stringIcSt11char_traitsIcESaIcEEET_St4hashISB_ESt8equal_toISB_ESaISt4pairIKSB_SC_EEENS1_15OptionTypeFlagsEEUlRKNS1_13ConfigOptionsERSI_SS_PvE_E9_M_createISU_EEvRSt9_Any_dataOSC_St17integral_constantIbLb1EE = comdat any

$_ZSt10__invoke_rIN7rocksdb6StatusERZNS0_14OptionTypeInfo4EnumINS0_9CacheTierEEES2_iPKSt13unordered_mapINSt7__cxx1112basic_stringIcSt11char_traitsIcESaIcEEET_St4hashISB_ESt8equal_toISB_ESaISt4pairIKSB_SC_EEENS0_15OptionTypeFlagsEEUlRKNS0_13ConfigOptionsERSI_SS_PvE_JSR_SS_SS_ST_EENSt9enable_ifIX16is_invocable_r_vISC_T0_DpT1_EESC_E4typeEOSX_DpOSY_ = comdat any

$_ZNSt14_Function_base13_Base_managerIZN7rocksdb14OptionTypeInfo4EnumINS1_9CacheTierEEES2_iPKSt13unordered_mapINSt7__cxx1112basic_stringIcSt11char_traitsIcESaIcEEET_St4hashISB_ESt8equal_toISB_ESaISt4pairIKSB_SC_EEENS1_15OptionTypeFlagsEEUlRKNS1_13ConfigOptionsERSI_SS_PvE_E14_M_get_pointerERKSt9_Any_data = comdat any

$_ZSt13__invoke_implIN7rocksdb6StatusERZNS0_14OptionTypeInfo4EnumINS0_9CacheTierEEES2_iPKSt13unordered_mapINSt7__cxx1112basic_stringIcSt11char_traitsIcESaIcEEET_St4hashISB_ESt8equal_toISB_ESaISt4pairIKSB_SC_EEENS0_15OptionTypeFlagsEEUlRKNS0_13ConfigOptionsERSI_SS_PvE_JSR_SS_SS_ST_EESC_St14__invoke_otherOT0_DpOT1_ = comdat any

$_ZZN7rocksdb14OptionTypeInfo4EnumINS_9CacheTierEEES0_iPKSt13unordered_mapINSt7__cxx1112basic_stringIcSt11char_traitsIcESaIcEEET_St4hashIS9_ESt8equal_toIS9_ESaISt4pairIKS9_SA_EEENS_15OptionTypeFlagsEENKUlRKNS_13ConfigOptionsERSG_SQ_PvE_clESP_SQ_SQ_SR_ = comdat any

$_ZN7rocksdb9ParseEnumINS_9CacheTierEEEbRKSt13unordered_mapINSt7__cxx1112basic_stringIcSt11char_traitsIcESaIcEEET_St4hashIS8_ESt8equal_toIS8_ESaISt4pairIKS8_S9_EEERSF_PS9_ = comdat any

$_ZNKSt13unordered_mapINSt7__cxx1112basic_stringIcSt11char_traitsIcESaIcEEEN7rocksdb9CacheTierESt4hashIS5_ESt8equal_toIS5_ESaISt4pairIKS5_S7_EEE4findERSD_ = comdat any

$_ZNKSt13unordered_mapINSt7__cxx1112basic_stringIcSt11char_traitsIcESaIcEEEN7rocksdb9CacheTierESt4hashIS5_ESt8equal_toIS5_ESaISt4pairIKS5_S7_EEE3endEv = comdat any

$_ZNKSt8__detail20_Node_const_iteratorISt4pairIKNSt7__cxx1112basic_stringIcSt11char_traitsIcESaIcEEEN7rocksdb9CacheTierEELb0ELb1EEptEv = comdat any

$_ZNKSt10_HashtableINSt7__cxx1112basic_stringIcSt11char_traitsIcESaIcEEESt4pairIKS5_N7rocksdb9CacheTierEESaISA_ENSt8__detail10_Select1stESt8equal_toIS5_ESt4hashIS5_ENSC_18_Mod_range_hashingENSC_20_Default_ranged_hashENSC_20_Prime_rehash_policyENSC_17_Hashtable_traitsILb1ELb0ELb1EEEE4findERS7_ = comdat any

$_ZNKSt10_HashtableINSt7__cxx1112basic_stringIcSt11char_traitsIcESaIcEEESt4pairIKS5_N7rocksdb9CacheTierEESaISA_ENSt8__detail10_Select1stESt8equal_toIS5_ESt4hashIS5_ENSC_18_Mod_range_hashingENSC_20_Default_ranged_hashENSC_20_Prime_rehash_policyENSC_17_Hashtable_traitsILb1ELb0ELb1EEEE5beginEv = comdat any

$_ZNKSt10_HashtableINSt7__cxx1112basic_stringIcSt11char_traitsIcESaIcEEESt4pairIKS5_N7rocksdb9CacheTierEESaISA_ENSt8__detail10_Select1stESt8equal_toIS5_ESt4hashIS5_ENSC_18_Mod_range_hashingENSC_20_Default_ranged_hashENSC_20_Prime_rehash_policyENSC_17_Hashtable_traitsILb1ELb0ELb1EEEE3endEv = comdat any

$_ZNKSt8__detail15_Hashtable_baseINSt7__cxx1112basic_stringIcSt11char_traitsIcESaIcEEESt4pairIKS6_N7rocksdb9CacheTierEENS_10_Select1stESt8equal_toIS6_ESt4hashIS6_ENS_18_Mod_range_hashingENS_20_Default_ranged_hashENS_17_Hashtable_traitsILb1ELb0ELb1EEEE13_M_key_equalsERS8_RKNS_16_Hash_node_valueISB_Lb1EEE = comdat any

$_ZNSt8__detail20_Node_const_iteratorISt4pairIKNSt7__cxx1112basic_stringIcSt11char_traitsIcESaIcEEEN7rocksdb9CacheTierEELb0ELb1EEppEv = comdat any

$_ZNKSt8__detail15_Hash_code_baseINSt7__cxx1112basic_stringIcSt11char_traitsIcESaIcEEESt4pairIKS6_N7rocksdb9CacheTierEENS_10_Select1stESt4hashIS6_ENS_18_Mod_range_hashingENS_20_Default_ranged_hashELb1EE12_M_hash_codeERS8_ = comdat any

$_ZNKSt10_HashtableINSt7__cxx1112basic_stringIcSt11char_traitsIcESaIcEEESt4pairIKS5_N7rocksdb9CacheTierEESaISA_ENSt8__detail10_Select1stESt8equal_toIS5_ESt4hashIS5_ENSC_18_Mod_range_hashingENSC_20_Default_ranged_hashENSC_20_Prime_rehash_policyENSC_17_Hashtable_traitsILb1ELb0ELb1EEEE12_M_find_nodeEmRS7_m = comdat any

$_ZNSt8__detail20_Node_const_iteratorISt4pairIKNSt7__cxx1112basic_stringIcSt11char_traitsIcESaIcEEEN7rocksdb9CacheTierEELb0ELb1EEC2EPNS_10_Hash_nodeISB_Lb1EEE = comdat any

$_ZNKSt10_HashtableINSt7__cxx1112basic_stringIcSt11char_traitsIcESaIcEEESt4pairIKS5_N7rocksdb9CacheTierEESaISA_ENSt8__detail10_Select1stESt8equal_toIS5_ESt4hashIS5_ENSC_18_Mod_range_hashingENSC_20_Default_ranged_hashENSC_20_Prime_rehash_policyENSC_17_Hashtable_traitsILb1ELb0ELb1EEEE19_M_find_before_nodeEmRS7_m = comdat any

$_ZNKSt8__detail15_Hashtable_baseINSt7__cxx1112basic_stringIcSt11char_traitsIcESaIcEEESt4pairIKS6_N7rocksdb9CacheTierEENS_10_Select1stESt8equal_toIS6_ESt4hashIS6_ENS_18_Mod_range_hashingENS_20_Default_ranged_hashENS_17_Hashtable_traitsILb1ELb0ELb1EEEE9_M_equalsERS8_mRKNS_16_Hash_node_valueISB_Lb1EEE = comdat any

$_ZNKSt9_Any_data9_M_accessIZN7rocksdb14OptionTypeInfo4EnumINS1_9CacheTierEEES2_iPKSt13unordered_mapINSt7__cxx1112basic_stringIcSt11char_traitsIcESaIcEEET_St4hashISB_ESt8equal_toISB_ESaISt4pairIKSB_SC_EEENS1_15OptionTypeFlagsEEUlRKNS1_13ConfigOptionsERSI_SS_PvE_EERKSC_v = comdat any

$_ZNSt9_Any_data9_M_accessIPZN7rocksdb14OptionTypeInfo4EnumINS1_9CacheTierEEES2_iPKSt13unordered_mapINSt7__cxx1112basic_stringIcSt11char_traitsIcESaIcEEET_St4hashISB_ESt8equal_toISB_ESaISt4pairIKSB_SC_EEENS1_15OptionTypeFlagsEEUlRKNS1_13ConfigOptionsERSI_SS_PvE_EERSC_v = comdat any

$_ZNSt14_Function_base13_Base_managerIZN7rocksdb14OptionTypeInfo4EnumINS1_9CacheTierEEES2_iPKSt13unordered_mapINSt7__cxx1112basic_stringIcSt11char_traitsIcESaIcEEET_St4hashISB_ESt8equal_toISB_ESaISt4pairIKSB_SC_EEENS1_15OptionTypeFlagsEEUlRKNS1_13ConfigOptionsERSI_SS_PvE_E10_M_managerERSt9_Any_dataRKSW_St18_Manager_operation = comdat any

$_ZNSt14_Function_base13_Base_managerIZN7rocksdb14OptionTypeInfo4EnumINS1_9CacheTierEEES2_iPKSt13unordered_mapINSt7__cxx1112basic_stringIcSt11char_traitsIcESaIcEEET_St4hashISB_ESt8equal_toISB_ESaISt4pairIKSB_SC_EEENS1_15OptionTypeFlagsEEUlRKNS1_13ConfigOptionsERSI_SS_PvE_E15_M_init_functorIRKSU_EEvRSt9_Any_dataOSC_ = comdat any

$_ZNSt14_Function_base13_Base_managerIZN7rocksdb14OptionTypeInfo4EnumINS1_9CacheTierEEES2_iPKSt13unordered_mapINSt7__cxx1112basic_stringIcSt11char_traitsIcESaIcEEET_St4hashISB_ESt8equal_toISB_ESaISt4pairIKSB_SC_EEENS1_15OptionTypeFlagsEEUlRKNS1_13ConfigOptionsERSI_SS_PvE_E10_M_destroyERSt9_Any_dataSt17integral_constantIbLb1EE = comdat any

$_ZNSt14_Function_base13_Base_managerIZN7rocksdb14OptionTypeInfo4EnumINS1_9CacheTierEEES2_iPKSt13unordered_mapINSt7__cxx1112basic_stringIcSt11char_traitsIcESaIcEEET_St4hashISB_ESt8equal_toISB_ESaISt4pairIKSB_SC_EEENS1_15OptionTypeFlagsEEUlRKNS1_13ConfigOptionsERSI_SS_PvE_E9_M_createIRKSU_EEvRSt9_Any_dataOSC_St17integral_constantIbLb1EE = comdat any

$_ZNSt9_Any_data9_M_accessIZN7rocksdb14OptionTypeInfo4EnumINS1_9CacheTierEEES2_iPKSt13unordered_mapINSt7__cxx1112basic_stringIcSt11char_traitsIcESaIcEEET_St4hashISB_ESt8equal_toISB_ESaISt4pairIKSB_SC_EEENS1_15OptionTypeFlagsEEUlRKNS1_13ConfigOptionsERSI_SS_PvE_EERSC_v = comdat any

$_ZNSt14_Function_base13_Base_managerIZN7rocksdb14OptionTypeInfo4EnumINS1_9CacheTierEEES2_iPKSt13unordered_mapINSt7__cxx1112basic_stringIcSt11char_traitsIcESaIcEEET_St4hashISB_ESt8equal_toISB_ESaISt4pairIKSB_SC_EEENS1_15OptionTypeFlagsEEUlRKNS1_13ConfigOptionsERSI_PKvPSB_E_E21_M_not_empty_functionISW_EEbRKSC_ = comdat any

$_ZNSt14_Function_base13_Base_managerIZN7rocksdb14OptionTypeInfo4EnumINS1_9CacheTierEEES2_iPKSt13unordered_mapINSt7__cxx1112basic_stringIcSt11char_traitsIcESaIcEEET_St4hashISB_ESt8equal_toISB_ESaISt4pairIKSB_SC_EEENS1_15OptionTypeFlagsEEUlRKNS1_13ConfigOptionsERSI_PKvPSB_E_E15_M_init_functorISW_EEvRSt9_Any_dataOSC_ = comdat any

$_ZNSt17_Function_handlerIFN7rocksdb6StatusERKNS0_13ConfigOptionsERKNSt7__cxx1112basic_stringIcSt11char_traitsIcESaIcEEEPKvPSA_EZNS0_14OptionTypeInfo4EnumINS0_9CacheTierEEESH_iPKSt13unordered_mapISA_T_St4hashISA_ESt8equal_toISA_ESaISt4pairISB_SL_EEENS0_15OptionTypeFlagsEEUlS4_SC_SE_SF_E_E9_M_invokeERKSt9_Any_dataS4_SC_OSE_OSF_ = comdat any

$_ZNSt17_Function_handlerIFN7rocksdb6StatusERKNS0_13ConfigOptionsERKNSt7__cxx1112basic_stringIcSt11char_traitsIcESaIcEEEPKvPSA_EZNS0_14OptionTypeInfo4EnumINS0_9CacheTierEEESH_iPKSt13unordered_mapISA_T_St4hashISA_ESt8equal_toISA_ESaISt4pairISB_SL_EEENS0_15OptionTypeFlagsEEUlS4_SC_SE_SF_E_E10_M_managerERSt9_Any_dataRKSZ_St18_Manager_operation = comdat any

$_ZNSt14_Function_base13_Base_managerIZN7rocksdb14OptionTypeInfo4EnumINS1_9CacheTierEEES2_iPKSt13unordered_mapINSt7__cxx1112basic_stringIcSt11char_traitsIcESaIcEEET_St4hashISB_ESt8equal_toISB_ESaISt4pairIKSB_SC_EEENS1_15OptionTypeFlagsEEUlRKNS1_13ConfigOptionsERSI_PKvPSB_E_E9_M_createISW_EEvRSt9_Any_dataOSC_St17integral_constantIbLb1EE = comdat any

$_ZSt10__invoke_rIN7rocksdb6StatusERZNS0_14OptionTypeInfo4EnumINS0_9CacheTierEEES2_iPKSt13unordered_mapINSt7__cxx1112basic_stringIcSt11char_traitsIcESaIcEEET_St4hashISB_ESt8equal_toISB_ESaISt4pairIKSB_SC_EEENS0_15OptionTypeFlagsEEUlRKNS0_13ConfigOptionsERSI_PKvPSB_E_JSR_SS_SU_SV_EENSt9enable_ifIX16is_invocable_r_vISC_T0_DpT1_EESC_E4typeEOSZ_DpOS10_ = comdat any

$_ZNSt14_Function_base13_Base_managerIZN7rocksdb14OptionTypeInfo4EnumINS1_9CacheTierEEES2_iPKSt13unordered_mapINSt7__cxx1112basic_stringIcSt11char_traitsIcESaIcEEET_St4hashISB_ESt8equal_toISB_ESaISt4pairIKSB_SC_EEENS1_15OptionTypeFlagsEEUlRKNS1_13ConfigOptionsERSI_PKvPSB_E_E14_M_get_pointerERKSt9_Any_data = comdat any

$_ZSt13__invoke_implIN7rocksdb6StatusERZNS0_14OptionTypeInfo4EnumINS0_9CacheTierEEES2_iPKSt13unordered_mapINSt7__cxx1112basic_stringIcSt11char_traitsIcESaIcEEET_St4hashISB_ESt8equal_toISB_ESaISt4pairIKSB_SC_EEENS0_15OptionTypeFlagsEEUlRKNS0_13ConfigOptionsERSI_PKvPSB_E_JSR_SS_SU_SV_EESC_St14__invoke_otherOT0_DpOT1_ = comdat any

$_ZZN7rocksdb14OptionTypeInfo4EnumINS_9CacheTierEEES0_iPKSt13unordered_mapINSt7__cxx1112basic_stringIcSt11char_traitsIcESaIcEEET_St4hashIS9_ESt8equal_toIS9_ESaISt4pairIKS9_SA_EEENS_15OptionTypeFlagsEENKUlRKNS_13ConfigOptionsERSG_PKvPS9_E_clESP_SQ_SS_ST_ = comdat any

$_ZN7rocksdb13SerializeEnumINS_9CacheTierEEEbRKSt13unordered_mapINSt7__cxx1112basic_stringIcSt11char_traitsIcESaIcEEET_St4hashIS8_ESt8equal_toIS8_ESaISt4pairIKS8_S9_EEERKS9_PS8_ = comdat any

$_ZNKSt13unordered_mapINSt7__cxx1112basic_stringIcSt11char_traitsIcESaIcEEEN7rocksdb9CacheTierESt4hashIS5_ESt8equal_toIS5_ESaISt4pairIKS5_S7_EEE5beginEv = comdat any

$_ZNKSt8__detail20_Node_const_iteratorISt4pairIKNSt7__cxx1112basic_stringIcSt11char_traitsIcESaIcEEEN7rocksdb9CacheTierEELb0ELb1EEdeEv = comdat any

$_ZNSt8__detail21_Hash_node_value_baseISt4pairIKNSt7__cxx1112basic_stringIcSt11char_traitsIcESaIcEEEN7rocksdb9CacheTierEEE4_M_vEv = comdat any

$_ZNKSt9_Any_data9_M_accessIZN7rocksdb14OptionTypeInfo4EnumINS1_9CacheTierEEES2_iPKSt13unordered_mapINSt7__cxx1112basic_stringIcSt11char_traitsIcESaIcEEET_St4hashISB_ESt8equal_toISB_ESaISt4pairIKSB_SC_EEENS1_15OptionTypeFlagsEEUlRKNS1_13ConfigOptionsERSI_PKvPSB_E_EERKSC_v = comdat any

$_ZNSt9_Any_data9_M_accessIPZN7rocksdb14OptionTypeInfo4EnumINS1_9CacheTierEEES2_iPKSt13unordered_mapINSt7__cxx1112basic_stringIcSt11char_traitsIcESaIcEEET_St4hashISB_ESt8equal_toISB_ESaISt4pairIKSB_SC_EEENS1_15OptionTypeFlagsEEUlRKNS1_13ConfigOptionsERSI_PKvPSB_E_EERSC_v = comdat any

$_ZNSt14_Function_base13_Base_managerIZN7rocksdb14OptionTypeInfo4EnumINS1_9CacheTierEEES2_iPKSt13unordered_mapINSt7__cxx1112basic_stringIcSt11char_traitsIcESaIcEEET_St4hashISB_ESt8equal_toISB_ESaISt4pairIKSB_SC_EEENS1_15OptionTypeFlagsEEUlRKNS1_13ConfigOptionsERSI_PKvPSB_E_E10_M_managerERSt9_Any_dataRKSY_St18_Manager_operation = comdat any

$_ZNSt14_Function_base13_Base_managerIZN7rocksdb14OptionTypeInfo4EnumINS1_9CacheTierEEES2_iPKSt13unordered_mapINSt7__cxx1112basic_stringIcSt11char_traitsIcESaIcEEET_St4hashISB_ESt8equal_toISB_ESaISt4pairIKSB_SC_EEENS1_15OptionTypeFlagsEEUlRKNS1_13ConfigOptionsERSI_PKvPSB_E_E15_M_init_functorIRKSW_EEvRSt9_Any_dataOSC_ = comdat any

$_ZNSt14_Function_base13_Base_managerIZN7rocksdb14OptionTypeInfo4EnumINS1_9CacheTierEEES2_iPKSt13unordered_mapINSt7__cxx1112basic_stringIcSt11char_traitsIcESaIcEEET_St4hashISB_ESt8equal_toISB_ESaISt4pairIKSB_SC_EEENS1_15OptionTypeFlagsEEUlRKNS1_13ConfigOptionsERSI_PKvPSB_E_E10_M_destroyERSt9_Any_dataSt17integral_constantIbLb1EE = comdat any

$_ZNSt14_Function_base13_Base_managerIZN7rocksdb14OptionTypeInfo4EnumINS1_9CacheTierEEES2_iPKSt13unordered_mapINSt7__cxx1112basic_stringIcSt11char_traitsIcESaIcEEET_St4hashISB_ESt8equal_toISB_ESaISt4pairIKSB_SC_EEENS1_15OptionTypeFlagsEEUlRKNS1_13ConfigOptionsERSI_PKvPSB_E_E9_M_createIRKSW_EEvRSt9_Any_dataOSC_St17integral_constantIbLb1EE = comdat any

$_ZNSt9_Any_data9_M_accessIZN7rocksdb14OptionTypeInfo4EnumINS1_9CacheTierEEES2_iPKSt13unordered_mapINSt7__cxx1112basic_stringIcSt11char_traitsIcESaIcEEET_St4hashISB_ESt8equal_toISB_ESaISt4pairIKSB_SC_EEENS1_15OptionTypeFlagsEEUlRKNS1_13ConfigOptionsERSI_PKvPSB_E_EERSC_v = comdat any

$_ZNSt14_Function_base13_Base_managerIZN7rocksdb14OptionTypeInfo4EnumINS1_9CacheTierEEES2_iPKSt13unordered_mapINSt7__cxx1112basic_stringIcSt11char_traitsIcESaIcEEET_St4hashISB_ESt8equal_toISB_ESaISt4pairIKSB_SC_EEENS1_15OptionTypeFlagsEEUlRKNS1_13ConfigOptionsERSI_PKvSU_PSB_E_E21_M_not_empty_functionISW_EEbRKSC_ = comdat any

$_ZNSt14_Function_base13_Base_managerIZN7rocksdb14OptionTypeInfo4EnumINS1_9CacheTierEEES2_iPKSt13unordered_mapINSt7__cxx1112basic_stringIcSt11char_traitsIcESaIcEEET_St4hashISB_ESt8equal_toISB_ESaISt4pairIKSB_SC_EEENS1_15OptionTypeFlagsEEUlRKNS1_13ConfigOptionsERSI_PKvSU_PSB_E_E15_M_init_functorISW_EEvRSt9_Any_dataOSC_ = comdat any

$_ZNSt17_Function_handlerIFbRKN7rocksdb13ConfigOptionsERKNSt7__cxx1112basic_stringIcSt11char_traitsIcESaIcEEEPKvSD_PS9_EZNS0_14OptionTypeInfo4EnumINS0_9CacheTierEEESG_iPKSt13unordered_mapIS9_T_St4hashIS9_ESt8equal_toIS9_ESaISt4pairISA_SK_EEENS0_15OptionTypeFlagsEEUlS3_SB_SD_SD_SE_E_E9_M_invokeERKSt9_Any_dataS3_SB_OSD_S11_OSE_ = comdat any

$_ZNSt17_Function_handlerIFbRKN7rocksdb13ConfigOptionsERKNSt7__cxx1112basic_stringIcSt11char_traitsIcESaIcEEEPKvSD_PS9_EZNS0_14OptionTypeInfo4EnumINS0_9CacheTierEEESG_iPKSt13unordered_mapIS9_T_St4hashIS9_ESt8equal_toIS9_ESaISt4pairISA_SK_EEENS0_15OptionTypeFlagsEEUlS3_SB_SD_SD_SE_E_E10_M_managerERSt9_Any_dataRKSY_St18_Manager_operation = comdat any

$_ZNSt14_Function_base13_Base_managerIZN7rocksdb14OptionTypeInfo4EnumINS1_9CacheTierEEES2_iPKSt13unordered_mapINSt7__cxx1112basic_stringIcSt11char_traitsIcESaIcEEET_St4hashISB_ESt8equal_toISB_ESaISt4pairIKSB_SC_EEENS1_15OptionTypeFlagsEEUlRKNS1_13ConfigOptionsERSI_PKvSU_PSB_E_E9_M_createISW_EEvRSt9_Any_dataOSC_St17integral_constantIbLb1EE = comdat any

$_ZSt10__invoke_rIbRZN7rocksdb14OptionTypeInfo4EnumINS0_9CacheTierEEES1_iPKSt13unordered_mapINSt7__cxx1112basic_stringIcSt11char_traitsIcESaIcEEET_St4hashISA_ESt8equal_toISA_ESaISt4pairIKSA_SB_EEENS0_15OptionTypeFlagsEEUlRKNS0_13ConfigOptionsERSH_PKvST_PSA_E_JSQ_SR_ST_ST_SU_EENSt9enable_ifIX16is_invocable_r_vISB_T0_DpT1_EESB_E4typeEOSY_DpOSZ_ = comdat any

$_ZNSt14_Function_base13_Base_managerIZN7rocksdb14OptionTypeInfo4EnumINS1_9CacheTierEEES2_iPKSt13unordered_mapINSt7__cxx1112basic_stringIcSt11char_traitsIcESaIcEEET_St4hashISB_ESt8equal_toISB_ESaISt4pairIKSB_SC_EEENS1_15OptionTypeFlagsEEUlRKNS1_13ConfigOptionsERSI_PKvSU_PSB_E_E14_M_get_pointerERKSt9_Any_data = comdat any

$_ZSt13__invoke_implIbRZN7rocksdb14OptionTypeInfo4EnumINS0_9CacheTierEEES1_iPKSt13unordered_mapINSt7__cxx1112basic_stringIcSt11char_traitsIcESaIcEEET_St4hashISA_ESt8equal_toISA_ESaISt4pairIKSA_SB_EEENS0_15OptionTypeFlagsEEUlRKNS0_13ConfigOptionsERSH_PKvST_PSA_E_JSQ_SR_ST_ST_SU_EESB_St14__invoke_otherOT0_DpOT1_ = comdat any

$_ZZN7rocksdb14OptionTypeInfo4EnumINS_9CacheTierEEES0_iPKSt13unordered_mapINSt7__cxx1112basic_stringIcSt11char_traitsIcESaIcEEET_St4hashIS9_ESt8equal_toIS9_ESaISt4pairIKS9_SA_EEENS_15OptionTypeFlagsEENKUlRKNS_13ConfigOptionsERSG_PKvSS_PS9_E_clESP_SQ_SS_SS_ST_ = comdat any

$_ZNKSt9_Any_data9_M_accessIZN7rocksdb14OptionTypeInfo4EnumINS1_9CacheTierEEES2_iPKSt13unordered_mapINSt7__cxx1112basic_stringIcSt11char_traitsIcESaIcEEET_St4hashISB_ESt8equal_toISB_ESaISt4pairIKSB_SC_EEENS1_15OptionTypeFlagsEEUlRKNS1_13ConfigOptionsERSI_PKvSU_PSB_E_EERKSC_v = comdat any

$_ZNSt9_Any_data9_M_accessIPZN7rocksdb14OptionTypeInfo4EnumINS1_9CacheTierEEES2_iPKSt13unordered_mapINSt7__cxx1112basic_stringIcSt11char_traitsIcESaIcEEET_St4hashISB_ESt8equal_toISB_ESaISt4pairIKSB_SC_EEENS1_15OptionTypeFlagsEEUlRKNS1_13ConfigOptionsERSI_PKvSU_PSB_E_EERSC_v = comdat any

$_ZNSt14_Function_base13_Base_managerIZN7rocksdb14OptionTypeInfo4EnumINS1_9CacheTierEEES2_iPKSt13unordered_mapINSt7__cxx1112basic_stringIcSt11char_traitsIcESaIcEEET_St4hashISB_ESt8equal_toISB_ESaISt4pairIKSB_SC_EEENS1_15OptionTypeFlagsEEUlRKNS1_13ConfigOptionsERSI_PKvSU_PSB_E_E10_M_managerERSt9_Any_dataRKSY_St18_Manager_operation = comdat any

$_ZNSt14_Function_base13_Base_managerIZN7rocksdb14OptionTypeInfo4EnumINS1_9CacheTierEEES2_iPKSt13unordered_mapINSt7__cxx1112basic_stringIcSt11char_traitsIcESaIcEEET_St4hashISB_ESt8equal_toISB_ESaISt4pairIKSB_SC_EEENS1_15OptionTypeFlagsEEUlRKNS1_13ConfigOptionsERSI_PKvSU_PSB_E_E15_M_init_functorIRKSW_EEvRSt9_Any_dataOSC_ = comdat any

$_ZNSt14_Function_base13_Base_managerIZN7rocksdb14OptionTypeInfo4EnumINS1_9CacheTierEEES2_iPKSt13unordered_mapINSt7__cxx1112basic_stringIcSt11char_traitsIcESaIcEEET_St4hashISB_ESt8equal_toISB_ESaISt4pairIKSB_SC_EEENS1_15OptionTypeFlagsEEUlRKNS1_13ConfigOptionsERSI_PKvSU_PSB_E_E10_M_destroyERSt9_Any_dataSt17integral_constantIbLb1EE = comdat any

$_ZNSt14_Function_base13_Base_managerIZN7rocksdb14OptionTypeInfo4EnumINS1_9CacheTierEEES2_iPKSt13unordered_mapINSt7__cxx1112basic_stringIcSt11char_traitsIcESaIcEEET_St4hashISB_ESt8equal_toISB_ESaISt4pairIKSB_SC_EEENS1_15OptionTypeFlagsEEUlRKNS1_13ConfigOptionsERSI_PKvSU_PSB_E_E9_M_createIRKSW_EEvRSt9_Any_dataOSC_St17integral_constantIbLb1EE = comdat any

$_ZNSt9_Any_data9_M_accessIZN7rocksdb14OptionTypeInfo4EnumINS1_9CacheTierEEES2_iPKSt13unordered_mapINSt7__cxx1112basic_stringIcSt11char_traitsIcESaIcEEET_St4hashISB_ESt8equal_toISB_ESaISt4pairIKSB_SC_EEENS1_15OptionTypeFlagsEEUlRKNS1_13ConfigOptionsERSI_PKvSU_PSB_E_EERSC_v = comdat any

$_ZNSt12__shared_ptrIN7rocksdb11RateLimiterELN9__gnu_cxx12_Lock_policyE2EE5resetIS1_EENSt9enable_ifIXsr21__sp_is_constructibleIS1_T_EE5valueEvE4typeEPS7_ = comdat any

$_ZNSt12__shared_ptrIN7rocksdb11RateLimiterELN9__gnu_cxx12_Lock_policyE2EEC2IS1_vEEPT_ = comdat any

$_ZNSt14__shared_countILN9__gnu_cxx12_Lock_policyE2EEC2IPN7rocksdb11RateLimiterEEET_St17integral_constantIbLb0EE = comdat any

$_ZNSt12__shared_ptrIN7rocksdb11RateLimiterELN9__gnu_cxx12_Lock_policyE2EE31_M_enable_shared_from_this_withIS1_S1_EENSt9enable_ifIXntsr15__has_esft_baseIT0_EE5valueEvE4typeEPT_ = comdat any

$_ZNSt14__shared_countILN9__gnu_cxx12_Lock_policyE2EEC2IPN7rocksdb11RateLimiterEEET_ = comdat any

$_ZNSt15_Sp_counted_ptrIPN7rocksdb11RateLimiterELN9__gnu_cxx12_Lock_policyE2EEC2ES2_ = comdat any

$_ZNSt16_Sp_counted_baseILN9__gnu_cxx12_Lock_policyE2EEC2Ev = comdat any

$_ZNSt15_Sp_counted_ptrIPN7rocksdb11RateLimiterELN9__gnu_cxx12_Lock_policyE2EED2Ev = comdat any

$_ZNSt15_Sp_counted_ptrIPN7rocksdb11RateLimiterELN9__gnu_cxx12_Lock_policyE2EED0Ev = comdat any

$_ZNSt15_Sp_counted_ptrIPN7rocksdb11RateLimiterELN9__gnu_cxx12_Lock_policyE2EE10_M_disposeEv = comdat any

$_ZNSt15_Sp_counted_ptrIPN7rocksdb11RateLimiterELN9__gnu_cxx12_Lock_policyE2EE10_M_destroyEv = comdat any

$_ZNSt15_Sp_counted_ptrIPN7rocksdb11RateLimiterELN9__gnu_cxx12_Lock_policyE2EE14_M_get_deleterERKSt9type_info = comdat any

$_ZNSt16_Sp_counted_baseILN9__gnu_cxx12_Lock_policyE2EED2Ev = comdat any

$_ZNSt16_Sp_counted_baseILN9__gnu_cxx12_Lock_policyE2EED0Ev = comdat any

$_ZNSt16_Sp_counted_baseILN9__gnu_cxx12_Lock_policyE2EE10_M_destroyEv = comdat any

$_ZN7rocksdb13ConfigOptionsC2ERKS0_ = comdat any

$_ZNSt6vectorISt10shared_ptrIN7rocksdb13EventListenerEESaIS3_EEC2Ev = comdat any

$_ZNSt10shared_ptrIN7rocksdb13EventListenerEEC2Ev = comdat any

$_ZStneIN7rocksdb13EventListenerEEbRKSt10shared_ptrIT_EDn = comdat any

$_ZNSt6vectorISt10shared_ptrIN7rocksdb13EventListenerEESaIS3_EE9push_backERKS3_ = comdat any

$_ZNSt6vectorISt10shared_ptrIN7rocksdb13EventListenerEESaIS3_EEaSERKS5_ = comdat any

$_ZNSt10shared_ptrIN7rocksdb14ObjectRegistryEEC2ERKS2_ = comdat any

$_ZNSt12__shared_ptrIN7rocksdb14ObjectRegistryELN9__gnu_cxx12_Lock_policyE2EEC2ERKS4_ = comdat any

$_ZNSt12_Vector_baseISt10shared_ptrIN7rocksdb13EventListenerEESaIS3_EEC2Ev = comdat any

$_ZNSt12_Vector_baseISt10shared_ptrIN7rocksdb13EventListenerEESaIS3_EE12_Vector_implC2Ev = comdat any

$_ZNSaISt10shared_ptrIN7rocksdb13EventListenerEEEC2Ev = comdat any

$_ZNSt15__new_allocatorISt10shared_ptrIN7rocksdb13EventListenerEEEC2Ev = comdat any

$_ZNSt12__shared_ptrIN7rocksdb13EventListenerELN9__gnu_cxx12_Lock_policyE2EEC2Ev = comdat any

$_ZNKSt12__shared_ptrIN7rocksdb13EventListenerELN9__gnu_cxx12_Lock_policyE2EEcvbEv = comdat any

$_ZNSt16allocator_traitsISaISt10shared_ptrIN7rocksdb13EventListenerEEEE9constructIS3_JRKS3_EEEvRS4_PT_DpOT0_ = comdat any

$_ZNSt6vectorISt10shared_ptrIN7rocksdb13EventListenerEESaIS3_EE17_M_realloc_insertIJRKS3_EEEvN9__gnu_cxx17__normal_iteratorIPS3_S5_EEDpOT_ = comdat any

$_ZNSt6vectorISt10shared_ptrIN7rocksdb13EventListenerEESaIS3_EE3endEv = comdat any

$_ZNSt15__new_allocatorISt10shared_ptrIN7rocksdb13EventListenerEEE9constructIS3_JRKS3_EEEvPT_DpOT0_ = comdat any

$_ZNKSt6vectorISt10shared_ptrIN7rocksdb13EventListenerEESaIS3_EE12_M_check_lenEmPKc = comdat any

$_ZN9__gnu_cxxmiIPSt10shared_ptrIN7rocksdb13EventListenerEESt6vectorIS4_SaIS4_EEEENS_17__normal_iteratorIT_T0_E15difference_typeERKSC_SF_ = comdat any

$_ZNSt6vectorISt10shared_ptrIN7rocksdb13EventListenerEESaIS3_EE5beginEv = comdat any

$_ZNSt6vectorISt10shared_ptrIN7rocksdb13EventListenerEESaIS3_EE11_S_relocateEPS3_S6_S6_RS4_ = comdat any

$_ZNK9__gnu_cxx17__normal_iteratorIPSt10shared_ptrIN7rocksdb13EventListenerEESt6vectorIS4_SaIS4_EEE4baseEv = comdat any

$_ZNKSt6vectorISt10shared_ptrIN7rocksdb13EventListenerEESaIS3_EE8max_sizeEv = comdat any

$_ZSt3maxImERKT_S2_S2_ = comdat any

$_ZNSt6vectorISt10shared_ptrIN7rocksdb13EventListenerEESaIS3_EE11_S_max_sizeERKS4_ = comdat any

$_ZNSt16allocator_traitsISaISt10shared_ptrIN7rocksdb13EventListenerEEEE8max_sizeERKS4_ = comdat any

$_ZSt3minImERKT_S2_S2_ = comdat any

$_ZNKSt15__new_allocatorISt10shared_ptrIN7rocksdb13EventListenerEEE8max_sizeEv = comdat any

$_ZN9__gnu_cxx17__normal_iteratorIPSt10shared_ptrIN7rocksdb13EventListenerEESt6vectorIS4_SaIS4_EEEC2ERKS5_ = comdat any

$_ZSt12__relocate_aIPSt10shared_ptrIN7rocksdb13EventListenerEES4_SaIS3_EET0_T_S7_S6_RT1_ = comdat any

$_ZSt14__relocate_a_1IPSt10shared_ptrIN7rocksdb13EventListenerEES4_SaIS3_EET0_T_S7_S6_RT1_ = comdat any

$_ZSt12__niter_baseIPSt10shared_ptrIN7rocksdb13EventListenerEEET_S5_ = comdat any

$_ZSt19__relocate_object_aISt10shared_ptrIN7rocksdb13EventListenerEES3_SaIS3_EEvPT_PT0_RT1_ = comdat any

$_ZNSt16allocator_traitsISaISt10shared_ptrIN7rocksdb13EventListenerEEEE9constructIS3_JS3_EEEvRS4_PT_DpOT0_ = comdat any

$_ZNSt16allocator_traitsISaISt10shared_ptrIN7rocksdb13EventListenerEEEE7destroyIS3_EEvRS4_PT_ = comdat any

$_ZNSt15__new_allocatorISt10shared_ptrIN7rocksdb13EventListenerEEE9constructIS3_JS3_EEEvPT_DpOT0_ = comdat any

$_ZNSt10shared_ptrIN7rocksdb13EventListenerEEC2EOS2_ = comdat any

$_ZNSt12__shared_ptrIN7rocksdb13EventListenerELN9__gnu_cxx12_Lock_policyE2EEC2EOS4_ = comdat any

$_ZNSt15__new_allocatorISt10shared_ptrIN7rocksdb13EventListenerEEE7destroyIS3_EEvPT_ = comdat any

$_ZNKSt6vectorISt10shared_ptrIN7rocksdb13EventListenerEESaIS3_EE8capacityEv = comdat any

$_ZNSt6vectorISt10shared_ptrIN7rocksdb13EventListenerEESaIS3_EE20_M_allocate_and_copyIN9__gnu_cxx17__normal_iteratorIPKS3_S5_EEEEPS3_mT_SD_ = comdat any

$_ZSt8_DestroyIN9__gnu_cxx17__normal_iteratorIPSt10shared_ptrIN7rocksdb13EventListenerEESt6vectorIS5_SaIS5_EEEES5_EvT_SB_RSaIT0_E = comdat any

$_ZSt4copyIN9__gnu_cxx17__normal_iteratorIPKSt10shared_ptrIN7rocksdb13EventListenerEESt6vectorIS5_SaIS5_EEEENS1_IPS5_SA_EEET0_T_SF_SE_ = comdat any

$_ZSt4copyIPSt10shared_ptrIN7rocksdb13EventListenerEES4_ET0_T_S6_S5_ = comdat any

$_ZSt22__uninitialized_copy_aIPSt10shared_ptrIN7rocksdb13EventListenerEES4_S3_ET0_T_S6_S5_RSaIT1_E = comdat any

$_ZSt8_DestroyIN9__gnu_cxx17__normal_iteratorIPSt10shared_ptrIN7rocksdb13EventListenerEESt6vectorIS5_SaIS5_EEEEEvT_SB_ = comdat any

$_ZNSt12_Destroy_auxILb0EE9__destroyIN9__gnu_cxx17__normal_iteratorIPSt10shared_ptrIN7rocksdb13EventListenerEESt6vectorIS7_SaIS7_EEEEEEvT_SD_ = comdat any

$_ZN9__gnu_cxxneIPSt10shared_ptrIN7rocksdb13EventListenerEESt6vectorIS4_SaIS4_EEEEbRKNS_17__normal_iteratorIT_T0_EESE_ = comdat any

$_ZNK9__gnu_cxx17__normal_iteratorIPSt10shared_ptrIN7rocksdb13EventListenerEESt6vectorIS4_SaIS4_EEEdeEv = comdat any

$_ZN9__gnu_cxx17__normal_iteratorIPSt10shared_ptrIN7rocksdb13EventListenerEESt6vectorIS4_SaIS4_EEEppEv = comdat any

$_ZSt13__copy_move_aILb0EN9__gnu_cxx17__normal_iteratorIPKSt10shared_ptrIN7rocksdb13EventListenerEESt6vectorIS5_SaIS5_EEEENS1_IPS5_SA_EEET1_T0_SF_SE_ = comdat any

$_ZSt12__miter_baseIN9__gnu_cxx17__normal_iteratorIPKSt10shared_ptrIN7rocksdb13EventListenerEESt6vectorIS5_SaIS5_EEEEET_SC_ = comdat any

$_ZSt12__niter_wrapIN9__gnu_cxx17__normal_iteratorIPSt10shared_ptrIN7rocksdb13EventListenerEESt6vectorIS5_SaIS5_EEEES6_ET_SB_T0_ = comdat any

$_ZSt14__copy_move_a1ILb0EPKSt10shared_ptrIN7rocksdb13EventListenerEEPS3_ET1_T0_S8_S7_ = comdat any

$_ZSt12__niter_baseIPKSt10shared_ptrIN7rocksdb13EventListenerEESt6vectorIS3_SaIS3_EEET_N9__gnu_cxx17__normal_iteratorIS9_T0_EE = comdat any

$_ZSt12__niter_baseIPSt10shared_ptrIN7rocksdb13EventListenerEESt6vectorIS3_SaIS3_EEET_N9__gnu_cxx17__normal_iteratorIS8_T0_EE = comdat any

$_ZNK9__gnu_cxx17__normal_iteratorIPSt10shared_ptrIN7rocksdb13EventListenerEESt6vectorIS4_SaIS4_EEEplEl = comdat any

$_ZSt14__copy_move_a2ILb0EPKSt10shared_ptrIN7rocksdb13EventListenerEEPS3_ET1_T0_S8_S7_ = comdat any

$_ZNSt11__copy_moveILb0ELb0ESt26random_access_iterator_tagE8__copy_mIPKSt10shared_ptrIN7rocksdb13EventListenerEEPS6_EET0_T_SB_SA_ = comdat any

$_ZNSt10shared_ptrIN7rocksdb13EventListenerEEaSERKS2_ = comdat any

$_ZNSt12__shared_ptrIN7rocksdb13EventListenerELN9__gnu_cxx12_Lock_policyE2EEaSERKS4_ = comdat any

$_ZSt13__copy_move_aILb0EPSt10shared_ptrIN7rocksdb13EventListenerEES4_ET1_T0_S6_S5_ = comdat any

$_ZSt12__miter_baseIPSt10shared_ptrIN7rocksdb13EventListenerEEET_S5_ = comdat any

$_ZSt12__niter_wrapIPSt10shared_ptrIN7rocksdb13EventListenerEEET_RKS5_S5_ = comdat any

$_ZSt14__copy_move_a1ILb0EPSt10shared_ptrIN7rocksdb13EventListenerEES4_ET1_T0_S6_S5_ = comdat any

$_ZSt14__copy_move_a2ILb0EPSt10shared_ptrIN7rocksdb13EventListenerEES4_ET1_T0_S6_S5_ = comdat any

$_ZNSt11__copy_moveILb0ELb0ESt26random_access_iterator_tagE8__copy_mIPSt10shared_ptrIN7rocksdb13EventListenerEES7_EET0_T_S9_S8_ = comdat any

$_ZSt18uninitialized_copyIPSt10shared_ptrIN7rocksdb13EventListenerEES4_ET0_T_S6_S5_ = comdat any

$_ZNSt20__uninitialized_copyILb0EE13__uninit_copyIPSt10shared_ptrIN7rocksdb13EventListenerEES6_EET0_T_S8_S7_ = comdat any

$_ZSt16__do_uninit_copyIPSt10shared_ptrIN7rocksdb13EventListenerEES4_ET0_T_S6_S5_ = comdat any

$_ZSt10_ConstructISt10shared_ptrIN7rocksdb13EventListenerEEJRS3_EEvPT_DpOT0_ = comdat any

$_ZNKSt19__shared_ptr_accessIN7rocksdb13EventListenerELN9__gnu_cxx12_Lock_policyE2ELb0ELb0EEptEv = comdat any

$_ZNKSt19__shared_ptr_accessIN7rocksdb13EventListenerELN9__gnu_cxx12_Lock_policyE2ELb0ELb0EE6_M_getEv = comdat any

$_ZNKSt12__shared_ptrIN7rocksdb13EventListenerELN9__gnu_cxx12_Lock_policyE2EE3getEv = comdat any

$_ZNSt15__uniq_ptr_dataIN7rocksdb12ConfigurableESt14default_deleteIS1_ELb1ELb1EECI2St15__uniq_ptr_implIS1_S3_EEPS1_ = comdat any

$_ZNSt15__uniq_ptr_implIN7rocksdb12ConfigurableESt14default_deleteIS1_EEC2EPS1_ = comdat any

$_ZNSt5tupleIJPN7rocksdb12ConfigurableESt14default_deleteIS1_EEEC2ILb1ETnNSt9enable_ifIXclsr17_TupleConstraintsIXT_ES2_S4_EE37__is_implicitly_default_constructibleEEbE4typeELb1EEEv = comdat any

$_ZNSt15__uniq_ptr_implIN7rocksdb12ConfigurableESt14default_deleteIS1_EE6_M_ptrEv = comdat any

$_ZNSt11_Tuple_implILm0EJPN7rocksdb12ConfigurableESt14default_deleteIS1_EEEC2Ev = comdat any

$_ZNSt11_Tuple_implILm1EJSt14default_deleteIN7rocksdb12ConfigurableEEEEC2Ev = comdat any

$_ZNSt10_Head_baseILm0EPN7rocksdb12ConfigurableELb0EEC2Ev = comdat any

$_ZNSt10_Head_baseILm1ESt14default_deleteIN7rocksdb12ConfigurableEELb1EEC2Ev = comdat any

$_ZSt3getILm0EJPN7rocksdb12ConfigurableESt14default_deleteIS1_EEERNSt13tuple_elementIXT_ESt5tupleIJDpT0_EEE4typeERS9_ = comdat any

$_ZSt12__get_helperILm0EPN7rocksdb12ConfigurableEJSt14default_deleteIS1_EEERT0_RSt11_Tuple_implIXT_EJS5_DpT1_EE = comdat any

$_ZNSt11_Tuple_implILm0EJPN7rocksdb12ConfigurableESt14default_deleteIS1_EEE7_M_headERS5_ = comdat any

$_ZNSt10_Head_baseILm0EPN7rocksdb12ConfigurableELb0EE7_M_headERS3_ = comdat any

$_ZNSt10unique_ptrIN7rocksdb12ConfigurableESt14default_deleteIS1_EE11get_deleterEv = comdat any

$_ZNKSt14default_deleteIN7rocksdb12ConfigurableEEclEPS1_ = comdat any

$_ZNSt15__uniq_ptr_implIN7rocksdb12ConfigurableESt14default_deleteIS1_EE10_M_deleterEv = comdat any

$_ZSt3getILm1EJPN7rocksdb12ConfigurableESt14default_deleteIS1_EEERNSt13tuple_elementIXT_ESt5tupleIJDpT0_EEE4typeERS9_ = comdat any

$_ZSt12__get_helperILm1ESt14default_deleteIN7rocksdb12ConfigurableEEJEERT0_RSt11_Tuple_implIXT_EJS4_DpT1_EE = comdat any

$_ZNSt11_Tuple_implILm1EJSt14default_deleteIN7rocksdb12ConfigurableEEEE7_M_headERS4_ = comdat any

$_ZNSt10_Head_baseILm1ESt14default_deleteIN7rocksdb12ConfigurableEELb1EE7_M_headERS4_ = comdat any

$_ZNKSt19__shared_ptr_accessIN7rocksdb14SstFileManagerELN9__gnu_cxx12_Lock_policyE2ELb0ELb0EE6_M_getEv = comdat any

$_ZNKSt12__shared_ptrIN7rocksdb14SstFileManagerELN9__gnu_cxx12_Lock_policyE2EE3getEv = comdat any

$_ZNKSt19__shared_ptr_accessIN7rocksdb22FileChecksumGenFactoryELN9__gnu_cxx12_Lock_policyE2ELb0ELb0EE6_M_getEv = comdat any

$_ZNKSt12__shared_ptrIN7rocksdb22FileChecksumGenFactoryELN9__gnu_cxx12_Lock_policyE2EE3getEv = comdat any

$_ZTVN7rocksdb21MutableDBConfigurableE = comdat any

$_ZTVN7rocksdb21DBOptionsConfigurableE = comdat any

$_ZTVSt15_Sp_counted_ptrIPN7rocksdb11RateLimiterELN9__gnu_cxx12_Lock_policyE2EE = comdat any

$_ZTVSt16_Sp_counted_baseILN9__gnu_cxx12_Lock_policyE2EE = comdat any

@_ZN7rocksdbL18opt_section_titlesB5cxx11E = internal global [5 x %"class.std::__cxx11::basic_string"] zeroinitializer, align 16
@.str = private unnamed_addr constant [8 x i8] c"Version\00", align 1
@.str.1 = private unnamed_addr constant [10 x i8] c"DBOptions\00", align 1
@.str.2 = private unnamed_addr constant [10 x i8] c"CFOptions\00", align 1
@.str.3 = private unnamed_addr constant [14 x i8] c"TableOptions/\00", align 1
@.str.4 = private unnamed_addr constant [8 x i8] c"Unknown\00", align 1
@__dso_handle = external hidden global i8
@_ZN7rocksdbL28wal_recovery_mode_string_mapB5cxx11E = internal global %"class.std::unordered_map" zeroinitializer, align 8
@.str.6 = private unnamed_addr constant [30 x i8] c"kTolerateCorruptedTailRecords\00", align 1
@.str.7 = private unnamed_addr constant [21 x i8] c"kAbsoluteConsistency\00", align 1
@.str.8 = private unnamed_addr constant [21 x i8] c"kPointInTimeRecovery\00", align 1
@.str.9 = private unnamed_addr constant [25 x i8] c"kSkipAnyCorruptedRecords\00", align 1
@_ZN7rocksdbL22access_hint_string_mapB5cxx11E = internal global %"class.std::unordered_map.8" zeroinitializer, align 8
@.str.11 = private unnamed_addr constant [5 x i8] c"NONE\00", align 1
@.str.12 = private unnamed_addr constant [7 x i8] c"NORMAL\00", align 1
@.str.13 = private unnamed_addr constant [11 x i8] c"SEQUENTIAL\00", align 1
@.str.14 = private unnamed_addr constant [9 x i8] c"WILLNEED\00", align 1
@_ZN7rocksdbL21cache_tier_string_mapB5cxx11E = internal global %"class.std::unordered_map.29" zeroinitializer, align 8
@.str.16 = private unnamed_addr constant [14 x i8] c"kVolatileTier\00", align 1
@.str.17 = private unnamed_addr constant [22 x i8] c"kNonVolatileBlockTier\00", align 1
@_ZN7rocksdbL25info_log_level_string_mapB5cxx11E = internal global %"class.std::unordered_map.50" zeroinitializer, align 8
@.str.19 = private unnamed_addr constant [12 x i8] c"DEBUG_LEVEL\00", align 1
@.str.20 = private unnamed_addr constant [11 x i8] c"INFO_LEVEL\00", align 1
@.str.21 = private unnamed_addr constant [11 x i8] c"WARN_LEVEL\00", align 1
@.str.22 = private unnamed_addr constant [12 x i8] c"ERROR_LEVEL\00", align 1
@.str.23 = private unnamed_addr constant [12 x i8] c"FATAL_LEVEL\00", align 1
@.str.24 = private unnamed_addr constant [13 x i8] c"HEADER_LEVEL\00", align 1
@_ZN7rocksdbL28db_mutable_options_type_infoB5cxx11E = internal global %"class.std::unordered_map.71" zeroinitializer, align 8
@.str.26 = private unnamed_addr constant [16 x i8] c"allow_os_buffer\00", align 1
@.str.27 = private unnamed_addr constant [28 x i8] c"base_background_compactions\00", align 1
@.str.28 = private unnamed_addr constant [20 x i8] c"max_background_jobs\00", align 1
@.str.29 = private unnamed_addr constant [27 x i8] c"max_background_compactions\00", align 1
@.str.30 = private unnamed_addr constant [19 x i8] c"max_subcompactions\00", align 1
@.str.31 = private unnamed_addr constant [28 x i8] c"avoid_flush_during_shutdown\00", align 1
@.str.32 = private unnamed_addr constant [30 x i8] c"writable_file_max_buffer_size\00", align 1
@.str.33 = private unnamed_addr constant [19 x i8] c"delayed_write_rate\00", align 1
@.str.34 = private unnamed_addr constant [19 x i8] c"max_total_wal_size\00", align 1
@.str.35 = private unnamed_addr constant [36 x i8] c"delete_obsolete_files_period_micros\00", align 1
@.str.36 = private unnamed_addr constant [22 x i8] c"stats_dump_period_sec\00", align 1
@.str.37 = private unnamed_addr constant [25 x i8] c"stats_persist_period_sec\00", align 1
@.str.38 = private unnamed_addr constant [26 x i8] c"stats_history_buffer_size\00", align 1
@.str.39 = private unnamed_addr constant [15 x i8] c"max_open_files\00", align 1
@.str.40 = private unnamed_addr constant [15 x i8] c"bytes_per_sync\00", align 1
@.str.41 = private unnamed_addr constant [19 x i8] c"wal_bytes_per_sync\00", align 1
@.str.42 = private unnamed_addr constant [22 x i8] c"strict_bytes_per_sync\00", align 1
@.str.43 = private unnamed_addr constant [26 x i8] c"compaction_readahead_size\00", align 1
@.str.44 = private unnamed_addr constant [23 x i8] c"max_background_flushes\00", align 1
@.str.45 = private unnamed_addr constant [23 x i8] c"daily_offpeak_time_utc\00", align 1
@_ZN7rocksdbL30db_immutable_options_type_infoB5cxx11E = internal global %"class.std::unordered_map.71" zeroinitializer, align 8
@.str.47 = private unnamed_addr constant [22 x i8] c"advise_random_on_open\00", align 1
@.str.48 = private unnamed_addr constant [17 x i8] c"allow_mmap_reads\00", align 1
@.str.49 = private unnamed_addr constant [16 x i8] c"allow_fallocate\00", align 1
@.str.50 = private unnamed_addr constant [18 x i8] c"allow_mmap_writes\00", align 1
@.str.51 = private unnamed_addr constant [17 x i8] c"use_direct_reads\00", align 1
@.str.52 = private unnamed_addr constant [18 x i8] c"use_direct_writes\00", align 1
@.str.53 = private unnamed_addr constant [39 x i8] c"use_direct_io_for_flush_and_compaction\00", align 1
@.str.54 = private unnamed_addr constant [10 x i8] c"allow_2pc\00", align 1
@.str.55 = private unnamed_addr constant [11 x i8] c"wal_filter\00", align 1
@.str.56 = private unnamed_addr constant [18 x i8] c"create_if_missing\00", align 1
@.str.57 = private unnamed_addr constant [31 x i8] c"create_missing_column_families\00", align 1
@.str.58 = private unnamed_addr constant [16 x i8] c"disableDataSync\00", align 1
@.str.59 = private unnamed_addr constant [18 x i8] c"disable_data_sync\00", align 1
@.str.60 = private unnamed_addr constant [23 x i8] c"enable_thread_tracking\00", align 1
@.str.61 = private unnamed_addr constant [16 x i8] c"error_if_exists\00", align 1
@.str.62 = private unnamed_addr constant [28 x i8] c"experimental_allow_mempurge\00", align 1
@.str.63 = private unnamed_addr constant [29 x i8] c"experimental_mempurge_policy\00", align 1
@.str.64 = private unnamed_addr constant [32 x i8] c"experimental_mempurge_threshold\00", align 1
@.str.65 = private unnamed_addr constant [20 x i8] c"is_fd_close_on_exec\00", align 1
@.str.66 = private unnamed_addr constant [16 x i8] c"paranoid_checks\00", align 1
@.str.67 = private unnamed_addr constant [28 x i8] c"flush_verify_memtable_count\00", align 1
@.str.68 = private unnamed_addr constant [31 x i8] c"compaction_verify_record_count\00", align 1
@.str.69 = private unnamed_addr constant [34 x i8] c"track_and_verify_wals_in_manifest\00", align 1
@.str.70 = private unnamed_addr constant [33 x i8] c"verify_sst_unique_id_in_manifest\00", align 1
@.str.71 = private unnamed_addr constant [27 x i8] c"skip_log_error_on_recovery\00", align 1
@.str.72 = private unnamed_addr constant [29 x i8] c"skip_stats_update_on_db_open\00", align 1
@.str.73 = private unnamed_addr constant [40 x i8] c"skip_checking_sst_file_sizes_on_db_open\00", align 1
@.str.74 = private unnamed_addr constant [39 x i8] c"new_table_reader_for_compaction_inputs\00", align 1
@.str.75 = private unnamed_addr constant [30 x i8] c"random_access_max_buffer_size\00", align 1
@.str.76 = private unnamed_addr constant [19 x i8] c"use_adaptive_mutex\00", align 1
@.str.77 = private unnamed_addr constant [10 x i8] c"use_fsync\00", align 1
@.str.78 = private unnamed_addr constant [25 x i8] c"max_file_opening_threads\00", align 1
@.str.79 = private unnamed_addr constant [25 x i8] c"table_cache_numshardbits\00", align 1
@.str.80 = private unnamed_addr constant [21 x i8] c"db_write_buffer_size\00", align 1
@.str.81 = private unnamed_addr constant [18 x i8] c"keep_log_file_num\00", align 1
@.str.82 = private unnamed_addr constant [21 x i8] c"recycle_log_file_num\00", align 1
@.str.83 = private unnamed_addr constant [22 x i8] c"log_file_time_to_roll\00", align 1
@.str.84 = private unnamed_addr constant [28 x i8] c"manifest_preallocation_size\00", align 1
@.str.85 = private unnamed_addr constant [18 x i8] c"max_log_file_size\00", align 1
@.str.86 = private unnamed_addr constant [11 x i8] c"db_log_dir\00", align 1
@.str.87 = private unnamed_addr constant [8 x i8] c"wal_dir\00", align 1
@.str.88 = private unnamed_addr constant [18 x i8] c"WAL_size_limit_MB\00", align 1
@.str.89 = private unnamed_addr constant [16 x i8] c"WAL_ttl_seconds\00", align 1
@.str.90 = private unnamed_addr constant [23 x i8] c"max_manifest_file_size\00", align 1
@.str.91 = private unnamed_addr constant [22 x i8] c"persist_stats_to_disk\00", align 1
@.str.92 = private unnamed_addr constant [27 x i8] c"fail_if_options_file_error\00", align 1
@.str.93 = private unnamed_addr constant [23 x i8] c"enable_pipelined_write\00", align 1
@.str.94 = private unnamed_addr constant [16 x i8] c"unordered_write\00", align 1
@.str.95 = private unnamed_addr constant [32 x i8] c"allow_concurrent_memtable_write\00", align 1
@.str.96 = private unnamed_addr constant [18 x i8] c"wal_recovery_mode\00", align 1
@.str.97 = private unnamed_addr constant [35 x i8] c"enable_write_thread_adaptive_yield\00", align 1
@.str.98 = private unnamed_addr constant [29 x i8] c"write_thread_slow_yield_usec\00", align 1
@.str.99 = private unnamed_addr constant [33 x i8] c"max_write_batch_group_size_bytes\00", align 1
@.str.100 = private unnamed_addr constant [28 x i8] c"write_thread_max_yield_usec\00", align 1
@.str.101 = private unnamed_addr constant [32 x i8] c"access_hint_on_compaction_start\00", align 1
@.str.102 = private unnamed_addr constant [15 x i8] c"info_log_level\00", align 1
@.str.103 = private unnamed_addr constant [18 x i8] c"dump_malloc_stats\00", align 1
@.str.104 = private unnamed_addr constant [28 x i8] c"avoid_flush_during_recovery\00", align 1
@.str.105 = private unnamed_addr constant [20 x i8] c"allow_ingest_behind\00", align 1
@.str.106 = private unnamed_addr constant [17 x i8] c"preserve_deletes\00", align 1
@.str.107 = private unnamed_addr constant [19 x i8] c"concurrent_prepare\00", align 1
@.str.108 = private unnamed_addr constant [17 x i8] c"two_write_queues\00", align 1
@.str.109 = private unnamed_addr constant [17 x i8] c"manual_wal_flush\00", align 1
@.str.110 = private unnamed_addr constant [16 x i8] c"wal_compression\00", align 1
@.str.111 = private unnamed_addr constant [14 x i8] c"seq_per_batch\00", align 1
@.str.112 = private unnamed_addr constant [13 x i8] c"atomic_flush\00", align 1
@.str.113 = private unnamed_addr constant [30 x i8] c"avoid_unnecessary_blocking_io\00", align 1
@.str.114 = private unnamed_addr constant [23 x i8] c"write_dbid_to_manifest\00", align 1
@.str.115 = private unnamed_addr constant [19 x i8] c"log_readahead_size\00", align 1
@.str.116 = private unnamed_addr constant [22 x i8] c"best_efforts_recovery\00", align 1
@.str.117 = private unnamed_addr constant [25 x i8] c"max_bgerror_resume_count\00", align 1
@.str.118 = private unnamed_addr constant [30 x i8] c"bgerror_resume_retry_interval\00", align 1
@.str.119 = private unnamed_addr constant [11 x i8] c"db_host_id\00", align 1
@.str.120 = private unnamed_addr constant [13 x i8] c"rate_limiter\00", align 1
@.str.121 = private unnamed_addr constant [27 x i8] c"rate_limiter_bytes_per_sec\00", align 1
@.str.122 = private unnamed_addr constant [4 x i8] c"env\00", align 1
@.str.123 = private unnamed_addr constant [21 x i8] c"allow_data_in_errors\00", align 1
@.str.124 = private unnamed_addr constant [26 x i8] c"file_checksum_gen_factory\00", align 1
@.str.125 = private unnamed_addr constant [11 x i8] c"statistics\00", align 1
@.str.126 = private unnamed_addr constant [10 x i8] c"listeners\00", align 1
@.str.127 = private unnamed_addr constant [23 x i8] c"lowest_used_cache_tier\00", align 1
@.str.128 = private unnamed_addr constant [29 x i8] c"enforce_single_del_contracts\00", align 1
@_ZN7rocksdb13OptionsHelper14kDBOptionsNameB5cxx11E = global %"class.std::__cxx11::basic_string" zeroinitializer, align 8
@.str.130 = private unnamed_addr constant [52 x i8] c"                        Options.error_if_exists: %d\00", align 1
@.str.131 = private unnamed_addr constant [52 x i8] c"                      Options.create_if_missing: %d\00", align 1
@.str.132 = private unnamed_addr constant [52 x i8] c"                        Options.paranoid_checks: %d\00", align 1
@.str.133 = private unnamed_addr constant [52 x i8] c"            Options.flush_verify_memtable_count: %d\00", align 1
@.str.134 = private unnamed_addr constant [52 x i8] c"         Options.compaction_verify_record_count: %d\00", align 1
@.str.135 = private unnamed_addr constant [76 x i8] c"                              Options.track_and_verify_wals_in_manifest: %d\00", align 1
@.str.136 = private unnamed_addr constant [52 x i8] c"       Options.verify_sst_unique_id_in_manifest: %d\00", align 1
@.str.137 = private unnamed_addr constant [52 x i8] c"                                    Options.env: %p\00", align 1
@.str.138 = private unnamed_addr constant [52 x i8] c"                                     Options.fs: %s\00", align 1
@.str.139 = private unnamed_addr constant [52 x i8] c"                               Options.info_log: %p\00", align 1
@.str.140 = private unnamed_addr constant [52 x i8] c"               Options.max_file_opening_threads: %d\00", align 1
@.str.141 = private unnamed_addr constant [52 x i8] c"                             Options.statistics: %p\00", align 1
@.str.142 = private unnamed_addr constant [64 x i8] c"                             Options.statistics stats level: %u\00", align 1
@.str.143 = private unnamed_addr constant [52 x i8] c"                              Options.use_fsync: %d\00", align 1
@.str.144 = private unnamed_addr constant [53 x i8] c"                      Options.max_log_file_size: %zu\00", align 1
@.str.145 = private unnamed_addr constant [53 x i8] c"                 Options.max_manifest_file_size: %lu\00", align 1
@.str.146 = private unnamed_addr constant [53 x i8] c"                  Options.log_file_time_to_roll: %zu\00", align 1
@.str.147 = private unnamed_addr constant [53 x i8] c"                      Options.keep_log_file_num: %zu\00", align 1
@.str.148 = private unnamed_addr constant [53 x i8] c"                   Options.recycle_log_file_num: %zu\00", align 1
@.str.149 = private unnamed_addr constant [52 x i8] c"                        Options.allow_fallocate: %d\00", align 1
@.str.150 = private unnamed_addr constant [52 x i8] c"                       Options.allow_mmap_reads: %d\00", align 1
@.str.151 = private unnamed_addr constant [52 x i8] c"                      Options.allow_mmap_writes: %d\00", align 1
@.str.152 = private unnamed_addr constant [52 x i8] c"                       Options.use_direct_reads: %d\00", align 1
@.str.153 = private unnamed_addr constant [74 x i8] c"                       Options.use_direct_io_for_flush_and_compaction: %d\00", align 1
@.str.154 = private unnamed_addr constant [52 x i8] c"         Options.create_missing_column_families: %d\00", align 1
@.str.155 = private unnamed_addr constant [52 x i8] c"                             Options.db_log_dir: %s\00", align 1
@.str.156 = private unnamed_addr constant [52 x i8] c"                                Options.wal_dir: %s\00", align 1
@.str.157 = private unnamed_addr constant [52 x i8] c"               Options.table_cache_numshardbits: %d\00", align 1
@.str.158 = private unnamed_addr constant [53 x i8] c"                        Options.WAL_ttl_seconds: %lu\00", align 1
@.str.159 = private unnamed_addr constant [53 x i8] c"                      Options.WAL_size_limit_MB: %lu\00", align 1
@.str.160 = private unnamed_addr constant [69 x i8] c"                       Options.max_write_batch_group_size_bytes: %lu\00", align 1
@.str.161 = private unnamed_addr constant [53 x i8] c"            Options.manifest_preallocation_size: %zu\00", align 1
@.str.162 = private unnamed_addr constant [52 x i8] c"                    Options.is_fd_close_on_exec: %d\00", align 1
@.str.163 = private unnamed_addr constant [52 x i8] c"                  Options.advise_random_on_open: %d\00", align 1
@.str.164 = private unnamed_addr constant [53 x i8] c"                   Options.db_write_buffer_size: %zu\00", align 1
@.str.165 = private unnamed_addr constant [52 x i8] c"                   Options.write_buffer_manager: %p\00", align 1
@.str.166 = private unnamed_addr constant [52 x i8] c"        Options.access_hint_on_compaction_start: %d\00", align 1
@.str.167 = private unnamed_addr constant [53 x i8] c"          Options.random_access_max_buffer_size: %zu\00", align 1
@.str.168 = private unnamed_addr constant [52 x i8] c"                     Options.use_adaptive_mutex: %d\00", align 1
@.str.169 = private unnamed_addr constant [52 x i8] c"                           Options.rate_limiter: %p\00", align 1
@.str.170 = private unnamed_addr constant [53 x i8] c"    Options.sst_file_manager.rate_bytes_per_sec: %li\00", align 1
@.str.171 = private unnamed_addr constant [52 x i8] c"                      Options.wal_recovery_mode: %d\00", align 1
@.str.172 = private unnamed_addr constant [52 x i8] c"                 Options.enable_thread_tracking: %d\00", align 1
@.str.173 = private unnamed_addr constant [52 x i8] c"                 Options.enable_pipelined_write: %d\00", align 1
@.str.174 = private unnamed_addr constant [45 x i8] c"                 Options.unordered_write: %d\00", align 1
@.str.175 = private unnamed_addr constant [52 x i8] c"        Options.allow_concurrent_memtable_write: %d\00", align 1
@.str.176 = private unnamed_addr constant [52 x i8] c"     Options.enable_write_thread_adaptive_yield: %d\00", align 1
@.str.177 = private unnamed_addr constant [53 x i8] c"            Options.write_thread_max_yield_usec: %lu\00", align 1
@.str.178 = private unnamed_addr constant [53 x i8] c"           Options.write_thread_slow_yield_usec: %lu\00", align 1
@.str.179 = private unnamed_addr constant [53 x i8] c"                              Options.row_cache: %zu\00", align 1
@.str.180 = private unnamed_addr constant [54 x i8] c"                              Options.row_cache: None\00", align 1
@.str.181 = private unnamed_addr constant [52 x i8] c"                             Options.wal_filter: %s\00", align 1
@.str.182 = private unnamed_addr constant [5 x i8] c"None\00", align 1
@.str.183 = private unnamed_addr constant [52 x i8] c"            Options.avoid_flush_during_recovery: %d\00", align 1
@.str.184 = private unnamed_addr constant [44 x i8] c"            Options.allow_ingest_behind: %d\00", align 1
@.str.185 = private unnamed_addr constant [41 x i8] c"            Options.two_write_queues: %d\00", align 1
@.str.186 = private unnamed_addr constant [41 x i8] c"            Options.manual_wal_flush: %d\00", align 1
@.str.187 = private unnamed_addr constant [40 x i8] c"            Options.wal_compression: %d\00", align 1
@.str.188 = private unnamed_addr constant [37 x i8] c"            Options.atomic_flush: %d\00", align 1
@.str.189 = private unnamed_addr constant [54 x i8] c"            Options.avoid_unnecessary_blocking_io: %d\00", align 1
@.str.190 = private unnamed_addr constant [50 x i8] c"                Options.persist_stats_to_disk: %u\00", align 1
@.str.191 = private unnamed_addr constant [51 x i8] c"                Options.write_dbid_to_manifest: %d\00", align 1
@.str.192 = private unnamed_addr constant [48 x i8] c"                Options.log_readahead_size: %zu\00", align 1
@.str.193 = private unnamed_addr constant [54 x i8] c"                Options.file_checksum_gen_factory: %s\00", align 1
@_ZN7rocksdbL28kUnknownFileChecksumFuncNameE = internal constant [8 x i8] c"Unknown\00", align 1
@.str.194 = private unnamed_addr constant [50 x i8] c"                Options.best_efforts_recovery: %d\00", align 1
@.str.195 = private unnamed_addr constant [52 x i8] c"               Options.max_bgerror_resume_count: %d\00", align 1
@.str.196 = private unnamed_addr constant [54 x i8] c"           Options.bgerror_resume_retry_interval: %lu\00", align 1
@.str.197 = private unnamed_addr constant [45 x i8] c"            Options.allow_data_in_errors: %d\00", align 1
@.str.198 = private unnamed_addr constant [35 x i8] c"            Options.db_host_id: %s\00", align 1
@.str.199 = private unnamed_addr constant [53 x i8] c"            Options.enforce_single_del_contracts: %s\00", align 1
@.str.200 = private unnamed_addr constant [5 x i8] c"true\00", align 1
@.str.201 = private unnamed_addr constant [6 x i8] c"false\00", align 1
@.str.202 = private unnamed_addr constant [44 x i8] c"            Options.max_background_jobs: %d\00", align 1
@.str.203 = private unnamed_addr constant [51 x i8] c"            Options.max_background_compactions: %d\00", align 1
@.str.204 = private unnamed_addr constant [43 x i8] c"            Options.max_subcompactions: %u\00", align 1
@.str.205 = private unnamed_addr constant [52 x i8] c"            Options.avoid_flush_during_shutdown: %d\00", align 1
@.str.206 = private unnamed_addr constant [53 x i8] c"          Options.writable_file_max_buffer_size: %zu\00", align 1
@.str.207 = private unnamed_addr constant [45 x i8] c"            Options.delayed_write_rate : %lu\00", align 1
@.str.208 = private unnamed_addr constant [44 x i8] c"            Options.max_total_wal_size: %lu\00", align 1
@.str.209 = private unnamed_addr constant [61 x i8] c"            Options.delete_obsolete_files_period_micros: %lu\00", align 1
@.str.210 = private unnamed_addr constant [52 x i8] c"                  Options.stats_dump_period_sec: %u\00", align 1
@.str.211 = private unnamed_addr constant [53 x i8] c"                Options.stats_persist_period_sec: %d\00", align 1
@.str.212 = private unnamed_addr constant [55 x i8] c"                Options.stats_history_buffer_size: %zu\00", align 1
@.str.213 = private unnamed_addr constant [52 x i8] c"                         Options.max_open_files: %d\00", align 1
@.str.214 = private unnamed_addr constant [53 x i8] c"                         Options.bytes_per_sync: %lu\00", align 1
@.str.215 = private unnamed_addr constant [53 x i8] c"                     Options.wal_bytes_per_sync: %lu\00", align 1
@.str.216 = private unnamed_addr constant [52 x i8] c"                  Options.strict_bytes_per_sync: %d\00", align 1
@.str.217 = private unnamed_addr constant [45 x i8] c"      Options.compaction_readahead_size: %zu\00", align 1
@.str.218 = private unnamed_addr constant [52 x i8] c"                 Options.max_background_flushes: %d\00", align 1
@.str.219 = private unnamed_addr constant [35 x i8] c"Options.daily_offpeak_time_utc: %s\00", align 1
@.str.220 = private unnamed_addr constant [17 x i8] c"MutableDBOptions\00", align 1
@_ZTVN7rocksdb21MutableDBConfigurableE = linkonce_odr unnamed_addr constant { [16 x ptr] } { [16 x ptr] [ptr null, ptr null, ptr @_ZN7rocksdb21MutableDBConfigurableD2Ev, ptr @_ZN7rocksdb21MutableDBConfigurableD0Ev, ptr @_ZNK7rocksdb12Configurable9GetOptionERKNS_13ConfigOptionsERKNSt7__cxx1112basic_stringIcSt11char_traitsIcESaIcEEEPS9_, ptr @_ZNK7rocksdb12Configurable13AreEquivalentERKNS_13ConfigOptionsEPKS0_PNSt7__cxx1112basic_stringIcSt11char_traitsIcESaIcEEE, ptr @_ZNK7rocksdb12Configurable19GetPrintableOptionsB5cxx11Ev, ptr @_ZN7rocksdb12Configurable14PrepareOptionsERKNS_13ConfigOptionsE, ptr @_ZNK7rocksdb12Configurable15ValidateOptionsERKNS_9DBOptionsERKNS_19ColumnFamilyOptionsE, ptr @_ZNK7rocksdb12Configurable13GetOptionsPtrERKNSt7__cxx1112basic_stringIcSt11char_traitsIcESaIcEEE, ptr @_ZN7rocksdb12Configurable18ParseStringOptionsERKNS_13ConfigOptionsERKNSt7__cxx1112basic_stringIcSt11char_traitsIcESaIcEEE, ptr @_ZN7rocksdb12Configurable16ConfigureOptionsERKNS_13ConfigOptionsERKSt13unordered_mapINSt7__cxx1112basic_stringIcSt11char_traitsIcESaIcEEESA_St4hashISA_ESt8equal_toISA_ESaISt4pairIKSA_SA_EEEPSJ_, ptr @_ZN7rocksdb12Configurable11ParseOptionERKNS_13ConfigOptionsERKNS_14OptionTypeInfoERKNSt7__cxx1112basic_stringIcSt11char_traitsIcESaIcEEESE_Pv, ptr @_ZNK7rocksdb21MutableDBConfigurable15OptionsAreEqualERKNS_13ConfigOptionsERKNS_14OptionTypeInfoERKNSt7__cxx1112basic_stringIcSt11char_traitsIcESaIcEEEPKvSG_PSC_, ptr @_ZNK7rocksdb12Configurable16SerializeOptionsERKNS_13ConfigOptionsERKNSt7__cxx1112basic_stringIcSt11char_traitsIcESaIcEEE, ptr @_ZNK7rocksdb12Configurable13GetOptionNameERKNSt7__cxx1112basic_stringIcSt11char_traitsIcESaIcEEE] }, comdat, align 8
@_ZTVN7rocksdb12ConfigurableE = external unnamed_addr constant { [16 x ptr] }, align 8
@.str.221 = private unnamed_addr constant [1 x i8] zeroinitializer, align 1
@_ZN7rocksdb14kNullptrStringB5cxx11E = external global %"class.std::__cxx11::basic_string", align 8
@_ZTVN7rocksdb21DBOptionsConfigurableE = linkonce_odr unnamed_addr constant { [16 x ptr] } { [16 x ptr] [ptr null, ptr null, ptr @_ZN7rocksdb21DBOptionsConfigurableD2Ev, ptr @_ZN7rocksdb21DBOptionsConfigurableD0Ev, ptr @_ZNK7rocksdb12Configurable9GetOptionERKNS_13ConfigOptionsERKNSt7__cxx1112basic_stringIcSt11char_traitsIcESaIcEEEPS9_, ptr @_ZNK7rocksdb12Configurable13AreEquivalentERKNS_13ConfigOptionsEPKS0_PNSt7__cxx1112basic_stringIcSt11char_traitsIcESaIcEEE, ptr @_ZNK7rocksdb12Configurable19GetPrintableOptionsB5cxx11Ev, ptr @_ZN7rocksdb12Configurable14PrepareOptionsERKNS_13ConfigOptionsE, ptr @_ZNK7rocksdb12Configurable15ValidateOptionsERKNS_9DBOptionsERKNS_19ColumnFamilyOptionsE, ptr @_ZNK7rocksdb21DBOptionsConfigurable13GetOptionsPtrERKNSt7__cxx1112basic_stringIcSt11char_traitsIcESaIcEEE, ptr @_ZN7rocksdb12Configurable18ParseStringOptionsERKNS_13ConfigOptionsERKNSt7__cxx1112basic_stringIcSt11char_traitsIcESaIcEEE, ptr @_ZN7rocksdb21DBOptionsConfigurable16ConfigureOptionsERKNS_13ConfigOptionsERKSt13unordered_mapINSt7__cxx1112basic_stringIcSt11char_traitsIcESaIcEEESA_St4hashISA_ESt8equal_toISA_ESaISt4pairIKSA_SA_EEEPSJ_, ptr @_ZN7rocksdb12Configurable11ParseOptionERKNS_13ConfigOptionsERKNS_14OptionTypeInfoERKNSt7__cxx1112basic_stringIcSt11char_traitsIcESaIcEEESE_Pv, ptr @_ZNK7rocksdb21MutableDBConfigurable15OptionsAreEqualERKNS_13ConfigOptionsERKNS_14OptionTypeInfoERKNSt7__cxx1112basic_stringIcSt11char_traitsIcESaIcEEEPKvSG_PSC_, ptr @_ZNK7rocksdb12Configurable16SerializeOptionsERKNS_13ConfigOptionsERKNSt7__cxx1112basic_stringIcSt11char_traitsIcESaIcEEE, ptr @_ZNK7rocksdb12Configurable13GetOptionNameERKNSt7__cxx1112basic_stringIcSt11char_traitsIcESaIcEEE] }, comdat, align 8
@__libc_single_threaded = external global i8, align 1
@.str.222 = private unnamed_addr constant [19 x i8] c"ImmutableDBOptions\00", align 1
@.str.223 = private unnamed_addr constant [50 x i8] c"basic_string: construction from null is not valid\00", align 1
@.str.224 = private unnamed_addr constant [3 x i8] c"id\00", align 1
@.str.225 = private unnamed_addr constant [17 x i8] c"No enum mapping \00", align 1
@.str.226 = private unnamed_addr constant [21 x i8] c"No mapping for enum \00", align 1
@_ZTVSt15_Sp_counted_ptrIPN7rocksdb11RateLimiterELN9__gnu_cxx12_Lock_policyE2EE = linkonce_odr unnamed_addr constant { [7 x ptr] } { [7 x ptr] [ptr null, ptr null, ptr @_ZNSt15_Sp_counted_ptrIPN7rocksdb11RateLimiterELN9__gnu_cxx12_Lock_policyE2EED2Ev, ptr @_ZNSt15_Sp_counted_ptrIPN7rocksdb11RateLimiterELN9__gnu_cxx12_Lock_policyE2EED0Ev, ptr @_ZNSt15_Sp_counted_ptrIPN7rocksdb11RateLimiterELN9__gnu_cxx12_Lock_policyE2EE10_M_disposeEv, ptr @_ZNSt15_Sp_counted_ptrIPN7rocksdb11RateLimiterELN9__gnu_cxx12_Lock_policyE2EE10_M_destroyEv, ptr @_ZNSt15_Sp_counted_ptrIPN7rocksdb11RateLimiterELN9__gnu_cxx12_Lock_policyE2EE14_M_get_deleterERKSt9type_info] }, comdat, align 8
@_ZTVSt16_Sp_counted_baseILN9__gnu_cxx12_Lock_policyE2EE = linkonce_odr unnamed_addr constant { [7 x ptr] } { [7 x ptr] [ptr null, ptr null, ptr @_ZNSt16_Sp_counted_baseILN9__gnu_cxx12_Lock_policyE2EED2Ev, ptr @_ZNSt16_Sp_counted_baseILN9__gnu_cxx12_Lock_policyE2EED0Ev, ptr @__cxa_pure_virtual, ptr @_ZNSt16_Sp_counted_baseILN9__gnu_cxx12_Lock_policyE2EE10_M_destroyEv, ptr @__cxa_pure_virtual] }, comdat, align 8
@.str.227 = private unnamed_addr constant [26 x i8] c"vector::_M_realloc_insert\00", align 1
@.str.228 = private unnamed_addr constant [2 x i8] c";\00", align 1
@.str.229 = private unnamed_addr constant [2 x i8] c"{\00", align 1
@.str.230 = private unnamed_addr constant [2 x i8] c":\00", align 1
@.str.231 = private unnamed_addr constant [2 x i8] c"}\00", align 1
@llvm.global_ctors = appending global [1 x { i32, ptr, ptr }] [{ i32, ptr, ptr } { i32 65535, ptr @_GLOBAL__sub_I_db_options.cc, ptr null }]

@_ZN7rocksdb18ImmutableDBOptionsC1Ev = unnamed_addr alias void (ptr), ptr @_ZN7rocksdb18ImmutableDBOptionsC2Ev
@_ZN7rocksdb18ImmutableDBOptionsC1ERKNS_9DBOptionsE = unnamed_addr alias void (ptr, ptr), ptr @_ZN7rocksdb18ImmutableDBOptionsC2ERKNS_9DBOptionsE
@_ZN7rocksdb16MutableDBOptionsC1Ev = unnamed_addr alias void (ptr), ptr @_ZN7rocksdb16MutableDBOptionsC2Ev
@_ZN7rocksdb16MutableDBOptionsC1ERKNS_9DBOptionsE = unnamed_addr alias void (ptr, ptr), ptr @_ZN7rocksdb16MutableDBOptionsC2ERKNS_9DBOptionsE

; Function Attrs: uwtable
define internal void @__cxx_global_var_init() #0 section ".text.startup" personality ptr @__gxx_personality_v0 {
entry:
  %arrayinit.endOfInit = alloca ptr, align 8
  %ref.tmp = alloca %"class.std::allocator", align 1
  %exn.slot = alloca ptr, align 8
  %ehselector.slot = alloca i32, align 4
  %ref.tmp1 = alloca %"class.std::allocator", align 1
  %ref.tmp4 = alloca %"class.std::allocator", align 1
  %ref.tmp7 = alloca %"class.std::allocator", align 1
  %ref.tmp10 = alloca %"class.std::allocator", align 1
  %cleanup.isactive = alloca i1, align 1
  store i1 true, ptr %cleanup.isactive, align 1
  store ptr @_ZN7rocksdbL18opt_section_titlesB5cxx11E, ptr %arrayinit.endOfInit, align 8
  call void @_ZNSaIcEC1Ev(ptr noundef nonnull align 1 dereferenceable(1) %ref.tmp) #3
  invoke void @_ZNSt7__cxx1112basic_stringIcSt11char_traitsIcESaIcEEC2IS3_EEPKcRKS3_(ptr noundef nonnull align 8 dereferenceable(32) @_ZN7rocksdbL18opt_section_titlesB5cxx11E, ptr noundef @.str, ptr noundef nonnull align 1 dereferenceable(1) %ref.tmp)
          to label %invoke.cont unwind label %lpad

invoke.cont:                                      ; preds = %entry
  store ptr getelementptr inbounds (%"class.std::__cxx11::basic_string", ptr @_ZN7rocksdbL18opt_section_titlesB5cxx11E, i64 1), ptr %arrayinit.endOfInit, align 8
  call void @_ZNSaIcEC1Ev(ptr noundef nonnull align 1 dereferenceable(1) %ref.tmp1) #3
  invoke void @_ZNSt7__cxx1112basic_stringIcSt11char_traitsIcESaIcEEC2IS3_EEPKcRKS3_(ptr noundef nonnull align 8 dereferenceable(32) getelementptr inbounds (%"class.std::__cxx11::basic_string", ptr @_ZN7rocksdbL18opt_section_titlesB5cxx11E, i64 1), ptr noundef @.str.1, ptr noundef nonnull align 1 dereferenceable(1) %ref.tmp1)
          to label %invoke.cont3 unwind label %lpad2

invoke.cont3:                                     ; preds = %invoke.cont
  store ptr getelementptr inbounds (%"class.std::__cxx11::basic_string", ptr @_ZN7rocksdbL18opt_section_titlesB5cxx11E, i64 2), ptr %arrayinit.endOfInit, align 8
  call void @_ZNSaIcEC1Ev(ptr noundef nonnull align 1 dereferenceable(1) %ref.tmp4) #3
  invoke void @_ZNSt7__cxx1112basic_stringIcSt11char_traitsIcESaIcEEC2IS3_EEPKcRKS3_(ptr noundef nonnull align 8 dereferenceable(32) getelementptr inbounds (%"class.std::__cxx11::basic_string", ptr @_ZN7rocksdbL18opt_section_titlesB5cxx11E, i64 2), ptr noundef @.str.2, ptr noundef nonnull align 1 dereferenceable(1) %ref.tmp4)
          to label %invoke.cont6 unwind label %lpad5

invoke.cont6:                                     ; preds = %invoke.cont3
  store ptr getelementptr inbounds (%"class.std::__cxx11::basic_string", ptr @_ZN7rocksdbL18opt_section_titlesB5cxx11E, i64 3), ptr %arrayinit.endOfInit, align 8
  call void @_ZNSaIcEC1Ev(ptr noundef nonnull align 1 dereferenceable(1) %ref.tmp7) #3
  invoke void @_ZNSt7__cxx1112basic_stringIcSt11char_traitsIcESaIcEEC2IS3_EEPKcRKS3_(ptr noundef nonnull align 8 dereferenceable(32) getelementptr inbounds (%"class.std::__cxx11::basic_string", ptr @_ZN7rocksdbL18opt_section_titlesB5cxx11E, i64 3), ptr noundef @.str.3, ptr noundef nonnull align 1 dereferenceable(1) %ref.tmp7)
          to label %invoke.cont9 unwind label %lpad8

invoke.cont9:                                     ; preds = %invoke.cont6
  store ptr getelementptr inbounds (%"class.std::__cxx11::basic_string", ptr @_ZN7rocksdbL18opt_section_titlesB5cxx11E, i64 4), ptr %arrayinit.endOfInit, align 8
  call void @_ZNSaIcEC1Ev(ptr noundef nonnull align 1 dereferenceable(1) %ref.tmp10) #3
  invoke void @_ZNSt7__cxx1112basic_stringIcSt11char_traitsIcESaIcEEC2IS3_EEPKcRKS3_(ptr noundef nonnull align 8 dereferenceable(32) getelementptr inbounds (%"class.std::__cxx11::basic_string", ptr @_ZN7rocksdbL18opt_section_titlesB5cxx11E, i64 4), ptr noundef @.str.4, ptr noundef nonnull align 1 dereferenceable(1) %ref.tmp10)
          to label %invoke.cont12 unwind label %lpad11

invoke.cont12:                                    ; preds = %invoke.cont9
  store i1 false, ptr %cleanup.isactive, align 1
  call void @_ZNSaIcED1Ev(ptr noundef nonnull align 1 dereferenceable(1) %ref.tmp10) #3
  call void @_ZNSaIcED1Ev(ptr noundef nonnull align 1 dereferenceable(1) %ref.tmp7) #3
  call void @_ZNSaIcED1Ev(ptr noundef nonnull align 1 dereferenceable(1) %ref.tmp4) #3
  call void @_ZNSaIcED1Ev(ptr noundef nonnull align 1 dereferenceable(1) %ref.tmp1) #3
  call void @_ZNSaIcED1Ev(ptr noundef nonnull align 1 dereferenceable(1) %ref.tmp) #3
  %0 = call i32 @__cxa_atexit(ptr @__cxx_global_array_dtor, ptr null, ptr @__dso_handle) #3
  ret void

lpad:                                             ; preds = %entry
  %1 = landingpad { ptr, i32 }
          cleanup
  %2 = extractvalue { ptr, i32 } %1, 0
  store ptr %2, ptr %exn.slot, align 8
  %3 = extractvalue { ptr, i32 } %1, 1
  store i32 %3, ptr %ehselector.slot, align 4
  br label %ehcleanup15

lpad2:                                            ; preds = %invoke.cont
  %4 = landingpad { ptr, i32 }
          cleanup
  %5 = extractvalue { ptr, i32 } %4, 0
  store ptr %5, ptr %exn.slot, align 8
  %6 = extractvalue { ptr, i32 } %4, 1
  store i32 %6, ptr %ehselector.slot, align 4
  br label %ehcleanup14

lpad5:                                            ; preds = %invoke.cont3
  %7 = landingpad { ptr, i32 }
          cleanup
  %8 = extractvalue { ptr, i32 } %7, 0
  store ptr %8, ptr %exn.slot, align 8
  %9 = extractvalue { ptr, i32 } %7, 1
  store i32 %9, ptr %ehselector.slot, align 4
  br label %ehcleanup13

lpad8:                                            ; preds = %invoke.cont6
  %10 = landingpad { ptr, i32 }
          cleanup
  %11 = extractvalue { ptr, i32 } %10, 0
  store ptr %11, ptr %exn.slot, align 8
  %12 = extractvalue { ptr, i32 } %10, 1
  store i32 %12, ptr %ehselector.slot, align 4
  br label %ehcleanup

lpad11:                                           ; preds = %invoke.cont9
  %13 = landingpad { ptr, i32 }
          cleanup
  %14 = extractvalue { ptr, i32 } %13, 0
  store ptr %14, ptr %exn.slot, align 8
  %15 = extractvalue { ptr, i32 } %13, 1
  store i32 %15, ptr %ehselector.slot, align 4
  call void @_ZNSaIcED1Ev(ptr noundef nonnull align 1 dereferenceable(1) %ref.tmp10) #3
  br label %ehcleanup

ehcleanup:                                        ; preds = %lpad11, %lpad8
  call void @_ZNSaIcED1Ev(ptr noundef nonnull align 1 dereferenceable(1) %ref.tmp7) #3
  br label %ehcleanup13

ehcleanup13:                                      ; preds = %ehcleanup, %lpad5
  call void @_ZNSaIcED1Ev(ptr noundef nonnull align 1 dereferenceable(1) %ref.tmp4) #3
  br label %ehcleanup14

ehcleanup14:                                      ; preds = %ehcleanup13, %lpad2
  call void @_ZNSaIcED1Ev(ptr noundef nonnull align 1 dereferenceable(1) %ref.tmp1) #3
  br label %ehcleanup15

ehcleanup15:                                      ; preds = %ehcleanup14, %lpad
  call void @_ZNSaIcED1Ev(ptr noundef nonnull align 1 dereferenceable(1) %ref.tmp) #3
  %cleanup.is_active = load i1, ptr %cleanup.isactive, align 1
  br i1 %cleanup.is_active, label %cleanup.action, label %cleanup.done

cleanup.action:                                   ; preds = %ehcleanup15
  %16 = load ptr, ptr %arrayinit.endOfInit, align 8
  %arraydestroy.isempty = icmp eq ptr @_ZN7rocksdbL18opt_section_titlesB5cxx11E, %16
  br i1 %arraydestroy.isempty, label %arraydestroy.done17, label %arraydestroy.body

arraydestroy.body:                                ; preds = %arraydestroy.body, %cleanup.action
  %arraydestroy.elementPast = phi ptr [ %16, %cleanup.action ], [ %arraydestroy.element, %arraydestroy.body ]
  %arraydestroy.element = getelementptr inbounds %"class.std::__cxx11::basic_string", ptr %arraydestroy.elementPast, i64 -1
  call void @_ZNSt7__cxx1112basic_stringIcSt11char_traitsIcESaIcEED1Ev(ptr noundef nonnull align 8 dereferenceable(32) %arraydestroy.element) #3
  %arraydestroy.done = icmp eq ptr %arraydestroy.element, @_ZN7rocksdbL18opt_section_titlesB5cxx11E
  br i1 %arraydestroy.done, label %arraydestroy.done17, label %arraydestroy.body

arraydestroy.done17:                              ; preds = %arraydestroy.body, %cleanup.action
  br label %cleanup.done

cleanup.done:                                     ; preds = %arraydestroy.done17, %ehcleanup15
  br label %eh.resume

eh.resume:                                        ; preds = %cleanup.done
  %exn = load ptr, ptr %exn.slot, align 8
  %sel = load i32, ptr %ehselector.slot, align 4
  %lpad.val = insertvalue { ptr, i32 } poison, ptr %exn, 0
  %lpad.val18 = insertvalue { ptr, i32 } %lpad.val, i32 %sel, 1
  resume { ptr, i32 } %lpad.val18
}

; Function Attrs: nounwind
declare void @_ZNSaIcEC1Ev(ptr noundef nonnull align 1 dereferenceable(1)) unnamed_addr #1

; Function Attrs: mustprogress uwtable
define linkonce_odr void @_ZNSt7__cxx1112basic_stringIcSt11char_traitsIcESaIcEEC2IS3_EEPKcRKS3_(ptr noundef nonnull align 8 dereferenceable(32) %this, ptr noundef %__s, ptr noundef nonnull align 1 dereferenceable(1) %__a) unnamed_addr #2 comdat align 2 personality ptr @__gxx_personality_v0 {
entry:
  %this.addr = alloca ptr, align 8
  %__s.addr = alloca ptr, align 8
  %__a.addr = alloca ptr, align 8
  %exn.slot = alloca ptr, align 8
  %ehselector.slot = alloca i32, align 4
  %__end = alloca ptr, align 8
  store ptr %this, ptr %this.addr, align 8
  store ptr %__s, ptr %__s.addr, align 8
  store ptr %__a, ptr %__a.addr, align 8
  %this1 = load ptr, ptr %this.addr, align 8
  %_M_dataplus = getelementptr inbounds %"class.std::__cxx11::basic_string", ptr %this1, i32 0, i32 0
  %call = call noundef ptr @_ZNSt7__cxx1112basic_stringIcSt11char_traitsIcESaIcEE13_M_local_dataEv(ptr noundef nonnull align 8 dereferenceable(32) %this1)
  %0 = load ptr, ptr %__a.addr, align 8
  call void @_ZNSt7__cxx1112basic_stringIcSt11char_traitsIcESaIcEE12_Alloc_hiderC1EPcRKS3_(ptr noundef nonnull align 8 dereferenceable(8) %_M_dataplus, ptr noundef %call, ptr noundef nonnull align 1 dereferenceable(1) %0)
  %1 = load ptr, ptr %__s.addr, align 8
  %cmp = icmp eq ptr %1, null
  br i1 %cmp, label %if.then, label %if.end

if.then:                                          ; preds = %entry
  invoke void @_ZSt19__throw_logic_errorPKc(ptr noundef @.str.223) #13
          to label %invoke.cont unwind label %lpad

invoke.cont:                                      ; preds = %if.then
  unreachable

lpad:                                             ; preds = %invoke.cont2, %if.end, %if.then
  %2 = landingpad { ptr, i32 }
          cleanup
  %3 = extractvalue { ptr, i32 } %2, 0
  store ptr %3, ptr %exn.slot, align 8
  %4 = extractvalue { ptr, i32 } %2, 1
  store i32 %4, ptr %ehselector.slot, align 4
  call void @_ZNSt7__cxx1112basic_stringIcSt11char_traitsIcESaIcEE12_Alloc_hiderD2Ev(ptr noundef nonnull align 8 dereferenceable(8) %_M_dataplus) #3
  br label %eh.resume

if.end:                                           ; preds = %entry
  %5 = load ptr, ptr %__s.addr, align 8
  %6 = load ptr, ptr %__s.addr, align 8
  %call3 = invoke noundef i64 @_ZNSt11char_traitsIcE6lengthEPKc(ptr noundef %6)
          to label %invoke.cont2 unwind label %lpad

invoke.cont2:                                     ; preds = %if.end
  %add.ptr = getelementptr inbounds i8, ptr %5, i64 %call3
  store ptr %add.ptr, ptr %__end, align 8
  %7 = load ptr, ptr %__s.addr, align 8
  %8 = load ptr, ptr %__end, align 8
  invoke void @_ZNSt7__cxx1112basic_stringIcSt11char_traitsIcESaIcEE12_M_constructIPKcEEvT_S8_St20forward_iterator_tag(ptr noundef nonnull align 8 dereferenceable(32) %this1, ptr noundef %7, ptr noundef %8)
          to label %invoke.cont4 unwind label %lpad

invoke.cont4:                                     ; preds = %invoke.cont2
  ret void

eh.resume:                                        ; preds = %lpad
  %exn = load ptr, ptr %exn.slot, align 8
  %sel = load i32, ptr %ehselector.slot, align 4
  %lpad.val = insertvalue { ptr, i32 } poison, ptr %exn, 0
  %lpad.val5 = insertvalue { ptr, i32 } %lpad.val, i32 %sel, 1
  resume { ptr, i32 } %lpad.val5
}

declare i32 @__gxx_personality_v0(...)

; Function Attrs: nounwind
declare void @_ZNSaIcED1Ev(ptr noundef nonnull align 1 dereferenceable(1)) unnamed_addr #1

; Function Attrs: nounwind
declare void @_ZNSt7__cxx1112basic_stringIcSt11char_traitsIcESaIcEED1Ev(ptr noundef nonnull align 8 dereferenceable(32)) unnamed_addr #1

; Function Attrs: uwtable
define internal void @__cxx_global_array_dtor(ptr noundef %0) #0 section ".text.startup" {
entry:
  %.addr = alloca ptr, align 8
  store ptr %0, ptr %.addr, align 8
  br label %arraydestroy.body

arraydestroy.body:                                ; preds = %arraydestroy.body, %entry
  %arraydestroy.elementPast = phi ptr [ getelementptr inbounds (%"class.std::__cxx11::basic_string", ptr @_ZN7rocksdbL18opt_section_titlesB5cxx11E, i64 5), %entry ], [ %arraydestroy.element, %arraydestroy.body ]
  %arraydestroy.element = getelementptr inbounds %"class.std::__cxx11::basic_string", ptr %arraydestroy.elementPast, i64 -1
  call void @_ZNSt7__cxx1112basic_stringIcSt11char_traitsIcESaIcEED1Ev(ptr noundef nonnull align 8 dereferenceable(32) %arraydestroy.element) #3
  %arraydestroy.done = icmp eq ptr %arraydestroy.element, @_ZN7rocksdbL18opt_section_titlesB5cxx11E
  br i1 %arraydestroy.done, label %arraydestroy.done1, label %arraydestroy.body

arraydestroy.done1:                               ; preds = %arraydestroy.body
  ret void
}

; Function Attrs: nounwind
declare i32 @__cxa_atexit(ptr, ptr, ptr) #3

; Function Attrs: uwtable
define internal void @__cxx_global_var_init.5() #0 section ".text.startup" personality ptr @__gxx_personality_v0 {
entry:
  %agg.tmp = alloca %"class.std::initializer_list", align 8
  %ref.tmp = alloca [4 x %"struct.std::pair"], align 8
  %arrayinit.endOfInit = alloca ptr, align 8
  %ref.tmp1 = alloca i8, align 1
  %exn.slot = alloca ptr, align 8
  %ehselector.slot = alloca i32, align 4
  %ref.tmp2 = alloca i8, align 1
  %ref.tmp5 = alloca i8, align 1
  %ref.tmp8 = alloca i8, align 1
  %ref.tmp11 = alloca %"struct.std::hash", align 1
  %ref.tmp12 = alloca %"struct.std::equal_to", align 1
  %ref.tmp13 = alloca %"class.std::allocator.5", align 1
  %arrayinit.begin = getelementptr inbounds [4 x %"struct.std::pair"], ptr %ref.tmp, i64 0, i64 0
  store ptr %arrayinit.begin, ptr %arrayinit.endOfInit, align 8
  store i8 0, ptr %ref.tmp1, align 1
  invoke void @_ZNSt4pairIKNSt7__cxx1112basic_stringIcSt11char_traitsIcESaIcEEEN7rocksdb15WALRecoveryModeEEC2IRA30_KcS8_TnNSt9enable_ifIXaaclsr5_PCCPE22_MoveConstructiblePairIT_T0_EEclsr5_PCCPE30_ImplicitlyMoveConvertiblePairISF_SG_EEEbE4typeELb1EEEOSF_OSG_(ptr noundef nonnull align 8 dereferenceable(33) %arrayinit.begin, ptr noundef nonnull align 1 dereferenceable(30) @.str.6, ptr noundef nonnull align 1 dereferenceable(1) %ref.tmp1)
          to label %invoke.cont unwind label %lpad

invoke.cont:                                      ; preds = %entry
  %arrayinit.element = getelementptr inbounds %"struct.std::pair", ptr %arrayinit.begin, i64 1
  store ptr %arrayinit.element, ptr %arrayinit.endOfInit, align 8
  store i8 1, ptr %ref.tmp2, align 1
  invoke void @_ZNSt4pairIKNSt7__cxx1112basic_stringIcSt11char_traitsIcESaIcEEEN7rocksdb15WALRecoveryModeEEC2IRA21_KcS8_TnNSt9enable_ifIXaaclsr5_PCCPE22_MoveConstructiblePairIT_T0_EEclsr5_PCCPE30_ImplicitlyMoveConvertiblePairISF_SG_EEEbE4typeELb1EEEOSF_OSG_(ptr noundef nonnull align 8 dereferenceable(33) %arrayinit.element, ptr noundef nonnull align 1 dereferenceable(21) @.str.7, ptr noundef nonnull align 1 dereferenceable(1) %ref.tmp2)
          to label %invoke.cont3 unwind label %lpad

invoke.cont3:                                     ; preds = %invoke.cont
  %arrayinit.element4 = getelementptr inbounds %"struct.std::pair", ptr %arrayinit.element, i64 1
  store ptr %arrayinit.element4, ptr %arrayinit.endOfInit, align 8
  store i8 2, ptr %ref.tmp5, align 1
  invoke void @_ZNSt4pairIKNSt7__cxx1112basic_stringIcSt11char_traitsIcESaIcEEEN7rocksdb15WALRecoveryModeEEC2IRA21_KcS8_TnNSt9enable_ifIXaaclsr5_PCCPE22_MoveConstructiblePairIT_T0_EEclsr5_PCCPE30_ImplicitlyMoveConvertiblePairISF_SG_EEEbE4typeELb1EEEOSF_OSG_(ptr noundef nonnull align 8 dereferenceable(33) %arrayinit.element4, ptr noundef nonnull align 1 dereferenceable(21) @.str.8, ptr noundef nonnull align 1 dereferenceable(1) %ref.tmp5)
          to label %invoke.cont6 unwind label %lpad

invoke.cont6:                                     ; preds = %invoke.cont3
  %arrayinit.element7 = getelementptr inbounds %"struct.std::pair", ptr %arrayinit.element4, i64 1
  store ptr %arrayinit.element7, ptr %arrayinit.endOfInit, align 8
  store i8 3, ptr %ref.tmp8, align 1
  invoke void @_ZNSt4pairIKNSt7__cxx1112basic_stringIcSt11char_traitsIcESaIcEEEN7rocksdb15WALRecoveryModeEEC2IRA25_KcS8_TnNSt9enable_ifIXaaclsr5_PCCPE22_MoveConstructiblePairIT_T0_EEclsr5_PCCPE30_ImplicitlyMoveConvertiblePairISF_SG_EEEbE4typeELb1EEEOSF_OSG_(ptr noundef nonnull align 8 dereferenceable(33) %arrayinit.element7, ptr noundef nonnull align 1 dereferenceable(25) @.str.9, ptr noundef nonnull align 1 dereferenceable(1) %ref.tmp8)
          to label %invoke.cont9 unwind label %lpad

invoke.cont9:                                     ; preds = %invoke.cont6
  %_M_array = getelementptr inbounds %"class.std::initializer_list", ptr %agg.tmp, i32 0, i32 0
  %arraystart = getelementptr inbounds [4 x %"struct.std::pair"], ptr %ref.tmp, i64 0, i64 0
  store ptr %arraystart, ptr %_M_array, align 8
  %_M_len = getelementptr inbounds %"class.std::initializer_list", ptr %agg.tmp, i32 0, i32 1
  store i64 4, ptr %_M_len, align 8
  call void @_ZNSaISt4pairIKNSt7__cxx1112basic_stringIcSt11char_traitsIcESaIcEEEN7rocksdb15WALRecoveryModeEEEC2Ev(ptr noundef nonnull align 1 dereferenceable(1) %ref.tmp13) #3
  %0 = getelementptr inbounds { ptr, i64 }, ptr %agg.tmp, i32 0, i32 0
  %1 = load ptr, ptr %0, align 8
  %2 = getelementptr inbounds { ptr, i64 }, ptr %agg.tmp, i32 0, i32 1
  %3 = load i64, ptr %2, align 8
  invoke void @_ZNSt13unordered_mapINSt7__cxx1112basic_stringIcSt11char_traitsIcESaIcEEEN7rocksdb15WALRecoveryModeESt4hashIS5_ESt8equal_toIS5_ESaISt4pairIKS5_S7_EEEC2ESt16initializer_listISE_EmRKS9_RKSB_RKSF_(ptr noundef nonnull align 8 dereferenceable(56) @_ZN7rocksdbL28wal_recovery_mode_string_mapB5cxx11E, ptr %1, i64 %3, i64 noundef 0, ptr noundef nonnull align 1 dereferenceable(1) %ref.tmp11, ptr noundef nonnull align 1 dereferenceable(1) %ref.tmp12, ptr noundef nonnull align 1 dereferenceable(1) %ref.tmp13)
          to label %invoke.cont15 unwind label %lpad14

invoke.cont15:                                    ; preds = %invoke.cont9
  call void @_ZNSaISt4pairIKNSt7__cxx1112basic_stringIcSt11char_traitsIcESaIcEEEN7rocksdb15WALRecoveryModeEEED2Ev(ptr noundef nonnull align 1 dereferenceable(1) %ref.tmp13) #3
  %array.begin = getelementptr inbounds [4 x %"struct.std::pair"], ptr %ref.tmp, i32 0, i32 0
  %4 = getelementptr inbounds %"struct.std::pair", ptr %array.begin, i64 4
  br label %arraydestroy.body16

arraydestroy.body16:                              ; preds = %arraydestroy.body16, %invoke.cont15
  %arraydestroy.elementPast17 = phi ptr [ %4, %invoke.cont15 ], [ %arraydestroy.element18, %arraydestroy.body16 ]
  %arraydestroy.element18 = getelementptr inbounds %"struct.std::pair", ptr %arraydestroy.elementPast17, i64 -1
  call void @_ZNSt4pairIKNSt7__cxx1112basic_stringIcSt11char_traitsIcESaIcEEEN7rocksdb15WALRecoveryModeEED2Ev(ptr noundef nonnull align 8 dereferenceable(33) %arraydestroy.element18) #3
  %arraydestroy.done19 = icmp eq ptr %arraydestroy.element18, %array.begin
  br i1 %arraydestroy.done19, label %arraydestroy.done20, label %arraydestroy.body16

arraydestroy.done20:                              ; preds = %arraydestroy.body16
  %5 = call i32 @__cxa_atexit(ptr @_ZNSt13unordered_mapINSt7__cxx1112basic_stringIcSt11char_traitsIcESaIcEEEN7rocksdb15WALRecoveryModeESt4hashIS5_ESt8equal_toIS5_ESaISt4pairIKS5_S7_EEED2Ev, ptr @_ZN7rocksdbL28wal_recovery_mode_string_mapB5cxx11E, ptr @__dso_handle) #3
  ret void

lpad:                                             ; preds = %invoke.cont6, %invoke.cont3, %invoke.cont, %entry
  %6 = landingpad { ptr, i32 }
          cleanup
  %7 = extractvalue { ptr, i32 } %6, 0
  store ptr %7, ptr %exn.slot, align 8
  %8 = extractvalue { ptr, i32 } %6, 1
  store i32 %8, ptr %ehselector.slot, align 4
  %9 = load ptr, ptr %arrayinit.endOfInit, align 8
  %arraydestroy.isempty = icmp eq ptr %arrayinit.begin, %9
  br i1 %arraydestroy.isempty, label %arraydestroy.done10, label %arraydestroy.body

arraydestroy.body:                                ; preds = %arraydestroy.body, %lpad
  %arraydestroy.elementPast = phi ptr [ %9, %lpad ], [ %arraydestroy.element, %arraydestroy.body ]
  %arraydestroy.element = getelementptr inbounds %"struct.std::pair", ptr %arraydestroy.elementPast, i64 -1
  call void @_ZNSt4pairIKNSt7__cxx1112basic_stringIcSt11char_traitsIcESaIcEEEN7rocksdb15WALRecoveryModeEED2Ev(ptr noundef nonnull align 8 dereferenceable(33) %arraydestroy.element) #3
  %arraydestroy.done = icmp eq ptr %arraydestroy.element, %arrayinit.begin
  br i1 %arraydestroy.done, label %arraydestroy.done10, label %arraydestroy.body

arraydestroy.done10:                              ; preds = %arraydestroy.body, %lpad
  br label %eh.resume

lpad14:                                           ; preds = %invoke.cont9
  %10 = landingpad { ptr, i32 }
          cleanup
  %11 = extractvalue { ptr, i32 } %10, 0
  store ptr %11, ptr %exn.slot, align 8
  %12 = extractvalue { ptr, i32 } %10, 1
  store i32 %12, ptr %ehselector.slot, align 4
  call void @_ZNSaISt4pairIKNSt7__cxx1112basic_stringIcSt11char_traitsIcESaIcEEEN7rocksdb15WALRecoveryModeEEED2Ev(ptr noundef nonnull align 1 dereferenceable(1) %ref.tmp13) #3
  %array.begin21 = getelementptr inbounds [4 x %"struct.std::pair"], ptr %ref.tmp, i32 0, i32 0
  %13 = getelementptr inbounds %"struct.std::pair", ptr %array.begin21, i64 4
  br label %arraydestroy.body22

arraydestroy.body22:                              ; preds = %arraydestroy.body22, %lpad14
  %arraydestroy.elementPast23 = phi ptr [ %13, %lpad14 ], [ %arraydestroy.element24, %arraydestroy.body22 ]
  %arraydestroy.element24 = getelementptr inbounds %"struct.std::pair", ptr %arraydestroy.elementPast23, i64 -1
  call void @_ZNSt4pairIKNSt7__cxx1112basic_stringIcSt11char_traitsIcESaIcEEEN7rocksdb15WALRecoveryModeEED2Ev(ptr noundef nonnull align 8 dereferenceable(33) %arraydestroy.element24) #3
  %arraydestroy.done25 = icmp eq ptr %arraydestroy.element24, %array.begin21
  br i1 %arraydestroy.done25, label %arraydestroy.done26, label %arraydestroy.body22

arraydestroy.done26:                              ; preds = %arraydestroy.body22
  br label %eh.resume

eh.resume:                                        ; preds = %arraydestroy.done26, %arraydestroy.done10
  %exn = load ptr, ptr %exn.slot, align 8
  %sel = load i32, ptr %ehselector.slot, align 4
  %lpad.val = insertvalue { ptr, i32 } poison, ptr %exn, 0
  %lpad.val27 = insertvalue { ptr, i32 } %lpad.val, i32 %sel, 1
  resume { ptr, i32 } %lpad.val27
}

; Function Attrs: mustprogress uwtable
define linkonce_odr void @_ZNSt4pairIKNSt7__cxx1112basic_stringIcSt11char_traitsIcESaIcEEEN7rocksdb15WALRecoveryModeEEC2IRA30_KcS8_TnNSt9enable_ifIXaaclsr5_PCCPE22_MoveConstructiblePairIT_T0_EEclsr5_PCCPE30_ImplicitlyMoveConvertiblePairISF_SG_EEEbE4typeELb1EEEOSF_OSG_(ptr noundef nonnull align 8 dereferenceable(33) %this, ptr noundef nonnull align 1 dereferenceable(30) %__x, ptr noundef nonnull align 1 dereferenceable(1) %__y) unnamed_addr #2 comdat align 2 personality ptr @__gxx_personality_v0 {
entry:
  %this.addr = alloca ptr, align 8
  %__x.addr = alloca ptr, align 8
  %__y.addr = alloca ptr, align 8
  %ref.tmp = alloca %"class.std::allocator", align 1
  %exn.slot = alloca ptr, align 8
  %ehselector.slot = alloca i32, align 4
  store ptr %this, ptr %this.addr, align 8
  store ptr %__x, ptr %__x.addr, align 8
  store ptr %__y, ptr %__y.addr, align 8
  %this1 = load ptr, ptr %this.addr, align 8
  %first = getelementptr inbounds %"struct.std::pair", ptr %this1, i32 0, i32 0
  %0 = load ptr, ptr %__x.addr, align 8
  %arraydecay = getelementptr inbounds [30 x i8], ptr %0, i64 0, i64 0
  call void @_ZNSaIcEC1Ev(ptr noundef nonnull align 1 dereferenceable(1) %ref.tmp) #3
  invoke void @_ZNSt7__cxx1112basic_stringIcSt11char_traitsIcESaIcEEC2IS3_EEPKcRKS3_(ptr noundef nonnull align 8 dereferenceable(32) %first, ptr noundef %arraydecay, ptr noundef nonnull align 1 dereferenceable(1) %ref.tmp)
          to label %invoke.cont unwind label %lpad

invoke.cont:                                      ; preds = %entry
  call void @_ZNSaIcED1Ev(ptr noundef nonnull align 1 dereferenceable(1) %ref.tmp) #3
  %second = getelementptr inbounds %"struct.std::pair", ptr %this1, i32 0, i32 1
  %1 = load ptr, ptr %__y.addr, align 8
  %2 = load i8, ptr %1, align 1
  store i8 %2, ptr %second, align 8
  ret void

lpad:                                             ; preds = %entry
  %3 = landingpad { ptr, i32 }
          cleanup
  %4 = extractvalue { ptr, i32 } %3, 0
  store ptr %4, ptr %exn.slot, align 8
  %5 = extractvalue { ptr, i32 } %3, 1
  store i32 %5, ptr %ehselector.slot, align 4
  call void @_ZNSaIcED1Ev(ptr noundef nonnull align 1 dereferenceable(1) %ref.tmp) #3
  br label %eh.resume

eh.resume:                                        ; preds = %lpad
  %exn = load ptr, ptr %exn.slot, align 8
  %sel = load i32, ptr %ehselector.slot, align 4
  %lpad.val = insertvalue { ptr, i32 } poison, ptr %exn, 0
  %lpad.val2 = insertvalue { ptr, i32 } %lpad.val, i32 %sel, 1
  resume { ptr, i32 } %lpad.val2
}

; Function Attrs: mustprogress uwtable
define linkonce_odr void @_ZNSt4pairIKNSt7__cxx1112basic_stringIcSt11char_traitsIcESaIcEEEN7rocksdb15WALRecoveryModeEEC2IRA21_KcS8_TnNSt9enable_ifIXaaclsr5_PCCPE22_MoveConstructiblePairIT_T0_EEclsr5_PCCPE30_ImplicitlyMoveConvertiblePairISF_SG_EEEbE4typeELb1EEEOSF_OSG_(ptr noundef nonnull align 8 dereferenceable(33) %this, ptr noundef nonnull align 1 dereferenceable(21) %__x, ptr noundef nonnull align 1 dereferenceable(1) %__y) unnamed_addr #2 comdat align 2 personality ptr @__gxx_personality_v0 {
entry:
  %this.addr = alloca ptr, align 8
  %__x.addr = alloca ptr, align 8
  %__y.addr = alloca ptr, align 8
  %ref.tmp = alloca %"class.std::allocator", align 1
  %exn.slot = alloca ptr, align 8
  %ehselector.slot = alloca i32, align 4
  store ptr %this, ptr %this.addr, align 8
  store ptr %__x, ptr %__x.addr, align 8
  store ptr %__y, ptr %__y.addr, align 8
  %this1 = load ptr, ptr %this.addr, align 8
  %first = getelementptr inbounds %"struct.std::pair", ptr %this1, i32 0, i32 0
  %0 = load ptr, ptr %__x.addr, align 8
  %arraydecay = getelementptr inbounds [21 x i8], ptr %0, i64 0, i64 0
  call void @_ZNSaIcEC1Ev(ptr noundef nonnull align 1 dereferenceable(1) %ref.tmp) #3
  invoke void @_ZNSt7__cxx1112basic_stringIcSt11char_traitsIcESaIcEEC2IS3_EEPKcRKS3_(ptr noundef nonnull align 8 dereferenceable(32) %first, ptr noundef %arraydecay, ptr noundef nonnull align 1 dereferenceable(1) %ref.tmp)
          to label %invoke.cont unwind label %lpad

invoke.cont:                                      ; preds = %entry
  call void @_ZNSaIcED1Ev(ptr noundef nonnull align 1 dereferenceable(1) %ref.tmp) #3
  %second = getelementptr inbounds %"struct.std::pair", ptr %this1, i32 0, i32 1
  %1 = load ptr, ptr %__y.addr, align 8
  %2 = load i8, ptr %1, align 1
  store i8 %2, ptr %second, align 8
  ret void

lpad:                                             ; preds = %entry
  %3 = landingpad { ptr, i32 }
          cleanup
  %4 = extractvalue { ptr, i32 } %3, 0
  store ptr %4, ptr %exn.slot, align 8
  %5 = extractvalue { ptr, i32 } %3, 1
  store i32 %5, ptr %ehselector.slot, align 4
  call void @_ZNSaIcED1Ev(ptr noundef nonnull align 1 dereferenceable(1) %ref.tmp) #3
  br label %eh.resume

eh.resume:                                        ; preds = %lpad
  %exn = load ptr, ptr %exn.slot, align 8
  %sel = load i32, ptr %ehselector.slot, align 4
  %lpad.val = insertvalue { ptr, i32 } poison, ptr %exn, 0
  %lpad.val2 = insertvalue { ptr, i32 } %lpad.val, i32 %sel, 1
  resume { ptr, i32 } %lpad.val2
}

; Function Attrs: mustprogress uwtable
define linkonce_odr void @_ZNSt4pairIKNSt7__cxx1112basic_stringIcSt11char_traitsIcESaIcEEEN7rocksdb15WALRecoveryModeEEC2IRA25_KcS8_TnNSt9enable_ifIXaaclsr5_PCCPE22_MoveConstructiblePairIT_T0_EEclsr5_PCCPE30_ImplicitlyMoveConvertiblePairISF_SG_EEEbE4typeELb1EEEOSF_OSG_(ptr noundef nonnull align 8 dereferenceable(33) %this, ptr noundef nonnull align 1 dereferenceable(25) %__x, ptr noundef nonnull align 1 dereferenceable(1) %__y) unnamed_addr #2 comdat align 2 personality ptr @__gxx_personality_v0 {
entry:
  %this.addr = alloca ptr, align 8
  %__x.addr = alloca ptr, align 8
  %__y.addr = alloca ptr, align 8
  %ref.tmp = alloca %"class.std::allocator", align 1
  %exn.slot = alloca ptr, align 8
  %ehselector.slot = alloca i32, align 4
  store ptr %this, ptr %this.addr, align 8
  store ptr %__x, ptr %__x.addr, align 8
  store ptr %__y, ptr %__y.addr, align 8
  %this1 = load ptr, ptr %this.addr, align 8
  %first = getelementptr inbounds %"struct.std::pair", ptr %this1, i32 0, i32 0
  %0 = load ptr, ptr %__x.addr, align 8
  %arraydecay = getelementptr inbounds [25 x i8], ptr %0, i64 0, i64 0
  call void @_ZNSaIcEC1Ev(ptr noundef nonnull align 1 dereferenceable(1) %ref.tmp) #3
  invoke void @_ZNSt7__cxx1112basic_stringIcSt11char_traitsIcESaIcEEC2IS3_EEPKcRKS3_(ptr noundef nonnull align 8 dereferenceable(32) %first, ptr noundef %arraydecay, ptr noundef nonnull align 1 dereferenceable(1) %ref.tmp)
          to label %invoke.cont unwind label %lpad

invoke.cont:                                      ; preds = %entry
  call void @_ZNSaIcED1Ev(ptr noundef nonnull align 1 dereferenceable(1) %ref.tmp) #3
  %second = getelementptr inbounds %"struct.std::pair", ptr %this1, i32 0, i32 1
  %1 = load ptr, ptr %__y.addr, align 8
  %2 = load i8, ptr %1, align 1
  store i8 %2, ptr %second, align 8
  ret void

lpad:                                             ; preds = %entry
  %3 = landingpad { ptr, i32 }
          cleanup
  %4 = extractvalue { ptr, i32 } %3, 0
  store ptr %4, ptr %exn.slot, align 8
  %5 = extractvalue { ptr, i32 } %3, 1
  store i32 %5, ptr %ehselector.slot, align 4
  call void @_ZNSaIcED1Ev(ptr noundef nonnull align 1 dereferenceable(1) %ref.tmp) #3
  br label %eh.resume

eh.resume:                                        ; preds = %lpad
  %exn = load ptr, ptr %exn.slot, align 8
  %sel = load i32, ptr %ehselector.slot, align 4
  %lpad.val = insertvalue { ptr, i32 } poison, ptr %exn, 0
  %lpad.val2 = insertvalue { ptr, i32 } %lpad.val, i32 %sel, 1
  resume { ptr, i32 } %lpad.val2
}

; Function Attrs: mustprogress nounwind uwtable
define linkonce_odr void @_ZNSt4pairIKNSt7__cxx1112basic_stringIcSt11char_traitsIcESaIcEEEN7rocksdb15WALRecoveryModeEED2Ev(ptr noundef nonnull align 8 dereferenceable(33) %this) unnamed_addr #4 comdat align 2 {
entry:
  %this.addr = alloca ptr, align 8
  store ptr %this, ptr %this.addr, align 8
  %this1 = load ptr, ptr %this.addr, align 8
  %first = getelementptr inbounds %"struct.std::pair", ptr %this1, i32 0, i32 0
  call void @_ZNSt7__cxx1112basic_stringIcSt11char_traitsIcESaIcEED1Ev(ptr noundef nonnull align 8 dereferenceable(32) %first) #3
  ret void
}

; Function Attrs: mustprogress nounwind uwtable
define linkonce_odr void @_ZNSaISt4pairIKNSt7__cxx1112basic_stringIcSt11char_traitsIcESaIcEEEN7rocksdb15WALRecoveryModeEEEC2Ev(ptr noundef nonnull align 1 dereferenceable(1) %this) unnamed_addr #4 comdat align 2 {
entry:
  %this.addr = alloca ptr, align 8
  store ptr %this, ptr %this.addr, align 8
  %this1 = load ptr, ptr %this.addr, align 8
  call void @_ZNSt15__new_allocatorISt4pairIKNSt7__cxx1112basic_stringIcSt11char_traitsIcESaIcEEEN7rocksdb15WALRecoveryModeEEEC2Ev(ptr noundef nonnull align 1 dereferenceable(1) %this1) #3
  ret void
}

; Function Attrs: mustprogress uwtable
define linkonce_odr void @_ZNSt13unordered_mapINSt7__cxx1112basic_stringIcSt11char_traitsIcESaIcEEEN7rocksdb15WALRecoveryModeESt4hashIS5_ESt8equal_toIS5_ESaISt4pairIKS5_S7_EEEC2ESt16initializer_listISE_EmRKS9_RKSB_RKSF_(ptr noundef nonnull align 8 dereferenceable(56) %this, ptr %__l.coerce0, i64 %__l.coerce1, i64 noundef %__n, ptr noundef nonnull align 1 dereferenceable(1) %__hf, ptr noundef nonnull align 1 dereferenceable(1) %__eql, ptr noundef nonnull align 1 dereferenceable(1) %__a) unnamed_addr #2 comdat align 2 {
entry:
  %__l = alloca %"class.std::initializer_list", align 8
  %this.addr = alloca ptr, align 8
  %__n.addr = alloca i64, align 8
  %__hf.addr = alloca ptr, align 8
  %__eql.addr = alloca ptr, align 8
  %__a.addr = alloca ptr, align 8
  %agg.tmp = alloca %"class.std::initializer_list", align 8
  %0 = getelementptr inbounds { ptr, i64 }, ptr %__l, i32 0, i32 0
  store ptr %__l.coerce0, ptr %0, align 8
  %1 = getelementptr inbounds { ptr, i64 }, ptr %__l, i32 0, i32 1
  store i64 %__l.coerce1, ptr %1, align 8
  store ptr %this, ptr %this.addr, align 8
  store i64 %__n, ptr %__n.addr, align 8
  store ptr %__hf, ptr %__hf.addr, align 8
  store ptr %__eql, ptr %__eql.addr, align 8
  store ptr %__a, ptr %__a.addr, align 8
  %this1 = load ptr, ptr %this.addr, align 8
  %_M_h = getelementptr inbounds %"class.std::unordered_map", ptr %this1, i32 0, i32 0
  call void @llvm.memcpy.p0.p0.i64(ptr align 8 %agg.tmp, ptr align 8 %__l, i64 16, i1 false)
  %2 = load i64, ptr %__n.addr, align 8
  %3 = load ptr, ptr %__hf.addr, align 8
  %4 = load ptr, ptr %__eql.addr, align 8
  %5 = load ptr, ptr %__a.addr, align 8
  %6 = getelementptr inbounds { ptr, i64 }, ptr %agg.tmp, i32 0, i32 0
  %7 = load ptr, ptr %6, align 8
  %8 = getelementptr inbounds { ptr, i64 }, ptr %agg.tmp, i32 0, i32 1
  %9 = load i64, ptr %8, align 8
  call void @_ZNSt10_HashtableINSt7__cxx1112basic_stringIcSt11char_traitsIcESaIcEEESt4pairIKS5_N7rocksdb15WALRecoveryModeEESaISA_ENSt8__detail10_Select1stESt8equal_toIS5_ESt4hashIS5_ENSC_18_Mod_range_hashingENSC_20_Default_ranged_hashENSC_20_Prime_rehash_policyENSC_17_Hashtable_traitsILb1ELb0ELb1EEEEC2ESt16initializer_listISA_EmRKSH_RKSF_RKSB_(ptr noundef nonnull align 8 dereferenceable(56) %_M_h, ptr %7, i64 %9, i64 noundef %2, ptr noundef nonnull align 1 dereferenceable(1) %3, ptr noundef nonnull align 1 dereferenceable(1) %4, ptr noundef nonnull align 1 dereferenceable(1) %5)
  ret void
}

; Function Attrs: mustprogress nounwind uwtable
define linkonce_odr void @_ZNSaISt4pairIKNSt7__cxx1112basic_stringIcSt11char_traitsIcESaIcEEEN7rocksdb15WALRecoveryModeEEED2Ev(ptr noundef nonnull align 1 dereferenceable(1) %this) unnamed_addr #4 comdat align 2 {
entry:
  %this.addr = alloca ptr, align 8
  store ptr %this, ptr %this.addr, align 8
  %this1 = load ptr, ptr %this.addr, align 8
  call void @_ZNSt15__new_allocatorISt4pairIKNSt7__cxx1112basic_stringIcSt11char_traitsIcESaIcEEEN7rocksdb15WALRecoveryModeEEED2Ev(ptr noundef nonnull align 1 dereferenceable(1) %this1) #3
  ret void
}

; Function Attrs: mustprogress nounwind uwtable
define linkonce_odr void @_ZNSt13unordered_mapINSt7__cxx1112basic_stringIcSt11char_traitsIcESaIcEEEN7rocksdb15WALRecoveryModeESt4hashIS5_ESt8equal_toIS5_ESaISt4pairIKS5_S7_EEED2Ev(ptr noundef nonnull align 8 dereferenceable(56) %this) unnamed_addr #4 comdat align 2 {
entry:
  %this.addr = alloca ptr, align 8
  store ptr %this, ptr %this.addr, align 8
  %this1 = load ptr, ptr %this.addr, align 8
  %_M_h = getelementptr inbounds %"class.std::unordered_map", ptr %this1, i32 0, i32 0
  call void @_ZNSt10_HashtableINSt7__cxx1112basic_stringIcSt11char_traitsIcESaIcEEESt4pairIKS5_N7rocksdb15WALRecoveryModeEESaISA_ENSt8__detail10_Select1stESt8equal_toIS5_ESt4hashIS5_ENSC_18_Mod_range_hashingENSC_20_Default_ranged_hashENSC_20_Prime_rehash_policyENSC_17_Hashtable_traitsILb1ELb0ELb1EEEED2Ev(ptr noundef nonnull align 8 dereferenceable(56) %_M_h) #3
  ret void
}

; Function Attrs: uwtable
define internal void @__cxx_global_var_init.10() #0 section ".text.startup" personality ptr @__gxx_personality_v0 {
entry:
  %agg.tmp = alloca %"class.std::initializer_list.22", align 8
  %ref.tmp = alloca [4 x %"struct.std::pair.23"], align 8
  %arrayinit.endOfInit = alloca ptr, align 8
  %ref.tmp1 = alloca i32, align 4
  %exn.slot = alloca ptr, align 8
  %ehselector.slot = alloca i32, align 4
  %ref.tmp2 = alloca i32, align 4
  %ref.tmp5 = alloca i32, align 4
  %ref.tmp8 = alloca i32, align 4
  %ref.tmp11 = alloca %"struct.std::hash", align 1
  %ref.tmp12 = alloca %"struct.std::equal_to", align 1
  %ref.tmp13 = alloca %"class.std::allocator.26", align 1
  %arrayinit.begin = getelementptr inbounds [4 x %"struct.std::pair.23"], ptr %ref.tmp, i64 0, i64 0
  store ptr %arrayinit.begin, ptr %arrayinit.endOfInit, align 8
  store i32 0, ptr %ref.tmp1, align 4
  invoke void @_ZNSt4pairIKNSt7__cxx1112basic_stringIcSt11char_traitsIcESaIcEEEN7rocksdb9DBOptions10AccessHintEEC2IRA5_KcS9_TnNSt9enable_ifIXaaclsr5_PCCPE22_MoveConstructiblePairIT_T0_EEclsr5_PCCPE30_ImplicitlyMoveConvertiblePairISG_SH_EEEbE4typeELb1EEEOSG_OSH_(ptr noundef nonnull align 8 dereferenceable(36) %arrayinit.begin, ptr noundef nonnull align 1 dereferenceable(5) @.str.11, ptr noundef nonnull align 4 dereferenceable(4) %ref.tmp1)
          to label %invoke.cont unwind label %lpad

invoke.cont:                                      ; preds = %entry
  %arrayinit.element = getelementptr inbounds %"struct.std::pair.23", ptr %arrayinit.begin, i64 1
  store ptr %arrayinit.element, ptr %arrayinit.endOfInit, align 8
  store i32 1, ptr %ref.tmp2, align 4
  invoke void @_ZNSt4pairIKNSt7__cxx1112basic_stringIcSt11char_traitsIcESaIcEEEN7rocksdb9DBOptions10AccessHintEEC2IRA7_KcS9_TnNSt9enable_ifIXaaclsr5_PCCPE22_MoveConstructiblePairIT_T0_EEclsr5_PCCPE30_ImplicitlyMoveConvertiblePairISG_SH_EEEbE4typeELb1EEEOSG_OSH_(ptr noundef nonnull align 8 dereferenceable(36) %arrayinit.element, ptr noundef nonnull align 1 dereferenceable(7) @.str.12, ptr noundef nonnull align 4 dereferenceable(4) %ref.tmp2)
          to label %invoke.cont3 unwind label %lpad

invoke.cont3:                                     ; preds = %invoke.cont
  %arrayinit.element4 = getelementptr inbounds %"struct.std::pair.23", ptr %arrayinit.element, i64 1
  store ptr %arrayinit.element4, ptr %arrayinit.endOfInit, align 8
  store i32 2, ptr %ref.tmp5, align 4
  invoke void @_ZNSt4pairIKNSt7__cxx1112basic_stringIcSt11char_traitsIcESaIcEEEN7rocksdb9DBOptions10AccessHintEEC2IRA11_KcS9_TnNSt9enable_ifIXaaclsr5_PCCPE22_MoveConstructiblePairIT_T0_EEclsr5_PCCPE30_ImplicitlyMoveConvertiblePairISG_SH_EEEbE4typeELb1EEEOSG_OSH_(ptr noundef nonnull align 8 dereferenceable(36) %arrayinit.element4, ptr noundef nonnull align 1 dereferenceable(11) @.str.13, ptr noundef nonnull align 4 dereferenceable(4) %ref.tmp5)
          to label %invoke.cont6 unwind label %lpad

invoke.cont6:                                     ; preds = %invoke.cont3
  %arrayinit.element7 = getelementptr inbounds %"struct.std::pair.23", ptr %arrayinit.element4, i64 1
  store ptr %arrayinit.element7, ptr %arrayinit.endOfInit, align 8
  store i32 3, ptr %ref.tmp8, align 4
  invoke void @_ZNSt4pairIKNSt7__cxx1112basic_stringIcSt11char_traitsIcESaIcEEEN7rocksdb9DBOptions10AccessHintEEC2IRA9_KcS9_TnNSt9enable_ifIXaaclsr5_PCCPE22_MoveConstructiblePairIT_T0_EEclsr5_PCCPE30_ImplicitlyMoveConvertiblePairISG_SH_EEEbE4typeELb1EEEOSG_OSH_(ptr noundef nonnull align 8 dereferenceable(36) %arrayinit.element7, ptr noundef nonnull align 1 dereferenceable(9) @.str.14, ptr noundef nonnull align 4 dereferenceable(4) %ref.tmp8)
          to label %invoke.cont9 unwind label %lpad

invoke.cont9:                                     ; preds = %invoke.cont6
  %_M_array = getelementptr inbounds %"class.std::initializer_list.22", ptr %agg.tmp, i32 0, i32 0
  %arraystart = getelementptr inbounds [4 x %"struct.std::pair.23"], ptr %ref.tmp, i64 0, i64 0
  store ptr %arraystart, ptr %_M_array, align 8
  %_M_len = getelementptr inbounds %"class.std::initializer_list.22", ptr %agg.tmp, i32 0, i32 1
  store i64 4, ptr %_M_len, align 8
  call void @_ZNSaISt4pairIKNSt7__cxx1112basic_stringIcSt11char_traitsIcESaIcEEEN7rocksdb9DBOptions10AccessHintEEEC2Ev(ptr noundef nonnull align 1 dereferenceable(1) %ref.tmp13) #3
  %0 = getelementptr inbounds { ptr, i64 }, ptr %agg.tmp, i32 0, i32 0
  %1 = load ptr, ptr %0, align 8
  %2 = getelementptr inbounds { ptr, i64 }, ptr %agg.tmp, i32 0, i32 1
  %3 = load i64, ptr %2, align 8
  invoke void @_ZNSt13unordered_mapINSt7__cxx1112basic_stringIcSt11char_traitsIcESaIcEEEN7rocksdb9DBOptions10AccessHintESt4hashIS5_ESt8equal_toIS5_ESaISt4pairIKS5_S8_EEEC2ESt16initializer_listISF_EmRKSA_RKSC_RKSG_(ptr noundef nonnull align 8 dereferenceable(56) @_ZN7rocksdbL22access_hint_string_mapB5cxx11E, ptr %1, i64 %3, i64 noundef 0, ptr noundef nonnull align 1 dereferenceable(1) %ref.tmp11, ptr noundef nonnull align 1 dereferenceable(1) %ref.tmp12, ptr noundef nonnull align 1 dereferenceable(1) %ref.tmp13)
          to label %invoke.cont15 unwind label %lpad14

invoke.cont15:                                    ; preds = %invoke.cont9
  call void @_ZNSaISt4pairIKNSt7__cxx1112basic_stringIcSt11char_traitsIcESaIcEEEN7rocksdb9DBOptions10AccessHintEEED2Ev(ptr noundef nonnull align 1 dereferenceable(1) %ref.tmp13) #3
  %array.begin = getelementptr inbounds [4 x %"struct.std::pair.23"], ptr %ref.tmp, i32 0, i32 0
  %4 = getelementptr inbounds %"struct.std::pair.23", ptr %array.begin, i64 4
  br label %arraydestroy.body16

arraydestroy.body16:                              ; preds = %arraydestroy.body16, %invoke.cont15
  %arraydestroy.elementPast17 = phi ptr [ %4, %invoke.cont15 ], [ %arraydestroy.element18, %arraydestroy.body16 ]
  %arraydestroy.element18 = getelementptr inbounds %"struct.std::pair.23", ptr %arraydestroy.elementPast17, i64 -1
  call void @_ZNSt4pairIKNSt7__cxx1112basic_stringIcSt11char_traitsIcESaIcEEEN7rocksdb9DBOptions10AccessHintEED2Ev(ptr noundef nonnull align 8 dereferenceable(36) %arraydestroy.element18) #3
  %arraydestroy.done19 = icmp eq ptr %arraydestroy.element18, %array.begin
  br i1 %arraydestroy.done19, label %arraydestroy.done20, label %arraydestroy.body16

arraydestroy.done20:                              ; preds = %arraydestroy.body16
  %5 = call i32 @__cxa_atexit(ptr @_ZNSt13unordered_mapINSt7__cxx1112basic_stringIcSt11char_traitsIcESaIcEEEN7rocksdb9DBOptions10AccessHintESt4hashIS5_ESt8equal_toIS5_ESaISt4pairIKS5_S8_EEED2Ev, ptr @_ZN7rocksdbL22access_hint_string_mapB5cxx11E, ptr @__dso_handle) #3
  ret void

lpad:                                             ; preds = %invoke.cont6, %invoke.cont3, %invoke.cont, %entry
  %6 = landingpad { ptr, i32 }
          cleanup
  %7 = extractvalue { ptr, i32 } %6, 0
  store ptr %7, ptr %exn.slot, align 8
  %8 = extractvalue { ptr, i32 } %6, 1
  store i32 %8, ptr %ehselector.slot, align 4
  %9 = load ptr, ptr %arrayinit.endOfInit, align 8
  %arraydestroy.isempty = icmp eq ptr %arrayinit.begin, %9
  br i1 %arraydestroy.isempty, label %arraydestroy.done10, label %arraydestroy.body

arraydestroy.body:                                ; preds = %arraydestroy.body, %lpad
  %arraydestroy.elementPast = phi ptr [ %9, %lpad ], [ %arraydestroy.element, %arraydestroy.body ]
  %arraydestroy.element = getelementptr inbounds %"struct.std::pair.23", ptr %arraydestroy.elementPast, i64 -1
  call void @_ZNSt4pairIKNSt7__cxx1112basic_stringIcSt11char_traitsIcESaIcEEEN7rocksdb9DBOptions10AccessHintEED2Ev(ptr noundef nonnull align 8 dereferenceable(36) %arraydestroy.element) #3
  %arraydestroy.done = icmp eq ptr %arraydestroy.element, %arrayinit.begin
  br i1 %arraydestroy.done, label %arraydestroy.done10, label %arraydestroy.body

arraydestroy.done10:                              ; preds = %arraydestroy.body, %lpad
  br label %eh.resume

lpad14:                                           ; preds = %invoke.cont9
  %10 = landingpad { ptr, i32 }
          cleanup
  %11 = extractvalue { ptr, i32 } %10, 0
  store ptr %11, ptr %exn.slot, align 8
  %12 = extractvalue { ptr, i32 } %10, 1
  store i32 %12, ptr %ehselector.slot, align 4
  call void @_ZNSaISt4pairIKNSt7__cxx1112basic_stringIcSt11char_traitsIcESaIcEEEN7rocksdb9DBOptions10AccessHintEEED2Ev(ptr noundef nonnull align 1 dereferenceable(1) %ref.tmp13) #3
  %array.begin21 = getelementptr inbounds [4 x %"struct.std::pair.23"], ptr %ref.tmp, i32 0, i32 0
  %13 = getelementptr inbounds %"struct.std::pair.23", ptr %array.begin21, i64 4
  br label %arraydestroy.body22

arraydestroy.body22:                              ; preds = %arraydestroy.body22, %lpad14
  %arraydestroy.elementPast23 = phi ptr [ %13, %lpad14 ], [ %arraydestroy.element24, %arraydestroy.body22 ]
  %arraydestroy.element24 = getelementptr inbounds %"struct.std::pair.23", ptr %arraydestroy.elementPast23, i64 -1
  call void @_ZNSt4pairIKNSt7__cxx1112basic_stringIcSt11char_traitsIcESaIcEEEN7rocksdb9DBOptions10AccessHintEED2Ev(ptr noundef nonnull align 8 dereferenceable(36) %arraydestroy.element24) #3
  %arraydestroy.done25 = icmp eq ptr %arraydestroy.element24, %array.begin21
  br i1 %arraydestroy.done25, label %arraydestroy.done26, label %arraydestroy.body22

arraydestroy.done26:                              ; preds = %arraydestroy.body22
  br label %eh.resume

eh.resume:                                        ; preds = %arraydestroy.done26, %arraydestroy.done10
  %exn = load ptr, ptr %exn.slot, align 8
  %sel = load i32, ptr %ehselector.slot, align 4
  %lpad.val = insertvalue { ptr, i32 } poison, ptr %exn, 0
  %lpad.val27 = insertvalue { ptr, i32 } %lpad.val, i32 %sel, 1
  resume { ptr, i32 } %lpad.val27
}

; Function Attrs: mustprogress uwtable
define linkonce_odr void @_ZNSt4pairIKNSt7__cxx1112basic_stringIcSt11char_traitsIcESaIcEEEN7rocksdb9DBOptions10AccessHintEEC2IRA5_KcS9_TnNSt9enable_ifIXaaclsr5_PCCPE22_MoveConstructiblePairIT_T0_EEclsr5_PCCPE30_ImplicitlyMoveConvertiblePairISG_SH_EEEbE4typeELb1EEEOSG_OSH_(ptr noundef nonnull align 8 dereferenceable(36) %this, ptr noundef nonnull align 1 dereferenceable(5) %__x, ptr noundef nonnull align 4 dereferenceable(4) %__y) unnamed_addr #2 comdat align 2 personality ptr @__gxx_personality_v0 {
entry:
  %this.addr = alloca ptr, align 8
  %__x.addr = alloca ptr, align 8
  %__y.addr = alloca ptr, align 8
  %ref.tmp = alloca %"class.std::allocator", align 1
  %exn.slot = alloca ptr, align 8
  %ehselector.slot = alloca i32, align 4
  store ptr %this, ptr %this.addr, align 8
  store ptr %__x, ptr %__x.addr, align 8
  store ptr %__y, ptr %__y.addr, align 8
  %this1 = load ptr, ptr %this.addr, align 8
  %first = getelementptr inbounds %"struct.std::pair.23", ptr %this1, i32 0, i32 0
  %0 = load ptr, ptr %__x.addr, align 8
  %arraydecay = getelementptr inbounds [5 x i8], ptr %0, i64 0, i64 0
  call void @_ZNSaIcEC1Ev(ptr noundef nonnull align 1 dereferenceable(1) %ref.tmp) #3
  invoke void @_ZNSt7__cxx1112basic_stringIcSt11char_traitsIcESaIcEEC2IS3_EEPKcRKS3_(ptr noundef nonnull align 8 dereferenceable(32) %first, ptr noundef %arraydecay, ptr noundef nonnull align 1 dereferenceable(1) %ref.tmp)
          to label %invoke.cont unwind label %lpad

invoke.cont:                                      ; preds = %entry
  call void @_ZNSaIcED1Ev(ptr noundef nonnull align 1 dereferenceable(1) %ref.tmp) #3
  %second = getelementptr inbounds %"struct.std::pair.23", ptr %this1, i32 0, i32 1
  %1 = load ptr, ptr %__y.addr, align 8
  %2 = load i32, ptr %1, align 4
  store i32 %2, ptr %second, align 8
  ret void

lpad:                                             ; preds = %entry
  %3 = landingpad { ptr, i32 }
          cleanup
  %4 = extractvalue { ptr, i32 } %3, 0
  store ptr %4, ptr %exn.slot, align 8
  %5 = extractvalue { ptr, i32 } %3, 1
  store i32 %5, ptr %ehselector.slot, align 4
  call void @_ZNSaIcED1Ev(ptr noundef nonnull align 1 dereferenceable(1) %ref.tmp) #3
  br label %eh.resume

eh.resume:                                        ; preds = %lpad
  %exn = load ptr, ptr %exn.slot, align 8
  %sel = load i32, ptr %ehselector.slot, align 4
  %lpad.val = insertvalue { ptr, i32 } poison, ptr %exn, 0
  %lpad.val2 = insertvalue { ptr, i32 } %lpad.val, i32 %sel, 1
  resume { ptr, i32 } %lpad.val2
}

; Function Attrs: mustprogress uwtable
define linkonce_odr void @_ZNSt4pairIKNSt7__cxx1112basic_stringIcSt11char_traitsIcESaIcEEEN7rocksdb9DBOptions10AccessHintEEC2IRA7_KcS9_TnNSt9enable_ifIXaaclsr5_PCCPE22_MoveConstructiblePairIT_T0_EEclsr5_PCCPE30_ImplicitlyMoveConvertiblePairISG_SH_EEEbE4typeELb1EEEOSG_OSH_(ptr noundef nonnull align 8 dereferenceable(36) %this, ptr noundef nonnull align 1 dereferenceable(7) %__x, ptr noundef nonnull align 4 dereferenceable(4) %__y) unnamed_addr #2 comdat align 2 personality ptr @__gxx_personality_v0 {
entry:
  %this.addr = alloca ptr, align 8
  %__x.addr = alloca ptr, align 8
  %__y.addr = alloca ptr, align 8
  %ref.tmp = alloca %"class.std::allocator", align 1
  %exn.slot = alloca ptr, align 8
  %ehselector.slot = alloca i32, align 4
  store ptr %this, ptr %this.addr, align 8
  store ptr %__x, ptr %__x.addr, align 8
  store ptr %__y, ptr %__y.addr, align 8
  %this1 = load ptr, ptr %this.addr, align 8
  %first = getelementptr inbounds %"struct.std::pair.23", ptr %this1, i32 0, i32 0
  %0 = load ptr, ptr %__x.addr, align 8
  %arraydecay = getelementptr inbounds [7 x i8], ptr %0, i64 0, i64 0
  call void @_ZNSaIcEC1Ev(ptr noundef nonnull align 1 dereferenceable(1) %ref.tmp) #3
  invoke void @_ZNSt7__cxx1112basic_stringIcSt11char_traitsIcESaIcEEC2IS3_EEPKcRKS3_(ptr noundef nonnull align 8 dereferenceable(32) %first, ptr noundef %arraydecay, ptr noundef nonnull align 1 dereferenceable(1) %ref.tmp)
          to label %invoke.cont unwind label %lpad

invoke.cont:                                      ; preds = %entry
  call void @_ZNSaIcED1Ev(ptr noundef nonnull align 1 dereferenceable(1) %ref.tmp) #3
  %second = getelementptr inbounds %"struct.std::pair.23", ptr %this1, i32 0, i32 1
  %1 = load ptr, ptr %__y.addr, align 8
  %2 = load i32, ptr %1, align 4
  store i32 %2, ptr %second, align 8
  ret void

lpad:                                             ; preds = %entry
  %3 = landingpad { ptr, i32 }
          cleanup
  %4 = extractvalue { ptr, i32 } %3, 0
  store ptr %4, ptr %exn.slot, align 8
  %5 = extractvalue { ptr, i32 } %3, 1
  store i32 %5, ptr %ehselector.slot, align 4
  call void @_ZNSaIcED1Ev(ptr noundef nonnull align 1 dereferenceable(1) %ref.tmp) #3
  br label %eh.resume

eh.resume:                                        ; preds = %lpad
  %exn = load ptr, ptr %exn.slot, align 8
  %sel = load i32, ptr %ehselector.slot, align 4
  %lpad.val = insertvalue { ptr, i32 } poison, ptr %exn, 0
  %lpad.val2 = insertvalue { ptr, i32 } %lpad.val, i32 %sel, 1
  resume { ptr, i32 } %lpad.val2
}

; Function Attrs: mustprogress uwtable
define linkonce_odr void @_ZNSt4pairIKNSt7__cxx1112basic_stringIcSt11char_traitsIcESaIcEEEN7rocksdb9DBOptions10AccessHintEEC2IRA11_KcS9_TnNSt9enable_ifIXaaclsr5_PCCPE22_MoveConstructiblePairIT_T0_EEclsr5_PCCPE30_ImplicitlyMoveConvertiblePairISG_SH_EEEbE4typeELb1EEEOSG_OSH_(ptr noundef nonnull align 8 dereferenceable(36) %this, ptr noundef nonnull align 1 dereferenceable(11) %__x, ptr noundef nonnull align 4 dereferenceable(4) %__y) unnamed_addr #2 comdat align 2 personality ptr @__gxx_personality_v0 {
entry:
  %this.addr = alloca ptr, align 8
  %__x.addr = alloca ptr, align 8
  %__y.addr = alloca ptr, align 8
  %ref.tmp = alloca %"class.std::allocator", align 1
  %exn.slot = alloca ptr, align 8
  %ehselector.slot = alloca i32, align 4
  store ptr %this, ptr %this.addr, align 8
  store ptr %__x, ptr %__x.addr, align 8
  store ptr %__y, ptr %__y.addr, align 8
  %this1 = load ptr, ptr %this.addr, align 8
  %first = getelementptr inbounds %"struct.std::pair.23", ptr %this1, i32 0, i32 0
  %0 = load ptr, ptr %__x.addr, align 8
  %arraydecay = getelementptr inbounds [11 x i8], ptr %0, i64 0, i64 0
  call void @_ZNSaIcEC1Ev(ptr noundef nonnull align 1 dereferenceable(1) %ref.tmp) #3
  invoke void @_ZNSt7__cxx1112basic_stringIcSt11char_traitsIcESaIcEEC2IS3_EEPKcRKS3_(ptr noundef nonnull align 8 dereferenceable(32) %first, ptr noundef %arraydecay, ptr noundef nonnull align 1 dereferenceable(1) %ref.tmp)
          to label %invoke.cont unwind label %lpad

invoke.cont:                                      ; preds = %entry
  call void @_ZNSaIcED1Ev(ptr noundef nonnull align 1 dereferenceable(1) %ref.tmp) #3
  %second = getelementptr inbounds %"struct.std::pair.23", ptr %this1, i32 0, i32 1
  %1 = load ptr, ptr %__y.addr, align 8
  %2 = load i32, ptr %1, align 4
  store i32 %2, ptr %second, align 8
  ret void

lpad:                                             ; preds = %entry
  %3 = landingpad { ptr, i32 }
          cleanup
  %4 = extractvalue { ptr, i32 } %3, 0
  store ptr %4, ptr %exn.slot, align 8
  %5 = extractvalue { ptr, i32 } %3, 1
  store i32 %5, ptr %ehselector.slot, align 4
  call void @_ZNSaIcED1Ev(ptr noundef nonnull align 1 dereferenceable(1) %ref.tmp) #3
  br label %eh.resume

eh.resume:                                        ; preds = %lpad
  %exn = load ptr, ptr %exn.slot, align 8
  %sel = load i32, ptr %ehselector.slot, align 4
  %lpad.val = insertvalue { ptr, i32 } poison, ptr %exn, 0
  %lpad.val2 = insertvalue { ptr, i32 } %lpad.val, i32 %sel, 1
  resume { ptr, i32 } %lpad.val2
}

; Function Attrs: mustprogress uwtable
define linkonce_odr void @_ZNSt4pairIKNSt7__cxx1112basic_stringIcSt11char_traitsIcESaIcEEEN7rocksdb9DBOptions10AccessHintEEC2IRA9_KcS9_TnNSt9enable_ifIXaaclsr5_PCCPE22_MoveConstructiblePairIT_T0_EEclsr5_PCCPE30_ImplicitlyMoveConvertiblePairISG_SH_EEEbE4typeELb1EEEOSG_OSH_(ptr noundef nonnull align 8 dereferenceable(36) %this, ptr noundef nonnull align 1 dereferenceable(9) %__x, ptr noundef nonnull align 4 dereferenceable(4) %__y) unnamed_addr #2 comdat align 2 personality ptr @__gxx_personality_v0 {
entry:
  %this.addr = alloca ptr, align 8
  %__x.addr = alloca ptr, align 8
  %__y.addr = alloca ptr, align 8
  %ref.tmp = alloca %"class.std::allocator", align 1
  %exn.slot = alloca ptr, align 8
  %ehselector.slot = alloca i32, align 4
  store ptr %this, ptr %this.addr, align 8
  store ptr %__x, ptr %__x.addr, align 8
  store ptr %__y, ptr %__y.addr, align 8
  %this1 = load ptr, ptr %this.addr, align 8
  %first = getelementptr inbounds %"struct.std::pair.23", ptr %this1, i32 0, i32 0
  %0 = load ptr, ptr %__x.addr, align 8
  %arraydecay = getelementptr inbounds [9 x i8], ptr %0, i64 0, i64 0
  call void @_ZNSaIcEC1Ev(ptr noundef nonnull align 1 dereferenceable(1) %ref.tmp) #3
  invoke void @_ZNSt7__cxx1112basic_stringIcSt11char_traitsIcESaIcEEC2IS3_EEPKcRKS3_(ptr noundef nonnull align 8 dereferenceable(32) %first, ptr noundef %arraydecay, ptr noundef nonnull align 1 dereferenceable(1) %ref.tmp)
          to label %invoke.cont unwind label %lpad

invoke.cont:                                      ; preds = %entry
  call void @_ZNSaIcED1Ev(ptr noundef nonnull align 1 dereferenceable(1) %ref.tmp) #3
  %second = getelementptr inbounds %"struct.std::pair.23", ptr %this1, i32 0, i32 1
  %1 = load ptr, ptr %__y.addr, align 8
  %2 = load i32, ptr %1, align 4
  store i32 %2, ptr %second, align 8
  ret void

lpad:                                             ; preds = %entry
  %3 = landingpad { ptr, i32 }
          cleanup
  %4 = extractvalue { ptr, i32 } %3, 0
  store ptr %4, ptr %exn.slot, align 8
  %5 = extractvalue { ptr, i32 } %3, 1
  store i32 %5, ptr %ehselector.slot, align 4
  call void @_ZNSaIcED1Ev(ptr noundef nonnull align 1 dereferenceable(1) %ref.tmp) #3
  br label %eh.resume

eh.resume:                                        ; preds = %lpad
  %exn = load ptr, ptr %exn.slot, align 8
  %sel = load i32, ptr %ehselector.slot, align 4
  %lpad.val = insertvalue { ptr, i32 } poison, ptr %exn, 0
  %lpad.val2 = insertvalue { ptr, i32 } %lpad.val, i32 %sel, 1
  resume { ptr, i32 } %lpad.val2
}

; Function Attrs: mustprogress nounwind uwtable
define linkonce_odr void @_ZNSt4pairIKNSt7__cxx1112basic_stringIcSt11char_traitsIcESaIcEEEN7rocksdb9DBOptions10AccessHintEED2Ev(ptr noundef nonnull align 8 dereferenceable(36) %this) unnamed_addr #4 comdat align 2 {
entry:
  %this.addr = alloca ptr, align 8
  store ptr %this, ptr %this.addr, align 8
  %this1 = load ptr, ptr %this.addr, align 8
  %first = getelementptr inbounds %"struct.std::pair.23", ptr %this1, i32 0, i32 0
  call void @_ZNSt7__cxx1112basic_stringIcSt11char_traitsIcESaIcEED1Ev(ptr noundef nonnull align 8 dereferenceable(32) %first) #3
  ret void
}

; Function Attrs: mustprogress nounwind uwtable
define linkonce_odr void @_ZNSaISt4pairIKNSt7__cxx1112basic_stringIcSt11char_traitsIcESaIcEEEN7rocksdb9DBOptions10AccessHintEEEC2Ev(ptr noundef nonnull align 1 dereferenceable(1) %this) unnamed_addr #4 comdat align 2 {
entry:
  %this.addr = alloca ptr, align 8
  store ptr %this, ptr %this.addr, align 8
  %this1 = load ptr, ptr %this.addr, align 8
  call void @_ZNSt15__new_allocatorISt4pairIKNSt7__cxx1112basic_stringIcSt11char_traitsIcESaIcEEEN7rocksdb9DBOptions10AccessHintEEEC2Ev(ptr noundef nonnull align 1 dereferenceable(1) %this1) #3
  ret void
}

; Function Attrs: mustprogress uwtable
define linkonce_odr void @_ZNSt13unordered_mapINSt7__cxx1112basic_stringIcSt11char_traitsIcESaIcEEEN7rocksdb9DBOptions10AccessHintESt4hashIS5_ESt8equal_toIS5_ESaISt4pairIKS5_S8_EEEC2ESt16initializer_listISF_EmRKSA_RKSC_RKSG_(ptr noundef nonnull align 8 dereferenceable(56) %this, ptr %__l.coerce0, i64 %__l.coerce1, i64 noundef %__n, ptr noundef nonnull align 1 dereferenceable(1) %__hf, ptr noundef nonnull align 1 dereferenceable(1) %__eql, ptr noundef nonnull align 1 dereferenceable(1) %__a) unnamed_addr #2 comdat align 2 {
entry:
  %__l = alloca %"class.std::initializer_list.22", align 8
  %this.addr = alloca ptr, align 8
  %__n.addr = alloca i64, align 8
  %__hf.addr = alloca ptr, align 8
  %__eql.addr = alloca ptr, align 8
  %__a.addr = alloca ptr, align 8
  %agg.tmp = alloca %"class.std::initializer_list.22", align 8
  %0 = getelementptr inbounds { ptr, i64 }, ptr %__l, i32 0, i32 0
  store ptr %__l.coerce0, ptr %0, align 8
  %1 = getelementptr inbounds { ptr, i64 }, ptr %__l, i32 0, i32 1
  store i64 %__l.coerce1, ptr %1, align 8
  store ptr %this, ptr %this.addr, align 8
  store i64 %__n, ptr %__n.addr, align 8
  store ptr %__hf, ptr %__hf.addr, align 8
  store ptr %__eql, ptr %__eql.addr, align 8
  store ptr %__a, ptr %__a.addr, align 8
  %this1 = load ptr, ptr %this.addr, align 8
  %_M_h = getelementptr inbounds %"class.std::unordered_map.8", ptr %this1, i32 0, i32 0
  call void @llvm.memcpy.p0.p0.i64(ptr align 8 %agg.tmp, ptr align 8 %__l, i64 16, i1 false)
  %2 = load i64, ptr %__n.addr, align 8
  %3 = load ptr, ptr %__hf.addr, align 8
  %4 = load ptr, ptr %__eql.addr, align 8
  %5 = load ptr, ptr %__a.addr, align 8
  %6 = getelementptr inbounds { ptr, i64 }, ptr %agg.tmp, i32 0, i32 0
  %7 = load ptr, ptr %6, align 8
  %8 = getelementptr inbounds { ptr, i64 }, ptr %agg.tmp, i32 0, i32 1
  %9 = load i64, ptr %8, align 8
  call void @_ZNSt10_HashtableINSt7__cxx1112basic_stringIcSt11char_traitsIcESaIcEEESt4pairIKS5_N7rocksdb9DBOptions10AccessHintEESaISB_ENSt8__detail10_Select1stESt8equal_toIS5_ESt4hashIS5_ENSD_18_Mod_range_hashingENSD_20_Default_ranged_hashENSD_20_Prime_rehash_policyENSD_17_Hashtable_traitsILb1ELb0ELb1EEEEC2ESt16initializer_listISB_EmRKSI_RKSG_RKSC_(ptr noundef nonnull align 8 dereferenceable(56) %_M_h, ptr %7, i64 %9, i64 noundef %2, ptr noundef nonnull align 1 dereferenceable(1) %3, ptr noundef nonnull align 1 dereferenceable(1) %4, ptr noundef nonnull align 1 dereferenceable(1) %5)
  ret void
}

; Function Attrs: mustprogress nounwind uwtable
define linkonce_odr void @_ZNSaISt4pairIKNSt7__cxx1112basic_stringIcSt11char_traitsIcESaIcEEEN7rocksdb9DBOptions10AccessHintEEED2Ev(ptr noundef nonnull align 1 dereferenceable(1) %this) unnamed_addr #4 comdat align 2 {
entry:
  %this.addr = alloca ptr, align 8
  store ptr %this, ptr %this.addr, align 8
  %this1 = load ptr, ptr %this.addr, align 8
  call void @_ZNSt15__new_allocatorISt4pairIKNSt7__cxx1112basic_stringIcSt11char_traitsIcESaIcEEEN7rocksdb9DBOptions10AccessHintEEED2Ev(ptr noundef nonnull align 1 dereferenceable(1) %this1) #3
  ret void
}

; Function Attrs: mustprogress nounwind uwtable
define linkonce_odr void @_ZNSt13unordered_mapINSt7__cxx1112basic_stringIcSt11char_traitsIcESaIcEEEN7rocksdb9DBOptions10AccessHintESt4hashIS5_ESt8equal_toIS5_ESaISt4pairIKS5_S8_EEED2Ev(ptr noundef nonnull align 8 dereferenceable(56) %this) unnamed_addr #4 comdat align 2 {
entry:
  %this.addr = alloca ptr, align 8
  store ptr %this, ptr %this.addr, align 8
  %this1 = load ptr, ptr %this.addr, align 8
  %_M_h = getelementptr inbounds %"class.std::unordered_map.8", ptr %this1, i32 0, i32 0
  call void @_ZNSt10_HashtableINSt7__cxx1112basic_stringIcSt11char_traitsIcESaIcEEESt4pairIKS5_N7rocksdb9DBOptions10AccessHintEESaISB_ENSt8__detail10_Select1stESt8equal_toIS5_ESt4hashIS5_ENSD_18_Mod_range_hashingENSD_20_Default_ranged_hashENSD_20_Prime_rehash_policyENSD_17_Hashtable_traitsILb1ELb0ELb1EEEED2Ev(ptr noundef nonnull align 8 dereferenceable(56) %_M_h) #3
  ret void
}

; Function Attrs: uwtable
define internal void @__cxx_global_var_init.15() #0 section ".text.startup" personality ptr @__gxx_personality_v0 {
entry:
  %agg.tmp = alloca %"class.std::initializer_list.43", align 8
  %ref.tmp = alloca [2 x %"struct.std::pair.44"], align 8
  %arrayinit.endOfInit = alloca ptr, align 8
  %ref.tmp1 = alloca i8, align 1
  %exn.slot = alloca ptr, align 8
  %ehselector.slot = alloca i32, align 4
  %ref.tmp2 = alloca i8, align 1
  %ref.tmp5 = alloca %"struct.std::hash", align 1
  %ref.tmp6 = alloca %"struct.std::equal_to", align 1
  %ref.tmp7 = alloca %"class.std::allocator.47", align 1
  %arrayinit.begin = getelementptr inbounds [2 x %"struct.std::pair.44"], ptr %ref.tmp, i64 0, i64 0
  store ptr %arrayinit.begin, ptr %arrayinit.endOfInit, align 8
  store i8 0, ptr %ref.tmp1, align 1
  invoke void @_ZNSt4pairIKNSt7__cxx1112basic_stringIcSt11char_traitsIcESaIcEEEN7rocksdb9CacheTierEEC2IRA14_KcS8_TnNSt9enable_ifIXaaclsr5_PCCPE22_MoveConstructiblePairIT_T0_EEclsr5_PCCPE30_ImplicitlyMoveConvertiblePairISF_SG_EEEbE4typeELb1EEEOSF_OSG_(ptr noundef nonnull align 8 dereferenceable(33) %arrayinit.begin, ptr noundef nonnull align 1 dereferenceable(14) @.str.16, ptr noundef nonnull align 1 dereferenceable(1) %ref.tmp1)
          to label %invoke.cont unwind label %lpad

invoke.cont:                                      ; preds = %entry
  %arrayinit.element = getelementptr inbounds %"struct.std::pair.44", ptr %arrayinit.begin, i64 1
  store ptr %arrayinit.element, ptr %arrayinit.endOfInit, align 8
  store i8 2, ptr %ref.tmp2, align 1
  invoke void @_ZNSt4pairIKNSt7__cxx1112basic_stringIcSt11char_traitsIcESaIcEEEN7rocksdb9CacheTierEEC2IRA22_KcS8_TnNSt9enable_ifIXaaclsr5_PCCPE22_MoveConstructiblePairIT_T0_EEclsr5_PCCPE30_ImplicitlyMoveConvertiblePairISF_SG_EEEbE4typeELb1EEEOSF_OSG_(ptr noundef nonnull align 8 dereferenceable(33) %arrayinit.element, ptr noundef nonnull align 1 dereferenceable(22) @.str.17, ptr noundef nonnull align 1 dereferenceable(1) %ref.tmp2)
          to label %invoke.cont3 unwind label %lpad

invoke.cont3:                                     ; preds = %invoke.cont
  %_M_array = getelementptr inbounds %"class.std::initializer_list.43", ptr %agg.tmp, i32 0, i32 0
  %arraystart = getelementptr inbounds [2 x %"struct.std::pair.44"], ptr %ref.tmp, i64 0, i64 0
  store ptr %arraystart, ptr %_M_array, align 8
  %_M_len = getelementptr inbounds %"class.std::initializer_list.43", ptr %agg.tmp, i32 0, i32 1
  store i64 2, ptr %_M_len, align 8
  call void @_ZNSaISt4pairIKNSt7__cxx1112basic_stringIcSt11char_traitsIcESaIcEEEN7rocksdb9CacheTierEEEC2Ev(ptr noundef nonnull align 1 dereferenceable(1) %ref.tmp7) #3
  %0 = getelementptr inbounds { ptr, i64 }, ptr %agg.tmp, i32 0, i32 0
  %1 = load ptr, ptr %0, align 8
  %2 = getelementptr inbounds { ptr, i64 }, ptr %agg.tmp, i32 0, i32 1
  %3 = load i64, ptr %2, align 8
  invoke void @_ZNSt13unordered_mapINSt7__cxx1112basic_stringIcSt11char_traitsIcESaIcEEEN7rocksdb9CacheTierESt4hashIS5_ESt8equal_toIS5_ESaISt4pairIKS5_S7_EEEC2ESt16initializer_listISE_EmRKS9_RKSB_RKSF_(ptr noundef nonnull align 8 dereferenceable(56) @_ZN7rocksdbL21cache_tier_string_mapB5cxx11E, ptr %1, i64 %3, i64 noundef 0, ptr noundef nonnull align 1 dereferenceable(1) %ref.tmp5, ptr noundef nonnull align 1 dereferenceable(1) %ref.tmp6, ptr noundef nonnull align 1 dereferenceable(1) %ref.tmp7)
          to label %invoke.cont9 unwind label %lpad8

invoke.cont9:                                     ; preds = %invoke.cont3
  call void @_ZNSaISt4pairIKNSt7__cxx1112basic_stringIcSt11char_traitsIcESaIcEEEN7rocksdb9CacheTierEEED2Ev(ptr noundef nonnull align 1 dereferenceable(1) %ref.tmp7) #3
  %array.begin = getelementptr inbounds [2 x %"struct.std::pair.44"], ptr %ref.tmp, i32 0, i32 0
  %4 = getelementptr inbounds %"struct.std::pair.44", ptr %array.begin, i64 2
  br label %arraydestroy.body10

arraydestroy.body10:                              ; preds = %arraydestroy.body10, %invoke.cont9
  %arraydestroy.elementPast11 = phi ptr [ %4, %invoke.cont9 ], [ %arraydestroy.element12, %arraydestroy.body10 ]
  %arraydestroy.element12 = getelementptr inbounds %"struct.std::pair.44", ptr %arraydestroy.elementPast11, i64 -1
  call void @_ZNSt4pairIKNSt7__cxx1112basic_stringIcSt11char_traitsIcESaIcEEEN7rocksdb9CacheTierEED2Ev(ptr noundef nonnull align 8 dereferenceable(33) %arraydestroy.element12) #3
  %arraydestroy.done13 = icmp eq ptr %arraydestroy.element12, %array.begin
  br i1 %arraydestroy.done13, label %arraydestroy.done14, label %arraydestroy.body10

arraydestroy.done14:                              ; preds = %arraydestroy.body10
  %5 = call i32 @__cxa_atexit(ptr @_ZNSt13unordered_mapINSt7__cxx1112basic_stringIcSt11char_traitsIcESaIcEEEN7rocksdb9CacheTierESt4hashIS5_ESt8equal_toIS5_ESaISt4pairIKS5_S7_EEED2Ev, ptr @_ZN7rocksdbL21cache_tier_string_mapB5cxx11E, ptr @__dso_handle) #3
  ret void

lpad:                                             ; preds = %invoke.cont, %entry
  %6 = landingpad { ptr, i32 }
          cleanup
  %7 = extractvalue { ptr, i32 } %6, 0
  store ptr %7, ptr %exn.slot, align 8
  %8 = extractvalue { ptr, i32 } %6, 1
  store i32 %8, ptr %ehselector.slot, align 4
  %9 = load ptr, ptr %arrayinit.endOfInit, align 8
  %arraydestroy.isempty = icmp eq ptr %arrayinit.begin, %9
  br i1 %arraydestroy.isempty, label %arraydestroy.done4, label %arraydestroy.body

arraydestroy.body:                                ; preds = %arraydestroy.body, %lpad
  %arraydestroy.elementPast = phi ptr [ %9, %lpad ], [ %arraydestroy.element, %arraydestroy.body ]
  %arraydestroy.element = getelementptr inbounds %"struct.std::pair.44", ptr %arraydestroy.elementPast, i64 -1
  call void @_ZNSt4pairIKNSt7__cxx1112basic_stringIcSt11char_traitsIcESaIcEEEN7rocksdb9CacheTierEED2Ev(ptr noundef nonnull align 8 dereferenceable(33) %arraydestroy.element) #3
  %arraydestroy.done = icmp eq ptr %arraydestroy.element, %arrayinit.begin
  br i1 %arraydestroy.done, label %arraydestroy.done4, label %arraydestroy.body

arraydestroy.done4:                               ; preds = %arraydestroy.body, %lpad
  br label %eh.resume

lpad8:                                            ; preds = %invoke.cont3
  %10 = landingpad { ptr, i32 }
          cleanup
  %11 = extractvalue { ptr, i32 } %10, 0
  store ptr %11, ptr %exn.slot, align 8
  %12 = extractvalue { ptr, i32 } %10, 1
  store i32 %12, ptr %ehselector.slot, align 4
  call void @_ZNSaISt4pairIKNSt7__cxx1112basic_stringIcSt11char_traitsIcESaIcEEEN7rocksdb9CacheTierEEED2Ev(ptr noundef nonnull align 1 dereferenceable(1) %ref.tmp7) #3
  %array.begin15 = getelementptr inbounds [2 x %"struct.std::pair.44"], ptr %ref.tmp, i32 0, i32 0
  %13 = getelementptr inbounds %"struct.std::pair.44", ptr %array.begin15, i64 2
  br label %arraydestroy.body16

arraydestroy.body16:                              ; preds = %arraydestroy.body16, %lpad8
  %arraydestroy.elementPast17 = phi ptr [ %13, %lpad8 ], [ %arraydestroy.element18, %arraydestroy.body16 ]
  %arraydestroy.element18 = getelementptr inbounds %"struct.std::pair.44", ptr %arraydestroy.elementPast17, i64 -1
  call void @_ZNSt4pairIKNSt7__cxx1112basic_stringIcSt11char_traitsIcESaIcEEEN7rocksdb9CacheTierEED2Ev(ptr noundef nonnull align 8 dereferenceable(33) %arraydestroy.element18) #3
  %arraydestroy.done19 = icmp eq ptr %arraydestroy.element18, %array.begin15
  br i1 %arraydestroy.done19, label %arraydestroy.done20, label %arraydestroy.body16

arraydestroy.done20:                              ; preds = %arraydestroy.body16
  br label %eh.resume

eh.resume:                                        ; preds = %arraydestroy.done20, %arraydestroy.done4
  %exn = load ptr, ptr %exn.slot, align 8
  %sel = load i32, ptr %ehselector.slot, align 4
  %lpad.val = insertvalue { ptr, i32 } poison, ptr %exn, 0
  %lpad.val21 = insertvalue { ptr, i32 } %lpad.val, i32 %sel, 1
  resume { ptr, i32 } %lpad.val21
}

; Function Attrs: mustprogress uwtable
define linkonce_odr void @_ZNSt4pairIKNSt7__cxx1112basic_stringIcSt11char_traitsIcESaIcEEEN7rocksdb9CacheTierEEC2IRA14_KcS8_TnNSt9enable_ifIXaaclsr5_PCCPE22_MoveConstructiblePairIT_T0_EEclsr5_PCCPE30_ImplicitlyMoveConvertiblePairISF_SG_EEEbE4typeELb1EEEOSF_OSG_(ptr noundef nonnull align 8 dereferenceable(33) %this, ptr noundef nonnull align 1 dereferenceable(14) %__x, ptr noundef nonnull align 1 dereferenceable(1) %__y) unnamed_addr #2 comdat align 2 personality ptr @__gxx_personality_v0 {
entry:
  %this.addr = alloca ptr, align 8
  %__x.addr = alloca ptr, align 8
  %__y.addr = alloca ptr, align 8
  %ref.tmp = alloca %"class.std::allocator", align 1
  %exn.slot = alloca ptr, align 8
  %ehselector.slot = alloca i32, align 4
  store ptr %this, ptr %this.addr, align 8
  store ptr %__x, ptr %__x.addr, align 8
  store ptr %__y, ptr %__y.addr, align 8
  %this1 = load ptr, ptr %this.addr, align 8
  %first = getelementptr inbounds %"struct.std::pair.44", ptr %this1, i32 0, i32 0
  %0 = load ptr, ptr %__x.addr, align 8
  %arraydecay = getelementptr inbounds [14 x i8], ptr %0, i64 0, i64 0
  call void @_ZNSaIcEC1Ev(ptr noundef nonnull align 1 dereferenceable(1) %ref.tmp) #3
  invoke void @_ZNSt7__cxx1112basic_stringIcSt11char_traitsIcESaIcEEC2IS3_EEPKcRKS3_(ptr noundef nonnull align 8 dereferenceable(32) %first, ptr noundef %arraydecay, ptr noundef nonnull align 1 dereferenceable(1) %ref.tmp)
          to label %invoke.cont unwind label %lpad

invoke.cont:                                      ; preds = %entry
  call void @_ZNSaIcED1Ev(ptr noundef nonnull align 1 dereferenceable(1) %ref.tmp) #3
  %second = getelementptr inbounds %"struct.std::pair.44", ptr %this1, i32 0, i32 1
  %1 = load ptr, ptr %__y.addr, align 8
  %2 = load i8, ptr %1, align 1
  store i8 %2, ptr %second, align 8
  ret void

lpad:                                             ; preds = %entry
  %3 = landingpad { ptr, i32 }
          cleanup
  %4 = extractvalue { ptr, i32 } %3, 0
  store ptr %4, ptr %exn.slot, align 8
  %5 = extractvalue { ptr, i32 } %3, 1
  store i32 %5, ptr %ehselector.slot, align 4
  call void @_ZNSaIcED1Ev(ptr noundef nonnull align 1 dereferenceable(1) %ref.tmp) #3
  br label %eh.resume

eh.resume:                                        ; preds = %lpad
  %exn = load ptr, ptr %exn.slot, align 8
  %sel = load i32, ptr %ehselector.slot, align 4
  %lpad.val = insertvalue { ptr, i32 } poison, ptr %exn, 0
  %lpad.val2 = insertvalue { ptr, i32 } %lpad.val, i32 %sel, 1
  resume { ptr, i32 } %lpad.val2
}

; Function Attrs: mustprogress uwtable
define linkonce_odr void @_ZNSt4pairIKNSt7__cxx1112basic_stringIcSt11char_traitsIcESaIcEEEN7rocksdb9CacheTierEEC2IRA22_KcS8_TnNSt9enable_ifIXaaclsr5_PCCPE22_MoveConstructiblePairIT_T0_EEclsr5_PCCPE30_ImplicitlyMoveConvertiblePairISF_SG_EEEbE4typeELb1EEEOSF_OSG_(ptr noundef nonnull align 8 dereferenceable(33) %this, ptr noundef nonnull align 1 dereferenceable(22) %__x, ptr noundef nonnull align 1 dereferenceable(1) %__y) unnamed_addr #2 comdat align 2 personality ptr @__gxx_personality_v0 {
entry:
  %this.addr = alloca ptr, align 8
  %__x.addr = alloca ptr, align 8
  %__y.addr = alloca ptr, align 8
  %ref.tmp = alloca %"class.std::allocator", align 1
  %exn.slot = alloca ptr, align 8
  %ehselector.slot = alloca i32, align 4
  store ptr %this, ptr %this.addr, align 8
  store ptr %__x, ptr %__x.addr, align 8
  store ptr %__y, ptr %__y.addr, align 8
  %this1 = load ptr, ptr %this.addr, align 8
  %first = getelementptr inbounds %"struct.std::pair.44", ptr %this1, i32 0, i32 0
  %0 = load ptr, ptr %__x.addr, align 8
  %arraydecay = getelementptr inbounds [22 x i8], ptr %0, i64 0, i64 0
  call void @_ZNSaIcEC1Ev(ptr noundef nonnull align 1 dereferenceable(1) %ref.tmp) #3
  invoke void @_ZNSt7__cxx1112basic_stringIcSt11char_traitsIcESaIcEEC2IS3_EEPKcRKS3_(ptr noundef nonnull align 8 dereferenceable(32) %first, ptr noundef %arraydecay, ptr noundef nonnull align 1 dereferenceable(1) %ref.tmp)
          to label %invoke.cont unwind label %lpad

invoke.cont:                                      ; preds = %entry
  call void @_ZNSaIcED1Ev(ptr noundef nonnull align 1 dereferenceable(1) %ref.tmp) #3
  %second = getelementptr inbounds %"struct.std::pair.44", ptr %this1, i32 0, i32 1
  %1 = load ptr, ptr %__y.addr, align 8
  %2 = load i8, ptr %1, align 1
  store i8 %2, ptr %second, align 8
  ret void

lpad:                                             ; preds = %entry
  %3 = landingpad { ptr, i32 }
          cleanup
  %4 = extractvalue { ptr, i32 } %3, 0
  store ptr %4, ptr %exn.slot, align 8
  %5 = extractvalue { ptr, i32 } %3, 1
  store i32 %5, ptr %ehselector.slot, align 4
  call void @_ZNSaIcED1Ev(ptr noundef nonnull align 1 dereferenceable(1) %ref.tmp) #3
  br label %eh.resume

eh.resume:                                        ; preds = %lpad
  %exn = load ptr, ptr %exn.slot, align 8
  %sel = load i32, ptr %ehselector.slot, align 4
  %lpad.val = insertvalue { ptr, i32 } poison, ptr %exn, 0
  %lpad.val2 = insertvalue { ptr, i32 } %lpad.val, i32 %sel, 1
  resume { ptr, i32 } %lpad.val2
}

; Function Attrs: mustprogress nounwind uwtable
define linkonce_odr void @_ZNSt4pairIKNSt7__cxx1112basic_stringIcSt11char_traitsIcESaIcEEEN7rocksdb9CacheTierEED2Ev(ptr noundef nonnull align 8 dereferenceable(33) %this) unnamed_addr #4 comdat align 2 {
entry:
  %this.addr = alloca ptr, align 8
  store ptr %this, ptr %this.addr, align 8
  %this1 = load ptr, ptr %this.addr, align 8
  %first = getelementptr inbounds %"struct.std::pair.44", ptr %this1, i32 0, i32 0
  call void @_ZNSt7__cxx1112basic_stringIcSt11char_traitsIcESaIcEED1Ev(ptr noundef nonnull align 8 dereferenceable(32) %first) #3
  ret void
}

; Function Attrs: mustprogress nounwind uwtable
define linkonce_odr void @_ZNSaISt4pairIKNSt7__cxx1112basic_stringIcSt11char_traitsIcESaIcEEEN7rocksdb9CacheTierEEEC2Ev(ptr noundef nonnull align 1 dereferenceable(1) %this) unnamed_addr #4 comdat align 2 {
entry:
  %this.addr = alloca ptr, align 8
  store ptr %this, ptr %this.addr, align 8
  %this1 = load ptr, ptr %this.addr, align 8
  call void @_ZNSt15__new_allocatorISt4pairIKNSt7__cxx1112basic_stringIcSt11char_traitsIcESaIcEEEN7rocksdb9CacheTierEEEC2Ev(ptr noundef nonnull align 1 dereferenceable(1) %this1) #3
  ret void
}

; Function Attrs: mustprogress uwtable
define linkonce_odr void @_ZNSt13unordered_mapINSt7__cxx1112basic_stringIcSt11char_traitsIcESaIcEEEN7rocksdb9CacheTierESt4hashIS5_ESt8equal_toIS5_ESaISt4pairIKS5_S7_EEEC2ESt16initializer_listISE_EmRKS9_RKSB_RKSF_(ptr noundef nonnull align 8 dereferenceable(56) %this, ptr %__l.coerce0, i64 %__l.coerce1, i64 noundef %__n, ptr noundef nonnull align 1 dereferenceable(1) %__hf, ptr noundef nonnull align 1 dereferenceable(1) %__eql, ptr noundef nonnull align 1 dereferenceable(1) %__a) unnamed_addr #2 comdat align 2 {
entry:
  %__l = alloca %"class.std::initializer_list.43", align 8
  %this.addr = alloca ptr, align 8
  %__n.addr = alloca i64, align 8
  %__hf.addr = alloca ptr, align 8
  %__eql.addr = alloca ptr, align 8
  %__a.addr = alloca ptr, align 8
  %agg.tmp = alloca %"class.std::initializer_list.43", align 8
  %0 = getelementptr inbounds { ptr, i64 }, ptr %__l, i32 0, i32 0
  store ptr %__l.coerce0, ptr %0, align 8
  %1 = getelementptr inbounds { ptr, i64 }, ptr %__l, i32 0, i32 1
  store i64 %__l.coerce1, ptr %1, align 8
  store ptr %this, ptr %this.addr, align 8
  store i64 %__n, ptr %__n.addr, align 8
  store ptr %__hf, ptr %__hf.addr, align 8
  store ptr %__eql, ptr %__eql.addr, align 8
  store ptr %__a, ptr %__a.addr, align 8
  %this1 = load ptr, ptr %this.addr, align 8
  %_M_h = getelementptr inbounds %"class.std::unordered_map.29", ptr %this1, i32 0, i32 0
  call void @llvm.memcpy.p0.p0.i64(ptr align 8 %agg.tmp, ptr align 8 %__l, i64 16, i1 false)
  %2 = load i64, ptr %__n.addr, align 8
  %3 = load ptr, ptr %__hf.addr, align 8
  %4 = load ptr, ptr %__eql.addr, align 8
  %5 = load ptr, ptr %__a.addr, align 8
  %6 = getelementptr inbounds { ptr, i64 }, ptr %agg.tmp, i32 0, i32 0
  %7 = load ptr, ptr %6, align 8
  %8 = getelementptr inbounds { ptr, i64 }, ptr %agg.tmp, i32 0, i32 1
  %9 = load i64, ptr %8, align 8
  call void @_ZNSt10_HashtableINSt7__cxx1112basic_stringIcSt11char_traitsIcESaIcEEESt4pairIKS5_N7rocksdb9CacheTierEESaISA_ENSt8__detail10_Select1stESt8equal_toIS5_ESt4hashIS5_ENSC_18_Mod_range_hashingENSC_20_Default_ranged_hashENSC_20_Prime_rehash_policyENSC_17_Hashtable_traitsILb1ELb0ELb1EEEEC2ESt16initializer_listISA_EmRKSH_RKSF_RKSB_(ptr noundef nonnull align 8 dereferenceable(56) %_M_h, ptr %7, i64 %9, i64 noundef %2, ptr noundef nonnull align 1 dereferenceable(1) %3, ptr noundef nonnull align 1 dereferenceable(1) %4, ptr noundef nonnull align 1 dereferenceable(1) %5)
  ret void
}

; Function Attrs: mustprogress nounwind uwtable
define linkonce_odr void @_ZNSaISt4pairIKNSt7__cxx1112basic_stringIcSt11char_traitsIcESaIcEEEN7rocksdb9CacheTierEEED2Ev(ptr noundef nonnull align 1 dereferenceable(1) %this) unnamed_addr #4 comdat align 2 {
entry:
  %this.addr = alloca ptr, align 8
  store ptr %this, ptr %this.addr, align 8
  %this1 = load ptr, ptr %this.addr, align 8
  call void @_ZNSt15__new_allocatorISt4pairIKNSt7__cxx1112basic_stringIcSt11char_traitsIcESaIcEEEN7rocksdb9CacheTierEEED2Ev(ptr noundef nonnull align 1 dereferenceable(1) %this1) #3
  ret void
}

; Function Attrs: mustprogress nounwind uwtable
define linkonce_odr void @_ZNSt13unordered_mapINSt7__cxx1112basic_stringIcSt11char_traitsIcESaIcEEEN7rocksdb9CacheTierESt4hashIS5_ESt8equal_toIS5_ESaISt4pairIKS5_S7_EEED2Ev(ptr noundef nonnull align 8 dereferenceable(56) %this) unnamed_addr #4 comdat align 2 {
entry:
  %this.addr = alloca ptr, align 8
  store ptr %this, ptr %this.addr, align 8
  %this1 = load ptr, ptr %this.addr, align 8
  %_M_h = getelementptr inbounds %"class.std::unordered_map.29", ptr %this1, i32 0, i32 0
  call void @_ZNSt10_HashtableINSt7__cxx1112basic_stringIcSt11char_traitsIcESaIcEEESt4pairIKS5_N7rocksdb9CacheTierEESaISA_ENSt8__detail10_Select1stESt8equal_toIS5_ESt4hashIS5_ENSC_18_Mod_range_hashingENSC_20_Default_ranged_hashENSC_20_Prime_rehash_policyENSC_17_Hashtable_traitsILb1ELb0ELb1EEEED2Ev(ptr noundef nonnull align 8 dereferenceable(56) %_M_h) #3
  ret void
}

; Function Attrs: uwtable
define internal void @__cxx_global_var_init.18() #0 section ".text.startup" personality ptr @__gxx_personality_v0 {
entry:
  %agg.tmp = alloca %"class.std::initializer_list.64", align 8
  %ref.tmp = alloca [6 x %"struct.std::pair.65"], align 8
  %arrayinit.endOfInit = alloca ptr, align 8
  %ref.tmp1 = alloca i8, align 1
  %exn.slot = alloca ptr, align 8
  %ehselector.slot = alloca i32, align 4
  %ref.tmp2 = alloca i8, align 1
  %ref.tmp5 = alloca i8, align 1
  %ref.tmp8 = alloca i8, align 1
  %ref.tmp11 = alloca i8, align 1
  %ref.tmp14 = alloca i8, align 1
  %ref.tmp17 = alloca %"struct.std::hash", align 1
  %ref.tmp18 = alloca %"struct.std::equal_to", align 1
  %ref.tmp19 = alloca %"class.std::allocator.68", align 1
  %arrayinit.begin = getelementptr inbounds [6 x %"struct.std::pair.65"], ptr %ref.tmp, i64 0, i64 0
  store ptr %arrayinit.begin, ptr %arrayinit.endOfInit, align 8
  store i8 0, ptr %ref.tmp1, align 1
  invoke void @_ZNSt4pairIKNSt7__cxx1112basic_stringIcSt11char_traitsIcESaIcEEEN7rocksdb12InfoLogLevelEEC2IRA12_KcS8_TnNSt9enable_ifIXaaclsr5_PCCPE22_MoveConstructiblePairIT_T0_EEclsr5_PCCPE30_ImplicitlyMoveConvertiblePairISF_SG_EEEbE4typeELb1EEEOSF_OSG_(ptr noundef nonnull align 8 dereferenceable(33) %arrayinit.begin, ptr noundef nonnull align 1 dereferenceable(12) @.str.19, ptr noundef nonnull align 1 dereferenceable(1) %ref.tmp1)
          to label %invoke.cont unwind label %lpad

invoke.cont:                                      ; preds = %entry
  %arrayinit.element = getelementptr inbounds %"struct.std::pair.65", ptr %arrayinit.begin, i64 1
  store ptr %arrayinit.element, ptr %arrayinit.endOfInit, align 8
  store i8 1, ptr %ref.tmp2, align 1
  invoke void @_ZNSt4pairIKNSt7__cxx1112basic_stringIcSt11char_traitsIcESaIcEEEN7rocksdb12InfoLogLevelEEC2IRA11_KcS8_TnNSt9enable_ifIXaaclsr5_PCCPE22_MoveConstructiblePairIT_T0_EEclsr5_PCCPE30_ImplicitlyMoveConvertiblePairISF_SG_EEEbE4typeELb1EEEOSF_OSG_(ptr noundef nonnull align 8 dereferenceable(33) %arrayinit.element, ptr noundef nonnull align 1 dereferenceable(11) @.str.20, ptr noundef nonnull align 1 dereferenceable(1) %ref.tmp2)
          to label %invoke.cont3 unwind label %lpad

invoke.cont3:                                     ; preds = %invoke.cont
  %arrayinit.element4 = getelementptr inbounds %"struct.std::pair.65", ptr %arrayinit.element, i64 1
  store ptr %arrayinit.element4, ptr %arrayinit.endOfInit, align 8
  store i8 2, ptr %ref.tmp5, align 1
  invoke void @_ZNSt4pairIKNSt7__cxx1112basic_stringIcSt11char_traitsIcESaIcEEEN7rocksdb12InfoLogLevelEEC2IRA11_KcS8_TnNSt9enable_ifIXaaclsr5_PCCPE22_MoveConstructiblePairIT_T0_EEclsr5_PCCPE30_ImplicitlyMoveConvertiblePairISF_SG_EEEbE4typeELb1EEEOSF_OSG_(ptr noundef nonnull align 8 dereferenceable(33) %arrayinit.element4, ptr noundef nonnull align 1 dereferenceable(11) @.str.21, ptr noundef nonnull align 1 dereferenceable(1) %ref.tmp5)
          to label %invoke.cont6 unwind label %lpad

invoke.cont6:                                     ; preds = %invoke.cont3
  %arrayinit.element7 = getelementptr inbounds %"struct.std::pair.65", ptr %arrayinit.element4, i64 1
  store ptr %arrayinit.element7, ptr %arrayinit.endOfInit, align 8
  store i8 3, ptr %ref.tmp8, align 1
  invoke void @_ZNSt4pairIKNSt7__cxx1112basic_stringIcSt11char_traitsIcESaIcEEEN7rocksdb12InfoLogLevelEEC2IRA12_KcS8_TnNSt9enable_ifIXaaclsr5_PCCPE22_MoveConstructiblePairIT_T0_EEclsr5_PCCPE30_ImplicitlyMoveConvertiblePairISF_SG_EEEbE4typeELb1EEEOSF_OSG_(ptr noundef nonnull align 8 dereferenceable(33) %arrayinit.element7, ptr noundef nonnull align 1 dereferenceable(12) @.str.22, ptr noundef nonnull align 1 dereferenceable(1) %ref.tmp8)
          to label %invoke.cont9 unwind label %lpad

invoke.cont9:                                     ; preds = %invoke.cont6
  %arrayinit.element10 = getelementptr inbounds %"struct.std::pair.65", ptr %arrayinit.element7, i64 1
  store ptr %arrayinit.element10, ptr %arrayinit.endOfInit, align 8
  store i8 4, ptr %ref.tmp11, align 1
  invoke void @_ZNSt4pairIKNSt7__cxx1112basic_stringIcSt11char_traitsIcESaIcEEEN7rocksdb12InfoLogLevelEEC2IRA12_KcS8_TnNSt9enable_ifIXaaclsr5_PCCPE22_MoveConstructiblePairIT_T0_EEclsr5_PCCPE30_ImplicitlyMoveConvertiblePairISF_SG_EEEbE4typeELb1EEEOSF_OSG_(ptr noundef nonnull align 8 dereferenceable(33) %arrayinit.element10, ptr noundef nonnull align 1 dereferenceable(12) @.str.23, ptr noundef nonnull align 1 dereferenceable(1) %ref.tmp11)
          to label %invoke.cont12 unwind label %lpad

invoke.cont12:                                    ; preds = %invoke.cont9
  %arrayinit.element13 = getelementptr inbounds %"struct.std::pair.65", ptr %arrayinit.element10, i64 1
  store ptr %arrayinit.element13, ptr %arrayinit.endOfInit, align 8
  store i8 5, ptr %ref.tmp14, align 1
  invoke void @_ZNSt4pairIKNSt7__cxx1112basic_stringIcSt11char_traitsIcESaIcEEEN7rocksdb12InfoLogLevelEEC2IRA13_KcS8_TnNSt9enable_ifIXaaclsr5_PCCPE22_MoveConstructiblePairIT_T0_EEclsr5_PCCPE30_ImplicitlyMoveConvertiblePairISF_SG_EEEbE4typeELb1EEEOSF_OSG_(ptr noundef nonnull align 8 dereferenceable(33) %arrayinit.element13, ptr noundef nonnull align 1 dereferenceable(13) @.str.24, ptr noundef nonnull align 1 dereferenceable(1) %ref.tmp14)
          to label %invoke.cont15 unwind label %lpad

invoke.cont15:                                    ; preds = %invoke.cont12
  %_M_array = getelementptr inbounds %"class.std::initializer_list.64", ptr %agg.tmp, i32 0, i32 0
  %arraystart = getelementptr inbounds [6 x %"struct.std::pair.65"], ptr %ref.tmp, i64 0, i64 0
  store ptr %arraystart, ptr %_M_array, align 8
  %_M_len = getelementptr inbounds %"class.std::initializer_list.64", ptr %agg.tmp, i32 0, i32 1
  store i64 6, ptr %_M_len, align 8
  call void @_ZNSaISt4pairIKNSt7__cxx1112basic_stringIcSt11char_traitsIcESaIcEEEN7rocksdb12InfoLogLevelEEEC2Ev(ptr noundef nonnull align 1 dereferenceable(1) %ref.tmp19) #3
  %0 = getelementptr inbounds { ptr, i64 }, ptr %agg.tmp, i32 0, i32 0
  %1 = load ptr, ptr %0, align 8
  %2 = getelementptr inbounds { ptr, i64 }, ptr %agg.tmp, i32 0, i32 1
  %3 = load i64, ptr %2, align 8
  invoke void @_ZNSt13unordered_mapINSt7__cxx1112basic_stringIcSt11char_traitsIcESaIcEEEN7rocksdb12InfoLogLevelESt4hashIS5_ESt8equal_toIS5_ESaISt4pairIKS5_S7_EEEC2ESt16initializer_listISE_EmRKS9_RKSB_RKSF_(ptr noundef nonnull align 8 dereferenceable(56) @_ZN7rocksdbL25info_log_level_string_mapB5cxx11E, ptr %1, i64 %3, i64 noundef 0, ptr noundef nonnull align 1 dereferenceable(1) %ref.tmp17, ptr noundef nonnull align 1 dereferenceable(1) %ref.tmp18, ptr noundef nonnull align 1 dereferenceable(1) %ref.tmp19)
          to label %invoke.cont21 unwind label %lpad20

invoke.cont21:                                    ; preds = %invoke.cont15
  call void @_ZNSaISt4pairIKNSt7__cxx1112basic_stringIcSt11char_traitsIcESaIcEEEN7rocksdb12InfoLogLevelEEED2Ev(ptr noundef nonnull align 1 dereferenceable(1) %ref.tmp19) #3
  %array.begin = getelementptr inbounds [6 x %"struct.std::pair.65"], ptr %ref.tmp, i32 0, i32 0
  %4 = getelementptr inbounds %"struct.std::pair.65", ptr %array.begin, i64 6
  br label %arraydestroy.body22

arraydestroy.body22:                              ; preds = %arraydestroy.body22, %invoke.cont21
  %arraydestroy.elementPast23 = phi ptr [ %4, %invoke.cont21 ], [ %arraydestroy.element24, %arraydestroy.body22 ]
  %arraydestroy.element24 = getelementptr inbounds %"struct.std::pair.65", ptr %arraydestroy.elementPast23, i64 -1
  call void @_ZNSt4pairIKNSt7__cxx1112basic_stringIcSt11char_traitsIcESaIcEEEN7rocksdb12InfoLogLevelEED2Ev(ptr noundef nonnull align 8 dereferenceable(33) %arraydestroy.element24) #3
  %arraydestroy.done25 = icmp eq ptr %arraydestroy.element24, %array.begin
  br i1 %arraydestroy.done25, label %arraydestroy.done26, label %arraydestroy.body22

arraydestroy.done26:                              ; preds = %arraydestroy.body22
  %5 = call i32 @__cxa_atexit(ptr @_ZNSt13unordered_mapINSt7__cxx1112basic_stringIcSt11char_traitsIcESaIcEEEN7rocksdb12InfoLogLevelESt4hashIS5_ESt8equal_toIS5_ESaISt4pairIKS5_S7_EEED2Ev, ptr @_ZN7rocksdbL25info_log_level_string_mapB5cxx11E, ptr @__dso_handle) #3
  ret void

lpad:                                             ; preds = %invoke.cont12, %invoke.cont9, %invoke.cont6, %invoke.cont3, %invoke.cont, %entry
  %6 = landingpad { ptr, i32 }
          cleanup
  %7 = extractvalue { ptr, i32 } %6, 0
  store ptr %7, ptr %exn.slot, align 8
  %8 = extractvalue { ptr, i32 } %6, 1
  store i32 %8, ptr %ehselector.slot, align 4
  %9 = load ptr, ptr %arrayinit.endOfInit, align 8
  %arraydestroy.isempty = icmp eq ptr %arrayinit.begin, %9
  br i1 %arraydestroy.isempty, label %arraydestroy.done16, label %arraydestroy.body

arraydestroy.body:                                ; preds = %arraydestroy.body, %lpad
  %arraydestroy.elementPast = phi ptr [ %9, %lpad ], [ %arraydestroy.element, %arraydestroy.body ]
  %arraydestroy.element = getelementptr inbounds %"struct.std::pair.65", ptr %arraydestroy.elementPast, i64 -1
  call void @_ZNSt4pairIKNSt7__cxx1112basic_stringIcSt11char_traitsIcESaIcEEEN7rocksdb12InfoLogLevelEED2Ev(ptr noundef nonnull align 8 dereferenceable(33) %arraydestroy.element) #3
  %arraydestroy.done = icmp eq ptr %arraydestroy.element, %arrayinit.begin
  br i1 %arraydestroy.done, label %arraydestroy.done16, label %arraydestroy.body

arraydestroy.done16:                              ; preds = %arraydestroy.body, %lpad
  br label %eh.resume

lpad20:                                           ; preds = %invoke.cont15
  %10 = landingpad { ptr, i32 }
          cleanup
  %11 = extractvalue { ptr, i32 } %10, 0
  store ptr %11, ptr %exn.slot, align 8
  %12 = extractvalue { ptr, i32 } %10, 1
  store i32 %12, ptr %ehselector.slot, align 4
  call void @_ZNSaISt4pairIKNSt7__cxx1112basic_stringIcSt11char_traitsIcESaIcEEEN7rocksdb12InfoLogLevelEEED2Ev(ptr noundef nonnull align 1 dereferenceable(1) %ref.tmp19) #3
  %array.begin27 = getelementptr inbounds [6 x %"struct.std::pair.65"], ptr %ref.tmp, i32 0, i32 0
  %13 = getelementptr inbounds %"struct.std::pair.65", ptr %array.begin27, i64 6
  br label %arraydestroy.body28

arraydestroy.body28:                              ; preds = %arraydestroy.body28, %lpad20
  %arraydestroy.elementPast29 = phi ptr [ %13, %lpad20 ], [ %arraydestroy.element30, %arraydestroy.body28 ]
  %arraydestroy.element30 = getelementptr inbounds %"struct.std::pair.65", ptr %arraydestroy.elementPast29, i64 -1
  call void @_ZNSt4pairIKNSt7__cxx1112basic_stringIcSt11char_traitsIcESaIcEEEN7rocksdb12InfoLogLevelEED2Ev(ptr noundef nonnull align 8 dereferenceable(33) %arraydestroy.element30) #3
  %arraydestroy.done31 = icmp eq ptr %arraydestroy.element30, %array.begin27
  br i1 %arraydestroy.done31, label %arraydestroy.done32, label %arraydestroy.body28

arraydestroy.done32:                              ; preds = %arraydestroy.body28
  br label %eh.resume

eh.resume:                                        ; preds = %arraydestroy.done32, %arraydestroy.done16
  %exn = load ptr, ptr %exn.slot, align 8
  %sel = load i32, ptr %ehselector.slot, align 4
  %lpad.val = insertvalue { ptr, i32 } poison, ptr %exn, 0
  %lpad.val33 = insertvalue { ptr, i32 } %lpad.val, i32 %sel, 1
  resume { ptr, i32 } %lpad.val33
}

; Function Attrs: mustprogress uwtable
define linkonce_odr void @_ZNSt4pairIKNSt7__cxx1112basic_stringIcSt11char_traitsIcESaIcEEEN7rocksdb12InfoLogLevelEEC2IRA12_KcS8_TnNSt9enable_ifIXaaclsr5_PCCPE22_MoveConstructiblePairIT_T0_EEclsr5_PCCPE30_ImplicitlyMoveConvertiblePairISF_SG_EEEbE4typeELb1EEEOSF_OSG_(ptr noundef nonnull align 8 dereferenceable(33) %this, ptr noundef nonnull align 1 dereferenceable(12) %__x, ptr noundef nonnull align 1 dereferenceable(1) %__y) unnamed_addr #2 comdat align 2 personality ptr @__gxx_personality_v0 {
entry:
  %this.addr = alloca ptr, align 8
  %__x.addr = alloca ptr, align 8
  %__y.addr = alloca ptr, align 8
  %ref.tmp = alloca %"class.std::allocator", align 1
  %exn.slot = alloca ptr, align 8
  %ehselector.slot = alloca i32, align 4
  store ptr %this, ptr %this.addr, align 8
  store ptr %__x, ptr %__x.addr, align 8
  store ptr %__y, ptr %__y.addr, align 8
  %this1 = load ptr, ptr %this.addr, align 8
  %first = getelementptr inbounds %"struct.std::pair.65", ptr %this1, i32 0, i32 0
  %0 = load ptr, ptr %__x.addr, align 8
  %arraydecay = getelementptr inbounds [12 x i8], ptr %0, i64 0, i64 0
  call void @_ZNSaIcEC1Ev(ptr noundef nonnull align 1 dereferenceable(1) %ref.tmp) #3
  invoke void @_ZNSt7__cxx1112basic_stringIcSt11char_traitsIcESaIcEEC2IS3_EEPKcRKS3_(ptr noundef nonnull align 8 dereferenceable(32) %first, ptr noundef %arraydecay, ptr noundef nonnull align 1 dereferenceable(1) %ref.tmp)
          to label %invoke.cont unwind label %lpad

invoke.cont:                                      ; preds = %entry
  call void @_ZNSaIcED1Ev(ptr noundef nonnull align 1 dereferenceable(1) %ref.tmp) #3
  %second = getelementptr inbounds %"struct.std::pair.65", ptr %this1, i32 0, i32 1
  %1 = load ptr, ptr %__y.addr, align 8
  %2 = load i8, ptr %1, align 1
  store i8 %2, ptr %second, align 8
  ret void

lpad:                                             ; preds = %entry
  %3 = landingpad { ptr, i32 }
          cleanup
  %4 = extractvalue { ptr, i32 } %3, 0
  store ptr %4, ptr %exn.slot, align 8
  %5 = extractvalue { ptr, i32 } %3, 1
  store i32 %5, ptr %ehselector.slot, align 4
  call void @_ZNSaIcED1Ev(ptr noundef nonnull align 1 dereferenceable(1) %ref.tmp) #3
  br label %eh.resume

eh.resume:                                        ; preds = %lpad
  %exn = load ptr, ptr %exn.slot, align 8
  %sel = load i32, ptr %ehselector.slot, align 4
  %lpad.val = insertvalue { ptr, i32 } poison, ptr %exn, 0
  %lpad.val2 = insertvalue { ptr, i32 } %lpad.val, i32 %sel, 1
  resume { ptr, i32 } %lpad.val2
}

; Function Attrs: mustprogress uwtable
define linkonce_odr void @_ZNSt4pairIKNSt7__cxx1112basic_stringIcSt11char_traitsIcESaIcEEEN7rocksdb12InfoLogLevelEEC2IRA11_KcS8_TnNSt9enable_ifIXaaclsr5_PCCPE22_MoveConstructiblePairIT_T0_EEclsr5_PCCPE30_ImplicitlyMoveConvertiblePairISF_SG_EEEbE4typeELb1EEEOSF_OSG_(ptr noundef nonnull align 8 dereferenceable(33) %this, ptr noundef nonnull align 1 dereferenceable(11) %__x, ptr noundef nonnull align 1 dereferenceable(1) %__y) unnamed_addr #2 comdat align 2 personality ptr @__gxx_personality_v0 {
entry:
  %this.addr = alloca ptr, align 8
  %__x.addr = alloca ptr, align 8
  %__y.addr = alloca ptr, align 8
  %ref.tmp = alloca %"class.std::allocator", align 1
  %exn.slot = alloca ptr, align 8
  %ehselector.slot = alloca i32, align 4
  store ptr %this, ptr %this.addr, align 8
  store ptr %__x, ptr %__x.addr, align 8
  store ptr %__y, ptr %__y.addr, align 8
  %this1 = load ptr, ptr %this.addr, align 8
  %first = getelementptr inbounds %"struct.std::pair.65", ptr %this1, i32 0, i32 0
  %0 = load ptr, ptr %__x.addr, align 8
  %arraydecay = getelementptr inbounds [11 x i8], ptr %0, i64 0, i64 0
  call void @_ZNSaIcEC1Ev(ptr noundef nonnull align 1 dereferenceable(1) %ref.tmp) #3
  invoke void @_ZNSt7__cxx1112basic_stringIcSt11char_traitsIcESaIcEEC2IS3_EEPKcRKS3_(ptr noundef nonnull align 8 dereferenceable(32) %first, ptr noundef %arraydecay, ptr noundef nonnull align 1 dereferenceable(1) %ref.tmp)
          to label %invoke.cont unwind label %lpad

invoke.cont:                                      ; preds = %entry
  call void @_ZNSaIcED1Ev(ptr noundef nonnull align 1 dereferenceable(1) %ref.tmp) #3
  %second = getelementptr inbounds %"struct.std::pair.65", ptr %this1, i32 0, i32 1
  %1 = load ptr, ptr %__y.addr, align 8
  %2 = load i8, ptr %1, align 1
  store i8 %2, ptr %second, align 8
  ret void

lpad:                                             ; preds = %entry
  %3 = landingpad { ptr, i32 }
          cleanup
  %4 = extractvalue { ptr, i32 } %3, 0
  store ptr %4, ptr %exn.slot, align 8
  %5 = extractvalue { ptr, i32 } %3, 1
  store i32 %5, ptr %ehselector.slot, align 4
  call void @_ZNSaIcED1Ev(ptr noundef nonnull align 1 dereferenceable(1) %ref.tmp) #3
  br label %eh.resume

eh.resume:                                        ; preds = %lpad
  %exn = load ptr, ptr %exn.slot, align 8
  %sel = load i32, ptr %ehselector.slot, align 4
  %lpad.val = insertvalue { ptr, i32 } poison, ptr %exn, 0
  %lpad.val2 = insertvalue { ptr, i32 } %lpad.val, i32 %sel, 1
  resume { ptr, i32 } %lpad.val2
}

; Function Attrs: mustprogress uwtable
define linkonce_odr void @_ZNSt4pairIKNSt7__cxx1112basic_stringIcSt11char_traitsIcESaIcEEEN7rocksdb12InfoLogLevelEEC2IRA13_KcS8_TnNSt9enable_ifIXaaclsr5_PCCPE22_MoveConstructiblePairIT_T0_EEclsr5_PCCPE30_ImplicitlyMoveConvertiblePairISF_SG_EEEbE4typeELb1EEEOSF_OSG_(ptr noundef nonnull align 8 dereferenceable(33) %this, ptr noundef nonnull align 1 dereferenceable(13) %__x, ptr noundef nonnull align 1 dereferenceable(1) %__y) unnamed_addr #2 comdat align 2 personality ptr @__gxx_personality_v0 {
entry:
  %this.addr = alloca ptr, align 8
  %__x.addr = alloca ptr, align 8
  %__y.addr = alloca ptr, align 8
  %ref.tmp = alloca %"class.std::allocator", align 1
  %exn.slot = alloca ptr, align 8
  %ehselector.slot = alloca i32, align 4
  store ptr %this, ptr %this.addr, align 8
  store ptr %__x, ptr %__x.addr, align 8
  store ptr %__y, ptr %__y.addr, align 8
  %this1 = load ptr, ptr %this.addr, align 8
  %first = getelementptr inbounds %"struct.std::pair.65", ptr %this1, i32 0, i32 0
  %0 = load ptr, ptr %__x.addr, align 8
  %arraydecay = getelementptr inbounds [13 x i8], ptr %0, i64 0, i64 0
  call void @_ZNSaIcEC1Ev(ptr noundef nonnull align 1 dereferenceable(1) %ref.tmp) #3
  invoke void @_ZNSt7__cxx1112basic_stringIcSt11char_traitsIcESaIcEEC2IS3_EEPKcRKS3_(ptr noundef nonnull align 8 dereferenceable(32) %first, ptr noundef %arraydecay, ptr noundef nonnull align 1 dereferenceable(1) %ref.tmp)
          to label %invoke.cont unwind label %lpad

invoke.cont:                                      ; preds = %entry
  call void @_ZNSaIcED1Ev(ptr noundef nonnull align 1 dereferenceable(1) %ref.tmp) #3
  %second = getelementptr inbounds %"struct.std::pair.65", ptr %this1, i32 0, i32 1
  %1 = load ptr, ptr %__y.addr, align 8
  %2 = load i8, ptr %1, align 1
  store i8 %2, ptr %second, align 8
  ret void

lpad:                                             ; preds = %entry
  %3 = landingpad { ptr, i32 }
          cleanup
  %4 = extractvalue { ptr, i32 } %3, 0
  store ptr %4, ptr %exn.slot, align 8
  %5 = extractvalue { ptr, i32 } %3, 1
  store i32 %5, ptr %ehselector.slot, align 4
  call void @_ZNSaIcED1Ev(ptr noundef nonnull align 1 dereferenceable(1) %ref.tmp) #3
  br label %eh.resume

eh.resume:                                        ; preds = %lpad
  %exn = load ptr, ptr %exn.slot, align 8
  %sel = load i32, ptr %ehselector.slot, align 4
  %lpad.val = insertvalue { ptr, i32 } poison, ptr %exn, 0
  %lpad.val2 = insertvalue { ptr, i32 } %lpad.val, i32 %sel, 1
  resume { ptr, i32 } %lpad.val2
}

; Function Attrs: mustprogress nounwind uwtable
define linkonce_odr void @_ZNSt4pairIKNSt7__cxx1112basic_stringIcSt11char_traitsIcESaIcEEEN7rocksdb12InfoLogLevelEED2Ev(ptr noundef nonnull align 8 dereferenceable(33) %this) unnamed_addr #4 comdat align 2 {
entry:
  %this.addr = alloca ptr, align 8
  store ptr %this, ptr %this.addr, align 8
  %this1 = load ptr, ptr %this.addr, align 8
  %first = getelementptr inbounds %"struct.std::pair.65", ptr %this1, i32 0, i32 0
  call void @_ZNSt7__cxx1112basic_stringIcSt11char_traitsIcESaIcEED1Ev(ptr noundef nonnull align 8 dereferenceable(32) %first) #3
  ret void
}

; Function Attrs: mustprogress nounwind uwtable
define linkonce_odr void @_ZNSaISt4pairIKNSt7__cxx1112basic_stringIcSt11char_traitsIcESaIcEEEN7rocksdb12InfoLogLevelEEEC2Ev(ptr noundef nonnull align 1 dereferenceable(1) %this) unnamed_addr #4 comdat align 2 {
entry:
  %this.addr = alloca ptr, align 8
  store ptr %this, ptr %this.addr, align 8
  %this1 = load ptr, ptr %this.addr, align 8
  call void @_ZNSt15__new_allocatorISt4pairIKNSt7__cxx1112basic_stringIcSt11char_traitsIcESaIcEEEN7rocksdb12InfoLogLevelEEEC2Ev(ptr noundef nonnull align 1 dereferenceable(1) %this1) #3
  ret void
}

; Function Attrs: mustprogress uwtable
define linkonce_odr void @_ZNSt13unordered_mapINSt7__cxx1112basic_stringIcSt11char_traitsIcESaIcEEEN7rocksdb12InfoLogLevelESt4hashIS5_ESt8equal_toIS5_ESaISt4pairIKS5_S7_EEEC2ESt16initializer_listISE_EmRKS9_RKSB_RKSF_(ptr noundef nonnull align 8 dereferenceable(56) %this, ptr %__l.coerce0, i64 %__l.coerce1, i64 noundef %__n, ptr noundef nonnull align 1 dereferenceable(1) %__hf, ptr noundef nonnull align 1 dereferenceable(1) %__eql, ptr noundef nonnull align 1 dereferenceable(1) %__a) unnamed_addr #2 comdat align 2 {
entry:
  %__l = alloca %"class.std::initializer_list.64", align 8
  %this.addr = alloca ptr, align 8
  %__n.addr = alloca i64, align 8
  %__hf.addr = alloca ptr, align 8
  %__eql.addr = alloca ptr, align 8
  %__a.addr = alloca ptr, align 8
  %agg.tmp = alloca %"class.std::initializer_list.64", align 8
  %0 = getelementptr inbounds { ptr, i64 }, ptr %__l, i32 0, i32 0
  store ptr %__l.coerce0, ptr %0, align 8
  %1 = getelementptr inbounds { ptr, i64 }, ptr %__l, i32 0, i32 1
  store i64 %__l.coerce1, ptr %1, align 8
  store ptr %this, ptr %this.addr, align 8
  store i64 %__n, ptr %__n.addr, align 8
  store ptr %__hf, ptr %__hf.addr, align 8
  store ptr %__eql, ptr %__eql.addr, align 8
  store ptr %__a, ptr %__a.addr, align 8
  %this1 = load ptr, ptr %this.addr, align 8
  %_M_h = getelementptr inbounds %"class.std::unordered_map.50", ptr %this1, i32 0, i32 0
  call void @llvm.memcpy.p0.p0.i64(ptr align 8 %agg.tmp, ptr align 8 %__l, i64 16, i1 false)
  %2 = load i64, ptr %__n.addr, align 8
  %3 = load ptr, ptr %__hf.addr, align 8
  %4 = load ptr, ptr %__eql.addr, align 8
  %5 = load ptr, ptr %__a.addr, align 8
  %6 = getelementptr inbounds { ptr, i64 }, ptr %agg.tmp, i32 0, i32 0
  %7 = load ptr, ptr %6, align 8
  %8 = getelementptr inbounds { ptr, i64 }, ptr %agg.tmp, i32 0, i32 1
  %9 = load i64, ptr %8, align 8
  call void @_ZNSt10_HashtableINSt7__cxx1112basic_stringIcSt11char_traitsIcESaIcEEESt4pairIKS5_N7rocksdb12InfoLogLevelEESaISA_ENSt8__detail10_Select1stESt8equal_toIS5_ESt4hashIS5_ENSC_18_Mod_range_hashingENSC_20_Default_ranged_hashENSC_20_Prime_rehash_policyENSC_17_Hashtable_traitsILb1ELb0ELb1EEEEC2ESt16initializer_listISA_EmRKSH_RKSF_RKSB_(ptr noundef nonnull align 8 dereferenceable(56) %_M_h, ptr %7, i64 %9, i64 noundef %2, ptr noundef nonnull align 1 dereferenceable(1) %3, ptr noundef nonnull align 1 dereferenceable(1) %4, ptr noundef nonnull align 1 dereferenceable(1) %5)
  ret void
}

; Function Attrs: mustprogress nounwind uwtable
define linkonce_odr void @_ZNSaISt4pairIKNSt7__cxx1112basic_stringIcSt11char_traitsIcESaIcEEEN7rocksdb12InfoLogLevelEEED2Ev(ptr noundef nonnull align 1 dereferenceable(1) %this) unnamed_addr #4 comdat align 2 {
entry:
  %this.addr = alloca ptr, align 8
  store ptr %this, ptr %this.addr, align 8
  %this1 = load ptr, ptr %this.addr, align 8
  call void @_ZNSt15__new_allocatorISt4pairIKNSt7__cxx1112basic_stringIcSt11char_traitsIcESaIcEEEN7rocksdb12InfoLogLevelEEED2Ev(ptr noundef nonnull align 1 dereferenceable(1) %this1) #3
  ret void
}

; Function Attrs: mustprogress nounwind uwtable
define linkonce_odr void @_ZNSt13unordered_mapINSt7__cxx1112basic_stringIcSt11char_traitsIcESaIcEEEN7rocksdb12InfoLogLevelESt4hashIS5_ESt8equal_toIS5_ESaISt4pairIKS5_S7_EEED2Ev(ptr noundef nonnull align 8 dereferenceable(56) %this) unnamed_addr #4 comdat align 2 {
entry:
  %this.addr = alloca ptr, align 8
  store ptr %this, ptr %this.addr, align 8
  %this1 = load ptr, ptr %this.addr, align 8
  %_M_h = getelementptr inbounds %"class.std::unordered_map.50", ptr %this1, i32 0, i32 0
  call void @_ZNSt10_HashtableINSt7__cxx1112basic_stringIcSt11char_traitsIcESaIcEEESt4pairIKS5_N7rocksdb12InfoLogLevelEESaISA_ENSt8__detail10_Select1stESt8equal_toIS5_ESt4hashIS5_ENSC_18_Mod_range_hashingENSC_20_Default_ranged_hashENSC_20_Prime_rehash_policyENSC_17_Hashtable_traitsILb1ELb0ELb1EEEED2Ev(ptr noundef nonnull align 8 dereferenceable(56) %_M_h) #3
  ret void
}

; Function Attrs: uwtable
define internal void @__cxx_global_var_init.25() #0 section ".text.startup" personality ptr @__gxx_personality_v0 {
entry:
  %agg.tmp = alloca %"class.std::initializer_list.85", align 8
  %ref.tmp = alloca [20 x %"struct.std::pair.86"], align 8
  %arrayinit.endOfInit = alloca ptr, align 8
  %ref.tmp1 = alloca %"class.std::__cxx11::basic_string", align 8
  %ref.tmp2 = alloca %"class.std::allocator", align 1
  %exn.slot = alloca ptr, align 8
  %ehselector.slot = alloca i32, align 4
  %ref.tmp3 = alloca %"class.rocksdb::OptionTypeInfo", align 8
  %ref.tmp8 = alloca %"class.std::__cxx11::basic_string", align 8
  %ref.tmp9 = alloca %"class.std::allocator", align 1
  %ref.tmp12 = alloca %"class.rocksdb::OptionTypeInfo", align 8
  %ref.tmp18 = alloca %"class.std::__cxx11::basic_string", align 8
  %ref.tmp19 = alloca %"class.std::allocator", align 1
  %ref.tmp22 = alloca %"class.rocksdb::OptionTypeInfo", align 8
  %ref.tmp28 = alloca %"class.std::__cxx11::basic_string", align 8
  %ref.tmp29 = alloca %"class.std::allocator", align 1
  %ref.tmp32 = alloca %"class.rocksdb::OptionTypeInfo", align 8
  %ref.tmp38 = alloca %"class.std::__cxx11::basic_string", align 8
  %ref.tmp39 = alloca %"class.std::allocator", align 1
  %ref.tmp42 = alloca %"class.rocksdb::OptionTypeInfo", align 8
  %ref.tmp48 = alloca %"class.std::__cxx11::basic_string", align 8
  %ref.tmp49 = alloca %"class.std::allocator", align 1
  %ref.tmp52 = alloca %"class.rocksdb::OptionTypeInfo", align 8
  %ref.tmp58 = alloca %"class.std::__cxx11::basic_string", align 8
  %ref.tmp59 = alloca %"class.std::allocator", align 1
  %ref.tmp62 = alloca %"class.rocksdb::OptionTypeInfo", align 8
  %ref.tmp68 = alloca %"class.std::__cxx11::basic_string", align 8
  %ref.tmp69 = alloca %"class.std::allocator", align 1
  %ref.tmp72 = alloca %"class.rocksdb::OptionTypeInfo", align 8
  %ref.tmp78 = alloca %"class.std::__cxx11::basic_string", align 8
  %ref.tmp79 = alloca %"class.std::allocator", align 1
  %ref.tmp82 = alloca %"class.rocksdb::OptionTypeInfo", align 8
  %ref.tmp88 = alloca %"class.std::__cxx11::basic_string", align 8
  %ref.tmp89 = alloca %"class.std::allocator", align 1
  %ref.tmp92 = alloca %"class.rocksdb::OptionTypeInfo", align 8
  %ref.tmp98 = alloca %"class.std::__cxx11::basic_string", align 8
  %ref.tmp99 = alloca %"class.std::allocator", align 1
  %ref.tmp102 = alloca %"class.rocksdb::OptionTypeInfo", align 8
  %ref.tmp108 = alloca %"class.std::__cxx11::basic_string", align 8
  %ref.tmp109 = alloca %"class.std::allocator", align 1
  %ref.tmp112 = alloca %"class.rocksdb::OptionTypeInfo", align 8
  %ref.tmp118 = alloca %"class.std::__cxx11::basic_string", align 8
  %ref.tmp119 = alloca %"class.std::allocator", align 1
  %ref.tmp122 = alloca %"class.rocksdb::OptionTypeInfo", align 8
  %ref.tmp128 = alloca %"class.std::__cxx11::basic_string", align 8
  %ref.tmp129 = alloca %"class.std::allocator", align 1
  %ref.tmp132 = alloca %"class.rocksdb::OptionTypeInfo", align 8
  %ref.tmp138 = alloca %"class.std::__cxx11::basic_string", align 8
  %ref.tmp139 = alloca %"class.std::allocator", align 1
  %ref.tmp142 = alloca %"class.rocksdb::OptionTypeInfo", align 8
  %ref.tmp148 = alloca %"class.std::__cxx11::basic_string", align 8
  %ref.tmp149 = alloca %"class.std::allocator", align 1
  %ref.tmp152 = alloca %"class.rocksdb::OptionTypeInfo", align 8
  %ref.tmp158 = alloca %"class.std::__cxx11::basic_string", align 8
  %ref.tmp159 = alloca %"class.std::allocator", align 1
  %ref.tmp162 = alloca %"class.rocksdb::OptionTypeInfo", align 8
  %ref.tmp168 = alloca %"class.std::__cxx11::basic_string", align 8
  %ref.tmp169 = alloca %"class.std::allocator", align 1
  %ref.tmp172 = alloca %"class.rocksdb::OptionTypeInfo", align 8
  %ref.tmp178 = alloca %"class.std::__cxx11::basic_string", align 8
  %ref.tmp179 = alloca %"class.std::allocator", align 1
  %ref.tmp182 = alloca %"class.rocksdb::OptionTypeInfo", align 8
  %ref.tmp188 = alloca %"class.std::__cxx11::basic_string", align 8
  %ref.tmp189 = alloca %"class.std::allocator", align 1
  %ref.tmp192 = alloca %"class.rocksdb::OptionTypeInfo", align 8
  %cleanup.isactive = alloca i1, align 1
  %ref.tmp197 = alloca %"struct.std::hash", align 1
  %ref.tmp198 = alloca %"struct.std::equal_to", align 1
  %ref.tmp199 = alloca %"class.std::allocator.96", align 1
  %arrayinit.begin = getelementptr inbounds [20 x %"struct.std::pair.86"], ptr %ref.tmp, i64 0, i64 0
  store i1 true, ptr %cleanup.isactive, align 1
  store ptr %arrayinit.begin, ptr %arrayinit.endOfInit, align 8
  call void @_ZNSaIcEC1Ev(ptr noundef nonnull align 1 dereferenceable(1) %ref.tmp2) #3
  invoke void @_ZNSt7__cxx1112basic_stringIcSt11char_traitsIcESaIcEEC2IS3_EEPKcRKS3_(ptr noundef nonnull align 8 dereferenceable(32) %ref.tmp1, ptr noundef @.str.26, ptr noundef nonnull align 1 dereferenceable(1) %ref.tmp2)
          to label %invoke.cont unwind label %lpad

invoke.cont:                                      ; preds = %entry
  invoke void @_ZN7rocksdb14OptionTypeInfoC2EiNS_10OptionTypeENS_22OptionVerificationTypeENS_15OptionTypeFlagsE(ptr noundef nonnull align 8 dereferenceable(180) %ref.tmp3, i32 noundef 0, i32 noundef 0, i32 noundef 4, i32 noundef 256)
          to label %invoke.cont5 unwind label %lpad4

invoke.cont5:                                     ; preds = %invoke.cont
  invoke void @_ZNSt4pairIKNSt7__cxx1112basic_stringIcSt11char_traitsIcESaIcEEEN7rocksdb14OptionTypeInfoEEC2IS6_S8_TnNSt9enable_ifIXaaclsr5_PCCPE18_ConstructiblePairIT_T0_EEclsr5_PCCPE26_ImplicitlyConvertiblePairISC_SD_EEEbE4typeELb1EEERS6_RKS8_(ptr noundef nonnull align 8 dereferenceable(216) %arrayinit.begin, ptr noundef nonnull align 8 dereferenceable(32) %ref.tmp1, ptr noundef nonnull align 8 dereferenceable(180) %ref.tmp3)
          to label %invoke.cont7 unwind label %lpad6

invoke.cont7:                                     ; preds = %invoke.cont5
  %arrayinit.element = getelementptr inbounds %"struct.std::pair.86", ptr %arrayinit.begin, i64 1
  store ptr %arrayinit.element, ptr %arrayinit.endOfInit, align 8
  call void @_ZNSaIcEC1Ev(ptr noundef nonnull align 1 dereferenceable(1) %ref.tmp9) #3
  invoke void @_ZNSt7__cxx1112basic_stringIcSt11char_traitsIcESaIcEEC2IS3_EEPKcRKS3_(ptr noundef nonnull align 8 dereferenceable(32) %ref.tmp8, ptr noundef @.str.27, ptr noundef nonnull align 1 dereferenceable(1) %ref.tmp9)
          to label %invoke.cont11 unwind label %lpad10

invoke.cont11:                                    ; preds = %invoke.cont7
  invoke void @_ZN7rocksdb14OptionTypeInfoC2EiNS_10OptionTypeENS_22OptionVerificationTypeENS_15OptionTypeFlagsE(ptr noundef nonnull align 8 dereferenceable(180) %ref.tmp12, i32 noundef 0, i32 noundef 1, i32 noundef 4, i32 noundef 256)
          to label %invoke.cont14 unwind label %lpad13

invoke.cont14:                                    ; preds = %invoke.cont11
  invoke void @_ZNSt4pairIKNSt7__cxx1112basic_stringIcSt11char_traitsIcESaIcEEEN7rocksdb14OptionTypeInfoEEC2IS6_S8_TnNSt9enable_ifIXaaclsr5_PCCPE18_ConstructiblePairIT_T0_EEclsr5_PCCPE26_ImplicitlyConvertiblePairISC_SD_EEEbE4typeELb1EEERS6_RKS8_(ptr noundef nonnull align 8 dereferenceable(216) %arrayinit.element, ptr noundef nonnull align 8 dereferenceable(32) %ref.tmp8, ptr noundef nonnull align 8 dereferenceable(180) %ref.tmp12)
          to label %invoke.cont16 unwind label %lpad15

invoke.cont16:                                    ; preds = %invoke.cont14
  %arrayinit.element17 = getelementptr inbounds %"struct.std::pair.86", ptr %arrayinit.element, i64 1
  store ptr %arrayinit.element17, ptr %arrayinit.endOfInit, align 8
  call void @_ZNSaIcEC1Ev(ptr noundef nonnull align 1 dereferenceable(1) %ref.tmp19) #3
  invoke void @_ZNSt7__cxx1112basic_stringIcSt11char_traitsIcESaIcEEC2IS3_EEPKcRKS3_(ptr noundef nonnull align 8 dereferenceable(32) %ref.tmp18, ptr noundef @.str.28, ptr noundef nonnull align 1 dereferenceable(1) %ref.tmp19)
          to label %invoke.cont21 unwind label %lpad20

invoke.cont21:                                    ; preds = %invoke.cont16
  invoke void @_ZN7rocksdb14OptionTypeInfoC2EiNS_10OptionTypeENS_22OptionVerificationTypeENS_15OptionTypeFlagsE(ptr noundef nonnull align 8 dereferenceable(180) %ref.tmp22, i32 noundef 0, i32 noundef 1, i32 noundef 0, i32 noundef 256)
          to label %invoke.cont24 unwind label %lpad23

invoke.cont24:                                    ; preds = %invoke.cont21
  invoke void @_ZNSt4pairIKNSt7__cxx1112basic_stringIcSt11char_traitsIcESaIcEEEN7rocksdb14OptionTypeInfoEEC2IS6_S8_TnNSt9enable_ifIXaaclsr5_PCCPE18_ConstructiblePairIT_T0_EEclsr5_PCCPE26_ImplicitlyConvertiblePairISC_SD_EEEbE4typeELb1EEERS6_RKS8_(ptr noundef nonnull align 8 dereferenceable(216) %arrayinit.element17, ptr noundef nonnull align 8 dereferenceable(32) %ref.tmp18, ptr noundef nonnull align 8 dereferenceable(180) %ref.tmp22)
          to label %invoke.cont26 unwind label %lpad25

invoke.cont26:                                    ; preds = %invoke.cont24
  %arrayinit.element27 = getelementptr inbounds %"struct.std::pair.86", ptr %arrayinit.element17, i64 1
  store ptr %arrayinit.element27, ptr %arrayinit.endOfInit, align 8
  call void @_ZNSaIcEC1Ev(ptr noundef nonnull align 1 dereferenceable(1) %ref.tmp29) #3
  invoke void @_ZNSt7__cxx1112basic_stringIcSt11char_traitsIcESaIcEEC2IS3_EEPKcRKS3_(ptr noundef nonnull align 8 dereferenceable(32) %ref.tmp28, ptr noundef @.str.29, ptr noundef nonnull align 1 dereferenceable(1) %ref.tmp29)
          to label %invoke.cont31 unwind label %lpad30

invoke.cont31:                                    ; preds = %invoke.cont26
  invoke void @_ZN7rocksdb14OptionTypeInfoC2EiNS_10OptionTypeENS_22OptionVerificationTypeENS_15OptionTypeFlagsE(ptr noundef nonnull align 8 dereferenceable(180) %ref.tmp32, i32 noundef 4, i32 noundef 1, i32 noundef 0, i32 noundef 256)
          to label %invoke.cont34 unwind label %lpad33

invoke.cont34:                                    ; preds = %invoke.cont31
  invoke void @_ZNSt4pairIKNSt7__cxx1112basic_stringIcSt11char_traitsIcESaIcEEEN7rocksdb14OptionTypeInfoEEC2IS6_S8_TnNSt9enable_ifIXaaclsr5_PCCPE18_ConstructiblePairIT_T0_EEclsr5_PCCPE26_ImplicitlyConvertiblePairISC_SD_EEEbE4typeELb1EEERS6_RKS8_(ptr noundef nonnull align 8 dereferenceable(216) %arrayinit.element27, ptr noundef nonnull align 8 dereferenceable(32) %ref.tmp28, ptr noundef nonnull align 8 dereferenceable(180) %ref.tmp32)
          to label %invoke.cont36 unwind label %lpad35

invoke.cont36:                                    ; preds = %invoke.cont34
  %arrayinit.element37 = getelementptr inbounds %"struct.std::pair.86", ptr %arrayinit.element27, i64 1
  store ptr %arrayinit.element37, ptr %arrayinit.endOfInit, align 8
  call void @_ZNSaIcEC1Ev(ptr noundef nonnull align 1 dereferenceable(1) %ref.tmp39) #3
  invoke void @_ZNSt7__cxx1112basic_stringIcSt11char_traitsIcESaIcEEC2IS3_EEPKcRKS3_(ptr noundef nonnull align 8 dereferenceable(32) %ref.tmp38, ptr noundef @.str.30, ptr noundef nonnull align 1 dereferenceable(1) %ref.tmp39)
          to label %invoke.cont41 unwind label %lpad40

invoke.cont41:                                    ; preds = %invoke.cont36
  invoke void @_ZN7rocksdb14OptionTypeInfoC2EiNS_10OptionTypeENS_22OptionVerificationTypeENS_15OptionTypeFlagsE(ptr noundef nonnull align 8 dereferenceable(180) %ref.tmp42, i32 noundef 8, i32 noundef 6, i32 noundef 0, i32 noundef 256)
          to label %invoke.cont44 unwind label %lpad43

invoke.cont44:                                    ; preds = %invoke.cont41
  invoke void @_ZNSt4pairIKNSt7__cxx1112basic_stringIcSt11char_traitsIcESaIcEEEN7rocksdb14OptionTypeInfoEEC2IS6_S8_TnNSt9enable_ifIXaaclsr5_PCCPE18_ConstructiblePairIT_T0_EEclsr5_PCCPE26_ImplicitlyConvertiblePairISC_SD_EEEbE4typeELb1EEERS6_RKS8_(ptr noundef nonnull align 8 dereferenceable(216) %arrayinit.element37, ptr noundef nonnull align 8 dereferenceable(32) %ref.tmp38, ptr noundef nonnull align 8 dereferenceable(180) %ref.tmp42)
          to label %invoke.cont46 unwind label %lpad45

invoke.cont46:                                    ; preds = %invoke.cont44
  %arrayinit.element47 = getelementptr inbounds %"struct.std::pair.86", ptr %arrayinit.element37, i64 1
  store ptr %arrayinit.element47, ptr %arrayinit.endOfInit, align 8
  call void @_ZNSaIcEC1Ev(ptr noundef nonnull align 1 dereferenceable(1) %ref.tmp49) #3
  invoke void @_ZNSt7__cxx1112basic_stringIcSt11char_traitsIcESaIcEEC2IS3_EEPKcRKS3_(ptr noundef nonnull align 8 dereferenceable(32) %ref.tmp48, ptr noundef @.str.31, ptr noundef nonnull align 1 dereferenceable(1) %ref.tmp49)
          to label %invoke.cont51 unwind label %lpad50

invoke.cont51:                                    ; preds = %invoke.cont46
  invoke void @_ZN7rocksdb14OptionTypeInfoC2EiNS_10OptionTypeENS_22OptionVerificationTypeENS_15OptionTypeFlagsE(ptr noundef nonnull align 8 dereferenceable(180) %ref.tmp52, i32 noundef 12, i32 noundef 0, i32 noundef 0, i32 noundef 256)
          to label %invoke.cont54 unwind label %lpad53

invoke.cont54:                                    ; preds = %invoke.cont51
  invoke void @_ZNSt4pairIKNSt7__cxx1112basic_stringIcSt11char_traitsIcESaIcEEEN7rocksdb14OptionTypeInfoEEC2IS6_S8_TnNSt9enable_ifIXaaclsr5_PCCPE18_ConstructiblePairIT_T0_EEclsr5_PCCPE26_ImplicitlyConvertiblePairISC_SD_EEEbE4typeELb1EEERS6_RKS8_(ptr noundef nonnull align 8 dereferenceable(216) %arrayinit.element47, ptr noundef nonnull align 8 dereferenceable(32) %ref.tmp48, ptr noundef nonnull align 8 dereferenceable(180) %ref.tmp52)
          to label %invoke.cont56 unwind label %lpad55

invoke.cont56:                                    ; preds = %invoke.cont54
  %arrayinit.element57 = getelementptr inbounds %"struct.std::pair.86", ptr %arrayinit.element47, i64 1
  store ptr %arrayinit.element57, ptr %arrayinit.endOfInit, align 8
  call void @_ZNSaIcEC1Ev(ptr noundef nonnull align 1 dereferenceable(1) %ref.tmp59) #3
  invoke void @_ZNSt7__cxx1112basic_stringIcSt11char_traitsIcESaIcEEC2IS3_EEPKcRKS3_(ptr noundef nonnull align 8 dereferenceable(32) %ref.tmp58, ptr noundef @.str.32, ptr noundef nonnull align 1 dereferenceable(1) %ref.tmp59)
          to label %invoke.cont61 unwind label %lpad60

invoke.cont61:                                    ; preds = %invoke.cont56
  invoke void @_ZN7rocksdb14OptionTypeInfoC2EiNS_10OptionTypeENS_22OptionVerificationTypeENS_15OptionTypeFlagsE(ptr noundef nonnull align 8 dereferenceable(180) %ref.tmp62, i32 noundef 16, i32 noundef 8, i32 noundef 0, i32 noundef 256)
          to label %invoke.cont64 unwind label %lpad63

invoke.cont64:                                    ; preds = %invoke.cont61
  invoke void @_ZNSt4pairIKNSt7__cxx1112basic_stringIcSt11char_traitsIcESaIcEEEN7rocksdb14OptionTypeInfoEEC2IS6_S8_TnNSt9enable_ifIXaaclsr5_PCCPE18_ConstructiblePairIT_T0_EEclsr5_PCCPE26_ImplicitlyConvertiblePairISC_SD_EEEbE4typeELb1EEERS6_RKS8_(ptr noundef nonnull align 8 dereferenceable(216) %arrayinit.element57, ptr noundef nonnull align 8 dereferenceable(32) %ref.tmp58, ptr noundef nonnull align 8 dereferenceable(180) %ref.tmp62)
          to label %invoke.cont66 unwind label %lpad65

invoke.cont66:                                    ; preds = %invoke.cont64
  %arrayinit.element67 = getelementptr inbounds %"struct.std::pair.86", ptr %arrayinit.element57, i64 1
  store ptr %arrayinit.element67, ptr %arrayinit.endOfInit, align 8
  call void @_ZNSaIcEC1Ev(ptr noundef nonnull align 1 dereferenceable(1) %ref.tmp69) #3
  invoke void @_ZNSt7__cxx1112basic_stringIcSt11char_traitsIcESaIcEEC2IS3_EEPKcRKS3_(ptr noundef nonnull align 8 dereferenceable(32) %ref.tmp68, ptr noundef @.str.33, ptr noundef nonnull align 1 dereferenceable(1) %ref.tmp69)
          to label %invoke.cont71 unwind label %lpad70

invoke.cont71:                                    ; preds = %invoke.cont66
  invoke void @_ZN7rocksdb14OptionTypeInfoC2EiNS_10OptionTypeENS_22OptionVerificationTypeENS_15OptionTypeFlagsE(ptr noundef nonnull align 8 dereferenceable(180) %ref.tmp72, i32 noundef 24, i32 noundef 7, i32 noundef 0, i32 noundef 256)
          to label %invoke.cont74 unwind label %lpad73

invoke.cont74:                                    ; preds = %invoke.cont71
  invoke void @_ZNSt4pairIKNSt7__cxx1112basic_stringIcSt11char_traitsIcESaIcEEEN7rocksdb14OptionTypeInfoEEC2IS6_S8_TnNSt9enable_ifIXaaclsr5_PCCPE18_ConstructiblePairIT_T0_EEclsr5_PCCPE26_ImplicitlyConvertiblePairISC_SD_EEEbE4typeELb1EEERS6_RKS8_(ptr noundef nonnull align 8 dereferenceable(216) %arrayinit.element67, ptr noundef nonnull align 8 dereferenceable(32) %ref.tmp68, ptr noundef nonnull align 8 dereferenceable(180) %ref.tmp72)
          to label %invoke.cont76 unwind label %lpad75

invoke.cont76:                                    ; preds = %invoke.cont74
  %arrayinit.element77 = getelementptr inbounds %"struct.std::pair.86", ptr %arrayinit.element67, i64 1
  store ptr %arrayinit.element77, ptr %arrayinit.endOfInit, align 8
  call void @_ZNSaIcEC1Ev(ptr noundef nonnull align 1 dereferenceable(1) %ref.tmp79) #3
  invoke void @_ZNSt7__cxx1112basic_stringIcSt11char_traitsIcESaIcEEC2IS3_EEPKcRKS3_(ptr noundef nonnull align 8 dereferenceable(32) %ref.tmp78, ptr noundef @.str.34, ptr noundef nonnull align 1 dereferenceable(1) %ref.tmp79)
          to label %invoke.cont81 unwind label %lpad80

invoke.cont81:                                    ; preds = %invoke.cont76
  invoke void @_ZN7rocksdb14OptionTypeInfoC2EiNS_10OptionTypeENS_22OptionVerificationTypeENS_15OptionTypeFlagsE(ptr noundef nonnull align 8 dereferenceable(180) %ref.tmp82, i32 noundef 32, i32 noundef 7, i32 noundef 0, i32 noundef 256)
          to label %invoke.cont84 unwind label %lpad83

invoke.cont84:                                    ; preds = %invoke.cont81
  invoke void @_ZNSt4pairIKNSt7__cxx1112basic_stringIcSt11char_traitsIcESaIcEEEN7rocksdb14OptionTypeInfoEEC2IS6_S8_TnNSt9enable_ifIXaaclsr5_PCCPE18_ConstructiblePairIT_T0_EEclsr5_PCCPE26_ImplicitlyConvertiblePairISC_SD_EEEbE4typeELb1EEERS6_RKS8_(ptr noundef nonnull align 8 dereferenceable(216) %arrayinit.element77, ptr noundef nonnull align 8 dereferenceable(32) %ref.tmp78, ptr noundef nonnull align 8 dereferenceable(180) %ref.tmp82)
          to label %invoke.cont86 unwind label %lpad85

invoke.cont86:                                    ; preds = %invoke.cont84
  %arrayinit.element87 = getelementptr inbounds %"struct.std::pair.86", ptr %arrayinit.element77, i64 1
  store ptr %arrayinit.element87, ptr %arrayinit.endOfInit, align 8
  call void @_ZNSaIcEC1Ev(ptr noundef nonnull align 1 dereferenceable(1) %ref.tmp89) #3
  invoke void @_ZNSt7__cxx1112basic_stringIcSt11char_traitsIcESaIcEEC2IS3_EEPKcRKS3_(ptr noundef nonnull align 8 dereferenceable(32) %ref.tmp88, ptr noundef @.str.35, ptr noundef nonnull align 1 dereferenceable(1) %ref.tmp89)
          to label %invoke.cont91 unwind label %lpad90

invoke.cont91:                                    ; preds = %invoke.cont86
  invoke void @_ZN7rocksdb14OptionTypeInfoC2EiNS_10OptionTypeENS_22OptionVerificationTypeENS_15OptionTypeFlagsE(ptr noundef nonnull align 8 dereferenceable(180) %ref.tmp92, i32 noundef 40, i32 noundef 7, i32 noundef 0, i32 noundef 256)
          to label %invoke.cont94 unwind label %lpad93

invoke.cont94:                                    ; preds = %invoke.cont91
  invoke void @_ZNSt4pairIKNSt7__cxx1112basic_stringIcSt11char_traitsIcESaIcEEEN7rocksdb14OptionTypeInfoEEC2IS6_S8_TnNSt9enable_ifIXaaclsr5_PCCPE18_ConstructiblePairIT_T0_EEclsr5_PCCPE26_ImplicitlyConvertiblePairISC_SD_EEEbE4typeELb1EEERS6_RKS8_(ptr noundef nonnull align 8 dereferenceable(216) %arrayinit.element87, ptr noundef nonnull align 8 dereferenceable(32) %ref.tmp88, ptr noundef nonnull align 8 dereferenceable(180) %ref.tmp92)
          to label %invoke.cont96 unwind label %lpad95

invoke.cont96:                                    ; preds = %invoke.cont94
  %arrayinit.element97 = getelementptr inbounds %"struct.std::pair.86", ptr %arrayinit.element87, i64 1
  store ptr %arrayinit.element97, ptr %arrayinit.endOfInit, align 8
  call void @_ZNSaIcEC1Ev(ptr noundef nonnull align 1 dereferenceable(1) %ref.tmp99) #3
  invoke void @_ZNSt7__cxx1112basic_stringIcSt11char_traitsIcESaIcEEC2IS3_EEPKcRKS3_(ptr noundef nonnull align 8 dereferenceable(32) %ref.tmp98, ptr noundef @.str.36, ptr noundef nonnull align 1 dereferenceable(1) %ref.tmp99)
          to label %invoke.cont101 unwind label %lpad100

invoke.cont101:                                   ; preds = %invoke.cont96
  invoke void @_ZN7rocksdb14OptionTypeInfoC2EiNS_10OptionTypeENS_22OptionVerificationTypeENS_15OptionTypeFlagsE(ptr noundef nonnull align 8 dereferenceable(180) %ref.tmp102, i32 noundef 48, i32 noundef 4, i32 noundef 0, i32 noundef 256)
          to label %invoke.cont104 unwind label %lpad103

invoke.cont104:                                   ; preds = %invoke.cont101
  invoke void @_ZNSt4pairIKNSt7__cxx1112basic_stringIcSt11char_traitsIcESaIcEEEN7rocksdb14OptionTypeInfoEEC2IS6_S8_TnNSt9enable_ifIXaaclsr5_PCCPE18_ConstructiblePairIT_T0_EEclsr5_PCCPE26_ImplicitlyConvertiblePairISC_SD_EEEbE4typeELb1EEERS6_RKS8_(ptr noundef nonnull align 8 dereferenceable(216) %arrayinit.element97, ptr noundef nonnull align 8 dereferenceable(32) %ref.tmp98, ptr noundef nonnull align 8 dereferenceable(180) %ref.tmp102)
          to label %invoke.cont106 unwind label %lpad105

invoke.cont106:                                   ; preds = %invoke.cont104
  %arrayinit.element107 = getelementptr inbounds %"struct.std::pair.86", ptr %arrayinit.element97, i64 1
  store ptr %arrayinit.element107, ptr %arrayinit.endOfInit, align 8
  call void @_ZNSaIcEC1Ev(ptr noundef nonnull align 1 dereferenceable(1) %ref.tmp109) #3
  invoke void @_ZNSt7__cxx1112basic_stringIcSt11char_traitsIcESaIcEEC2IS3_EEPKcRKS3_(ptr noundef nonnull align 8 dereferenceable(32) %ref.tmp108, ptr noundef @.str.37, ptr noundef nonnull align 1 dereferenceable(1) %ref.tmp109)
          to label %invoke.cont111 unwind label %lpad110

invoke.cont111:                                   ; preds = %invoke.cont106
  invoke void @_ZN7rocksdb14OptionTypeInfoC2EiNS_10OptionTypeENS_22OptionVerificationTypeENS_15OptionTypeFlagsE(ptr noundef nonnull align 8 dereferenceable(180) %ref.tmp112, i32 noundef 52, i32 noundef 4, i32 noundef 0, i32 noundef 256)
          to label %invoke.cont114 unwind label %lpad113

invoke.cont114:                                   ; preds = %invoke.cont111
  invoke void @_ZNSt4pairIKNSt7__cxx1112basic_stringIcSt11char_traitsIcESaIcEEEN7rocksdb14OptionTypeInfoEEC2IS6_S8_TnNSt9enable_ifIXaaclsr5_PCCPE18_ConstructiblePairIT_T0_EEclsr5_PCCPE26_ImplicitlyConvertiblePairISC_SD_EEEbE4typeELb1EEERS6_RKS8_(ptr noundef nonnull align 8 dereferenceable(216) %arrayinit.element107, ptr noundef nonnull align 8 dereferenceable(32) %ref.tmp108, ptr noundef nonnull align 8 dereferenceable(180) %ref.tmp112)
          to label %invoke.cont116 unwind label %lpad115

invoke.cont116:                                   ; preds = %invoke.cont114
  %arrayinit.element117 = getelementptr inbounds %"struct.std::pair.86", ptr %arrayinit.element107, i64 1
  store ptr %arrayinit.element117, ptr %arrayinit.endOfInit, align 8
  call void @_ZNSaIcEC1Ev(ptr noundef nonnull align 1 dereferenceable(1) %ref.tmp119) #3
  invoke void @_ZNSt7__cxx1112basic_stringIcSt11char_traitsIcESaIcEEC2IS3_EEPKcRKS3_(ptr noundef nonnull align 8 dereferenceable(32) %ref.tmp118, ptr noundef @.str.38, ptr noundef nonnull align 1 dereferenceable(1) %ref.tmp119)
          to label %invoke.cont121 unwind label %lpad120

invoke.cont121:                                   ; preds = %invoke.cont116
  invoke void @_ZN7rocksdb14OptionTypeInfoC2EiNS_10OptionTypeENS_22OptionVerificationTypeENS_15OptionTypeFlagsE(ptr noundef nonnull align 8 dereferenceable(180) %ref.tmp122, i32 noundef 56, i32 noundef 8, i32 noundef 0, i32 noundef 256)
          to label %invoke.cont124 unwind label %lpad123

invoke.cont124:                                   ; preds = %invoke.cont121
  invoke void @_ZNSt4pairIKNSt7__cxx1112basic_stringIcSt11char_traitsIcESaIcEEEN7rocksdb14OptionTypeInfoEEC2IS6_S8_TnNSt9enable_ifIXaaclsr5_PCCPE18_ConstructiblePairIT_T0_EEclsr5_PCCPE26_ImplicitlyConvertiblePairISC_SD_EEEbE4typeELb1EEERS6_RKS8_(ptr noundef nonnull align 8 dereferenceable(216) %arrayinit.element117, ptr noundef nonnull align 8 dereferenceable(32) %ref.tmp118, ptr noundef nonnull align 8 dereferenceable(180) %ref.tmp122)
          to label %invoke.cont126 unwind label %lpad125

invoke.cont126:                                   ; preds = %invoke.cont124
  %arrayinit.element127 = getelementptr inbounds %"struct.std::pair.86", ptr %arrayinit.element117, i64 1
  store ptr %arrayinit.element127, ptr %arrayinit.endOfInit, align 8
  call void @_ZNSaIcEC1Ev(ptr noundef nonnull align 1 dereferenceable(1) %ref.tmp129) #3
  invoke void @_ZNSt7__cxx1112basic_stringIcSt11char_traitsIcESaIcEEC2IS3_EEPKcRKS3_(ptr noundef nonnull align 8 dereferenceable(32) %ref.tmp128, ptr noundef @.str.39, ptr noundef nonnull align 1 dereferenceable(1) %ref.tmp129)
          to label %invoke.cont131 unwind label %lpad130

invoke.cont131:                                   ; preds = %invoke.cont126
  invoke void @_ZN7rocksdb14OptionTypeInfoC2EiNS_10OptionTypeENS_22OptionVerificationTypeENS_15OptionTypeFlagsE(ptr noundef nonnull align 8 dereferenceable(180) %ref.tmp132, i32 noundef 64, i32 noundef 1, i32 noundef 0, i32 noundef 256)
          to label %invoke.cont134 unwind label %lpad133

invoke.cont134:                                   ; preds = %invoke.cont131
  invoke void @_ZNSt4pairIKNSt7__cxx1112basic_stringIcSt11char_traitsIcESaIcEEEN7rocksdb14OptionTypeInfoEEC2IS6_S8_TnNSt9enable_ifIXaaclsr5_PCCPE18_ConstructiblePairIT_T0_EEclsr5_PCCPE26_ImplicitlyConvertiblePairISC_SD_EEEbE4typeELb1EEERS6_RKS8_(ptr noundef nonnull align 8 dereferenceable(216) %arrayinit.element127, ptr noundef nonnull align 8 dereferenceable(32) %ref.tmp128, ptr noundef nonnull align 8 dereferenceable(180) %ref.tmp132)
          to label %invoke.cont136 unwind label %lpad135

invoke.cont136:                                   ; preds = %invoke.cont134
  %arrayinit.element137 = getelementptr inbounds %"struct.std::pair.86", ptr %arrayinit.element127, i64 1
  store ptr %arrayinit.element137, ptr %arrayinit.endOfInit, align 8
  call void @_ZNSaIcEC1Ev(ptr noundef nonnull align 1 dereferenceable(1) %ref.tmp139) #3
  invoke void @_ZNSt7__cxx1112basic_stringIcSt11char_traitsIcESaIcEEC2IS3_EEPKcRKS3_(ptr noundef nonnull align 8 dereferenceable(32) %ref.tmp138, ptr noundef @.str.40, ptr noundef nonnull align 1 dereferenceable(1) %ref.tmp139)
          to label %invoke.cont141 unwind label %lpad140

invoke.cont141:                                   ; preds = %invoke.cont136
  invoke void @_ZN7rocksdb14OptionTypeInfoC2EiNS_10OptionTypeENS_22OptionVerificationTypeENS_15OptionTypeFlagsE(ptr noundef nonnull align 8 dereferenceable(180) %ref.tmp142, i32 noundef 72, i32 noundef 7, i32 noundef 0, i32 noundef 256)
          to label %invoke.cont144 unwind label %lpad143

invoke.cont144:                                   ; preds = %invoke.cont141
  invoke void @_ZNSt4pairIKNSt7__cxx1112basic_stringIcSt11char_traitsIcESaIcEEEN7rocksdb14OptionTypeInfoEEC2IS6_S8_TnNSt9enable_ifIXaaclsr5_PCCPE18_ConstructiblePairIT_T0_EEclsr5_PCCPE26_ImplicitlyConvertiblePairISC_SD_EEEbE4typeELb1EEERS6_RKS8_(ptr noundef nonnull align 8 dereferenceable(216) %arrayinit.element137, ptr noundef nonnull align 8 dereferenceable(32) %ref.tmp138, ptr noundef nonnull align 8 dereferenceable(180) %ref.tmp142)
          to label %invoke.cont146 unwind label %lpad145

invoke.cont146:                                   ; preds = %invoke.cont144
  %arrayinit.element147 = getelementptr inbounds %"struct.std::pair.86", ptr %arrayinit.element137, i64 1
  store ptr %arrayinit.element147, ptr %arrayinit.endOfInit, align 8
  call void @_ZNSaIcEC1Ev(ptr noundef nonnull align 1 dereferenceable(1) %ref.tmp149) #3
  invoke void @_ZNSt7__cxx1112basic_stringIcSt11char_traitsIcESaIcEEC2IS3_EEPKcRKS3_(ptr noundef nonnull align 8 dereferenceable(32) %ref.tmp148, ptr noundef @.str.41, ptr noundef nonnull align 1 dereferenceable(1) %ref.tmp149)
          to label %invoke.cont151 unwind label %lpad150

invoke.cont151:                                   ; preds = %invoke.cont146
  invoke void @_ZN7rocksdb14OptionTypeInfoC2EiNS_10OptionTypeENS_22OptionVerificationTypeENS_15OptionTypeFlagsE(ptr noundef nonnull align 8 dereferenceable(180) %ref.tmp152, i32 noundef 80, i32 noundef 7, i32 noundef 0, i32 noundef 256)
          to label %invoke.cont154 unwind label %lpad153

invoke.cont154:                                   ; preds = %invoke.cont151
  invoke void @_ZNSt4pairIKNSt7__cxx1112basic_stringIcSt11char_traitsIcESaIcEEEN7rocksdb14OptionTypeInfoEEC2IS6_S8_TnNSt9enable_ifIXaaclsr5_PCCPE18_ConstructiblePairIT_T0_EEclsr5_PCCPE26_ImplicitlyConvertiblePairISC_SD_EEEbE4typeELb1EEERS6_RKS8_(ptr noundef nonnull align 8 dereferenceable(216) %arrayinit.element147, ptr noundef nonnull align 8 dereferenceable(32) %ref.tmp148, ptr noundef nonnull align 8 dereferenceable(180) %ref.tmp152)
          to label %invoke.cont156 unwind label %lpad155

invoke.cont156:                                   ; preds = %invoke.cont154
  %arrayinit.element157 = getelementptr inbounds %"struct.std::pair.86", ptr %arrayinit.element147, i64 1
  store ptr %arrayinit.element157, ptr %arrayinit.endOfInit, align 8
  call void @_ZNSaIcEC1Ev(ptr noundef nonnull align 1 dereferenceable(1) %ref.tmp159) #3
  invoke void @_ZNSt7__cxx1112basic_stringIcSt11char_traitsIcESaIcEEC2IS3_EEPKcRKS3_(ptr noundef nonnull align 8 dereferenceable(32) %ref.tmp158, ptr noundef @.str.42, ptr noundef nonnull align 1 dereferenceable(1) %ref.tmp159)
          to label %invoke.cont161 unwind label %lpad160

invoke.cont161:                                   ; preds = %invoke.cont156
  invoke void @_ZN7rocksdb14OptionTypeInfoC2EiNS_10OptionTypeENS_22OptionVerificationTypeENS_15OptionTypeFlagsE(ptr noundef nonnull align 8 dereferenceable(180) %ref.tmp162, i32 noundef 88, i32 noundef 0, i32 noundef 0, i32 noundef 256)
          to label %invoke.cont164 unwind label %lpad163

invoke.cont164:                                   ; preds = %invoke.cont161
  invoke void @_ZNSt4pairIKNSt7__cxx1112basic_stringIcSt11char_traitsIcESaIcEEEN7rocksdb14OptionTypeInfoEEC2IS6_S8_TnNSt9enable_ifIXaaclsr5_PCCPE18_ConstructiblePairIT_T0_EEclsr5_PCCPE26_ImplicitlyConvertiblePairISC_SD_EEEbE4typeELb1EEERS6_RKS8_(ptr noundef nonnull align 8 dereferenceable(216) %arrayinit.element157, ptr noundef nonnull align 8 dereferenceable(32) %ref.tmp158, ptr noundef nonnull align 8 dereferenceable(180) %ref.tmp162)
          to label %invoke.cont166 unwind label %lpad165

invoke.cont166:                                   ; preds = %invoke.cont164
  %arrayinit.element167 = getelementptr inbounds %"struct.std::pair.86", ptr %arrayinit.element157, i64 1
  store ptr %arrayinit.element167, ptr %arrayinit.endOfInit, align 8
  call void @_ZNSaIcEC1Ev(ptr noundef nonnull align 1 dereferenceable(1) %ref.tmp169) #3
  invoke void @_ZNSt7__cxx1112basic_stringIcSt11char_traitsIcESaIcEEC2IS3_EEPKcRKS3_(ptr noundef nonnull align 8 dereferenceable(32) %ref.tmp168, ptr noundef @.str.43, ptr noundef nonnull align 1 dereferenceable(1) %ref.tmp169)
          to label %invoke.cont171 unwind label %lpad170

invoke.cont171:                                   ; preds = %invoke.cont166
  invoke void @_ZN7rocksdb14OptionTypeInfoC2EiNS_10OptionTypeENS_22OptionVerificationTypeENS_15OptionTypeFlagsE(ptr noundef nonnull align 8 dereferenceable(180) %ref.tmp172, i32 noundef 96, i32 noundef 8, i32 noundef 0, i32 noundef 256)
          to label %invoke.cont174 unwind label %lpad173

invoke.cont174:                                   ; preds = %invoke.cont171
  invoke void @_ZNSt4pairIKNSt7__cxx1112basic_stringIcSt11char_traitsIcESaIcEEEN7rocksdb14OptionTypeInfoEEC2IS6_S8_TnNSt9enable_ifIXaaclsr5_PCCPE18_ConstructiblePairIT_T0_EEclsr5_PCCPE26_ImplicitlyConvertiblePairISC_SD_EEEbE4typeELb1EEERS6_RKS8_(ptr noundef nonnull align 8 dereferenceable(216) %arrayinit.element167, ptr noundef nonnull align 8 dereferenceable(32) %ref.tmp168, ptr noundef nonnull align 8 dereferenceable(180) %ref.tmp172)
          to label %invoke.cont176 unwind label %lpad175

invoke.cont176:                                   ; preds = %invoke.cont174
  %arrayinit.element177 = getelementptr inbounds %"struct.std::pair.86", ptr %arrayinit.element167, i64 1
  store ptr %arrayinit.element177, ptr %arrayinit.endOfInit, align 8
  call void @_ZNSaIcEC1Ev(ptr noundef nonnull align 1 dereferenceable(1) %ref.tmp179) #3
  invoke void @_ZNSt7__cxx1112basic_stringIcSt11char_traitsIcESaIcEEC2IS3_EEPKcRKS3_(ptr noundef nonnull align 8 dereferenceable(32) %ref.tmp178, ptr noundef @.str.44, ptr noundef nonnull align 1 dereferenceable(1) %ref.tmp179)
          to label %invoke.cont181 unwind label %lpad180

invoke.cont181:                                   ; preds = %invoke.cont176
  invoke void @_ZN7rocksdb14OptionTypeInfoC2EiNS_10OptionTypeENS_22OptionVerificationTypeENS_15OptionTypeFlagsE(ptr noundef nonnull align 8 dereferenceable(180) %ref.tmp182, i32 noundef 104, i32 noundef 1, i32 noundef 0, i32 noundef 256)
          to label %invoke.cont184 unwind label %lpad183

invoke.cont184:                                   ; preds = %invoke.cont181
  invoke void @_ZNSt4pairIKNSt7__cxx1112basic_stringIcSt11char_traitsIcESaIcEEEN7rocksdb14OptionTypeInfoEEC2IS6_S8_TnNSt9enable_ifIXaaclsr5_PCCPE18_ConstructiblePairIT_T0_EEclsr5_PCCPE26_ImplicitlyConvertiblePairISC_SD_EEEbE4typeELb1EEERS6_RKS8_(ptr noundef nonnull align 8 dereferenceable(216) %arrayinit.element177, ptr noundef nonnull align 8 dereferenceable(32) %ref.tmp178, ptr noundef nonnull align 8 dereferenceable(180) %ref.tmp182)
          to label %invoke.cont186 unwind label %lpad185

invoke.cont186:                                   ; preds = %invoke.cont184
  %arrayinit.element187 = getelementptr inbounds %"struct.std::pair.86", ptr %arrayinit.element177, i64 1
  store ptr %arrayinit.element187, ptr %arrayinit.endOfInit, align 8
  call void @_ZNSaIcEC1Ev(ptr noundef nonnull align 1 dereferenceable(1) %ref.tmp189) #3
  invoke void @_ZNSt7__cxx1112basic_stringIcSt11char_traitsIcESaIcEEC2IS3_EEPKcRKS3_(ptr noundef nonnull align 8 dereferenceable(32) %ref.tmp188, ptr noundef @.str.45, ptr noundef nonnull align 1 dereferenceable(1) %ref.tmp189)
          to label %invoke.cont191 unwind label %lpad190

invoke.cont191:                                   ; preds = %invoke.cont186
  invoke void @_ZN7rocksdb14OptionTypeInfoC2EiNS_10OptionTypeENS_22OptionVerificationTypeENS_15OptionTypeFlagsE(ptr noundef nonnull align 8 dereferenceable(180) %ref.tmp192, i32 noundef 112, i32 noundef 11, i32 noundef 0, i32 noundef 256)
          to label %invoke.cont194 unwind label %lpad193

invoke.cont194:                                   ; preds = %invoke.cont191
  invoke void @_ZNSt4pairIKNSt7__cxx1112basic_stringIcSt11char_traitsIcESaIcEEEN7rocksdb14OptionTypeInfoEEC2IS6_S8_TnNSt9enable_ifIXaaclsr5_PCCPE18_ConstructiblePairIT_T0_EEclsr5_PCCPE26_ImplicitlyConvertiblePairISC_SD_EEEbE4typeELb1EEERS6_RKS8_(ptr noundef nonnull align 8 dereferenceable(216) %arrayinit.element187, ptr noundef nonnull align 8 dereferenceable(32) %ref.tmp188, ptr noundef nonnull align 8 dereferenceable(180) %ref.tmp192)
          to label %invoke.cont196 unwind label %lpad195

invoke.cont196:                                   ; preds = %invoke.cont194
  store i1 false, ptr %cleanup.isactive, align 1
  %_M_array = getelementptr inbounds %"class.std::initializer_list.85", ptr %agg.tmp, i32 0, i32 0
  %arraystart = getelementptr inbounds [20 x %"struct.std::pair.86"], ptr %ref.tmp, i64 0, i64 0
  store ptr %arraystart, ptr %_M_array, align 8
  %_M_len = getelementptr inbounds %"class.std::initializer_list.85", ptr %agg.tmp, i32 0, i32 1
  store i64 20, ptr %_M_len, align 8
  call void @_ZNSaISt4pairIKNSt7__cxx1112basic_stringIcSt11char_traitsIcESaIcEEEN7rocksdb14OptionTypeInfoEEEC2Ev(ptr noundef nonnull align 1 dereferenceable(1) %ref.tmp199) #3
  %0 = getelementptr inbounds { ptr, i64 }, ptr %agg.tmp, i32 0, i32 0
  %1 = load ptr, ptr %0, align 8
  %2 = getelementptr inbounds { ptr, i64 }, ptr %agg.tmp, i32 0, i32 1
  %3 = load i64, ptr %2, align 8
  invoke void @_ZNSt13unordered_mapINSt7__cxx1112basic_stringIcSt11char_traitsIcESaIcEEEN7rocksdb14OptionTypeInfoESt4hashIS5_ESt8equal_toIS5_ESaISt4pairIKS5_S7_EEEC2ESt16initializer_listISE_EmRKS9_RKSB_RKSF_(ptr noundef nonnull align 8 dereferenceable(56) @_ZN7rocksdbL28db_mutable_options_type_infoB5cxx11E, ptr %1, i64 %3, i64 noundef 0, ptr noundef nonnull align 1 dereferenceable(1) %ref.tmp197, ptr noundef nonnull align 1 dereferenceable(1) %ref.tmp198, ptr noundef nonnull align 1 dereferenceable(1) %ref.tmp199)
          to label %invoke.cont201 unwind label %lpad200

invoke.cont201:                                   ; preds = %invoke.cont196
  call void @_ZNSaISt4pairIKNSt7__cxx1112basic_stringIcSt11char_traitsIcESaIcEEEN7rocksdb14OptionTypeInfoEEED2Ev(ptr noundef nonnull align 1 dereferenceable(1) %ref.tmp199) #3
  %array.begin = getelementptr inbounds [20 x %"struct.std::pair.86"], ptr %ref.tmp, i32 0, i32 0
  %4 = getelementptr inbounds %"struct.std::pair.86", ptr %array.begin, i64 20
  br label %arraydestroy.body

arraydestroy.body:                                ; preds = %arraydestroy.body, %invoke.cont201
  %arraydestroy.elementPast = phi ptr [ %4, %invoke.cont201 ], [ %arraydestroy.element, %arraydestroy.body ]
  %arraydestroy.element = getelementptr inbounds %"struct.std::pair.86", ptr %arraydestroy.elementPast, i64 -1
  call void @_ZNSt4pairIKNSt7__cxx1112basic_stringIcSt11char_traitsIcESaIcEEEN7rocksdb14OptionTypeInfoEED2Ev(ptr noundef nonnull align 8 dereferenceable(216) %arraydestroy.element) #3
  %arraydestroy.done = icmp eq ptr %arraydestroy.element, %array.begin
  br i1 %arraydestroy.done, label %arraydestroy.done202, label %arraydestroy.body

arraydestroy.done202:                             ; preds = %arraydestroy.body
  call void @_ZN7rocksdb14OptionTypeInfoD2Ev(ptr noundef nonnull align 8 dereferenceable(180) %ref.tmp192) #3
  call void @_ZNSt7__cxx1112basic_stringIcSt11char_traitsIcESaIcEED1Ev(ptr noundef nonnull align 8 dereferenceable(32) %ref.tmp188) #3
  call void @_ZNSaIcED1Ev(ptr noundef nonnull align 1 dereferenceable(1) %ref.tmp189) #3
  call void @_ZN7rocksdb14OptionTypeInfoD2Ev(ptr noundef nonnull align 8 dereferenceable(180) %ref.tmp182) #3
  call void @_ZNSt7__cxx1112basic_stringIcSt11char_traitsIcESaIcEED1Ev(ptr noundef nonnull align 8 dereferenceable(32) %ref.tmp178) #3
  call void @_ZNSaIcED1Ev(ptr noundef nonnull align 1 dereferenceable(1) %ref.tmp179) #3
  call void @_ZN7rocksdb14OptionTypeInfoD2Ev(ptr noundef nonnull align 8 dereferenceable(180) %ref.tmp172) #3
  call void @_ZNSt7__cxx1112basic_stringIcSt11char_traitsIcESaIcEED1Ev(ptr noundef nonnull align 8 dereferenceable(32) %ref.tmp168) #3
  call void @_ZNSaIcED1Ev(ptr noundef nonnull align 1 dereferenceable(1) %ref.tmp169) #3
  call void @_ZN7rocksdb14OptionTypeInfoD2Ev(ptr noundef nonnull align 8 dereferenceable(180) %ref.tmp162) #3
  call void @_ZNSt7__cxx1112basic_stringIcSt11char_traitsIcESaIcEED1Ev(ptr noundef nonnull align 8 dereferenceable(32) %ref.tmp158) #3
  call void @_ZNSaIcED1Ev(ptr noundef nonnull align 1 dereferenceable(1) %ref.tmp159) #3
  call void @_ZN7rocksdb14OptionTypeInfoD2Ev(ptr noundef nonnull align 8 dereferenceable(180) %ref.tmp152) #3
  call void @_ZNSt7__cxx1112basic_stringIcSt11char_traitsIcESaIcEED1Ev(ptr noundef nonnull align 8 dereferenceable(32) %ref.tmp148) #3
  call void @_ZNSaIcED1Ev(ptr noundef nonnull align 1 dereferenceable(1) %ref.tmp149) #3
  call void @_ZN7rocksdb14OptionTypeInfoD2Ev(ptr noundef nonnull align 8 dereferenceable(180) %ref.tmp142) #3
  call void @_ZNSt7__cxx1112basic_stringIcSt11char_traitsIcESaIcEED1Ev(ptr noundef nonnull align 8 dereferenceable(32) %ref.tmp138) #3
  call void @_ZNSaIcED1Ev(ptr noundef nonnull align 1 dereferenceable(1) %ref.tmp139) #3
  call void @_ZN7rocksdb14OptionTypeInfoD2Ev(ptr noundef nonnull align 8 dereferenceable(180) %ref.tmp132) #3
  call void @_ZNSt7__cxx1112basic_stringIcSt11char_traitsIcESaIcEED1Ev(ptr noundef nonnull align 8 dereferenceable(32) %ref.tmp128) #3
  call void @_ZNSaIcED1Ev(ptr noundef nonnull align 1 dereferenceable(1) %ref.tmp129) #3
  call void @_ZN7rocksdb14OptionTypeInfoD2Ev(ptr noundef nonnull align 8 dereferenceable(180) %ref.tmp122) #3
  call void @_ZNSt7__cxx1112basic_stringIcSt11char_traitsIcESaIcEED1Ev(ptr noundef nonnull align 8 dereferenceable(32) %ref.tmp118) #3
  call void @_ZNSaIcED1Ev(ptr noundef nonnull align 1 dereferenceable(1) %ref.tmp119) #3
  call void @_ZN7rocksdb14OptionTypeInfoD2Ev(ptr noundef nonnull align 8 dereferenceable(180) %ref.tmp112) #3
  call void @_ZNSt7__cxx1112basic_stringIcSt11char_traitsIcESaIcEED1Ev(ptr noundef nonnull align 8 dereferenceable(32) %ref.tmp108) #3
  call void @_ZNSaIcED1Ev(ptr noundef nonnull align 1 dereferenceable(1) %ref.tmp109) #3
  call void @_ZN7rocksdb14OptionTypeInfoD2Ev(ptr noundef nonnull align 8 dereferenceable(180) %ref.tmp102) #3
  call void @_ZNSt7__cxx1112basic_stringIcSt11char_traitsIcESaIcEED1Ev(ptr noundef nonnull align 8 dereferenceable(32) %ref.tmp98) #3
  call void @_ZNSaIcED1Ev(ptr noundef nonnull align 1 dereferenceable(1) %ref.tmp99) #3
  call void @_ZN7rocksdb14OptionTypeInfoD2Ev(ptr noundef nonnull align 8 dereferenceable(180) %ref.tmp92) #3
  call void @_ZNSt7__cxx1112basic_stringIcSt11char_traitsIcESaIcEED1Ev(ptr noundef nonnull align 8 dereferenceable(32) %ref.tmp88) #3
  call void @_ZNSaIcED1Ev(ptr noundef nonnull align 1 dereferenceable(1) %ref.tmp89) #3
  call void @_ZN7rocksdb14OptionTypeInfoD2Ev(ptr noundef nonnull align 8 dereferenceable(180) %ref.tmp82) #3
  call void @_ZNSt7__cxx1112basic_stringIcSt11char_traitsIcESaIcEED1Ev(ptr noundef nonnull align 8 dereferenceable(32) %ref.tmp78) #3
  call void @_ZNSaIcED1Ev(ptr noundef nonnull align 1 dereferenceable(1) %ref.tmp79) #3
  call void @_ZN7rocksdb14OptionTypeInfoD2Ev(ptr noundef nonnull align 8 dereferenceable(180) %ref.tmp72) #3
  call void @_ZNSt7__cxx1112basic_stringIcSt11char_traitsIcESaIcEED1Ev(ptr noundef nonnull align 8 dereferenceable(32) %ref.tmp68) #3
  call void @_ZNSaIcED1Ev(ptr noundef nonnull align 1 dereferenceable(1) %ref.tmp69) #3
  call void @_ZN7rocksdb14OptionTypeInfoD2Ev(ptr noundef nonnull align 8 dereferenceable(180) %ref.tmp62) #3
  call void @_ZNSt7__cxx1112basic_stringIcSt11char_traitsIcESaIcEED1Ev(ptr noundef nonnull align 8 dereferenceable(32) %ref.tmp58) #3
  call void @_ZNSaIcED1Ev(ptr noundef nonnull align 1 dereferenceable(1) %ref.tmp59) #3
  call void @_ZN7rocksdb14OptionTypeInfoD2Ev(ptr noundef nonnull align 8 dereferenceable(180) %ref.tmp52) #3
  call void @_ZNSt7__cxx1112basic_stringIcSt11char_traitsIcESaIcEED1Ev(ptr noundef nonnull align 8 dereferenceable(32) %ref.tmp48) #3
  call void @_ZNSaIcED1Ev(ptr noundef nonnull align 1 dereferenceable(1) %ref.tmp49) #3
  call void @_ZN7rocksdb14OptionTypeInfoD2Ev(ptr noundef nonnull align 8 dereferenceable(180) %ref.tmp42) #3
  call void @_ZNSt7__cxx1112basic_stringIcSt11char_traitsIcESaIcEED1Ev(ptr noundef nonnull align 8 dereferenceable(32) %ref.tmp38) #3
  call void @_ZNSaIcED1Ev(ptr noundef nonnull align 1 dereferenceable(1) %ref.tmp39) #3
  call void @_ZN7rocksdb14OptionTypeInfoD2Ev(ptr noundef nonnull align 8 dereferenceable(180) %ref.tmp32) #3
  call void @_ZNSt7__cxx1112basic_stringIcSt11char_traitsIcESaIcEED1Ev(ptr noundef nonnull align 8 dereferenceable(32) %ref.tmp28) #3
  call void @_ZNSaIcED1Ev(ptr noundef nonnull align 1 dereferenceable(1) %ref.tmp29) #3
  call void @_ZN7rocksdb14OptionTypeInfoD2Ev(ptr noundef nonnull align 8 dereferenceable(180) %ref.tmp22) #3
  call void @_ZNSt7__cxx1112basic_stringIcSt11char_traitsIcESaIcEED1Ev(ptr noundef nonnull align 8 dereferenceable(32) %ref.tmp18) #3
  call void @_ZNSaIcED1Ev(ptr noundef nonnull align 1 dereferenceable(1) %ref.tmp19) #3
  call void @_ZN7rocksdb14OptionTypeInfoD2Ev(ptr noundef nonnull align 8 dereferenceable(180) %ref.tmp12) #3
  call void @_ZNSt7__cxx1112basic_stringIcSt11char_traitsIcESaIcEED1Ev(ptr noundef nonnull align 8 dereferenceable(32) %ref.tmp8) #3
  call void @_ZNSaIcED1Ev(ptr noundef nonnull align 1 dereferenceable(1) %ref.tmp9) #3
  call void @_ZN7rocksdb14OptionTypeInfoD2Ev(ptr noundef nonnull align 8 dereferenceable(180) %ref.tmp3) #3
  call void @_ZNSt7__cxx1112basic_stringIcSt11char_traitsIcESaIcEED1Ev(ptr noundef nonnull align 8 dereferenceable(32) %ref.tmp1) #3
  call void @_ZNSaIcED1Ev(ptr noundef nonnull align 1 dereferenceable(1) %ref.tmp2) #3
  %5 = call i32 @__cxa_atexit(ptr @_ZNSt13unordered_mapINSt7__cxx1112basic_stringIcSt11char_traitsIcESaIcEEEN7rocksdb14OptionTypeInfoESt4hashIS5_ESt8equal_toIS5_ESaISt4pairIKS5_S7_EEED2Ev, ptr @_ZN7rocksdbL28db_mutable_options_type_infoB5cxx11E, ptr @__dso_handle) #3
  ret void

lpad:                                             ; preds = %entry
  %6 = landingpad { ptr, i32 }
          cleanup
  %7 = extractvalue { ptr, i32 } %6, 0
  store ptr %7, ptr %exn.slot, align 8
  %8 = extractvalue { ptr, i32 } %6, 1
  store i32 %8, ptr %ehselector.slot, align 4
  br label %ehcleanup267

lpad4:                                            ; preds = %invoke.cont
  %9 = landingpad { ptr, i32 }
          cleanup
  %10 = extractvalue { ptr, i32 } %9, 0
  store ptr %10, ptr %exn.slot, align 8
  %11 = extractvalue { ptr, i32 } %9, 1
  store i32 %11, ptr %ehselector.slot, align 4
  br label %ehcleanup266

lpad6:                                            ; preds = %invoke.cont5
  %12 = landingpad { ptr, i32 }
          cleanup
  %13 = extractvalue { ptr, i32 } %12, 0
  store ptr %13, ptr %exn.slot, align 8
  %14 = extractvalue { ptr, i32 } %12, 1
  store i32 %14, ptr %ehselector.slot, align 4
  br label %ehcleanup265

lpad10:                                           ; preds = %invoke.cont7
  %15 = landingpad { ptr, i32 }
          cleanup
  %16 = extractvalue { ptr, i32 } %15, 0
  store ptr %16, ptr %exn.slot, align 8
  %17 = extractvalue { ptr, i32 } %15, 1
  store i32 %17, ptr %ehselector.slot, align 4
  br label %ehcleanup264

lpad13:                                           ; preds = %invoke.cont11
  %18 = landingpad { ptr, i32 }
          cleanup
  %19 = extractvalue { ptr, i32 } %18, 0
  store ptr %19, ptr %exn.slot, align 8
  %20 = extractvalue { ptr, i32 } %18, 1
  store i32 %20, ptr %ehselector.slot, align 4
  br label %ehcleanup263

lpad15:                                           ; preds = %invoke.cont14
  %21 = landingpad { ptr, i32 }
          cleanup
  %22 = extractvalue { ptr, i32 } %21, 0
  store ptr %22, ptr %exn.slot, align 8
  %23 = extractvalue { ptr, i32 } %21, 1
  store i32 %23, ptr %ehselector.slot, align 4
  br label %ehcleanup262

lpad20:                                           ; preds = %invoke.cont16
  %24 = landingpad { ptr, i32 }
          cleanup
  %25 = extractvalue { ptr, i32 } %24, 0
  store ptr %25, ptr %exn.slot, align 8
  %26 = extractvalue { ptr, i32 } %24, 1
  store i32 %26, ptr %ehselector.slot, align 4
  br label %ehcleanup261

lpad23:                                           ; preds = %invoke.cont21
  %27 = landingpad { ptr, i32 }
          cleanup
  %28 = extractvalue { ptr, i32 } %27, 0
  store ptr %28, ptr %exn.slot, align 8
  %29 = extractvalue { ptr, i32 } %27, 1
  store i32 %29, ptr %ehselector.slot, align 4
  br label %ehcleanup260

lpad25:                                           ; preds = %invoke.cont24
  %30 = landingpad { ptr, i32 }
          cleanup
  %31 = extractvalue { ptr, i32 } %30, 0
  store ptr %31, ptr %exn.slot, align 8
  %32 = extractvalue { ptr, i32 } %30, 1
  store i32 %32, ptr %ehselector.slot, align 4
  br label %ehcleanup259

lpad30:                                           ; preds = %invoke.cont26
  %33 = landingpad { ptr, i32 }
          cleanup
  %34 = extractvalue { ptr, i32 } %33, 0
  store ptr %34, ptr %exn.slot, align 8
  %35 = extractvalue { ptr, i32 } %33, 1
  store i32 %35, ptr %ehselector.slot, align 4
  br label %ehcleanup258

lpad33:                                           ; preds = %invoke.cont31
  %36 = landingpad { ptr, i32 }
          cleanup
  %37 = extractvalue { ptr, i32 } %36, 0
  store ptr %37, ptr %exn.slot, align 8
  %38 = extractvalue { ptr, i32 } %36, 1
  store i32 %38, ptr %ehselector.slot, align 4
  br label %ehcleanup257

lpad35:                                           ; preds = %invoke.cont34
  %39 = landingpad { ptr, i32 }
          cleanup
  %40 = extractvalue { ptr, i32 } %39, 0
  store ptr %40, ptr %exn.slot, align 8
  %41 = extractvalue { ptr, i32 } %39, 1
  store i32 %41, ptr %ehselector.slot, align 4
  br label %ehcleanup256

lpad40:                                           ; preds = %invoke.cont36
  %42 = landingpad { ptr, i32 }
          cleanup
  %43 = extractvalue { ptr, i32 } %42, 0
  store ptr %43, ptr %exn.slot, align 8
  %44 = extractvalue { ptr, i32 } %42, 1
  store i32 %44, ptr %ehselector.slot, align 4
  br label %ehcleanup255

lpad43:                                           ; preds = %invoke.cont41
  %45 = landingpad { ptr, i32 }
          cleanup
  %46 = extractvalue { ptr, i32 } %45, 0
  store ptr %46, ptr %exn.slot, align 8
  %47 = extractvalue { ptr, i32 } %45, 1
  store i32 %47, ptr %ehselector.slot, align 4
  br label %ehcleanup254

lpad45:                                           ; preds = %invoke.cont44
  %48 = landingpad { ptr, i32 }
          cleanup
  %49 = extractvalue { ptr, i32 } %48, 0
  store ptr %49, ptr %exn.slot, align 8
  %50 = extractvalue { ptr, i32 } %48, 1
  store i32 %50, ptr %ehselector.slot, align 4
  br label %ehcleanup253

lpad50:                                           ; preds = %invoke.cont46
  %51 = landingpad { ptr, i32 }
          cleanup
  %52 = extractvalue { ptr, i32 } %51, 0
  store ptr %52, ptr %exn.slot, align 8
  %53 = extractvalue { ptr, i32 } %51, 1
  store i32 %53, ptr %ehselector.slot, align 4
  br label %ehcleanup252

lpad53:                                           ; preds = %invoke.cont51
  %54 = landingpad { ptr, i32 }
          cleanup
  %55 = extractvalue { ptr, i32 } %54, 0
  store ptr %55, ptr %exn.slot, align 8
  %56 = extractvalue { ptr, i32 } %54, 1
  store i32 %56, ptr %ehselector.slot, align 4
  br label %ehcleanup251

lpad55:                                           ; preds = %invoke.cont54
  %57 = landingpad { ptr, i32 }
          cleanup
  %58 = extractvalue { ptr, i32 } %57, 0
  store ptr %58, ptr %exn.slot, align 8
  %59 = extractvalue { ptr, i32 } %57, 1
  store i32 %59, ptr %ehselector.slot, align 4
  br label %ehcleanup250

lpad60:                                           ; preds = %invoke.cont56
  %60 = landingpad { ptr, i32 }
          cleanup
  %61 = extractvalue { ptr, i32 } %60, 0
  store ptr %61, ptr %exn.slot, align 8
  %62 = extractvalue { ptr, i32 } %60, 1
  store i32 %62, ptr %ehselector.slot, align 4
  br label %ehcleanup249

lpad63:                                           ; preds = %invoke.cont61
  %63 = landingpad { ptr, i32 }
          cleanup
  %64 = extractvalue { ptr, i32 } %63, 0
  store ptr %64, ptr %exn.slot, align 8
  %65 = extractvalue { ptr, i32 } %63, 1
  store i32 %65, ptr %ehselector.slot, align 4
  br label %ehcleanup248

lpad65:                                           ; preds = %invoke.cont64
  %66 = landingpad { ptr, i32 }
          cleanup
  %67 = extractvalue { ptr, i32 } %66, 0
  store ptr %67, ptr %exn.slot, align 8
