target datalayout = "e-m:e-p270:32:32-p271:32:32-p272:64:64-i64:64-i128:128-f80:128-n8:16:32:64-S128"
target triple = "x86_64-unknown-linux-gnu"

%"struct.rocksdb::MallocStatus" = type { ptr, ptr }
%"class.std::unique_ptr" = type { %"struct.std::__uniq_ptr_data" }
%"struct.std::__uniq_ptr_data" = type { %"class.std::__uniq_ptr_impl" }
%"class.std::__uniq_ptr_impl" = type { %"class.std::tuple" }
%"class.std::tuple" = type { %"struct.std::_Tuple_impl" }
%"struct.std::_Tuple_impl" = type { %"struct.std::_Head_base.1" }
%"struct.std::_Head_base.1" = type { ptr }

$_ZNSt10unique_ptrIA_cSt14default_deleteIS0_EEC2IPcS2_vbEET_ = comdat any

$_ZNKSt10unique_ptrIA_cSt14default_deleteIS0_EE3getEv = comdat any

$_ZNSt10unique_ptrIA_cSt14default_deleteIS0_EED2Ev = comdat any

$_ZNSt15__uniq_ptr_dataIcSt14default_deleteIA_cELb1ELb1EECI2St15__uniq_ptr_implIcS2_EEPc = comdat any

$__clang_call_terminate = comdat any

$_ZNSt15__uniq_ptr_implIcSt14default_deleteIA_cEEC2EPc = comdat any

$_ZNSt5tupleIJPcSt14default_deleteIA_cEEEC2ILb1ETnNSt9enable_ifIXclsr17_TupleConstraintsIXT_ES0_S3_EE37__is_implicitly_default_constructibleEEbE4typeELb1EEEv = comdat any

$_ZNSt15__uniq_ptr_implIcSt14default_deleteIA_cEE6_M_ptrEv = comdat any

$_ZNSt11_Tuple_implILm0EJPcSt14default_deleteIA_cEEEC2Ev = comdat any

$_ZNSt11_Tuple_implILm1EJSt14default_deleteIA_cEEEC2Ev = comdat any

$_ZNSt10_Head_baseILm0EPcLb0EEC2Ev = comdat any

$_ZNSt10_Head_baseILm1ESt14default_deleteIA_cELb1EEC2Ev = comdat any

$_ZSt3getILm0EJPcSt14default_deleteIA_cEEERNSt13tuple_elementIXT_ESt5tupleIJDpT0_EEE4typeERS8_ = comdat any

$_ZSt12__get_helperILm0EPcJSt14default_deleteIA_cEEERT0_RSt11_Tuple_implIXT_EJS4_DpT1_EE = comdat any

$_ZNSt11_Tuple_implILm0EJPcSt14default_deleteIA_cEEE7_M_headERS4_ = comdat any

$_ZNSt10_Head_baseILm0EPcLb0EE7_M_headERS1_ = comdat any

$_ZNSt10unique_ptrIA_cSt14default_deleteIS0_EE11get_deleterEv = comdat any

$_ZNKSt14default_deleteIA_cEclIcEENSt9enable_ifIXsr14is_convertibleIPA_T_PS0_EE5valueEvE4typeEPS4_ = comdat any

$_ZNSt15__uniq_ptr_implIcSt14default_deleteIA_cEE10_M_deleterEv = comdat any

$_ZSt3getILm1EJPcSt14default_deleteIA_cEEERNSt13tuple_elementIXT_ESt5tupleIJDpT0_EEE4typeERS8_ = comdat any

$_ZSt12__get_helperILm1ESt14default_deleteIA_cEJEERT0_RSt11_Tuple_implIXT_EJS3_DpT1_EE = comdat any

$_ZNSt11_Tuple_implILm1EJSt14default_deleteIA_cEEE7_M_headERS3_ = comdat any

$_ZNSt10_Head_baseILm1ESt14default_deleteIA_cELb1EE7_M_headERS3_ = comdat any

$_ZNKSt15__uniq_ptr_implIcSt14default_deleteIA_cEE6_M_ptrEv = comdat any

$_ZSt3getILm0EJPcSt14default_deleteIA_cEEERKNSt13tuple_elementIXT_ESt5tupleIJDpT0_EEE4typeERKS8_ = comdat any

$_ZSt12__get_helperILm0EPcJSt14default_deleteIA_cEEERKT0_RKSt11_Tuple_implIXT_EJS4_DpT1_EE = comdat any

$_ZNSt11_Tuple_implILm0EJPcSt14default_deleteIA_cEEE7_M_headERKS4_ = comdat any

$_ZNSt10_Head_baseILm0EPcLb0EE7_M_headERKS1_ = comdat any

@.str = private unnamed_addr constant [1 x i8] zeroinitializer, align 1
@.str.1 = private unnamed_addr constant [3 x i8] c"%s\00", align 1

; Function Attrs: mustprogress uwtable
define void @_ZN7rocksdb15DumpMallocStatsEPNSt7__cxx1112basic_stringIcSt11char_traitsIcESaIcEEE(ptr noundef %stats) #0 personality ptr @__gxx_personality_v0 {
entry:
  %stats.addr = alloca ptr, align 8
  %mstat = alloca %"struct.rocksdb::MallocStatus", align 8
  %kMallocStatusLen = alloca i32, align 4
  %buf = alloca %"class.std::unique_ptr", align 8
  %exn.slot = alloca ptr, align 8
  %ehselector.slot = alloca i32, align 4
  store ptr %stats, ptr %stats.addr, align 8
  %call = call noundef zeroext i1 @_ZL11HasJemallocv()
  br i1 %call, label %if.end, label %if.then

if.then:                                          ; preds = %entry
  br label %return

if.end:                                           ; preds = %entry
  store i32 1000000, ptr %kMallocStatusLen, align 4
  %call1 = call noalias noundef nonnull ptr @_Znam(i64 noundef 1000001) #10
  call void @_ZNSt10unique_ptrIA_cSt14default_deleteIS0_EEC2IPcS2_vbEET_(ptr noundef nonnull align 8 dereferenceable(8) %buf, ptr noundef %call1) #11
  %call2 = call noundef ptr @_ZNKSt10unique_ptrIA_cSt14default_deleteIS0_EE3getEv(ptr noundef nonnull align 8 dereferenceable(8) %buf) #11
  %cur = getelementptr inbounds %"struct.rocksdb::MallocStatus", ptr %mstat, i32 0, i32 0
  store ptr %call2, ptr %cur, align 8
  %call3 = call noundef ptr @_ZNKSt10unique_ptrIA_cSt14default_deleteIS0_EE3getEv(ptr noundef nonnull align 8 dereferenceable(8) %buf) #11
  %add.ptr = getelementptr inbounds i8, ptr %call3, i64 1000000
  %end = getelementptr inbounds %"struct.rocksdb::MallocStatus", ptr %mstat, i32 0, i32 1
  store ptr %add.ptr, ptr %end, align 8
  call void @malloc_stats_print(ptr noundef @_ZN7rocksdbL17GetJemallocStatusEPvPKc, ptr noundef %mstat, ptr noundef @.str) #11
  %0 = load ptr, ptr %stats.addr, align 8
  %call4 = call noundef ptr @_ZNKSt10unique_ptrIA_cSt14default_deleteIS0_EE3getEv(ptr noundef nonnull align 8 dereferenceable(8) %buf) #11
  %call5 = invoke noundef nonnull align 8 dereferenceable(32) ptr @_ZNSt7__cxx1112basic_stringIcSt11char_traitsIcESaIcEE6appendEPKc(ptr noundef nonnull align 8 dereferenceable(32) %0, ptr noundef %call4)
          to label %invoke.cont unwind label %lpad

invoke.cont:                                      ; preds = %if.end
  call void @_ZNSt10unique_ptrIA_cSt14default_deleteIS0_EED2Ev(ptr noundef nonnull align 8 dereferenceable(8) %buf) #11
  br label %return

return:                                           ; preds = %invoke.cont, %if.then
  ret void

lpad:                                             ; preds = %if.end
  %1 = landingpad { ptr, i32 }
          cleanup
  %2 = extractvalue { ptr, i32 } %1, 0
  store ptr %2, ptr %exn.slot, align 8
  %3 = extractvalue { ptr, i32 } %1, 1
  store i32 %3, ptr %ehselector.slot, align 4
  call void @_ZNSt10unique_ptrIA_cSt14default_deleteIS0_EED2Ev(ptr noundef nonnull align 8 dereferenceable(8) %buf) #11
  br label %eh.resume

eh.resume:                                        ; preds = %lpad
  %exn = load ptr, ptr %exn.slot, align 8
  %sel = load i32, ptr %ehselector.slot, align 4
  %lpad.val = insertvalue { ptr, i32 } poison, ptr %exn, 0
  %lpad.val6 = insertvalue { ptr, i32 } %lpad.val, i32 %sel, 1
  resume { ptr, i32 } %lpad.val6
}

; Function Attrs: mustprogress nounwind uwtable
define internal noundef zeroext i1 @_ZL11HasJemallocv() #1 {
entry:
  br i1 icmp ne (ptr @mallocx, ptr null), label %land.lhs.true, label %land.end

land.lhs.true:                                    ; preds = %entry
  br i1 icmp ne (ptr @rallocx, ptr null), label %land.lhs.true1, label %land.end

land.lhs.true1:                                   ; preds = %land.lhs.true
  br i1 icmp ne (ptr @xallocx, ptr null), label %land.lhs.true2, label %land.end

land.lhs.true2:                                   ; preds = %land.lhs.true1
  br i1 icmp ne (ptr @sallocx, ptr null), label %land.lhs.true3, label %land.end

land.lhs.true3:                                   ; preds = %land.lhs.true2
  br i1 icmp ne (ptr @dallocx, ptr null), label %land.lhs.true4, label %land.end

land.lhs.true4:                                   ; preds = %land.lhs.true3
  br i1 icmp ne (ptr @sdallocx, ptr null), label %land.lhs.true5, label %land.end

land.lhs.true5:                                   ; preds = %land.lhs.true4
  br i1 icmp ne (ptr @nallocx, ptr null), label %land.lhs.true6, label %land.end

land.lhs.true6:                                   ; preds = %land.lhs.true5
  br i1 icmp ne (ptr @mallctl, ptr null), label %land.lhs.true7, label %land.end

land.lhs.true7:                                   ; preds = %land.lhs.true6
  br i1 icmp ne (ptr @mallctlnametomib, ptr null), label %land.lhs.true8, label %land.end

land.lhs.true8:                                   ; preds = %land.lhs.true7
  br i1 icmp ne (ptr @mallctlbymib, ptr null), label %land.lhs.true9, label %land.end

land.lhs.true9:                                   ; preds = %land.lhs.true8
  br i1 icmp ne (ptr @malloc_stats_print, ptr null), label %land.rhs, label %land.end

land.rhs:                                         ; preds = %land.lhs.true9
  br label %land.end

land.end:                                         ; preds = %land.rhs, %land.lhs.true9, %land.lhs.true8, %land.lhs.true7, %land.lhs.true6, %land.lhs.true5, %land.lhs.true4, %land.lhs.true3, %land.lhs.true2, %land.lhs.true1, %land.lhs.true, %entry
  %0 = phi i1 [ false, %land.lhs.true9 ], [ false, %land.lhs.true8 ], [ false, %land.lhs.true7 ], [ false, %land.lhs.true6 ], [ false, %land.lhs.true5 ], [ false, %land.lhs.true4 ], [ false, %land.lhs.true3 ], [ false, %land.lhs.true2 ], [ false, %land.lhs.true1 ], [ false, %land.lhs.true ], [ false, %entry ], [ icmp ne (ptr @malloc_usable_size, ptr null), %land.rhs ]
  ret i1 %0
}

; Function Attrs: nobuiltin allocsize(0)
declare noundef nonnull ptr @_Znam(i64 noundef) #2

; Function Attrs: mustprogress nounwind uwtable
define linkonce_odr void @_ZNSt10unique_ptrIA_cSt14default_deleteIS0_EEC2IPcS2_vbEET_(ptr noundef nonnull align 8 dereferenceable(8) %this, ptr noundef %__p) unnamed_addr #1 comdat align 2 personality ptr @__gxx_personality_v0 {
entry:
  %this.addr = alloca ptr, align 8
  %__p.addr = alloca ptr, align 8
  store ptr %this, ptr %this.addr, align 8
  store ptr %__p, ptr %__p.addr, align 8
  %this1 = load ptr, ptr %this.addr, align 8
  %_M_t = getelementptr inbounds %"class.std::unique_ptr", ptr %this1, i32 0, i32 0
  %0 = load ptr, ptr %__p.addr, align 8
  invoke void @_ZNSt15__uniq_ptr_dataIcSt14default_deleteIA_cELb1ELb1EECI2St15__uniq_ptr_implIcS2_EEPc(ptr noundef nonnull align 8 dereferenceable(8) %_M_t, ptr noundef %0)
          to label %invoke.cont unwind label %terminate.lpad

invoke.cont:                                      ; preds = %entry
  ret void

terminate.lpad:                                   ; preds = %entry
  %1 = landingpad { ptr, i32 }
          catch ptr null
  %2 = extractvalue { ptr, i32 } %1, 0
  call void @__clang_call_terminate(ptr %2) #12
  unreachable
}

; Function Attrs: mustprogress nounwind uwtable
define linkonce_odr noundef ptr @_ZNKSt10unique_ptrIA_cSt14default_deleteIS0_EE3getEv(ptr noundef nonnull align 8 dereferenceable(8) %this) #1 comdat align 2 {
entry:
  %this.addr = alloca ptr, align 8
  store ptr %this, ptr %this.addr, align 8
  %this1 = load ptr, ptr %this.addr, align 8
  %_M_t = getelementptr inbounds %"class.std::unique_ptr", ptr %this1, i32 0, i32 0
  %call = call noundef ptr @_ZNKSt15__uniq_ptr_implIcSt14default_deleteIA_cEE6_M_ptrEv(ptr noundef nonnull align 8 dereferenceable(8) %_M_t) #11
  ret ptr %call
}

; Function Attrs: nounwind
declare extern_weak void @malloc_stats_print(ptr noundef, ptr noundef, ptr noundef) #3

; Function Attrs: mustprogress nounwind uwtable
define internal void @_ZN7rocksdbL17GetJemallocStatusEPvPKc(ptr noundef %mstat_arg, ptr noundef %status) #1 {
entry:
  %mstat_arg.addr = alloca ptr, align 8
  %status.addr = alloca ptr, align 8
  %mstat = alloca ptr, align 8
  %status_len = alloca i64, align 8
  %buf_size = alloca i64, align 8
  store ptr %mstat_arg, ptr %mstat_arg.addr, align 8
  store ptr %status, ptr %status.addr, align 8
  %0 = load ptr, ptr %mstat_arg.addr, align 8
  store ptr %0, ptr %mstat, align 8
  %1 = load ptr, ptr %status.addr, align 8
  %tobool = icmp ne ptr %1, null
  br i1 %tobool, label %cond.true, label %cond.false

cond.true:                                        ; preds = %entry
  %2 = load ptr, ptr %status.addr, align 8
  %call = call i64 @strlen(ptr noundef %2) #13
  br label %cond.end

cond.false:                                       ; preds = %entry
  br label %cond.end

cond.end:                                         ; preds = %cond.false, %cond.true
  %cond = phi i64 [ %call, %cond.true ], [ 0, %cond.false ]
  store i64 %cond, ptr %status_len, align 8
  %3 = load ptr, ptr %mstat, align 8
  %end = getelementptr inbounds %"struct.rocksdb::MallocStatus", ptr %3, i32 0, i32 1
  %4 = load ptr, ptr %end, align 8
  %5 = load ptr, ptr %mstat, align 8
  %cur = getelementptr inbounds %"struct.rocksdb::MallocStatus", ptr %5, i32 0, i32 0
  %6 = load ptr, ptr %cur, align 8
  %sub.ptr.lhs.cast = ptrtoint ptr %4 to i64
  %sub.ptr.rhs.cast = ptrtoint ptr %6 to i64
  %sub.ptr.sub = sub i64 %sub.ptr.lhs.cast, %sub.ptr.rhs.cast
  store i64 %sub.ptr.sub, ptr %buf_size, align 8
  %7 = load i64, ptr %status_len, align 8
  %tobool1 = icmp ne i64 %7, 0
  br i1 %tobool1, label %lor.lhs.false, label %if.then

lor.lhs.false:                                    ; preds = %cond.end
  %8 = load i64, ptr %status_len, align 8
  %9 = load i64, ptr %buf_size, align 8
  %cmp = icmp ugt i64 %8, %9
  br i1 %cmp, label %if.then, label %if.end

if.then:                                          ; preds = %lor.lhs.false, %cond.end
  br label %return

if.end:                                           ; preds = %lor.lhs.false
  %10 = load ptr, ptr %mstat, align 8
  %cur2 = getelementptr inbounds %"struct.rocksdb::MallocStatus", ptr %10, i32 0, i32 0
  %11 = load ptr, ptr %cur2, align 8
  %12 = load i64, ptr %buf_size, align 8
  %13 = load ptr, ptr %status.addr, align 8
  %call3 = call i32 (ptr, i64, ptr, ...) @snprintf(ptr noundef %11, i64 noundef %12, ptr noundef @.str.1, ptr noundef %13) #11
  %14 = load i64, ptr %status_len, align 8
  %15 = load ptr, ptr %mstat, align 8
  %cur4 = getelementptr inbounds %"struct.rocksdb::MallocStatus", ptr %15, i32 0, i32 0
  %16 = load ptr, ptr %cur4, align 8
  %add.ptr = getelementptr inbounds i8, ptr %16, i64 %14
  store ptr %add.ptr, ptr %cur4, align 8
  br label %return

return:                                           ; preds = %if.end, %if.then
  ret void
}

declare noundef nonnull align 8 dereferenceable(32) ptr @_ZNSt7__cxx1112basic_stringIcSt11char_traitsIcESaIcEE6appendEPKc(ptr noundef nonnull align 8 dereferenceable(32), ptr noundef) #4

declare i32 @__gxx_personality_v0(...)

; Function Attrs: mustprogress nounwind uwtable
define linkonce_odr void @_ZNSt10unique_ptrIA_cSt14default_deleteIS0_EED2Ev(ptr noundef nonnull align 8 dereferenceable(8) %this) unnamed_addr #1 comdat align 2 personality ptr @__gxx_personality_v0 {
entry:
  %this.addr = alloca ptr, align 8
  %__ptr = alloca ptr, align 8
  store ptr %this, ptr %this.addr, align 8
  %this1 = load ptr, ptr %this.addr, align 8
  %_M_t = getelementptr inbounds %"class.std::unique_ptr", ptr %this1, i32 0, i32 0
  %call = call noundef nonnull align 8 dereferenceable(8) ptr @_ZNSt15__uniq_ptr_implIcSt14default_deleteIA_cEE6_M_ptrEv(ptr noundef nonnull align 8 dereferenceable(8) %_M_t) #11
  store ptr %call, ptr %__ptr, align 8
  %0 = load ptr, ptr %__ptr, align 8
  %1 = load ptr, ptr %0, align 8
  %cmp = icmp ne ptr %1, null
  br i1 %cmp, label %if.then, label %if.end

if.then:                                          ; preds = %entry
  %call2 = call noundef nonnull align 1 dereferenceable(1) ptr @_ZNSt10unique_ptrIA_cSt14default_deleteIS0_EE11get_deleterEv(ptr noundef nonnull align 8 dereferenceable(8) %this1) #11
  %2 = load ptr, ptr %__ptr, align 8
  %3 = load ptr, ptr %2, align 8
  invoke void @_ZNKSt14default_deleteIA_cEclIcEENSt9enable_ifIXsr14is_convertibleIPA_T_PS0_EE5valueEvE4typeEPS4_(ptr noundef nonnull align 1 dereferenceable(1) %call2, ptr noundef %3)
          to label %invoke.cont unwind label %terminate.lpad

invoke.cont:                                      ; preds = %if.then
  br label %if.end

if.end:                                           ; preds = %invoke.cont, %entry
  %4 = load ptr, ptr %__ptr, align 8
  store ptr null, ptr %4, align 8
  ret void

terminate.lpad:                                   ; preds = %if.then
  %5 = landingpad { ptr, i32 }
          catch ptr null
  %6 = extractvalue { ptr, i32 } %5, 0
  call void @__clang_call_terminate(ptr %6) #12
  unreachable
}

; Function Attrs: nounwind allocsize(0)
declare extern_weak noalias ptr @mallocx(i64 noundef, i32 noundef) #5

; Function Attrs: nounwind allocsize(1)
declare extern_weak ptr @rallocx(ptr noundef, i64 noundef, i32 noundef) #6

; Function Attrs: nounwind
declare extern_weak i64 @xallocx(ptr noundef, i64 noundef, i64 noundef, i32 noundef) #3

; Function Attrs: nounwind willreturn memory(read)
declare extern_weak i64 @sallocx(ptr noundef, i32 noundef) #7

; Function Attrs: nounwind
declare extern_weak void @dallocx(ptr noundef, i32 noundef) #3

; Function Attrs: nounwind
declare extern_weak void @sdallocx(ptr noundef, i64 noundef, i32 noundef) #3

; Function Attrs: nounwind willreturn memory(read)
declare extern_weak i64 @nallocx(i64 noundef, i32 noundef) #7

; Function Attrs: nounwind
declare extern_weak i32 @mallctl(ptr noundef, ptr noundef, ptr noundef, ptr noundef, i64 noundef) #3

; Function Attrs: nounwind
declare extern_weak i32 @mallctlnametomib(ptr noundef, ptr noundef, ptr noundef) #3

; Function Attrs: nounwind
declare extern_weak i32 @mallctlbymib(ptr noundef, i64 noundef, ptr noundef, ptr noundef, ptr noundef, i64 noundef) #3

; Function Attrs: nounwind
declare extern_weak i64 @malloc_usable_size(ptr noundef) #3

; Function Attrs: nounwind willreturn memory(read)
declare i64 @strlen(ptr noundef) #7

; Function Attrs: nounwind
declare i32 @snprintf(ptr noundef, i64 noundef, ptr noundef, ...) #3

; Function Attrs: mustprogress uwtable
define linkonce_odr void @_ZNSt15__uniq_ptr_dataIcSt14default_deleteIA_cELb1ELb1EECI2St15__uniq_ptr_implIcS2_EEPc(ptr noundef nonnull align 8 dereferenceable(8) %this, ptr noundef %0) unnamed_addr #0 comdat align 2 {
entry:
  %this.addr = alloca ptr, align 8
  %.addr = alloca ptr, align 8
  store ptr %this, ptr %this.addr, align 8
  store ptr %0, ptr %.addr, align 8
  %this1 = load ptr, ptr %this.addr, align 8
  %1 = load ptr, ptr %.addr, align 8
  call void @_ZNSt15__uniq_ptr_implIcSt14default_deleteIA_cEEC2EPc(ptr noundef nonnull align 8 dereferenceable(8) %this1, ptr noundef %1)
  ret void
}

; Function Attrs: noreturn nounwind uwtable
define linkonce_odr hidden void @__clang_call_terminate(ptr noundef %0) #8 comdat {
  %2 = call ptr @__cxa_begin_catch(ptr %0) #11
  call void @_ZSt9terminatev() #12
  unreachable
}

declare ptr @__cxa_begin_catch(ptr)

declare void @_ZSt9terminatev()

; Function Attrs: mustprogress nounwind uwtable
define linkonce_odr void @_ZNSt15__uniq_ptr_implIcSt14default_deleteIA_cEEC2EPc(ptr noundef nonnull align 8 dereferenceable(8) %this, ptr noundef %__p) unnamed_addr #1 comdat align 2 {
entry:
  %this.addr = alloca ptr, align 8
  %__p.addr = alloca ptr, align 8
  store ptr %this, ptr %this.addr, align 8
  store ptr %__p, ptr %__p.addr, align 8
  %this1 = load ptr, ptr %this.addr, align 8
  %_M_t = getelementptr inbounds %"class.std::__uniq_ptr_impl", ptr %this1, i32 0, i32 0
  call void @_ZNSt5tupleIJPcSt14default_deleteIA_cEEEC2ILb1ETnNSt9enable_ifIXclsr17_TupleConstraintsIXT_ES0_S3_EE37__is_implicitly_default_constructibleEEbE4typeELb1EEEv(ptr noundef nonnull align 8 dereferenceable(8) %_M_t) #11
  %0 = load ptr, ptr %__p.addr, align 8
  %call = call noundef nonnull align 8 dereferenceable(8) ptr @_ZNSt15__uniq_ptr_implIcSt14default_deleteIA_cEE6_M_ptrEv(ptr noundef nonnull align 8 dereferenceable(8) %this1) #11
  store ptr %0, ptr %call, align 8
  ret void
}

; Function Attrs: mustprogress nounwind uwtable
define linkonce_odr void @_ZNSt5tupleIJPcSt14default_deleteIA_cEEEC2ILb1ETnNSt9enable_ifIXclsr17_TupleConstraintsIXT_ES0_S3_EE37__is_implicitly_default_constructibleEEbE4typeELb1EEEv(ptr noundef nonnull align 8 dereferenceable(8) %this) unnamed_addr #1 comdat align 2 personality ptr @__gxx_personality_v0 {
entry:
  %this.addr = alloca ptr, align 8
  store ptr %this, ptr %this.addr, align 8
  %this1 = load ptr, ptr %this.addr, align 8
  invoke void @_ZNSt11_Tuple_implILm0EJPcSt14default_deleteIA_cEEEC2Ev(ptr noundef nonnull align 8 dereferenceable(8) %this1)
          to label %invoke.cont unwind label %terminate.lpad

invoke.cont:                                      ; preds = %entry
  ret void

terminate.lpad:                                   ; preds = %entry
  %0 = landingpad { ptr, i32 }
          catch ptr null
  %1 = extractvalue { ptr, i32 } %0, 0
  call void @__clang_call_terminate(ptr %1) #12
  unreachable
}

; Function Attrs: mustprogress nounwind uwtable
define linkonce_odr noundef nonnull align 8 dereferenceable(8) ptr @_ZNSt15__uniq_ptr_implIcSt14default_deleteIA_cEE6_M_ptrEv(ptr noundef nonnull align 8 dereferenceable(8) %this) #1 comdat align 2 {
entry:
  %this.addr = alloca ptr, align 8
  store ptr %this, ptr %this.addr, align 8
  %this1 = load ptr, ptr %this.addr, align 8
  %_M_t = getelementptr inbounds %"class.std::__uniq_ptr_impl", ptr %this1, i32 0, i32 0
  %call = call noundef nonnull align 8 dereferenceable(8) ptr @_ZSt3getILm0EJPcSt14default_deleteIA_cEEERNSt13tuple_elementIXT_ESt5tupleIJDpT0_EEE4typeERS8_(ptr noundef nonnull align 8 dereferenceable(8) %_M_t) #11
  ret ptr %call
}

; Function Attrs: mustprogress uwtable
define linkonce_odr void @_ZNSt11_Tuple_implILm0EJPcSt14default_deleteIA_cEEEC2Ev(ptr noundef nonnull align 8 dereferenceable(8) %this) unnamed_addr #0 comdat align 2 {
entry:
  %this.addr = alloca ptr, align 8
  store ptr %this, ptr %this.addr, align 8
  %this1 = load ptr, ptr %this.addr, align 8
  call void @_ZNSt11_Tuple_implILm1EJSt14default_deleteIA_cEEEC2Ev(ptr noundef nonnull align 1 dereferenceable(1) %this1)
  call void @_ZNSt10_Head_baseILm0EPcLb0EEC2Ev(ptr noundef nonnull align 8 dereferenceable(8) %this1)
  ret void
}

; Function Attrs: mustprogress uwtable
define linkonce_odr void @_ZNSt11_Tuple_implILm1EJSt14default_deleteIA_cEEEC2Ev(ptr noundef nonnull align 1 dereferenceable(1) %this) unnamed_addr #0 comdat align 2 {
entry:
  %this.addr = alloca ptr, align 8
  store ptr %this, ptr %this.addr, align 8
  %this1 = load ptr, ptr %this.addr, align 8
  call void @_ZNSt10_Head_baseILm1ESt14default_deleteIA_cELb1EEC2Ev(ptr noundef nonnull align 1 dereferenceable(1) %this1)
  ret void
}

; Function Attrs: mustprogress nounwind uwtable
define linkonce_odr void @_ZNSt10_Head_baseILm0EPcLb0EEC2Ev(ptr noundef nonnull align 8 dereferenceable(8) %this) unnamed_addr #1 comdat align 2 {
entry:
  %this.addr = alloca ptr, align 8
  store ptr %this, ptr %this.addr, align 8
  %this1 = load ptr, ptr %this.addr, align 8
  %_M_head_impl = getelementptr inbounds %"struct.std::_Head_base.1", ptr %this1, i32 0, i32 0
  store ptr null, ptr %_M_head_impl, align 8
  ret void
}

; Function Attrs: mustprogress nounwind uwtable
define linkonce_odr void @_ZNSt10_Head_baseILm1ESt14default_deleteIA_cELb1EEC2Ev(ptr noundef nonnull align 1 dereferenceable(1) %this) unnamed_addr #1 comdat align 2 {
entry:
  %this.addr = alloca ptr, align 8
  store ptr %this, ptr %this.addr, align 8
  ret void
}

; Function Attrs: mustprogress nounwind uwtable
define linkonce_odr noundef nonnull align 8 dereferenceable(8) ptr @_ZSt3getILm0EJPcSt14default_deleteIA_cEEERNSt13tuple_elementIXT_ESt5tupleIJDpT0_EEE4typeERS8_(ptr noundef nonnull align 8 dereferenceable(8) %__t) #1 comdat {
entry:
  %__t.addr = alloca ptr, align 8
  store ptr %__t, ptr %__t.addr, align 8
  %0 = load ptr, ptr %__t.addr, align 8
  %call = call noundef nonnull align 8 dereferenceable(8) ptr @_ZSt12__get_helperILm0EPcJSt14default_deleteIA_cEEERT0_RSt11_Tuple_implIXT_EJS4_DpT1_EE(ptr noundef nonnull align 8 dereferenceable(8) %0) #11
  ret ptr %call
}

; Function Attrs: mustprogress nounwind uwtable
define linkonce_odr noundef nonnull align 8 dereferenceable(8) ptr @_ZSt12__get_helperILm0EPcJSt14default_deleteIA_cEEERT0_RSt11_Tuple_implIXT_EJS4_DpT1_EE(ptr noundef nonnull align 8 dereferenceable(8) %__t) #1 comdat {
entry:
  %__t.addr = alloca ptr, align 8
  store ptr %__t, ptr %__t.addr, align 8
  %0 = load ptr, ptr %__t.addr, align 8
  %call = call noundef nonnull align 8 dereferenceable(8) ptr @_ZNSt11_Tuple_implILm0EJPcSt14default_deleteIA_cEEE7_M_headERS4_(ptr noundef nonnull align 8 dereferenceable(8) %0) #11
  ret ptr %call
}

; Function Attrs: mustprogress nounwind uwtable
define linkonce_odr noundef nonnull align 8 dereferenceable(8) ptr @_ZNSt11_Tuple_implILm0EJPcSt14default_deleteIA_cEEE7_M_headERS4_(ptr noundef nonnull align 8 dereferenceable(8) %__t) #1 comdat align 2 {
entry:
  %__t.addr = alloca ptr, align 8
  store ptr %__t, ptr %__t.addr, align 8
  %0 = load ptr, ptr %__t.addr, align 8
  %call = call noundef nonnull align 8 dereferenceable(8) ptr @_ZNSt10_Head_baseILm0EPcLb0EE7_M_headERS1_(ptr noundef nonnull align 8 dereferenceable(8) %0) #11
  ret ptr %call
}

; Function Attrs: mustprogress nounwind uwtable
define linkonce_odr noundef nonnull align 8 dereferenceable(8) ptr @_ZNSt10_Head_baseILm0EPcLb0EE7_M_headERS1_(ptr noundef nonnull align 8 dereferenceable(8) %__b) #1 comdat align 2 {
entry:
  %__b.addr = alloca ptr, align 8
  store ptr %__b, ptr %__b.addr, align 8
  %0 = load ptr, ptr %__b.addr, align 8
  %_M_head_impl = getelementptr inbounds %"struct.std::_Head_base.1", ptr %0, i32 0, i32 0
  ret ptr %_M_head_impl
}

; Function Attrs: mustprogress nounwind uwtable
define linkonce_odr noundef nonnull align 1 dereferenceable(1) ptr @_ZNSt10unique_ptrIA_cSt14default_deleteIS0_EE11get_deleterEv(ptr noundef nonnull align 8 dereferenceable(8) %this) #1 comdat align 2 {
entry:
  %this.addr = alloca ptr, align 8
  store ptr %this, ptr %this.addr, align 8
  %this1 = load ptr, ptr %this.addr, align 8
  %_M_t = getelementptr inbounds %"class.std::unique_ptr", ptr %this1, i32 0, i32 0
  %call = call noundef nonnull align 1 dereferenceable(1) ptr @_ZNSt15__uniq_ptr_implIcSt14default_deleteIA_cEE10_M_deleterEv(ptr noundef nonnull align 8 dereferenceable(8) %_M_t) #11
  ret ptr %call
}

; Function Attrs: mustprogress nounwind uwtable
define linkonce_odr void @_ZNKSt14default_deleteIA_cEclIcEENSt9enable_ifIXsr14is_convertibleIPA_T_PS0_EE5valueEvE4typeEPS4_(ptr noundef nonnull align 1 dereferenceable(1) %this, ptr noundef %__ptr) #1 comdat align 2 {
entry:
  %this.addr = alloca ptr, align 8
  %__ptr.addr = alloca ptr, align 8
  store ptr %this, ptr %this.addr, align 8
  store ptr %__ptr, ptr %__ptr.addr, align 8
  %0 = load ptr, ptr %__ptr.addr, align 8
  %isnull = icmp eq ptr %0, null
  br i1 %isnull, label %delete.end, label %delete.notnull

delete.notnull:                                   ; preds = %entry
  call void @_ZdaPv(ptr noundef %0) #14
  br label %delete.end

delete.end:                                       ; preds = %delete.notnull, %entry
  ret void
}

; Function Attrs: mustprogress nounwind uwtable
define linkonce_odr noundef nonnull align 1 dereferenceable(1) ptr @_ZNSt15__uniq_ptr_implIcSt14default_deleteIA_cEE10_M_deleterEv(ptr noundef nonnull align 8 dereferenceable(8) %this) #1 comdat align 2 {
entry:
  %this.addr = alloca ptr, align 8
  store ptr %this, ptr %this.addr, align 8
  %this1 = load ptr, ptr %this.addr, align 8
  %_M_t = getelementptr inbounds %"class.std::__uniq_ptr_impl", ptr %this1, i32 0, i32 0
  %call = call noundef nonnull align 1 dereferenceable(1) ptr @_ZSt3getILm1EJPcSt14default_deleteIA_cEEERNSt13tuple_elementIXT_ESt5tupleIJDpT0_EEE4typeERS8_(ptr noundef nonnull align 8 dereferenceable(8) %_M_t) #11
  ret ptr %call
}

; Function Attrs: mustprogress nounwind uwtable
define linkonce_odr noundef nonnull align 1 dereferenceable(1) ptr @_ZSt3getILm1EJPcSt14default_deleteIA_cEEERNSt13tuple_elementIXT_ESt5tupleIJDpT0_EEE4typeERS8_(ptr noundef nonnull align 8 dereferenceable(8) %__t) #1 comdat {
entry:
  %__t.addr = alloca ptr, align 8
  store ptr %__t, ptr %__t.addr, align 8
  %0 = load ptr, ptr %__t.addr, align 8
  %call = call noundef nonnull align 1 dereferenceable(1) ptr @_ZSt12__get_helperILm1ESt14default_deleteIA_cEJEERT0_RSt11_Tuple_implIXT_EJS3_DpT1_EE(ptr noundef nonnull align 1 dereferenceable(1) %0) #11
  ret ptr %call
}

; Function Attrs: mustprogress nounwind uwtable
define linkonce_odr noundef nonnull align 1 dereferenceable(1) ptr @_ZSt12__get_helperILm1ESt14default_deleteIA_cEJEERT0_RSt11_Tuple_implIXT_EJS3_DpT1_EE(ptr noundef nonnull align 1 dereferenceable(1) %__t) #1 comdat {
entry:
  %__t.addr = alloca ptr, align 8
  store ptr %__t, ptr %__t.addr, align 8
  %0 = load ptr, ptr %__t.addr, align 8
  %call = call noundef nonnull align 1 dereferenceable(1) ptr @_ZNSt11_Tuple_implILm1EJSt14default_deleteIA_cEEE7_M_headERS3_(ptr noundef nonnull align 1 dereferenceable(1) %0) #11
  ret ptr %call
}

; Function Attrs: mustprogress nounwind uwtable
define linkonce_odr noundef nonnull align 1 dereferenceable(1) ptr @_ZNSt11_Tuple_implILm1EJSt14default_deleteIA_cEEE7_M_headERS3_(ptr noundef nonnull align 1 dereferenceable(1) %__t) #1 comdat align 2 {
entry:
  %__t.addr = alloca ptr, align 8
  store ptr %__t, ptr %__t.addr, align 8
  %0 = load ptr, ptr %__t.addr, align 8
  %call = call noundef nonnull align 1 dereferenceable(1) ptr @_ZNSt10_Head_baseILm1ESt14default_deleteIA_cELb1EE7_M_headERS3_(ptr noundef nonnull align 1 dereferenceable(1) %0) #11
  ret ptr %call
}

; Function Attrs: mustprogress nounwind uwtable
define linkonce_odr noundef nonnull align 1 dereferenceable(1) ptr @_ZNSt10_Head_baseILm1ESt14default_deleteIA_cELb1EE7_M_headERS3_(ptr noundef nonnull align 1 dereferenceable(1) %__b) #1 comdat align 2 {
entry:
  %__b.addr = alloca ptr, align 8
  store ptr %__b, ptr %__b.addr, align 8
  %0 = load ptr, ptr %__b.addr, align 8
  ret ptr %0
}

; Function Attrs: nobuiltin nounwind
declare void @_ZdaPv(ptr noundef) #9

; Function Attrs: mustprogress nounwind uwtable
define linkonce_odr noundef ptr @_ZNKSt15__uniq_ptr_implIcSt14default_deleteIA_cEE6_M_ptrEv(ptr noundef nonnull align 8 dereferenceable(8) %this) #1 comdat align 2 {
entry:
  %this.addr = alloca ptr, align 8
  store ptr %this, ptr %this.addr, align 8
  %this1 = load ptr, ptr %this.addr, align 8
  %_M_t = getelementptr inbounds %"class.std::__uniq_ptr_impl", ptr %this1, i32 0, i32 0
  %call = call noundef nonnull align 8 dereferenceable(8) ptr @_ZSt3getILm0EJPcSt14default_deleteIA_cEEERKNSt13tuple_elementIXT_ESt5tupleIJDpT0_EEE4typeERKS8_(ptr noundef nonnull align 8 dereferenceable(8) %_M_t) #11
  %0 = load ptr, ptr %call, align 8
  ret ptr %0
}

; Function Attrs: mustprogress nounwind uwtable
define linkonce_odr noundef nonnull align 8 dereferenceable(8) ptr @_ZSt3getILm0EJPcSt14default_deleteIA_cEEERKNSt13tuple_elementIXT_ESt5tupleIJDpT0_EEE4typeERKS8_(ptr noundef nonnull align 8 dereferenceable(8) %__t) #1 comdat {
entry:
  %__t.addr = alloca ptr, align 8
  store ptr %__t, ptr %__t.addr, align 8
  %0 = load ptr, ptr %__t.addr, align 8
  %call = call noundef nonnull align 8 dereferenceable(8) ptr @_ZSt12__get_helperILm0EPcJSt14default_deleteIA_cEEERKT0_RKSt11_Tuple_implIXT_EJS4_DpT1_EE(ptr noundef nonnull align 8 dereferenceable(8) %0) #11
  ret ptr %call
}

; Function Attrs: mustprogress nounwind uwtable
define linkonce_odr noundef nonnull align 8 dereferenceable(8) ptr @_ZSt12__get_helperILm0EPcJSt14default_deleteIA_cEEERKT0_RKSt11_Tuple_implIXT_EJS4_DpT1_EE(ptr noundef nonnull align 8 dereferenceable(8) %__t) #1 comdat {
entry:
  %__t.addr = alloca ptr, align 8
  store ptr %__t, ptr %__t.addr, align 8
  %0 = load ptr, ptr %__t.addr, align 8
  %call = call noundef nonnull align 8 dereferenceable(8) ptr @_ZNSt11_Tuple_implILm0EJPcSt14default_deleteIA_cEEE7_M_headERKS4_(ptr noundef nonnull align 8 dereferenceable(8) %0) #11
  ret ptr %call
}

; Function Attrs: mustprogress nounwind uwtable
define linkonce_odr noundef nonnull align 8 dereferenceable(8) ptr @_ZNSt11_Tuple_implILm0EJPcSt14default_deleteIA_cEEE7_M_headERKS4_(ptr noundef nonnull align 8 dereferenceable(8) %__t) #1 comdat align 2 {
entry:
  %__t.addr = alloca ptr, align 8
  store ptr %__t, ptr %__t.addr, align 8
  %0 = load ptr, ptr %__t.addr, align 8
  %call = call noundef nonnull align 8 dereferenceable(8) ptr @_ZNSt10_Head_baseILm0EPcLb0EE7_M_headERKS1_(ptr noundef nonnull align 8 dereferenceable(8) %0) #11
  ret ptr %call
}

; Function Attrs: mustprogress nounwind uwtable
define linkonce_odr noundef nonnull align 8 dereferenceable(8) ptr @_ZNSt10_Head_baseILm0EPcLb0EE7_M_headERKS1_(ptr noundef nonnull align 8 dereferenceable(8) %__b) #1 comdat align 2 {
entry:
  %__b.addr = alloca ptr, align 8
  store ptr %__b, ptr %__b.addr, align 8
  %0 = load ptr, ptr %__b.addr, align 8
  %_M_head_impl = getelementptr inbounds %"struct.std::_Head_base.1", ptr %0, i32 0, i32 0
  ret ptr %_M_head_impl
}

attributes #0 = { mustprogress uwtable "frame-pointer"="non-leaf" "min-legal-vector-width"="0" "no-trapping-math"="true" "stack-protector-buffer-size"="8" "target-cpu"="rocketlake" "target-features"="+64bit,+adx,+aes,+avx,+avx2,+avx512bitalg,+avx512bw,+avx512cd,+avx512dq,+avx512f,+avx512ifma,+avx512vbmi,+avx512vbmi2,+avx512vl,+avx512vnni,+avx512vpopcntdq,+bmi,+bmi2,+clflushopt,+cmov,+crc32,+cx16,+cx8,+evex512,+f16c,+fma,+fsgsbase,+fxsr,+gfni,+invpcid,+lzcnt,+mmx,+movbe,+pclmul,+pku,+popcnt,+prfchw,+rdpid,+rdrnd,+rdseed,+sahf,+sha,+sse,+sse2,+sse3,+sse4.1,+sse4.2,+ssse3,+vaes,+vpclmulqdq,+x87,+xsave,+xsavec,+xsaveopt,+xsaves,-amx-bf16,-amx-complex,-amx-fp16,-amx-int8,-amx-tile,-avx10.1-256,-avx10.1-512,-avx512bf16,-avx512er,-avx512fp16,-avx512pf,-avx512vp2intersect,-avxifma,-avxneconvert,-avxvnni,-avxvnniint16,-avxvnniint8,-cldemote,-clwb,-clzero,-cmpccxadd,-enqcmd,-fma4,-hreset,-kl,-lwp,-movdir64b,-movdiri,-mwaitx,-pconfig,-prefetchi,-prefetchwt1,-ptwrite,-raoint,-rdpru,-rtm,-serialize,-sgx,-sha512,-shstk,-sm3,-sm4,-sse4a,-tbm,-tsxldtrk,-uintr,-usermsr,-waitpkg,-wbnoinvd,-widekl,-xop" }
attributes #1 = { mustprogress nounwind uwtable "frame-pointer"="non-leaf" "min-legal-vector-width"="0" "no-trapping-math"="true" "stack-protector-buffer-size"="8" "target-cpu"="rocketlake" "target-features"="+64bit,+adx,+aes,+avx,+avx2,+avx512bitalg,+avx512bw,+avx512cd,+avx512dq,+avx512f,+avx512ifma,+avx512vbmi,+avx512vbmi2,+avx512vl,+avx512vnni,+avx512vpopcntdq,+bmi,+bmi2,+clflushopt,+cmov,+crc32,+cx16,+cx8,+evex512,+f16c,+fma,+fsgsbase,+fxsr,+gfni,+invpcid,+lzcnt,+mmx,+movbe,+pclmul,+pku,+popcnt,+prfchw,+rdpid,+rdrnd,+rdseed,+sahf,+sha,+sse,+sse2,+sse3,+sse4.1,+sse4.2,+ssse3,+vaes,+vpclmulqdq,+x87,+xsave,+xsavec,+xsaveopt,+xsaves,-amx-bf16,-amx-complex,-amx-fp16,-amx-int8,-amx-tile,-avx10.1-256,-avx10.1-512,-avx512bf16,-avx512er,-avx512fp16,-avx512pf,-avx512vp2intersect,-avxifma,-avxneconvert,-avxvnni,-avxvnniint16,-avxvnniint8,-cldemote,-clwb,-clzero,-cmpccxadd,-enqcmd,-fma4,-hreset,-kl,-lwp,-movdir64b,-movdiri,-mwaitx,-pconfig,-prefetchi,-prefetchwt1,-ptwrite,-raoint,-rdpru,-rtm,-serialize,-sgx,-sha512,-shstk,-sm3,-sm4,-sse4a,-tbm,-tsxldtrk,-uintr,-usermsr,-waitpkg,-wbnoinvd,-widekl,-xop" }
attributes #2 = { nobuiltin allocsize(0) "frame-pointer"="non-leaf" "no-trapping-math"="true" "stack-protector-buffer-size"="8" "target-cpu"="rocketlake" "target-features"="+64bit,+adx,+aes,+avx,+avx2,+avx512bitalg,+avx512bw,+avx512cd,+avx512dq,+avx512f,+avx512ifma,+avx512vbmi,+avx512vbmi2,+avx512vl,+avx512vnni,+avx512vpopcntdq,+bmi,+bmi2,+clflushopt,+cmov,+crc32,+cx16,+cx8,+evex512,+f16c,+fma,+fsgsbase,+fxsr,+gfni,+invpcid,+lzcnt,+mmx,+movbe,+pclmul,+pku,+popcnt,+prfchw,+rdpid,+rdrnd,+rdseed,+sahf,+sha,+sse,+sse2,+sse3,+sse4.1,+sse4.2,+ssse3,+vaes,+vpclmulqdq,+x87,+xsave,+xsavec,+xsaveopt,+xsaves,-amx-bf16,-amx-complex,-amx-fp16,-amx-int8,-amx-tile,-avx10.1-256,-avx10.1-512,-avx512bf16,-avx512er,-avx512fp16,-avx512pf,-avx512vp2intersect,-avxifma,-avxneconvert,-avxvnni,-avxvnniint16,-avxvnniint8,-cldemote,-clwb,-clzero,-cmpccxadd,-enqcmd,-fma4,-hreset,-kl,-lwp,-movdir64b,-movdiri,-mwaitx,-pconfig,-prefetchi,-prefetchwt1,-ptwrite,-raoint,-rdpru,-rtm,-serialize,-sgx,-sha512,-shstk,-sm3,-sm4,-sse4a,-tbm,-tsxldtrk,-uintr,-usermsr,-waitpkg,-wbnoinvd,-widekl,-xop" }
attributes #3 = { nounwind "frame-pointer"="non-leaf" "no-trapping-math"="true" "stack-protector-buffer-size"="8" "target-cpu"="rocketlake" "target-features"="+64bit,+adx,+aes,+avx,+avx2,+avx512bitalg,+avx512bw,+avx512cd,+avx512dq,+avx512f,+avx512ifma,+avx512vbmi,+avx512vbmi2,+avx512vl,+avx512vnni,+avx512vpopcntdq,+bmi,+bmi2,+clflushopt,+cmov,+crc32,+cx16,+cx8,+evex512,+f16c,+fma,+fsgsbase,+fxsr,+gfni,+invpcid,+lzcnt,+mmx,+movbe,+pclmul,+pku,+popcnt,+prfchw,+rdpid,+rdrnd,+rdseed,+sahf,+sha,+sse,+sse2,+sse3,+sse4.1,+sse4.2,+ssse3,+vaes,+vpclmulqdq,+x87,+xsave,+xsavec,+xsaveopt,+xsaves,-amx-bf16,-amx-complex,-amx-fp16,-amx-int8,-amx-tile,-avx10.1-256,-avx10.1-512,-avx512bf16,-avx512er,-avx512fp16,-avx512pf,-avx512vp2intersect,-avxifma,-avxneconvert,-avxvnni,-avxvnniint16,-avxvnniint8,-cldemote,-clwb,-clzero,-cmpccxadd,-enqcmd,-fma4,-hreset,-kl,-lwp,-movdir64b,-movdiri,-mwaitx,-pconfig,-prefetchi,-prefetchwt1,-ptwrite,-raoint,-rdpru,-rtm,-serialize,-sgx,-sha512,-shstk,-sm3,-sm4,-sse4a,-tbm,-tsxldtrk,-uintr,-usermsr,-waitpkg,-wbnoinvd,-widekl,-xop" }
attributes #4 = { "frame-pointer"="non-leaf" "no-trapping-math"="true" "stack-protector-buffer-size"="8" "target-cpu"="rocketlake" "target-features"="+64bit,+adx,+aes,+avx,+avx2,+avx512bitalg,+avx512bw,+avx512cd,+avx512dq,+avx512f,+avx512ifma,+avx512vbmi,+avx512vbmi2,+avx512vl,+avx512vnni,+avx512vpopcntdq,+bmi,+bmi2,+clflushopt,+cmov,+crc32,+cx16,+cx8,+evex512,+f16c,+fma,+fsgsbase,+fxsr,+gfni,+invpcid,+lzcnt,+mmx,+movbe,+pclmul,+pku,+popcnt,+prfchw,+rdpid,+rdrnd,+rdseed,+sahf,+sha,+sse,+sse2,+sse3,+sse4.1,+sse4.2,+ssse3,+vaes,+vpclmulqdq,+x87,+xsave,+xsavec,+xsaveopt,+xsaves,-amx-bf16,-amx-complex,-amx-fp16,-amx-int8,-amx-tile,-avx10.1-256,-avx10.1-512,-avx512bf16,-avx512er,-avx512fp16,-avx512pf,-avx512vp2intersect,-avxifma,-avxneconvert,-avxvnni,-avxvnniint16,-avxvnniint8,-cldemote,-clwb,-clzero,-cmpccxadd,-enqcmd,-fma4,-hreset,-kl,-lwp,-movdir64b,-movdiri,-mwaitx,-pconfig,-prefetchi,-prefetchwt1,-ptwrite,-raoint,-rdpru,-rtm,-serialize,-sgx,-sha512,-shstk,-sm3,-sm4,-sse4a,-tbm,-tsxldtrk,-uintr,-usermsr,-waitpkg,-wbnoinvd,-widekl,-xop" }
attributes #5 = { nounwind allocsize(0) "frame-pointer"="non-leaf" "no-trapping-math"="true" "stack-protector-buffer-size"="8" "target-cpu"="rocketlake" "target-features"="+64bit,+adx,+aes,+avx,+avx2,+avx512bitalg,+avx512bw,+avx512cd,+avx512dq,+avx512f,+avx512ifma,+avx512vbmi,+avx512vbmi2,+avx512vl,+avx512vnni,+avx512vpopcntdq,+bmi,+bmi2,+clflushopt,+cmov,+crc32,+cx16,+cx8,+evex512,+f16c,+fma,+fsgsbase,+fxsr,+gfni,+invpcid,+lzcnt,+mmx,+movbe,+pclmul,+pku,+popcnt,+prfchw,+rdpid,+rdrnd,+rdseed,+sahf,+sha,+sse,+sse2,+sse3,+sse4.1,+sse4.2,+ssse3,+vaes,+vpclmulqdq,+x87,+xsave,+xsavec,+xsaveopt,+xsaves,-amx-bf16,-amx-complex,-amx-fp16,-amx-int8,-amx-tile,-avx10.1-256,-avx10.1-512,-avx512bf16,-avx512er,-avx512fp16,-avx512pf,-avx512vp2intersect,-avxifma,-avxneconvert,-avxvnni,-avxvnniint16,-avxvnniint8,-cldemote,-clwb,-clzero,-cmpccxadd,-enqcmd,-fma4,-hreset,-kl,-lwp,-movdir64b,-movdiri,-mwaitx,-pconfig,-prefetchi,-prefetchwt1,-ptwrite,-raoint,-rdpru,-rtm,-serialize,-sgx,-sha512,-shstk,-sm3,-sm4,-sse4a,-tbm,-tsxldtrk,-uintr,-usermsr,-waitpkg,-wbnoinvd,-widekl,-xop" }
attributes #6 = { nounwind allocsize(1) "frame-pointer"="non-leaf" "no-trapping-math"="true" "stack-protector-buffer-size"="8" "target-cpu"="rocketlake" "target-features"="+64bit,+adx,+aes,+avx,+avx2,+avx512bitalg,+avx512bw,+avx512cd,+avx512dq,+avx512f,+avx512ifma,+avx512vbmi,+avx512vbmi2,+avx512vl,+avx512vnni,+avx512vpopcntdq,+bmi,+bmi2,+clflushopt,+cmov,+crc32,+cx16,+cx8,+evex512,+f16c,+fma,+fsgsbase,+fxsr,+gfni,+invpcid,+lzcnt,+mmx,+movbe,+pclmul,+pku,+popcnt,+prfchw,+rdpid,+rdrnd,+rdseed,+sahf,+sha,+sse,+sse2,+sse3,+sse4.1,+sse4.2,+ssse3,+vaes,+vpclmulqdq,+x87,+xsave,+xsavec,+xsaveopt,+xsaves,-amx-bf16,-amx-complex,-amx-fp16,-amx-int8,-amx-tile,-avx10.1-256,-avx10.1-512,-avx512bf16,-avx512er,-avx512fp16,-avx512pf,-avx512vp2intersect,-avxifma,-avxneconvert,-avxvnni,-avxvnniint16,-avxvnniint8,-cldemote,-clwb,-clzero,-cmpccxadd,-enqcmd,-fma4,-hreset,-kl,-lwp,-movdir64b,-movdiri,-mwaitx,-pconfig,-prefetchi,-prefetchwt1,-ptwrite,-raoint,-rdpru,-rtm,-serialize,-sgx,-sha512,-shstk,-sm3,-sm4,-sse4a,-tbm,-tsxldtrk,-uintr,-usermsr,-waitpkg,-wbnoinvd,-widekl,-xop" }
attributes #7 = { nounwind willreturn memory(read) "frame-pointer"="non-leaf" "no-trapping-math"="true" "stack-protector-buffer-size"="8" "target-cpu"="rocketlake" "target-features"="+64bit,+adx,+aes,+avx,+avx2,+avx512bitalg,+avx512bw,+avx512cd,+avx512dq,+avx512f,+avx512ifma,+avx512vbmi,+avx512vbmi2,+avx512vl,+avx512vnni,+avx512vpopcntdq,+bmi,+bmi2,+clflushopt,+cmov,+crc32,+cx16,+cx8,+evex512,+f16c,+fma,+fsgsbase,+fxsr,+gfni,+invpcid,+lzcnt,+mmx,+movbe,+pclmul,+pku,+popcnt,+prfchw,+rdpid,+rdrnd,+rdseed,+sahf,+sha,+sse,+sse2,+sse3,+sse4.1,+sse4.2,+ssse3,+vaes,+vpclmulqdq,+x87,+xsave,+xsavec,+xsaveopt,+xsaves,-amx-bf16,-amx-complex,-amx-fp16,-amx-int8,-amx-tile,-avx10.1-256,-avx10.1-512,-avx512bf16,-avx512er,-avx512fp16,-avx512pf,-avx512vp2intersect,-avxifma,-avxneconvert,-avxvnni,-avxvnniint16,-avxvnniint8,-cldemote,-clwb,-clzero,-cmpccxadd,-enqcmd,-fma4,-hreset,-kl,-lwp,-movdir64b,-movdiri,-mwaitx,-pconfig,-prefetchi,-prefetchwt1,-ptwrite,-raoint,-rdpru,-rtm,-serialize,-sgx,-sha512,-shstk,-sm3,-sm4,-sse4a,-tbm,-tsxldtrk,-uintr,-usermsr,-waitpkg,-wbnoinvd,-widekl,-xop" }
attributes #8 = { noreturn nounwind uwtable "frame-pointer"="non-leaf" "no-trapping-math"="true" "stack-protector-buffer-size"="8" "target-cpu"="rocketlake" "target-features"="+64bit,+adx,+aes,+avx,+avx2,+avx512bitalg,+avx512bw,+avx512cd,+avx512dq,+avx512f,+avx512ifma,+avx512vbmi,+avx512vbmi2,+avx512vl,+avx512vnni,+avx512vpopcntdq,+bmi,+bmi2,+clflushopt,+cmov,+crc32,+cx16,+cx8,+evex512,+f16c,+fma,+fsgsbase,+fxsr,+gfni,+invpcid,+lzcnt,+mmx,+movbe,+pclmul,+pku,+popcnt,+prfchw,+rdpid,+rdrnd,+rdseed,+sahf,+sha,+sse,+sse2,+sse3,+sse4.1,+sse4.2,+ssse3,+vaes,+vpclmulqdq,+x87,+xsave,+xsavec,+xsaveopt,+xsaves,-amx-bf16,-amx-complex,-amx-fp16,-amx-int8,-amx-tile,-avx10.1-256,-avx10.1-512,-avx512bf16,-avx512er,-avx512fp16,-avx512pf,-avx512vp2intersect,-avxifma,-avxneconvert,-avxvnni,-avxvnniint16,-avxvnniint8,-cldemote,-clwb,-clzero,-cmpccxadd,-enqcmd,-fma4,-hreset,-kl,-lwp,-movdir64b,-movdiri,-mwaitx,-pconfig,-prefetchi,-prefetchwt1,-ptwrite,-raoint,-rdpru,-rtm,-serialize,-sgx,-sha512,-shstk,-sm3,-sm4,-sse4a,-tbm,-tsxldtrk,-uintr,-usermsr,-waitpkg,-wbnoinvd,-widekl,-xop" }
attributes #9 = { nobuiltin nounwind "frame-pointer"="non-leaf" "no-trapping-math"="true" "stack-protector-buffer-size"="8" "target-cpu"="rocketlake" "target-features"="+64bit,+adx,+aes,+avx,+avx2,+avx512bitalg,+avx512bw,+avx512cd,+avx512dq,+avx512f,+avx512ifma,+avx512vbmi,+avx512vbmi2,+avx512vl,+avx512vnni,+avx512vpopcntdq,+bmi,+bmi2,+clflushopt,+cmov,+crc32,+cx16,+cx8,+evex512,+f16c,+fma,+fsgsbase,+fxsr,+gfni,+invpcid,+lzcnt,+mmx,+movbe,+pclmul,+pku,+popcnt,+prfchw,+rdpid,+rdrnd,+rdseed,+sahf,+sha,+sse,+sse2,+sse3,+sse4.1,+sse4.2,+ssse3,+vaes,+vpclmulqdq,+x87,+xsave,+xsavec,+xsaveopt,+xsaves,-amx-bf16,-amx-complex,-amx-fp16,-amx-int8,-amx-tile,-avx10.1-256,-avx10.1-512,-avx512bf16,-avx512er,-avx512fp16,-avx512pf,-avx512vp2intersect,-avxifma,-avxneconvert,-avxvnni,-avxvnniint16,-avxvnniint8,-cldemote,-clwb,-clzero,-cmpccxadd,-enqcmd,-fma4,-hreset,-kl,-lwp,-movdir64b,-movdiri,-mwaitx,-pconfig,-prefetchi,-prefetchwt1,-ptwrite,-raoint,-rdpru,-rtm,-serialize,-sgx,-sha512,-shstk,-sm3,-sm4,-sse4a,-tbm,-tsxldtrk,-uintr,-usermsr,-waitpkg,-wbnoinvd,-widekl,-xop" }
attributes #10 = { builtin allocsize(0) }
attributes #11 = { nounwind }
attributes #12 = { noreturn nounwind }
attributes #13 = { nounwind willreturn memory(read) }
attributes #14 = { builtin nounwind }

!llvm.module.flags = !{!0, !1, !2, !3}

!0 = !{i32 1, !"wchar_size", i32 4}
!1 = !{i32 8, !"PIC Level", i32 2}
!2 = !{i32 7, !"uwtable", i32 2}
!3 = !{i32 7, !"frame-pointer", i32 1}
