target datalayout = "e-m:e-p270:32:32-p271:32:32-p272:64:64-i64:64-i128:128-f80:128-n8:16:32:64-S128"
target triple = "x86_64-unknown-linux-gnu"

%"class.std::unordered_map" = type { %"class.std::_Hashtable" }
%"class.std::_Hashtable" = type { ptr, i64, %"struct.std::__detail::_Hash_node_base", i64, %"struct.std::__detail::_Prime_rehash_policy", ptr }
%"struct.std::__detail::_Hash_node_base" = type { ptr }
%"struct.std::__detail::_Prime_rehash_policy" = type { float, i64 }
%"struct.std::once_flag" = type { i32 }
%"struct.std::piecewise_construct_t" = type { i8 }
%"class.std::initializer_list" = type { ptr, i64 }
%"struct.std::pair" = type { %"class.std::__cxx11::basic_string", %"class.rocksdb::OptionTypeInfo" }
%"class.std::__cxx11::basic_string" = type { %"struct.std::__cxx11::basic_string<char>::_Alloc_hider", i64, %union.anon }
%"struct.std::__cxx11::basic_string<char>::_Alloc_hider" = type { ptr }
%union.anon = type { i64, [8 x i8] }
%"class.rocksdb::OptionTypeInfo" = type <{ i32, [4 x i8], %"class.std::function", %"class.std::function.5", %"class.std::function.7", %"class.std::function.9", %"class.std::function.11", i32, i32, i32, [4 x i8] }>
%"class.std::function" = type { %"class.std::_Function_base", ptr }
%"class.std::_Function_base" = type { %"union.std::_Any_data", ptr }
%"union.std::_Any_data" = type { %"union.std::_Nocopy_types" }
%"union.std::_Nocopy_types" = type { { i64, i64 } }
%"class.std::function.5" = type { %"class.std::_Function_base", ptr }
%"class.std::function.7" = type { %"class.std::_Function_base", ptr }
%"class.std::function.9" = type { %"class.std::_Function_base", ptr }
%"class.std::function.11" = type { %"class.std::_Function_base", ptr }
%"struct.std::hash" = type { i8 }
%"struct.std::equal_to" = type { i8 }
%"class.std::allocator.13" = type { i8 }
%class.anon.27 = type { i8 }
%"class.std::allocator.2" = type { i8 }
%"class.rocksdb::MemoryAllocatorWrapper" = type { %"class.rocksdb::MemoryAllocator", %"class.std::shared_ptr" }
%"class.rocksdb::MemoryAllocator" = type { %"class.rocksdb::Customizable" }
%"class.rocksdb::Customizable" = type { %"class.rocksdb::Configurable" }
%"class.rocksdb::Configurable" = type { ptr, %"class.std::vector" }
%"class.std::vector" = type { %"struct.std::_Vector_base" }
%"struct.std::_Vector_base" = type { %"struct.std::_Vector_base<rocksdb::Configurable::RegisteredOptions, std::allocator<rocksdb::Configurable::RegisteredOptions>>::_Vector_impl" }
%"struct.std::_Vector_base<rocksdb::Configurable::RegisteredOptions, std::allocator<rocksdb::Configurable::RegisteredOptions>>::_Vector_impl" = type { %"struct.std::_Vector_base<rocksdb::Configurable::RegisteredOptions, std::allocator<rocksdb::Configurable::RegisteredOptions>>::_Vector_impl_data" }
%"struct.std::_Vector_base<rocksdb::Configurable::RegisteredOptions, std::allocator<rocksdb::Configurable::RegisteredOptions>>::_Vector_impl_data" = type { ptr, ptr, ptr }
%"class.std::shared_ptr" = type { %"class.std::__shared_ptr" }
%"class.std::__shared_ptr" = type { ptr, %"class.std::__shared_count" }
%"class.std::__shared_count" = type { ptr }
%"class.rocksdb::Status" = type { i8, i8, i8, i8, i8, i8, %"class.std::unique_ptr" }
%"class.std::unique_ptr" = type { %"struct.std::__uniq_ptr_data" }
%"struct.std::__uniq_ptr_data" = type { %"class.std::__uniq_ptr_impl" }
%"class.std::__uniq_ptr_impl" = type { %"class.std::tuple" }
%"class.std::tuple" = type { %"struct.std::_Tuple_impl" }
%"struct.std::_Tuple_impl" = type { %"struct.std::_Head_base.20" }
%"struct.std::_Head_base.20" = type { ptr }
%class.anon = type { i8 }
%"struct.rocksdb::ConfigOptions" = type { i8, i8, i8, i8, i8, %"class.std::__cxx11::basic_string", i32, i8, i64, ptr, %"class.std::shared_ptr.21" }
%"class.std::shared_ptr.21" = type { %"class.std::__shared_ptr.22" }
%"class.std::__shared_ptr.22" = type { ptr, %"class.std::__shared_count" }
%class.anon.33 = type { ptr }
%"struct.std::once_flag::_Prepare_execution" = type { i8 }
%"class.std::unordered_map.133" = type { %"class.std::_Hashtable.134" }
%"class.std::_Hashtable.134" = type { ptr, i64, %"struct.std::__detail::_Hash_node_base", i64, %"struct.std::__detail::_Prime_rehash_policy", ptr }
%"struct.std::__detail::_Hash_node_value_base" = type { %"struct.__gnu_cxx::__aligned_buffer" }
%"struct.__gnu_cxx::__aligned_buffer" = type { %"union.std::aligned_storage<216, 8>::type" }
%"union.std::aligned_storage<216, 8>::type" = type { [216 x i8] }
%"class.std::allocator.24" = type { i8 }
%"class.std::_Sp_counted_base" = type { ptr, i32, i32 }
%"struct.rocksdb::Configurable::RegisteredOptions" = type { %"class.std::__cxx11::basic_string", ptr, ptr }
%struct._Guard = type { ptr }
%"struct.std::pair.29" = type <{ %"struct.std::__detail::_Node_iterator", i8, [7 x i8] }>
%"struct.std::__detail::_Node_iterator" = type { %"struct.std::__detail::_Node_iterator_base" }
%"struct.std::__detail::_Node_iterator_base" = type { ptr }
%"struct.std::__detail::_AllocNode" = type { ptr }
%"class.std::allocator" = type { i8 }
%"struct.std::__detail::_Select1st" = type { i8 }
%"struct.std::_Hashtable<std::__cxx11::basic_string<char>, std::pair<const std::__cxx11::basic_string<char>, rocksdb::OptionTypeInfo>, std::allocator<std::pair<const std::__cxx11::basic_string<char>, rocksdb::OptionTypeInfo>>, std::__detail::_Select1st, std::equal_to<std::__cxx11::basic_string<char>>, std::hash<string>, std::__detail::_Mod_range_hashing, std::__detail::_Default_ranged_hash, std::__detail::_Prime_rehash_policy, std::__detail::_Hashtable_traits<true, false, true>>::_Scoped_node" = type { ptr, ptr }
%"struct.std::pair.31" = type { i8, i64 }
%"struct.std::__detail::_Mod_range_hashing" = type { i8 }
%"struct.std::__detail::_Hash_node_code_cache" = type { i64 }
%class.anon.34 = type { i8 }
%"class.std::function.53" = type { %"class.std::_Function_base", ptr }
%class.anon.55 = type { i8 }
%class.anon.57 = type { i8 }
%class.anon.59 = type { i8 }
%class.anon.61 = type { i8 }
%"class.std::__shared_ptr.51" = type { ptr, %"class.std::__shared_count" }
%"class.std::unique_ptr.63" = type { %"struct.std::__uniq_ptr_data.64" }
%"struct.std::__uniq_ptr_data.64" = type { %"class.std::__uniq_ptr_impl.65" }
%"class.std::__uniq_ptr_impl.65" = type { %"class.std::tuple.66" }
%"class.std::tuple.66" = type { %"struct.std::_Tuple_impl.67" }
%"struct.std::_Tuple_impl.67" = type { %"struct.std::_Head_base.70" }
%"struct.std::_Head_base.70" = type { ptr }
%"class.rocksdb::ObjectLibrary::PatternEntry" = type { %"class.rocksdb::ObjectLibrary::Entry", %"class.std::__cxx11::basic_string", i64, %"class.std::vector.71", i8, i64, %"class.std::vector.76" }
%"class.rocksdb::ObjectLibrary::Entry" = type { ptr }
%"class.std::vector.71" = type { %"struct.std::_Vector_base.72" }
%"struct.std::_Vector_base.72" = type { %"struct.std::_Vector_base<std::__cxx11::basic_string<char>, std::allocator<std::__cxx11::basic_string<char>>>::_Vector_impl" }
%"struct.std::_Vector_base<std::__cxx11::basic_string<char>, std::allocator<std::__cxx11::basic_string<char>>>::_Vector_impl" = type { %"struct.std::_Vector_base<std::__cxx11::basic_string<char>, std::allocator<std::__cxx11::basic_string<char>>>::_Vector_impl_data" }
%"struct.std::_Vector_base<std::__cxx11::basic_string<char>, std::allocator<std::__cxx11::basic_string<char>>>::_Vector_impl_data" = type { ptr, ptr, ptr }
%"class.std::vector.76" = type { %"struct.std::_Vector_base.77" }
%"struct.std::_Vector_base.77" = type { %"struct.std::_Vector_base<std::pair<std::__cxx11::basic_string<char>, rocksdb::ObjectLibrary::PatternEntry::Quantifier>, std::allocator<std::pair<std::__cxx11::basic_string<char>, rocksdb::ObjectLibrary::PatternEntry::Quantifier>>>::_Vector_impl" }
%"struct.std::_Vector_base<std::pair<std::__cxx11::basic_string<char>, rocksdb::ObjectLibrary::PatternEntry::Quantifier>, std::allocator<std::pair<std::__cxx11::basic_string<char>, rocksdb::ObjectLibrary::PatternEntry::Quantifier>>>::_Vector_impl" = type { %"struct.std::_Vector_base<std::pair<std::__cxx11::basic_string<char>, rocksdb::ObjectLibrary::PatternEntry::Quantifier>, std::allocator<std::pair<std::__cxx11::basic_string<char>, rocksdb::ObjectLibrary::PatternEntry::Quantifier>>>::_Vector_impl_data" }
%"struct.std::_Vector_base<std::pair<std::__cxx11::basic_string<char>, rocksdb::ObjectLibrary::PatternEntry::Quantifier>, std::allocator<std::pair<std::__cxx11::basic_string<char>, rocksdb::ObjectLibrary::PatternEntry::Quantifier>>>::_Vector_impl_data" = type { ptr, ptr, ptr }
%"class.rocksdb::ObjectLibrary::FactoryEntry" = type { %"class.rocksdb::ObjectLibrary::Entry", %"class.std::unique_ptr.63", %"class.std::function.53" }
%"class.std::unique_lock" = type <{ ptr, i8, [7 x i8] }>
%"class.rocksdb::ObjectLibrary" = type { %"class.std::mutex", %"class.std::unordered_map.36", %"class.std::__cxx11::basic_string" }
%"class.std::mutex" = type { %"class.std::__mutex_base" }
%"class.std::__mutex_base" = type { %union.pthread_mutex_t }
%union.pthread_mutex_t = type { %struct.__pthread_mutex_s }
%struct.__pthread_mutex_s = type { i32, i32, i32, i32, i32, i16, i16, %struct.__pthread_internal_list }
%struct.__pthread_internal_list = type { ptr, ptr }
%"class.std::unordered_map.36" = type { %"class.std::_Hashtable.37" }
%"class.std::_Hashtable.37" = type { ptr, i64, %"struct.std::__detail::_Hash_node_base", i64, %"struct.std::__detail::_Prime_rehash_policy", ptr }
%"class.__gnu_cxx::__normal_iterator" = type { ptr }
%"struct.std::_Vector_base.84" = type { %"struct.std::_Vector_base<std::unique_ptr<rocksdb::ObjectLibrary::Entry>, std::allocator<std::unique_ptr<rocksdb::ObjectLibrary::Entry>>>::_Vector_impl" }
%"struct.std::_Vector_base<std::unique_ptr<rocksdb::ObjectLibrary::Entry>, std::allocator<std::unique_ptr<rocksdb::ObjectLibrary::Entry>>>::_Vector_impl" = type { %"struct.std::_Vector_base<std::unique_ptr<rocksdb::ObjectLibrary::Entry>, std::allocator<std::unique_ptr<rocksdb::ObjectLibrary::Entry>>>::_Vector_impl_data" }
%"struct.std::_Vector_base<std::unique_ptr<rocksdb::ObjectLibrary::Entry>, std::allocator<std::unique_ptr<rocksdb::ObjectLibrary::Entry>>>::_Vector_impl_data" = type { ptr, ptr, ptr }
%"struct.std::_Hashtable<std::__cxx11::basic_string<char>, std::pair<const std::__cxx11::basic_string<char>, std::vector<std::unique_ptr<rocksdb::ObjectLibrary::Entry>>>, std::allocator<std::pair<const std::__cxx11::basic_string<char>, std::vector<std::unique_ptr<rocksdb::ObjectLibrary::Entry>>>>, std::__detail::_Select1st, std::equal_to<std::__cxx11::basic_string<char>>, std::hash<string>, std::__detail::_Mod_range_hashing, std::__detail::_Default_ranged_hash, std::__detail::_Prime_rehash_policy, std::__detail::_Hashtable_traits<true, false, true>>::_Scoped_node" = type { ptr, ptr }
%"class.std::tuple.96" = type { %"struct.std::_Tuple_impl.97" }
%"struct.std::_Tuple_impl.97" = type { %"struct.std::_Head_base.98" }
%"struct.std::_Head_base.98" = type { ptr }
%"class.std::tuple.99" = type { i8 }
%"struct.std::__detail::_Node_iterator.100" = type { %"struct.std::__detail::_Node_iterator_base.101" }
%"struct.std::__detail::_Node_iterator_base.101" = type { ptr }
%"struct.std::pair.94" = type { %"class.std::__cxx11::basic_string", %"class.std::vector.83" }
%"class.std::vector.83" = type { %"struct.std::_Vector_base.84" }
%"struct.std::__detail::_Hash_node_value_base.90" = type { %"struct.__gnu_cxx::__aligned_buffer.91" }
%"struct.__gnu_cxx::__aligned_buffer.91" = type { %"union.std::aligned_storage<56, 8>::type" }
%"union.std::aligned_storage<56, 8>::type" = type { [56 x i8] }
%"class.std::unique_ptr.103" = type { %"struct.std::__uniq_ptr_data.104" }
%"struct.std::__uniq_ptr_data.104" = type { %"class.std::__uniq_ptr_impl.105" }
%"class.std::__uniq_ptr_impl.105" = type { %"class.std::tuple.106" }
%"class.std::tuple.106" = type { %"struct.std::_Tuple_impl.107" }
%"struct.std::_Tuple_impl.107" = type { %"struct.std::_Head_base.110" }
%"struct.std::_Head_base.110" = type { ptr }
%"class.std::shared_ptr.113" = type { %"class.std::__shared_ptr.114" }
%"class.std::__shared_ptr.114" = type { ptr, %"class.std::__shared_count" }
%"class.std::allocator.116" = type { i8 }
%"struct.std::_Sp_alloc_shared_tag" = type { ptr }
%"class.rocksdb::CountedMemoryAllocator" = type { %"class.rocksdb::MemoryAllocatorWrapper", %"struct.std::atomic", %"struct.std::atomic" }
%"struct.std::atomic" = type { %"struct.std::__atomic_base" }
%"struct.std::__atomic_base" = type { i64 }
%"class.std::allocator.117" = type { i8 }
%"struct.std::__allocated_ptr" = type { ptr, ptr }
%"class.std::_Sp_counted_ptr_inplace" = type { %"class.std::_Sp_counted_base", %"class.std::_Sp_counted_ptr_inplace<rocksdb::DefaultMemoryAllocator, std::allocator<void>, __gnu_cxx::_S_atomic>::_Impl" }
%"class.std::_Sp_counted_ptr_inplace<rocksdb::DefaultMemoryAllocator, std::allocator<void>, __gnu_cxx::_S_atomic>::_Impl" = type { %"struct.__gnu_cxx::__aligned_buffer.120" }
%"struct.__gnu_cxx::__aligned_buffer.120" = type { %"union.std::aligned_storage<32, 8>::type" }
%"union.std::aligned_storage<32, 8>::type" = type { [32 x i8] }
%"struct.rocksdb::JemallocAllocatorOptions" = type { i8, i64, i64, i64 }
%"class.std::function.155" = type { %"class.std::_Function_base", ptr }
%class.anon.157 = type { %"struct.rocksdb::ConfigOptions", %"class.std::unordered_map.133" }
%"class.rocksdb::Slice" = type { ptr, i64 }
%"class.std::shared_ptr.158" = type { %"class.std::__shared_ptr.159" }
%"class.std::__shared_ptr.159" = type { ptr, %"class.std::__shared_count" }
%"struct.std::_Rb_tree_iterator" = type { ptr }
%"class.rocksdb::ObjectRegistry" = type { %"class.std::vector.147", %"class.std::vector.71", %"class.std::map", %"class.std::shared_ptr.21", %"class.std::mutex", %"class.std::mutex" }
%"class.std::vector.147" = type { %"struct.std::_Vector_base.148" }
%"struct.std::_Vector_base.148" = type { %"struct.std::_Vector_base<std::shared_ptr<rocksdb::ObjectLibrary>, std::allocator<std::shared_ptr<rocksdb::ObjectLibrary>>>::_Vector_impl" }
%"struct.std::_Vector_base<std::shared_ptr<rocksdb::ObjectLibrary>, std::allocator<std::shared_ptr<rocksdb::ObjectLibrary>>>::_Vector_impl" = type { %"struct.std::_Vector_base<std::shared_ptr<rocksdb::ObjectLibrary>, std::allocator<std::shared_ptr<rocksdb::ObjectLibrary>>>::_Vector_impl_data" }
%"struct.std::_Vector_base<std::shared_ptr<rocksdb::ObjectLibrary>, std::allocator<std::shared_ptr<rocksdb::ObjectLibrary>>>::_Vector_impl_data" = type { ptr, ptr, ptr }
%"class.std::map" = type { %"class.std::_Rb_tree" }
%"class.std::_Rb_tree" = type { %"struct.std::_Rb_tree<std::__cxx11::basic_string<char>, std::pair<const std::__cxx11::basic_string<char>, std::weak_ptr<rocksdb::Customizable>>, std::_Select1st<std::pair<const std::__cxx11::basic_string<char>, std::weak_ptr<rocksdb::Customizable>>>, std::less<std::__cxx11::basic_string<char>>>::_Rb_tree_impl" }
%"struct.std::_Rb_tree<std::__cxx11::basic_string<char>, std::pair<const std::__cxx11::basic_string<char>, std::weak_ptr<rocksdb::Customizable>>, std::_Select1st<std::pair<const std::__cxx11::basic_string<char>, std::weak_ptr<rocksdb::Customizable>>>, std::less<std::__cxx11::basic_string<char>>>::_Rb_tree_impl" = type { %"struct.std::_Rb_tree_key_compare", %"struct.std::_Rb_tree_header" }
%"struct.std::_Rb_tree_key_compare" = type { %"struct.std::less" }
%"struct.std::less" = type { i8 }
%"struct.std::_Rb_tree_header" = type { %"struct.std::_Rb_tree_node_base", i64 }
%"struct.std::_Rb_tree_node_base" = type { i32, ptr, ptr, ptr }
%"struct.std::pair.161" = type { %"class.std::__cxx11::basic_string", %"class.std::weak_ptr" }
%"class.std::weak_ptr" = type { %"class.std::__weak_ptr" }
%"class.std::__weak_ptr" = type { ptr, %"class.std::__weak_count" }
%"class.std::__weak_count" = type { ptr }
%"struct.std::_Rb_tree_const_iterator" = type { ptr }
%"class.std::tuple.167" = type { %"struct.std::_Tuple_impl.168" }
%"struct.std::_Tuple_impl.168" = type { %"struct.std::_Head_base.169" }
%"struct.std::_Head_base.169" = type { ptr }
%"struct.std::_Select1st" = type { i8 }
%"struct.std::_Rb_tree_node" = type { %"struct.std::_Rb_tree_node_base", %"struct.__gnu_cxx::__aligned_membuf" }
%"struct.__gnu_cxx::__aligned_membuf" = type { [48 x i8] }
%"class.std::reverse_iterator" = type { %"class.__gnu_cxx::__normal_iterator.164" }
%"class.__gnu_cxx::__normal_iterator.164" = type { ptr }
%"struct.std::__detail::_Node_const_iterator" = type { %"struct.std::__detail::_Node_iterator_base.101" }
%"class.__gnu_cxx::__normal_iterator.165" = type { ptr }
%"class.std::shared_ptr.50" = type { %"class.std::__shared_ptr.51" }
%"class.std::_Sp_counted_ptr" = type { %"class.std::_Sp_counted_base", ptr }
%"struct.std::_Rb_tree<std::__cxx11::basic_string<char>, std::pair<const std::__cxx11::basic_string<char>, std::weak_ptr<rocksdb::Customizable>>, std::_Select1st<std::pair<const std::__cxx11::basic_string<char>, std::weak_ptr<rocksdb::Customizable>>>, std::less<std::__cxx11::basic_string<char>>>::_Auto_node" = type { ptr, ptr }
%"struct.std::pair.170" = type { ptr, ptr }
%"class.std::allocator.144" = type { i8 }
%"struct.std::__detail::_AllocNode.172" = type { ptr }
%"struct.std::__detail::_Hash_node_value_base.175" = type { %"struct.__gnu_cxx::__aligned_buffer.176" }
%"struct.__gnu_cxx::__aligned_buffer.176" = type { %"union.std::aligned_storage<64, 8>::type" }
%"union.std::aligned_storage<64, 8>::type" = type { [64 x i8] }
%"struct.std::pair.179" = type { %"class.std::__cxx11::basic_string", %"class.std::__cxx11::basic_string" }

$_ZN7rocksdb14OptionTypeInfo17AsCustomSharedPtrINS_15MemoryAllocatorEEES0_iNS_22OptionVerificationTypeENS_15OptionTypeFlagsE = comdat any

$_ZNSt4pairIKNSt7__cxx1112basic_stringIcSt11char_traitsIcESaIcEEEN7rocksdb14OptionTypeInfoEEC2IRA7_KcS8_TnNSt9enable_ifIXaaclsr5_PCCPE22_MoveConstructiblePairIT_T0_EEclsr5_PCCPE30_ImplicitlyMoveConvertiblePairISF_SG_EEEbE4typeELb1EEEOSF_OSG_ = comdat any

$_ZNSaISt4pairIKNSt7__cxx1112basic_stringIcSt11char_traitsIcESaIcEEEN7rocksdb14OptionTypeInfoEEEC2Ev = comdat any

$_ZNSt13unordered_mapINSt7__cxx1112basic_stringIcSt11char_traitsIcESaIcEEEN7rocksdb14OptionTypeInfoESt4hashIS5_ESt8equal_toIS5_ESaISt4pairIKS5_S7_EEEC2ESt16initializer_listISE_EmRKS9_RKSB_RKSF_ = comdat any

$_ZNSaISt4pairIKNSt7__cxx1112basic_stringIcSt11char_traitsIcESaIcEEEN7rocksdb14OptionTypeInfoEEED2Ev = comdat any

$_ZNSt4pairIKNSt7__cxx1112basic_stringIcSt11char_traitsIcESaIcEEEN7rocksdb14OptionTypeInfoEED2Ev = comdat any

$_ZN7rocksdb14OptionTypeInfoD2Ev = comdat any

$_ZNSt13unordered_mapINSt7__cxx1112basic_stringIcSt11char_traitsIcESaIcEEEN7rocksdb14OptionTypeInfoESt4hashIS5_ESt8equal_toIS5_ESaISt4pairIKS5_S7_EEED2Ev = comdat any

$_ZN7rocksdb15MemoryAllocatorC2Ev = comdat any

$_ZNSt10shared_ptrIN7rocksdb15MemoryAllocatorEEC2ERKS2_ = comdat any

$_ZNSt7__cxx1112basic_stringIcSt11char_traitsIcESaIcEEC2IS3_EEPKcRKS3_ = comdat any

$_ZNSt10shared_ptrIN7rocksdb15MemoryAllocatorEED2Ev = comdat any

$_ZN7rocksdb13ConfigOptionsC2ERKS0_ = comdat any

$_ZN7rocksdb13ConfigOptionsD2Ev = comdat any

$_ZN7rocksdb22MemoryAllocatorWrapperD2Ev = comdat any

$_ZN7rocksdb22MemoryAllocatorWrapperD0Ev = comdat any

$_ZNK7rocksdb12Configurable19GetPrintableOptionsB5cxx11Ev = comdat any

$_ZNK7rocksdb12Customizable13GetOptionsPtrERKNSt7__cxx1112basic_stringIcSt11char_traitsIcESaIcEEE = comdat any

$_ZNK7rocksdb15MemoryAllocator5GetIdB5cxx11Ev = comdat any

$_ZNK7rocksdb12Customizable12IsInstanceOfERKNSt7__cxx1112basic_stringIcSt11char_traitsIcESaIcEEE = comdat any

$_ZNK7rocksdb22MemoryAllocatorWrapper5InnerEv = comdat any

$_ZNK7rocksdb12Customizable8NickNameEv = comdat any

$_ZN7rocksdb22MemoryAllocatorWrapper8AllocateEm = comdat any

$_ZN7rocksdb22MemoryAllocatorWrapper10DeallocateEPv = comdat any

$_ZNK7rocksdb22MemoryAllocatorWrapper10UsableSizeEPvm = comdat any

$_ZN7rocksdb14OptionTypeInfoC2EOS0_ = comdat any

$_ZNSt8functionIFN7rocksdb6StatusERKNS0_13ConfigOptionsERKNSt7__cxx1112basic_stringIcSt11char_traitsIcESaIcEEESC_PvEEC2EOSF_ = comdat any

$_ZNSt8functionIFN7rocksdb6StatusERKNS0_13ConfigOptionsERKNSt7__cxx1112basic_stringIcSt11char_traitsIcESaIcEEEPKvPSA_EEC2EOSH_ = comdat any

$_ZNSt8functionIFbRKN7rocksdb13ConfigOptionsERKNSt7__cxx1112basic_stringIcSt11char_traitsIcESaIcEEEPKvSD_PS9_EEC2EOSG_ = comdat any

$_ZNSt8functionIFN7rocksdb6StatusERKNS0_13ConfigOptionsERKNSt7__cxx1112basic_stringIcSt11char_traitsIcESaIcEEEPvEEC2EOSF_ = comdat any

$_ZNSt8functionIFN7rocksdb6StatusERKNS0_9DBOptionsERKNS0_19ColumnFamilyOptionsERKNSt7__cxx1112basic_stringIcSt11char_traitsIcESaIcEEEPKvEEC2EOSJ_ = comdat any

$_ZNSt14_Function_baseC2Ev = comdat any

$_ZNKSt8functionIFN7rocksdb6StatusERKNS0_13ConfigOptionsERKNSt7__cxx1112basic_stringIcSt11char_traitsIcESaIcEEESC_PvEEcvbEv = comdat any

$_ZNKSt14_Function_base8_M_emptyEv = comdat any

$__clang_call_terminate = comdat any

$_ZNKSt8functionIFN7rocksdb6StatusERKNS0_13ConfigOptionsERKNSt7__cxx1112basic_stringIcSt11char_traitsIcESaIcEEEPKvPSA_EEcvbEv = comdat any

$_ZNKSt8functionIFbRKN7rocksdb13ConfigOptionsERKNSt7__cxx1112basic_stringIcSt11char_traitsIcESaIcEEEPKvSD_PS9_EEcvbEv = comdat any

$_ZNKSt8functionIFN7rocksdb6StatusERKNS0_13ConfigOptionsERKNSt7__cxx1112basic_stringIcSt11char_traitsIcESaIcEEEPvEEcvbEv = comdat any

$_ZNKSt8functionIFN7rocksdb6StatusERKNS0_9DBOptionsERKNS0_19ColumnFamilyOptionsERKNSt7__cxx1112basic_stringIcSt11char_traitsIcESaIcEEEPKvEEcvbEv = comdat any

$_ZNSt8functionIFN7rocksdb6StatusERKNS0_9DBOptionsERKNS0_19ColumnFamilyOptionsERKNSt7__cxx1112basic_stringIcSt11char_traitsIcESaIcEEEPKvEED2Ev = comdat any

$_ZNSt8functionIFN7rocksdb6StatusERKNS0_13ConfigOptionsERKNSt7__cxx1112basic_stringIcSt11char_traitsIcESaIcEEEPvEED2Ev = comdat any

$_ZNSt8functionIFbRKN7rocksdb13ConfigOptionsERKNSt7__cxx1112basic_stringIcSt11char_traitsIcESaIcEEEPKvSD_PS9_EED2Ev = comdat any

$_ZNSt8functionIFN7rocksdb6StatusERKNS0_13ConfigOptionsERKNSt7__cxx1112basic_stringIcSt11char_traitsIcESaIcEEEPKvPSA_EED2Ev = comdat any

$_ZNSt8functionIFN7rocksdb6StatusERKNS0_13ConfigOptionsERKNSt7__cxx1112basic_stringIcSt11char_traitsIcESaIcEEESC_PvEED2Ev = comdat any

$_ZNSt14_Function_baseD2Ev = comdat any

$_ZNSt10_HashtableINSt7__cxx1112basic_stringIcSt11char_traitsIcESaIcEEESt4pairIKS5_N7rocksdb14OptionTypeInfoEESaISA_ENSt8__detail10_Select1stESt8equal_toIS5_ESt4hashIS5_ENSC_18_Mod_range_hashingENSC_20_Default_ranged_hashENSC_20_Prime_rehash_policyENSC_17_Hashtable_traitsILb1ELb0ELb1EEEED2Ev = comdat any

$_ZNSt10_HashtableINSt7__cxx1112basic_stringIcSt11char_traitsIcESaIcEEESt4pairIKS5_N7rocksdb14OptionTypeInfoEESaISA_ENSt8__detail10_Select1stESt8equal_toIS5_ESt4hashIS5_ENSC_18_Mod_range_hashingENSC_20_Default_ranged_hashENSC_20_Prime_rehash_policyENSC_17_Hashtable_traitsILb1ELb0ELb1EEEE5clearEv = comdat any

$_ZNSt10_HashtableINSt7__cxx1112basic_stringIcSt11char_traitsIcESaIcEEESt4pairIKS5_N7rocksdb14OptionTypeInfoEESaISA_ENSt8__detail10_Select1stESt8equal_toIS5_ESt4hashIS5_ENSC_18_Mod_range_hashingENSC_20_Default_ranged_hashENSC_20_Prime_rehash_policyENSC_17_Hashtable_traitsILb1ELb0ELb1EEEE21_M_deallocate_bucketsEv = comdat any

$_ZNSt8__detail16_Hashtable_allocISaINS_10_Hash_nodeISt4pairIKNSt7__cxx1112basic_stringIcSt11char_traitsIcESaIcEEEN7rocksdb14OptionTypeInfoEELb1EEEEED2Ev = comdat any

$_ZNSt8__detail16_Hashtable_allocISaINS_10_Hash_nodeISt4pairIKNSt7__cxx1112basic_stringIcSt11char_traitsIcESaIcEEEN7rocksdb14OptionTypeInfoEELb1EEEEE19_M_deallocate_nodesEPSD_ = comdat any

$_ZNKSt10_HashtableINSt7__cxx1112basic_stringIcSt11char_traitsIcESaIcEEESt4pairIKS5_N7rocksdb14OptionTypeInfoEESaISA_ENSt8__detail10_Select1stESt8equal_toIS5_ESt4hashIS5_ENSC_18_Mod_range_hashingENSC_20_Default_ranged_hashENSC_20_Prime_rehash_policyENSC_17_Hashtable_traitsILb1ELb0ELb1EEEE8_M_beginEv = comdat any

$_ZNKSt8__detail10_Hash_nodeISt4pairIKNSt7__cxx1112basic_stringIcSt11char_traitsIcESaIcEEEN7rocksdb14OptionTypeInfoEELb1EE7_M_nextEv = comdat any

$_ZNSt8__detail16_Hashtable_allocISaINS_10_Hash_nodeISt4pairIKNSt7__cxx1112basic_stringIcSt11char_traitsIcESaIcEEEN7rocksdb14OptionTypeInfoEELb1EEEEE18_M_deallocate_nodeEPSD_ = comdat any

$_ZNSt16allocator_traitsISaINSt8__detail10_Hash_nodeISt4pairIKNSt7__cxx1112basic_stringIcSt11char_traitsIcESaIcEEEN7rocksdb14OptionTypeInfoEELb1EEEEE7destroyISC_EEvRSE_PT_ = comdat any

$_ZNSt8__detail16_Hashtable_allocISaINS_10_Hash_nodeISt4pairIKNSt7__cxx1112basic_stringIcSt11char_traitsIcESaIcEEEN7rocksdb14OptionTypeInfoEELb1EEEEE17_M_node_allocatorEv = comdat any

$_ZNSt8__detail21_Hash_node_value_baseISt4pairIKNSt7__cxx1112basic_stringIcSt11char_traitsIcESaIcEEEN7rocksdb14OptionTypeInfoEEE9_M_valptrEv = comdat any

$_ZNSt8__detail16_Hashtable_allocISaINS_10_Hash_nodeISt4pairIKNSt7__cxx1112basic_stringIcSt11char_traitsIcESaIcEEEN7rocksdb14OptionTypeInfoEELb1EEEEE22_M_deallocate_node_ptrEPSD_ = comdat any

$_ZNSt15__new_allocatorINSt8__detail10_Hash_nodeISt4pairIKNSt7__cxx1112basic_stringIcSt11char_traitsIcESaIcEEEN7rocksdb14OptionTypeInfoEELb1EEEE7destroyISC_EEvPT_ = comdat any

$_ZNSt8__detail21_Hashtable_ebo_helperILi0ESaINS_10_Hash_nodeISt4pairIKNSt7__cxx1112basic_stringIcSt11char_traitsIcESaIcEEEN7rocksdb14OptionTypeInfoEELb1EEEELb1EE6_M_getEv = comdat any

$_ZN9__gnu_cxx16__aligned_bufferISt4pairIKNSt7__cxx1112basic_stringIcSt11char_traitsIcESaIcEEEN7rocksdb14OptionTypeInfoEEE6_M_ptrEv = comdat any

$_ZN9__gnu_cxx16__aligned_bufferISt4pairIKNSt7__cxx1112basic_stringIcSt11char_traitsIcESaIcEEEN7rocksdb14OptionTypeInfoEEE7_M_addrEv = comdat any

$_ZNSt19__ptr_traits_ptr_toIPNSt8__detail10_Hash_nodeISt4pairIKNSt7__cxx1112basic_stringIcSt11char_traitsIcESaIcEEEN7rocksdb14OptionTypeInfoEELb1EEESD_Lb0EE10pointer_toERSD_ = comdat any

$_ZNSt16allocator_traitsISaINSt8__detail10_Hash_nodeISt4pairIKNSt7__cxx1112basic_stringIcSt11char_traitsIcESaIcEEEN7rocksdb14OptionTypeInfoEELb1EEEEE10deallocateERSE_PSD_m = comdat any

$_ZNSt15__new_allocatorINSt8__detail10_Hash_nodeISt4pairIKNSt7__cxx1112basic_stringIcSt11char_traitsIcESaIcEEEN7rocksdb14OptionTypeInfoEELb1EEEE10deallocateEPSD_m = comdat any

$_ZNSt10_HashtableINSt7__cxx1112basic_stringIcSt11char_traitsIcESaIcEEESt4pairIKS5_N7rocksdb14OptionTypeInfoEESaISA_ENSt8__detail10_Select1stESt8equal_toIS5_ESt4hashIS5_ENSC_18_Mod_range_hashingENSC_20_Default_ranged_hashENSC_20_Prime_rehash_policyENSC_17_Hashtable_traitsILb1ELb0ELb1EEEE21_M_deallocate_bucketsEPPNSC_15_Hash_node_baseEm = comdat any

$_ZNKSt10_HashtableINSt7__cxx1112basic_stringIcSt11char_traitsIcESaIcEEESt4pairIKS5_N7rocksdb14OptionTypeInfoEESaISA_ENSt8__detail10_Select1stESt8equal_toIS5_ESt4hashIS5_ENSC_18_Mod_range_hashingENSC_20_Default_ranged_hashENSC_20_Prime_rehash_policyENSC_17_Hashtable_traitsILb1ELb0ELb1EEEE21_M_uses_single_bucketEPPNSC_15_Hash_node_baseE = comdat any

$_ZNSt8__detail16_Hashtable_allocISaINS_10_Hash_nodeISt4pairIKNSt7__cxx1112basic_stringIcSt11char_traitsIcESaIcEEEN7rocksdb14OptionTypeInfoEELb1EEEEE21_M_deallocate_bucketsEPPNS_15_Hash_node_baseEm = comdat any

$_ZNSt19__ptr_traits_ptr_toIPPNSt8__detail15_Hash_node_baseES2_Lb0EE10pointer_toERS2_ = comdat any

$_ZNSaIPNSt8__detail15_Hash_node_baseEEC2INS_10_Hash_nodeISt4pairIKNSt7__cxx1112basic_stringIcSt11char_traitsIcESaIcEEEN7rocksdb14OptionTypeInfoEELb1EEEEERKSaIT_E = comdat any

$_ZNSt16allocator_traitsISaIPNSt8__detail15_Hash_node_baseEEE10deallocateERS3_PS2_m = comdat any

$_ZNSaIPNSt8__detail15_Hash_node_baseEED2Ev = comdat any

$_ZNSt15__new_allocatorIPNSt8__detail15_Hash_node_baseEEC2Ev = comdat any

$_ZNSt15__new_allocatorIPNSt8__detail15_Hash_node_baseEE10deallocateEPS2_m = comdat any

$_ZNSt15__new_allocatorIPNSt8__detail15_Hash_node_baseEED2Ev = comdat any

$_ZNSt8__detail21_Hashtable_ebo_helperILi0ESaINS_10_Hash_nodeISt4pairIKNSt7__cxx1112basic_stringIcSt11char_traitsIcESaIcEEEN7rocksdb14OptionTypeInfoEELb1EEEELb1EED2Ev = comdat any

$_ZNSt15__new_allocatorINSt8__detail10_Hash_nodeISt4pairIKNSt7__cxx1112basic_stringIcSt11char_traitsIcESaIcEEEN7rocksdb14OptionTypeInfoEELb1EEEED2Ev = comdat any

$_ZN7rocksdb12CustomizableC2Ev = comdat any

$_ZN7rocksdb15MemoryAllocatorD2Ev = comdat any

$_ZN7rocksdb15MemoryAllocatorD0Ev = comdat any

$_ZNK7rocksdb12Customizable5InnerEv = comdat any

$_ZNK7rocksdb15MemoryAllocator10UsableSizeEPvm = comdat any

$_ZN7rocksdb12ConfigurableC2Ev = comdat any

$_ZNSt6vectorIN7rocksdb12Configurable17RegisteredOptionsESaIS2_EEC2Ev = comdat any

$_ZNSt12_Vector_baseIN7rocksdb12Configurable17RegisteredOptionsESaIS2_EEC2Ev = comdat any

$_ZNSt12_Vector_baseIN7rocksdb12Configurable17RegisteredOptionsESaIS2_EE12_Vector_implC2Ev = comdat any

$_ZNSaIN7rocksdb12Configurable17RegisteredOptionsEEC2Ev = comdat any

$_ZNSt12_Vector_baseIN7rocksdb12Configurable17RegisteredOptionsESaIS2_EE17_Vector_impl_dataC2Ev = comdat any

$_ZNSt15__new_allocatorIN7rocksdb12Configurable17RegisteredOptionsEEC2Ev = comdat any

$_ZNSt12__shared_ptrIN7rocksdb15MemoryAllocatorELN9__gnu_cxx12_Lock_policyE2EEC2ERKS4_ = comdat any

$_ZNSt14__shared_countILN9__gnu_cxx12_Lock_policyE2EEC2ERKS2_ = comdat any

$_ZNSt16_Sp_counted_baseILN9__gnu_cxx12_Lock_policyE2EE15_M_add_ref_copyEv = comdat any

$_ZNSt14__shared_countILN9__gnu_cxx12_Lock_policyE2EED2Ev = comdat any

$_ZNSt16_Sp_counted_baseILN9__gnu_cxx12_Lock_policyE2EE10_M_releaseEv = comdat any

$_ZNSt16_Sp_counted_baseILN9__gnu_cxx12_Lock_policyE2EE24_M_release_last_use_coldEv = comdat any

$_ZNSt16_Sp_counted_baseILN9__gnu_cxx12_Lock_policyE2EE19_M_release_last_useEv = comdat any

$_ZN7rocksdb12CustomizableD2Ev = comdat any

$_ZN7rocksdb12ConfigurableD2Ev = comdat any

$_ZNSt6vectorIN7rocksdb12Configurable17RegisteredOptionsESaIS2_EED2Ev = comdat any

$_ZSt8_DestroyIPN7rocksdb12Configurable17RegisteredOptionsES2_EvT_S4_RSaIT0_E = comdat any

$_ZNSt12_Vector_baseIN7rocksdb12Configurable17RegisteredOptionsESaIS2_EE19_M_get_Tp_allocatorEv = comdat any

$_ZNSt12_Vector_baseIN7rocksdb12Configurable17RegisteredOptionsESaIS2_EED2Ev = comdat any

$_ZSt8_DestroyIPN7rocksdb12Configurable17RegisteredOptionsEEvT_S4_ = comdat any

$_ZNSt12_Destroy_auxILb0EE9__destroyIPN7rocksdb12Configurable17RegisteredOptionsEEEvT_S6_ = comdat any

$_ZSt8_DestroyIN7rocksdb12Configurable17RegisteredOptionsEEvPT_ = comdat any

$_ZN7rocksdb12Configurable17RegisteredOptionsD2Ev = comdat any

$_ZNSt12_Vector_baseIN7rocksdb12Configurable17RegisteredOptionsESaIS2_EE13_M_deallocateEPS2_m = comdat any

$_ZNSt12_Vector_baseIN7rocksdb12Configurable17RegisteredOptionsESaIS2_EE12_Vector_implD2Ev = comdat any

$_ZNSt16allocator_traitsISaIN7rocksdb12Configurable17RegisteredOptionsEEE10deallocateERS3_PS2_m = comdat any

$_ZNSt15__new_allocatorIN7rocksdb12Configurable17RegisteredOptionsEE10deallocateEPS2_m = comdat any

$_ZNSaIN7rocksdb12Configurable17RegisteredOptionsEED2Ev = comdat any

$_ZNSt15__new_allocatorIN7rocksdb12Configurable17RegisteredOptionsEED2Ev = comdat any

$_ZNSt10shared_ptrIN7rocksdb14ObjectRegistryEEC2ERKS2_ = comdat any

$_ZNSt12__shared_ptrIN7rocksdb14ObjectRegistryELN9__gnu_cxx12_Lock_policyE2EEC2ERKS4_ = comdat any

$_ZNSt10shared_ptrIN7rocksdb14ObjectRegistryEED2Ev = comdat any

$_ZNSt12__shared_ptrIN7rocksdb14ObjectRegistryELN9__gnu_cxx12_Lock_policyE2EED2Ev = comdat any

$_ZNSt11char_traitsIcE6lengthEPKc = comdat any

$_ZNSt7__cxx1112basic_stringIcSt11char_traitsIcESaIcEE12_M_constructIPKcEEvT_S8_St20forward_iterator_tag = comdat any

$_ZNSt7__cxx1112basic_stringIcSt11char_traitsIcESaIcEE12_Alloc_hiderD2Ev = comdat any

$_ZSt8distanceIPKcENSt15iterator_traitsIT_E15difference_typeES3_S3_ = comdat any

$_ZZNSt7__cxx1112basic_stringIcSt11char_traitsIcESaIcEE12_M_constructIPKcEEvT_S8_St20forward_iterator_tagEN6_GuardC2EPS4_ = comdat any

$_ZZNSt7__cxx1112basic_stringIcSt11char_traitsIcESaIcEE12_M_constructIPKcEEvT_S8_St20forward_iterator_tagEN6_GuardD2Ev = comdat any

$_ZSt10__distanceIPKcENSt15iterator_traitsIT_E15difference_typeES3_S3_St26random_access_iterator_tag = comdat any

$_ZSt19__iterator_categoryIPKcENSt15iterator_traitsIT_E17iterator_categoryERKS3_ = comdat any

$_ZN7rocksdborERKNS_15OptionTypeFlagsES2_ = comdat any

$_ZN7rocksdb14OptionTypeInfoC2EiNS_10OptionTypeENS_22OptionVerificationTypeENS_15OptionTypeFlagsE = comdat any

$_ZN7rocksdb14OptionTypeInfo12SetParseFuncERKSt8functionIFNS_6StatusERKNS_13ConfigOptionsERKNSt7__cxx1112basic_stringIcSt11char_traitsIcESaIcEEESD_PvEE = comdat any

$_ZNSt8functionIFN7rocksdb6StatusERKNS0_13ConfigOptionsERKNSt7__cxx1112basic_stringIcSt11char_traitsIcESaIcEEESC_PvEEC2IZNS0_14OptionTypeInfo17AsCustomSharedPtrINS0_15MemoryAllocatorEEESH_iNS0_22OptionVerificationTypeENS0_15OptionTypeFlagsEEUlS4_SC_SC_SD_E_vEEOT_ = comdat any

$_ZN7rocksdb14OptionTypeInfoC2ERKS0_ = comdat any

$_ZNSt8functionIFN7rocksdb6StatusERKNS0_13ConfigOptionsERKNSt7__cxx1112basic_stringIcSt11char_traitsIcESaIcEEESC_PvEEC2EDn = comdat any

$_ZNSt8functionIFN7rocksdb6StatusERKNS0_13ConfigOptionsERKNSt7__cxx1112basic_stringIcSt11char_traitsIcESaIcEEEPKvPSA_EEC2EDn = comdat any

$_ZNSt8functionIFbRKN7rocksdb13ConfigOptionsERKNSt7__cxx1112basic_stringIcSt11char_traitsIcESaIcEEEPKvSD_PS9_EEC2EDn = comdat any

$_ZNSt8functionIFN7rocksdb6StatusERKNS0_13ConfigOptionsERKNSt7__cxx1112basic_stringIcSt11char_traitsIcESaIcEEEPvEEC2Ev = comdat any

$_ZNSt8functionIFN7rocksdb6StatusERKNS0_9DBOptionsERKNS0_19ColumnFamilyOptionsERKNSt7__cxx1112basic_stringIcSt11char_traitsIcESaIcEEEPKvEEC2Ev = comdat any

$_ZNSt8functionIFN7rocksdb6StatusERKNS0_13ConfigOptionsERKNSt7__cxx1112basic_stringIcSt11char_traitsIcESaIcEEESC_PvEEaSERKSF_ = comdat any

$_ZNSt8functionIFN7rocksdb6StatusERKNS0_13ConfigOptionsERKNSt7__cxx1112basic_stringIcSt11char_traitsIcESaIcEEESC_PvEEC2ERKSF_ = comdat any

$_ZNSt8functionIFN7rocksdb6StatusERKNS0_13ConfigOptionsERKNSt7__cxx1112basic_stringIcSt11char_traitsIcESaIcEEESC_PvEE4swapERSF_ = comdat any

$_ZSt4swapISt9_Any_dataENSt9enable_ifIXsr6__and_ISt6__not_ISt15__is_tuple_likeIT_EESt21is_move_constructibleIS4_ESt18is_move_assignableIS4_EEE5valueEvE4typeERS4_SD_ = comdat any

$_ZSt4swapIPFbRSt9_Any_dataRKS0_St18_Manager_operationEENSt9enable_ifIXsr6__and_ISt6__not_ISt15__is_tuple_likeIT_EESt21is_move_constructibleISA_ESt18is_move_assignableISA_EEE5valueEvE4typeERSA_SJ_ = comdat any

$_ZSt4swapIPFN7rocksdb6StatusERKSt9_Any_dataRKNS0_13ConfigOptionsERKNSt7__cxx1112basic_stringIcSt11char_traitsIcESaIcEEESF_OPvEENSt9enable_ifIXsr6__and_ISt6__not_ISt15__is_tuple_likeIT_EESt21is_move_constructibleISN_ESt18is_move_assignableISN_EEE5valueEvE4typeERSN_SW_ = comdat any

$_ZNSt14_Function_base13_Base_managerIZN7rocksdb14OptionTypeInfo17AsCustomSharedPtrINS1_15MemoryAllocatorEEES2_iNS1_22OptionVerificationTypeENS1_15OptionTypeFlagsEEUlRKNS1_13ConfigOptionsERKNSt7__cxx1112basic_stringIcSt11char_traitsIcESaIcEEESH_PvE_E21_M_not_empty_functionISJ_EEbRKT_ = comdat any

$_ZNSt14_Function_base13_Base_managerIZN7rocksdb14OptionTypeInfo17AsCustomSharedPtrINS1_15MemoryAllocatorEEES2_iNS1_22OptionVerificationTypeENS1_15OptionTypeFlagsEEUlRKNS1_13ConfigOptionsERKNSt7__cxx1112basic_stringIcSt11char_traitsIcESaIcEEESH_PvE_E15_M_init_functorISJ_EEvRSt9_Any_dataOT_ = comdat any

$_ZNSt17_Function_handlerIFN7rocksdb6StatusERKNS0_13ConfigOptionsERKNSt7__cxx1112basic_stringIcSt11char_traitsIcESaIcEEESC_PvEZNS0_14OptionTypeInfo17AsCustomSharedPtrINS0_15MemoryAllocatorEEESF_iNS0_22OptionVerificationTypeENS0_15OptionTypeFlagsEEUlS4_SC_SC_SD_E_E9_M_invokeERKSt9_Any_dataS4_SC_SC_OSD_ = comdat any

$_ZNSt17_Function_handlerIFN7rocksdb6StatusERKNS0_13ConfigOptionsERKNSt7__cxx1112basic_stringIcSt11char_traitsIcESaIcEEESC_PvEZNS0_14OptionTypeInfo17AsCustomSharedPtrINS0_15MemoryAllocatorEEESF_iNS0_22OptionVerificationTypeENS0_15OptionTypeFlagsEEUlS4_SC_SC_SD_E_E10_M_managerERSt9_Any_dataRKSM_St18_Manager_operation = comdat any

$_ZNSt14_Function_base13_Base_managerIZN7rocksdb14OptionTypeInfo17AsCustomSharedPtrINS1_15MemoryAllocatorEEES2_iNS1_22OptionVerificationTypeENS1_15OptionTypeFlagsEEUlRKNS1_13ConfigOptionsERKNSt7__cxx1112basic_stringIcSt11char_traitsIcESaIcEEESH_PvE_E9_M_createISJ_EEvRSt9_Any_dataOT_St17integral_constantIbLb1EE = comdat any

$_ZNSt9_Any_data9_M_accessEv = comdat any

$_ZSt10__invoke_rIN7rocksdb6StatusERZNS0_14OptionTypeInfo17AsCustomSharedPtrINS0_15MemoryAllocatorEEES2_iNS0_22OptionVerificationTypeENS0_15OptionTypeFlagsEEUlRKNS0_13ConfigOptionsERKNSt7__cxx1112basic_stringIcSt11char_traitsIcESaIcEEESH_PvE_JS9_SH_SH_SI_EENSt9enable_ifIX16is_invocable_r_vIT_T0_DpT1_EESM_E4typeEOSN_DpOSO_ = comdat any

$_ZNSt14_Function_base13_Base_managerIZN7rocksdb14OptionTypeInfo17AsCustomSharedPtrINS1_15MemoryAllocatorEEES2_iNS1_22OptionVerificationTypeENS1_15OptionTypeFlagsEEUlRKNS1_13ConfigOptionsERKNSt7__cxx1112basic_stringIcSt11char_traitsIcESaIcEEESH_PvE_E14_M_get_pointerERKSt9_Any_data = comdat any

$_ZSt13__invoke_implIN7rocksdb6StatusERZNS0_14OptionTypeInfo17AsCustomSharedPtrINS0_15MemoryAllocatorEEES2_iNS0_22OptionVerificationTypeENS0_15OptionTypeFlagsEEUlRKNS0_13ConfigOptionsERKNSt7__cxx1112basic_stringIcSt11char_traitsIcESaIcEEESH_PvE_JS9_SH_SH_SI_EET_St14__invoke_otherOT0_DpOT1_ = comdat any

$_ZZN7rocksdb14OptionTypeInfo17AsCustomSharedPtrINS_15MemoryAllocatorEEES0_iNS_22OptionVerificationTypeENS_15OptionTypeFlagsEENKUlRKNS_13ConfigOptionsERKNSt7__cxx1112basic_stringIcSt11char_traitsIcESaIcEEESF_PvE_clES7_SF_SF_SG_ = comdat any

$_ZSteqIcSt11char_traitsIcESaIcEEbRKNSt7__cxx1112basic_stringIT_T0_T1_EEPKS5_ = comdat any

$_ZN7rocksdb14OptionTypeInfo11kIdPropNameEv = comdat any

$_ZNSt12__shared_ptrIN7rocksdb15MemoryAllocatorELN9__gnu_cxx12_Lock_policyE2EE5resetEv = comdat any

$_ZN7rocksdb6Status2OKEv = comdat any

$_ZNSt12__shared_ptrIN7rocksdb15MemoryAllocatorELN9__gnu_cxx12_Lock_policyE2EEC2Ev = comdat any

$_ZNSt12__shared_ptrIN7rocksdb15MemoryAllocatorELN9__gnu_cxx12_Lock_policyE2EE4swapERS4_ = comdat any

$_ZNSt12__shared_ptrIN7rocksdb15MemoryAllocatorELN9__gnu_cxx12_Lock_policyE2EED2Ev = comdat any

$_ZNSt14__shared_countILN9__gnu_cxx12_Lock_policyE2EEC2Ev = comdat any

$_ZSt4swapIPN7rocksdb15MemoryAllocatorEENSt9enable_ifIXsr6__and_ISt6__not_ISt15__is_tuple_likeIT_EESt21is_move_constructibleIS6_ESt18is_move_assignableIS6_EEE5valueEvE4typeERS6_SF_ = comdat any

$_ZNSt14__shared_countILN9__gnu_cxx12_Lock_policyE2EE7_M_swapERS2_ = comdat any

$_ZN7rocksdb6StatusC2Ev = comdat any

$_ZNSt10unique_ptrIA_KcSt14default_deleteIS1_EEC2IS3_vEEDn = comdat any

$_ZNSt15__uniq_ptr_dataIKcSt14default_deleteIA_S0_ELb1ELb1EEC2Ev = comdat any

$_ZNSt15__uniq_ptr_implIKcSt14default_deleteIA_S0_EEC2Ev = comdat any

$_ZNSt5tupleIJPKcSt14default_deleteIA_S0_EEEC2ILb1ETnNSt9enable_ifIXclsr17_TupleConstraintsIXT_ES1_S4_EE37__is_implicitly_default_constructibleEEbE4typeELb1EEEv = comdat any

$_ZNSt11_Tuple_implILm0EJPKcSt14default_deleteIA_S0_EEEC2Ev = comdat any

$_ZNSt11_Tuple_implILm1EJSt14default_deleteIA_KcEEEC2Ev = comdat any

$_ZNSt10_Head_baseILm0EPKcLb0EEC2Ev = comdat any

$_ZNSt10_Head_baseILm1ESt14default_deleteIA_KcELb1EEC2Ev = comdat any

$_ZNKSt9_Any_data9_M_accessIZN7rocksdb14OptionTypeInfo17AsCustomSharedPtrINS1_15MemoryAllocatorEEES2_iNS1_22OptionVerificationTypeENS1_15OptionTypeFlagsEEUlRKNS1_13ConfigOptionsERKNSt7__cxx1112basic_stringIcSt11char_traitsIcESaIcEEESH_PvE_EERKT_v = comdat any

$_ZNKSt9_Any_data9_M_accessEv = comdat any

$_ZNSt9_Any_data9_M_accessIPZN7rocksdb14OptionTypeInfo17AsCustomSharedPtrINS1_15MemoryAllocatorEEES2_iNS1_22OptionVerificationTypeENS1_15OptionTypeFlagsEEUlRKNS1_13ConfigOptionsERKNSt7__cxx1112basic_stringIcSt11char_traitsIcESaIcEEESH_PvE_EERT_v = comdat any

$_ZNSt14_Function_base13_Base_managerIZN7rocksdb14OptionTypeInfo17AsCustomSharedPtrINS1_15MemoryAllocatorEEES2_iNS1_22OptionVerificationTypeENS1_15OptionTypeFlagsEEUlRKNS1_13ConfigOptionsERKNSt7__cxx1112basic_stringIcSt11char_traitsIcESaIcEEESH_PvE_E10_M_managerERSt9_Any_dataRKSL_St18_Manager_operation = comdat any

$_ZNSt9_Any_data9_M_accessIPKSt9type_infoEERT_v = comdat any

$_ZNSt14_Function_base13_Base_managerIZN7rocksdb14OptionTypeInfo17AsCustomSharedPtrINS1_15MemoryAllocatorEEES2_iNS1_22OptionVerificationTypeENS1_15OptionTypeFlagsEEUlRKNS1_13ConfigOptionsERKNSt7__cxx1112basic_stringIcSt11char_traitsIcESaIcEEESH_PvE_E15_M_init_functorIRKSJ_EEvRSt9_Any_dataOT_ = comdat any

$_ZNSt14_Function_base13_Base_managerIZN7rocksdb14OptionTypeInfo17AsCustomSharedPtrINS1_15MemoryAllocatorEEES2_iNS1_22OptionVerificationTypeENS1_15OptionTypeFlagsEEUlRKNS1_13ConfigOptionsERKNSt7__cxx1112basic_stringIcSt11char_traitsIcESaIcEEESH_PvE_E10_M_destroyERSt9_Any_dataSt17integral_constantIbLb1EE = comdat any

$_ZNSt14_Function_base13_Base_managerIZN7rocksdb14OptionTypeInfo17AsCustomSharedPtrINS1_15MemoryAllocatorEEES2_iNS1_22OptionVerificationTypeENS1_15OptionTypeFlagsEEUlRKNS1_13ConfigOptionsERKNSt7__cxx1112basic_stringIcSt11char_traitsIcESaIcEEESH_PvE_E9_M_createIRKSJ_EEvRSt9_Any_dataOT_St17integral_constantIbLb1EE = comdat any

$_ZNSt9_Any_data9_M_accessIZN7rocksdb14OptionTypeInfo17AsCustomSharedPtrINS1_15MemoryAllocatorEEES2_iNS1_22OptionVerificationTypeENS1_15OptionTypeFlagsEEUlRKNS1_13ConfigOptionsERKNSt7__cxx1112basic_stringIcSt11char_traitsIcESaIcEEESH_PvE_EERT_v = comdat any

$_ZNSt8functionIFN7rocksdb6StatusERKNS0_13ConfigOptionsERKNSt7__cxx1112basic_stringIcSt11char_traitsIcESaIcEEEPKvPSA_EEC2ERKSH_ = comdat any

$_ZNSt8functionIFbRKN7rocksdb13ConfigOptionsERKNSt7__cxx1112basic_stringIcSt11char_traitsIcESaIcEEEPKvSD_PS9_EEC2ERKSG_ = comdat any

$_ZNSt8functionIFN7rocksdb6StatusERKNS0_13ConfigOptionsERKNSt7__cxx1112basic_stringIcSt11char_traitsIcESaIcEEEPvEEC2ERKSF_ = comdat any

$_ZNSt8functionIFN7rocksdb6StatusERKNS0_9DBOptionsERKNS0_19ColumnFamilyOptionsERKNSt7__cxx1112basic_stringIcSt11char_traitsIcESaIcEEEPKvEEC2ERKSJ_ = comdat any

$_ZNSt15__new_allocatorISt4pairIKNSt7__cxx1112basic_stringIcSt11char_traitsIcESaIcEEEN7rocksdb14OptionTypeInfoEEEC2Ev = comdat any

$_ZNSt15__new_allocatorISt4pairIKNSt7__cxx1112basic_stringIcSt11char_traitsIcESaIcEEEN7rocksdb14OptionTypeInfoEEED2Ev = comdat any

$_ZNSt10_HashtableINSt7__cxx1112basic_stringIcSt11char_traitsIcESaIcEEESt4pairIKS5_N7rocksdb14OptionTypeInfoEESaISA_ENSt8__detail10_Select1stESt8equal_toIS5_ESt4hashIS5_ENSC_18_Mod_range_hashingENSC_20_Default_ranged_hashENSC_20_Prime_rehash_policyENSC_17_Hashtable_traitsILb1ELb0ELb1EEEEC2ESt16initializer_listISA_EmRKSH_RKSF_RKSB_ = comdat any

$_ZNKSt16initializer_listISt4pairIKNSt7__cxx1112basic_stringIcSt11char_traitsIcESaIcEEEN7rocksdb14OptionTypeInfoEEE5beginEv = comdat any

$_ZNKSt16initializer_listISt4pairIKNSt7__cxx1112basic_stringIcSt11char_traitsIcESaIcEEEN7rocksdb14OptionTypeInfoEEE3endEv = comdat any

$_ZNSt10_HashtableINSt7__cxx1112basic_stringIcSt11char_traitsIcESaIcEEESt4pairIKS5_N7rocksdb14OptionTypeInfoEESaISA_ENSt8__detail10_Select1stESt8equal_toIS5_ESt4hashIS5_ENSC_18_Mod_range_hashingENSC_20_Default_ranged_hashENSC_20_Prime_rehash_policyENSC_17_Hashtable_traitsILb1ELb0ELb1EEEEC2IPKSA_EET_SR_mRKSH_RKSF_RKSB_St17integral_constantIbLb1EE = comdat any

$_ZNKSt16initializer_listISt4pairIKNSt7__cxx1112basic_stringIcSt11char_traitsIcESaIcEEEN7rocksdb14OptionTypeInfoEEE4sizeEv = comdat any

$_ZNSt10_HashtableINSt7__cxx1112basic_stringIcSt11char_traitsIcESaIcEEESt4pairIKS5_N7rocksdb14OptionTypeInfoEESaISA_ENSt8__detail10_Select1stESt8equal_toIS5_ESt4hashIS5_ENSC_18_Mod_range_hashingENSC_20_Default_ranged_hashENSC_20_Prime_rehash_policyENSC_17_Hashtable_traitsILb1ELb0ELb1EEEEC2EmRKSH_RKSF_RKSB_ = comdat any

$_ZNSt8__detail12_Insert_baseINSt7__cxx1112basic_stringIcSt11char_traitsIcESaIcEEESt4pairIKS6_N7rocksdb14OptionTypeInfoEESaISB_ENS_10_Select1stESt8equal_toIS6_ESt4hashIS6_ENS_18_Mod_range_hashingENS_20_Default_ranged_hashENS_20_Prime_rehash_policyENS_17_Hashtable_traitsILb1ELb0ELb1EEEE6insertERKSB_ = comdat any

$_ZNSt10_HashtableINSt7__cxx1112basic_stringIcSt11char_traitsIcESaIcEEESt4pairIKS5_N7rocksdb14OptionTypeInfoEESaISA_ENSt8__detail10_Select1stESt8equal_toIS5_ESt4hashIS5_ENSC_18_Mod_range_hashingENSC_20_Default_ranged_hashENSC_20_Prime_rehash_policyENSC_17_Hashtable_traitsILb1ELb0ELb1EEEEC2ERKSH_RKSF_RKSB_ = comdat any

$_ZNSt10_HashtableINSt7__cxx1112basic_stringIcSt11char_traitsIcESaIcEEESt4pairIKS5_N7rocksdb14OptionTypeInfoEESaISA_ENSt8__detail10_Select1stESt8equal_toIS5_ESt4hashIS5_ENSC_18_Mod_range_hashingENSC_20_Default_ranged_hashENSC_20_Prime_rehash_policyENSC_17_Hashtable_traitsILb1ELb0ELb1EEEE19_M_allocate_bucketsEm = comdat any

$_ZNSt8__detail15_Hashtable_baseINSt7__cxx1112basic_stringIcSt11char_traitsIcESaIcEEESt4pairIKS6_N7rocksdb14OptionTypeInfoEENS_10_Select1stESt8equal_toIS6_ESt4hashIS6_ENS_18_Mod_range_hashingENS_20_Default_ranged_hashENS_17_Hashtable_traitsILb1ELb0ELb1EEEEC2ERKSG_RKSE_ = comdat any

$_ZNSaINSt8__detail10_Hash_nodeISt4pairIKNSt7__cxx1112basic_stringIcSt11char_traitsIcESaIcEEEN7rocksdb14OptionTypeInfoEELb1EEEEC2ISB_EERKSaIT_E = comdat any

$_ZNSt8__detail16_Hashtable_allocISaINS_10_Hash_nodeISt4pairIKNSt7__cxx1112basic_stringIcSt11char_traitsIcESaIcEEEN7rocksdb14OptionTypeInfoEELb1EEEEEC2ISE_EEOT_ = comdat any

$_ZNSaINSt8__detail10_Hash_nodeISt4pairIKNSt7__cxx1112basic_stringIcSt11char_traitsIcESaIcEEEN7rocksdb14OptionTypeInfoEELb1EEEED2Ev = comdat any

$_ZNSt27_Enable_default_constructorILb1ENSt8__detail15_Hash_node_baseEEC2ESt31_Enable_default_constructor_tag = comdat any

$_ZNSt8__detail15_Hash_node_baseC2Ev = comdat any

$_ZNSt8__detail20_Prime_rehash_policyC2Ef = comdat any

$_ZNSt8__detail15_Hash_code_baseINSt7__cxx1112basic_stringIcSt11char_traitsIcESaIcEEESt4pairIKS6_N7rocksdb14OptionTypeInfoEENS_10_Select1stESt4hashIS6_ENS_18_Mod_range_hashingENS_20_Default_ranged_hashELb1EEC2ERKSE_ = comdat any

$_ZNSt8__detail21_Hashtable_ebo_helperILi0ESt8equal_toINSt7__cxx1112basic_stringIcSt11char_traitsIcESaIcEEEELb1EEC2IRKS8_EEOT_ = comdat any

$_ZNSt8__detail21_Hashtable_ebo_helperILi1ESt4hashINSt7__cxx1112basic_stringIcSt11char_traitsIcESaIcEEEELb1EEC2IRKS8_EEOT_ = comdat any

$_ZNSt15__new_allocatorINSt8__detail10_Hash_nodeISt4pairIKNSt7__cxx1112basic_stringIcSt11char_traitsIcESaIcEEEN7rocksdb14OptionTypeInfoEELb1EEEEC2Ev = comdat any

$_ZNSt8__detail21_Hashtable_ebo_helperILi0ESaINS_10_Hash_nodeISt4pairIKNSt7__cxx1112basic_stringIcSt11char_traitsIcESaIcEEEN7rocksdb14OptionTypeInfoEELb1EEEELb1EEC2ISE_EEOT_ = comdat any

$_ZNSaINSt8__detail10_Hash_nodeISt4pairIKNSt7__cxx1112basic_stringIcSt11char_traitsIcESaIcEEEN7rocksdb14OptionTypeInfoEELb1EEEEC2ERKSD_ = comdat any

$_ZNSt15__new_allocatorINSt8__detail10_Hash_nodeISt4pairIKNSt7__cxx1112basic_stringIcSt11char_traitsIcESaIcEEEN7rocksdb14OptionTypeInfoEELb1EEEEC2ERKSE_ = comdat any

$_ZNSt8__detail16_Hashtable_allocISaINS_10_Hash_nodeISt4pairIKNSt7__cxx1112basic_stringIcSt11char_traitsIcESaIcEEEN7rocksdb14OptionTypeInfoEELb1EEEEE19_M_allocate_bucketsEm = comdat any

$_ZNSt16allocator_traitsISaIPNSt8__detail15_Hash_node_baseEEE8allocateERS3_m = comdat any

$_ZSt12__to_addressIPNSt8__detail15_Hash_node_baseEEPT_S4_ = comdat any

$_ZNSt15__new_allocatorIPNSt8__detail15_Hash_node_baseEE8allocateEmPKv = comdat any

$_ZNKSt15__new_allocatorIPNSt8__detail15_Hash_node_baseEE11_M_max_sizeEv = comdat any

$_ZNSt8__detail12_Insert_baseINSt7__cxx1112basic_stringIcSt11char_traitsIcESaIcEEESt4pairIKS6_N7rocksdb14OptionTypeInfoEESaISB_ENS_10_Select1stESt8equal_toIS6_ESt4hashIS6_ENS_18_Mod_range_hashingENS_20_Default_ranged_hashENS_20_Prime_rehash_policyENS_17_Hashtable_traitsILb1ELb0ELb1EEEE20_M_conjure_hashtableEv = comdat any

$_ZNSt8__detail10_AllocNodeISaINS_10_Hash_nodeISt4pairIKNSt7__cxx1112basic_stringIcSt11char_traitsIcESaIcEEEN7rocksdb14OptionTypeInfoEELb1EEEEEC2ERNS_16_Hashtable_allocISE_EE = comdat any

$_ZNSt10_HashtableINSt7__cxx1112basic_stringIcSt11char_traitsIcESaIcEEESt4pairIKS5_N7rocksdb14OptionTypeInfoEESaISA_ENSt8__detail10_Select1stESt8equal_toIS5_ESt4hashIS5_ENSC_18_Mod_range_hashingENSC_20_Default_ranged_hashENSC_20_Prime_rehash_policyENSC_17_Hashtable_traitsILb1ELb0ELb1EEEE9_M_insertIRKSA_NSC_10_AllocNodeISaINSC_10_Hash_nodeISA_Lb1EEEEEEEES6_INSC_14_Node_iteratorISA_Lb0ELb1EEEbEOT_RKT0_St17integral_constantIbLb1EE = comdat any

$_ZNSt10_HashtableINSt7__cxx1112basic_stringIcSt11char_traitsIcESaIcEEESt4pairIKS5_N7rocksdb14OptionTypeInfoEESaISA_ENSt8__detail10_Select1stESt8equal_toIS5_ESt4hashIS5_ENSC_18_Mod_range_hashingENSC_20_Default_ranged_hashENSC_20_Prime_rehash_policyENSC_17_Hashtable_traitsILb1ELb0ELb1EEEE16_M_insert_uniqueIRS7_RKSA_NSC_10_AllocNodeISaINSC_10_Hash_nodeISA_Lb1EEEEEEEES6_INSC_14_Node_iteratorISA_Lb0ELb1EEEbEOT_OT0_RKT1_ = comdat any

$_ZNSt10_HashtableINSt7__cxx1112basic_stringIcSt11char_traitsIcESaIcEEESt4pairIKS5_N7rocksdb14OptionTypeInfoEESaISA_ENSt8__detail10_Select1stESt8equal_toIS5_ESt4hashIS5_ENSC_18_Mod_range_hashingENSC_20_Default_ranged_hashENSC_20_Prime_rehash_policyENSC_17_Hashtable_traitsILb1ELb0ELb1EEEE14_S_forward_keyERS7_ = comdat any

$_ZNKSt8__detail10_Select1stclIRKSt4pairIKNSt7__cxx1112basic_stringIcSt11char_traitsIcESaIcEEEN7rocksdb14OptionTypeInfoEEEEONS0_10__1st_typeIT_E4typeEOSG_ = comdat any

$_ZNKSt10_HashtableINSt7__cxx1112basic_stringIcSt11char_traitsIcESaIcEEESt4pairIKS5_N7rocksdb14OptionTypeInfoEESaISA_ENSt8__detail10_Select1stESt8equal_toIS5_ESt4hashIS5_ENSC_18_Mod_range_hashingENSC_20_Default_ranged_hashENSC_20_Prime_rehash_policyENSC_17_Hashtable_traitsILb1ELb0ELb1EEEE4sizeEv = comdat any

$_ZNSt10_HashtableINSt7__cxx1112basic_stringIcSt11char_traitsIcESaIcEEESt4pairIKS5_N7rocksdb14OptionTypeInfoEESaISA_ENSt8__detail10_Select1stESt8equal_toIS5_ESt4hashIS5_ENSC_18_Mod_range_hashingENSC_20_Default_ranged_hashENSC_20_Prime_rehash_policyENSC_17_Hashtable_traitsILb1ELb0ELb1EEEE22__small_size_thresholdEv = comdat any

$_ZNSt10_HashtableINSt7__cxx1112basic_stringIcSt11char_traitsIcESaIcEEESt4pairIKS5_N7rocksdb14OptionTypeInfoEESaISA_ENSt8__detail10_Select1stESt8equal_toIS5_ESt4hashIS5_ENSC_18_Mod_range_hashingENSC_20_Default_ranged_hashENSC_20_Prime_rehash_policyENSC_17_Hashtable_traitsILb1ELb0ELb1EEEE5beginEv = comdat any

$_ZNSt8__detailneERKNS_19_Node_iterator_baseISt4pairIKNSt7__cxx1112basic_stringIcSt11char_traitsIcESaIcEEEN7rocksdb14OptionTypeInfoEELb1EEESE_ = comdat any

$_ZNSt10_HashtableINSt7__cxx1112basic_stringIcSt11char_traitsIcESaIcEEESt4pairIKS5_N7rocksdb14OptionTypeInfoEESaISA_ENSt8__detail10_Select1stESt8equal_toIS5_ESt4hashIS5_ENSC_18_Mod_range_hashingENSC_20_Default_ranged_hashENSC_20_Prime_rehash_policyENSC_17_Hashtable_traitsILb1ELb0ELb1EEEE3endEv = comdat any

$_ZNKSt8__detail15_Hashtable_baseINSt7__cxx1112basic_stringIcSt11char_traitsIcESaIcEEESt4pairIKS6_N7rocksdb14OptionTypeInfoEENS_10_Select1stESt8equal_toIS6_ESt4hashIS6_ENS_18_Mod_range_hashingENS_20_Default_ranged_hashENS_17_Hashtable_traitsILb1ELb0ELb1EEEE16_M_key_equals_trIS6_EEbRKT_RKNS_16_Hash_node_valueISB_Lb1EEE = comdat any

$_ZNSt4pairINSt8__detail14_Node_iteratorIS_IKNSt7__cxx1112basic_stringIcSt11char_traitsIcESaIcEEEN7rocksdb14OptionTypeInfoEELb0ELb1EEEbEC2IRSC_bTnNSt9enable_ifIXaaclsr5_PCCPE22_MoveConstructiblePairIT_T0_EEclsr5_PCCPE30_ImplicitlyMoveConvertiblePairISH_SI_EEEbE4typeELb1EEEOSH_OSI_ = comdat any

$_ZNSt8__detail14_Node_iteratorISt4pairIKNSt7__cxx1112basic_stringIcSt11char_traitsIcESaIcEEEN7rocksdb14OptionTypeInfoEELb0ELb1EEppEv = comdat any

$_ZNKSt8__detail15_Hash_code_baseINSt7__cxx1112basic_stringIcSt11char_traitsIcESaIcEEESt4pairIKS6_N7rocksdb14OptionTypeInfoEENS_10_Select1stESt4hashIS6_ENS_18_Mod_range_hashingENS_20_Default_ranged_hashELb1EE15_M_hash_code_trIS6_EEmRKT_ = comdat any

$_ZNKSt10_HashtableINSt7__cxx1112basic_stringIcSt11char_traitsIcESaIcEEESt4pairIKS5_N7rocksdb14OptionTypeInfoEESaISA_ENSt8__detail10_Select1stESt8equal_toIS5_ESt4hashIS5_ENSC_18_Mod_range_hashingENSC_20_Default_ranged_hashENSC_20_Prime_rehash_policyENSC_17_Hashtable_traitsILb1ELb0ELb1EEEE15_M_bucket_indexEm = comdat any

$_ZNKSt10_HashtableINSt7__cxx1112basic_stringIcSt11char_traitsIcESaIcEEESt4pairIKS5_N7rocksdb14OptionTypeInfoEESaISA_ENSt8__detail10_Select1stESt8equal_toIS5_ESt4hashIS5_ENSC_18_Mod_range_hashingENSC_20_Default_ranged_hashENSC_20_Prime_rehash_policyENSC_17_Hashtable_traitsILb1ELb0ELb1EEEE15_M_find_node_trIS5_EEPNSC_10_Hash_nodeISA_Lb1EEEmRKT_m = comdat any

$_ZNSt8__detail14_Node_iteratorISt4pairIKNSt7__cxx1112basic_stringIcSt11char_traitsIcESaIcEEEN7rocksdb14OptionTypeInfoEELb0ELb1EEC2EPNS_10_Hash_nodeISB_Lb1EEE = comdat any

$_ZNSt4pairINSt8__detail14_Node_iteratorIS_IKNSt7__cxx1112basic_stringIcSt11char_traitsIcESaIcEEEN7rocksdb14OptionTypeInfoEELb0ELb1EEEbEC2ISC_bTnNSt9enable_ifIXaaclsr5_PCCPE22_MoveConstructiblePairIT_T0_EEclsr5_PCCPE30_ImplicitlyMoveConvertiblePairISG_SH_EEEbE4typeELb1EEEOSG_OSH_ = comdat any

$_ZNSt8__detail12_NodeBuilderINS_10_Select1stEE8_S_buildIRKNSt7__cxx1112basic_stringIcSt11char_traitsIcESaIcEEERKSt4pairISA_N7rocksdb14OptionTypeInfoEENS_10_AllocNodeISaINS_10_Hash_nodeISF_Lb1EEEEEEEEPNT1_11__node_typeEOT_OT0_RKSN_ = comdat any

$_ZNSt10_HashtableINSt7__cxx1112basic_stringIcSt11char_traitsIcESaIcEEESt4pairIKS5_N7rocksdb14OptionTypeInfoEESaISA_ENSt8__detail10_Select1stESt8equal_toIS5_ESt4hashIS5_ENSC_18_Mod_range_hashingENSC_20_Default_ranged_hashENSC_20_Prime_rehash_policyENSC_17_Hashtable_traitsILb1ELb0ELb1EEEE12_Scoped_nodeC2EPNSC_10_Hash_nodeISA_Lb1EEEPNSC_16_Hashtable_allocISaISQ_EEE = comdat any

$_ZNSt10_HashtableINSt7__cxx1112basic_stringIcSt11char_traitsIcESaIcEEESt4pairIKS5_N7rocksdb14OptionTypeInfoEESaISA_ENSt8__detail10_Select1stESt8equal_toIS5_ESt4hashIS5_ENSC_18_Mod_range_hashingENSC_20_Default_ranged_hashENSC_20_Prime_rehash_policyENSC_17_Hashtable_traitsILb1ELb0ELb1EEEE21_M_insert_unique_nodeEmmPNSC_10_Hash_nodeISA_Lb1EEEm = comdat any

$_ZNSt10_HashtableINSt7__cxx1112basic_stringIcSt11char_traitsIcESaIcEEESt4pairIKS5_N7rocksdb14OptionTypeInfoEESaISA_ENSt8__detail10_Select1stESt8equal_toIS5_ESt4hashIS5_ENSC_18_Mod_range_hashingENSC_20_Default_ranged_hashENSC_20_Prime_rehash_policyENSC_17_Hashtable_traitsILb1ELb0ELb1EEEE12_Scoped_nodeD2Ev = comdat any

$_ZNSt8__detail22_Hashtable_hash_traitsISt4hashINSt7__cxx1112basic_stringIcSt11char_traitsIcESaIcEEEEE22__small_size_thresholdEv = comdat any

$_ZNKSt8__detail15_Hashtable_baseINSt7__cxx1112basic_stringIcSt11char_traitsIcESaIcEEESt4pairIKS6_N7rocksdb14OptionTypeInfoEENS_10_Select1stESt8equal_toIS6_ESt4hashIS6_ENS_18_Mod_range_hashingENS_20_Default_ranged_hashENS_17_Hashtable_traitsILb1ELb0ELb1EEEE5_M_eqEv = comdat any

$_ZNKSt8equal_toINSt7__cxx1112basic_stringIcSt11char_traitsIcESaIcEEEEclERKS5_S8_ = comdat any

$_ZNKSt8__detail21_Hash_node_value_baseISt4pairIKNSt7__cxx1112basic_stringIcSt11char_traitsIcESaIcEEEN7rocksdb14OptionTypeInfoEEE4_M_vEv = comdat any

$_ZNKSt8__detail21_Hashtable_ebo_helperILi0ESt8equal_toINSt7__cxx1112basic_stringIcSt11char_traitsIcESaIcEEEELb1EE7_M_cgetEv = comdat any

$_ZSteqIcEN9__gnu_cxx11__enable_ifIXsr9__is_charIT_EE7__valueEbE6__typeERKNSt7__cxx1112basic_stringIS2_St11char_traitsIS2_ESaIS2_EEESC_ = comdat any

$_ZNSt11char_traitsIcE7compareEPKcS2_m = comdat any

$_ZNKSt8__detail21_Hash_node_value_baseISt4pairIKNSt7__cxx1112basic_stringIcSt11char_traitsIcESaIcEEEN7rocksdb14OptionTypeInfoEEE9_M_valptrEv = comdat any

$_ZNK9__gnu_cxx16__aligned_bufferISt4pairIKNSt7__cxx1112basic_stringIcSt11char_traitsIcESaIcEEEN7rocksdb14OptionTypeInfoEEE6_M_ptrEv = comdat any

$_ZNK9__gnu_cxx16__aligned_bufferISt4pairIKNSt7__cxx1112basic_stringIcSt11char_traitsIcESaIcEEEN7rocksdb14OptionTypeInfoEEE7_M_addrEv = comdat any

$_ZNSt8__detail19_Node_iterator_baseISt4pairIKNSt7__cxx1112basic_stringIcSt11char_traitsIcESaIcEEEN7rocksdb14OptionTypeInfoEELb1EE7_M_incrEv = comdat any

$_ZNKSt8__detail15_Hash_code_baseINSt7__cxx1112basic_stringIcSt11char_traitsIcESaIcEEESt4pairIKS6_N7rocksdb14OptionTypeInfoEENS_10_Select1stESt4hashIS6_ENS_18_Mod_range_hashingENS_20_Default_ranged_hashELb1EE7_M_hashEv = comdat any

$_ZNKSt4hashINSt7__cxx1112basic_stringIcSt11char_traitsIcESaIcEEEEclERKS5_ = comdat any

$_ZNKSt8__detail21_Hashtable_ebo_helperILi1ESt4hashINSt7__cxx1112basic_stringIcSt11char_traitsIcESaIcEEEELb1EE7_M_cgetEv = comdat any

$_ZNSt10_Hash_impl4hashEPKvmm = comdat any

$_ZNKSt8__detail15_Hash_code_baseINSt7__cxx1112basic_stringIcSt11char_traitsIcESaIcEEESt4pairIKS6_N7rocksdb14OptionTypeInfoEENS_10_Select1stESt4hashIS6_ENS_18_Mod_range_hashingENS_20_Default_ranged_hashELb1EE15_M_bucket_indexEmm = comdat any

$_ZNKSt8__detail18_Mod_range_hashingclEmm = comdat any

$_ZNKSt10_HashtableINSt7__cxx1112basic_stringIcSt11char_traitsIcESaIcEEESt4pairIKS5_N7rocksdb14OptionTypeInfoEESaISA_ENSt8__detail10_Select1stESt8equal_toIS5_ESt4hashIS5_ENSC_18_Mod_range_hashingENSC_20_Default_ranged_hashENSC_20_Prime_rehash_policyENSC_17_Hashtable_traitsILb1ELb0ELb1EEEE22_M_find_before_node_trIS5_EEPNSC_15_Hash_node_baseEmRKT_m = comdat any

$_ZNKSt8__detail15_Hashtable_baseINSt7__cxx1112basic_stringIcSt11char_traitsIcESaIcEEESt4pairIKS6_N7rocksdb14OptionTypeInfoEENS_10_Select1stESt8equal_toIS6_ESt4hashIS6_ENS_18_Mod_range_hashingENS_20_Default_ranged_hashENS_17_Hashtable_traitsILb1ELb0ELb1EEEE12_M_equals_trIS6_EEbRKT_mRKNS_16_Hash_node_valueISB_Lb1EEE = comdat any

$_ZNKSt10_HashtableINSt7__cxx1112basic_stringIcSt11char_traitsIcESaIcEEESt4pairIKS5_N7rocksdb14OptionTypeInfoEESaISA_ENSt8__detail10_Select1stESt8equal_toIS5_ESt4hashIS5_ENSC_18_Mod_range_hashingENSC_20_Default_ranged_hashENSC_20_Prime_rehash_policyENSC_17_Hashtable_traitsILb1ELb0ELb1EEEE15_M_bucket_indexERKNSC_16_Hash_node_valueISA_Lb1EEE = comdat any

$_ZNSt8__detail15_Hashtable_baseINSt7__cxx1112basic_stringIcSt11char_traitsIcESaIcEEESt4pairIKS6_N7rocksdb14OptionTypeInfoEENS_10_Select1stESt8equal_toIS6_ESt4hashIS6_ENS_18_Mod_range_hashingENS_20_Default_ranged_hashENS_17_Hashtable_traitsILb1ELb0ELb1EEEE9_S_equalsEmRKNS_21_Hash_node_code_cacheILb1EEE = comdat any

$_ZNKSt8__detail15_Hash_code_baseINSt7__cxx1112basic_stringIcSt11char_traitsIcESaIcEEESt4pairIKS6_N7rocksdb14OptionTypeInfoEENS_10_Select1stESt4hashIS6_ENS_18_Mod_range_hashingENS_20_Default_ranged_hashELb1EE15_M_bucket_indexERKNS_16_Hash_node_valueISB_Lb1EEEm = comdat any

$_ZNSt8__detail19_Node_iterator_baseISt4pairIKNSt7__cxx1112basic_stringIcSt11char_traitsIcESaIcEEEN7rocksdb14OptionTypeInfoEELb1EEC2EPNS_10_Hash_nodeISB_Lb1EEE = comdat any

$_ZNKSt8__detail10_AllocNodeISaINS_10_Hash_nodeISt4pairIKNSt7__cxx1112basic_stringIcSt11char_traitsIcESaIcEEEN7rocksdb14OptionTypeInfoEELb1EEEEEclIJRS9_RKSB_EEEPSD_DpOT_ = comdat any

$_ZNSt8__detail16_Hashtable_allocISaINS_10_Hash_nodeISt4pairIKNSt7__cxx1112basic_stringIcSt11char_traitsIcESaIcEEEN7rocksdb14OptionTypeInfoEELb1EEEEE16_M_allocate_nodeIJRS9_RKSB_EEEPSD_DpOT_ = comdat any

$_ZNSt16allocator_traitsISaINSt8__detail10_Hash_nodeISt4pairIKNSt7__cxx1112basic_stringIcSt11char_traitsIcESaIcEEEN7rocksdb14OptionTypeInfoEELb1EEEEE8allocateERSE_m = comdat any

$_ZSt12__to_addressINSt8__detail10_Hash_nodeISt4pairIKNSt7__cxx1112basic_stringIcSt11char_traitsIcESaIcEEEN7rocksdb14OptionTypeInfoEELb1EEEEPT_SF_ = comdat any

$_ZNSt8__detail10_Hash_nodeISt4pairIKNSt7__cxx1112basic_stringIcSt11char_traitsIcESaIcEEEN7rocksdb14OptionTypeInfoEELb1EEC2Ev = comdat any

$_ZNSt16allocator_traitsISaINSt8__detail10_Hash_nodeISt4pairIKNSt7__cxx1112basic_stringIcSt11char_traitsIcESaIcEEEN7rocksdb14OptionTypeInfoEELb1EEEEE9constructISC_JRS9_RKSB_EEEvRSE_PT_DpOT0_ = comdat any

$_ZNSt15__new_allocatorINSt8__detail10_Hash_nodeISt4pairIKNSt7__cxx1112basic_stringIcSt11char_traitsIcESaIcEEEN7rocksdb14OptionTypeInfoEELb1EEEE8allocateEmPKv = comdat any

$_ZNKSt15__new_allocatorINSt8__detail10_Hash_nodeISt4pairIKNSt7__cxx1112basic_stringIcSt11char_traitsIcESaIcEEEN7rocksdb14OptionTypeInfoEELb1EEEE11_M_max_sizeEv = comdat any

$_ZNSt15__new_allocatorINSt8__detail10_Hash_nodeISt4pairIKNSt7__cxx1112basic_stringIcSt11char_traitsIcESaIcEEEN7rocksdb14OptionTypeInfoEELb1EEEE9constructISC_JRS9_RKSB_EEEvPT_DpOT0_ = comdat any

$_ZNSt4pairIKNSt7__cxx1112basic_stringIcSt11char_traitsIcESaIcEEEN7rocksdb14OptionTypeInfoEEC2IS6_S8_TnNSt9enable_ifIXaaclsr5_PCCPE18_ConstructiblePairIT_T0_EEclsr5_PCCPE26_ImplicitlyConvertiblePairISC_SD_EEEbE4typeELb1EEERS6_RKS8_ = comdat any

$_ZNKSt8__detail20_Prime_rehash_policy8_M_stateEv = comdat any

$_ZNSt10_HashtableINSt7__cxx1112basic_stringIcSt11char_traitsIcESaIcEEESt4pairIKS5_N7rocksdb14OptionTypeInfoEESaISA_ENSt8__detail10_Select1stESt8equal_toIS5_ESt4hashIS5_ENSC_18_Mod_range_hashingENSC_20_Default_ranged_hashENSC_20_Prime_rehash_policyENSC_17_Hashtable_traitsILb1ELb0ELb1EEEE9_M_rehashEmRKm = comdat any

$_ZNKSt8__detail15_Hash_code_baseINSt7__cxx1112basic_stringIcSt11char_traitsIcESaIcEEESt4pairIKS6_N7rocksdb14OptionTypeInfoEENS_10_Select1stESt4hashIS6_ENS_18_Mod_range_hashingENS_20_Default_ranged_hashELb1EE13_M_store_codeERNS_21_Hash_node_code_cacheILb1EEEm = comdat any

$_ZNSt10_HashtableINSt7__cxx1112basic_stringIcSt11char_traitsIcESaIcEEESt4pairIKS5_N7rocksdb14OptionTypeInfoEESaISA_ENSt8__detail10_Select1stESt8equal_toIS5_ESt4hashIS5_ENSC_18_Mod_range_hashingENSC_20_Default_ranged_hashENSC_20_Prime_rehash_policyENSC_17_Hashtable_traitsILb1ELb0ELb1EEEE22_M_insert_bucket_beginEmPNSC_10_Hash_nodeISA_Lb1EEE = comdat any

$_ZNSt10_HashtableINSt7__cxx1112basic_stringIcSt11char_traitsIcESaIcEEESt4pairIKS5_N7rocksdb14OptionTypeInfoEESaISA_ENSt8__detail10_Select1stESt8equal_toIS5_ESt4hashIS5_ENSC_18_Mod_range_hashingENSC_20_Default_ranged_hashENSC_20_Prime_rehash_policyENSC_17_Hashtable_traitsILb1ELb0ELb1EEEE13_M_rehash_auxEmSt17integral_constantIbLb1EE = comdat any

$_ZNSt8__detail20_Prime_rehash_policy8_M_resetEm = comdat any

$_ZNSt9once_flag18_Prepare_executionD2Ev = comdat any

$_ZNKSt12__shared_ptrIN7rocksdb13ObjectLibraryELN9__gnu_cxx12_Lock_policyE2EE3getEv = comdat any

$_ZN7rocksdb13ObjectLibrary10AddFactoryINS_15MemoryAllocatorEEERKSt8functionIFPT_RKNSt7__cxx1112basic_stringIcSt11char_traitsIcESaIcEEEPSt10unique_ptrIS4_St14default_deleteIS4_EEPSB_EESD_SN_ = comdat any

$_ZN7rocksdb22DefaultMemoryAllocator10kClassNameEv = comdat any

$_ZNSt8functionIFPN7rocksdb15MemoryAllocatorERKNSt7__cxx1112basic_stringIcSt11char_traitsIcESaIcEEEPSt10unique_ptrIS1_St14default_deleteIS1_EEPS8_EED2Ev = comdat any

$_ZN7rocksdb22CountedMemoryAllocator10kClassNameEv = comdat any

$_ZN7rocksdb23JemallocNodumpAllocator10kClassNameEv = comdat any

$_ZN7rocksdb20MemkindKmemAllocator10kClassNameEv = comdat any

$_ZN7rocksdb13ObjectLibrary12PatternEntryC2ERKNSt7__cxx1112basic_stringIcSt11char_traitsIcESaIcEEEb = comdat any

$_ZNSt8functionIFPN7rocksdb15MemoryAllocatorERKNSt7__cxx1112basic_stringIcSt11char_traitsIcESaIcEEEPSt10unique_ptrIS1_St14default_deleteIS1_EEPS8_EEC2ERKSI_ = comdat any

$_ZN7rocksdb13ObjectLibrary12FactoryEntryINS_15MemoryAllocatorEEC2EPNS0_5EntryESt8functionIFPS2_RKNSt7__cxx1112basic_stringIcSt11char_traitsIcESaIcEEEPSt10unique_ptrIS2_St14default_deleteIS2_EEPSD_EE = comdat any

$_ZNSt10unique_ptrIN7rocksdb13ObjectLibrary5EntryESt14default_deleteIS2_EEC2IS4_vEEPS2_ = comdat any

$_ZN7rocksdb13ObjectLibrary15AddFactoryEntryEPKcOSt10unique_ptrINS0_5EntryESt14default_deleteIS4_EE = comdat any

$_ZN7rocksdb15MemoryAllocator4TypeEv = comdat any

$_ZNSt10unique_ptrIN7rocksdb13ObjectLibrary5EntryESt14default_deleteIS2_EED2Ev = comdat any

$_ZN7rocksdb13ObjectLibrary5EntryC2Ev = comdat any

$_ZNSt6vectorINSt7__cxx1112basic_stringIcSt11char_traitsIcESaIcEEESaIS5_EEC2Ev = comdat any

$_ZNSt6vectorISt4pairINSt7__cxx1112basic_stringIcSt11char_traitsIcESaIcEEEN7rocksdb13ObjectLibrary12PatternEntry10QuantifierEESaISB_EEC2Ev = comdat any

$_ZN7rocksdb13ObjectLibrary5EntryD2Ev = comdat any

$_ZN7rocksdb13ObjectLibrary5EntryD0Ev = comdat any

$_ZNSt12_Vector_baseINSt7__cxx1112basic_stringIcSt11char_traitsIcESaIcEEESaIS5_EEC2Ev = comdat any

$_ZNSt12_Vector_baseINSt7__cxx1112basic_stringIcSt11char_traitsIcESaIcEEESaIS5_EE12_Vector_implC2Ev = comdat any

$_ZNSaINSt7__cxx1112basic_stringIcSt11char_traitsIcESaIcEEEEC2Ev = comdat any

$_ZNSt12_Vector_baseINSt7__cxx1112basic_stringIcSt11char_traitsIcESaIcEEESaIS5_EE17_Vector_impl_dataC2Ev = comdat any

$_ZNSt15__new_allocatorINSt7__cxx1112basic_stringIcSt11char_traitsIcESaIcEEEEC2Ev = comdat any

$_ZNSt12_Vector_baseISt4pairINSt7__cxx1112basic_stringIcSt11char_traitsIcESaIcEEEN7rocksdb13ObjectLibrary12PatternEntry10QuantifierEESaISB_EEC2Ev = comdat any

$_ZNSt12_Vector_baseISt4pairINSt7__cxx1112basic_stringIcSt11char_traitsIcESaIcEEEN7rocksdb13ObjectLibrary12PatternEntry10QuantifierEESaISB_EE12_Vector_implC2Ev = comdat any

$_ZNSaISt4pairINSt7__cxx1112basic_stringIcSt11char_traitsIcESaIcEEEN7rocksdb13ObjectLibrary12PatternEntry10QuantifierEEEC2Ev = comdat any

$_ZNSt12_Vector_baseISt4pairINSt7__cxx1112basic_stringIcSt11char_traitsIcESaIcEEEN7rocksdb13ObjectLibrary12PatternEntry10QuantifierEESaISB_EE17_Vector_impl_dataC2Ev = comdat any

$_ZNSt15__new_allocatorISt4pairINSt7__cxx1112basic_stringIcSt11char_traitsIcESaIcEEEN7rocksdb13ObjectLibrary12PatternEntry10QuantifierEEEC2Ev = comdat any

$_ZNKSt8functionIFPN7rocksdb15MemoryAllocatorERKNSt7__cxx1112basic_stringIcSt11char_traitsIcESaIcEEEPSt10unique_ptrIS1_St14default_deleteIS1_EEPS8_EEcvbEv = comdat any

$_ZNSt8functionIFPN7rocksdb15MemoryAllocatorERKNSt7__cxx1112basic_stringIcSt11char_traitsIcESaIcEEEPSt10unique_ptrIS1_St14default_deleteIS1_EEPS8_EEC2EOSI_ = comdat any

$_ZN7rocksdb13ObjectLibrary12FactoryEntryINS_15MemoryAllocatorEED2Ev = comdat any

$_ZN7rocksdb13ObjectLibrary12FactoryEntryINS_15MemoryAllocatorEED0Ev = comdat any

$_ZNK7rocksdb13ObjectLibrary12FactoryEntryINS_15MemoryAllocatorEE7MatchesERKNSt7__cxx1112basic_stringIcSt11char_traitsIcESaIcEEE = comdat any

$_ZNK7rocksdb13ObjectLibrary12FactoryEntryINS_15MemoryAllocatorEE4NameEv = comdat any

$_ZNKSt10unique_ptrIN7rocksdb13ObjectLibrary5EntryESt14default_deleteIS2_EEptEv = comdat any

$_ZNKSt10unique_ptrIN7rocksdb13ObjectLibrary5EntryESt14default_deleteIS2_EE3getEv = comdat any

$_ZNKSt15__uniq_ptr_implIN7rocksdb13ObjectLibrary5EntryESt14default_deleteIS2_EE6_M_ptrEv = comdat any

$_ZSt3getILm0EJPN7rocksdb13ObjectLibrary5EntryESt14default_deleteIS2_EEERKNSt13tuple_elementIXT_ESt5tupleIJDpT0_EEE4typeERKSA_ = comdat any

$_ZSt12__get_helperILm0EPN7rocksdb13ObjectLibrary5EntryEJSt14default_deleteIS2_EEERKT0_RKSt11_Tuple_implIXT_EJS6_DpT1_EE = comdat any

$_ZNSt11_Tuple_implILm0EJPN7rocksdb13ObjectLibrary5EntryESt14default_deleteIS2_EEE7_M_headERKS6_ = comdat any

$_ZNSt10_Head_baseILm0EPN7rocksdb13ObjectLibrary5EntryELb0EE7_M_headERKS4_ = comdat any

$_ZNSt15__uniq_ptr_dataIN7rocksdb13ObjectLibrary5EntryESt14default_deleteIS2_ELb1ELb1EECI2St15__uniq_ptr_implIS2_S4_EEPS2_ = comdat any

$_ZNSt15__uniq_ptr_implIN7rocksdb13ObjectLibrary5EntryESt14default_deleteIS2_EEC2EPS2_ = comdat any

$_ZNSt5tupleIJPN7rocksdb13ObjectLibrary5EntryESt14default_deleteIS2_EEEC2ILb1ETnNSt9enable_ifIXclsr17_TupleConstraintsIXT_ES3_S5_EE37__is_implicitly_default_constructibleEEbE4typeELb1EEEv = comdat any

$_ZNSt15__uniq_ptr_implIN7rocksdb13ObjectLibrary5EntryESt14default_deleteIS2_EE6_M_ptrEv = comdat any

$_ZNSt11_Tuple_implILm0EJPN7rocksdb13ObjectLibrary5EntryESt14default_deleteIS2_EEEC2Ev = comdat any

$_ZNSt11_Tuple_implILm1EJSt14default_deleteIN7rocksdb13ObjectLibrary5EntryEEEEC2Ev = comdat any

$_ZNSt10_Head_baseILm0EPN7rocksdb13ObjectLibrary5EntryELb0EEC2Ev = comdat any

$_ZNSt10_Head_baseILm1ESt14default_deleteIN7rocksdb13ObjectLibrary5EntryEELb1EEC2Ev = comdat any

$_ZSt3getILm0EJPN7rocksdb13ObjectLibrary5EntryESt14default_deleteIS2_EEERNSt13tuple_elementIXT_ESt5tupleIJDpT0_EEE4typeERSA_ = comdat any

$_ZSt12__get_helperILm0EPN7rocksdb13ObjectLibrary5EntryEJSt14default_deleteIS2_EEERT0_RSt11_Tuple_implIXT_EJS6_DpT1_EE = comdat any

$_ZNSt11_Tuple_implILm0EJPN7rocksdb13ObjectLibrary5EntryESt14default_deleteIS2_EEE7_M_headERS6_ = comdat any

$_ZNSt10_Head_baseILm0EPN7rocksdb13ObjectLibrary5EntryELb0EE7_M_headERS4_ = comdat any

$_ZNSt11unique_lockISt5mutexEC2ERS0_ = comdat any

$_ZNSt13unordered_mapINSt7__cxx1112basic_stringIcSt11char_traitsIcESaIcEEESt6vectorISt10unique_ptrIN7rocksdb13ObjectLibrary5EntryESt14default_deleteISA_EESaISD_EESt4hashIS5_ESt8equal_toIS5_ESaISt4pairIKS5_SF_EEEixEOS5_ = comdat any

$_ZNSt6vectorISt10unique_ptrIN7rocksdb13ObjectLibrary5EntryESt14default_deleteIS3_EESaIS6_EE12emplace_backIJS6_EEERS6_DpOT_ = comdat any

$_ZNSt11unique_lockISt5mutexED2Ev = comdat any

$_ZNSt11unique_lockISt5mutexE4lockEv = comdat any

$_ZNSt5mutex4lockEv = comdat any

$_ZNSt8__detail9_Map_baseINSt7__cxx1112basic_stringIcSt11char_traitsIcESaIcEEESt4pairIKS6_St6vectorISt10unique_ptrIN7rocksdb13ObjectLibrary5EntryESt14default_deleteISD_EESaISG_EEESaISJ_ENS_10_Select1stESt8equal_toIS6_ESt4hashIS6_ENS_18_Mod_range_hashingENS_20_Default_ranged_hashENS_20_Prime_rehash_policyENS_17_Hashtable_traitsILb1ELb0ELb1EEELb1EEixEOS6_ = comdat any

$_ZNKSt8__detail15_Hash_code_baseINSt7__cxx1112basic_stringIcSt11char_traitsIcESaIcEEESt4pairIKS6_St6vectorISt10unique_ptrIN7rocksdb13ObjectLibrary5EntryESt14default_deleteISD_EESaISG_EEENS_10_Select1stESt4hashIS6_ENS_18_Mod_range_hashingENS_20_Default_ranged_hashELb1EE12_M_hash_codeERS8_ = comdat any

$_ZNKSt10_HashtableINSt7__cxx1112basic_stringIcSt11char_traitsIcESaIcEEESt4pairIKS5_St6vectorISt10unique_ptrIN7rocksdb13ObjectLibrary5EntryESt14default_deleteISC_EESaISF_EEESaISI_ENSt8__detail10_Select1stESt8equal_toIS5_ESt4hashIS5_ENSK_18_Mod_range_hashingENSK_20_Default_ranged_hashENSK_20_Prime_rehash_policyENSK_17_Hashtable_traitsILb1ELb0ELb1EEEE15_M_bucket_indexEm = comdat any

$_ZNKSt10_HashtableINSt7__cxx1112basic_stringIcSt11char_traitsIcESaIcEEESt4pairIKS5_St6vectorISt10unique_ptrIN7rocksdb13ObjectLibrary5EntryESt14default_deleteISC_EESaISF_EEESaISI_ENSt8__detail10_Select1stESt8equal_toIS5_ESt4hashIS5_ENSK_18_Mod_range_hashingENSK_20_Default_ranged_hashENSK_20_Prime_rehash_policyENSK_17_Hashtable_traitsILb1ELb0ELb1EEEE12_M_find_nodeEmRS7_m = comdat any

$_ZNSt8__detail21_Hash_node_value_baseISt4pairIKNSt7__cxx1112basic_stringIcSt11char_traitsIcESaIcEEESt6vectorISt10unique_ptrIN7rocksdb13ObjectLibrary5EntryESt14default_deleteISD_EESaISG_EEEE4_M_vEv = comdat any

$_ZSt16forward_as_tupleIJNSt7__cxx1112basic_stringIcSt11char_traitsIcESaIcEEEEESt5tupleIJDpOT_EES9_ = comdat any

$_ZNSt10_HashtableINSt7__cxx1112basic_stringIcSt11char_traitsIcESaIcEEESt4pairIKS5_St6vectorISt10unique_ptrIN7rocksdb13ObjectLibrary5EntryESt14default_deleteISC_EESaISF_EEESaISI_ENSt8__detail10_Select1stESt8equal_toIS5_ESt4hashIS5_ENSK_18_Mod_range_hashingENSK_20_Default_ranged_hashENSK_20_Prime_rehash_policyENSK_17_Hashtable_traitsILb1ELb0ELb1EEEE12_Scoped_nodeC2IJRKSt21piecewise_construct_tSt5tupleIJOS5_EES11_IJEEEEEPNSK_16_Hashtable_allocISaINSK_10_Hash_nodeISI_Lb1EEEEEEDpOT_ = comdat any

$_ZNSt10_HashtableINSt7__cxx1112basic_stringIcSt11char_traitsIcESaIcEEESt4pairIKS5_St6vectorISt10unique_ptrIN7rocksdb13ObjectLibrary5EntryESt14default_deleteISC_EESaISF_EEESaISI_ENSt8__detail10_Select1stESt8equal_toIS5_ESt4hashIS5_ENSK_18_Mod_range_hashingENSK_20_Default_ranged_hashENSK_20_Prime_rehash_policyENSK_17_Hashtable_traitsILb1ELb0ELb1EEEE21_M_insert_unique_nodeEmmPNSK_10_Hash_nodeISI_Lb1EEEm = comdat any

$_ZNKSt8__detail14_Node_iteratorISt4pairIKNSt7__cxx1112basic_stringIcSt11char_traitsIcESaIcEEESt6vectorISt10unique_ptrIN7rocksdb13ObjectLibrary5EntryESt14default_deleteISD_EESaISG_EEELb0ELb1EEptEv = comdat any

$_ZNSt10_HashtableINSt7__cxx1112basic_stringIcSt11char_traitsIcESaIcEEESt4pairIKS5_St6vectorISt10unique_ptrIN7rocksdb13ObjectLibrary5EntryESt14default_deleteISC_EESaISF_EEESaISI_ENSt8__detail10_Select1stESt8equal_toIS5_ESt4hashIS5_ENSK_18_Mod_range_hashingENSK_20_Default_ranged_hashENSK_20_Prime_rehash_policyENSK_17_Hashtable_traitsILb1ELb0ELb1EEEE12_Scoped_nodeD2Ev = comdat any

$_ZNKSt8__detail15_Hash_code_baseINSt7__cxx1112basic_stringIcSt11char_traitsIcESaIcEEESt4pairIKS6_St6vectorISt10unique_ptrIN7rocksdb13ObjectLibrary5EntryESt14default_deleteISD_EESaISG_EEENS_10_Select1stESt4hashIS6_ENS_18_Mod_range_hashingENS_20_Default_ranged_hashELb1EE7_M_hashEv = comdat any

$_ZNKSt8__detail15_Hash_code_baseINSt7__cxx1112basic_stringIcSt11char_traitsIcESaIcEEESt4pairIKS6_St6vectorISt10unique_ptrIN7rocksdb13ObjectLibrary5EntryESt14default_deleteISD_EESaISG_EEENS_10_Select1stESt4hashIS6_ENS_18_Mod_range_hashingENS_20_Default_ranged_hashELb1EE15_M_bucket_indexEmm = comdat any

$_ZNKSt10_HashtableINSt7__cxx1112basic_stringIcSt11char_traitsIcESaIcEEESt4pairIKS5_St6vectorISt10unique_ptrIN7rocksdb13ObjectLibrary5EntryESt14default_deleteISC_EESaISF_EEESaISI_ENSt8__detail10_Select1stESt8equal_toIS5_ESt4hashIS5_ENSK_18_Mod_range_hashingENSK_20_Default_ranged_hashENSK_20_Prime_rehash_policyENSK_17_Hashtable_traitsILb1ELb0ELb1EEEE19_M_find_before_nodeEmRS7_m = comdat any

$_ZNKSt8__detail15_Hashtable_baseINSt7__cxx1112basic_stringIcSt11char_traitsIcESaIcEEESt4pairIKS6_St6vectorISt10unique_ptrIN7rocksdb13ObjectLibrary5EntryESt14default_deleteISD_EESaISG_EEENS_10_Select1stESt8equal_toIS6_ESt4hashIS6_ENS_18_Mod_range_hashingENS_20_Default_ranged_hashENS_17_Hashtable_traitsILb1ELb0ELb1EEEE9_M_equalsERS8_mRKNS_16_Hash_node_valueISJ_Lb1EEE = comdat any

$_ZNKSt10_HashtableINSt7__cxx1112basic_stringIcSt11char_traitsIcESaIcEEESt4pairIKS5_St6vectorISt10unique_ptrIN7rocksdb13ObjectLibrary5EntryESt14default_deleteISC_EESaISF_EEESaISI_ENSt8__detail10_Select1stESt8equal_toIS5_ESt4hashIS5_ENSK_18_Mod_range_hashingENSK_20_Default_ranged_hashENSK_20_Prime_rehash_policyENSK_17_Hashtable_traitsILb1ELb0ELb1EEEE15_M_bucket_indexERKNSK_16_Hash_node_valueISI_Lb1EEE = comdat any

$_ZNKSt8__detail10_Hash_nodeISt4pairIKNSt7__cxx1112basic_stringIcSt11char_traitsIcESaIcEEESt6vectorISt10unique_ptrIN7rocksdb13ObjectLibrary5EntryESt14default_deleteISD_EESaISG_EEELb1EE7_M_nextEv = comdat any

$_ZNSt8__detail15_Hashtable_baseINSt7__cxx1112basic_stringIcSt11char_traitsIcESaIcEEESt4pairIKS6_St6vectorISt10unique_ptrIN7rocksdb13ObjectLibrary5EntryESt14default_deleteISD_EESaISG_EEENS_10_Select1stESt8equal_toIS6_ESt4hashIS6_ENS_18_Mod_range_hashingENS_20_Default_ranged_hashENS_17_Hashtable_traitsILb1ELb0ELb1EEEE9_S_equalsEmRKNS_21_Hash_node_code_cacheILb1EEE = comdat any

$_ZNKSt8__detail15_Hashtable_baseINSt7__cxx1112basic_stringIcSt11char_traitsIcESaIcEEESt4pairIKS6_St6vectorISt10unique_ptrIN7rocksdb13ObjectLibrary5EntryESt14default_deleteISD_EESaISG_EEENS_10_Select1stESt8equal_toIS6_ESt4hashIS6_ENS_18_Mod_range_hashingENS_20_Default_ranged_hashENS_17_Hashtable_traitsILb1ELb0ELb1EEEE13_M_key_equalsERS8_RKNS_16_Hash_node_valueISJ_Lb1EEE = comdat any

$_ZNKSt8__detail15_Hashtable_baseINSt7__cxx1112basic_stringIcSt11char_traitsIcESaIcEEESt4pairIKS6_St6vectorISt10unique_ptrIN7rocksdb13ObjectLibrary5EntryESt14default_deleteISD_EESaISG_EEENS_10_Select1stESt8equal_toIS6_ESt4hashIS6_ENS_18_Mod_range_hashingENS_20_Default_ranged_hashENS_17_Hashtable_traitsILb1ELb0ELb1EEEE5_M_eqEv = comdat any

$_ZNKSt8__detail10_Select1stclIRKSt4pairIKNSt7__cxx1112basic_stringIcSt11char_traitsIcESaIcEEESt6vectorISt10unique_ptrIN7rocksdb13ObjectLibrary5EntryESt14default_deleteISE_EESaISH_EEEEEONS0_10__1st_typeIT_E4typeEOSO_ = comdat any

$_ZNKSt8__detail21_Hash_node_value_baseISt4pairIKNSt7__cxx1112basic_stringIcSt11char_traitsIcESaIcEEESt6vectorISt10unique_ptrIN7rocksdb13ObjectLibrary5EntryESt14default_deleteISD_EESaISG_EEEE4_M_vEv = comdat any

$_ZNKSt8__detail21_Hash_node_value_baseISt4pairIKNSt7__cxx1112basic_stringIcSt11char_traitsIcESaIcEEESt6vectorISt10unique_ptrIN7rocksdb13ObjectLibrary5EntryESt14default_deleteISD_EESaISG_EEEE9_M_valptrEv = comdat any

$_ZNK9__gnu_cxx16__aligned_bufferISt4pairIKNSt7__cxx1112basic_stringIcSt11char_traitsIcESaIcEEESt6vectorISt10unique_ptrIN7rocksdb13ObjectLibrary5EntryESt14default_deleteISD_EESaISG_EEEE6_M_ptrEv = comdat any

$_ZNK9__gnu_cxx16__aligned_bufferISt4pairIKNSt7__cxx1112basic_stringIcSt11char_traitsIcESaIcEEESt6vectorISt10unique_ptrIN7rocksdb13ObjectLibrary5EntryESt14default_deleteISD_EESaISG_EEEE7_M_addrEv = comdat any

$_ZNKSt8__detail15_Hash_code_baseINSt7__cxx1112basic_stringIcSt11char_traitsIcESaIcEEESt4pairIKS6_St6vectorISt10unique_ptrIN7rocksdb13ObjectLibrary5EntryESt14default_deleteISD_EESaISG_EEENS_10_Select1stESt4hashIS6_ENS_18_Mod_range_hashingENS_20_Default_ranged_hashELb1EE15_M_bucket_indexERKNS_16_Hash_node_valueISJ_Lb1EEEm = comdat any

$_ZNSt8__detail21_Hash_node_value_baseISt4pairIKNSt7__cxx1112basic_stringIcSt11char_traitsIcESaIcEEESt6vectorISt10unique_ptrIN7rocksdb13ObjectLibrary5EntryESt14default_deleteISD_EESaISG_EEEE9_M_valptrEv = comdat any

$_ZN9__gnu_cxx16__aligned_bufferISt4pairIKNSt7__cxx1112basic_stringIcSt11char_traitsIcESaIcEEESt6vectorISt10unique_ptrIN7rocksdb13ObjectLibrary5EntryESt14default_deleteISD_EESaISG_EEEE6_M_ptrEv = comdat any

$_ZN9__gnu_cxx16__aligned_bufferISt4pairIKNSt7__cxx1112basic_stringIcSt11char_traitsIcESaIcEEESt6vectorISt10unique_ptrIN7rocksdb13ObjectLibrary5EntryESt14default_deleteISD_EESaISG_EEEE7_M_addrEv = comdat any

$_ZNSt5tupleIJONSt7__cxx1112basic_stringIcSt11char_traitsIcESaIcEEEEEC2IJS5_ELb1ETnNSt9enable_ifIXclsr4_TCCIXT0_EEE29__is_implicitly_constructibleIDpT_EEEbE4typeELb1EEEDpOSA_ = comdat any

$_ZNSt11_Tuple_implILm0EJONSt7__cxx1112basic_stringIcSt11char_traitsIcESaIcEEEEEC2IS5_EEOT_ = comdat any

$_ZNSt10_Head_baseILm0EONSt7__cxx1112basic_stringIcSt11char_traitsIcESaIcEEELb0EEC2IS5_EEOT_ = comdat any

$_ZNSt8__detail16_Hashtable_allocISaINS_10_Hash_nodeISt4pairIKNSt7__cxx1112basic_stringIcSt11char_traitsIcESaIcEEESt6vectorISt10unique_ptrIN7rocksdb13ObjectLibrary5EntryESt14default_deleteISE_EESaISH_EEELb1EEEEE16_M_allocate_nodeIJRKSt21piecewise_construct_tSt5tupleIJOS8_EESS_IJEEEEEPSL_DpOT_ = comdat any

$_ZNSt16allocator_traitsISaINSt8__detail10_Hash_nodeISt4pairIKNSt7__cxx1112basic_stringIcSt11char_traitsIcESaIcEEESt6vectorISt10unique_ptrIN7rocksdb13ObjectLibrary5EntryESt14default_deleteISE_EESaISH_EEELb1EEEEE8allocateERSM_m = comdat any

$_ZNSt8__detail16_Hashtable_allocISaINS_10_Hash_nodeISt4pairIKNSt7__cxx1112basic_stringIcSt11char_traitsIcESaIcEEESt6vectorISt10unique_ptrIN7rocksdb13ObjectLibrary5EntryESt14default_deleteISE_EESaISH_EEELb1EEEEE17_M_node_allocatorEv = comdat any

$_ZSt12__to_addressINSt8__detail10_Hash_nodeISt4pairIKNSt7__cxx1112basic_stringIcSt11char_traitsIcESaIcEEESt6vectorISt10unique_ptrIN7rocksdb13ObjectLibrary5EntryESt14default_deleteISE_EESaISH_EEELb1EEEEPT_SN_ = comdat any

$_ZNSt8__detail10_Hash_nodeISt4pairIKNSt7__cxx1112basic_stringIcSt11char_traitsIcESaIcEEESt6vectorISt10unique_ptrIN7rocksdb13ObjectLibrary5EntryESt14default_deleteISD_EESaISG_EEELb1EEC2Ev = comdat any

$_ZNSt16allocator_traitsISaINSt8__detail10_Hash_nodeISt4pairIKNSt7__cxx1112basic_stringIcSt11char_traitsIcESaIcEEESt6vectorISt10unique_ptrIN7rocksdb13ObjectLibrary5EntryESt14default_deleteISE_EESaISH_EEELb1EEEEE9constructISK_JRKSt21piecewise_construct_tSt5tupleIJOS8_EESS_IJEEEEEvRSM_PT_DpOT0_ = comdat any

$_ZNSt16allocator_traitsISaINSt8__detail10_Hash_nodeISt4pairIKNSt7__cxx1112basic_stringIcSt11char_traitsIcESaIcEEESt6vectorISt10unique_ptrIN7rocksdb13ObjectLibrary5EntryESt14default_deleteISE_EESaISH_EEELb1EEEEE10deallocateERSM_PSL_m = comdat any

$_ZNSt15__new_allocatorINSt8__detail10_Hash_nodeISt4pairIKNSt7__cxx1112basic_stringIcSt11char_traitsIcESaIcEEESt6vectorISt10unique_ptrIN7rocksdb13ObjectLibrary5EntryESt14default_deleteISE_EESaISH_EEELb1EEEE8allocateEmPKv = comdat any

$_ZNKSt15__new_allocatorINSt8__detail10_Hash_nodeISt4pairIKNSt7__cxx1112basic_stringIcSt11char_traitsIcESaIcEEESt6vectorISt10unique_ptrIN7rocksdb13ObjectLibrary5EntryESt14default_deleteISE_EESaISH_EEELb1EEEE11_M_max_sizeEv = comdat any

$_ZNSt8__detail21_Hashtable_ebo_helperILi0ESaINS_10_Hash_nodeISt4pairIKNSt7__cxx1112basic_stringIcSt11char_traitsIcESaIcEEESt6vectorISt10unique_ptrIN7rocksdb13ObjectLibrary5EntryESt14default_deleteISE_EESaISH_EEELb1EEEELb1EE6_M_getEv = comdat any

$_ZNSt15__new_allocatorINSt8__detail10_Hash_nodeISt4pairIKNSt7__cxx1112basic_stringIcSt11char_traitsIcESaIcEEESt6vectorISt10unique_ptrIN7rocksdb13ObjectLibrary5EntryESt14default_deleteISE_EESaISH_EEELb1EEEE9constructISK_JRKSt21piecewise_construct_tSt5tupleIJOS8_EESR_IJEEEEEvPT_DpOT0_ = comdat any

$_ZNSt5tupleIJONSt7__cxx1112basic_stringIcSt11char_traitsIcESaIcEEEEEC2EOS7_ = comdat any

$_ZNSt4pairIKNSt7__cxx1112basic_stringIcSt11char_traitsIcESaIcEEESt6vectorISt10unique_ptrIN7rocksdb13ObjectLibrary5EntryESt14default_deleteISB_EESaISE_EEEC2IJOS5_EJEEESt21piecewise_construct_tSt5tupleIJDpT_EESL_IJDpT0_EE = comdat any

$_ZNSt11_Tuple_implILm0EJONSt7__cxx1112basic_stringIcSt11char_traitsIcESaIcEEEEEC2EOS7_ = comdat any

$_ZNSt4pairIKNSt7__cxx1112basic_stringIcSt11char_traitsIcESaIcEEESt6vectorISt10unique_ptrIN7rocksdb13ObjectLibrary5EntryESt14default_deleteISB_EESaISE_EEEC2IJOS5_EJLm0EEJETpTnmJEEERSt5tupleIJDpT_EERSK_IJDpT1_EESt12_Index_tupleIJXspT0_EEEST_IJXspT2_EEE = comdat any

$_ZSt3getILm0EJONSt7__cxx1112basic_stringIcSt11char_traitsIcESaIcEEEEERNSt13tuple_elementIXT_ESt5tupleIJDpT0_EEE4typeERSB_ = comdat any

$_ZNSt6vectorISt10unique_ptrIN7rocksdb13ObjectLibrary5EntryESt14default_deleteIS3_EESaIS6_EEC2Ev = comdat any

$_ZSt12__get_helperILm0EONSt7__cxx1112basic_stringIcSt11char_traitsIcESaIcEEEJEERT0_RSt11_Tuple_implIXT_EJS7_DpT1_EE = comdat any

$_ZNSt11_Tuple_implILm0EJONSt7__cxx1112basic_stringIcSt11char_traitsIcESaIcEEEEE7_M_headERS7_ = comdat any

$_ZNSt10_Head_baseILm0EONSt7__cxx1112basic_stringIcSt11char_traitsIcESaIcEEELb0EE7_M_headERS7_ = comdat any

$_ZNSt12_Vector_baseISt10unique_ptrIN7rocksdb13ObjectLibrary5EntryESt14default_deleteIS3_EESaIS6_EEC2Ev = comdat any

$_ZNSt12_Vector_baseISt10unique_ptrIN7rocksdb13ObjectLibrary5EntryESt14default_deleteIS3_EESaIS6_EE12_Vector_implC2Ev = comdat any

$_ZNSaISt10unique_ptrIN7rocksdb13ObjectLibrary5EntryESt14default_deleteIS2_EEEC2Ev = comdat any

$_ZNSt12_Vector_baseISt10unique_ptrIN7rocksdb13ObjectLibrary5EntryESt14default_deleteIS3_EESaIS6_EE17_Vector_impl_dataC2Ev = comdat any

$_ZNSt15__new_allocatorISt10unique_ptrIN7rocksdb13ObjectLibrary5EntryESt14default_deleteIS3_EEEC2Ev = comdat any

$_ZNSt15__new_allocatorINSt8__detail10_Hash_nodeISt4pairIKNSt7__cxx1112basic_stringIcSt11char_traitsIcESaIcEEESt6vectorISt10unique_ptrIN7rocksdb13ObjectLibrary5EntryESt14default_deleteISE_EESaISH_EEELb1EEEE10deallocateEPSL_m = comdat any

$_ZNSt10_HashtableINSt7__cxx1112basic_stringIcSt11char_traitsIcESaIcEEESt4pairIKS5_St6vectorISt10unique_ptrIN7rocksdb13ObjectLibrary5EntryESt14default_deleteISC_EESaISF_EEESaISI_ENSt8__detail10_Select1stESt8equal_toIS5_ESt4hashIS5_ENSK_18_Mod_range_hashingENSK_20_Default_ranged_hashENSK_20_Prime_rehash_policyENSK_17_Hashtable_traitsILb1ELb0ELb1EEEE9_M_rehashEmRKm = comdat any

$_ZNKSt8__detail15_Hash_code_baseINSt7__cxx1112basic_stringIcSt11char_traitsIcESaIcEEESt4pairIKS6_St6vectorISt10unique_ptrIN7rocksdb13ObjectLibrary5EntryESt14default_deleteISD_EESaISG_EEENS_10_Select1stESt4hashIS6_ENS_18_Mod_range_hashingENS_20_Default_ranged_hashELb1EE13_M_store_codeERNS_21_Hash_node_code_cacheILb1EEEm = comdat any

$_ZNSt10_HashtableINSt7__cxx1112basic_stringIcSt11char_traitsIcESaIcEEESt4pairIKS5_St6vectorISt10unique_ptrIN7rocksdb13ObjectLibrary5EntryESt14default_deleteISC_EESaISF_EEESaISI_ENSt8__detail10_Select1stESt8equal_toIS5_ESt4hashIS5_ENSK_18_Mod_range_hashingENSK_20_Default_ranged_hashENSK_20_Prime_rehash_policyENSK_17_Hashtable_traitsILb1ELb0ELb1EEEE22_M_insert_bucket_beginEmPNSK_10_Hash_nodeISI_Lb1EEE = comdat any

$_ZNSt8__detail14_Node_iteratorISt4pairIKNSt7__cxx1112basic_stringIcSt11char_traitsIcESaIcEEESt6vectorISt10unique_ptrIN7rocksdb13ObjectLibrary5EntryESt14default_deleteISD_EESaISG_EEELb0ELb1EEC2EPNS_10_Hash_nodeISJ_Lb1EEE = comdat any

$_ZNSt10_HashtableINSt7__cxx1112basic_stringIcSt11char_traitsIcESaIcEEESt4pairIKS5_St6vectorISt10unique_ptrIN7rocksdb13ObjectLibrary5EntryESt14default_deleteISC_EESaISF_EEESaISI_ENSt8__detail10_Select1stESt8equal_toIS5_ESt4hashIS5_ENSK_18_Mod_range_hashingENSK_20_Default_ranged_hashENSK_20_Prime_rehash_policyENSK_17_Hashtable_traitsILb1ELb0ELb1EEEE13_M_rehash_auxEmSt17integral_constantIbLb1EE = comdat any

$_ZNSt10_HashtableINSt7__cxx1112basic_stringIcSt11char_traitsIcESaIcEEESt4pairIKS5_St6vectorISt10unique_ptrIN7rocksdb13ObjectLibrary5EntryESt14default_deleteISC_EESaISF_EEESaISI_ENSt8__detail10_Select1stESt8equal_toIS5_ESt4hashIS5_ENSK_18_Mod_range_hashingENSK_20_Default_ranged_hashENSK_20_Prime_rehash_policyENSK_17_Hashtable_traitsILb1ELb0ELb1EEEE19_M_allocate_bucketsEm = comdat any

$_ZNKSt10_HashtableINSt7__cxx1112basic_stringIcSt11char_traitsIcESaIcEEESt4pairIKS5_St6vectorISt10unique_ptrIN7rocksdb13ObjectLibrary5EntryESt14default_deleteISC_EESaISF_EEESaISI_ENSt8__detail10_Select1stESt8equal_toIS5_ESt4hashIS5_ENSK_18_Mod_range_hashingENSK_20_Default_ranged_hashENSK_20_Prime_rehash_policyENSK_17_Hashtable_traitsILb1ELb0ELb1EEEE8_M_beginEv = comdat any

$_ZNSt10_HashtableINSt7__cxx1112basic_stringIcSt11char_traitsIcESaIcEEESt4pairIKS5_St6vectorISt10unique_ptrIN7rocksdb13ObjectLibrary5EntryESt14default_deleteISC_EESaISF_EEESaISI_ENSt8__detail10_Select1stESt8equal_toIS5_ESt4hashIS5_ENSK_18_Mod_range_hashingENSK_20_Default_ranged_hashENSK_20_Prime_rehash_policyENSK_17_Hashtable_traitsILb1ELb0ELb1EEEE21_M_deallocate_bucketsEv = comdat any

$_ZNSt8__detail16_Hashtable_allocISaINS_10_Hash_nodeISt4pairIKNSt7__cxx1112basic_stringIcSt11char_traitsIcESaIcEEESt6vectorISt10unique_ptrIN7rocksdb13ObjectLibrary5EntryESt14default_deleteISE_EESaISH_EEELb1EEEEE19_M_allocate_bucketsEm = comdat any

$_ZNSaIPNSt8__detail15_Hash_node_baseEEC2INS_10_Hash_nodeISt4pairIKNSt7__cxx1112basic_stringIcSt11char_traitsIcESaIcEEESt6vectorISt10unique_ptrIN7rocksdb13ObjectLibrary5EntryESt14default_deleteISH_EESaISK_EEELb1EEEEERKSaIT_E = comdat any

$_ZNSt10_HashtableINSt7__cxx1112basic_stringIcSt11char_traitsIcESaIcEEESt4pairIKS5_St6vectorISt10unique_ptrIN7rocksdb13ObjectLibrary5EntryESt14default_deleteISC_EESaISF_EEESaISI_ENSt8__detail10_Select1stESt8equal_toIS5_ESt4hashIS5_ENSK_18_Mod_range_hashingENSK_20_Default_ranged_hashENSK_20_Prime_rehash_policyENSK_17_Hashtable_traitsILb1ELb0ELb1EEEE21_M_deallocate_bucketsEPPNSK_15_Hash_node_baseEm = comdat any

$_ZNKSt10_HashtableINSt7__cxx1112basic_stringIcSt11char_traitsIcESaIcEEESt4pairIKS5_St6vectorISt10unique_ptrIN7rocksdb13ObjectLibrary5EntryESt14default_deleteISC_EESaISF_EEESaISI_ENSt8__detail10_Select1stESt8equal_toIS5_ESt4hashIS5_ENSK_18_Mod_range_hashingENSK_20_Default_ranged_hashENSK_20_Prime_rehash_policyENSK_17_Hashtable_traitsILb1ELb0ELb1EEEE21_M_uses_single_bucketEPPNSK_15_Hash_node_baseE = comdat any

$_ZNSt8__detail16_Hashtable_allocISaINS_10_Hash_nodeISt4pairIKNSt7__cxx1112basic_stringIcSt11char_traitsIcESaIcEEESt6vectorISt10unique_ptrIN7rocksdb13ObjectLibrary5EntryESt14default_deleteISE_EESaISH_EEELb1EEEEE21_M_deallocate_bucketsEPPNS_15_Hash_node_baseEm = comdat any

$_ZNSt8__detail19_Node_iterator_baseISt4pairIKNSt7__cxx1112basic_stringIcSt11char_traitsIcESaIcEEESt6vectorISt10unique_ptrIN7rocksdb13ObjectLibrary5EntryESt14default_deleteISD_EESaISG_EEELb1EEC2EPNS_10_Hash_nodeISJ_Lb1EEE = comdat any

$_ZNSt8__detail16_Hashtable_allocISaINS_10_Hash_nodeISt4pairIKNSt7__cxx1112basic_stringIcSt11char_traitsIcESaIcEEESt6vectorISt10unique_ptrIN7rocksdb13ObjectLibrary5EntryESt14default_deleteISE_EESaISH_EEELb1EEEEE18_M_deallocate_nodeEPSL_ = comdat any

$_ZNSt16allocator_traitsISaINSt8__detail10_Hash_nodeISt4pairIKNSt7__cxx1112basic_stringIcSt11char_traitsIcESaIcEEESt6vectorISt10unique_ptrIN7rocksdb13ObjectLibrary5EntryESt14default_deleteISE_EESaISH_EEELb1EEEEE7destroyISK_EEvRSM_PT_ = comdat any

$_ZNSt8__detail16_Hashtable_allocISaINS_10_Hash_nodeISt4pairIKNSt7__cxx1112basic_stringIcSt11char_traitsIcESaIcEEESt6vectorISt10unique_ptrIN7rocksdb13ObjectLibrary5EntryESt14default_deleteISE_EESaISH_EEELb1EEEEE22_M_deallocate_node_ptrEPSL_ = comdat any

$_ZNSt15__new_allocatorINSt8__detail10_Hash_nodeISt4pairIKNSt7__cxx1112basic_stringIcSt11char_traitsIcESaIcEEESt6vectorISt10unique_ptrIN7rocksdb13ObjectLibrary5EntryESt14default_deleteISE_EESaISH_EEELb1EEEE7destroyISK_EEvPT_ = comdat any

$_ZNSt4pairIKNSt7__cxx1112basic_stringIcSt11char_traitsIcESaIcEEESt6vectorISt10unique_ptrIN7rocksdb13ObjectLibrary5EntryESt14default_deleteISB_EESaISE_EEED2Ev = comdat any

$_ZNSt6vectorISt10unique_ptrIN7rocksdb13ObjectLibrary5EntryESt14default_deleteIS3_EESaIS6_EED2Ev = comdat any

$_ZSt8_DestroyIPSt10unique_ptrIN7rocksdb13ObjectLibrary5EntryESt14default_deleteIS3_EES6_EvT_S8_RSaIT0_E = comdat any

$_ZNSt12_Vector_baseISt10unique_ptrIN7rocksdb13ObjectLibrary5EntryESt14default_deleteIS3_EESaIS6_EE19_M_get_Tp_allocatorEv = comdat any

$_ZNSt12_Vector_baseISt10unique_ptrIN7rocksdb13ObjectLibrary5EntryESt14default_deleteIS3_EESaIS6_EED2Ev = comdat any

$_ZSt8_DestroyIPSt10unique_ptrIN7rocksdb13ObjectLibrary5EntryESt14default_deleteIS3_EEEvT_S8_ = comdat any

$_ZNSt12_Destroy_auxILb0EE9__destroyIPSt10unique_ptrIN7rocksdb13ObjectLibrary5EntryESt14default_deleteIS5_EEEEvT_SA_ = comdat any

$_ZSt8_DestroyISt10unique_ptrIN7rocksdb13ObjectLibrary5EntryESt14default_deleteIS3_EEEvPT_ = comdat any

$_ZNSt12_Vector_baseISt10unique_ptrIN7rocksdb13ObjectLibrary5EntryESt14default_deleteIS3_EESaIS6_EE13_M_deallocateEPS6_m = comdat any

$_ZNSt12_Vector_baseISt10unique_ptrIN7rocksdb13ObjectLibrary5EntryESt14default_deleteIS3_EESaIS6_EE12_Vector_implD2Ev = comdat any

$_ZNSt16allocator_traitsISaISt10unique_ptrIN7rocksdb13ObjectLibrary5EntryESt14default_deleteIS3_EEEE10deallocateERS7_PS6_m = comdat any

$_ZNSt15__new_allocatorISt10unique_ptrIN7rocksdb13ObjectLibrary5EntryESt14default_deleteIS3_EEE10deallocateEPS6_m = comdat any

$_ZNSaISt10unique_ptrIN7rocksdb13ObjectLibrary5EntryESt14default_deleteIS2_EEED2Ev = comdat any

$_ZNSt15__new_allocatorISt10unique_ptrIN7rocksdb13ObjectLibrary5EntryESt14default_deleteIS3_EEED2Ev = comdat any

$_ZNSt19__ptr_traits_ptr_toIPNSt8__detail10_Hash_nodeISt4pairIKNSt7__cxx1112basic_stringIcSt11char_traitsIcESaIcEEESt6vectorISt10unique_ptrIN7rocksdb13ObjectLibrary5EntryESt14default_deleteISE_EESaISH_EEELb1EEESL_Lb0EE10pointer_toERSL_ = comdat any

$_ZNSt16allocator_traitsISaISt10unique_ptrIN7rocksdb13ObjectLibrary5EntryESt14default_deleteIS3_EEEE9constructIS6_JS6_EEEvRS7_PT_DpOT0_ = comdat any

$_ZNSt6vectorISt10unique_ptrIN7rocksdb13ObjectLibrary5EntryESt14default_deleteIS3_EESaIS6_EE17_M_realloc_insertIJS6_EEEvN9__gnu_cxx17__normal_iteratorIPS6_S8_EEDpOT_ = comdat any

$_ZNSt6vectorISt10unique_ptrIN7rocksdb13ObjectLibrary5EntryESt14default_deleteIS3_EESaIS6_EE3endEv = comdat any

$_ZNSt6vectorISt10unique_ptrIN7rocksdb13ObjectLibrary5EntryESt14default_deleteIS3_EESaIS6_EE4backEv = comdat any

$_ZNSt15__new_allocatorISt10unique_ptrIN7rocksdb13ObjectLibrary5EntryESt14default_deleteIS3_EEE9constructIS6_JS6_EEEvPT_DpOT0_ = comdat any

$_ZNSt10unique_ptrIN7rocksdb13ObjectLibrary5EntryESt14default_deleteIS2_EEC2EOS5_ = comdat any

$_ZNSt15__uniq_ptr_dataIN7rocksdb13ObjectLibrary5EntryESt14default_deleteIS2_ELb1ELb1EEC2EOS5_ = comdat any

$_ZNSt15__uniq_ptr_implIN7rocksdb13ObjectLibrary5EntryESt14default_deleteIS2_EEC2EOS5_ = comdat any

$_ZNSt5tupleIJPN7rocksdb13ObjectLibrary5EntryESt14default_deleteIS2_EEEC2EOS6_ = comdat any

$_ZNSt11_Tuple_implILm0EJPN7rocksdb13ObjectLibrary5EntryESt14default_deleteIS2_EEEC2EOS6_ = comdat any

$_ZNSt11_Tuple_implILm1EJSt14default_deleteIN7rocksdb13ObjectLibrary5EntryEEEEC2EOS5_ = comdat any

$_ZNKSt6vectorISt10unique_ptrIN7rocksdb13ObjectLibrary5EntryESt14default_deleteIS3_EESaIS6_EE12_M_check_lenEmPKc = comdat any

$_ZN9__gnu_cxxmiIPSt10unique_ptrIN7rocksdb13ObjectLibrary5EntryESt14default_deleteIS4_EESt6vectorIS7_SaIS7_EEEENS_17__normal_iteratorIT_T0_E15difference_typeERKSF_SI_ = comdat any

$_ZNSt6vectorISt10unique_ptrIN7rocksdb13ObjectLibrary5EntryESt14default_deleteIS3_EESaIS6_EE5beginEv = comdat any

$_ZNSt12_Vector_baseISt10unique_ptrIN7rocksdb13ObjectLibrary5EntryESt14default_deleteIS3_EESaIS6_EE11_M_allocateEm = comdat any

$_ZNSt6vectorISt10unique_ptrIN7rocksdb13ObjectLibrary5EntryESt14default_deleteIS3_EESaIS6_EE11_S_relocateEPS6_S9_S9_RS7_ = comdat any

$_ZNK9__gnu_cxx17__normal_iteratorIPSt10unique_ptrIN7rocksdb13ObjectLibrary5EntryESt14default_deleteIS4_EESt6vectorIS7_SaIS7_EEE4baseEv = comdat any

$_ZNKSt6vectorISt10unique_ptrIN7rocksdb13ObjectLibrary5EntryESt14default_deleteIS3_EESaIS6_EE8max_sizeEv = comdat any

$_ZNKSt6vectorISt10unique_ptrIN7rocksdb13ObjectLibrary5EntryESt14default_deleteIS3_EESaIS6_EE4sizeEv = comdat any

$_ZSt3maxImERKT_S2_S2_ = comdat any

$_ZNSt6vectorISt10unique_ptrIN7rocksdb13ObjectLibrary5EntryESt14default_deleteIS3_EESaIS6_EE11_S_max_sizeERKS7_ = comdat any

$_ZNKSt12_Vector_baseISt10unique_ptrIN7rocksdb13ObjectLibrary5EntryESt14default_deleteIS3_EESaIS6_EE19_M_get_Tp_allocatorEv = comdat any

$_ZNSt16allocator_traitsISaISt10unique_ptrIN7rocksdb13ObjectLibrary5EntryESt14default_deleteIS3_EEEE8max_sizeERKS7_ = comdat any

$_ZSt3minImERKT_S2_S2_ = comdat any

$_ZNKSt15__new_allocatorISt10unique_ptrIN7rocksdb13ObjectLibrary5EntryESt14default_deleteIS3_EEE8max_sizeEv = comdat any

$_ZNKSt15__new_allocatorISt10unique_ptrIN7rocksdb13ObjectLibrary5EntryESt14default_deleteIS3_EEE11_M_max_sizeEv = comdat any

$_ZN9__gnu_cxx17__normal_iteratorIPSt10unique_ptrIN7rocksdb13ObjectLibrary5EntryESt14default_deleteIS4_EESt6vectorIS7_SaIS7_EEEC2ERKS8_ = comdat any

$_ZNSt16allocator_traitsISaISt10unique_ptrIN7rocksdb13ObjectLibrary5EntryESt14default_deleteIS3_EEEE8allocateERS7_m = comdat any

$_ZNSt15__new_allocatorISt10unique_ptrIN7rocksdb13ObjectLibrary5EntryESt14default_deleteIS3_EEE8allocateEmPKv = comdat any

$_ZSt12__relocate_aIPSt10unique_ptrIN7rocksdb13ObjectLibrary5EntryESt14default_deleteIS3_EES7_SaIS6_EET0_T_SA_S9_RT1_ = comdat any

$_ZSt14__relocate_a_1IPSt10unique_ptrIN7rocksdb13ObjectLibrary5EntryESt14default_deleteIS3_EES7_SaIS6_EET0_T_SA_S9_RT1_ = comdat any

$_ZSt12__niter_baseIPSt10unique_ptrIN7rocksdb13ObjectLibrary5EntryESt14default_deleteIS3_EEET_S8_ = comdat any

$_ZSt19__relocate_object_aISt10unique_ptrIN7rocksdb13ObjectLibrary5EntryESt14default_deleteIS3_EES6_SaIS6_EEvPT_PT0_RT1_ = comdat any

$_ZNSt16allocator_traitsISaISt10unique_ptrIN7rocksdb13ObjectLibrary5EntryESt14default_deleteIS3_EEEE7destroyIS6_EEvRS7_PT_ = comdat any

$_ZNSt15__new_allocatorISt10unique_ptrIN7rocksdb13ObjectLibrary5EntryESt14default_deleteIS3_EEE7destroyIS6_EEvPT_ = comdat any

$_ZNK9__gnu_cxx17__normal_iteratorIPSt10unique_ptrIN7rocksdb13ObjectLibrary5EntryESt14default_deleteIS4_EESt6vectorIS7_SaIS7_EEEmiEl = comdat any

$_ZNK9__gnu_cxx17__normal_iteratorIPSt10unique_ptrIN7rocksdb13ObjectLibrary5EntryESt14default_deleteIS4_EESt6vectorIS7_SaIS7_EEEdeEv = comdat any

$_ZNSt11unique_lockISt5mutexE6unlockEv = comdat any

$_ZNSt5mutex6unlockEv = comdat any

$_ZNSt10unique_ptrIN7rocksdb13ObjectLibrary5EntryESt14default_deleteIS2_EE11get_deleterEv = comdat any

$_ZNKSt14default_deleteIN7rocksdb13ObjectLibrary5EntryEEclEPS2_ = comdat any

$_ZNSt15__uniq_ptr_implIN7rocksdb13ObjectLibrary5EntryESt14default_deleteIS2_EE10_M_deleterEv = comdat any

$_ZSt3getILm1EJPN7rocksdb13ObjectLibrary5EntryESt14default_deleteIS2_EEERNSt13tuple_elementIXT_ESt5tupleIJDpT0_EEE4typeERSA_ = comdat any

$_ZSt12__get_helperILm1ESt14default_deleteIN7rocksdb13ObjectLibrary5EntryEEJEERT0_RSt11_Tuple_implIXT_EJS5_DpT1_EE = comdat any

$_ZNSt11_Tuple_implILm1EJSt14default_deleteIN7rocksdb13ObjectLibrary5EntryEEEE7_M_headERS5_ = comdat any

$_ZNSt10_Head_baseILm1ESt14default_deleteIN7rocksdb13ObjectLibrary5EntryEELb1EE7_M_headERS5_ = comdat any

$_ZNSt10unique_ptrIN7rocksdb15MemoryAllocatorESt14default_deleteIS1_EE5resetEPS1_ = comdat any

$_ZN7rocksdb22DefaultMemoryAllocatorC2Ev = comdat any

$_ZNKSt10unique_ptrIN7rocksdb15MemoryAllocatorESt14default_deleteIS1_EE3getEv = comdat any

$_ZNSt15__uniq_ptr_implIN7rocksdb15MemoryAllocatorESt14default_deleteIS1_EE5resetEPS1_ = comdat any

$_ZNSt15__uniq_ptr_implIN7rocksdb15MemoryAllocatorESt14default_deleteIS1_EE6_M_ptrEv = comdat any

$_ZNSt15__uniq_ptr_implIN7rocksdb15MemoryAllocatorESt14default_deleteIS1_EE10_M_deleterEv = comdat any

$_ZNKSt14default_deleteIN7rocksdb15MemoryAllocatorEEclEPS1_ = comdat any

$_ZSt3getILm0EJPN7rocksdb15MemoryAllocatorESt14default_deleteIS1_EEERNSt13tuple_elementIXT_ESt5tupleIJDpT0_EEE4typeERS9_ = comdat any

$_ZSt12__get_helperILm0EPN7rocksdb15MemoryAllocatorEJSt14default_deleteIS1_EEERT0_RSt11_Tuple_implIXT_EJS5_DpT1_EE = comdat any

$_ZNSt11_Tuple_implILm0EJPN7rocksdb15MemoryAllocatorESt14default_deleteIS1_EEE7_M_headERS5_ = comdat any

$_ZNSt10_Head_baseILm0EPN7rocksdb15MemoryAllocatorELb0EE7_M_headERS3_ = comdat any

$_ZSt3getILm1EJPN7rocksdb15MemoryAllocatorESt14default_deleteIS1_EEERNSt13tuple_elementIXT_ESt5tupleIJDpT0_EEE4typeERS9_ = comdat any

$_ZSt12__get_helperILm1ESt14default_deleteIN7rocksdb15MemoryAllocatorEEJEERT0_RSt11_Tuple_implIXT_EJS4_DpT1_EE = comdat any

$_ZNSt11_Tuple_implILm1EJSt14default_deleteIN7rocksdb15MemoryAllocatorEEEE7_M_headERS4_ = comdat any

$_ZNSt10_Head_baseILm1ESt14default_deleteIN7rocksdb15MemoryAllocatorEELb1EE7_M_headERS4_ = comdat any

$_ZN7rocksdb22DefaultMemoryAllocatorD2Ev = comdat any

$_ZN7rocksdb22DefaultMemoryAllocatorD0Ev = comdat any

$_ZNK7rocksdb22DefaultMemoryAllocator4NameEv = comdat any

$_ZN7rocksdb22DefaultMemoryAllocator8AllocateEm = comdat any

$_ZN7rocksdb22DefaultMemoryAllocator10DeallocateEPv = comdat any

$_ZNKSt15__uniq_ptr_implIN7rocksdb15MemoryAllocatorESt14default_deleteIS1_EE6_M_ptrEv = comdat any

$_ZSt3getILm0EJPN7rocksdb15MemoryAllocatorESt14default_deleteIS1_EEERKNSt13tuple_elementIXT_ESt5tupleIJDpT0_EEE4typeERKS9_ = comdat any

$_ZSt12__get_helperILm0EPN7rocksdb15MemoryAllocatorEJSt14default_deleteIS1_EEERKT0_RKSt11_Tuple_implIXT_EJS5_DpT1_EE = comdat any

$_ZNSt11_Tuple_implILm0EJPN7rocksdb15MemoryAllocatorESt14default_deleteIS1_EEE7_M_headERKS5_ = comdat any

$_ZNSt10_Head_baseILm0EPN7rocksdb15MemoryAllocatorELb0EE7_M_headERKS3_ = comdat any

$_ZSt11make_sharedIN7rocksdb22DefaultMemoryAllocatorEJEESt10shared_ptrINSt9enable_ifIXntsr8is_arrayIT_EE5valueES4_E4typeEEDpOT0_ = comdat any

$_ZNSt10shared_ptrIN7rocksdb15MemoryAllocatorEEC2INS0_22DefaultMemoryAllocatorEvEEOS_IT_E = comdat any

$_ZN7rocksdb22CountedMemoryAllocatorC2ERKSt10shared_ptrINS_15MemoryAllocatorEE = comdat any

$_ZNSt10shared_ptrIN7rocksdb22DefaultMemoryAllocatorEED2Ev = comdat any

$_ZNSt10shared_ptrIN7rocksdb22DefaultMemoryAllocatorEEC2ISaIvEJEEESt20_Sp_alloc_shared_tagIT_EDpOT0_ = comdat any

$_ZNSt12__shared_ptrIN7rocksdb22DefaultMemoryAllocatorELN9__gnu_cxx12_Lock_policyE2EEC2ISaIvEJEEESt20_Sp_alloc_shared_tagIT_EDpOT0_ = comdat any

$_ZNSt14__shared_countILN9__gnu_cxx12_Lock_policyE2EEC2IN7rocksdb22DefaultMemoryAllocatorESaIvEJEEERPT_St20_Sp_alloc_shared_tagIT0_EDpOT1_ = comdat any

$_ZNSt12__shared_ptrIN7rocksdb22DefaultMemoryAllocatorELN9__gnu_cxx12_Lock_policyE2EE31_M_enable_shared_from_this_withIS1_S1_EENSt9enable_ifIXntsr15__has_esft_baseIT0_EE5valueEvE4typeEPT_ = comdat any

$_ZNSaISt23_Sp_counted_ptr_inplaceIN7rocksdb22DefaultMemoryAllocatorESaIvELN9__gnu_cxx12_Lock_policyE2EEEC2IvEERKSaIT_E = comdat any

$_ZSt18__allocate_guardedISaISt23_Sp_counted_ptr_inplaceIN7rocksdb22DefaultMemoryAllocatorESaIvELN9__gnu_cxx12_Lock_policyE2EEEESt15__allocated_ptrIT_ERS9_ = comdat any

$_ZNSt15__allocated_ptrISaISt23_Sp_counted_ptr_inplaceIN7rocksdb22DefaultMemoryAllocatorESaIvELN9__gnu_cxx12_Lock_policyE2EEEE3getEv = comdat any

$_ZNSt23_Sp_counted_ptr_inplaceIN7rocksdb22DefaultMemoryAllocatorESaIvELN9__gnu_cxx12_Lock_policyE2EEC2IJEEES2_DpOT_ = comdat any

$_ZNSt15__allocated_ptrISaISt23_Sp_counted_ptr_inplaceIN7rocksdb22DefaultMemoryAllocatorESaIvELN9__gnu_cxx12_Lock_policyE2EEEEaSEDn = comdat any

$_ZNSt23_Sp_counted_ptr_inplaceIN7rocksdb22DefaultMemoryAllocatorESaIvELN9__gnu_cxx12_Lock_policyE2EE6_M_ptrEv = comdat any

$_ZNSt15__allocated_ptrISaISt23_Sp_counted_ptr_inplaceIN7rocksdb22DefaultMemoryAllocatorESaIvELN9__gnu_cxx12_Lock_policyE2EEEED2Ev = comdat any

$_ZNSaISt23_Sp_counted_ptr_inplaceIN7rocksdb22DefaultMemoryAllocatorESaIvELN9__gnu_cxx12_Lock_policyE2EEED2Ev = comdat any

$_ZNSt15__new_allocatorISt23_Sp_counted_ptr_inplaceIN7rocksdb22DefaultMemoryAllocatorESaIvELN9__gnu_cxx12_Lock_policyE2EEEC2Ev = comdat any

$_ZNSt16allocator_traitsISaISt23_Sp_counted_ptr_inplaceIN7rocksdb22DefaultMemoryAllocatorESaIvELN9__gnu_cxx12_Lock_policyE2EEEE8allocateERS7_m = comdat any

$_ZNSt15__allocated_ptrISaISt23_Sp_counted_ptr_inplaceIN7rocksdb22DefaultMemoryAllocatorESaIvELN9__gnu_cxx12_Lock_policyE2EEEEC2ERS7_PS6_ = comdat any

$_ZNSt15__new_allocatorISt23_Sp_counted_ptr_inplaceIN7rocksdb22DefaultMemoryAllocatorESaIvELN9__gnu_cxx12_Lock_policyE2EEE8allocateEmPKv = comdat any

$_ZNKSt15__new_allocatorISt23_Sp_counted_ptr_inplaceIN7rocksdb22DefaultMemoryAllocatorESaIvELN9__gnu_cxx12_Lock_policyE2EEE11_M_max_sizeEv = comdat any

$_ZSt12__to_addressISt23_Sp_counted_ptr_inplaceIN7rocksdb22DefaultMemoryAllocatorESaIvELN9__gnu_cxx12_Lock_policyE2EEEPT_S8_ = comdat any

$_ZNSt16_Sp_counted_baseILN9__gnu_cxx12_Lock_policyE2EEC2Ev = comdat any

$_ZNSt23_Sp_counted_ptr_inplaceIN7rocksdb22DefaultMemoryAllocatorESaIvELN9__gnu_cxx12_Lock_policyE2EE5_ImplC2ES2_ = comdat any

$_ZNSt16allocator_traitsISaIvEE9constructIN7rocksdb22DefaultMemoryAllocatorEJEEEvRS0_PT_DpOT0_ = comdat any

$_ZNSt23_Sp_counted_ptr_inplaceIN7rocksdb22DefaultMemoryAllocatorESaIvELN9__gnu_cxx12_Lock_policyE2EED2Ev = comdat any

$_ZNSt23_Sp_counted_ptr_inplaceIN7rocksdb22DefaultMemoryAllocatorESaIvELN9__gnu_cxx12_Lock_policyE2EED0Ev = comdat any

$_ZNSt23_Sp_counted_ptr_inplaceIN7rocksdb22DefaultMemoryAllocatorESaIvELN9__gnu_cxx12_Lock_policyE2EE10_M_disposeEv = comdat any

$_ZNSt23_Sp_counted_ptr_inplaceIN7rocksdb22DefaultMemoryAllocatorESaIvELN9__gnu_cxx12_Lock_policyE2EE10_M_destroyEv = comdat any

$_ZNSt23_Sp_counted_ptr_inplaceIN7rocksdb22DefaultMemoryAllocatorESaIvELN9__gnu_cxx12_Lock_policyE2EE14_M_get_deleterERKSt9type_info = comdat any

$_ZNSt16_Sp_counted_baseILN9__gnu_cxx12_Lock_policyE2EED2Ev = comdat any

$_ZNSt16_Sp_counted_baseILN9__gnu_cxx12_Lock_policyE2EED0Ev = comdat any

$_ZNSt16_Sp_counted_baseILN9__gnu_cxx12_Lock_policyE2EE10_M_destroyEv = comdat any

$_ZNSt14_Sp_ebo_helperILi0ESaIvELb1EEC2ERKS0_ = comdat any

$_ZSt10_ConstructIN7rocksdb22DefaultMemoryAllocatorEJEEvPT_DpOT0_ = comdat any

$_ZNSt16allocator_traitsISaIvEE7destroyIN7rocksdb22DefaultMemoryAllocatorEEEvRS0_PT_ = comdat any

$_ZNSt23_Sp_counted_ptr_inplaceIN7rocksdb22DefaultMemoryAllocatorESaIvELN9__gnu_cxx12_Lock_policyE2EE5_Impl8_M_allocEv = comdat any

$_ZSt8_DestroyIN7rocksdb22DefaultMemoryAllocatorEEvPT_ = comdat any

$_ZNSt14_Sp_ebo_helperILi0ESaIvELb1EE6_S_getERS1_ = comdat any

$_ZNSt19_Sp_make_shared_tag5_S_tiEv = comdat any

$_ZN9__gnu_cxx16__aligned_bufferIN7rocksdb22DefaultMemoryAllocatorEE6_M_ptrEv = comdat any

$_ZN9__gnu_cxx16__aligned_bufferIN7rocksdb22DefaultMemoryAllocatorEE7_M_addrEv = comdat any

$_ZNSt16allocator_traitsISaISt23_Sp_counted_ptr_inplaceIN7rocksdb22DefaultMemoryAllocatorESaIvELN9__gnu_cxx12_Lock_policyE2EEEE10deallocateERS7_PS6_m = comdat any

$_ZNSt15__new_allocatorISt23_Sp_counted_ptr_inplaceIN7rocksdb22DefaultMemoryAllocatorESaIvELN9__gnu_cxx12_Lock_policyE2EEE10deallocateEPS6_m = comdat any

$_ZNSt15__new_allocatorISt23_Sp_counted_ptr_inplaceIN7rocksdb22DefaultMemoryAllocatorESaIvELN9__gnu_cxx12_Lock_policyE2EEED2Ev = comdat any

$_ZNSt12__shared_ptrIN7rocksdb15MemoryAllocatorELN9__gnu_cxx12_Lock_policyE2EEC2INS0_22DefaultMemoryAllocatorEvEEOS_IT_LS3_2EE = comdat any

$_ZNSt6atomicImEC2Em = comdat any

$_ZN7rocksdb22CountedMemoryAllocatorD2Ev = comdat any

$_ZN7rocksdb22CountedMemoryAllocatorD0Ev = comdat any

$_ZNK7rocksdb22CountedMemoryAllocator4NameEv = comdat any

$_ZNK7rocksdb22CountedMemoryAllocator5GetIdB5cxx11Ev = comdat any

$_ZN7rocksdb22CountedMemoryAllocator8AllocateEm = comdat any

$_ZN7rocksdb22CountedMemoryAllocator10DeallocateEPv = comdat any

$_ZNSt13__atomic_baseImEC2Em = comdat any

$_ZNSt13__atomic_baseImEppEi = comdat any

$_ZNSt12__shared_ptrIN7rocksdb22DefaultMemoryAllocatorELN9__gnu_cxx12_Lock_policyE2EED2Ev = comdat any

$_ZN7rocksdb24JemallocAllocatorOptionsC2Ev = comdat any

$_ZN7rocksdb20MemkindKmemAllocator11IsSupportedEPNSt7__cxx1112basic_stringIcSt11char_traitsIcESaIcEEE = comdat any

$_ZN7rocksdb20MemkindKmemAllocatorC2Ev = comdat any

$_ZN7rocksdb19BaseMemoryAllocatorC2Ev = comdat any

$_ZN7rocksdb19BaseMemoryAllocatorD2Ev = comdat any

$_ZN7rocksdb19BaseMemoryAllocatorD0Ev = comdat any

$_ZN7rocksdb19BaseMemoryAllocator8AllocateEm = comdat any

$_ZN7rocksdb19BaseMemoryAllocator10DeallocateEPv = comdat any

$_ZNSt13unordered_mapINSt7__cxx1112basic_stringIcSt11char_traitsIcESaIcEEES5_St4hashIS5_ESt8equal_toIS5_ESaISt4pairIKS5_S5_EEEC2Ev = comdat any

$_ZNK7rocksdb6Status2okEv = comdat any

$_ZN7rocksdb6StatusC2EOS0_ = comdat any

$_ZNSt10shared_ptrIN7rocksdb15MemoryAllocatorEEC2EDn = comdat any

$_ZNSt10shared_ptrIN7rocksdb15MemoryAllocatorEEaSEOS2_ = comdat any

$_ZN7rocksdb6StatusD2Ev = comdat any

$_ZNSt13unordered_mapINSt7__cxx1112basic_stringIcSt11char_traitsIcESaIcEEES5_St4hashIS5_ESt8equal_toIS5_ESaISt4pairIKS5_S5_EEED2Ev = comdat any

$_ZNSt10_HashtableINSt7__cxx1112basic_stringIcSt11char_traitsIcESaIcEEESt4pairIKS5_S5_ESaIS8_ENSt8__detail10_Select1stESt8equal_toIS5_ESt4hashIS5_ENSA_18_Mod_range_hashingENSA_20_Default_ranged_hashENSA_20_Prime_rehash_policyENSA_17_Hashtable_traitsILb1ELb0ELb1EEEEC2Ev = comdat any

$_ZNSt8__detail15_Hashtable_baseINSt7__cxx1112basic_stringIcSt11char_traitsIcESaIcEEESt4pairIKS6_S6_ENS_10_Select1stESt8equal_toIS6_ESt4hashIS6_ENS_18_Mod_range_hashingENS_20_Default_ranged_hashENS_17_Hashtable_traitsILb1ELb0ELb1EEEEC2Ev = comdat any

$_ZNSt8__detail16_Hashtable_allocISaINS_10_Hash_nodeISt4pairIKNSt7__cxx1112basic_stringIcSt11char_traitsIcESaIcEEES8_ELb1EEEEEC2Ev = comdat any

$_ZNSt8__detail15_Hash_code_baseINSt7__cxx1112basic_stringIcSt11char_traitsIcESaIcEEESt4pairIKS6_S6_ENS_10_Select1stESt4hashIS6_ENS_18_Mod_range_hashingENS_20_Default_ranged_hashELb1EEC2Ev = comdat any

$_ZNSt8__detail21_Hashtable_ebo_helperILi0ESt8equal_toINSt7__cxx1112basic_stringIcSt11char_traitsIcESaIcEEEELb1EEC2Ev = comdat any

$_ZNSt8__detail21_Hashtable_ebo_helperILi1ESt4hashINSt7__cxx1112basic_stringIcSt11char_traitsIcESaIcEEEELb1EEC2Ev = comdat any

$_ZNSt8__detail21_Hashtable_ebo_helperILi0ESaINS_10_Hash_nodeISt4pairIKNSt7__cxx1112basic_stringIcSt11char_traitsIcESaIcEEES8_ELb1EEEELb1EEC2Ev = comdat any

$_ZNSaINSt8__detail10_Hash_nodeISt4pairIKNSt7__cxx1112basic_stringIcSt11char_traitsIcESaIcEEES7_ELb1EEEEC2Ev = comdat any

$_ZNSt15__new_allocatorINSt8__detail10_Hash_nodeISt4pairIKNSt7__cxx1112basic_stringIcSt11char_traitsIcESaIcEEES8_ELb1EEEEC2Ev = comdat any

$_ZNK7rocksdb6Status11MarkCheckedEv = comdat any

$_ZNK7rocksdb6Status4codeEv = comdat any

$_ZN7rocksdb6StatusaSEOS0_ = comdat any

$_ZNK7rocksdb6Status9MustCheckEv = comdat any

$_ZNSt10unique_ptrIA_KcSt14default_deleteIS1_EEaSEOS4_ = comdat any

$_ZNSt15__uniq_ptr_dataIKcSt14default_deleteIA_S0_ELb1ELb1EEaSEOS4_ = comdat any

$_ZNSt15__uniq_ptr_implIKcSt14default_deleteIA_S0_EEaSEOS4_ = comdat any

$_ZNSt15__uniq_ptr_implIKcSt14default_deleteIA_S0_EE5resetEPS0_ = comdat any

$_ZNSt15__uniq_ptr_implIKcSt14default_deleteIA_S0_EE7releaseEv = comdat any

$_ZNSt15__uniq_ptr_implIKcSt14default_deleteIA_S0_EE10_M_deleterEv = comdat any

$_ZNSt15__uniq_ptr_implIKcSt14default_deleteIA_S0_EE6_M_ptrEv = comdat any

$_ZNKSt14default_deleteIA_KcEclIS0_EENSt9enable_ifIXsr14is_convertibleIPA_T_PS1_EE5valueEvE4typeEPS5_ = comdat any

$_ZSt3getILm0EJPKcSt14default_deleteIA_S0_EEERNSt13tuple_elementIXT_ESt5tupleIJDpT0_EEE4typeERS9_ = comdat any

$_ZSt12__get_helperILm0EPKcJSt14default_deleteIA_S0_EEERT0_RSt11_Tuple_implIXT_EJS5_DpT1_EE = comdat any

$_ZNSt11_Tuple_implILm0EJPKcSt14default_deleteIA_S0_EEE7_M_headERS5_ = comdat any

$_ZNSt10_Head_baseILm0EPKcLb0EE7_M_headERS2_ = comdat any

$_ZSt3getILm1EJPKcSt14default_deleteIA_S0_EEERNSt13tuple_elementIXT_ESt5tupleIJDpT0_EEE4typeERS9_ = comdat any

$_ZSt12__get_helperILm1ESt14default_deleteIA_KcEJEERT0_RSt11_Tuple_implIXT_EJS4_DpT1_EE = comdat any

$_ZNSt11_Tuple_implILm1EJSt14default_deleteIA_KcEEE7_M_headERS4_ = comdat any

$_ZNSt10_Head_baseILm1ESt14default_deleteIA_KcELb1EE7_M_headERS4_ = comdat any

$_ZNSt12__shared_ptrIN7rocksdb15MemoryAllocatorELN9__gnu_cxx12_Lock_policyE2EEaSEOS4_ = comdat any

$_ZNSt12__shared_ptrIN7rocksdb15MemoryAllocatorELN9__gnu_cxx12_Lock_policyE2EEC2EOS4_ = comdat any

$_ZNKSt19__shared_ptr_accessIN7rocksdb14ObjectRegistryELN9__gnu_cxx12_Lock_policyE2ELb0ELb0EEptEv = comdat any

$_ZN7rocksdb14ObjectRegistry24GetOrCreateManagedObjectINS_15MemoryAllocatorEEENS_6StatusERKNSt7__cxx1112basic_stringIcSt11char_traitsIcESaIcEEEPSt10shared_ptrIT_ERKSt8functionIFS3_PSD_EE = comdat any

$_ZNSt13unordered_mapINSt7__cxx1112basic_stringIcSt11char_traitsIcESaIcEEES5_St4hashIS5_ESt8equal_toIS5_ESaISt4pairIKS5_S5_EEEC2ERKSE_ = comdat any

$_ZNSt8functionIFN7rocksdb6StatusEPNS0_15MemoryAllocatorEEED2Ev = comdat any

$_ZNK7rocksdb6Status14IsNotSupportedEv = comdat any

$_ZN7rocksdb6Status12NotSupportedERKNS_5SliceES3_ = comdat any

$_ZN7rocksdb5SliceC2EPKc = comdat any

$_ZN7rocksdb5SliceC2Ev = comdat any

$_ZNKSt19__shared_ptr_accessIN7rocksdb14ObjectRegistryELN9__gnu_cxx12_Lock_policyE2ELb0ELb0EE6_M_getEv = comdat any

$_ZNKSt12__shared_ptrIN7rocksdb14ObjectRegistryELN9__gnu_cxx12_Lock_policyE2EE3getEv = comdat any

$_ZStneIN7rocksdb14ObjectRegistryEEbRKSt10shared_ptrIT_EDn = comdat any

$_ZStneIN7rocksdb12CustomizableEEbRKSt10shared_ptrIT_EDn = comdat any

$_ZSt19static_pointer_castIN7rocksdb15MemoryAllocatorENS0_12CustomizableEESt10shared_ptrIT_ERKS3_IT0_E = comdat any

$_ZNSt10shared_ptrIN7rocksdb12CustomizableEED2Ev = comdat any

$_ZN7rocksdb14ObjectRegistry18ToManagedObjectKeyERKNSt7__cxx1112basic_stringIcSt11char_traitsIcESaIcEEES8_ = comdat any

$_ZNSt3mapINSt7__cxx1112basic_stringIcSt11char_traitsIcESaIcEEESt8weak_ptrIN7rocksdb12CustomizableEESt4lessIS5_ESaISt4pairIKS5_S9_EEE4findERSD_ = comdat any

$_ZStneRKSt17_Rb_tree_iteratorISt4pairIKNSt7__cxx1112basic_stringIcSt11char_traitsIcESaIcEEESt8weak_ptrIN7rocksdb12CustomizableEEEESF_ = comdat any

$_ZNSt3mapINSt7__cxx1112basic_stringIcSt11char_traitsIcESaIcEEESt8weak_ptrIN7rocksdb12CustomizableEESt4lessIS5_ESaISt4pairIKS5_S9_EEE3endEv = comdat any

$_ZNKSt17_Rb_tree_iteratorISt4pairIKNSt7__cxx1112basic_stringIcSt11char_traitsIcESaIcEEESt8weak_ptrIN7rocksdb12CustomizableEEEEptEv = comdat any

$_ZNKSt8weak_ptrIN7rocksdb12CustomizableEE4lockEv = comdat any

$_ZNSt10shared_ptrIN7rocksdb15MemoryAllocatorEEC2Ev = comdat any

$_ZN7rocksdb14ObjectRegistry15NewSharedObjectINS_15MemoryAllocatorEEENS_6StatusERKNSt7__cxx1112basic_stringIcSt11char_traitsIcESaIcEEEPSt10shared_ptrIT_E = comdat any

$_ZStneIN7rocksdb6StatusEJPNS0_15MemoryAllocatorEEEbRKSt8functionIFT_DpT0_EEDn = comdat any

$_ZNKSt8functionIFN7rocksdb6StatusEPNS0_15MemoryAllocatorEEEclES3_ = comdat any

$_ZNKSt12__shared_ptrIN7rocksdb15MemoryAllocatorELN9__gnu_cxx12_Lock_policyE2EE3getEv = comdat any

$_ZSt19static_pointer_castIN7rocksdb12CustomizableENS0_15MemoryAllocatorEESt10shared_ptrIT_ERKS3_IT0_E = comdat any

$_ZStneIcSt11char_traitsIcESaIcEEbRKNSt7__cxx1112basic_stringIT_T0_T1_EEPKS5_ = comdat any

$_ZNKSt19__shared_ptr_accessIN7rocksdb12CustomizableELN9__gnu_cxx12_Lock_policyE2ELb0ELb0EEptEv = comdat any

$_ZNSt3mapINSt7__cxx1112basic_stringIcSt11char_traitsIcESaIcEEESt8weak_ptrIN7rocksdb12CustomizableEESt4lessIS5_ESaISt4pairIKS5_S9_EEEixERSD_ = comdat any

$_ZNSt8weak_ptrIN7rocksdb12CustomizableEEaSIS1_EENSt9enable_ifIXsr13is_assignableIRSt10__weak_ptrIS1_LN9__gnu_cxx12_Lock_policyE2EERKSt10shared_ptrIT_EEE5valueERS2_E4typeESE_ = comdat any

$_ZStneIcSt11char_traitsIcESaIcEEbRKNSt7__cxx1112basic_stringIT_T0_T1_EESA_ = comdat any

$_ZNSt10shared_ptrIN7rocksdb15MemoryAllocatorEEaSERKS2_ = comdat any

$_ZNKSt12__shared_ptrIN7rocksdb14ObjectRegistryELN9__gnu_cxx12_Lock_policyE2EEcvbEv = comdat any

$_ZNKSt12__shared_ptrIN7rocksdb12CustomizableELN9__gnu_cxx12_Lock_policyE2EEcvbEv = comdat any

$_ZNKSt12__shared_ptrIN7rocksdb12CustomizableELN9__gnu_cxx12_Lock_policyE2EE3getEv = comdat any

$_ZNSt10shared_ptrIN7rocksdb15MemoryAllocatorEEC2INS0_12CustomizableEEERKS_IT_EPS1_ = comdat any

$_ZNSt12__shared_ptrIN7rocksdb15MemoryAllocatorELN9__gnu_cxx12_Lock_policyE2EEC2INS0_12CustomizableEEERKS_IT_LS3_2EEPS1_ = comdat any

$_ZNSt12__shared_ptrIN7rocksdb12CustomizableELN9__gnu_cxx12_Lock_policyE2EED2Ev = comdat any

$_ZStplIcSt11char_traitsIcESaIcEENSt7__cxx1112basic_stringIT_T0_T1_EEOS8_RKS8_ = comdat any

$_ZStplIcSt11char_traitsIcESaIcEENSt7__cxx1112basic_stringIT_T0_T1_EERKS8_PKS5_ = comdat any

$_ZNSt8_Rb_treeINSt7__cxx1112basic_stringIcSt11char_traitsIcESaIcEEESt4pairIKS5_St8weak_ptrIN7rocksdb12CustomizableEEESt10_Select1stISC_ESt4lessIS5_ESaISC_EE4findERS7_ = comdat any

$_ZNSt8_Rb_treeINSt7__cxx1112basic_stringIcSt11char_traitsIcESaIcEEESt4pairIKS5_St8weak_ptrIN7rocksdb12CustomizableEEESt10_Select1stISC_ESt4lessIS5_ESaISC_EE14_M_lower_boundEPSt13_Rb_tree_nodeISC_EPSt18_Rb_tree_node_baseRS7_ = comdat any

$_ZNSt8_Rb_treeINSt7__cxx1112basic_stringIcSt11char_traitsIcESaIcEEESt4pairIKS5_St8weak_ptrIN7rocksdb12CustomizableEEESt10_Select1stISC_ESt4lessIS5_ESaISC_EE8_M_beginEv = comdat any

$_ZNSt8_Rb_treeINSt7__cxx1112basic_stringIcSt11char_traitsIcESaIcEEESt4pairIKS5_St8weak_ptrIN7rocksdb12CustomizableEEESt10_Select1stISC_ESt4lessIS5_ESaISC_EE6_M_endEv = comdat any

$_ZSteqRKSt17_Rb_tree_iteratorISt4pairIKNSt7__cxx1112basic_stringIcSt11char_traitsIcESaIcEEESt8weak_ptrIN7rocksdb12CustomizableEEEESF_ = comdat any

$_ZNSt8_Rb_treeINSt7__cxx1112basic_stringIcSt11char_traitsIcESaIcEEESt4pairIKS5_St8weak_ptrIN7rocksdb12CustomizableEEESt10_Select1stISC_ESt4lessIS5_ESaISC_EE3endEv = comdat any

$_ZNKSt4lessINSt7__cxx1112basic_stringIcSt11char_traitsIcESaIcEEEEclERKS5_S8_ = comdat any

$_ZNSt8_Rb_treeINSt7__cxx1112basic_stringIcSt11char_traitsIcESaIcEEESt4pairIKS5_St8weak_ptrIN7rocksdb12CustomizableEEESt10_Select1stISC_ESt4lessIS5_ESaISC_EE6_S_keyEPKSt18_Rb_tree_node_base = comdat any

$_ZNSt8_Rb_treeINSt7__cxx1112basic_stringIcSt11char_traitsIcESaIcEEESt4pairIKS5_St8weak_ptrIN7rocksdb12CustomizableEEESt10_Select1stISC_ESt4lessIS5_ESaISC_EE6_S_keyEPKSt13_Rb_tree_nodeISC_E = comdat any

$_ZNSt8_Rb_treeINSt7__cxx1112basic_stringIcSt11char_traitsIcESaIcEEESt4pairIKS5_St8weak_ptrIN7rocksdb12CustomizableEEESt10_Select1stISC_ESt4lessIS5_ESaISC_EE7_S_leftEPSt18_Rb_tree_node_base = comdat any

$_ZNSt8_Rb_treeINSt7__cxx1112basic_stringIcSt11char_traitsIcESaIcEEESt4pairIKS5_St8weak_ptrIN7rocksdb12CustomizableEEESt10_Select1stISC_ESt4lessIS5_ESaISC_EE8_S_rightEPSt18_Rb_tree_node_base = comdat any

$_ZNSt17_Rb_tree_iteratorISt4pairIKNSt7__cxx1112basic_stringIcSt11char_traitsIcESaIcEEESt8weak_ptrIN7rocksdb12CustomizableEEEEC2EPSt18_Rb_tree_node_base = comdat any

$_ZNKSt10_Select1stISt4pairIKNSt7__cxx1112basic_stringIcSt11char_traitsIcESaIcEEESt8weak_ptrIN7rocksdb12CustomizableEEEEclERKSC_ = comdat any

$_ZNKSt13_Rb_tree_nodeISt4pairIKNSt7__cxx1112basic_stringIcSt11char_traitsIcESaIcEEESt8weak_ptrIN7rocksdb12CustomizableEEEE9_M_valptrEv = comdat any

$_ZNK9__gnu_cxx16__aligned_membufISt4pairIKNSt7__cxx1112basic_stringIcSt11char_traitsIcESaIcEEESt8weak_ptrIN7rocksdb12CustomizableEEEE6_M_ptrEv = comdat any

$_ZNK9__gnu_cxx16__aligned_membufISt4pairIKNSt7__cxx1112basic_stringIcSt11char_traitsIcESaIcEEESt8weak_ptrIN7rocksdb12CustomizableEEEE7_M_addrEv = comdat any

$_ZNKSt8_Rb_treeINSt7__cxx1112basic_stringIcSt11char_traitsIcESaIcEEESt4pairIKS5_St8weak_ptrIN7rocksdb12CustomizableEEESt10_Select1stISC_ESt4lessIS5_ESaISC_EE9_M_mbeginEv = comdat any

$_ZStltIcSt11char_traitsIcESaIcEEbRKNSt7__cxx1112basic_stringIT_T0_T1_EESA_ = comdat any

$_ZNSt13_Rb_tree_nodeISt4pairIKNSt7__cxx1112basic_stringIcSt11char_traitsIcESaIcEEESt8weak_ptrIN7rocksdb12CustomizableEEEE9_M_valptrEv = comdat any

$_ZN9__gnu_cxx16__aligned_membufISt4pairIKNSt7__cxx1112basic_stringIcSt11char_traitsIcESaIcEEESt8weak_ptrIN7rocksdb12CustomizableEEEE6_M_ptrEv = comdat any

$_ZN9__gnu_cxx16__aligned_membufISt4pairIKNSt7__cxx1112basic_stringIcSt11char_traitsIcESaIcEEESt8weak_ptrIN7rocksdb12CustomizableEEEE7_M_addrEv = comdat any

$_ZNSt10shared_ptrIN7rocksdb12CustomizableEEC2ERKSt8weak_ptrIS1_ESt9nothrow_t = comdat any

$_ZNSt12__shared_ptrIN7rocksdb12CustomizableELN9__gnu_cxx12_Lock_policyE2EEC2ERKSt10__weak_ptrIS1_LS3_2EESt9nothrow_t = comdat any

$_ZNSt14__shared_countILN9__gnu_cxx12_Lock_policyE2EEC2ERKSt12__weak_countILS1_2EESt9nothrow_t = comdat any

$_ZNKSt14__shared_countILN9__gnu_cxx12_Lock_policyE2EE16_M_get_use_countEv = comdat any

$_ZNSt16_Sp_counted_baseILN9__gnu_cxx12_Lock_policyE2EE23_M_add_ref_lock_nothrowEv = comdat any

$_ZNKSt16_Sp_counted_baseILN9__gnu_cxx12_Lock_policyE2EE16_M_get_use_countEv = comdat any

$_ZNSt10unique_ptrIN7rocksdb15MemoryAllocatorESt14default_deleteIS1_EEC2IS3_vEEv = comdat any

$_ZN7rocksdb14ObjectRegistry9NewObjectINS_15MemoryAllocatorEEENS_6StatusERKNSt7__cxx1112basic_stringIcSt11char_traitsIcESaIcEEEPPT_PSt10unique_ptrISC_St14default_deleteISC_EE = comdat any

$_ZNKSt10unique_ptrIN7rocksdb15MemoryAllocatorESt14default_deleteIS1_EEcvbEv = comdat any

$_ZNSt12__shared_ptrIN7rocksdb15MemoryAllocatorELN9__gnu_cxx12_Lock_policyE2EE5resetIS1_EENSt9enable_ifIXsr21__sp_is_constructibleIS1_T_EE5valueEvE4typeEPS7_ = comdat any

$_ZNSt10unique_ptrIN7rocksdb15MemoryAllocatorESt14default_deleteIS1_EE7releaseEv = comdat any

$_ZN7rocksdb6Status15InvalidArgumentERKNS_5SliceES3_ = comdat any

$_ZStplIcSt11char_traitsIcESaIcEENSt7__cxx1112basic_stringIT_T0_T1_EEOS8_PKS5_ = comdat any

$_ZN7rocksdb5SliceC2ERKNSt7__cxx1112basic_stringIcSt11char_traitsIcESaIcEEE = comdat any

$_ZNSt10unique_ptrIN7rocksdb15MemoryAllocatorESt14default_deleteIS1_EED2Ev = comdat any

$_ZNSt15__uniq_ptr_dataIN7rocksdb15MemoryAllocatorESt14default_deleteIS1_ELb1ELb1EEC2Ev = comdat any

$_ZNSt15__uniq_ptr_implIN7rocksdb15MemoryAllocatorESt14default_deleteIS1_EEC2Ev = comdat any

$_ZNSt5tupleIJPN7rocksdb15MemoryAllocatorESt14default_deleteIS1_EEEC2ILb1ETnNSt9enable_ifIXclsr17_TupleConstraintsIXT_ES2_S4_EE37__is_implicitly_default_constructibleEEbE4typeELb1EEEv = comdat any

$_ZNSt11_Tuple_implILm0EJPN7rocksdb15MemoryAllocatorESt14default_deleteIS1_EEEC2Ev = comdat any

$_ZNSt11_Tuple_implILm1EJSt14default_deleteIN7rocksdb15MemoryAllocatorEEEEC2Ev = comdat any

$_ZNSt10_Head_baseILm0EPN7rocksdb15MemoryAllocatorELb0EEC2Ev = comdat any

$_ZNSt10_Head_baseILm1ESt14default_deleteIN7rocksdb15MemoryAllocatorEELb1EEC2Ev = comdat any

$_ZNK7rocksdb14ObjectRegistry11FindFactoryINS_15MemoryAllocatorEEEKSt8functionIFPT_RKNSt7__cxx1112basic_stringIcSt11char_traitsIcESaIcEEEPSt10unique_ptrIS4_St14default_deleteIS4_EEPSB_EESD_ = comdat any

$_ZStneIPN7rocksdb15MemoryAllocatorEJRKNSt7__cxx1112basic_stringIcSt11char_traitsIcESaIcEEEPSt10unique_ptrIS1_St14default_deleteIS1_EEPS8_EEbRKSt8functionIFT_DpT0_EEDn = comdat any

$_ZNKSt8functionIFPN7rocksdb15MemoryAllocatorERKNSt7__cxx1112basic_stringIcSt11char_traitsIcESaIcEEEPSt10unique_ptrIS1_St14default_deleteIS1_EEPS8_EEclESA_SF_SG_ = comdat any

$_ZNKSt6vectorISt10shared_ptrIN7rocksdb13ObjectLibraryEESaIS3_EE7crbeginEv = comdat any

$_ZStneIN9__gnu_cxx17__normal_iteratorIPKSt10shared_ptrIN7rocksdb13ObjectLibraryEESt6vectorIS5_SaIS5_EEEEEbRKSt16reverse_iteratorIT_ESG_ = comdat any

$_ZNKSt6vectorISt10shared_ptrIN7rocksdb13ObjectLibraryEESaIS3_EE5crendEv = comdat any

$_ZNKSt16reverse_iteratorIN9__gnu_cxx17__normal_iteratorIPKSt10shared_ptrIN7rocksdb13ObjectLibraryEESt6vectorIS5_SaIS5_EEEEEptEv = comdat any

$_ZNK7rocksdb13ObjectLibrary11FindFactoryINS_15MemoryAllocatorEEESt8functionIFPT_RKNSt7__cxx1112basic_stringIcSt11char_traitsIcESaIcEEEPSt10unique_ptrIS4_St14default_deleteIS4_EEPSB_EESD_ = comdat any

$_ZNSt16reverse_iteratorIN9__gnu_cxx17__normal_iteratorIPKSt10shared_ptrIN7rocksdb13ObjectLibraryEESt6vectorIS5_SaIS5_EEEEEppEv = comdat any

$_ZSteqIN7rocksdb14ObjectRegistryEEbRKSt10shared_ptrIT_EDn = comdat any

$_ZNSt8functionIFPN7rocksdb15MemoryAllocatorERKNSt7__cxx1112basic_stringIcSt11char_traitsIcESaIcEEEPSt10unique_ptrIS1_St14default_deleteIS1_EEPS8_EEC2EDn = comdat any

$_ZNKSt6vectorISt10shared_ptrIN7rocksdb13ObjectLibraryEESaIS3_EE3endEv = comdat any

$_ZNSt16reverse_iteratorIN9__gnu_cxx17__normal_iteratorIPKSt10shared_ptrIN7rocksdb13ObjectLibraryEESt6vectorIS5_SaIS5_EEEEEC2ESB_ = comdat any

$_ZN9__gnu_cxx17__normal_iteratorIPKSt10shared_ptrIN7rocksdb13ObjectLibraryEESt6vectorIS4_SaIS4_EEEC2ERKS6_ = comdat any

$_ZSteqIN9__gnu_cxx17__normal_iteratorIPKSt10shared_ptrIN7rocksdb13ObjectLibraryEESt6vectorIS5_SaIS5_EEEEEbRKSt16reverse_iteratorIT_ESG_ = comdat any

$_ZN9__gnu_cxxeqIPKSt10shared_ptrIN7rocksdb13ObjectLibraryEESt6vectorIS4_SaIS4_EEEEbRKNS_17__normal_iteratorIT_T0_EESF_ = comdat any

$_ZNKSt16reverse_iteratorIN9__gnu_cxx17__normal_iteratorIPKSt10shared_ptrIN7rocksdb13ObjectLibraryEESt6vectorIS5_SaIS5_EEEEE4baseEv = comdat any

$_ZNK9__gnu_cxx17__normal_iteratorIPKSt10shared_ptrIN7rocksdb13ObjectLibraryEESt6vectorIS4_SaIS4_EEE4baseEv = comdat any

$_ZNKSt6vectorISt10shared_ptrIN7rocksdb13ObjectLibraryEESaIS3_EE5beginEv = comdat any

$_ZN9__gnu_cxx17__normal_iteratorIPKSt10shared_ptrIN7rocksdb13ObjectLibraryEESt6vectorIS4_SaIS4_EEEmmEv = comdat any

$_ZNSt16reverse_iteratorIN9__gnu_cxx17__normal_iteratorIPKSt10shared_ptrIN7rocksdb13ObjectLibraryEESt6vectorIS5_SaIS5_EEEEE13_S_to_pointerISB_EES7_T_ = comdat any

$_ZNK9__gnu_cxx17__normal_iteratorIPKSt10shared_ptrIN7rocksdb13ObjectLibraryEESt6vectorIS4_SaIS4_EEEptEv = comdat any

$_ZNKSt13unordered_mapINSt7__cxx1112basic_stringIcSt11char_traitsIcESaIcEEESt6vectorISt10unique_ptrIN7rocksdb13ObjectLibrary5EntryESt14default_deleteISA_EESaISD_EESt4hashIS5_ESt8equal_toIS5_ESaISt4pairIKS5_SF_EEE4findERSL_ = comdat any

$_ZNSt8__detailneERKNS_19_Node_iterator_baseISt4pairIKNSt7__cxx1112basic_stringIcSt11char_traitsIcESaIcEEESt6vectorISt10unique_ptrIN7rocksdb13ObjectLibrary5EntryESt14default_deleteISD_EESaISG_EEELb1EEESM_ = comdat any

$_ZNKSt13unordered_mapINSt7__cxx1112basic_stringIcSt11char_traitsIcESaIcEEESt6vectorISt10unique_ptrIN7rocksdb13ObjectLibrary5EntryESt14default_deleteISA_EESaISD_EESt4hashIS5_ESt8equal_toIS5_ESaISt4pairIKS5_SF_EEE3endEv = comdat any

$_ZNKSt8__detail20_Node_const_iteratorISt4pairIKNSt7__cxx1112basic_stringIcSt11char_traitsIcESaIcEEESt6vectorISt10unique_ptrIN7rocksdb13ObjectLibrary5EntryESt14default_deleteISD_EESaISG_EEELb0ELb1EEptEv = comdat any

$_ZNKSt6vectorISt10unique_ptrIN7rocksdb13ObjectLibrary5EntryESt14default_deleteIS3_EESaIS6_EE5beginEv = comdat any

$_ZNKSt6vectorISt10unique_ptrIN7rocksdb13ObjectLibrary5EntryESt14default_deleteIS3_EESaIS6_EE3endEv = comdat any

$_ZN9__gnu_cxxneIPKSt10unique_ptrIN7rocksdb13ObjectLibrary5EntryESt14default_deleteIS4_EESt6vectorIS7_SaIS7_EEEEbRKNS_17__normal_iteratorIT_T0_EESI_ = comdat any

$_ZNK9__gnu_cxx17__normal_iteratorIPKSt10unique_ptrIN7rocksdb13ObjectLibrary5EntryESt14default_deleteIS4_EESt6vectorIS7_SaIS7_EEEdeEv = comdat any

$_ZNK7rocksdb13ObjectLibrary12FactoryEntryINS_15MemoryAllocatorEE10GetFactoryB5cxx11Ev = comdat any

$_ZN9__gnu_cxx17__normal_iteratorIPKSt10unique_ptrIN7rocksdb13ObjectLibrary5EntryESt14default_deleteIS4_EESt6vectorIS7_SaIS7_EEEppEv = comdat any

$_ZNKSt10_HashtableINSt7__cxx1112basic_stringIcSt11char_traitsIcESaIcEEESt4pairIKS5_St6vectorISt10unique_ptrIN7rocksdb13ObjectLibrary5EntryESt14default_deleteISC_EESaISF_EEESaISI_ENSt8__detail10_Select1stESt8equal_toIS5_ESt4hashIS5_ENSK_18_Mod_range_hashingENSK_20_Default_ranged_hashENSK_20_Prime_rehash_policyENSK_17_Hashtable_traitsILb1ELb0ELb1EEEE4findERS7_ = comdat any

$_ZNKSt10_HashtableINSt7__cxx1112basic_stringIcSt11char_traitsIcESaIcEEESt4pairIKS5_St6vectorISt10unique_ptrIN7rocksdb13ObjectLibrary5EntryESt14default_deleteISC_EESaISF_EEESaISI_ENSt8__detail10_Select1stESt8equal_toIS5_ESt4hashIS5_ENSK_18_Mod_range_hashingENSK_20_Default_ranged_hashENSK_20_Prime_rehash_policyENSK_17_Hashtable_traitsILb1ELb0ELb1EEEE4sizeEv = comdat any

$_ZNSt10_HashtableINSt7__cxx1112basic_stringIcSt11char_traitsIcESaIcEEESt4pairIKS5_St6vectorISt10unique_ptrIN7rocksdb13ObjectLibrary5EntryESt14default_deleteISC_EESaISF_EEESaISI_ENSt8__detail10_Select1stESt8equal_toIS5_ESt4hashIS5_ENSK_18_Mod_range_hashingENSK_20_Default_ranged_hashENSK_20_Prime_rehash_policyENSK_17_Hashtable_traitsILb1ELb0ELb1EEEE22__small_size_thresholdEv = comdat any

$_ZNKSt10_HashtableINSt7__cxx1112basic_stringIcSt11char_traitsIcESaIcEEESt4pairIKS5_St6vectorISt10unique_ptrIN7rocksdb13ObjectLibrary5EntryESt14default_deleteISC_EESaISF_EEESaISI_ENSt8__detail10_Select1stESt8equal_toIS5_ESt4hashIS5_ENSK_18_Mod_range_hashingENSK_20_Default_ranged_hashENSK_20_Prime_rehash_policyENSK_17_Hashtable_traitsILb1ELb0ELb1EEEE5beginEv = comdat any

$_ZNKSt10_HashtableINSt7__cxx1112basic_stringIcSt11char_traitsIcESaIcEEESt4pairIKS5_St6vectorISt10unique_ptrIN7rocksdb13ObjectLibrary5EntryESt14default_deleteISC_EESaISF_EEESaISI_ENSt8__detail10_Select1stESt8equal_toIS5_ESt4hashIS5_ENSK_18_Mod_range_hashingENSK_20_Default_ranged_hashENSK_20_Prime_rehash_policyENSK_17_Hashtable_traitsILb1ELb0ELb1EEEE3endEv = comdat any

$_ZNSt8__detail20_Node_const_iteratorISt4pairIKNSt7__cxx1112basic_stringIcSt11char_traitsIcESaIcEEESt6vectorISt10unique_ptrIN7rocksdb13ObjectLibrary5EntryESt14default_deleteISD_EESaISG_EEELb0ELb1EEppEv = comdat any

$_ZNSt8__detail20_Node_const_iteratorISt4pairIKNSt7__cxx1112basic_stringIcSt11char_traitsIcESaIcEEESt6vectorISt10unique_ptrIN7rocksdb13ObjectLibrary5EntryESt14default_deleteISD_EESaISG_EEELb0ELb1EEC2EPNS_10_Hash_nodeISJ_Lb1EEE = comdat any

$_ZNSt8__detail19_Node_iterator_baseISt4pairIKNSt7__cxx1112basic_stringIcSt11char_traitsIcESaIcEEESt6vectorISt10unique_ptrIN7rocksdb13ObjectLibrary5EntryESt14default_deleteISD_EESaISG_EEELb1EE7_M_incrEv = comdat any

$_ZN9__gnu_cxx17__normal_iteratorIPKSt10unique_ptrIN7rocksdb13ObjectLibrary5EntryESt14default_deleteIS4_EESt6vectorIS7_SaIS7_EEEC2ERKS9_ = comdat any

$_ZNK9__gnu_cxx17__normal_iteratorIPKSt10unique_ptrIN7rocksdb13ObjectLibrary5EntryESt14default_deleteIS4_EESt6vectorIS7_SaIS7_EEE4baseEv = comdat any

$_ZNSt12__shared_ptrIN7rocksdb15MemoryAllocatorELN9__gnu_cxx12_Lock_policyE2EEC2IS1_vEEPT_ = comdat any

$_ZNSt14__shared_countILN9__gnu_cxx12_Lock_policyE2EEC2IPN7rocksdb15MemoryAllocatorEEET_St17integral_constantIbLb0EE = comdat any

$_ZNSt12__shared_ptrIN7rocksdb15MemoryAllocatorELN9__gnu_cxx12_Lock_policyE2EE31_M_enable_shared_from_this_withIS1_S1_EENSt9enable_ifIXntsr15__has_esft_baseIT0_EE5valueEvE4typeEPT_ = comdat any

$_ZNSt14__shared_countILN9__gnu_cxx12_Lock_policyE2EEC2IPN7rocksdb15MemoryAllocatorEEET_ = comdat any

$_ZNSt15_Sp_counted_ptrIPN7rocksdb15MemoryAllocatorELN9__gnu_cxx12_Lock_policyE2EEC2ES2_ = comdat any

$_ZNSt15_Sp_counted_ptrIPN7rocksdb15MemoryAllocatorELN9__gnu_cxx12_Lock_policyE2EED2Ev = comdat any

$_ZNSt15_Sp_counted_ptrIPN7rocksdb15MemoryAllocatorELN9__gnu_cxx12_Lock_policyE2EED0Ev = comdat any

$_ZNSt15_Sp_counted_ptrIPN7rocksdb15MemoryAllocatorELN9__gnu_cxx12_Lock_policyE2EE10_M_disposeEv = comdat any

$_ZNSt15_Sp_counted_ptrIPN7rocksdb15MemoryAllocatorELN9__gnu_cxx12_Lock_policyE2EE10_M_destroyEv = comdat any

$_ZNSt15_Sp_counted_ptrIPN7rocksdb15MemoryAllocatorELN9__gnu_cxx12_Lock_policyE2EE14_M_get_deleterERKSt9type_info = comdat any

$_ZNSt15__uniq_ptr_implIN7rocksdb15MemoryAllocatorESt14default_deleteIS1_EE7releaseEv = comdat any

$_ZN7rocksdb6StatusC2ENS0_4CodeERKNS_5SliceES4_ = comdat any

$_ZNSt10unique_ptrIN7rocksdb15MemoryAllocatorESt14default_deleteIS1_EE11get_deleterEv = comdat any

$_ZNKSt8functionIFN7rocksdb6StatusEPNS0_15MemoryAllocatorEEEcvbEv = comdat any

$_ZNSt10shared_ptrIN7rocksdb12CustomizableEEC2INS0_15MemoryAllocatorEEERKS_IT_EPS1_ = comdat any

$_ZNSt12__shared_ptrIN7rocksdb12CustomizableELN9__gnu_cxx12_Lock_policyE2EEC2INS0_15MemoryAllocatorEEERKS_IT_LS3_2EEPS1_ = comdat any

$_ZNKSt19__shared_ptr_accessIN7rocksdb12CustomizableELN9__gnu_cxx12_Lock_policyE2ELb0ELb0EE6_M_getEv = comdat any

$_ZNSt3mapINSt7__cxx1112basic_stringIcSt11char_traitsIcESaIcEEESt8weak_ptrIN7rocksdb12CustomizableEESt4lessIS5_ESaISt4pairIKS5_S9_EEE11lower_boundERSD_ = comdat any

$_ZNKSt3mapINSt7__cxx1112basic_stringIcSt11char_traitsIcESaIcEEESt8weak_ptrIN7rocksdb12CustomizableEESt4lessIS5_ESaISt4pairIKS5_S9_EEE8key_compEv = comdat any

$_ZNKSt17_Rb_tree_iteratorISt4pairIKNSt7__cxx1112basic_stringIcSt11char_traitsIcESaIcEEESt8weak_ptrIN7rocksdb12CustomizableEEEEdeEv = comdat any

$_ZNSt8_Rb_treeINSt7__cxx1112basic_stringIcSt11char_traitsIcESaIcEEESt4pairIKS5_St8weak_ptrIN7rocksdb12CustomizableEEESt10_Select1stISC_ESt4lessIS5_ESaISC_EE22_M_emplace_hint_uniqueIJRKSt21piecewise_construct_tSt5tupleIJRS7_EESN_IJEEEEESt17_Rb_tree_iteratorISC_ESt23_Rb_tree_const_iteratorISC_EDpOT_ = comdat any

$_ZNSt23_Rb_tree_const_iteratorISt4pairIKNSt7__cxx1112basic_stringIcSt11char_traitsIcESaIcEEESt8weak_ptrIN7rocksdb12CustomizableEEEEC2ERKSt17_Rb_tree_iteratorISC_E = comdat any

$_ZNSt5tupleIJRKNSt7__cxx1112basic_stringIcSt11char_traitsIcESaIcEEEEEC2ILb1ETnNSt9enable_ifIXclsr4_TCCIXT_EEE29__is_implicitly_constructibleIS7_EEEbE4typeELb1EEES7_ = comdat any

$_ZNSt8_Rb_treeINSt7__cxx1112basic_stringIcSt11char_traitsIcESaIcEEESt4pairIKS5_St8weak_ptrIN7rocksdb12CustomizableEEESt10_Select1stISC_ESt4lessIS5_ESaISC_EE11lower_boundERS7_ = comdat any

$_ZNKSt8_Rb_treeINSt7__cxx1112basic_stringIcSt11char_traitsIcESaIcEEESt4pairIKS5_St8weak_ptrIN7rocksdb12CustomizableEEESt10_Select1stISC_ESt4lessIS5_ESaISC_EE8key_compEv = comdat any

$_ZNSt8_Rb_treeINSt7__cxx1112basic_stringIcSt11char_traitsIcESaIcEEESt4pairIKS5_St8weak_ptrIN7rocksdb12CustomizableEEESt10_Select1stISC_ESt4lessIS5_ESaISC_EE10_Auto_nodeC2IJRKSt21piecewise_construct_tSt5tupleIJRS7_EESO_IJEEEEERSI_DpOT_ = comdat any

$_ZNSt8_Rb_treeINSt7__cxx1112basic_stringIcSt11char_traitsIcESaIcEEESt4pairIKS5_St8weak_ptrIN7rocksdb12CustomizableEEESt10_Select1stISC_ESt4lessIS5_ESaISC_EE29_M_get_insert_hint_unique_posESt23_Rb_tree_const_iteratorISC_ERS7_ = comdat any

$_ZNKSt8_Rb_treeINSt7__cxx1112basic_stringIcSt11char_traitsIcESaIcEEESt4pairIKS5_St8weak_ptrIN7rocksdb12CustomizableEEESt10_Select1stISC_ESt4lessIS5_ESaISC_EE10_Auto_node6_M_keyEv = comdat any

$_ZNSt8_Rb_treeINSt7__cxx1112basic_stringIcSt11char_traitsIcESaIcEEESt4pairIKS5_St8weak_ptrIN7rocksdb12CustomizableEEESt10_Select1stISC_ESt4lessIS5_ESaISC_EE10_Auto_node9_M_insertES6_IPSt18_Rb_tree_node_baseSL_E = comdat any

$_ZNSt8_Rb_treeINSt7__cxx1112basic_stringIcSt11char_traitsIcESaIcEEESt4pairIKS5_St8weak_ptrIN7rocksdb12CustomizableEEESt10_Select1stISC_ESt4lessIS5_ESaISC_EE10_Auto_nodeD2Ev = comdat any

$_ZNSt8_Rb_treeINSt7__cxx1112basic_stringIcSt11char_traitsIcESaIcEEESt4pairIKS5_St8weak_ptrIN7rocksdb12CustomizableEEESt10_Select1stISC_ESt4lessIS5_ESaISC_EE14_M_create_nodeIJRKSt21piecewise_construct_tSt5tupleIJRS7_EESN_IJEEEEEPSt13_Rb_tree_nodeISC_EDpOT_ = comdat any

$_ZNSt8_Rb_treeINSt7__cxx1112basic_stringIcSt11char_traitsIcESaIcEEESt4pairIKS5_St8weak_ptrIN7rocksdb12CustomizableEEESt10_Select1stISC_ESt4lessIS5_ESaISC_EE11_M_get_nodeEv = comdat any

$_ZNSt8_Rb_treeINSt7__cxx1112basic_stringIcSt11char_traitsIcESaIcEEESt4pairIKS5_St8weak_ptrIN7rocksdb12CustomizableEEESt10_Select1stISC_ESt4lessIS5_ESaISC_EE17_M_construct_nodeIJRKSt21piecewise_construct_tSt5tupleIJRS7_EESN_IJEEEEEvPSt13_Rb_tree_nodeISC_EDpOT_ = comdat any

$_ZNSt16allocator_traitsISaISt13_Rb_tree_nodeISt4pairIKNSt7__cxx1112basic_stringIcSt11char_traitsIcESaIcEEESt8weak_ptrIN7rocksdb12CustomizableEEEEEE8allocateERSF_m = comdat any

$_ZNSt8_Rb_treeINSt7__cxx1112basic_stringIcSt11char_traitsIcESaIcEEESt4pairIKS5_St8weak_ptrIN7rocksdb12CustomizableEEESt10_Select1stISC_ESt4lessIS5_ESaISC_EE21_M_get_Node_allocatorEv = comdat any

$_ZNSt15__new_allocatorISt13_Rb_tree_nodeISt4pairIKNSt7__cxx1112basic_stringIcSt11char_traitsIcESaIcEEESt8weak_ptrIN7rocksdb12CustomizableEEEEE8allocateEmPKv = comdat any

$_ZNKSt15__new_allocatorISt13_Rb_tree_nodeISt4pairIKNSt7__cxx1112basic_stringIcSt11char_traitsIcESaIcEEESt8weak_ptrIN7rocksdb12CustomizableEEEEE11_M_max_sizeEv = comdat any

$_ZNSt16allocator_traitsISaISt13_Rb_tree_nodeISt4pairIKNSt7__cxx1112basic_stringIcSt11char_traitsIcESaIcEEESt8weak_ptrIN7rocksdb12CustomizableEEEEEE9constructISD_JRKSt21piecewise_construct_tSt5tupleIJRS8_EESL_IJEEEEEvRSF_PT_DpOT0_ = comdat any

$_ZNSt8_Rb_treeINSt7__cxx1112basic_stringIcSt11char_traitsIcESaIcEEESt4pairIKS5_St8weak_ptrIN7rocksdb12CustomizableEEESt10_Select1stISC_ESt4lessIS5_ESaISC_EE11_M_put_nodeEPSt13_Rb_tree_nodeISC_E = comdat any

$_ZNSt15__new_allocatorISt13_Rb_tree_nodeISt4pairIKNSt7__cxx1112basic_stringIcSt11char_traitsIcESaIcEEESt8weak_ptrIN7rocksdb12CustomizableEEEEE9constructISD_JRKSt21piecewise_construct_tSt5tupleIJRS8_EESK_IJEEEEEvPT_DpOT0_ = comdat any

$_ZNSt5tupleIJRKNSt7__cxx1112basic_stringIcSt11char_traitsIcESaIcEEEEEC2EOS8_ = comdat any

$_ZNSt4pairIKNSt7__cxx1112basic_stringIcSt11char_traitsIcESaIcEEESt8weak_ptrIN7rocksdb12CustomizableEEEC2IJRS6_EJEEESt21piecewise_construct_tSt5tupleIJDpT_EESF_IJDpT0_EE = comdat any

$_ZNSt11_Tuple_implILm0EJRKNSt7__cxx1112basic_stringIcSt11char_traitsIcESaIcEEEEEC2EOS8_ = comdat any

$_ZNSt4pairIKNSt7__cxx1112basic_stringIcSt11char_traitsIcESaIcEEESt8weak_ptrIN7rocksdb12CustomizableEEEC2IJRS6_EJLm0EEJETpTnmJEEERSt5tupleIJDpT_EERSE_IJDpT1_EESt12_Index_tupleIJXspT0_EEESN_IJXspT2_EEE = comdat any

$_ZSt3getILm0EJRKNSt7__cxx1112basic_stringIcSt11char_traitsIcESaIcEEEEERNSt13tuple_elementIXT_ESt5tupleIJDpT0_EEE4typeERSC_ = comdat any

$_ZNSt8weak_ptrIN7rocksdb12CustomizableEEC2Ev = comdat any

$_ZSt12__get_helperILm0ERKNSt7__cxx1112basic_stringIcSt11char_traitsIcESaIcEEEJEERT0_RSt11_Tuple_implIXT_EJS8_DpT1_EE = comdat any

$_ZNSt11_Tuple_implILm0EJRKNSt7__cxx1112basic_stringIcSt11char_traitsIcESaIcEEEEE7_M_headERS8_ = comdat any

$_ZNSt10_Head_baseILm0ERKNSt7__cxx1112basic_stringIcSt11char_traitsIcESaIcEEELb0EE7_M_headERS8_ = comdat any

$_ZNSt10__weak_ptrIN7rocksdb12CustomizableELN9__gnu_cxx12_Lock_policyE2EEC2Ev = comdat any

$_ZNSt12__weak_countILN9__gnu_cxx12_Lock_policyE2EEC2Ev = comdat any

$_ZNSt16allocator_traitsISaISt13_Rb_tree_nodeISt4pairIKNSt7__cxx1112basic_stringIcSt11char_traitsIcESaIcEEESt8weak_ptrIN7rocksdb12CustomizableEEEEEE10deallocateERSF_PSE_m = comdat any

$_ZNSt15__new_allocatorISt13_Rb_tree_nodeISt4pairIKNSt7__cxx1112basic_stringIcSt11char_traitsIcESaIcEEESt8weak_ptrIN7rocksdb12CustomizableEEEEE10deallocateEPSE_m = comdat any

$_ZNKSt23_Rb_tree_const_iteratorISt4pairIKNSt7__cxx1112basic_stringIcSt11char_traitsIcESaIcEEESt8weak_ptrIN7rocksdb12CustomizableEEEE13_M_const_castEv = comdat any

$_ZNKSt8_Rb_treeINSt7__cxx1112basic_stringIcSt11char_traitsIcESaIcEEESt4pairIKS5_St8weak_ptrIN7rocksdb12CustomizableEEESt10_Select1stISC_ESt4lessIS5_ESaISC_EE4sizeEv = comdat any

$_ZNSt8_Rb_treeINSt7__cxx1112basic_stringIcSt11char_traitsIcESaIcEEESt4pairIKS5_St8weak_ptrIN7rocksdb12CustomizableEEESt10_Select1stISC_ESt4lessIS5_ESaISC_EE12_M_rightmostEv = comdat any

$_ZNSt4pairIPSt18_Rb_tree_node_baseS1_EC2IS1_S1_TnNSt9enable_ifIXaaclsr5_PCCPE18_ConstructiblePairIT_T0_EEclsr5_PCCPE26_ImplicitlyConvertiblePairIS5_S6_EEEbE4typeELb1EEERKS1_SA_ = comdat any

$_ZNSt8_Rb_treeINSt7__cxx1112basic_stringIcSt11char_traitsIcESaIcEEESt4pairIKS5_St8weak_ptrIN7rocksdb12CustomizableEEESt10_Select1stISC_ESt4lessIS5_ESaISC_EE24_M_get_insert_unique_posERS7_ = comdat any

$_ZNSt8_Rb_treeINSt7__cxx1112basic_stringIcSt11char_traitsIcESaIcEEESt4pairIKS5_St8weak_ptrIN7rocksdb12CustomizableEEESt10_Select1stISC_ESt4lessIS5_ESaISC_EE11_M_leftmostEv = comdat any

$_ZNSt4pairIPSt18_Rb_tree_node_baseS1_EC2IRS1_S4_TnNSt9enable_ifIXaaclsr5_PCCPE22_MoveConstructiblePairIT_T0_EEclsr5_PCCPE30_ImplicitlyMoveConvertiblePairIS6_S7_EEEbE4typeELb1EEEOS6_OS7_ = comdat any

$_ZNSt17_Rb_tree_iteratorISt4pairIKNSt7__cxx1112basic_stringIcSt11char_traitsIcESaIcEEESt8weak_ptrIN7rocksdb12CustomizableEEEEmmEv = comdat any

$_ZNSt17_Rb_tree_iteratorISt4pairIKNSt7__cxx1112basic_stringIcSt11char_traitsIcESaIcEEESt8weak_ptrIN7rocksdb12CustomizableEEEEppEv = comdat any

$_ZNSt8_Rb_treeINSt7__cxx1112basic_stringIcSt11char_traitsIcESaIcEEESt4pairIKS5_St8weak_ptrIN7rocksdb12CustomizableEEESt10_Select1stISC_ESt4lessIS5_ESaISC_EE5beginEv = comdat any

$_ZNSt4pairIPSt18_Rb_tree_node_baseS1_EC2IRPSt13_Rb_tree_nodeIS_IKNSt7__cxx1112basic_stringIcSt11char_traitsIcESaIcEEESt8weak_ptrIN7rocksdb12CustomizableEEEERS1_TnNSt9enable_ifIXaaclsr5_PCCPE22_MoveConstructiblePairIT_T0_EEclsr5_PCCPE30_ImplicitlyMoveConvertiblePairISM_SN_EEEbE4typeELb1EEEOSM_OSN_ = comdat any

$_ZNSt8_Rb_treeINSt7__cxx1112basic_stringIcSt11char_traitsIcESaIcEEESt4pairIKS5_St8weak_ptrIN7rocksdb12CustomizableEEESt10_Select1stISC_ESt4lessIS5_ESaISC_EE14_M_insert_nodeEPSt18_Rb_tree_node_baseSK_PSt13_Rb_tree_nodeISC_E = comdat any

$_ZNSt8_Rb_treeINSt7__cxx1112basic_stringIcSt11char_traitsIcESaIcEEESt4pairIKS5_St8weak_ptrIN7rocksdb12CustomizableEEESt10_Select1stISC_ESt4lessIS5_ESaISC_EE12_M_drop_nodeEPSt13_Rb_tree_nodeISC_E = comdat any

$_ZNSt8_Rb_treeINSt7__cxx1112basic_stringIcSt11char_traitsIcESaIcEEESt4pairIKS5_St8weak_ptrIN7rocksdb12CustomizableEEESt10_Select1stISC_ESt4lessIS5_ESaISC_EE15_M_destroy_nodeEPSt13_Rb_tree_nodeISC_E = comdat any

$_ZNSt16allocator_traitsISaISt13_Rb_tree_nodeISt4pairIKNSt7__cxx1112basic_stringIcSt11char_traitsIcESaIcEEESt8weak_ptrIN7rocksdb12CustomizableEEEEEE7destroyISD_EEvRSF_PT_ = comdat any

$_ZNSt15__new_allocatorISt13_Rb_tree_nodeISt4pairIKNSt7__cxx1112basic_stringIcSt11char_traitsIcESaIcEEESt8weak_ptrIN7rocksdb12CustomizableEEEEE7destroyISD_EEvPT_ = comdat any

$_ZNSt4pairIKNSt7__cxx1112basic_stringIcSt11char_traitsIcESaIcEEESt8weak_ptrIN7rocksdb12CustomizableEEED2Ev = comdat any

$_ZNSt8weak_ptrIN7rocksdb12CustomizableEED2Ev = comdat any

$_ZNSt10__weak_ptrIN7rocksdb12CustomizableELN9__gnu_cxx12_Lock_policyE2EED2Ev = comdat any

$_ZNSt12__weak_countILN9__gnu_cxx12_Lock_policyE2EED2Ev = comdat any

$_ZNSt16_Sp_counted_baseILN9__gnu_cxx12_Lock_policyE2EE15_M_weak_releaseEv = comdat any

$_ZNSt11_Tuple_implILm0EJRKNSt7__cxx1112basic_stringIcSt11char_traitsIcESaIcEEEEEC2ES7_ = comdat any

$_ZNSt10_Head_baseILm0ERKNSt7__cxx1112basic_stringIcSt11char_traitsIcESaIcEEELb0EEC2ES7_ = comdat any

$_ZNSt10__weak_ptrIN7rocksdb12CustomizableELN9__gnu_cxx12_Lock_policyE2EEaSIS1_EENSt9enable_ifIXsr20__sp_compatible_withIPT_PS1_EE5valueERS4_E4typeERKSt12__shared_ptrIS7_LS3_2EE = comdat any

$_ZNSt12__weak_countILN9__gnu_cxx12_Lock_policyE2EEaSERKSt14__shared_countILS1_2EE = comdat any

$_ZNSt16_Sp_counted_baseILN9__gnu_cxx12_Lock_policyE2EE15_M_weak_add_refEv = comdat any

$_ZNSt12__shared_ptrIN7rocksdb15MemoryAllocatorELN9__gnu_cxx12_Lock_policyE2EEaSERKS4_ = comdat any

$_ZNSt14__shared_countILN9__gnu_cxx12_Lock_policyE2EEaSERKS2_ = comdat any

$_ZNSt10_HashtableINSt7__cxx1112basic_stringIcSt11char_traitsIcESaIcEEESt4pairIKS5_S5_ESaIS8_ENSt8__detail10_Select1stESt8equal_toIS5_ESt4hashIS5_ENSA_18_Mod_range_hashingENSA_20_Default_ranged_hashENSA_20_Prime_rehash_policyENSA_17_Hashtable_traitsILb1ELb0ELb1EEEEC2ERKSL_ = comdat any

$_ZN9__gnu_cxx14__alloc_traitsISaINSt8__detail10_Hash_nodeISt4pairIKNSt7__cxx1112basic_stringIcSt11char_traitsIcESaIcEEES9_ELb1EEEESC_E17_S_select_on_copyERKSD_ = comdat any

$_ZNKSt8__detail16_Hashtable_allocISaINS_10_Hash_nodeISt4pairIKNSt7__cxx1112basic_stringIcSt11char_traitsIcESaIcEEES8_ELb1EEEEE17_M_node_allocatorEv = comdat any

$_ZNSt8__detail16_Hashtable_allocISaINS_10_Hash_nodeISt4pairIKNSt7__cxx1112basic_stringIcSt11char_traitsIcESaIcEEES8_ELb1EEEEEC2ISC_EEOT_ = comdat any

$_ZNSaINSt8__detail10_Hash_nodeISt4pairIKNSt7__cxx1112basic_stringIcSt11char_traitsIcESaIcEEES7_ELb1EEEED2Ev = comdat any

$_ZNSt8__detail10_AllocNodeISaINS_10_Hash_nodeISt4pairIKNSt7__cxx1112basic_stringIcSt11char_traitsIcESaIcEEES8_ELb1EEEEEC2ERNS_16_Hashtable_allocISC_EE = comdat any

$_ZNSt10_HashtableINSt7__cxx1112basic_stringIcSt11char_traitsIcESaIcEEESt4pairIKS5_S5_ESaIS8_ENSt8__detail10_Select1stESt8equal_toIS5_ESt4hashIS5_ENSA_18_Mod_range_hashingENSA_20_Default_ranged_hashENSA_20_Prime_rehash_policyENSA_17_Hashtable_traitsILb1ELb0ELb1EEEE9_M_assignIRKSL_NSA_10_AllocNodeISaINSA_10_Hash_nodeIS8_Lb1EEEEEEEEvOT_RKT0_ = comdat any

$_ZNSt8__detail16_Hashtable_allocISaINS_10_Hash_nodeISt4pairIKNSt7__cxx1112basic_stringIcSt11char_traitsIcESaIcEEES8_ELb1EEEEED2Ev = comdat any

$_ZNSt16allocator_traitsISaINSt8__detail10_Hash_nodeISt4pairIKNSt7__cxx1112basic_stringIcSt11char_traitsIcESaIcEEES8_ELb1EEEEE37select_on_container_copy_constructionERKSC_ = comdat any

$_ZNSaINSt8__detail10_Hash_nodeISt4pairIKNSt7__cxx1112basic_stringIcSt11char_traitsIcESaIcEEES7_ELb1EEEEC2ERKSB_ = comdat any

$_ZNSt15__new_allocatorINSt8__detail10_Hash_nodeISt4pairIKNSt7__cxx1112basic_stringIcSt11char_traitsIcESaIcEEES8_ELb1EEEEC2ERKSC_ = comdat any

$_ZNKSt8__detail21_Hashtable_ebo_helperILi0ESaINS_10_Hash_nodeISt4pairIKNSt7__cxx1112basic_stringIcSt11char_traitsIcESaIcEEES8_ELb1EEEELb1EE7_M_cgetEv = comdat any

$_ZNSt8__detail21_Hashtable_ebo_helperILi0ESaINS_10_Hash_nodeISt4pairIKNSt7__cxx1112basic_stringIcSt11char_traitsIcESaIcEEES8_ELb1EEEELb1EEC2ISC_EEOT_ = comdat any

$_ZNSt15__new_allocatorINSt8__detail10_Hash_nodeISt4pairIKNSt7__cxx1112basic_stringIcSt11char_traitsIcESaIcEEES8_ELb1EEEED2Ev = comdat any

$_ZNSt10_HashtableINSt7__cxx1112basic_stringIcSt11char_traitsIcESaIcEEESt4pairIKS5_S5_ESaIS8_ENSt8__detail10_Select1stESt8equal_toIS5_ESt4hashIS5_ENSA_18_Mod_range_hashingENSA_20_Default_ranged_hashENSA_20_Prime_rehash_policyENSA_17_Hashtable_traitsILb1ELb0ELb1EEEE19_M_allocate_bucketsEm = comdat any

$_ZNKSt10_HashtableINSt7__cxx1112basic_stringIcSt11char_traitsIcESaIcEEESt4pairIKS5_S5_ESaIS8_ENSt8__detail10_Select1stESt8equal_toIS5_ESt4hashIS5_ENSA_18_Mod_range_hashingENSA_20_Default_ranged_hashENSA_20_Prime_rehash_policyENSA_17_Hashtable_traitsILb1ELb0ELb1EEEE8_M_beginEv = comdat any

$_ZNKSt8__detail10_AllocNodeISaINS_10_Hash_nodeISt4pairIKNSt7__cxx1112basic_stringIcSt11char_traitsIcESaIcEEES8_ELb1EEEEEclIJRKSA_EEEPSB_DpOT_ = comdat any

$_ZNSt10_HashtableINSt7__cxx1112basic_stringIcSt11char_traitsIcESaIcEEESt4pairIKS5_S5_ESaIS8_ENSt8__detail10_Select1stESt8equal_toIS5_ESt4hashIS5_ENSA_18_Mod_range_hashingENSA_20_Default_ranged_hashENSA_20_Prime_rehash_policyENSA_17_Hashtable_traitsILb1ELb0ELb1EEEE15__fwd_value_forIRKSL_EENSt13__conditionalIXsr3std19is_lvalue_referenceIT_EE5valueEE4typeIRKS8_OS8_EERS8_ = comdat any

$_ZNSt8__detail21_Hash_node_value_baseISt4pairIKNSt7__cxx1112basic_stringIcSt11char_traitsIcESaIcEEES7_EE4_M_vEv = comdat any

$_ZNKSt8__detail15_Hash_code_baseINSt7__cxx1112basic_stringIcSt11char_traitsIcESaIcEEESt4pairIKS6_S6_ENS_10_Select1stESt4hashIS6_ENS_18_Mod_range_hashingENS_20_Default_ranged_hashELb1EE12_M_copy_codeERNS_21_Hash_node_code_cacheILb1EEERKSH_ = comdat any

$_ZNSt10_HashtableINSt7__cxx1112basic_stringIcSt11char_traitsIcESaIcEEESt4pairIKS5_S5_ESaIS8_ENSt8__detail10_Select1stESt8equal_toIS5_ESt4hashIS5_ENSA_18_Mod_range_hashingENSA_20_Default_ranged_hashENSA_20_Prime_rehash_policyENSA_17_Hashtable_traitsILb1ELb0ELb1EEEE16_M_update_bbeginEPNSA_10_Hash_nodeIS8_Lb1EEE = comdat any

$_ZNKSt8__detail10_Hash_nodeISt4pairIKNSt7__cxx1112basic_stringIcSt11char_traitsIcESaIcEEES7_ELb1EE7_M_nextEv = comdat any

$_ZNKSt10_HashtableINSt7__cxx1112basic_stringIcSt11char_traitsIcESaIcEEESt4pairIKS5_S5_ESaIS8_ENSt8__detail10_Select1stESt8equal_toIS5_ESt4hashIS5_ENSA_18_Mod_range_hashingENSA_20_Default_ranged_hashENSA_20_Prime_rehash_policyENSA_17_Hashtable_traitsILb1ELb0ELb1EEEE15_M_bucket_indexERKNSA_16_Hash_node_valueIS8_Lb1EEE = comdat any

$_ZNSt10_HashtableINSt7__cxx1112basic_stringIcSt11char_traitsIcESaIcEEESt4pairIKS5_S5_ESaIS8_ENSt8__detail10_Select1stESt8equal_toIS5_ESt4hashIS5_ENSA_18_Mod_range_hashingENSA_20_Default_ranged_hashENSA_20_Prime_rehash_policyENSA_17_Hashtable_traitsILb1ELb0ELb1EEEE5clearEv = comdat any

$_ZNSt10_HashtableINSt7__cxx1112basic_stringIcSt11char_traitsIcESaIcEEESt4pairIKS5_S5_ESaIS8_ENSt8__detail10_Select1stESt8equal_toIS5_ESt4hashIS5_ENSA_18_Mod_range_hashingENSA_20_Default_ranged_hashENSA_20_Prime_rehash_policyENSA_17_Hashtable_traitsILb1ELb0ELb1EEEE21_M_deallocate_bucketsEv = comdat any

$_ZNSt8__detail16_Hashtable_allocISaINS_10_Hash_nodeISt4pairIKNSt7__cxx1112basic_stringIcSt11char_traitsIcESaIcEEES8_ELb1EEEEE19_M_allocate_bucketsEm = comdat any

$_ZNSt8__detail16_Hashtable_allocISaINS_10_Hash_nodeISt4pairIKNSt7__cxx1112basic_stringIcSt11char_traitsIcESaIcEEES8_ELb1EEEEE17_M_node_allocatorEv = comdat any

$_ZNSaIPNSt8__detail15_Hash_node_baseEEC2INS_10_Hash_nodeISt4pairIKNSt7__cxx1112basic_stringIcSt11char_traitsIcESaIcEEESB_ELb1EEEEERKSaIT_E = comdat any

$_ZNSt8__detail21_Hashtable_ebo_helperILi0ESaINS_10_Hash_nodeISt4pairIKNSt7__cxx1112basic_stringIcSt11char_traitsIcESaIcEEES8_ELb1EEEELb1EE6_M_getEv = comdat any

$_ZNSt8__detail16_Hashtable_allocISaINS_10_Hash_nodeISt4pairIKNSt7__cxx1112basic_stringIcSt11char_traitsIcESaIcEEES8_ELb1EEEEE16_M_allocate_nodeIJRKSA_EEEPSB_DpOT_ = comdat any

$_ZNSt16allocator_traitsISaINSt8__detail10_Hash_nodeISt4pairIKNSt7__cxx1112basic_stringIcSt11char_traitsIcESaIcEEES8_ELb1EEEEE8allocateERSC_m = comdat any

$_ZSt12__to_addressINSt8__detail10_Hash_nodeISt4pairIKNSt7__cxx1112basic_stringIcSt11char_traitsIcESaIcEEES8_ELb1EEEEPT_SD_ = comdat any

$_ZNSt8__detail10_Hash_nodeISt4pairIKNSt7__cxx1112basic_stringIcSt11char_traitsIcESaIcEEES7_ELb1EEC2Ev = comdat any

$_ZNSt16allocator_traitsISaINSt8__detail10_Hash_nodeISt4pairIKNSt7__cxx1112basic_stringIcSt11char_traitsIcESaIcEEES8_ELb1EEEEE9constructISA_JRKSA_EEEvRSC_PT_DpOT0_ = comdat any

$_ZNSt8__detail21_Hash_node_value_baseISt4pairIKNSt7__cxx1112basic_stringIcSt11char_traitsIcESaIcEEES7_EE9_M_valptrEv = comdat any

$_ZNSt16allocator_traitsISaINSt8__detail10_Hash_nodeISt4pairIKNSt7__cxx1112basic_stringIcSt11char_traitsIcESaIcEEES8_ELb1EEEEE10deallocateERSC_PSB_m = comdat any

$_ZNSt15__new_allocatorINSt8__detail10_Hash_nodeISt4pairIKNSt7__cxx1112basic_stringIcSt11char_traitsIcESaIcEEES8_ELb1EEEE8allocateEmPKv = comdat any

$_ZNKSt15__new_allocatorINSt8__detail10_Hash_nodeISt4pairIKNSt7__cxx1112basic_stringIcSt11char_traitsIcESaIcEEES8_ELb1EEEE11_M_max_sizeEv = comdat any

$_ZNSt15__new_allocatorINSt8__detail10_Hash_nodeISt4pairIKNSt7__cxx1112basic_stringIcSt11char_traitsIcESaIcEEES8_ELb1EEEE9constructISA_JRKSA_EEEvPT_DpOT0_ = comdat any

$_ZNSt4pairIKNSt7__cxx1112basic_stringIcSt11char_traitsIcESaIcEEES5_EC2ERKS7_ = comdat any

$_ZN9__gnu_cxx16__aligned_bufferISt4pairIKNSt7__cxx1112basic_stringIcSt11char_traitsIcESaIcEEES7_EE6_M_ptrEv = comdat any

$_ZN9__gnu_cxx16__aligned_bufferISt4pairIKNSt7__cxx1112basic_stringIcSt11char_traitsIcESaIcEEES7_EE7_M_addrEv = comdat any

$_ZNSt15__new_allocatorINSt8__detail10_Hash_nodeISt4pairIKNSt7__cxx1112basic_stringIcSt11char_traitsIcESaIcEEES8_ELb1EEEE10deallocateEPSB_m = comdat any

$_ZNSt10_HashtableINSt7__cxx1112basic_stringIcSt11char_traitsIcESaIcEEESt4pairIKS5_S5_ESaIS8_ENSt8__detail10_Select1stESt8equal_toIS5_ESt4hashIS5_ENSA_18_Mod_range_hashingENSA_20_Default_ranged_hashENSA_20_Prime_rehash_policyENSA_17_Hashtable_traitsILb1ELb0ELb1EEEE16_M_update_bbeginEv = comdat any

$_ZNKSt8__detail15_Hash_code_baseINSt7__cxx1112basic_stringIcSt11char_traitsIcESaIcEEESt4pairIKS6_S6_ENS_10_Select1stESt4hashIS6_ENS_18_Mod_range_hashingENS_20_Default_ranged_hashELb1EE15_M_bucket_indexERKNS_16_Hash_node_valueIS9_Lb1EEEm = comdat any

$_ZNSt8__detail16_Hashtable_allocISaINS_10_Hash_nodeISt4pairIKNSt7__cxx1112basic_stringIcSt11char_traitsIcESaIcEEES8_ELb1EEEEE19_M_deallocate_nodesEPSB_ = comdat any

$_ZNSt8__detail16_Hashtable_allocISaINS_10_Hash_nodeISt4pairIKNSt7__cxx1112basic_stringIcSt11char_traitsIcESaIcEEES8_ELb1EEEEE18_M_deallocate_nodeEPSB_ = comdat any

$_ZNSt16allocator_traitsISaINSt8__detail10_Hash_nodeISt4pairIKNSt7__cxx1112basic_stringIcSt11char_traitsIcESaIcEEES8_ELb1EEEEE7destroyISA_EEvRSC_PT_ = comdat any

$_ZNSt8__detail16_Hashtable_allocISaINS_10_Hash_nodeISt4pairIKNSt7__cxx1112basic_stringIcSt11char_traitsIcESaIcEEES8_ELb1EEEEE22_M_deallocate_node_ptrEPSB_ = comdat any

$_ZNSt15__new_allocatorINSt8__detail10_Hash_nodeISt4pairIKNSt7__cxx1112basic_stringIcSt11char_traitsIcESaIcEEES8_ELb1EEEE7destroyISA_EEvPT_ = comdat any

$_ZNSt4pairIKNSt7__cxx1112basic_stringIcSt11char_traitsIcESaIcEEES5_ED2Ev = comdat any

$_ZNSt19__ptr_traits_ptr_toIPNSt8__detail10_Hash_nodeISt4pairIKNSt7__cxx1112basic_stringIcSt11char_traitsIcESaIcEEES8_ELb1EEESB_Lb0EE10pointer_toERSB_ = comdat any

$_ZNSt10_HashtableINSt7__cxx1112basic_stringIcSt11char_traitsIcESaIcEEESt4pairIKS5_S5_ESaIS8_ENSt8__detail10_Select1stESt8equal_toIS5_ESt4hashIS5_ENSA_18_Mod_range_hashingENSA_20_Default_ranged_hashENSA_20_Prime_rehash_policyENSA_17_Hashtable_traitsILb1ELb0ELb1EEEE21_M_deallocate_bucketsEPPNSA_15_Hash_node_baseEm = comdat any

$_ZNKSt10_HashtableINSt7__cxx1112basic_stringIcSt11char_traitsIcESaIcEEESt4pairIKS5_S5_ESaIS8_ENSt8__detail10_Select1stESt8equal_toIS5_ESt4hashIS5_ENSA_18_Mod_range_hashingENSA_20_Default_ranged_hashENSA_20_Prime_rehash_policyENSA_17_Hashtable_traitsILb1ELb0ELb1EEEE21_M_uses_single_bucketEPPNSA_15_Hash_node_baseE = comdat any

$_ZNSt8__detail16_Hashtable_allocISaINS_10_Hash_nodeISt4pairIKNSt7__cxx1112basic_stringIcSt11char_traitsIcESaIcEEES8_ELb1EEEEE21_M_deallocate_bucketsEPPNS_15_Hash_node_baseEm = comdat any

$_ZNSt8__detail21_Hashtable_ebo_helperILi0ESaINS_10_Hash_nodeISt4pairIKNSt7__cxx1112basic_stringIcSt11char_traitsIcESaIcEEES8_ELb1EEEELb1EED2Ev = comdat any

$_ZNSt10unique_ptrIA_KcSt14default_deleteIS1_EED2Ev = comdat any

$_ZNSt10unique_ptrIA_KcSt14default_deleteIS1_EE11get_deleterEv = comdat any

$_ZNSt10_HashtableINSt7__cxx1112basic_stringIcSt11char_traitsIcESaIcEEESt4pairIKS5_S5_ESaIS8_ENSt8__detail10_Select1stESt8equal_toIS5_ESt4hashIS5_ENSA_18_Mod_range_hashingENSA_20_Default_ranged_hashENSA_20_Prime_rehash_policyENSA_17_Hashtable_traitsILb1ELb0ELb1EEEED2Ev = comdat any

$_ZNKSt19__shared_ptr_accessIN7rocksdb15MemoryAllocatorELN9__gnu_cxx12_Lock_policyE2ELb0ELb0EEptEv = comdat any

$_ZNKSt19__shared_ptr_accessIN7rocksdb15MemoryAllocatorELN9__gnu_cxx12_Lock_policyE2ELb0ELb0EE6_M_getEv = comdat any

$_ZTVN7rocksdb22MemoryAllocatorWrapperE = comdat any

$_ZTVN7rocksdb15MemoryAllocatorE = comdat any

$_ZTVN7rocksdb13ObjectLibrary5EntryE = comdat any

$_ZTVN7rocksdb13ObjectLibrary12FactoryEntryINS_15MemoryAllocatorEEE = comdat any

$_ZSt19piecewise_construct = comdat any

$_ZTVN7rocksdb22DefaultMemoryAllocatorE = comdat any

$_ZTVSt23_Sp_counted_ptr_inplaceIN7rocksdb22DefaultMemoryAllocatorESaIvELN9__gnu_cxx12_Lock_policyE2EE = comdat any

$_ZTVSt16_Sp_counted_baseILN9__gnu_cxx12_Lock_policyE2EE = comdat any

$_ZZNSt19_Sp_make_shared_tag5_S_tiEvE5__tag = comdat any

$_ZTVN7rocksdb22CountedMemoryAllocatorE = comdat any

$_ZTVN7rocksdb19BaseMemoryAllocatorE = comdat any

$_ZTVSt15_Sp_counted_ptrIPN7rocksdb15MemoryAllocatorELN9__gnu_cxx12_Lock_policyE2EE = comdat any

@_ZN7rocksdb12_GLOBAL__N_120ma_wrapper_type_infoB5cxx11E = internal global %"class.std::unordered_map" zeroinitializer, align 8
@.str = private unnamed_addr constant [7 x i8] c"target\00", align 1
@__dso_handle = external hidden global i8
@_ZTVN7rocksdb22MemoryAllocatorWrapperE = linkonce_odr unnamed_addr constant { [24 x ptr] } { [24 x ptr] [ptr null, ptr null, ptr @_ZN7rocksdb22MemoryAllocatorWrapperD2Ev, ptr @_ZN7rocksdb22MemoryAllocatorWrapperD0Ev, ptr @_ZNK7rocksdb12Customizable9GetOptionERKNS_13ConfigOptionsERKNSt7__cxx1112basic_stringIcSt11char_traitsIcESaIcEEEPS9_, ptr @_ZNK7rocksdb12Customizable13AreEquivalentERKNS_13ConfigOptionsEPKNS_12ConfigurableEPNSt7__cxx1112basic_stringIcSt11char_traitsIcESaIcEEE, ptr @_ZNK7rocksdb12Configurable19GetPrintableOptionsB5cxx11Ev, ptr @_ZN7rocksdb12Configurable14PrepareOptionsERKNS_13ConfigOptionsE, ptr @_ZNK7rocksdb12Configurable15ValidateOptionsERKNS_9DBOptionsERKNS_19ColumnFamilyOptionsE, ptr @_ZNK7rocksdb12Customizable13GetOptionsPtrERKNSt7__cxx1112basic_stringIcSt11char_traitsIcESaIcEEE, ptr @_ZN7rocksdb12Configurable18ParseStringOptionsERKNS_13ConfigOptionsERKNSt7__cxx1112basic_stringIcSt11char_traitsIcESaIcEEE, ptr @_ZN7rocksdb12Configurable16ConfigureOptionsERKNS_13ConfigOptionsERKSt13unordered_mapINSt7__cxx1112basic_stringIcSt11char_traitsIcESaIcEEESA_St4hashISA_ESt8equal_toISA_ESaISt4pairIKSA_SA_EEEPSJ_, ptr @_ZN7rocksdb12Configurable11ParseOptionERKNS_13ConfigOptionsERKNS_14OptionTypeInfoERKNSt7__cxx1112basic_stringIcSt11char_traitsIcESaIcEEESE_Pv, ptr @_ZNK7rocksdb12Configurable15OptionsAreEqualERKNS_13ConfigOptionsERKNS_14OptionTypeInfoERKNSt7__cxx1112basic_stringIcSt11char_traitsIcESaIcEEEPKvSG_PSC_, ptr @_ZNK7rocksdb12Customizable16SerializeOptionsERKNS_13ConfigOptionsERKNSt7__cxx1112basic_stringIcSt11char_traitsIcESaIcEEE, ptr @_ZNK7rocksdb12Customizable13GetOptionNameERKNSt7__cxx1112basic_stringIcSt11char_traitsIcESaIcEEE, ptr @__cxa_pure_virtual, ptr @_ZNK7rocksdb15MemoryAllocator5GetIdB5cxx11Ev, ptr @_ZNK7rocksdb12Customizable12IsInstanceOfERKNSt7__cxx1112basic_stringIcSt11char_traitsIcESaIcEEE, ptr @_ZNK7rocksdb22MemoryAllocatorWrapper5InnerEv, ptr @_ZNK7rocksdb12Customizable8NickNameEv, ptr @_ZN7rocksdb22MemoryAllocatorWrapper8AllocateEm, ptr @_ZN7rocksdb22MemoryAllocatorWrapper10DeallocateEPv, ptr @_ZNK7rocksdb22MemoryAllocatorWrapper10UsableSizeEPvm] }, comdat, align 8
@.str.1 = private unnamed_addr constant [1 x i8] zeroinitializer, align 1
@_ZZN7rocksdb15MemoryAllocator16CreateFromStringERKNS_13ConfigOptionsERKNSt7__cxx1112basic_stringIcSt11char_traitsIcESaIcEEEPSt10shared_ptrIS0_EE4once = internal global %"struct.std::once_flag" zeroinitializer, align 4
@_ZTVN7rocksdb15MemoryAllocatorE = linkonce_odr unnamed_addr constant { [24 x ptr] } { [24 x ptr] [ptr null, ptr null, ptr @_ZN7rocksdb15MemoryAllocatorD2Ev, ptr @_ZN7rocksdb15MemoryAllocatorD0Ev, ptr @_ZNK7rocksdb12Customizable9GetOptionERKNS_13ConfigOptionsERKNSt7__cxx1112basic_stringIcSt11char_traitsIcESaIcEEEPS9_, ptr @_ZNK7rocksdb12Customizable13AreEquivalentERKNS_13ConfigOptionsEPKNS_12ConfigurableEPNSt7__cxx1112basic_stringIcSt11char_traitsIcESaIcEEE, ptr @_ZNK7rocksdb12Configurable19GetPrintableOptionsB5cxx11Ev, ptr @_ZN7rocksdb12Configurable14PrepareOptionsERKNS_13ConfigOptionsE, ptr @_ZNK7rocksdb12Configurable15ValidateOptionsERKNS_9DBOptionsERKNS_19ColumnFamilyOptionsE, ptr @_ZNK7rocksdb12Customizable13GetOptionsPtrERKNSt7__cxx1112basic_stringIcSt11char_traitsIcESaIcEEE, ptr @_ZN7rocksdb12Configurable18ParseStringOptionsERKNS_13ConfigOptionsERKNSt7__cxx1112basic_stringIcSt11char_traitsIcESaIcEEE, ptr @_ZN7rocksdb12Configurable16ConfigureOptionsERKNS_13ConfigOptionsERKSt13unordered_mapINSt7__cxx1112basic_stringIcSt11char_traitsIcESaIcEEESA_St4hashISA_ESt8equal_toISA_ESaISt4pairIKSA_SA_EEEPSJ_, ptr @_ZN7rocksdb12Configurable11ParseOptionERKNS_13ConfigOptionsERKNS_14OptionTypeInfoERKNSt7__cxx1112basic_stringIcSt11char_traitsIcESaIcEEESE_Pv, ptr @_ZNK7rocksdb12Configurable15OptionsAreEqualERKNS_13ConfigOptionsERKNS_14OptionTypeInfoERKNSt7__cxx1112basic_stringIcSt11char_traitsIcESaIcEEEPKvSG_PSC_, ptr @_ZNK7rocksdb12Customizable16SerializeOptionsERKNS_13ConfigOptionsERKNSt7__cxx1112basic_stringIcSt11char_traitsIcESaIcEEE, ptr @_ZNK7rocksdb12Customizable13GetOptionNameERKNSt7__cxx1112basic_stringIcSt11char_traitsIcESaIcEEE, ptr @__cxa_pure_virtual, ptr @_ZNK7rocksdb15MemoryAllocator5GetIdB5cxx11Ev, ptr @_ZNK7rocksdb12Customizable12IsInstanceOfERKNSt7__cxx1112basic_stringIcSt11char_traitsIcESaIcEEE, ptr @_ZNK7rocksdb12Customizable5InnerEv, ptr @_ZNK7rocksdb12Customizable8NickNameEv, ptr @__cxa_pure_virtual, ptr @__cxa_pure_virtual, ptr @_ZNK7rocksdb15MemoryAllocator10UsableSizeEPvm] }, comdat, align 8
@_ZTVN7rocksdb12CustomizableE = external unnamed_addr constant { [21 x ptr] }, align 8
@_ZTVN7rocksdb12ConfigurableE = external unnamed_addr constant { [16 x ptr] }, align 8
@__libc_single_threaded = external global i8, align 1
@.str.2 = private unnamed_addr constant [50 x i8] c"basic_string: construction from null is not valid\00", align 1
@.str.3 = private unnamed_addr constant [3 x i8] c"id\00", align 1
@_ZSt15__once_callable = external thread_local global ptr, align 8
@_ZSt11__once_call = external thread_local global ptr, align 8
@_ZTVN7rocksdb13ObjectLibrary12PatternEntryE = external unnamed_addr constant { [6 x ptr] }, align 8
@_ZTVN7rocksdb13ObjectLibrary5EntryE = linkonce_odr unnamed_addr constant { [6 x ptr] } { [6 x ptr] [ptr null, ptr null, ptr @_ZN7rocksdb13ObjectLibrary5EntryD2Ev, ptr @_ZN7rocksdb13ObjectLibrary5EntryD0Ev, ptr @__cxa_pure_virtual, ptr @__cxa_pure_virtual] }, comdat, align 8
@_ZTVN7rocksdb13ObjectLibrary12FactoryEntryINS_15MemoryAllocatorEEE = linkonce_odr unnamed_addr constant { [6 x ptr] } { [6 x ptr] [ptr null, ptr null, ptr @_ZN7rocksdb13ObjectLibrary12FactoryEntryINS_15MemoryAllocatorEED2Ev, ptr @_ZN7rocksdb13ObjectLibrary12FactoryEntryINS_15MemoryAllocatorEED0Ev, ptr @_ZNK7rocksdb13ObjectLibrary12FactoryEntryINS_15MemoryAllocatorEE7MatchesERKNSt7__cxx1112basic_stringIcSt11char_traitsIcESaIcEEE, ptr @_ZNK7rocksdb13ObjectLibrary12FactoryEntryINS_15MemoryAllocatorEE4NameEv] }, comdat, align 8
@_ZSt19piecewise_construct = linkonce_odr constant %"struct.std::piecewise_construct_t" zeroinitializer, comdat, align 1
@.str.4 = private unnamed_addr constant [26 x i8] c"vector::_M_realloc_insert\00", align 1
@.str.5 = private unnamed_addr constant [16 x i8] c"MemoryAllocator\00", align 1
@.str.6 = private unnamed_addr constant [23 x i8] c"DefaultMemoryAllocator\00", align 1
@_ZTVN7rocksdb22DefaultMemoryAllocatorE = linkonce_odr unnamed_addr constant { [24 x ptr] } { [24 x ptr] [ptr null, ptr null, ptr @_ZN7rocksdb22DefaultMemoryAllocatorD2Ev, ptr @_ZN7rocksdb22DefaultMemoryAllocatorD0Ev, ptr @_ZNK7rocksdb12Customizable9GetOptionERKNS_13ConfigOptionsERKNSt7__cxx1112basic_stringIcSt11char_traitsIcESaIcEEEPS9_, ptr @_ZNK7rocksdb12Customizable13AreEquivalentERKNS_13ConfigOptionsEPKNS_12ConfigurableEPNSt7__cxx1112basic_stringIcSt11char_traitsIcESaIcEEE, ptr @_ZNK7rocksdb12Configurable19GetPrintableOptionsB5cxx11Ev, ptr @_ZN7rocksdb12Configurable14PrepareOptionsERKNS_13ConfigOptionsE, ptr @_ZNK7rocksdb12Configurable15ValidateOptionsERKNS_9DBOptionsERKNS_19ColumnFamilyOptionsE, ptr @_ZNK7rocksdb12Customizable13GetOptionsPtrERKNSt7__cxx1112basic_stringIcSt11char_traitsIcESaIcEEE, ptr @_ZN7rocksdb12Configurable18ParseStringOptionsERKNS_13ConfigOptionsERKNSt7__cxx1112basic_stringIcSt11char_traitsIcESaIcEEE, ptr @_ZN7rocksdb12Configurable16ConfigureOptionsERKNS_13ConfigOptionsERKSt13unordered_mapINSt7__cxx1112basic_stringIcSt11char_traitsIcESaIcEEESA_St4hashISA_ESt8equal_toISA_ESaISt4pairIKSA_SA_EEEPSJ_, ptr @_ZN7rocksdb12Configurable11ParseOptionERKNS_13ConfigOptionsERKNS_14OptionTypeInfoERKNSt7__cxx1112basic_stringIcSt11char_traitsIcESaIcEEESE_Pv, ptr @_ZNK7rocksdb12Configurable15OptionsAreEqualERKNS_13ConfigOptionsERKNS_14OptionTypeInfoERKNSt7__cxx1112basic_stringIcSt11char_traitsIcESaIcEEEPKvSG_PSC_, ptr @_ZNK7rocksdb12Customizable16SerializeOptionsERKNS_13ConfigOptionsERKNSt7__cxx1112basic_stringIcSt11char_traitsIcESaIcEEE, ptr @_ZNK7rocksdb12Customizable13GetOptionNameERKNSt7__cxx1112basic_stringIcSt11char_traitsIcESaIcEEE, ptr @_ZNK7rocksdb22DefaultMemoryAllocator4NameEv, ptr @_ZNK7rocksdb15MemoryAllocator5GetIdB5cxx11Ev, ptr @_ZNK7rocksdb12Customizable12IsInstanceOfERKNSt7__cxx1112basic_stringIcSt11char_traitsIcESaIcEEE, ptr @_ZNK7rocksdb12Customizable5InnerEv, ptr @_ZNK7rocksdb12Customizable8NickNameEv, ptr @_ZN7rocksdb22DefaultMemoryAllocator8AllocateEm, ptr @_ZN7rocksdb22DefaultMemoryAllocator10DeallocateEPv, ptr @_ZNK7rocksdb15MemoryAllocator10UsableSizeEPvm] }, comdat, align 8
@.str.7 = private unnamed_addr constant [23 x i8] c"CountedMemoryAllocator\00", align 1
@_ZTVSt23_Sp_counted_ptr_inplaceIN7rocksdb22DefaultMemoryAllocatorESaIvELN9__gnu_cxx12_Lock_policyE2EE = linkonce_odr unnamed_addr constant { [7 x ptr] } { [7 x ptr] [ptr null, ptr null, ptr @_ZNSt23_Sp_counted_ptr_inplaceIN7rocksdb22DefaultMemoryAllocatorESaIvELN9__gnu_cxx12_Lock_policyE2EED2Ev, ptr @_ZNSt23_Sp_counted_ptr_inplaceIN7rocksdb22DefaultMemoryAllocatorESaIvELN9__gnu_cxx12_Lock_policyE2EED0Ev, ptr @_ZNSt23_Sp_counted_ptr_inplaceIN7rocksdb22DefaultMemoryAllocatorESaIvELN9__gnu_cxx12_Lock_policyE2EE10_M_disposeEv, ptr @_ZNSt23_Sp_counted_ptr_inplaceIN7rocksdb22DefaultMemoryAllocatorESaIvELN9__gnu_cxx12_Lock_policyE2EE10_M_destroyEv, ptr @_ZNSt23_Sp_counted_ptr_inplaceIN7rocksdb22DefaultMemoryAllocatorESaIvELN9__gnu_cxx12_Lock_policyE2EE14_M_get_deleterERKSt9type_info] }, comdat, align 8
@_ZTVSt16_Sp_counted_baseILN9__gnu_cxx12_Lock_policyE2EE = linkonce_odr unnamed_addr constant { [7 x ptr] } { [7 x ptr] [ptr null, ptr null, ptr @_ZNSt16_Sp_counted_baseILN9__gnu_cxx12_Lock_policyE2EED2Ev, ptr @_ZNSt16_Sp_counted_baseILN9__gnu_cxx12_Lock_policyE2EED0Ev, ptr @__cxa_pure_virtual, ptr @_ZNSt16_Sp_counted_baseILN9__gnu_cxx12_Lock_policyE2EE10_M_destroyEv, ptr @__cxa_pure_virtual] }, comdat, align 8
@_ZZNSt19_Sp_make_shared_tag5_S_tiEvE5__tag = linkonce_odr constant [16 x i8] zeroinitializer, comdat, align 8
@_ZTVN7rocksdb22CountedMemoryAllocatorE = linkonce_odr unnamed_addr constant { [24 x ptr] } { [24 x ptr] [ptr null, ptr null, ptr @_ZN7rocksdb22CountedMemoryAllocatorD2Ev, ptr @_ZN7rocksdb22CountedMemoryAllocatorD0Ev, ptr @_ZNK7rocksdb12Customizable9GetOptionERKNS_13ConfigOptionsERKNSt7__cxx1112basic_stringIcSt11char_traitsIcESaIcEEEPS9_, ptr @_ZNK7rocksdb12Customizable13AreEquivalentERKNS_13ConfigOptionsEPKNS_12ConfigurableEPNSt7__cxx1112basic_stringIcSt11char_traitsIcESaIcEEE, ptr @_ZNK7rocksdb12Configurable19GetPrintableOptionsB5cxx11Ev, ptr @_ZN7rocksdb12Configurable14PrepareOptionsERKNS_13ConfigOptionsE, ptr @_ZNK7rocksdb12Configurable15ValidateOptionsERKNS_9DBOptionsERKNS_19ColumnFamilyOptionsE, ptr @_ZNK7rocksdb12Customizable13GetOptionsPtrERKNSt7__cxx1112basic_stringIcSt11char_traitsIcESaIcEEE, ptr @_ZN7rocksdb12Configurable18ParseStringOptionsERKNS_13ConfigOptionsERKNSt7__cxx1112basic_stringIcSt11char_traitsIcESaIcEEE, ptr @_ZN7rocksdb12Configurable16ConfigureOptionsERKNS_13ConfigOptionsERKSt13unordered_mapINSt7__cxx1112basic_stringIcSt11char_traitsIcESaIcEEESA_St4hashISA_ESt8equal_toISA_ESaISt4pairIKSA_SA_EEEPSJ_, ptr @_ZN7rocksdb12Configurable11ParseOptionERKNS_13ConfigOptionsERKNS_14OptionTypeInfoERKNSt7__cxx1112basic_stringIcSt11char_traitsIcESaIcEEESE_Pv, ptr @_ZNK7rocksdb12Configurable15OptionsAreEqualERKNS_13ConfigOptionsERKNS_14OptionTypeInfoERKNSt7__cxx1112basic_stringIcSt11char_traitsIcESaIcEEEPKvSG_PSC_, ptr @_ZNK7rocksdb12Customizable16SerializeOptionsERKNS_13ConfigOptionsERKNSt7__cxx1112basic_stringIcSt11char_traitsIcESaIcEEE, ptr @_ZNK7rocksdb12Customizable13GetOptionNameERKNSt7__cxx1112basic_stringIcSt11char_traitsIcESaIcEEE, ptr @_ZNK7rocksdb22CountedMemoryAllocator4NameEv, ptr @_ZNK7rocksdb22CountedMemoryAllocator5GetIdB5cxx11Ev, ptr @_ZNK7rocksdb12Customizable12IsInstanceOfERKNSt7__cxx1112basic_stringIcSt11char_traitsIcESaIcEEE, ptr @_ZNK7rocksdb22MemoryAllocatorWrapper5InnerEv, ptr @_ZNK7rocksdb12Customizable8NickNameEv, ptr @_ZN7rocksdb22CountedMemoryAllocator8AllocateEm, ptr @_ZN7rocksdb22CountedMemoryAllocator10DeallocateEPv, ptr @_ZNK7rocksdb22MemoryAllocatorWrapper10UsableSizeEPvm] }, comdat, align 8
@.str.8 = private unnamed_addr constant [24 x i8] c"JemallocNodumpAllocator\00", align 1
@.str.9 = private unnamed_addr constant [21 x i8] c"MemkindKmemAllocator\00", align 1
@.str.10 = private unnamed_addr constant [26 x i8] c"Not compiled with MemKind\00", align 1
@_ZTVN7rocksdb20MemkindKmemAllocatorE = external unnamed_addr constant { [24 x ptr] }, align 8
@_ZTVN7rocksdb19BaseMemoryAllocatorE = linkonce_odr unnamed_addr constant { [24 x ptr] } { [24 x ptr] [ptr null, ptr null, ptr @_ZN7rocksdb19BaseMemoryAllocatorD2Ev, ptr @_ZN7rocksdb19BaseMemoryAllocatorD0Ev, ptr @_ZNK7rocksdb12Customizable9GetOptionERKNS_13ConfigOptionsERKNSt7__cxx1112basic_stringIcSt11char_traitsIcESaIcEEEPS9_, ptr @_ZNK7rocksdb12Customizable13AreEquivalentERKNS_13ConfigOptionsEPKNS_12ConfigurableEPNSt7__cxx1112basic_stringIcSt11char_traitsIcESaIcEEE, ptr @_ZNK7rocksdb12Configurable19GetPrintableOptionsB5cxx11Ev, ptr @_ZN7rocksdb12Configurable14PrepareOptionsERKNS_13ConfigOptionsE, ptr @_ZNK7rocksdb12Configurable15ValidateOptionsERKNS_9DBOptionsERKNS_19ColumnFamilyOptionsE, ptr @_ZNK7rocksdb12Customizable13GetOptionsPtrERKNSt7__cxx1112basic_stringIcSt11char_traitsIcESaIcEEE, ptr @_ZN7rocksdb12Configurable18ParseStringOptionsERKNS_13ConfigOptionsERKNSt7__cxx1112basic_stringIcSt11char_traitsIcESaIcEEE, ptr @_ZN7rocksdb12Configurable16ConfigureOptionsERKNS_13ConfigOptionsERKSt13unordered_mapINSt7__cxx1112basic_stringIcSt11char_traitsIcESaIcEEESA_St4hashISA_ESt8equal_toISA_ESaISt4pairIKSA_SA_EEEPSJ_, ptr @_ZN7rocksdb12Configurable11ParseOptionERKNS_13ConfigOptionsERKNS_14OptionTypeInfoERKNSt7__cxx1112basic_stringIcSt11char_traitsIcESaIcEEESE_Pv, ptr @_ZNK7rocksdb12Configurable15OptionsAreEqualERKNS_13ConfigOptionsERKNS_14OptionTypeInfoERKNSt7__cxx1112basic_stringIcSt11char_traitsIcESaIcEEEPKvSG_PSC_, ptr @_ZNK7rocksdb12Customizable16SerializeOptionsERKNS_13ConfigOptionsERKNSt7__cxx1112basic_stringIcSt11char_traitsIcESaIcEEE, ptr @_ZNK7rocksdb12Customizable13GetOptionNameERKNSt7__cxx1112basic_stringIcSt11char_traitsIcESaIcEEE, ptr @__cxa_pure_virtual, ptr @_ZNK7rocksdb15MemoryAllocator5GetIdB5cxx11Ev, ptr @_ZNK7rocksdb12Customizable12IsInstanceOfERKNSt7__cxx1112basic_stringIcSt11char_traitsIcESaIcEEE, ptr @_ZNK7rocksdb12Customizable5InnerEv, ptr @_ZNK7rocksdb12Customizable8NickNameEv, ptr @_ZN7rocksdb19BaseMemoryAllocator8AllocateEm, ptr @_ZN7rocksdb19BaseMemoryAllocator10DeallocateEPv, ptr @_ZNK7rocksdb15MemoryAllocator10UsableSizeEPvm] }, comdat, align 8
@.str.11 = private unnamed_addr constant [21 x i8] c"Cannot reset object \00", align 1
@.str.12 = private unnamed_addr constant [4 x i8] c"://\00", align 1
@.str.13 = private unnamed_addr constant [22 x i8] c"Cannot make a shared \00", align 1
@.str.14 = private unnamed_addr constant [21 x i8] c" from unguarded one \00", align 1
@.str.15 = private unnamed_addr constant [16 x i8] c"Could not load \00", align 1
@_ZTVSt15_Sp_counted_ptrIPN7rocksdb15MemoryAllocatorELN9__gnu_cxx12_Lock_policyE2EE = linkonce_odr unnamed_addr constant { [7 x ptr] } { [7 x ptr] [ptr null, ptr null, ptr @_ZNSt15_Sp_counted_ptrIPN7rocksdb15MemoryAllocatorELN9__gnu_cxx12_Lock_policyE2EED2Ev, ptr @_ZNSt15_Sp_counted_ptrIPN7rocksdb15MemoryAllocatorELN9__gnu_cxx12_Lock_policyE2EED0Ev, ptr @_ZNSt15_Sp_counted_ptrIPN7rocksdb15MemoryAllocatorELN9__gnu_cxx12_Lock_policyE2EE10_M_disposeEv, ptr @_ZNSt15_Sp_counted_ptrIPN7rocksdb15MemoryAllocatorELN9__gnu_cxx12_Lock_policyE2EE10_M_destroyEv, ptr @_ZNSt15_Sp_counted_ptrIPN7rocksdb15MemoryAllocatorELN9__gnu_cxx12_Lock_policyE2EE14_M_get_deleterERKSt9type_info] }, comdat, align 8
@llvm.global_ctors = appending global [1 x { i32, ptr, ptr }] [{ i32, ptr, ptr } { i32 65535, ptr @_GLOBAL__sub_I_memory_allocator.cc, ptr null }]

; Function Attrs: uwtable
define internal void @__cxx_global_var_init() #0 section ".text.startup" personality ptr @__gxx_personality_v0 {
entry:
  %agg.tmp = alloca %"class.std::initializer_list", align 8
  %ref.tmp = alloca [1 x %"struct.std::pair"], align 8
  %arrayinit.endOfInit = alloca ptr, align 8
  %ref.tmp1 = alloca %"class.rocksdb::OptionTypeInfo", align 8
  %exn.slot = alloca ptr, align 8
  %ehselector.slot = alloca i32, align 4
  %cleanup.isactive = alloca i1, align 1
  %ref.tmp4 = alloca %"struct.std::hash", align 1
  %ref.tmp5 = alloca %"struct.std::equal_to", align 1
  %ref.tmp6 = alloca %"class.std::allocator.13", align 1
  %arrayinit.begin = getelementptr inbounds [1 x %"struct.std::pair"], ptr %ref.tmp, i64 0, i64 0
  store i1 true, ptr %cleanup.isactive, align 1
  store ptr %arrayinit.begin, ptr %arrayinit.endOfInit, align 8
  invoke void @_ZN7rocksdb14OptionTypeInfo17AsCustomSharedPtrINS_15MemoryAllocatorEEES0_iNS_22OptionVerificationTypeENS_15OptionTypeFlagsE(ptr sret(%"class.rocksdb::OptionTypeInfo") align 8 %ref.tmp1, i32 noundef 0, i32 noundef 1, i32 noundef 0)
          to label %invoke.cont unwind label %lpad

invoke.cont:                                      ; preds = %entry
  invoke void @_ZNSt4pairIKNSt7__cxx1112basic_stringIcSt11char_traitsIcESaIcEEEN7rocksdb14OptionTypeInfoEEC2IRA7_KcS8_TnNSt9enable_ifIXaaclsr5_PCCPE22_MoveConstructiblePairIT_T0_EEclsr5_PCCPE30_ImplicitlyMoveConvertiblePairISF_SG_EEEbE4typeELb1EEEOSF_OSG_(ptr noundef nonnull align 8 dereferenceable(216) %arrayinit.begin, ptr noundef nonnull align 1 dereferenceable(7) @.str, ptr noundef nonnull align 8 dereferenceable(180) %ref.tmp1)
          to label %invoke.cont3 unwind label %lpad2

invoke.cont3:                                     ; preds = %invoke.cont
  store i1 false, ptr %cleanup.isactive, align 1
  %_M_array = getelementptr inbounds %"class.std::initializer_list", ptr %agg.tmp, i32 0, i32 0
  %arraystart = getelementptr inbounds [1 x %"struct.std::pair"], ptr %ref.tmp, i64 0, i64 0
  store ptr %arraystart, ptr %_M_array, align 8
  %_M_len = getelementptr inbounds %"class.std::initializer_list", ptr %agg.tmp, i32 0, i32 1
  store i64 1, ptr %_M_len, align 8
  call void @_ZNSaISt4pairIKNSt7__cxx1112basic_stringIcSt11char_traitsIcESaIcEEEN7rocksdb14OptionTypeInfoEEEC2Ev(ptr noundef nonnull align 1 dereferenceable(1) %ref.tmp6) #3
  %0 = getelementptr inbounds { ptr, i64 }, ptr %agg.tmp, i32 0, i32 0
  %1 = load ptr, ptr %0, align 8
  %2 = getelementptr inbounds { ptr, i64 }, ptr %agg.tmp, i32 0, i32 1
  %3 = load i64, ptr %2, align 8
  invoke void @_ZNSt13unordered_mapINSt7__cxx1112basic_stringIcSt11char_traitsIcESaIcEEEN7rocksdb14OptionTypeInfoESt4hashIS5_ESt8equal_toIS5_ESaISt4pairIKS5_S7_EEEC2ESt16initializer_listISE_EmRKS9_RKSB_RKSF_(ptr noundef nonnull align 8 dereferenceable(56) @_ZN7rocksdb12_GLOBAL__N_120ma_wrapper_type_infoB5cxx11E, ptr %1, i64 %3, i64 noundef 0, ptr noundef nonnull align 1 dereferenceable(1) %ref.tmp4, ptr noundef nonnull align 1 dereferenceable(1) %ref.tmp5, ptr noundef nonnull align 1 dereferenceable(1) %ref.tmp6)
          to label %invoke.cont8 unwind label %lpad7

invoke.cont8:                                     ; preds = %invoke.cont3
  call void @_ZNSaISt4pairIKNSt7__cxx1112basic_stringIcSt11char_traitsIcESaIcEEEN7rocksdb14OptionTypeInfoEEED2Ev(ptr noundef nonnull align 1 dereferenceable(1) %ref.tmp6) #3
  %array.begin = getelementptr inbounds [1 x %"struct.std::pair"], ptr %ref.tmp, i32 0, i32 0
  %4 = getelementptr inbounds %"struct.std::pair", ptr %array.begin, i64 1
  br label %arraydestroy.body

arraydestroy.body:                                ; preds = %arraydestroy.body, %invoke.cont8
  %arraydestroy.elementPast = phi ptr [ %4, %invoke.cont8 ], [ %arraydestroy.element, %arraydestroy.body ]
  %arraydestroy.element = getelementptr inbounds %"struct.std::pair", ptr %arraydestroy.elementPast, i64 -1
  call void @_ZNSt4pairIKNSt7__cxx1112basic_stringIcSt11char_traitsIcESaIcEEEN7rocksdb14OptionTypeInfoEED2Ev(ptr noundef nonnull align 8 dereferenceable(216) %arraydestroy.element) #3
  %arraydestroy.done = icmp eq ptr %arraydestroy.element, %array.begin
  br i1 %arraydestroy.done, label %arraydestroy.done9, label %arraydestroy.body

arraydestroy.done9:                               ; preds = %arraydestroy.body
  call void @_ZN7rocksdb14OptionTypeInfoD2Ev(ptr noundef nonnull align 8 dereferenceable(180) %ref.tmp1) #3
  %5 = call i32 @__cxa_atexit(ptr @_ZNSt13unordered_mapINSt7__cxx1112basic_stringIcSt11char_traitsIcESaIcEEEN7rocksdb14OptionTypeInfoESt4hashIS5_ESt8equal_toIS5_ESaISt4pairIKS5_S7_EEED2Ev, ptr @_ZN7rocksdb12_GLOBAL__N_120ma_wrapper_type_infoB5cxx11E, ptr @__dso_handle) #3
  ret void

lpad:                                             ; preds = %entry
  %6 = landingpad { ptr, i32 }
          cleanup
  %7 = extractvalue { ptr, i32 } %6, 0
  store ptr %7, ptr %exn.slot, align 8
  %8 = extractvalue { ptr, i32 } %6, 1
  store i32 %8, ptr %ehselector.slot, align 4
  br label %ehcleanup16

lpad2:                                            ; preds = %invoke.cont
  %9 = landingpad { ptr, i32 }
          cleanup
  %10 = extractvalue { ptr, i32 } %9, 0
  store ptr %10, ptr %exn.slot, align 8
  %11 = extractvalue { ptr, i32 } %9, 1
  store i32 %11, ptr %ehselector.slot, align 4
  br label %ehcleanup

lpad7:                                            ; preds = %invoke.cont3
  %12 = landingpad { ptr, i32 }
          cleanup
  %13 = extractvalue { ptr, i32 } %12, 0
  store ptr %13, ptr %exn.slot, align 8
  %14 = extractvalue { ptr, i32 } %12, 1
  store i32 %14, ptr %ehselector.slot, align 4
  call void @_ZNSaISt4pairIKNSt7__cxx1112basic_stringIcSt11char_traitsIcESaIcEEEN7rocksdb14OptionTypeInfoEEED2Ev(ptr noundef nonnull align 1 dereferenceable(1) %ref.tmp6) #3
  %array.begin10 = getelementptr inbounds [1 x %"struct.std::pair"], ptr %ref.tmp, i32 0, i32 0
  %15 = getelementptr inbounds %"struct.std::pair", ptr %array.begin10, i64 1
  br label %arraydestroy.body11

arraydestroy.body11:                              ; preds = %arraydestroy.body11, %lpad7
  %arraydestroy.elementPast12 = phi ptr [ %15, %lpad7 ], [ %arraydestroy.element13, %arraydestroy.body11 ]
  %arraydestroy.element13 = getelementptr inbounds %"struct.std::pair", ptr %arraydestroy.elementPast12, i64 -1
  call void @_ZNSt4pairIKNSt7__cxx1112basic_stringIcSt11char_traitsIcESaIcEEEN7rocksdb14OptionTypeInfoEED2Ev(ptr noundef nonnull align 8 dereferenceable(216) %arraydestroy.element13) #3
  %arraydestroy.done14 = icmp eq ptr %arraydestroy.element13, %array.begin10
  br i1 %arraydestroy.done14, label %arraydestroy.done15, label %arraydestroy.body11

arraydestroy.done15:                              ; preds = %arraydestroy.body11
  br label %ehcleanup

ehcleanup:                                        ; preds = %arraydestroy.done15, %lpad2
  call void @_ZN7rocksdb14OptionTypeInfoD2Ev(ptr noundef nonnull align 8 dereferenceable(180) %ref.tmp1) #3
  br label %ehcleanup16

ehcleanup16:                                      ; preds = %ehcleanup, %lpad
  %cleanup.is_active = load i1, ptr %cleanup.isactive, align 1
  br i1 %cleanup.is_active, label %cleanup.action, label %cleanup.done

cleanup.action:                                   ; preds = %ehcleanup16
  %16 = load ptr, ptr %arrayinit.endOfInit, align 8
  %arraydestroy.isempty = icmp eq ptr %arrayinit.begin, %16
  br i1 %arraydestroy.isempty, label %arraydestroy.done21, label %arraydestroy.body17

arraydestroy.body17:                              ; preds = %arraydestroy.body17, %cleanup.action
  %arraydestroy.elementPast18 = phi ptr [ %16, %cleanup.action ], [ %arraydestroy.element19, %arraydestroy.body17 ]
  %arraydestroy.element19 = getelementptr inbounds %"struct.std::pair", ptr %arraydestroy.elementPast18, i64 -1
  call void @_ZNSt4pairIKNSt7__cxx1112basic_stringIcSt11char_traitsIcESaIcEEEN7rocksdb14OptionTypeInfoEED2Ev(ptr noundef nonnull align 8 dereferenceable(216) %arraydestroy.element19) #3
  %arraydestroy.done20 = icmp eq ptr %arraydestroy.element19, %arrayinit.begin
  br i1 %arraydestroy.done20, label %arraydestroy.done21, label %arraydestroy.body17

arraydestroy.done21:                              ; preds = %arraydestroy.body17, %cleanup.action
  br label %cleanup.done

cleanup.done:                                     ; preds = %arraydestroy.done21, %ehcleanup16
  br label %eh.resume

eh.resume:                                        ; preds = %cleanup.done
  %exn = load ptr, ptr %exn.slot, align 8
  %sel = load i32, ptr %ehselector.slot, align 4
  %lpad.val = insertvalue { ptr, i32 } poison, ptr %exn, 0
  %lpad.val22 = insertvalue { ptr, i32 } %lpad.val, i32 %sel, 1
  resume { ptr, i32 } %lpad.val22
}

; Function Attrs: mustprogress uwtable
define linkonce_odr void @_ZN7rocksdb14OptionTypeInfo17AsCustomSharedPtrINS_15MemoryAllocatorEEES0_iNS_22OptionVerificationTypeENS_15OptionTypeFlagsE(ptr noalias sret(%"class.rocksdb::OptionTypeInfo") align 8 %agg.result, i32 noundef %offset, i32 noundef %ovt, i32 noundef %flags) #1 comdat align 2 personality ptr @__gxx_personality_v0 {
entry:
  %result.ptr = alloca ptr, align 8
  %offset.addr = alloca i32, align 4
  %ovt.addr = alloca i32, align 4
  %flags.addr = alloca i32, align 4
  %info = alloca %"class.rocksdb::OptionTypeInfo", align 8
  %ref.tmp = alloca i32, align 4
  %ref.tmp1 = alloca %"class.std::function", align 8
  %ref.tmp2 = alloca %class.anon.27, align 1
  %exn.slot = alloca ptr, align 8
  %ehselector.slot = alloca i32, align 4
  store ptr %agg.result, ptr %result.ptr, align 8
  store i32 %offset, ptr %offset.addr, align 4
  store i32 %ovt, ptr %ovt.addr, align 4
  store i32 %flags, ptr %flags.addr, align 4
  %0 = load i32, ptr %offset.addr, align 4
  %1 = load i32, ptr %ovt.addr, align 4
  store i32 1024, ptr %ref.tmp, align 4
  %call = call noundef i32 @_ZN7rocksdborERKNS_15OptionTypeFlagsES2_(ptr noundef nonnull align 4 dereferenceable(4) %flags.addr, ptr noundef nonnull align 4 dereferenceable(4) %ref.tmp)
  call void @_ZN7rocksdb14OptionTypeInfoC2EiNS_10OptionTypeENS_22OptionVerificationTypeENS_15OptionTypeFlagsE(ptr noundef nonnull align 8 dereferenceable(180) %info, i32 noundef %0, i32 noundef 23, i32 noundef %1, i32 noundef %call)
  call void @_ZNSt8functionIFN7rocksdb6StatusERKNS0_13ConfigOptionsERKNSt7__cxx1112basic_stringIcSt11char_traitsIcESaIcEEESC_PvEEC2IZNS0_14OptionTypeInfo17AsCustomSharedPtrINS0_15MemoryAllocatorEEESH_iNS0_22OptionVerificationTypeENS0_15OptionTypeFlagsEEUlS4_SC_SC_SD_E_vEEOT_(ptr noundef nonnull align 8 dereferenceable(32) %ref.tmp1, ptr noundef nonnull align 1 dereferenceable(1) %ref.tmp2) #3
  %call3 = invoke noundef nonnull align 8 dereferenceable(180) ptr @_ZN7rocksdb14OptionTypeInfo12SetParseFuncERKSt8functionIFNS_6StatusERKNS_13ConfigOptionsERKNSt7__cxx1112basic_stringIcSt11char_traitsIcESaIcEEESD_PvEE(ptr noundef nonnull align 8 dereferenceable(180) %info, ptr noundef nonnull align 8 dereferenceable(32) %ref.tmp1)
          to label %invoke.cont unwind label %lpad

invoke.cont:                                      ; preds = %entry
  invoke void @_ZN7rocksdb14OptionTypeInfoC2ERKS0_(ptr noundef nonnull align 8 dereferenceable(180) %agg.result, ptr noundef nonnull align 8 dereferenceable(180) %call3)
          to label %invoke.cont4 unwind label %lpad

invoke.cont4:                                     ; preds = %invoke.cont
  call void @_ZNSt8functionIFN7rocksdb6StatusERKNS0_13ConfigOptionsERKNSt7__cxx1112basic_stringIcSt11char_traitsIcESaIcEEESC_PvEED2Ev(ptr noundef nonnull align 8 dereferenceable(32) %ref.tmp1) #3
  call void @_ZN7rocksdb14OptionTypeInfoD2Ev(ptr noundef nonnull align 8 dereferenceable(180) %info) #3
  ret void

lpad:                                             ; preds = %invoke.cont, %entry
  %2 = landingpad { ptr, i32 }
          cleanup
  %3 = extractvalue { ptr, i32 } %2, 0
  store ptr %3, ptr %exn.slot, align 8
  %4 = extractvalue { ptr, i32 } %2, 1
  store i32 %4, ptr %ehselector.slot, align 4
  call void @_ZNSt8functionIFN7rocksdb6StatusERKNS0_13ConfigOptionsERKNSt7__cxx1112basic_stringIcSt11char_traitsIcESaIcEEESC_PvEED2Ev(ptr noundef nonnull align 8 dereferenceable(32) %ref.tmp1) #3
  call void @_ZN7rocksdb14OptionTypeInfoD2Ev(ptr noundef nonnull align 8 dereferenceable(180) %info) #3
  br label %eh.resume

eh.resume:                                        ; preds = %lpad
  %exn = load ptr, ptr %exn.slot, align 8
  %sel = load i32, ptr %ehselector.slot, align 4
  %lpad.val = insertvalue { ptr, i32 } poison, ptr %exn, 0
  %lpad.val5 = insertvalue { ptr, i32 } %lpad.val, i32 %sel, 1
  resume { ptr, i32 } %lpad.val5
}

declare i32 @__gxx_personality_v0(...)

; Function Attrs: mustprogress uwtable
define linkonce_odr void @_ZNSt4pairIKNSt7__cxx1112basic_stringIcSt11char_traitsIcESaIcEEEN7rocksdb14OptionTypeInfoEEC2IRA7_KcS8_TnNSt9enable_ifIXaaclsr5_PCCPE22_MoveConstructiblePairIT_T0_EEclsr5_PCCPE30_ImplicitlyMoveConvertiblePairISF_SG_EEEbE4typeELb1EEEOSF_OSG_(ptr noundef nonnull align 8 dereferenceable(216) %this, ptr noundef nonnull align 1 dereferenceable(7) %__x, ptr noundef nonnull align 8 dereferenceable(180) %__y) unnamed_addr #1 comdat align 2 personality ptr @__gxx_personality_v0 {
entry:
  %this.addr = alloca ptr, align 8
  %__x.addr = alloca ptr, align 8
  %__y.addr = alloca ptr, align 8
  %ref.tmp = alloca %"class.std::allocator.2", align 1
  %exn.slot = alloca ptr, align 8
  %ehselector.slot = alloca i32, align 4
  store ptr %this, ptr %this.addr, align 8
  store ptr %__x, ptr %__x.addr, align 8
  store ptr %__y, ptr %__y.addr, align 8
  %this1 = load ptr, ptr %this.addr, align 8
  %first = getelementptr inbounds %"struct.std::pair", ptr %this1, i32 0, i32 0
  %0 = load ptr, ptr %__x.addr, align 8
  %arraydecay = getelementptr inbounds [7 x i8], ptr %0, i64 0, i64 0
  call void @_ZNSaIcEC1Ev(ptr noundef nonnull align 1 dereferenceable(1) %ref.tmp) #3
  invoke void @_ZNSt7__cxx1112basic_stringIcSt11char_traitsIcESaIcEEC2IS3_EEPKcRKS3_(ptr noundef nonnull align 8 dereferenceable(32) %first, ptr noundef %arraydecay, ptr noundef nonnull align 1 dereferenceable(1) %ref.tmp)
          to label %invoke.cont unwind label %lpad

invoke.cont:                                      ; preds = %entry
  call void @_ZNSaIcED1Ev(ptr noundef nonnull align 1 dereferenceable(1) %ref.tmp) #3
  %second = getelementptr inbounds %"struct.std::pair", ptr %this1, i32 0, i32 1
  %1 = load ptr, ptr %__y.addr, align 8
  call void @_ZN7rocksdb14OptionTypeInfoC2EOS0_(ptr noundef nonnull align 8 dereferenceable(180) %second, ptr noundef nonnull align 8 dereferenceable(180) %1) #3
  ret void

lpad:                                             ; preds = %entry
  %2 = landingpad { ptr, i32 }
          cleanup
  %3 = extractvalue { ptr, i32 } %2, 0
  store ptr %3, ptr %exn.slot, align 8
  %4 = extractvalue { ptr, i32 } %2, 1
  store i32 %4, ptr %ehselector.slot, align 4
  call void @_ZNSaIcED1Ev(ptr noundef nonnull align 1 dereferenceable(1) %ref.tmp) #3
  br label %eh.resume

eh.resume:                                        ; preds = %lpad
  %exn = load ptr, ptr %exn.slot, align 8
  %sel = load i32, ptr %ehselector.slot, align 4
  %lpad.val = insertvalue { ptr, i32 } poison, ptr %exn, 0
  %lpad.val2 = insertvalue { ptr, i32 } %lpad.val, i32 %sel, 1
  resume { ptr, i32 } %lpad.val2
}

; Function Attrs: mustprogress nounwind uwtable
define linkonce_odr void @_ZNSaISt4pairIKNSt7__cxx1112basic_stringIcSt11char_traitsIcESaIcEEEN7rocksdb14OptionTypeInfoEEEC2Ev(ptr noundef nonnull align 1 dereferenceable(1) %this) unnamed_addr #2 comdat align 2 {
entry:
  %this.addr = alloca ptr, align 8
  store ptr %this, ptr %this.addr, align 8
  %this1 = load ptr, ptr %this.addr, align 8
  call void @_ZNSt15__new_allocatorISt4pairIKNSt7__cxx1112basic_stringIcSt11char_traitsIcESaIcEEEN7rocksdb14OptionTypeInfoEEEC2Ev(ptr noundef nonnull align 1 dereferenceable(1) %this1) #3
  ret void
}

; Function Attrs: mustprogress uwtable
define linkonce_odr void @_ZNSt13unordered_mapINSt7__cxx1112basic_stringIcSt11char_traitsIcESaIcEEEN7rocksdb14OptionTypeInfoESt4hashIS5_ESt8equal_toIS5_ESaISt4pairIKS5_S7_EEEC2ESt16initializer_listISE_EmRKS9_RKSB_RKSF_(ptr noundef nonnull align 8 dereferenceable(56) %this, ptr %__l.coerce0, i64 %__l.coerce1, i64 noundef %__n, ptr noundef nonnull align 1 dereferenceable(1) %__hf, ptr noundef nonnull align 1 dereferenceable(1) %__eql, ptr noundef nonnull align 1 dereferenceable(1) %__a) unnamed_addr #1 comdat align 2 {
entry:
  %__l = alloca %"class.std::initializer_list", align 8
  %this.addr = alloca ptr, align 8
  %__n.addr = alloca i64, align 8
  %__hf.addr = alloca ptr, align 8
  %__eql.addr = alloca ptr, align 8
  %__a.addr = alloca ptr, align 8
  %agg.tmp = alloca %"class.std::initializer_list", align 8
  %0 = getelementptr inbounds { ptr, i64 }, ptr %__l, i32 0, i32 0
  store ptr %__l.coerce0, ptr %0, align 8
  %1 = getelementptr inbounds { ptr, i64 }, ptr %__l, i32 0, i32 1
  store i64 %__l.coerce1, ptr %1, align 8
  store ptr %this, ptr %this.addr, align 8
  store i64 %__n, ptr %__n.addr, align 8
  store ptr %__hf, ptr %__hf.addr, align 8
  store ptr %__eql, ptr %__eql.addr, align 8
  store ptr %__a, ptr %__a.addr, align 8
  %this1 = load ptr, ptr %this.addr, align 8
  %_M_h = getelementptr inbounds %"class.std::unordered_map", ptr %this1, i32 0, i32 0
  call void @llvm.memcpy.p0.p0.i64(ptr align 8 %agg.tmp, ptr align 8 %__l, i64 16, i1 false)
  %2 = load i64, ptr %__n.addr, align 8
  %3 = load ptr, ptr %__hf.addr, align 8
  %4 = load ptr, ptr %__eql.addr, align 8
  %5 = load ptr, ptr %__a.addr, align 8
  %6 = getelementptr inbounds { ptr, i64 }, ptr %agg.tmp, i32 0, i32 0
  %7 = load ptr, ptr %6, align 8
  %8 = getelementptr inbounds { ptr, i64 }, ptr %agg.tmp, i32 0, i32 1
  %9 = load i64, ptr %8, align 8
  call void @_ZNSt10_HashtableINSt7__cxx1112basic_stringIcSt11char_traitsIcESaIcEEESt4pairIKS5_N7rocksdb14OptionTypeInfoEESaISA_ENSt8__detail10_Select1stESt8equal_toIS5_ESt4hashIS5_ENSC_18_Mod_range_hashingENSC_20_Default_ranged_hashENSC_20_Prime_rehash_policyENSC_17_Hashtable_traitsILb1ELb0ELb1EEEEC2ESt16initializer_listISA_EmRKSH_RKSF_RKSB_(ptr noundef nonnull align 8 dereferenceable(56) %_M_h, ptr %7, i64 %9, i64 noundef %2, ptr noundef nonnull align 1 dereferenceable(1) %3, ptr noundef nonnull align 1 dereferenceable(1) %4, ptr noundef nonnull align 1 dereferenceable(1) %5)
  ret void
}

; Function Attrs: mustprogress nounwind uwtable
define linkonce_odr void @_ZNSaISt4pairIKNSt7__cxx1112basic_stringIcSt11char_traitsIcESaIcEEEN7rocksdb14OptionTypeInfoEEED2Ev(ptr noundef nonnull align 1 dereferenceable(1) %this) unnamed_addr #2 comdat align 2 {
entry:
  %this.addr = alloca ptr, align 8
  store ptr %this, ptr %this.addr, align 8
  %this1 = load ptr, ptr %this.addr, align 8
  call void @_ZNSt15__new_allocatorISt4pairIKNSt7__cxx1112basic_stringIcSt11char_traitsIcESaIcEEEN7rocksdb14OptionTypeInfoEEED2Ev(ptr noundef nonnull align 1 dereferenceable(1) %this1) #3
  ret void
}

; Function Attrs: mustprogress nounwind uwtable
define linkonce_odr void @_ZNSt4pairIKNSt7__cxx1112basic_stringIcSt11char_traitsIcESaIcEEEN7rocksdb14OptionTypeInfoEED2Ev(ptr noundef nonnull align 8 dereferenceable(216) %this) unnamed_addr #2 comdat align 2 {
entry:
  %this.addr = alloca ptr, align 8
  store ptr %this, ptr %this.addr, align 8
  %this1 = load ptr, ptr %this.addr, align 8
  %second = getelementptr inbounds %"struct.std::pair", ptr %this1, i32 0, i32 1
  call void @_ZN7rocksdb14OptionTypeInfoD2Ev(ptr noundef nonnull align 8 dereferenceable(180) %second) #3
  %first = getelementptr inbounds %"struct.std::pair", ptr %this1, i32 0, i32 0
  call void @_ZNSt7__cxx1112basic_stringIcSt11char_traitsIcESaIcEED1Ev(ptr noundef nonnull align 8 dereferenceable(32) %first) #3
  ret void
}

; Function Attrs: mustprogress nounwind uwtable
define linkonce_odr void @_ZN7rocksdb14OptionTypeInfoD2Ev(ptr noundef nonnull align 8 dereferenceable(180) %this) unnamed_addr #2 comdat align 2 {
entry:
  %this.addr = alloca ptr, align 8
  store ptr %this, ptr %this.addr, align 8
  %this1 = load ptr, ptr %this.addr, align 8
  %validate_func_ = getelementptr inbounds %"class.rocksdb::OptionTypeInfo", ptr %this1, i32 0, i32 6
  call void @_ZNSt8functionIFN7rocksdb6StatusERKNS0_9DBOptionsERKNS0_19ColumnFamilyOptionsERKNSt7__cxx1112basic_stringIcSt11char_traitsIcESaIcEEEPKvEED2Ev(ptr noundef nonnull align 8 dereferenceable(32) %validate_func_) #3
  %prepare_func_ = getelementptr inbounds %"class.rocksdb::OptionTypeInfo", ptr %this1, i32 0, i32 5
  call void @_ZNSt8functionIFN7rocksdb6StatusERKNS0_13ConfigOptionsERKNSt7__cxx1112basic_stringIcSt11char_traitsIcESaIcEEEPvEED2Ev(ptr noundef nonnull align 8 dereferenceable(32) %prepare_func_) #3
  %equals_func_ = getelementptr inbounds %"class.rocksdb::OptionTypeInfo", ptr %this1, i32 0, i32 4
  call void @_ZNSt8functionIFbRKN7rocksdb13ConfigOptionsERKNSt7__cxx1112basic_stringIcSt11char_traitsIcESaIcEEEPKvSD_PS9_EED2Ev(ptr noundef nonnull align 8 dereferenceable(32) %equals_func_) #3
  %serialize_func_ = getelementptr inbounds %"class.rocksdb::OptionTypeInfo", ptr %this1, i32 0, i32 3
  call void @_ZNSt8functionIFN7rocksdb6StatusERKNS0_13ConfigOptionsERKNSt7__cxx1112basic_stringIcSt11char_traitsIcESaIcEEEPKvPSA_EED2Ev(ptr noundef nonnull align 8 dereferenceable(32) %serialize_func_) #3
  %parse_func_ = getelementptr inbounds %"class.rocksdb::OptionTypeInfo", ptr %this1, i32 0, i32 2
  call void @_ZNSt8functionIFN7rocksdb6StatusERKNS0_13ConfigOptionsERKNSt7__cxx1112basic_stringIcSt11char_traitsIcESaIcEEESC_PvEED2Ev(ptr noundef nonnull align 8 dereferenceable(32) %parse_func_) #3
  ret void
}

; Function Attrs: mustprogress nounwind uwtable
define linkonce_odr void @_ZNSt13unordered_mapINSt7__cxx1112basic_stringIcSt11char_traitsIcESaIcEEEN7rocksdb14OptionTypeInfoESt4hashIS5_ESt8equal_toIS5_ESaISt4pairIKS5_S7_EEED2Ev(ptr noundef nonnull align 8 dereferenceable(56) %this) unnamed_addr #2 comdat align 2 {
entry:
  %this.addr = alloca ptr, align 8
  store ptr %this, ptr %this.addr, align 8
  %this1 = load ptr, ptr %this.addr, align 8
  %_M_h = getelementptr inbounds %"class.std::unordered_map", ptr %this1, i32 0, i32 0
  call void @_ZNSt10_HashtableINSt7__cxx1112basic_stringIcSt11char_traitsIcESaIcEEESt4pairIKS5_N7rocksdb14OptionTypeInfoEESaISA_ENSt8__detail10_Select1stESt8equal_toIS5_ESt4hashIS5_ENSC_18_Mod_range_hashingENSC_20_Default_ranged_hashENSC_20_Prime_rehash_policyENSC_17_Hashtable_traitsILb1ELb0ELb1EEEED2Ev(ptr noundef nonnull align 8 dereferenceable(56) %_M_h) #3
  ret void
}

; Function Attrs: nounwind
declare i32 @__cxa_atexit(ptr, ptr, ptr) #3

; Function Attrs: mustprogress uwtable
define void @_ZN7rocksdb22MemoryAllocatorWrapperC2ERKSt10shared_ptrINS_15MemoryAllocatorEE(ptr noundef nonnull align 8 dereferenceable(48) %this, ptr noundef nonnull align 8 dereferenceable(16) %t) unnamed_addr #1 align 2 personality ptr @__gxx_personality_v0 {
entry:
  %this.addr = alloca ptr, align 8
  %t.addr = alloca ptr, align 8
  %ref.tmp = alloca %"class.std::__cxx11::basic_string", align 8
  %ref.tmp2 = alloca %"class.std::allocator.2", align 1
  %exn.slot = alloca ptr, align 8
  %ehselector.slot = alloca i32, align 4
  store ptr %this, ptr %this.addr, align 8
  store ptr %t, ptr %t.addr, align 8
  %this1 = load ptr, ptr %this.addr, align 8
  call void @_ZN7rocksdb15MemoryAllocatorC2Ev(ptr noundef nonnull align 8 dereferenceable(32) %this1) #3
  store ptr getelementptr inbounds ({ [24 x ptr] }, ptr @_ZTVN7rocksdb22MemoryAllocatorWrapperE, i32 0, inrange i32 0, i32 2), ptr %this1, align 8
  %target_ = getelementptr inbounds %"class.rocksdb::MemoryAllocatorWrapper", ptr %this1, i32 0, i32 1
  %0 = load ptr, ptr %t.addr, align 8
  call void @_ZNSt10shared_ptrIN7rocksdb15MemoryAllocatorEEC2ERKS2_(ptr noundef nonnull align 8 dereferenceable(16) %target_, ptr noundef nonnull align 8 dereferenceable(16) %0) #3
  call void @_ZNSaIcEC1Ev(ptr noundef nonnull align 1 dereferenceable(1) %ref.tmp2) #3
  invoke void @_ZNSt7__cxx1112basic_stringIcSt11char_traitsIcESaIcEEC2IS3_EEPKcRKS3_(ptr noundef nonnull align 8 dereferenceable(32) %ref.tmp, ptr noundef @.str.1, ptr noundef nonnull align 1 dereferenceable(1) %ref.tmp2)
          to label %invoke.cont unwind label %lpad

invoke.cont:                                      ; preds = %entry
  %target_3 = getelementptr inbounds %"class.rocksdb::MemoryAllocatorWrapper", ptr %this1, i32 0, i32 1
  invoke void @_ZN7rocksdb12Configurable15RegisterOptionsERKNSt7__cxx1112basic_stringIcSt11char_traitsIcESaIcEEEPvPKSt13unordered_mapIS6_NS_14OptionTypeInfoESt4hashIS6_ESt8equal_toIS6_ESaISt4pairIS7_SB_EEE(ptr noundef nonnull align 8 dereferenceable(32) %this1, ptr noundef nonnull align 8 dereferenceable(32) %ref.tmp, ptr noundef %target_3, ptr noundef @_ZN7rocksdb12_GLOBAL__N_120ma_wrapper_type_infoB5cxx11E)
          to label %invoke.cont5 unwind label %lpad4

invoke.cont5:                                     ; preds = %invoke.cont
  call void @_ZNSt7__cxx1112basic_stringIcSt11char_traitsIcESaIcEED1Ev(ptr noundef nonnull align 8 dereferenceable(32) %ref.tmp) #3
  call void @_ZNSaIcED1Ev(ptr noundef nonnull align 1 dereferenceable(1) %ref.tmp2) #3
  ret void

lpad:                                             ; preds = %entry
  %1 = landingpad { ptr, i32 }
          cleanup
  %2 = extractvalue { ptr, i32 } %1, 0
  store ptr %2, ptr %exn.slot, align 8
  %3 = extractvalue { ptr, i32 } %1, 1
  store i32 %3, ptr %ehselector.slot, align 4
  br label %ehcleanup

lpad4:                                            ; preds = %invoke.cont
  %4 = landingpad { ptr, i32 }
          cleanup
  %5 = extractvalue { ptr, i32 } %4, 0
  store ptr %5, ptr %exn.slot, align 8
  %6 = extractvalue { ptr, i32 } %4, 1
  store i32 %6, ptr %ehselector.slot, align 4
  call void @_ZNSt7__cxx1112basic_stringIcSt11char_traitsIcESaIcEED1Ev(ptr noundef nonnull align 8 dereferenceable(32) %ref.tmp) #3
  br label %ehcleanup

ehcleanup:                                        ; preds = %lpad4, %lpad
  call void @_ZNSaIcED1Ev(ptr noundef nonnull align 1 dereferenceable(1) %ref.tmp2) #3
  call void @_ZNSt10shared_ptrIN7rocksdb15MemoryAllocatorEED2Ev(ptr noundef nonnull align 8 dereferenceable(16) %target_) #3
  call void @_ZN7rocksdb15MemoryAllocatorD2Ev(ptr noundef nonnull align 8 dereferenceable(32) %this1) #3
  br label %eh.resume

eh.resume:                                        ; preds = %ehcleanup
  %exn = load ptr, ptr %exn.slot, align 8
  %sel = load i32, ptr %ehselector.slot, align 4
  %lpad.val = insertvalue { ptr, i32 } poison, ptr %exn, 0
  %lpad.val8 = insertvalue { ptr, i32 } %lpad.val, i32 %sel, 1
  resume { ptr, i32 } %lpad.val8
}

; Function Attrs: mustprogress nounwind uwtable
define linkonce_odr void @_ZN7rocksdb15MemoryAllocatorC2Ev(ptr noundef nonnull align 8 dereferenceable(32) %this) unnamed_addr #2 comdat align 2 {
entry:
  %this.addr = alloca ptr, align 8
  store ptr %this, ptr %this.addr, align 8
  %this1 = load ptr, ptr %this.addr, align 8
  call void @_ZN7rocksdb12CustomizableC2Ev(ptr noundef nonnull align 8 dereferenceable(32) %this1) #3
  store ptr getelementptr inbounds ({ [24 x ptr] }, ptr @_ZTVN7rocksdb15MemoryAllocatorE, i32 0, inrange i32 0, i32 2), ptr %this1, align 8
  ret void
}

; Function Attrs: mustprogress nounwind uwtable
define linkonce_odr void @_ZNSt10shared_ptrIN7rocksdb15MemoryAllocatorEEC2ERKS2_(ptr noundef nonnull align 8 dereferenceable(16) %this, ptr noundef nonnull align 8 dereferenceable(16) %0) unnamed_addr #2 comdat align 2 {
entry:
  %this.addr = alloca ptr, align 8
  %.addr = alloca ptr, align 8
  store ptr %this, ptr %this.addr, align 8
  store ptr %0, ptr %.addr, align 8
  %this1 = load ptr, ptr %this.addr, align 8
  %1 = load ptr, ptr %.addr, align 8
  call void @_ZNSt12__shared_ptrIN7rocksdb15MemoryAllocatorELN9__gnu_cxx12_Lock_policyE2EEC2ERKS4_(ptr noundef nonnull align 8 dereferenceable(16) %this1, ptr noundef nonnull align 8 dereferenceable(16) %1) #3
  ret void
}

declare void @_ZN7rocksdb12Configurable15RegisterOptionsERKNSt7__cxx1112basic_stringIcSt11char_traitsIcESaIcEEEPvPKSt13unordered_mapIS6_NS_14OptionTypeInfoESt4hashIS6_ESt8equal_toIS6_ESaISt4pairIS7_SB_EEE(ptr noundef nonnull align 8 dereferenceable(32), ptr noundef nonnull align 8 dereferenceable(32), ptr noundef, ptr noundef) #4

; Function Attrs: nounwind
declare void @_ZNSaIcEC1Ev(ptr noundef nonnull align 1 dereferenceable(1)) unnamed_addr #5

; Function Attrs: mustprogress uwtable
define linkonce_odr void @_ZNSt7__cxx1112basic_stringIcSt11char_traitsIcESaIcEEC2IS3_EEPKcRKS3_(ptr noundef nonnull align 8 dereferenceable(32) %this, ptr noundef %__s, ptr noundef nonnull align 1 dereferenceable(1) %__a) unnamed_addr #1 comdat align 2 personality ptr @__gxx_personality_v0 {
entry:
  %this.addr = alloca ptr, align 8
  %__s.addr = alloca ptr, align 8
  %__a.addr = alloca ptr, align 8
  %exn.slot = alloca ptr, align 8
  %ehselector.slot = alloca i32, align 4
  %__end = alloca ptr, align 8
  store ptr %this, ptr %this.addr, align 8
  store ptr %__s, ptr %__s.addr, align 8
  store ptr %__a, ptr %__a.addr, align 8
  %this1 = load ptr, ptr %this.addr, align 8
  %_M_dataplus = getelementptr inbounds %"class.std::__cxx11::basic_string", ptr %this1, i32 0, i32 0
  %call = call noundef ptr @_ZNSt7__cxx1112basic_stringIcSt11char_traitsIcESaIcEE13_M_local_dataEv(ptr noundef nonnull align 8 dereferenceable(32) %this1)
  %0 = load ptr, ptr %__a.addr, align 8
  call void @_ZNSt7__cxx1112basic_stringIcSt11char_traitsIcESaIcEE12_Alloc_hiderC1EPcRKS3_(ptr noundef nonnull align 8 dereferenceable(8) %_M_dataplus, ptr noundef %call, ptr noundef nonnull align 1 dereferenceable(1) %0)
  %1 = load ptr, ptr %__s.addr, align 8
  %cmp = icmp eq ptr %1, null
  br i1 %cmp, label %if.then, label %if.end

if.then:                                          ; preds = %entry
  invoke void @_ZSt19__throw_logic_errorPKc(ptr noundef @.str.2) #15
          to label %invoke.cont unwind label %lpad

invoke.cont:                                      ; preds = %if.then
  unreachable

lpad:                                             ; preds = %invoke.cont2, %if.end, %if.then
  %2 = landingpad { ptr, i32 }
          cleanup
  %3 = extractvalue { ptr, i32 } %2, 0
  store ptr %3, ptr %exn.slot, align 8
  %4 = extractvalue { ptr, i32 } %2, 1
  store i32 %4, ptr %ehselector.slot, align 4
  call void @_ZNSt7__cxx1112basic_stringIcSt11char_traitsIcESaIcEE12_Alloc_hiderD2Ev(ptr noundef nonnull align 8 dereferenceable(8) %_M_dataplus) #3
  br label %eh.resume

if.end:                                           ; preds = %entry
  %5 = load ptr, ptr %__s.addr, align 8
  %6 = load ptr, ptr %__s.addr, align 8
  %call3 = invoke noundef i64 @_ZNSt11char_traitsIcE6lengthEPKc(ptr noundef %6)
          to label %invoke.cont2 unwind label %lpad

invoke.cont2:                                     ; preds = %if.end
  %add.ptr = getelementptr inbounds i8, ptr %5, i64 %call3
  store ptr %add.ptr, ptr %__end, align 8
  %7 = load ptr, ptr %__s.addr, align 8
  %8 = load ptr, ptr %__end, align 8
  invoke void @_ZNSt7__cxx1112basic_stringIcSt11char_traitsIcESaIcEE12_M_constructIPKcEEvT_S8_St20forward_iterator_tag(ptr noundef nonnull align 8 dereferenceable(32) %this1, ptr noundef %7, ptr noundef %8)
          to label %invoke.cont4 unwind label %lpad

invoke.cont4:                                     ; preds = %invoke.cont2
  ret void

eh.resume:                                        ; preds = %lpad
  %exn = load ptr, ptr %exn.slot, align 8
  %sel = load i32, ptr %ehselector.slot, align 4
  %lpad.val = insertvalue { ptr, i32 } poison, ptr %exn, 0
  %lpad.val5 = insertvalue { ptr, i32 } %lpad.val, i32 %sel, 1
  resume { ptr, i32 } %lpad.val5
}

; Function Attrs: nounwind
declare void @_ZNSt7__cxx1112basic_stringIcSt11char_traitsIcESaIcEED1Ev(ptr noundef nonnull align 8 dereferenceable(32)) unnamed_addr #5

; Function Attrs: nounwind
declare void @_ZNSaIcED1Ev(ptr noundef nonnull align 1 dereferenceable(1)) unnamed_addr #5

; Function Attrs: mustprogress nounwind uwtable
define linkonce_odr void @_ZNSt10shared_ptrIN7rocksdb15MemoryAllocatorEED2Ev(ptr noundef nonnull align 8 dereferenceable(16) %this) unnamed_addr #2 comdat align 2 {
entry:
  %this.addr = alloca ptr, align 8
  store ptr %this, ptr %this.addr, align 8
  %this1 = load ptr, ptr %this.addr, align 8
  call void @_ZNSt12__shared_ptrIN7rocksdb15MemoryAllocatorELN9__gnu_cxx12_Lock_policyE2EED2Ev(ptr noundef nonnull align 8 dereferenceable(16) %this1) #3
  ret void
}

; Function Attrs: mustprogress uwtable
define void @_ZN7rocksdb15MemoryAllocator16CreateFromStringERKNS_13ConfigOptionsERKNSt7__cxx1112basic_stringIcSt11char_traitsIcESaIcEEEPSt10shared_ptrIS0_E(ptr noalias sret(%"class.rocksdb::Status") align 8 %agg.result, ptr noundef nonnull align 8 dereferenceable(80) %options, ptr noundef nonnull align 8 dereferenceable(32) %value, ptr noundef %result) #1 align 2 personality ptr @__gxx_personality_v0 {
entry:
  %result.ptr = alloca ptr, align 8
  %options.addr = alloca ptr, align 8
  %value.addr = alloca ptr, align 8
  %result.addr = alloca ptr, align 8
  %ref.tmp = alloca %class.anon, align 1
  %copy = alloca %"struct.rocksdb::ConfigOptions", align 8
  %exn.slot = alloca ptr, align 8
  %ehselector.slot = alloca i32, align 4
  store ptr %agg.result, ptr %result.ptr, align 8
  store ptr %options, ptr %options.addr, align 8
  store ptr %value, ptr %value.addr, align 8
  store ptr %result, ptr %result.addr, align 8
  call void @"_ZSt9call_onceIZN7rocksdb15MemoryAllocator16CreateFromStringERKNS0_13ConfigOptionsERKNSt7__cxx1112basic_stringIcSt11char_traitsIcESaIcEEEPSt10shared_ptrIS1_EE3$_0JEEvRSt9once_flagOT_DpOT0_"(ptr noundef nonnull align 4 dereferenceable(4) @_ZZN7rocksdb15MemoryAllocator16CreateFromStringERKNS_13ConfigOptionsERKNSt7__cxx1112basic_stringIcSt11char_traitsIcESaIcEEEPSt10shared_ptrIS0_EE4once, ptr noundef nonnull align 1 dereferenceable(1) %ref.tmp)
  %0 = load ptr, ptr %options.addr, align 8
  call void @_ZN7rocksdb13ConfigOptionsC2ERKS0_(ptr noundef nonnull align 8 dereferenceable(80) %copy, ptr noundef nonnull align 8 dereferenceable(80) %0)
  %invoke_prepare_options = getelementptr inbounds %"struct.rocksdb::ConfigOptions", ptr %copy, i32 0, i32 3
  store i8 1, ptr %invoke_prepare_options, align 1
  %1 = load ptr, ptr %value.addr, align 8
  %2 = load ptr, ptr %result.addr, align 8
  invoke void @_ZN7rocksdbL17LoadManagedObjectINS_15MemoryAllocatorEEENS_6StatusERKNS_13ConfigOptionsERKNSt7__cxx1112basic_stringIcSt11char_traitsIcESaIcEEEPSt10shared_ptrIT_E(ptr sret(%"class.rocksdb::Status") align 8 %agg.result, ptr noundef nonnull align 8 dereferenceable(80) %copy, ptr noundef nonnull align 8 dereferenceable(32) %1, ptr noundef %2)
          to label %invoke.cont unwind label %lpad

invoke.cont:                                      ; preds = %entry
  call void @_ZN7rocksdb13ConfigOptionsD2Ev(ptr noundef nonnull align 8 dereferenceable(80) %copy) #3
  ret void

lpad:                                             ; preds = %entry
  %3 = landingpad { ptr, i32 }
          cleanup
  %4 = extractvalue { ptr, i32 } %3, 0
  store ptr %4, ptr %exn.slot, align 8
  %5 = extractvalue { ptr, i32 } %3, 1
  store i32 %5, ptr %ehselector.slot, align 4
  call void @_ZN7rocksdb13ConfigOptionsD2Ev(ptr noundef nonnull align 8 dereferenceable(80) %copy) #3
  br label %eh.resume

eh.resume:                                        ; preds = %lpad
  %exn = load ptr, ptr %exn.slot, align 8
  %sel = load i32, ptr %ehselector.slot, align 4
  %lpad.val = insertvalue { ptr, i32 } poison, ptr %exn, 0
  %lpad.val1 = insertvalue { ptr, i32 } %lpad.val, i32 %sel, 1
  resume { ptr, i32 } %lpad.val1
}

; Function Attrs: mustprogress uwtable
define internal void @"_ZSt9call_onceIZN7rocksdb15MemoryAllocator16CreateFromStringERKNS0_13ConfigOptionsERKNSt7__cxx1112basic_stringIcSt11char_traitsIcESaIcEEEPSt10shared_ptrIS1_EE3$_0JEEvRSt9once_flagOT_DpOT0_"(ptr noundef nonnull align 4 dereferenceable(4) %__once, ptr noundef nonnull align 1 dereferenceable(1) %__f) #1 personality ptr @__gxx_personality_v0 {
entry:
  %__once.addr = alloca ptr, align 8
  %__f.addr = alloca ptr, align 8
  %__callable = alloca %class.anon.33, align 8
  %__exec = alloca %"struct.std::once_flag::_Prepare_execution", align 1
  %__e = alloca i32, align 4
  %exn.slot = alloca ptr, align 8
  %ehselector.slot = alloca i32, align 4
  store ptr %__once, ptr %__once.addr, align 8
  store ptr %__f, ptr %__f.addr, align 8
  %0 = getelementptr inbounds %class.anon.33, ptr %__callable, i32 0, i32 0
  %1 = load ptr, ptr %__f.addr, align 8
  store ptr %1, ptr %0, align 8
  call void @"_ZNSt9once_flag18_Prepare_executionC2IZSt9call_onceIZN7rocksdb15MemoryAllocator16CreateFromStringERKNS3_13ConfigOptionsERKNSt7__cxx1112basic_stringIcSt11char_traitsIcESaIcEEEPSt10shared_ptrIS4_EE3$_0JEEvRS_OT_DpOT0_EUlvE_EERSL_"(ptr noundef nonnull align 1 dereferenceable(1) %__exec, ptr noundef nonnull align 8 dereferenceable(8) %__callable)
  %2 = load ptr, ptr %__once.addr, align 8
  %_M_once = getelementptr inbounds %"struct.std::once_flag", ptr %2, i32 0, i32 0
  %call = invoke noundef i32 @_ZL14__gthread_oncePiPFvvE(ptr noundef %_M_once, ptr noundef @__once_proxy)
          to label %invoke.cont unwind label %lpad

invoke.cont:                                      ; preds = %entry
  store i32 %call, ptr %__e, align 4
  %3 = load i32, ptr %__e, align 4
  %tobool = icmp ne i32 %3, 0
  br i1 %tobool, label %if.then, label %if.end

if.then:                                          ; preds = %invoke.cont
  %4 = load i32, ptr %__e, align 4
  invoke void @_ZSt20__throw_system_errori(i32 noundef %4) #15
          to label %invoke.cont1 unwind label %lpad

invoke.cont1:                                     ; preds = %if.then
  unreachable

lpad:                                             ; preds = %if.then, %entry
  %5 = landingpad { ptr, i32 }
          cleanup
  %6 = extractvalue { ptr, i32 } %5, 0
  store ptr %6, ptr %exn.slot, align 8
  %7 = extractvalue { ptr, i32 } %5, 1
  store i32 %7, ptr %ehselector.slot, align 4
  call void @_ZNSt9once_flag18_Prepare_executionD2Ev(ptr noundef nonnull align 1 dereferenceable(1) %__exec) #3
  br label %eh.resume

if.end:                                           ; preds = %invoke.cont
  call void @_ZNSt9once_flag18_Prepare_executionD2Ev(ptr noundef nonnull align 1 dereferenceable(1) %__exec) #3
  ret void

eh.resume:                                        ; preds = %lpad
  %exn = load ptr, ptr %exn.slot, align 8
  %sel = load i32, ptr %ehselector.slot, align 4
  %lpad.val = insertvalue { ptr, i32 } poison, ptr %exn, 0
  %lpad.val2 = insertvalue { ptr, i32 } %lpad.val, i32 %sel, 1
  resume { ptr, i32 } %lpad.val2
}

; Function Attrs: mustprogress uwtable
define linkonce_odr void @_ZN7rocksdb13ConfigOptionsC2ERKS0_(ptr noundef nonnull align 8 dereferenceable(80) %this, ptr noundef nonnull align 8 dereferenceable(80) %0) unnamed_addr #1 comdat align 2 {
entry:
  %this.addr = alloca ptr, align 8
  %.addr = alloca ptr, align 8
  store ptr %this, ptr %this.addr, align 8
  store ptr %0, ptr %.addr, align 8
  %this1 = load ptr, ptr %this.addr, align 8
  %ignore_unknown_options = getelementptr inbounds %"struct.rocksdb::ConfigOptions", ptr %this1, i32 0, i32 0
  %1 = load ptr, ptr %.addr, align 8
  %ignore_unknown_options2 = getelementptr inbounds %"struct.rocksdb::ConfigOptions", ptr %1, i32 0, i32 0
  call void @llvm.memcpy.p0.p0.i64(ptr align 8 %ignore_unknown_options, ptr align 8 %ignore_unknown_options2, i64 5, i1 false)
  %delimiter = getelementptr inbounds %"struct.rocksdb::ConfigOptions", ptr %this1, i32 0, i32 5
  %2 = load ptr, ptr %.addr, align 8
  %delimiter3 = getelementptr inbounds %"struct.rocksdb::ConfigOptions", ptr %2, i32 0, i32 5
  call void @_ZNSt7__cxx1112basic_stringIcSt11char_traitsIcESaIcEEC1ERKS4_(ptr noundef nonnull align 8 dereferenceable(32) %delimiter, ptr noundef nonnull align 8 dereferenceable(32) %delimiter3)
  %depth = getelementptr inbounds %"struct.rocksdb::ConfigOptions", ptr %this1, i32 0, i32 6
  %3 = load ptr, ptr %.addr, align 8
  %depth4 = getelementptr inbounds %"struct.rocksdb::ConfigOptions", ptr %3, i32 0, i32 6
  call void @llvm.memcpy.p0.p0.i64(ptr align 8 %depth, ptr align 8 %depth4, i64 24, i1 false)
  %registry = getelementptr inbounds %"struct.rocksdb::ConfigOptions", ptr %this1, i32 0, i32 10
  %4 = load ptr, ptr %.addr, align 8
  %registry5 = getelementptr inbounds %"struct.rocksdb::ConfigOptions", ptr %4, i32 0, i32 10
  call void @_ZNSt10shared_ptrIN7rocksdb14ObjectRegistryEEC2ERKS2_(ptr noundef nonnull align 8 dereferenceable(16) %registry, ptr noundef nonnull align 8 dereferenceable(16) %registry5) #3
  ret void
}

; Function Attrs: mustprogress uwtable
define internal void @_ZN7rocksdbL17LoadManagedObjectINS_15MemoryAllocatorEEENS_6StatusERKNS_13ConfigOptionsERKNSt7__cxx1112basic_stringIcSt11char_traitsIcESaIcEEEPSt10shared_ptrIT_E(ptr noalias sret(%"class.rocksdb::Status") align 8 %agg.result, ptr noundef nonnull align 8 dereferenceable(80) %config_options, ptr noundef nonnull align 8 dereferenceable(32) %value, ptr noundef %result) #1 personality ptr @__gxx_personality_v0 {
entry:
  %result.ptr = alloca ptr, align 8
  %config_options.addr = alloca ptr, align 8
  %value.addr = alloca ptr, align 8
  %result.addr = alloca ptr, align 8
  %id = alloca %"class.std::__cxx11::basic_string", align 8
  %opt_map = alloca %"class.std::unordered_map.133", align 8
  %status = alloca %"class.rocksdb::Status", align 8
  %exn.slot = alloca ptr, align 8
  %ehselector.slot = alloca i32, align 4
  %cleanup.dest.slot = alloca i32, align 4
  %ref.tmp = alloca %"class.std::shared_ptr", align 8
  store ptr %agg.result, ptr %result.ptr, align 8
  store ptr %config_options, ptr %config_options.addr, align 8
  store ptr %value, ptr %value.addr, align 8
  store ptr %result, ptr %result.addr, align 8
  call void @_ZNSt7__cxx1112basic_stringIcSt11char_traitsIcESaIcEEC1Ev(ptr noundef nonnull align 8 dereferenceable(32) %id) #3
  call void @_ZNSt13unordered_mapINSt7__cxx1112basic_stringIcSt11char_traitsIcESaIcEEES5_St4hashIS5_ESt8equal_toIS5_ESaISt4pairIKS5_S5_EEEC2Ev(ptr noundef nonnull align 8 dereferenceable(56) %opt_map) #3
  %0 = load ptr, ptr %config_options.addr, align 8
  %1 = load ptr, ptr %value.addr, align 8
  invoke void @_ZN7rocksdb12Customizable13GetOptionsMapERKNS_13ConfigOptionsEPKS0_RKNSt7__cxx1112basic_stringIcSt11char_traitsIcESaIcEEEPSB_PSt13unordered_mapISB_SB_St4hashISB_ESt8equal_toISB_ESaISt4pairISC_SB_EEE(ptr sret(%"class.rocksdb::Status") align 8 %status, ptr noundef nonnull align 8 dereferenceable(80) %0, ptr noundef null, ptr noundef nonnull align 8 dereferenceable(32) %1, ptr noundef %id, ptr noundef %opt_map)
          to label %invoke.cont unwind label %lpad

invoke.cont:                                      ; preds = %entry
  %call = invoke noundef zeroext i1 @_ZNK7rocksdb6Status2okEv(ptr noundef nonnull align 8 dereferenceable(16) %status)
          to label %invoke.cont2 unwind label %lpad1

invoke.cont2:                                     ; preds = %invoke.cont
  br i1 %call, label %if.else, label %if.then

if.then:                                          ; preds = %invoke.cont2
  call void @_ZN7rocksdb6StatusC2EOS0_(ptr noundef nonnull align 8 dereferenceable(16) %agg.result, ptr noundef nonnull align 8 dereferenceable(16) %status) #3
  store i32 1, ptr %cleanup.dest.slot, align 4
  br label %cleanup

lpad:                                             ; preds = %entry
  %2 = landingpad { ptr, i32 }
          cleanup
  %3 = extractvalue { ptr, i32 } %2, 0
  store ptr %3, ptr %exn.slot, align 8
  %4 = extractvalue { ptr, i32 } %2, 1
  store i32 %4, ptr %ehselector.slot, align 4
  br label %ehcleanup

lpad1:                                            ; preds = %if.else7, %if.then4, %invoke.cont
  %5 = landingpad { ptr, i32 }
          cleanup
  %6 = extractvalue { ptr, i32 } %5, 0
  store ptr %6, ptr %exn.slot, align 8
  %7 = extractvalue { ptr, i32 } %5, 1
  store i32 %7, ptr %ehselector.slot, align 4
  call void @_ZN7rocksdb6StatusD2Ev(ptr noundef nonnull align 8 dereferenceable(16) %status) #3
  br label %ehcleanup

if.else:                                          ; preds = %invoke.cont2
  %8 = load ptr, ptr %value.addr, align 8
  %call3 = call noundef zeroext i1 @_ZNKSt7__cxx1112basic_stringIcSt11char_traitsIcESaIcEE5emptyEv(ptr noundef nonnull align 8 dereferenceable(32) %8) #3
  br i1 %call3, label %if.then4, label %if.else7

if.then4:                                         ; preds = %if.else
  call void @_ZNSt10shared_ptrIN7rocksdb15MemoryAllocatorEEC2EDn(ptr noundef nonnull align 8 dereferenceable(16) %ref.tmp, ptr null) #3
  %9 = load ptr, ptr %result.addr, align 8
  %call5 = call noundef nonnull align 8 dereferenceable(16) ptr @_ZNSt10shared_ptrIN7rocksdb15MemoryAllocatorEEaSEOS2_(ptr noundef nonnull align 8 dereferenceable(16) %9, ptr noundef nonnull align 8 dereferenceable(16) %ref.tmp) #3
  call void @_ZNSt10shared_ptrIN7rocksdb15MemoryAllocatorEED2Ev(ptr noundef nonnull align 8 dereferenceable(16) %ref.tmp) #3
  invoke void @_ZN7rocksdb6Status2OKEv(ptr sret(%"class.rocksdb::Status") align 8 %agg.result)
          to label %invoke.cont6 unwind label %lpad1

invoke.cont6:                                     ; preds = %if.then4
  store i32 1, ptr %cleanup.dest.slot, align 4
  br label %cleanup

if.else7:                                         ; preds = %if.else
  %10 = load ptr, ptr %config_options.addr, align 8
  %11 = load ptr, ptr %result.addr, align 8
  invoke void @_ZN7rocksdbL16NewManagedObjectINS_15MemoryAllocatorEEENS_6StatusERKNS_13ConfigOptionsERKNSt7__cxx1112basic_stringIcSt11char_traitsIcESaIcEEERKSt13unordered_mapISB_SB_St4hashISB_ESt8equal_toISB_ESaISt4pairISC_SB_EEEPSt10shared_ptrIT_E(ptr sret(%"class.rocksdb::Status") align 8 %agg.result, ptr noundef nonnull align 8 dereferenceable(80) %10, ptr noundef nonnull align 8 dereferenceable(32) %id, ptr noundef nonnull align 8 dereferenceable(56) %opt_map, ptr noundef %11)
          to label %invoke.cont8 unwind label %lpad1

invoke.cont8:                                     ; preds = %if.else7
  store i32 1, ptr %cleanup.dest.slot, align 4
  br label %cleanup

cleanup:                                          ; preds = %invoke.cont8, %invoke.cont6, %if.then
  call void @_ZN7rocksdb6StatusD2Ev(ptr noundef nonnull align 8 dereferenceable(16) %status) #3
  call void @_ZNSt13unordered_mapINSt7__cxx1112basic_stringIcSt11char_traitsIcESaIcEEES5_St4hashIS5_ESt8equal_toIS5_ESaISt4pairIKS5_S5_EEED2Ev(ptr noundef nonnull align 8 dereferenceable(56) %opt_map) #3
  call void @_ZNSt7__cxx1112basic_stringIcSt11char_traitsIcESaIcEED1Ev(ptr noundef nonnull align 8 dereferenceable(32) %id) #3
  ret void

ehcleanup:                                        ; preds = %lpad1, %lpad
  call void @_ZNSt13unordered_mapINSt7__cxx1112basic_stringIcSt11char_traitsIcESaIcEEES5_St4hashIS5_ESt8equal_toIS5_ESaISt4pairIKS5_S5_EEED2Ev(ptr noundef nonnull align 8 dereferenceable(56) %opt_map) #3
  call void @_ZNSt7__cxx1112basic_stringIcSt11char_traitsIcESaIcEED1Ev(ptr noundef nonnull align 8 dereferenceable(32) %id) #3
  br label %eh.resume

eh.resume:                                        ; preds = %ehcleanup
  %exn = load ptr, ptr %exn.slot, align 8
  %sel = load i32, ptr %ehselector.slot, align 4
  %lpad.val = insertvalue { ptr, i32 } poison, ptr %exn, 0
  %lpad.val12 = insertvalue { ptr, i32 } %lpad.val, i32 %sel, 1
  resume { ptr, i32 } %lpad.val12
}

; Function Attrs: mustprogress nounwind uwtable
define linkonce_odr void @_ZN7rocksdb13ConfigOptionsD2Ev(ptr noundef nonnull align 8 dereferenceable(80) %this) unnamed_addr #2 comdat align 2 {
entry:
  %this.addr = alloca ptr, align 8
  store ptr %this, ptr %this.addr, align 8
  %this1 = load ptr, ptr %this.addr, align 8
  %registry = getelementptr inbounds %"struct.rocksdb::ConfigOptions", ptr %this1, i32 0, i32 10
  call void @_ZNSt10shared_ptrIN7rocksdb14ObjectRegistryEED2Ev(ptr noundef nonnull align 8 dereferenceable(16) %registry) #3
  %delimiter = getelementptr inbounds %"struct.rocksdb::ConfigOptions", ptr %this1, i32 0, i32 5
  call void @_ZNSt7__cxx1112basic_stringIcSt11char_traitsIcESaIcEED1Ev(ptr noundef nonnull align 8 dereferenceable(32) %delimiter) #3
  ret void
}

; Function Attrs: mustprogress nounwind uwtable
define linkonce_odr void @_ZN7rocksdb22MemoryAllocatorWrapperD2Ev(ptr noundef nonnull align 8 dereferenceable(48) %this) unnamed_addr #2 comdat align 2 {
entry:
  %this.addr = alloca ptr, align 8
  store ptr %this, ptr %this.addr, align 8
  %this1 = load ptr, ptr %this.addr, align 8
  store ptr getelementptr inbounds ({ [24 x ptr] }, ptr @_ZTVN7rocksdb22MemoryAllocatorWrapperE, i32 0, inrange i32 0, i32 2), ptr %this1, align 8
  %target_ = getelementptr inbounds %"class.rocksdb::MemoryAllocatorWrapper", ptr %this1, i32 0, i32 1
  call void @_ZNSt10shared_ptrIN7rocksdb15MemoryAllocatorEED2Ev(ptr noundef nonnull align 8 dereferenceable(16) %target_) #3
  call void @_ZN7rocksdb15MemoryAllocatorD2Ev(ptr noundef nonnull align 8 dereferenceable(32) %this1) #3
  ret void
}

; Function Attrs: mustprogress nounwind uwtable
define linkonce_odr void @_ZN7rocksdb22MemoryAllocatorWrapperD0Ev(ptr noundef nonnull align 8 dereferenceable(48) %this) unnamed_addr #2 comdat align 2 {
entry:
  %this.addr = alloca ptr, align 8
  store ptr %this, ptr %this.addr, align 8
  call void @llvm.trap() #16
  unreachable
}

declare void @_ZNK7rocksdb12Customizable9GetOptionERKNS_13ConfigOptionsERKNSt7__cxx1112basic_stringIcSt11char_traitsIcESaIcEEEPS9_(ptr sret(%"class.rocksdb::Status") align 8, ptr noundef nonnull align 8 dereferenceable(32), ptr noundef nonnull align 8 dereferenceable(80), ptr noundef nonnull align 8 dereferenceable(32), ptr noundef) unnamed_addr #4

declare noundef zeroext i1 @_ZNK7rocksdb12Customizable13AreEquivalentERKNS_13ConfigOptionsEPKNS_12ConfigurableEPNSt7__cxx1112basic_stringIcSt11char_traitsIcESaIcEEE(ptr noundef nonnull align 8 dereferenceable(32), ptr noundef nonnull align 8 dereferenceable(80), ptr noundef, ptr noundef) unnamed_addr #4

; Function Attrs: mustprogress uwtable
define linkonce_odr void @_ZNK7rocksdb12Configurable19GetPrintableOptionsB5cxx11Ev(ptr noalias sret(%"class.std::__cxx11::basic_string") align 8 %agg.result, ptr noundef nonnull align 8 dereferenceable(32) %this) unnamed_addr #1 comdat align 2 personality ptr @__gxx_personality_v0 {
entry:
  %result.ptr = alloca ptr, align 8
  %this.addr = alloca ptr, align 8
  %ref.tmp = alloca %"class.std::allocator.2", align 1
  %exn.slot = alloca ptr, align 8
  %ehselector.slot = alloca i32, align 4
  store ptr %agg.result, ptr %result.ptr, align 8
  store ptr %this, ptr %this.addr, align 8
  call void @_ZNSaIcEC1Ev(ptr noundef nonnull align 1 dereferenceable(1) %ref.tmp) #3
  invoke void @_ZNSt7__cxx1112basic_stringIcSt11char_traitsIcESaIcEEC2IS3_EEPKcRKS3_(ptr noundef nonnull align 8 dereferenceable(32) %agg.result, ptr noundef @.str.1, ptr noundef nonnull align 1 dereferenceable(1) %ref.tmp)
          to label %invoke.cont unwind label %lpad

invoke.cont:                                      ; preds = %entry
  call void @_ZNSaIcED1Ev(ptr noundef nonnull align 1 dereferenceable(1) %ref.tmp) #3
  ret void

lpad:                                             ; preds = %entry
  %0 = landingpad { ptr, i32 }
          cleanup
  %1 = extractvalue { ptr, i32 } %0, 0
  store ptr %1, ptr %exn.slot, align 8
  %2 = extractvalue { ptr, i32 } %0, 1
  store i32 %2, ptr %ehselector.slot, align 4
  call void @_ZNSaIcED1Ev(ptr noundef nonnull align 1 dereferenceable(1) %ref.tmp) #3
  br label %eh.resume

eh.resume:                                        ; preds = %lpad
  %exn = load ptr, ptr %exn.slot, align 8
  %sel = load i32, ptr %ehselector.slot, align 4
  %lpad.val = insertvalue { ptr, i32 } poison, ptr %exn, 0
  %lpad.val2 = insertvalue { ptr, i32 } %lpad.val, i32 %sel, 1
  resume { ptr, i32 } %lpad.val2
}

declare void @_ZN7rocksdb12Configurable14PrepareOptionsERKNS_13ConfigOptionsE(ptr sret(%"class.rocksdb::Status") align 8, ptr noundef nonnull align 8 dereferenceable(32), ptr noundef nonnull align 8 dereferenceable(80)) unnamed_addr #4

declare void @_ZNK7rocksdb12Configurable15ValidateOptionsERKNS_9DBOptionsERKNS_19ColumnFamilyOptionsE(ptr sret(%"class.rocksdb::Status") align 8, ptr noundef nonnull align 8 dereferenceable(32), ptr noundef nonnull align 8 dereferenceable(688), ptr noundef nonnull align 8 dereferenceable(820)) unnamed_addr #4

; Function Attrs: mustprogress uwtable
define linkonce_odr noundef ptr @_ZNK7rocksdb12Customizable13GetOptionsPtrERKNSt7__cxx1112basic_stringIcSt11char_traitsIcESaIcEEE(ptr noundef nonnull align 8 dereferenceable(32) %this, ptr noundef nonnull align 8 dereferenceable(32) %name) unnamed_addr #1 comdat align 2 {
entry:
  %retval = alloca ptr, align 8
  %this.addr = alloca ptr, align 8
  %name.addr = alloca ptr, align 8
  %ptr = alloca ptr, align 8
  %inner = alloca ptr, align 8
  store ptr %this, ptr %this.addr, align 8
  store ptr %name, ptr %name.addr, align 8
  %this1 = load ptr, ptr %this.addr, align 8
  %0 = load ptr, ptr %name.addr, align 8
  %call = call noundef ptr @_ZNK7rocksdb12Configurable13GetOptionsPtrERKNSt7__cxx1112basic_stringIcSt11char_traitsIcESaIcEEE(ptr noundef nonnull align 8 dereferenceable(32) %this1, ptr noundef nonnull align 8 dereferenceable(32) %0)
  store ptr %call, ptr %ptr, align 8
  %1 = load ptr, ptr %ptr, align 8
  %cmp = icmp ne ptr %1, null
  br i1 %cmp, label %if.then, label %if.else

if.then:                                          ; preds = %entry
  %2 = load ptr, ptr %ptr, align 8
  store ptr %2, ptr %retval, align 8
  br label %return

if.else:                                          ; preds = %entry
  %vtable = load ptr, ptr %this1, align 8
  %vfn = getelementptr inbounds ptr, ptr %vtable, i64 17
  %3 = load ptr, ptr %vfn, align 8
  %call2 = call noundef ptr %3(ptr noundef nonnull align 8 dereferenceable(32) %this1)
  store ptr %call2, ptr %inner, align 8
  %4 = load ptr, ptr %inner, align 8
  %cmp3 = icmp ne ptr %4, null
  br i1 %cmp3, label %if.then4, label %if.else8

if.then4:                                         ; preds = %if.else
  %5 = load ptr, ptr %inner, align 8
  %6 = load ptr, ptr %name.addr, align 8
  %vtable5 = load ptr, ptr %5, align 8
  %vfn6 = getelementptr inbounds ptr, ptr %vtable5, i64 7
  %7 = load ptr, ptr %vfn6, align 8
  %call7 = call noundef ptr %7(ptr noundef nonnull align 8 dereferenceable(32) %5, ptr noundef nonnull align 8 dereferenceable(32) %6)
  store ptr %call7, ptr %retval, align 8
  br label %return

if.else8:                                         ; preds = %if.else
  store ptr null, ptr %retval, align 8
  br label %return

return:                                           ; preds = %if.else8, %if.then4, %if.then
  %8 = load ptr, ptr %retval, align 8
  ret ptr %8
}

declare void @_ZN7rocksdb12Configurable18ParseStringOptionsERKNS_13ConfigOptionsERKNSt7__cxx1112basic_stringIcSt11char_traitsIcESaIcEEE(ptr sret(%"class.rocksdb::Status") align 8, ptr noundef nonnull align 8 dereferenceable(32), ptr noundef nonnull align 8 dereferenceable(80), ptr noundef nonnull align 8 dereferenceable(32)) unnamed_addr #4

declare void @_ZN7rocksdb12Configurable16ConfigureOptionsERKNS_13ConfigOptionsERKSt13unordered_mapINSt7__cxx1112basic_stringIcSt11char_traitsIcESaIcEEESA_St4hashISA_ESt8equal_toISA_ESaISt4pairIKSA_SA_EEEPSJ_(ptr sret(%"class.rocksdb::Status") align 8, ptr noundef nonnull align 8 dereferenceable(32), ptr noundef nonnull align 8 dereferenceable(80), ptr noundef nonnull align 8 dereferenceable(56), ptr noundef) unnamed_addr #4

declare void @_ZN7rocksdb12Configurable11ParseOptionERKNS_13ConfigOptionsERKNS_14OptionTypeInfoERKNSt7__cxx1112basic_stringIcSt11char_traitsIcESaIcEEESE_Pv(ptr sret(%"class.rocksdb::Status") align 8, ptr noundef nonnull align 8 dereferenceable(32), ptr noundef nonnull align 8 dereferenceable(80), ptr noundef nonnull align 8 dereferenceable(180), ptr noundef nonnull align 8 dereferenceable(32), ptr noundef nonnull align 8 dereferenceable(32), ptr noundef) unnamed_addr #4

declare noundef zeroext i1 @_ZNK7rocksdb12Configurable15OptionsAreEqualERKNS_13ConfigOptionsERKNS_14OptionTypeInfoERKNSt7__cxx1112basic_stringIcSt11char_traitsIcESaIcEEEPKvSG_PSC_(ptr noundef nonnull align 8 dereferenceable(32), ptr noundef nonnull align 8 dereferenceable(80), ptr noundef nonnull align 8 dereferenceable(180), ptr noundef nonnull align 8 dereferenceable(32), ptr noundef, ptr noundef, ptr noundef) unnamed_addr #4

declare void @_ZNK7rocksdb12Customizable16SerializeOptionsERKNS_13ConfigOptionsERKNSt7__cxx1112basic_stringIcSt11char_traitsIcESaIcEEE(ptr sret(%"class.std::__cxx11::basic_string") align 8, ptr noundef nonnull align 8 dereferenceable(32), ptr noundef nonnull align 8 dereferenceable(80), ptr noundef nonnull align 8 dereferenceable(32)) unnamed_addr #4

declare void @_ZNK7rocksdb12Customizable13GetOptionNameERKNSt7__cxx1112basic_stringIcSt11char_traitsIcESaIcEEE(ptr sret(%"class.std::__cxx11::basic_string") align 8, ptr noundef nonnull align 8 dereferenceable(32), ptr noundef nonnull align 8 dereferenceable(32)) unnamed_addr #4

declare void @__cxa_pure_virtual() unnamed_addr

; Function Attrs: mustprogress uwtable
define linkonce_odr void @_ZNK7rocksdb15MemoryAllocator5GetIdB5cxx11Ev(ptr noalias sret(%"class.std::__cxx11::basic_string") align 8 %agg.result, ptr noundef nonnull align 8 dereferenceable(32) %this) unnamed_addr #1 comdat align 2 {
entry:
  %result.ptr = alloca ptr, align 8
  %this.addr = alloca ptr, align 8
  store ptr %agg.result, ptr %result.ptr, align 8
  store ptr %this, ptr %this.addr, align 8
  %this1 = load ptr, ptr %this.addr, align 8
  call void @_ZNK7rocksdb12Customizable20GenerateIndividualIdB5cxx11Ev(ptr sret(%"class.std::__cxx11::basic_string") align 8 %agg.result, ptr noundef nonnull align 8 dereferenceable(32) %this1)
  ret void
}

; Function Attrs: mustprogress uwtable
define linkonce_odr noundef zeroext i1 @_ZNK7rocksdb12Customizable12IsInstanceOfERKNSt7__cxx1112basic_stringIcSt11char_traitsIcESaIcEEE(ptr noundef nonnull align 8 dereferenceable(32) %this, ptr noundef nonnull align 8 dereferenceable(32) %name) unnamed_addr #1 comdat align 2 {
entry:
  %retval = alloca i1, align 1
  %this.addr = alloca ptr, align 8
  %name.addr = alloca ptr, align 8
  %nickname = alloca ptr, align 8
  store ptr %this, ptr %this.addr, align 8
  store ptr %name, ptr %name.addr, align 8
  %this1 = load ptr, ptr %this.addr, align 8
  %0 = load ptr, ptr %name.addr, align 8
  %call = call noundef zeroext i1 @_ZNKSt7__cxx1112basic_stringIcSt11char_traitsIcESaIcEE5emptyEv(ptr noundef nonnull align 8 dereferenceable(32) %0) #3
  br i1 %call, label %if.then, label %if.else

if.then:                                          ; preds = %entry
  store i1 false, ptr %retval, align 1
  br label %return

if.else:                                          ; preds = %entry
  %1 = load ptr, ptr %name.addr, align 8
  %vtable = load ptr, ptr %this1, align 8
  %vfn = getelementptr inbounds ptr, ptr %vtable, i64 14
  %2 = load ptr, ptr %vfn, align 8
  %call2 = call noundef ptr %2(ptr noundef nonnull align 8 dereferenceable(32) %this1)
  %call3 = call noundef zeroext i1 @_ZSteqIcSt11char_traitsIcESaIcEEbRKNSt7__cxx1112basic_stringIT_T0_T1_EEPKS5_(ptr noundef nonnull align 8 dereferenceable(32) %1, ptr noundef %call2)
  br i1 %call3, label %if.then4, label %if.else5

if.then4:                                         ; preds = %if.else
  store i1 true, ptr %retval, align 1
  br label %return

if.else5:                                         ; preds = %if.else
  %vtable6 = load ptr, ptr %this1, align 8
  %vfn7 = getelementptr inbounds ptr, ptr %vtable6, i64 18
  %3 = load ptr, ptr %vfn7, align 8
  %call8 = call noundef ptr %3(ptr noundef nonnull align 8 dereferenceable(32) %this1)
  store ptr %call8, ptr %nickname, align 8
  %4 = load ptr, ptr %nickname, align 8
  %cmp = icmp ne ptr %4, null
  br i1 %cmp, label %land.lhs.true, label %if.else11

land.lhs.true:                                    ; preds = %if.else5
  %5 = load ptr, ptr %name.addr, align 8
  %6 = load ptr, ptr %nickname, align 8
  %call9 = call noundef zeroext i1 @_ZSteqIcSt11char_traitsIcESaIcEEbRKNSt7__cxx1112basic_stringIT_T0_T1_EEPKS5_(ptr noundef nonnull align 8 dereferenceable(32) %5, ptr noundef %6)
  br i1 %call9, label %if.then10, label %if.else11

if.then10:                                        ; preds = %land.lhs.true
  store i1 true, ptr %retval, align 1
  br label %return

if.else11:                                        ; preds = %land.lhs.true, %if.else5
  store i1 false, ptr %retval, align 1
  br label %return

return:                                           ; preds = %if.else11, %if.then10, %if.then4, %if.then
  %7 = load i1, ptr %retval, align 1
  ret i1 %7
}

; Function Attrs: mustprogress nounwind uwtable
define linkonce_odr noundef ptr @_ZNK7rocksdb22MemoryAllocatorWrapper5InnerEv(ptr noundef nonnull align 8 dereferenceable(48) %this) unnamed_addr #2 comdat align 2 {
entry:
  %this.addr = alloca ptr, align 8
  store ptr %this, ptr %this.addr, align 8
  %this1 = load ptr, ptr %this.addr, align 8
  %target_ = getelementptr inbounds %"class.rocksdb::MemoryAllocatorWrapper", ptr %this1, i32 0, i32 1
  %call = call noundef ptr @_ZNKSt12__shared_ptrIN7rocksdb15MemoryAllocatorELN9__gnu_cxx12_Lock_policyE2EE3getEv(ptr noundef nonnull align 8 dereferenceable(16) %target_) #3
  ret ptr %call
}

; Function Attrs: mustprogress nounwind uwtable
define linkonce_odr noundef ptr @_ZNK7rocksdb12Customizable8NickNameEv(ptr noundef nonnull align 8 dereferenceable(32) %this) unnamed_addr #2 comdat align 2 {
entry:
  %this.addr = alloca ptr, align 8
  store ptr %this, ptr %this.addr, align 8
  ret ptr @.str.1
}

; Function Attrs: mustprogress uwtable
define linkonce_odr noundef ptr @_ZN7rocksdb22MemoryAllocatorWrapper8AllocateEm(ptr noundef nonnull align 8 dereferenceable(48) %this, i64 noundef %size) unnamed_addr #1 comdat align 2 {
entry:
  %this.addr = alloca ptr, align 8
  %size.addr = alloca i64, align 8
  store ptr %this, ptr %this.addr, align 8
  store i64 %size, ptr %size.addr, align 8
  %this1 = load ptr, ptr %this.addr, align 8
  %target_ = getelementptr inbounds %"class.rocksdb::MemoryAllocatorWrapper", ptr %this1, i32 0, i32 1
  %call = call noundef ptr @_ZNKSt19__shared_ptr_accessIN7rocksdb15MemoryAllocatorELN9__gnu_cxx12_Lock_policyE2ELb0ELb0EEptEv(ptr noundef nonnull align 1 dereferenceable(1) %target_) #3
  %0 = load i64, ptr %size.addr, align 8
  %vtable = load ptr, ptr %call, align 8
  %vfn = getelementptr inbounds ptr, ptr %vtable, i64 19
  %1 = load ptr, ptr %vfn, align 8
  %call2 = call noundef ptr %1(ptr noundef nonnull align 8 dereferenceable(32) %call, i64 noundef %0)
  ret ptr %call2
}

; Function Attrs: mustprogress uwtable
define linkonce_odr void @_ZN7rocksdb22MemoryAllocatorWrapper10DeallocateEPv(ptr noundef nonnull align 8 dereferenceable(48) %this, ptr noundef %p) unnamed_addr #1 comdat align 2 {
entry:
  %this.addr = alloca ptr, align 8
  %p.addr = alloca ptr, align 8
  store ptr %this, ptr %this.addr, align 8
  store ptr %p, ptr %p.addr, align 8
  %this1 = load ptr, ptr %this.addr, align 8
  %target_ = getelementptr inbounds %"class.rocksdb::MemoryAllocatorWrapper", ptr %this1, i32 0, i32 1
  %call = call noundef ptr @_ZNKSt19__shared_ptr_accessIN7rocksdb15MemoryAllocatorELN9__gnu_cxx12_Lock_policyE2ELb0ELb0EEptEv(ptr noundef nonnull align 1 dereferenceable(1) %target_) #3
  %0 = load ptr, ptr %p.addr, align 8
  %vtable = load ptr, ptr %call, align 8
  %vfn = getelementptr inbounds ptr, ptr %vtable, i64 20
  %1 = load ptr, ptr %vfn, align 8
  call void %1(ptr noundef nonnull align 8 dereferenceable(32) %call, ptr noundef %0)
  ret void
}

; Function Attrs: mustprogress uwtable
define linkonce_odr noundef i64 @_ZNK7rocksdb22MemoryAllocatorWrapper10UsableSizeEPvm(ptr noundef nonnull align 8 dereferenceable(48) %this, ptr noundef %p, i64 noundef %allocation_size) unnamed_addr #1 comdat align 2 {
entry:
  %this.addr = alloca ptr, align 8
  %p.addr = alloca ptr, align 8
  %allocation_size.addr = alloca i64, align 8
  store ptr %this, ptr %this.addr, align 8
  store ptr %p, ptr %p.addr, align 8
  store i64 %allocation_size, ptr %allocation_size.addr, align 8
  %this1 = load ptr, ptr %this.addr, align 8
  %target_ = getelementptr inbounds %"class.rocksdb::MemoryAllocatorWrapper", ptr %this1, i32 0, i32 1
  %call = call noundef ptr @_ZNKSt19__shared_ptr_accessIN7rocksdb15MemoryAllocatorELN9__gnu_cxx12_Lock_policyE2ELb0ELb0EEptEv(ptr noundef nonnull align 1 dereferenceable(1) %target_) #3
  %0 = load ptr, ptr %p.addr, align 8
  %1 = load i64, ptr %allocation_size.addr, align 8
  %vtable = load ptr, ptr %call, align 8
  %vfn = getelementptr inbounds ptr, ptr %vtable, i64 21
  %2 = load ptr, ptr %vfn, align 8
  %call2 = call noundef i64 %2(ptr noundef nonnull align 8 dereferenceable(32) %call, ptr noundef %0, i64 noundef %1)
  ret i64 %call2
}

; Function Attrs: mustprogress nounwind uwtable
define linkonce_odr void @_ZN7rocksdb14OptionTypeInfoC2EOS0_(ptr noundef nonnull align 8 dereferenceable(180) %this, ptr noundef nonnull align 8 dereferenceable(180) %0) unnamed_addr #2 comdat align 2 {
entry:
  %this.addr = alloca ptr, align 8
  %.addr = alloca ptr, align 8
  store ptr %this, ptr %this.addr, align 8
  store ptr %0, ptr %.addr, align 8
  %this1 = load ptr, ptr %this.addr, align 8
  %offset_ = getelementptr inbounds %"class.rocksdb::OptionTypeInfo", ptr %this1, i32 0, i32 0
  %1 = load ptr, ptr %.addr, align 8
  %offset_2 = getelementptr inbounds %"class.rocksdb::OptionTypeInfo", ptr %1, i32 0, i32 0
  %2 = load i32, ptr %offset_2, align 8
  store i32 %2, ptr %offset_, align 8
  %parse_func_ = getelementptr inbounds %"class.rocksdb::OptionTypeInfo", ptr %this1, i32 0, i32 2
  %3 = load ptr, ptr %.addr, align 8
  %parse_func_3 = getelementptr inbounds %"class.rocksdb::OptionTypeInfo", ptr %3, i32 0, i32 2
  call void @_ZNSt8functionIFN7rocksdb6StatusERKNS0_13ConfigOptionsERKNSt7__cxx1112basic_stringIcSt11char_traitsIcESaIcEEESC_PvEEC2EOSF_(ptr noundef nonnull align 8 dereferenceable(32) %parse_func_, ptr noundef nonnull align 8 dereferenceable(32) %parse_func_3) #3
  %serialize_func_ = getelementptr inbounds %"class.rocksdb::OptionTypeInfo", ptr %this1, i32 0, i32 3
  %4 = load ptr, ptr %.addr, align 8
  %serialize_func_4 = getelementptr inbounds %"class.rocksdb::OptionTypeInfo", ptr %4, i32 0, i32 3
  call void @_ZNSt8functionIFN7rocksdb6StatusERKNS0_13ConfigOptionsERKNSt7__cxx1112basic_stringIcSt11char_traitsIcESaIcEEEPKvPSA_EEC2EOSH_(ptr noundef nonnull align 8 dereferenceable(32) %serialize_func_, ptr noundef nonnull align 8 dereferenceable(32) %serialize_func_4) #3
  %equals_func_ = getelementptr inbounds %"class.rocksdb::OptionTypeInfo", ptr %this1, i32 0, i32 4
  %5 = load ptr, ptr %.addr, align 8
  %equals_func_5 = getelementptr inbounds %"class.rocksdb::OptionTypeInfo", ptr %5, i32 0, i32 4
  call void @_ZNSt8functionIFbRKN7rocksdb13ConfigOptionsERKNSt7__cxx1112basic_stringIcSt11char_traitsIcESaIcEEEPKvSD_PS9_EEC2EOSG_(ptr noundef nonnull align 8 dereferenceable(32) %equals_func_, ptr noundef nonnull align 8 dereferenceable(32) %equals_func_5) #3
  %prepare_func_ = getelementptr inbounds %"class.rocksdb::OptionTypeInfo", ptr %this1, i32 0, i32 5
  %6 = load ptr, ptr %.addr, align 8
  %prepare_func_6 = getelementptr inbounds %"class.rocksdb::OptionTypeInfo", ptr %6, i32 0, i32 5
  call void @_ZNSt8functionIFN7rocksdb6StatusERKNS0_13ConfigOptionsERKNSt7__cxx1112basic_stringIcSt11char_traitsIcESaIcEEEPvEEC2EOSF_(ptr noundef nonnull align 8 dereferenceable(32) %prepare_func_, ptr noundef nonnull align 8 dereferenceable(32) %prepare_func_6) #3
  %validate_func_ = getelementptr inbounds %"class.rocksdb::OptionTypeInfo", ptr %this1, i32 0, i32 6
  %7 = load ptr, ptr %.addr, align 8
  %validate_func_7 = getelementptr inbounds %"class.rocksdb::OptionTypeInfo", ptr %7, i32 0, i32 6
  call void @_ZNSt8functionIFN7rocksdb6StatusERKNS0_9DBOptionsERKNS0_19ColumnFamilyOptionsERKNSt7__cxx1112basic_stringIcSt11char_traitsIcESaIcEEEPKvEEC2EOSJ_(ptr noundef nonnull align 8 dereferenceable(32) %validate_func_, ptr noundef nonnull align 8 dereferenceable(32) %validate_func_7) #3
  %type_ = getelementptr inbounds %"class.rocksdb::OptionTypeInfo", ptr %this1, i32 0, i32 7
  %8 = load ptr, ptr %.addr, align 8
  %type_8 = getelementptr inbounds %"class.rocksdb::OptionTypeInfo", ptr %8, i32 0, i32 7
  call void @llvm.memcpy.p0.p0.i64(ptr align 8 %type_, ptr align 8 %type_8, i64 12, i1 false)
  ret void
}

; Function Attrs: mustprogress nounwind uwtable
define linkonce_odr void @_ZNSt8functionIFN7rocksdb6StatusERKNS0_13ConfigOptionsERKNSt7__cxx1112basic_stringIcSt11char_traitsIcESaIcEEESC_PvEEC2EOSF_(ptr noundef nonnull align 8 dereferenceable(32) %this, ptr noundef nonnull align 8 dereferenceable(32) %__x) unnamed_addr #2 comdat align 2 {
entry:
  %this.addr = alloca ptr, align 8
  %__x.addr = alloca ptr, align 8
  store ptr %this, ptr %this.addr, align 8
  store ptr %__x, ptr %__x.addr, align 8
  %this1 = load ptr, ptr %this.addr, align 8
  %0 = getelementptr inbounds i8, ptr %this1, i64 0
  call void @llvm.memset.p0.i64(ptr align 8 %0, i8 0, i64 24, i1 false)
  call void @_ZNSt14_Function_baseC2Ev(ptr noundef nonnull align 8 dereferenceable(24) %this1) #3
  %_M_invoker = getelementptr inbounds %"class.std::function", ptr %this1, i32 0, i32 1
  %1 = load ptr, ptr %__x.addr, align 8
  %_M_invoker2 = getelementptr inbounds %"class.std::function", ptr %1, i32 0, i32 1
  %2 = load ptr, ptr %_M_invoker2, align 8
  store ptr %2, ptr %_M_invoker, align 8
  %3 = load ptr, ptr %__x.addr, align 8
  %call = call noundef zeroext i1 @_ZNKSt8functionIFN7rocksdb6StatusERKNS0_13ConfigOptionsERKNSt7__cxx1112basic_stringIcSt11char_traitsIcESaIcEEESC_PvEEcvbEv(ptr noundef nonnull align 8 dereferenceable(32) %3) #3
  br i1 %call, label %if.then, label %if.end

if.then:                                          ; preds = %entry
  %4 = load ptr, ptr %__x.addr, align 8
  %_M_functor = getelementptr inbounds %"class.std::_Function_base", ptr %4, i32 0, i32 0
  %_M_functor3 = getelementptr inbounds %"class.std::_Function_base", ptr %this1, i32 0, i32 0
  call void @llvm.memcpy.p0.p0.i64(ptr align 8 %_M_functor3, ptr align 8 %_M_functor, i64 16, i1 false)
  %5 = load ptr, ptr %__x.addr, align 8
  %_M_manager = getelementptr inbounds %"class.std::_Function_base", ptr %5, i32 0, i32 1
  %6 = load ptr, ptr %_M_manager, align 8
  %_M_manager4 = getelementptr inbounds %"class.std::_Function_base", ptr %this1, i32 0, i32 1
  store ptr %6, ptr %_M_manager4, align 8
  %7 = load ptr, ptr %__x.addr, align 8
  %_M_manager5 = getelementptr inbounds %"class.std::_Function_base", ptr %7, i32 0, i32 1
  store ptr null, ptr %_M_manager5, align 8
  %8 = load ptr, ptr %__x.addr, align 8
  %_M_invoker6 = getelementptr inbounds %"class.std::function", ptr %8, i32 0, i32 1
  store ptr null, ptr %_M_invoker6, align 8
  br label %if.end

if.end:                                           ; preds = %if.then, %entry
  ret void
}

; Function Attrs: mustprogress nounwind uwtable
define linkonce_odr void @_ZNSt8functionIFN7rocksdb6StatusERKNS0_13ConfigOptionsERKNSt7__cxx1112basic_stringIcSt11char_traitsIcESaIcEEEPKvPSA_EEC2EOSH_(ptr noundef nonnull align 8 dereferenceable(32) %this, ptr noundef nonnull align 8 dereferenceable(32) %__x) unnamed_addr #2 comdat align 2 {
entry:
  %this.addr = alloca ptr, align 8
  %__x.addr = alloca ptr, align 8
  store ptr %this, ptr %this.addr, align 8
  store ptr %__x, ptr %__x.addr, align 8
  %this1 = load ptr, ptr %this.addr, align 8
  %0 = getelementptr inbounds i8, ptr %this1, i64 0
  call void @llvm.memset.p0.i64(ptr align 8 %0, i8 0, i64 24, i1 false)
  call void @_ZNSt14_Function_baseC2Ev(ptr noundef nonnull align 8 dereferenceable(24) %this1) #3
  %_M_invoker = getelementptr inbounds %"class.std::function.5", ptr %this1, i32 0, i32 1
  %1 = load ptr, ptr %__x.addr, align 8
  %_M_invoker2 = getelementptr inbounds %"class.std::function.5", ptr %1, i32 0, i32 1
  %2 = load ptr, ptr %_M_invoker2, align 8
  store ptr %2, ptr %_M_invoker, align 8
  %3 = load ptr, ptr %__x.addr, align 8
  %call = call noundef zeroext i1 @_ZNKSt8functionIFN7rocksdb6StatusERKNS0_13ConfigOptionsERKNSt7__cxx1112basic_stringIcSt11char_traitsIcESaIcEEEPKvPSA_EEcvbEv(ptr noundef nonnull align 8 dereferenceable(32) %3) #3
  br i1 %call, label %if.then, label %if.end

if.then:                                          ; preds = %entry
  %4 = load ptr, ptr %__x.addr, align 8
  %_M_functor = getelementptr inbounds %"class.std::_Function_base", ptr %4, i32 0, i32 0
  %_M_functor3 = getelementptr inbounds %"class.std::_Function_base", ptr %this1, i32 0, i32 0
  call void @llvm.memcpy.p0.p0.i64(ptr align 8 %_M_functor3, ptr align 8 %_M_functor, i64 16, i1 false)
  %5 = load ptr, ptr %__x.addr, align 8
  %_M_manager = getelementptr inbounds %"class.std::_Function_base", ptr %5, i32 0, i32 1
  %6 = load ptr, ptr %_M_manager, align 8
  %_M_manager4 = getelementptr inbounds %"class.std::_Function_base", ptr %this1, i32 0, i32 1
  store ptr %6, ptr %_M_manager4, align 8
  %7 = load ptr, ptr %__x.addr, align 8
  %_M_manager5 = getelementptr inbounds %"class.std::_Function_base", ptr %7, i32 0, i32 1
  store ptr null, ptr %_M_manager5, align 8
  %8 = load ptr, ptr %__x.addr, align 8
  %_M_invoker6 = getelementptr inbounds %"class.std::function.5", ptr %8, i32 0, i32 1
  store ptr null, ptr %_M_invoker6, align 8
  br label %if.end

if.end:                                           ; preds = %if.then, %entry
  ret void
}

; Function Attrs: mustprogress nounwind uwtable
define linkonce_odr void @_ZNSt8functionIFbRKN7rocksdb13ConfigOptionsERKNSt7__cxx1112basic_stringIcSt11char_traitsIcESaIcEEEPKvSD_PS9_EEC2EOSG_(ptr noundef nonnull align 8 dereferenceable(32) %this, ptr noundef nonnull align 8 dereferenceable(32) %__x) unnamed_addr #2 comdat align 2 {
entry:
  %this.addr = alloca ptr, align 8
  %__x.addr = alloca ptr, align 8
  store ptr %this, ptr %this.addr, align 8
  store ptr %__x, ptr %__x.addr, align 8
  %this1 = load ptr, ptr %this.addr, align 8
  %0 = getelementptr inbounds i8, ptr %this1, i64 0
  call void @llvm.memset.p0.i64(ptr align 8 %0, i8 0, i64 24, i1 false)
  call void @_ZNSt14_Function_baseC2Ev(ptr noundef nonnull align 8 dereferenceable(24) %this1) #3
  %_M_invoker = getelementptr inbounds %"class.std::function.7", ptr %this1, i32 0, i32 1
  %1 = load ptr, ptr %__x.addr, align 8
  %_M_invoker2 = getelementptr inbounds %"class.std::function.7", ptr %1, i32 0, i32 1
  %2 = load ptr, ptr %_M_invoker2, align 8
  store ptr %2, ptr %_M_invoker, align 8
  %3 = load ptr, ptr %__x.addr, align 8
  %call = call noundef zeroext i1 @_ZNKSt8functionIFbRKN7rocksdb13ConfigOptionsERKNSt7__cxx1112basic_stringIcSt11char_traitsIcESaIcEEEPKvSD_PS9_EEcvbEv(ptr noundef nonnull align 8 dereferenceable(32) %3) #3
  br i1 %call, label %if.then, label %if.end

if.then:                                          ; preds = %entry
  %4 = load ptr, ptr %__x.addr, align 8
  %_M_functor = getelementptr inbounds %"class.std::_Function_base", ptr %4, i32 0, i32 0
  %_M_functor3 = getelementptr inbounds %"class.std::_Function_base", ptr %this1, i32 0, i32 0
  call void @llvm.memcpy.p0.p0.i64(ptr align 8 %_M_functor3, ptr align 8 %_M_functor, i64 16, i1 false)
  %5 = load ptr, ptr %__x.addr, align 8
  %_M_manager = getelementptr inbounds %"class.std::_Function_base", ptr %5, i32 0, i32 1
  %6 = load ptr, ptr %_M_manager, align 8
  %_M_manager4 = getelementptr inbounds %"class.std::_Function_base", ptr %this1, i32 0, i32 1
  store ptr %6, ptr %_M_manager4, align 8
  %7 = load ptr, ptr %__x.addr, align 8
  %_M_manager5 = getelementptr inbounds %"class.std::_Function_base", ptr %7, i32 0, i32 1
  store ptr null, ptr %_M_manager5, align 8
  %8 = load ptr, ptr %__x.addr, align 8
  %_M_invoker6 = getelementptr inbounds %"class.std::function.7", ptr %8, i32 0, i32 1
  store ptr null, ptr %_M_invoker6, align 8
  br label %if.end

if.end:                                           ; preds = %if.then, %entry
  ret void
}

; Function Attrs: mustprogress nounwind uwtable
define linkonce_odr void @_ZNSt8functionIFN7rocksdb6StatusERKNS0_13ConfigOptionsERKNSt7__cxx1112basic_stringIcSt11char_traitsIcESaIcEEEPvEEC2EOSF_(ptr noundef nonnull align 8 dereferenceable(32) %this, ptr noundef nonnull align 8 dereferenceable(32) %__x) unnamed_addr #2 comdat align 2 {
entry:
  %this.addr = alloca ptr, align 8
  %__x.addr = alloca ptr, align 8
  store ptr %this, ptr %this.addr, align 8
  store ptr %__x, ptr %__x.addr, align 8
  %this1 = load ptr, ptr %this.addr, align 8
  %0 = getelementptr inbounds i8, ptr %this1, i64 0
  call void @llvm.memset.p0.i64(ptr align 8 %0, i8 0, i64 24, i1 false)
  call void @_ZNSt14_Function_baseC2Ev(ptr noundef nonnull align 8 dereferenceable(24) %this1) #3
  %_M_invoker = getelementptr inbounds %"class.std::function.9", ptr %this1, i32 0, i32 1
  %1 = load ptr, ptr %__x.addr, align 8
  %_M_invoker2 = getelementptr inbounds %"class.std::function.9", ptr %1, i32 0, i32 1
  %2 = load ptr, ptr %_M_invoker2, align 8
  store ptr %2, ptr %_M_invoker, align 8
  %3 = load ptr, ptr %__x.addr, align 8
  %call = call noundef zeroext i1 @_ZNKSt8functionIFN7rocksdb6StatusERKNS0_13ConfigOptionsERKNSt7__cxx1112basic_stringIcSt11char_traitsIcESaIcEEEPvEEcvbEv(ptr noundef nonnull align 8 dereferenceable(32) %3) #3
  br i1 %call, label %if.then, label %if.end

if.then:                                          ; preds = %entry
  %4 = load ptr, ptr %__x.addr, align 8
  %_M_functor = getelementptr inbounds %"class.std::_Function_base", ptr %4, i32 0, i32 0
  %_M_functor3 = getelementptr inbounds %"class.std::_Function_base", ptr %this1, i32 0, i32 0
  call void @llvm.memcpy.p0.p0.i64(ptr align 8 %_M_functor3, ptr align 8 %_M_functor, i64 16, i1 false)
  %5 = load ptr, ptr %__x.addr, align 8
  %_M_manager = getelementptr inbounds %"class.std::_Function_base", ptr %5, i32 0, i32 1
  %6 = load ptr, ptr %_M_manager, align 8
  %_M_manager4 = getelementptr inbounds %"class.std::_Function_base", ptr %this1, i32 0, i32 1
  store ptr %6, ptr %_M_manager4, align 8
  %7 = load ptr, ptr %__x.addr, align 8
  %_M_manager5 = getelementptr inbounds %"class.std::_Function_base", ptr %7, i32 0, i32 1
  store ptr null, ptr %_M_manager5, align 8
  %8 = load ptr, ptr %__x.addr, align 8
  %_M_invoker6 = getelementptr inbounds %"class.std::function.9", ptr %8, i32 0, i32 1
  store ptr null, ptr %_M_invoker6, align 8
  br label %if.end

if.end:                                           ; preds = %if.then, %entry
  ret void
}

; Function Attrs: mustprogress nounwind uwtable
define linkonce_odr void @_ZNSt8functionIFN7rocksdb6StatusERKNS0_9DBOptionsERKNS0_19ColumnFamilyOptionsERKNSt7__cxx1112basic_stringIcSt11char_traitsIcESaIcEEEPKvEEC2EOSJ_(ptr noundef nonnull align 8 dereferenceable(32) %this, ptr noundef nonnull align 8 dereferenceable(32) %__x) unnamed_addr #2 comdat align 2 {
entry:
  %this.addr = alloca ptr, align 8
  %__x.addr = alloca ptr, align 8
  store ptr %this, ptr %this.addr, align 8
  store ptr %__x, ptr %__x.addr, align 8
  %this1 = load ptr, ptr %this.addr, align 8
  %0 = getelementptr inbounds i8, ptr %this1, i64 0
  call void @llvm.memset.p0.i64(ptr align 8 %0, i8 0, i64 24, i1 false)
  call void @_ZNSt14_Function_baseC2Ev(ptr noundef nonnull align 8 dereferenceable(24) %this1) #3
  %_M_invoker = getelementptr inbounds %"class.std::function.11", ptr %this1, i32 0, i32 1
  %1 = load ptr, ptr %__x.addr, align 8
  %_M_invoker2 = getelementptr inbounds %"class.std::function.11", ptr %1, i32 0, i32 1
  %2 = load ptr, ptr %_M_invoker2, align 8
  store ptr %2, ptr %_M_invoker, align 8
  %3 = load ptr, ptr %__x.addr, align 8
  %call = call noundef zeroext i1 @_ZNKSt8functionIFN7rocksdb6StatusERKNS0_9DBOptionsERKNS0_19ColumnFamilyOptionsERKNSt7__cxx1112basic_stringIcSt11char_traitsIcESaIcEEEPKvEEcvbEv(ptr noundef nonnull align 8 dereferenceable(32) %3) #3
  br i1 %call, label %if.then, label %if.end

if.then:                                          ; preds = %entry
  %4 = load ptr, ptr %__x.addr, align 8
  %_M_functor = getelementptr inbounds %"class.std::_Function_base", ptr %4, i32 0, i32 0
  %_M_functor3 = getelementptr inbounds %"class.std::_Function_base", ptr %this1, i32 0, i32 0
  call void @llvm.memcpy.p0.p0.i64(ptr align 8 %_M_functor3, ptr align 8 %_M_functor, i64 16, i1 false)
  %5 = load ptr, ptr %__x.addr, align 8
  %_M_manager = getelementptr inbounds %"class.std::_Function_base", ptr %5, i32 0, i32 1
  %6 = load ptr, ptr %_M_manager, align 8
  %_M_manager4 = getelementptr inbounds %"class.std::_Function_base", ptr %this1, i32 0, i32 1
  store ptr %6, ptr %_M_manager4, align 8
  %7 = load ptr, ptr %__x.addr, align 8
  %_M_manager5 = getelementptr inbounds %"class.std::_Function_base", ptr %7, i32 0, i32 1
  store ptr null, ptr %_M_manager5, align 8
  %8 = load ptr, ptr %__x.addr, align 8
  %_M_invoker6 = getelementptr inbounds %"class.std::function.11", ptr %8, i32 0, i32 1
  store ptr null, ptr %_M_invoker6, align 8
  br label %if.end

if.end:                                           ; preds = %if.then, %entry
  ret void
}

; Function Attrs: nocallback nofree nounwind willreturn memory(argmem: readwrite)
declare void @llvm.memcpy.p0.p0.i64(ptr noalias nocapture writeonly, ptr noalias nocapture readonly, i64, i1 immarg) #6

; Function Attrs: nocallback nofree nounwind willreturn memory(argmem: write)
declare void @llvm.memset.p0.i64(ptr nocapture writeonly, i8, i64, i1 immarg) #7

; Function Attrs: mustprogress nounwind uwtable
define linkonce_odr void @_ZNSt14_Function_baseC2Ev(ptr noundef nonnull align 8 dereferenceable(24) %this) unnamed_addr #2 comdat align 2 {
entry:
  %this.addr = alloca ptr, align 8
  store ptr %this, ptr %this.addr, align 8
  %this1 = load ptr, ptr %this.addr, align 8
  %_M_functor = getelementptr inbounds %"class.std::_Function_base", ptr %this1, i32 0, i32 0
  store ptr null, ptr %_M_functor, align 8
  %_M_manager = getelementptr inbounds %"class.std::_Function_base", ptr %this1, i32 0, i32 1
  store ptr null, ptr %_M_manager, align 8
  ret void
}

; Function Attrs: mustprogress nounwind uwtable
define linkonce_odr noundef zeroext i1 @_ZNKSt8functionIFN7rocksdb6StatusERKNS0_13ConfigOptionsERKNSt7__cxx1112basic_stringIcSt11char_traitsIcESaIcEEESC_PvEEcvbEv(ptr noundef nonnull align 8 dereferenceable(32) %this) #2 comdat align 2 personality ptr @__gxx_personality_v0 {
entry:
  %this.addr = alloca ptr, align 8
  store ptr %this, ptr %this.addr, align 8
  %this1 = load ptr, ptr %this.addr, align 8
  %call = invoke noundef zeroext i1 @_ZNKSt14_Function_base8_M_emptyEv(ptr noundef nonnull align 8 dereferenceable(24) %this1)
          to label %invoke.cont unwind label %terminate.lpad

invoke.cont:                                      ; preds = %entry
  %lnot = xor i1 %call, true
  ret i1 %lnot

terminate.lpad:                                   ; preds = %entry
  %0 = landingpad { ptr, i32 }
          catch ptr null
  %1 = extractvalue { ptr, i32 } %0, 0
  call void @__clang_call_terminate(ptr %1) #16
  unreachable
}

; Function Attrs: mustprogress nounwind uwtable
define linkonce_odr noundef zeroext i1 @_ZNKSt14_Function_base8_M_emptyEv(ptr noundef nonnull align 8 dereferenceable(24) %this) #2 comdat align 2 {
entry:
  %this.addr = alloca ptr, align 8
  store ptr %this, ptr %this.addr, align 8
  %this1 = load ptr, ptr %this.addr, align 8
  %_M_manager = getelementptr inbounds %"class.std::_Function_base", ptr %this1, i32 0, i32 1
  %0 = load ptr, ptr %_M_manager, align 8
  %tobool = icmp ne ptr %0, null
  %lnot = xor i1 %tobool, true
  ret i1 %lnot
}

; Function Attrs: noreturn nounwind uwtable
define linkonce_odr hidden void @__clang_call_terminate(ptr noundef %0) #8 comdat {
  %2 = call ptr @__cxa_begin_catch(ptr %0) #3
  call void @_ZSt9terminatev() #16
  unreachable
}

declare ptr @__cxa_begin_catch(ptr)

declare void @_ZSt9terminatev()

; Function Attrs: mustprogress nounwind uwtable
define linkonce_odr noundef zeroext i1 @_ZNKSt8functionIFN7rocksdb6StatusERKNS0_13ConfigOptionsERKNSt7__cxx1112basic_stringIcSt11char_traitsIcESaIcEEEPKvPSA_EEcvbEv(ptr noundef nonnull align 8 dereferenceable(32) %this) #2 comdat align 2 {
entry:
  %this.addr = alloca ptr, align 8
  store ptr %this, ptr %this.addr, align 8
  %this1 = load ptr, ptr %this.addr, align 8
  %call = call noundef zeroext i1 @_ZNKSt14_Function_base8_M_emptyEv(ptr noundef nonnull align 8 dereferenceable(24) %this1)
  %lnot = xor i1 %call, true
  ret i1 %lnot
}

; Function Attrs: mustprogress nounwind uwtable
define linkonce_odr noundef zeroext i1 @_ZNKSt8functionIFbRKN7rocksdb13ConfigOptionsERKNSt7__cxx1112basic_stringIcSt11char_traitsIcESaIcEEEPKvSD_PS9_EEcvbEv(ptr noundef nonnull align 8 dereferenceable(32) %this) #2 comdat align 2 {
entry:
  %this.addr = alloca ptr, align 8
  store ptr %this, ptr %this.addr, align 8
  %this1 = load ptr, ptr %this.addr, align 8
  %call = call noundef zeroext i1 @_ZNKSt14_Function_base8_M_emptyEv(ptr noundef nonnull align 8 dereferenceable(24) %this1)
  %lnot = xor i1 %call, true
  ret i1 %lnot
}

; Function Attrs: mustprogress nounwind uwtable
define linkonce_odr noundef zeroext i1 @_ZNKSt8functionIFN7rocksdb6StatusERKNS0_13ConfigOptionsERKNSt7__cxx1112basic_stringIcSt11char_traitsIcESaIcEEEPvEEcvbEv(ptr noundef nonnull align 8 dereferenceable(32) %this) #2 comdat align 2 {
entry:
  %this.addr = alloca ptr, align 8
  store ptr %this, ptr %this.addr, align 8
  %this1 = load ptr, ptr %this.addr, align 8
  %call = call noundef zeroext i1 @_ZNKSt14_Function_base8_M_emptyEv(ptr noundef nonnull align 8 dereferenceable(24) %this1)
  %lnot = xor i1 %call, true
  ret i1 %lnot
}

; Function Attrs: mustprogress nounwind uwtable
define linkonce_odr noundef zeroext i1 @_ZNKSt8functionIFN7rocksdb6StatusERKNS0_9DBOptionsERKNS0_19ColumnFamilyOptionsERKNSt7__cxx1112basic_stringIcSt11char_traitsIcESaIcEEEPKvEEcvbEv(ptr noundef nonnull align 8 dereferenceable(32) %this) #2 comdat align 2 {
entry:
  %this.addr = alloca ptr, align 8
  store ptr %this, ptr %this.addr, align 8
  %this1 = load ptr, ptr %this.addr, align 8
  %call = call noundef zeroext i1 @_ZNKSt14_Function_base8_M_emptyEv(ptr noundef nonnull align 8 dereferenceable(24) %this1)
  %lnot = xor i1 %call, true
  ret i1 %lnot
}

; Function Attrs: mustprogress nounwind uwtable
define linkonce_odr void @_ZNSt8functionIFN7rocksdb6StatusERKNS0_9DBOptionsERKNS0_19ColumnFamilyOptionsERKNSt7__cxx1112basic_stringIcSt11char_traitsIcESaIcEEEPKvEED2Ev(ptr noundef nonnull align 8 dereferenceable(32) %this) unnamed_addr #2 comdat align 2 {
entry:
  %this.addr = alloca ptr, align 8
  store ptr %this, ptr %this.addr, align 8
  %this1 = load ptr, ptr %this.addr, align 8
  call void @_ZNSt14_Function_baseD2Ev(ptr noundef nonnull align 8 dereferenceable(24) %this1) #3
  ret void
}

; Function Attrs: mustprogress nounwind uwtable
define linkonce_odr void @_ZNSt8functionIFN7rocksdb6StatusERKNS0_13ConfigOptionsERKNSt7__cxx1112basic_stringIcSt11char_traitsIcESaIcEEEPvEED2Ev(ptr noundef nonnull align 8 dereferenceable(32) %this) unnamed_addr #2 comdat align 2 {
entry:
  %this.addr = alloca ptr, align 8
  store ptr %this, ptr %this.addr, align 8
  %this1 = load ptr, ptr %this.addr, align 8
  call void @_ZNSt14_Function_baseD2Ev(ptr noundef nonnull align 8 dereferenceable(24) %this1) #3
  ret void
}

; Function Attrs: mustprogress nounwind uwtable
define linkonce_odr void @_ZNSt8functionIFbRKN7rocksdb13ConfigOptionsERKNSt7__cxx1112basic_stringIcSt11char_traitsIcESaIcEEEPKvSD_PS9_EED2Ev(ptr noundef nonnull align 8 dereferenceable(32) %this) unnamed_addr #2 comdat align 2 {
entry:
  %this.addr = alloca ptr, align 8
  store ptr %this, ptr %this.addr, align 8
  %this1 = load ptr, ptr %this.addr, align 8
  call void @_ZNSt14_Function_baseD2Ev(ptr noundef nonnull align 8 dereferenceable(24) %this1) #3
  ret void
}

; Function Attrs: mustprogress nounwind uwtable
define linkonce_odr void @_ZNSt8functionIFN7rocksdb6StatusERKNS0_13ConfigOptionsERKNSt7__cxx1112basic_stringIcSt11char_traitsIcESaIcEEEPKvPSA_EED2Ev(ptr noundef nonnull align 8 dereferenceable(32) %this) unnamed_addr #2 comdat align 2 {
entry:
  %this.addr = alloca ptr, align 8
  store ptr %this, ptr %this.addr, align 8
  %this1 = load ptr, ptr %this.addr, align 8
  call void @_ZNSt14_Function_baseD2Ev(ptr noundef nonnull align 8 dereferenceable(24) %this1) #3
  ret void
}

; Function Attrs: mustprogress nounwind uwtable
define linkonce_odr void @_ZNSt8functionIFN7rocksdb6StatusERKNS0_13ConfigOptionsERKNSt7__cxx1112basic_stringIcSt11char_traitsIcESaIcEEESC_PvEED2Ev(ptr noundef nonnull align 8 dereferenceable(32) %this) unnamed_addr #2 comdat align 2 {
entry:
  %this.addr = alloca ptr, align 8
  store ptr %this, ptr %this.addr, align 8
  %this1 = load ptr, ptr %this.addr, align 8
  call void @_ZNSt14_Function_baseD2Ev(ptr noundef nonnull align 8 dereferenceable(24) %this1) #3
  ret void
}

; Function Attrs: mustprogress nounwind uwtable
define linkonce_odr void @_ZNSt14_Function_baseD2Ev(ptr noundef nonnull align 8 dereferenceable(24) %this) unnamed_addr #2 comdat align 2 personality ptr @__gxx_personality_v0 {
entry:
  %this.addr = alloca ptr, align 8
  store ptr %this, ptr %this.addr, align 8
  %this1 = load ptr, ptr %this.addr, align 8
  %_M_manager = getelementptr inbounds %"class.std::_Function_base", ptr %this1, i32 0, i32 1
  %0 = load ptr, ptr %_M_manager, align 8
  %tobool = icmp ne ptr %0, null
  br i1 %tobool, label %if.then, label %if.end

if.then:                                          ; preds = %entry
  %_M_manager2 = getelementptr inbounds %"class.std::_Function_base", ptr %this1, i32 0, i32 1
  %1 = load ptr, ptr %_M_manager2, align 8
  %_M_functor = getelementptr inbounds %"class.std::_Function_base", ptr %this1, i32 0, i32 0
  %_M_functor3 = getelementptr inbounds %"class.std::_Function_base", ptr %this1, i32 0, i32 0
  %call = invoke noundef zeroext i1 %1(ptr noundef nonnull align 8 dereferenceable(16) %_M_functor, ptr noundef nonnull align 8 dereferenceable(16) %_M_functor3, i32 noundef 3)
          to label %invoke.cont unwind label %terminate.lpad

invoke.cont:                                      ; preds = %if.then
  br label %if.end

if.end:                                           ; preds = %invoke.cont, %entry
  ret void

terminate.lpad:                                   ; preds = %if.then
  %2 = landingpad { ptr, i32 }
          catch ptr null
  %3 = extractvalue { ptr, i32 } %2, 0
  call void @__clang_call_terminate(ptr %3) #16
  unreachable
}

; Function Attrs: mustprogress nounwind uwtable
define linkonce_odr void @_ZNSt10_HashtableINSt7__cxx1112basic_stringIcSt11char_traitsIcESaIcEEESt4pairIKS5_N7rocksdb14OptionTypeInfoEESaISA_ENSt8__detail10_Select1stESt8equal_toIS5_ESt4hashIS5_ENSC_18_Mod_range_hashingENSC_20_Default_ranged_hashENSC_20_Prime_rehash_policyENSC_17_Hashtable_traitsILb1ELb0ELb1EEEED2Ev(ptr noundef nonnull align 8 dereferenceable(56) %this) unnamed_addr #2 comdat align 2 personality ptr @__gxx_personality_v0 {
entry:
  %this.addr = alloca ptr, align 8
  store ptr %this, ptr %this.addr, align 8
  %this1 = load ptr, ptr %this.addr, align 8
  call void @_ZNSt10_HashtableINSt7__cxx1112basic_stringIcSt11char_traitsIcESaIcEEESt4pairIKS5_N7rocksdb14OptionTypeInfoEESaISA_ENSt8__detail10_Select1stESt8equal_toIS5_ESt4hashIS5_ENSC_18_Mod_range_hashingENSC_20_Default_ranged_hashENSC_20_Prime_rehash_policyENSC_17_Hashtable_traitsILb1ELb0ELb1EEEE5clearEv(ptr noundef nonnull align 8 dereferenceable(56) %this1) #3
  invoke void @_ZNSt10_HashtableINSt7__cxx1112basic_stringIcSt11char_traitsIcESaIcEEESt4pairIKS5_N7rocksdb14OptionTypeInfoEESaISA_ENSt8__detail10_Select1stESt8equal_toIS5_ESt4hashIS5_ENSC_18_Mod_range_hashingENSC_20_Default_ranged_hashENSC_20_Prime_rehash_policyENSC_17_Hashtable_traitsILb1ELb0ELb1EEEE21_M_deallocate_bucketsEv(ptr noundef nonnull align 8 dereferenceable(56) %this1)
          to label %invoke.cont unwind label %terminate.lpad

invoke.cont:                                      ; preds = %entry
  call void @_ZNSt8__detail16_Hashtable_allocISaINS_10_Hash_nodeISt4pairIKNSt7__cxx1112basic_stringIcSt11char_traitsIcESaIcEEEN7rocksdb14OptionTypeInfoEELb1EEEEED2Ev(ptr noundef nonnull align 1 dereferenceable(1) %this1) #3
  ret void

terminate.lpad:                                   ; preds = %entry
  %0 = landingpad { ptr, i32 }
          catch ptr null
  %1 = extractvalue { ptr, i32 } %0, 0
  call void @__clang_call_terminate(ptr %1) #16
  unreachable
}

; Function Attrs: mustprogress nounwind uwtable
define linkonce_odr void @_ZNSt10_HashtableINSt7__cxx1112basic_stringIcSt11char_traitsIcESaIcEEESt4pairIKS5_N7rocksdb14OptionTypeInfoEESaISA_ENSt8__detail10_Select1stESt8equal_toIS5_ESt4hashIS5_ENSC_18_Mod_range_hashingENSC_20_Default_ranged_hashENSC_20_Prime_rehash_policyENSC_17_Hashtable_traitsILb1ELb0ELb1EEEE5clearEv(ptr noundef nonnull align 8 dereferenceable(56) %this) #2 comdat align 2 personality ptr @__gxx_personality_v0 {
entry:
  %this.addr = alloca ptr, align 8
  store ptr %this, ptr %this.addr, align 8
  %this1 = load ptr, ptr %this.addr, align 8
  %call = invoke noundef ptr @_ZNKSt10_HashtableINSt7__cxx1112basic_stringIcSt11char_traitsIcESaIcEEESt4pairIKS5_N7rocksdb14OptionTypeInfoEESaISA_ENSt8__detail10_Select1stESt8equal_toIS5_ESt4hashIS5_ENSC_18_Mod_range_hashingENSC_20_Default_ranged_hashENSC_20_Prime_rehash_policyENSC_17_Hashtable_traitsILb1ELb0ELb1EEEE8_M_beginEv(ptr noundef nonnull align 8 dereferenceable(56) %this1)
          to label %invoke.cont unwind label %terminate.lpad

invoke.cont:                                      ; preds = %entry
  invoke void @_ZNSt8__detail16_Hashtable_allocISaINS_10_Hash_nodeISt4pairIKNSt7__cxx1112basic_stringIcSt11char_traitsIcESaIcEEEN7rocksdb14OptionTypeInfoEELb1EEEEE19_M_deallocate_nodesEPSD_(ptr noundef nonnull align 1 dereferenceable(1) %this1, ptr noundef %call)
          to label %invoke.cont2 unwind label %terminate.lpad

invoke.cont2:                                     ; preds = %invoke.cont
  %_M_buckets = getelementptr inbounds %"class.std::_Hashtable", ptr %this1, i32 0, i32 0
  %0 = load ptr, ptr %_M_buckets, align 8
  %_M_bucket_count = getelementptr inbounds %"class.std::_Hashtable", ptr %this1, i32 0, i32 1
  %1 = load i64, ptr %_M_bucket_count, align 8
  %mul = mul i64 %1, 8
  call void @llvm.memset.p0.i64(ptr align 8 %0, i8 0, i64 %mul, i1 false)
  %_M_element_count = getelementptr inbounds %"class.std::_Hashtable", ptr %this1, i32 0, i32 3
  store i64 0, ptr %_M_element_count, align 8
  %_M_before_begin = getelementptr inbounds %"class.std::_Hashtable", ptr %this1, i32 0, i32 2
  %_M_nxt = getelementptr inbounds %"struct.std::__detail::_Hash_node_base", ptr %_M_before_begin, i32 0, i32 0
  store ptr null, ptr %_M_nxt, align 8
  ret void

terminate.lpad:                                   ; preds = %invoke.cont, %entry
  %2 = landingpad { ptr, i32 }
          catch ptr null
  %3 = extractvalue { ptr, i32 } %2, 0
  call void @__clang_call_terminate(ptr %3) #16
  unreachable
}

; Function Attrs: mustprogress uwtable
define linkonce_odr void @_ZNSt10_HashtableINSt7__cxx1112basic_stringIcSt11char_traitsIcESaIcEEESt4pairIKS5_N7rocksdb14OptionTypeInfoEESaISA_ENSt8__detail10_Select1stESt8equal_toIS5_ESt4hashIS5_ENSC_18_Mod_range_hashingENSC_20_Default_ranged_hashENSC_20_Prime_rehash_policyENSC_17_Hashtable_traitsILb1ELb0ELb1EEEE21_M_deallocate_bucketsEv(ptr noundef nonnull align 8 dereferenceable(56) %this) #1 comdat align 2 {
entry:
  %this.addr = alloca ptr, align 8
  store ptr %this, ptr %this.addr, align 8
  %this1 = load ptr, ptr %this.addr, align 8
  %_M_buckets = getelementptr inbounds %"class.std::_Hashtable", ptr %this1, i32 0, i32 0
  %0 = load ptr, ptr %_M_buckets, align 8
  %_M_bucket_count = getelementptr inbounds %"class.std::_Hashtable", ptr %this1, i32 0, i32 1
  %1 = load i64, ptr %_M_bucket_count, align 8
  call void @_ZNSt10_HashtableINSt7__cxx1112basic_stringIcSt11char_traitsIcESaIcEEESt4pairIKS5_N7rocksdb14OptionTypeInfoEESaISA_ENSt8__detail10_Select1stESt8equal_toIS5_ESt4hashIS5_ENSC_18_Mod_range_hashingENSC_20_Default_ranged_hashENSC_20_Prime_rehash_policyENSC_17_Hashtable_traitsILb1ELb0ELb1EEEE21_M_deallocate_bucketsEPPNSC_15_Hash_node_baseEm(ptr noundef nonnull align 8 dereferenceable(56) %this1, ptr noundef %0, i64 noundef %1)
  ret void
}

; Function Attrs: mustprogress nounwind uwtable
define linkonce_odr void @_ZNSt8__detail16_Hashtable_allocISaINS_10_Hash_nodeISt4pairIKNSt7__cxx1112basic_stringIcSt11char_traitsIcESaIcEEEN7rocksdb14OptionTypeInfoEELb1EEEEED2Ev(ptr noundef nonnull align 1 dereferenceable(1) %this) unnamed_addr #2 comdat align 2 {
entry:
  %this.addr = alloca ptr, align 8
  store ptr %this, ptr %this.addr, align 8
  %this1 = load ptr, ptr %this.addr, align 8
  call void @_ZNSt8__detail21_Hashtable_ebo_helperILi0ESaINS_10_Hash_nodeISt4pairIKNSt7__cxx1112basic_stringIcSt11char_traitsIcESaIcEEEN7rocksdb14OptionTypeInfoEELb1EEEELb1EED2Ev(ptr noundef nonnull align 1 dereferenceable(1) %this1) #3
  ret void
}

; Function Attrs: mustprogress uwtable
define linkonce_odr void @_ZNSt8__detail16_Hashtable_allocISaINS_10_Hash_nodeISt4pairIKNSt7__cxx1112basic_stringIcSt11char_traitsIcESaIcEEEN7rocksdb14OptionTypeInfoEELb1EEEEE19_M_deallocate_nodesEPSD_(ptr noundef nonnull align 1 dereferenceable(1) %this, ptr noundef %__n) #1 comdat align 2 {
entry:
  %this.addr = alloca ptr, align 8
  %__n.addr = alloca ptr, align 8
  %__tmp = alloca ptr, align 8
  store ptr %this, ptr %this.addr, align 8
  store ptr %__n, ptr %__n.addr, align 8
  %this1 = load ptr, ptr %this.addr, align 8
  br label %while.cond

while.cond:                                       ; preds = %while.body, %entry
  %0 = load ptr, ptr %__n.addr, align 8
  %tobool = icmp ne ptr %0, null
  br i1 %tobool, label %while.body, label %while.end

while.body:                                       ; preds = %while.cond
  %1 = load ptr, ptr %__n.addr, align 8
  store ptr %1, ptr %__tmp, align 8
  %2 = load ptr, ptr %__n.addr, align 8
  %call = call noundef ptr @_ZNKSt8__detail10_Hash_nodeISt4pairIKNSt7__cxx1112basic_stringIcSt11char_traitsIcESaIcEEEN7rocksdb14OptionTypeInfoEELb1EE7_M_nextEv(ptr noundef nonnull align 8 dereferenceable(232) %2) #3
  store ptr %call, ptr %__n.addr, align 8
  %3 = load ptr, ptr %__tmp, align 8
  call void @_ZNSt8__detail16_Hashtable_allocISaINS_10_Hash_nodeISt4pairIKNSt7__cxx1112basic_stringIcSt11char_traitsIcESaIcEEEN7rocksdb14OptionTypeInfoEELb1EEEEE18_M_deallocate_nodeEPSD_(ptr noundef nonnull align 1 dereferenceable(1) %this1, ptr noundef %3)
  br label %while.cond, !llvm.loop !4

while.end:                                        ; preds = %while.cond
  ret void
}

; Function Attrs: mustprogress nounwind uwtable
define linkonce_odr noundef ptr @_ZNKSt10_HashtableINSt7__cxx1112basic_stringIcSt11char_traitsIcESaIcEEESt4pairIKS5_N7rocksdb14OptionTypeInfoEESaISA_ENSt8__detail10_Select1stESt8equal_toIS5_ESt4hashIS5_ENSC_18_Mod_range_hashingENSC_20_Default_ranged_hashENSC_20_Prime_rehash_policyENSC_17_Hashtable_traitsILb1ELb0ELb1EEEE8_M_beginEv(ptr noundef nonnull align 8 dereferenceable(56) %this) #2 comdat align 2 {
entry:
  %this.addr = alloca ptr, align 8
  store ptr %this, ptr %this.addr, align 8
  %this1 = load ptr, ptr %this.addr, align 8
  %_M_before_begin = getelementptr inbounds %"class.std::_Hashtable", ptr %this1, i32 0, i32 2
  %_M_nxt = getelementptr inbounds %"struct.std::__detail::_Hash_node_base", ptr %_M_before_begin, i32 0, i32 0
  %0 = load ptr, ptr %_M_nxt, align 8
  ret ptr %0
}

; Function Attrs: mustprogress nounwind uwtable
define linkonce_odr noundef ptr @_ZNKSt8__detail10_Hash_nodeISt4pairIKNSt7__cxx1112basic_stringIcSt11char_traitsIcESaIcEEEN7rocksdb14OptionTypeInfoEELb1EE7_M_nextEv(ptr noundef nonnull align 8 dereferenceable(232) %this) #2 comdat align 2 {
entry:
  %this.addr = alloca ptr, align 8
  store ptr %this, ptr %this.addr, align 8
  %this1 = load ptr, ptr %this.addr, align 8
  %_M_nxt = getelementptr inbounds %"struct.std::__detail::_Hash_node_base", ptr %this1, i32 0, i32 0
  %0 = load ptr, ptr %_M_nxt, align 8
  ret ptr %0
}

; Function Attrs: mustprogress uwtable
define linkonce_odr void @_ZNSt8__detail16_Hashtable_allocISaINS_10_Hash_nodeISt4pairIKNSt7__cxx1112basic_stringIcSt11char_traitsIcESaIcEEEN7rocksdb14OptionTypeInfoEELb1EEEEE18_M_deallocate_nodeEPSD_(ptr noundef nonnull align 1 dereferenceable(1) %this, ptr noundef %__n) #1 comdat align 2 {
entry:
  %this.addr = alloca ptr, align 8
  %__n.addr = alloca ptr, align 8
  store ptr %this, ptr %this.addr, align 8
  store ptr %__n, ptr %__n.addr, align 8
  %this1 = load ptr, ptr %this.addr, align 8
  %call = call noundef nonnull align 1 dereferenceable(1) ptr @_ZNSt8__detail16_Hashtable_allocISaINS_10_Hash_nodeISt4pairIKNSt7__cxx1112basic_stringIcSt11char_traitsIcESaIcEEEN7rocksdb14OptionTypeInfoEELb1EEEEE17_M_node_allocatorEv(ptr noundef nonnull align 1 dereferenceable(1) %this1)
  %0 = load ptr, ptr %__n.addr, align 8
  %add.ptr = getelementptr inbounds i8, ptr %0, i64 8
  %call2 = call noundef ptr @_ZNSt8__detail21_Hash_node_value_baseISt4pairIKNSt7__cxx1112basic_stringIcSt11char_traitsIcESaIcEEEN7rocksdb14OptionTypeInfoEEE9_M_valptrEv(ptr noundef nonnull align 8 dereferenceable(216) %add.ptr) #3
  call void @_ZNSt16allocator_traitsISaINSt8__detail10_Hash_nodeISt4pairIKNSt7__cxx1112basic_stringIcSt11char_traitsIcESaIcEEEN7rocksdb14OptionTypeInfoEELb1EEEEE7destroyISC_EEvRSE_PT_(ptr noundef nonnull align 1 dereferenceable(1) %call, ptr noundef %call2) #3
  %1 = load ptr, ptr %__n.addr, align 8
  call void @_ZNSt8__detail16_Hashtable_allocISaINS_10_Hash_nodeISt4pairIKNSt7__cxx1112basic_stringIcSt11char_traitsIcESaIcEEEN7rocksdb14OptionTypeInfoEELb1EEEEE22_M_deallocate_node_ptrEPSD_(ptr noundef nonnull align 1 dereferenceable(1) %this1, ptr noundef %1)
  ret void
}

; Function Attrs: mustprogress nounwind uwtable
define linkonce_odr void @_ZNSt16allocator_traitsISaINSt8__detail10_Hash_nodeISt4pairIKNSt7__cxx1112basic_stringIcSt11char_traitsIcESaIcEEEN7rocksdb14OptionTypeInfoEELb1EEEEE7destroyISC_EEvRSE_PT_(ptr noundef nonnull align 1 dereferenceable(1) %__a, ptr noundef %__p) #2 comdat align 2 {
entry:
  %__a.addr = alloca ptr, align 8
  %__p.addr = alloca ptr, align 8
  store ptr %__a, ptr %__a.addr, align 8
  store ptr %__p, ptr %__p.addr, align 8
  %0 = load ptr, ptr %__a.addr, align 8
  %1 = load ptr, ptr %__p.addr, align 8
  call void @_ZNSt15__new_allocatorINSt8__detail10_Hash_nodeISt4pairIKNSt7__cxx1112basic_stringIcSt11char_traitsIcESaIcEEEN7rocksdb14OptionTypeInfoEELb1EEEE7destroyISC_EEvPT_(ptr noundef nonnull align 1 dereferenceable(1) %0, ptr noundef %1) #3
  ret void
}

; Function Attrs: mustprogress uwtable
define linkonce_odr noundef nonnull align 1 dereferenceable(1) ptr @_ZNSt8__detail16_Hashtable_allocISaINS_10_Hash_nodeISt4pairIKNSt7__cxx1112basic_stringIcSt11char_traitsIcESaIcEEEN7rocksdb14OptionTypeInfoEELb1EEEEE17_M_node_allocatorEv(ptr noundef nonnull align 1 dereferenceable(1) %this) #1 comdat align 2 {
entry:
  %this.addr = alloca ptr, align 8
  store ptr %this, ptr %this.addr, align 8
  %this1 = load ptr, ptr %this.addr, align 8
  %call = call noundef nonnull align 1 dereferenceable(1) ptr @_ZNSt8__detail21_Hashtable_ebo_helperILi0ESaINS_10_Hash_nodeISt4pairIKNSt7__cxx1112basic_stringIcSt11char_traitsIcESaIcEEEN7rocksdb14OptionTypeInfoEELb1EEEELb1EE6_M_getEv(ptr noundef nonnull align 1 dereferenceable(1) %this1)
  ret ptr %call
}

; Function Attrs: mustprogress nounwind uwtable
define linkonce_odr noundef ptr @_ZNSt8__detail21_Hash_node_value_baseISt4pairIKNSt7__cxx1112basic_stringIcSt11char_traitsIcESaIcEEEN7rocksdb14OptionTypeInfoEEE9_M_valptrEv(ptr noundef nonnull align 8 dereferenceable(216) %this) #2 comdat align 2 {
entry:
  %this.addr = alloca ptr, align 8
  store ptr %this, ptr %this.addr, align 8
  %this1 = load ptr, ptr %this.addr, align 8
  %_M_storage = getelementptr inbounds %"struct.std::__detail::_Hash_node_value_base", ptr %this1, i32 0, i32 0
  %call = call noundef ptr @_ZN9__gnu_cxx16__aligned_bufferISt4pairIKNSt7__cxx1112basic_stringIcSt11char_traitsIcESaIcEEEN7rocksdb14OptionTypeInfoEEE6_M_ptrEv(ptr noundef nonnull align 8 dereferenceable(216) %_M_storage) #3
  ret ptr %call
}

; Function Attrs: mustprogress uwtable
define linkonce_odr void @_ZNSt8__detail16_Hashtable_allocISaINS_10_Hash_nodeISt4pairIKNSt7__cxx1112basic_stringIcSt11char_traitsIcESaIcEEEN7rocksdb14OptionTypeInfoEELb1EEEEE22_M_deallocate_node_ptrEPSD_(ptr noundef nonnull align 1 dereferenceable(1) %this, ptr noundef %__n) #1 comdat align 2 {
entry:
  %this.addr = alloca ptr, align 8
  %__n.addr = alloca ptr, align 8
  %__ptr = alloca ptr, align 8
  store ptr %this, ptr %this.addr, align 8
  store ptr %__n, ptr %__n.addr, align 8
  %this1 = load ptr, ptr %this.addr, align 8
  %0 = load ptr, ptr %__n.addr, align 8
  %call = call noundef ptr @_ZNSt19__ptr_traits_ptr_toIPNSt8__detail10_Hash_nodeISt4pairIKNSt7__cxx1112basic_stringIcSt11char_traitsIcESaIcEEEN7rocksdb14OptionTypeInfoEELb1EEESD_Lb0EE10pointer_toERSD_(ptr noundef nonnull align 8 dereferenceable(232) %0) #3
  store ptr %call, ptr %__ptr, align 8
  %call2 = call noundef nonnull align 1 dereferenceable(1) ptr @_ZNSt8__detail16_Hashtable_allocISaINS_10_Hash_nodeISt4pairIKNSt7__cxx1112basic_stringIcSt11char_traitsIcESaIcEEEN7rocksdb14OptionTypeInfoEELb1EEEEE17_M_node_allocatorEv(ptr noundef nonnull align 1 dereferenceable(1) %this1)
  %1 = load ptr, ptr %__ptr, align 8
  call void @_ZNSt16allocator_traitsISaINSt8__detail10_Hash_nodeISt4pairIKNSt7__cxx1112basic_stringIcSt11char_traitsIcESaIcEEEN7rocksdb14OptionTypeInfoEELb1EEEEE10deallocateERSE_PSD_m(ptr noundef nonnull align 1 dereferenceable(1) %call2, ptr noundef %1, i64 noundef 1)
  ret void
}

; Function Attrs: mustprogress nounwind uwtable
define linkonce_odr void @_ZNSt15__new_allocatorINSt8__detail10_Hash_nodeISt4pairIKNSt7__cxx1112basic_stringIcSt11char_traitsIcESaIcEEEN7rocksdb14OptionTypeInfoEELb1EEEE7destroyISC_EEvPT_(ptr noundef nonnull align 1 dereferenceable(1) %this, ptr noundef %__p) #2 comdat align 2 {
entry:
  %this.addr = alloca ptr, align 8
  %__p.addr = alloca ptr, align 8
  store ptr %this, ptr %this.addr, align 8
  store ptr %__p, ptr %__p.addr, align 8
  %0 = load ptr, ptr %__p.addr, align 8
  call void @_ZNSt4pairIKNSt7__cxx1112basic_stringIcSt11char_traitsIcESaIcEEEN7rocksdb14OptionTypeInfoEED2Ev(ptr noundef nonnull align 8 dereferenceable(216) %0) #3
  ret void
}

; Function Attrs: mustprogress nounwind uwtable
define linkonce_odr noundef nonnull align 1 dereferenceable(1) ptr @_ZNSt8__detail21_Hashtable_ebo_helperILi0ESaINS_10_Hash_nodeISt4pairIKNSt7__cxx1112basic_stringIcSt11char_traitsIcESaIcEEEN7rocksdb14OptionTypeInfoEELb1EEEELb1EE6_M_getEv(ptr noundef nonnull align 1 dereferenceable(1) %this) #2 comdat align 2 {
entry:
  %this.addr = alloca ptr, align 8
  store ptr %this, ptr %this.addr, align 8
  %this1 = load ptr, ptr %this.addr, align 8
  ret ptr %this1
}

; Function Attrs: mustprogress nounwind uwtable
define linkonce_odr noundef ptr @_ZN9__gnu_cxx16__aligned_bufferISt4pairIKNSt7__cxx1112basic_stringIcSt11char_traitsIcESaIcEEEN7rocksdb14OptionTypeInfoEEE6_M_ptrEv(ptr noundef nonnull align 8 dereferenceable(216) %this) #2 comdat align 2 {
entry:
  %this.addr = alloca ptr, align 8
  store ptr %this, ptr %this.addr, align 8
  %this1 = load ptr, ptr %this.addr, align 8
  %call = call noundef ptr @_ZN9__gnu_cxx16__aligned_bufferISt4pairIKNSt7__cxx1112basic_stringIcSt11char_traitsIcESaIcEEEN7rocksdb14OptionTypeInfoEEE7_M_addrEv(ptr noundef nonnull align 8 dereferenceable(216) %this1) #3
  ret ptr %call
}

; Function Attrs: mustprogress nounwind uwtable
define linkonce_odr noundef ptr @_ZN9__gnu_cxx16__aligned_bufferISt4pairIKNSt7__cxx1112basic_stringIcSt11char_traitsIcESaIcEEEN7rocksdb14OptionTypeInfoEEE7_M_addrEv(ptr noundef nonnull align 8 dereferenceable(216) %this) #2 comdat align 2 {
entry:
  %this.addr = alloca ptr, align 8
  store ptr %this, ptr %this.addr, align 8
  %this1 = load ptr, ptr %this.addr, align 8
  %_M_storage = getelementptr inbounds %"struct.__gnu_cxx::__aligned_buffer", ptr %this1, i32 0, i32 0
  ret ptr %_M_storage
}

; Function Attrs: mustprogress nounwind uwtable
define linkonce_odr noundef ptr @_ZNSt19__ptr_traits_ptr_toIPNSt8__detail10_Hash_nodeISt4pairIKNSt7__cxx1112basic_stringIcSt11char_traitsIcESaIcEEEN7rocksdb14OptionTypeInfoEELb1EEESD_Lb0EE10pointer_toERSD_(ptr noundef nonnull align 8 dereferenceable(232) %__r) #2 comdat align 2 {
entry:
  %__r.addr = alloca ptr, align 8
  store ptr %__r, ptr %__r.addr, align 8
  %0 = load ptr, ptr %__r.addr, align 8
  ret ptr %0
}

; Function Attrs: mustprogress uwtable
define linkonce_odr void @_ZNSt16allocator_traitsISaINSt8__detail10_Hash_nodeISt4pairIKNSt7__cxx1112basic_stringIcSt11char_traitsIcESaIcEEEN7rocksdb14OptionTypeInfoEELb1EEEEE10deallocateERSE_PSD_m(ptr noundef nonnull align 1 dereferenceable(1) %__a, ptr noundef %__p, i64 noundef %__n) #1 comdat align 2 {
entry:
  %__a.addr = alloca ptr, align 8
  %__p.addr = alloca ptr, align 8
  %__n.addr = alloca i64, align 8
  store ptr %__a, ptr %__a.addr, align 8
  store ptr %__p, ptr %__p.addr, align 8
  store i64 %__n, ptr %__n.addr, align 8
  %0 = load ptr, ptr %__a.addr, align 8
  %1 = load ptr, ptr %__p.addr, align 8
  %2 = load i64, ptr %__n.addr, align 8
  call void @_ZNSt15__new_allocatorINSt8__detail10_Hash_nodeISt4pairIKNSt7__cxx1112basic_stringIcSt11char_traitsIcESaIcEEEN7rocksdb14OptionTypeInfoEELb1EEEE10deallocateEPSD_m(ptr noundef nonnull align 1 dereferenceable(1) %0, ptr noundef %1, i64 noundef %2)
  ret void
}

; Function Attrs: mustprogress nounwind uwtable
define linkonce_odr void @_ZNSt15__new_allocatorINSt8__detail10_Hash_nodeISt4pairIKNSt7__cxx1112basic_stringIcSt11char_traitsIcESaIcEEEN7rocksdb14OptionTypeInfoEELb1EEEE10deallocateEPSD_m(ptr noundef nonnull align 1 dereferenceable(1) %this, ptr noundef %__p, i64 noundef %__n) #2 comdat align 2 {
entry:
  %this.addr = alloca ptr, align 8
  %__p.addr = alloca ptr, align 8
  %__n.addr = alloca i64, align 8
  store ptr %this, ptr %this.addr, align 8
  store ptr %__p, ptr %__p.addr, align 8
  store i64 %__n, ptr %__n.addr, align 8
  %0 = load ptr, ptr %__p.addr, align 8
  call void @_ZdlPv(ptr noundef %0) #17
  ret void
}

; Function Attrs: nobuiltin nounwind
declare void @_ZdlPv(ptr noundef) #9

; Function Attrs: mustprogress uwtable
define linkonce_odr void @_ZNSt10_HashtableINSt7__cxx1112basic_stringIcSt11char_traitsIcESaIcEEESt4pairIKS5_N7rocksdb14OptionTypeInfoEESaISA_ENSt8__detail10_Select1stESt8equal_toIS5_ESt4hashIS5_ENSC_18_Mod_range_hashingENSC_20_Default_ranged_hashENSC_20_Prime_rehash_policyENSC_17_Hashtable_traitsILb1ELb0ELb1EEEE21_M_deallocate_bucketsEPPNSC_15_Hash_node_baseEm(ptr noundef nonnull align 8 dereferenceable(56) %this, ptr noundef %__bkts, i64 noundef %__bkt_count) #1 comdat align 2 {
entry:
  %this.addr = alloca ptr, align 8
  %__bkts.addr = alloca ptr, align 8
  %__bkt_count.addr = alloca i64, align 8
  store ptr %this, ptr %this.addr, align 8
  store ptr %__bkts, ptr %__bkts.addr, align 8
  store i64 %__bkt_count, ptr %__bkt_count.addr, align 8
  %this1 = load ptr, ptr %this.addr, align 8
  %0 = load ptr, ptr %__bkts.addr, align 8
  %call = call noundef zeroext i1 @_ZNKSt10_HashtableINSt7__cxx1112basic_stringIcSt11char_traitsIcESaIcEEESt4pairIKS5_N7rocksdb14OptionTypeInfoEESaISA_ENSt8__detail10_Select1stESt8equal_toIS5_ESt4hashIS5_ENSC_18_Mod_range_hashingENSC_20_Default_ranged_hashENSC_20_Prime_rehash_policyENSC_17_Hashtable_traitsILb1ELb0ELb1EEEE21_M_uses_single_bucketEPPNSC_15_Hash_node_baseE(ptr noundef nonnull align 8 dereferenceable(56) %this1, ptr noundef %0)
  br i1 %call, label %if.then, label %if.end

if.then:                                          ; preds = %entry
  br label %return

if.end:                                           ; preds = %entry
  %1 = load ptr, ptr %__bkts.addr, align 8
  %2 = load i64, ptr %__bkt_count.addr, align 8
  call void @_ZNSt8__detail16_Hashtable_allocISaINS_10_Hash_nodeISt4pairIKNSt7__cxx1112basic_stringIcSt11char_traitsIcESaIcEEEN7rocksdb14OptionTypeInfoEELb1EEEEE21_M_deallocate_bucketsEPPNS_15_Hash_node_baseEm(ptr noundef nonnull align 1 dereferenceable(1) %this1, ptr noundef %1, i64 noundef %2)
  br label %return

return:                                           ; preds = %if.end, %if.then
  ret void
}

; Function Attrs: mustprogress nounwind uwtable
define linkonce_odr noundef zeroext i1 @_ZNKSt10_HashtableINSt7__cxx1112basic_stringIcSt11char_traitsIcESaIcEEESt4pairIKS5_N7rocksdb14OptionTypeInfoEESaISA_ENSt8__detail10_Select1stESt8equal_toIS5_ESt4hashIS5_ENSC_18_Mod_range_hashingENSC_20_Default_ranged_hashENSC_20_Prime_rehash_policyENSC_17_Hashtable_traitsILb1ELb0ELb1EEEE21_M_uses_single_bucketEPPNSC_15_Hash_node_baseE(ptr noundef nonnull align 8 dereferenceable(56) %this, ptr noundef %__bkts) #2 comdat align 2 {
entry:
  %this.addr = alloca ptr, align 8
  %__bkts.addr = alloca ptr, align 8
  store ptr %this, ptr %this.addr, align 8
  store ptr %__bkts, ptr %__bkts.addr, align 8
  %this1 = load ptr, ptr %this.addr, align 8
  %0 = load ptr, ptr %__bkts.addr, align 8
  %_M_single_bucket = getelementptr inbounds %"class.std::_Hashtable", ptr %this1, i32 0, i32 5
  %cmp = icmp eq ptr %0, %_M_single_bucket
  ret i1 %cmp
}

; Function Attrs: mustprogress uwtable
define linkonce_odr void @_ZNSt8__detail16_Hashtable_allocISaINS_10_Hash_nodeISt4pairIKNSt7__cxx1112basic_stringIcSt11char_traitsIcESaIcEEEN7rocksdb14OptionTypeInfoEELb1EEEEE21_M_deallocate_bucketsEPPNS_15_Hash_node_baseEm(ptr noundef nonnull align 1 dereferenceable(1) %this, ptr noundef %__bkts, i64 noundef %__bkt_count) #1 comdat align 2 personality ptr @__gxx_personality_v0 {
entry:
  %this.addr = alloca ptr, align 8
  %__bkts.addr = alloca ptr, align 8
  %__bkt_count.addr = alloca i64, align 8
  %__ptr = alloca ptr, align 8
  %__alloc = alloca %"class.std::allocator.24", align 1
  %exn.slot = alloca ptr, align 8
  %ehselector.slot = alloca i32, align 4
  store ptr %this, ptr %this.addr, align 8
  store ptr %__bkts, ptr %__bkts.addr, align 8
  store i64 %__bkt_count, ptr %__bkt_count.addr, align 8
  %this1 = load ptr, ptr %this.addr, align 8
  %0 = load ptr, ptr %__bkts.addr, align 8
  %call = call noundef ptr @_ZNSt19__ptr_traits_ptr_toIPPNSt8__detail15_Hash_node_baseES2_Lb0EE10pointer_toERS2_(ptr noundef nonnull align 8 dereferenceable(8) %0) #3
  store ptr %call, ptr %__ptr, align 8
  %call2 = call noundef nonnull align 1 dereferenceable(1) ptr @_ZNSt8__detail16_Hashtable_allocISaINS_10_Hash_nodeISt4pairIKNSt7__cxx1112basic_stringIcSt11char_traitsIcESaIcEEEN7rocksdb14OptionTypeInfoEELb1EEEEE17_M_node_allocatorEv(ptr noundef nonnull align 1 dereferenceable(1) %this1)
  call void @_ZNSaIPNSt8__detail15_Hash_node_baseEEC2INS_10_Hash_nodeISt4pairIKNSt7__cxx1112basic_stringIcSt11char_traitsIcESaIcEEEN7rocksdb14OptionTypeInfoEELb1EEEEERKSaIT_E(ptr noundef nonnull align 1 dereferenceable(1) %__alloc, ptr noundef nonnull align 1 dereferenceable(1) %call2) #3
  %1 = load ptr, ptr %__ptr, align 8
  %2 = load i64, ptr %__bkt_count.addr, align 8
  invoke void @_ZNSt16allocator_traitsISaIPNSt8__detail15_Hash_node_baseEEE10deallocateERS3_PS2_m(ptr noundef nonnull align 1 dereferenceable(1) %__alloc, ptr noundef %1, i64 noundef %2)
          to label %invoke.cont unwind label %lpad

invoke.cont:                                      ; preds = %entry
  call void @_ZNSaIPNSt8__detail15_Hash_node_baseEED2Ev(ptr noundef nonnull align 1 dereferenceable(1) %__alloc) #3
  ret void

lpad:                                             ; preds = %entry
  %3 = landingpad { ptr, i32 }
          cleanup
  %4 = extractvalue { ptr, i32 } %3, 0
  store ptr %4, ptr %exn.slot, align 8
  %5 = extractvalue { ptr, i32 } %3, 1
  store i32 %5, ptr %ehselector.slot, align 4
  call void @_ZNSaIPNSt8__detail15_Hash_node_baseEED2Ev(ptr noundef nonnull align 1 dereferenceable(1) %__alloc) #3
  br label %eh.resume

eh.resume:                                        ; preds = %lpad
  %exn = load ptr, ptr %exn.slot, align 8
  %sel = load i32, ptr %ehselector.slot, align 4
  %lpad.val = insertvalue { ptr, i32 } poison, ptr %exn, 0
  %lpad.val3 = insertvalue { ptr, i32 } %lpad.val, i32 %sel, 1
  resume { ptr, i32 } %lpad.val3
}

; Function Attrs: mustprogress nounwind uwtable
define linkonce_odr noundef ptr @_ZNSt19__ptr_traits_ptr_toIPPNSt8__detail15_Hash_node_baseES2_Lb0EE10pointer_toERS2_(ptr noundef nonnull align 8 dereferenceable(8) %__r) #2 comdat align 2 {
entry:
  %__r.addr = alloca ptr, align 8
  store ptr %__r, ptr %__r.addr, align 8
  %0 = load ptr, ptr %__r.addr, align 8
  ret ptr %0
}

; Function Attrs: mustprogress nounwind uwtable
define linkonce_odr void @_ZNSaIPNSt8__detail15_Hash_node_baseEEC2INS_10_Hash_nodeISt4pairIKNSt7__cxx1112basic_stringIcSt11char_traitsIcESaIcEEEN7rocksdb14OptionTypeInfoEELb1EEEEERKSaIT_E(ptr noundef nonnull align 1 dereferenceable(1) %this, ptr noundef nonnull align 1 dereferenceable(1) %0) unnamed_addr #2 comdat align 2 {
entry:
  %this.addr = alloca ptr, align 8
  %.addr = alloca ptr, align 8
  store ptr %this, ptr %this.addr, align 8
  store ptr %0, ptr %.addr, align 8
  %this1 = load ptr, ptr %this.addr, align 8
  call void @_ZNSt15__new_allocatorIPNSt8__detail15_Hash_node_baseEEC2Ev(ptr noundef nonnull align 1 dereferenceable(1) %this1) #3
  ret void
}

; Function Attrs: mustprogress uwtable
define linkonce_odr void @_ZNSt16allocator_traitsISaIPNSt8__detail15_Hash_node_baseEEE10deallocateERS3_PS2_m(ptr noundef nonnull align 1 dereferenceable(1) %__a, ptr noundef %__p, i64 noundef %__n) #1 comdat align 2 {
entry:
  %__a.addr = alloca ptr, align 8
  %__p.addr = alloca ptr, align 8
  %__n.addr = alloca i64, align 8
  store ptr %__a, ptr %__a.addr, align 8
  store ptr %__p, ptr %__p.addr, align 8
  store i64 %__n, ptr %__n.addr, align 8
  %0 = load ptr, ptr %__a.addr, align 8
  %1 = load ptr, ptr %__p.addr, align 8
  %2 = load i64, ptr %__n.addr, align 8
  call void @_ZNSt15__new_allocatorIPNSt8__detail15_Hash_node_baseEE10deallocateEPS2_m(ptr noundef nonnull align 1 dereferenceable(1) %0, ptr noundef %1, i64 noundef %2)
  ret void
}

; Function Attrs: mustprogress nounwind uwtable
define linkonce_odr void @_ZNSaIPNSt8__detail15_Hash_node_baseEED2Ev(ptr noundef nonnull align 1 dereferenceable(1) %this) unnamed_addr #2 comdat align 2 {
entry:
  %this.addr = alloca ptr, align 8
  store ptr %this, ptr %this.addr, align 8
  %this1 = load ptr, ptr %this.addr, align 8
  call void @_ZNSt15__new_allocatorIPNSt8__detail15_Hash_node_baseEED2Ev(ptr noundef nonnull align 1 dereferenceable(1) %this1) #3
  ret void
}

; Function Attrs: mustprogress nounwind uwtable
define linkonce_odr void @_ZNSt15__new_allocatorIPNSt8__detail15_Hash_node_baseEEC2Ev(ptr noundef nonnull align 1 dereferenceable(1) %this) unnamed_addr #2 comdat align 2 {
entry:
  %this.addr = alloca ptr, align 8
  store ptr %this, ptr %this.addr, align 8
  ret void
}

; Function Attrs: mustprogress nounwind uwtable
define linkonce_odr void @_ZNSt15__new_allocatorIPNSt8__detail15_Hash_node_baseEE10deallocateEPS2_m(ptr noundef nonnull align 1 dereferenceable(1) %this, ptr noundef %__p, i64 noundef %__n) #2 comdat align 2 {
entry:
  %this.addr = alloca ptr, align 8
  %__p.addr = alloca ptr, align 8
  %__n.addr = alloca i64, align 8
  store ptr %this, ptr %this.addr, align 8
  store ptr %__p, ptr %__p.addr, align 8
  store i64 %__n, ptr %__n.addr, align 8
  %0 = load ptr, ptr %__p.addr, align 8
  call void @_ZdlPv(ptr noundef %0) #17
  ret void
}

; Function Attrs: mustprogress nounwind uwtable
define linkonce_odr void @_ZNSt15__new_allocatorIPNSt8__detail15_Hash_node_baseEED2Ev(ptr noundef nonnull align 1 dereferenceable(1) %this) unnamed_addr #2 comdat align 2 {
entry:
  %this.addr = alloca ptr, align 8
  store ptr %this, ptr %this.addr, align 8
  ret void
}

; Function Attrs: mustprogress nounwind uwtable
define linkonce_odr void @_ZNSt8__detail21_Hashtable_ebo_helperILi0ESaINS_10_Hash_nodeISt4pairIKNSt7__cxx1112basic_stringIcSt11char_traitsIcESaIcEEEN7rocksdb14OptionTypeInfoEELb1EEEELb1EED2Ev(ptr noundef nonnull align 1 dereferenceable(1) %this) unnamed_addr #2 comdat align 2 {
entry:
  %this.addr = alloca ptr, align 8
  store ptr %this, ptr %this.addr, align 8
  %this1 = load ptr, ptr %this.addr, align 8
  call void @_ZNSaINSt8__detail10_Hash_nodeISt4pairIKNSt7__cxx1112basic_stringIcSt11char_traitsIcESaIcEEEN7rocksdb14OptionTypeInfoEELb1EEEED2Ev(ptr noundef nonnull align 1 dereferenceable(1) %this1) #3
  ret void
}

; Function Attrs: mustprogress nounwind uwtable
define linkonce_odr void @_ZNSt15__new_allocatorINSt8__detail10_Hash_nodeISt4pairIKNSt7__cxx1112basic_stringIcSt11char_traitsIcESaIcEEEN7rocksdb14OptionTypeInfoEELb1EEEED2Ev(ptr noundef nonnull align 1 dereferenceable(1) %this) unnamed_addr #2 comdat align 2 {
entry:
  %this.addr = alloca ptr, align 8
  store ptr %this, ptr %this.addr, align 8
  ret void
}

; Function Attrs: mustprogress nounwind uwtable
define linkonce_odr void @_ZN7rocksdb12CustomizableC2Ev(ptr noundef nonnull align 8 dereferenceable(32) %this) unnamed_addr #2 comdat align 2 {
entry:
  %this.addr = alloca ptr, align 8
  store ptr %this, ptr %this.addr, align 8
  %this1 = load ptr, ptr %this.addr, align 8
  call void @_ZN7rocksdb12ConfigurableC2Ev(ptr noundef nonnull align 8 dereferenceable(32) %this1) #3
  store ptr getelementptr inbounds ({ [21 x ptr] }, ptr @_ZTVN7rocksdb12CustomizableE, i32 0, inrange i32 0, i32 2), ptr %this1, align 8
  ret void
}

; Function Attrs: mustprogress nounwind uwtable
define linkonce_odr void @_ZN7rocksdb15MemoryAllocatorD2Ev(ptr noundef nonnull align 8 dereferenceable(32) %this) unnamed_addr #2 comdat align 2 {
entry:
  %this.addr = alloca ptr, align 8
  store ptr %this, ptr %this.addr, align 8
  %this1 = load ptr, ptr %this.addr, align 8
  call void @_ZN7rocksdb12CustomizableD2Ev(ptr noundef nonnull align 8 dereferenceable(32) %this1) #3
  ret void
}

; Function Attrs: mustprogress nounwind uwtable
define linkonce_odr void @_ZN7rocksdb15MemoryAllocatorD0Ev(ptr noundef nonnull align 8 dereferenceable(32) %this) unnamed_addr #2 comdat align 2 {
entry:
  %this.addr = alloca ptr, align 8
  store ptr %this, ptr %this.addr, align 8
  call void @llvm.trap() #16
  unreachable
}

; Function Attrs: mustprogress nounwind uwtable
define linkonce_odr noundef ptr @_ZNK7rocksdb12Customizable5InnerEv(ptr noundef nonnull align 8 dereferenceable(32) %this) unnamed_addr #2 comdat align 2 {
entry:
  %this.addr = alloca ptr, align 8
  store ptr %this, ptr %this.addr, align 8
  ret ptr null
}

; Function Attrs: mustprogress nounwind uwtable
define linkonce_odr noundef i64 @_ZNK7rocksdb15MemoryAllocator10UsableSizeEPvm(ptr noundef nonnull align 8 dereferenceable(32) %this, ptr noundef %0, i64 noundef %allocation_size) unnamed_addr #2 comdat align 2 {
entry:
  %this.addr = alloca ptr, align 8
  %.addr = alloca ptr, align 8
  %allocation_size.addr = alloca i64, align 8
  store ptr %this, ptr %this.addr, align 8
  store ptr %0, ptr %.addr, align 8
  store i64 %allocation_size, ptr %allocation_size.addr, align 8
  %1 = load i64, ptr %allocation_size.addr, align 8
  ret i64 %1
}

; Function Attrs: mustprogress nounwind uwtable
define linkonce_odr void @_ZN7rocksdb12ConfigurableC2Ev(ptr noundef nonnull align 8 dereferenceable(32) %this) unnamed_addr #2 comdat align 2 {
entry:
  %this.addr = alloca ptr, align 8
  store ptr %this, ptr %this.addr, align 8
  %this1 = load ptr, ptr %this.addr, align 8
  store ptr getelementptr inbounds ({ [16 x ptr] }, ptr @_ZTVN7rocksdb12ConfigurableE, i32 0, inrange i32 0, i32 2), ptr %this1, align 8
  %options_ = getelementptr inbounds %"class.rocksdb::Configurable", ptr %this1, i32 0, i32 1
  call void @_ZNSt6vectorIN7rocksdb12Configurable17RegisteredOptionsESaIS2_EEC2Ev(ptr noundef nonnull align 8 dereferenceable(24) %options_) #3
  ret void
}

; Function Attrs: mustprogress nounwind uwtable
define linkonce_odr void @_ZNSt6vectorIN7rocksdb12Configurable17RegisteredOptionsESaIS2_EEC2Ev(ptr noundef nonnull align 8 dereferenceable(24) %this) unnamed_addr #2 comdat align 2 {
entry:
  %this.addr = alloca ptr, align 8
  store ptr %this, ptr %this.addr, align 8
  %this1 = load ptr, ptr %this.addr, align 8
  call void @_ZNSt12_Vector_baseIN7rocksdb12Configurable17RegisteredOptionsESaIS2_EEC2Ev(ptr noundef nonnull align 8 dereferenceable(24) %this1) #3
  ret void
}

; Function Attrs: mustprogress nounwind uwtable
define linkonce_odr void @_ZNSt12_Vector_baseIN7rocksdb12Configurable17RegisteredOptionsESaIS2_EEC2Ev(ptr noundef nonnull align 8 dereferenceable(24) %this) unnamed_addr #2 comdat align 2 {
entry:
  %this.addr = alloca ptr, align 8
  store ptr %this, ptr %this.addr, align 8
  %this1 = load ptr, ptr %this.addr, align 8
  %_M_impl = getelementptr inbounds %"struct.std::_Vector_base", ptr %this1, i32 0, i32 0
  call void @_ZNSt12_Vector_baseIN7rocksdb12Configurable17RegisteredOptionsESaIS2_EE12_Vector_implC2Ev(ptr noundef nonnull align 8 dereferenceable(24) %_M_impl) #3
  ret void
}

; Function Attrs: mustprogress nounwind uwtable
define linkonce_odr void @_ZNSt12_Vector_baseIN7rocksdb12Configurable17RegisteredOptionsESaIS2_EE12_Vector_implC2Ev(ptr noundef nonnull align 8 dereferenceable(24) %this) unnamed_addr #2 comdat align 2 {
entry:
  %this.addr = alloca ptr, align 8
  store ptr %this, ptr %this.addr, align 8
  %this1 = load ptr, ptr %this.addr, align 8
  call void @_ZNSaIN7rocksdb12Configurable17RegisteredOptionsEEC2Ev(ptr noundef nonnull align 1 dereferenceable(1) %this1) #3
  call void @_ZNSt12_Vector_baseIN7rocksdb12Configurable17RegisteredOptionsESaIS2_EE17_Vector_impl_dataC2Ev(ptr noundef nonnull align 8 dereferenceable(24) %this1) #3
  ret void
}

; Function Attrs: mustprogress nounwind uwtable
define linkonce_odr void @_ZNSaIN7rocksdb12Configurable17RegisteredOptionsEEC2Ev(ptr noundef nonnull align 1 dereferenceable(1) %this) unnamed_addr #2 comdat align 2 {
entry:
  %this.addr = alloca ptr, align 8
  store ptr %this, ptr %this.addr, align 8
  %this1 = load ptr, ptr %this.addr, align 8
  call void @_ZNSt15__new_allocatorIN7rocksdb12Configurable17RegisteredOptionsEEC2Ev(ptr noundef nonnull align 1 dereferenceable(1) %this1) #3
  ret void
}

; Function Attrs: mustprogress nounwind uwtable
define linkonce_odr void @_ZNSt12_Vector_baseIN7rocksdb12Configurable17RegisteredOptionsESaIS2_EE17_Vector_impl_dataC2Ev(ptr noundef nonnull align 8 dereferenceable(24) %this) unnamed_addr #2 comdat align 2 {
entry:
  %this.addr = alloca ptr, align 8
  store ptr %this, ptr %this.addr, align 8
  %this1 = load ptr, ptr %this.addr, align 8
  %_M_start = getelementptr inbounds %"struct.std::_Vector_base<rocksdb::Configurable::RegisteredOptions, std::allocator<rocksdb::Configurable::RegisteredOptions>>::_Vector_impl_data", ptr %this1, i32 0, i32 0
  store ptr null, ptr %_M_start, align 8
  %_M_finish = getelementptr inbounds %"struct.std::_Vector_base<rocksdb::Configurable::RegisteredOptions, std::allocator<rocksdb::Configurable::RegisteredOptions>>::_Vector_impl_data", ptr %this1, i32 0, i32 1
  store ptr null, ptr %_M_finish, align 8
  %_M_end_of_storage = getelementptr inbounds %"struct.std::_Vector_base<rocksdb::Configurable::RegisteredOptions, std::allocator<rocksdb::Configurable::RegisteredOptions>>::_Vector_impl_data", ptr %this1, i32 0, i32 2
  store ptr null, ptr %_M_end_of_storage, align 8
  ret void
}

; Function Attrs: mustprogress nounwind uwtable
define linkonce_odr void @_ZNSt15__new_allocatorIN7rocksdb12Configurable17RegisteredOptionsEEC2Ev(ptr noundef nonnull align 1 dereferenceable(1) %this) unnamed_addr #2 comdat align 2 {
entry:
  %this.addr = alloca ptr, align 8
  store ptr %this, ptr %this.addr, align 8
  ret void
}

; Function Attrs: cold noreturn nounwind memory(inaccessiblemem: write)
declare void @llvm.trap() #10

; Function Attrs: mustprogress nounwind uwtable
define linkonce_odr void @_ZNSt12__shared_ptrIN7rocksdb15MemoryAllocatorELN9__gnu_cxx12_Lock_policyE2EEC2ERKS4_(ptr noundef nonnull align 8 dereferenceable(16) %this, ptr noundef nonnull align 8 dereferenceable(16) %0) unnamed_addr #2 comdat align 2 {
entry:
  %this.addr = alloca ptr, align 8
  %.addr = alloca ptr, align 8
  store ptr %this, ptr %this.addr, align 8
  store ptr %0, ptr %.addr, align 8
  %this1 = load ptr, ptr %this.addr, align 8
  %_M_ptr = getelementptr inbounds %"class.std::__shared_ptr", ptr %this1, i32 0, i32 0
  %1 = load ptr, ptr %.addr, align 8
  %_M_ptr2 = getelementptr inbounds %"class.std::__shared_ptr", ptr %1, i32 0, i32 0
  %2 = load ptr, ptr %_M_ptr2, align 8
  store ptr %2, ptr %_M_ptr, align 8
  %_M_refcount = getelementptr inbounds %"class.std::__shared_ptr", ptr %this1, i32 0, i32 1
  %3 = load ptr, ptr %.addr, align 8
  %_M_refcount3 = getelementptr inbounds %"class.std::__shared_ptr", ptr %3, i32 0, i32 1
  call void @_ZNSt14__shared_countILN9__gnu_cxx12_Lock_policyE2EEC2ERKS2_(ptr noundef nonnull align 8 dereferenceable(8) %_M_refcount, ptr noundef nonnull align 8 dereferenceable(8) %_M_refcount3) #3
  ret void
}

; Function Attrs: mustprogress nounwind uwtable
define linkonce_odr void @_ZNSt14__shared_countILN9__gnu_cxx12_Lock_policyE2EEC2ERKS2_(ptr noundef nonnull align 8 dereferenceable(8) %this, ptr noundef nonnull align 8 dereferenceable(8) %__r) unnamed_addr #2 comdat align 2 personality ptr @__gxx_personality_v0 {
entry:
  %this.addr = alloca ptr, align 8
  %__r.addr = alloca ptr, align 8
  store ptr %this, ptr %this.addr, align 8
  store ptr %__r, ptr %__r.addr, align 8
  %this1 = load ptr, ptr %this.addr, align 8
  %_M_pi = getelementptr inbounds %"class.std::__shared_count", ptr %this1, i32 0, i32 0
  %0 = load ptr, ptr %__r.addr, align 8
  %_M_pi2 = getelementptr inbounds %"class.std::__shared_count", ptr %0, i32 0, i32 0
  %1 = load ptr, ptr %_M_pi2, align 8
  store ptr %1, ptr %_M_pi, align 8
  %_M_pi3 = getelementptr inbounds %"class.std::__shared_count", ptr %this1, i32 0, i32 0
  %2 = load ptr, ptr %_M_pi3, align 8
  %cmp = icmp ne ptr %2, null
  br i1 %cmp, label %if.then, label %if.end

if.then:                                          ; preds = %entry
  %_M_pi4 = getelementptr inbounds %"class.std::__shared_count", ptr %this1, i32 0, i32 0
  %3 = load ptr, ptr %_M_pi4, align 8
  invoke void @_ZNSt16_Sp_counted_baseILN9__gnu_cxx12_Lock_policyE2EE15_M_add_ref_copyEv(ptr noundef nonnull align 8 dereferenceable(16) %3)
          to label %invoke.cont unwind label %terminate.lpad

invoke.cont:                                      ; preds = %if.then
  br label %if.end

if.end:                                           ; preds = %invoke.cont, %entry
  ret void

terminate.lpad:                                   ; preds = %if.then
  %4 = landingpad { ptr, i32 }
          catch ptr null
  %5 = extractvalue { ptr, i32 } %4, 0
  call void @__clang_call_terminate(ptr %5) #16
  unreachable
}

; Function Attrs: mustprogress uwtable
define linkonce_odr void @_ZNSt16_Sp_counted_baseILN9__gnu_cxx12_Lock_policyE2EE15_M_add_ref_copyEv(ptr noundef nonnull align 8 dereferenceable(16) %this) #1 comdat align 2 {
entry:
  %__mem.addr.i4 = alloca ptr, align 8
  %__val.addr.i5 = alloca i32, align 4
  %.atomictmp.i = alloca i32, align 4
  %atomic-temp.i = alloca i32, align 4
  %__mem.addr.i2 = alloca ptr, align 8
  %__val.addr.i3 = alloca i32, align 4
  %__mem.addr.i = alloca ptr, align 8
  %__val.addr.i = alloca i32, align 4
  %this.addr = alloca ptr, align 8
  store ptr %this, ptr %this.addr, align 8
  %this1 = load ptr, ptr %this.addr, align 8
  %_M_use_count = getelementptr inbounds %"class.std::_Sp_counted_base", ptr %this1, i32 0, i32 1
  store ptr %_M_use_count, ptr %__mem.addr.i, align 8
  store i32 1, ptr %__val.addr.i, align 4
  %0 = load i8, ptr @__libc_single_threaded, align 1
  %tobool.i = icmp ne i8 %0, 0
  br i1 %tobool.i, label %if.then.i, label %if.else.i

if.then.i:                                        ; preds = %entry
  %1 = load ptr, ptr %__mem.addr.i, align 8
  %2 = load i32, ptr %__val.addr.i, align 4
  store ptr %1, ptr %__mem.addr.i2, align 8
  store i32 %2, ptr %__val.addr.i3, align 4
  %3 = load i32, ptr %__val.addr.i3, align 4
  %4 = load ptr, ptr %__mem.addr.i2, align 8
  %5 = load i32, ptr %4, align 4
  %add.i = add nsw i32 %5, %3
  store i32 %add.i, ptr %4, align 4
  br label %_ZN9__gnu_cxx21__atomic_add_dispatchEPii.exit

if.else.i:                                        ; preds = %entry
  %6 = load ptr, ptr %__mem.addr.i, align 8
  %7 = load i32, ptr %__val.addr.i, align 4
  store ptr %6, ptr %__mem.addr.i4, align 8
  store i32 %7, ptr %__val.addr.i5, align 4
  %8 = load ptr, ptr %__mem.addr.i4, align 8
  %9 = load i32, ptr %__val.addr.i5, align 4
  store i32 %9, ptr %.atomictmp.i, align 4
  %10 = load i32, ptr %.atomictmp.i, align 4
  %11 = atomicrmw volatile add ptr %8, i32 %10 acq_rel, align 4
  store i32 %11, ptr %atomic-temp.i, align 4
  br label %_ZN9__gnu_cxx21__atomic_add_dispatchEPii.exit

_ZN9__gnu_cxx21__atomic_add_dispatchEPii.exit:    ; preds = %if.else.i, %if.then.i
  ret void
}

; Function Attrs: mustprogress nounwind uwtable
define linkonce_odr void @_ZNSt14__shared_countILN9__gnu_cxx12_Lock_policyE2EED2Ev(ptr noundef nonnull align 8 dereferenceable(8) %this) unnamed_addr #2 comdat align 2 {
entry:
  %this.addr = alloca ptr, align 8
  store ptr %this, ptr %this.addr, align 8
  %this1 = load ptr, ptr %this.addr, align 8
  %_M_pi = getelementptr inbounds %"class.std::__shared_count", ptr %this1, i32 0, i32 0
  %0 = load ptr, ptr %_M_pi, align 8
  %cmp = icmp ne ptr %0, null
  br i1 %cmp, label %if.then, label %if.end

if.then:                                          ; preds = %entry
  %_M_pi2 = getelementptr inbounds %"class.std::__shared_count", ptr %this1, i32 0, i32 0
  %1 = load ptr, ptr %_M_pi2, align 8
  call void @_ZNSt16_Sp_counted_baseILN9__gnu_cxx12_Lock_policyE2EE10_M_releaseEv(ptr noundef nonnull align 8 dereferenceable(16) %1) #3
  br label %if.end

if.end:                                           ; preds = %if.then, %entry
  ret void
}

; Function Attrs: mustprogress nounwind uwtable
define linkonce_odr void @_ZNSt16_Sp_counted_baseILN9__gnu_cxx12_Lock_policyE2EE10_M_releaseEv(ptr noundef nonnull align 8 dereferenceable(16) %this) #2 comdat align 2 personality ptr @__gxx_personality_v0 {
entry:
  %__mem.addr.i11 = alloca ptr, align 8
  %__val.addr.i12 = alloca i32, align 4
  %.atomictmp.i = alloca i32, align 4
  %atomic-temp.i = alloca i32, align 4
  %__mem.addr.i9 = alloca ptr, align 8
  %__val.addr.i10 = alloca i32, align 4
  %__result.i = alloca i32, align 4
  %retval.i = alloca i32, align 4
  %__mem.addr.i = alloca ptr, align 8
  %__val.addr.i = alloca i32, align 4
  %this.addr = alloca ptr, align 8
  %__lock_free = alloca i8, align 1
  %__double_word = alloca i8, align 1
  %__aligned = alloca i8, align 1
  %__wordbits = alloca i32, align 4
  %__shiftbits = alloca i32, align 4
  %__unique_ref = alloca i64, align 8
  %__both_counts = alloca ptr, align 8
  %atomic-temp = alloca i64, align 8
  store ptr %this, ptr %this.addr, align 8
  %this1 = load ptr, ptr %this.addr, align 8
  store i8 1, ptr %__lock_free, align 1
  store i8 1, ptr %__double_word, align 1
  store i8 1, ptr %__aligned, align 1
  store i32 32, ptr %__wordbits, align 4
  store i32 32, ptr %__shiftbits, align 4
  store i64 4294967297, ptr %__unique_ref, align 8
  %_M_use_count = getelementptr inbounds %"class.std::_Sp_counted_base", ptr %this1, i32 0, i32 1
  store ptr %_M_use_count, ptr %__both_counts, align 8
  %0 = load ptr, ptr %__both_counts, align 8
  %1 = load atomic i64, ptr %0 acquire, align 8
  store i64 %1, ptr %atomic-temp, align 8
  %2 = load i64, ptr %atomic-temp, align 8
  %cmp = icmp eq i64 %2, 4294967297
  br i1 %cmp, label %if.then, label %if.end

if.then:                                          ; preds = %entry
  %_M_use_count2 = getelementptr inbounds %"class.std::_Sp_counted_base", ptr %this1, i32 0, i32 1
  store i32 0, ptr %_M_use_count2, align 8
  %_M_weak_count = getelementptr inbounds %"class.std::_Sp_counted_base", ptr %this1, i32 0, i32 2
  store i32 0, ptr %_M_weak_count, align 4
  %vtable = load ptr, ptr %this1, align 8
  %vfn = getelementptr inbounds ptr, ptr %vtable, i64 2
  %3 = load ptr, ptr %vfn, align 8
  call void %3(ptr noundef nonnull align 8 dereferenceable(16) %this1) #3
  %vtable3 = load ptr, ptr %this1, align 8
  %vfn4 = getelementptr inbounds ptr, ptr %vtable3, i64 3
  %4 = load ptr, ptr %vfn4, align 8
  call void %4(ptr noundef nonnull align 8 dereferenceable(16) %this1) #3
  br label %if.end8

if.end:                                           ; preds = %entry
  %_M_use_count5 = getelementptr inbounds %"class.std::_Sp_counted_base", ptr %this1, i32 0, i32 1
  store ptr %_M_use_count5, ptr %__mem.addr.i, align 8
  store i32 -1, ptr %__val.addr.i, align 4
  %5 = load i8, ptr @__libc_single_threaded, align 1
  %tobool.i.i = icmp ne i8 %5, 0
  br i1 %tobool.i.i, label %if.then.i, label %if.else.i

if.then.i:                                        ; preds = %if.end
  %6 = load ptr, ptr %__mem.addr.i, align 8
  %7 = load i32, ptr %__val.addr.i, align 4
  store ptr %6, ptr %__mem.addr.i9, align 8
  store i32 %7, ptr %__val.addr.i10, align 4
  %8 = load ptr, ptr %__mem.addr.i9, align 8
  %9 = load i32, ptr %8, align 4
  store i32 %9, ptr %__result.i, align 4
  %10 = load i32, ptr %__val.addr.i10, align 4
  %11 = load ptr, ptr %__mem.addr.i9, align 8
  %12 = load i32, ptr %11, align 4
  %add.i = add nsw i32 %12, %10
  store i32 %add.i, ptr %11, align 4
  %13 = load i32, ptr %__result.i, align 4
  store i32 %13, ptr %retval.i, align 4
  br label %_ZN9__gnu_cxx27__exchange_and_add_dispatchEPii.exit

if.else.i:                                        ; preds = %if.end
  %14 = load ptr, ptr %__mem.addr.i, align 8
  %15 = load i32, ptr %__val.addr.i, align 4
  store ptr %14, ptr %__mem.addr.i11, align 8
  store i32 %15, ptr %__val.addr.i12, align 4
  %16 = load ptr, ptr %__mem.addr.i11, align 8
  %17 = load i32, ptr %__val.addr.i12, align 4
  store i32 %17, ptr %.atomictmp.i, align 4
  %18 = load i32, ptr %.atomictmp.i, align 4
  %19 = atomicrmw volatile add ptr %16, i32 %18 acq_rel, align 4
  store i32 %19, ptr %atomic-temp.i, align 4
  %20 = load i32, ptr %atomic-temp.i, align 4
  store i32 %20, ptr %retval.i, align 4
  br label %_ZN9__gnu_cxx27__exchange_and_add_dispatchEPii.exit

_ZN9__gnu_cxx27__exchange_and_add_dispatchEPii.exit: ; preds = %if.else.i, %if.then.i
  %21 = load i32, ptr %retval.i, align 4
  br label %invoke.cont

invoke.cont:                                      ; preds = %_ZN9__gnu_cxx27__exchange_and_add_dispatchEPii.exit
  %cmp6 = icmp eq i32 %21, 1
  br i1 %cmp6, label %if.then7, label %if.end8

if.then7:                                         ; preds = %invoke.cont
  call void @_ZNSt16_Sp_counted_baseILN9__gnu_cxx12_Lock_policyE2EE24_M_release_last_use_coldEv(ptr noundef nonnull align 8 dereferenceable(16) %this1) #3
  br label %if.end8

if.end8:                                          ; preds = %if.then7, %invoke.cont, %if.then
  ret void

terminate.lpad:                                   ; No predecessors!
  %22 = landingpad { ptr, i32 }
          catch ptr null
  %23 = extractvalue { ptr, i32 } %22, 0
  call void @__clang_call_terminate(ptr %23) #16
  unreachable
}

; Function Attrs: mustprogress nounwind uwtable
define linkonce_odr void @_ZNSt16_Sp_counted_baseILN9__gnu_cxx12_Lock_policyE2EE24_M_release_last_use_coldEv(ptr noundef nonnull align 8 dereferenceable(16) %this) #2 comdat align 2 {
entry:
  %this.addr = alloca ptr, align 8
  store ptr %this, ptr %this.addr, align 8
  %this1 = load ptr, ptr %this.addr, align 8
  call void @_ZNSt16_Sp_counted_baseILN9__gnu_cxx12_Lock_policyE2EE19_M_release_last_useEv(ptr noundef nonnull align 8 dereferenceable(16) %this1) #3
  ret void
}

; Function Attrs: mustprogress nounwind uwtable
define linkonce_odr void @_ZNSt16_Sp_counted_baseILN9__gnu_cxx12_Lock_policyE2EE19_M_release_last_useEv(ptr noundef nonnull align 8 dereferenceable(16) %this) #2 comdat align 2 personality ptr @__gxx_personality_v0 {
entry:
  %__mem.addr.i6 = alloca ptr, align 8
  %__val.addr.i7 = alloca i32, align 4
  %.atomictmp.i = alloca i32, align 4
  %atomic-temp.i = alloca i32, align 4
  %__mem.addr.i4 = alloca ptr, align 8
  %__val.addr.i5 = alloca i32, align 4
  %__result.i = alloca i32, align 4
  %retval.i = alloca i32, align 4
  %__mem.addr.i = alloca ptr, align 8
  %__val.addr.i = alloca i32, align 4
  %this.addr = alloca ptr, align 8
  store ptr %this, ptr %this.addr, align 8
  %this1 = load ptr, ptr %this.addr, align 8
  %vtable = load ptr, ptr %this1, align 8
  %vfn = getelementptr inbounds ptr, ptr %vtable, i64 2
  %0 = load ptr, ptr %vfn, align 8
  call void %0(ptr noundef nonnull align 8 dereferenceable(16) %this1) #3
  %_M_weak_count = getelementptr inbounds %"class.std::_Sp_counted_base", ptr %this1, i32 0, i32 2
  store ptr %_M_weak_count, ptr %__mem.addr.i, align 8
  store i32 -1, ptr %__val.addr.i, align 4
  %1 = load i8, ptr @__libc_single_threaded, align 1
  %tobool.i.i = icmp ne i8 %1, 0
  br i1 %tobool.i.i, label %if.then.i, label %if.else.i

if.then.i:                                        ; preds = %entry
  %2 = load ptr, ptr %__mem.addr.i, align 8
  %3 = load i32, ptr %__val.addr.i, align 4
  store ptr %2, ptr %__mem.addr.i4, align 8
  store i32 %3, ptr %__val.addr.i5, align 4
  %4 = load ptr, ptr %__mem.addr.i4, align 8
  %5 = load i32, ptr %4, align 4
  store i32 %5, ptr %__result.i, align 4
  %6 = load i32, ptr %__val.addr.i5, align 4
  %7 = load ptr, ptr %__mem.addr.i4, align 8
  %8 = load i32, ptr %7, align 4
  %add.i = add nsw i32 %8, %6
  store i32 %add.i, ptr %7, align 4
  %9 = load i32, ptr %__result.i, align 4
  store i32 %9, ptr %retval.i, align 4
  br label %_ZN9__gnu_cxx27__exchange_and_add_dispatchEPii.exit

if.else.i:                                        ; preds = %entry
  %10 = load ptr, ptr %__mem.addr.i, align 8
  %11 = load i32, ptr %__val.addr.i, align 4
  store ptr %10, ptr %__mem.addr.i6, align 8
  store i32 %11, ptr %__val.addr.i7, align 4
  %12 = load ptr, ptr %__mem.addr.i6, align 8
  %13 = load i32, ptr %__val.addr.i7, align 4
  store i32 %13, ptr %.atomictmp.i, align 4
  %14 = load i32, ptr %.atomictmp.i, align 4
  %15 = atomicrmw volatile add ptr %12, i32 %14 acq_rel, align 4
  store i32 %15, ptr %atomic-temp.i, align 4
  %16 = load i32, ptr %atomic-temp.i, align 4
  store i32 %16, ptr %retval.i, align 4
  br label %_ZN9__gnu_cxx27__exchange_and_add_dispatchEPii.exit

_ZN9__gnu_cxx27__exchange_and_add_dispatchEPii.exit: ; preds = %if.else.i, %if.then.i
  %17 = load i32, ptr %retval.i, align 4
  br label %invoke.cont

invoke.cont:                                      ; preds = %_ZN9__gnu_cxx27__exchange_and_add_dispatchEPii.exit
  %cmp = icmp eq i32 %17, 1
  br i1 %cmp, label %if.then, label %if.end

if.then:                                          ; preds = %invoke.cont
  %vtable2 = load ptr, ptr %this1, align 8
  %vfn3 = getelementptr inbounds ptr, ptr %vtable2, i64 3
  %18 = load ptr, ptr %vfn3, align 8
  call void %18(ptr noundef nonnull align 8 dereferenceable(16) %this1) #3
  br label %if.end

if.end:                                           ; preds = %if.then, %invoke.cont
  ret void

terminate.lpad:                                   ; No predecessors!
  %19 = landingpad { ptr, i32 }
          catch ptr null
  %20 = extractvalue { ptr, i32 } %19, 0
  call void @__clang_call_terminate(ptr %20) #16
  unreachable
}

; Function Attrs: mustprogress nounwind uwtable
define linkonce_odr void @_ZN7rocksdb12CustomizableD2Ev(ptr noundef nonnull align 8 dereferenceable(32) %this) unnamed_addr #2 comdat align 2 {
entry:
  %this.addr = alloca ptr, align 8
  store ptr %this, ptr %this.addr, align 8
  %this1 = load ptr, ptr %this.addr, align 8
  call void @_ZN7rocksdb12ConfigurableD2Ev(ptr noundef nonnull align 8 dereferenceable(32) %this1) #3
  ret void
}

; Function Attrs: mustprogress nounwind uwtable
define linkonce_odr void @_ZN7rocksdb12ConfigurableD2Ev(ptr noundef nonnull align 8 dereferenceable(32) %this) unnamed_addr #2 comdat align 2 {
entry:
  %this.addr = alloca ptr, align 8
  store ptr %this, ptr %this.addr, align 8
  %this1 = load ptr, ptr %this.addr, align 8
  store ptr getelementptr inbounds ({ [16 x ptr] }, ptr @_ZTVN7rocksdb12ConfigurableE, i32 0, inrange i32 0, i32 2), ptr %this1, align 8
  %options_ = getelementptr inbounds %"class.rocksdb::Configurable", ptr %this1, i32 0, i32 1
  call void @_ZNSt6vectorIN7rocksdb12Configurable17RegisteredOptionsESaIS2_EED2Ev(ptr noundef nonnull align 8 dereferenceable(24) %options_) #3
  ret void
}

; Function Attrs: mustprogress nounwind uwtable
define linkonce_odr void @_ZNSt6vectorIN7rocksdb12Configurable17RegisteredOptionsESaIS2_EED2Ev(ptr noundef nonnull align 8 dereferenceable(24) %this) unnamed_addr #2 comdat align 2 personality ptr @__gxx_personality_v0 {
entry:
  %this.addr = alloca ptr, align 8
  store ptr %this, ptr %this.addr, align 8
  %this1 = load ptr, ptr %this.addr, align 8
  %_M_impl = getelementptr inbounds %"struct.std::_Vector_base", ptr %this1, i32 0, i32 0
  %_M_start = getelementptr inbounds %"struct.std::_Vector_base<rocksdb::Configurable::RegisteredOptions, std::allocator<rocksdb::Configurable::RegisteredOptions>>::_Vector_impl_data", ptr %_M_impl, i32 0, i32 0
  %0 = load ptr, ptr %_M_start, align 8
  %_M_impl2 = getelementptr inbounds %"struct.std::_Vector_base", ptr %this1, i32 0, i32 0
  %_M_finish = getelementptr inbounds %"struct.std::_Vector_base<rocksdb::Configurable::RegisteredOptions, std::allocator<rocksdb::Configurable::RegisteredOptions>>::_Vector_impl_data", ptr %_M_impl2, i32 0, i32 1
  %1 = load ptr, ptr %_M_finish, align 8
  %call = call noundef nonnull align 1 dereferenceable(1) ptr @_ZNSt12_Vector_baseIN7rocksdb12Configurable17RegisteredOptionsESaIS2_EE19_M_get_Tp_allocatorEv(ptr noundef nonnull align 8 dereferenceable(24) %this1) #3
  invoke void @_ZSt8_DestroyIPN7rocksdb12Configurable17RegisteredOptionsES2_EvT_S4_RSaIT0_E(ptr noundef %0, ptr noundef %1, ptr noundef nonnull align 1 dereferenceable(1) %call)
          to label %invoke.cont unwind label %terminate.lpad

invoke.cont:                                      ; preds = %entry
  call void @_ZNSt12_Vector_baseIN7rocksdb12Configurable17RegisteredOptionsESaIS2_EED2Ev(ptr noundef nonnull align 8 dereferenceable(24) %this1) #3
  ret void

terminate.lpad:                                   ; preds = %entry
  %2 = landingpad { ptr, i32 }
          catch ptr null
  %3 = extractvalue { ptr, i32 } %2, 0
  call void @__clang_call_terminate(ptr %3) #16
  unreachable
}

; Function Attrs: mustprogress uwtable
define linkonce_odr void @_ZSt8_DestroyIPN7rocksdb12Configurable17RegisteredOptionsES2_EvT_S4_RSaIT0_E(ptr noundef %__first, ptr noundef %__last, ptr noundef nonnull align 1 dereferenceable(1) %0) #1 comdat {
entry:
  %__first.addr = alloca ptr, align 8
  %__last.addr = alloca ptr, align 8
  %.addr = alloca ptr, align 8
  store ptr %__first, ptr %__first.addr, align 8
  store ptr %__last, ptr %__last.addr, align 8
  store ptr %0, ptr %.addr, align 8
  %1 = load ptr, ptr %__first.addr, align 8
  %2 = load ptr, ptr %__last.addr, align 8
  call void @_ZSt8_DestroyIPN7rocksdb12Configurable17RegisteredOptionsEEvT_S4_(ptr noundef %1, ptr noundef %2)
  ret void
}

; Function Attrs: mustprogress nounwind uwtable
define linkonce_odr noundef nonnull align 1 dereferenceable(1) ptr @_ZNSt12_Vector_baseIN7rocksdb12Configurable17RegisteredOptionsESaIS2_EE19_M_get_Tp_allocatorEv(ptr noundef nonnull align 8 dereferenceable(24) %this) #2 comdat align 2 {
entry:
  %this.addr = alloca ptr, align 8
  store ptr %this, ptr %this.addr, align 8
  %this1 = load ptr, ptr %this.addr, align 8
  %_M_impl = getelementptr inbounds %"struct.std::_Vector_base", ptr %this1, i32 0, i32 0
  ret ptr %_M_impl
}

; Function Attrs: mustprogress nounwind uwtable
define linkonce_odr void @_ZNSt12_Vector_baseIN7rocksdb12Configurable17RegisteredOptionsESaIS2_EED2Ev(ptr noundef nonnull align 8 dereferenceable(24) %this) unnamed_addr #2 comdat align 2 personality ptr @__gxx_personality_v0 {
entry:
  %this.addr = alloca ptr, align 8
  store ptr %this, ptr %this.addr, align 8
  %this1 = load ptr, ptr %this.addr, align 8
  %_M_impl = getelementptr inbounds %"struct.std::_Vector_base", ptr %this1, i32 0, i32 0
  %_M_start = getelementptr inbounds %"struct.std::_Vector_base<rocksdb::Configurable::RegisteredOptions, std::allocator<rocksdb::Configurable::RegisteredOptions>>::_Vector_impl_data", ptr %_M_impl, i32 0, i32 0
  %0 = load ptr, ptr %_M_start, align 8
  %_M_impl2 = getelementptr inbounds %"struct.std::_Vector_base", ptr %this1, i32 0, i32 0
  %_M_end_of_storage = getelementptr inbounds %"struct.std::_Vector_base<rocksdb::Configurable::RegisteredOptions, std::allocator<rocksdb::Configurable::RegisteredOptions>>::_Vector_impl_data", ptr %_M_impl2, i32 0, i32 2
  %1 = load ptr, ptr %_M_end_of_storage, align 8
  %_M_impl3 = getelementptr inbounds %"struct.std::_Vector_base", ptr %this1, i32 0, i32 0
  %_M_start4 = getelementptr inbounds %"struct.std::_Vector_base<rocksdb::Configurable::RegisteredOptions, std::allocator<rocksdb::Configurable::RegisteredOptions>>::_Vector_impl_data", ptr %_M_impl3, i32 0, i32 0
  %2 = load ptr, ptr %_M_start4, align 8
  %sub.ptr.lhs.cast = ptrtoint ptr %1 to i64
  %sub.ptr.rhs.cast = ptrtoint ptr %2 to i64
  %sub.ptr.sub = sub i64 %sub.ptr.lhs.cast, %sub.ptr.rhs.cast
  %sub.ptr.div = sdiv exact i64 %sub.ptr.sub, 48
  invoke void @_ZNSt12_Vector_baseIN7rocksdb12Configurable17RegisteredOptionsESaIS2_EE13_M_deallocateEPS2_m(ptr noundef nonnull align 8 dereferenceable(24) %this1, ptr noundef %0, i64 noundef %sub.ptr.div)
          to label %invoke.cont unwind label %terminate.lpad

invoke.cont:                                      ; preds = %entry
  %_M_impl5 = getelementptr inbounds %"struct.std::_Vector_base", ptr %this1, i32 0, i32 0
  call void @_ZNSt12_Vector_baseIN7rocksdb12Configurable17RegisteredOptionsESaIS2_EE12_Vector_implD2Ev(ptr noundef nonnull align 8 dereferenceable(24) %_M_impl5) #3
  ret void

terminate.lpad:                                   ; preds = %entry
  %3 = landingpad { ptr, i32 }
          catch ptr null
  %4 = extractvalue { ptr, i32 } %3, 0
  call void @__clang_call_terminate(ptr %4) #16
  unreachable
}

; Function Attrs: mustprogress uwtable
define linkonce_odr void @_ZSt8_DestroyIPN7rocksdb12Configurable17RegisteredOptionsEEvT_S4_(ptr noundef %__first, ptr noundef %__last) #1 comdat {
entry:
  %__first.addr = alloca ptr, align 8
  %__last.addr = alloca ptr, align 8
  store ptr %__first, ptr %__first.addr, align 8
  store ptr %__last, ptr %__last.addr, align 8
  %0 = load ptr, ptr %__first.addr, align 8
  %1 = load ptr, ptr %__last.addr, align 8
  call void @_ZNSt12_Destroy_auxILb0EE9__destroyIPN7rocksdb12Configurable17RegisteredOptionsEEEvT_S6_(ptr noundef %0, ptr noundef %1)
  ret void
}

; Function Attrs: mustprogress uwtable
define linkonce_odr void @_ZNSt12_Destroy_auxILb0EE9__destroyIPN7rocksdb12Configurable17RegisteredOptionsEEEvT_S6_(ptr noundef %__first, ptr noundef %__last) #1 comdat align 2 {
entry:
  %__first.addr = alloca ptr, align 8
  %__last.addr = alloca ptr, align 8
  store ptr %__first, ptr %__first.addr, align 8
  store ptr %__last, ptr %__last.addr, align 8
  br label %for.cond

for.cond:                                         ; preds = %for.inc, %entry
  %0 = load ptr, ptr %__first.addr, align 8
  %1 = load ptr, ptr %__last.addr, align 8
  %cmp = icmp ne ptr %0, %1
  br i1 %cmp, label %for.body, label %for.end

for.body:                                         ; preds = %for.cond
  %2 = load ptr, ptr %__first.addr, align 8
  call void @_ZSt8_DestroyIN7rocksdb12Configurable17RegisteredOptionsEEvPT_(ptr noundef %2)
  br label %for.inc

for.inc:                                          ; preds = %for.body
  %3 = load ptr, ptr %__first.addr, align 8
  %incdec.ptr = getelementptr inbounds %"struct.rocksdb::Configurable::RegisteredOptions", ptr %3, i32 1
  store ptr %incdec.ptr, ptr %__first.addr, align 8
  br label %for.cond, !llvm.loop !6

for.end:                                          ; preds = %for.cond
  ret void
}

; Function Attrs: mustprogress nounwind uwtable
define linkonce_odr void @_ZSt8_DestroyIN7rocksdb12Configurable17RegisteredOptionsEEvPT_(ptr noundef %__pointer) #2 comdat {
entry:
  %__pointer.addr = alloca ptr, align 8
  store ptr %__pointer, ptr %__pointer.addr, align 8
  %0 = load ptr, ptr %__pointer.addr, align 8
  call void @_ZN7rocksdb12Configurable17RegisteredOptionsD2Ev(ptr noundef nonnull align 8 dereferenceable(48) %0) #3
  ret void
}

; Function Attrs: mustprogress nounwind uwtable
define linkonce_odr void @_ZN7rocksdb12Configurable17RegisteredOptionsD2Ev(ptr noundef nonnull align 8 dereferenceable(48) %this) unnamed_addr #2 comdat align 2 {
entry:
  %this.addr = alloca ptr, align 8
  store ptr %this, ptr %this.addr, align 8
  %this1 = load ptr, ptr %this.addr, align 8
  %name = getelementptr inbounds %"struct.rocksdb::Configurable::RegisteredOptions", ptr %this1, i32 0, i32 0
  call void @_ZNSt7__cxx1112basic_stringIcSt11char_traitsIcESaIcEED1Ev(ptr noundef nonnull align 8 dereferenceable(32) %name) #3
  ret void
}

; Function Attrs: mustprogress uwtable
define linkonce_odr void @_ZNSt12_Vector_baseIN7rocksdb12Configurable17RegisteredOptionsESaIS2_EE13_M_deallocateEPS2_m(ptr noundef nonnull align 8 dereferenceable(24) %this, ptr noundef %__p, i64 noundef %__n) #1 comdat align 2 {
entry:
  %this.addr = alloca ptr, align 8
  %__p.addr = alloca ptr, align 8
  %__n.addr = alloca i64, align 8
  store ptr %this, ptr %this.addr, align 8
  store ptr %__p, ptr %__p.addr, align 8
  store i64 %__n, ptr %__n.addr, align 8
  %this1 = load ptr, ptr %this.addr, align 8
  %0 = load ptr, ptr %__p.addr, align 8
  %tobool = icmp ne ptr %0, null
  br i1 %tobool, label %if.then, label %if.end

if.then:                                          ; preds = %entry
  %_M_impl = getelementptr inbounds %"struct.std::_Vector_base", ptr %this1, i32 0, i32 0
  %1 = load ptr, ptr %__p.addr, align 8
  %2 = load i64, ptr %__n.addr, align 8
  call void @_ZNSt16allocator_traitsISaIN7rocksdb12Configurable17RegisteredOptionsEEE10deallocateERS3_PS2_m(ptr noundef nonnull align 1 dereferenceable(1) %_M_impl, ptr noundef %1, i64 noundef %2)
  br label %if.end

if.end:                                           ; preds = %if.then, %entry
  ret void
}

; Function Attrs: mustprogress nounwind uwtable
define linkonce_odr void @_ZNSt12_Vector_baseIN7rocksdb12Configurable17RegisteredOptionsESaIS2_EE12_Vector_implD2Ev(ptr noundef nonnull align 8 dereferenceable(24) %this) unnamed_addr #2 comdat align 2 {
entry:
  %this.addr = alloca ptr, align 8
  store ptr %this, ptr %this.addr, align 8
  %this1 = load ptr, ptr %this.addr, align 8
  call void @_ZNSaIN7rocksdb12Configurable17RegisteredOptionsEED2Ev(ptr noundef nonnull align 1 dereferenceable(1) %this1) #3
  ret void
}

; Function Attrs: mustprogress uwtable
define linkonce_odr void @_ZNSt16allocator_traitsISaIN7rocksdb12Configurable17RegisteredOptionsEEE10deallocateERS3_PS2_m(ptr noundef nonnull align 1 dereferenceable(1) %__a, ptr noundef %__p, i64 noundef %__n) #1 comdat align 2 {
entry:
  %__a.addr = alloca ptr, align 8
  %__p.addr = alloca ptr, align 8
  %__n.addr = alloca i64, align 8
  store ptr %__a, ptr %__a.addr, align 8
  store ptr %__p, ptr %__p.addr, align 8
  store i64 %__n, ptr %__n.addr, align 8
  %0 = load ptr, ptr %__a.addr, align 8
  %1 = load ptr, ptr %__p.addr, align 8
  %2 = load i64, ptr %__n.addr, align 8
  call void @_ZNSt15__new_allocatorIN7rocksdb12Configurable17RegisteredOptionsEE10deallocateEPS2_m(ptr noundef nonnull align 1 dereferenceable(1) %0, ptr noundef %1, i64 noundef %2)
  ret void
}

; Function Attrs: mustprogress nounwind uwtable
define linkonce_odr void @_ZNSt15__new_allocatorIN7rocksdb12Configurable17RegisteredOptionsEE10deallocateEPS2_m(ptr noundef nonnull align 1 dereferenceable(1) %this, ptr noundef %__p, i64 noundef %__n) #2 comdat align 2 {
entry:
  %this.addr = alloca ptr, align 8
  %__p.addr = alloca ptr, align 8
  %__n.addr = alloca i64, align 8
  store ptr %this, ptr %this.addr, align 8
  store ptr %__p, ptr %__p.addr, align 8
  store i64 %__n, ptr %__n.addr, align 8
  %0 = load ptr, ptr %__p.addr, align 8
  call void @_ZdlPv(ptr noundef %0) #17
  ret void
}

; Function Attrs: mustprogress nounwind uwtable
define linkonce_odr void @_ZNSaIN7rocksdb12Configurable17RegisteredOptionsEED2Ev(ptr noundef nonnull align 1 dereferenceable(1) %this) unnamed_addr #2 comdat align 2 {
entry:
  %this.addr = alloca ptr, align 8
  store ptr %this, ptr %this.addr, align 8
  %this1 = load ptr, ptr %this.addr, align 8
  call void @_ZNSt15__new_allocatorIN7rocksdb12Configurable17RegisteredOptionsEED2Ev(ptr noundef nonnull align 1 dereferenceable(1) %this1) #3
  ret void
}

; Function Attrs: mustprogress nounwind uwtable
define linkonce_odr void @_ZNSt15__new_allocatorIN7rocksdb12Configurable17RegisteredOptionsEED2Ev(ptr noundef nonnull align 1 dereferenceable(1) %this) unnamed_addr #2 comdat align 2 {
entry:
  %this.addr = alloca ptr, align 8
  store ptr %this, ptr %this.addr, align 8
  ret void
}

declare void @_ZNSt7__cxx1112basic_stringIcSt11char_traitsIcESaIcEEC1ERKS4_(ptr noundef nonnull align 8 dereferenceable(32), ptr noundef nonnull align 8 dereferenceable(32)) unnamed_addr #4

; Function Attrs: mustprogress nounwind uwtable
define linkonce_odr void @_ZNSt10shared_ptrIN7rocksdb14ObjectRegistryEEC2ERKS2_(ptr noundef nonnull align 8 dereferenceable(16) %this, ptr noundef nonnull align 8 dereferenceable(16) %0) unnamed_addr #2 comdat align 2 {
entry:
  %this.addr = alloca ptr, align 8
  %.addr = alloca ptr, align 8
  store ptr %this, ptr %this.addr, align 8
  store ptr %0, ptr %.addr, align 8
  %this1 = load ptr, ptr %this.addr, align 8
  %1 = load ptr, ptr %.addr, align 8
  call void @_ZNSt12__shared_ptrIN7rocksdb14ObjectRegistryELN9__gnu_cxx12_Lock_policyE2EEC2ERKS4_(ptr noundef nonnull align 8 dereferenceable(16) %this1, ptr noundef nonnull align 8 dereferenceable(16) %1) #3
  ret void
}

; Function Attrs: mustprogress nounwind uwtable
define linkonce_odr void @_ZNSt12__shared_ptrIN7rocksdb14ObjectRegistryELN9__gnu_cxx12_Lock_policyE2EEC2ERKS4_(ptr noundef nonnull align 8 dereferenceable(16) %this, ptr noundef nonnull align 8 dereferenceable(16) %0) unnamed_addr #2 comdat align 2 {
entry:
  %this.addr = alloca ptr, align 8
  %.addr = alloca ptr, align 8
  store ptr %this, ptr %this.addr, align 8
  store ptr %0, ptr %.addr, align 8
  %this1 = load ptr, ptr %this.addr, align 8
  %_M_ptr = getelementptr inbounds %"class.std::__shared_ptr.22", ptr %this1, i32 0, i32 0
  %1 = load ptr, ptr %.addr, align 8
  %_M_ptr2 = getelementptr inbounds %"class.std::__shared_ptr.22", ptr %1, i32 0, i32 0
  %2 = load ptr, ptr %_M_ptr2, align 8
  store ptr %2, ptr %_M_ptr, align 8
  %_M_refcount = getelementptr inbounds %"class.std::__shared_ptr.22", ptr %this1, i32 0, i32 1
  %3 = load ptr, ptr %.addr, align 8
  %_M_refcount3 = getelementptr inbounds %"class.std::__shared_ptr.22", ptr %3, i32 0, i32 1
  call void @_ZNSt14__shared_countILN9__gnu_cxx12_Lock_policyE2EEC2ERKS2_(ptr noundef nonnull align 8 dereferenceable(8) %_M_refcount, ptr noundef nonnull align 8 dereferenceable(8) %_M_refcount3) #3
  ret void
}

; Function Attrs: mustprogress nounwind uwtable
define linkonce_odr void @_ZNSt10shared_ptrIN7rocksdb14ObjectRegistryEED2Ev(ptr noundef nonnull align 8 dereferenceable(16) %this) unnamed_addr #2 comdat align 2 {
entry:
  %this.addr = alloca ptr, align 8
  store ptr %this, ptr %this.addr, align 8
  %this1 = load ptr, ptr %this.addr, align 8
  call void @_ZNSt12__shared_ptrIN7rocksdb14ObjectRegistryELN9__gnu_cxx12_Lock_policyE2EED2Ev(ptr noundef nonnull align 8 dereferenceable(16) %this1) #3
  ret void
}

; Function Attrs: mustprogress nounwind uwtable
define linkonce_odr void @_ZNSt12__shared_ptrIN7rocksdb14ObjectRegistryELN9__gnu_cxx12_Lock_policyE2EED2Ev(ptr noundef nonnull align 8 dereferenceable(16) %this) unnamed_addr #2 comdat align 2 {
entry:
  %this.addr = alloca ptr, align 8
  store ptr %this, ptr %this.addr, align 8
  %this1 = load ptr, ptr %this.addr, align 8
  %_M_refcount = getelementptr inbounds %"class.std::__shared_ptr.22", ptr %this1, i32 0, i32 1
  call void @_ZNSt14__shared_countILN9__gnu_cxx12_Lock_policyE2EED2Ev(ptr noundef nonnull align 8 dereferenceable(8) %_M_refcount) #3
  ret void
}

declare noundef ptr @_ZNSt7__cxx1112basic_stringIcSt11char_traitsIcESaIcEE13_M_local_dataEv(ptr noundef nonnull align 8 dereferenceable(32)) #4

declare void @_ZNSt7__cxx1112basic_stringIcSt11char_traitsIcESaIcEE12_Alloc_hiderC1EPcRKS3_(ptr noundef nonnull align 8 dereferenceable(8), ptr noundef, ptr noundef nonnull align 1 dereferenceable(1)) unnamed_addr #4

; Function Attrs: noreturn
declare void @_ZSt19__throw_logic_errorPKc(ptr noundef) #11

; Function Attrs: mustprogress nounwind uwtable
define linkonce_odr noundef i64 @_ZNSt11char_traitsIcE6lengthEPKc(ptr noundef %__s) #2 comdat align 2 {
entry:
  %__s.addr = alloca ptr, align 8
  store ptr %__s, ptr %__s.addr, align 8
  %0 = load ptr, ptr %__s.addr, align 8
  %call = call i64 @strlen(ptr noundef %0) #3
  ret i64 %call
}

; Function Attrs: mustprogress uwtable
define linkonce_odr void @_ZNSt7__cxx1112basic_stringIcSt11char_traitsIcESaIcEE12_M_constructIPKcEEvT_S8_St20forward_iterator_tag(ptr noundef nonnull align 8 dereferenceable(32) %this, ptr noundef %__beg, ptr noundef %__end) #1 comdat align 2 personality ptr @__gxx_personality_v0 {
entry:
  %this.addr.i = alloca ptr, align 8
  %this.addr = alloca ptr, align 8
  %__beg.addr = alloca ptr, align 8
  %__end.addr = alloca ptr, align 8
  %__dnew = alloca i64, align 8
  %__guard = alloca %struct._Guard, align 8
  %exn.slot = alloca ptr, align 8
  %ehselector.slot = alloca i32, align 4
  store ptr %this, ptr %this.addr, align 8
  store ptr %__beg, ptr %__beg.addr, align 8
  store ptr %__end, ptr %__end.addr, align 8
  %this1 = load ptr, ptr %this.addr, align 8
  %0 = load ptr, ptr %__beg.addr, align 8
  %1 = load ptr, ptr %__end.addr, align 8
  %call = call noundef i64 @_ZSt8distanceIPKcENSt15iterator_traitsIT_E15difference_typeES3_S3_(ptr noundef %0, ptr noundef %1)
  store i64 %call, ptr %__dnew, align 8
  %2 = load i64, ptr %__dnew, align 8
  %cmp = icmp ugt i64 %2, 15
  br i1 %cmp, label %if.then, label %if.else

if.then:                                          ; preds = %entry
  %call2 = call noundef ptr @_ZNSt7__cxx1112basic_stringIcSt11char_traitsIcESaIcEE9_M_createERmm(ptr noundef nonnull align 8 dereferenceable(32) %this1, ptr noundef nonnull align 8 dereferenceable(8) %__dnew, i64 noundef 0)
  call void @_ZNSt7__cxx1112basic_stringIcSt11char_traitsIcESaIcEE7_M_dataEPc(ptr noundef nonnull align 8 dereferenceable(32) %this1, ptr noundef %call2)
  %3 = load i64, ptr %__dnew, align 8
  call void @_ZNSt7__cxx1112basic_stringIcSt11char_traitsIcESaIcEE11_M_capacityEm(ptr noundef nonnull align 8 dereferenceable(32) %this1, i64 noundef %3)
  br label %if.end

if.else:                                          ; preds = %entry
  store ptr %this1, ptr %this.addr.i, align 8
  %this1.i = load ptr, ptr %this.addr.i, align 8
  %call.i = invoke noundef ptr @_ZNSt7__cxx1112basic_stringIcSt11char_traitsIcESaIcEE13_M_local_dataEv(ptr noundef nonnull align 8 dereferenceable(32) %this1.i)
          to label %_ZNSt7__cxx1112basic_stringIcSt11char_traitsIcESaIcEE17_M_use_local_dataEv.exit unwind label %terminate.lpad.i

terminate.lpad.i:                                 ; preds = %if.else
  %4 = landingpad { ptr, i32 }
          catch ptr null
  %5 = extractvalue { ptr, i32 } %4, 0
  call void @__clang_call_terminate(ptr %5) #16
  unreachable

_ZNSt7__cxx1112basic_stringIcSt11char_traitsIcESaIcEE17_M_use_local_dataEv.exit: ; preds = %if.else
  br label %if.end

if.end:                                           ; preds = %_ZNSt7__cxx1112basic_stringIcSt11char_traitsIcESaIcEE17_M_use_local_dataEv.exit, %if.then
  call void @_ZZNSt7__cxx1112basic_stringIcSt11char_traitsIcESaIcEE12_M_constructIPKcEEvT_S8_St20forward_iterator_tagEN6_GuardC2EPS4_(ptr noundef nonnull align 8 dereferenceable(8) %__guard, ptr noundef %this1)
  %call4 = invoke noundef ptr @_ZNKSt7__cxx1112basic_stringIcSt11char_traitsIcESaIcEE7_M_dataEv(ptr noundef nonnull align 8 dereferenceable(32) %this1)
          to label %invoke.cont unwind label %lpad

invoke.cont:                                      ; preds = %if.end
  %6 = load ptr, ptr %__beg.addr, align 8
  %7 = load ptr, ptr %__end.addr, align 8
  call void @_ZNSt7__cxx1112basic_stringIcSt11char_traitsIcESaIcEE13_S_copy_charsEPcPKcS7_(ptr noundef %call4, ptr noundef %6, ptr noundef %7) #3
  %_M_guarded = getelementptr inbounds %struct._Guard, ptr %__guard, i32 0, i32 0
  store ptr null, ptr %_M_guarded, align 8
  %8 = load i64, ptr %__dnew, align 8
  invoke void @_ZNSt7__cxx1112basic_stringIcSt11char_traitsIcESaIcEE13_M_set_lengthEm(ptr noundef nonnull align 8 dereferenceable(32) %this1, i64 noundef %8)
          to label %invoke.cont5 unwind label %lpad

invoke.cont5:                                     ; preds = %invoke.cont
  call void @_ZZNSt7__cxx1112basic_stringIcSt11char_traitsIcESaIcEE12_M_constructIPKcEEvT_S8_St20forward_iterator_tagEN6_GuardD2Ev(ptr noundef nonnull align 8 dereferenceable(8) %__guard) #3
  ret void

lpad:                                             ; preds = %invoke.cont, %if.end
  %9 = landingpad { ptr, i32 }
          cleanup
  %10 = extractvalue { ptr, i32 } %9, 0
  store ptr %10, ptr %exn.slot, align 8
  %11 = extractvalue { ptr, i32 } %9, 1
  store i32 %11, ptr %ehselector.slot, align 4
  call void @_ZZNSt7__cxx1112basic_stringIcSt11char_traitsIcESaIcEE12_M_constructIPKcEEvT_S8_St20forward_iterator_tagEN6_GuardD2Ev(ptr noundef nonnull align 8 dereferenceable(8) %__guard) #3
  br label %eh.resume

eh.resume:                                        ; preds = %lpad
  %exn = load ptr, ptr %exn.slot, align 8
  %sel = load i32, ptr %ehselector.slot, align 4
  %lpad.val = insertvalue { ptr, i32 } poison, ptr %exn, 0
  %lpad.val6 = insertvalue { ptr, i32 } %lpad.val, i32 %sel, 1
  resume { ptr, i32 } %lpad.val6
}

; Function Attrs: mustprogress nounwind uwtable
define linkonce_odr void @_ZNSt7__cxx1112basic_stringIcSt11char_traitsIcESaIcEE12_Alloc_hiderD2Ev(ptr noundef nonnull align 8 dereferenceable(8) %this) unnamed_addr #2 comdat align 2 {
entry:
  %this.addr = alloca ptr, align 8
  store ptr %this, ptr %this.addr, align 8
  %this1 = load ptr, ptr %this.addr, align 8
  call void @_ZNSaIcED2Ev(ptr noundef nonnull align 1 dereferenceable(1) %this1) #3
  ret void
}

; Function Attrs: nounwind
declare i64 @strlen(ptr noundef) #5

; Function Attrs: mustprogress uwtable
define linkonce_odr noundef i64 @_ZSt8distanceIPKcENSt15iterator_traitsIT_E15difference_typeES3_S3_(ptr noundef %__first, ptr noundef %__last) #1 comdat {
entry:
  %__first.addr = alloca ptr, align 8
  %__last.addr = alloca ptr, align 8
  store ptr %__first, ptr %__first.addr, align 8
  store ptr %__last, ptr %__last.addr, align 8
  %0 = load ptr, ptr %__first.addr, align 8
  %1 = load ptr, ptr %__last.addr, align 8
  call void @_ZSt19__iterator_categoryIPKcENSt15iterator_traitsIT_E17iterator_categoryERKS3_(ptr noundef nonnull align 8 dereferenceable(8) %__first.addr)
  %call = call noundef i64 @_ZSt10__distanceIPKcENSt15iterator_traitsIT_E15difference_typeES3_S3_St26random_access_iterator_tag(ptr noundef %0, ptr noundef %1)
  ret i64 %call
}

declare void @_ZNSt7__cxx1112basic_stringIcSt11char_traitsIcESaIcEE7_M_dataEPc(ptr noundef nonnull align 8 dereferenceable(32), ptr noundef) #4

declare noundef ptr @_ZNSt7__cxx1112basic_stringIcSt11char_traitsIcESaIcEE9_M_createERmm(ptr noundef nonnull align 8 dereferenceable(32), ptr noundef nonnull align 8 dereferenceable(8), i64 noundef) #4

declare void @_ZNSt7__cxx1112basic_stringIcSt11char_traitsIcESaIcEE11_M_capacityEm(ptr noundef nonnull align 8 dereferenceable(32), i64 noundef) #4

; Function Attrs: mustprogress nounwind uwtable
define linkonce_odr void @_ZZNSt7__cxx1112basic_stringIcSt11char_traitsIcESaIcEE12_M_constructIPKcEEvT_S8_St20forward_iterator_tagEN6_GuardC2EPS4_(ptr noundef nonnull align 8 dereferenceable(8) %this, ptr noundef %__s) unnamed_addr #2 comdat align 2 {
entry:
  %this.addr = alloca ptr, align 8
  %__s.addr = alloca ptr, align 8
  store ptr %this, ptr %this.addr, align 8
  store ptr %__s, ptr %__s.addr, align 8
  %this1 = load ptr, ptr %this.addr, align 8
  %_M_guarded = getelementptr inbounds %struct._Guard, ptr %this1, i32 0, i32 0
  %0 = load ptr, ptr %__s.addr, align 8
  store ptr %0, ptr %_M_guarded, align 8
  ret void
}

; Function Attrs: nounwind
declare void @_ZNSt7__cxx1112basic_stringIcSt11char_traitsIcESaIcEE13_S_copy_charsEPcPKcS7_(ptr noundef, ptr noundef, ptr noundef) #5

declare noundef ptr @_ZNKSt7__cxx1112basic_stringIcSt11char_traitsIcESaIcEE7_M_dataEv(ptr noundef nonnull align 8 dereferenceable(32)) #4

declare void @_ZNSt7__cxx1112basic_stringIcSt11char_traitsIcESaIcEE13_M_set_lengthEm(ptr noundef nonnull align 8 dereferenceable(32), i64 noundef) #4

; Function Attrs: mustprogress nounwind uwtable
define linkonce_odr void @_ZZNSt7__cxx1112basic_stringIcSt11char_traitsIcESaIcEE12_M_constructIPKcEEvT_S8_St20forward_iterator_tagEN6_GuardD2Ev(ptr noundef nonnull align 8 dereferenceable(8) %this) unnamed_addr #2 comdat align 2 personality ptr @__gxx_personality_v0 {
entry:
  %this.addr = alloca ptr, align 8
  store ptr %this, ptr %this.addr, align 8
  %this1 = load ptr, ptr %this.addr, align 8
  %_M_guarded = getelementptr inbounds %struct._Guard, ptr %this1, i32 0, i32 0
  %0 = load ptr, ptr %_M_guarded, align 8
  %tobool = icmp ne ptr %0, null
  br i1 %tobool, label %if.then, label %if.end

if.then:                                          ; preds = %entry
  %_M_guarded2 = getelementptr inbounds %struct._Guard, ptr %this1, i32 0, i32 0
  %1 = load ptr, ptr %_M_guarded2, align 8
  invoke void @_ZNSt7__cxx1112basic_stringIcSt11char_traitsIcESaIcEE10_M_disposeEv(ptr noundef nonnull align 8 dereferenceable(32) %1)
          to label %invoke.cont unwind label %terminate.lpad

invoke.cont:                                      ; preds = %if.then
  br label %if.end

if.end:                                           ; preds = %invoke.cont, %entry
  ret void

terminate.lpad:                                   ; preds = %if.then
  %2 = landingpad { ptr, i32 }
          catch ptr null
  %3 = extractvalue { ptr, i32 } %2, 0
  call void @__clang_call_terminate(ptr %3) #16
  unreachable
}

; Function Attrs: mustprogress nounwind uwtable
define linkonce_odr noundef i64 @_ZSt10__distanceIPKcENSt15iterator_traitsIT_E15difference_typeES3_S3_St26random_access_iterator_tag(ptr noundef %__first, ptr noundef %__last) #2 comdat {
entry:
  %__first.addr = alloca ptr, align 8
  %__last.addr = alloca ptr, align 8
  store ptr %__first, ptr %__first.addr, align 8
  store ptr %__last, ptr %__last.addr, align 8
  %0 = load ptr, ptr %__last.addr, align 8
  %1 = load ptr, ptr %__first.addr, align 8
  %sub.ptr.lhs.cast = ptrtoint ptr %0 to i64
  %sub.ptr.rhs.cast = ptrtoint ptr %1 to i64
  %sub.ptr.sub = sub i64 %sub.ptr.lhs.cast, %sub.ptr.rhs.cast
  ret i64 %sub.ptr.sub
}

; Function Attrs: mustprogress nounwind uwtable
define linkonce_odr void @_ZSt19__iterator_categoryIPKcENSt15iterator_traitsIT_E17iterator_categoryERKS3_(ptr noundef nonnull align 8 dereferenceable(8) %0) #2 comdat {
entry:
  %.addr = alloca ptr, align 8
  store ptr %0, ptr %.addr, align 8
  ret void
}

declare void @_ZNSt7__cxx1112basic_stringIcSt11char_traitsIcESaIcEE10_M_disposeEv(ptr noundef nonnull align 8 dereferenceable(32)) #4

; Function Attrs: nounwind
declare void @_ZNSaIcED2Ev(ptr noundef nonnull align 1 dereferenceable(1)) unnamed_addr #5

; Function Attrs: mustprogress nounwind uwtable
define linkonce_odr noundef i32 @_ZN7rocksdborERKNS_15OptionTypeFlagsES2_(ptr noundef nonnull align 4 dereferenceable(4) %a, ptr noundef nonnull align 4 dereferenceable(4) %b) #2 comdat {
entry:
  %a.addr = alloca ptr, align 8
  %b.addr = alloca ptr, align 8
  store ptr %a, ptr %a.addr, align 8
  store ptr %b, ptr %b.addr, align 8
  %0 = load ptr, ptr %a.addr, align 8
  %1 = load i32, ptr %0, align 4
  %2 = load ptr, ptr %b.addr, align 8
  %3 = load i32, ptr %2, align 4
  %or = or i32 %1, %3
  ret i32 %or
}

; Function Attrs: mustprogress nounwind uwtable
define linkonce_odr void @_ZN7rocksdb14OptionTypeInfoC2EiNS_10OptionTypeENS_22OptionVerificationTypeENS_15OptionTypeFlagsE(ptr noundef nonnull align 8 dereferenceable(180) %this, i32 noundef %offset, i32 noundef %type, i32 noundef %verification, i32 noundef %flags) unnamed_addr #2 comdat align 2 {
entry:
  %this.addr = alloca ptr, align 8
  %offset.addr = alloca i32, align 4
  %type.addr = alloca i32, align 4
  %verification.addr = alloca i32, align 4
  %flags.addr = alloca i32, align 4
  store ptr %this, ptr %this.addr, align 8
  store i32 %offset, ptr %offset.addr, align 4
  store i32 %type, ptr %type.addr, align 4
  store i32 %verification, ptr %verification.addr, align 4
  store i32 %flags, ptr %flags.addr, align 4
  %this1 = load ptr, ptr %this.addr, align 8
  %offset_ = getelementptr inbounds %"class.rocksdb::OptionTypeInfo", ptr %this1, i32 0, i32 0
  %0 = load i32, ptr %offset.addr, align 4
  store i32 %0, ptr %offset_, align 8
  %parse_func_ = getelementptr inbounds %"class.rocksdb::OptionTypeInfo", ptr %this1, i32 0, i32 2
  call void @_ZNSt8functionIFN7rocksdb6StatusERKNS0_13ConfigOptionsERKNSt7__cxx1112basic_stringIcSt11char_traitsIcESaIcEEESC_PvEEC2EDn(ptr noundef nonnull align 8 dereferenceable(32) %parse_func_, ptr null) #3
  %serialize_func_ = getelementptr inbounds %"class.rocksdb::OptionTypeInfo", ptr %this1, i32 0, i32 3
  call void @_ZNSt8functionIFN7rocksdb6StatusERKNS0_13ConfigOptionsERKNSt7__cxx1112basic_stringIcSt11char_traitsIcESaIcEEEPKvPSA_EEC2EDn(ptr noundef nonnull align 8 dereferenceable(32) %serialize_func_, ptr null) #3
  %equals_func_ = getelementptr inbounds %"class.rocksdb::OptionTypeInfo", ptr %this1, i32 0, i32 4
  call void @_ZNSt8functionIFbRKN7rocksdb13ConfigOptionsERKNSt7__cxx1112basic_stringIcSt11char_traitsIcESaIcEEEPKvSD_PS9_EEC2EDn(ptr noundef nonnull align 8 dereferenceable(32) %equals_func_, ptr null) #3
  %prepare_func_ = getelementptr inbounds %"class.rocksdb::OptionTypeInfo", ptr %this1, i32 0, i32 5
  call void @_ZNSt8functionIFN7rocksdb6StatusERKNS0_13ConfigOptionsERKNSt7__cxx1112basic_stringIcSt11char_traitsIcESaIcEEEPvEEC2Ev(ptr noundef nonnull align 8 dereferenceable(32) %prepare_func_) #3
  %validate_func_ = getelementptr inbounds %"class.rocksdb::OptionTypeInfo", ptr %this1, i32 0, i32 6
  call void @_ZNSt8functionIFN7rocksdb6StatusERKNS0_9DBOptionsERKNS0_19ColumnFamilyOptionsERKNSt7__cxx1112basic_stringIcSt11char_traitsIcESaIcEEEPKvEEC2Ev(ptr noundef nonnull align 8 dereferenceable(32) %validate_func_) #3
  %type_ = getelementptr inbounds %"class.rocksdb::OptionTypeInfo", ptr %this1, i32 0, i32 7
  %1 = load i32, ptr %type.addr, align 4
  store i32 %1, ptr %type_, align 8
  %verification_ = getelementptr inbounds %"class.rocksdb::OptionTypeInfo", ptr %this1, i32 0, i32 8
  %2 = load i32, ptr %verification.addr, align 4
  store i32 %2, ptr %verification_, align 4
  %flags_ = getelementptr inbounds %"class.rocksdb::OptionTypeInfo", ptr %this1, i32 0, i32 9
  %3 = load i32, ptr %flags.addr, align 4
  store i32 %3, ptr %flags_, align 8
  ret void
}

; Function Attrs: mustprogress uwtable
define linkonce_odr noundef nonnull align 8 dereferenceable(180) ptr @_ZN7rocksdb14OptionTypeInfo12SetParseFuncERKSt8functionIFNS_6StatusERKNS_13ConfigOptionsERKNSt7__cxx1112basic_stringIcSt11char_traitsIcESaIcEEESD_PvEE(ptr noundef nonnull align 8 dereferenceable(180) %this, ptr noundef nonnull align 8 dereferenceable(32) %f) #1 comdat align 2 {
entry:
  %this.addr = alloca ptr, align 8
  %f.addr = alloca ptr, align 8
  store ptr %this, ptr %this.addr, align 8
  store ptr %f, ptr %f.addr, align 8
  %this1 = load ptr, ptr %this.addr, align 8
  %0 = load ptr, ptr %f.addr, align 8
  %parse_func_ = getelementptr inbounds %"class.rocksdb::OptionTypeInfo", ptr %this1, i32 0, i32 2
  %call = call noundef nonnull align 8 dereferenceable(32) ptr @_ZNSt8functionIFN7rocksdb6StatusERKNS0_13ConfigOptionsERKNSt7__cxx1112basic_stringIcSt11char_traitsIcESaIcEEESC_PvEEaSERKSF_(ptr noundef nonnull align 8 dereferenceable(32) %parse_func_, ptr noundef nonnull align 8 dereferenceable(32) %0)
  ret ptr %this1
}

; Function Attrs: mustprogress nounwind uwtable
define linkonce_odr void @_ZNSt8functionIFN7rocksdb6StatusERKNS0_13ConfigOptionsERKNSt7__cxx1112basic_stringIcSt11char_traitsIcESaIcEEESC_PvEEC2IZNS0_14OptionTypeInfo17AsCustomSharedPtrINS0_15MemoryAllocatorEEESH_iNS0_22OptionVerificationTypeENS0_15OptionTypeFlagsEEUlS4_SC_SC_SD_E_vEEOT_(ptr noundef nonnull align 8 dereferenceable(32) %this, ptr noundef nonnull align 1 dereferenceable(1) %__f) unnamed_addr #2 comdat align 2 {
entry:
  %this.addr = alloca ptr, align 8
  %__f.addr = alloca ptr, align 8
  store ptr %this, ptr %this.addr, align 8
  store ptr %__f, ptr %__f.addr, align 8
  %this1 = load ptr, ptr %this.addr, align 8
  %0 = getelementptr inbounds i8, ptr %this1, i64 0
  call void @llvm.memset.p0.i64(ptr align 8 %0, i8 0, i64 24, i1 false)
  call void @_ZNSt14_Function_baseC2Ev(ptr noundef nonnull align 8 dereferenceable(24) %this1) #3
  %_M_invoker = getelementptr inbounds %"class.std::function", ptr %this1, i32 0, i32 1
  store ptr null, ptr %_M_invoker, align 8
  %1 = load ptr, ptr %__f.addr, align 8
  %call = call noundef zeroext i1 @_ZNSt14_Function_base13_Base_managerIZN7rocksdb14OptionTypeInfo17AsCustomSharedPtrINS1_15MemoryAllocatorEEES2_iNS1_22OptionVerificationTypeENS1_15OptionTypeFlagsEEUlRKNS1_13ConfigOptionsERKNSt7__cxx1112basic_stringIcSt11char_traitsIcESaIcEEESH_PvE_E21_M_not_empty_functionISJ_EEbRKT_(ptr noundef nonnull align 1 dereferenceable(1) %1) #3
  br i1 %call, label %if.then, label %if.end

if.then:                                          ; preds = %entry
  %_M_functor = getelementptr inbounds %"class.std::_Function_base", ptr %this1, i32 0, i32 0
  %2 = load ptr, ptr %__f.addr, align 8
  call void @_ZNSt14_Function_base13_Base_managerIZN7rocksdb14OptionTypeInfo17AsCustomSharedPtrINS1_15MemoryAllocatorEEES2_iNS1_22OptionVerificationTypeENS1_15OptionTypeFlagsEEUlRKNS1_13ConfigOptionsERKNSt7__cxx1112basic_stringIcSt11char_traitsIcESaIcEEESH_PvE_E15_M_init_functorISJ_EEvRSt9_Any_dataOT_(ptr noundef nonnull align 8 dereferenceable(16) %_M_functor, ptr noundef nonnull align 1 dereferenceable(1) %2) #3
  %_M_invoker2 = getelementptr inbounds %"class.std::function", ptr %this1, i32 0, i32 1
  store ptr @_ZNSt17_Function_handlerIFN7rocksdb6StatusERKNS0_13ConfigOptionsERKNSt7__cxx1112basic_stringIcSt11char_traitsIcESaIcEEESC_PvEZNS0_14OptionTypeInfo17AsCustomSharedPtrINS0_15MemoryAllocatorEEESF_iNS0_22OptionVerificationTypeENS0_15OptionTypeFlagsEEUlS4_SC_SC_SD_E_E9_M_invokeERKSt9_Any_dataS4_SC_SC_OSD_, ptr %_M_invoker2, align 8
  %_M_manager = getelementptr inbounds %"class.std::_Function_base", ptr %this1, i32 0, i32 1
  store ptr @_ZNSt17_Function_handlerIFN7rocksdb6StatusERKNS0_13ConfigOptionsERKNSt7__cxx1112basic_stringIcSt11char_traitsIcESaIcEEESC_PvEZNS0_14OptionTypeInfo17AsCustomSharedPtrINS0_15MemoryAllocatorEEESF_iNS0_22OptionVerificationTypeENS0_15OptionTypeFlagsEEUlS4_SC_SC_SD_E_E10_M_managerERSt9_Any_dataRKSM_St18_Manager_operation, ptr %_M_manager, align 8
  br label %if.end

if.end:                                           ; preds = %if.then, %entry
  ret void
}

; Function Attrs: mustprogress uwtable
define linkonce_odr void @_ZN7rocksdb14OptionTypeInfoC2ERKS0_(ptr noundef nonnull align 8 dereferenceable(180) %this, ptr noundef nonnull align 8 dereferenceable(180) %0) unnamed_addr #1 comdat align 2 personality ptr @__gxx_personality_v0 {
entry:
  %this.addr = alloca ptr, align 8
  %.addr = alloca ptr, align 8
  %exn.slot = alloca ptr, align 8
  %ehselector.slot = alloca i32, align 4
  store ptr %this, ptr %this.addr, align 8
  store ptr %0, ptr %.addr, align 8
  %this1 = load ptr, ptr %this.addr, align 8
  %offset_ = getelementptr inbounds %"class.rocksdb::OptionTypeInfo", ptr %this1, i32 0, i32 0
  %1 = load ptr, ptr %.addr, align 8
  %offset_2 = getelementptr inbounds %"class.rocksdb::OptionTypeInfo", ptr %1, i32 0, i32 0
  %2 = load i32, ptr %offset_2, align 8
  store i32 %2, ptr %offset_, align 8
  %parse_func_ = getelementptr inbounds %"class.rocksdb::OptionTypeInfo", ptr %this1, i32 0, i32 2
  %3 = load ptr, ptr %.addr, align 8
  %parse_func_3 = getelementptr inbounds %"class.rocksdb::OptionTypeInfo", ptr %3, i32 0, i32 2
  call void @_ZNSt8functionIFN7rocksdb6StatusERKNS0_13ConfigOptionsERKNSt7__cxx1112basic_stringIcSt11char_traitsIcESaIcEEESC_PvEEC2ERKSF_(ptr noundef nonnull align 8 dereferenceable(32) %parse_func_, ptr noundef nonnull align 8 dereferenceable(32) %parse_func_3)
  %serialize_func_ = getelementptr inbounds %"class.rocksdb::OptionTypeInfo", ptr %this1, i32 0, i32 3
  %4 = load ptr, ptr %.addr, align 8
  %serialize_func_4 = getelementptr inbounds %"class.rocksdb::OptionTypeInfo", ptr %4, i32 0, i32 3
  invoke void @_ZNSt8functionIFN7rocksdb6StatusERKNS0_13ConfigOptionsERKNSt7__cxx1112basic_stringIcSt11char_traitsIcESaIcEEEPKvPSA_EEC2ERKSH_(ptr noundef nonnull align 8 dereferenceable(32) %serialize_func_, ptr noundef nonnull align 8 dereferenceable(32) %serialize_func_4)
          to label %invoke.cont unwind label %lpad

invoke.cont:                                      ; preds = %entry
  %equals_func_ = getelementptr inbounds %"class.rocksdb::OptionTypeInfo", ptr %this1, i32 0, i32 4
  %5 = load ptr, ptr %.addr, align 8
  %equals_func_5 = getelementptr inbounds %"class.rocksdb::OptionTypeInfo", ptr %5, i32 0, i32 4
  invoke void @_ZNSt8functionIFbRKN7rocksdb13ConfigOptionsERKNSt7__cxx1112basic_stringIcSt11char_traitsIcESaIcEEEPKvSD_PS9_EEC2ERKSG_(ptr noundef nonnull align 8 dereferenceable(32) %equals_func_, ptr noundef nonnull align 8 dereferenceable(32) %equals_func_5)
          to label %invoke.cont7 unwind label %lpad6

invoke.cont7:                                     ; preds = %invoke.cont
  %prepare_func_ = getelementptr inbounds %"class.rocksdb::OptionTypeInfo", ptr %this1, i32 0, i32 5
  %6 = load ptr, ptr %.addr, align 8
  %prepare_func_8 = getelementptr inbounds %"class.rocksdb::OptionTypeInfo", ptr %6, i32 0, i32 5
  invoke void @_ZNSt8functionIFN7rocksdb6StatusERKNS0_13ConfigOptionsERKNSt7__cxx1112basic_stringIcSt11char_traitsIcESaIcEEEPvEEC2ERKSF_(ptr noundef nonnull align 8 dereferenceable(32) %prepare_func_, ptr noundef nonnull align 8 dereferenceable(32) %prepare_func_8)
          to label %invoke.cont10 unwind label %lpad9

invoke.cont10:                                    ; preds = %invoke.cont7
  %validate_func_ = getelementptr inbounds %"class.rocksdb::OptionTypeInfo", ptr %this1, i32 0, i32 6
  %7 = load ptr, ptr %.addr, align 8
  %validate_func_11 = getelementptr inbounds %"class.rocksdb::OptionTypeInfo", ptr %7, i32 0, i32 6
  invoke void @_ZNSt8functionIFN7rocksdb6StatusERKNS0_9DBOptionsERKNS0_19ColumnFamilyOptionsERKNSt7__cxx1112basic_stringIcSt11char_traitsIcESaIcEEEPKvEEC2ERKSJ_(ptr noundef nonnull align 8 dereferenceable(32) %validate_func_, ptr noundef nonnull align 8 dereferenceable(32) %validate_func_11)
          to label %invoke.cont13 unwind label %lpad12

invoke.cont13:                                    ; preds = %invoke.cont10
  %type_ = getelementptr inbounds %"class.rocksdb::OptionTypeInfo", ptr %this1, i32 0, i32 7
  %8 = load ptr, ptr %.addr, align 8
  %type_14 = getelementptr inbounds %"class.rocksdb::OptionTypeInfo", ptr %8, i32 0, i32 7
  call void @llvm.memcpy.p0.p0.i64(ptr align 8 %type_, ptr align 8 %type_14, i64 12, i1 false)
  ret void

lpad:                                             ; preds = %entry
  %9 = landingpad { ptr, i32 }
          cleanup
  %10 = extractvalue { ptr, i32 } %9, 0
  store ptr %10, ptr %exn.slot, align 8
  %11 = extractvalue { ptr, i32 } %9, 1
  store i32 %11, ptr %ehselector.slot, align 4
  br label %ehcleanup16

lpad6:                                            ; preds = %invoke.cont
  %12 = landingpad { ptr, i32 }
          cleanup
  %13 = extractvalue { ptr, i32 } %12, 0
  store ptr %13, ptr %exn.slot, align 8
  %14 = extractvalue { ptr, i32 } %12, 1
  store i32 %14, ptr %ehselector.slot, align 4
  br label %ehcleanup15

lpad9:                                            ; preds = %invoke.cont7
  %15 = landingpad { ptr, i32 }
          cleanup
  %16 = extractvalue { ptr, i32 } %15, 0
  store ptr %16, ptr %exn.slot, align 8
  %17 = extractvalue { ptr, i32 } %15, 1
  store i32 %17, ptr %ehselector.slot, align 4
  br label %ehcleanup

lpad12:                                           ; preds = %invoke.cont10
  %18 = landingpad { ptr, i32 }
          cleanup
  %19 = extractvalue { ptr, i32 } %18, 0
  store ptr %19, ptr %exn.slot, align 8
  %20 = extractvalue { ptr, i32 } %18, 1
  store i32 %20, ptr %ehselector.slot, align 4
  call void @_ZNSt8functionIFN7rocksdb6StatusERKNS0_13ConfigOptionsERKNSt7__cxx1112basic_stringIcSt11char_traitsIcESaIcEEEPvEED2Ev(ptr noundef nonnull align 8 dereferenceable(32) %prepare_func_) #3
  br label %ehcleanup

ehcleanup:                                        ; preds = %lpad12, %lpad9
  call void @_ZNSt8functionIFbRKN7rocksdb13ConfigOptionsERKNSt7__cxx1112basic_stringIcSt11char_traitsIcESaIcEEEPKvSD_PS9_EED2Ev(ptr noundef nonnull align 8 dereferenceable(32) %equals_func_) #3
  br label %ehcleanup15

ehcleanup15:                                      ; preds = %ehcleanup, %lpad6
  call void @_ZNSt8functionIFN7rocksdb6StatusERKNS0_13ConfigOptionsERKNSt7__cxx1112basic_stringIcSt11char_traitsIcESaIcEEEPKvPSA_EED2Ev(ptr noundef nonnull align 8 dereferenceable(32) %serialize_func_) #3
  br label %ehcleanup16

ehcleanup16:                                      ; preds = %ehcleanup15, %lpad
  call void @_ZNSt8functionIFN7rocksdb6StatusERKNS0_13ConfigOptionsERKNSt7__cxx1112basic_stringIcSt11char_traitsIcESaIcEEESC_PvEED2Ev(ptr noundef nonnull align 8 dereferenceable(32) %parse_func_) #3
  br label %eh.resume

eh.resume:                                        ; preds = %ehcleanup16
  %exn = load ptr, ptr %exn.slot, align 8
  %sel = load i32, ptr %ehselector.slot, align 4
  %lpad.val = insertvalue { ptr, i32 } poison, ptr %exn, 0
  %lpad.val17 = insertvalue { ptr, i32 } %lpad.val, i32 %sel, 1
  resume { ptr, i32 } %lpad.val17
}

; Function Attrs: mustprogress nounwind uwtable
define linkonce_odr void @_ZNSt8functionIFN7rocksdb6StatusERKNS0_13ConfigOptionsERKNSt7__cxx1112basic_stringIcSt11char_traitsIcESaIcEEESC_PvEEC2EDn(ptr noundef nonnull align 8 dereferenceable(32) %this, ptr %0) unnamed_addr #2 comdat align 2 {
entry:
  %this.addr = alloca ptr, align 8
  %.addr = alloca ptr, align 8
  store ptr %this, ptr %this.addr, align 8
  store ptr %0, ptr %.addr, align 8
  %this1 = load ptr, ptr %this.addr, align 8
  %1 = getelementptr inbounds i8, ptr %this1, i64 0
  call void @llvm.memset.p0.i64(ptr align 8 %1, i8 0, i64 24, i1 false)
  call void @_ZNSt14_Function_baseC2Ev(ptr noundef nonnull align 8 dereferenceable(24) %this1) #3
  %_M_invoker = getelementptr inbounds %"class.std::function", ptr %this1, i32 0, i32 1
  store ptr null, ptr %_M_invoker, align 8
  ret void
}

; Function Attrs: mustprogress nounwind uwtable
define linkonce_odr void @_ZNSt8functionIFN7rocksdb6StatusERKNS0_13ConfigOptionsERKNSt7__cxx1112basic_stringIcSt11char_traitsIcESaIcEEEPKvPSA_EEC2EDn(ptr noundef nonnull align 8 dereferenceable(32) %this, ptr %0) unnamed_addr #2 comdat align 2 {
entry:
  %this.addr = alloca ptr, align 8
  %.addr = alloca ptr, align 8
  store ptr %this, ptr %this.addr, align 8
  store ptr %0, ptr %.addr, align 8
  %this1 = load ptr, ptr %this.addr, align 8
  %1 = getelementptr inbounds i8, ptr %this1, i64 0
  call void @llvm.memset.p0.i64(ptr align 8 %1, i8 0, i64 24, i1 false)
  call void @_ZNSt14_Function_baseC2Ev(ptr noundef nonnull align 8 dereferenceable(24) %this1) #3
  %_M_invoker = getelementptr inbounds %"class.std::function.5", ptr %this1, i32 0, i32 1
  store ptr null, ptr %_M_invoker, align 8
  ret void
}

; Function Attrs: mustprogress nounwind uwtable
define linkonce_odr void @_ZNSt8functionIFbRKN7rocksdb13ConfigOptionsERKNSt7__cxx1112basic_stringIcSt11char_traitsIcESaIcEEEPKvSD_PS9_EEC2EDn(ptr noundef nonnull align 8 dereferenceable(32) %this, ptr %0) unnamed_addr #2 comdat align 2 {
entry:
  %this.addr = alloca ptr, align 8
  %.addr = alloca ptr, align 8
  store ptr %this, ptr %this.addr, align 8
  store ptr %0, ptr %.addr, align 8
  %this1 = load ptr, ptr %this.addr, align 8
  %1 = getelementptr inbounds i8, ptr %this1, i64 0
  call void @llvm.memset.p0.i64(ptr align 8 %1, i8 0, i64 24, i1 false)
  call void @_ZNSt14_Function_baseC2Ev(ptr noundef nonnull align 8 dereferenceable(24) %this1) #3
  %_M_invoker = getelementptr inbounds %"class.std::function.7", ptr %this1, i32 0, i32 1
  store ptr null, ptr %_M_invoker, align 8
  ret void
}

; Function Attrs: mustprogress nounwind uwtable
define linkonce_odr void @_ZNSt8functionIFN7rocksdb6StatusERKNS0_13ConfigOptionsERKNSt7__cxx1112basic_stringIcSt11char_traitsIcESaIcEEEPvEEC2Ev(ptr noundef nonnull align 8 dereferenceable(32) %this) unnamed_addr #2 comdat align 2 {
entry:
  %this.addr = alloca ptr, align 8
  store ptr %this, ptr %this.addr, align 8
  %this1 = load ptr, ptr %this.addr, align 8
  %0 = getelementptr inbounds i8, ptr %this1, i64 0
  call void @llvm.memset.p0.i64(ptr align 8 %0, i8 0, i64 24, i1 false)
  call void @_ZNSt14_Function_baseC2Ev(ptr noundef nonnull align 8 dereferenceable(24) %this1) #3
  %_M_invoker = getelementptr inbounds %"class.std::function.9", ptr %this1, i32 0, i32 1
  store ptr null, ptr %_M_invoker, align 8
  ret void
}

; Function Attrs: mustprogress nounwind uwtable
define linkonce_odr void @_ZNSt8functionIFN7rocksdb6StatusERKNS0_9DBOptionsERKNS0_19ColumnFamilyOptionsERKNSt7__cxx1112basic_stringIcSt11char_traitsIcESaIcEEEPKvEEC2Ev(ptr noundef nonnull align 8 dereferenceable(32) %this) unnamed_addr #2 comdat align 2 {
entry:
  %this.addr = alloca ptr, align 8
  store ptr %this, ptr %this.addr, align 8
  %this1 = load ptr, ptr %this.addr, align 8
  %0 = getelementptr inbounds i8, ptr %this1, i64 0
  call void @llvm.memset.p0.i64(ptr align 8 %0, i8 0, i64 24, i1 false)
  call void @_ZNSt14_Function_baseC2Ev(ptr noundef nonnull align 8 dereferenceable(24) %this1) #3
  %_M_invoker = getelementptr inbounds %"class.std::function.11", ptr %this1, i32 0, i32 1
  store ptr null, ptr %_M_invoker, align 8
  ret void
}

; Function Attrs: mustprogress uwtable
define linkonce_odr noundef nonnull align 8 dereferenceable(32) ptr @_ZNSt8functionIFN7rocksdb6StatusERKNS0_13ConfigOptionsERKNSt7__cxx1112basic_stringIcSt11char_traitsIcESaIcEEESC_PvEEaSERKSF_(ptr noundef nonnull align 8 dereferenceable(32) %this, ptr noundef nonnull align 8 dereferenceable(32) %__x) #1 comdat align 2 {
entry:
  %this.addr = alloca ptr, align 8
  %__x.addr = alloca ptr, align 8
  %ref.tmp = alloca %"class.std::function", align 8
  store ptr %this, ptr %this.addr, align 8
  store ptr %__x, ptr %__x.addr, align 8
  %this1 = load ptr, ptr %this.addr, align 8
  %0 = load ptr, ptr %__x.addr, align 8
  call void @_ZNSt8functionIFN7rocksdb6StatusERKNS0_13ConfigOptionsERKNSt7__cxx1112basic_stringIcSt11char_traitsIcESaIcEEESC_PvEEC2ERKSF_(ptr noundef nonnull align 8 dereferenceable(32) %ref.tmp, ptr noundef nonnull align 8 dereferenceable(32) %0)
  call void @_ZNSt8functionIFN7rocksdb6StatusERKNS0_13ConfigOptionsERKNSt7__cxx1112basic_stringIcSt11char_traitsIcESaIcEEESC_PvEE4swapERSF_(ptr noundef nonnull align 8 dereferenceable(32) %ref.tmp, ptr noundef nonnull align 8 dereferenceable(32) %this1) #3
  call void @_ZNSt8functionIFN7rocksdb6StatusERKNS0_13ConfigOptionsERKNSt7__cxx1112basic_stringIcSt11char_traitsIcESaIcEEESC_PvEED2Ev(ptr noundef nonnull align 8 dereferenceable(32) %ref.tmp) #3
  ret ptr %this1
}

; Function Attrs: mustprogress uwtable
define linkonce_odr void @_ZNSt8functionIFN7rocksdb6StatusERKNS0_13ConfigOptionsERKNSt7__cxx1112basic_stringIcSt11char_traitsIcESaIcEEESC_PvEEC2ERKSF_(ptr noundef nonnull align 8 dereferenceable(32) %this, ptr noundef nonnull align 8 dereferenceable(32) %__x) unnamed_addr #1 comdat align 2 personality ptr @__gxx_personality_v0 {
entry:
  %this.addr = alloca ptr, align 8
  %__x.addr = alloca ptr, align 8
  %exn.slot = alloca ptr, align 8
  %ehselector.slot = alloca i32, align 4
  store ptr %this, ptr %this.addr, align 8
  store ptr %__x, ptr %__x.addr, align 8
  %this1 = load ptr, ptr %this.addr, align 8
  %0 = getelementptr inbounds i8, ptr %this1, i64 0
  call void @llvm.memset.p0.i64(ptr align 8 %0, i8 0, i64 24, i1 false)
  call void @_ZNSt14_Function_baseC2Ev(ptr noundef nonnull align 8 dereferenceable(24) %this1) #3
  %_M_invoker = getelementptr inbounds %"class.std::function", ptr %this1, i32 0, i32 1
  store ptr null, ptr %_M_invoker, align 8
  %1 = load ptr, ptr %__x.addr, align 8
  %call = call noundef zeroext i1 @_ZNKSt8functionIFN7rocksdb6StatusERKNS0_13ConfigOptionsERKNSt7__cxx1112basic_stringIcSt11char_traitsIcESaIcEEESC_PvEEcvbEv(ptr noundef nonnull align 8 dereferenceable(32) %1) #3
  br i1 %call, label %if.then, label %if.end

if.then:                                          ; preds = %entry
  %2 = load ptr, ptr %__x.addr, align 8
  %_M_manager = getelementptr inbounds %"class.std::_Function_base", ptr %2, i32 0, i32 1
  %3 = load ptr, ptr %_M_manager, align 8
  %_M_functor = getelementptr inbounds %"class.std::_Function_base", ptr %this1, i32 0, i32 0
  %4 = load ptr, ptr %__x.addr, align 8
  %_M_functor2 = getelementptr inbounds %"class.std::_Function_base", ptr %4, i32 0, i32 0
  %call3 = invoke noundef zeroext i1 %3(ptr noundef nonnull align 8 dereferenceable(16) %_M_functor, ptr noundef nonnull align 8 dereferenceable(16) %_M_functor2, i32 noundef 2)
          to label %invoke.cont unwind label %lpad

invoke.cont:                                      ; preds = %if.then
  %5 = load ptr, ptr %__x.addr, align 8
  %_M_invoker4 = getelementptr inbounds %"class.std::function", ptr %5, i32 0, i32 1
  %6 = load ptr, ptr %_M_invoker4, align 8
  %_M_invoker5 = getelementptr inbounds %"class.std::function", ptr %this1, i32 0, i32 1
  store ptr %6, ptr %_M_invoker5, align 8
  %7 = load ptr, ptr %__x.addr, align 8
  %_M_manager6 = getelementptr inbounds %"class.std::_Function_base", ptr %7, i32 0, i32 1
  %8 = load ptr, ptr %_M_manager6, align 8
  %_M_manager7 = getelementptr inbounds %"class.std::_Function_base", ptr %this1, i32 0, i32 1
  store ptr %8, ptr %_M_manager7, align 8
  br label %if.end

lpad:                                             ; preds = %if.then
  %9 = landingpad { ptr, i32 }
          cleanup
  %10 = extractvalue { ptr, i32 } %9, 0
  store ptr %10, ptr %exn.slot, align 8
  %11 = extractvalue { ptr, i32 } %9, 1
  store i32 %11, ptr %ehselector.slot, align 4
  call void @_ZNSt14_Function_baseD2Ev(ptr noundef nonnull align 8 dereferenceable(24) %this1) #3
  br label %eh.resume

if.end:                                           ; preds = %invoke.cont, %entry
  ret void

eh.resume:                                        ; preds = %lpad
  %exn = load ptr, ptr %exn.slot, align 8
  %sel = load i32, ptr %ehselector.slot, align 4
  %lpad.val = insertvalue { ptr, i32 } poison, ptr %exn, 0
  %lpad.val8 = insertvalue { ptr, i32 } %lpad.val, i32 %sel, 1
  resume { ptr, i32 } %lpad.val8
}

; Function Attrs: mustprogress nounwind uwtable
define linkonce_odr void @_ZNSt8functionIFN7rocksdb6StatusERKNS0_13ConfigOptionsERKNSt7__cxx1112basic_stringIcSt11char_traitsIcESaIcEEESC_PvEE4swapERSF_(ptr noundef nonnull align 8 dereferenceable(32) %this, ptr noundef nonnull align 8 dereferenceable(32) %__x) #2 comdat align 2 {
entry:
  %this.addr = alloca ptr, align 8
  %__x.addr = alloca ptr, align 8
  store ptr %this, ptr %this.addr, align 8
  store ptr %__x, ptr %__x.addr, align 8
  %this1 = load ptr, ptr %this.addr, align 8
  %_M_functor = getelementptr inbounds %"class.std::_Function_base", ptr %this1, i32 0, i32 0
  %0 = load ptr, ptr %__x.addr, align 8
  %_M_functor2 = getelementptr inbounds %"class.std::_Function_base", ptr %0, i32 0, i32 0
  call void @_ZSt4swapISt9_Any_dataENSt9enable_ifIXsr6__and_ISt6__not_ISt15__is_tuple_likeIT_EESt21is_move_constructibleIS4_ESt18is_move_assignableIS4_EEE5valueEvE4typeERS4_SD_(ptr noundef nonnull align 8 dereferenceable(16) %_M_functor, ptr noundef nonnull align 8 dereferenceable(16) %_M_functor2) #3
  %_M_manager = getelementptr inbounds %"class.std::_Function_base", ptr %this1, i32 0, i32 1
  %1 = load ptr, ptr %__x.addr, align 8
  %_M_manager3 = getelementptr inbounds %"class.std::_Function_base", ptr %1, i32 0, i32 1
  call void @_ZSt4swapIPFbRSt9_Any_dataRKS0_St18_Manager_operationEENSt9enable_ifIXsr6__and_ISt6__not_ISt15__is_tuple_likeIT_EESt21is_move_constructibleISA_ESt18is_move_assignableISA_EEE5valueEvE4typeERSA_SJ_(ptr noundef nonnull align 8 dereferenceable(8) %_M_manager, ptr noundef nonnull align 8 dereferenceable(8) %_M_manager3) #3
  %_M_invoker = getelementptr inbounds %"class.std::function", ptr %this1, i32 0, i32 1
  %2 = load ptr, ptr %__x.addr, align 8
  %_M_invoker4 = getelementptr inbounds %"class.std::function", ptr %2, i32 0, i32 1
  call void @_ZSt4swapIPFN7rocksdb6StatusERKSt9_Any_dataRKNS0_13ConfigOptionsERKNSt7__cxx1112basic_stringIcSt11char_traitsIcESaIcEEESF_OPvEENSt9enable_ifIXsr6__and_ISt6__not_ISt15__is_tuple_likeIT_EESt21is_move_constructibleISN_ESt18is_move_assignableISN_EEE5valueEvE4typeERSN_SW_(ptr noundef nonnull align 8 dereferenceable(8) %_M_invoker, ptr noundef nonnull align 8 dereferenceable(8) %_M_invoker4) #3
  ret void
}

; Function Attrs: mustprogress nounwind uwtable
define linkonce_odr void @_ZSt4swapISt9_Any_dataENSt9enable_ifIXsr6__and_ISt6__not_ISt15__is_tuple_likeIT_EESt21is_move_constructibleIS4_ESt18is_move_assignableIS4_EEE5valueEvE4typeERS4_SD_(ptr noundef nonnull align 8 dereferenceable(16) %__a, ptr noundef nonnull align 8 dereferenceable(16) %__b) #2 comdat {
entry:
  %__a.addr = alloca ptr, align 8
  %__b.addr = alloca ptr, align 8
  %__tmp = alloca %"union.std::_Any_data", align 8
  store ptr %__a, ptr %__a.addr, align 8
  store ptr %__b, ptr %__b.addr, align 8
  %0 = load ptr, ptr %__a.addr, align 8
  call void @llvm.memcpy.p0.p0.i64(ptr align 8 %__tmp, ptr align 8 %0, i64 16, i1 false)
  %1 = load ptr, ptr %__b.addr, align 8
  %2 = load ptr, ptr %__a.addr, align 8
  call void @llvm.memcpy.p0.p0.i64(ptr align 8 %2, ptr align 8 %1, i64 16, i1 false)
  %3 = load ptr, ptr %__b.addr, align 8
  call void @llvm.memcpy.p0.p0.i64(ptr align 8 %3, ptr align 8 %__tmp, i64 16, i1 false)
  ret void
}

; Function Attrs: mustprogress nounwind uwtable
define linkonce_odr void @_ZSt4swapIPFbRSt9_Any_dataRKS0_St18_Manager_operationEENSt9enable_ifIXsr6__and_ISt6__not_ISt15__is_tuple_likeIT_EESt21is_move_constructibleISA_ESt18is_move_assignableISA_EEE5valueEvE4typeERSA_SJ_(ptr noundef nonnull align 8 dereferenceable(8) %__a, ptr noundef nonnull align 8 dereferenceable(8) %__b) #2 comdat {
entry:
  %__a.addr = alloca ptr, align 8
  %__b.addr = alloca ptr, align 8
  %__tmp = alloca ptr, align 8
  store ptr %__a, ptr %__a.addr, align 8
  store ptr %__b, ptr %__b.addr, align 8
  %0 = load ptr, ptr %__a.addr, align 8
  %1 = load ptr, ptr %0, align 8
  store ptr %1, ptr %__tmp, align 8
  %2 = load ptr, ptr %__b.addr, align 8
  %3 = load ptr, ptr %2, align 8
  %4 = load ptr, ptr %__a.addr, align 8
  store ptr %3, ptr %4, align 8
  %5 = load ptr, ptr %__tmp, align 8
  %6 = load ptr, ptr %__b.addr, align 8
  store ptr %5, ptr %6, align 8
  ret void
}

; Function Attrs: mustprogress nounwind uwtable
define linkonce_odr void @_ZSt4swapIPFN7rocksdb6StatusERKSt9_Any_dataRKNS0_13ConfigOptionsERKNSt7__cxx1112basic_stringIcSt11char_traitsIcESaIcEEESF_OPvEENSt9enable_ifIXsr6__and_ISt6__not_ISt15__is_tuple_likeIT_EESt21is_move_constructibleISN_ESt18is_move_assignableISN_EEE5valueEvE4typeERSN_SW_(ptr noundef nonnull align 8 dereferenceable(8) %__a, ptr noundef nonnull align 8 dereferenceable(8) %__b) #2 comdat {
entry:
  %__a.addr = alloca ptr, align 8
  %__b.addr = alloca ptr, align 8
  %__tmp = alloca ptr, align 8
  store ptr %__a, ptr %__a.addr, align 8
  store ptr %__b, ptr %__b.addr, align 8
  %0 = load ptr, ptr %__a.addr, align 8
  %1 = load ptr, ptr %0, align 8
  store ptr %1, ptr %__tmp, align 8
  %2 = load ptr, ptr %__b.addr, align 8
  %3 = load ptr, ptr %2, align 8
  %4 = load ptr, ptr %__a.addr, align 8
  store ptr %3, ptr %4, align 8
  %5 = load ptr, ptr %__tmp, align 8
  %6 = load ptr, ptr %__b.addr, align 8
  store ptr %5, ptr %6, align 8
  ret void
}

; Function Attrs: mustprogress nounwind uwtable
define linkonce_odr noundef zeroext i1 @_ZNSt14_Function_base13_Base_managerIZN7rocksdb14OptionTypeInfo17AsCustomSharedPtrINS1_15MemoryAllocatorEEES2_iNS1_22OptionVerificationTypeENS1_15OptionTypeFlagsEEUlRKNS1_13ConfigOptionsERKNSt7__cxx1112basic_stringIcSt11char_traitsIcESaIcEEESH_PvE_E21_M_not_empty_functionISJ_EEbRKT_(ptr noundef nonnull align 1 dereferenceable(1) %0) #2 comdat align 2 {
entry:
  %.addr = alloca ptr, align 8
  store ptr %0, ptr %.addr, align 8
  ret i1 true
}

; Function Attrs: mustprogress nounwind uwtable
define linkonce_odr void @_ZNSt14_Function_base13_Base_managerIZN7rocksdb14OptionTypeInfo17AsCustomSharedPtrINS1_15MemoryAllocatorEEES2_iNS1_22OptionVerificationTypeENS1_15OptionTypeFlagsEEUlRKNS1_13ConfigOptionsERKNSt7__cxx1112basic_stringIcSt11char_traitsIcESaIcEEESH_PvE_E15_M_init_functorISJ_EEvRSt9_Any_dataOT_(ptr noundef nonnull align 8 dereferenceable(16) %__functor, ptr noundef nonnull align 1 dereferenceable(1) %__f) #2 comdat align 2 personality ptr @__gxx_personality_v0 {
entry:
  %__functor.addr = alloca ptr, align 8
  %__f.addr = alloca ptr, align 8
  store ptr %__functor, ptr %__functor.addr, align 8
  store ptr %__f, ptr %__f.addr, align 8
  %0 = load ptr, ptr %__functor.addr, align 8
  %1 = load ptr, ptr %__f.addr, align 8
  invoke void @_ZNSt14_Function_base13_Base_managerIZN7rocksdb14OptionTypeInfo17AsCustomSharedPtrINS1_15MemoryAllocatorEEES2_iNS1_22OptionVerificationTypeENS1_15OptionTypeFlagsEEUlRKNS1_13ConfigOptionsERKNSt7__cxx1112basic_stringIcSt11char_traitsIcESaIcEEESH_PvE_E9_M_createISJ_EEvRSt9_Any_dataOT_St17integral_constantIbLb1EE(ptr noundef nonnull align 8 dereferenceable(16) %0, ptr noundef nonnull align 1 dereferenceable(1) %1)
          to label %invoke.cont unwind label %terminate.lpad

invoke.cont:                                      ; preds = %entry
  ret void

terminate.lpad:                                   ; preds = %entry
  %2 = landingpad { ptr, i32 }
          catch ptr null
  %3 = extractvalue { ptr, i32 } %2, 0
  call void @__clang_call_terminate(ptr %3) #16
  unreachable
}

; Function Attrs: mustprogress uwtable
define linkonce_odr void @_ZNSt17_Function_handlerIFN7rocksdb6StatusERKNS0_13ConfigOptionsERKNSt7__cxx1112basic_stringIcSt11char_traitsIcESaIcEEESC_PvEZNS0_14OptionTypeInfo17AsCustomSharedPtrINS0_15MemoryAllocatorEEESF_iNS0_22OptionVerificationTypeENS0_15OptionTypeFlagsEEUlS4_SC_SC_SD_E_E9_M_invokeERKSt9_Any_dataS4_SC_SC_OSD_(ptr noalias sret(%"class.rocksdb::Status") align 8 %agg.result, ptr noundef nonnull align 8 dereferenceable(16) %__functor, ptr noundef nonnull align 8 dereferenceable(80) %__args, ptr noundef nonnull align 8 dereferenceable(32) %__args1, ptr noundef nonnull align 8 dereferenceable(32) %__args3, ptr noundef nonnull align 8 dereferenceable(8) %__args5) #1 comdat align 2 {
entry:
  %result.ptr = alloca ptr, align 8
  %__functor.addr = alloca ptr, align 8
  %__args.addr = alloca ptr, align 8
  %__args.addr2 = alloca ptr, align 8
  %__args.addr4 = alloca ptr, align 8
  %__args.addr6 = alloca ptr, align 8
  store ptr %agg.result, ptr %result.ptr, align 8
  store ptr %__functor, ptr %__functor.addr, align 8
  store ptr %__args, ptr %__args.addr, align 8
  store ptr %__args1, ptr %__args.addr2, align 8
  store ptr %__args3, ptr %__args.addr4, align 8
  store ptr %__args5, ptr %__args.addr6, align 8
  %0 = load ptr, ptr %__functor.addr, align 8
  %call = call noundef ptr @_ZNSt14_Function_base13_Base_managerIZN7rocksdb14OptionTypeInfo17AsCustomSharedPtrINS1_15MemoryAllocatorEEES2_iNS1_22OptionVerificationTypeENS1_15OptionTypeFlagsEEUlRKNS1_13ConfigOptionsERKNSt7__cxx1112basic_stringIcSt11char_traitsIcESaIcEEESH_PvE_E14_M_get_pointerERKSt9_Any_data(ptr noundef nonnull align 8 dereferenceable(16) %0) #3
  %1 = load ptr, ptr %__args.addr, align 8
  %2 = load ptr, ptr %__args.addr2, align 8
  %3 = load ptr, ptr %__args.addr4, align 8
  %4 = load ptr, ptr %__args.addr6, align 8
  call void @_ZSt10__invoke_rIN7rocksdb6StatusERZNS0_14OptionTypeInfo17AsCustomSharedPtrINS0_15MemoryAllocatorEEES2_iNS0_22OptionVerificationTypeENS0_15OptionTypeFlagsEEUlRKNS0_13ConfigOptionsERKNSt7__cxx1112basic_stringIcSt11char_traitsIcESaIcEEESH_PvE_JS9_SH_SH_SI_EENSt9enable_ifIX16is_invocable_r_vIT_T0_DpT1_EESM_E4typeEOSN_DpOSO_(ptr sret(%"class.rocksdb::Status") align 8 %agg.result, ptr noundef nonnull align 1 dereferenceable(1) %call, ptr noundef nonnull align 8 dereferenceable(80) %1, ptr noundef nonnull align 8 dereferenceable(32) %2, ptr noundef nonnull align 8 dereferenceable(32) %3, ptr noundef nonnull align 8 dereferenceable(8) %4)
  ret void
}

; Function Attrs: mustprogress uwtable
define linkonce_odr noundef zeroext i1 @_ZNSt17_Function_handlerIFN7rocksdb6StatusERKNS0_13ConfigOptionsERKNSt7__cxx1112basic_stringIcSt11char_traitsIcESaIcEEESC_PvEZNS0_14OptionTypeInfo17AsCustomSharedPtrINS0_15MemoryAllocatorEEESF_iNS0_22OptionVerificationTypeENS0_15OptionTypeFlagsEEUlS4_SC_SC_SD_E_E10_M_managerERSt9_Any_dataRKSM_St18_Manager_operation(ptr noundef nonnull align 8 dereferenceable(16) %__dest, ptr noundef nonnull align 8 dereferenceable(16) %__source, i32 noundef %__op) #1 comdat align 2 {
entry:
  %__dest.addr = alloca ptr, align 8
  %__source.addr = alloca ptr, align 8
  %__op.addr = alloca i32, align 4
  store ptr %__dest, ptr %__dest.addr, align 8
  store ptr %__source, ptr %__source.addr, align 8
  store i32 %__op, ptr %__op.addr, align 4
  %0 = load i32, ptr %__op.addr, align 4
  switch i32 %0, label %sw.default [
    i32 1, label %sw.bb
  ]

sw.bb:                                            ; preds = %entry
  %1 = load ptr, ptr %__source.addr, align 8
  %call = call noundef ptr @_ZNSt14_Function_base13_Base_managerIZN7rocksdb14OptionTypeInfo17AsCustomSharedPtrINS1_15MemoryAllocatorEEES2_iNS1_22OptionVerificationTypeENS1_15OptionTypeFlagsEEUlRKNS1_13ConfigOptionsERKNSt7__cxx1112basic_stringIcSt11char_traitsIcESaIcEEESH_PvE_E14_M_get_pointerERKSt9_Any_data(ptr noundef nonnull align 8 dereferenceable(16) %1) #3
  %2 = load ptr, ptr %__dest.addr, align 8
  %call1 = call noundef nonnull align 8 dereferenceable(8) ptr @_ZNSt9_Any_data9_M_accessIPZN7rocksdb14OptionTypeInfo17AsCustomSharedPtrINS1_15MemoryAllocatorEEES2_iNS1_22OptionVerificationTypeENS1_15OptionTypeFlagsEEUlRKNS1_13ConfigOptionsERKNSt7__cxx1112basic_stringIcSt11char_traitsIcESaIcEEESH_PvE_EERT_v(ptr noundef nonnull align 8 dereferenceable(16) %2) #3
  store ptr %call, ptr %call1, align 8
  br label %sw.epilog

sw.default:                                       ; preds = %entry
  %3 = load ptr, ptr %__dest.addr, align 8
  %4 = load ptr, ptr %__source.addr, align 8
  %5 = load i32, ptr %__op.addr, align 4
  %call2 = call noundef zeroext i1 @_ZNSt14_Function_base13_Base_managerIZN7rocksdb14OptionTypeInfo17AsCustomSharedPtrINS1_15MemoryAllocatorEEES2_iNS1_22OptionVerificationTypeENS1_15OptionTypeFlagsEEUlRKNS1_13ConfigOptionsERKNSt7__cxx1112basic_stringIcSt11char_traitsIcESaIcEEESH_PvE_E10_M_managerERSt9_Any_dataRKSL_St18_Manager_operation(ptr noundef nonnull align 8 dereferenceable(16) %3, ptr noundef nonnull align 8 dereferenceable(16) %4, i32 noundef %5)
  br label %sw.epilog

sw.epilog:                                        ; preds = %sw.default, %sw.bb
  ret i1 false
}

; Function Attrs: mustprogress nounwind uwtable
define linkonce_odr void @_ZNSt14_Function_base13_Base_managerIZN7rocksdb14OptionTypeInfo17AsCustomSharedPtrINS1_15MemoryAllocatorEEES2_iNS1_22OptionVerificationTypeENS1_15OptionTypeFlagsEEUlRKNS1_13ConfigOptionsERKNSt7__cxx1112basic_stringIcSt11char_traitsIcESaIcEEESH_PvE_E9_M_createISJ_EEvRSt9_Any_dataOT_St17integral_constantIbLb1EE(ptr noundef nonnull align 8 dereferenceable(16) %__dest, ptr noundef nonnull align 1 dereferenceable(1) %__f) #2 comdat align 2 {
entry:
  %__dest.addr = alloca ptr, align 8
  %__f.addr = alloca ptr, align 8
  store ptr %__dest, ptr %__dest.addr, align 8
  store ptr %__f, ptr %__f.addr, align 8
  %0 = load ptr, ptr %__dest.addr, align 8
  %call = call noundef ptr @_ZNSt9_Any_data9_M_accessEv(ptr noundef nonnull align 8 dereferenceable(16) %0) #3
  ret void
}

; Function Attrs: mustprogress nounwind uwtable
define linkonce_odr noundef ptr @_ZNSt9_Any_data9_M_accessEv(ptr noundef nonnull align 8 dereferenceable(16) %this) #2 comdat align 2 {
entry:
  %this.addr = alloca ptr, align 8
  store ptr %this, ptr %this.addr, align 8
  %this1 = load ptr, ptr %this.addr, align 8
  %arrayidx = getelementptr inbounds [16 x i8], ptr %this1, i64 0, i64 0
  ret ptr %arrayidx
}

; Function Attrs: mustprogress uwtable
define linkonce_odr void @_ZSt10__invoke_rIN7rocksdb6StatusERZNS0_14OptionTypeInfo17AsCustomSharedPtrINS0_15MemoryAllocatorEEES2_iNS0_22OptionVerificationTypeENS0_15OptionTypeFlagsEEUlRKNS0_13ConfigOptionsERKNSt7__cxx1112basic_stringIcSt11char_traitsIcESaIcEEESH_PvE_JS9_SH_SH_SI_EENSt9enable_ifIX16is_invocable_r_vIT_T0_DpT1_EESM_E4typeEOSN_DpOSO_(ptr noalias sret(%"class.rocksdb::Status") align 8 %agg.result, ptr noundef nonnull align 1 dereferenceable(1) %__fn, ptr noundef nonnull align 8 dereferenceable(80) %__args, ptr noundef nonnull align 8 dereferenceable(32) %__args1, ptr noundef nonnull align 8 dereferenceable(32) %__args3, ptr noundef nonnull align 8 dereferenceable(8) %__args5) #1 comdat {
entry:
  %result.ptr = alloca ptr, align 8
  %__fn.addr = alloca ptr, align 8
  %__args.addr = alloca ptr, align 8
  %__args.addr2 = alloca ptr, align 8
  %__args.addr4 = alloca ptr, align 8
  %__args.addr6 = alloca ptr, align 8
  store ptr %agg.result, ptr %result.ptr, align 8
  store ptr %__fn, ptr %__fn.addr, align 8
  store ptr %__args, ptr %__args.addr, align 8
  store ptr %__args1, ptr %__args.addr2, align 8
  store ptr %__args3, ptr %__args.addr4, align 8
  store ptr %__args5, ptr %__args.addr6, align 8
  %0 = load ptr, ptr %__fn.addr, align 8
  %1 = load ptr, ptr %__args.addr, align 8
  %2 = load ptr, ptr %__args.addr2, align 8
  %3 = load ptr, ptr %__args.addr4, align 8
  %4 = load ptr, ptr %__args.addr6, align 8
  call void @_ZSt13__invoke_implIN7rocksdb6StatusERZNS0_14OptionTypeInfo17AsCustomSharedPtrINS0_15MemoryAllocatorEEES2_iNS0_22OptionVerificationTypeENS0_15OptionTypeFlagsEEUlRKNS0_13ConfigOptionsERKNSt7__cxx1112basic_stringIcSt11char_traitsIcESaIcEEESH_PvE_JS9_SH_SH_SI_EET_St14__invoke_otherOT0_DpOT1_(ptr sret(%"class.rocksdb::Status") align 8 %agg.result, ptr noundef nonnull align 1 dereferenceable(1) %0, ptr noundef nonnull align 8 dereferenceable(80) %1, ptr noundef nonnull align 8 dereferenceable(32) %2, ptr noundef nonnull align 8 dereferenceable(32) %3, ptr noundef nonnull align 8 dereferenceable(8) %4)
  ret void
}

; Function Attrs: mustprogress nounwind uwtable
define linkonce_odr noundef ptr @_ZNSt14_Function_base13_Base_managerIZN7rocksdb14OptionTypeInfo17AsCustomSharedPtrINS1_15MemoryAllocatorEEES2_iNS1_22OptionVerificationTypeENS1_15OptionTypeFlagsEEUlRKNS1_13ConfigOptionsERKNSt7__cxx1112basic_stringIcSt11char_traitsIcESaIcEEESH_PvE_E14_M_get_pointerERKSt9_Any_data(ptr noundef nonnull align 8 dereferenceable(16) %__source) #2 comdat align 2 {
entry:
  %__source.addr = alloca ptr, align 8
  %__f = alloca ptr, align 8
  store ptr %__source, ptr %__source.addr, align 8
  %0 = load ptr, ptr %__source.addr, align 8
  %call = call noundef nonnull align 1 dereferenceable(1) ptr @_ZNKSt9_Any_data9_M_accessIZN7rocksdb14OptionTypeInfo17AsCustomSharedPtrINS1_15MemoryAllocatorEEES2_iNS1_22OptionVerificationTypeENS1_15OptionTypeFlagsEEUlRKNS1_13ConfigOptionsERKNSt7__cxx1112basic_stringIcSt11char_traitsIcESaIcEEESH_PvE_EERKT_v(ptr noundef nonnull align 8 dereferenceable(16) %0) #3
  store ptr %call, ptr %__f, align 8
  %1 = load ptr, ptr %__f, align 8
  ret ptr %1
}

; Function Attrs: mustprogress uwtable
define linkonce_odr void @_ZSt13__invoke_implIN7rocksdb6StatusERZNS0_14OptionTypeInfo17AsCustomSharedPtrINS0_15MemoryAllocatorEEES2_iNS0_22OptionVerificationTypeENS0_15OptionTypeFlagsEEUlRKNS0_13ConfigOptionsERKNSt7__cxx1112basic_stringIcSt11char_traitsIcESaIcEEESH_PvE_JS9_SH_SH_SI_EET_St14__invoke_otherOT0_DpOT1_(ptr noalias sret(%"class.rocksdb::Status") align 8 %agg.result, ptr noundef nonnull align 1 dereferenceable(1) %__f, ptr noundef nonnull align 8 dereferenceable(80) %__args, ptr noundef nonnull align 8 dereferenceable(32) %__args1, ptr noundef nonnull align 8 dereferenceable(32) %__args3, ptr noundef nonnull align 8 dereferenceable(8) %__args5) #1 comdat {
entry:
  %result.ptr = alloca ptr, align 8
  %__f.addr = alloca ptr, align 8
  %__args.addr = alloca ptr, align 8
  %__args.addr2 = alloca ptr, align 8
  %__args.addr4 = alloca ptr, align 8
  %__args.addr6 = alloca ptr, align 8
  store ptr %agg.result, ptr %result.ptr, align 8
  store ptr %__f, ptr %__f.addr, align 8
  store ptr %__args, ptr %__args.addr, align 8
  store ptr %__args1, ptr %__args.addr2, align 8
  store ptr %__args3, ptr %__args.addr4, align 8
  store ptr %__args5, ptr %__args.addr6, align 8
  %0 = load ptr, ptr %__f.addr, align 8
  %1 = load ptr, ptr %__args.addr, align 8
  %2 = load ptr, ptr %__args.addr2, align 8
  %3 = load ptr, ptr %__args.addr4, align 8
  %4 = load ptr, ptr %__args.addr6, align 8
  %5 = load ptr, ptr %4, align 8
  call void @_ZZN7rocksdb14OptionTypeInfo17AsCustomSharedPtrINS_15MemoryAllocatorEEES0_iNS_22OptionVerificationTypeENS_15OptionTypeFlagsEENKUlRKNS_13ConfigOptionsERKNSt7__cxx1112basic_stringIcSt11char_traitsIcESaIcEEESF_PvE_clES7_SF_SF_SG_(ptr sret(%"class.rocksdb::Status") align 8 %agg.result, ptr noundef nonnull align 1 dereferenceable(1) %0, ptr noundef nonnull align 8 dereferenceable(80) %1, ptr noundef nonnull align 8 dereferenceable(32) %2, ptr noundef nonnull align 8 dereferenceable(32) %3, ptr noundef %5)
  ret void
}

; Function Attrs: mustprogress uwtable
define linkonce_odr void @_ZZN7rocksdb14OptionTypeInfo17AsCustomSharedPtrINS_15MemoryAllocatorEEES0_iNS_22OptionVerificationTypeENS_15OptionTypeFlagsEENKUlRKNS_13ConfigOptionsERKNSt7__cxx1112basic_stringIcSt11char_traitsIcESaIcEEESF_PvE_clES7_SF_SF_SG_(ptr noalias sret(%"class.rocksdb::Status") align 8 %agg.result, ptr noundef nonnull align 1 dereferenceable(1) %this, ptr noundef nonnull align 8 dereferenceable(80) %opts, ptr noundef nonnull align 8 dereferenceable(32) %name, ptr noundef nonnull align 8 dereferenceable(32) %value, ptr noundef %addr) #1 comdat align 2 {
entry:
  %result.ptr = alloca ptr, align 8
  %this.addr = alloca ptr, align 8
  %opts.addr = alloca ptr, align 8
  %name.addr = alloca ptr, align 8
  %value.addr = alloca ptr, align 8
  %addr.addr = alloca ptr, align 8
  %shared = alloca ptr, align 8
  store ptr %agg.result, ptr %result.ptr, align 8
  store ptr %this, ptr %this.addr, align 8
  store ptr %opts, ptr %opts.addr, align 8
  store ptr %name, ptr %name.addr, align 8
  store ptr %value, ptr %value.addr, align 8
  store ptr %addr, ptr %addr.addr, align 8
  %0 = load ptr, ptr %addr.addr, align 8
  store ptr %0, ptr %shared, align 8
  %1 = load ptr, ptr %name.addr, align 8
  %call = call noundef ptr @_ZN7rocksdb14OptionTypeInfo11kIdPropNameEv()
  %call2 = call noundef zeroext i1 @_ZSteqIcSt11char_traitsIcESaIcEEbRKNSt7__cxx1112basic_stringIT_T0_T1_EEPKS5_(ptr noundef nonnull align 8 dereferenceable(32) %1, ptr noundef %call)
  br i1 %call2, label %land.lhs.true, label %if.else

land.lhs.true:                                    ; preds = %entry
  %2 = load ptr, ptr %value.addr, align 8
  %call3 = call noundef zeroext i1 @_ZNKSt7__cxx1112basic_stringIcSt11char_traitsIcESaIcEE5emptyEv(ptr noundef nonnull align 8 dereferenceable(32) %2) #3
  br i1 %call3, label %if.then, label %if.else

if.then:                                          ; preds = %land.lhs.true
  %3 = load ptr, ptr %shared, align 8
  call void @_ZNSt12__shared_ptrIN7rocksdb15MemoryAllocatorELN9__gnu_cxx12_Lock_policyE2EE5resetEv(ptr noundef nonnull align 8 dereferenceable(16) %3) #3
  call void @_ZN7rocksdb6Status2OKEv(ptr sret(%"class.rocksdb::Status") align 8 %agg.result)
  br label %return

if.else:                                          ; preds = %land.lhs.true, %entry
  %4 = load ptr, ptr %opts.addr, align 8
  %5 = load ptr, ptr %value.addr, align 8
  %6 = load ptr, ptr %shared, align 8
  call void @_ZN7rocksdb15MemoryAllocator16CreateFromStringERKNS_13ConfigOptionsERKNSt7__cxx1112basic_stringIcSt11char_traitsIcESaIcEEEPSt10shared_ptrIS0_E(ptr sret(%"class.rocksdb::Status") align 8 %agg.result, ptr noundef nonnull align 8 dereferenceable(80) %4, ptr noundef nonnull align 8 dereferenceable(32) %5, ptr noundef %6)
  br label %return

return:                                           ; preds = %if.else, %if.then
  ret void
}

; Function Attrs: mustprogress nounwind uwtable
define linkonce_odr noundef zeroext i1 @_ZSteqIcSt11char_traitsIcESaIcEEbRKNSt7__cxx1112basic_stringIT_T0_T1_EEPKS5_(ptr noundef nonnull align 8 dereferenceable(32) %__lhs, ptr noundef %__rhs) #2 comdat {
entry:
  %__lhs.addr = alloca ptr, align 8
  %__rhs.addr = alloca ptr, align 8
  store ptr %__lhs, ptr %__lhs.addr, align 8
  store ptr %__rhs, ptr %__rhs.addr, align 8
  %0 = load ptr, ptr %__lhs.addr, align 8
  %1 = load ptr, ptr %__rhs.addr, align 8
  %call = call noundef i32 @_ZNKSt7__cxx1112basic_stringIcSt11char_traitsIcESaIcEE7compareEPKc(ptr noundef nonnull align 8 dereferenceable(32) %0, ptr noundef %1) #3
  %cmp = icmp eq i32 %call, 0
  ret i1 %cmp
}

; Function Attrs: mustprogress nounwind uwtable
define linkonce_odr noundef ptr @_ZN7rocksdb14OptionTypeInfo11kIdPropNameEv() #2 comdat align 2 {
entry:
  ret ptr @.str.3
}

; Function Attrs: nounwind
declare noundef zeroext i1 @_ZNKSt7__cxx1112basic_stringIcSt11char_traitsIcESaIcEE5emptyEv(ptr noundef nonnull align 8 dereferenceable(32)) #5

; Function Attrs: mustprogress nounwind uwtable
define linkonce_odr void @_ZNSt12__shared_ptrIN7rocksdb15MemoryAllocatorELN9__gnu_cxx12_Lock_policyE2EE5resetEv(ptr noundef nonnull align 8 dereferenceable(16) %this) #2 comdat align 2 {
entry:
  %this.addr = alloca ptr, align 8
  %ref.tmp = alloca %"class.std::__shared_ptr", align 8
  store ptr %this, ptr %this.addr, align 8
  %this1 = load ptr, ptr %this.addr, align 8
  call void @_ZNSt12__shared_ptrIN7rocksdb15MemoryAllocatorELN9__gnu_cxx12_Lock_policyE2EEC2Ev(ptr noundef nonnull align 8 dereferenceable(16) %ref.tmp) #3
  call void @_ZNSt12__shared_ptrIN7rocksdb15MemoryAllocatorELN9__gnu_cxx12_Lock_policyE2EE4swapERS4_(ptr noundef nonnull align 8 dereferenceable(16) %ref.tmp, ptr noundef nonnull align 8 dereferenceable(16) %this1) #3
  call void @_ZNSt12__shared_ptrIN7rocksdb15MemoryAllocatorELN9__gnu_cxx12_Lock_policyE2EED2Ev(ptr noundef nonnull align 8 dereferenceable(16) %ref.tmp) #3
  ret void
}

; Function Attrs: mustprogress uwtable
define linkonce_odr void @_ZN7rocksdb6Status2OKEv(ptr noalias sret(%"class.rocksdb::Status") align 8 %agg.result) #1 comdat align 2 {
entry:
  %result.ptr = alloca ptr, align 8
  store ptr %agg.result, ptr %result.ptr, align 8
  call void @_ZN7rocksdb6StatusC2Ev(ptr noundef nonnull align 8 dereferenceable(16) %agg.result)
  ret void
}

; Function Attrs: nounwind
declare noundef i32 @_ZNKSt7__cxx1112basic_stringIcSt11char_traitsIcESaIcEE7compareEPKc(ptr noundef nonnull align 8 dereferenceable(32), ptr noundef) #5

; Function Attrs: mustprogress nounwind uwtable
define linkonce_odr void @_ZNSt12__shared_ptrIN7rocksdb15MemoryAllocatorELN9__gnu_cxx12_Lock_policyE2EEC2Ev(ptr noundef nonnull align 8 dereferenceable(16) %this) unnamed_addr #2 comdat align 2 {
entry:
  %this.addr = alloca ptr, align 8
  store ptr %this, ptr %this.addr, align 8
  %this1 = load ptr, ptr %this.addr, align 8
  %_M_ptr = getelementptr inbounds %"class.std::__shared_ptr", ptr %this1, i32 0, i32 0
  store ptr null, ptr %_M_ptr, align 8
  %_M_refcount = getelementptr inbounds %"class.std::__shared_ptr", ptr %this1, i32 0, i32 1
  call void @_ZNSt14__shared_countILN9__gnu_cxx12_Lock_policyE2EEC2Ev(ptr noundef nonnull align 8 dereferenceable(8) %_M_refcount) #3
  ret void
}

; Function Attrs: mustprogress nounwind uwtable
define linkonce_odr void @_ZNSt12__shared_ptrIN7rocksdb15MemoryAllocatorELN9__gnu_cxx12_Lock_policyE2EE4swapERS4_(ptr noundef nonnull align 8 dereferenceable(16) %this, ptr noundef nonnull align 8 dereferenceable(16) %__other) #2 comdat align 2 {
entry:
  %this.addr = alloca ptr, align 8
  %__other.addr = alloca ptr, align 8
  store ptr %this, ptr %this.addr, align 8
  store ptr %__other, ptr %__other.addr, align 8
  %this1 = load ptr, ptr %this.addr, align 8
  %_M_ptr = getelementptr inbounds %"class.std::__shared_ptr", ptr %this1, i32 0, i32 0
  %0 = load ptr, ptr %__other.addr, align 8
  %_M_ptr2 = getelementptr inbounds %"class.std::__shared_ptr", ptr %0, i32 0, i32 0
  call void @_ZSt4swapIPN7rocksdb15MemoryAllocatorEENSt9enable_ifIXsr6__and_ISt6__not_ISt15__is_tuple_likeIT_EESt21is_move_constructibleIS6_ESt18is_move_assignableIS6_EEE5valueEvE4typeERS6_SF_(ptr noundef nonnull align 8 dereferenceable(8) %_M_ptr, ptr noundef nonnull align 8 dereferenceable(8) %_M_ptr2) #3
  %_M_refcount = getelementptr inbounds %"class.std::__shared_ptr", ptr %this1, i32 0, i32 1
  %1 = load ptr, ptr %__other.addr, align 8
  %_M_refcount3 = getelementptr inbounds %"class.std::__shared_ptr", ptr %1, i32 0, i32 1
  call void @_ZNSt14__shared_countILN9__gnu_cxx12_Lock_policyE2EE7_M_swapERS2_(ptr noundef nonnull align 8 dereferenceable(8) %_M_refcount, ptr noundef nonnull align 8 dereferenceable(8) %_M_refcount3) #3
  ret void
}

; Function Attrs: mustprogress nounwind uwtable
define linkonce_odr void @_ZNSt12__shared_ptrIN7rocksdb15MemoryAllocatorELN9__gnu_cxx12_Lock_policyE2EED2Ev(ptr noundef nonnull align 8 dereferenceable(16) %this) unnamed_addr #2 comdat align 2 {
entry:
  %this.addr = alloca ptr, align 8
  store ptr %this, ptr %this.addr, align 8
  %this1 = load ptr, ptr %this.addr, align 8
  %_M_refcount = getelementptr inbounds %"class.std::__shared_ptr", ptr %this1, i32 0, i32 1
  call void @_ZNSt14__shared_countILN9__gnu_cxx12_Lock_policyE2EED2Ev(ptr noundef nonnull align 8 dereferenceable(8) %_M_refcount) #3
  ret void
}

; Function Attrs: mustprogress nounwind uwtable
define linkonce_odr void @_ZNSt14__shared_countILN9__gnu_cxx12_Lock_policyE2EEC2Ev(ptr noundef nonnull align 8 dereferenceable(8) %this) unnamed_addr #2 comdat align 2 {
entry:
  %this.addr = alloca ptr, align 8
  store ptr %this, ptr %this.addr, align 8
  %this1 = load ptr, ptr %this.addr, align 8
  %_M_pi = getelementptr inbounds %"class.std::__shared_count", ptr %this1, i32 0, i32 0
  store ptr null, ptr %_M_pi, align 8
  ret void
}

; Function Attrs: mustprogress nounwind uwtable
define linkonce_odr void @_ZSt4swapIPN7rocksdb15MemoryAllocatorEENSt9enable_ifIXsr6__and_ISt6__not_ISt15__is_tuple_likeIT_EESt21is_move_constructibleIS6_ESt18is_move_assignableIS6_EEE5valueEvE4typeERS6_SF_(ptr noundef nonnull align 8 dereferenceable(8) %__a, ptr noundef nonnull align 8 dereferenceable(8) %__b) #2 comdat {
entry:
  %__a.addr = alloca ptr, align 8
  %__b.addr = alloca ptr, align 8
  %__tmp = alloca ptr, align 8
  store ptr %__a, ptr %__a.addr, align 8
  store ptr %__b, ptr %__b.addr, align 8
  %0 = load ptr, ptr %__a.addr, align 8
  %1 = load ptr, ptr %0, align 8
  store ptr %1, ptr %__tmp, align 8
  %2 = load ptr, ptr %__b.addr, align 8
  %3 = load ptr, ptr %2, align 8
  %4 = load ptr, ptr %__a.addr, align 8
  store ptr %3, ptr %4, align 8
  %5 = load ptr, ptr %__tmp, align 8
  %6 = load ptr, ptr %__b.addr, align 8
  store ptr %5, ptr %6, align 8
  ret void
}

; Function Attrs: mustprogress nounwind uwtable
define linkonce_odr void @_ZNSt14__shared_countILN9__gnu_cxx12_Lock_policyE2EE7_M_swapERS2_(ptr noundef nonnull align 8 dereferenceable(8) %this, ptr noundef nonnull align 8 dereferenceable(8) %__r) #2 comdat align 2 {
entry:
  %this.addr = alloca ptr, align 8
  %__r.addr = alloca ptr, align 8
  %__tmp = alloca ptr, align 8
  store ptr %this, ptr %this.addr, align 8
  store ptr %__r, ptr %__r.addr, align 8
  %this1 = load ptr, ptr %this.addr, align 8
  %0 = load ptr, ptr %__r.addr, align 8
  %_M_pi = getelementptr inbounds %"class.std::__shared_count", ptr %0, i32 0, i32 0
  %1 = load ptr, ptr %_M_pi, align 8
  store ptr %1, ptr %__tmp, align 8
  %_M_pi2 = getelementptr inbounds %"class.std::__shared_count", ptr %this1, i32 0, i32 0
  %2 = load ptr, ptr %_M_pi2, align 8
  %3 = load ptr, ptr %__r.addr, align 8
  %_M_pi3 = getelementptr inbounds %"class.std::__shared_count", ptr %3, i32 0, i32 0
  store ptr %2, ptr %_M_pi3, align 8
  %4 = load ptr, ptr %__tmp, align 8
  %_M_pi4 = getelementptr inbounds %"class.std::__shared_count", ptr %this1, i32 0, i32 0
  store ptr %4, ptr %_M_pi4, align 8
  ret void
}

; Function Attrs: mustprogress nounwind uwtable
define linkonce_odr void @_ZN7rocksdb6StatusC2Ev(ptr noundef nonnull align 8 dereferenceable(16) %this) unnamed_addr #2 comdat align 2 {
entry:
  %this.addr = alloca ptr, align 8
  store ptr %this, ptr %this.addr, align 8
  %this1 = load ptr, ptr %this.addr, align 8
  %code_ = getelementptr inbounds %"class.rocksdb::Status", ptr %this1, i32 0, i32 0
  store i8 0, ptr %code_, align 8
  %subcode_ = getelementptr inbounds %"class.rocksdb::Status", ptr %this1, i32 0, i32 1
  store i8 0, ptr %subcode_, align 1
  %sev_ = getelementptr inbounds %"class.rocksdb::Status", ptr %this1, i32 0, i32 2
  store i8 0, ptr %sev_, align 2
  %retryable_ = getelementptr inbounds %"class.rocksdb::Status", ptr %this1, i32 0, i32 3
  store i8 0, ptr %retryable_, align 1
  %data_loss_ = getelementptr inbounds %"class.rocksdb::Status", ptr %this1, i32 0, i32 4
  store i8 0, ptr %data_loss_, align 4
  %scope_ = getelementptr inbounds %"class.rocksdb::Status", ptr %this1, i32 0, i32 5
  store i8 0, ptr %scope_, align 1
  %state_ = getelementptr inbounds %"class.rocksdb::Status", ptr %this1, i32 0, i32 6
  call void @_ZNSt10unique_ptrIA_KcSt14default_deleteIS1_EEC2IS3_vEEDn(ptr noundef nonnull align 8 dereferenceable(8) %state_, ptr null) #3
  ret void
}

; Function Attrs: mustprogress nounwind uwtable
define linkonce_odr void @_ZNSt10unique_ptrIA_KcSt14default_deleteIS1_EEC2IS3_vEEDn(ptr noundef nonnull align 8 dereferenceable(8) %this, ptr %0) unnamed_addr #2 comdat align 2 {
entry:
  %this.addr = alloca ptr, align 8
  %.addr = alloca ptr, align 8
  store ptr %this, ptr %this.addr, align 8
  store ptr %0, ptr %.addr, align 8
  %this1 = load ptr, ptr %this.addr, align 8
  %_M_t = getelementptr inbounds %"class.std::unique_ptr", ptr %this1, i32 0, i32 0
  call void @llvm.memset.p0.i64(ptr align 8 %_M_t, i8 0, i64 8, i1 false)
  call void @_ZNSt15__uniq_ptr_dataIKcSt14default_deleteIA_S0_ELb1ELb1EEC2Ev(ptr noundef nonnull align 8 dereferenceable(8) %_M_t) #3
  ret void
}

; Function Attrs: mustprogress nounwind uwtable
define linkonce_odr void @_ZNSt15__uniq_ptr_dataIKcSt14default_deleteIA_S0_ELb1ELb1EEC2Ev(ptr noundef nonnull align 8 dereferenceable(8) %this) unnamed_addr #2 comdat align 2 {
entry:
  %this.addr = alloca ptr, align 8
  store ptr %this, ptr %this.addr, align 8
  %this1 = load ptr, ptr %this.addr, align 8
  call void @_ZNSt15__uniq_ptr_implIKcSt14default_deleteIA_S0_EEC2Ev(ptr noundef nonnull align 8 dereferenceable(8) %this1) #3
  ret void
}

; Function Attrs: mustprogress nounwind uwtable
define linkonce_odr void @_ZNSt15__uniq_ptr_implIKcSt14default_deleteIA_S0_EEC2Ev(ptr noundef nonnull align 8 dereferenceable(8) %this) unnamed_addr #2 comdat align 2 {
entry:
  %this.addr = alloca ptr, align 8
  store ptr %this, ptr %this.addr, align 8
  %this1 = load ptr, ptr %this.addr, align 8
  %_M_t = getelementptr inbounds %"class.std::__uniq_ptr_impl", ptr %this1, i32 0, i32 0
  call void @_ZNSt5tupleIJPKcSt14default_deleteIA_S0_EEEC2ILb1ETnNSt9enable_ifIXclsr17_TupleConstraintsIXT_ES1_S4_EE37__is_implicitly_default_constructibleEEbE4typeELb1EEEv(ptr noundef nonnull align 8 dereferenceable(8) %_M_t) #3
  ret void
}

; Function Attrs: mustprogress nounwind uwtable
define linkonce_odr void @_ZNSt5tupleIJPKcSt14default_deleteIA_S0_EEEC2ILb1ETnNSt9enable_ifIXclsr17_TupleConstraintsIXT_ES1_S4_EE37__is_implicitly_default_constructibleEEbE4typeELb1EEEv(ptr noundef nonnull align 8 dereferenceable(8) %this) unnamed_addr #2 comdat align 2 personality ptr @__gxx_personality_v0 {
entry:
  %this.addr = alloca ptr, align 8
  store ptr %this, ptr %this.addr, align 8
  %this1 = load ptr, ptr %this.addr, align 8
  invoke void @_ZNSt11_Tuple_implILm0EJPKcSt14default_deleteIA_S0_EEEC2Ev(ptr noundef nonnull align 8 dereferenceable(8) %this1)
          to label %invoke.cont unwind label %terminate.lpad

invoke.cont:                                      ; preds = %entry
  ret void

terminate.lpad:                                   ; preds = %entry
  %0 = landingpad { ptr, i32 }
          catch ptr null
  %1 = extractvalue { ptr, i32 } %0, 0
  call void @__clang_call_terminate(ptr %1) #16
  unreachable
}

; Function Attrs: mustprogress uwtable
define linkonce_odr void @_ZNSt11_Tuple_implILm0EJPKcSt14default_deleteIA_S0_EEEC2Ev(ptr noundef nonnull align 8 dereferenceable(8) %this) unnamed_addr #1 comdat align 2 {
entry:
  %this.addr = alloca ptr, align 8
  store ptr %this, ptr %this.addr, align 8
  %this1 = load ptr, ptr %this.addr, align 8
  call void @_ZNSt11_Tuple_implILm1EJSt14default_deleteIA_KcEEEC2Ev(ptr noundef nonnull align 1 dereferenceable(1) %this1)
  call void @_ZNSt10_Head_baseILm0EPKcLb0EEC2Ev(ptr noundef nonnull align 8 dereferenceable(8) %this1)
  ret void
}

; Function Attrs: mustprogress uwtable
define linkonce_odr void @_ZNSt11_Tuple_implILm1EJSt14default_deleteIA_KcEEEC2Ev(ptr noundef nonnull align 1 dereferenceable(1) %this) unnamed_addr #1 comdat align 2 {
entry:
  %this.addr = alloca ptr, align 8
  store ptr %this, ptr %this.addr, align 8
  %this1 = load ptr, ptr %this.addr, align 8
  call void @_ZNSt10_Head_baseILm1ESt14default_deleteIA_KcELb1EEC2Ev(ptr noundef nonnull align 1 dereferenceable(1) %this1)
  ret void
}

; Function Attrs: mustprogress nounwind uwtable
define linkonce_odr void @_ZNSt10_Head_baseILm0EPKcLb0EEC2Ev(ptr noundef nonnull align 8 dereferenceable(8) %this) unnamed_addr #2 comdat align 2 {
entry:
  %this.addr = alloca ptr, align 8
  store ptr %this, ptr %this.addr, align 8
  %this1 = load ptr, ptr %this.addr, align 8
  %_M_head_impl = getelementptr inbounds %"struct.std::_Head_base.20", ptr %this1, i32 0, i32 0
  store ptr null, ptr %_M_head_impl, align 8
  ret void
}

; Function Attrs: mustprogress nounwind uwtable
define linkonce_odr void @_ZNSt10_Head_baseILm1ESt14default_deleteIA_KcELb1EEC2Ev(ptr noundef nonnull align 1 dereferenceable(1) %this) unnamed_addr #2 comdat align 2 {
entry:
  %this.addr = alloca ptr, align 8
  store ptr %this, ptr %this.addr, align 8
  ret void
}

; Function Attrs: mustprogress nounwind uwtable
define linkonce_odr noundef nonnull align 1 dereferenceable(1) ptr @_ZNKSt9_Any_data9_M_accessIZN7rocksdb14OptionTypeInfo17AsCustomSharedPtrINS1_15MemoryAllocatorEEES2_iNS1_22OptionVerificationTypeENS1_15OptionTypeFlagsEEUlRKNS1_13ConfigOptionsERKNSt7__cxx1112basic_stringIcSt11char_traitsIcESaIcEEESH_PvE_EERKT_v(ptr noundef nonnull align 8 dereferenceable(16) %this) #2 comdat align 2 {
entry:
  %this.addr = alloca ptr, align 8
  store ptr %this, ptr %this.addr, align 8
  %this1 = load ptr, ptr %this.addr, align 8
  %call = call noundef ptr @_ZNKSt9_Any_data9_M_accessEv(ptr noundef nonnull align 8 dereferenceable(16) %this1) #3
  ret ptr %call
}

; Function Attrs: mustprogress nounwind uwtable
define linkonce_odr noundef ptr @_ZNKSt9_Any_data9_M_accessEv(ptr noundef nonnull align 8 dereferenceable(16) %this) #2 comdat align 2 {
entry:
  %this.addr = alloca ptr, align 8
  store ptr %this, ptr %this.addr, align 8
  %this1 = load ptr, ptr %this.addr, align 8
  %arrayidx = getelementptr inbounds [16 x i8], ptr %this1, i64 0, i64 0
  ret ptr %arrayidx
}

; Function Attrs: mustprogress nounwind uwtable
define linkonce_odr noundef nonnull align 8 dereferenceable(8) ptr @_ZNSt9_Any_data9_M_accessIPZN7rocksdb14OptionTypeInfo17AsCustomSharedPtrINS1_15MemoryAllocatorEEES2_iNS1_22OptionVerificationTypeENS1_15OptionTypeFlagsEEUlRKNS1_13ConfigOptionsERKNSt7__cxx1112basic_stringIcSt11char_traitsIcESaIcEEESH_PvE_EERT_v(ptr noundef nonnull align 8 dereferenceable(16) %this) #2 comdat align 2 {
entry:
  %this.addr = alloca ptr, align 8
  store ptr %this, ptr %this.addr, align 8
  %this1 = load ptr, ptr %this.addr, align 8
  %call = call noundef ptr @_ZNSt9_Any_data9_M_accessEv(ptr noundef nonnull align 8 dereferenceable(16) %this1) #3
  ret ptr %call
}

; Function Attrs: mustprogress uwtable
define linkonce_odr noundef zeroext i1 @_ZNSt14_Function_base13_Base_managerIZN7rocksdb14OptionTypeInfo17AsCustomSharedPtrINS1_15MemoryAllocatorEEES2_iNS1_22OptionVerificationTypeENS1_15OptionTypeFlagsEEUlRKNS1_13ConfigOptionsERKNSt7__cxx1112basic_stringIcSt11char_traitsIcESaIcEEESH_PvE_E10_M_managerERSt9_Any_dataRKSL_St18_Manager_operation(ptr noundef nonnull align 8 dereferenceable(16) %__dest, ptr noundef nonnull align 8 dereferenceable(16) %__source, i32 noundef %__op) #1 comdat align 2 {
entry:
  %__dest.addr = alloca ptr, align 8
  %__source.addr = alloca ptr, align 8
  %__op.addr = alloca i32, align 4
  store ptr %__dest, ptr %__dest.addr, align 8
  store ptr %__source, ptr %__source.addr, align 8
  store i32 %__op, ptr %__op.addr, align 4
  %0 = load i32, ptr %__op.addr, align 4
  switch i32 %0, label %sw.epilog [
    i32 0, label %sw.bb
    i32 1, label %sw.bb1
    i32 2, label %sw.bb4
    i32 3, label %sw.bb6
  ]

sw.bb:                                            ; preds = %entry
  %1 = load ptr, ptr %__dest.addr, align 8
  %call = call noundef nonnull align 8 dereferenceable(8) ptr @_ZNSt9_Any_data9_M_accessIPKSt9type_infoEERT_v(ptr noundef nonnull align 8 dereferenceable(16) %1) #3
  store ptr null, ptr %call, align 8
  br label %sw.epilog

sw.bb1:                                           ; preds = %entry
  %2 = load ptr, ptr %__source.addr, align 8
  %call2 = call noundef ptr @_ZNSt14_Function_base13_Base_managerIZN7rocksdb14OptionTypeInfo17AsCustomSharedPtrINS1_15MemoryAllocatorEEES2_iNS1_22OptionVerificationTypeENS1_15OptionTypeFlagsEEUlRKNS1_13ConfigOptionsERKNSt7__cxx1112basic_stringIcSt11char_traitsIcESaIcEEESH_PvE_E14_M_get_pointerERKSt9_Any_data(ptr noundef nonnull align 8 dereferenceable(16) %2) #3
  %3 = load ptr, ptr %__dest.addr, align 8
  %call3 = call noundef nonnull align 8 dereferenceable(8) ptr @_ZNSt9_Any_data9_M_accessIPZN7rocksdb14OptionTypeInfo17AsCustomSharedPtrINS1_15MemoryAllocatorEEES2_iNS1_22OptionVerificationTypeENS1_15OptionTypeFlagsEEUlRKNS1_13ConfigOptionsERKNSt7__cxx1112basic_stringIcSt11char_traitsIcESaIcEEESH_PvE_EERT_v(ptr noundef nonnull align 8 dereferenceable(16) %3) #3
  store ptr %call2, ptr %call3, align 8
  br label %sw.epilog

sw.bb4:                                           ; preds = %entry
  %4 = load ptr, ptr %__dest.addr, align 8
  %5 = load ptr, ptr %__source.addr, align 8
  %call5 = call noundef ptr @_ZNSt14_Function_base13_Base_managerIZN7rocksdb14OptionTypeInfo17AsCustomSharedPtrINS1_15MemoryAllocatorEEES2_iNS1_22OptionVerificationTypeENS1_15OptionTypeFlagsEEUlRKNS1_13ConfigOptionsERKNSt7__cxx1112basic_stringIcSt11char_traitsIcESaIcEEESH_PvE_E14_M_get_pointerERKSt9_Any_data(ptr noundef nonnull align 8 dereferenceable(16) %5) #3
  call void @_ZNSt14_Function_base13_Base_managerIZN7rocksdb14OptionTypeInfo17AsCustomSharedPtrINS1_15MemoryAllocatorEEES2_iNS1_22OptionVerificationTypeENS1_15OptionTypeFlagsEEUlRKNS1_13ConfigOptionsERKNSt7__cxx1112basic_stringIcSt11char_traitsIcESaIcEEESH_PvE_E15_M_init_functorIRKSJ_EEvRSt9_Any_dataOT_(ptr noundef nonnull align 8 dereferenceable(16) %4, ptr noundef nonnull align 1 dereferenceable(1) %call5) #3
  br label %sw.epilog

sw.bb6:                                           ; preds = %entry
  %6 = load ptr, ptr %__dest.addr, align 8
  call void @_ZNSt14_Function_base13_Base_managerIZN7rocksdb14OptionTypeInfo17AsCustomSharedPtrINS1_15MemoryAllocatorEEES2_iNS1_22OptionVerificationTypeENS1_15OptionTypeFlagsEEUlRKNS1_13ConfigOptionsERKNSt7__cxx1112basic_stringIcSt11char_traitsIcESaIcEEESH_PvE_E10_M_destroyERSt9_Any_dataSt17integral_constantIbLb1EE(ptr noundef nonnull align 8 dereferenceable(16) %6)
  br label %sw.epilog

sw.epilog:                                        ; preds = %sw.bb6, %sw.bb4, %sw.bb1, %sw.bb, %entry
  ret i1 false
}

; Function Attrs: mustprogress nounwind uwtable
define linkonce_odr noundef nonnull align 8 dereferenceable(8) ptr @_ZNSt9_Any_data9_M_accessIPKSt9type_infoEERT_v(ptr noundef nonnull align 8 dereferenceable(16) %this) #2 comdat align 2 {
entry:
  %this.addr = alloca ptr, align 8
  store ptr %this, ptr %this.addr, align 8
  %this1 = load ptr, ptr %this.addr, align 8
  %call = call noundef ptr @_ZNSt9_Any_data9_M_accessEv(ptr noundef nonnull align 8 dereferenceable(16) %this1) #3
  ret ptr %call
}

; Function Attrs: mustprogress nounwind uwtable
define linkonce_odr void @_ZNSt14_Function_base13_Base_managerIZN7rocksdb14OptionTypeInfo17AsCustomSharedPtrINS1_15MemoryAllocatorEEES2_iNS1_22OptionVerificationTypeENS1_15OptionTypeFlagsEEUlRKNS1_13ConfigOptionsERKNSt7__cxx1112basic_stringIcSt11char_traitsIcESaIcEEESH_PvE_E15_M_init_functorIRKSJ_EEvRSt9_Any_dataOT_(ptr noundef nonnull align 8 dereferenceable(16) %__functor, ptr noundef nonnull align 1 dereferenceable(1) %__f) #2 comdat align 2 personality ptr @__gxx_personality_v0 {
entry:
  %__functor.addr = alloca ptr, align 8
  %__f.addr = alloca ptr, align 8
  store ptr %__functor, ptr %__functor.addr, align 8
  store ptr %__f, ptr %__f.addr, align 8
  %0 = load ptr, ptr %__functor.addr, align 8
  %1 = load ptr, ptr %__f.addr, align 8
  invoke void @_ZNSt14_Function_base13_Base_managerIZN7rocksdb14OptionTypeInfo17AsCustomSharedPtrINS1_15MemoryAllocatorEEES2_iNS1_22OptionVerificationTypeENS1_15OptionTypeFlagsEEUlRKNS1_13ConfigOptionsERKNSt7__cxx1112basic_stringIcSt11char_traitsIcESaIcEEESH_PvE_E9_M_createIRKSJ_EEvRSt9_Any_dataOT_St17integral_constantIbLb1EE(ptr noundef nonnull align 8 dereferenceable(16) %0, ptr noundef nonnull align 1 dereferenceable(1) %1)
          to label %invoke.cont unwind label %terminate.lpad

invoke.cont:                                      ; preds = %entry
  ret void

terminate.lpad:                                   ; preds = %entry
  %2 = landingpad { ptr, i32 }
          catch ptr null
  %3 = extractvalue { ptr, i32 } %2, 0
  call void @__clang_call_terminate(ptr %3) #16
  unreachable
}

; Function Attrs: mustprogress nounwind uwtable
define linkonce_odr void @_ZNSt14_Function_base13_Base_managerIZN7rocksdb14OptionTypeInfo17AsCustomSharedPtrINS1_15MemoryAllocatorEEES2_iNS1_22OptionVerificationTypeENS1_15OptionTypeFlagsEEUlRKNS1_13ConfigOptionsERKNSt7__cxx1112basic_stringIcSt11char_traitsIcESaIcEEESH_PvE_E10_M_destroyERSt9_Any_dataSt17integral_constantIbLb1EE(ptr noundef nonnull align 8 dereferenceable(16) %__victim) #2 comdat align 2 {
entry:
  %__victim.addr = alloca ptr, align 8
  store ptr %__victim, ptr %__victim.addr, align 8
  %0 = load ptr, ptr %__victim.addr, align 8
  %call = call noundef nonnull align 1 dereferenceable(1) ptr @_ZNSt9_Any_data9_M_accessIZN7rocksdb14OptionTypeInfo17AsCustomSharedPtrINS1_15MemoryAllocatorEEES2_iNS1_22OptionVerificationTypeENS1_15OptionTypeFlagsEEUlRKNS1_13ConfigOptionsERKNSt7__cxx1112basic_stringIcSt11char_traitsIcESaIcEEESH_PvE_EERT_v(ptr noundef nonnull align 8 dereferenceable(16) %0) #3
  ret void
}

; Function Attrs: mustprogress nounwind uwtable
define linkonce_odr void @_ZNSt14_Function_base13_Base_managerIZN7rocksdb14OptionTypeInfo17AsCustomSharedPtrINS1_15MemoryAllocatorEEES2_iNS1_22OptionVerificationTypeENS1_15OptionTypeFlagsEEUlRKNS1_13ConfigOptionsERKNSt7__cxx1112basic_stringIcSt11char_traitsIcESaIcEEESH_PvE_E9_M_createIRKSJ_EEvRSt9_Any_dataOT_St17integral_constantIbLb1EE(ptr noundef nonnull align 8 dereferenceable(16) %__dest, ptr noundef nonnull align 1 dereferenceable(1) %__f) #2 comdat align 2 {
entry:
  %__dest.addr = alloca ptr, align 8
  %__f.addr = alloca ptr, align 8
  store ptr %__dest, ptr %__dest.addr, align 8
  store ptr %__f, ptr %__f.addr, align 8
  %0 = load ptr, ptr %__dest.addr, align 8
  %call = call noundef ptr @_ZNSt9_Any_data9_M_accessEv(ptr noundef nonnull align 8 dereferenceable(16) %0) #3
  ret void
}

; Function Attrs: mustprogress nounwind uwtable
define linkonce_odr noundef nonnull align 1 dereferenceable(1) ptr @_ZNSt9_Any_data9_M_accessIZN7rocksdb14OptionTypeInfo17AsCustomSharedPtrINS1_15MemoryAllocatorEEES2_iNS1_22OptionVerificationTypeENS1_15OptionTypeFlagsEEUlRKNS1_13ConfigOptionsERKNSt7__cxx1112basic_stringIcSt11char_traitsIcESaIcEEESH_PvE_EERT_v(ptr noundef nonnull align 8 dereferenceable(16) %this) #2 comdat align 2 {
entry:
  %this.addr = alloca ptr, align 8
  store ptr %this, ptr %this.addr, align 8
  %this1 = load ptr, ptr %this.addr, align 8
  %call = call noundef ptr @_ZNSt9_Any_data9_M_accessEv(ptr noundef nonnull align 8 dereferenceable(16) %this1) #3
  ret ptr %call
}

; Function Attrs: mustprogress uwtable
define linkonce_odr void @_ZNSt8functionIFN7rocksdb6StatusERKNS0_13ConfigOptionsERKNSt7__cxx1112basic_stringIcSt11char_traitsIcESaIcEEEPKvPSA_EEC2ERKSH_(ptr noundef nonnull align 8 dereferenceable(32) %this, ptr noundef nonnull align 8 dereferenceable(32) %__x) unnamed_addr #1 comdat align 2 personality ptr @__gxx_personality_v0 {
entry:
  %this.addr = alloca ptr, align 8
  %__x.addr = alloca ptr, align 8
  %exn.slot = alloca ptr, align 8
  %ehselector.slot = alloca i32, align 4
  store ptr %this, ptr %this.addr, align 8
  store ptr %__x, ptr %__x.addr, align 8
  %this1 = load ptr, ptr %this.addr, align 8
  %0 = getelementptr inbounds i8, ptr %this1, i64 0
  call void @llvm.memset.p0.i64(ptr align 8 %0, i8 0, i64 24, i1 false)
  call void @_ZNSt14_Function_baseC2Ev(ptr noundef nonnull align 8 dereferenceable(24) %this1) #3
  %_M_invoker = getelementptr inbounds %"class.std::function.5", ptr %this1, i32 0, i32 1
  store ptr null, ptr %_M_invoker, align 8
  %1 = load ptr, ptr %__x.addr, align 8
  %call = call noundef zeroext i1 @_ZNKSt8functionIFN7rocksdb6StatusERKNS0_13ConfigOptionsERKNSt7__cxx1112basic_stringIcSt11char_traitsIcESaIcEEEPKvPSA_EEcvbEv(ptr noundef nonnull align 8 dereferenceable(32) %1) #3
  br i1 %call, label %if.then, label %if.end

if.then:                                          ; preds = %entry
  %2 = load ptr, ptr %__x.addr, align 8
  %_M_manager = getelementptr inbounds %"class.std::_Function_base", ptr %2, i32 0, i32 1
  %3 = load ptr, ptr %_M_manager, align 8
  %_M_functor = getelementptr inbounds %"class.std::_Function_base", ptr %this1, i32 0, i32 0
  %4 = load ptr, ptr %__x.addr, align 8
  %_M_functor2 = getelementptr inbounds %"class.std::_Function_base", ptr %4, i32 0, i32 0
  %call3 = invoke noundef zeroext i1 %3(ptr noundef nonnull align 8 dereferenceable(16) %_M_functor, ptr noundef nonnull align 8 dereferenceable(16) %_M_functor2, i32 noundef 2)
          to label %invoke.cont unwind label %lpad

invoke.cont:                                      ; preds = %if.then
  %5 = load ptr, ptr %__x.addr, align 8
  %_M_invoker4 = getelementptr inbounds %"class.std::function.5", ptr %5, i32 0, i32 1
  %6 = load ptr, ptr %_M_invoker4, align 8
  %_M_invoker5 = getelementptr inbounds %"class.std::function.5", ptr %this1, i32 0, i32 1
  store ptr %6, ptr %_M_invoker5, align 8
  %7 = load ptr, ptr %__x.addr, align 8
  %_M_manager6 = getelementptr inbounds %"class.std::_Function_base", ptr %7, i32 0, i32 1
  %8 = load ptr, ptr %_M_manager6, align 8
  %_M_manager7 = getelementptr inbounds %"class.std::_Function_base", ptr %this1, i32 0, i32 1
  store ptr %8, ptr %_M_manager7, align 8
  br label %if.end

lpad:                                             ; preds = %if.then
  %9 = landingpad { ptr, i32 }
          cleanup
  %10 = extractvalue { ptr, i32 } %9, 0
  store ptr %10, ptr %exn.slot, align 8
  %11 = extractvalue { ptr, i32 } %9, 1
  store i32 %11, ptr %ehselector.slot, align 4
  call void @_ZNSt14_Function_baseD2Ev(ptr noundef nonnull align 8 dereferenceable(24) %this1) #3
  br label %eh.resume

if.end:                                           ; preds = %invoke.cont, %entry
  ret void

eh.resume:                                        ; preds = %lpad
  %exn = load ptr, ptr %exn.slot, align 8
  %sel = load i32, ptr %ehselector.slot, align 4
  %lpad.val = insertvalue { ptr, i32 } poison, ptr %exn, 0
  %lpad.val8 = insertvalue { ptr, i32 } %lpad.val, i32 %sel, 1
  resume { ptr, i32 } %lpad.val8
}

; Function Attrs: mustprogress uwtable
define linkonce_odr void @_ZNSt8functionIFbRKN7rocksdb13ConfigOptionsERKNSt7__cxx1112basic_stringIcSt11char_traitsIcESaIcEEEPKvSD_PS9_EEC2ERKSG_(ptr noundef nonnull align 8 dereferenceable(32) %this, ptr noundef nonnull align 8 dereferenceable(32) %__x) unnamed_addr #1 comdat align 2 personality ptr @__gxx_personality_v0 {
entry:
  %this.addr = alloca ptr, align 8
  %__x.addr = alloca ptr, align 8
  %exn.slot = alloca ptr, align 8
  %ehselector.slot = alloca i32, align 4
  store ptr %this, ptr %this.addr, align 8
  store ptr %__x, ptr %__x.addr, align 8
  %this1 = load ptr, ptr %this.addr, align 8
  %0 = getelementptr inbounds i8, ptr %this1, i64 0
  call void @llvm.memset.p0.i64(ptr align 8 %0, i8 0, i64 24, i1 false)
  call void @_ZNSt14_Function_baseC2Ev(ptr noundef nonnull align 8 dereferenceable(24) %this1) #3
  %_M_invoker = getelementptr inbounds %"class.std::function.7", ptr %this1, i32 0, i32 1
  store ptr null, ptr %_M_invoker, align 8
  %1 = load ptr, ptr %__x.addr, align 8
  %call = call noundef zeroext i1 @_ZNKSt8functionIFbRKN7rocksdb13ConfigOptionsERKNSt7__cxx1112basic_stringIcSt11char_traitsIcESaIcEEEPKvSD_PS9_EEcvbEv(ptr noundef nonnull align 8 dereferenceable(32) %1) #3
  br i1 %call, label %if.then, label %if.end

if.then:                                          ; preds = %entry
  %2 = load ptr, ptr %__x.addr, align 8
  %_M_manager = getelementptr inbounds %"class.std::_Function_base", ptr %2, i32 0, i32 1
  %3 = load ptr, ptr %_M_manager, align 8
  %_M_functor = getelementptr inbounds %"class.std::_Function_base", ptr %this1, i32 0, i32 0
  %4 = load ptr, ptr %__x.addr, align 8
  %_M_functor2 = getelementptr inbounds %"class.std::_Function_base", ptr %4, i32 0, i32 0
  %call3 = invoke noundef zeroext i1 %3(ptr noundef nonnull align 8 dereferenceable(16) %_M_functor, ptr noundef nonnull align 8 dereferenceable(16) %_M_functor2, i32 noundef 2)
          to label %invoke.cont unwind label %lpad

invoke.cont:                                      ; preds = %if.then
  %5 = load ptr, ptr %__x.addr, align 8
  %_M_invoker4 = getelementptr inbounds %"class.std::function.7", ptr %5, i32 0, i32 1
  %6 = load ptr, ptr %_M_invoker4, align 8
  %_M_invoker5 = getelementptr inbounds %"class.std::function.7", ptr %this1, i32 0, i32 1
  store ptr %6, ptr %_M_invoker5, align 8
  %7 = load ptr, ptr %__x.addr, align 8
  %_M_manager6 = getelementptr inbounds %"class.std::_Function_base", ptr %7, i32 0, i32 1
  %8 = load ptr, ptr %_M_manager6, align 8
  %_M_manager7 = getelementptr inbounds %"class.std::_Function_base", ptr %this1, i32 0, i32 1
  store ptr %8, ptr %_M_manager7, align 8
  br label %if.end

lpad:                                             ; preds = %if.then
  %9 = landingpad { ptr, i32 }
          cleanup
  %10 = extractvalue { ptr, i32 } %9, 0
  store ptr %10, ptr %exn.slot, align 8
  %11 = extractvalue { ptr, i32 } %9, 1
  store i32 %11, ptr %ehselector.slot, align 4
  call void @_ZNSt14_Function_baseD2Ev(ptr noundef nonnull align 8 dereferenceable(24) %this1) #3
  br label %eh.resume

if.end:                                           ; preds = %invoke.cont, %entry
  ret void

eh.resume:                                        ; preds = %lpad
  %exn = load ptr, ptr %exn.slot, align 8
  %sel = load i32, ptr %ehselector.slot, align 4
  %lpad.val = insertvalue { ptr, i32 } poison, ptr %exn, 0
  %lpad.val8 = insertvalue { ptr, i32 } %lpad.val, i32 %sel, 1
  resume { ptr, i32 } %lpad.val8
}

; Function Attrs: mustprogress uwtable
define linkonce_odr void @_ZNSt8functionIFN7rocksdb6StatusERKNS0_13ConfigOptionsERKNSt7__cxx1112basic_stringIcSt11char_traitsIcESaIcEEEPvEEC2ERKSF_(ptr noundef nonnull align 8 dereferenceable(32) %this, ptr noundef nonnull align 8 dereferenceable(32) %__x) unnamed_addr #1 comdat align 2 personality ptr @__gxx_personality_v0 {
entry:
  %this.addr = alloca ptr, align 8
  %__x.addr = alloca ptr, align 8
  %exn.slot = alloca ptr, align 8
  %ehselector.slot = alloca i32, align 4
  store ptr %this, ptr %this.addr, align 8
  store ptr %__x, ptr %__x.addr, align 8
  %this1 = load ptr, ptr %this.addr, align 8
  %0 = getelementptr inbounds i8, ptr %this1, i64 0
  call void @llvm.memset.p0.i64(ptr align 8 %0, i8 0, i64 24, i1 false)
  call void @_ZNSt14_Function_baseC2Ev(ptr noundef nonnull align 8 dereferenceable(24) %this1) #3
  %_M_invoker = getelementptr inbounds %"class.std::function.9", ptr %this1, i32 0, i32 1
  store ptr null, ptr %_M_invoker, align 8
  %1 = load ptr, ptr %__x.addr, align 8
  %call = call noundef zeroext i1 @_ZNKSt8functionIFN7rocksdb6StatusERKNS0_13ConfigOptionsERKNSt7__cxx1112basic_stringIcSt11char_traitsIcESaIcEEEPvEEcvbEv(ptr noundef nonnull align 8 dereferenceable(32) %1) #3
  br i1 %call, label %if.then, label %if.end

if.then:                                          ; preds = %entry
  %2 = load ptr, ptr %__x.addr, align 8
  %_M_manager = getelementptr inbounds %"class.std::_Function_base", ptr %2, i32 0, i32 1
  %3 = load ptr, ptr %_M_manager, align 8
  %_M_functor = getelementptr inbounds %"class.std::_Function_base", ptr %this1, i32 0, i32 0
  %4 = load ptr, ptr %__x.addr, align 8
  %_M_functor2 = getelementptr inbounds %"class.std::_Function_base", ptr %4, i32 0, i32 0
  %call3 = invoke noundef zeroext i1 %3(ptr noundef nonnull align 8 dereferenceable(16) %_M_functor, ptr noundef nonnull align 8 dereferenceable(16) %_M_functor2, i32 noundef 2)
          to label %invoke.cont unwind label %lpad

invoke.cont:                                      ; preds = %if.then
  %5 = load ptr, ptr %__x.addr, align 8
  %_M_invoker4 = getelementptr inbounds %"class.std::function.9", ptr %5, i32 0, i32 1
  %6 = load ptr, ptr %_M_invoker4, align 8
  %_M_invoker5 = getelementptr inbounds %"class.std::function.9", ptr %this1, i32 0, i32 1
  store ptr %6, ptr %_M_invoker5, align 8
  %7 = load ptr, ptr %__x.addr, align 8
  %_M_manager6 = getelementptr inbounds %"class.std::_Function_base", ptr %7, i32 0, i32 1
  %8 = load ptr, ptr %_M_manager6, align 8
  %_M_manager7 = getelementptr inbounds %"class.std::_Function_base", ptr %this1, i32 0, i32 1
  store ptr %8, ptr %_M_manager7, align 8
  br label %if.end

lpad:                                             ; preds = %if.then
  %9 = landingpad { ptr, i32 }
          cleanup
  %10 = extractvalue { ptr, i32 } %9, 0
  store ptr %10, ptr %exn.slot, align 8
  %11 = extractvalue { ptr, i32 } %9, 1
  store i32 %11, ptr %ehselector.slot, align 4
  call void @_ZNSt14_Function_baseD2Ev(ptr noundef nonnull align 8 dereferenceable(24) %this1) #3
  br label %eh.resume

if.end:                                           ; preds = %invoke.cont, %entry
  ret void

eh.resume:                                        ; preds = %lpad
  %exn = load ptr, ptr %exn.slot, align 8
  %sel = load i32, ptr %ehselector.slot, align 4
  %lpad.val = insertvalue { ptr, i32 } poison, ptr %exn, 0
  %lpad.val8 = insertvalue { ptr, i32 } %lpad.val, i32 %sel, 1
  resume { ptr, i32 } %lpad.val8
}

; Function Attrs: mustprogress uwtable
define linkonce_odr void @_ZNSt8functionIFN7rocksdb6StatusERKNS0_9DBOptionsERKNS0_19ColumnFamilyOptionsERKNSt7__cxx1112basic_stringIcSt11char_traitsIcESaIcEEEPKvEEC2ERKSJ_(ptr noundef nonnull align 8 dereferenceable(32) %this, ptr noundef nonnull align 8 dereferenceable(32) %__x) unnamed_addr #1 comdat align 2 personality ptr @__gxx_personality_v0 {
entry:
  %this.addr = alloca ptr, align 8
  %__x.addr = alloca ptr, align 8
  %exn.slot = alloca ptr, align 8
  %ehselector.slot = alloca i32, align 4
  store ptr %this, ptr %this.addr, align 8
  store ptr %__x, ptr %__x.addr, align 8
  %this1 = load ptr, ptr %this.addr, align 8
  %0 = getelementptr inbounds i8, ptr %this1, i64 0
  call void @llvm.memset.p0.i64(ptr align 8 %0, i8 0, i64 24, i1 false)
  call void @_ZNSt14_Function_baseC2Ev(ptr noundef nonnull align 8 dereferenceable(24) %this1) #3
  %_M_invoker = getelementptr inbounds %"class.std::function.11", ptr %this1, i32 0, i32 1
  store ptr null, ptr %_M_invoker, align 8
  %1 = load ptr, ptr %__x.addr, align 8
  %call = call noundef zeroext i1 @_ZNKSt8functionIFN7rocksdb6StatusERKNS0_9DBOptionsERKNS0_19ColumnFamilyOptionsERKNSt7__cxx1112basic_stringIcSt11char_traitsIcESaIcEEEPKvEEcvbEv(ptr noundef nonnull align 8 dereferenceable(32) %1) #3
  br i1 %call, label %if.then, label %if.end

if.then:                                          ; preds = %entry
  %2 = load ptr, ptr %__x.addr, align 8
  %_M_manager = getelementptr inbounds %"class.std::_Function_base", ptr %2, i32 0, i32 1
  %3 = load ptr, ptr %_M_manager, align 8
  %_M_functor = getelementptr inbounds %"class.std::_Function_base", ptr %this1, i32 0, i32 0
  %4 = load ptr, ptr %__x.addr, align 8
  %_M_functor2 = getelementptr inbounds %"class.std::_Function_base", ptr %4, i32 0, i32 0
  %call3 = invoke noundef zeroext i1 %3(ptr noundef nonnull align 8 dereferenceable(16) %_M_functor, ptr noundef nonnull align 8 dereferenceable(16) %_M_functor2, i32 noundef 2)
          to label %invoke.cont unwind label %lpad

invoke.cont:                                      ; preds = %if.then
  %5 = load ptr, ptr %__x.addr, align 8
  %_M_invoker4 = getelementptr inbounds %"class.std::function.11", ptr %5, i32 0, i32 1
  %6 = load ptr, ptr %_M_invoker4, align 8
  %_M_invoker5 = getelementptr inbounds %"class.std::function.11", ptr %this1, i32 0, i32 1
  store ptr %6, ptr %_M_invoker5, align 8
  %7 = load ptr, ptr %__x.addr, align 8
  %_M_manager6 = getelementptr inbounds %"class.std::_Function_base", ptr %7, i32 0, i32 1
  %8 = load ptr, ptr %_M_manager6, align 8
  %_M_manager7 = getelementptr inbounds %"class.std::_Function_base", ptr %this1, i32 0, i32 1
  store ptr %8, ptr %_M_manager7, align 8
  br label %if.end

lpad:                                             ; preds = %if.then
  %9 = landingpad { ptr, i32 }
          cleanup
  %10 = extractvalue { ptr, i32 } %9, 0
  store ptr %10, ptr %exn.slot, align 8
  %11 = extractvalue { ptr, i32 } %9, 1
  store i32 %11, ptr %ehselector.slot, align 4
  call void @_ZNSt14_Function_baseD2Ev(ptr noundef nonnull align 8 dereferenceable(24) %this1) #3
  br label %eh.resume

if.end:                                           ; preds = %invoke.cont, %entry
  ret void

eh.resume:                                        ; preds = %lpad
  %exn = load ptr, ptr %exn.slot, align 8
  %sel = load i32, ptr %ehselector.slot, align 4
  %lpad.val = insertvalue { ptr, i32 } poison, ptr %exn, 0
  %lpad.val8 = insertvalue { ptr, i32 } %lpad.val, i32 %sel, 1
  resume { ptr, i32 } %lpad.val8
}

; Function Attrs: mustprogress nounwind uwtable
define linkonce_odr void @_ZNSt15__new_allocatorISt4pairIKNSt7__cxx1112basic_stringIcSt11char_traitsIcESaIcEEEN7rocksdb14OptionTypeInfoEEEC2Ev(ptr noundef nonnull align 1 dereferenceable(1) %this) unnamed_addr #2 comdat align 2 {
entry:
  %this.addr = alloca ptr, align 8
  store ptr %this, ptr %this.addr, align 8
  ret void
}

; Function Attrs: mustprogress nounwind uwtable
define linkonce_odr void @_ZNSt15__new_allocatorISt4pairIKNSt7__cxx1112basic_stringIcSt11char_traitsIcESaIcEEEN7rocksdb14OptionTypeInfoEEED2Ev(ptr noundef nonnull align 1 dereferenceable(1) %this) unnamed_addr #2 comdat align 2 {
entry:
  %this.addr = alloca ptr, align 8
  store ptr %this, ptr %this.addr, align 8
  ret void
}

; Function Attrs: mustprogress uwtable
define linkonce_odr void @_ZNSt10_HashtableINSt7__cxx1112basic_stringIcSt11char_traitsIcESaIcEEESt4pairIKS5_N7rocksdb14OptionTypeInfoEESaISA_ENSt8__detail10_Select1stESt8equal_toIS5_ESt4hashIS5_ENSC_18_Mod_range_hashingENSC_20_Default_ranged_hashENSC_20_Prime_rehash_policyENSC_17_Hashtable_traitsILb1ELb0ELb1EEEEC2ESt16initializer_listISA_EmRKSH_RKSF_RKSB_(ptr noundef nonnull align 8 dereferenceable(56) %this, ptr %__l.coerce0, i64 %__l.coerce1, i64 noundef %__bkt_count_hint, ptr noundef nonnull align 1 dereferenceable(1) %__hf, ptr noundef nonnull align 1 dereferenceable(1) %__eql, ptr noundef nonnull align 1 dereferenceable(1) %__a) unnamed_addr #1 comdat align 2 {
entry:
  %__l = alloca %"class.std::initializer_list", align 8
  %this.addr = alloca ptr, align 8
  %__bkt_count_hint.addr = alloca i64, align 8
  %__hf.addr = alloca ptr, align 8
  %__eql.addr = alloca ptr, align 8
  %__a.addr = alloca ptr, align 8
  %0 = getelementptr inbounds { ptr, i64 }, ptr %__l, i32 0, i32 0
  store ptr %__l.coerce0, ptr %0, align 8
  %1 = getelementptr inbounds { ptr, i64 }, ptr %__l, i32 0, i32 1
  store i64 %__l.coerce1, ptr %1, align 8
  store ptr %this, ptr %this.addr, align 8
  store i64 %__bkt_count_hint, ptr %__bkt_count_hint.addr, align 8
  store ptr %__hf, ptr %__hf.addr, align 8
  store ptr %__eql, ptr %__eql.addr, align 8
  store ptr %__a, ptr %__a.addr, align 8
  %this1 = load ptr, ptr %this.addr, align 8
  %call = call noundef ptr @_ZNKSt16initializer_listISt4pairIKNSt7__cxx1112basic_stringIcSt11char_traitsIcESaIcEEEN7rocksdb14OptionTypeInfoEEE5beginEv(ptr noundef nonnull align 8 dereferenceable(16) %__l) #3
  %call2 = call noundef ptr @_ZNKSt16initializer_listISt4pairIKNSt7__cxx1112basic_stringIcSt11char_traitsIcESaIcEEEN7rocksdb14OptionTypeInfoEEE3endEv(ptr noundef nonnull align 8 dereferenceable(16) %__l) #3
  %2 = load i64, ptr %__bkt_count_hint.addr, align 8
  %3 = load ptr, ptr %__hf.addr, align 8
  %4 = load ptr, ptr %__eql.addr, align 8
  %5 = load ptr, ptr %__a.addr, align 8
  call void @_ZNSt10_HashtableINSt7__cxx1112basic_stringIcSt11char_traitsIcESaIcEEESt4pairIKS5_N7rocksdb14OptionTypeInfoEESaISA_ENSt8__detail10_Select1stESt8equal_toIS5_ESt4hashIS5_ENSC_18_Mod_range_hashingENSC_20_Default_ranged_hashENSC_20_Prime_rehash_policyENSC_17_Hashtable_traitsILb1ELb0ELb1EEEEC2IPKSA_EET_SR_mRKSH_RKSF_RKSB_St17integral_constantIbLb1EE(ptr noundef nonnull align 8 dereferenceable(56) %this1, ptr noundef %call, ptr noundef %call2, i64 noundef %2, ptr noundef nonnull align 1 dereferenceable(1) %3, ptr noundef nonnull align 1 dereferenceable(1) %4, ptr noundef nonnull align 1 dereferenceable(1) %5)
  ret void
}

; Function Attrs: mustprogress nounwind uwtable
define linkonce_odr noundef ptr @_ZNKSt16initializer_listISt4pairIKNSt7__cxx1112basic_stringIcSt11char_traitsIcESaIcEEEN7rocksdb14OptionTypeInfoEEE5beginEv(ptr noundef nonnull align 8 dereferenceable(16) %this) #2 comdat align 2 {
entry:
  %this.addr = alloca ptr, align 8
  store ptr %this, ptr %this.addr, align 8
  %this1 = load ptr, ptr %this.addr, align 8
  %_M_array = getelementptr inbounds %"class.std::initializer_list", ptr %this1, i32 0, i32 0
  %0 = load ptr, ptr %_M_array, align 8
  ret ptr %0
}

; Function Attrs: mustprogress nounwind uwtable
define linkonce_odr noundef ptr @_ZNKSt16initializer_listISt4pairIKNSt7__cxx1112basic_stringIcSt11char_traitsIcESaIcEEEN7rocksdb14OptionTypeInfoEEE3endEv(ptr noundef nonnull align 8 dereferenceable(16) %this) #2 comdat align 2 {
entry:
  %this.addr = alloca ptr, align 8
  store ptr %this, ptr %this.addr, align 8
  %this1 = load ptr, ptr %this.addr, align 8
  %call = call noundef ptr @_ZNKSt16initializer_listISt4pairIKNSt7__cxx1112basic_stringIcSt11char_traitsIcESaIcEEEN7rocksdb14OptionTypeInfoEEE5beginEv(ptr noundef nonnull align 8 dereferenceable(16) %this1) #3
  %call2 = call noundef i64 @_ZNKSt16initializer_listISt4pairIKNSt7__cxx1112basic_stringIcSt11char_traitsIcESaIcEEEN7rocksdb14OptionTypeInfoEEE4sizeEv(ptr noundef nonnull align 8 dereferenceable(16) %this1) #3
  %add.ptr = getelementptr inbounds %"struct.std::pair", ptr %call, i64 %call2
  ret ptr %add.ptr
}

; Function Attrs: mustprogress uwtable
define linkonce_odr void @_ZNSt10_HashtableINSt7__cxx1112basic_stringIcSt11char_traitsIcESaIcEEESt4pairIKS5_N7rocksdb14OptionTypeInfoEESaISA_ENSt8__detail10_Select1stESt8equal_toIS5_ESt4hashIS5_ENSC_18_Mod_range_hashingENSC_20_Default_ranged_hashENSC_20_Prime_rehash_policyENSC_17_Hashtable_traitsILb1ELb0ELb1EEEEC2IPKSA_EET_SR_mRKSH_RKSF_RKSB_St17integral_constantIbLb1EE(ptr noundef nonnull align 8 dereferenceable(56) %this, ptr noundef %__f, ptr noundef %__l, i64 noundef %__bkt_count_hint, ptr noundef nonnull align 1 dereferenceable(1) %__h, ptr noundef nonnull align 1 dereferenceable(1) %__eq, ptr noundef nonnull align 1 dereferenceable(1) %__a) unnamed_addr #1 comdat align 2 personality ptr @__gxx_personality_v0 {
entry:
  %this.addr = alloca ptr, align 8
  %__f.addr = alloca ptr, align 8
  %__l.addr = alloca ptr, align 8
  %__bkt_count_hint.addr = alloca i64, align 8
  %__h.addr = alloca ptr, align 8
  %__eq.addr = alloca ptr, align 8
  %__a.addr = alloca ptr, align 8
  %exn.slot = alloca ptr, align 8
  %ehselector.slot = alloca i32, align 4
  %coerce = alloca %"struct.std::pair.29", align 8
  store ptr %this, ptr %this.addr, align 8
  store ptr %__f, ptr %__f.addr, align 8
  store ptr %__l, ptr %__l.addr, align 8
  store i64 %__bkt_count_hint, ptr %__bkt_count_hint.addr, align 8
  store ptr %__h, ptr %__h.addr, align 8
  store ptr %__eq, ptr %__eq.addr, align 8
  store ptr %__a, ptr %__a.addr, align 8
  %this1 = load ptr, ptr %this.addr, align 8
  %0 = load i64, ptr %__bkt_count_hint.addr, align 8
  %1 = load ptr, ptr %__h.addr, align 8
  %2 = load ptr, ptr %__eq.addr, align 8
  %3 = load ptr, ptr %__a.addr, align 8
  call void @_ZNSt10_HashtableINSt7__cxx1112basic_stringIcSt11char_traitsIcESaIcEEESt4pairIKS5_N7rocksdb14OptionTypeInfoEESaISA_ENSt8__detail10_Select1stESt8equal_toIS5_ESt4hashIS5_ENSC_18_Mod_range_hashingENSC_20_Default_ranged_hashENSC_20_Prime_rehash_policyENSC_17_Hashtable_traitsILb1ELb0ELb1EEEEC2EmRKSH_RKSF_RKSB_(ptr noundef nonnull align 8 dereferenceable(56) %this1, i64 noundef %0, ptr noundef nonnull align 1 dereferenceable(1) %1, ptr noundef nonnull align 1 dereferenceable(1) %2, ptr noundef nonnull align 1 dereferenceable(1) %3)
  br label %for.cond

for.cond:                                         ; preds = %for.inc, %entry
  %4 = load ptr, ptr %__f.addr, align 8
  %5 = load ptr, ptr %__l.addr, align 8
  %cmp = icmp ne ptr %4, %5
  br i1 %cmp, label %for.body, label %for.end

for.body:                                         ; preds = %for.cond
  %6 = load ptr, ptr %__f.addr, align 8
  %call = invoke { ptr, i8 } @_ZNSt8__detail12_Insert_baseINSt7__cxx1112basic_stringIcSt11char_traitsIcESaIcEEESt4pairIKS6_N7rocksdb14OptionTypeInfoEESaISB_ENS_10_Select1stESt8equal_toIS6_ESt4hashIS6_ENS_18_Mod_range_hashingENS_20_Default_ranged_hashENS_20_Prime_rehash_policyENS_17_Hashtable_traitsILb1ELb0ELb1EEEE6insertERKSB_(ptr noundef nonnull align 1 dereferenceable(1) %this1, ptr noundef nonnull align 8 dereferenceable(216) %6)
          to label %invoke.cont unwind label %lpad

invoke.cont:                                      ; preds = %for.body
  %7 = getelementptr inbounds { ptr, i8 }, ptr %coerce, i32 0, i32 0
  %8 = extractvalue { ptr, i8 } %call, 0
  store ptr %8, ptr %7, align 8
  %9 = getelementptr inbounds { ptr, i8 }, ptr %coerce, i32 0, i32 1
  %10 = extractvalue { ptr, i8 } %call, 1
  store i8 %10, ptr %9, align 8
  br label %for.inc

for.inc:                                          ; preds = %invoke.cont
  %11 = load ptr, ptr %__f.addr, align 8
  %incdec.ptr = getelementptr inbounds %"struct.std::pair", ptr %11, i32 1
  store ptr %incdec.ptr, ptr %__f.addr, align 8
  br label %for.cond, !llvm.loop !7

lpad:                                             ; preds = %for.body
  %12 = landingpad { ptr, i32 }
          cleanup
  %13 = extractvalue { ptr, i32 } %12, 0
  store ptr %13, ptr %exn.slot, align 8
  %14 = extractvalue { ptr, i32 } %12, 1
  store i32 %14, ptr %ehselector.slot, align 4
  call void @_ZNSt10_HashtableINSt7__cxx1112basic_stringIcSt11char_traitsIcESaIcEEESt4pairIKS5_N7rocksdb14OptionTypeInfoEESaISA_ENSt8__detail10_Select1stESt8equal_toIS5_ESt4hashIS5_ENSC_18_Mod_range_hashingENSC_20_Default_ranged_hashENSC_20_Prime_rehash_policyENSC_17_Hashtable_traitsILb1ELb0ELb1EEEED2Ev(ptr noundef nonnull align 8 dereferenceable(56) %this1) #3
  br label %eh.resume

for.end:                                          ; preds = %for.cond
  ret void

eh.resume:                                        ; preds = %lpad
  %exn = load ptr, ptr %exn.slot, align 8
  %sel = load i32, ptr %ehselector.slot, align 4
  %lpad.val = insertvalue { ptr, i32 } poison, ptr %exn, 0
  %lpad.val2 = insertvalue { ptr, i32 } %lpad.val, i32 %sel, 1
  resume { ptr, i32 } %lpad.val2
}

; Function Attrs: mustprogress nounwind uwtable
define linkonce_odr noundef i64 @_ZNKSt16initializer_listISt4pairIKNSt7__cxx1112basic_stringIcSt11char_traitsIcESaIcEEEN7rocksdb14OptionTypeInfoEEE4sizeEv(ptr noundef nonnull align 8 dereferenceable(16) %this) #2 comdat align 2 {
entry:
  %this.addr = alloca ptr, align 8
  store ptr %this, ptr %this.addr, align 8
  %this1 = load ptr, ptr %this.addr, align 8
  %_M_len = getelementptr inbounds %"class.std::initializer_list", ptr %this1, i32 0, i32 1
  %0 = load i64, ptr %_M_len, align 8
  ret i64 %0
}

; Function Attrs: mustprogress uwtable
define linkonce_odr void @_ZNSt10_HashtableINSt7__cxx1112basic_stringIcSt11char_traitsIcESaIcEEESt4pairIKS5_N7rocksdb14OptionTypeInfoEESaISA_ENSt8__detail10_Select1stESt8equal_toIS5_ESt4hashIS5_ENSC_18_Mod_range_hashingENSC_20_Default_ranged_hashENSC_20_Prime_rehash_policyENSC_17_Hashtable_traitsILb1ELb0ELb1EEEEC2EmRKSH_RKSF_RKSB_(ptr noundef nonnull align 8 dereferenceable(56) %this, i64 noundef %__bkt_count_hint, ptr noundef nonnull align 1 dereferenceable(1) %__h, ptr noundef nonnull align 1 dereferenceable(1) %__eq, ptr noundef nonnull align 1 dereferenceable(1) %__a) unnamed_addr #1 comdat align 2 personality ptr @__gxx_personality_v0 {
entry:
  %this.addr = alloca ptr, align 8
  %__bkt_count_hint.addr = alloca i64, align 8
  %__h.addr = alloca ptr, align 8
  %__eq.addr = alloca ptr, align 8
  %__a.addr = alloca ptr, align 8
  %__bkt_count = alloca i64, align 8
  %exn.slot = alloca ptr, align 8
  %ehselector.slot = alloca i32, align 4
  store ptr %this, ptr %this.addr, align 8
  store i64 %__bkt_count_hint, ptr %__bkt_count_hint.addr, align 8
  store ptr %__h, ptr %__h.addr, align 8
  store ptr %__eq, ptr %__eq.addr, align 8
  store ptr %__a, ptr %__a.addr, align 8
  %this1 = load ptr, ptr %this.addr, align 8
  %0 = load ptr, ptr %__h.addr, align 8
  %1 = load ptr, ptr %__eq.addr, align 8
  %2 = load ptr, ptr %__a.addr, align 8
  call void @_ZNSt10_HashtableINSt7__cxx1112basic_stringIcSt11char_traitsIcESaIcEEESt4pairIKS5_N7rocksdb14OptionTypeInfoEESaISA_ENSt8__detail10_Select1stESt8equal_toIS5_ESt4hashIS5_ENSC_18_Mod_range_hashingENSC_20_Default_ranged_hashENSC_20_Prime_rehash_policyENSC_17_Hashtable_traitsILb1ELb0ELb1EEEEC2ERKSH_RKSF_RKSB_(ptr noundef nonnull align 8 dereferenceable(56) %this1, ptr noundef nonnull align 1 dereferenceable(1) %0, ptr noundef nonnull align 1 dereferenceable(1) %1, ptr noundef nonnull align 1 dereferenceable(1) %2)
  %_M_rehash_policy = getelementptr inbounds %"class.std::_Hashtable", ptr %this1, i32 0, i32 4
  %3 = load i64, ptr %__bkt_count_hint.addr, align 8
  %call = invoke noundef i64 @_ZNKSt8__detail20_Prime_rehash_policy11_M_next_bktEm(ptr noundef nonnull align 8 dereferenceable(16) %_M_rehash_policy, i64 noundef %3)
          to label %invoke.cont unwind label %lpad

invoke.cont:                                      ; preds = %entry
  store i64 %call, ptr %__bkt_count, align 8
  %4 = load i64, ptr %__bkt_count, align 8
  %_M_bucket_count = getelementptr inbounds %"class.std::_Hashtable", ptr %this1, i32 0, i32 1
  %5 = load i64, ptr %_M_bucket_count, align 8
  %cmp = icmp ugt i64 %4, %5
  br i1 %cmp, label %if.then, label %if.end

if.then:                                          ; preds = %invoke.cont
  %6 = load i64, ptr %__bkt_count, align 8
  %call3 = invoke noundef ptr @_ZNSt10_HashtableINSt7__cxx1112basic_stringIcSt11char_traitsIcESaIcEEESt4pairIKS5_N7rocksdb14OptionTypeInfoEESaISA_ENSt8__detail10_Select1stESt8equal_toIS5_ESt4hashIS5_ENSC_18_Mod_range_hashingENSC_20_Default_ranged_hashENSC_20_Prime_rehash_policyENSC_17_Hashtable_traitsILb1ELb0ELb1EEEE19_M_allocate_bucketsEm(ptr noundef nonnull align 8 dereferenceable(56) %this1, i64 noundef %6)
          to label %invoke.cont2 unwind label %lpad

invoke.cont2:                                     ; preds = %if.then
  %_M_buckets = getelementptr inbounds %"class.std::_Hashtable", ptr %this1, i32 0, i32 0
  store ptr %call3, ptr %_M_buckets, align 8
  %7 = load i64, ptr %__bkt_count, align 8
  %_M_bucket_count4 = getelementptr inbounds %"class.std::_Hashtable", ptr %this1, i32 0, i32 1
  store i64 %7, ptr %_M_bucket_count4, align 8
  br label %if.end

lpad:                                             ; preds = %if.then, %entry
  %8 = landingpad { ptr, i32 }
          cleanup
  %9 = extractvalue { ptr, i32 } %8, 0
  store ptr %9, ptr %exn.slot, align 8
  %10 = extractvalue { ptr, i32 } %8, 1
  store i32 %10, ptr %ehselector.slot, align 4
  call void @_ZNSt10_HashtableINSt7__cxx1112basic_stringIcSt11char_traitsIcESaIcEEESt4pairIKS5_N7rocksdb14OptionTypeInfoEESaISA_ENSt8__detail10_Select1stESt8equal_toIS5_ESt4hashIS5_ENSC_18_Mod_range_hashingENSC_20_Default_ranged_hashENSC_20_Prime_rehash_policyENSC_17_Hashtable_traitsILb1ELb0ELb1EEEED2Ev(ptr noundef nonnull align 8 dereferenceable(56) %this1) #3
  br label %eh.resume

if.end:                                           ; preds = %invoke.cont2, %invoke.cont
  ret void

eh.resume:                                        ; preds = %lpad
  %exn = load ptr, ptr %exn.slot, align 8
  %sel = load i32, ptr %ehselector.slot, align 4
  %lpad.val = insertvalue { ptr, i32 } poison, ptr %exn, 0
  %lpad.val5 = insertvalue { ptr, i32 } %lpad.val, i32 %sel, 1
  resume { ptr, i32 } %lpad.val5
}

; Function Attrs: mustprogress uwtable
define linkonce_odr { ptr, i8 } @_ZNSt8__detail12_Insert_baseINSt7__cxx1112basic_stringIcSt11char_traitsIcESaIcEEESt4pairIKS6_N7rocksdb14OptionTypeInfoEESaISB_ENS_10_Select1stESt8equal_toIS6_ESt4hashIS6_ENS_18_Mod_range_hashingENS_20_Default_ranged_hashENS_20_Prime_rehash_policyENS_17_Hashtable_traitsILb1ELb0ELb1EEEE6insertERKSB_(ptr noundef nonnull align 1 dereferenceable(1) %this, ptr noundef nonnull align 8 dereferenceable(216) %__v) #1 comdat align 2 {
entry:
  %retval = alloca %"struct.std::pair.29", align 8
  %this.addr = alloca ptr, align 8
  %__v.addr = alloca ptr, align 8
  %__h = alloca ptr, align 8
  %__node_gen = alloca %"struct.std::__detail::_AllocNode", align 8
  store ptr %this, ptr %this.addr, align 8
  store ptr %__v, ptr %__v.addr, align 8
  %this1 = load ptr, ptr %this.addr, align 8
  %call = call noundef nonnull align 8 dereferenceable(56) ptr @_ZNSt8__detail12_Insert_baseINSt7__cxx1112basic_stringIcSt11char_traitsIcESaIcEEESt4pairIKS6_N7rocksdb14OptionTypeInfoEESaISB_ENS_10_Select1stESt8equal_toIS6_ESt4hashIS6_ENS_18_Mod_range_hashingENS_20_Default_ranged_hashENS_20_Prime_rehash_policyENS_17_Hashtable_traitsILb1ELb0ELb1EEEE20_M_conjure_hashtableEv(ptr noundef nonnull align 1 dereferenceable(1) %this1)
  store ptr %call, ptr %__h, align 8
  %0 = load ptr, ptr %__h, align 8
  call void @_ZNSt8__detail10_AllocNodeISaINS_10_Hash_nodeISt4pairIKNSt7__cxx1112basic_stringIcSt11char_traitsIcESaIcEEEN7rocksdb14OptionTypeInfoEELb1EEEEEC2ERNS_16_Hashtable_allocISE_EE(ptr noundef nonnull align 8 dereferenceable(8) %__node_gen, ptr noundef nonnull align 1 dereferenceable(1) %0)
  %1 = load ptr, ptr %__h, align 8
  %2 = load ptr, ptr %__v.addr, align 8
  %call2 = call { ptr, i8 } @_ZNSt10_HashtableINSt7__cxx1112basic_stringIcSt11char_traitsIcESaIcEEESt4pairIKS5_N7rocksdb14OptionTypeInfoEESaISA_ENSt8__detail10_Select1stESt8equal_toIS5_ESt4hashIS5_ENSC_18_Mod_range_hashingENSC_20_Default_ranged_hashENSC_20_Prime_rehash_policyENSC_17_Hashtable_traitsILb1ELb0ELb1EEEE9_M_insertIRKSA_NSC_10_AllocNodeISaINSC_10_Hash_nodeISA_Lb1EEEEEEEES6_INSC_14_Node_iteratorISA_Lb0ELb1EEEbEOT_RKT0_St17integral_constantIbLb1EE(ptr noundef nonnull align 8 dereferenceable(56) %1, ptr noundef nonnull align 8 dereferenceable(216) %2, ptr noundef nonnull align 8 dereferenceable(8) %__node_gen)
  %3 = getelementptr inbounds { ptr, i8 }, ptr %retval, i32 0, i32 0
  %4 = extractvalue { ptr, i8 } %call2, 0
  store ptr %4, ptr %3, align 8
  %5 = getelementptr inbounds { ptr, i8 }, ptr %retval, i32 0, i32 1
  %6 = extractvalue { ptr, i8 } %call2, 1
  store i8 %6, ptr %5, align 8
  %7 = load { ptr, i8 }, ptr %retval, align 8
  ret { ptr, i8 } %7
}

; Function Attrs: mustprogress uwtable
define linkonce_odr void @_ZNSt10_HashtableINSt7__cxx1112basic_stringIcSt11char_traitsIcESaIcEEESt4pairIKS5_N7rocksdb14OptionTypeInfoEESaISA_ENSt8__detail10_Select1stESt8equal_toIS5_ESt4hashIS5_ENSC_18_Mod_range_hashingENSC_20_Default_ranged_hashENSC_20_Prime_rehash_policyENSC_17_Hashtable_traitsILb1ELb0ELb1EEEEC2ERKSH_RKSF_RKSB_(ptr noundef nonnull align 8 dereferenceable(56) %this, ptr noundef nonnull align 1 dereferenceable(1) %__h, ptr noundef nonnull align 1 dereferenceable(1) %__eq, ptr noundef nonnull align 1 dereferenceable(1) %__a) unnamed_addr #1 comdat align 2 personality ptr @__gxx_personality_v0 {
entry:
  %this.addr = alloca ptr, align 8
  %__h.addr = alloca ptr, align 8
  %__eq.addr = alloca ptr, align 8
  %__a.addr = alloca ptr, align 8
  %ref.tmp = alloca %"class.std::allocator", align 1
  %exn.slot = alloca ptr, align 8
  %ehselector.slot = alloca i32, align 4
  store ptr %this, ptr %this.addr, align 8
  store ptr %__h, ptr %__h.addr, align 8
  store ptr %__eq, ptr %__eq.addr, align 8
  store ptr %__a, ptr %__a.addr, align 8
  %this1 = load ptr, ptr %this.addr, align 8
  %0 = load ptr, ptr %__h.addr, align 8
  %1 = load ptr, ptr %__eq.addr, align 8
  call void @_ZNSt8__detail15_Hashtable_baseINSt7__cxx1112basic_stringIcSt11char_traitsIcESaIcEEESt4pairIKS6_N7rocksdb14OptionTypeInfoEENS_10_Select1stESt8equal_toIS6_ESt4hashIS6_ENS_18_Mod_range_hashingENS_20_Default_ranged_hashENS_17_Hashtable_traitsILb1ELb0ELb1EEEEC2ERKSG_RKSE_(ptr noundef nonnull align 1 dereferenceable(1) %this1, ptr noundef nonnull align 1 dereferenceable(1) %0, ptr noundef nonnull align 1 dereferenceable(1) %1)
  %2 = load ptr, ptr %__a.addr, align 8
  call void @_ZNSaINSt8__detail10_Hash_nodeISt4pairIKNSt7__cxx1112basic_stringIcSt11char_traitsIcESaIcEEEN7rocksdb14OptionTypeInfoEELb1EEEEC2ISB_EERKSaIT_E(ptr noundef nonnull align 1 dereferenceable(1) %ref.tmp, ptr noundef nonnull align 1 dereferenceable(1) %2) #3
  invoke void @_ZNSt8__detail16_Hashtable_allocISaINS_10_Hash_nodeISt4pairIKNSt7__cxx1112basic_stringIcSt11char_traitsIcESaIcEEEN7rocksdb14OptionTypeInfoEELb1EEEEEC2ISE_EEOT_(ptr noundef nonnull align 1 dereferenceable(1) %this1, ptr noundef nonnull align 1 dereferenceable(1) %ref.tmp)
          to label %invoke.cont unwind label %lpad

invoke.cont:                                      ; preds = %entry
  call void @_ZNSaINSt8__detail10_Hash_nodeISt4pairIKNSt7__cxx1112basic_stringIcSt11char_traitsIcESaIcEEEN7rocksdb14OptionTypeInfoEELb1EEEED2Ev(ptr noundef nonnull align 1 dereferenceable(1) %ref.tmp) #3
  invoke void @_ZNSt27_Enable_default_constructorILb1ENSt8__detail15_Hash_node_baseEEC2ESt31_Enable_default_constructor_tag(ptr noundef nonnull align 1 dereferenceable(1) %this1)
          to label %invoke.cont3 unwind label %lpad2

invoke.cont3:                                     ; preds = %invoke.cont
  %_M_buckets = getelementptr inbounds %"class.std::_Hashtable", ptr %this1, i32 0, i32 0
  %_M_single_bucket = getelementptr inbounds %"class.std::_Hashtable", ptr %this1, i32 0, i32 5
  store ptr %_M_single_bucket, ptr %_M_buckets, align 8
  %_M_bucket_count = getelementptr inbounds %"class.std::_Hashtable", ptr %this1, i32 0, i32 1
  store i64 1, ptr %_M_bucket_count, align 8
  %_M_before_begin = getelementptr inbounds %"class.std::_Hashtable", ptr %this1, i32 0, i32 2
  call void @_ZNSt8__detail15_Hash_node_baseC2Ev(ptr noundef nonnull align 8 dereferenceable(8) %_M_before_begin) #3
  %_M_element_count = getelementptr inbounds %"class.std::_Hashtable", ptr %this1, i32 0, i32 3
  store i64 0, ptr %_M_element_count, align 8
  %_M_rehash_policy = getelementptr inbounds %"class.std::_Hashtable", ptr %this1, i32 0, i32 4
  call void @_ZNSt8__detail20_Prime_rehash_policyC2Ef(ptr noundef nonnull align 8 dereferenceable(16) %_M_rehash_policy, float noundef 1.000000e+00) #3
  %_M_single_bucket4 = getelementptr inbounds %"class.std::_Hashtable", ptr %this1, i32 0, i32 5
  store ptr null, ptr %_M_single_bucket4, align 8
  ret void

lpad:                                             ; preds = %entry
  %3 = landingpad { ptr, i32 }
          cleanup
  %4 = extractvalue { ptr, i32 } %3, 0
  store ptr %4, ptr %exn.slot, align 8
  %5 = extractvalue { ptr, i32 } %3, 1
  store i32 %5, ptr %ehselector.slot, align 4
  call void @_ZNSaINSt8__detail10_Hash_nodeISt4pairIKNSt7__cxx1112basic_stringIcSt11char_traitsIcESaIcEEEN7rocksdb14OptionTypeInfoEELb1EEEED2Ev(ptr noundef nonnull align 1 dereferenceable(1) %ref.tmp) #3
  br label %eh.resume

lpad2:                                            ; preds = %invoke.cont
  %6 = landingpad { ptr, i32 }
          cleanup
  %7 = extractvalue { ptr, i32 } %6, 0
  store ptr %7, ptr %exn.slot, align 8
  %8 = extractvalue { ptr, i32 } %6, 1
  store i32 %8, ptr %ehselector.slot, align 4
  call void @_ZNSt8__detail16_Hashtable_allocISaINS_10_Hash_nodeISt4pairIKNSt7__cxx1112basic_stringIcSt11char_traitsIcESaIcEEEN7rocksdb14OptionTypeInfoEELb1EEEEED2Ev(ptr noundef nonnull align 1 dereferenceable(1) %this1) #3
  br label %eh.resume

eh.resume:                                        ; preds = %lpad2, %lpad
  %exn = load ptr, ptr %exn.slot, align 8
  %sel = load i32, ptr %ehselector.slot, align 4
  %lpad.val = insertvalue { ptr, i32 } poison, ptr %exn, 0
  %lpad.val5 = insertvalue { ptr, i32 } %lpad.val, i32 %sel, 1
  resume { ptr, i32 } %lpad.val5
}

declare noundef i64 @_ZNKSt8__detail20_Prime_rehash_policy11_M_next_bktEm(ptr noundef nonnull align 8 dereferenceable(16), i64 noundef) #4

; Function Attrs: mustprogress uwtable
define linkonce_odr noundef ptr @_ZNSt10_HashtableINSt7__cxx1112basic_stringIcSt11char_traitsIcESaIcEEESt4pairIKS5_N7rocksdb14OptionTypeInfoEESaISA_ENSt8__detail10_Select1stESt8equal_toIS5_ESt4hashIS5_ENSC_18_Mod_range_hashingENSC_20_Default_ranged_hashENSC_20_Prime_rehash_policyENSC_17_Hashtable_traitsILb1ELb0ELb1EEEE19_M_allocate_bucketsEm(ptr noundef nonnull align 8 dereferenceable(56) %this, i64 noundef %__bkt_count) #1 comdat align 2 {
entry:
  %retval = alloca ptr, align 8
  %this.addr = alloca ptr, align 8
  %__bkt_count.addr = alloca i64, align 8
  store ptr %this, ptr %this.addr, align 8
  store i64 %__bkt_count, ptr %__bkt_count.addr, align 8
  %this1 = load ptr, ptr %this.addr, align 8
  %0 = load i64, ptr %__bkt_count.addr, align 8
  %cmp = icmp eq i64 %0, 1
  br i1 %cmp, label %if.then, label %if.end

if.then:                                          ; preds = %entry
  %_M_single_bucket = getelementptr inbounds %"class.std::_Hashtable", ptr %this1, i32 0, i32 5
  store ptr null, ptr %_M_single_bucket, align 8
  %_M_single_bucket2 = getelementptr inbounds %"class.std::_Hashtable", ptr %this1, i32 0, i32 5
  store ptr %_M_single_bucket2, ptr %retval, align 8
  br label %return

if.end:                                           ; preds = %entry
  %1 = load i64, ptr %__bkt_count.addr, align 8
  %call = call noundef ptr @_ZNSt8__detail16_Hashtable_allocISaINS_10_Hash_nodeISt4pairIKNSt7__cxx1112basic_stringIcSt11char_traitsIcESaIcEEEN7rocksdb14OptionTypeInfoEELb1EEEEE19_M_allocate_bucketsEm(ptr noundef nonnull align 1 dereferenceable(1) %this1, i64 noundef %1)
  store ptr %call, ptr %retval, align 8
  br label %return

return:                                           ; preds = %if.end, %if.then
  %2 = load ptr, ptr %retval, align 8
  ret ptr %2
}

; Function Attrs: mustprogress uwtable
define linkonce_odr void @_ZNSt8__detail15_Hashtable_baseINSt7__cxx1112basic_stringIcSt11char_traitsIcESaIcEEESt4pairIKS6_N7rocksdb14OptionTypeInfoEENS_10_Select1stESt8equal_toIS6_ESt4hashIS6_ENS_18_Mod_range_hashingENS_20_Default_ranged_hashENS_17_Hashtable_traitsILb1ELb0ELb1EEEEC2ERKSG_RKSE_(ptr noundef nonnull align 1 dereferenceable(1) %this, ptr noundef nonnull align 1 dereferenceable(1) %__hash, ptr noundef nonnull align 1 dereferenceable(1) %__eq) unnamed_addr #1 comdat align 2 {
entry:
  %this.addr = alloca ptr, align 8
  %__hash.addr = alloca ptr, align 8
  %__eq.addr = alloca ptr, align 8
  store ptr %this, ptr %this.addr, align 8
  store ptr %__hash, ptr %__hash.addr, align 8
  store ptr %__eq, ptr %__eq.addr, align 8
  %this1 = load ptr, ptr %this.addr, align 8
  %0 = load ptr, ptr %__hash.addr, align 8
  call void @_ZNSt8__detail15_Hash_code_baseINSt7__cxx1112basic_stringIcSt11char_traitsIcESaIcEEESt4pairIKS6_N7rocksdb14OptionTypeInfoEENS_10_Select1stESt4hashIS6_ENS_18_Mod_range_hashingENS_20_Default_ranged_hashELb1EEC2ERKSE_(ptr noundef nonnull align 1 dereferenceable(1) %this1, ptr noundef nonnull align 1 dereferenceable(1) %0)
  %1 = load ptr, ptr %__eq.addr, align 8
  call void @_ZNSt8__detail21_Hashtable_ebo_helperILi0ESt8equal_toINSt7__cxx1112basic_stringIcSt11char_traitsIcESaIcEEEELb1EEC2IRKS8_EEOT_(ptr noundef nonnull align 1 dereferenceable(1) %this1, ptr noundef nonnull align 1 dereferenceable(1) %1)
  ret void
}

; Function Attrs: mustprogress nounwind uwtable
define linkonce_odr void @_ZNSaINSt8__detail10_Hash_nodeISt4pairIKNSt7__cxx1112basic_stringIcSt11char_traitsIcESaIcEEEN7rocksdb14OptionTypeInfoEELb1EEEEC2ISB_EERKSaIT_E(ptr noundef nonnull align 1 dereferenceable(1) %this, ptr noundef nonnull align 1 dereferenceable(1) %0) unnamed_addr #2 comdat align 2 {
entry:
  %this.addr = alloca ptr, align 8
  %.addr = alloca ptr, align 8
  store ptr %this, ptr %this.addr, align 8
  store ptr %0, ptr %.addr, align 8
  %this1 = load ptr, ptr %this.addr, align 8
  call void @_ZNSt15__new_allocatorINSt8__detail10_Hash_nodeISt4pairIKNSt7__cxx1112basic_stringIcSt11char_traitsIcESaIcEEEN7rocksdb14OptionTypeInfoEELb1EEEEC2Ev(ptr noundef nonnull align 1 dereferenceable(1) %this1) #3
  ret void
}

; Function Attrs: mustprogress uwtable
define linkonce_odr void @_ZNSt8__detail16_Hashtable_allocISaINS_10_Hash_nodeISt4pairIKNSt7__cxx1112basic_stringIcSt11char_traitsIcESaIcEEEN7rocksdb14OptionTypeInfoEELb1EEEEEC2ISE_EEOT_(ptr noundef nonnull align 1 dereferenceable(1) %this, ptr noundef nonnull align 1 dereferenceable(1) %__a) unnamed_addr #1 comdat align 2 {
entry:
  %this.addr = alloca ptr, align 8
  %__a.addr = alloca ptr, align 8
  store ptr %this, ptr %this.addr, align 8
  store ptr %__a, ptr %__a.addr, align 8
  %this1 = load ptr, ptr %this.addr, align 8
  %0 = load ptr, ptr %__a.addr, align 8
  call void @_ZNSt8__detail21_Hashtable_ebo_helperILi0ESaINS_10_Hash_nodeISt4pairIKNSt7__cxx1112basic_stringIcSt11char_traitsIcESaIcEEEN7rocksdb14OptionTypeInfoEELb1EEEELb1EEC2ISE_EEOT_(ptr noundef nonnull align 1 dereferenceable(1) %this1, ptr noundef nonnull align 1 dereferenceable(1) %0)
  ret void
}

; Function Attrs: mustprogress nounwind uwtable
define linkonce_odr void @_ZNSaINSt8__detail10_Hash_nodeISt4pairIKNSt7__cxx1112basic_stringIcSt11char_traitsIcESaIcEEEN7rocksdb14OptionTypeInfoEELb1EEEED2Ev(ptr noundef nonnull align 1 dereferenceable(1) %this) unnamed_addr #2 comdat align 2 {
entry:
  %this.addr = alloca ptr, align 8
  store ptr %this, ptr %this.addr, align 8
  %this1 = load ptr, ptr %this.addr, align 8
  call void @_ZNSt15__new_allocatorINSt8__detail10_Hash_nodeISt4pairIKNSt7__cxx1112basic_stringIcSt11char_traitsIcESaIcEEEN7rocksdb14OptionTypeInfoEELb1EEEED2Ev(ptr noundef nonnull align 1 dereferenceable(1) %this1) #3
  ret void
}

; Function Attrs: mustprogress nounwind uwtable
define linkonce_odr void @_ZNSt27_Enable_default_constructorILb1ENSt8__detail15_Hash_node_baseEEC2ESt31_Enable_default_constructor_tag(ptr noundef nonnull align 1 dereferenceable(1) %this) unnamed_addr #2 comdat align 2 {
entry:
  %this.addr = alloca ptr, align 8
  store ptr %this, ptr %this.addr, align 8
  ret void
}

; Function Attrs: mustprogress nounwind uwtable
define linkonce_odr void @_ZNSt8__detail15_Hash_node_baseC2Ev(ptr noundef nonnull align 8 dereferenceable(8) %this) unnamed_addr #2 comdat align 2 {
entry:
  %this.addr = alloca ptr, align 8
  store ptr %this, ptr %this.addr, align 8
  %this1 = load ptr, ptr %this.addr, align 8
  %_M_nxt = getelementptr inbounds %"struct.std::__detail::_Hash_node_base", ptr %this1, i32 0, i32 0
  store ptr null, ptr %_M_nxt, align 8
  ret void
}

; Function Attrs: mustprogress nounwind uwtable
define linkonce_odr void @_ZNSt8__detail20_Prime_rehash_policyC2Ef(ptr noundef nonnull align 8 dereferenceable(16) %this, float noundef %__z) unnamed_addr #2 comdat align 2 {
entry:
  %this.addr = alloca ptr, align 8
  %__z.addr = alloca float, align 4
  store ptr %this, ptr %this.addr, align 8
  store float %__z, ptr %__z.addr, align 4
  %this1 = load ptr, ptr %this.addr, align 8
  %_M_max_load_factor = getelementptr inbounds %"struct.std::__detail::_Prime_rehash_policy", ptr %this1, i32 0, i32 0
  %0 = load float, ptr %__z.addr, align 4
  store float %0, ptr %_M_max_load_factor, align 8
  %_M_next_resize = getelementptr inbounds %"struct.std::__detail::_Prime_rehash_policy", ptr %this1, i32 0, i32 1
  store i64 0, ptr %_M_next_resize, align 8
  ret void
}

; Function Attrs: mustprogress uwtable
define linkonce_odr void @_ZNSt8__detail15_Hash_code_baseINSt7__cxx1112basic_stringIcSt11char_traitsIcESaIcEEESt4pairIKS6_N7rocksdb14OptionTypeInfoEENS_10_Select1stESt4hashIS6_ENS_18_Mod_range_hashingENS_20_Default_ranged_hashELb1EEC2ERKSE_(ptr noundef nonnull align 1 dereferenceable(1) %this, ptr noundef nonnull align 1 dereferenceable(1) %__hash) unnamed_addr #1 comdat align 2 {
entry:
  %this.addr = alloca ptr, align 8
  %__hash.addr = alloca ptr, align 8
  store ptr %this, ptr %this.addr, align 8
  store ptr %__hash, ptr %__hash.addr, align 8
  %this1 = load ptr, ptr %this.addr, align 8
  %0 = load ptr, ptr %__hash.addr, align 8
  call void @_ZNSt8__detail21_Hashtable_ebo_helperILi1ESt4hashINSt7__cxx1112basic_stringIcSt11char_traitsIcESaIcEEEELb1EEC2IRKS8_EEOT_(ptr noundef nonnull align 1 dereferenceable(1) %this1, ptr noundef nonnull align 1 dereferenceable(1) %0)
  ret void
}

; Function Attrs: mustprogress nounwind uwtable
define linkonce_odr void @_ZNSt8__detail21_Hashtable_ebo_helperILi0ESt8equal_toINSt7__cxx1112basic_stringIcSt11char_traitsIcESaIcEEEELb1EEC2IRKS8_EEOT_(ptr noundef nonnull align 1 dereferenceable(1) %this, ptr noundef nonnull align 1 dereferenceable(1) %__tp) unnamed_addr #2 comdat align 2 {
entry:
  %this.addr = alloca ptr, align 8
  %__tp.addr = alloca ptr, align 8
  store ptr %this, ptr %this.addr, align 8
  store ptr %__tp, ptr %__tp.addr, align 8
  ret void
}

; Function Attrs: mustprogress nounwind uwtable
define linkonce_odr void @_ZNSt8__detail21_Hashtable_ebo_helperILi1ESt4hashINSt7__cxx1112basic_stringIcSt11char_traitsIcESaIcEEEELb1EEC2IRKS8_EEOT_(ptr noundef nonnull align 1 dereferenceable(1) %this, ptr noundef nonnull align 1 dereferenceable(1) %__tp) unnamed_addr #2 comdat align 2 {
entry:
  %this.addr = alloca ptr, align 8
  %__tp.addr = alloca ptr, align 8
  store ptr %this, ptr %this.addr, align 8
  store ptr %__tp, ptr %__tp.addr, align 8
  ret void
}

; Function Attrs: mustprogress nounwind uwtable
define linkonce_odr void @_ZNSt15__new_allocatorINSt8__detail10_Hash_nodeISt4pairIKNSt7__cxx1112basic_stringIcSt11char_traitsIcESaIcEEEN7rocksdb14OptionTypeInfoEELb1EEEEC2Ev(ptr noundef nonnull align 1 dereferenceable(1) %this) unnamed_addr #2 comdat align 2 {
entry:
  %this.addr = alloca ptr, align 8
  store ptr %this, ptr %this.addr, align 8
  ret void
}

; Function Attrs: mustprogress nounwind uwtable
define linkonce_odr void @_ZNSt8__detail21_Hashtable_ebo_helperILi0ESaINS_10_Hash_nodeISt4pairIKNSt7__cxx1112basic_stringIcSt11char_traitsIcESaIcEEEN7rocksdb14OptionTypeInfoEELb1EEEELb1EEC2ISE_EEOT_(ptr noundef nonnull align 1 dereferenceable(1) %this, ptr noundef nonnull align 1 dereferenceable(1) %__tp) unnamed_addr #2 comdat align 2 {
entry:
  %this.addr = alloca ptr, align 8
  %__tp.addr = alloca ptr, align 8
  store ptr %this, ptr %this.addr, align 8
  store ptr %__tp, ptr %__tp.addr, align 8
  %this1 = load ptr, ptr %this.addr, align 8
  %0 = load ptr, ptr %__tp.addr, align 8
  call void @_ZNSaINSt8__detail10_Hash_nodeISt4pairIKNSt7__cxx1112basic_stringIcSt11char_traitsIcESaIcEEEN7rocksdb14OptionTypeInfoEELb1EEEEC2ERKSD_(ptr noundef nonnull align 1 dereferenceable(1) %this1, ptr noundef nonnull align 1 dereferenceable(1) %0) #3
  ret void
}

; Function Attrs: mustprogress nounwind uwtable
define linkonce_odr void @_ZNSaINSt8__detail10_Hash_nodeISt4pairIKNSt7__cxx1112basic_stringIcSt11char_traitsIcESaIcEEEN7rocksdb14OptionTypeInfoEELb1EEEEC2ERKSD_(ptr noundef nonnull align 1 dereferenceable(1) %this, ptr noundef nonnull align 1 dereferenceable(1) %__a) unnamed_addr #2 comdat align 2 {
entry:
  %this.addr = alloca ptr, align 8
  %__a.addr = alloca ptr, align 8
  store ptr %this, ptr %this.addr, align 8
  store ptr %__a, ptr %__a.addr, align 8
  %this1 = load ptr, ptr %this.addr, align 8
  %0 = load ptr, ptr %__a.addr, align 8
  call void @_ZNSt15__new_allocatorINSt8__detail10_Hash_nodeISt4pairIKNSt7__cxx1112basic_stringIcSt11char_traitsIcESaIcEEEN7rocksdb14OptionTypeInfoEELb1EEEEC2ERKSE_(ptr noundef nonnull align 1 dereferenceable(1) %this1, ptr noundef nonnull align 1 dereferenceable(1) %0) #3
  ret void
}

; Function Attrs: mustprogress nounwind uwtable
define linkonce_odr void @_ZNSt15__new_allocatorINSt8__detail10_Hash_nodeISt4pairIKNSt7__cxx1112basic_stringIcSt11char_traitsIcESaIcEEEN7rocksdb14OptionTypeInfoEELb1EEEEC2ERKSE_(ptr noundef nonnull align 1 dereferenceable(1) %this, ptr noundef nonnull align 1 dereferenceable(1) %0) unnamed_addr #2 comdat align 2 {
entry:
  %this.addr = alloca ptr, align 8
  %.addr = alloca ptr, align 8
  store ptr %this, ptr %this.addr, align 8
  store ptr %0, ptr %.addr, align 8
  ret void
}

; Function Attrs: mustprogress uwtable
define linkonce_odr noundef ptr @_ZNSt8__detail16_Hashtable_allocISaINS_10_Hash_nodeISt4pairIKNSt7__cxx1112basic_stringIcSt11char_traitsIcESaIcEEEN7rocksdb14OptionTypeInfoEELb1EEEEE19_M_allocate_bucketsEm(ptr noundef nonnull align 1 dereferenceable(1) %this, i64 noundef %__bkt_count) #1 comdat align 2 personality ptr @__gxx_personality_v0 {
entry:
  %this.addr = alloca ptr, align 8
  %__bkt_count.addr = alloca i64, align 8
  %__alloc = alloca %"class.std::allocator.24", align 1
  %__ptr = alloca ptr, align 8
  %exn.slot = alloca ptr, align 8
  %ehselector.slot = alloca i32, align 4
  %__p = alloca ptr, align 8
  store ptr %this, ptr %this.addr, align 8
  store i64 %__bkt_count, ptr %__bkt_count.addr, align 8
  %this1 = load ptr, ptr %this.addr, align 8
  %call = call noundef nonnull align 1 dereferenceable(1) ptr @_ZNSt8__detail16_Hashtable_allocISaINS_10_Hash_nodeISt4pairIKNSt7__cxx1112basic_stringIcSt11char_traitsIcESaIcEEEN7rocksdb14OptionTypeInfoEELb1EEEEE17_M_node_allocatorEv(ptr noundef nonnull align 1 dereferenceable(1) %this1)
  call void @_ZNSaIPNSt8__detail15_Hash_node_baseEEC2INS_10_Hash_nodeISt4pairIKNSt7__cxx1112basic_stringIcSt11char_traitsIcESaIcEEEN7rocksdb14OptionTypeInfoEELb1EEEEERKSaIT_E(ptr noundef nonnull align 1 dereferenceable(1) %__alloc, ptr noundef nonnull align 1 dereferenceable(1) %call) #3
  %0 = load i64, ptr %__bkt_count.addr, align 8
  %call2 = invoke noundef ptr @_ZNSt16allocator_traitsISaIPNSt8__detail15_Hash_node_baseEEE8allocateERS3_m(ptr noundef nonnull align 1 dereferenceable(1) %__alloc, i64 noundef %0)
          to label %invoke.cont unwind label %lpad

invoke.cont:                                      ; preds = %entry
  store ptr %call2, ptr %__ptr, align 8
  %1 = load ptr, ptr %__ptr, align 8
  %call3 = call noundef ptr @_ZSt12__to_addressIPNSt8__detail15_Hash_node_baseEEPT_S4_(ptr noundef %1) #3
  store ptr %call3, ptr %__p, align 8
  %2 = load ptr, ptr %__p, align 8
  %3 = load i64, ptr %__bkt_count.addr, align 8
  %mul = mul i64 %3, 8
  call void @llvm.memset.p0.i64(ptr align 8 %2, i8 0, i64 %mul, i1 false)
  %4 = load ptr, ptr %__p, align 8
  call void @_ZNSaIPNSt8__detail15_Hash_node_baseEED2Ev(ptr noundef nonnull align 1 dereferenceable(1) %__alloc) #3
  ret ptr %4

lpad:                                             ; preds = %entry
  %5 = landingpad { ptr, i32 }
          cleanup
  %6 = extractvalue { ptr, i32 } %5, 0
  store ptr %6, ptr %exn.slot, align 8
  %7 = extractvalue { ptr, i32 } %5, 1
  store i32 %7, ptr %ehselector.slot, align 4
  call void @_ZNSaIPNSt8__detail15_Hash_node_baseEED2Ev(ptr noundef nonnull align 1 dereferenceable(1) %__alloc) #3
  br label %eh.resume

eh.resume:                                        ; preds = %lpad
  %exn = load ptr, ptr %exn.slot, align 8
  %sel = load i32, ptr %ehselector.slot, align 4
  %lpad.val = insertvalue { ptr, i32 } poison, ptr %exn, 0
  %lpad.val4 = insertvalue { ptr, i32 } %lpad.val, i32 %sel, 1
  resume { ptr, i32 } %lpad.val4
}

; Function Attrs: mustprogress uwtable
define linkonce_odr noundef ptr @_ZNSt16allocator_traitsISaIPNSt8__detail15_Hash_node_baseEEE8allocateERS3_m(ptr noundef nonnull align 1 dereferenceable(1) %__a, i64 noundef %__n) #1 comdat align 2 {
entry:
  %__a.addr = alloca ptr, align 8
  %__n.addr = alloca i64, align 8
  store ptr %__a, ptr %__a.addr, align 8
  store i64 %__n, ptr %__n.addr, align 8
  %0 = load ptr, ptr %__a.addr, align 8
  %1 = load i64, ptr %__n.addr, align 8
  %call = call noundef ptr @_ZNSt15__new_allocatorIPNSt8__detail15_Hash_node_baseEE8allocateEmPKv(ptr noundef nonnull align 1 dereferenceable(1) %0, i64 noundef %1, ptr noundef null)
  ret ptr %call
}

; Function Attrs: mustprogress nounwind uwtable
define linkonce_odr noundef ptr @_ZSt12__to_addressIPNSt8__detail15_Hash_node_baseEEPT_S4_(ptr noundef %__ptr) #2 comdat {
entry:
  %__ptr.addr = alloca ptr, align 8
  store ptr %__ptr, ptr %__ptr.addr, align 8
  %0 = load ptr, ptr %__ptr.addr, align 8
  ret ptr %0
}

; Function Attrs: mustprogress uwtable
define linkonce_odr noundef ptr @_ZNSt15__new_allocatorIPNSt8__detail15_Hash_node_baseEE8allocateEmPKv(ptr noundef nonnull align 1 dereferenceable(1) %this, i64 noundef %__n, ptr noundef %0) #1 comdat align 2 {
entry:
  %this.addr = alloca ptr, align 8
  %__n.addr = alloca i64, align 8
  %.addr = alloca ptr, align 8
  store ptr %this, ptr %this.addr, align 8
  store i64 %__n, ptr %__n.addr, align 8
  store ptr %0, ptr %.addr, align 8
  %this1 = load ptr, ptr %this.addr, align 8
  %1 = load i64, ptr %__n.addr, align 8
  %call = call noundef i64 @_ZNKSt15__new_allocatorIPNSt8__detail15_Hash_node_baseEE11_M_max_sizeEv(ptr noundef nonnull align 1 dereferenceable(1) %this1) #3
  %cmp = icmp ugt i64 %1, %call
  br i1 %cmp, label %if.then, label %if.end4

if.then:                                          ; preds = %entry
  %2 = load i64, ptr %__n.addr, align 8
  %cmp2 = icmp ugt i64 %2, 2305843009213693951
  br i1 %cmp2, label %if.then3, label %if.end

if.then3:                                         ; preds = %if.then
  call void @_ZSt28__throw_bad_array_new_lengthv() #15
  unreachable

if.end:                                           ; preds = %if.then
  call void @_ZSt17__throw_bad_allocv() #15
  unreachable

if.end4:                                          ; preds = %entry
  %3 = load i64, ptr %__n.addr, align 8
  %mul = mul i64 %3, 8
  %call5 = call noalias noundef nonnull ptr @_Znwm(i64 noundef %mul) #18
  ret ptr %call5
}

; Function Attrs: mustprogress nounwind uwtable
define linkonce_odr noundef i64 @_ZNKSt15__new_allocatorIPNSt8__detail15_Hash_node_baseEE11_M_max_sizeEv(ptr noundef nonnull align 1 dereferenceable(1) %this) #2 comdat align 2 {
entry:
  %this.addr = alloca ptr, align 8
  store ptr %this, ptr %this.addr, align 8
  ret i64 1152921504606846975
}

; Function Attrs: noreturn
declare void @_ZSt28__throw_bad_array_new_lengthv() #11

; Function Attrs: noreturn
declare void @_ZSt17__throw_bad_allocv() #11

; Function Attrs: nobuiltin allocsize(0)
declare noundef nonnull ptr @_Znwm(i64 noundef) #12

; Function Attrs: mustprogress nounwind uwtable
define linkonce_odr noundef nonnull align 8 dereferenceable(56) ptr @_ZNSt8__detail12_Insert_baseINSt7__cxx1112basic_stringIcSt11char_traitsIcESaIcEEESt4pairIKS6_N7rocksdb14OptionTypeInfoEESaISB_ENS_10_Select1stESt8equal_toIS6_ESt4hashIS6_ENS_18_Mod_range_hashingENS_20_Default_ranged_hashENS_20_Prime_rehash_policyENS_17_Hashtable_traitsILb1ELb0ELb1EEEE20_M_conjure_hashtableEv(ptr noundef nonnull align 1 dereferenceable(1) %this) #2 comdat align 2 {
entry:
  %this.addr = alloca ptr, align 8
  store ptr %this, ptr %this.addr, align 8
  %this1 = load ptr, ptr %this.addr, align 8
  ret ptr %this1
}

; Function Attrs: mustprogress nounwind uwtable
define linkonce_odr void @_ZNSt8__detail10_AllocNodeISaINS_10_Hash_nodeISt4pairIKNSt7__cxx1112basic_stringIcSt11char_traitsIcESaIcEEEN7rocksdb14OptionTypeInfoEELb1EEEEEC2ERNS_16_Hashtable_allocISE_EE(ptr noundef nonnull align 8 dereferenceable(8) %this, ptr noundef nonnull align 1 dereferenceable(1) %__h) unnamed_addr #2 comdat align 2 {
entry:
  %this.addr = alloca ptr, align 8
  %__h.addr = alloca ptr, align 8
  store ptr %this, ptr %this.addr, align 8
  store ptr %__h, ptr %__h.addr, align 8
  %this1 = load ptr, ptr %this.addr, align 8
  %_M_h = getelementptr inbounds %"struct.std::__detail::_AllocNode", ptr %this1, i32 0, i32 0
  %0 = load ptr, ptr %__h.addr, align 8
  store ptr %0, ptr %_M_h, align 8
  ret void
}

; Function Attrs: mustprogress uwtable
define linkonce_odr { ptr, i8 } @_ZNSt10_HashtableINSt7__cxx1112basic_stringIcSt11char_traitsIcESaIcEEESt4pairIKS5_N7rocksdb14OptionTypeInfoEESaISA_ENSt8__detail10_Select1stESt8equal_toIS5_ESt4hashIS5_ENSC_18_Mod_range_hashingENSC_20_Default_ranged_hashENSC_20_Prime_rehash_policyENSC_17_Hashtable_traitsILb1ELb0ELb1EEEE9_M_insertIRKSA_NSC_10_AllocNodeISaINSC_10_Hash_nodeISA_Lb1EEEEEEEES6_INSC_14_Node_iteratorISA_Lb0ELb1EEEbEOT_RKT0_St17integral_constantIbLb1EE(ptr noundef nonnull align 8 dereferenceable(56) %this, ptr noundef nonnull align 8 dereferenceable(216) %__arg, ptr noundef nonnull align 8 dereferenceable(8) %__node_gen) #1 comdat align 2 {
entry:
  %retval = alloca %"struct.std::pair.29", align 8
  %this.addr = alloca ptr, align 8
  %__arg.addr = alloca ptr, align 8
  %__node_gen.addr = alloca ptr, align 8
  %ref.tmp = alloca %"struct.std::__detail::_Select1st", align 1
  store ptr %this, ptr %this.addr, align 8
  store ptr %__arg, ptr %__arg.addr, align 8
  store ptr %__node_gen, ptr %__node_gen.addr, align 8
  %this1 = load ptr, ptr %this.addr, align 8
  %0 = load ptr, ptr %__arg.addr, align 8
  %call = call noundef nonnull align 8 dereferenceable(32) ptr @_ZNKSt8__detail10_Select1stclIRKSt4pairIKNSt7__cxx1112basic_stringIcSt11char_traitsIcESaIcEEEN7rocksdb14OptionTypeInfoEEEEONS0_10__1st_typeIT_E4typeEOSG_(ptr noundef nonnull align 1 dereferenceable(1) %ref.tmp, ptr noundef nonnull align 8 dereferenceable(216) %0) #3
  %call2 = call noundef nonnull align 8 dereferenceable(32) ptr @_ZNSt10_HashtableINSt7__cxx1112basic_stringIcSt11char_traitsIcESaIcEEESt4pairIKS5_N7rocksdb14OptionTypeInfoEESaISA_ENSt8__detail10_Select1stESt8equal_toIS5_ESt4hashIS5_ENSC_18_Mod_range_hashingENSC_20_Default_ranged_hashENSC_20_Prime_rehash_policyENSC_17_Hashtable_traitsILb1ELb0ELb1EEEE14_S_forward_keyERS7_(ptr noundef nonnull align 8 dereferenceable(32) %call)
  %1 = load ptr, ptr %__arg.addr, align 8
  %2 = load ptr, ptr %__node_gen.addr, align 8
  %call3 = call { ptr, i8 } @_ZNSt10_HashtableINSt7__cxx1112basic_stringIcSt11char_traitsIcESaIcEEESt4pairIKS5_N7rocksdb14OptionTypeInfoEESaISA_ENSt8__detail10_Select1stESt8equal_toIS5_ESt4hashIS5_ENSC_18_Mod_range_hashingENSC_20_Default_ranged_hashENSC_20_Prime_rehash_policyENSC_17_Hashtable_traitsILb1ELb0ELb1EEEE16_M_insert_uniqueIRS7_RKSA_NSC_10_AllocNodeISaINSC_10_Hash_nodeISA_Lb1EEEEEEEES6_INSC_14_Node_iteratorISA_Lb0ELb1EEEbEOT_OT0_RKT1_(ptr noundef nonnull align 8 dereferenceable(56) %this1, ptr noundef nonnull align 8 dereferenceable(32) %call2, ptr noundef nonnull align 8 dereferenceable(216) %1, ptr noundef nonnull align 8 dereferenceable(8) %2)
  %3 = getelementptr inbounds { ptr, i8 }, ptr %retval, i32 0, i32 0
  %4 = extractvalue { ptr, i8 } %call3, 0
  store ptr %4, ptr %3, align 8
  %5 = getelementptr inbounds { ptr, i8 }, ptr %retval, i32 0, i32 1
  %6 = extractvalue { ptr, i8 } %call3, 1
  store i8 %6, ptr %5, align 8
  %7 = load { ptr, i8 }, ptr %retval, align 8
  ret { ptr, i8 } %7
}

; Function Attrs: mustprogress uwtable
define linkonce_odr { ptr, i8 } @_ZNSt10_HashtableINSt7__cxx1112basic_stringIcSt11char_traitsIcESaIcEEESt4pairIKS5_N7rocksdb14OptionTypeInfoEESaISA_ENSt8__detail10_Select1stESt8equal_toIS5_ESt4hashIS5_ENSC_18_Mod_range_hashingENSC_20_Default_ranged_hashENSC_20_Prime_rehash_policyENSC_17_Hashtable_traitsILb1ELb0ELb1EEEE16_M_insert_uniqueIRS7_RKSA_NSC_10_AllocNodeISaINSC_10_Hash_nodeISA_Lb1EEEEEEEES6_INSC_14_Node_iteratorISA_Lb0ELb1EEEbEOT_OT0_RKT1_(ptr noundef nonnull align 8 dereferenceable(56) %this, ptr noundef nonnull align 8 dereferenceable(32) %__k, ptr noundef nonnull align 8 dereferenceable(216) %__v, ptr noundef nonnull align 8 dereferenceable(8) %__node_gen) #1 comdat align 2 personality ptr @__gxx_personality_v0 {
entry:
  %retval = alloca %"struct.std::pair.29", align 8
  %this.addr = alloca ptr, align 8
  %__k.addr = alloca ptr, align 8
  %__v.addr = alloca ptr, align 8
  %__node_gen.addr = alloca ptr, align 8
  %__it = alloca %"struct.std::__detail::_Node_iterator", align 8
  %ref.tmp = alloca %"struct.std::__detail::_Node_iterator", align 8
  %ref.tmp11 = alloca i8, align 1
  %__code = alloca i64, align 8
  %__bkt = alloca i64, align 8
  %__node = alloca ptr, align 8
  %ref.tmp22 = alloca %"struct.std::__detail::_Node_iterator", align 8
  %ref.tmp23 = alloca i8, align 1
  %__node26 = alloca %"struct.std::_Hashtable<std::__cxx11::basic_string<char>, std::pair<const std::__cxx11::basic_string<char>, rocksdb::OptionTypeInfo>, std::allocator<std::pair<const std::__cxx11::basic_string<char>, rocksdb::OptionTypeInfo>>, std::__detail::_Select1st, std::equal_to<std::__cxx11::basic_string<char>>, std::hash<string>, std::__detail::_Mod_range_hashing, std::__detail::_Default_ranged_hash, std::__detail::_Prime_rehash_policy, std::__detail::_Hashtable_traits<true, false, true>>::_Scoped_node", align 8
  %__pos = alloca %"struct.std::__detail::_Node_iterator", align 8
  %exn.slot = alloca ptr, align 8
  %ehselector.slot = alloca i32, align 4
  %ref.tmp32 = alloca i8, align 1
  store ptr %this, ptr %this.addr, align 8
  store ptr %__k, ptr %__k.addr, align 8
  store ptr %__v, ptr %__v.addr, align 8
  store ptr %__node_gen, ptr %__node_gen.addr, align 8
  %this1 = load ptr, ptr %this.addr, align 8
  %call = call noundef i64 @_ZNKSt10_HashtableINSt7__cxx1112basic_stringIcSt11char_traitsIcESaIcEEESt4pairIKS5_N7rocksdb14OptionTypeInfoEESaISA_ENSt8__detail10_Select1stESt8equal_toIS5_ESt4hashIS5_ENSC_18_Mod_range_hashingENSC_20_Default_ranged_hashENSC_20_Prime_rehash_policyENSC_17_Hashtable_traitsILb1ELb0ELb1EEEE4sizeEv(ptr noundef nonnull align 8 dereferenceable(56) %this1) #3
  %call2 = call noundef i64 @_ZNSt10_HashtableINSt7__cxx1112basic_stringIcSt11char_traitsIcESaIcEEESt4pairIKS5_N7rocksdb14OptionTypeInfoEESaISA_ENSt8__detail10_Select1stESt8equal_toIS5_ESt4hashIS5_ENSC_18_Mod_range_hashingENSC_20_Default_ranged_hashENSC_20_Prime_rehash_policyENSC_17_Hashtable_traitsILb1ELb0ELb1EEEE22__small_size_thresholdEv() #3
  %cmp = icmp ule i64 %call, %call2
  br i1 %cmp, label %if.then, label %if.end13

if.then:                                          ; preds = %entry
  %call3 = call ptr @_ZNSt10_HashtableINSt7__cxx1112basic_stringIcSt11char_traitsIcESaIcEEESt4pairIKS5_N7rocksdb14OptionTypeInfoEESaISA_ENSt8__detail10_Select1stESt8equal_toIS5_ESt4hashIS5_ENSC_18_Mod_range_hashingENSC_20_Default_ranged_hashENSC_20_Prime_rehash_policyENSC_17_Hashtable_traitsILb1ELb0ELb1EEEE5beginEv(ptr noundef nonnull align 8 dereferenceable(56) %this1) #3
  %coerce.dive = getelementptr inbounds %"struct.std::__detail::_Node_iterator", ptr %__it, i32 0, i32 0
  %coerce.dive4 = getelementptr inbounds %"struct.std::__detail::_Node_iterator_base", ptr %coerce.dive, i32 0, i32 0
  store ptr %call3, ptr %coerce.dive4, align 8
  br label %for.cond

for.cond:                                         ; preds = %for.inc, %if.then
  %call5 = call ptr @_ZNSt10_HashtableINSt7__cxx1112basic_stringIcSt11char_traitsIcESaIcEEESt4pairIKS5_N7rocksdb14OptionTypeInfoEESaISA_ENSt8__detail10_Select1stESt8equal_toIS5_ESt4hashIS5_ENSC_18_Mod_range_hashingENSC_20_Default_ranged_hashENSC_20_Prime_rehash_policyENSC_17_Hashtable_traitsILb1ELb0ELb1EEEE3endEv(ptr noundef nonnull align 8 dereferenceable(56) %this1) #3
  %coerce.dive6 = getelementptr inbounds %"struct.std::__detail::_Node_iterator", ptr %ref.tmp, i32 0, i32 0
  %coerce.dive7 = getelementptr inbounds %"struct.std::__detail::_Node_iterator_base", ptr %coerce.dive6, i32 0, i32 0
  store ptr %call5, ptr %coerce.dive7, align 8
  %call8 = call noundef zeroext i1 @_ZNSt8__detailneERKNS_19_Node_iterator_baseISt4pairIKNSt7__cxx1112basic_stringIcSt11char_traitsIcESaIcEEEN7rocksdb14OptionTypeInfoEELb1EEESE_(ptr noundef nonnull align 8 dereferenceable(8) %__it, ptr noundef nonnull align 8 dereferenceable(8) %ref.tmp) #3
  br i1 %call8, label %for.body, label %for.end

for.body:                                         ; preds = %for.cond
  %0 = load ptr, ptr %__k.addr, align 8
  %_M_cur = getelementptr inbounds %"struct.std::__detail::_Node_iterator_base", ptr %__it, i32 0, i32 0
  %1 = load ptr, ptr %_M_cur, align 8
  %add.ptr = getelementptr inbounds i8, ptr %1, i64 8
  %call9 = call noundef zeroext i1 @_ZNKSt8__detail15_Hashtable_baseINSt7__cxx1112basic_stringIcSt11char_traitsIcESaIcEEESt4pairIKS6_N7rocksdb14OptionTypeInfoEENS_10_Select1stESt8equal_toIS6_ESt4hashIS6_ENS_18_Mod_range_hashingENS_20_Default_ranged_hashENS_17_Hashtable_traitsILb1ELb0ELb1EEEE16_M_key_equals_trIS6_EEbRKT_RKNS_16_Hash_node_valueISB_Lb1EEE(ptr noundef nonnull align 1 dereferenceable(1) %this1, ptr noundef nonnull align 8 dereferenceable(32) %0, ptr noundef nonnull align 8 dereferenceable(224) %add.ptr)
  br i1 %call9, label %if.then10, label %if.end

if.then10:                                        ; preds = %for.body
  store i8 0, ptr %ref.tmp11, align 1
  call void @_ZNSt4pairINSt8__detail14_Node_iteratorIS_IKNSt7__cxx1112basic_stringIcSt11char_traitsIcESaIcEEEN7rocksdb14OptionTypeInfoEELb0ELb1EEEbEC2IRSC_bTnNSt9enable_ifIXaaclsr5_PCCPE22_MoveConstructiblePairIT_T0_EEclsr5_PCCPE30_ImplicitlyMoveConvertiblePairISH_SI_EEEbE4typeELb1EEEOSH_OSI_(ptr noundef nonnull align 8 dereferenceable(9) %retval, ptr noundef nonnull align 8 dereferenceable(8) %__it, ptr noundef nonnull align 1 dereferenceable(1) %ref.tmp11)
  br label %return

if.end:                                           ; preds = %for.body
  br label %for.inc

for.inc:                                          ; preds = %if.end
  %call12 = call noundef nonnull align 8 dereferenceable(8) ptr @_ZNSt8__detail14_Node_iteratorISt4pairIKNSt7__cxx1112basic_stringIcSt11char_traitsIcESaIcEEEN7rocksdb14OptionTypeInfoEELb0ELb1EEppEv(ptr noundef nonnull align 8 dereferenceable(8) %__it) #3
  br label %for.cond, !llvm.loop !8

for.end:                                          ; preds = %for.cond
  br label %if.end13

if.end13:                                         ; preds = %for.end, %entry
  %2 = load ptr, ptr %__k.addr, align 8
  %call14 = call noundef i64 @_ZNKSt8__detail15_Hash_code_baseINSt7__cxx1112basic_stringIcSt11char_traitsIcESaIcEEESt4pairIKS6_N7rocksdb14OptionTypeInfoEENS_10_Select1stESt4hashIS6_ENS_18_Mod_range_hashingENS_20_Default_ranged_hashELb1EE15_M_hash_code_trIS6_EEmRKT_(ptr noundef nonnull align 1 dereferenceable(1) %this1, ptr noundef nonnull align 8 dereferenceable(32) %2)
  store i64 %call14, ptr %__code, align 8
  %3 = load i64, ptr %__code, align 8
  %call15 = call noundef i64 @_ZNKSt10_HashtableINSt7__cxx1112basic_stringIcSt11char_traitsIcESaIcEEESt4pairIKS5_N7rocksdb14OptionTypeInfoEESaISA_ENSt8__detail10_Select1stESt8equal_toIS5_ESt4hashIS5_ENSC_18_Mod_range_hashingENSC_20_Default_ranged_hashENSC_20_Prime_rehash_policyENSC_17_Hashtable_traitsILb1ELb0ELb1EEEE15_M_bucket_indexEm(ptr noundef nonnull align 8 dereferenceable(56) %this1, i64 noundef %3)
  store i64 %call15, ptr %__bkt, align 8
  %call16 = call noundef i64 @_ZNKSt10_HashtableINSt7__cxx1112basic_stringIcSt11char_traitsIcESaIcEEESt4pairIKS5_N7rocksdb14OptionTypeInfoEESaISA_ENSt8__detail10_Select1stESt8equal_toIS5_ESt4hashIS5_ENSC_18_Mod_range_hashingENSC_20_Default_ranged_hashENSC_20_Prime_rehash_policyENSC_17_Hashtable_traitsILb1ELb0ELb1EEEE4sizeEv(ptr noundef nonnull align 8 dereferenceable(56) %this1) #3
  %call17 = call noundef i64 @_ZNSt10_HashtableINSt7__cxx1112basic_stringIcSt11char_traitsIcESaIcEEESt4pairIKS5_N7rocksdb14OptionTypeInfoEESaISA_ENSt8__detail10_Select1stESt8equal_toIS5_ESt4hashIS5_ENSC_18_Mod_range_hashingENSC_20_Default_ranged_hashENSC_20_Prime_rehash_policyENSC_17_Hashtable_traitsILb1ELb0ELb1EEEE22__small_size_thresholdEv() #3
  %cmp18 = icmp ugt i64 %call16, %call17
  br i1 %cmp18, label %if.then19, label %if.end25

if.then19:                                        ; preds = %if.end13
  %4 = load i64, ptr %__bkt, align 8
  %5 = load ptr, ptr %__k.addr, align 8
  %6 = load i64, ptr %__code, align 8
  %call20 = call noundef ptr @_ZNKSt10_HashtableINSt7__cxx1112basic_stringIcSt11char_traitsIcESaIcEEESt4pairIKS5_N7rocksdb14OptionTypeInfoEESaISA_ENSt8__detail10_Select1stESt8equal_toIS5_ESt4hashIS5_ENSC_18_Mod_range_hashingENSC_20_Default_ranged_hashENSC_20_Prime_rehash_policyENSC_17_Hashtable_traitsILb1ELb0ELb1EEEE15_M_find_node_trIS5_EEPNSC_10_Hash_nodeISA_Lb1EEEmRKT_m(ptr noundef nonnull align 8 dereferenceable(56) %this1, i64 noundef %4, ptr noundef nonnull align 8 dereferenceable(32) %5, i64 noundef %6)
  store ptr %call20, ptr %__node, align 8
  %7 = load ptr, ptr %__node, align 8
  %tobool = icmp ne ptr %7, null
  br i1 %tobool, label %if.then21, label %if.end24

if.then21:                                        ; preds = %if.then19
  %8 = load ptr, ptr %__node, align 8
  call void @_ZNSt8__detail14_Node_iteratorISt4pairIKNSt7__cxx1112basic_stringIcSt11char_traitsIcESaIcEEEN7rocksdb14OptionTypeInfoEELb0ELb1EEC2EPNS_10_Hash_nodeISB_Lb1EEE(ptr noundef nonnull align 8 dereferenceable(8) %ref.tmp22, ptr noundef %8) #3
  store i8 0, ptr %ref.tmp23, align 1
  call void @_ZNSt4pairINSt8__detail14_Node_iteratorIS_IKNSt7__cxx1112basic_stringIcSt11char_traitsIcESaIcEEEN7rocksdb14OptionTypeInfoEELb0ELb1EEEbEC2ISC_bTnNSt9enable_ifIXaaclsr5_PCCPE22_MoveConstructiblePairIT_T0_EEclsr5_PCCPE30_ImplicitlyMoveConvertiblePairISG_SH_EEEbE4typeELb1EEEOSG_OSH_(ptr noundef nonnull align 8 dereferenceable(9) %retval, ptr noundef nonnull align 8 dereferenceable(8) %ref.tmp22, ptr noundef nonnull align 1 dereferenceable(1) %ref.tmp23)
  br label %return

if.end24:                                         ; preds = %if.then19
  br label %if.end25

if.end25:                                         ; preds = %if.end24, %if.end13
  %9 = load ptr, ptr %__k.addr, align 8
  %10 = load ptr, ptr %__v.addr, align 8
  %11 = load ptr, ptr %__node_gen.addr, align 8
  %call27 = call noundef ptr @_ZNSt8__detail12_NodeBuilderINS_10_Select1stEE8_S_buildIRKNSt7__cxx1112basic_stringIcSt11char_traitsIcESaIcEEERKSt4pairISA_N7rocksdb14OptionTypeInfoEENS_10_AllocNodeISaINS_10_Hash_nodeISF_Lb1EEEEEEEEPNT1_11__node_typeEOT_OT0_RKSN_(ptr noundef nonnull align 8 dereferenceable(32) %9, ptr noundef nonnull align 8 dereferenceable(216) %10, ptr noundef nonnull align 8 dereferenceable(8) %11)
  call void @_ZNSt10_HashtableINSt7__cxx1112basic_stringIcSt11char_traitsIcESaIcEEESt4pairIKS5_N7rocksdb14OptionTypeInfoEESaISA_ENSt8__detail10_Select1stESt8equal_toIS5_ESt4hashIS5_ENSC_18_Mod_range_hashingENSC_20_Default_ranged_hashENSC_20_Prime_rehash_policyENSC_17_Hashtable_traitsILb1ELb0ELb1EEEE12_Scoped_nodeC2EPNSC_10_Hash_nodeISA_Lb1EEEPNSC_16_Hashtable_allocISaISQ_EEE(ptr noundef nonnull align 8 dereferenceable(16) %__node26, ptr noundef %call27, ptr noundef %this1)
  %12 = load i64, ptr %__bkt, align 8
  %13 = load i64, ptr %__code, align 8
  %_M_node = getelementptr inbounds %"struct.std::_Hashtable<std::__cxx11::basic_string<char>, std::pair<const std::__cxx11::basic_string<char>, rocksdb::OptionTypeInfo>, std::allocator<std::pair<const std::__cxx11::basic_string<char>, rocksdb::OptionTypeInfo>>, std::__detail::_Select1st, std::equal_to<std::__cxx11::basic_string<char>>, std::hash<string>, std::__detail::_Mod_range_hashing, std::__detail::_Default_ranged_hash, std::__detail::_Prime_rehash_policy, std::__detail::_Hashtable_traits<true, false, true>>::_Scoped_node", ptr %__node26, i32 0, i32 1
  %14 = load ptr, ptr %_M_node, align 8
  %call28 = invoke ptr @_ZNSt10_HashtableINSt7__cxx1112basic_stringIcSt11char_traitsIcESaIcEEESt4pairIKS5_N7rocksdb14OptionTypeInfoEESaISA_ENSt8__detail10_Select1stESt8equal_toIS5_ESt4hashIS5_ENSC_18_Mod_range_hashingENSC_20_Default_ranged_hashENSC_20_Prime_rehash_policyENSC_17_Hashtable_traitsILb1ELb0ELb1EEEE21_M_insert_unique_nodeEmmPNSC_10_Hash_nodeISA_Lb1EEEm(ptr noundef nonnull align 8 dereferenceable(56) %this1, i64 noundef %12, i64 noundef %13, ptr noundef %14, i64 noundef 1)
          to label %invoke.cont unwind label %lpad

invoke.cont:                                      ; preds = %if.end25
  %coerce.dive29 = getelementptr inbounds %"struct.std::__detail::_Node_iterator", ptr %__pos, i32 0, i32 0
  %coerce.dive30 = getelementptr inbounds %"struct.std::__detail::_Node_iterator_base", ptr %coerce.dive29, i32 0, i32 0
  store ptr %call28, ptr %coerce.dive30, align 8
  %_M_node31 = getelementptr inbounds %"struct.std::_Hashtable<std::__cxx11::basic_string<char>, std::pair<const std::__cxx11::basic_string<char>, rocksdb::OptionTypeInfo>, std::allocator<std::pair<const std::__cxx11::basic_string<char>, rocksdb::OptionTypeInfo>>, std::__detail::_Select1st, std::equal_to<std::__cxx11::basic_string<char>>, std::hash<string>, std::__detail::_Mod_range_hashing, std::__detail::_Default_ranged_hash, std::__detail::_Prime_rehash_policy, std::__detail::_Hashtable_traits<true, false, true>>::_Scoped_node", ptr %__node26, i32 0, i32 1
  store ptr null, ptr %_M_node31, align 8
  store i8 1, ptr %ref.tmp32, align 1
  invoke void @_ZNSt4pairINSt8__detail14_Node_iteratorIS_IKNSt7__cxx1112basic_stringIcSt11char_traitsIcESaIcEEEN7rocksdb14OptionTypeInfoEELb0ELb1EEEbEC2IRSC_bTnNSt9enable_ifIXaaclsr5_PCCPE22_MoveConstructiblePairIT_T0_EEclsr5_PCCPE30_ImplicitlyMoveConvertiblePairISH_SI_EEEbE4typeELb1EEEOSH_OSI_(ptr noundef nonnull align 8 dereferenceable(9) %retval, ptr noundef nonnull align 8 dereferenceable(8) %__pos, ptr noundef nonnull align 1 dereferenceable(1) %ref.tmp32)
          to label %invoke.cont33 unwind label %lpad

invoke.cont33:                                    ; preds = %invoke.cont
  call void @_ZNSt10_HashtableINSt7__cxx1112basic_stringIcSt11char_traitsIcESaIcEEESt4pairIKS5_N7rocksdb14OptionTypeInfoEESaISA_ENSt8__detail10_Select1stESt8equal_toIS5_ESt4hashIS5_ENSC_18_Mod_range_hashingENSC_20_Default_ranged_hashENSC_20_Prime_rehash_policyENSC_17_Hashtable_traitsILb1ELb0ELb1EEEE12_Scoped_nodeD2Ev(ptr noundef nonnull align 8 dereferenceable(16) %__node26) #3
  br label %return

lpad:                                             ; preds = %invoke.cont, %if.end25
  %15 = landingpad { ptr, i32 }
          cleanup
  %16 = extractvalue { ptr, i32 } %15, 0
  store ptr %16, ptr %exn.slot, align 8
  %17 = extractvalue { ptr, i32 } %15, 1
  store i32 %17, ptr %ehselector.slot, align 4
  call void @_ZNSt10_HashtableINSt7__cxx1112basic_stringIcSt11char_traitsIcESaIcEEESt4pairIKS5_N7rocksdb14OptionTypeInfoEESaISA_ENSt8__detail10_Select1stESt8equal_toIS5_ESt4hashIS5_ENSC_18_Mod_range_hashingENSC_20_Default_ranged_hashENSC_20_Prime_rehash_policyENSC_17_Hashtable_traitsILb1ELb0ELb1EEEE12_Scoped_nodeD2Ev(ptr noundef nonnull align 8 dereferenceable(16) %__node26) #3
  br label %eh.resume

return:                                           ; preds = %invoke.cont33, %if.then21, %if.then10
  %18 = load { ptr, i8 }, ptr %retval, align 8
  ret { ptr, i8 } %18

eh.resume:                                        ; preds = %lpad
  %exn = load ptr, ptr %exn.slot, align 8
  %sel = load i32, ptr %ehselector.slot, align 4
  %lpad.val = insertvalue { ptr, i32 } poison, ptr %exn, 0
  %lpad.val34 = insertvalue { ptr, i32 } %lpad.val, i32 %sel, 1
  resume { ptr, i32 } %lpad.val34
}

; Function Attrs: mustprogress nounwind uwtable
define linkonce_odr noundef nonnull align 8 dereferenceable(32) ptr @_ZNSt10_HashtableINSt7__cxx1112basic_stringIcSt11char_traitsIcESaIcEEESt4pairIKS5_N7rocksdb14OptionTypeInfoEESaISA_ENSt8__detail10_Select1stESt8equal_toIS5_ESt4hashIS5_ENSC_18_Mod_range_hashingENSC_20_Default_ranged_hashENSC_20_Prime_rehash_policyENSC_17_Hashtable_traitsILb1ELb0ELb1EEEE14_S_forward_keyERS7_(ptr noundef nonnull align 8 dereferenceable(32) %__k) #2 comdat align 2 {
entry:
  %__k.addr = alloca ptr, align 8
  store ptr %__k, ptr %__k.addr, align 8
  %0 = load ptr, ptr %__k.addr, align 8
  ret ptr %0
}

; Function Attrs: mustprogress nounwind uwtable
define linkonce_odr noundef nonnull align 8 dereferenceable(32) ptr @_ZNKSt8__detail10_Select1stclIRKSt4pairIKNSt7__cxx1112basic_stringIcSt11char_traitsIcESaIcEEEN7rocksdb14OptionTypeInfoEEEEONS0_10__1st_typeIT_E4typeEOSG_(ptr noundef nonnull align 1 dereferenceable(1) %this, ptr noundef nonnull align 8 dereferenceable(216) %__x) #2 comdat align 2 {
entry:
  %this.addr = alloca ptr, align 8
  %__x.addr = alloca ptr, align 8
  store ptr %this, ptr %this.addr, align 8
  store ptr %__x, ptr %__x.addr, align 8
  %0 = load ptr, ptr %__x.addr, align 8
  %first = getelementptr inbounds %"struct.std::pair", ptr %0, i32 0, i32 0
  ret ptr %first
}

; Function Attrs: mustprogress nounwind uwtable
define linkonce_odr noundef i64 @_ZNKSt10_HashtableINSt7__cxx1112basic_stringIcSt11char_traitsIcESaIcEEESt4pairIKS5_N7rocksdb14OptionTypeInfoEESaISA_ENSt8__detail10_Select1stESt8equal_toIS5_ESt4hashIS5_ENSC_18_Mod_range_hashingENSC_20_Default_ranged_hashENSC_20_Prime_rehash_policyENSC_17_Hashtable_traitsILb1ELb0ELb1EEEE4sizeEv(ptr noundef nonnull align 8 dereferenceable(56) %this) #2 comdat align 2 {
entry:
  %this.addr = alloca ptr, align 8
  store ptr %this, ptr %this.addr, align 8
  %this1 = load ptr, ptr %this.addr, align 8
  %_M_element_count = getelementptr inbounds %"class.std::_Hashtable", ptr %this1, i32 0, i32 3
  %0 = load i64, ptr %_M_element_count, align 8
  ret i64 %0
}

; Function Attrs: mustprogress nounwind uwtable
define linkonce_odr noundef i64 @_ZNSt10_HashtableINSt7__cxx1112basic_stringIcSt11char_traitsIcESaIcEEESt4pairIKS5_N7rocksdb14OptionTypeInfoEESaISA_ENSt8__detail10_Select1stESt8equal_toIS5_ESt4hashIS5_ENSC_18_Mod_range_hashingENSC_20_Default_ranged_hashENSC_20_Prime_rehash_policyENSC_17_Hashtable_traitsILb1ELb0ELb1EEEE22__small_size_thresholdEv() #2 comdat align 2 {
entry:
  %call = call noundef i64 @_ZNSt8__detail22_Hashtable_hash_traitsISt4hashINSt7__cxx1112basic_stringIcSt11char_traitsIcESaIcEEEEE22__small_size_thresholdEv() #3
  ret i64 %call
}

; Function Attrs: mustprogress nounwind uwtable
define linkonce_odr ptr @_ZNSt10_HashtableINSt7__cxx1112basic_stringIcSt11char_traitsIcESaIcEEESt4pairIKS5_N7rocksdb14OptionTypeInfoEESaISA_ENSt8__detail10_Select1stESt8equal_toIS5_ESt4hashIS5_ENSC_18_Mod_range_hashingENSC_20_Default_ranged_hashENSC_20_Prime_rehash_policyENSC_17_Hashtable_traitsILb1ELb0ELb1EEEE5beginEv(ptr noundef nonnull align 8 dereferenceable(56) %this) #2 comdat align 2 {
entry:
  %retval = alloca %"struct.std::__detail::_Node_iterator", align 8
  %this.addr = alloca ptr, align 8
  store ptr %this, ptr %this.addr, align 8
  %this1 = load ptr, ptr %this.addr, align 8
  %call = call noundef ptr @_ZNKSt10_HashtableINSt7__cxx1112basic_stringIcSt11char_traitsIcESaIcEEESt4pairIKS5_N7rocksdb14OptionTypeInfoEESaISA_ENSt8__detail10_Select1stESt8equal_toIS5_ESt4hashIS5_ENSC_18_Mod_range_hashingENSC_20_Default_ranged_hashENSC_20_Prime_rehash_policyENSC_17_Hashtable_traitsILb1ELb0ELb1EEEE8_M_beginEv(ptr noundef nonnull align 8 dereferenceable(56) %this1)
  call void @_ZNSt8__detail14_Node_iteratorISt4pairIKNSt7__cxx1112basic_stringIcSt11char_traitsIcESaIcEEEN7rocksdb14OptionTypeInfoEELb0ELb1EEC2EPNS_10_Hash_nodeISB_Lb1EEE(ptr noundef nonnull align 8 dereferenceable(8) %retval, ptr noundef %call) #3
  %coerce.dive = getelementptr inbounds %"struct.std::__detail::_Node_iterator", ptr %retval, i32 0, i32 0
  %coerce.dive2 = getelementptr inbounds %"struct.std::__detail::_Node_iterator_base", ptr %coerce.dive, i32 0, i32 0
  %0 = load ptr, ptr %coerce.dive2, align 8
  ret ptr %0
}

; Function Attrs: mustprogress nounwind uwtable
define linkonce_odr noundef zeroext i1 @_ZNSt8__detailneERKNS_19_Node_iterator_baseISt4pairIKNSt7__cxx1112basic_stringIcSt11char_traitsIcESaIcEEEN7rocksdb14OptionTypeInfoEELb1EEESE_(ptr noundef nonnull align 8 dereferenceable(8) %__x, ptr noundef nonnull align 8 dereferenceable(8) %__y) #2 comdat {
entry:
  %__x.addr = alloca ptr, align 8
  %__y.addr = alloca ptr, align 8
  store ptr %__x, ptr %__x.addr, align 8
  store ptr %__y, ptr %__y.addr, align 8
  %0 = load ptr, ptr %__x.addr, align 8
  %_M_cur = getelementptr inbounds %"struct.std::__detail::_Node_iterator_base", ptr %0, i32 0, i32 0
  %1 = load ptr, ptr %_M_cur, align 8
  %2 = load ptr, ptr %__y.addr, align 8
  %_M_cur1 = getelementptr inbounds %"struct.std::__detail::_Node_iterator_base", ptr %2, i32 0, i32 0
  %3 = load ptr, ptr %_M_cur1, align 8
  %cmp = icmp ne ptr %1, %3
  ret i1 %cmp
}

; Function Attrs: mustprogress nounwind uwtable
define linkonce_odr ptr @_ZNSt10_HashtableINSt7__cxx1112basic_stringIcSt11char_traitsIcESaIcEEESt4pairIKS5_N7rocksdb14OptionTypeInfoEESaISA_ENSt8__detail10_Select1stESt8equal_toIS5_ESt4hashIS5_ENSC_18_Mod_range_hashingENSC_20_Default_ranged_hashENSC_20_Prime_rehash_policyENSC_17_Hashtable_traitsILb1ELb0ELb1EEEE3endEv(ptr noundef nonnull align 8 dereferenceable(56) %this) #2 comdat align 2 {
entry:
  %retval = alloca %"struct.std::__detail::_Node_iterator", align 8
  %this.addr = alloca ptr, align 8
  store ptr %this, ptr %this.addr, align 8
  call void @_ZNSt8__detail14_Node_iteratorISt4pairIKNSt7__cxx1112basic_stringIcSt11char_traitsIcESaIcEEEN7rocksdb14OptionTypeInfoEELb0ELb1EEC2EPNS_10_Hash_nodeISB_Lb1EEE(ptr noundef nonnull align 8 dereferenceable(8) %retval, ptr noundef null) #3
  %coerce.dive = getelementptr inbounds %"struct.std::__detail::_Node_iterator", ptr %retval, i32 0, i32 0
  %coerce.dive2 = getelementptr inbounds %"struct.std::__detail::_Node_iterator_base", ptr %coerce.dive, i32 0, i32 0
  %0 = load ptr, ptr %coerce.dive2, align 8
  ret ptr %0
}

; Function Attrs: mustprogress uwtable
define linkonce_odr noundef zeroext i1 @_ZNKSt8__detail15_Hashtable_baseINSt7__cxx1112basic_stringIcSt11char_traitsIcESaIcEEESt4pairIKS6_N7rocksdb14OptionTypeInfoEENS_10_Select1stESt8equal_toIS6_ESt4hashIS6_ENS_18_Mod_range_hashingENS_20_Default_ranged_hashENS_17_Hashtable_traitsILb1ELb0ELb1EEEE16_M_key_equals_trIS6_EEbRKT_RKNS_16_Hash_node_valueISB_Lb1EEE(ptr noundef nonnull align 1 dereferenceable(1) %this, ptr noundef nonnull align 8 dereferenceable(32) %__k, ptr noundef nonnull align 8 dereferenceable(224) %__n) #1 comdat align 2 {
entry:
  %this.addr = alloca ptr, align 8
  %__k.addr = alloca ptr, align 8
  %__n.addr = alloca ptr, align 8
  %ref.tmp = alloca %"struct.std::__detail::_Select1st", align 1
  store ptr %this, ptr %this.addr, align 8
  store ptr %__k, ptr %__k.addr, align 8
  store ptr %__n, ptr %__n.addr, align 8
  %this1 = load ptr, ptr %this.addr, align 8
  %call = call noundef nonnull align 1 dereferenceable(1) ptr @_ZNKSt8__detail15_Hashtable_baseINSt7__cxx1112basic_stringIcSt11char_traitsIcESaIcEEESt4pairIKS6_N7rocksdb14OptionTypeInfoEENS_10_Select1stESt8equal_toIS6_ESt4hashIS6_ENS_18_Mod_range_hashingENS_20_Default_ranged_hashENS_17_Hashtable_traitsILb1ELb0ELb1EEEE5_M_eqEv(ptr noundef nonnull align 1 dereferenceable(1) %this1)
  %0 = load ptr, ptr %__k.addr, align 8
  %1 = load ptr, ptr %__n.addr, align 8
  %call2 = call noundef nonnull align 8 dereferenceable(216) ptr @_ZNKSt8__detail21_Hash_node_value_baseISt4pairIKNSt7__cxx1112basic_stringIcSt11char_traitsIcESaIcEEEN7rocksdb14OptionTypeInfoEEE4_M_vEv(ptr noundef nonnull align 8 dereferenceable(216) %1) #3
  %call3 = call noundef nonnull align 8 dereferenceable(32) ptr @_ZNKSt8__detail10_Select1stclIRKSt4pairIKNSt7__cxx1112basic_stringIcSt11char_traitsIcESaIcEEEN7rocksdb14OptionTypeInfoEEEEONS0_10__1st_typeIT_E4typeEOSG_(ptr noundef nonnull align 1 dereferenceable(1) %ref.tmp, ptr noundef nonnull align 8 dereferenceable(216) %call2) #3
  %call4 = call noundef zeroext i1 @_ZNKSt8equal_toINSt7__cxx1112basic_stringIcSt11char_traitsIcESaIcEEEEclERKS5_S8_(ptr noundef nonnull align 1 dereferenceable(1) %call, ptr noundef nonnull align 8 dereferenceable(32) %0, ptr noundef nonnull align 8 dereferenceable(32) %call3)
  ret i1 %call4
}

; Function Attrs: mustprogress nounwind uwtable
define linkonce_odr void @_ZNSt4pairINSt8__detail14_Node_iteratorIS_IKNSt7__cxx1112basic_stringIcSt11char_traitsIcESaIcEEEN7rocksdb14OptionTypeInfoEELb0ELb1EEEbEC2IRSC_bTnNSt9enable_ifIXaaclsr5_PCCPE22_MoveConstructiblePairIT_T0_EEclsr5_PCCPE30_ImplicitlyMoveConvertiblePairISH_SI_EEEbE4typeELb1EEEOSH_OSI_(ptr noundef nonnull align 8 dereferenceable(9) %this, ptr noundef nonnull align 8 dereferenceable(8) %__x, ptr noundef nonnull align 1 dereferenceable(1) %__y) unnamed_addr #2 comdat align 2 {
entry:
  %this.addr = alloca ptr, align 8
  %__x.addr = alloca ptr, align 8
  %__y.addr = alloca ptr, align 8
  store ptr %this, ptr %this.addr, align 8
  store ptr %__x, ptr %__x.addr, align 8
  store ptr %__y, ptr %__y.addr, align 8
  %this1 = load ptr, ptr %this.addr, align 8
  %first = getelementptr inbounds %"struct.std::pair.29", ptr %this1, i32 0, i32 0
  %0 = load ptr, ptr %__x.addr, align 8
  call void @llvm.memcpy.p0.p0.i64(ptr align 8 %first, ptr align 8 %0, i64 8, i1 false)
  %second = getelementptr inbounds %"struct.std::pair.29", ptr %this1, i32 0, i32 1
  %1 = load ptr, ptr %__y.addr, align 8
  %2 = load i8, ptr %1, align 1
  %tobool = trunc i8 %2 to i1
  %frombool = zext i1 %tobool to i8
  store i8 %frombool, ptr %second, align 8
  ret void
}

; Function Attrs: mustprogress nounwind uwtable
define linkonce_odr noundef nonnull align 8 dereferenceable(8) ptr @_ZNSt8__detail14_Node_iteratorISt4pairIKNSt7__cxx1112basic_stringIcSt11char_traitsIcESaIcEEEN7rocksdb14OptionTypeInfoEELb0ELb1EEppEv(ptr noundef nonnull align 8 dereferenceable(8) %this) #2 comdat align 2 {
entry:
  %this.addr = alloca ptr, align 8
  store ptr %this, ptr %this.addr, align 8
  %this1 = load ptr, ptr %this.addr, align 8
  call void @_ZNSt8__detail19_Node_iterator_baseISt4pairIKNSt7__cxx1112basic_stringIcSt11char_traitsIcESaIcEEEN7rocksdb14OptionTypeInfoEELb1EE7_M_incrEv(ptr noundef nonnull align 8 dereferenceable(8) %this1) #3
  ret ptr %this1
}

; Function Attrs: mustprogress uwtable
define linkonce_odr noundef i64 @_ZNKSt8__detail15_Hash_code_baseINSt7__cxx1112basic_stringIcSt11char_traitsIcESaIcEEESt4pairIKS6_N7rocksdb14OptionTypeInfoEENS_10_Select1stESt4hashIS6_ENS_18_Mod_range_hashingENS_20_Default_ranged_hashELb1EE15_M_hash_code_trIS6_EEmRKT_(ptr noundef nonnull align 1 dereferenceable(1) %this, ptr noundef nonnull align 8 dereferenceable(32) %__k) #1 comdat align 2 {
entry:
  %this.addr = alloca ptr, align 8
  %__k.addr = alloca ptr, align 8
  store ptr %this, ptr %this.addr, align 8
  store ptr %__k, ptr %__k.addr, align 8
  %this1 = load ptr, ptr %this.addr, align 8
  %call = call noundef nonnull align 1 dereferenceable(1) ptr @_ZNKSt8__detail15_Hash_code_baseINSt7__cxx1112basic_stringIcSt11char_traitsIcESaIcEEESt4pairIKS6_N7rocksdb14OptionTypeInfoEENS_10_Select1stESt4hashIS6_ENS_18_Mod_range_hashingENS_20_Default_ranged_hashELb1EE7_M_hashEv(ptr noundef nonnull align 1 dereferenceable(1) %this1)
  %0 = load ptr, ptr %__k.addr, align 8
  %call2 = call noundef i64 @_ZNKSt4hashINSt7__cxx1112basic_stringIcSt11char_traitsIcESaIcEEEEclERKS5_(ptr noundef nonnull align 1 dereferenceable(1) %call, ptr noundef nonnull align 8 dereferenceable(32) %0) #3
  ret i64 %call2
}

; Function Attrs: mustprogress uwtable
define linkonce_odr noundef i64 @_ZNKSt10_HashtableINSt7__cxx1112basic_stringIcSt11char_traitsIcESaIcEEESt4pairIKS5_N7rocksdb14OptionTypeInfoEESaISA_ENSt8__detail10_Select1stESt8equal_toIS5_ESt4hashIS5_ENSC_18_Mod_range_hashingENSC_20_Default_ranged_hashENSC_20_Prime_rehash_policyENSC_17_Hashtable_traitsILb1ELb0ELb1EEEE15_M_bucket_indexEm(ptr noundef nonnull align 8 dereferenceable(56) %this, i64 noundef %__c) #1 comdat align 2 {
entry:
  %this.addr = alloca ptr, align 8
  %__c.addr = alloca i64, align 8
  store ptr %this, ptr %this.addr, align 8
  store i64 %__c, ptr %__c.addr, align 8
  %this1 = load ptr, ptr %this.addr, align 8
  %0 = load i64, ptr %__c.addr, align 8
  %_M_bucket_count = getelementptr inbounds %"class.std::_Hashtable", ptr %this1, i32 0, i32 1
  %1 = load i64, ptr %_M_bucket_count, align 8
  %call = call noundef i64 @_ZNKSt8__detail15_Hash_code_baseINSt7__cxx1112basic_stringIcSt11char_traitsIcESaIcEEESt4pairIKS6_N7rocksdb14OptionTypeInfoEENS_10_Select1stESt4hashIS6_ENS_18_Mod_range_hashingENS_20_Default_ranged_hashELb1EE15_M_bucket_indexEmm(ptr noundef nonnull align 1 dereferenceable(1) %this1, i64 noundef %0, i64 noundef %1)
  ret i64 %call
}

; Function Attrs: mustprogress uwtable
define linkonce_odr noundef ptr @_ZNKSt10_HashtableINSt7__cxx1112basic_stringIcSt11char_traitsIcESaIcEEESt4pairIKS5_N7rocksdb14OptionTypeInfoEESaISA_ENSt8__detail10_Select1stESt8equal_toIS5_ESt4hashIS5_ENSC_18_Mod_range_hashingENSC_20_Default_ranged_hashENSC_20_Prime_rehash_policyENSC_17_Hashtable_traitsILb1ELb0ELb1EEEE15_M_find_node_trIS5_EEPNSC_10_Hash_nodeISA_Lb1EEEmRKT_m(ptr noundef nonnull align 8 dereferenceable(56) %this, i64 noundef %__bkt, ptr noundef nonnull align 8 dereferenceable(32) %__key, i64 noundef %__c) #1 comdat align 2 {
entry:
  %retval = alloca ptr, align 8
  %this.addr = alloca ptr, align 8
  %__bkt.addr = alloca i64, align 8
  %__key.addr = alloca ptr, align 8
  %__c.addr = alloca i64, align 8
  %__before_n = alloca ptr, align 8
  store ptr %this, ptr %this.addr, align 8
  store i64 %__bkt, ptr %__bkt.addr, align 8
  store ptr %__key, ptr %__key.addr, align 8
  store i64 %__c, ptr %__c.addr, align 8
  %this1 = load ptr, ptr %this.addr, align 8
  %0 = load i64, ptr %__bkt.addr, align 8
  %1 = load ptr, ptr %__key.addr, align 8
  %2 = load i64, ptr %__c.addr, align 8
  %call = call noundef ptr @_ZNKSt10_HashtableINSt7__cxx1112basic_stringIcSt11char_traitsIcESaIcEEESt4pairIKS5_N7rocksdb14OptionTypeInfoEESaISA_ENSt8__detail10_Select1stESt8equal_toIS5_ESt4hashIS5_ENSC_18_Mod_range_hashingENSC_20_Default_ranged_hashENSC_20_Prime_rehash_policyENSC_17_Hashtable_traitsILb1ELb0ELb1EEEE22_M_find_before_node_trIS5_EEPNSC_15_Hash_node_baseEmRKT_m(ptr noundef nonnull align 8 dereferenceable(56) %this1, i64 noundef %0, ptr noundef nonnull align 8 dereferenceable(32) %1, i64 noundef %2)
  store ptr %call, ptr %__before_n, align 8
  %3 = load ptr, ptr %__before_n, align 8
  %tobool = icmp ne ptr %3, null
  br i1 %tobool, label %if.then, label %if.end

if.then:                                          ; preds = %entry
  %4 = load ptr, ptr %__before_n, align 8
  %_M_nxt = getelementptr inbounds %"struct.std::__detail::_Hash_node_base", ptr %4, i32 0, i32 0
  %5 = load ptr, ptr %_M_nxt, align 8
  store ptr %5, ptr %retval, align 8
  br label %return

if.end:                                           ; preds = %entry
  store ptr null, ptr %retval, align 8
  br label %return

return:                                           ; preds = %if.end, %if.then
