target datalayout = "e-m:e-p270:32:32-p271:32:32-p272:64:64-i64:64-i128:128-f80:128-n8:16:32:64-S128"
target triple = "x86_64-unknown-linux-gnu"

%"class.std::__cxx11::basic_string" = type { %"struct.std::__cxx11::basic_string<char>::_Alloc_hider", i64, %union.anon }
%"struct.std::__cxx11::basic_string<char>::_Alloc_hider" = type { ptr }
%union.anon = type { i64, [8 x i8] }
%"class.std::allocator" = type { i8 }
%"class.rocksdb::Status" = type { i8, i8, i8, i8, i8, i8, %"class.std::unique_ptr" }
%"class.std::unique_ptr" = type { %"struct.std::__uniq_ptr_data" }
%"struct.std::__uniq_ptr_data" = type { %"class.std::__uniq_ptr_impl" }
%"class.std::__uniq_ptr_impl" = type { %"class.std::tuple" }
%"class.std::tuple" = type { %"struct.std::_Tuple_impl" }
%"struct.std::_Tuple_impl" = type { %"struct.std::_Head_base.1" }
%"struct.std::_Head_base.1" = type { ptr }
%"class.rocksdb::RocksDBOptionsParser" = type <{ %"struct.rocksdb::DBOptions", %"class.std::unordered_map", %"class.std::vector.36", %"class.std::vector.41", %"class.std::vector.46", i8, i8, i8, i8, [3 x i32], [3 x i32], [4 x i8] }>
%"struct.rocksdb::DBOptions" = type { i8, i8, i8, i8, i8, i8, i8, i8, ptr, %"class.std::shared_ptr", %"class.std::shared_ptr.2", %"class.std::shared_ptr.5", i8, i32, i32, i64, %"class.std::shared_ptr.8", i8, %"class.std::vector", %"class.std::__cxx11::basic_string", %"class.std::__cxx11::basic_string", i64, i32, i32, i32, i32, i64, i64, i64, i64, i64, i32, i64, i64, i64, i8, i8, i8, i8, i8, i8, i32, i32, i8, i64, i8, i64, %"class.std::shared_ptr.14", i32, i64, i64, i64, i8, i64, i64, i8, %"class.std::vector.17", i8, i64, i8, i8, i8, i8, i64, i64, i64, i8, i8, i8, i8, %"class.std::shared_ptr.22", ptr, i8, i8, i8, i8, i8, i8, i8, i8, i8, i8, i8, i64, %"class.std::shared_ptr.25", i8, i32, i64, i8, %"class.std::__cxx11::basic_string", %"class.rocksdb::SmallEnumSet", %"class.std::shared_ptr.28", i8, i8, %"class.std::__cxx11::basic_string" }
%"class.std::shared_ptr" = type { %"class.std::__shared_ptr" }
%"class.std::__shared_ptr" = type { ptr, %"class.std::__shared_count" }
%"class.std::__shared_count" = type { ptr }
%"class.std::shared_ptr.2" = type { %"class.std::__shared_ptr.3" }
%"class.std::__shared_ptr.3" = type { ptr, %"class.std::__shared_count" }
%"class.std::shared_ptr.5" = type { %"class.std::__shared_ptr.6" }
%"class.std::__shared_ptr.6" = type { ptr, %"class.std::__shared_count" }
%"class.std::shared_ptr.8" = type { %"class.std::__shared_ptr.9" }
%"class.std::__shared_ptr.9" = type { ptr, %"class.std::__shared_count" }
%"class.std::vector" = type { %"struct.std::_Vector_base" }
%"struct.std::_Vector_base" = type { %"struct.std::_Vector_base<rocksdb::DbPath, std::allocator<rocksdb::DbPath>>::_Vector_impl" }
%"struct.std::_Vector_base<rocksdb::DbPath, std::allocator<rocksdb::DbPath>>::_Vector_impl" = type { %"struct.std::_Vector_base<rocksdb::DbPath, std::allocator<rocksdb::DbPath>>::_Vector_impl_data" }
%"struct.std::_Vector_base<rocksdb::DbPath, std::allocator<rocksdb::DbPath>>::_Vector_impl_data" = type { ptr, ptr, ptr }
%"class.std::shared_ptr.14" = type { %"class.std::__shared_ptr.15" }
%"class.std::__shared_ptr.15" = type { ptr, %"class.std::__shared_count" }
%"class.std::vector.17" = type { %"struct.std::_Vector_base.18" }
%"struct.std::_Vector_base.18" = type { %"struct.std::_Vector_base<std::shared_ptr<rocksdb::EventListener>, std::allocator<std::shared_ptr<rocksdb::EventListener>>>::_Vector_impl" }
%"struct.std::_Vector_base<std::shared_ptr<rocksdb::EventListener>, std::allocator<std::shared_ptr<rocksdb::EventListener>>>::_Vector_impl" = type { %"struct.std::_Vector_base<std::shared_ptr<rocksdb::EventListener>, std::allocator<std::shared_ptr<rocksdb::EventListener>>>::_Vector_impl_data" }
%"struct.std::_Vector_base<std::shared_ptr<rocksdb::EventListener>, std::allocator<std::shared_ptr<rocksdb::EventListener>>>::_Vector_impl_data" = type { ptr, ptr, ptr }
%"class.std::shared_ptr.22" = type { %"class.std::__shared_ptr.23" }
%"class.std::__shared_ptr.23" = type { ptr, %"class.std::__shared_count" }
%"class.std::shared_ptr.25" = type { %"class.std::__shared_ptr.26" }
%"class.std::__shared_ptr.26" = type { ptr, %"class.std::__shared_count" }
%"class.rocksdb::SmallEnumSet" = type { i64 }
%"class.std::shared_ptr.28" = type { %"class.std::__shared_ptr.29" }
%"class.std::__shared_ptr.29" = type { ptr, %"class.std::__shared_count" }
%"class.std::unordered_map" = type { %"class.std::_Hashtable" }
%"class.std::_Hashtable" = type { ptr, i64, %"struct.std::__detail::_Hash_node_base", i64, %"struct.std::__detail::_Prime_rehash_policy", ptr }
%"struct.std::__detail::_Hash_node_base" = type { ptr }
%"struct.std::__detail::_Prime_rehash_policy" = type { float, i64 }
%"class.std::vector.36" = type { %"struct.std::_Vector_base.37" }
%"struct.std::_Vector_base.37" = type { %"struct.std::_Vector_base<std::__cxx11::basic_string<char>, std::allocator<std::__cxx11::basic_string<char>>>::_Vector_impl" }
%"struct.std::_Vector_base<std::__cxx11::basic_string<char>, std::allocator<std::__cxx11::basic_string<char>>>::_Vector_impl" = type { %"struct.std::_Vector_base<std::__cxx11::basic_string<char>, std::allocator<std::__cxx11::basic_string<char>>>::_Vector_impl_data" }
%"struct.std::_Vector_base<std::__cxx11::basic_string<char>, std::allocator<std::__cxx11::basic_string<char>>>::_Vector_impl_data" = type { ptr, ptr, ptr }
%"class.std::vector.41" = type { %"struct.std::_Vector_base.42" }
%"struct.std::_Vector_base.42" = type { %"struct.std::_Vector_base<rocksdb::ColumnFamilyOptions, std::allocator<rocksdb::ColumnFamilyOptions>>::_Vector_impl" }
%"struct.std::_Vector_base<rocksdb::ColumnFamilyOptions, std::allocator<rocksdb::ColumnFamilyOptions>>::_Vector_impl" = type { %"struct.std::_Vector_base<rocksdb::ColumnFamilyOptions, std::allocator<rocksdb::ColumnFamilyOptions>>::_Vector_impl_data" }
%"struct.std::_Vector_base<rocksdb::ColumnFamilyOptions, std::allocator<rocksdb::ColumnFamilyOptions>>::_Vector_impl_data" = type { ptr, ptr, ptr }
%"class.std::vector.46" = type { %"struct.std::_Vector_base.47" }
%"struct.std::_Vector_base.47" = type { %"struct.std::_Vector_base<std::unordered_map<std::__cxx11::basic_string<char>, std::__cxx11::basic_string<char>>, std::allocator<std::unordered_map<std::__cxx11::basic_string<char>, std::__cxx11::basic_string<char>>>>::_Vector_impl" }
%"struct.std::_Vector_base<std::unordered_map<std::__cxx11::basic_string<char>, std::__cxx11::basic_string<char>>, std::allocator<std::unordered_map<std::__cxx11::basic_string<char>, std::__cxx11::basic_string<char>>>>::_Vector_impl" = type { %"struct.std::_Vector_base<std::unordered_map<std::__cxx11::basic_string<char>, std::__cxx11::basic_string<char>>, std::allocator<std::unordered_map<std::__cxx11::basic_string<char>, std::__cxx11::basic_string<char>>>>::_Vector_impl_data" }
%"struct.std::_Vector_base<std::unordered_map<std::__cxx11::basic_string<char>, std::__cxx11::basic_string<char>>, std::allocator<std::unordered_map<std::__cxx11::basic_string<char>, std::__cxx11::basic_string<char>>>>::_Vector_impl_data" = type { ptr, ptr, ptr }
%"struct.rocksdb::ColumnFamilyDescriptor" = type { %"class.std::__cxx11::basic_string", %"struct.rocksdb::ColumnFamilyOptions" }
%"struct.rocksdb::ColumnFamilyOptions" = type <{ %"struct.rocksdb::AdvancedColumnFamilyOptions", ptr, %"class.std::shared_ptr.96", ptr, %"class.std::shared_ptr.99", i64, i8, i8, [6 x i8], %"struct.rocksdb::CompressionOptions", %"struct.rocksdb::CompressionOptions", i32, [4 x i8], %"class.std::shared_ptr.70", i64, i64, i8, [7 x i8], %"class.std::shared_ptr.102", %"class.std::vector", %"class.std::shared_ptr.105", %"class.std::shared_ptr.108", i32, [4 x i8] }>
%"struct.rocksdb::AdvancedColumnFamilyOptions" = type { i32, i32, i32, i64, i8, i64, double, ptr, double, i8, i64, %"class.std::shared_ptr.70", i32, i64, %"class.std::vector.73", i32, i32, i32, i64, i32, i8, i8, double, %"class.std::vector.78", i64, i8, i64, i64, i8, i8, [2 x i8], %"class.rocksdb::CompactionOptionsUniversal", %"struct.rocksdb::CompactionOptionsFIFO", i64, %"class.std::shared_ptr.88", %"class.std::vector.91", i64, i8, i8, i8, i8, i8, i64, i64, i64, i8, i8, i8, i64, i64, i8, i64, i64, i8, i8, double, double, i64, i32, %"class.std::shared_ptr.22", i8, i32, i8, i8, i32 }
%"class.std::vector.73" = type { %"struct.std::_Vector_base.74" }
%"struct.std::_Vector_base.74" = type { %"struct.std::_Vector_base<rocksdb::CompressionType, std::allocator<rocksdb::CompressionType>>::_Vector_impl" }
%"struct.std::_Vector_base<rocksdb::CompressionType, std::allocator<rocksdb::CompressionType>>::_Vector_impl" = type { %"struct.std::_Vector_base<rocksdb::CompressionType, std::allocator<rocksdb::CompressionType>>::_Vector_impl_data" }
%"struct.std::_Vector_base<rocksdb::CompressionType, std::allocator<rocksdb::CompressionType>>::_Vector_impl_data" = type { ptr, ptr, ptr }
%"class.std::vector.78" = type { %"struct.std::_Vector_base.79" }
%"struct.std::_Vector_base.79" = type { %"struct.std::_Vector_base<int, std::allocator<int>>::_Vector_impl" }
%"struct.std::_Vector_base<int, std::allocator<int>>::_Vector_impl" = type { %"struct.std::_Vector_base<int, std::allocator<int>>::_Vector_impl_data" }
%"struct.std::_Vector_base<int, std::allocator<int>>::_Vector_impl_data" = type { ptr, ptr, ptr }
%"class.rocksdb::CompactionOptionsUniversal" = type <{ i32, i32, i32, i32, i32, i32, i8, i8, [2 x i8] }>
%"struct.rocksdb::CompactionOptionsFIFO" = type { i64, i8, i64, %"class.std::vector.83" }
%"class.std::vector.83" = type { %"struct.std::_Vector_base.84" }
%"struct.std::_Vector_base.84" = type { %"struct.std::_Vector_base<rocksdb::FileTemperatureAge, std::allocator<rocksdb::FileTemperatureAge>>::_Vector_impl" }
%"struct.std::_Vector_base<rocksdb::FileTemperatureAge, std::allocator<rocksdb::FileTemperatureAge>>::_Vector_impl" = type { %"struct.std::_Vector_base<rocksdb::FileTemperatureAge, std::allocator<rocksdb::FileTemperatureAge>>::_Vector_impl_data" }
%"struct.std::_Vector_base<rocksdb::FileTemperatureAge, std::allocator<rocksdb::FileTemperatureAge>>::_Vector_impl_data" = type { ptr, ptr, ptr }
%"class.std::shared_ptr.88" = type { %"class.std::__shared_ptr.89" }
%"class.std::__shared_ptr.89" = type { ptr, %"class.std::__shared_count" }
%"class.std::vector.91" = type { %"struct.std::_Vector_base.92" }
%"struct.std::_Vector_base.92" = type { %"struct.std::_Vector_base<std::shared_ptr<rocksdb::TablePropertiesCollectorFactory>, std::allocator<std::shared_ptr<rocksdb::TablePropertiesCollectorFactory>>>::_Vector_impl" }
%"struct.std::_Vector_base<std::shared_ptr<rocksdb::TablePropertiesCollectorFactory>, std::allocator<std::shared_ptr<rocksdb::TablePropertiesCollectorFactory>>>::_Vector_impl" = type { %"struct.std::_Vector_base<std::shared_ptr<rocksdb::TablePropertiesCollectorFactory>, std::allocator<std::shared_ptr<rocksdb::TablePropertiesCollectorFactory>>>::_Vector_impl_data" }
%"struct.std::_Vector_base<std::shared_ptr<rocksdb::TablePropertiesCollectorFactory>, std::allocator<std::shared_ptr<rocksdb::TablePropertiesCollectorFactory>>>::_Vector_impl_data" = type { ptr, ptr, ptr }
%"class.std::shared_ptr.96" = type { %"class.std::__shared_ptr.97" }
%"class.std::__shared_ptr.97" = type { ptr, %"class.std::__shared_count" }
%"class.std::shared_ptr.99" = type { %"class.std::__shared_ptr.100" }
%"class.std::__shared_ptr.100" = type { ptr, %"class.std::__shared_count" }
%"struct.rocksdb::CompressionOptions" = type <{ i32, i32, i32, i32, i32, i32, i8, [7 x i8], i64, i8, [3 x i8], i32, i8, [7 x i8] }>
%"class.std::shared_ptr.70" = type { %"class.std::__shared_ptr.71" }
%"class.std::__shared_ptr.71" = type { ptr, %"class.std::__shared_count" }
%"class.std::shared_ptr.102" = type { %"class.std::__shared_ptr.103" }
%"class.std::__shared_ptr.103" = type { ptr, %"class.std::__shared_count" }
%"class.std::shared_ptr.105" = type { %"class.std::__shared_ptr.106" }
%"class.std::__shared_ptr.106" = type { ptr, %"class.std::__shared_count" }
%"class.std::shared_ptr.108" = type { %"class.std::__shared_ptr.109" }
%"class.std::__shared_ptr.109" = type { ptr, %"class.std::__shared_count" }
%"struct.rocksdb::ConfigOptions" = type { i8, i8, i8, i8, i8, %"class.std::__cxx11::basic_string", i32, i8, i64, ptr, %"class.std::shared_ptr.62" }
%"class.std::shared_ptr.62" = type { %"class.std::__shared_ptr.63" }
%"class.std::__shared_ptr.63" = type { ptr, %"class.std::__shared_count" }
%"struct.rocksdb::BlockBasedTableOptions" = type { %"class.std::shared_ptr.111", i8, i8, i8, i8, %"struct.rocksdb::MetadataCacheOptions", i8, i8, double, i8, i8, %"class.std::shared_ptr.22", %"class.std::shared_ptr.114", i64, i32, i32, i32, i64, %"struct.rocksdb::CacheUsageOptions", i8, i8, i8, %"class.std::shared_ptr.121", i8, i8, i8, i32, i32, i8, i8, i8, i64, i8, i64, i64 }
%"class.std::shared_ptr.111" = type { %"class.std::__shared_ptr.112" }
%"class.std::__shared_ptr.112" = type { ptr, %"class.std::__shared_count" }
%"struct.rocksdb::MetadataCacheOptions" = type { i32, i32, i32 }
%"class.std::shared_ptr.114" = type { %"class.std::__shared_ptr.115" }
%"class.std::__shared_ptr.115" = type { ptr, %"class.std::__shared_count" }
%"struct.rocksdb::CacheUsageOptions" = type { %"struct.rocksdb::CacheEntryRoleOptions", %"class.std::map" }
%"struct.rocksdb::CacheEntryRoleOptions" = type { i32 }
%"class.std::map" = type { %"class.std::_Rb_tree" }
%"class.std::_Rb_tree" = type { %"struct.std::_Rb_tree<rocksdb::CacheEntryRole, std::pair<const rocksdb::CacheEntryRole, rocksdb::CacheEntryRoleOptions>, std::_Select1st<std::pair<const rocksdb::CacheEntryRole, rocksdb::CacheEntryRoleOptions>>, std::less<rocksdb::CacheEntryRole>>::_Rb_tree_impl" }
%"struct.std::_Rb_tree<rocksdb::CacheEntryRole, std::pair<const rocksdb::CacheEntryRole, rocksdb::CacheEntryRoleOptions>, std::_Select1st<std::pair<const rocksdb::CacheEntryRole, rocksdb::CacheEntryRoleOptions>>, std::less<rocksdb::CacheEntryRole>>::_Rb_tree_impl" = type { %"struct.std::_Rb_tree_key_compare", %"struct.std::_Rb_tree_header" }
%"struct.std::_Rb_tree_key_compare" = type { %"struct.std::less" }
%"struct.std::less" = type { i8 }
%"struct.std::_Rb_tree_header" = type { %"struct.std::_Rb_tree_node_base", i64 }
%"struct.std::_Rb_tree_node_base" = type { i32, ptr, ptr, ptr }
%"class.std::shared_ptr.121" = type { %"class.std::__shared_ptr.122" }
%"class.std::__shared_ptr.122" = type { ptr, %"class.std::__shared_count" }
%"class.std::__shared_ptr.57" = type { ptr, %"class.std::__shared_count" }
%"struct.std::_Vector_base.66" = type { %"struct.std::_Vector_base<rocksdb::ColumnFamilyDescriptor, std::allocator<rocksdb::ColumnFamilyDescriptor>>::_Vector_impl" }
%"struct.std::_Vector_base<rocksdb::ColumnFamilyDescriptor, std::allocator<rocksdb::ColumnFamilyDescriptor>>::_Vector_impl" = type { %"struct.std::_Vector_base<rocksdb::ColumnFamilyDescriptor, std::allocator<rocksdb::ColumnFamilyDescriptor>>::_Vector_impl_data" }
%"struct.std::_Vector_base<rocksdb::ColumnFamilyDescriptor, std::allocator<rocksdb::ColumnFamilyDescriptor>>::_Vector_impl_data" = type { ptr, ptr, ptr }
%"class.rocksdb::Slice" = type { ptr, i64 }
%"class.__gnu_cxx::__normal_iterator" = type { ptr }
%"class.__gnu_cxx::__normal_iterator.124" = type { ptr }
%"class.__gnu_cxx::__normal_iterator.143" = type { ptr }
%"class.__gnu_cxx::__normal_iterator.125" = type { ptr }
%"class.__gnu_cxx::__normal_iterator.126" = type { ptr }
%"struct.rocksdb::DbPath" = type { %"class.std::__cxx11::basic_string", i64 }
%"class.__gnu_cxx::__normal_iterator.127" = type { ptr }
%"class.__gnu_cxx::__normal_iterator.131" = type { ptr }
%"class.std::shared_ptr.128" = type { %"class.std::__shared_ptr.129" }
%"class.std::__shared_ptr.129" = type { ptr, %"class.std::__shared_count" }
%"class.std::_Sp_counted_base" = type { ptr, i32, i32 }
%"class.std::allocator.11" = type { i8 }
%"class.std::allocator.75" = type { i8 }
%"class.__gnu_cxx::__normal_iterator.132" = type { ptr }
%"class.std::allocator.80" = type { i8 }
%"class.__gnu_cxx::__normal_iterator.133" = type { ptr }
%"class.std::allocator.93" = type { i8 }
%"class.__gnu_cxx::__normal_iterator.135" = type { ptr }
%"class.std::allocator.85" = type { i8 }
%"class.__gnu_cxx::__normal_iterator.134" = type { ptr }
%"struct.rocksdb::FileTemperatureAge" = type { i8, i64 }
%"class.std::shared_ptr.136" = type { %"class.std::__shared_ptr.137" }
%"class.std::__shared_ptr.137" = type { ptr, %"class.std::__shared_count" }
%"struct.std::__detail::_Hash_node_value_base" = type { %"struct.__gnu_cxx::__aligned_buffer" }
%"struct.__gnu_cxx::__aligned_buffer" = type { %"union.std::aligned_storage<64, 8>::type" }
%"union.std::aligned_storage<64, 8>::type" = type { [64 x i8] }
%"struct.std::pair" = type { %"class.std::__cxx11::basic_string", %"class.std::__cxx11::basic_string" }
%"class.std::allocator.139" = type { i8 }
%struct._Guard = type { ptr }
%"class.__gnu_cxx::__normal_iterator.142" = type { ptr }

$_ZNSt7__cxx1112basic_stringIcSt11char_traitsIcESaIcEEC2IS3_EEPKcRKS3_ = comdat any

$_ZNKSt12__shared_ptrIN7rocksdb10FileSystemELN9__gnu_cxx12_Lock_policyE2EE3getEv = comdat any

$_ZNK7rocksdb6Status2okEv = comdat any

$_ZN7rocksdb6StatusC2EOS0_ = comdat any

$_ZNK7rocksdb20RocksDBOptionsParser6db_optEv = comdat any

$_ZN7rocksdb9DBOptionsaSERKS0_ = comdat any

$_ZNK7rocksdb20RocksDBOptionsParser8cf_namesB5cxx11Ev = comdat any

$_ZNK7rocksdb20RocksDBOptionsParser7cf_optsEv = comdat any

$_ZNSt6vectorIN7rocksdb22ColumnFamilyDescriptorESaIS1_EE5clearEv = comdat any

$_ZNKSt6vectorIN7rocksdb19ColumnFamilyOptionsESaIS1_EE4sizeEv = comdat any

$_ZNSt6vectorIN7rocksdb22ColumnFamilyDescriptorESaIS1_EE9push_backEOS1_ = comdat any

$_ZNKSt6vectorINSt7__cxx1112basic_stringIcSt11char_traitsIcESaIcEEESaIS5_EEixEm = comdat any

$_ZNKSt6vectorIN7rocksdb19ColumnFamilyOptionsESaIS1_EEixEm = comdat any

$_ZN7rocksdb22ColumnFamilyDescriptorC2ERKNSt7__cxx1112basic_stringIcSt11char_traitsIcESaIcEEERKNS_19ColumnFamilyOptionsE = comdat any

$_ZN7rocksdb22ColumnFamilyDescriptorD2Ev = comdat any

$_ZNKSt12__shared_ptrIN7rocksdb12TableFactoryELN9__gnu_cxx12_Lock_policyE2EE3getEv = comdat any

$_ZN7rocksdb12Configurable10GetOptionsINS_22BlockBasedTableOptionsEEEPT_v = comdat any

$_ZNSt10shared_ptrIN7rocksdb5CacheEEaSERKS2_ = comdat any

$_ZN7rocksdb6Status2OKEv = comdat any

$_ZN7rocksdb6StatusD2Ev = comdat any

$_ZN7rocksdb20RocksDBOptionsParserD2Ev = comdat any

$_ZN7rocksdb6StatusC2Ev = comdat any

$_ZNSt6vectorINSt7__cxx1112basic_stringIcSt11char_traitsIcESaIcEEESaIS5_EEC2Ev = comdat any

$_ZN7rocksdb6StatusaSEOS0_ = comdat any

$_ZNK7rocksdb6Status10IsNotFoundEv = comdat any

$_ZN7rocksdb6Status8NotFoundENS0_7SubCodeERKNS_5SliceES4_ = comdat any

$_ZN7rocksdb5SliceC2EPKc = comdat any

$_ZN7rocksdb5SliceC2ERKNSt7__cxx1112basic_stringIcSt11char_traitsIcESaIcEEE = comdat any

$_ZNSt6vectorINSt7__cxx1112basic_stringIcSt11char_traitsIcESaIcEEESaIS5_EE5beginEv = comdat any

$_ZNSt6vectorINSt7__cxx1112basic_stringIcSt11char_traitsIcESaIcEEESaIS5_EE3endEv = comdat any

$_ZN9__gnu_cxxneIPNSt7__cxx1112basic_stringIcSt11char_traitsIcESaIcEEESt6vectorIS6_SaIS6_EEEEbRKNS_17__normal_iteratorIT_T0_EESG_ = comdat any

$_ZNK9__gnu_cxx17__normal_iteratorIPNSt7__cxx1112basic_stringIcSt11char_traitsIcESaIcEEESt6vectorIS6_SaIS6_EEEdeEv = comdat any

$_ZN9__gnu_cxx17__normal_iteratorIPNSt7__cxx1112basic_stringIcSt11char_traitsIcESaIcEEESt6vectorIS6_SaIS6_EEEppEv = comdat any

$_ZNSt6vectorINSt7__cxx1112basic_stringIcSt11char_traitsIcESaIcEEESaIS5_EED2Ev = comdat any

$_ZStplIcSt11char_traitsIcESaIcEENSt7__cxx1112basic_stringIT_T0_T1_EEOS8_RKS8_ = comdat any

$_ZStplIcSt11char_traitsIcESaIcEENSt7__cxx1112basic_stringIT_T0_T1_EERKS8_PKS5_ = comdat any

$_ZNSt6vectorIN7rocksdb19ColumnFamilyOptionsESaIS1_EEC2Ev = comdat any

$_ZNKSt6vectorIN7rocksdb22ColumnFamilyDescriptorESaIS1_EE5beginEv = comdat any

$_ZNKSt6vectorIN7rocksdb22ColumnFamilyDescriptorESaIS1_EE3endEv = comdat any

$_ZN9__gnu_cxxneIPKN7rocksdb22ColumnFamilyDescriptorESt6vectorIS2_SaIS2_EEEEbRKNS_17__normal_iteratorIT_T0_EESD_ = comdat any

$_ZNK9__gnu_cxx17__normal_iteratorIPKN7rocksdb22ColumnFamilyDescriptorESt6vectorIS2_SaIS2_EEEdeEv = comdat any

$_ZNSt6vectorINSt7__cxx1112basic_stringIcSt11char_traitsIcESaIcEEESaIS5_EE9push_backERKS5_ = comdat any

$_ZNSt6vectorIN7rocksdb19ColumnFamilyOptionsESaIS1_EE9push_backERKS1_ = comdat any

$_ZN9__gnu_cxx17__normal_iteratorIPKN7rocksdb22ColumnFamilyDescriptorESt6vectorIS2_SaIS2_EEEppEv = comdat any

$_ZNSt6vectorIN7rocksdb19ColumnFamilyOptionsESaIS1_EED2Ev = comdat any

$_ZNK7rocksdb6Status11MarkCheckedEv = comdat any

$_ZNK7rocksdb6Status4codeEv = comdat any

$__clang_call_terminate = comdat any

$_ZNSt10unique_ptrIA_KcSt14default_deleteIS1_EEC2IS3_vEEDn = comdat any

$_ZNSt15__uniq_ptr_dataIKcSt14default_deleteIA_S0_ELb1ELb1EEC2Ev = comdat any

$_ZNSt15__uniq_ptr_implIKcSt14default_deleteIA_S0_EEC2Ev = comdat any

$_ZNSt5tupleIJPKcSt14default_deleteIA_S0_EEEC2ILb1ETnNSt9enable_ifIXclsr17_TupleConstraintsIXT_ES1_S4_EE37__is_implicitly_default_constructibleEEbE4typeELb1EEEv = comdat any

$_ZNSt11_Tuple_implILm0EJPKcSt14default_deleteIA_S0_EEEC2Ev = comdat any

$_ZNSt11_Tuple_implILm1EJSt14default_deleteIA_KcEEEC2Ev = comdat any

$_ZNSt10_Head_baseILm0EPKcLb0EEC2Ev = comdat any

$_ZNSt10_Head_baseILm1ESt14default_deleteIA_KcELb1EEC2Ev = comdat any

$_ZNSt10shared_ptrIN7rocksdb11RateLimiterEEaSERKS2_ = comdat any

$_ZNSt10shared_ptrIN7rocksdb14SstFileManagerEEaSERKS2_ = comdat any

$_ZNSt10shared_ptrIN7rocksdb6LoggerEEaSERKS2_ = comdat any

$_ZNSt10shared_ptrIN7rocksdb10StatisticsEEaSERKS2_ = comdat any

$_ZNSt6vectorIN7rocksdb6DbPathESaIS1_EEaSERKS3_ = comdat any

$_ZNSt10shared_ptrIN7rocksdb18WriteBufferManagerEEaSERKS2_ = comdat any

$_ZNSt6vectorISt10shared_ptrIN7rocksdb13EventListenerEESaIS3_EEaSERKS5_ = comdat any

$_ZNSt10shared_ptrIN7rocksdb22FileChecksumGenFactoryEEaSERKS2_ = comdat any

$_ZNSt10shared_ptrIN7rocksdb17CompactionServiceEEaSERKS2_ = comdat any

$_ZNSt12__shared_ptrIN7rocksdb11RateLimiterELN9__gnu_cxx12_Lock_policyE2EEaSERKS4_ = comdat any

$_ZNSt14__shared_countILN9__gnu_cxx12_Lock_policyE2EEaSERKS2_ = comdat any

$_ZNSt16_Sp_counted_baseILN9__gnu_cxx12_Lock_policyE2EE15_M_add_ref_copyEv = comdat any

$_ZNSt16_Sp_counted_baseILN9__gnu_cxx12_Lock_policyE2EE10_M_releaseEv = comdat any

$_ZNSt16_Sp_counted_baseILN9__gnu_cxx12_Lock_policyE2EE24_M_release_last_use_coldEv = comdat any

$_ZNSt16_Sp_counted_baseILN9__gnu_cxx12_Lock_policyE2EE19_M_release_last_useEv = comdat any

$_ZNSt12__shared_ptrIN7rocksdb14SstFileManagerELN9__gnu_cxx12_Lock_policyE2EEaSERKS4_ = comdat any

$_ZNSt12__shared_ptrIN7rocksdb6LoggerELN9__gnu_cxx12_Lock_policyE2EEaSERKS4_ = comdat any

$_ZNSt12__shared_ptrIN7rocksdb10StatisticsELN9__gnu_cxx12_Lock_policyE2EEaSERKS4_ = comdat any

$_ZNKSt6vectorIN7rocksdb6DbPathESaIS1_EE4sizeEv = comdat any

$_ZNKSt6vectorIN7rocksdb6DbPathESaIS1_EE8capacityEv = comdat any

$_ZNSt6vectorIN7rocksdb6DbPathESaIS1_EE20_M_allocate_and_copyIN9__gnu_cxx17__normal_iteratorIPKS1_S3_EEEEPS1_mT_SB_ = comdat any

$_ZNKSt6vectorIN7rocksdb6DbPathESaIS1_EE5beginEv = comdat any

$_ZNKSt6vectorIN7rocksdb6DbPathESaIS1_EE3endEv = comdat any

$_ZSt8_DestroyIPN7rocksdb6DbPathES1_EvT_S3_RSaIT0_E = comdat any

$_ZNSt12_Vector_baseIN7rocksdb6DbPathESaIS1_EE19_M_get_Tp_allocatorEv = comdat any

$_ZNSt12_Vector_baseIN7rocksdb6DbPathESaIS1_EE13_M_deallocateEPS1_m = comdat any

$_ZSt8_DestroyIN9__gnu_cxx17__normal_iteratorIPN7rocksdb6DbPathESt6vectorIS3_SaIS3_EEEES3_EvT_S9_RSaIT0_E = comdat any

$_ZSt4copyIN9__gnu_cxx17__normal_iteratorIPKN7rocksdb6DbPathESt6vectorIS3_SaIS3_EEEENS1_IPS3_S8_EEET0_T_SD_SC_ = comdat any

$_ZNSt6vectorIN7rocksdb6DbPathESaIS1_EE5beginEv = comdat any

$_ZNSt6vectorIN7rocksdb6DbPathESaIS1_EE3endEv = comdat any

$_ZSt4copyIPN7rocksdb6DbPathES2_ET0_T_S4_S3_ = comdat any

$_ZSt22__uninitialized_copy_aIPN7rocksdb6DbPathES2_S1_ET0_T_S4_S3_RSaIT1_E = comdat any

$_ZNSt12_Vector_baseIN7rocksdb6DbPathESaIS1_EE11_M_allocateEm = comdat any

$_ZSt22__uninitialized_copy_aIN9__gnu_cxx17__normal_iteratorIPKN7rocksdb6DbPathESt6vectorIS3_SaIS3_EEEEPS3_S3_ET0_T_SC_SB_RSaIT1_E = comdat any

$_ZNSt16allocator_traitsISaIN7rocksdb6DbPathEEE8allocateERS2_m = comdat any

$_ZNSt15__new_allocatorIN7rocksdb6DbPathEE8allocateEmPKv = comdat any

$_ZNKSt15__new_allocatorIN7rocksdb6DbPathEE11_M_max_sizeEv = comdat any

$_ZSt18uninitialized_copyIN9__gnu_cxx17__normal_iteratorIPKN7rocksdb6DbPathESt6vectorIS3_SaIS3_EEEEPS3_ET0_T_SC_SB_ = comdat any

$_ZNSt20__uninitialized_copyILb0EE13__uninit_copyIN9__gnu_cxx17__normal_iteratorIPKN7rocksdb6DbPathESt6vectorIS5_SaIS5_EEEEPS5_EET0_T_SE_SD_ = comdat any

$_ZSt16__do_uninit_copyIN9__gnu_cxx17__normal_iteratorIPKN7rocksdb6DbPathESt6vectorIS3_SaIS3_EEEEPS3_ET0_T_SC_SB_ = comdat any

$_ZN9__gnu_cxxneIPKN7rocksdb6DbPathESt6vectorIS2_SaIS2_EEEEbRKNS_17__normal_iteratorIT_T0_EESD_ = comdat any

$_ZSt10_ConstructIN7rocksdb6DbPathEJRKS1_EEvPT_DpOT0_ = comdat any

$_ZNK9__gnu_cxx17__normal_iteratorIPKN7rocksdb6DbPathESt6vectorIS2_SaIS2_EEEdeEv = comdat any

$_ZN9__gnu_cxx17__normal_iteratorIPKN7rocksdb6DbPathESt6vectorIS2_SaIS2_EEEppEv = comdat any

$_ZSt8_DestroyIPN7rocksdb6DbPathEEvT_S3_ = comdat any

$_ZNK9__gnu_cxx17__normal_iteratorIPKN7rocksdb6DbPathESt6vectorIS2_SaIS2_EEE4baseEv = comdat any

$_ZN7rocksdb6DbPathC2ERKS0_ = comdat any

$_ZNSt12_Destroy_auxILb0EE9__destroyIPN7rocksdb6DbPathEEEvT_S5_ = comdat any

$_ZSt8_DestroyIN7rocksdb6DbPathEEvPT_ = comdat any

$_ZN7rocksdb6DbPathD2Ev = comdat any

$_ZN9__gnu_cxx17__normal_iteratorIPKN7rocksdb6DbPathESt6vectorIS2_SaIS2_EEEC2ERKS4_ = comdat any

$_ZNSt16allocator_traitsISaIN7rocksdb6DbPathEEE10deallocateERS2_PS1_m = comdat any

$_ZNSt15__new_allocatorIN7rocksdb6DbPathEE10deallocateEPS1_m = comdat any

$_ZSt8_DestroyIN9__gnu_cxx17__normal_iteratorIPN7rocksdb6DbPathESt6vectorIS3_SaIS3_EEEEEvT_S9_ = comdat any

$_ZNSt12_Destroy_auxILb0EE9__destroyIN9__gnu_cxx17__normal_iteratorIPN7rocksdb6DbPathESt6vectorIS5_SaIS5_EEEEEEvT_SB_ = comdat any

$_ZN9__gnu_cxxneIPN7rocksdb6DbPathESt6vectorIS2_SaIS2_EEEEbRKNS_17__normal_iteratorIT_T0_EESC_ = comdat any

$_ZNK9__gnu_cxx17__normal_iteratorIPN7rocksdb6DbPathESt6vectorIS2_SaIS2_EEEdeEv = comdat any

$_ZN9__gnu_cxx17__normal_iteratorIPN7rocksdb6DbPathESt6vectorIS2_SaIS2_EEEppEv = comdat any

$_ZNK9__gnu_cxx17__normal_iteratorIPN7rocksdb6DbPathESt6vectorIS2_SaIS2_EEE4baseEv = comdat any

$_ZSt13__copy_move_aILb0EN9__gnu_cxx17__normal_iteratorIPKN7rocksdb6DbPathESt6vectorIS3_SaIS3_EEEENS1_IPS3_S8_EEET1_T0_SD_SC_ = comdat any

$_ZSt12__miter_baseIN9__gnu_cxx17__normal_iteratorIPKN7rocksdb6DbPathESt6vectorIS3_SaIS3_EEEEET_SA_ = comdat any

$_ZSt12__niter_wrapIN9__gnu_cxx17__normal_iteratorIPN7rocksdb6DbPathESt6vectorIS3_SaIS3_EEEES4_ET_S9_T0_ = comdat any

$_ZSt14__copy_move_a1ILb0EPKN7rocksdb6DbPathEPS1_ET1_T0_S6_S5_ = comdat any

$_ZSt12__niter_baseIPKN7rocksdb6DbPathESt6vectorIS1_SaIS1_EEET_N9__gnu_cxx17__normal_iteratorIS7_T0_EE = comdat any

$_ZSt12__niter_baseIPN7rocksdb6DbPathESt6vectorIS1_SaIS1_EEET_N9__gnu_cxx17__normal_iteratorIS6_T0_EE = comdat any

$_ZNK9__gnu_cxx17__normal_iteratorIPN7rocksdb6DbPathESt6vectorIS2_SaIS2_EEEplEl = comdat any

$_ZN9__gnu_cxx17__normal_iteratorIPN7rocksdb6DbPathESt6vectorIS2_SaIS2_EEEC2ERKS3_ = comdat any

$_ZSt14__copy_move_a2ILb0EPKN7rocksdb6DbPathEPS1_ET1_T0_S6_S5_ = comdat any

$_ZNSt11__copy_moveILb0ELb0ESt26random_access_iterator_tagE8__copy_mIPKN7rocksdb6DbPathEPS4_EET0_T_S9_S8_ = comdat any

$_ZN7rocksdb6DbPathaSERKS0_ = comdat any

$_ZSt13__copy_move_aILb0EPN7rocksdb6DbPathES2_ET1_T0_S4_S3_ = comdat any

$_ZSt12__miter_baseIPN7rocksdb6DbPathEET_S3_ = comdat any

$_ZSt12__niter_wrapIPN7rocksdb6DbPathEET_RKS3_S3_ = comdat any

$_ZSt14__copy_move_a1ILb0EPN7rocksdb6DbPathES2_ET1_T0_S4_S3_ = comdat any

$_ZSt12__niter_baseIPN7rocksdb6DbPathEET_S3_ = comdat any

$_ZSt14__copy_move_a2ILb0EPN7rocksdb6DbPathES2_ET1_T0_S4_S3_ = comdat any

$_ZNSt11__copy_moveILb0ELb0ESt26random_access_iterator_tagE8__copy_mIPN7rocksdb6DbPathES5_EET0_T_S7_S6_ = comdat any

$_ZSt18uninitialized_copyIPN7rocksdb6DbPathES2_ET0_T_S4_S3_ = comdat any

$_ZNSt20__uninitialized_copyILb0EE13__uninit_copyIPN7rocksdb6DbPathES4_EET0_T_S6_S5_ = comdat any

$_ZSt16__do_uninit_copyIPN7rocksdb6DbPathES2_ET0_T_S4_S3_ = comdat any

$_ZSt10_ConstructIN7rocksdb6DbPathEJRS1_EEvPT_DpOT0_ = comdat any

$_ZNSt12__shared_ptrIN7rocksdb18WriteBufferManagerELN9__gnu_cxx12_Lock_policyE2EEaSERKS4_ = comdat any

$_ZNKSt6vectorISt10shared_ptrIN7rocksdb13EventListenerEESaIS3_EE4sizeEv = comdat any

$_ZNKSt6vectorISt10shared_ptrIN7rocksdb13EventListenerEESaIS3_EE8capacityEv = comdat any

$_ZNSt6vectorISt10shared_ptrIN7rocksdb13EventListenerEESaIS3_EE20_M_allocate_and_copyIN9__gnu_cxx17__normal_iteratorIPKS3_S5_EEEEPS3_mT_SD_ = comdat any

$_ZNKSt6vectorISt10shared_ptrIN7rocksdb13EventListenerEESaIS3_EE5beginEv = comdat any

$_ZNKSt6vectorISt10shared_ptrIN7rocksdb13EventListenerEESaIS3_EE3endEv = comdat any

$_ZSt8_DestroyIPSt10shared_ptrIN7rocksdb13EventListenerEES3_EvT_S5_RSaIT0_E = comdat any

$_ZNSt12_Vector_baseISt10shared_ptrIN7rocksdb13EventListenerEESaIS3_EE19_M_get_Tp_allocatorEv = comdat any

$_ZNSt12_Vector_baseISt10shared_ptrIN7rocksdb13EventListenerEESaIS3_EE13_M_deallocateEPS3_m = comdat any

$_ZSt8_DestroyIN9__gnu_cxx17__normal_iteratorIPSt10shared_ptrIN7rocksdb13EventListenerEESt6vectorIS5_SaIS5_EEEES5_EvT_SB_RSaIT0_E = comdat any

$_ZSt4copyIN9__gnu_cxx17__normal_iteratorIPKSt10shared_ptrIN7rocksdb13EventListenerEESt6vectorIS5_SaIS5_EEEENS1_IPS5_SA_EEET0_T_SF_SE_ = comdat any

$_ZNSt6vectorISt10shared_ptrIN7rocksdb13EventListenerEESaIS3_EE5beginEv = comdat any

$_ZNSt6vectorISt10shared_ptrIN7rocksdb13EventListenerEESaIS3_EE3endEv = comdat any

$_ZSt4copyIPSt10shared_ptrIN7rocksdb13EventListenerEES4_ET0_T_S6_S5_ = comdat any

$_ZSt22__uninitialized_copy_aIPSt10shared_ptrIN7rocksdb13EventListenerEES4_S3_ET0_T_S6_S5_RSaIT1_E = comdat any

$_ZNSt12_Vector_baseISt10shared_ptrIN7rocksdb13EventListenerEESaIS3_EE11_M_allocateEm = comdat any

$_ZSt22__uninitialized_copy_aIN9__gnu_cxx17__normal_iteratorIPKSt10shared_ptrIN7rocksdb13EventListenerEESt6vectorIS5_SaIS5_EEEEPS5_S5_ET0_T_SE_SD_RSaIT1_E = comdat any

$_ZNSt16allocator_traitsISaISt10shared_ptrIN7rocksdb13EventListenerEEEE8allocateERS4_m = comdat any

$_ZNSt15__new_allocatorISt10shared_ptrIN7rocksdb13EventListenerEEE8allocateEmPKv = comdat any

$_ZNKSt15__new_allocatorISt10shared_ptrIN7rocksdb13EventListenerEEE11_M_max_sizeEv = comdat any

$_ZSt18uninitialized_copyIN9__gnu_cxx17__normal_iteratorIPKSt10shared_ptrIN7rocksdb13EventListenerEESt6vectorIS5_SaIS5_EEEEPS5_ET0_T_SE_SD_ = comdat any

$_ZNSt20__uninitialized_copyILb0EE13__uninit_copyIN9__gnu_cxx17__normal_iteratorIPKSt10shared_ptrIN7rocksdb13EventListenerEESt6vectorIS7_SaIS7_EEEEPS7_EET0_T_SG_SF_ = comdat any

$_ZSt16__do_uninit_copyIN9__gnu_cxx17__normal_iteratorIPKSt10shared_ptrIN7rocksdb13EventListenerEESt6vectorIS5_SaIS5_EEEEPS5_ET0_T_SE_SD_ = comdat any

$_ZN9__gnu_cxxneIPKSt10shared_ptrIN7rocksdb13EventListenerEESt6vectorIS4_SaIS4_EEEEbRKNS_17__normal_iteratorIT_T0_EESF_ = comdat any

$_ZSt10_ConstructISt10shared_ptrIN7rocksdb13EventListenerEEJRKS3_EEvPT_DpOT0_ = comdat any

$_ZNK9__gnu_cxx17__normal_iteratorIPKSt10shared_ptrIN7rocksdb13EventListenerEESt6vectorIS4_SaIS4_EEEdeEv = comdat any

$_ZN9__gnu_cxx17__normal_iteratorIPKSt10shared_ptrIN7rocksdb13EventListenerEESt6vectorIS4_SaIS4_EEEppEv = comdat any

$_ZSt8_DestroyIPSt10shared_ptrIN7rocksdb13EventListenerEEEvT_S5_ = comdat any

$_ZNK9__gnu_cxx17__normal_iteratorIPKSt10shared_ptrIN7rocksdb13EventListenerEESt6vectorIS4_SaIS4_EEE4baseEv = comdat any

$_ZNSt10shared_ptrIN7rocksdb13EventListenerEEC2ERKS2_ = comdat any

$_ZNSt12__shared_ptrIN7rocksdb13EventListenerELN9__gnu_cxx12_Lock_policyE2EEC2ERKS4_ = comdat any

$_ZNSt14__shared_countILN9__gnu_cxx12_Lock_policyE2EEC2ERKS2_ = comdat any

$_ZNSt12_Destroy_auxILb0EE9__destroyIPSt10shared_ptrIN7rocksdb13EventListenerEEEEvT_S7_ = comdat any

$_ZSt8_DestroyISt10shared_ptrIN7rocksdb13EventListenerEEEvPT_ = comdat any

$_ZNSt10shared_ptrIN7rocksdb13EventListenerEED2Ev = comdat any

$_ZNSt12__shared_ptrIN7rocksdb13EventListenerELN9__gnu_cxx12_Lock_policyE2EED2Ev = comdat any

$_ZNSt14__shared_countILN9__gnu_cxx12_Lock_policyE2EED2Ev = comdat any

$_ZN9__gnu_cxx17__normal_iteratorIPKSt10shared_ptrIN7rocksdb13EventListenerEESt6vectorIS4_SaIS4_EEEC2ERKS6_ = comdat any

$_ZNSt16allocator_traitsISaISt10shared_ptrIN7rocksdb13EventListenerEEEE10deallocateERS4_PS3_m = comdat any

$_ZNSt15__new_allocatorISt10shared_ptrIN7rocksdb13EventListenerEEE10deallocateEPS3_m = comdat any

$_ZSt8_DestroyIN9__gnu_cxx17__normal_iteratorIPSt10shared_ptrIN7rocksdb13EventListenerEESt6vectorIS5_SaIS5_EEEEEvT_SB_ = comdat any

$_ZNSt12_Destroy_auxILb0EE9__destroyIN9__gnu_cxx17__normal_iteratorIPSt10shared_ptrIN7rocksdb13EventListenerEESt6vectorIS7_SaIS7_EEEEEEvT_SD_ = comdat any

$_ZN9__gnu_cxxneIPSt10shared_ptrIN7rocksdb13EventListenerEESt6vectorIS4_SaIS4_EEEEbRKNS_17__normal_iteratorIT_T0_EESE_ = comdat any

$_ZNK9__gnu_cxx17__normal_iteratorIPSt10shared_ptrIN7rocksdb13EventListenerEESt6vectorIS4_SaIS4_EEEdeEv = comdat any

$_ZN9__gnu_cxx17__normal_iteratorIPSt10shared_ptrIN7rocksdb13EventListenerEESt6vectorIS4_SaIS4_EEEppEv = comdat any

$_ZNK9__gnu_cxx17__normal_iteratorIPSt10shared_ptrIN7rocksdb13EventListenerEESt6vectorIS4_SaIS4_EEE4baseEv = comdat any

$_ZSt13__copy_move_aILb0EN9__gnu_cxx17__normal_iteratorIPKSt10shared_ptrIN7rocksdb13EventListenerEESt6vectorIS5_SaIS5_EEEENS1_IPS5_SA_EEET1_T0_SF_SE_ = comdat any

$_ZSt12__miter_baseIN9__gnu_cxx17__normal_iteratorIPKSt10shared_ptrIN7rocksdb13EventListenerEESt6vectorIS5_SaIS5_EEEEET_SC_ = comdat any

$_ZSt12__niter_wrapIN9__gnu_cxx17__normal_iteratorIPSt10shared_ptrIN7rocksdb13EventListenerEESt6vectorIS5_SaIS5_EEEES6_ET_SB_T0_ = comdat any

$_ZSt14__copy_move_a1ILb0EPKSt10shared_ptrIN7rocksdb13EventListenerEEPS3_ET1_T0_S8_S7_ = comdat any

$_ZSt12__niter_baseIPKSt10shared_ptrIN7rocksdb13EventListenerEESt6vectorIS3_SaIS3_EEET_N9__gnu_cxx17__normal_iteratorIS9_T0_EE = comdat any

$_ZSt12__niter_baseIPSt10shared_ptrIN7rocksdb13EventListenerEESt6vectorIS3_SaIS3_EEET_N9__gnu_cxx17__normal_iteratorIS8_T0_EE = comdat any

$_ZNK9__gnu_cxx17__normal_iteratorIPSt10shared_ptrIN7rocksdb13EventListenerEESt6vectorIS4_SaIS4_EEEplEl = comdat any

$_ZN9__gnu_cxx17__normal_iteratorIPSt10shared_ptrIN7rocksdb13EventListenerEESt6vectorIS4_SaIS4_EEEC2ERKS5_ = comdat any

$_ZSt14__copy_move_a2ILb0EPKSt10shared_ptrIN7rocksdb13EventListenerEEPS3_ET1_T0_S8_S7_ = comdat any

$_ZNSt11__copy_moveILb0ELb0ESt26random_access_iterator_tagE8__copy_mIPKSt10shared_ptrIN7rocksdb13EventListenerEEPS6_EET0_T_SB_SA_ = comdat any

$_ZNSt10shared_ptrIN7rocksdb13EventListenerEEaSERKS2_ = comdat any

$_ZNSt12__shared_ptrIN7rocksdb13EventListenerELN9__gnu_cxx12_Lock_policyE2EEaSERKS4_ = comdat any

$_ZSt13__copy_move_aILb0EPSt10shared_ptrIN7rocksdb13EventListenerEES4_ET1_T0_S6_S5_ = comdat any

$_ZSt12__miter_baseIPSt10shared_ptrIN7rocksdb13EventListenerEEET_S5_ = comdat any

$_ZSt12__niter_wrapIPSt10shared_ptrIN7rocksdb13EventListenerEEET_RKS5_S5_ = comdat any

$_ZSt14__copy_move_a1ILb0EPSt10shared_ptrIN7rocksdb13EventListenerEES4_ET1_T0_S6_S5_ = comdat any

$_ZSt12__niter_baseIPSt10shared_ptrIN7rocksdb13EventListenerEEET_S5_ = comdat any

$_ZSt14__copy_move_a2ILb0EPSt10shared_ptrIN7rocksdb13EventListenerEES4_ET1_T0_S6_S5_ = comdat any

$_ZNSt11__copy_moveILb0ELb0ESt26random_access_iterator_tagE8__copy_mIPSt10shared_ptrIN7rocksdb13EventListenerEES7_EET0_T_S9_S8_ = comdat any

$_ZSt18uninitialized_copyIPSt10shared_ptrIN7rocksdb13EventListenerEES4_ET0_T_S6_S5_ = comdat any

$_ZNSt20__uninitialized_copyILb0EE13__uninit_copyIPSt10shared_ptrIN7rocksdb13EventListenerEES6_EET0_T_S8_S7_ = comdat any

$_ZSt16__do_uninit_copyIPSt10shared_ptrIN7rocksdb13EventListenerEES4_ET0_T_S6_S5_ = comdat any

$_ZSt10_ConstructISt10shared_ptrIN7rocksdb13EventListenerEEJRS3_EEvPT_DpOT0_ = comdat any

$_ZNSt12__shared_ptrIN7rocksdb22FileChecksumGenFactoryELN9__gnu_cxx12_Lock_policyE2EEaSERKS4_ = comdat any

$_ZNSt12__shared_ptrIN7rocksdb17CompactionServiceELN9__gnu_cxx12_Lock_policyE2EEaSERKS4_ = comdat any

$_ZN7rocksdb19ColumnFamilyOptionsC2ERKS0_ = comdat any

$_ZN7rocksdb27AdvancedColumnFamilyOptionsC2ERKS0_ = comdat any

$_ZNSt10shared_ptrIN7rocksdb13MergeOperatorEEC2ERKS2_ = comdat any

$_ZNSt10shared_ptrIN7rocksdb23CompactionFilterFactoryEEC2ERKS2_ = comdat any

$_ZNSt10shared_ptrIKN7rocksdb14SliceTransformEEC2ERKS3_ = comdat any

$_ZNSt10shared_ptrIN7rocksdb12TableFactoryEEC2ERKS2_ = comdat any

$_ZNSt6vectorIN7rocksdb6DbPathESaIS1_EEC2ERKS3_ = comdat any

$_ZNSt10shared_ptrIN7rocksdb21ConcurrentTaskLimiterEEC2ERKS2_ = comdat any

$_ZNSt10shared_ptrIN7rocksdb21SstPartitionerFactoryEEC2ERKS2_ = comdat any

$_ZNSt10shared_ptrIN7rocksdb12TableFactoryEED2Ev = comdat any

$_ZNSt10shared_ptrIKN7rocksdb14SliceTransformEED2Ev = comdat any

$_ZNSt10shared_ptrIN7rocksdb23CompactionFilterFactoryEED2Ev = comdat any

$_ZNSt10shared_ptrIN7rocksdb13MergeOperatorEED2Ev = comdat any

$_ZN7rocksdb27AdvancedColumnFamilyOptionsD2Ev = comdat any

$_ZNSt6vectorIN7rocksdb15CompressionTypeESaIS1_EEC2ERKS3_ = comdat any

$_ZNSt6vectorIiSaIiEEC2ERKS1_ = comdat any

$_ZN7rocksdb21CompactionOptionsFIFOC2ERKS0_ = comdat any

$_ZNSt10shared_ptrIN7rocksdb18MemTableRepFactoryEEC2ERKS2_ = comdat any

$_ZNSt6vectorISt10shared_ptrIN7rocksdb31TablePropertiesCollectorFactoryEESaIS3_EEC2ERKS5_ = comdat any

$_ZNSt10shared_ptrIN7rocksdb5CacheEEC2ERKS2_ = comdat any

$_ZNSt10shared_ptrIN7rocksdb18MemTableRepFactoryEED2Ev = comdat any

$_ZN7rocksdb21CompactionOptionsFIFOD2Ev = comdat any

$_ZNSt6vectorIiSaIiEED2Ev = comdat any

$_ZNSt6vectorIN7rocksdb15CompressionTypeESaIS1_EED2Ev = comdat any

$_ZNKSt6vectorIN7rocksdb15CompressionTypeESaIS1_EE4sizeEv = comdat any

$_ZN9__gnu_cxx14__alloc_traitsISaIN7rocksdb15CompressionTypeEES2_E17_S_select_on_copyERKS3_ = comdat any

$_ZNKSt12_Vector_baseIN7rocksdb15CompressionTypeESaIS1_EE19_M_get_Tp_allocatorEv = comdat any

$_ZNSt12_Vector_baseIN7rocksdb15CompressionTypeESaIS1_EEC2EmRKS2_ = comdat any

$_ZNSaIN7rocksdb15CompressionTypeEED2Ev = comdat any

$_ZSt22__uninitialized_copy_aIN9__gnu_cxx17__normal_iteratorIPKN7rocksdb15CompressionTypeESt6vectorIS3_SaIS3_EEEEPS3_S3_ET0_T_SC_SB_RSaIT1_E = comdat any

$_ZNKSt6vectorIN7rocksdb15CompressionTypeESaIS1_EE5beginEv = comdat any

$_ZNKSt6vectorIN7rocksdb15CompressionTypeESaIS1_EE3endEv = comdat any

$_ZNSt12_Vector_baseIN7rocksdb15CompressionTypeESaIS1_EE19_M_get_Tp_allocatorEv = comdat any

$_ZNSt12_Vector_baseIN7rocksdb15CompressionTypeESaIS1_EED2Ev = comdat any

$_ZNSt16allocator_traitsISaIN7rocksdb15CompressionTypeEEE37select_on_container_copy_constructionERKS2_ = comdat any

$_ZNSaIN7rocksdb15CompressionTypeEEC2ERKS1_ = comdat any

$_ZNSt15__new_allocatorIN7rocksdb15CompressionTypeEEC2ERKS2_ = comdat any

$_ZNSt12_Vector_baseIN7rocksdb15CompressionTypeESaIS1_EE12_Vector_implC2ERKS2_ = comdat any

$_ZNSt12_Vector_baseIN7rocksdb15CompressionTypeESaIS1_EE17_M_create_storageEm = comdat any

$_ZNSt12_Vector_baseIN7rocksdb15CompressionTypeESaIS1_EE12_Vector_implD2Ev = comdat any

$_ZNSt12_Vector_baseIN7rocksdb15CompressionTypeESaIS1_EE17_Vector_impl_dataC2Ev = comdat any

$_ZNSt12_Vector_baseIN7rocksdb15CompressionTypeESaIS1_EE11_M_allocateEm = comdat any

$_ZNSt16allocator_traitsISaIN7rocksdb15CompressionTypeEEE8allocateERS2_m = comdat any

$_ZNSt15__new_allocatorIN7rocksdb15CompressionTypeEE8allocateEmPKv = comdat any

$_ZNKSt15__new_allocatorIN7rocksdb15CompressionTypeEE11_M_max_sizeEv = comdat any

$_ZNSt15__new_allocatorIN7rocksdb15CompressionTypeEED2Ev = comdat any

$_ZSt18uninitialized_copyIN9__gnu_cxx17__normal_iteratorIPKN7rocksdb15CompressionTypeESt6vectorIS3_SaIS3_EEEEPS3_ET0_T_SC_SB_ = comdat any

$_ZNSt20__uninitialized_copyILb1EE13__uninit_copyIN9__gnu_cxx17__normal_iteratorIPKN7rocksdb15CompressionTypeESt6vectorIS5_SaIS5_EEEEPS5_EET0_T_SE_SD_ = comdat any

$_ZSt4copyIN9__gnu_cxx17__normal_iteratorIPKN7rocksdb15CompressionTypeESt6vectorIS3_SaIS3_EEEEPS3_ET0_T_SC_SB_ = comdat any

$_ZSt13__copy_move_aILb0EN9__gnu_cxx17__normal_iteratorIPKN7rocksdb15CompressionTypeESt6vectorIS3_SaIS3_EEEEPS3_ET1_T0_SC_SB_ = comdat any

$_ZSt12__miter_baseIN9__gnu_cxx17__normal_iteratorIPKN7rocksdb15CompressionTypeESt6vectorIS3_SaIS3_EEEEET_SA_ = comdat any

$_ZSt12__niter_wrapIPN7rocksdb15CompressionTypeEET_RKS3_S3_ = comdat any

$_ZSt14__copy_move_a1ILb0EPKN7rocksdb15CompressionTypeEPS1_ET1_T0_S6_S5_ = comdat any

$_ZSt12__niter_baseIPKN7rocksdb15CompressionTypeESt6vectorIS1_SaIS1_EEET_N9__gnu_cxx17__normal_iteratorIS7_T0_EE = comdat any

$_ZSt12__niter_baseIPN7rocksdb15CompressionTypeEET_S3_ = comdat any

$_ZSt14__copy_move_a2ILb0EPKN7rocksdb15CompressionTypeEPS1_ET1_T0_S6_S5_ = comdat any

$_ZNSt11__copy_moveILb0ELb1ESt26random_access_iterator_tagE8__copy_mIN7rocksdb15CompressionTypeEEEPT_PKS5_S8_S6_ = comdat any

$_ZNK9__gnu_cxx17__normal_iteratorIPKN7rocksdb15CompressionTypeESt6vectorIS2_SaIS2_EEE4baseEv = comdat any

$_ZN9__gnu_cxx17__normal_iteratorIPKN7rocksdb15CompressionTypeESt6vectorIS2_SaIS2_EEEC2ERKS4_ = comdat any

$_ZNSt12_Vector_baseIN7rocksdb15CompressionTypeESaIS1_EE13_M_deallocateEPS1_m = comdat any

$_ZNSt16allocator_traitsISaIN7rocksdb15CompressionTypeEEE10deallocateERS2_PS1_m = comdat any

$_ZNSt15__new_allocatorIN7rocksdb15CompressionTypeEE10deallocateEPS1_m = comdat any

$_ZNKSt6vectorIiSaIiEE4sizeEv = comdat any

$_ZN9__gnu_cxx14__alloc_traitsISaIiEiE17_S_select_on_copyERKS1_ = comdat any

$_ZNKSt12_Vector_baseIiSaIiEE19_M_get_Tp_allocatorEv = comdat any

$_ZNSt12_Vector_baseIiSaIiEEC2EmRKS0_ = comdat any

$_ZNSaIiED2Ev = comdat any

$_ZSt22__uninitialized_copy_aIN9__gnu_cxx17__normal_iteratorIPKiSt6vectorIiSaIiEEEEPiiET0_T_SA_S9_RSaIT1_E = comdat any

$_ZNKSt6vectorIiSaIiEE5beginEv = comdat any

$_ZNKSt6vectorIiSaIiEE3endEv = comdat any

$_ZNSt12_Vector_baseIiSaIiEE19_M_get_Tp_allocatorEv = comdat any

$_ZNSt12_Vector_baseIiSaIiEED2Ev = comdat any

$_ZNSt16allocator_traitsISaIiEE37select_on_container_copy_constructionERKS0_ = comdat any

$_ZNSaIiEC2ERKS_ = comdat any

$_ZNSt15__new_allocatorIiEC2ERKS0_ = comdat any

$_ZNSt12_Vector_baseIiSaIiEE12_Vector_implC2ERKS0_ = comdat any

$_ZNSt12_Vector_baseIiSaIiEE17_M_create_storageEm = comdat any

$_ZNSt12_Vector_baseIiSaIiEE12_Vector_implD2Ev = comdat any

$_ZNSt12_Vector_baseIiSaIiEE17_Vector_impl_dataC2Ev = comdat any

$_ZNSt12_Vector_baseIiSaIiEE11_M_allocateEm = comdat any

$_ZNSt16allocator_traitsISaIiEE8allocateERS0_m = comdat any

$_ZNSt15__new_allocatorIiE8allocateEmPKv = comdat any

$_ZNKSt15__new_allocatorIiE11_M_max_sizeEv = comdat any

$_ZNSt15__new_allocatorIiED2Ev = comdat any

$_ZSt18uninitialized_copyIN9__gnu_cxx17__normal_iteratorIPKiSt6vectorIiSaIiEEEEPiET0_T_SA_S9_ = comdat any

$_ZNSt20__uninitialized_copyILb1EE13__uninit_copyIN9__gnu_cxx17__normal_iteratorIPKiSt6vectorIiSaIiEEEEPiEET0_T_SC_SB_ = comdat any

$_ZSt4copyIN9__gnu_cxx17__normal_iteratorIPKiSt6vectorIiSaIiEEEEPiET0_T_SA_S9_ = comdat any

$_ZSt13__copy_move_aILb0EN9__gnu_cxx17__normal_iteratorIPKiSt6vectorIiSaIiEEEEPiET1_T0_SA_S9_ = comdat any

$_ZSt12__miter_baseIN9__gnu_cxx17__normal_iteratorIPKiSt6vectorIiSaIiEEEEET_S8_ = comdat any

$_ZSt12__niter_wrapIPiET_RKS1_S1_ = comdat any

$_ZSt14__copy_move_a1ILb0EPKiPiET1_T0_S4_S3_ = comdat any

$_ZSt12__niter_baseIPKiSt6vectorIiSaIiEEET_N9__gnu_cxx17__normal_iteratorIS5_T0_EE = comdat any

$_ZSt12__niter_baseIPiET_S1_ = comdat any

$_ZSt14__copy_move_a2ILb0EPKiPiET1_T0_S4_S3_ = comdat any

$_ZNSt11__copy_moveILb0ELb1ESt26random_access_iterator_tagE8__copy_mIiEEPT_PKS3_S6_S4_ = comdat any

$_ZNK9__gnu_cxx17__normal_iteratorIPKiSt6vectorIiSaIiEEE4baseEv = comdat any

$_ZN9__gnu_cxx17__normal_iteratorIPKiSt6vectorIiSaIiEEEC2ERKS2_ = comdat any

$_ZNSt12_Vector_baseIiSaIiEE13_M_deallocateEPim = comdat any

$_ZNSt16allocator_traitsISaIiEE10deallocateERS0_Pim = comdat any

$_ZNSt15__new_allocatorIiE10deallocateEPim = comdat any

$_ZNSt6vectorIN7rocksdb18FileTemperatureAgeESaIS1_EEC2ERKS3_ = comdat any

$_ZNKSt6vectorIN7rocksdb18FileTemperatureAgeESaIS1_EE4sizeEv = comdat any

$_ZN9__gnu_cxx14__alloc_traitsISaIN7rocksdb18FileTemperatureAgeEES2_E17_S_select_on_copyERKS3_ = comdat any

$_ZNKSt12_Vector_baseIN7rocksdb18FileTemperatureAgeESaIS1_EE19_M_get_Tp_allocatorEv = comdat any

$_ZNSt12_Vector_baseIN7rocksdb18FileTemperatureAgeESaIS1_EEC2EmRKS2_ = comdat any

$_ZNSaIN7rocksdb18FileTemperatureAgeEED2Ev = comdat any

$_ZSt22__uninitialized_copy_aIN9__gnu_cxx17__normal_iteratorIPKN7rocksdb18FileTemperatureAgeESt6vectorIS3_SaIS3_EEEEPS3_S3_ET0_T_SC_SB_RSaIT1_E = comdat any

$_ZNKSt6vectorIN7rocksdb18FileTemperatureAgeESaIS1_EE5beginEv = comdat any

$_ZNKSt6vectorIN7rocksdb18FileTemperatureAgeESaIS1_EE3endEv = comdat any

$_ZNSt12_Vector_baseIN7rocksdb18FileTemperatureAgeESaIS1_EE19_M_get_Tp_allocatorEv = comdat any

$_ZNSt12_Vector_baseIN7rocksdb18FileTemperatureAgeESaIS1_EED2Ev = comdat any

$_ZNSt16allocator_traitsISaIN7rocksdb18FileTemperatureAgeEEE37select_on_container_copy_constructionERKS2_ = comdat any

$_ZNSaIN7rocksdb18FileTemperatureAgeEEC2ERKS1_ = comdat any

$_ZNSt15__new_allocatorIN7rocksdb18FileTemperatureAgeEEC2ERKS2_ = comdat any

$_ZNSt12_Vector_baseIN7rocksdb18FileTemperatureAgeESaIS1_EE12_Vector_implC2ERKS2_ = comdat any

$_ZNSt12_Vector_baseIN7rocksdb18FileTemperatureAgeESaIS1_EE17_M_create_storageEm = comdat any

$_ZNSt12_Vector_baseIN7rocksdb18FileTemperatureAgeESaIS1_EE12_Vector_implD2Ev = comdat any

$_ZNSt12_Vector_baseIN7rocksdb18FileTemperatureAgeESaIS1_EE17_Vector_impl_dataC2Ev = comdat any

$_ZNSt12_Vector_baseIN7rocksdb18FileTemperatureAgeESaIS1_EE11_M_allocateEm = comdat any

$_ZNSt16allocator_traitsISaIN7rocksdb18FileTemperatureAgeEEE8allocateERS2_m = comdat any

$_ZNSt15__new_allocatorIN7rocksdb18FileTemperatureAgeEE8allocateEmPKv = comdat any

$_ZNKSt15__new_allocatorIN7rocksdb18FileTemperatureAgeEE11_M_max_sizeEv = comdat any

$_ZNSt15__new_allocatorIN7rocksdb18FileTemperatureAgeEED2Ev = comdat any

$_ZSt18uninitialized_copyIN9__gnu_cxx17__normal_iteratorIPKN7rocksdb18FileTemperatureAgeESt6vectorIS3_SaIS3_EEEEPS3_ET0_T_SC_SB_ = comdat any

$_ZNSt20__uninitialized_copyILb0EE13__uninit_copyIN9__gnu_cxx17__normal_iteratorIPKN7rocksdb18FileTemperatureAgeESt6vectorIS5_SaIS5_EEEEPS5_EET0_T_SE_SD_ = comdat any

$_ZSt16__do_uninit_copyIN9__gnu_cxx17__normal_iteratorIPKN7rocksdb18FileTemperatureAgeESt6vectorIS3_SaIS3_EEEEPS3_ET0_T_SC_SB_ = comdat any

$_ZN9__gnu_cxxneIPKN7rocksdb18FileTemperatureAgeESt6vectorIS2_SaIS2_EEEEbRKNS_17__normal_iteratorIT_T0_EESD_ = comdat any

$_ZSt10_ConstructIN7rocksdb18FileTemperatureAgeEJRKS1_EEvPT_DpOT0_ = comdat any

$_ZNK9__gnu_cxx17__normal_iteratorIPKN7rocksdb18FileTemperatureAgeESt6vectorIS2_SaIS2_EEEdeEv = comdat any

$_ZN9__gnu_cxx17__normal_iteratorIPKN7rocksdb18FileTemperatureAgeESt6vectorIS2_SaIS2_EEEppEv = comdat any

$_ZSt8_DestroyIPN7rocksdb18FileTemperatureAgeEEvT_S3_ = comdat any

$_ZNK9__gnu_cxx17__normal_iteratorIPKN7rocksdb18FileTemperatureAgeESt6vectorIS2_SaIS2_EEE4baseEv = comdat any

$_ZNSt12_Destroy_auxILb1EE9__destroyIPN7rocksdb18FileTemperatureAgeEEEvT_S5_ = comdat any

$_ZN9__gnu_cxx17__normal_iteratorIPKN7rocksdb18FileTemperatureAgeESt6vectorIS2_SaIS2_EEEC2ERKS4_ = comdat any

$_ZNSt12_Vector_baseIN7rocksdb18FileTemperatureAgeESaIS1_EE13_M_deallocateEPS1_m = comdat any

$_ZNSt16allocator_traitsISaIN7rocksdb18FileTemperatureAgeEEE10deallocateERS2_PS1_m = comdat any

$_ZNSt15__new_allocatorIN7rocksdb18FileTemperatureAgeEE10deallocateEPS1_m = comdat any

$_ZNSt12__shared_ptrIN7rocksdb18MemTableRepFactoryELN9__gnu_cxx12_Lock_policyE2EEC2ERKS4_ = comdat any

$_ZNKSt6vectorISt10shared_ptrIN7rocksdb31TablePropertiesCollectorFactoryEESaIS3_EE4sizeEv = comdat any

$_ZN9__gnu_cxx14__alloc_traitsISaISt10shared_ptrIN7rocksdb31TablePropertiesCollectorFactoryEEES4_E17_S_select_on_copyERKS5_ = comdat any

$_ZNKSt12_Vector_baseISt10shared_ptrIN7rocksdb31TablePropertiesCollectorFactoryEESaIS3_EE19_M_get_Tp_allocatorEv = comdat any

$_ZNSt12_Vector_baseISt10shared_ptrIN7rocksdb31TablePropertiesCollectorFactoryEESaIS3_EEC2EmRKS4_ = comdat any

$_ZNSaISt10shared_ptrIN7rocksdb31TablePropertiesCollectorFactoryEEED2Ev = comdat any

$_ZSt22__uninitialized_copy_aIN9__gnu_cxx17__normal_iteratorIPKSt10shared_ptrIN7rocksdb31TablePropertiesCollectorFactoryEESt6vectorIS5_SaIS5_EEEEPS5_S5_ET0_T_SE_SD_RSaIT1_E = comdat any

$_ZNKSt6vectorISt10shared_ptrIN7rocksdb31TablePropertiesCollectorFactoryEESaIS3_EE5beginEv = comdat any

$_ZNKSt6vectorISt10shared_ptrIN7rocksdb31TablePropertiesCollectorFactoryEESaIS3_EE3endEv = comdat any

$_ZNSt12_Vector_baseISt10shared_ptrIN7rocksdb31TablePropertiesCollectorFactoryEESaIS3_EE19_M_get_Tp_allocatorEv = comdat any

$_ZNSt12_Vector_baseISt10shared_ptrIN7rocksdb31TablePropertiesCollectorFactoryEESaIS3_EED2Ev = comdat any

$_ZNSt16allocator_traitsISaISt10shared_ptrIN7rocksdb31TablePropertiesCollectorFactoryEEEE37select_on_container_copy_constructionERKS4_ = comdat any

$_ZNSaISt10shared_ptrIN7rocksdb31TablePropertiesCollectorFactoryEEEC2ERKS3_ = comdat any

$_ZNSt15__new_allocatorISt10shared_ptrIN7rocksdb31TablePropertiesCollectorFactoryEEEC2ERKS4_ = comdat any

$_ZNSt12_Vector_baseISt10shared_ptrIN7rocksdb31TablePropertiesCollectorFactoryEESaIS3_EE12_Vector_implC2ERKS4_ = comdat any

$_ZNSt12_Vector_baseISt10shared_ptrIN7rocksdb31TablePropertiesCollectorFactoryEESaIS3_EE17_M_create_storageEm = comdat any

$_ZNSt12_Vector_baseISt10shared_ptrIN7rocksdb31TablePropertiesCollectorFactoryEESaIS3_EE12_Vector_implD2Ev = comdat any

$_ZNSt12_Vector_baseISt10shared_ptrIN7rocksdb31TablePropertiesCollectorFactoryEESaIS3_EE17_Vector_impl_dataC2Ev = comdat any

$_ZNSt12_Vector_baseISt10shared_ptrIN7rocksdb31TablePropertiesCollectorFactoryEESaIS3_EE11_M_allocateEm = comdat any

$_ZNSt16allocator_traitsISaISt10shared_ptrIN7rocksdb31TablePropertiesCollectorFactoryEEEE8allocateERS4_m = comdat any

$_ZNSt15__new_allocatorISt10shared_ptrIN7rocksdb31TablePropertiesCollectorFactoryEEE8allocateEmPKv = comdat any

$_ZNKSt15__new_allocatorISt10shared_ptrIN7rocksdb31TablePropertiesCollectorFactoryEEE11_M_max_sizeEv = comdat any

$_ZNSt15__new_allocatorISt10shared_ptrIN7rocksdb31TablePropertiesCollectorFactoryEEED2Ev = comdat any

$_ZSt18uninitialized_copyIN9__gnu_cxx17__normal_iteratorIPKSt10shared_ptrIN7rocksdb31TablePropertiesCollectorFactoryEESt6vectorIS5_SaIS5_EEEEPS5_ET0_T_SE_SD_ = comdat any

$_ZNSt20__uninitialized_copyILb0EE13__uninit_copyIN9__gnu_cxx17__normal_iteratorIPKSt10shared_ptrIN7rocksdb31TablePropertiesCollectorFactoryEESt6vectorIS7_SaIS7_EEEEPS7_EET0_T_SG_SF_ = comdat any

$_ZSt16__do_uninit_copyIN9__gnu_cxx17__normal_iteratorIPKSt10shared_ptrIN7rocksdb31TablePropertiesCollectorFactoryEESt6vectorIS5_SaIS5_EEEEPS5_ET0_T_SE_SD_ = comdat any

$_ZN9__gnu_cxxneIPKSt10shared_ptrIN7rocksdb31TablePropertiesCollectorFactoryEESt6vectorIS4_SaIS4_EEEEbRKNS_17__normal_iteratorIT_T0_EESF_ = comdat any

$_ZSt10_ConstructISt10shared_ptrIN7rocksdb31TablePropertiesCollectorFactoryEEJRKS3_EEvPT_DpOT0_ = comdat any

$_ZNK9__gnu_cxx17__normal_iteratorIPKSt10shared_ptrIN7rocksdb31TablePropertiesCollectorFactoryEESt6vectorIS4_SaIS4_EEEdeEv = comdat any

$_ZN9__gnu_cxx17__normal_iteratorIPKSt10shared_ptrIN7rocksdb31TablePropertiesCollectorFactoryEESt6vectorIS4_SaIS4_EEEppEv = comdat any

$_ZSt8_DestroyIPSt10shared_ptrIN7rocksdb31TablePropertiesCollectorFactoryEEEvT_S5_ = comdat any

$_ZNK9__gnu_cxx17__normal_iteratorIPKSt10shared_ptrIN7rocksdb31TablePropertiesCollectorFactoryEESt6vectorIS4_SaIS4_EEE4baseEv = comdat any

$_ZNSt10shared_ptrIN7rocksdb31TablePropertiesCollectorFactoryEEC2ERKS2_ = comdat any

$_ZNSt12__shared_ptrIN7rocksdb31TablePropertiesCollectorFactoryELN9__gnu_cxx12_Lock_policyE2EEC2ERKS4_ = comdat any

$_ZNSt12_Destroy_auxILb0EE9__destroyIPSt10shared_ptrIN7rocksdb31TablePropertiesCollectorFactoryEEEEvT_S7_ = comdat any

$_ZSt8_DestroyISt10shared_ptrIN7rocksdb31TablePropertiesCollectorFactoryEEEvPT_ = comdat any

$_ZNSt10shared_ptrIN7rocksdb31TablePropertiesCollectorFactoryEED2Ev = comdat any

$_ZNSt12__shared_ptrIN7rocksdb31TablePropertiesCollectorFactoryELN9__gnu_cxx12_Lock_policyE2EED2Ev = comdat any

$_ZN9__gnu_cxx17__normal_iteratorIPKSt10shared_ptrIN7rocksdb31TablePropertiesCollectorFactoryEESt6vectorIS4_SaIS4_EEEC2ERKS6_ = comdat any

$_ZNSt12_Vector_baseISt10shared_ptrIN7rocksdb31TablePropertiesCollectorFactoryEESaIS3_EE13_M_deallocateEPS3_m = comdat any

$_ZNSt16allocator_traitsISaISt10shared_ptrIN7rocksdb31TablePropertiesCollectorFactoryEEEE10deallocateERS4_PS3_m = comdat any

$_ZNSt15__new_allocatorISt10shared_ptrIN7rocksdb31TablePropertiesCollectorFactoryEEE10deallocateEPS3_m = comdat any

$_ZNSt12__shared_ptrIN7rocksdb5CacheELN9__gnu_cxx12_Lock_policyE2EEC2ERKS4_ = comdat any

$_ZNSt12__shared_ptrIN7rocksdb18MemTableRepFactoryELN9__gnu_cxx12_Lock_policyE2EED2Ev = comdat any

$_ZNSt6vectorIN7rocksdb18FileTemperatureAgeESaIS1_EED2Ev = comdat any

$_ZSt8_DestroyIPN7rocksdb18FileTemperatureAgeES1_EvT_S3_RSaIT0_E = comdat any

$_ZSt8_DestroyIPiiEvT_S1_RSaIT0_E = comdat any

$_ZSt8_DestroyIPiEvT_S1_ = comdat any

$_ZNSt12_Destroy_auxILb1EE9__destroyIPiEEvT_S3_ = comdat any

$_ZSt8_DestroyIPN7rocksdb15CompressionTypeES1_EvT_S3_RSaIT0_E = comdat any

$_ZSt8_DestroyIPN7rocksdb15CompressionTypeEEvT_S3_ = comdat any

$_ZNSt12_Destroy_auxILb1EE9__destroyIPN7rocksdb15CompressionTypeEEEvT_S5_ = comdat any

$_ZNSt12__shared_ptrIN7rocksdb13MergeOperatorELN9__gnu_cxx12_Lock_policyE2EEC2ERKS4_ = comdat any

$_ZNSt12__shared_ptrIN7rocksdb23CompactionFilterFactoryELN9__gnu_cxx12_Lock_policyE2EEC2ERKS4_ = comdat any

$_ZNSt12__shared_ptrIKN7rocksdb14SliceTransformELN9__gnu_cxx12_Lock_policyE2EEC2ERKS5_ = comdat any

$_ZNSt12__shared_ptrIN7rocksdb12TableFactoryELN9__gnu_cxx12_Lock_policyE2EEC2ERKS4_ = comdat any

$_ZN9__gnu_cxx14__alloc_traitsISaIN7rocksdb6DbPathEES2_E17_S_select_on_copyERKS3_ = comdat any

$_ZNKSt12_Vector_baseIN7rocksdb6DbPathESaIS1_EE19_M_get_Tp_allocatorEv = comdat any

$_ZNSt12_Vector_baseIN7rocksdb6DbPathESaIS1_EEC2EmRKS2_ = comdat any

$_ZNSaIN7rocksdb6DbPathEED2Ev = comdat any

$_ZNSt12_Vector_baseIN7rocksdb6DbPathESaIS1_EED2Ev = comdat any

$_ZNSt16allocator_traitsISaIN7rocksdb6DbPathEEE37select_on_container_copy_constructionERKS2_ = comdat any

$_ZNSaIN7rocksdb6DbPathEEC2ERKS1_ = comdat any

$_ZNSt15__new_allocatorIN7rocksdb6DbPathEEC2ERKS2_ = comdat any

$_ZNSt12_Vector_baseIN7rocksdb6DbPathESaIS1_EE12_Vector_implC2ERKS2_ = comdat any

$_ZNSt12_Vector_baseIN7rocksdb6DbPathESaIS1_EE17_M_create_storageEm = comdat any

$_ZNSt12_Vector_baseIN7rocksdb6DbPathESaIS1_EE12_Vector_implD2Ev = comdat any

$_ZNSt12_Vector_baseIN7rocksdb6DbPathESaIS1_EE17_Vector_impl_dataC2Ev = comdat any

$_ZNSt15__new_allocatorIN7rocksdb6DbPathEED2Ev = comdat any

$_ZNSt12__shared_ptrIN7rocksdb21ConcurrentTaskLimiterELN9__gnu_cxx12_Lock_policyE2EEC2ERKS4_ = comdat any

$_ZNSt12__shared_ptrIN7rocksdb21SstPartitionerFactoryELN9__gnu_cxx12_Lock_policyE2EEC2ERKS4_ = comdat any

$_ZNSt12__shared_ptrIN7rocksdb12TableFactoryELN9__gnu_cxx12_Lock_policyE2EED2Ev = comdat any

$_ZNSt12__shared_ptrIKN7rocksdb14SliceTransformELN9__gnu_cxx12_Lock_policyE2EED2Ev = comdat any

$_ZNSt12__shared_ptrIN7rocksdb23CompactionFilterFactoryELN9__gnu_cxx12_Lock_policyE2EED2Ev = comdat any

$_ZNSt12__shared_ptrIN7rocksdb13MergeOperatorELN9__gnu_cxx12_Lock_policyE2EED2Ev = comdat any

$_ZNSt10shared_ptrIN7rocksdb5CacheEED2Ev = comdat any

$_ZNSt6vectorISt10shared_ptrIN7rocksdb31TablePropertiesCollectorFactoryEESaIS3_EED2Ev = comdat any

$_ZNSt12__shared_ptrIN7rocksdb5CacheELN9__gnu_cxx12_Lock_policyE2EED2Ev = comdat any

$_ZSt8_DestroyIPSt10shared_ptrIN7rocksdb31TablePropertiesCollectorFactoryEES3_EvT_S5_RSaIT0_E = comdat any

$_ZN7rocksdb19ColumnFamilyOptionsD2Ev = comdat any

$_ZNSt10shared_ptrIN7rocksdb21SstPartitionerFactoryEED2Ev = comdat any

$_ZNSt10shared_ptrIN7rocksdb21ConcurrentTaskLimiterEED2Ev = comdat any

$_ZNSt6vectorIN7rocksdb6DbPathESaIS1_EED2Ev = comdat any

$_ZNSt12__shared_ptrIN7rocksdb21SstPartitionerFactoryELN9__gnu_cxx12_Lock_policyE2EED2Ev = comdat any

$_ZNSt12__shared_ptrIN7rocksdb21ConcurrentTaskLimiterELN9__gnu_cxx12_Lock_policyE2EED2Ev = comdat any

$_ZNSt12__shared_ptrIN7rocksdb5CacheELN9__gnu_cxx12_Lock_policyE2EEaSERKS4_ = comdat any

$_ZNSt10unique_ptrIA_KcSt14default_deleteIS1_EED2Ev = comdat any

$_ZNSt15__uniq_ptr_implIKcSt14default_deleteIA_S0_EE6_M_ptrEv = comdat any

$_ZNSt10unique_ptrIA_KcSt14default_deleteIS1_EE11get_deleterEv = comdat any

$_ZNKSt14default_deleteIA_KcEclIS0_EENSt9enable_ifIXsr14is_convertibleIPA_T_PS1_EE5valueEvE4typeEPS5_ = comdat any

$_ZSt3getILm0EJPKcSt14default_deleteIA_S0_EEERNSt13tuple_elementIXT_ESt5tupleIJDpT0_EEE4typeERS9_ = comdat any

$_ZSt12__get_helperILm0EPKcJSt14default_deleteIA_S0_EEERT0_RSt11_Tuple_implIXT_EJS5_DpT1_EE = comdat any

$_ZNSt11_Tuple_implILm0EJPKcSt14default_deleteIA_S0_EEE7_M_headERS5_ = comdat any

$_ZNSt10_Head_baseILm0EPKcLb0EE7_M_headERS2_ = comdat any

$_ZNSt15__uniq_ptr_implIKcSt14default_deleteIA_S0_EE10_M_deleterEv = comdat any

$_ZSt3getILm1EJPKcSt14default_deleteIA_S0_EEERNSt13tuple_elementIXT_ESt5tupleIJDpT0_EEE4typeERS9_ = comdat any

$_ZSt12__get_helperILm1ESt14default_deleteIA_KcEJEERT0_RSt11_Tuple_implIXT_EJS4_DpT1_EE = comdat any

$_ZNSt11_Tuple_implILm1EJSt14default_deleteIA_KcEEE7_M_headERS4_ = comdat any

$_ZNSt10_Head_baseILm1ESt14default_deleteIA_KcELb1EE7_M_headERS4_ = comdat any

$_ZNSt6vectorISt13unordered_mapINSt7__cxx1112basic_stringIcSt11char_traitsIcESaIcEEES6_St4hashIS6_ESt8equal_toIS6_ESaISt4pairIKS6_S6_EEESaISF_EED2Ev = comdat any

$_ZNSt13unordered_mapINSt7__cxx1112basic_stringIcSt11char_traitsIcESaIcEEES5_St4hashIS5_ESt8equal_toIS5_ESaISt4pairIKS5_S5_EEED2Ev = comdat any

$_ZN7rocksdb9DBOptionsD2Ev = comdat any

$_ZSt8_DestroyIPSt13unordered_mapINSt7__cxx1112basic_stringIcSt11char_traitsIcESaIcEEES6_St4hashIS6_ESt8equal_toIS6_ESaISt4pairIKS6_S6_EEESF_EvT_SH_RSaIT0_E = comdat any

$_ZNSt12_Vector_baseISt13unordered_mapINSt7__cxx1112basic_stringIcSt11char_traitsIcESaIcEEES6_St4hashIS6_ESt8equal_toIS6_ESaISt4pairIKS6_S6_EEESaISF_EE19_M_get_Tp_allocatorEv = comdat any

$_ZNSt12_Vector_baseISt13unordered_mapINSt7__cxx1112basic_stringIcSt11char_traitsIcESaIcEEES6_St4hashIS6_ESt8equal_toIS6_ESaISt4pairIKS6_S6_EEESaISF_EED2Ev = comdat any

$_ZSt8_DestroyIPSt13unordered_mapINSt7__cxx1112basic_stringIcSt11char_traitsIcESaIcEEES6_St4hashIS6_ESt8equal_toIS6_ESaISt4pairIKS6_S6_EEEEvT_SH_ = comdat any

$_ZNSt12_Destroy_auxILb0EE9__destroyIPSt13unordered_mapINSt7__cxx1112basic_stringIcSt11char_traitsIcESaIcEEES8_St4hashIS8_ESt8equal_toIS8_ESaISt4pairIKS8_S8_EEEEEvT_SJ_ = comdat any

$_ZSt8_DestroyISt13unordered_mapINSt7__cxx1112basic_stringIcSt11char_traitsIcESaIcEEES6_St4hashIS6_ESt8equal_toIS6_ESaISt4pairIKS6_S6_EEEEvPT_ = comdat any

$_ZNSt12_Vector_baseISt13unordered_mapINSt7__cxx1112basic_stringIcSt11char_traitsIcESaIcEEES6_St4hashIS6_ESt8equal_toIS6_ESaISt4pairIKS6_S6_EEESaISF_EE13_M_deallocateEPSF_m = comdat any

$_ZNSt12_Vector_baseISt13unordered_mapINSt7__cxx1112basic_stringIcSt11char_traitsIcESaIcEEES6_St4hashIS6_ESt8equal_toIS6_ESaISt4pairIKS6_S6_EEESaISF_EE12_Vector_implD2Ev = comdat any

$_ZNSt16allocator_traitsISaISt13unordered_mapINSt7__cxx1112basic_stringIcSt11char_traitsIcESaIcEEES6_St4hashIS6_ESt8equal_toIS6_ESaISt4pairIKS6_S6_EEEEE10deallocateERSG_PSF_m = comdat any

$_ZNSt15__new_allocatorISt13unordered_mapINSt7__cxx1112basic_stringIcSt11char_traitsIcESaIcEEES6_St4hashIS6_ESt8equal_toIS6_ESaISt4pairIKS6_S6_EEEE10deallocateEPSF_m = comdat any

$_ZNSaISt13unordered_mapINSt7__cxx1112basic_stringIcSt11char_traitsIcESaIcEEES5_St4hashIS5_ESt8equal_toIS5_ESaISt4pairIKS5_S5_EEEED2Ev = comdat any

$_ZNSt15__new_allocatorISt13unordered_mapINSt7__cxx1112basic_stringIcSt11char_traitsIcESaIcEEES6_St4hashIS6_ESt8equal_toIS6_ESaISt4pairIKS6_S6_EEEED2Ev = comdat any

$_ZNSt10_HashtableINSt7__cxx1112basic_stringIcSt11char_traitsIcESaIcEEESt4pairIKS5_S5_ESaIS8_ENSt8__detail10_Select1stESt8equal_toIS5_ESt4hashIS5_ENSA_18_Mod_range_hashingENSA_20_Default_ranged_hashENSA_20_Prime_rehash_policyENSA_17_Hashtable_traitsILb1ELb0ELb1EEEED2Ev = comdat any

$_ZNSt10_HashtableINSt7__cxx1112basic_stringIcSt11char_traitsIcESaIcEEESt4pairIKS5_S5_ESaIS8_ENSt8__detail10_Select1stESt8equal_toIS5_ESt4hashIS5_ENSA_18_Mod_range_hashingENSA_20_Default_ranged_hashENSA_20_Prime_rehash_policyENSA_17_Hashtable_traitsILb1ELb0ELb1EEEE5clearEv = comdat any

$_ZNSt10_HashtableINSt7__cxx1112basic_stringIcSt11char_traitsIcESaIcEEESt4pairIKS5_S5_ESaIS8_ENSt8__detail10_Select1stESt8equal_toIS5_ESt4hashIS5_ENSA_18_Mod_range_hashingENSA_20_Default_ranged_hashENSA_20_Prime_rehash_policyENSA_17_Hashtable_traitsILb1ELb0ELb1EEEE21_M_deallocate_bucketsEv = comdat any

$_ZNSt8__detail16_Hashtable_allocISaINS_10_Hash_nodeISt4pairIKNSt7__cxx1112basic_stringIcSt11char_traitsIcESaIcEEES8_ELb1EEEEED2Ev = comdat any

$_ZNSt8__detail16_Hashtable_allocISaINS_10_Hash_nodeISt4pairIKNSt7__cxx1112basic_stringIcSt11char_traitsIcESaIcEEES8_ELb1EEEEE19_M_deallocate_nodesEPSB_ = comdat any

$_ZNKSt10_HashtableINSt7__cxx1112basic_stringIcSt11char_traitsIcESaIcEEESt4pairIKS5_S5_ESaIS8_ENSt8__detail10_Select1stESt8equal_toIS5_ESt4hashIS5_ENSA_18_Mod_range_hashingENSA_20_Default_ranged_hashENSA_20_Prime_rehash_policyENSA_17_Hashtable_traitsILb1ELb0ELb1EEEE8_M_beginEv = comdat any

$_ZNKSt8__detail10_Hash_nodeISt4pairIKNSt7__cxx1112basic_stringIcSt11char_traitsIcESaIcEEES7_ELb1EE7_M_nextEv = comdat any

$_ZNSt8__detail16_Hashtable_allocISaINS_10_Hash_nodeISt4pairIKNSt7__cxx1112basic_stringIcSt11char_traitsIcESaIcEEES8_ELb1EEEEE18_M_deallocate_nodeEPSB_ = comdat any

$_ZNSt16allocator_traitsISaINSt8__detail10_Hash_nodeISt4pairIKNSt7__cxx1112basic_stringIcSt11char_traitsIcESaIcEEES8_ELb1EEEEE7destroyISA_EEvRSC_PT_ = comdat any

$_ZNSt8__detail16_Hashtable_allocISaINS_10_Hash_nodeISt4pairIKNSt7__cxx1112basic_stringIcSt11char_traitsIcESaIcEEES8_ELb1EEEEE17_M_node_allocatorEv = comdat any

$_ZNSt8__detail21_Hash_node_value_baseISt4pairIKNSt7__cxx1112basic_stringIcSt11char_traitsIcESaIcEEES7_EE9_M_valptrEv = comdat any

$_ZNSt8__detail16_Hashtable_allocISaINS_10_Hash_nodeISt4pairIKNSt7__cxx1112basic_stringIcSt11char_traitsIcESaIcEEES8_ELb1EEEEE22_M_deallocate_node_ptrEPSB_ = comdat any

$_ZNSt15__new_allocatorINSt8__detail10_Hash_nodeISt4pairIKNSt7__cxx1112basic_stringIcSt11char_traitsIcESaIcEEES8_ELb1EEEE7destroyISA_EEvPT_ = comdat any

$_ZNSt4pairIKNSt7__cxx1112basic_stringIcSt11char_traitsIcESaIcEEES5_ED2Ev = comdat any

$_ZNSt8__detail21_Hashtable_ebo_helperILi0ESaINS_10_Hash_nodeISt4pairIKNSt7__cxx1112basic_stringIcSt11char_traitsIcESaIcEEES8_ELb1EEEELb1EE6_M_getEv = comdat any

$_ZN9__gnu_cxx16__aligned_bufferISt4pairIKNSt7__cxx1112basic_stringIcSt11char_traitsIcESaIcEEES7_EE6_M_ptrEv = comdat any

$_ZN9__gnu_cxx16__aligned_bufferISt4pairIKNSt7__cxx1112basic_stringIcSt11char_traitsIcESaIcEEES7_EE7_M_addrEv = comdat any

$_ZNSt19__ptr_traits_ptr_toIPNSt8__detail10_Hash_nodeISt4pairIKNSt7__cxx1112basic_stringIcSt11char_traitsIcESaIcEEES8_ELb1EEESB_Lb0EE10pointer_toERSB_ = comdat any

$_ZNSt16allocator_traitsISaINSt8__detail10_Hash_nodeISt4pairIKNSt7__cxx1112basic_stringIcSt11char_traitsIcESaIcEEES8_ELb1EEEEE10deallocateERSC_PSB_m = comdat any

$_ZNSt15__new_allocatorINSt8__detail10_Hash_nodeISt4pairIKNSt7__cxx1112basic_stringIcSt11char_traitsIcESaIcEEES8_ELb1EEEE10deallocateEPSB_m = comdat any

$_ZNSt10_HashtableINSt7__cxx1112basic_stringIcSt11char_traitsIcESaIcEEESt4pairIKS5_S5_ESaIS8_ENSt8__detail10_Select1stESt8equal_toIS5_ESt4hashIS5_ENSA_18_Mod_range_hashingENSA_20_Default_ranged_hashENSA_20_Prime_rehash_policyENSA_17_Hashtable_traitsILb1ELb0ELb1EEEE21_M_deallocate_bucketsEPPNSA_15_Hash_node_baseEm = comdat any

$_ZNKSt10_HashtableINSt7__cxx1112basic_stringIcSt11char_traitsIcESaIcEEESt4pairIKS5_S5_ESaIS8_ENSt8__detail10_Select1stESt8equal_toIS5_ESt4hashIS5_ENSA_18_Mod_range_hashingENSA_20_Default_ranged_hashENSA_20_Prime_rehash_policyENSA_17_Hashtable_traitsILb1ELb0ELb1EEEE21_M_uses_single_bucketEPPNSA_15_Hash_node_baseE = comdat any

$_ZNSt8__detail16_Hashtable_allocISaINS_10_Hash_nodeISt4pairIKNSt7__cxx1112basic_stringIcSt11char_traitsIcESaIcEEES8_ELb1EEEEE21_M_deallocate_bucketsEPPNS_15_Hash_node_baseEm = comdat any

$_ZNSt19__ptr_traits_ptr_toIPPNSt8__detail15_Hash_node_baseES2_Lb0EE10pointer_toERS2_ = comdat any

$_ZNSaIPNSt8__detail15_Hash_node_baseEEC2INS_10_Hash_nodeISt4pairIKNSt7__cxx1112basic_stringIcSt11char_traitsIcESaIcEEESB_ELb1EEEEERKSaIT_E = comdat any

$_ZNSt16allocator_traitsISaIPNSt8__detail15_Hash_node_baseEEE10deallocateERS3_PS2_m = comdat any

$_ZNSaIPNSt8__detail15_Hash_node_baseEED2Ev = comdat any

$_ZNSt15__new_allocatorIPNSt8__detail15_Hash_node_baseEEC2Ev = comdat any

$_ZNSt15__new_allocatorIPNSt8__detail15_Hash_node_baseEE10deallocateEPS2_m = comdat any

$_ZNSt15__new_allocatorIPNSt8__detail15_Hash_node_baseEED2Ev = comdat any

$_ZNSt8__detail21_Hashtable_ebo_helperILi0ESaINS_10_Hash_nodeISt4pairIKNSt7__cxx1112basic_stringIcSt11char_traitsIcESaIcEEES8_ELb1EEEELb1EED2Ev = comdat any

$_ZNSaINSt8__detail10_Hash_nodeISt4pairIKNSt7__cxx1112basic_stringIcSt11char_traitsIcESaIcEEES7_ELb1EEEED2Ev = comdat any

$_ZNSt15__new_allocatorINSt8__detail10_Hash_nodeISt4pairIKNSt7__cxx1112basic_stringIcSt11char_traitsIcESaIcEEES8_ELb1EEEED2Ev = comdat any

$_ZNSt10shared_ptrIN7rocksdb17CompactionServiceEED2Ev = comdat any

$_ZNSt10shared_ptrIN7rocksdb22FileChecksumGenFactoryEED2Ev = comdat any

$_ZNSt6vectorISt10shared_ptrIN7rocksdb13EventListenerEESaIS3_EED2Ev = comdat any

$_ZNSt10shared_ptrIN7rocksdb18WriteBufferManagerEED2Ev = comdat any

$_ZNSt10shared_ptrIN7rocksdb10StatisticsEED2Ev = comdat any

$_ZNSt10shared_ptrIN7rocksdb6LoggerEED2Ev = comdat any

$_ZNSt10shared_ptrIN7rocksdb14SstFileManagerEED2Ev = comdat any

$_ZNSt10shared_ptrIN7rocksdb11RateLimiterEED2Ev = comdat any

$_ZNSt12__shared_ptrIN7rocksdb17CompactionServiceELN9__gnu_cxx12_Lock_policyE2EED2Ev = comdat any

$_ZNSt12__shared_ptrIN7rocksdb22FileChecksumGenFactoryELN9__gnu_cxx12_Lock_policyE2EED2Ev = comdat any

$_ZNSt12_Vector_baseISt10shared_ptrIN7rocksdb13EventListenerEESaIS3_EED2Ev = comdat any

$_ZNSt12_Vector_baseISt10shared_ptrIN7rocksdb13EventListenerEESaIS3_EE12_Vector_implD2Ev = comdat any

$_ZNSaISt10shared_ptrIN7rocksdb13EventListenerEEED2Ev = comdat any

$_ZNSt15__new_allocatorISt10shared_ptrIN7rocksdb13EventListenerEEED2Ev = comdat any

$_ZNSt12__shared_ptrIN7rocksdb18WriteBufferManagerELN9__gnu_cxx12_Lock_policyE2EED2Ev = comdat any

$_ZNSt12__shared_ptrIN7rocksdb10StatisticsELN9__gnu_cxx12_Lock_policyE2EED2Ev = comdat any

$_ZNSt12__shared_ptrIN7rocksdb6LoggerELN9__gnu_cxx12_Lock_policyE2EED2Ev = comdat any

$_ZNSt12__shared_ptrIN7rocksdb14SstFileManagerELN9__gnu_cxx12_Lock_policyE2EED2Ev = comdat any

$_ZNSt12__shared_ptrIN7rocksdb11RateLimiterELN9__gnu_cxx12_Lock_policyE2EED2Ev = comdat any

$_ZNSt12_Vector_baseINSt7__cxx1112basic_stringIcSt11char_traitsIcESaIcEEESaIS5_EEC2Ev = comdat any

$_ZNSt12_Vector_baseINSt7__cxx1112basic_stringIcSt11char_traitsIcESaIcEEESaIS5_EE12_Vector_implC2Ev = comdat any

$_ZNSaINSt7__cxx1112basic_stringIcSt11char_traitsIcESaIcEEEEC2Ev = comdat any

$_ZNSt12_Vector_baseINSt7__cxx1112basic_stringIcSt11char_traitsIcESaIcEEESaIS5_EE17_Vector_impl_dataC2Ev = comdat any

$_ZNSt15__new_allocatorINSt7__cxx1112basic_stringIcSt11char_traitsIcESaIcEEEEC2Ev = comdat any

$_ZNK7rocksdb6Status9MustCheckEv = comdat any

$_ZNSt10unique_ptrIA_KcSt14default_deleteIS1_EEaSEOS4_ = comdat any

$_ZNSt15__uniq_ptr_dataIKcSt14default_deleteIA_S0_ELb1ELb1EEaSEOS4_ = comdat any

$_ZNSt15__uniq_ptr_implIKcSt14default_deleteIA_S0_EEaSEOS4_ = comdat any

$_ZNSt15__uniq_ptr_implIKcSt14default_deleteIA_S0_EE5resetEPS0_ = comdat any

$_ZNSt15__uniq_ptr_implIKcSt14default_deleteIA_S0_EE7releaseEv = comdat any

$_ZNSt12_Vector_baseIN7rocksdb19ColumnFamilyOptionsESaIS1_EEC2Ev = comdat any

$_ZNSt12_Vector_baseIN7rocksdb19ColumnFamilyOptionsESaIS1_EE12_Vector_implC2Ev = comdat any

$_ZNSaIN7rocksdb19ColumnFamilyOptionsEEC2Ev = comdat any

$_ZNSt12_Vector_baseIN7rocksdb19ColumnFamilyOptionsESaIS1_EE17_Vector_impl_dataC2Ev = comdat any

$_ZNSt15__new_allocatorIN7rocksdb19ColumnFamilyOptionsEEC2Ev = comdat any

$_ZNSt11char_traitsIcE6lengthEPKc = comdat any

$_ZNSt7__cxx1112basic_stringIcSt11char_traitsIcESaIcEE12_M_constructIPKcEEvT_S8_St20forward_iterator_tag = comdat any

$_ZNSt7__cxx1112basic_stringIcSt11char_traitsIcESaIcEE12_Alloc_hiderD2Ev = comdat any

$_ZSt8distanceIPKcENSt15iterator_traitsIT_E15difference_typeES3_S3_ = comdat any

$_ZZNSt7__cxx1112basic_stringIcSt11char_traitsIcESaIcEE12_M_constructIPKcEEvT_S8_St20forward_iterator_tagEN6_GuardC2EPS4_ = comdat any

$_ZZNSt7__cxx1112basic_stringIcSt11char_traitsIcESaIcEE12_M_constructIPKcEEvT_S8_St20forward_iterator_tagEN6_GuardD2Ev = comdat any

$_ZSt10__distanceIPKcENSt15iterator_traitsIT_E15difference_typeES3_S3_St26random_access_iterator_tag = comdat any

$_ZSt19__iterator_categoryIPKcENSt15iterator_traitsIT_E17iterator_categoryERKS3_ = comdat any

$_ZSt8_DestroyIPNSt7__cxx1112basic_stringIcSt11char_traitsIcESaIcEEES5_EvT_S7_RSaIT0_E = comdat any

$_ZNSt12_Vector_baseINSt7__cxx1112basic_stringIcSt11char_traitsIcESaIcEEESaIS5_EE19_M_get_Tp_allocatorEv = comdat any

$_ZNSt12_Vector_baseINSt7__cxx1112basic_stringIcSt11char_traitsIcESaIcEEESaIS5_EED2Ev = comdat any

$_ZSt8_DestroyIPNSt7__cxx1112basic_stringIcSt11char_traitsIcESaIcEEEEvT_S7_ = comdat any

$_ZNSt12_Destroy_auxILb0EE9__destroyIPNSt7__cxx1112basic_stringIcSt11char_traitsIcESaIcEEEEEvT_S9_ = comdat any

$_ZSt8_DestroyINSt7__cxx1112basic_stringIcSt11char_traitsIcESaIcEEEEvPT_ = comdat any

$_ZNSt12_Vector_baseINSt7__cxx1112basic_stringIcSt11char_traitsIcESaIcEEESaIS5_EE13_M_deallocateEPS5_m = comdat any

$_ZNSt12_Vector_baseINSt7__cxx1112basic_stringIcSt11char_traitsIcESaIcEEESaIS5_EE12_Vector_implD2Ev = comdat any

$_ZNSt16allocator_traitsISaINSt7__cxx1112basic_stringIcSt11char_traitsIcESaIcEEEEE10deallocateERS6_PS5_m = comdat any

$_ZNSt15__new_allocatorINSt7__cxx1112basic_stringIcSt11char_traitsIcESaIcEEEE10deallocateEPS5_m = comdat any

$_ZNSaINSt7__cxx1112basic_stringIcSt11char_traitsIcESaIcEEEED2Ev = comdat any

$_ZNSt15__new_allocatorINSt7__cxx1112basic_stringIcSt11char_traitsIcESaIcEEEED2Ev = comdat any

$_ZN9__gnu_cxx17__normal_iteratorIPNSt7__cxx1112basic_stringIcSt11char_traitsIcESaIcEEESt6vectorIS6_SaIS6_EEEC2ERKS7_ = comdat any

$_ZNK9__gnu_cxx17__normal_iteratorIPNSt7__cxx1112basic_stringIcSt11char_traitsIcESaIcEEESt6vectorIS6_SaIS6_EEE4baseEv = comdat any

$_ZSt8_DestroyIPN7rocksdb19ColumnFamilyOptionsES1_EvT_S3_RSaIT0_E = comdat any

$_ZNSt12_Vector_baseIN7rocksdb19ColumnFamilyOptionsESaIS1_EE19_M_get_Tp_allocatorEv = comdat any

$_ZNSt12_Vector_baseIN7rocksdb19ColumnFamilyOptionsESaIS1_EED2Ev = comdat any

$_ZSt8_DestroyIPN7rocksdb19ColumnFamilyOptionsEEvT_S3_ = comdat any

$_ZNSt12_Destroy_auxILb0EE9__destroyIPN7rocksdb19ColumnFamilyOptionsEEEvT_S5_ = comdat any

$_ZSt8_DestroyIN7rocksdb19ColumnFamilyOptionsEEvPT_ = comdat any

$_ZNSt12_Vector_baseIN7rocksdb19ColumnFamilyOptionsESaIS1_EE13_M_deallocateEPS1_m = comdat any

$_ZNSt12_Vector_baseIN7rocksdb19ColumnFamilyOptionsESaIS1_EE12_Vector_implD2Ev = comdat any

$_ZNSt16allocator_traitsISaIN7rocksdb19ColumnFamilyOptionsEEE10deallocateERS2_PS1_m = comdat any

$_ZNSt15__new_allocatorIN7rocksdb19ColumnFamilyOptionsEE10deallocateEPS1_m = comdat any

$_ZNSaIN7rocksdb19ColumnFamilyOptionsEED2Ev = comdat any

$_ZNSt15__new_allocatorIN7rocksdb19ColumnFamilyOptionsEED2Ev = comdat any

$_ZNSt6vectorIN7rocksdb22ColumnFamilyDescriptorESaIS1_EE15_M_erase_at_endEPS1_ = comdat any

$_ZSt8_DestroyIPN7rocksdb22ColumnFamilyDescriptorES1_EvT_S3_RSaIT0_E = comdat any

$_ZNSt12_Vector_baseIN7rocksdb22ColumnFamilyDescriptorESaIS1_EE19_M_get_Tp_allocatorEv = comdat any

$_ZSt8_DestroyIPN7rocksdb22ColumnFamilyDescriptorEEvT_S3_ = comdat any

$_ZNSt12_Destroy_auxILb0EE9__destroyIPN7rocksdb22ColumnFamilyDescriptorEEEvT_S5_ = comdat any

$_ZSt8_DestroyIN7rocksdb22ColumnFamilyDescriptorEEvPT_ = comdat any

$_ZNSt6vectorIN7rocksdb22ColumnFamilyDescriptorESaIS1_EE12emplace_backIJS1_EEERS1_DpOT_ = comdat any

$_ZNSt16allocator_traitsISaIN7rocksdb22ColumnFamilyDescriptorEEE9constructIS1_JS1_EEEvRS2_PT_DpOT0_ = comdat any

$_ZNSt6vectorIN7rocksdb22ColumnFamilyDescriptorESaIS1_EE17_M_realloc_insertIJS1_EEEvN9__gnu_cxx17__normal_iteratorIPS1_S3_EEDpOT_ = comdat any

$_ZNSt6vectorIN7rocksdb22ColumnFamilyDescriptorESaIS1_EE3endEv = comdat any

$_ZNSt6vectorIN7rocksdb22ColumnFamilyDescriptorESaIS1_EE4backEv = comdat any

$_ZNSt15__new_allocatorIN7rocksdb22ColumnFamilyDescriptorEE9constructIS1_JS1_EEEvPT_DpOT0_ = comdat any

$_ZN7rocksdb22ColumnFamilyDescriptorC2EOS0_ = comdat any

$_ZN7rocksdb19ColumnFamilyOptionsC2EOS0_ = comdat any

$_ZN7rocksdb27AdvancedColumnFamilyOptionsC2EOS0_ = comdat any

$_ZNSt10shared_ptrIN7rocksdb13MergeOperatorEEC2EOS2_ = comdat any

$_ZNSt10shared_ptrIN7rocksdb23CompactionFilterFactoryEEC2EOS2_ = comdat any

$_ZNSt10shared_ptrIKN7rocksdb14SliceTransformEEC2EOS3_ = comdat any

$_ZNSt10shared_ptrIN7rocksdb12TableFactoryEEC2EOS2_ = comdat any

$_ZNSt6vectorIN7rocksdb6DbPathESaIS1_EEC2EOS3_ = comdat any

$_ZNSt10shared_ptrIN7rocksdb21ConcurrentTaskLimiterEEC2EOS2_ = comdat any

$_ZNSt10shared_ptrIN7rocksdb21SstPartitionerFactoryEEC2EOS2_ = comdat any

$_ZNSt6vectorIN7rocksdb15CompressionTypeESaIS1_EEC2EOS3_ = comdat any

$_ZNSt6vectorIiSaIiEEC2EOS1_ = comdat any

$_ZN7rocksdb21CompactionOptionsFIFOC2EOS0_ = comdat any

$_ZNSt10shared_ptrIN7rocksdb18MemTableRepFactoryEEC2EOS2_ = comdat any

$_ZNSt6vectorISt10shared_ptrIN7rocksdb31TablePropertiesCollectorFactoryEESaIS3_EEC2EOS5_ = comdat any

$_ZNSt10shared_ptrIN7rocksdb5CacheEEC2EOS2_ = comdat any

$_ZNSt12_Vector_baseIN7rocksdb15CompressionTypeESaIS1_EEC2EOS3_ = comdat any

$_ZNSt12_Vector_baseIN7rocksdb15CompressionTypeESaIS1_EE12_Vector_implC2EOS4_ = comdat any

$_ZNSt12_Vector_baseIN7rocksdb15CompressionTypeESaIS1_EE17_Vector_impl_dataC2EOS4_ = comdat any

$_ZNSt12_Vector_baseIiSaIiEEC2EOS1_ = comdat any

$_ZNSt12_Vector_baseIiSaIiEE12_Vector_implC2EOS2_ = comdat any

$_ZNSt12_Vector_baseIiSaIiEE17_Vector_impl_dataC2EOS2_ = comdat any

$_ZNSt6vectorIN7rocksdb18FileTemperatureAgeESaIS1_EEC2EOS3_ = comdat any

$_ZNSt12_Vector_baseIN7rocksdb18FileTemperatureAgeESaIS1_EEC2EOS3_ = comdat any

$_ZNSt12_Vector_baseIN7rocksdb18FileTemperatureAgeESaIS1_EE12_Vector_implC2EOS4_ = comdat any

$_ZNSt12_Vector_baseIN7rocksdb18FileTemperatureAgeESaIS1_EE17_Vector_impl_dataC2EOS4_ = comdat any

$_ZNSt12__shared_ptrIN7rocksdb18MemTableRepFactoryELN9__gnu_cxx12_Lock_policyE2EEC2EOS4_ = comdat any

$_ZNSt14__shared_countILN9__gnu_cxx12_Lock_policyE2EEC2Ev = comdat any

$_ZNSt14__shared_countILN9__gnu_cxx12_Lock_policyE2EE7_M_swapERS2_ = comdat any

$_ZNSt12_Vector_baseISt10shared_ptrIN7rocksdb31TablePropertiesCollectorFactoryEESaIS3_EEC2EOS5_ = comdat any

$_ZNSt12_Vector_baseISt10shared_ptrIN7rocksdb31TablePropertiesCollectorFactoryEESaIS3_EE12_Vector_implC2EOS6_ = comdat any

$_ZNSt12_Vector_baseISt10shared_ptrIN7rocksdb31TablePropertiesCollectorFactoryEESaIS3_EE17_Vector_impl_dataC2EOS6_ = comdat any

$_ZNSt12__shared_ptrIN7rocksdb5CacheELN9__gnu_cxx12_Lock_policyE2EEC2EOS4_ = comdat any

$_ZNSt12__shared_ptrIN7rocksdb13MergeOperatorELN9__gnu_cxx12_Lock_policyE2EEC2EOS4_ = comdat any

$_ZNSt12__shared_ptrIN7rocksdb23CompactionFilterFactoryELN9__gnu_cxx12_Lock_policyE2EEC2EOS4_ = comdat any

$_ZNSt12__shared_ptrIKN7rocksdb14SliceTransformELN9__gnu_cxx12_Lock_policyE2EEC2EOS5_ = comdat any

$_ZNSt12__shared_ptrIN7rocksdb12TableFactoryELN9__gnu_cxx12_Lock_policyE2EEC2EOS4_ = comdat any

$_ZNSt12_Vector_baseIN7rocksdb6DbPathESaIS1_EEC2EOS3_ = comdat any

$_ZNSt12_Vector_baseIN7rocksdb6DbPathESaIS1_EE12_Vector_implC2EOS4_ = comdat any

$_ZNSt12_Vector_baseIN7rocksdb6DbPathESaIS1_EE17_Vector_impl_dataC2EOS4_ = comdat any

$_ZNSt12__shared_ptrIN7rocksdb21ConcurrentTaskLimiterELN9__gnu_cxx12_Lock_policyE2EEC2EOS4_ = comdat any

$_ZNSt12__shared_ptrIN7rocksdb21SstPartitionerFactoryELN9__gnu_cxx12_Lock_policyE2EEC2EOS4_ = comdat any

$_ZNKSt6vectorIN7rocksdb22ColumnFamilyDescriptorESaIS1_EE12_M_check_lenEmPKc = comdat any

$_ZN9__gnu_cxxmiIPN7rocksdb22ColumnFamilyDescriptorESt6vectorIS2_SaIS2_EEEENS_17__normal_iteratorIT_T0_E15difference_typeERKSA_SD_ = comdat any

$_ZNSt6vectorIN7rocksdb22ColumnFamilyDescriptorESaIS1_EE5beginEv = comdat any

$_ZNSt12_Vector_baseIN7rocksdb22ColumnFamilyDescriptorESaIS1_EE11_M_allocateEm = comdat any

$_ZNSt6vectorIN7rocksdb22ColumnFamilyDescriptorESaIS1_EE11_S_relocateEPS1_S4_S4_RS2_ = comdat any

$_ZNK9__gnu_cxx17__normal_iteratorIPN7rocksdb22ColumnFamilyDescriptorESt6vectorIS2_SaIS2_EEE4baseEv = comdat any

$_ZNSt12_Vector_baseIN7rocksdb22ColumnFamilyDescriptorESaIS1_EE13_M_deallocateEPS1_m = comdat any

$_ZNKSt6vectorIN7rocksdb22ColumnFamilyDescriptorESaIS1_EE8max_sizeEv = comdat any

$_ZNKSt6vectorIN7rocksdb22ColumnFamilyDescriptorESaIS1_EE4sizeEv = comdat any

$_ZSt3maxImERKT_S2_S2_ = comdat any

$_ZNSt6vectorIN7rocksdb22ColumnFamilyDescriptorESaIS1_EE11_S_max_sizeERKS2_ = comdat any

$_ZNKSt12_Vector_baseIN7rocksdb22ColumnFamilyDescriptorESaIS1_EE19_M_get_Tp_allocatorEv = comdat any

$_ZNSt16allocator_traitsISaIN7rocksdb22ColumnFamilyDescriptorEEE8max_sizeERKS2_ = comdat any

$_ZSt3minImERKT_S2_S2_ = comdat any

$_ZNKSt15__new_allocatorIN7rocksdb22ColumnFamilyDescriptorEE8max_sizeEv = comdat any

$_ZNKSt15__new_allocatorIN7rocksdb22ColumnFamilyDescriptorEE11_M_max_sizeEv = comdat any

$_ZN9__gnu_cxx17__normal_iteratorIPN7rocksdb22ColumnFamilyDescriptorESt6vectorIS2_SaIS2_EEEC2ERKS3_ = comdat any

$_ZNSt16allocator_traitsISaIN7rocksdb22ColumnFamilyDescriptorEEE8allocateERS2_m = comdat any

$_ZNSt15__new_allocatorIN7rocksdb22ColumnFamilyDescriptorEE8allocateEmPKv = comdat any

$_ZSt12__relocate_aIPN7rocksdb22ColumnFamilyDescriptorES2_SaIS1_EET0_T_S5_S4_RT1_ = comdat any

$_ZSt14__relocate_a_1IPN7rocksdb22ColumnFamilyDescriptorES2_SaIS1_EET0_T_S5_S4_RT1_ = comdat any

$_ZSt12__niter_baseIPN7rocksdb22ColumnFamilyDescriptorEET_S3_ = comdat any

$_ZSt19__relocate_object_aIN7rocksdb22ColumnFamilyDescriptorES1_SaIS1_EEvPT_PT0_RT1_ = comdat any

$_ZNSt16allocator_traitsISaIN7rocksdb22ColumnFamilyDescriptorEEE7destroyIS1_EEvRS2_PT_ = comdat any

$_ZNSt15__new_allocatorIN7rocksdb22ColumnFamilyDescriptorEE7destroyIS1_EEvPT_ = comdat any

$_ZNSt16allocator_traitsISaIN7rocksdb22ColumnFamilyDescriptorEEE10deallocateERS2_PS1_m = comdat any

$_ZNSt15__new_allocatorIN7rocksdb22ColumnFamilyDescriptorEE10deallocateEPS1_m = comdat any

$_ZNK9__gnu_cxx17__normal_iteratorIPN7rocksdb22ColumnFamilyDescriptorESt6vectorIS2_SaIS2_EEEmiEl = comdat any

$_ZNK9__gnu_cxx17__normal_iteratorIPN7rocksdb22ColumnFamilyDescriptorESt6vectorIS2_SaIS2_EEEdeEv = comdat any

$_ZN7rocksdb12Configurable10GetOptionsINS_22BlockBasedTableOptionsEEEPT_RKNSt7__cxx1112basic_stringIcSt11char_traitsIcESaIcEEE = comdat any

$_ZN7rocksdb22BlockBasedTableOptions5kNameEv = comdat any

$_ZN9__gnu_cxx17__normal_iteratorIPKN7rocksdb22ColumnFamilyDescriptorESt6vectorIS2_SaIS2_EEEC2ERKS4_ = comdat any

$_ZNK9__gnu_cxx17__normal_iteratorIPKN7rocksdb22ColumnFamilyDescriptorESt6vectorIS2_SaIS2_EEE4baseEv = comdat any

$_ZNSt16allocator_traitsISaINSt7__cxx1112basic_stringIcSt11char_traitsIcESaIcEEEEE9constructIS5_JRKS5_EEEvRS6_PT_DpOT0_ = comdat any

$_ZNSt6vectorINSt7__cxx1112basic_stringIcSt11char_traitsIcESaIcEEESaIS5_EE17_M_realloc_insertIJRKS5_EEEvN9__gnu_cxx17__normal_iteratorIPS5_S7_EEDpOT_ = comdat any

$_ZNSt15__new_allocatorINSt7__cxx1112basic_stringIcSt11char_traitsIcESaIcEEEE9constructIS5_JRKS5_EEEvPT_DpOT0_ = comdat any

$_ZNKSt6vectorINSt7__cxx1112basic_stringIcSt11char_traitsIcESaIcEEESaIS5_EE12_M_check_lenEmPKc = comdat any

$_ZN9__gnu_cxxmiIPNSt7__cxx1112basic_stringIcSt11char_traitsIcESaIcEEESt6vectorIS6_SaIS6_EEEENS_17__normal_iteratorIT_T0_E15difference_typeERKSE_SH_ = comdat any

$_ZNSt12_Vector_baseINSt7__cxx1112basic_stringIcSt11char_traitsIcESaIcEEESaIS5_EE11_M_allocateEm = comdat any

$_ZNSt6vectorINSt7__cxx1112basic_stringIcSt11char_traitsIcESaIcEEESaIS5_EE11_S_relocateEPS5_S8_S8_RS6_ = comdat any

$_ZNSt16allocator_traitsISaINSt7__cxx1112basic_stringIcSt11char_traitsIcESaIcEEEEE7destroyIS5_EEvRS6_PT_ = comdat any

$_ZNKSt6vectorINSt7__cxx1112basic_stringIcSt11char_traitsIcESaIcEEESaIS5_EE8max_sizeEv = comdat any

$_ZNKSt6vectorINSt7__cxx1112basic_stringIcSt11char_traitsIcESaIcEEESaIS5_EE4sizeEv = comdat any

$_ZNSt6vectorINSt7__cxx1112basic_stringIcSt11char_traitsIcESaIcEEESaIS5_EE11_S_max_sizeERKS6_ = comdat any

$_ZNKSt12_Vector_baseINSt7__cxx1112basic_stringIcSt11char_traitsIcESaIcEEESaIS5_EE19_M_get_Tp_allocatorEv = comdat any

$_ZNSt16allocator_traitsISaINSt7__cxx1112basic_stringIcSt11char_traitsIcESaIcEEEEE8max_sizeERKS6_ = comdat any

$_ZNKSt15__new_allocatorINSt7__cxx1112basic_stringIcSt11char_traitsIcESaIcEEEE8max_sizeEv = comdat any

$_ZNKSt15__new_allocatorINSt7__cxx1112basic_stringIcSt11char_traitsIcESaIcEEEE11_M_max_sizeEv = comdat any

$_ZNSt16allocator_traitsISaINSt7__cxx1112basic_stringIcSt11char_traitsIcESaIcEEEEE8allocateERS6_m = comdat any

$_ZNSt15__new_allocatorINSt7__cxx1112basic_stringIcSt11char_traitsIcESaIcEEEE8allocateEmPKv = comdat any

$_ZSt12__relocate_aIPNSt7__cxx1112basic_stringIcSt11char_traitsIcESaIcEEES6_SaIS5_EET0_T_S9_S8_RT1_ = comdat any

$_ZSt14__relocate_a_1IPNSt7__cxx1112basic_stringIcSt11char_traitsIcESaIcEEES6_SaIS5_EET0_T_S9_S8_RT1_ = comdat any

$_ZSt12__niter_baseIPNSt7__cxx1112basic_stringIcSt11char_traitsIcESaIcEEEET_S7_ = comdat any

$_ZSt19__relocate_object_aINSt7__cxx1112basic_stringIcSt11char_traitsIcESaIcEEES5_SaIS5_EEvPT_PT0_RT1_ = comdat any

$_ZNSt16allocator_traitsISaINSt7__cxx1112basic_stringIcSt11char_traitsIcESaIcEEEEE9constructIS5_JS5_EEEvRS6_PT_DpOT0_ = comdat any

$_ZNSt15__new_allocatorINSt7__cxx1112basic_stringIcSt11char_traitsIcESaIcEEEE9constructIS5_JS5_EEEvPT_DpOT0_ = comdat any

$_ZNSt15__new_allocatorINSt7__cxx1112basic_stringIcSt11char_traitsIcESaIcEEEE7destroyIS5_EEvPT_ = comdat any

$_ZNSt16allocator_traitsISaIN7rocksdb19ColumnFamilyOptionsEEE9constructIS1_JRKS1_EEEvRS2_PT_DpOT0_ = comdat any

$_ZNSt6vectorIN7rocksdb19ColumnFamilyOptionsESaIS1_EE17_M_realloc_insertIJRKS1_EEEvN9__gnu_cxx17__normal_iteratorIPS1_S3_EEDpOT_ = comdat any

$_ZNSt6vectorIN7rocksdb19ColumnFamilyOptionsESaIS1_EE3endEv = comdat any

$_ZNSt15__new_allocatorIN7rocksdb19ColumnFamilyOptionsEE9constructIS1_JRKS1_EEEvPT_DpOT0_ = comdat any

$_ZNKSt6vectorIN7rocksdb19ColumnFamilyOptionsESaIS1_EE12_M_check_lenEmPKc = comdat any

$_ZN9__gnu_cxxmiIPN7rocksdb19ColumnFamilyOptionsESt6vectorIS2_SaIS2_EEEENS_17__normal_iteratorIT_T0_E15difference_typeERKSA_SD_ = comdat any

$_ZNSt6vectorIN7rocksdb19ColumnFamilyOptionsESaIS1_EE5beginEv = comdat any

$_ZNSt12_Vector_baseIN7rocksdb19ColumnFamilyOptionsESaIS1_EE11_M_allocateEm = comdat any

$_ZNSt6vectorIN7rocksdb19ColumnFamilyOptionsESaIS1_EE11_S_relocateEPS1_S4_S4_RS2_ = comdat any

$_ZNK9__gnu_cxx17__normal_iteratorIPN7rocksdb19ColumnFamilyOptionsESt6vectorIS2_SaIS2_EEE4baseEv = comdat any

$_ZNSt16allocator_traitsISaIN7rocksdb19ColumnFamilyOptionsEEE7destroyIS1_EEvRS2_PT_ = comdat any

$_ZNKSt6vectorIN7rocksdb19ColumnFamilyOptionsESaIS1_EE8max_sizeEv = comdat any

$_ZNSt6vectorIN7rocksdb19ColumnFamilyOptionsESaIS1_EE11_S_max_sizeERKS2_ = comdat any

$_ZNKSt12_Vector_baseIN7rocksdb19ColumnFamilyOptionsESaIS1_EE19_M_get_Tp_allocatorEv = comdat any

$_ZNSt16allocator_traitsISaIN7rocksdb19ColumnFamilyOptionsEEE8max_sizeERKS2_ = comdat any

$_ZNKSt15__new_allocatorIN7rocksdb19ColumnFamilyOptionsEE8max_sizeEv = comdat any

$_ZNKSt15__new_allocatorIN7rocksdb19ColumnFamilyOptionsEE11_M_max_sizeEv = comdat any

$_ZN9__gnu_cxx17__normal_iteratorIPN7rocksdb19ColumnFamilyOptionsESt6vectorIS2_SaIS2_EEEC2ERKS3_ = comdat any

$_ZNSt16allocator_traitsISaIN7rocksdb19ColumnFamilyOptionsEEE8allocateERS2_m = comdat any

$_ZNSt15__new_allocatorIN7rocksdb19ColumnFamilyOptionsEE8allocateEmPKv = comdat any

$_ZSt12__relocate_aIPN7rocksdb19ColumnFamilyOptionsES2_SaIS1_EET0_T_S5_S4_RT1_ = comdat any

$_ZSt14__relocate_a_1IPN7rocksdb19ColumnFamilyOptionsES2_SaIS1_EET0_T_S5_S4_RT1_ = comdat any

$_ZSt12__niter_baseIPN7rocksdb19ColumnFamilyOptionsEET_S3_ = comdat any

$_ZSt19__relocate_object_aIN7rocksdb19ColumnFamilyOptionsES1_SaIS1_EEvPT_PT0_RT1_ = comdat any

$_ZNSt16allocator_traitsISaIN7rocksdb19ColumnFamilyOptionsEEE9constructIS1_JS1_EEEvRS2_PT_DpOT0_ = comdat any

$_ZNSt15__new_allocatorIN7rocksdb19ColumnFamilyOptionsEE9constructIS1_JS1_EEEvPT_DpOT0_ = comdat any

$_ZNSt15__new_allocatorIN7rocksdb19ColumnFamilyOptionsEE7destroyIS1_EEvPT_ = comdat any

@_ZN7rocksdbL18opt_section_titlesB5cxx11E = internal global [5 x %"class.std::__cxx11::basic_string"] zeroinitializer, align 16
@.str = private unnamed_addr constant [8 x i8] c"Version\00", align 1
@.str.1 = private unnamed_addr constant [10 x i8] c"DBOptions\00", align 1
@.str.2 = private unnamed_addr constant [10 x i8] c"CFOptions\00", align 1
@.str.3 = private unnamed_addr constant [14 x i8] c"TableOptions/\00", align 1
@.str.4 = private unnamed_addr constant [8 x i8] c"Unknown\00", align 1
@__dso_handle = external hidden global i8
@.str.5 = private unnamed_addr constant [44 x i8] c"No options files found in the DB directory.\00", align 1
@.str.6 = private unnamed_addr constant [2 x i8] c"/\00", align 1
@__libc_single_threaded = external global i8, align 1
@.str.7 = private unnamed_addr constant [50 x i8] c"basic_string: construction from null is not valid\00", align 1
@.str.8 = private unnamed_addr constant [26 x i8] c"vector::_M_realloc_insert\00", align 1
@.str.9 = private unnamed_addr constant [18 x i8] c"BlockTableOptions\00", align 1
@llvm.global_ctors = appending global [1 x { i32, ptr, ptr }] [{ i32, ptr, ptr } { i32 65535, ptr @_GLOBAL__sub_I_options_util.cc, ptr null }]

; Function Attrs: uwtable
define internal void @__cxx_global_var_init() #0 section ".text.startup" personality ptr @__gxx_personality_v0 {
entry:
  %arrayinit.endOfInit = alloca ptr, align 8
  %ref.tmp = alloca %"class.std::allocator", align 1
  %exn.slot = alloca ptr, align 8
  %ehselector.slot = alloca i32, align 4
  %ref.tmp1 = alloca %"class.std::allocator", align 1
  %ref.tmp4 = alloca %"class.std::allocator", align 1
  %ref.tmp7 = alloca %"class.std::allocator", align 1
  %ref.tmp10 = alloca %"class.std::allocator", align 1
  %cleanup.isactive = alloca i1, align 1
  store i1 true, ptr %cleanup.isactive, align 1
  store ptr @_ZN7rocksdbL18opt_section_titlesB5cxx11E, ptr %arrayinit.endOfInit, align 8
  call void @_ZNSaIcEC1Ev(ptr noundef nonnull align 1 dereferenceable(1) %ref.tmp) #3
  invoke void @_ZNSt7__cxx1112basic_stringIcSt11char_traitsIcESaIcEEC2IS3_EEPKcRKS3_(ptr noundef nonnull align 8 dereferenceable(32) @_ZN7rocksdbL18opt_section_titlesB5cxx11E, ptr noundef @.str, ptr noundef nonnull align 1 dereferenceable(1) %ref.tmp)
          to label %invoke.cont unwind label %lpad

invoke.cont:                                      ; preds = %entry
  store ptr getelementptr inbounds (%"class.std::__cxx11::basic_string", ptr @_ZN7rocksdbL18opt_section_titlesB5cxx11E, i64 1), ptr %arrayinit.endOfInit, align 8
  call void @_ZNSaIcEC1Ev(ptr noundef nonnull align 1 dereferenceable(1) %ref.tmp1) #3
  invoke void @_ZNSt7__cxx1112basic_stringIcSt11char_traitsIcESaIcEEC2IS3_EEPKcRKS3_(ptr noundef nonnull align 8 dereferenceable(32) getelementptr inbounds (%"class.std::__cxx11::basic_string", ptr @_ZN7rocksdbL18opt_section_titlesB5cxx11E, i64 1), ptr noundef @.str.1, ptr noundef nonnull align 1 dereferenceable(1) %ref.tmp1)
          to label %invoke.cont3 unwind label %lpad2

invoke.cont3:                                     ; preds = %invoke.cont
  store ptr getelementptr inbounds (%"class.std::__cxx11::basic_string", ptr @_ZN7rocksdbL18opt_section_titlesB5cxx11E, i64 2), ptr %arrayinit.endOfInit, align 8
  call void @_ZNSaIcEC1Ev(ptr noundef nonnull align 1 dereferenceable(1) %ref.tmp4) #3
  invoke void @_ZNSt7__cxx1112basic_stringIcSt11char_traitsIcESaIcEEC2IS3_EEPKcRKS3_(ptr noundef nonnull align 8 dereferenceable(32) getelementptr inbounds (%"class.std::__cxx11::basic_string", ptr @_ZN7rocksdbL18opt_section_titlesB5cxx11E, i64 2), ptr noundef @.str.2, ptr noundef nonnull align 1 dereferenceable(1) %ref.tmp4)
          to label %invoke.cont6 unwind label %lpad5

invoke.cont6:                                     ; preds = %invoke.cont3
  store ptr getelementptr inbounds (%"class.std::__cxx11::basic_string", ptr @_ZN7rocksdbL18opt_section_titlesB5cxx11E, i64 3), ptr %arrayinit.endOfInit, align 8
  call void @_ZNSaIcEC1Ev(ptr noundef nonnull align 1 dereferenceable(1) %ref.tmp7) #3
  invoke void @_ZNSt7__cxx1112basic_stringIcSt11char_traitsIcESaIcEEC2IS3_EEPKcRKS3_(ptr noundef nonnull align 8 dereferenceable(32) getelementptr inbounds (%"class.std::__cxx11::basic_string", ptr @_ZN7rocksdbL18opt_section_titlesB5cxx11E, i64 3), ptr noundef @.str.3, ptr noundef nonnull align 1 dereferenceable(1) %ref.tmp7)
          to label %invoke.cont9 unwind label %lpad8

invoke.cont9:                                     ; preds = %invoke.cont6
  store ptr getelementptr inbounds (%"class.std::__cxx11::basic_string", ptr @_ZN7rocksdbL18opt_section_titlesB5cxx11E, i64 4), ptr %arrayinit.endOfInit, align 8
  call void @_ZNSaIcEC1Ev(ptr noundef nonnull align 1 dereferenceable(1) %ref.tmp10) #3
  invoke void @_ZNSt7__cxx1112basic_stringIcSt11char_traitsIcESaIcEEC2IS3_EEPKcRKS3_(ptr noundef nonnull align 8 dereferenceable(32) getelementptr inbounds (%"class.std::__cxx11::basic_string", ptr @_ZN7rocksdbL18opt_section_titlesB5cxx11E, i64 4), ptr noundef @.str.4, ptr noundef nonnull align 1 dereferenceable(1) %ref.tmp10)
          to label %invoke.cont12 unwind label %lpad11

invoke.cont12:                                    ; preds = %invoke.cont9
  store i1 false, ptr %cleanup.isactive, align 1
  call void @_ZNSaIcED1Ev(ptr noundef nonnull align 1 dereferenceable(1) %ref.tmp10) #3
  call void @_ZNSaIcED1Ev(ptr noundef nonnull align 1 dereferenceable(1) %ref.tmp7) #3
  call void @_ZNSaIcED1Ev(ptr noundef nonnull align 1 dereferenceable(1) %ref.tmp4) #3
  call void @_ZNSaIcED1Ev(ptr noundef nonnull align 1 dereferenceable(1) %ref.tmp1) #3
  call void @_ZNSaIcED1Ev(ptr noundef nonnull align 1 dereferenceable(1) %ref.tmp) #3
  %0 = call i32 @__cxa_atexit(ptr @__cxx_global_array_dtor, ptr null, ptr @__dso_handle) #3
  ret void

lpad:                                             ; preds = %entry
  %1 = landingpad { ptr, i32 }
          cleanup
  %2 = extractvalue { ptr, i32 } %1, 0
  store ptr %2, ptr %exn.slot, align 8
  %3 = extractvalue { ptr, i32 } %1, 1
  store i32 %3, ptr %ehselector.slot, align 4
  br label %ehcleanup15

lpad2:                                            ; preds = %invoke.cont
  %4 = landingpad { ptr, i32 }
          cleanup
  %5 = extractvalue { ptr, i32 } %4, 0
  store ptr %5, ptr %exn.slot, align 8
  %6 = extractvalue { ptr, i32 } %4, 1
  store i32 %6, ptr %ehselector.slot, align 4
  br label %ehcleanup14

lpad5:                                            ; preds = %invoke.cont3
  %7 = landingpad { ptr, i32 }
          cleanup
  %8 = extractvalue { ptr, i32 } %7, 0
  store ptr %8, ptr %exn.slot, align 8
  %9 = extractvalue { ptr, i32 } %7, 1
  store i32 %9, ptr %ehselector.slot, align 4
  br label %ehcleanup13

lpad8:                                            ; preds = %invoke.cont6
  %10 = landingpad { ptr, i32 }
          cleanup
  %11 = extractvalue { ptr, i32 } %10, 0
  store ptr %11, ptr %exn.slot, align 8
  %12 = extractvalue { ptr, i32 } %10, 1
  store i32 %12, ptr %ehselector.slot, align 4
  br label %ehcleanup

lpad11:                                           ; preds = %invoke.cont9
  %13 = landingpad { ptr, i32 }
          cleanup
  %14 = extractvalue { ptr, i32 } %13, 0
  store ptr %14, ptr %exn.slot, align 8
  %15 = extractvalue { ptr, i32 } %13, 1
  store i32 %15, ptr %ehselector.slot, align 4
  call void @_ZNSaIcED1Ev(ptr noundef nonnull align 1 dereferenceable(1) %ref.tmp10) #3
  br label %ehcleanup

ehcleanup:                                        ; preds = %lpad11, %lpad8
  call void @_ZNSaIcED1Ev(ptr noundef nonnull align 1 dereferenceable(1) %ref.tmp7) #3
  br label %ehcleanup13

ehcleanup13:                                      ; preds = %ehcleanup, %lpad5
  call void @_ZNSaIcED1Ev(ptr noundef nonnull align 1 dereferenceable(1) %ref.tmp4) #3
  br label %ehcleanup14

ehcleanup14:                                      ; preds = %ehcleanup13, %lpad2
  call void @_ZNSaIcED1Ev(ptr noundef nonnull align 1 dereferenceable(1) %ref.tmp1) #3
  br label %ehcleanup15

ehcleanup15:                                      ; preds = %ehcleanup14, %lpad
  call void @_ZNSaIcED1Ev(ptr noundef nonnull align 1 dereferenceable(1) %ref.tmp) #3
  %cleanup.is_active = load i1, ptr %cleanup.isactive, align 1
  br i1 %cleanup.is_active, label %cleanup.action, label %cleanup.done

cleanup.action:                                   ; preds = %ehcleanup15
  %16 = load ptr, ptr %arrayinit.endOfInit, align 8
  %arraydestroy.isempty = icmp eq ptr @_ZN7rocksdbL18opt_section_titlesB5cxx11E, %16
  br i1 %arraydestroy.isempty, label %arraydestroy.done17, label %arraydestroy.body

arraydestroy.body:                                ; preds = %arraydestroy.body, %cleanup.action
  %arraydestroy.elementPast = phi ptr [ %16, %cleanup.action ], [ %arraydestroy.element, %arraydestroy.body ]
  %arraydestroy.element = getelementptr inbounds %"class.std::__cxx11::basic_string", ptr %arraydestroy.elementPast, i64 -1
  call void @_ZNSt7__cxx1112basic_stringIcSt11char_traitsIcESaIcEED1Ev(ptr noundef nonnull align 8 dereferenceable(32) %arraydestroy.element) #3
  %arraydestroy.done = icmp eq ptr %arraydestroy.element, @_ZN7rocksdbL18opt_section_titlesB5cxx11E
  br i1 %arraydestroy.done, label %arraydestroy.done17, label %arraydestroy.body

arraydestroy.done17:                              ; preds = %arraydestroy.body, %cleanup.action
  br label %cleanup.done

cleanup.done:                                     ; preds = %arraydestroy.done17, %ehcleanup15
  br label %eh.resume

eh.resume:                                        ; preds = %cleanup.done
  %exn = load ptr, ptr %exn.slot, align 8
  %sel = load i32, ptr %ehselector.slot, align 4
  %lpad.val = insertvalue { ptr, i32 } poison, ptr %exn, 0
  %lpad.val18 = insertvalue { ptr, i32 } %lpad.val, i32 %sel, 1
  resume { ptr, i32 } %lpad.val18
}

; Function Attrs: nounwind
declare void @_ZNSaIcEC1Ev(ptr noundef nonnull align 1 dereferenceable(1)) unnamed_addr #1

; Function Attrs: mustprogress uwtable
define linkonce_odr void @_ZNSt7__cxx1112basic_stringIcSt11char_traitsIcESaIcEEC2IS3_EEPKcRKS3_(ptr noundef nonnull align 8 dereferenceable(32) %this, ptr noundef %__s, ptr noundef nonnull align 1 dereferenceable(1) %__a) unnamed_addr #2 comdat align 2 personality ptr @__gxx_personality_v0 {
entry:
  %this.addr = alloca ptr, align 8
  %__s.addr = alloca ptr, align 8
  %__a.addr = alloca ptr, align 8
  %exn.slot = alloca ptr, align 8
  %ehselector.slot = alloca i32, align 4
  %__end = alloca ptr, align 8
  store ptr %this, ptr %this.addr, align 8
  store ptr %__s, ptr %__s.addr, align 8
  store ptr %__a, ptr %__a.addr, align 8
  %this1 = load ptr, ptr %this.addr, align 8
  %_M_dataplus = getelementptr inbounds %"class.std::__cxx11::basic_string", ptr %this1, i32 0, i32 0
  %call = call noundef ptr @_ZNSt7__cxx1112basic_stringIcSt11char_traitsIcESaIcEE13_M_local_dataEv(ptr noundef nonnull align 8 dereferenceable(32) %this1)
  %0 = load ptr, ptr %__a.addr, align 8
  call void @_ZNSt7__cxx1112basic_stringIcSt11char_traitsIcESaIcEE12_Alloc_hiderC1EPcRKS3_(ptr noundef nonnull align 8 dereferenceable(8) %_M_dataplus, ptr noundef %call, ptr noundef nonnull align 1 dereferenceable(1) %0)
  %1 = load ptr, ptr %__s.addr, align 8
  %cmp = icmp eq ptr %1, null
  br i1 %cmp, label %if.then, label %if.end

if.then:                                          ; preds = %entry
  invoke void @_ZSt19__throw_logic_errorPKc(ptr noundef @.str.7) #14
          to label %invoke.cont unwind label %lpad

invoke.cont:                                      ; preds = %if.then
  unreachable

lpad:                                             ; preds = %invoke.cont2, %if.end, %if.then
  %2 = landingpad { ptr, i32 }
          cleanup
  %3 = extractvalue { ptr, i32 } %2, 0
  store ptr %3, ptr %exn.slot, align 8
  %4 = extractvalue { ptr, i32 } %2, 1
  store i32 %4, ptr %ehselector.slot, align 4
  call void @_ZNSt7__cxx1112basic_stringIcSt11char_traitsIcESaIcEE12_Alloc_hiderD2Ev(ptr noundef nonnull align 8 dereferenceable(8) %_M_dataplus) #3
  br label %eh.resume

if.end:                                           ; preds = %entry
  %5 = load ptr, ptr %__s.addr, align 8
  %6 = load ptr, ptr %__s.addr, align 8
  %call3 = invoke noundef i64 @_ZNSt11char_traitsIcE6lengthEPKc(ptr noundef %6)
          to label %invoke.cont2 unwind label %lpad

invoke.cont2:                                     ; preds = %if.end
  %add.ptr = getelementptr inbounds i8, ptr %5, i64 %call3
  store ptr %add.ptr, ptr %__end, align 8
  %7 = load ptr, ptr %__s.addr, align 8
  %8 = load ptr, ptr %__end, align 8
  invoke void @_ZNSt7__cxx1112basic_stringIcSt11char_traitsIcESaIcEE12_M_constructIPKcEEvT_S8_St20forward_iterator_tag(ptr noundef nonnull align 8 dereferenceable(32) %this1, ptr noundef %7, ptr noundef %8)
          to label %invoke.cont4 unwind label %lpad

invoke.cont4:                                     ; preds = %invoke.cont2
  ret void

eh.resume:                                        ; preds = %lpad
  %exn = load ptr, ptr %exn.slot, align 8
  %sel = load i32, ptr %ehselector.slot, align 4
  %lpad.val = insertvalue { ptr, i32 } poison, ptr %exn, 0
  %lpad.val5 = insertvalue { ptr, i32 } %lpad.val, i32 %sel, 1
  resume { ptr, i32 } %lpad.val5
}

declare i32 @__gxx_personality_v0(...)

; Function Attrs: nounwind
declare void @_ZNSaIcED1Ev(ptr noundef nonnull align 1 dereferenceable(1)) unnamed_addr #1

; Function Attrs: nounwind
declare void @_ZNSt7__cxx1112basic_stringIcSt11char_traitsIcESaIcEED1Ev(ptr noundef nonnull align 8 dereferenceable(32)) unnamed_addr #1

; Function Attrs: uwtable
define internal void @__cxx_global_array_dtor(ptr noundef %0) #0 section ".text.startup" {
entry:
  %.addr = alloca ptr, align 8
  store ptr %0, ptr %.addr, align 8
  br label %arraydestroy.body

arraydestroy.body:                                ; preds = %arraydestroy.body, %entry
  %arraydestroy.elementPast = phi ptr [ getelementptr inbounds (%"class.std::__cxx11::basic_string", ptr @_ZN7rocksdbL18opt_section_titlesB5cxx11E, i64 5), %entry ], [ %arraydestroy.element, %arraydestroy.body ]
  %arraydestroy.element = getelementptr inbounds %"class.std::__cxx11::basic_string", ptr %arraydestroy.elementPast, i64 -1
  call void @_ZNSt7__cxx1112basic_stringIcSt11char_traitsIcESaIcEED1Ev(ptr noundef nonnull align 8 dereferenceable(32) %arraydestroy.element) #3
  %arraydestroy.done = icmp eq ptr %arraydestroy.element, @_ZN7rocksdbL18opt_section_titlesB5cxx11E
  br i1 %arraydestroy.done, label %arraydestroy.done1, label %arraydestroy.body

arraydestroy.done1:                               ; preds = %arraydestroy.body
  ret void
}

; Function Attrs: nounwind
declare i32 @__cxa_atexit(ptr, ptr, ptr) #3

; Function Attrs: mustprogress uwtable
define void @_ZN7rocksdb19LoadOptionsFromFileERKNS_13ConfigOptionsERKNSt7__cxx1112basic_stringIcSt11char_traitsIcESaIcEEEPNS_9DBOptionsEPSt6vectorINS_22ColumnFamilyDescriptorESaISE_EEPSt10shared_ptrINS_5CacheEE(ptr noalias sret(%"class.rocksdb::Status") align 8 %agg.result, ptr noundef nonnull align 8 dereferenceable(80) %config_options, ptr noundef nonnull align 8 dereferenceable(32) %file_name, ptr noundef %db_options, ptr noundef %cf_descs, ptr noundef %cache) #2 personality ptr @__gxx_personality_v0 {
entry:
  %result.ptr = alloca ptr, align 8
  %config_options.addr = alloca ptr, align 8
  %file_name.addr = alloca ptr, align 8
  %db_options.addr = alloca ptr, align 8
  %cf_descs.addr = alloca ptr, align 8
  %cache.addr = alloca ptr, align 8
  %parser = alloca %"class.rocksdb::RocksDBOptionsParser", align 8
  %fs = alloca ptr, align 8
  %exn.slot = alloca ptr, align 8
  %ehselector.slot = alloca i32, align 4
  %s = alloca %"class.rocksdb::Status", align 8
  %cleanup.dest.slot = alloca i32, align 4
  %cf_names = alloca ptr, align 8
  %cf_opts = alloca ptr, align 8
  %i = alloca i64, align 8
  %ref.tmp = alloca %"struct.rocksdb::ColumnFamilyDescriptor", align 8
  %tf = alloca ptr, align 8
  %opts = alloca ptr, align 8
  store ptr %agg.result, ptr %result.ptr, align 8
  store ptr %config_options, ptr %config_options.addr, align 8
  store ptr %file_name, ptr %file_name.addr, align 8
  store ptr %db_options, ptr %db_options.addr, align 8
  store ptr %cf_descs, ptr %cf_descs.addr, align 8
  store ptr %cache, ptr %cache.addr, align 8
  call void @_ZN7rocksdb20RocksDBOptionsParserC1Ev(ptr noundef nonnull align 8 dereferenceable(844) %parser)
  %0 = load ptr, ptr %config_options.addr, align 8
  %env = getelementptr inbounds %"struct.rocksdb::ConfigOptions", ptr %0, i32 0, i32 9
  %1 = load ptr, ptr %env, align 8
  %call = invoke noundef nonnull align 8 dereferenceable(16) ptr @_ZNK7rocksdb3Env13GetFileSystemEv(ptr noundef nonnull align 8 dereferenceable(72) %1)
          to label %invoke.cont unwind label %lpad

invoke.cont:                                      ; preds = %entry
  store ptr %call, ptr %fs, align 8
  %2 = load ptr, ptr %config_options.addr, align 8
  %3 = load ptr, ptr %file_name.addr, align 8
  %4 = load ptr, ptr %fs, align 8
  %call1 = call noundef ptr @_ZNKSt12__shared_ptrIN7rocksdb10FileSystemELN9__gnu_cxx12_Lock_policyE2EE3getEv(ptr noundef nonnull align 8 dereferenceable(16) %4) #3
  invoke void @_ZN7rocksdb20RocksDBOptionsParser5ParseERKNS_13ConfigOptionsERKNSt7__cxx1112basic_stringIcSt11char_traitsIcESaIcEEEPNS_10FileSystemE(ptr sret(%"class.rocksdb::Status") align 8 %s, ptr noundef nonnull align 8 dereferenceable(844) %parser, ptr noundef nonnull align 8 dereferenceable(80) %2, ptr noundef nonnull align 8 dereferenceable(32) %3, ptr noundef %call1)
          to label %invoke.cont2 unwind label %lpad

invoke.cont2:                                     ; preds = %invoke.cont
  %call5 = invoke noundef zeroext i1 @_ZNK7rocksdb6Status2okEv(ptr noundef nonnull align 8 dereferenceable(16) %s)
          to label %invoke.cont4 unwind label %lpad3

invoke.cont4:                                     ; preds = %invoke.cont2
  br i1 %call5, label %if.end, label %if.then

if.then:                                          ; preds = %invoke.cont4
  call void @_ZN7rocksdb6StatusC2EOS0_(ptr noundef nonnull align 8 dereferenceable(16) %agg.result, ptr noundef nonnull align 8 dereferenceable(16) %s) #3
  store i32 1, ptr %cleanup.dest.slot, align 4
  br label %cleanup

lpad:                                             ; preds = %invoke.cont, %entry
  %5 = landingpad { ptr, i32 }
          cleanup
  %6 = extractvalue { ptr, i32 } %5, 0
  store ptr %6, ptr %exn.slot, align 8
  %7 = extractvalue { ptr, i32 } %5, 1
  store i32 %7, ptr %ehselector.slot, align 4
  br label %ehcleanup36

lpad3:                                            ; preds = %for.end, %if.then25, %for.body, %invoke.cont10, %invoke.cont8, %invoke.cont6, %if.end, %invoke.cont2
  %8 = landingpad { ptr, i32 }
          cleanup
  %9 = extractvalue { ptr, i32 } %8, 0
  store ptr %9, ptr %exn.slot, align 8
  %10 = extractvalue { ptr, i32 } %8, 1
  store i32 %10, ptr %ehselector.slot, align 4
  br label %ehcleanup

if.end:                                           ; preds = %invoke.cont4
  %call7 = invoke noundef ptr @_ZNK7rocksdb20RocksDBOptionsParser6db_optEv(ptr noundef nonnull align 8 dereferenceable(844) %parser)
          to label %invoke.cont6 unwind label %lpad3

invoke.cont6:                                     ; preds = %if.end
  %11 = load ptr, ptr %db_options.addr, align 8
  %call9 = invoke noundef nonnull align 8 dereferenceable(688) ptr @_ZN7rocksdb9DBOptionsaSERKS0_(ptr noundef nonnull align 8 dereferenceable(688) %11, ptr noundef nonnull align 8 dereferenceable(688) %call7)
          to label %invoke.cont8 unwind label %lpad3

invoke.cont8:                                     ; preds = %invoke.cont6
  %call11 = invoke noundef ptr @_ZNK7rocksdb20RocksDBOptionsParser8cf_namesB5cxx11Ev(ptr noundef nonnull align 8 dereferenceable(844) %parser)
          to label %invoke.cont10 unwind label %lpad3

invoke.cont10:                                    ; preds = %invoke.cont8
  store ptr %call11, ptr %cf_names, align 8
  %call13 = invoke noundef ptr @_ZNK7rocksdb20RocksDBOptionsParser7cf_optsEv(ptr noundef nonnull align 8 dereferenceable(844) %parser)
          to label %invoke.cont12 unwind label %lpad3

invoke.cont12:                                    ; preds = %invoke.cont10
  store ptr %call13, ptr %cf_opts, align 8
  %12 = load ptr, ptr %cf_descs.addr, align 8
  call void @_ZNSt6vectorIN7rocksdb22ColumnFamilyDescriptorESaIS1_EE5clearEv(ptr noundef nonnull align 8 dereferenceable(24) %12) #3
  store i64 0, ptr %i, align 8
  br label %for.cond

for.cond:                                         ; preds = %for.inc, %invoke.cont12
  %13 = load i64, ptr %i, align 8
  %14 = load ptr, ptr %cf_opts, align 8
  %call14 = call noundef i64 @_ZNKSt6vectorIN7rocksdb19ColumnFamilyOptionsESaIS1_EE4sizeEv(ptr noundef nonnull align 8 dereferenceable(24) %14) #3
  %cmp = icmp ult i64 %13, %call14
  br i1 %cmp, label %for.body, label %for.end

for.body:                                         ; preds = %for.cond
  %15 = load ptr, ptr %cf_descs.addr, align 8
  %16 = load ptr, ptr %cf_names, align 8
  %17 = load i64, ptr %i, align 8
  %call15 = call noundef nonnull align 8 dereferenceable(32) ptr @_ZNKSt6vectorINSt7__cxx1112basic_stringIcSt11char_traitsIcESaIcEEESaIS5_EEixEm(ptr noundef nonnull align 8 dereferenceable(24) %16, i64 noundef %17) #3
  %18 = load ptr, ptr %cf_opts, align 8
  %19 = load i64, ptr %i, align 8
  %call16 = call noundef nonnull align 8 dereferenceable(820) ptr @_ZNKSt6vectorIN7rocksdb19ColumnFamilyOptionsESaIS1_EEixEm(ptr noundef nonnull align 8 dereferenceable(24) %18, i64 noundef %19) #3
  invoke void @_ZN7rocksdb22ColumnFamilyDescriptorC2ERKNSt7__cxx1112basic_stringIcSt11char_traitsIcESaIcEEERKNS_19ColumnFamilyOptionsE(ptr noundef nonnull align 8 dereferenceable(856) %ref.tmp, ptr noundef nonnull align 8 dereferenceable(32) %call15, ptr noundef nonnull align 8 dereferenceable(820) %call16)
          to label %invoke.cont17 unwind label %lpad3

invoke.cont17:                                    ; preds = %for.body
  invoke void @_ZNSt6vectorIN7rocksdb22ColumnFamilyDescriptorESaIS1_EE9push_backEOS1_(ptr noundef nonnull align 8 dereferenceable(24) %15, ptr noundef nonnull align 8 dereferenceable(856) %ref.tmp)
          to label %invoke.cont19 unwind label %lpad18

invoke.cont19:                                    ; preds = %invoke.cont17
  call void @_ZN7rocksdb22ColumnFamilyDescriptorD2Ev(ptr noundef nonnull align 8 dereferenceable(856) %ref.tmp) #3
  %20 = load ptr, ptr %cache.addr, align 8
  %cmp20 = icmp ne ptr %20, null
  br i1 %cmp20, label %if.then21, label %if.end33

if.then21:                                        ; preds = %invoke.cont19
  %21 = load ptr, ptr %cf_opts, align 8
  %22 = load i64, ptr %i, align 8
  %call22 = call noundef nonnull align 8 dereferenceable(820) ptr @_ZNKSt6vectorIN7rocksdb19ColumnFamilyOptionsESaIS1_EEixEm(ptr noundef nonnull align 8 dereferenceable(24) %21, i64 noundef %22) #3
  %table_factory = getelementptr inbounds %"struct.rocksdb::ColumnFamilyOptions", ptr %call22, i32 0, i32 18
  %call23 = call noundef ptr @_ZNKSt12__shared_ptrIN7rocksdb12TableFactoryELN9__gnu_cxx12_Lock_policyE2EE3getEv(ptr noundef nonnull align 8 dereferenceable(16) %table_factory) #3
  store ptr %call23, ptr %tf, align 8
  %23 = load ptr, ptr %tf, align 8
  %cmp24 = icmp ne ptr %23, null
  br i1 %cmp24, label %if.then25, label %if.end32

if.then25:                                        ; preds = %if.then21
  %24 = load ptr, ptr %tf, align 8
  %call27 = invoke noundef ptr @_ZN7rocksdb12Configurable10GetOptionsINS_22BlockBasedTableOptionsEEEPT_v(ptr noundef nonnull align 8 dereferenceable(32) %24)
          to label %invoke.cont26 unwind label %lpad3

invoke.cont26:                                    ; preds = %if.then25
  store ptr %call27, ptr %opts, align 8
  %25 = load ptr, ptr %opts, align 8
  %cmp28 = icmp ne ptr %25, null
  br i1 %cmp28, label %if.then29, label %if.end31

if.then29:                                        ; preds = %invoke.cont26
  %26 = load ptr, ptr %cache.addr, align 8
  %27 = load ptr, ptr %opts, align 8
  %block_cache = getelementptr inbounds %"struct.rocksdb::BlockBasedTableOptions", ptr %27, i32 0, i32 11
  %call30 = call noundef nonnull align 8 dereferenceable(16) ptr @_ZNSt10shared_ptrIN7rocksdb5CacheEEaSERKS2_(ptr noundef nonnull align 8 dereferenceable(16) %block_cache, ptr noundef nonnull align 8 dereferenceable(16) %26) #3
  br label %if.end31

lpad18:                                           ; preds = %invoke.cont17
  %28 = landingpad { ptr, i32 }
          cleanup
  %29 = extractvalue { ptr, i32 } %28, 0
  store ptr %29, ptr %exn.slot, align 8
  %30 = extractvalue { ptr, i32 } %28, 1
  store i32 %30, ptr %ehselector.slot, align 4
  call void @_ZN7rocksdb22ColumnFamilyDescriptorD2Ev(ptr noundef nonnull align 8 dereferenceable(856) %ref.tmp) #3
  br label %ehcleanup

if.end31:                                         ; preds = %if.then29, %invoke.cont26
  br label %if.end32

if.end32:                                         ; preds = %if.end31, %if.then21
  br label %if.end33

if.end33:                                         ; preds = %if.end32, %invoke.cont19
  br label %for.inc

for.inc:                                          ; preds = %if.end33
  %31 = load i64, ptr %i, align 8
  %inc = add i64 %31, 1
  store i64 %inc, ptr %i, align 8
  br label %for.cond, !llvm.loop !4

for.end:                                          ; preds = %for.cond
  invoke void @_ZN7rocksdb6Status2OKEv(ptr sret(%"class.rocksdb::Status") align 8 %agg.result)
          to label %invoke.cont34 unwind label %lpad3

invoke.cont34:                                    ; preds = %for.end
  store i32 1, ptr %cleanup.dest.slot, align 4
  br label %cleanup

cleanup:                                          ; preds = %invoke.cont34, %if.then
  call void @_ZN7rocksdb6StatusD2Ev(ptr noundef nonnull align 8 dereferenceable(16) %s) #3
  call void @_ZN7rocksdb20RocksDBOptionsParserD2Ev(ptr noundef nonnull align 8 dereferenceable(844) %parser) #3
  ret void

ehcleanup:                                        ; preds = %lpad18, %lpad3
  call void @_ZN7rocksdb6StatusD2Ev(ptr noundef nonnull align 8 dereferenceable(16) %s) #3
  br label %ehcleanup36

ehcleanup36:                                      ; preds = %ehcleanup, %lpad
  call void @_ZN7rocksdb20RocksDBOptionsParserD2Ev(ptr noundef nonnull align 8 dereferenceable(844) %parser) #3
  br label %eh.resume

eh.resume:                                        ; preds = %ehcleanup36
  %exn = load ptr, ptr %exn.slot, align 8
  %sel = load i32, ptr %ehselector.slot, align 4
  %lpad.val = insertvalue { ptr, i32 } poison, ptr %exn, 0
  %lpad.val37 = insertvalue { ptr, i32 } %lpad.val, i32 %sel, 1
  resume { ptr, i32 } %lpad.val37
}

declare void @_ZN7rocksdb20RocksDBOptionsParserC1Ev(ptr noundef nonnull align 8 dereferenceable(844)) unnamed_addr #4

declare noundef nonnull align 8 dereferenceable(16) ptr @_ZNK7rocksdb3Env13GetFileSystemEv(ptr noundef nonnull align 8 dereferenceable(72)) #4

declare void @_ZN7rocksdb20RocksDBOptionsParser5ParseERKNS_13ConfigOptionsERKNSt7__cxx1112basic_stringIcSt11char_traitsIcESaIcEEEPNS_10FileSystemE(ptr sret(%"class.rocksdb::Status") align 8, ptr noundef nonnull align 8 dereferenceable(844), ptr noundef nonnull align 8 dereferenceable(80), ptr noundef nonnull align 8 dereferenceable(32), ptr noundef) #4

; Function Attrs: mustprogress nounwind uwtable
define linkonce_odr noundef ptr @_ZNKSt12__shared_ptrIN7rocksdb10FileSystemELN9__gnu_cxx12_Lock_policyE2EE3getEv(ptr noundef nonnull align 8 dereferenceable(16) %this) #5 comdat align 2 {
entry:
  %this.addr = alloca ptr, align 8
  store ptr %this, ptr %this.addr, align 8
  %this1 = load ptr, ptr %this.addr, align 8
  %_M_ptr = getelementptr inbounds %"class.std::__shared_ptr.57", ptr %this1, i32 0, i32 0
  %0 = load ptr, ptr %_M_ptr, align 8
  ret ptr %0
}

; Function Attrs: mustprogress uwtable
define linkonce_odr noundef zeroext i1 @_ZNK7rocksdb6Status2okEv(ptr noundef nonnull align 8 dereferenceable(16) %this) #2 comdat align 2 {
entry:
  %this.addr = alloca ptr, align 8
  store ptr %this, ptr %this.addr, align 8
  %this1 = load ptr, ptr %this.addr, align 8
  call void @_ZNK7rocksdb6Status11MarkCheckedEv(ptr noundef nonnull align 8 dereferenceable(16) %this1)
  %call = call noundef zeroext i8 @_ZNK7rocksdb6Status4codeEv(ptr noundef nonnull align 8 dereferenceable(16) %this1)
  %conv = zext i8 %call to i32
  %cmp = icmp eq i32 %conv, 0
  ret i1 %cmp
}

; Function Attrs: mustprogress nounwind uwtable
define linkonce_odr void @_ZN7rocksdb6StatusC2EOS0_(ptr noundef nonnull align 8 dereferenceable(16) %this, ptr noundef nonnull align 8 dereferenceable(16) %s) unnamed_addr #5 comdat align 2 personality ptr @__gxx_personality_v0 {
entry:
  %this.addr = alloca ptr, align 8
  %s.addr = alloca ptr, align 8
  store ptr %this, ptr %this.addr, align 8
  store ptr %s, ptr %s.addr, align 8
  %this1 = load ptr, ptr %this.addr, align 8
  invoke void @_ZN7rocksdb6StatusC2Ev(ptr noundef nonnull align 8 dereferenceable(16) %this1)
          to label %invoke.cont unwind label %terminate.lpad

invoke.cont:                                      ; preds = %entry
  %0 = load ptr, ptr %s.addr, align 8
  call void @_ZNK7rocksdb6Status11MarkCheckedEv(ptr noundef nonnull align 8 dereferenceable(16) %0)
  %1 = load ptr, ptr %s.addr, align 8
  %call = call noundef nonnull align 8 dereferenceable(16) ptr @_ZN7rocksdb6StatusaSEOS0_(ptr noundef nonnull align 8 dereferenceable(16) %this1, ptr noundef nonnull align 8 dereferenceable(16) %1) #3
  ret void

terminate.lpad:                                   ; preds = %entry
  %2 = landingpad { ptr, i32 }
          catch ptr null
  %3 = extractvalue { ptr, i32 } %2, 0
  call void @__clang_call_terminate(ptr %3) #15
  unreachable
}

; Function Attrs: mustprogress nounwind uwtable
define linkonce_odr noundef ptr @_ZNK7rocksdb20RocksDBOptionsParser6db_optEv(ptr noundef nonnull align 8 dereferenceable(844) %this) #5 comdat align 2 {
entry:
  %this.addr = alloca ptr, align 8
  store ptr %this, ptr %this.addr, align 8
  %this1 = load ptr, ptr %this.addr, align 8
  %db_opt_ = getelementptr inbounds %"class.rocksdb::RocksDBOptionsParser", ptr %this1, i32 0, i32 0
  ret ptr %db_opt_
}

; Function Attrs: mustprogress uwtable
define linkonce_odr noundef nonnull align 8 dereferenceable(688) ptr @_ZN7rocksdb9DBOptionsaSERKS0_(ptr noundef nonnull align 8 dereferenceable(688) %this, ptr noundef nonnull align 8 dereferenceable(688) %0) #2 comdat align 2 {
entry:
  %this.addr = alloca ptr, align 8
  %.addr = alloca ptr, align 8
  store ptr %this, ptr %this.addr, align 8
  store ptr %0, ptr %.addr, align 8
  %this1 = load ptr, ptr %this.addr, align 8
  %create_if_missing = getelementptr inbounds %"struct.rocksdb::DBOptions", ptr %this1, i32 0, i32 0
  %1 = load ptr, ptr %.addr, align 8
  %create_if_missing2 = getelementptr inbounds %"struct.rocksdb::DBOptions", ptr %1, i32 0, i32 0
  call void @llvm.memcpy.p0.p0.i64(ptr align 8 %create_if_missing, ptr align 8 %create_if_missing2, i64 16, i1 false)
  %rate_limiter = getelementptr inbounds %"struct.rocksdb::DBOptions", ptr %this1, i32 0, i32 9
  %2 = load ptr, ptr %.addr, align 8
  %rate_limiter3 = getelementptr inbounds %"struct.rocksdb::DBOptions", ptr %2, i32 0, i32 9
  %call = call noundef nonnull align 8 dereferenceable(16) ptr @_ZNSt10shared_ptrIN7rocksdb11RateLimiterEEaSERKS2_(ptr noundef nonnull align 8 dereferenceable(16) %rate_limiter, ptr noundef nonnull align 8 dereferenceable(16) %rate_limiter3) #3
  %sst_file_manager = getelementptr inbounds %"struct.rocksdb::DBOptions", ptr %this1, i32 0, i32 10
  %3 = load ptr, ptr %.addr, align 8
  %sst_file_manager4 = getelementptr inbounds %"struct.rocksdb::DBOptions", ptr %3, i32 0, i32 10
  %call5 = call noundef nonnull align 8 dereferenceable(16) ptr @_ZNSt10shared_ptrIN7rocksdb14SstFileManagerEEaSERKS2_(ptr noundef nonnull align 8 dereferenceable(16) %sst_file_manager, ptr noundef nonnull align 8 dereferenceable(16) %sst_file_manager4) #3
  %info_log = getelementptr inbounds %"struct.rocksdb::DBOptions", ptr %this1, i32 0, i32 11
  %4 = load ptr, ptr %.addr, align 8
  %info_log6 = getelementptr inbounds %"struct.rocksdb::DBOptions", ptr %4, i32 0, i32 11
  %call7 = call noundef nonnull align 8 dereferenceable(16) ptr @_ZNSt10shared_ptrIN7rocksdb6LoggerEEaSERKS2_(ptr noundef nonnull align 8 dereferenceable(16) %info_log, ptr noundef nonnull align 8 dereferenceable(16) %info_log6) #3
  %info_log_level = getelementptr inbounds %"struct.rocksdb::DBOptions", ptr %this1, i32 0, i32 12
  %5 = load ptr, ptr %.addr, align 8
  %info_log_level8 = getelementptr inbounds %"struct.rocksdb::DBOptions", ptr %5, i32 0, i32 12
  call void @llvm.memcpy.p0.p0.i64(ptr align 8 %info_log_level, ptr align 8 %info_log_level8, i64 24, i1 false)
  %statistics = getelementptr inbounds %"struct.rocksdb::DBOptions", ptr %this1, i32 0, i32 16
  %6 = load ptr, ptr %.addr, align 8
  %statistics9 = getelementptr inbounds %"struct.rocksdb::DBOptions", ptr %6, i32 0, i32 16
  %call10 = call noundef nonnull align 8 dereferenceable(16) ptr @_ZNSt10shared_ptrIN7rocksdb10StatisticsEEaSERKS2_(ptr noundef nonnull align 8 dereferenceable(16) %statistics, ptr noundef nonnull align 8 dereferenceable(16) %statistics9) #3
  %7 = load ptr, ptr %.addr, align 8
  %use_fsync = getelementptr inbounds %"struct.rocksdb::DBOptions", ptr %7, i32 0, i32 17
  %8 = load i8, ptr %use_fsync, align 8
  %tobool = trunc i8 %8 to i1
  %use_fsync11 = getelementptr inbounds %"struct.rocksdb::DBOptions", ptr %this1, i32 0, i32 17
  %frombool = zext i1 %tobool to i8
  store i8 %frombool, ptr %use_fsync11, align 8
  %db_paths = getelementptr inbounds %"struct.rocksdb::DBOptions", ptr %this1, i32 0, i32 18
  %9 = load ptr, ptr %.addr, align 8
  %db_paths12 = getelementptr inbounds %"struct.rocksdb::DBOptions", ptr %9, i32 0, i32 18
  %call13 = call noundef nonnull align 8 dereferenceable(24) ptr @_ZNSt6vectorIN7rocksdb6DbPathESaIS1_EEaSERKS3_(ptr noundef nonnull align 8 dereferenceable(24) %db_paths, ptr noundef nonnull align 8 dereferenceable(24) %db_paths12)
  %db_log_dir = getelementptr inbounds %"struct.rocksdb::DBOptions", ptr %this1, i32 0, i32 19
  %10 = load ptr, ptr %.addr, align 8
  %db_log_dir14 = getelementptr inbounds %"struct.rocksdb::DBOptions", ptr %10, i32 0, i32 19
  %call15 = call noundef nonnull align 8 dereferenceable(32) ptr @_ZNSt7__cxx1112basic_stringIcSt11char_traitsIcESaIcEEaSERKS4_(ptr noundef nonnull align 8 dereferenceable(32) %db_log_dir, ptr noundef nonnull align 8 dereferenceable(32) %db_log_dir14)
  %wal_dir = getelementptr inbounds %"struct.rocksdb::DBOptions", ptr %this1, i32 0, i32 20
  %11 = load ptr, ptr %.addr, align 8
  %wal_dir16 = getelementptr inbounds %"struct.rocksdb::DBOptions", ptr %11, i32 0, i32 20
  %call17 = call noundef nonnull align 8 dereferenceable(32) ptr @_ZNSt7__cxx1112basic_stringIcSt11char_traitsIcESaIcEEaSERKS4_(ptr noundef nonnull align 8 dereferenceable(32) %wal_dir, ptr noundef nonnull align 8 dereferenceable(32) %wal_dir16)
  %delete_obsolete_files_period_micros = getelementptr inbounds %"struct.rocksdb::DBOptions", ptr %this1, i32 0, i32 21
  %12 = load ptr, ptr %.addr, align 8
  %delete_obsolete_files_period_micros18 = getelementptr inbounds %"struct.rocksdb::DBOptions", ptr %12, i32 0, i32 21
  call void @llvm.memcpy.p0.p0.i64(ptr align 8 %delete_obsolete_files_period_micros, ptr align 8 %delete_obsolete_files_period_micros18, i64 144, i1 false)
  %write_buffer_manager = getelementptr inbounds %"struct.rocksdb::DBOptions", ptr %this1, i32 0, i32 47
  %13 = load ptr, ptr %.addr, align 8
  %write_buffer_manager19 = getelementptr inbounds %"struct.rocksdb::DBOptions", ptr %13, i32 0, i32 47
  %call20 = call noundef nonnull align 8 dereferenceable(16) ptr @_ZNSt10shared_ptrIN7rocksdb18WriteBufferManagerEEaSERKS2_(ptr noundef nonnull align 8 dereferenceable(16) %write_buffer_manager, ptr noundef nonnull align 8 dereferenceable(16) %write_buffer_manager19) #3
  %access_hint_on_compaction_start = getelementptr inbounds %"struct.rocksdb::DBOptions", ptr %this1, i32 0, i32 48
  %14 = load ptr, ptr %.addr, align 8
  %access_hint_on_compaction_start21 = getelementptr inbounds %"struct.rocksdb::DBOptions", ptr %14, i32 0, i32 48
  call void @llvm.memcpy.p0.p0.i64(ptr align 8 %access_hint_on_compaction_start, ptr align 8 %access_hint_on_compaction_start21, i64 57, i1 false)
  %listeners = getelementptr inbounds %"struct.rocksdb::DBOptions", ptr %this1, i32 0, i32 56
  %15 = load ptr, ptr %.addr, align 8
  %listeners22 = getelementptr inbounds %"struct.rocksdb::DBOptions", ptr %15, i32 0, i32 56
  %call23 = call noundef nonnull align 8 dereferenceable(24) ptr @_ZNSt6vectorISt10shared_ptrIN7rocksdb13EventListenerEESaIS3_EEaSERKS5_(ptr noundef nonnull align 8 dereferenceable(24) %listeners, ptr noundef nonnull align 8 dereferenceable(24) %listeners22)
  %enable_thread_tracking = getelementptr inbounds %"struct.rocksdb::DBOptions", ptr %this1, i32 0, i32 57
  %16 = load ptr, ptr %.addr, align 8
  %enable_thread_tracking24 = getelementptr inbounds %"struct.rocksdb::DBOptions", ptr %16, i32 0, i32 57
  call void @llvm.memcpy.p0.p0.i64(ptr align 8 %enable_thread_tracking, ptr align 8 %enable_thread_tracking24, i64 52, i1 false)
  %row_cache = getelementptr inbounds %"struct.rocksdb::DBOptions", ptr %this1, i32 0, i32 70
  %17 = load ptr, ptr %.addr, align 8
  %row_cache25 = getelementptr inbounds %"struct.rocksdb::DBOptions", ptr %17, i32 0, i32 70
  %call26 = call noundef nonnull align 8 dereferenceable(16) ptr @_ZNSt10shared_ptrIN7rocksdb5CacheEEaSERKS2_(ptr noundef nonnull align 8 dereferenceable(16) %row_cache, ptr noundef nonnull align 8 dereferenceable(16) %row_cache25) #3
  %wal_filter = getelementptr inbounds %"struct.rocksdb::DBOptions", ptr %this1, i32 0, i32 71
  %18 = load ptr, ptr %.addr, align 8
  %wal_filter27 = getelementptr inbounds %"struct.rocksdb::DBOptions", ptr %18, i32 0, i32 71
  call void @llvm.memcpy.p0.p0.i64(ptr align 8 %wal_filter, ptr align 8 %wal_filter27, i64 32, i1 false)
  %file_checksum_gen_factory = getelementptr inbounds %"struct.rocksdb::DBOptions", ptr %this1, i32 0, i32 84
  %19 = load ptr, ptr %.addr, align 8
  %file_checksum_gen_factory28 = getelementptr inbounds %"struct.rocksdb::DBOptions", ptr %19, i32 0, i32 84
  %call29 = call noundef nonnull align 8 dereferenceable(16) ptr @_ZNSt10shared_ptrIN7rocksdb22FileChecksumGenFactoryEEaSERKS2_(ptr noundef nonnull align 8 dereferenceable(16) %file_checksum_gen_factory, ptr noundef nonnull align 8 dereferenceable(16) %file_checksum_gen_factory28) #3
  %best_efforts_recovery = getelementptr inbounds %"struct.rocksdb::DBOptions", ptr %this1, i32 0, i32 85
  %20 = load ptr, ptr %.addr, align 8
  %best_efforts_recovery30 = getelementptr inbounds %"struct.rocksdb::DBOptions", ptr %20, i32 0, i32 85
  call void @llvm.memcpy.p0.p0.i64(ptr align 8 %best_efforts_recovery, ptr align 8 %best_efforts_recovery30, i64 17, i1 false)
  %db_host_id = getelementptr inbounds %"struct.rocksdb::DBOptions", ptr %this1, i32 0, i32 89
  %21 = load ptr, ptr %.addr, align 8
  %db_host_id31 = getelementptr inbounds %"struct.rocksdb::DBOptions", ptr %21, i32 0, i32 89
  %call32 = call noundef nonnull align 8 dereferenceable(32) ptr @_ZNSt7__cxx1112basic_stringIcSt11char_traitsIcESaIcEEaSERKS4_(ptr noundef nonnull align 8 dereferenceable(32) %db_host_id, ptr noundef nonnull align 8 dereferenceable(32) %db_host_id31)
  %checksum_handoff_file_types = getelementptr inbounds %"struct.rocksdb::DBOptions", ptr %this1, i32 0, i32 90
  %22 = load ptr, ptr %.addr, align 8
  %checksum_handoff_file_types33 = getelementptr inbounds %"struct.rocksdb::DBOptions", ptr %22, i32 0, i32 90
  call void @llvm.memcpy.p0.p0.i64(ptr align 8 %checksum_handoff_file_types, ptr align 8 %checksum_handoff_file_types33, i64 8, i1 false)
  %compaction_service = getelementptr inbounds %"struct.rocksdb::DBOptions", ptr %this1, i32 0, i32 91
  %23 = load ptr, ptr %.addr, align 8
  %compaction_service34 = getelementptr inbounds %"struct.rocksdb::DBOptions", ptr %23, i32 0, i32 91
  %call35 = call noundef nonnull align 8 dereferenceable(16) ptr @_ZNSt10shared_ptrIN7rocksdb17CompactionServiceEEaSERKS2_(ptr noundef nonnull align 8 dereferenceable(16) %compaction_service, ptr noundef nonnull align 8 dereferenceable(16) %compaction_service34) #3
  %lowest_used_cache_tier = getelementptr inbounds %"struct.rocksdb::DBOptions", ptr %this1, i32 0, i32 92
  %24 = load ptr, ptr %.addr, align 8
  %lowest_used_cache_tier36 = getelementptr inbounds %"struct.rocksdb::DBOptions", ptr %24, i32 0, i32 92
  call void @llvm.memcpy.p0.p0.i64(ptr align 8 %lowest_used_cache_tier, ptr align 8 %lowest_used_cache_tier36, i64 2, i1 false)
  %daily_offpeak_time_utc = getelementptr inbounds %"struct.rocksdb::DBOptions", ptr %this1, i32 0, i32 94
  %25 = load ptr, ptr %.addr, align 8
  %daily_offpeak_time_utc37 = getelementptr inbounds %"struct.rocksdb::DBOptions", ptr %25, i32 0, i32 94
  %call38 = call noundef nonnull align 8 dereferenceable(32) ptr @_ZNSt7__cxx1112basic_stringIcSt11char_traitsIcESaIcEEaSERKS4_(ptr noundef nonnull align 8 dereferenceable(32) %daily_offpeak_time_utc, ptr noundef nonnull align 8 dereferenceable(32) %daily_offpeak_time_utc37)
  ret ptr %this1
}

; Function Attrs: mustprogress nounwind uwtable
define linkonce_odr noundef ptr @_ZNK7rocksdb20RocksDBOptionsParser8cf_namesB5cxx11Ev(ptr noundef nonnull align 8 dereferenceable(844) %this) #5 comdat align 2 {
entry:
  %this.addr = alloca ptr, align 8
  store ptr %this, ptr %this.addr, align 8
  %this1 = load ptr, ptr %this.addr, align 8
  %cf_names_ = getelementptr inbounds %"class.rocksdb::RocksDBOptionsParser", ptr %this1, i32 0, i32 2
  ret ptr %cf_names_
}

; Function Attrs: mustprogress nounwind uwtable
define linkonce_odr noundef ptr @_ZNK7rocksdb20RocksDBOptionsParser7cf_optsEv(ptr noundef nonnull align 8 dereferenceable(844) %this) #5 comdat align 2 {
entry:
  %this.addr = alloca ptr, align 8
  store ptr %this, ptr %this.addr, align 8
  %this1 = load ptr, ptr %this.addr, align 8
  %cf_opts_ = getelementptr inbounds %"class.rocksdb::RocksDBOptionsParser", ptr %this1, i32 0, i32 3
  ret ptr %cf_opts_
}

; Function Attrs: mustprogress nounwind uwtable
define linkonce_odr void @_ZNSt6vectorIN7rocksdb22ColumnFamilyDescriptorESaIS1_EE5clearEv(ptr noundef nonnull align 8 dereferenceable(24) %this) #5 comdat align 2 {
entry:
  %this.addr = alloca ptr, align 8
  store ptr %this, ptr %this.addr, align 8
  %this1 = load ptr, ptr %this.addr, align 8
  %_M_impl = getelementptr inbounds %"struct.std::_Vector_base.66", ptr %this1, i32 0, i32 0
  %_M_start = getelementptr inbounds %"struct.std::_Vector_base<rocksdb::ColumnFamilyDescriptor, std::allocator<rocksdb::ColumnFamilyDescriptor>>::_Vector_impl_data", ptr %_M_impl, i32 0, i32 0
  %0 = load ptr, ptr %_M_start, align 8
  call void @_ZNSt6vectorIN7rocksdb22ColumnFamilyDescriptorESaIS1_EE15_M_erase_at_endEPS1_(ptr noundef nonnull align 8 dereferenceable(24) %this1, ptr noundef %0) #3
  ret void
}

; Function Attrs: mustprogress nounwind uwtable
define linkonce_odr noundef i64 @_ZNKSt6vectorIN7rocksdb19ColumnFamilyOptionsESaIS1_EE4sizeEv(ptr noundef nonnull align 8 dereferenceable(24) %this) #5 comdat align 2 {
entry:
  %this.addr = alloca ptr, align 8
  store ptr %this, ptr %this.addr, align 8
  %this1 = load ptr, ptr %this.addr, align 8
  %_M_impl = getelementptr inbounds %"struct.std::_Vector_base.42", ptr %this1, i32 0, i32 0
  %_M_finish = getelementptr inbounds %"struct.std::_Vector_base<rocksdb::ColumnFamilyOptions, std::allocator<rocksdb::ColumnFamilyOptions>>::_Vector_impl_data", ptr %_M_impl, i32 0, i32 1
  %0 = load ptr, ptr %_M_finish, align 8
  %_M_impl2 = getelementptr inbounds %"struct.std::_Vector_base.42", ptr %this1, i32 0, i32 0
  %_M_start = getelementptr inbounds %"struct.std::_Vector_base<rocksdb::ColumnFamilyOptions, std::allocator<rocksdb::ColumnFamilyOptions>>::_Vector_impl_data", ptr %_M_impl2, i32 0, i32 0
  %1 = load ptr, ptr %_M_start, align 8
  %sub.ptr.lhs.cast = ptrtoint ptr %0 to i64
  %sub.ptr.rhs.cast = ptrtoint ptr %1 to i64
  %sub.ptr.sub = sub i64 %sub.ptr.lhs.cast, %sub.ptr.rhs.cast
  %sub.ptr.div = sdiv exact i64 %sub.ptr.sub, 824
  ret i64 %sub.ptr.div
}

; Function Attrs: mustprogress uwtable
define linkonce_odr void @_ZNSt6vectorIN7rocksdb22ColumnFamilyDescriptorESaIS1_EE9push_backEOS1_(ptr noundef nonnull align 8 dereferenceable(24) %this, ptr noundef nonnull align 8 dereferenceable(856) %__x) #2 comdat align 2 {
entry:
  %this.addr = alloca ptr, align 8
  %__x.addr = alloca ptr, align 8
  store ptr %this, ptr %this.addr, align 8
  store ptr %__x, ptr %__x.addr, align 8
  %this1 = load ptr, ptr %this.addr, align 8
  %0 = load ptr, ptr %__x.addr, align 8
  %call = call noundef nonnull align 8 dereferenceable(856) ptr @_ZNSt6vectorIN7rocksdb22ColumnFamilyDescriptorESaIS1_EE12emplace_backIJS1_EEERS1_DpOT_(ptr noundef nonnull align 8 dereferenceable(24) %this1, ptr noundef nonnull align 8 dereferenceable(856) %0)
  ret void
}

; Function Attrs: mustprogress nounwind uwtable
define linkonce_odr noundef nonnull align 8 dereferenceable(32) ptr @_ZNKSt6vectorINSt7__cxx1112basic_stringIcSt11char_traitsIcESaIcEEESaIS5_EEixEm(ptr noundef nonnull align 8 dereferenceable(24) %this, i64 noundef %__n) #5 comdat align 2 {
entry:
  %this.addr = alloca ptr, align 8
  %__n.addr = alloca i64, align 8
  store ptr %this, ptr %this.addr, align 8
  store i64 %__n, ptr %__n.addr, align 8
  %this1 = load ptr, ptr %this.addr, align 8
  %_M_impl = getelementptr inbounds %"struct.std::_Vector_base.37", ptr %this1, i32 0, i32 0
  %_M_start = getelementptr inbounds %"struct.std::_Vector_base<std::__cxx11::basic_string<char>, std::allocator<std::__cxx11::basic_string<char>>>::_Vector_impl_data", ptr %_M_impl, i32 0, i32 0
  %0 = load ptr, ptr %_M_start, align 8
  %1 = load i64, ptr %__n.addr, align 8
  %add.ptr = getelementptr inbounds %"class.std::__cxx11::basic_string", ptr %0, i64 %1
  ret ptr %add.ptr
}

; Function Attrs: mustprogress nounwind uwtable
define linkonce_odr noundef nonnull align 8 dereferenceable(820) ptr @_ZNKSt6vectorIN7rocksdb19ColumnFamilyOptionsESaIS1_EEixEm(ptr noundef nonnull align 8 dereferenceable(24) %this, i64 noundef %__n) #5 comdat align 2 {
entry:
  %this.addr = alloca ptr, align 8
  %__n.addr = alloca i64, align 8
  store ptr %this, ptr %this.addr, align 8
  store i64 %__n, ptr %__n.addr, align 8
  %this1 = load ptr, ptr %this.addr, align 8
  %_M_impl = getelementptr inbounds %"struct.std::_Vector_base.42", ptr %this1, i32 0, i32 0
  %_M_start = getelementptr inbounds %"struct.std::_Vector_base<rocksdb::ColumnFamilyOptions, std::allocator<rocksdb::ColumnFamilyOptions>>::_Vector_impl_data", ptr %_M_impl, i32 0, i32 0
  %0 = load ptr, ptr %_M_start, align 8
  %1 = load i64, ptr %__n.addr, align 8
  %add.ptr = getelementptr inbounds %"struct.rocksdb::ColumnFamilyOptions", ptr %0, i64 %1
  ret ptr %add.ptr
}

; Function Attrs: mustprogress uwtable
define linkonce_odr void @_ZN7rocksdb22ColumnFamilyDescriptorC2ERKNSt7__cxx1112basic_stringIcSt11char_traitsIcESaIcEEERKNS_19ColumnFamilyOptionsE(ptr noundef nonnull align 8 dereferenceable(856) %this, ptr noundef nonnull align 8 dereferenceable(32) %_name, ptr noundef nonnull align 8 dereferenceable(820) %_options) unnamed_addr #2 comdat align 2 personality ptr @__gxx_personality_v0 {
entry:
  %this.addr = alloca ptr, align 8
  %_name.addr = alloca ptr, align 8
  %_options.addr = alloca ptr, align 8
  %exn.slot = alloca ptr, align 8
  %ehselector.slot = alloca i32, align 4
  store ptr %this, ptr %this.addr, align 8
  store ptr %_name, ptr %_name.addr, align 8
  store ptr %_options, ptr %_options.addr, align 8
  %this1 = load ptr, ptr %this.addr, align 8
  %name = getelementptr inbounds %"struct.rocksdb::ColumnFamilyDescriptor", ptr %this1, i32 0, i32 0
  %0 = load ptr, ptr %_name.addr, align 8
  call void @_ZNSt7__cxx1112basic_stringIcSt11char_traitsIcESaIcEEC1ERKS4_(ptr noundef nonnull align 8 dereferenceable(32) %name, ptr noundef nonnull align 8 dereferenceable(32) %0)
  %options = getelementptr inbounds %"struct.rocksdb::ColumnFamilyDescriptor", ptr %this1, i32 0, i32 1
  %1 = load ptr, ptr %_options.addr, align 8
  invoke void @_ZN7rocksdb19ColumnFamilyOptionsC2ERKS0_(ptr noundef nonnull align 8 dereferenceable(820) %options, ptr noundef nonnull align 8 dereferenceable(820) %1)
          to label %invoke.cont unwind label %lpad

invoke.cont:                                      ; preds = %entry
  ret void

lpad:                                             ; preds = %entry
  %2 = landingpad { ptr, i32 }
          cleanup
  %3 = extractvalue { ptr, i32 } %2, 0
  store ptr %3, ptr %exn.slot, align 8
  %4 = extractvalue { ptr, i32 } %2, 1
  store i32 %4, ptr %ehselector.slot, align 4
  call void @_ZNSt7__cxx1112basic_stringIcSt11char_traitsIcESaIcEED1Ev(ptr noundef nonnull align 8 dereferenceable(32) %name) #3
  br label %eh.resume

eh.resume:                                        ; preds = %lpad
  %exn = load ptr, ptr %exn.slot, align 8
  %sel = load i32, ptr %ehselector.slot, align 4
  %lpad.val = insertvalue { ptr, i32 } poison, ptr %exn, 0
  %lpad.val2 = insertvalue { ptr, i32 } %lpad.val, i32 %sel, 1
  resume { ptr, i32 } %lpad.val2
}

; Function Attrs: mustprogress nounwind uwtable
define linkonce_odr void @_ZN7rocksdb22ColumnFamilyDescriptorD2Ev(ptr noundef nonnull align 8 dereferenceable(856) %this) unnamed_addr #5 comdat align 2 {
entry:
  %this.addr = alloca ptr, align 8
  store ptr %this, ptr %this.addr, align 8
  %this1 = load ptr, ptr %this.addr, align 8
  %options = getelementptr inbounds %"struct.rocksdb::ColumnFamilyDescriptor", ptr %this1, i32 0, i32 1
  call void @_ZN7rocksdb19ColumnFamilyOptionsD2Ev(ptr noundef nonnull align 8 dereferenceable(820) %options) #3
  %name = getelementptr inbounds %"struct.rocksdb::ColumnFamilyDescriptor", ptr %this1, i32 0, i32 0
  call void @_ZNSt7__cxx1112basic_stringIcSt11char_traitsIcESaIcEED1Ev(ptr noundef nonnull align 8 dereferenceable(32) %name) #3
  ret void
}

; Function Attrs: mustprogress nounwind uwtable
define linkonce_odr noundef ptr @_ZNKSt12__shared_ptrIN7rocksdb12TableFactoryELN9__gnu_cxx12_Lock_policyE2EE3getEv(ptr noundef nonnull align 8 dereferenceable(16) %this) #5 comdat align 2 {
entry:
  %this.addr = alloca ptr, align 8
  store ptr %this, ptr %this.addr, align 8
  %this1 = load ptr, ptr %this.addr, align 8
  %_M_ptr = getelementptr inbounds %"class.std::__shared_ptr.103", ptr %this1, i32 0, i32 0
  %0 = load ptr, ptr %_M_ptr, align 8
  ret ptr %0
}

; Function Attrs: mustprogress uwtable
define linkonce_odr noundef ptr @_ZN7rocksdb12Configurable10GetOptionsINS_22BlockBasedTableOptionsEEEPT_v(ptr noundef nonnull align 8 dereferenceable(32) %this) #2 comdat align 2 personality ptr @__gxx_personality_v0 {
entry:
  %this.addr = alloca ptr, align 8
  %ref.tmp = alloca %"class.std::__cxx11::basic_string", align 8
  %ref.tmp2 = alloca %"class.std::allocator", align 1
  %exn.slot = alloca ptr, align 8
  %ehselector.slot = alloca i32, align 4
  store ptr %this, ptr %this.addr, align 8
  %this1 = load ptr, ptr %this.addr, align 8
  %call = call noundef ptr @_ZN7rocksdb22BlockBasedTableOptions5kNameEv()
  call void @_ZNSaIcEC1Ev(ptr noundef nonnull align 1 dereferenceable(1) %ref.tmp2) #3
  invoke void @_ZNSt7__cxx1112basic_stringIcSt11char_traitsIcESaIcEEC2IS3_EEPKcRKS3_(ptr noundef nonnull align 8 dereferenceable(32) %ref.tmp, ptr noundef %call, ptr noundef nonnull align 1 dereferenceable(1) %ref.tmp2)
          to label %invoke.cont unwind label %lpad

invoke.cont:                                      ; preds = %entry
  %call5 = invoke noundef ptr @_ZN7rocksdb12Configurable10GetOptionsINS_22BlockBasedTableOptionsEEEPT_RKNSt7__cxx1112basic_stringIcSt11char_traitsIcESaIcEEE(ptr noundef nonnull align 8 dereferenceable(32) %this1, ptr noundef nonnull align 8 dereferenceable(32) %ref.tmp)
          to label %invoke.cont4 unwind label %lpad3

invoke.cont4:                                     ; preds = %invoke.cont
  call void @_ZNSt7__cxx1112basic_stringIcSt11char_traitsIcESaIcEED1Ev(ptr noundef nonnull align 8 dereferenceable(32) %ref.tmp) #3
  call void @_ZNSaIcED1Ev(ptr noundef nonnull align 1 dereferenceable(1) %ref.tmp2) #3
  ret ptr %call5

lpad:                                             ; preds = %entry
  %0 = landingpad { ptr, i32 }
          cleanup
  %1 = extractvalue { ptr, i32 } %0, 0
  store ptr %1, ptr %exn.slot, align 8
  %2 = extractvalue { ptr, i32 } %0, 1
  store i32 %2, ptr %ehselector.slot, align 4
  br label %ehcleanup

lpad3:                                            ; preds = %invoke.cont
  %3 = landingpad { ptr, i32 }
          cleanup
  %4 = extractvalue { ptr, i32 } %3, 0
  store ptr %4, ptr %exn.slot, align 8
  %5 = extractvalue { ptr, i32 } %3, 1
  store i32 %5, ptr %ehselector.slot, align 4
  call void @_ZNSt7__cxx1112basic_stringIcSt11char_traitsIcESaIcEED1Ev(ptr noundef nonnull align 8 dereferenceable(32) %ref.tmp) #3
  br label %ehcleanup

ehcleanup:                                        ; preds = %lpad3, %lpad
  call void @_ZNSaIcED1Ev(ptr noundef nonnull align 1 dereferenceable(1) %ref.tmp2) #3
  br label %eh.resume

eh.resume:                                        ; preds = %ehcleanup
  %exn = load ptr, ptr %exn.slot, align 8
  %sel = load i32, ptr %ehselector.slot, align 4
  %lpad.val = insertvalue { ptr, i32 } poison, ptr %exn, 0
  %lpad.val6 = insertvalue { ptr, i32 } %lpad.val, i32 %sel, 1
  resume { ptr, i32 } %lpad.val6
}

; Function Attrs: mustprogress nounwind uwtable
define linkonce_odr noundef nonnull align 8 dereferenceable(16) ptr @_ZNSt10shared_ptrIN7rocksdb5CacheEEaSERKS2_(ptr noundef nonnull align 8 dereferenceable(16) %this, ptr noundef nonnull align 8 dereferenceable(16) %0) #5 comdat align 2 {
entry:
  %this.addr = alloca ptr, align 8
  %.addr = alloca ptr, align 8
  store ptr %this, ptr %this.addr, align 8
  store ptr %0, ptr %.addr, align 8
  %this1 = load ptr, ptr %this.addr, align 8
  %1 = load ptr, ptr %.addr, align 8
  %call = call noundef nonnull align 8 dereferenceable(16) ptr @_ZNSt12__shared_ptrIN7rocksdb5CacheELN9__gnu_cxx12_Lock_policyE2EEaSERKS4_(ptr noundef nonnull align 8 dereferenceable(16) %this1, ptr noundef nonnull align 8 dereferenceable(16) %1) #3
  ret ptr %this1
}

; Function Attrs: mustprogress uwtable
define linkonce_odr void @_ZN7rocksdb6Status2OKEv(ptr noalias sret(%"class.rocksdb::Status") align 8 %agg.result) #2 comdat align 2 {
entry:
  %result.ptr = alloca ptr, align 8
  store ptr %agg.result, ptr %result.ptr, align 8
  call void @_ZN7rocksdb6StatusC2Ev(ptr noundef nonnull align 8 dereferenceable(16) %agg.result)
  ret void
}

; Function Attrs: mustprogress nounwind uwtable
define linkonce_odr void @_ZN7rocksdb6StatusD2Ev(ptr noundef nonnull align 8 dereferenceable(16) %this) unnamed_addr #5 comdat align 2 {
entry:
  %this.addr = alloca ptr, align 8
  store ptr %this, ptr %this.addr, align 8
  %this1 = load ptr, ptr %this.addr, align 8
  %state_ = getelementptr inbounds %"class.rocksdb::Status", ptr %this1, i32 0, i32 6
  call void @_ZNSt10unique_ptrIA_KcSt14default_deleteIS1_EED2Ev(ptr noundef nonnull align 8 dereferenceable(8) %state_) #3
  ret void
}

; Function Attrs: mustprogress nounwind uwtable
define linkonce_odr void @_ZN7rocksdb20RocksDBOptionsParserD2Ev(ptr noundef nonnull align 8 dereferenceable(844) %this) unnamed_addr #5 comdat align 2 {
entry:
  %this.addr = alloca ptr, align 8
  store ptr %this, ptr %this.addr, align 8
  %this1 = load ptr, ptr %this.addr, align 8
  %cf_opt_maps_ = getelementptr inbounds %"class.rocksdb::RocksDBOptionsParser", ptr %this1, i32 0, i32 4
  call void @_ZNSt6vectorISt13unordered_mapINSt7__cxx1112basic_stringIcSt11char_traitsIcESaIcEEES6_St4hashIS6_ESt8equal_toIS6_ESaISt4pairIKS6_S6_EEESaISF_EED2Ev(ptr noundef nonnull align 8 dereferenceable(24) %cf_opt_maps_) #3
  %cf_opts_ = getelementptr inbounds %"class.rocksdb::RocksDBOptionsParser", ptr %this1, i32 0, i32 3
  call void @_ZNSt6vectorIN7rocksdb19ColumnFamilyOptionsESaIS1_EED2Ev(ptr noundef nonnull align 8 dereferenceable(24) %cf_opts_) #3
  %cf_names_ = getelementptr inbounds %"class.rocksdb::RocksDBOptionsParser", ptr %this1, i32 0, i32 2
  call void @_ZNSt6vectorINSt7__cxx1112basic_stringIcSt11char_traitsIcESaIcEEESaIS5_EED2Ev(ptr noundef nonnull align 8 dereferenceable(24) %cf_names_) #3
  %db_opt_map_ = getelementptr inbounds %"class.rocksdb::RocksDBOptionsParser", ptr %this1, i32 0, i32 1
  call void @_ZNSt13unordered_mapINSt7__cxx1112basic_stringIcSt11char_traitsIcESaIcEEES5_St4hashIS5_ESt8equal_toIS5_ESaISt4pairIKS5_S5_EEED2Ev(ptr noundef nonnull align 8 dereferenceable(56) %db_opt_map_) #3
  %db_opt_ = getelementptr inbounds %"class.rocksdb::RocksDBOptionsParser", ptr %this1, i32 0, i32 0
  call void @_ZN7rocksdb9DBOptionsD2Ev(ptr noundef nonnull align 8 dereferenceable(688) %db_opt_) #3
  ret void
}

; Function Attrs: mustprogress uwtable
define void @_ZN7rocksdb24GetLatestOptionsFileNameERKNSt7__cxx1112basic_stringIcSt11char_traitsIcESaIcEEEPNS_3EnvEPS5_(ptr noalias sret(%"class.rocksdb::Status") align 8 %agg.result, ptr noundef nonnull align 8 dereferenceable(32) %dbpath, ptr noundef %env, ptr noundef %options_file_name) #2 personality ptr @__gxx_personality_v0 {
entry:
  %result.ptr = alloca ptr, align 8
  %dbpath.addr = alloca ptr, align 8
  %env.addr = alloca ptr, align 8
  %options_file_name.addr = alloca ptr, align 8
  %s = alloca %"class.rocksdb::Status", align 8
  %latest_file_name = alloca %"class.std::__cxx11::basic_string", align 8
  %latest_time_stamp = alloca i64, align 8
  %file_names = alloca %"class.std::vector.36", align 8
  %ref.tmp = alloca %"class.rocksdb::Status", align 8
  %exn.slot = alloca ptr, align 8
  %ehselector.slot = alloca i32, align 4
  %ref.tmp3 = alloca %"class.rocksdb::Slice", align 8
  %ref.tmp5 = alloca %"class.rocksdb::Slice", align 8
  %cleanup.dest.slot = alloca i32, align 4
  %__range1 = alloca ptr, align 8
  %__begin1 = alloca %"class.__gnu_cxx::__normal_iterator", align 8
  %__end1 = alloca %"class.__gnu_cxx::__normal_iterator", align 8
  %file_name = alloca ptr, align 8
  %time_stamp = alloca i64, align 8
  %type = alloca i32, align 4
  %ref.tmp30 = alloca %"class.rocksdb::Slice", align 8
  %ref.tmp32 = alloca %"class.rocksdb::Slice", align 8
  store ptr %agg.result, ptr %result.ptr, align 8
  store ptr %dbpath, ptr %dbpath.addr, align 8
  store ptr %env, ptr %env.addr, align 8
  store ptr %options_file_name, ptr %options_file_name.addr, align 8
  call void @_ZN7rocksdb6StatusC2Ev(ptr noundef nonnull align 8 dereferenceable(16) %s)
  call void @_ZNSt7__cxx1112basic_stringIcSt11char_traitsIcESaIcEEC1Ev(ptr noundef nonnull align 8 dereferenceable(32) %latest_file_name) #3
  store i64 0, ptr %latest_time_stamp, align 8
  call void @_ZNSt6vectorINSt7__cxx1112basic_stringIcSt11char_traitsIcESaIcEEESaIS5_EEC2Ev(ptr noundef nonnull align 8 dereferenceable(24) %file_names) #3
  %0 = load ptr, ptr %env.addr, align 8
  %1 = load ptr, ptr %dbpath.addr, align 8
  %vtable = load ptr, ptr %0, align 8
  %vfn = getelementptr inbounds ptr, ptr %vtable, i64 30
  %2 = load ptr, ptr %vfn, align 8
  invoke void %2(ptr sret(%"class.rocksdb::Status") align 8 %ref.tmp, ptr noundef nonnull align 8 dereferenceable(72) %0, ptr noundef nonnull align 8 dereferenceable(32) %1, ptr noundef %file_names)
          to label %invoke.cont unwind label %lpad

invoke.cont:                                      ; preds = %entry
  %call = call noundef nonnull align 8 dereferenceable(16) ptr @_ZN7rocksdb6StatusaSEOS0_(ptr noundef nonnull align 8 dereferenceable(16) %s, ptr noundef nonnull align 8 dereferenceable(16) %ref.tmp) #3
  call void @_ZN7rocksdb6StatusD2Ev(ptr noundef nonnull align 8 dereferenceable(16) %ref.tmp) #3
  %call2 = invoke noundef zeroext i1 @_ZNK7rocksdb6Status10IsNotFoundEv(ptr noundef nonnull align 8 dereferenceable(16) %s)
          to label %invoke.cont1 unwind label %lpad

invoke.cont1:                                     ; preds = %invoke.cont
  br i1 %call2, label %if.then, label %if.else

if.then:                                          ; preds = %invoke.cont1
  invoke void @_ZN7rocksdb5SliceC2EPKc(ptr noundef nonnull align 8 dereferenceable(16) %ref.tmp3, ptr noundef @.str.5)
          to label %invoke.cont4 unwind label %lpad

invoke.cont4:                                     ; preds = %if.then
  %3 = load ptr, ptr %dbpath.addr, align 8
  invoke void @_ZN7rocksdb5SliceC2ERKNSt7__cxx1112basic_stringIcSt11char_traitsIcESaIcEEE(ptr noundef nonnull align 8 dereferenceable(16) %ref.tmp5, ptr noundef nonnull align 8 dereferenceable(32) %3)
          to label %invoke.cont6 unwind label %lpad

invoke.cont6:                                     ; preds = %invoke.cont4
  invoke void @_ZN7rocksdb6Status8NotFoundENS0_7SubCodeERKNS_5SliceES4_(ptr sret(%"class.rocksdb::Status") align 8 %agg.result, i8 noundef zeroext 9, ptr noundef nonnull align 8 dereferenceable(16) %ref.tmp3, ptr noundef nonnull align 8 dereferenceable(16) %ref.tmp5)
          to label %invoke.cont7 unwind label %lpad

invoke.cont7:                                     ; preds = %invoke.cont6
  store i32 1, ptr %cleanup.dest.slot, align 4
  br label %cleanup

lpad:                                             ; preds = %invoke.cont36, %if.end35, %invoke.cont33, %invoke.cont31, %if.then29, %if.then21, %for.body, %if.else, %invoke.cont6, %invoke.cont4, %if.then, %invoke.cont, %entry
  %4 = landingpad { ptr, i32 }
          cleanup
  %5 = extractvalue { ptr, i32 } %4, 0
  store ptr %5, ptr %exn.slot, align 8
  %6 = extractvalue { ptr, i32 } %4, 1
  store i32 %6, ptr %ehselector.slot, align 4
  call void @_ZNSt6vectorINSt7__cxx1112basic_stringIcSt11char_traitsIcESaIcEEESaIS5_EED2Ev(ptr noundef nonnull align 8 dereferenceable(24) %file_names) #3
  call void @_ZNSt7__cxx1112basic_stringIcSt11char_traitsIcESaIcEED1Ev(ptr noundef nonnull align 8 dereferenceable(32) %latest_file_name) #3
  call void @_ZN7rocksdb6StatusD2Ev(ptr noundef nonnull align 8 dereferenceable(16) %s) #3
  br label %eh.resume

if.else:                                          ; preds = %invoke.cont1
  %call9 = invoke noundef zeroext i1 @_ZNK7rocksdb6Status2okEv(ptr noundef nonnull align 8 dereferenceable(16) %s)
          to label %invoke.cont8 unwind label %lpad

invoke.cont8:                                     ; preds = %if.else
  br i1 %call9, label %if.end, label %if.then10

if.then10:                                        ; preds = %invoke.cont8
  call void @_ZN7rocksdb6StatusC2EOS0_(ptr noundef nonnull align 8 dereferenceable(16) %agg.result, ptr noundef nonnull align 8 dereferenceable(16) %s) #3
  store i32 1, ptr %cleanup.dest.slot, align 4
  br label %cleanup

if.end:                                           ; preds = %invoke.cont8
  br label %if.end11

if.end11:                                         ; preds = %if.end
  store ptr %file_names, ptr %__range1, align 8
  %7 = load ptr, ptr %__range1, align 8
  %call12 = call ptr @_ZNSt6vectorINSt7__cxx1112basic_stringIcSt11char_traitsIcESaIcEEESaIS5_EE5beginEv(ptr noundef nonnull align 8 dereferenceable(24) %7) #3
  %coerce.dive = getelementptr inbounds %"class.__gnu_cxx::__normal_iterator", ptr %__begin1, i32 0, i32 0
  store ptr %call12, ptr %coerce.dive, align 8
  %8 = load ptr, ptr %__range1, align 8
  %call13 = call ptr @_ZNSt6vectorINSt7__cxx1112basic_stringIcSt11char_traitsIcESaIcEEESaIS5_EE3endEv(ptr noundef nonnull align 8 dereferenceable(24) %8) #3
  %coerce.dive14 = getelementptr inbounds %"class.__gnu_cxx::__normal_iterator", ptr %__end1, i32 0, i32 0
  store ptr %call13, ptr %coerce.dive14, align 8
  br label %for.cond

for.cond:                                         ; preds = %for.inc, %if.end11
  %call15 = call noundef zeroext i1 @_ZN9__gnu_cxxneIPNSt7__cxx1112basic_stringIcSt11char_traitsIcESaIcEEESt6vectorIS6_SaIS6_EEEEbRKNS_17__normal_iteratorIT_T0_EESG_(ptr noundef nonnull align 8 dereferenceable(8) %__begin1, ptr noundef nonnull align 8 dereferenceable(8) %__end1) #3
  br i1 %call15, label %for.body, label %for.end

for.body:                                         ; preds = %for.cond
  %call16 = call noundef nonnull align 8 dereferenceable(32) ptr @_ZNK9__gnu_cxx17__normal_iteratorIPNSt7__cxx1112basic_stringIcSt11char_traitsIcESaIcEEESt6vectorIS6_SaIS6_EEEdeEv(ptr noundef nonnull align 8 dereferenceable(8) %__begin1) #3
  store ptr %call16, ptr %file_name, align 8
  %9 = load ptr, ptr %file_name, align 8
  %call18 = invoke noundef zeroext i1 @_ZN7rocksdb13ParseFileNameERKNSt7__cxx1112basic_stringIcSt11char_traitsIcESaIcEEEPmPNS_8FileTypeEPNS_11WalFileTypeE(ptr noundef nonnull align 8 dereferenceable(32) %9, ptr noundef %time_stamp, ptr noundef %type, ptr noundef null)
          to label %invoke.cont17 unwind label %lpad

invoke.cont17:                                    ; preds = %for.body
  br i1 %call18, label %land.lhs.true, label %if.end25

land.lhs.true:                                    ; preds = %invoke.cont17
  %10 = load i32, ptr %type, align 4
  %cmp = icmp eq i32 %10, 9
  br i1 %cmp, label %if.then19, label %if.end25

if.then19:                                        ; preds = %land.lhs.true
  %11 = load i64, ptr %time_stamp, align 8
  %12 = load i64, ptr %latest_time_stamp, align 8
  %cmp20 = icmp ugt i64 %11, %12
  br i1 %cmp20, label %if.then21, label %if.end24

if.then21:                                        ; preds = %if.then19
  %13 = load i64, ptr %time_stamp, align 8
  store i64 %13, ptr %latest_time_stamp, align 8
  %14 = load ptr, ptr %file_name, align 8
  %call23 = invoke noundef nonnull align 8 dereferenceable(32) ptr @_ZNSt7__cxx1112basic_stringIcSt11char_traitsIcESaIcEEaSERKS4_(ptr noundef nonnull align 8 dereferenceable(32) %latest_file_name, ptr noundef nonnull align 8 dereferenceable(32) %14)
          to label %invoke.cont22 unwind label %lpad

invoke.cont22:                                    ; preds = %if.then21
  br label %if.end24

if.end24:                                         ; preds = %invoke.cont22, %if.then19
  br label %if.end25

if.end25:                                         ; preds = %if.end24, %land.lhs.true, %invoke.cont17
  br label %for.inc

for.inc:                                          ; preds = %if.end25
  %call26 = call noundef nonnull align 8 dereferenceable(8) ptr @_ZN9__gnu_cxx17__normal_iteratorIPNSt7__cxx1112basic_stringIcSt11char_traitsIcESaIcEEESt6vectorIS6_SaIS6_EEEppEv(ptr noundef nonnull align 8 dereferenceable(8) %__begin1) #3
  br label %for.cond

for.end:                                          ; preds = %for.cond
  %call27 = call noundef i64 @_ZNKSt7__cxx1112basic_stringIcSt11char_traitsIcESaIcEE4sizeEv(ptr noundef nonnull align 8 dereferenceable(32) %latest_file_name) #3
  %cmp28 = icmp eq i64 %call27, 0
  br i1 %cmp28, label %if.then29, label %if.end35

if.then29:                                        ; preds = %for.end
  invoke void @_ZN7rocksdb5SliceC2EPKc(ptr noundef nonnull align 8 dereferenceable(16) %ref.tmp30, ptr noundef @.str.5)
          to label %invoke.cont31 unwind label %lpad

invoke.cont31:                                    ; preds = %if.then29
  %15 = load ptr, ptr %dbpath.addr, align 8
  invoke void @_ZN7rocksdb5SliceC2ERKNSt7__cxx1112basic_stringIcSt11char_traitsIcESaIcEEE(ptr noundef nonnull align 8 dereferenceable(16) %ref.tmp32, ptr noundef nonnull align 8 dereferenceable(32) %15)
          to label %invoke.cont33 unwind label %lpad

invoke.cont33:                                    ; preds = %invoke.cont31
  invoke void @_ZN7rocksdb6Status8NotFoundENS0_7SubCodeERKNS_5SliceES4_(ptr sret(%"class.rocksdb::Status") align 8 %agg.result, i8 noundef zeroext 9, ptr noundef nonnull align 8 dereferenceable(16) %ref.tmp30, ptr noundef nonnull align 8 dereferenceable(16) %ref.tmp32)
          to label %invoke.cont34 unwind label %lpad

invoke.cont34:                                    ; preds = %invoke.cont33
  store i32 1, ptr %cleanup.dest.slot, align 4
  br label %cleanup

if.end35:                                         ; preds = %for.end
  %16 = load ptr, ptr %options_file_name.addr, align 8
  %call37 = invoke noundef nonnull align 8 dereferenceable(32) ptr @_ZNSt7__cxx1112basic_stringIcSt11char_traitsIcESaIcEEaSERKS4_(ptr noundef nonnull align 8 dereferenceable(32) %16, ptr noundef nonnull align 8 dereferenceable(32) %latest_file_name)
          to label %invoke.cont36 unwind label %lpad

invoke.cont36:                                    ; preds = %if.end35
  invoke void @_ZN7rocksdb6Status2OKEv(ptr sret(%"class.rocksdb::Status") align 8 %agg.result)
          to label %invoke.cont38 unwind label %lpad

invoke.cont38:                                    ; preds = %invoke.cont36
  store i32 1, ptr %cleanup.dest.slot, align 4
  br label %cleanup

cleanup:                                          ; preds = %invoke.cont38, %invoke.cont34, %if.then10, %invoke.cont7
  call void @_ZNSt6vectorINSt7__cxx1112basic_stringIcSt11char_traitsIcESaIcEEESaIS5_EED2Ev(ptr noundef nonnull align 8 dereferenceable(24) %file_names) #3
  call void @_ZNSt7__cxx1112basic_stringIcSt11char_traitsIcESaIcEED1Ev(ptr noundef nonnull align 8 dereferenceable(32) %latest_file_name) #3
  call void @_ZN7rocksdb6StatusD2Ev(ptr noundef nonnull align 8 dereferenceable(16) %s) #3
  ret void

eh.resume:                                        ; preds = %lpad
  %exn = load ptr, ptr %exn.slot, align 8
  %sel = load i32, ptr %ehselector.slot, align 4
  %lpad.val = insertvalue { ptr, i32 } poison, ptr %exn, 0
  %lpad.val41 = insertvalue { ptr, i32 } %lpad.val, i32 %sel, 1
  resume { ptr, i32 } %lpad.val41
}

; Function Attrs: mustprogress nounwind uwtable
define linkonce_odr void @_ZN7rocksdb6StatusC2Ev(ptr noundef nonnull align 8 dereferenceable(16) %this) unnamed_addr #5 comdat align 2 {
entry:
  %this.addr = alloca ptr, align 8
  store ptr %this, ptr %this.addr, align 8
  %this1 = load ptr, ptr %this.addr, align 8
  %code_ = getelementptr inbounds %"class.rocksdb::Status", ptr %this1, i32 0, i32 0
  store i8 0, ptr %code_, align 8
  %subcode_ = getelementptr inbounds %"class.rocksdb::Status", ptr %this1, i32 0, i32 1
  store i8 0, ptr %subcode_, align 1
  %sev_ = getelementptr inbounds %"class.rocksdb::Status", ptr %this1, i32 0, i32 2
  store i8 0, ptr %sev_, align 2
  %retryable_ = getelementptr inbounds %"class.rocksdb::Status", ptr %this1, i32 0, i32 3
  store i8 0, ptr %retryable_, align 1
  %data_loss_ = getelementptr inbounds %"class.rocksdb::Status", ptr %this1, i32 0, i32 4
  store i8 0, ptr %data_loss_, align 4
  %scope_ = getelementptr inbounds %"class.rocksdb::Status", ptr %this1, i32 0, i32 5
  store i8 0, ptr %scope_, align 1
  %state_ = getelementptr inbounds %"class.rocksdb::Status", ptr %this1, i32 0, i32 6
  call void @_ZNSt10unique_ptrIA_KcSt14default_deleteIS1_EEC2IS3_vEEDn(ptr noundef nonnull align 8 dereferenceable(8) %state_, ptr null) #3
  ret void
}

; Function Attrs: nounwind
declare void @_ZNSt7__cxx1112basic_stringIcSt11char_traitsIcESaIcEEC1Ev(ptr noundef nonnull align 8 dereferenceable(32)) unnamed_addr #1

; Function Attrs: mustprogress nounwind uwtable
define linkonce_odr void @_ZNSt6vectorINSt7__cxx1112basic_stringIcSt11char_traitsIcESaIcEEESaIS5_EEC2Ev(ptr noundef nonnull align 8 dereferenceable(24) %this) unnamed_addr #5 comdat align 2 {
entry:
  %this.addr = alloca ptr, align 8
  store ptr %this, ptr %this.addr, align 8
  %this1 = load ptr, ptr %this.addr, align 8
  call void @_ZNSt12_Vector_baseINSt7__cxx1112basic_stringIcSt11char_traitsIcESaIcEEESaIS5_EEC2Ev(ptr noundef nonnull align 8 dereferenceable(24) %this1) #3
  ret void
}

; Function Attrs: mustprogress nounwind uwtable
define linkonce_odr noundef nonnull align 8 dereferenceable(16) ptr @_ZN7rocksdb6StatusaSEOS0_(ptr noundef nonnull align 8 dereferenceable(16) %this, ptr noundef nonnull align 8 dereferenceable(16) %s) #5 comdat align 2 personality ptr @__gxx_personality_v0 {
entry:
  %this.addr = alloca ptr, align 8
  %s.addr = alloca ptr, align 8
  store ptr %this, ptr %this.addr, align 8
  store ptr %s, ptr %s.addr, align 8
  %this1 = load ptr, ptr %this.addr, align 8
  %0 = load ptr, ptr %s.addr, align 8
  %cmp = icmp ne ptr %this1, %0
  br i1 %cmp, label %if.then, label %if.end

if.then:                                          ; preds = %entry
  %1 = load ptr, ptr %s.addr, align 8
  call void @_ZNK7rocksdb6Status11MarkCheckedEv(ptr noundef nonnull align 8 dereferenceable(16) %1)
  invoke void @_ZNK7rocksdb6Status9MustCheckEv(ptr noundef nonnull align 8 dereferenceable(16) %this1)
          to label %invoke.cont unwind label %terminate.lpad

invoke.cont:                                      ; preds = %if.then
  %2 = load ptr, ptr %s.addr, align 8
  %code_ = getelementptr inbounds %"class.rocksdb::Status", ptr %2, i32 0, i32 0
  %3 = load i8, ptr %code_, align 1
  %code_2 = getelementptr inbounds %"class.rocksdb::Status", ptr %this1, i32 0, i32 0
  store i8 %3, ptr %code_2, align 8
  %4 = load ptr, ptr %s.addr, align 8
  %code_3 = getelementptr inbounds %"class.rocksdb::Status", ptr %4, i32 0, i32 0
  store i8 0, ptr %code_3, align 8
  %5 = load ptr, ptr %s.addr, align 8
  %subcode_ = getelementptr inbounds %"class.rocksdb::Status", ptr %5, i32 0, i32 1
  %6 = load i8, ptr %subcode_, align 1
  %subcode_4 = getelementptr inbounds %"class.rocksdb::Status", ptr %this1, i32 0, i32 1
  store i8 %6, ptr %subcode_4, align 1
  %7 = load ptr, ptr %s.addr, align 8
  %subcode_5 = getelementptr inbounds %"class.rocksdb::Status", ptr %7, i32 0, i32 1
  store i8 0, ptr %subcode_5, align 1
  %8 = load ptr, ptr %s.addr, align 8
  %sev_ = getelementptr inbounds %"class.rocksdb::Status", ptr %8, i32 0, i32 2
  %9 = load i8, ptr %sev_, align 1
  %sev_6 = getelementptr inbounds %"class.rocksdb::Status", ptr %this1, i32 0, i32 2
  store i8 %9, ptr %sev_6, align 2
  %10 = load ptr, ptr %s.addr, align 8
  %sev_7 = getelementptr inbounds %"class.rocksdb::Status", ptr %10, i32 0, i32 2
  store i8 0, ptr %sev_7, align 2
  %11 = load ptr, ptr %s.addr, align 8
  %retryable_ = getelementptr inbounds %"class.rocksdb::Status", ptr %11, i32 0, i32 3
  %12 = load i8, ptr %retryable_, align 1
  %tobool = trunc i8 %12 to i1
  %retryable_8 = getelementptr inbounds %"class.rocksdb::Status", ptr %this1, i32 0, i32 3
  %frombool = zext i1 %tobool to i8
  store i8 %frombool, ptr %retryable_8, align 1
  %13 = load ptr, ptr %s.addr, align 8
  %retryable_9 = getelementptr inbounds %"class.rocksdb::Status", ptr %13, i32 0, i32 3
  store i8 0, ptr %retryable_9, align 1
  %14 = load ptr, ptr %s.addr, align 8
  %data_loss_ = getelementptr inbounds %"class.rocksdb::Status", ptr %14, i32 0, i32 4
  %15 = load i8, ptr %data_loss_, align 1
  %tobool10 = trunc i8 %15 to i1
  %data_loss_11 = getelementptr inbounds %"class.rocksdb::Status", ptr %this1, i32 0, i32 4
  %frombool12 = zext i1 %tobool10 to i8
  store i8 %frombool12, ptr %data_loss_11, align 4
  %16 = load ptr, ptr %s.addr, align 8
  %data_loss_13 = getelementptr inbounds %"class.rocksdb::Status", ptr %16, i32 0, i32 4
  store i8 0, ptr %data_loss_13, align 4
  %17 = load ptr, ptr %s.addr, align 8
  %scope_ = getelementptr inbounds %"class.rocksdb::Status", ptr %17, i32 0, i32 5
  %18 = load i8, ptr %scope_, align 1
  %scope_14 = getelementptr inbounds %"class.rocksdb::Status", ptr %this1, i32 0, i32 5
  store i8 %18, ptr %scope_14, align 1
  %19 = load ptr, ptr %s.addr, align 8
  %scope_15 = getelementptr inbounds %"class.rocksdb::Status", ptr %19, i32 0, i32 5
  store i8 0, ptr %scope_15, align 1
  %20 = load ptr, ptr %s.addr, align 8
  %state_ = getelementptr inbounds %"class.rocksdb::Status", ptr %20, i32 0, i32 6
  %state_16 = getelementptr inbounds %"class.rocksdb::Status", ptr %this1, i32 0, i32 6
  %call = call noundef nonnull align 8 dereferenceable(8) ptr @_ZNSt10unique_ptrIA_KcSt14default_deleteIS1_EEaSEOS4_(ptr noundef nonnull align 8 dereferenceable(8) %state_16, ptr noundef nonnull align 8 dereferenceable(8) %state_) #3
  br label %if.end

if.end:                                           ; preds = %invoke.cont, %entry
  ret ptr %this1

terminate.lpad:                                   ; preds = %if.then
  %21 = landingpad { ptr, i32 }
          catch ptr null
  %22 = extractvalue { ptr, i32 } %21, 0
  call void @__clang_call_terminate(ptr %22) #15
  unreachable
}

; Function Attrs: mustprogress nounwind uwtable
define linkonce_odr noundef zeroext i1 @_ZNK7rocksdb6Status10IsNotFoundEv(ptr noundef nonnull align 8 dereferenceable(16) %this) #5 comdat align 2 {
entry:
  %this.addr = alloca ptr, align 8
  store ptr %this, ptr %this.addr, align 8
  %this1 = load ptr, ptr %this.addr, align 8
  call void @_ZNK7rocksdb6Status11MarkCheckedEv(ptr noundef nonnull align 8 dereferenceable(16) %this1)
  %call = call noundef zeroext i8 @_ZNK7rocksdb6Status4codeEv(ptr noundef nonnull align 8 dereferenceable(16) %this1)
  %conv = zext i8 %call to i32
  %cmp = icmp eq i32 %conv, 1
  ret i1 %cmp
}

; Function Attrs: mustprogress uwtable
define linkonce_odr void @_ZN7rocksdb6Status8NotFoundENS0_7SubCodeERKNS_5SliceES4_(ptr noalias sret(%"class.rocksdb::Status") align 8 %agg.result, i8 noundef zeroext %sc, ptr noundef nonnull align 8 dereferenceable(16) %msg, ptr noundef nonnull align 8 dereferenceable(16) %msg2) #2 comdat align 2 {
entry:
  %result.ptr = alloca ptr, align 8
  %sc.addr = alloca i8, align 1
  %msg.addr = alloca ptr, align 8
  %msg2.addr = alloca ptr, align 8
  store ptr %agg.result, ptr %result.ptr, align 8
  store i8 %sc, ptr %sc.addr, align 1
  store ptr %msg, ptr %msg.addr, align 8
  store ptr %msg2, ptr %msg2.addr, align 8
  %0 = load i8, ptr %sc.addr, align 1
  %1 = load ptr, ptr %msg.addr, align 8
  %2 = load ptr, ptr %msg2.addr, align 8
  call void @_ZN7rocksdb6StatusC1ENS0_4CodeENS0_7SubCodeERKNS_5SliceES5_NS0_8SeverityE(ptr noundef nonnull align 8 dereferenceable(16) %agg.result, i8 noundef zeroext 1, i8 noundef zeroext %0, ptr noundef nonnull align 8 dereferenceable(16) %1, ptr noundef nonnull align 8 dereferenceable(16) %2, i8 noundef zeroext 0)
  ret void
}

; Function Attrs: mustprogress nounwind uwtable
define linkonce_odr void @_ZN7rocksdb5SliceC2EPKc(ptr noundef nonnull align 8 dereferenceable(16) %this, ptr noundef %s) unnamed_addr #5 comdat align 2 {
entry:
  %this.addr = alloca ptr, align 8
  %s.addr = alloca ptr, align 8
  store ptr %this, ptr %this.addr, align 8
  store ptr %s, ptr %s.addr, align 8
  %this1 = load ptr, ptr %this.addr, align 8
  %data_ = getelementptr inbounds %"class.rocksdb::Slice", ptr %this1, i32 0, i32 0
  %0 = load ptr, ptr %s.addr, align 8
  store ptr %0, ptr %data_, align 8
  %1 = load ptr, ptr %s.addr, align 8
  %cmp = icmp eq ptr %1, null
  br i1 %cmp, label %cond.true, label %cond.false

cond.true:                                        ; preds = %entry
  br label %cond.end

cond.false:                                       ; preds = %entry
  %2 = load ptr, ptr %s.addr, align 8
  %call = call i64 @strlen(ptr noundef %2) #16
  br label %cond.end

cond.end:                                         ; preds = %cond.false, %cond.true
  %cond = phi i64 [ 0, %cond.true ], [ %call, %cond.false ]
  %size_ = getelementptr inbounds %"class.rocksdb::Slice", ptr %this1, i32 0, i32 1
  store i64 %cond, ptr %size_, align 8
  ret void
}

; Function Attrs: mustprogress nounwind uwtable
define linkonce_odr void @_ZN7rocksdb5SliceC2ERKNSt7__cxx1112basic_stringIcSt11char_traitsIcESaIcEEE(ptr noundef nonnull align 8 dereferenceable(16) %this, ptr noundef nonnull align 8 dereferenceable(32) %s) unnamed_addr #5 comdat align 2 {
entry:
  %this.addr = alloca ptr, align 8
  %s.addr = alloca ptr, align 8
  store ptr %this, ptr %this.addr, align 8
  store ptr %s, ptr %s.addr, align 8
  %this1 = load ptr, ptr %this.addr, align 8
  %data_ = getelementptr inbounds %"class.rocksdb::Slice", ptr %this1, i32 0, i32 0
  %0 = load ptr, ptr %s.addr, align 8
  %call = call noundef ptr @_ZNKSt7__cxx1112basic_stringIcSt11char_traitsIcESaIcEE4dataEv(ptr noundef nonnull align 8 dereferenceable(32) %0) #3
  store ptr %call, ptr %data_, align 8
  %size_ = getelementptr inbounds %"class.rocksdb::Slice", ptr %this1, i32 0, i32 1
  %1 = load ptr, ptr %s.addr, align 8
  %call2 = call noundef i64 @_ZNKSt7__cxx1112basic_stringIcSt11char_traitsIcESaIcEE4sizeEv(ptr noundef nonnull align 8 dereferenceable(32) %1) #3
  store i64 %call2, ptr %size_, align 8
  ret void
}

; Function Attrs: mustprogress nounwind uwtable
define linkonce_odr ptr @_ZNSt6vectorINSt7__cxx1112basic_stringIcSt11char_traitsIcESaIcEEESaIS5_EE5beginEv(ptr noundef nonnull align 8 dereferenceable(24) %this) #5 comdat align 2 {
entry:
  %retval = alloca %"class.__gnu_cxx::__normal_iterator", align 8
  %this.addr = alloca ptr, align 8
  store ptr %this, ptr %this.addr, align 8
  %this1 = load ptr, ptr %this.addr, align 8
  %_M_impl = getelementptr inbounds %"struct.std::_Vector_base.37", ptr %this1, i32 0, i32 0
  %_M_start = getelementptr inbounds %"struct.std::_Vector_base<std::__cxx11::basic_string<char>, std::allocator<std::__cxx11::basic_string<char>>>::_Vector_impl_data", ptr %_M_impl, i32 0, i32 0
  call void @_ZN9__gnu_cxx17__normal_iteratorIPNSt7__cxx1112basic_stringIcSt11char_traitsIcESaIcEEESt6vectorIS6_SaIS6_EEEC2ERKS7_(ptr noundef nonnull align 8 dereferenceable(8) %retval, ptr noundef nonnull align 8 dereferenceable(8) %_M_start) #3
  %coerce.dive = getelementptr inbounds %"class.__gnu_cxx::__normal_iterator", ptr %retval, i32 0, i32 0
  %0 = load ptr, ptr %coerce.dive, align 8
  ret ptr %0
}

; Function Attrs: mustprogress nounwind uwtable
define linkonce_odr ptr @_ZNSt6vectorINSt7__cxx1112basic_stringIcSt11char_traitsIcESaIcEEESaIS5_EE3endEv(ptr noundef nonnull align 8 dereferenceable(24) %this) #5 comdat align 2 {
entry:
  %retval = alloca %"class.__gnu_cxx::__normal_iterator", align 8
  %this.addr = alloca ptr, align 8
  store ptr %this, ptr %this.addr, align 8
  %this1 = load ptr, ptr %this.addr, align 8
  %_M_impl = getelementptr inbounds %"struct.std::_Vector_base.37", ptr %this1, i32 0, i32 0
  %_M_finish = getelementptr inbounds %"struct.std::_Vector_base<std::__cxx11::basic_string<char>, std::allocator<std::__cxx11::basic_string<char>>>::_Vector_impl_data", ptr %_M_impl, i32 0, i32 1
  call void @_ZN9__gnu_cxx17__normal_iteratorIPNSt7__cxx1112basic_stringIcSt11char_traitsIcESaIcEEESt6vectorIS6_SaIS6_EEEC2ERKS7_(ptr noundef nonnull align 8 dereferenceable(8) %retval, ptr noundef nonnull align 8 dereferenceable(8) %_M_finish) #3
  %coerce.dive = getelementptr inbounds %"class.__gnu_cxx::__normal_iterator", ptr %retval, i32 0, i32 0
  %0 = load ptr, ptr %coerce.dive, align 8
  ret ptr %0
}

; Function Attrs: mustprogress nounwind uwtable
define linkonce_odr noundef zeroext i1 @_ZN9__gnu_cxxneIPNSt7__cxx1112basic_stringIcSt11char_traitsIcESaIcEEESt6vectorIS6_SaIS6_EEEEbRKNS_17__normal_iteratorIT_T0_EESG_(ptr noundef nonnull align 8 dereferenceable(8) %__lhs, ptr noundef nonnull align 8 dereferenceable(8) %__rhs) #5 comdat {
entry:
  %__lhs.addr = alloca ptr, align 8
  %__rhs.addr = alloca ptr, align 8
  store ptr %__lhs, ptr %__lhs.addr, align 8
  store ptr %__rhs, ptr %__rhs.addr, align 8
  %0 = load ptr, ptr %__lhs.addr, align 8
  %call = call noundef nonnull align 8 dereferenceable(8) ptr @_ZNK9__gnu_cxx17__normal_iteratorIPNSt7__cxx1112basic_stringIcSt11char_traitsIcESaIcEEESt6vectorIS6_SaIS6_EEE4baseEv(ptr noundef nonnull align 8 dereferenceable(8) %0) #3
  %1 = load ptr, ptr %call, align 8
  %2 = load ptr, ptr %__rhs.addr, align 8
  %call1 = call noundef nonnull align 8 dereferenceable(8) ptr @_ZNK9__gnu_cxx17__normal_iteratorIPNSt7__cxx1112basic_stringIcSt11char_traitsIcESaIcEEESt6vectorIS6_SaIS6_EEE4baseEv(ptr noundef nonnull align 8 dereferenceable(8) %2) #3
  %3 = load ptr, ptr %call1, align 8
  %cmp = icmp ne ptr %1, %3
  ret i1 %cmp
}

; Function Attrs: mustprogress nounwind uwtable
define linkonce_odr noundef nonnull align 8 dereferenceable(32) ptr @_ZNK9__gnu_cxx17__normal_iteratorIPNSt7__cxx1112basic_stringIcSt11char_traitsIcESaIcEEESt6vectorIS6_SaIS6_EEEdeEv(ptr noundef nonnull align 8 dereferenceable(8) %this) #5 comdat align 2 {
entry:
  %this.addr = alloca ptr, align 8
  store ptr %this, ptr %this.addr, align 8
  %this1 = load ptr, ptr %this.addr, align 8
  %_M_current = getelementptr inbounds %"class.__gnu_cxx::__normal_iterator", ptr %this1, i32 0, i32 0
  %0 = load ptr, ptr %_M_current, align 8
  ret ptr %0
}

declare noundef zeroext i1 @_ZN7rocksdb13ParseFileNameERKNSt7__cxx1112basic_stringIcSt11char_traitsIcESaIcEEEPmPNS_8FileTypeEPNS_11WalFileTypeE(ptr noundef nonnull align 8 dereferenceable(32), ptr noundef, ptr noundef, ptr noundef) #4

declare noundef nonnull align 8 dereferenceable(32) ptr @_ZNSt7__cxx1112basic_stringIcSt11char_traitsIcESaIcEEaSERKS4_(ptr noundef nonnull align 8 dereferenceable(32), ptr noundef nonnull align 8 dereferenceable(32)) #4

; Function Attrs: mustprogress nounwind uwtable
define linkonce_odr noundef nonnull align 8 dereferenceable(8) ptr @_ZN9__gnu_cxx17__normal_iteratorIPNSt7__cxx1112basic_stringIcSt11char_traitsIcESaIcEEESt6vectorIS6_SaIS6_EEEppEv(ptr noundef nonnull align 8 dereferenceable(8) %this) #5 comdat align 2 {
entry:
  %this.addr = alloca ptr, align 8
  store ptr %this, ptr %this.addr, align 8
  %this1 = load ptr, ptr %this.addr, align 8
  %_M_current = getelementptr inbounds %"class.__gnu_cxx::__normal_iterator", ptr %this1, i32 0, i32 0
  %0 = load ptr, ptr %_M_current, align 8
  %incdec.ptr = getelementptr inbounds %"class.std::__cxx11::basic_string", ptr %0, i32 1
  store ptr %incdec.ptr, ptr %_M_current, align 8
  ret ptr %this1
}

; Function Attrs: nounwind
declare noundef i64 @_ZNKSt7__cxx1112basic_stringIcSt11char_traitsIcESaIcEE4sizeEv(ptr noundef nonnull align 8 dereferenceable(32)) #1

; Function Attrs: mustprogress nounwind uwtable
define linkonce_odr void @_ZNSt6vectorINSt7__cxx1112basic_stringIcSt11char_traitsIcESaIcEEESaIS5_EED2Ev(ptr noundef nonnull align 8 dereferenceable(24) %this) unnamed_addr #5 comdat align 2 personality ptr @__gxx_personality_v0 {
entry:
  %this.addr = alloca ptr, align 8
  store ptr %this, ptr %this.addr, align 8
  %this1 = load ptr, ptr %this.addr, align 8
  %_M_impl = getelementptr inbounds %"struct.std::_Vector_base.37", ptr %this1, i32 0, i32 0
  %_M_start = getelementptr inbounds %"struct.std::_Vector_base<std::__cxx11::basic_string<char>, std::allocator<std::__cxx11::basic_string<char>>>::_Vector_impl_data", ptr %_M_impl, i32 0, i32 0
  %0 = load ptr, ptr %_M_start, align 8
  %_M_impl2 = getelementptr inbounds %"struct.std::_Vector_base.37", ptr %this1, i32 0, i32 0
  %_M_finish = getelementptr inbounds %"struct.std::_Vector_base<std::__cxx11::basic_string<char>, std::allocator<std::__cxx11::basic_string<char>>>::_Vector_impl_data", ptr %_M_impl2, i32 0, i32 1
  %1 = load ptr, ptr %_M_finish, align 8
  %call = call noundef nonnull align 1 dereferenceable(1) ptr @_ZNSt12_Vector_baseINSt7__cxx1112basic_stringIcSt11char_traitsIcESaIcEEESaIS5_EE19_M_get_Tp_allocatorEv(ptr noundef nonnull align 8 dereferenceable(24) %this1) #3
  invoke void @_ZSt8_DestroyIPNSt7__cxx1112basic_stringIcSt11char_traitsIcESaIcEEES5_EvT_S7_RSaIT0_E(ptr noundef %0, ptr noundef %1, ptr noundef nonnull align 1 dereferenceable(1) %call)
          to label %invoke.cont unwind label %terminate.lpad

invoke.cont:                                      ; preds = %entry
  call void @_ZNSt12_Vector_baseINSt7__cxx1112basic_stringIcSt11char_traitsIcESaIcEEESaIS5_EED2Ev(ptr noundef nonnull align 8 dereferenceable(24) %this1) #3
  ret void

terminate.lpad:                                   ; preds = %entry
  %2 = landingpad { ptr, i32 }
          catch ptr null
  %3 = extractvalue { ptr, i32 } %2, 0
  call void @__clang_call_terminate(ptr %3) #15
  unreachable
}

; Function Attrs: mustprogress uwtable
define void @_ZN7rocksdb17LoadLatestOptionsERKNS_13ConfigOptionsERKNSt7__cxx1112basic_stringIcSt11char_traitsIcESaIcEEEPNS_9DBOptionsEPSt6vectorINS_22ColumnFamilyDescriptorESaISE_EEPSt10shared_ptrINS_5CacheEE(ptr noalias sret(%"class.rocksdb::Status") align 8 %agg.result, ptr noundef nonnull align 8 dereferenceable(80) %config_options, ptr noundef nonnull align 8 dereferenceable(32) %dbpath, ptr noundef %db_options, ptr noundef %cf_descs, ptr noundef %cache) #2 personality ptr @__gxx_personality_v0 {
entry:
  %result.ptr = alloca ptr, align 8
  %config_options.addr = alloca ptr, align 8
  %dbpath.addr = alloca ptr, align 8
  %db_options.addr = alloca ptr, align 8
  %cf_descs.addr = alloca ptr, align 8
  %cache.addr = alloca ptr, align 8
  %options_file_name = alloca %"class.std::__cxx11::basic_string", align 8
  %s = alloca %"class.rocksdb::Status", align 8
  %exn.slot = alloca ptr, align 8
  %ehselector.slot = alloca i32, align 4
  %cleanup.dest.slot = alloca i32, align 4
  %ref.tmp = alloca %"class.std::__cxx11::basic_string", align 8
  %ref.tmp3 = alloca %"class.std::__cxx11::basic_string", align 8
  store ptr %agg.result, ptr %result.ptr, align 8
  store ptr %config_options, ptr %config_options.addr, align 8
  store ptr %dbpath, ptr %dbpath.addr, align 8
  store ptr %db_options, ptr %db_options.addr, align 8
  store ptr %cf_descs, ptr %cf_descs.addr, align 8
  store ptr %cache, ptr %cache.addr, align 8
  call void @_ZNSt7__cxx1112basic_stringIcSt11char_traitsIcESaIcEEC1Ev(ptr noundef nonnull align 8 dereferenceable(32) %options_file_name) #3
  %0 = load ptr, ptr %dbpath.addr, align 8
  %1 = load ptr, ptr %config_options.addr, align 8
  %env = getelementptr inbounds %"struct.rocksdb::ConfigOptions", ptr %1, i32 0, i32 9
  %2 = load ptr, ptr %env, align 8
  invoke void @_ZN7rocksdb24GetLatestOptionsFileNameERKNSt7__cxx1112basic_stringIcSt11char_traitsIcESaIcEEEPNS_3EnvEPS5_(ptr sret(%"class.rocksdb::Status") align 8 %s, ptr noundef nonnull align 8 dereferenceable(32) %0, ptr noundef %2, ptr noundef %options_file_name)
          to label %invoke.cont unwind label %lpad

invoke.cont:                                      ; preds = %entry
  %call = invoke noundef zeroext i1 @_ZNK7rocksdb6Status2okEv(ptr noundef nonnull align 8 dereferenceable(16) %s)
          to label %invoke.cont2 unwind label %lpad1

invoke.cont2:                                     ; preds = %invoke.cont
  br i1 %call, label %if.end, label %if.then

if.then:                                          ; preds = %invoke.cont2
  call void @_ZN7rocksdb6StatusC2EOS0_(ptr noundef nonnull align 8 dereferenceable(16) %agg.result, ptr noundef nonnull align 8 dereferenceable(16) %s) #3
  store i32 1, ptr %cleanup.dest.slot, align 4
  br label %cleanup

lpad:                                             ; preds = %entry
  %3 = landingpad { ptr, i32 }
          cleanup
  %4 = extractvalue { ptr, i32 } %3, 0
  store ptr %4, ptr %exn.slot, align 8
  %5 = extractvalue { ptr, i32 } %3, 1
  store i32 %5, ptr %ehselector.slot, align 4
  br label %ehcleanup11

lpad1:                                            ; preds = %if.end, %invoke.cont
  %6 = landingpad { ptr, i32 }
          cleanup
  %7 = extractvalue { ptr, i32 } %6, 0
  store ptr %7, ptr %exn.slot, align 8
  %8 = extractvalue { ptr, i32 } %6, 1
  store i32 %8, ptr %ehselector.slot, align 4
  br label %ehcleanup9

if.end:                                           ; preds = %invoke.cont2
  %9 = load ptr, ptr %config_options.addr, align 8
  %10 = load ptr, ptr %dbpath.addr, align 8
  invoke void @_ZStplIcSt11char_traitsIcESaIcEENSt7__cxx1112basic_stringIT_T0_T1_EERKS8_PKS5_(ptr sret(%"class.std::__cxx11::basic_string") align 8 %ref.tmp3, ptr noundef nonnull align 8 dereferenceable(32) %10, ptr noundef @.str.6)
          to label %invoke.cont4 unwind label %lpad1

invoke.cont4:                                     ; preds = %if.end
  invoke void @_ZStplIcSt11char_traitsIcESaIcEENSt7__cxx1112basic_stringIT_T0_T1_EEOS8_RKS8_(ptr sret(%"class.std::__cxx11::basic_string") align 8 %ref.tmp, ptr noundef nonnull align 8 dereferenceable(32) %ref.tmp3, ptr noundef nonnull align 8 dereferenceable(32) %options_file_name)
          to label %invoke.cont6 unwind label %lpad5

invoke.cont6:                                     ; preds = %invoke.cont4
  %11 = load ptr, ptr %db_options.addr, align 8
  %12 = load ptr, ptr %cf_descs.addr, align 8
  %13 = load ptr, ptr %cache.addr, align 8
  invoke void @_ZN7rocksdb19LoadOptionsFromFileERKNS_13ConfigOptionsERKNSt7__cxx1112basic_stringIcSt11char_traitsIcESaIcEEEPNS_9DBOptionsEPSt6vectorINS_22ColumnFamilyDescriptorESaISE_EEPSt10shared_ptrINS_5CacheEE(ptr sret(%"class.rocksdb::Status") align 8 %agg.result, ptr noundef nonnull align 8 dereferenceable(80) %9, ptr noundef nonnull align 8 dereferenceable(32) %ref.tmp, ptr noundef %11, ptr noundef %12, ptr noundef %13)
          to label %invoke.cont8 unwind label %lpad7

invoke.cont8:                                     ; preds = %invoke.cont6
  call void @_ZNSt7__cxx1112basic_stringIcSt11char_traitsIcESaIcEED1Ev(ptr noundef nonnull align 8 dereferenceable(32) %ref.tmp) #3
  call void @_ZNSt7__cxx1112basic_stringIcSt11char_traitsIcESaIcEED1Ev(ptr noundef nonnull align 8 dereferenceable(32) %ref.tmp3) #3
  store i32 1, ptr %cleanup.dest.slot, align 4
  br label %cleanup

lpad5:                                            ; preds = %invoke.cont4
  %14 = landingpad { ptr, i32 }
          cleanup
  %15 = extractvalue { ptr, i32 } %14, 0
  store ptr %15, ptr %exn.slot, align 8
  %16 = extractvalue { ptr, i32 } %14, 1
  store i32 %16, ptr %ehselector.slot, align 4
  br label %ehcleanup

lpad7:                                            ; preds = %invoke.cont6
  %17 = landingpad { ptr, i32 }
          cleanup
  %18 = extractvalue { ptr, i32 } %17, 0
  store ptr %18, ptr %exn.slot, align 8
  %19 = extractvalue { ptr, i32 } %17, 1
  store i32 %19, ptr %ehselector.slot, align 4
  call void @_ZNSt7__cxx1112basic_stringIcSt11char_traitsIcESaIcEED1Ev(ptr noundef nonnull align 8 dereferenceable(32) %ref.tmp) #3
  br label %ehcleanup

ehcleanup:                                        ; preds = %lpad7, %lpad5
  call void @_ZNSt7__cxx1112basic_stringIcSt11char_traitsIcESaIcEED1Ev(ptr noundef nonnull align 8 dereferenceable(32) %ref.tmp3) #3
  br label %ehcleanup9

cleanup:                                          ; preds = %invoke.cont8, %if.then
  call void @_ZN7rocksdb6StatusD2Ev(ptr noundef nonnull align 8 dereferenceable(16) %s) #3
  call void @_ZNSt7__cxx1112basic_stringIcSt11char_traitsIcESaIcEED1Ev(ptr noundef nonnull align 8 dereferenceable(32) %options_file_name) #3
  ret void

ehcleanup9:                                       ; preds = %ehcleanup, %lpad1
  call void @_ZN7rocksdb6StatusD2Ev(ptr noundef nonnull align 8 dereferenceable(16) %s) #3
  br label %ehcleanup11

ehcleanup11:                                      ; preds = %ehcleanup9, %lpad
  call void @_ZNSt7__cxx1112basic_stringIcSt11char_traitsIcESaIcEED1Ev(ptr noundef nonnull align 8 dereferenceable(32) %options_file_name) #3
  br label %eh.resume

eh.resume:                                        ; preds = %ehcleanup11
  %exn = load ptr, ptr %exn.slot, align 8
  %sel = load i32, ptr %ehselector.slot, align 4
  %lpad.val = insertvalue { ptr, i32 } poison, ptr %exn, 0
  %lpad.val12 = insertvalue { ptr, i32 } %lpad.val, i32 %sel, 1
  resume { ptr, i32 } %lpad.val12
}

; Function Attrs: mustprogress uwtable
define linkonce_odr void @_ZStplIcSt11char_traitsIcESaIcEENSt7__cxx1112basic_stringIT_T0_T1_EEOS8_RKS8_(ptr noalias sret(%"class.std::__cxx11::basic_string") align 8 %agg.result, ptr noundef nonnull align 8 dereferenceable(32) %__lhs, ptr noundef nonnull align 8 dereferenceable(32) %__rhs) #2 comdat {
entry:
  %result.ptr = alloca ptr, align 8
  %__lhs.addr = alloca ptr, align 8
  %__rhs.addr = alloca ptr, align 8
  store ptr %agg.result, ptr %result.ptr, align 8
  store ptr %__lhs, ptr %__lhs.addr, align 8
  store ptr %__rhs, ptr %__rhs.addr, align 8
  %0 = load ptr, ptr %__lhs.addr, align 8
  %1 = load ptr, ptr %__rhs.addr, align 8
  %call = call noundef nonnull align 8 dereferenceable(32) ptr @_ZNSt7__cxx1112basic_stringIcSt11char_traitsIcESaIcEE6appendERKS4_(ptr noundef nonnull align 8 dereferenceable(32) %0, ptr noundef nonnull align 8 dereferenceable(32) %1)
  call void @_ZNSt7__cxx1112basic_stringIcSt11char_traitsIcESaIcEEC1EOS4_(ptr noundef nonnull align 8 dereferenceable(32) %agg.result, ptr noundef nonnull align 8 dereferenceable(32) %call) #3
  ret void
}

; Function Attrs: mustprogress uwtable
define linkonce_odr void @_ZStplIcSt11char_traitsIcESaIcEENSt7__cxx1112basic_stringIT_T0_T1_EERKS8_PKS5_(ptr noalias sret(%"class.std::__cxx11::basic_string") align 8 %agg.result, ptr noundef nonnull align 8 dereferenceable(32) %__lhs, ptr noundef %__rhs) #2 comdat personality ptr @__gxx_personality_v0 {
entry:
  %result.ptr = alloca ptr, align 8
  %__lhs.addr = alloca ptr, align 8
  %__rhs.addr = alloca ptr, align 8
  %nrvo = alloca i1, align 1
  %exn.slot = alloca ptr, align 8
  %ehselector.slot = alloca i32, align 4
  store ptr %agg.result, ptr %result.ptr, align 8
  store ptr %__lhs, ptr %__lhs.addr, align 8
  store ptr %__rhs, ptr %__rhs.addr, align 8
  store i1 false, ptr %nrvo, align 1
  %0 = load ptr, ptr %__lhs.addr, align 8
  call void @_ZNSt7__cxx1112basic_stringIcSt11char_traitsIcESaIcEEC1ERKS4_(ptr noundef nonnull align 8 dereferenceable(32) %agg.result, ptr noundef nonnull align 8 dereferenceable(32) %0)
  %1 = load ptr, ptr %__rhs.addr, align 8
  %call = invoke noundef nonnull align 8 dereferenceable(32) ptr @_ZNSt7__cxx1112basic_stringIcSt11char_traitsIcESaIcEE6appendEPKc(ptr noundef nonnull align 8 dereferenceable(32) %agg.result, ptr noundef %1)
          to label %invoke.cont unwind label %lpad

invoke.cont:                                      ; preds = %entry
  store i1 true, ptr %nrvo, align 1
  %nrvo.val = load i1, ptr %nrvo, align 1
  br i1 %nrvo.val, label %nrvo.skipdtor, label %nrvo.unused

lpad:                                             ; preds = %entry
  %2 = landingpad { ptr, i32 }
          cleanup
  %3 = extractvalue { ptr, i32 } %2, 0
  store ptr %3, ptr %exn.slot, align 8
  %4 = extractvalue { ptr, i32 } %2, 1
  store i32 %4, ptr %ehselector.slot, align 4
  call void @_ZNSt7__cxx1112basic_stringIcSt11char_traitsIcESaIcEED1Ev(ptr noundef nonnull align 8 dereferenceable(32) %agg.result) #3
  br label %eh.resume

nrvo.unused:                                      ; preds = %invoke.cont
  call void @_ZNSt7__cxx1112basic_stringIcSt11char_traitsIcESaIcEED1Ev(ptr noundef nonnull align 8 dereferenceable(32) %agg.result) #3
  br label %nrvo.skipdtor

nrvo.skipdtor:                                    ; preds = %nrvo.unused, %invoke.cont
  ret void

eh.resume:                                        ; preds = %lpad
  %exn = load ptr, ptr %exn.slot, align 8
  %sel = load i32, ptr %ehselector.slot, align 4
  %lpad.val = insertvalue { ptr, i32 } poison, ptr %exn, 0
  %lpad.val1 = insertvalue { ptr, i32 } %lpad.val, i32 %sel, 1
  resume { ptr, i32 } %lpad.val1
}

; Function Attrs: mustprogress uwtable
define void @_ZN7rocksdb25CheckOptionsCompatibilityERKNS_13ConfigOptionsERKNSt7__cxx1112basic_stringIcSt11char_traitsIcESaIcEEERKNS_9DBOptionsERKSt6vectorINS_22ColumnFamilyDescriptorESaISF_EE(ptr noalias sret(%"class.rocksdb::Status") align 8 %agg.result, ptr noundef nonnull align 8 dereferenceable(80) %config_options, ptr noundef nonnull align 8 dereferenceable(32) %dbpath, ptr noundef nonnull align 8 dereferenceable(688) %db_options, ptr noundef nonnull align 8 dereferenceable(24) %cf_descs) #2 personality ptr @__gxx_personality_v0 {
entry:
  %result.ptr = alloca ptr, align 8
  %config_options.addr = alloca ptr, align 8
  %dbpath.addr = alloca ptr, align 8
  %db_options.addr = alloca ptr, align 8
  %cf_descs.addr = alloca ptr, align 8
  %options_file_name = alloca %"class.std::__cxx11::basic_string", align 8
  %s = alloca %"class.rocksdb::Status", align 8
  %exn.slot = alloca ptr, align 8
  %ehselector.slot = alloca i32, align 4
  %cleanup.dest.slot = alloca i32, align 4
  %cf_names = alloca %"class.std::vector.36", align 8
  %cf_opts = alloca %"class.std::vector.41", align 8
  %__range1 = alloca ptr, align 8
  %__begin1 = alloca %"class.__gnu_cxx::__normal_iterator.124", align 8
  %__end1 = alloca %"class.__gnu_cxx::__normal_iterator.124", align 8
  %cf_desc = alloca ptr, align 8
  %fs = alloca ptr, align 8
  %ref.tmp = alloca %"class.std::__cxx11::basic_string", align 8
  %ref.tmp15 = alloca %"class.std::__cxx11::basic_string", align 8
  store ptr %agg.result, ptr %result.ptr, align 8
  store ptr %config_options, ptr %config_options.addr, align 8
  store ptr %dbpath, ptr %dbpath.addr, align 8
  store ptr %db_options, ptr %db_options.addr, align 8
  store ptr %cf_descs, ptr %cf_descs.addr, align 8
  call void @_ZNSt7__cxx1112basic_stringIcSt11char_traitsIcESaIcEEC1Ev(ptr noundef nonnull align 8 dereferenceable(32) %options_file_name) #3
  %0 = load ptr, ptr %dbpath.addr, align 8
  %1 = load ptr, ptr %config_options.addr, align 8
  %env = getelementptr inbounds %"struct.rocksdb::ConfigOptions", ptr %1, i32 0, i32 9
  %2 = load ptr, ptr %env, align 8
  invoke void @_ZN7rocksdb24GetLatestOptionsFileNameERKNSt7__cxx1112basic_stringIcSt11char_traitsIcESaIcEEEPNS_3EnvEPS5_(ptr sret(%"class.rocksdb::Status") align 8 %s, ptr noundef nonnull align 8 dereferenceable(32) %0, ptr noundef %2, ptr noundef %options_file_name)
          to label %invoke.cont unwind label %lpad

invoke.cont:                                      ; preds = %entry
  %call = invoke noundef zeroext i1 @_ZNK7rocksdb6Status2okEv(ptr noundef nonnull align 8 dereferenceable(16) %s)
          to label %invoke.cont2 unwind label %lpad1

invoke.cont2:                                     ; preds = %invoke.cont
  br i1 %call, label %if.end, label %if.then

if.then:                                          ; preds = %invoke.cont2
  call void @_ZN7rocksdb6StatusC2EOS0_(ptr noundef nonnull align 8 dereferenceable(16) %agg.result, ptr noundef nonnull align 8 dereferenceable(16) %s) #3
  store i32 1, ptr %cleanup.dest.slot, align 4
  br label %cleanup

lpad:                                             ; preds = %entry
  %3 = landingpad { ptr, i32 }
          cleanup
  %4 = extractvalue { ptr, i32 } %3, 0
  store ptr %4, ptr %exn.slot, align 8
  %5 = extractvalue { ptr, i32 } %3, 1
  store i32 %5, ptr %ehselector.slot, align 4
  br label %ehcleanup26

lpad1:                                            ; preds = %invoke.cont
  %6 = landingpad { ptr, i32 }
          cleanup
  %7 = extractvalue { ptr, i32 } %6, 0
  store ptr %7, ptr %exn.slot, align 8
  %8 = extractvalue { ptr, i32 } %6, 1
  store i32 %8, ptr %ehselector.slot, align 4
  br label %ehcleanup24

if.end:                                           ; preds = %invoke.cont2
  call void @_ZNSt6vectorINSt7__cxx1112basic_stringIcSt11char_traitsIcESaIcEEESaIS5_EEC2Ev(ptr noundef nonnull align 8 dereferenceable(24) %cf_names) #3
  call void @_ZNSt6vectorIN7rocksdb19ColumnFamilyOptionsESaIS1_EEC2Ev(ptr noundef nonnull align 8 dereferenceable(24) %cf_opts) #3
  %9 = load ptr, ptr %cf_descs.addr, align 8
  store ptr %9, ptr %__range1, align 8
  %10 = load ptr, ptr %__range1, align 8
  %call3 = call ptr @_ZNKSt6vectorIN7rocksdb22ColumnFamilyDescriptorESaIS1_EE5beginEv(ptr noundef nonnull align 8 dereferenceable(24) %10) #3
  %coerce.dive = getelementptr inbounds %"class.__gnu_cxx::__normal_iterator.124", ptr %__begin1, i32 0, i32 0
  store ptr %call3, ptr %coerce.dive, align 8
  %11 = load ptr, ptr %__range1, align 8
  %call4 = call ptr @_ZNKSt6vectorIN7rocksdb22ColumnFamilyDescriptorESaIS1_EE3endEv(ptr noundef nonnull align 8 dereferenceable(24) %11) #3
  %coerce.dive5 = getelementptr inbounds %"class.__gnu_cxx::__normal_iterator.124", ptr %__end1, i32 0, i32 0
  store ptr %call4, ptr %coerce.dive5, align 8
  br label %for.cond

for.cond:                                         ; preds = %for.inc, %if.end
  %call6 = call noundef zeroext i1 @_ZN9__gnu_cxxneIPKN7rocksdb22ColumnFamilyDescriptorESt6vectorIS2_SaIS2_EEEEbRKNS_17__normal_iteratorIT_T0_EESD_(ptr noundef nonnull align 8 dereferenceable(8) %__begin1, ptr noundef nonnull align 8 dereferenceable(8) %__end1) #3
  br i1 %call6, label %for.body, label %for.end

for.body:                                         ; preds = %for.cond
  %call7 = call noundef nonnull align 8 dereferenceable(856) ptr @_ZNK9__gnu_cxx17__normal_iteratorIPKN7rocksdb22ColumnFamilyDescriptorESt6vectorIS2_SaIS2_EEEdeEv(ptr noundef nonnull align 8 dereferenceable(8) %__begin1) #3
  store ptr %call7, ptr %cf_desc, align 8
  %12 = load ptr, ptr %cf_desc, align 8
  %name = getelementptr inbounds %"struct.rocksdb::ColumnFamilyDescriptor", ptr %12, i32 0, i32 0
  invoke void @_ZNSt6vectorINSt7__cxx1112basic_stringIcSt11char_traitsIcESaIcEEESaIS5_EE9push_backERKS5_(ptr noundef nonnull align 8 dereferenceable(24) %cf_names, ptr noundef nonnull align 8 dereferenceable(32) %name)
          to label %invoke.cont9 unwind label %lpad8

invoke.cont9:                                     ; preds = %for.body
  %13 = load ptr, ptr %cf_desc, align 8
  %options = getelementptr inbounds %"struct.rocksdb::ColumnFamilyDescriptor", ptr %13, i32 0, i32 1
  invoke void @_ZNSt6vectorIN7rocksdb19ColumnFamilyOptionsESaIS1_EE9push_backERKS1_(ptr noundef nonnull align 8 dereferenceable(24) %cf_opts, ptr noundef nonnull align 8 dereferenceable(820) %options)
          to label %invoke.cont10 unwind label %lpad8

invoke.cont10:                                    ; preds = %invoke.cont9
  br label %for.inc

for.inc:                                          ; preds = %invoke.cont10
  %call11 = call noundef nonnull align 8 dereferenceable(8) ptr @_ZN9__gnu_cxx17__normal_iteratorIPKN7rocksdb22ColumnFamilyDescriptorESt6vectorIS2_SaIS2_EEEppEv(ptr noundef nonnull align 8 dereferenceable(8) %__begin1) #3
  br label %for.cond

lpad8:                                            ; preds = %invoke.cont13, %for.end, %invoke.cont9, %for.body
  %14 = landingpad { ptr, i32 }
          cleanup
  %15 = extractvalue { ptr, i32 } %14, 0
  store ptr %15, ptr %exn.slot, align 8
  %16 = extractvalue { ptr, i32 } %14, 1
  store i32 %16, ptr %ehselector.slot, align 4
  br label %ehcleanup22

for.end:                                          ; preds = %for.cond
  %17 = load ptr, ptr %config_options.addr, align 8
  %env12 = getelementptr inbounds %"struct.rocksdb::ConfigOptions", ptr %17, i32 0, i32 9
  %18 = load ptr, ptr %env12, align 8
  %call14 = invoke noundef nonnull align 8 dereferenceable(16) ptr @_ZNK7rocksdb3Env13GetFileSystemEv(ptr noundef nonnull align 8 dereferenceable(72) %18)
          to label %invoke.cont13 unwind label %lpad8

invoke.cont13:                                    ; preds = %for.end
  store ptr %call14, ptr %fs, align 8
  %19 = load ptr, ptr %config_options.addr, align 8
  %20 = load ptr, ptr %db_options.addr, align 8
  %21 = load ptr, ptr %dbpath.addr, align 8
  invoke void @_ZStplIcSt11char_traitsIcESaIcEENSt7__cxx1112basic_stringIT_T0_T1_EERKS8_PKS5_(ptr sret(%"class.std::__cxx11::basic_string") align 8 %ref.tmp15, ptr noundef nonnull align 8 dereferenceable(32) %21, ptr noundef @.str.6)
          to label %invoke.cont16 unwind label %lpad8

invoke.cont16:                                    ; preds = %invoke.cont13
  invoke void @_ZStplIcSt11char_traitsIcESaIcEENSt7__cxx1112basic_stringIT_T0_T1_EEOS8_RKS8_(ptr sret(%"class.std::__cxx11::basic_string") align 8 %ref.tmp, ptr noundef nonnull align 8 dereferenceable(32) %ref.tmp15, ptr noundef nonnull align 8 dereferenceable(32) %options_file_name)
          to label %invoke.cont18 unwind label %lpad17

invoke.cont18:                                    ; preds = %invoke.cont16
  %22 = load ptr, ptr %fs, align 8
  %call19 = call noundef ptr @_ZNKSt12__shared_ptrIN7rocksdb10FileSystemELN9__gnu_cxx12_Lock_policyE2EE3getEv(ptr noundef nonnull align 8 dereferenceable(16) %22) #3
  invoke void @_ZN7rocksdb20RocksDBOptionsParser28VerifyRocksDBOptionsFromFileERKNS_13ConfigOptionsERKNS_9DBOptionsERKSt6vectorINSt7__cxx1112basic_stringIcSt11char_traitsIcESaIcEEESaISD_EERKS7_INS_19ColumnFamilyOptionsESaISI_EERKSD_PNS_10FileSystemE(ptr sret(%"class.rocksdb::Status") align 8 %agg.result, ptr noundef nonnull align 8 dereferenceable(80) %19, ptr noundef nonnull align 8 dereferenceable(688) %20, ptr noundef nonnull align 8 dereferenceable(24) %cf_names, ptr noundef nonnull align 8 dereferenceable(24) %cf_opts, ptr noundef nonnull align 8 dereferenceable(32) %ref.tmp, ptr noundef %call19)
          to label %invoke.cont21 unwind label %lpad20

invoke.cont21:                                    ; preds = %invoke.cont18
  call void @_ZNSt7__cxx1112basic_stringIcSt11char_traitsIcESaIcEED1Ev(ptr noundef nonnull align 8 dereferenceable(32) %ref.tmp) #3
  call void @_ZNSt7__cxx1112basic_stringIcSt11char_traitsIcESaIcEED1Ev(ptr noundef nonnull align 8 dereferenceable(32) %ref.tmp15) #3
  store i32 1, ptr %cleanup.dest.slot, align 4
  call void @_ZNSt6vectorIN7rocksdb19ColumnFamilyOptionsESaIS1_EED2Ev(ptr noundef nonnull align 8 dereferenceable(24) %cf_opts) #3
  call void @_ZNSt6vectorINSt7__cxx1112basic_stringIcSt11char_traitsIcESaIcEEESaIS5_EED2Ev(ptr noundef nonnull align 8 dereferenceable(24) %cf_names) #3
  br label %cleanup

lpad17:                                           ; preds = %invoke.cont16
  %23 = landingpad { ptr, i32 }
          cleanup
  %24 = extractvalue { ptr, i32 } %23, 0
  store ptr %24, ptr %exn.slot, align 8
  %25 = extractvalue { ptr, i32 } %23, 1
  store i32 %25, ptr %ehselector.slot, align 4
  br label %ehcleanup

lpad20:                                           ; preds = %invoke.cont18
  %26 = landingpad { ptr, i32 }
          cleanup
  %27 = extractvalue { ptr, i32 } %26, 0
  store ptr %27, ptr %exn.slot, align 8
  %28 = extractvalue { ptr, i32 } %26, 1
  store i32 %28, ptr %ehselector.slot, align 4
  call void @_ZNSt7__cxx1112basic_stringIcSt11char_traitsIcESaIcEED1Ev(ptr noundef nonnull align 8 dereferenceable(32) %ref.tmp) #3
  br label %ehcleanup

ehcleanup:                                        ; preds = %lpad20, %lpad17
  call void @_ZNSt7__cxx1112basic_stringIcSt11char_traitsIcESaIcEED1Ev(ptr noundef nonnull align 8 dereferenceable(32) %ref.tmp15) #3
  br label %ehcleanup22

ehcleanup22:                                      ; preds = %ehcleanup, %lpad8
  call void @_ZNSt6vectorIN7rocksdb19ColumnFamilyOptionsESaIS1_EED2Ev(ptr noundef nonnull align 8 dereferenceable(24) %cf_opts) #3
  call void @_ZNSt6vectorINSt7__cxx1112basic_stringIcSt11char_traitsIcESaIcEEESaIS5_EED2Ev(ptr noundef nonnull align 8 dereferenceable(24) %cf_names) #3
  br label %ehcleanup24

cleanup:                                          ; preds = %invoke.cont21, %if.then
  call void @_ZN7rocksdb6StatusD2Ev(ptr noundef nonnull align 8 dereferenceable(16) %s) #3
  call void @_ZNSt7__cxx1112basic_stringIcSt11char_traitsIcESaIcEED1Ev(ptr noundef nonnull align 8 dereferenceable(32) %options_file_name) #3
  ret void

ehcleanup24:                                      ; preds = %ehcleanup22, %lpad1
  call void @_ZN7rocksdb6StatusD2Ev(ptr noundef nonnull align 8 dereferenceable(16) %s) #3
  br label %ehcleanup26

ehcleanup26:                                      ; preds = %ehcleanup24, %lpad
  call void @_ZNSt7__cxx1112basic_stringIcSt11char_traitsIcESaIcEED1Ev(ptr noundef nonnull align 8 dereferenceable(32) %options_file_name) #3
  br label %eh.resume

eh.resume:                                        ; preds = %ehcleanup26
  %exn = load ptr, ptr %exn.slot, align 8
  %sel = load i32, ptr %ehselector.slot, align 4
  %lpad.val = insertvalue { ptr, i32 } poison, ptr %exn, 0
  %lpad.val27 = insertvalue { ptr, i32 } %lpad.val, i32 %sel, 1
  resume { ptr, i32 } %lpad.val27
}

; Function Attrs: mustprogress nounwind uwtable
define linkonce_odr void @_ZNSt6vectorIN7rocksdb19ColumnFamilyOptionsESaIS1_EEC2Ev(ptr noundef nonnull align 8 dereferenceable(24) %this) unnamed_addr #5 comdat align 2 {
entry:
  %this.addr = alloca ptr, align 8
  store ptr %this, ptr %this.addr, align 8
  %this1 = load ptr, ptr %this.addr, align 8
  call void @_ZNSt12_Vector_baseIN7rocksdb19ColumnFamilyOptionsESaIS1_EEC2Ev(ptr noundef nonnull align 8 dereferenceable(24) %this1) #3
  ret void
}

; Function Attrs: mustprogress nounwind uwtable
define linkonce_odr ptr @_ZNKSt6vectorIN7rocksdb22ColumnFamilyDescriptorESaIS1_EE5beginEv(ptr noundef nonnull align 8 dereferenceable(24) %this) #5 comdat align 2 {
entry:
  %retval = alloca %"class.__gnu_cxx::__normal_iterator.124", align 8
  %this.addr = alloca ptr, align 8
  store ptr %this, ptr %this.addr, align 8
  %this1 = load ptr, ptr %this.addr, align 8
  %_M_impl = getelementptr inbounds %"struct.std::_Vector_base.66", ptr %this1, i32 0, i32 0
  %_M_start = getelementptr inbounds %"struct.std::_Vector_base<rocksdb::ColumnFamilyDescriptor, std::allocator<rocksdb::ColumnFamilyDescriptor>>::_Vector_impl_data", ptr %_M_impl, i32 0, i32 0
  call void @_ZN9__gnu_cxx17__normal_iteratorIPKN7rocksdb22ColumnFamilyDescriptorESt6vectorIS2_SaIS2_EEEC2ERKS4_(ptr noundef nonnull align 8 dereferenceable(8) %retval, ptr noundef nonnull align 8 dereferenceable(8) %_M_start) #3
  %coerce.dive = getelementptr inbounds %"class.__gnu_cxx::__normal_iterator.124", ptr %retval, i32 0, i32 0
  %0 = load ptr, ptr %coerce.dive, align 8
  ret ptr %0
}

; Function Attrs: mustprogress nounwind uwtable
define linkonce_odr ptr @_ZNKSt6vectorIN7rocksdb22ColumnFamilyDescriptorESaIS1_EE3endEv(ptr noundef nonnull align 8 dereferenceable(24) %this) #5 comdat align 2 {
entry:
  %retval = alloca %"class.__gnu_cxx::__normal_iterator.124", align 8
  %this.addr = alloca ptr, align 8
  store ptr %this, ptr %this.addr, align 8
  %this1 = load ptr, ptr %this.addr, align 8
  %_M_impl = getelementptr inbounds %"struct.std::_Vector_base.66", ptr %this1, i32 0, i32 0
  %_M_finish = getelementptr inbounds %"struct.std::_Vector_base<rocksdb::ColumnFamilyDescriptor, std::allocator<rocksdb::ColumnFamilyDescriptor>>::_Vector_impl_data", ptr %_M_impl, i32 0, i32 1
  call void @_ZN9__gnu_cxx17__normal_iteratorIPKN7rocksdb22ColumnFamilyDescriptorESt6vectorIS2_SaIS2_EEEC2ERKS4_(ptr noundef nonnull align 8 dereferenceable(8) %retval, ptr noundef nonnull align 8 dereferenceable(8) %_M_finish) #3
  %coerce.dive = getelementptr inbounds %"class.__gnu_cxx::__normal_iterator.124", ptr %retval, i32 0, i32 0
  %0 = load ptr, ptr %coerce.dive, align 8
  ret ptr %0
}

; Function Attrs: mustprogress nounwind uwtable
define linkonce_odr noundef zeroext i1 @_ZN9__gnu_cxxneIPKN7rocksdb22ColumnFamilyDescriptorESt6vectorIS2_SaIS2_EEEEbRKNS_17__normal_iteratorIT_T0_EESD_(ptr noundef nonnull align 8 dereferenceable(8) %__lhs, ptr noundef nonnull align 8 dereferenceable(8) %__rhs) #5 comdat {
entry:
  %__lhs.addr = alloca ptr, align 8
  %__rhs.addr = alloca ptr, align 8
  store ptr %__lhs, ptr %__lhs.addr, align 8
  store ptr %__rhs, ptr %__rhs.addr, align 8
  %0 = load ptr, ptr %__lhs.addr, align 8
  %call = call noundef nonnull align 8 dereferenceable(8) ptr @_ZNK9__gnu_cxx17__normal_iteratorIPKN7rocksdb22ColumnFamilyDescriptorESt6vectorIS2_SaIS2_EEE4baseEv(ptr noundef nonnull align 8 dereferenceable(8) %0) #3
  %1 = load ptr, ptr %call, align 8
  %2 = load ptr, ptr %__rhs.addr, align 8
  %call1 = call noundef nonnull align 8 dereferenceable(8) ptr @_ZNK9__gnu_cxx17__normal_iteratorIPKN7rocksdb22ColumnFamilyDescriptorESt6vectorIS2_SaIS2_EEE4baseEv(ptr noundef nonnull align 8 dereferenceable(8) %2) #3
  %3 = load ptr, ptr %call1, align 8
  %cmp = icmp ne ptr %1, %3
  ret i1 %cmp
}

; Function Attrs: mustprogress nounwind uwtable
define linkonce_odr noundef nonnull align 8 dereferenceable(856) ptr @_ZNK9__gnu_cxx17__normal_iteratorIPKN7rocksdb22ColumnFamilyDescriptorESt6vectorIS2_SaIS2_EEEdeEv(ptr noundef nonnull align 8 dereferenceable(8) %this) #5 comdat align 2 {
entry:
  %this.addr = alloca ptr, align 8
  store ptr %this, ptr %this.addr, align 8
  %this1 = load ptr, ptr %this.addr, align 8
  %_M_current = getelementptr inbounds %"class.__gnu_cxx::__normal_iterator.124", ptr %this1, i32 0, i32 0
  %0 = load ptr, ptr %_M_current, align 8
  ret ptr %0
}

; Function Attrs: mustprogress uwtable
define linkonce_odr void @_ZNSt6vectorINSt7__cxx1112basic_stringIcSt11char_traitsIcESaIcEEESaIS5_EE9push_backERKS5_(ptr noundef nonnull align 8 dereferenceable(24) %this, ptr noundef nonnull align 8 dereferenceable(32) %__x) #2 comdat align 2 {
entry:
  %this.addr = alloca ptr, align 8
  %__x.addr = alloca ptr, align 8
  %agg.tmp = alloca %"class.__gnu_cxx::__normal_iterator", align 8
  store ptr %this, ptr %this.addr, align 8
  store ptr %__x, ptr %__x.addr, align 8
  %this1 = load ptr, ptr %this.addr, align 8
  %_M_impl = getelementptr inbounds %"struct.std::_Vector_base.37", ptr %this1, i32 0, i32 0
  %_M_finish = getelementptr inbounds %"struct.std::_Vector_base<std::__cxx11::basic_string<char>, std::allocator<std::__cxx11::basic_string<char>>>::_Vector_impl_data", ptr %_M_impl, i32 0, i32 1
  %0 = load ptr, ptr %_M_finish, align 8
  %_M_impl2 = getelementptr inbounds %"struct.std::_Vector_base.37", ptr %this1, i32 0, i32 0
  %_M_end_of_storage = getelementptr inbounds %"struct.std::_Vector_base<std::__cxx11::basic_string<char>, std::allocator<std::__cxx11::basic_string<char>>>::_Vector_impl_data", ptr %_M_impl2, i32 0, i32 2
  %1 = load ptr, ptr %_M_end_of_storage, align 8
  %cmp = icmp ne ptr %0, %1
  br i1 %cmp, label %if.then, label %if.else

if.then:                                          ; preds = %entry
  %_M_impl3 = getelementptr inbounds %"struct.std::_Vector_base.37", ptr %this1, i32 0, i32 0
  %_M_impl4 = getelementptr inbounds %"struct.std::_Vector_base.37", ptr %this1, i32 0, i32 0
  %_M_finish5 = getelementptr inbounds %"struct.std::_Vector_base<std::__cxx11::basic_string<char>, std::allocator<std::__cxx11::basic_string<char>>>::_Vector_impl_data", ptr %_M_impl4, i32 0, i32 1
  %2 = load ptr, ptr %_M_finish5, align 8
  %3 = load ptr, ptr %__x.addr, align 8
  call void @_ZNSt16allocator_traitsISaINSt7__cxx1112basic_stringIcSt11char_traitsIcESaIcEEEEE9constructIS5_JRKS5_EEEvRS6_PT_DpOT0_(ptr noundef nonnull align 1 dereferenceable(1) %_M_impl3, ptr noundef %2, ptr noundef nonnull align 8 dereferenceable(32) %3)
  %_M_impl6 = getelementptr inbounds %"struct.std::_Vector_base.37", ptr %this1, i32 0, i32 0
  %_M_finish7 = getelementptr inbounds %"struct.std::_Vector_base<std::__cxx11::basic_string<char>, std::allocator<std::__cxx11::basic_string<char>>>::_Vector_impl_data", ptr %_M_impl6, i32 0, i32 1
  %4 = load ptr, ptr %_M_finish7, align 8
  %incdec.ptr = getelementptr inbounds %"class.std::__cxx11::basic_string", ptr %4, i32 1
  store ptr %incdec.ptr, ptr %_M_finish7, align 8
  br label %if.end

if.else:                                          ; preds = %entry
  %call = call ptr @_ZNSt6vectorINSt7__cxx1112basic_stringIcSt11char_traitsIcESaIcEEESaIS5_EE3endEv(ptr noundef nonnull align 8 dereferenceable(24) %this1) #3
  %coerce.dive = getelementptr inbounds %"class.__gnu_cxx::__normal_iterator", ptr %agg.tmp, i32 0, i32 0
  store ptr %call, ptr %coerce.dive, align 8
  %5 = load ptr, ptr %__x.addr, align 8
  %coerce.dive8 = getelementptr inbounds %"class.__gnu_cxx::__normal_iterator", ptr %agg.tmp, i32 0, i32 0
  %6 = load ptr, ptr %coerce.dive8, align 8
  call void @_ZNSt6vectorINSt7__cxx1112basic_stringIcSt11char_traitsIcESaIcEEESaIS5_EE17_M_realloc_insertIJRKS5_EEEvN9__gnu_cxx17__normal_iteratorIPS5_S7_EEDpOT_(ptr noundef nonnull align 8 dereferenceable(24) %this1, ptr %6, ptr noundef nonnull align 8 dereferenceable(32) %5)
  br label %if.end

if.end:                                           ; preds = %if.else, %if.then
  ret void
}

; Function Attrs: mustprogress uwtable
define linkonce_odr void @_ZNSt6vectorIN7rocksdb19ColumnFamilyOptionsESaIS1_EE9push_backERKS1_(ptr noundef nonnull align 8 dereferenceable(24) %this, ptr noundef nonnull align 8 dereferenceable(820) %__x) #2 comdat align 2 {
entry:
  %this.addr = alloca ptr, align 8
  %__x.addr = alloca ptr, align 8
  %agg.tmp = alloca %"class.__gnu_cxx::__normal_iterator.143", align 8
  store ptr %this, ptr %this.addr, align 8
  store ptr %__x, ptr %__x.addr, align 8
  %this1 = load ptr, ptr %this.addr, align 8
  %_M_impl = getelementptr inbounds %"struct.std::_Vector_base.42", ptr %this1, i32 0, i32 0
  %_M_finish = getelementptr inbounds %"struct.std::_Vector_base<rocksdb::ColumnFamilyOptions, std::allocator<rocksdb::ColumnFamilyOptions>>::_Vector_impl_data", ptr %_M_impl, i32 0, i32 1
  %0 = load ptr, ptr %_M_finish, align 8
  %_M_impl2 = getelementptr inbounds %"struct.std::_Vector_base.42", ptr %this1, i32 0, i32 0
  %_M_end_of_storage = getelementptr inbounds %"struct.std::_Vector_base<rocksdb::ColumnFamilyOptions, std::allocator<rocksdb::ColumnFamilyOptions>>::_Vector_impl_data", ptr %_M_impl2, i32 0, i32 2
  %1 = load ptr, ptr %_M_end_of_storage, align 8
  %cmp = icmp ne ptr %0, %1
  br i1 %cmp, label %if.then, label %if.else

if.then:                                          ; preds = %entry
  %_M_impl3 = getelementptr inbounds %"struct.std::_Vector_base.42", ptr %this1, i32 0, i32 0
  %_M_impl4 = getelementptr inbounds %"struct.std::_Vector_base.42", ptr %this1, i32 0, i32 0
  %_M_finish5 = getelementptr inbounds %"struct.std::_Vector_base<rocksdb::ColumnFamilyOptions, std::allocator<rocksdb::ColumnFamilyOptions>>::_Vector_impl_data", ptr %_M_impl4, i32 0, i32 1
  %2 = load ptr, ptr %_M_finish5, align 8
  %3 = load ptr, ptr %__x.addr, align 8
  call void @_ZNSt16allocator_traitsISaIN7rocksdb19ColumnFamilyOptionsEEE9constructIS1_JRKS1_EEEvRS2_PT_DpOT0_(ptr noundef nonnull align 1 dereferenceable(1) %_M_impl3, ptr noundef %2, ptr noundef nonnull align 8 dereferenceable(820) %3)
  %_M_impl6 = getelementptr inbounds %"struct.std::_Vector_base.42", ptr %this1, i32 0, i32 0
  %_M_finish7 = getelementptr inbounds %"struct.std::_Vector_base<rocksdb::ColumnFamilyOptions, std::allocator<rocksdb::ColumnFamilyOptions>>::_Vector_impl_data", ptr %_M_impl6, i32 0, i32 1
  %4 = load ptr, ptr %_M_finish7, align 8
  %incdec.ptr = getelementptr inbounds %"struct.rocksdb::ColumnFamilyOptions", ptr %4, i32 1
  store ptr %incdec.ptr, ptr %_M_finish7, align 8
  br label %if.end

if.else:                                          ; preds = %entry
  %call = call ptr @_ZNSt6vectorIN7rocksdb19ColumnFamilyOptionsESaIS1_EE3endEv(ptr noundef nonnull align 8 dereferenceable(24) %this1) #3
  %coerce.dive = getelementptr inbounds %"class.__gnu_cxx::__normal_iterator.143", ptr %agg.tmp, i32 0, i32 0
  store ptr %call, ptr %coerce.dive, align 8
  %5 = load ptr, ptr %__x.addr, align 8
  %coerce.dive8 = getelementptr inbounds %"class.__gnu_cxx::__normal_iterator.143", ptr %agg.tmp, i32 0, i32 0
  %6 = load ptr, ptr %coerce.dive8, align 8
  call void @_ZNSt6vectorIN7rocksdb19ColumnFamilyOptionsESaIS1_EE17_M_realloc_insertIJRKS1_EEEvN9__gnu_cxx17__normal_iteratorIPS1_S3_EEDpOT_(ptr noundef nonnull align 8 dereferenceable(24) %this1, ptr %6, ptr noundef nonnull align 8 dereferenceable(820) %5)
  br label %if.end

if.end:                                           ; preds = %if.else, %if.then
  ret void
}

; Function Attrs: mustprogress nounwind uwtable
define linkonce_odr noundef nonnull align 8 dereferenceable(8) ptr @_ZN9__gnu_cxx17__normal_iteratorIPKN7rocksdb22ColumnFamilyDescriptorESt6vectorIS2_SaIS2_EEEppEv(ptr noundef nonnull align 8 dereferenceable(8) %this) #5 comdat align 2 {
entry:
  %this.addr = alloca ptr, align 8
  store ptr %this, ptr %this.addr, align 8
  %this1 = load ptr, ptr %this.addr, align 8
  %_M_current = getelementptr inbounds %"class.__gnu_cxx::__normal_iterator.124", ptr %this1, i32 0, i32 0
  %0 = load ptr, ptr %_M_current, align 8
  %incdec.ptr = getelementptr inbounds %"struct.rocksdb::ColumnFamilyDescriptor", ptr %0, i32 1
  store ptr %incdec.ptr, ptr %_M_current, align 8
  ret ptr %this1
}

declare void @_ZN7rocksdb20RocksDBOptionsParser28VerifyRocksDBOptionsFromFileERKNS_13ConfigOptionsERKNS_9DBOptionsERKSt6vectorINSt7__cxx1112basic_stringIcSt11char_traitsIcESaIcEEESaISD_EERKS7_INS_19ColumnFamilyOptionsESaISI_EERKSD_PNS_10FileSystemE(ptr sret(%"class.rocksdb::Status") align 8, ptr noundef nonnull align 8 dereferenceable(80), ptr noundef nonnull align 8 dereferenceable(688), ptr noundef nonnull align 8 dereferenceable(24), ptr noundef nonnull align 8 dereferenceable(24), ptr noundef nonnull align 8 dereferenceable(32), ptr noundef) #4

; Function Attrs: mustprogress nounwind uwtable
define linkonce_odr void @_ZNSt6vectorIN7rocksdb19ColumnFamilyOptionsESaIS1_EED2Ev(ptr noundef nonnull align 8 dereferenceable(24) %this) unnamed_addr #5 comdat align 2 personality ptr @__gxx_personality_v0 {
entry:
  %this.addr = alloca ptr, align 8
  store ptr %this, ptr %this.addr, align 8
  %this1 = load ptr, ptr %this.addr, align 8
  %_M_impl = getelementptr inbounds %"struct.std::_Vector_base.42", ptr %this1, i32 0, i32 0
  %_M_start = getelementptr inbounds %"struct.std::_Vector_base<rocksdb::ColumnFamilyOptions, std::allocator<rocksdb::ColumnFamilyOptions>>::_Vector_impl_data", ptr %_M_impl, i32 0, i32 0
  %0 = load ptr, ptr %_M_start, align 8
  %_M_impl2 = getelementptr inbounds %"struct.std::_Vector_base.42", ptr %this1, i32 0, i32 0
  %_M_finish = getelementptr inbounds %"struct.std::_Vector_base<rocksdb::ColumnFamilyOptions, std::allocator<rocksdb::ColumnFamilyOptions>>::_Vector_impl_data", ptr %_M_impl2, i32 0, i32 1
  %1 = load ptr, ptr %_M_finish, align 8
  %call = call noundef nonnull align 1 dereferenceable(1) ptr @_ZNSt12_Vector_baseIN7rocksdb19ColumnFamilyOptionsESaIS1_EE19_M_get_Tp_allocatorEv(ptr noundef nonnull align 8 dereferenceable(24) %this1) #3
  invoke void @_ZSt8_DestroyIPN7rocksdb19ColumnFamilyOptionsES1_EvT_S3_RSaIT0_E(ptr noundef %0, ptr noundef %1, ptr noundef nonnull align 1 dereferenceable(1) %call)
          to label %invoke.cont unwind label %terminate.lpad

invoke.cont:                                      ; preds = %entry
  call void @_ZNSt12_Vector_baseIN7rocksdb19ColumnFamilyOptionsESaIS1_EED2Ev(ptr noundef nonnull align 8 dereferenceable(24) %this1) #3
  ret void

terminate.lpad:                                   ; preds = %entry
  %2 = landingpad { ptr, i32 }
          catch ptr null
  %3 = extractvalue { ptr, i32 } %2, 0
  call void @__clang_call_terminate(ptr %3) #15
  unreachable
}

; Function Attrs: mustprogress nounwind uwtable
define linkonce_odr void @_ZNK7rocksdb6Status11MarkCheckedEv(ptr noundef nonnull align 8 dereferenceable(16) %this) #5 comdat align 2 {
entry:
  %this.addr = alloca ptr, align 8
  store ptr %this, ptr %this.addr, align 8
  ret void
}

; Function Attrs: mustprogress nounwind uwtable
define linkonce_odr noundef zeroext i8 @_ZNK7rocksdb6Status4codeEv(ptr noundef nonnull align 8 dereferenceable(16) %this) #5 comdat align 2 {
entry:
  %this.addr = alloca ptr, align 8
  store ptr %this, ptr %this.addr, align 8
  %this1 = load ptr, ptr %this.addr, align 8
  call void @_ZNK7rocksdb6Status11MarkCheckedEv(ptr noundef nonnull align 8 dereferenceable(16) %this1)
  %code_ = getelementptr inbounds %"class.rocksdb::Status", ptr %this1, i32 0, i32 0
  %0 = load i8, ptr %code_, align 8
  ret i8 %0
}

; Function Attrs: noreturn nounwind uwtable
define linkonce_odr hidden void @__clang_call_terminate(ptr noundef %0) #6 comdat {
  %2 = call ptr @__cxa_begin_catch(ptr %0) #3
  call void @_ZSt9terminatev() #15
  unreachable
}

declare ptr @__cxa_begin_catch(ptr)

declare void @_ZSt9terminatev()

; Function Attrs: mustprogress nounwind uwtable
define linkonce_odr void @_ZNSt10unique_ptrIA_KcSt14default_deleteIS1_EEC2IS3_vEEDn(ptr noundef nonnull align 8 dereferenceable(8) %this, ptr %0) unnamed_addr #5 comdat align 2 {
entry:
  %this.addr = alloca ptr, align 8
  %.addr = alloca ptr, align 8
  store ptr %this, ptr %this.addr, align 8
  store ptr %0, ptr %.addr, align 8
  %this1 = load ptr, ptr %this.addr, align 8
  %_M_t = getelementptr inbounds %"class.std::unique_ptr", ptr %this1, i32 0, i32 0
  call void @llvm.memset.p0.i64(ptr align 8 %_M_t, i8 0, i64 8, i1 false)
  call void @_ZNSt15__uniq_ptr_dataIKcSt14default_deleteIA_S0_ELb1ELb1EEC2Ev(ptr noundef nonnull align 8 dereferenceable(8) %_M_t) #3
  ret void
}

; Function Attrs: nocallback nofree nounwind willreturn memory(argmem: write)
declare void @llvm.memset.p0.i64(ptr nocapture writeonly, i8, i64, i1 immarg) #7

; Function Attrs: mustprogress nounwind uwtable
define linkonce_odr void @_ZNSt15__uniq_ptr_dataIKcSt14default_deleteIA_S0_ELb1ELb1EEC2Ev(ptr noundef nonnull align 8 dereferenceable(8) %this) unnamed_addr #5 comdat align 2 {
entry:
  %this.addr = alloca ptr, align 8
  store ptr %this, ptr %this.addr, align 8
  %this1 = load ptr, ptr %this.addr, align 8
  call void @_ZNSt15__uniq_ptr_implIKcSt14default_deleteIA_S0_EEC2Ev(ptr noundef nonnull align 8 dereferenceable(8) %this1) #3
  ret void
}

; Function Attrs: mustprogress nounwind uwtable
define linkonce_odr void @_ZNSt15__uniq_ptr_implIKcSt14default_deleteIA_S0_EEC2Ev(ptr noundef nonnull align 8 dereferenceable(8) %this) unnamed_addr #5 comdat align 2 {
entry:
  %this.addr = alloca ptr, align 8
  store ptr %this, ptr %this.addr, align 8
  %this1 = load ptr, ptr %this.addr, align 8
  %_M_t = getelementptr inbounds %"class.std::__uniq_ptr_impl", ptr %this1, i32 0, i32 0
  call void @_ZNSt5tupleIJPKcSt14default_deleteIA_S0_EEEC2ILb1ETnNSt9enable_ifIXclsr17_TupleConstraintsIXT_ES1_S4_EE37__is_implicitly_default_constructibleEEbE4typeELb1EEEv(ptr noundef nonnull align 8 dereferenceable(8) %_M_t) #3
  ret void
}

; Function Attrs: mustprogress nounwind uwtable
define linkonce_odr void @_ZNSt5tupleIJPKcSt14default_deleteIA_S0_EEEC2ILb1ETnNSt9enable_ifIXclsr17_TupleConstraintsIXT_ES1_S4_EE37__is_implicitly_default_constructibleEEbE4typeELb1EEEv(ptr noundef nonnull align 8 dereferenceable(8) %this) unnamed_addr #5 comdat align 2 personality ptr @__gxx_personality_v0 {
entry:
  %this.addr = alloca ptr, align 8
  store ptr %this, ptr %this.addr, align 8
  %this1 = load ptr, ptr %this.addr, align 8
  invoke void @_ZNSt11_Tuple_implILm0EJPKcSt14default_deleteIA_S0_EEEC2Ev(ptr noundef nonnull align 8 dereferenceable(8) %this1)
          to label %invoke.cont unwind label %terminate.lpad

invoke.cont:                                      ; preds = %entry
  ret void

terminate.lpad:                                   ; preds = %entry
  %0 = landingpad { ptr, i32 }
          catch ptr null
  %1 = extractvalue { ptr, i32 } %0, 0
  call void @__clang_call_terminate(ptr %1) #15
  unreachable
}

; Function Attrs: mustprogress uwtable
define linkonce_odr void @_ZNSt11_Tuple_implILm0EJPKcSt14default_deleteIA_S0_EEEC2Ev(ptr noundef nonnull align 8 dereferenceable(8) %this) unnamed_addr #2 comdat align 2 {
entry:
  %this.addr = alloca ptr, align 8
  store ptr %this, ptr %this.addr, align 8
  %this1 = load ptr, ptr %this.addr, align 8
  call void @_ZNSt11_Tuple_implILm1EJSt14default_deleteIA_KcEEEC2Ev(ptr noundef nonnull align 1 dereferenceable(1) %this1)
  call void @_ZNSt10_Head_baseILm0EPKcLb0EEC2Ev(ptr noundef nonnull align 8 dereferenceable(8) %this1)
  ret void
}

; Function Attrs: mustprogress uwtable
define linkonce_odr void @_ZNSt11_Tuple_implILm1EJSt14default_deleteIA_KcEEEC2Ev(ptr noundef nonnull align 1 dereferenceable(1) %this) unnamed_addr #2 comdat align 2 {
entry:
  %this.addr = alloca ptr, align 8
  store ptr %this, ptr %this.addr, align 8
  %this1 = load ptr, ptr %this.addr, align 8
  call void @_ZNSt10_Head_baseILm1ESt14default_deleteIA_KcELb1EEC2Ev(ptr noundef nonnull align 1 dereferenceable(1) %this1)
  ret void
}

; Function Attrs: mustprogress nounwind uwtable
define linkonce_odr void @_ZNSt10_Head_baseILm0EPKcLb0EEC2Ev(ptr noundef nonnull align 8 dereferenceable(8) %this) unnamed_addr #5 comdat align 2 {
entry:
  %this.addr = alloca ptr, align 8
  store ptr %this, ptr %this.addr, align 8
  %this1 = load ptr, ptr %this.addr, align 8
  %_M_head_impl = getelementptr inbounds %"struct.std::_Head_base.1", ptr %this1, i32 0, i32 0
  store ptr null, ptr %_M_head_impl, align 8
  ret void
}

; Function Attrs: mustprogress nounwind uwtable
define linkonce_odr void @_ZNSt10_Head_baseILm1ESt14default_deleteIA_KcELb1EEC2Ev(ptr noundef nonnull align 1 dereferenceable(1) %this) unnamed_addr #5 comdat align 2 {
entry:
  %this.addr = alloca ptr, align 8
  store ptr %this, ptr %this.addr, align 8
  ret void
}

; Function Attrs: nocallback nofree nounwind willreturn memory(argmem: readwrite)
declare void @llvm.memcpy.p0.p0.i64(ptr noalias nocapture writeonly, ptr noalias nocapture readonly, i64, i1 immarg) #8

; Function Attrs: mustprogress nounwind uwtable
define linkonce_odr noundef nonnull align 8 dereferenceable(16) ptr @_ZNSt10shared_ptrIN7rocksdb11RateLimiterEEaSERKS2_(ptr noundef nonnull align 8 dereferenceable(16) %this, ptr noundef nonnull align 8 dereferenceable(16) %0) #5 comdat align 2 {
entry:
  %this.addr = alloca ptr, align 8
  %.addr = alloca ptr, align 8
  store ptr %this, ptr %this.addr, align 8
  store ptr %0, ptr %.addr, align 8
  %this1 = load ptr, ptr %this.addr, align 8
  %1 = load ptr, ptr %.addr, align 8
  %call = call noundef nonnull align 8 dereferenceable(16) ptr @_ZNSt12__shared_ptrIN7rocksdb11RateLimiterELN9__gnu_cxx12_Lock_policyE2EEaSERKS4_(ptr noundef nonnull align 8 dereferenceable(16) %this1, ptr noundef nonnull align 8 dereferenceable(16) %1) #3
  ret ptr %this1
}

; Function Attrs: mustprogress nounwind uwtable
define linkonce_odr noundef nonnull align 8 dereferenceable(16) ptr @_ZNSt10shared_ptrIN7rocksdb14SstFileManagerEEaSERKS2_(ptr noundef nonnull align 8 dereferenceable(16) %this, ptr noundef nonnull align 8 dereferenceable(16) %0) #5 comdat align 2 {
entry:
  %this.addr = alloca ptr, align 8
  %.addr = alloca ptr, align 8
  store ptr %this, ptr %this.addr, align 8
  store ptr %0, ptr %.addr, align 8
  %this1 = load ptr, ptr %this.addr, align 8
  %1 = load ptr, ptr %.addr, align 8
  %call = call noundef nonnull align 8 dereferenceable(16) ptr @_ZNSt12__shared_ptrIN7rocksdb14SstFileManagerELN9__gnu_cxx12_Lock_policyE2EEaSERKS4_(ptr noundef nonnull align 8 dereferenceable(16) %this1, ptr noundef nonnull align 8 dereferenceable(16) %1) #3
  ret ptr %this1
}

; Function Attrs: mustprogress nounwind uwtable
define linkonce_odr noundef nonnull align 8 dereferenceable(16) ptr @_ZNSt10shared_ptrIN7rocksdb6LoggerEEaSERKS2_(ptr noundef nonnull align 8 dereferenceable(16) %this, ptr noundef nonnull align 8 dereferenceable(16) %0) #5 comdat align 2 {
entry:
  %this.addr = alloca ptr, align 8
  %.addr = alloca ptr, align 8
  store ptr %this, ptr %this.addr, align 8
  store ptr %0, ptr %.addr, align 8
  %this1 = load ptr, ptr %this.addr, align 8
  %1 = load ptr, ptr %.addr, align 8
  %call = call noundef nonnull align 8 dereferenceable(16) ptr @_ZNSt12__shared_ptrIN7rocksdb6LoggerELN9__gnu_cxx12_Lock_policyE2EEaSERKS4_(ptr noundef nonnull align 8 dereferenceable(16) %this1, ptr noundef nonnull align 8 dereferenceable(16) %1) #3
  ret ptr %this1
}

; Function Attrs: mustprogress nounwind uwtable
define linkonce_odr noundef nonnull align 8 dereferenceable(16) ptr @_ZNSt10shared_ptrIN7rocksdb10StatisticsEEaSERKS2_(ptr noundef nonnull align 8 dereferenceable(16) %this, ptr noundef nonnull align 8 dereferenceable(16) %0) #5 comdat align 2 {
entry:
  %this.addr = alloca ptr, align 8
  %.addr = alloca ptr, align 8
  store ptr %this, ptr %this.addr, align 8
  store ptr %0, ptr %.addr, align 8
  %this1 = load ptr, ptr %this.addr, align 8
  %1 = load ptr, ptr %.addr, align 8
  %call = call noundef nonnull align 8 dereferenceable(16) ptr @_ZNSt12__shared_ptrIN7rocksdb10StatisticsELN9__gnu_cxx12_Lock_policyE2EEaSERKS4_(ptr noundef nonnull align 8 dereferenceable(16) %this1, ptr noundef nonnull align 8 dereferenceable(16) %1) #3
  ret ptr %this1
}

; Function Attrs: mustprogress uwtable
define linkonce_odr noundef nonnull align 8 dereferenceable(24) ptr @_ZNSt6vectorIN7rocksdb6DbPathESaIS1_EEaSERKS3_(ptr noundef nonnull align 8 dereferenceable(24) %this, ptr noundef nonnull align 8 dereferenceable(24) %__x) #2 comdat align 2 {
entry:
  %this.addr = alloca ptr, align 8
  %__x.addr = alloca ptr, align 8
  %__xlen = alloca i64, align 8
  %__tmp = alloca ptr, align 8
  %agg.tmp = alloca %"class.__gnu_cxx::__normal_iterator.125", align 8
  %agg.tmp6 = alloca %"class.__gnu_cxx::__normal_iterator.125", align 8
  %agg.tmp28 = alloca %"class.__gnu_cxx::__normal_iterator.126", align 8
  %agg.tmp29 = alloca %"class.__gnu_cxx::__normal_iterator.125", align 8
  %agg.tmp32 = alloca %"class.__gnu_cxx::__normal_iterator.125", align 8
  %agg.tmp35 = alloca %"class.__gnu_cxx::__normal_iterator.126", align 8
  %agg.tmp43 = alloca %"class.__gnu_cxx::__normal_iterator.126", align 8
  store ptr %this, ptr %this.addr, align 8
  store ptr %__x, ptr %__x.addr, align 8
  %this1 = load ptr, ptr %this.addr, align 8
  %0 = load ptr, ptr %__x.addr, align 8
  %cmp = icmp ne ptr %0, %this1
  br i1 %cmp, label %if.then, label %if.end75

if.then:                                          ; preds = %entry
  %1 = load ptr, ptr %__x.addr, align 8
  %call = call noundef i64 @_ZNKSt6vectorIN7rocksdb6DbPathESaIS1_EE4sizeEv(ptr noundef nonnull align 8 dereferenceable(24) %1) #3
  store i64 %call, ptr %__xlen, align 8
  %2 = load i64, ptr %__xlen, align 8
  %call2 = call noundef i64 @_ZNKSt6vectorIN7rocksdb6DbPathESaIS1_EE8capacityEv(ptr noundef nonnull align 8 dereferenceable(24) %this1) #3
  %cmp3 = icmp ugt i64 %2, %call2
  br i1 %cmp3, label %if.then4, label %if.else

if.then4:                                         ; preds = %if.then
  %3 = load i64, ptr %__xlen, align 8
  %4 = load ptr, ptr %__x.addr, align 8
  %call5 = call ptr @_ZNKSt6vectorIN7rocksdb6DbPathESaIS1_EE5beginEv(ptr noundef nonnull align 8 dereferenceable(24) %4) #3
  %coerce.dive = getelementptr inbounds %"class.__gnu_cxx::__normal_iterator.125", ptr %agg.tmp, i32 0, i32 0
  store ptr %call5, ptr %coerce.dive, align 8
  %5 = load ptr, ptr %__x.addr, align 8
  %call7 = call ptr @_ZNKSt6vectorIN7rocksdb6DbPathESaIS1_EE3endEv(ptr noundef nonnull align 8 dereferenceable(24) %5) #3
  %coerce.dive8 = getelementptr inbounds %"class.__gnu_cxx::__normal_iterator.125", ptr %agg.tmp6, i32 0, i32 0
  store ptr %call7, ptr %coerce.dive8, align 8
  %coerce.dive9 = getelementptr inbounds %"class.__gnu_cxx::__normal_iterator.125", ptr %agg.tmp, i32 0, i32 0
  %6 = load ptr, ptr %coerce.dive9, align 8
  %coerce.dive10 = getelementptr inbounds %"class.__gnu_cxx::__normal_iterator.125", ptr %agg.tmp6, i32 0, i32 0
  %7 = load ptr, ptr %coerce.dive10, align 8
  %call11 = call noundef ptr @_ZNSt6vectorIN7rocksdb6DbPathESaIS1_EE20_M_allocate_and_copyIN9__gnu_cxx17__normal_iteratorIPKS1_S3_EEEEPS1_mT_SB_(ptr noundef nonnull align 8 dereferenceable(24) %this1, i64 noundef %3, ptr %6, ptr %7)
  store ptr %call11, ptr %__tmp, align 8
  %_M_impl = getelementptr inbounds %"struct.std::_Vector_base", ptr %this1, i32 0, i32 0
  %_M_start = getelementptr inbounds %"struct.std::_Vector_base<rocksdb::DbPath, std::allocator<rocksdb::DbPath>>::_Vector_impl_data", ptr %_M_impl, i32 0, i32 0
  %8 = load ptr, ptr %_M_start, align 8
  %_M_impl12 = getelementptr inbounds %"struct.std::_Vector_base", ptr %this1, i32 0, i32 0
  %_M_finish = getelementptr inbounds %"struct.std::_Vector_base<rocksdb::DbPath, std::allocator<rocksdb::DbPath>>::_Vector_impl_data", ptr %_M_impl12, i32 0, i32 1
  %9 = load ptr, ptr %_M_finish, align 8
  %call13 = call noundef nonnull align 1 dereferenceable(1) ptr @_ZNSt12_Vector_baseIN7rocksdb6DbPathESaIS1_EE19_M_get_Tp_allocatorEv(ptr noundef nonnull align 8 dereferenceable(24) %this1) #3
  call void @_ZSt8_DestroyIPN7rocksdb6DbPathES1_EvT_S3_RSaIT0_E(ptr noundef %8, ptr noundef %9, ptr noundef nonnull align 1 dereferenceable(1) %call13)
  %_M_impl14 = getelementptr inbounds %"struct.std::_Vector_base", ptr %this1, i32 0, i32 0
  %_M_start15 = getelementptr inbounds %"struct.std::_Vector_base<rocksdb::DbPath, std::allocator<rocksdb::DbPath>>::_Vector_impl_data", ptr %_M_impl14, i32 0, i32 0
  %10 = load ptr, ptr %_M_start15, align 8
  %_M_impl16 = getelementptr inbounds %"struct.std::_Vector_base", ptr %this1, i32 0, i32 0
  %_M_end_of_storage = getelementptr inbounds %"struct.std::_Vector_base<rocksdb::DbPath, std::allocator<rocksdb::DbPath>>::_Vector_impl_data", ptr %_M_impl16, i32 0, i32 2
  %11 = load ptr, ptr %_M_end_of_storage, align 8
  %_M_impl17 = getelementptr inbounds %"struct.std::_Vector_base", ptr %this1, i32 0, i32 0
  %_M_start18 = getelementptr inbounds %"struct.std::_Vector_base<rocksdb::DbPath, std::allocator<rocksdb::DbPath>>::_Vector_impl_data", ptr %_M_impl17, i32 0, i32 0
  %12 = load ptr, ptr %_M_start18, align 8
  %sub.ptr.lhs.cast = ptrtoint ptr %11 to i64
  %sub.ptr.rhs.cast = ptrtoint ptr %12 to i64
  %sub.ptr.sub = sub i64 %sub.ptr.lhs.cast, %sub.ptr.rhs.cast
  %sub.ptr.div = sdiv exact i64 %sub.ptr.sub, 40
  call void @_ZNSt12_Vector_baseIN7rocksdb6DbPathESaIS1_EE13_M_deallocateEPS1_m(ptr noundef nonnull align 8 dereferenceable(24) %this1, ptr noundef %10, i64 noundef %sub.ptr.div)
  %13 = load ptr, ptr %__tmp, align 8
  %_M_impl19 = getelementptr inbounds %"struct.std::_Vector_base", ptr %this1, i32 0, i32 0
  %_M_start20 = getelementptr inbounds %"struct.std::_Vector_base<rocksdb::DbPath, std::allocator<rocksdb::DbPath>>::_Vector_impl_data", ptr %_M_impl19, i32 0, i32 0
  store ptr %13, ptr %_M_start20, align 8
  %_M_impl21 = getelementptr inbounds %"struct.std::_Vector_base", ptr %this1, i32 0, i32 0
  %_M_start22 = getelementptr inbounds %"struct.std::_Vector_base<rocksdb::DbPath, std::allocator<rocksdb::DbPath>>::_Vector_impl_data", ptr %_M_impl21, i32 0, i32 0
  %14 = load ptr, ptr %_M_start22, align 8
  %15 = load i64, ptr %__xlen, align 8
  %add.ptr = getelementptr inbounds %"struct.rocksdb::DbPath", ptr %14, i64 %15
  %_M_impl23 = getelementptr inbounds %"struct.std::_Vector_base", ptr %this1, i32 0, i32 0
  %_M_end_of_storage24 = getelementptr inbounds %"struct.std::_Vector_base<rocksdb::DbPath, std::allocator<rocksdb::DbPath>>::_Vector_impl_data", ptr %_M_impl23, i32 0, i32 2
  store ptr %add.ptr, ptr %_M_end_of_storage24, align 8
  br label %if.end69

if.else:                                          ; preds = %if.then
  %call25 = call noundef i64 @_ZNKSt6vectorIN7rocksdb6DbPathESaIS1_EE4sizeEv(ptr noundef nonnull align 8 dereferenceable(24) %this1) #3
  %16 = load i64, ptr %__xlen, align 8
  %cmp26 = icmp uge i64 %call25, %16
  br i1 %cmp26, label %if.then27, label %if.else49

if.then27:                                        ; preds = %if.else
  %17 = load ptr, ptr %__x.addr, align 8
  %call30 = call ptr @_ZNKSt6vectorIN7rocksdb6DbPathESaIS1_EE5beginEv(ptr noundef nonnull align 8 dereferenceable(24) %17) #3
  %coerce.dive31 = getelementptr inbounds %"class.__gnu_cxx::__normal_iterator.125", ptr %agg.tmp29, i32 0, i32 0
  store ptr %call30, ptr %coerce.dive31, align 8
  %18 = load ptr, ptr %__x.addr, align 8
  %call33 = call ptr @_ZNKSt6vectorIN7rocksdb6DbPathESaIS1_EE3endEv(ptr noundef nonnull align 8 dereferenceable(24) %18) #3
  %coerce.dive34 = getelementptr inbounds %"class.__gnu_cxx::__normal_iterator.125", ptr %agg.tmp32, i32 0, i32 0
  store ptr %call33, ptr %coerce.dive34, align 8
  %call36 = call ptr @_ZNSt6vectorIN7rocksdb6DbPathESaIS1_EE5beginEv(ptr noundef nonnull align 8 dereferenceable(24) %this1) #3
  %coerce.dive37 = getelementptr inbounds %"class.__gnu_cxx::__normal_iterator.126", ptr %agg.tmp35, i32 0, i32 0
  store ptr %call36, ptr %coerce.dive37, align 8
  %coerce.dive38 = getelementptr inbounds %"class.__gnu_cxx::__normal_iterator.125", ptr %agg.tmp29, i32 0, i32 0
  %19 = load ptr, ptr %coerce.dive38, align 8
  %coerce.dive39 = getelementptr inbounds %"class.__gnu_cxx::__normal_iterator.125", ptr %agg.tmp32, i32 0, i32 0
  %20 = load ptr, ptr %coerce.dive39, align 8
  %coerce.dive40 = getelementptr inbounds %"class.__gnu_cxx::__normal_iterator.126", ptr %agg.tmp35, i32 0, i32 0
  %21 = load ptr, ptr %coerce.dive40, align 8
  %call41 = call ptr @_ZSt4copyIN9__gnu_cxx17__normal_iteratorIPKN7rocksdb6DbPathESt6vectorIS3_SaIS3_EEEENS1_IPS3_S8_EEET0_T_SD_SC_(ptr %19, ptr %20, ptr %21)
  %coerce.dive42 = getelementptr inbounds %"class.__gnu_cxx::__normal_iterator.126", ptr %agg.tmp28, i32 0, i32 0
  store ptr %call41, ptr %coerce.dive42, align 8
  %call44 = call ptr @_ZNSt6vectorIN7rocksdb6DbPathESaIS1_EE3endEv(ptr noundef nonnull align 8 dereferenceable(24) %this1) #3
  %coerce.dive45 = getelementptr inbounds %"class.__gnu_cxx::__normal_iterator.126", ptr %agg.tmp43, i32 0, i32 0
  store ptr %call44, ptr %coerce.dive45, align 8
  %call46 = call noundef nonnull align 1 dereferenceable(1) ptr @_ZNSt12_Vector_baseIN7rocksdb6DbPathESaIS1_EE19_M_get_Tp_allocatorEv(ptr noundef nonnull align 8 dereferenceable(24) %this1) #3
  %coerce.dive47 = getelementptr inbounds %"class.__gnu_cxx::__normal_iterator.126", ptr %agg.tmp28, i32 0, i32 0
  %22 = load ptr, ptr %coerce.dive47, align 8
  %coerce.dive48 = getelementptr inbounds %"class.__gnu_cxx::__normal_iterator.126", ptr %agg.tmp43, i32 0, i32 0
  %23 = load ptr, ptr %coerce.dive48, align 8
  call void @_ZSt8_DestroyIN9__gnu_cxx17__normal_iteratorIPN7rocksdb6DbPathESt6vectorIS3_SaIS3_EEEES3_EvT_S9_RSaIT0_E(ptr %22, ptr %23, ptr noundef nonnull align 1 dereferenceable(1) %call46)
  br label %if.end

if.else49:                                        ; preds = %if.else
  %24 = load ptr, ptr %__x.addr, align 8
  %_M_impl50 = getelementptr inbounds %"struct.std::_Vector_base", ptr %24, i32 0, i32 0
  %_M_start51 = getelementptr inbounds %"struct.std::_Vector_base<rocksdb::DbPath, std::allocator<rocksdb::DbPath>>::_Vector_impl_data", ptr %_M_impl50, i32 0, i32 0
  %25 = load ptr, ptr %_M_start51, align 8
  %26 = load ptr, ptr %__x.addr, align 8
  %_M_impl52 = getelementptr inbounds %"struct.std::_Vector_base", ptr %26, i32 0, i32 0
  %_M_start53 = getelementptr inbounds %"struct.std::_Vector_base<rocksdb::DbPath, std::allocator<rocksdb::DbPath>>::_Vector_impl_data", ptr %_M_impl52, i32 0, i32 0
  %27 = load ptr, ptr %_M_start53, align 8
  %call54 = call noundef i64 @_ZNKSt6vectorIN7rocksdb6DbPathESaIS1_EE4sizeEv(ptr noundef nonnull align 8 dereferenceable(24) %this1) #3
  %add.ptr55 = getelementptr inbounds %"struct.rocksdb::DbPath", ptr %27, i64 %call54
  %_M_impl56 = getelementptr inbounds %"struct.std::_Vector_base", ptr %this1, i32 0, i32 0
  %_M_start57 = getelementptr inbounds %"struct.std::_Vector_base<rocksdb::DbPath, std::allocator<rocksdb::DbPath>>::_Vector_impl_data", ptr %_M_impl56, i32 0, i32 0
  %28 = load ptr, ptr %_M_start57, align 8
  %call58 = call noundef ptr @_ZSt4copyIPN7rocksdb6DbPathES2_ET0_T_S4_S3_(ptr noundef %25, ptr noundef %add.ptr55, ptr noundef %28)
  %29 = load ptr, ptr %__x.addr, align 8
  %_M_impl59 = getelementptr inbounds %"struct.std::_Vector_base", ptr %29, i32 0, i32 0
  %_M_start60 = getelementptr inbounds %"struct.std::_Vector_base<rocksdb::DbPath, std::allocator<rocksdb::DbPath>>::_Vector_impl_data", ptr %_M_impl59, i32 0, i32 0
  %30 = load ptr, ptr %_M_start60, align 8
  %call61 = call noundef i64 @_ZNKSt6vectorIN7rocksdb6DbPathESaIS1_EE4sizeEv(ptr noundef nonnull align 8 dereferenceable(24) %this1) #3
  %add.ptr62 = getelementptr inbounds %"struct.rocksdb::DbPath", ptr %30, i64 %call61
  %31 = load ptr, ptr %__x.addr, align 8
  %_M_impl63 = getelementptr inbounds %"struct.std::_Vector_base", ptr %31, i32 0, i32 0
  %_M_finish64 = getelementptr inbounds %"struct.std::_Vector_base<rocksdb::DbPath, std::allocator<rocksdb::DbPath>>::_Vector_impl_data", ptr %_M_impl63, i32 0, i32 1
  %32 = load ptr, ptr %_M_finish64, align 8
  %_M_impl65 = getelementptr inbounds %"struct.std::_Vector_base", ptr %this1, i32 0, i32 0
  %_M_finish66 = getelementptr inbounds %"struct.std::_Vector_base<rocksdb::DbPath, std::allocator<rocksdb::DbPath>>::_Vector_impl_data", ptr %_M_impl65, i32 0, i32 1
  %33 = load ptr, ptr %_M_finish66, align 8
  %call67 = call noundef nonnull align 1 dereferenceable(1) ptr @_ZNSt12_Vector_baseIN7rocksdb6DbPathESaIS1_EE19_M_get_Tp_allocatorEv(ptr noundef nonnull align 8 dereferenceable(24) %this1) #3
  %call68 = call noundef ptr @_ZSt22__uninitialized_copy_aIPN7rocksdb6DbPathES2_S1_ET0_T_S4_S3_RSaIT1_E(ptr noundef %add.ptr62, ptr noundef %32, ptr noundef %33, ptr noundef nonnull align 1 dereferenceable(1) %call67)
  br label %if.end

if.end:                                           ; preds = %if.else49, %if.then27
  br label %if.end69

if.end69:                                         ; preds = %if.end, %if.then4
  %_M_impl70 = getelementptr inbounds %"struct.std::_Vector_base", ptr %this1, i32 0, i32 0
  %_M_start71 = getelementptr inbounds %"struct.std::_Vector_base<rocksdb::DbPath, std::allocator<rocksdb::DbPath>>::_Vector_impl_data", ptr %_M_impl70, i32 0, i32 0
  %34 = load ptr, ptr %_M_start71, align 8
  %35 = load i64, ptr %__xlen, align 8
  %add.ptr72 = getelementptr inbounds %"struct.rocksdb::DbPath", ptr %34, i64 %35
  %_M_impl73 = getelementptr inbounds %"struct.std::_Vector_base", ptr %this1, i32 0, i32 0
  %_M_finish74 = getelementptr inbounds %"struct.std::_Vector_base<rocksdb::DbPath, std::allocator<rocksdb::DbPath>>::_Vector_impl_data", ptr %_M_impl73, i32 0, i32 1
  store ptr %add.ptr72, ptr %_M_finish74, align 8
  br label %if.end75

if.end75:                                         ; preds = %if.end69, %entry
  ret ptr %this1
}

; Function Attrs: mustprogress nounwind uwtable
define linkonce_odr noundef nonnull align 8 dereferenceable(16) ptr @_ZNSt10shared_ptrIN7rocksdb18WriteBufferManagerEEaSERKS2_(ptr noundef nonnull align 8 dereferenceable(16) %this, ptr noundef nonnull align 8 dereferenceable(16) %0) #5 comdat align 2 {
entry:
  %this.addr = alloca ptr, align 8
  %.addr = alloca ptr, align 8
  store ptr %this, ptr %this.addr, align 8
  store ptr %0, ptr %.addr, align 8
  %this1 = load ptr, ptr %this.addr, align 8
  %1 = load ptr, ptr %.addr, align 8
  %call = call noundef nonnull align 8 dereferenceable(16) ptr @_ZNSt12__shared_ptrIN7rocksdb18WriteBufferManagerELN9__gnu_cxx12_Lock_policyE2EEaSERKS4_(ptr noundef nonnull align 8 dereferenceable(16) %this1, ptr noundef nonnull align 8 dereferenceable(16) %1) #3
  ret ptr %this1
}

; Function Attrs: mustprogress uwtable
define linkonce_odr noundef nonnull align 8 dereferenceable(24) ptr @_ZNSt6vectorISt10shared_ptrIN7rocksdb13EventListenerEESaIS3_EEaSERKS5_(ptr noundef nonnull align 8 dereferenceable(24) %this, ptr noundef nonnull align 8 dereferenceable(24) %__x) #2 comdat align 2 {
entry:
  %this.addr = alloca ptr, align 8
  %__x.addr = alloca ptr, align 8
  %__xlen = alloca i64, align 8
  %__tmp = alloca ptr, align 8
  %agg.tmp = alloca %"class.__gnu_cxx::__normal_iterator.127", align 8
  %agg.tmp6 = alloca %"class.__gnu_cxx::__normal_iterator.127", align 8
  %agg.tmp28 = alloca %"class.__gnu_cxx::__normal_iterator.131", align 8
  %agg.tmp29 = alloca %"class.__gnu_cxx::__normal_iterator.127", align 8
  %agg.tmp32 = alloca %"class.__gnu_cxx::__normal_iterator.127", align 8
  %agg.tmp35 = alloca %"class.__gnu_cxx::__normal_iterator.131", align 8
  %agg.tmp43 = alloca %"class.__gnu_cxx::__normal_iterator.131", align 8
  store ptr %this, ptr %this.addr, align 8
  store ptr %__x, ptr %__x.addr, align 8
  %this1 = load ptr, ptr %this.addr, align 8
  %0 = load ptr, ptr %__x.addr, align 8
  %cmp = icmp ne ptr %0, %this1
  br i1 %cmp, label %if.then, label %if.end75

if.then:                                          ; preds = %entry
  %1 = load ptr, ptr %__x.addr, align 8
  %call = call noundef i64 @_ZNKSt6vectorISt10shared_ptrIN7rocksdb13EventListenerEESaIS3_EE4sizeEv(ptr noundef nonnull align 8 dereferenceable(24) %1) #3
  store i64 %call, ptr %__xlen, align 8
  %2 = load i64, ptr %__xlen, align 8
  %call2 = call noundef i64 @_ZNKSt6vectorISt10shared_ptrIN7rocksdb13EventListenerEESaIS3_EE8capacityEv(ptr noundef nonnull align 8 dereferenceable(24) %this1) #3
  %cmp3 = icmp ugt i64 %2, %call2
  br i1 %cmp3, label %if.then4, label %if.else

if.then4:                                         ; preds = %if.then
  %3 = load i64, ptr %__xlen, align 8
  %4 = load ptr, ptr %__x.addr, align 8
  %call5 = call ptr @_ZNKSt6vectorISt10shared_ptrIN7rocksdb13EventListenerEESaIS3_EE5beginEv(ptr noundef nonnull align 8 dereferenceable(24) %4) #3
  %coerce.dive = getelementptr inbounds %"class.__gnu_cxx::__normal_iterator.127", ptr %agg.tmp, i32 0, i32 0
  store ptr %call5, ptr %coerce.dive, align 8
  %5 = load ptr, ptr %__x.addr, align 8
  %call7 = call ptr @_ZNKSt6vectorISt10shared_ptrIN7rocksdb13EventListenerEESaIS3_EE3endEv(ptr noundef nonnull align 8 dereferenceable(24) %5) #3
  %coerce.dive8 = getelementptr inbounds %"class.__gnu_cxx::__normal_iterator.127", ptr %agg.tmp6, i32 0, i32 0
  store ptr %call7, ptr %coerce.dive8, align 8
  %coerce.dive9 = getelementptr inbounds %"class.__gnu_cxx::__normal_iterator.127", ptr %agg.tmp, i32 0, i32 0
  %6 = load ptr, ptr %coerce.dive9, align 8
  %coerce.dive10 = getelementptr inbounds %"class.__gnu_cxx::__normal_iterator.127", ptr %agg.tmp6, i32 0, i32 0
  %7 = load ptr, ptr %coerce.dive10, align 8
  %call11 = call noundef ptr @_ZNSt6vectorISt10shared_ptrIN7rocksdb13EventListenerEESaIS3_EE20_M_allocate_and_copyIN9__gnu_cxx17__normal_iteratorIPKS3_S5_EEEEPS3_mT_SD_(ptr noundef nonnull align 8 dereferenceable(24) %this1, i64 noundef %3, ptr %6, ptr %7)
  store ptr %call11, ptr %__tmp, align 8
  %_M_impl = getelementptr inbounds %"struct.std::_Vector_base.18", ptr %this1, i32 0, i32 0
  %_M_start = getelementptr inbounds %"struct.std::_Vector_base<std::shared_ptr<rocksdb::EventListener>, std::allocator<std::shared_ptr<rocksdb::EventListener>>>::_Vector_impl_data", ptr %_M_impl, i32 0, i32 0
  %8 = load ptr, ptr %_M_start, align 8
  %_M_impl12 = getelementptr inbounds %"struct.std::_Vector_base.18", ptr %this1, i32 0, i32 0
  %_M_finish = getelementptr inbounds %"struct.std::_Vector_base<std::shared_ptr<rocksdb::EventListener>, std::allocator<std::shared_ptr<rocksdb::EventListener>>>::_Vector_impl_data", ptr %_M_impl12, i32 0, i32 1
  %9 = load ptr, ptr %_M_finish, align 8
  %call13 = call noundef nonnull align 1 dereferenceable(1) ptr @_ZNSt12_Vector_baseISt10shared_ptrIN7rocksdb13EventListenerEESaIS3_EE19_M_get_Tp_allocatorEv(ptr noundef nonnull align 8 dereferenceable(24) %this1) #3
  call void @_ZSt8_DestroyIPSt10shared_ptrIN7rocksdb13EventListenerEES3_EvT_S5_RSaIT0_E(ptr noundef %8, ptr noundef %9, ptr noundef nonnull align 1 dereferenceable(1) %call13)
  %_M_impl14 = getelementptr inbounds %"struct.std::_Vector_base.18", ptr %this1, i32 0, i32 0
  %_M_start15 = getelementptr inbounds %"struct.std::_Vector_base<std::shared_ptr<rocksdb::EventListener>, std::allocator<std::shared_ptr<rocksdb::EventListener>>>::_Vector_impl_data", ptr %_M_impl14, i32 0, i32 0
  %10 = load ptr, ptr %_M_start15, align 8
  %_M_impl16 = getelementptr inbounds %"struct.std::_Vector_base.18", ptr %this1, i32 0, i32 0
  %_M_end_of_storage = getelementptr inbounds %"struct.std::_Vector_base<std::shared_ptr<rocksdb::EventListener>, std::allocator<std::shared_ptr<rocksdb::EventListener>>>::_Vector_impl_data", ptr %_M_impl16, i32 0, i32 2
  %11 = load ptr, ptr %_M_end_of_storage, align 8
  %_M_impl17 = getelementptr inbounds %"struct.std::_Vector_base.18", ptr %this1, i32 0, i32 0
  %_M_start18 = getelementptr inbounds %"struct.std::_Vector_base<std::shared_ptr<rocksdb::EventListener>, std::allocator<std::shared_ptr<rocksdb::EventListener>>>::_Vector_impl_data", ptr %_M_impl17, i32 0, i32 0
  %12 = load ptr, ptr %_M_start18, align 8
  %sub.ptr.lhs.cast = ptrtoint ptr %11 to i64
  %sub.ptr.rhs.cast = ptrtoint ptr %12 to i64
  %sub.ptr.sub = sub i64 %sub.ptr.lhs.cast, %sub.ptr.rhs.cast
  %sub.ptr.div = sdiv exact i64 %sub.ptr.sub, 16
  call void @_ZNSt12_Vector_baseISt10shared_ptrIN7rocksdb13EventListenerEESaIS3_EE13_M_deallocateEPS3_m(ptr noundef nonnull align 8 dereferenceable(24) %this1, ptr noundef %10, i64 noundef %sub.ptr.div)
  %13 = load ptr, ptr %__tmp, align 8
  %_M_impl19 = getelementptr inbounds %"struct.std::_Vector_base.18", ptr %this1, i32 0, i32 0
  %_M_start20 = getelementptr inbounds %"struct.std::_Vector_base<std::shared_ptr<rocksdb::EventListener>, std::allocator<std::shared_ptr<rocksdb::EventListener>>>::_Vector_impl_data", ptr %_M_impl19, i32 0, i32 0
  store ptr %13, ptr %_M_start20, align 8
  %_M_impl21 = getelementptr inbounds %"struct.std::_Vector_base.18", ptr %this1, i32 0, i32 0
  %_M_start22 = getelementptr inbounds %"struct.std::_Vector_base<std::shared_ptr<rocksdb::EventListener>, std::allocator<std::shared_ptr<rocksdb::EventListener>>>::_Vector_impl_data", ptr %_M_impl21, i32 0, i32 0
  %14 = load ptr, ptr %_M_start22, align 8
  %15 = load i64, ptr %__xlen, align 8
  %add.ptr = getelementptr inbounds %"class.std::shared_ptr.128", ptr %14, i64 %15
  %_M_impl23 = getelementptr inbounds %"struct.std::_Vector_base.18", ptr %this1, i32 0, i32 0
  %_M_end_of_storage24 = getelementptr inbounds %"struct.std::_Vector_base<std::shared_ptr<rocksdb::EventListener>, std::allocator<std::shared_ptr<rocksdb::EventListener>>>::_Vector_impl_data", ptr %_M_impl23, i32 0, i32 2
  store ptr %add.ptr, ptr %_M_end_of_storage24, align 8
  br label %if.end69

if.else:                                          ; preds = %if.then
  %call25 = call noundef i64 @_ZNKSt6vectorISt10shared_ptrIN7rocksdb13EventListenerEESaIS3_EE4sizeEv(ptr noundef nonnull align 8 dereferenceable(24) %this1) #3
  %16 = load i64, ptr %__xlen, align 8
  %cmp26 = icmp uge i64 %call25, %16
  br i1 %cmp26, label %if.then27, label %if.else49

if.then27:                                        ; preds = %if.else
  %17 = load ptr, ptr %__x.addr, align 8
  %call30 = call ptr @_ZNKSt6vectorISt10shared_ptrIN7rocksdb13EventListenerEESaIS3_EE5beginEv(ptr noundef nonnull align 8 dereferenceable(24) %17) #3
  %coerce.dive31 = getelementptr inbounds %"class.__gnu_cxx::__normal_iterator.127", ptr %agg.tmp29, i32 0, i32 0
  store ptr %call30, ptr %coerce.dive31, align 8
  %18 = load ptr, ptr %__x.addr, align 8
  %call33 = call ptr @_ZNKSt6vectorISt10shared_ptrIN7rocksdb13EventListenerEESaIS3_EE3endEv(ptr noundef nonnull align 8 dereferenceable(24) %18) #3
  %coerce.dive34 = getelementptr inbounds %"class.__gnu_cxx::__normal_iterator.127", ptr %agg.tmp32, i32 0, i32 0
  store ptr %call33, ptr %coerce.dive34, align 8
  %call36 = call ptr @_ZNSt6vectorISt10shared_ptrIN7rocksdb13EventListenerEESaIS3_EE5beginEv(ptr noundef nonnull align 8 dereferenceable(24) %this1) #3
  %coerce.dive37 = getelementptr inbounds %"class.__gnu_cxx::__normal_iterator.131", ptr %agg.tmp35, i32 0, i32 0
  store ptr %call36, ptr %coerce.dive37, align 8
  %coerce.dive38 = getelementptr inbounds %"class.__gnu_cxx::__normal_iterator.127", ptr %agg.tmp29, i32 0, i32 0
  %19 = load ptr, ptr %coerce.dive38, align 8
  %coerce.dive39 = getelementptr inbounds %"class.__gnu_cxx::__normal_iterator.127", ptr %agg.tmp32, i32 0, i32 0
  %20 = load ptr, ptr %coerce.dive39, align 8
  %coerce.dive40 = getelementptr inbounds %"class.__gnu_cxx::__normal_iterator.131", ptr %agg.tmp35, i32 0, i32 0
  %21 = load ptr, ptr %coerce.dive40, align 8
  %call41 = call ptr @_ZSt4copyIN9__gnu_cxx17__normal_iteratorIPKSt10shared_ptrIN7rocksdb13EventListenerEESt6vectorIS5_SaIS5_EEEENS1_IPS5_SA_EEET0_T_SF_SE_(ptr %19, ptr %20, ptr %21)
  %coerce.dive42 = getelementptr inbounds %"class.__gnu_cxx::__normal_iterator.131", ptr %agg.tmp28, i32 0, i32 0
  store ptr %call41, ptr %coerce.dive42, align 8
  %call44 = call ptr @_ZNSt6vectorISt10shared_ptrIN7rocksdb13EventListenerEESaIS3_EE3endEv(ptr noundef nonnull align 8 dereferenceable(24) %this1) #3
  %coerce.dive45 = getelementptr inbounds %"class.__gnu_cxx::__normal_iterator.131", ptr %agg.tmp43, i32 0, i32 0
  store ptr %call44, ptr %coerce.dive45, align 8
  %call46 = call noundef nonnull align 1 dereferenceable(1) ptr @_ZNSt12_Vector_baseISt10shared_ptrIN7rocksdb13EventListenerEESaIS3_EE19_M_get_Tp_allocatorEv(ptr noundef nonnull align 8 dereferenceable(24) %this1) #3
  %coerce.dive47 = getelementptr inbounds %"class.__gnu_cxx::__normal_iterator.131", ptr %agg.tmp28, i32 0, i32 0
  %22 = load ptr, ptr %coerce.dive47, align 8
  %coerce.dive48 = getelementptr inbounds %"class.__gnu_cxx::__normal_iterator.131", ptr %agg.tmp43, i32 0, i32 0
  %23 = load ptr, ptr %coerce.dive48, align 8
  call void @_ZSt8_DestroyIN9__gnu_cxx17__normal_iteratorIPSt10shared_ptrIN7rocksdb13EventListenerEESt6vectorIS5_SaIS5_EEEES5_EvT_SB_RSaIT0_E(ptr %22, ptr %23, ptr noundef nonnull align 1 dereferenceable(1) %call46)
  br label %if.end

if.else49:                                        ; preds = %if.else
  %24 = load ptr, ptr %__x.addr, align 8
  %_M_impl50 = getelementptr inbounds %"struct.std::_Vector_base.18", ptr %24, i32 0, i32 0
  %_M_start51 = getelementptr inbounds %"struct.std::_Vector_base<std::shared_ptr<rocksdb::EventListener>, std::allocator<std::shared_ptr<rocksdb::EventListener>>>::_Vector_impl_data", ptr %_M_impl50, i32 0, i32 0
  %25 = load ptr, ptr %_M_start51, align 8
  %26 = load ptr, ptr %__x.addr, align 8
  %_M_impl52 = getelementptr inbounds %"struct.std::_Vector_base.18", ptr %26, i32 0, i32 0
  %_M_start53 = getelementptr inbounds %"struct.std::_Vector_base<std::shared_ptr<rocksdb::EventListener>, std::allocator<std::shared_ptr<rocksdb::EventListener>>>::_Vector_impl_data", ptr %_M_impl52, i32 0, i32 0
  %27 = load ptr, ptr %_M_start53, align 8
  %call54 = call noundef i64 @_ZNKSt6vectorISt10shared_ptrIN7rocksdb13EventListenerEESaIS3_EE4sizeEv(ptr noundef nonnull align 8 dereferenceable(24) %this1) #3
  %add.ptr55 = getelementptr inbounds %"class.std::shared_ptr.128", ptr %27, i64 %call54
  %_M_impl56 = getelementptr inbounds %"struct.std::_Vector_base.18", ptr %this1, i32 0, i32 0
  %_M_start57 = getelementptr inbounds %"struct.std::_Vector_base<std::shared_ptr<rocksdb::EventListener>, std::allocator<std::shared_ptr<rocksdb::EventListener>>>::_Vector_impl_data", ptr %_M_impl56, i32 0, i32 0
  %28 = load ptr, ptr %_M_start57, align 8
  %call58 = call noundef ptr @_ZSt4copyIPSt10shared_ptrIN7rocksdb13EventListenerEES4_ET0_T_S6_S5_(ptr noundef %25, ptr noundef %add.ptr55, ptr noundef %28)
  %29 = load ptr, ptr %__x.addr, align 8
  %_M_impl59 = getelementptr inbounds %"struct.std::_Vector_base.18", ptr %29, i32 0, i32 0
  %_M_start60 = getelementptr inbounds %"struct.std::_Vector_base<std::shared_ptr<rocksdb::EventListener>, std::allocator<std::shared_ptr<rocksdb::EventListener>>>::_Vector_impl_data", ptr %_M_impl59, i32 0, i32 0
  %30 = load ptr, ptr %_M_start60, align 8
  %call61 = call noundef i64 @_ZNKSt6vectorISt10shared_ptrIN7rocksdb13EventListenerEESaIS3_EE4sizeEv(ptr noundef nonnull align 8 dereferenceable(24) %this1) #3
  %add.ptr62 = getelementptr inbounds %"class.std::shared_ptr.128", ptr %30, i64 %call61
  %31 = load ptr, ptr %__x.addr, align 8
  %_M_impl63 = getelementptr inbounds %"struct.std::_Vector_base.18", ptr %31, i32 0, i32 0
  %_M_finish64 = getelementptr inbounds %"struct.std::_Vector_base<std::shared_ptr<rocksdb::EventListener>, std::allocator<std::shared_ptr<rocksdb::EventListener>>>::_Vector_impl_data", ptr %_M_impl63, i32 0, i32 1
  %32 = load ptr, ptr %_M_finish64, align 8
  %_M_impl65 = getelementptr inbounds %"struct.std::_Vector_base.18", ptr %this1, i32 0, i32 0
  %_M_finish66 = getelementptr inbounds %"struct.std::_Vector_base<std::shared_ptr<rocksdb::EventListener>, std::allocator<std::shared_ptr<rocksdb::EventListener>>>::_Vector_impl_data", ptr %_M_impl65, i32 0, i32 1
  %33 = load ptr, ptr %_M_finish66, align 8
  %call67 = call noundef nonnull align 1 dereferenceable(1) ptr @_ZNSt12_Vector_baseISt10shared_ptrIN7rocksdb13EventListenerEESaIS3_EE19_M_get_Tp_allocatorEv(ptr noundef nonnull align 8 dereferenceable(24) %this1) #3
  %call68 = call noundef ptr @_ZSt22__uninitialized_copy_aIPSt10shared_ptrIN7rocksdb13EventListenerEES4_S3_ET0_T_S6_S5_RSaIT1_E(ptr noundef %add.ptr62, ptr noundef %32, ptr noundef %33, ptr noundef nonnull align 1 dereferenceable(1) %call67)
  br label %if.end

if.end:                                           ; preds = %if.else49, %if.then27
  br label %if.end69

if.end69:                                         ; preds = %if.end, %if.then4
  %_M_impl70 = getelementptr inbounds %"struct.std::_Vector_base.18", ptr %this1, i32 0, i32 0
  %_M_start71 = getelementptr inbounds %"struct.std::_Vector_base<std::shared_ptr<rocksdb::EventListener>, std::allocator<std::shared_ptr<rocksdb::EventListener>>>::_Vector_impl_data", ptr %_M_impl70, i32 0, i32 0
  %34 = load ptr, ptr %_M_start71, align 8
  %35 = load i64, ptr %__xlen, align 8
  %add.ptr72 = getelementptr inbounds %"class.std::shared_ptr.128", ptr %34, i64 %35
  %_M_impl73 = getelementptr inbounds %"struct.std::_Vector_base.18", ptr %this1, i32 0, i32 0
  %_M_finish74 = getelementptr inbounds %"struct.std::_Vector_base<std::shared_ptr<rocksdb::EventListener>, std::allocator<std::shared_ptr<rocksdb::EventListener>>>::_Vector_impl_data", ptr %_M_impl73, i32 0, i32 1
  store ptr %add.ptr72, ptr %_M_finish74, align 8
  br label %if.end75

