target datalayout = "e-m:e-p270:32:32-p271:32:32-p272:64:64-i64:64-i128:128-f80:128-n8:16:32:64-S128"
target triple = "x86_64-unknown-linux-gnu"

%"class.std::vector" = type { %"struct.std::_Vector_base" }
%"struct.std::_Vector_base" = type { %"struct.std::_Vector_base<rocksdb::Slice, std::allocator<rocksdb::Slice>>::_Vector_impl" }
%"struct.std::_Vector_base<rocksdb::Slice, std::allocator<rocksdb::Slice>>::_Vector_impl" = type { %"struct.std::_Vector_base<rocksdb::Slice, std::allocator<rocksdb::Slice>>::_Vector_impl_data" }
%"struct.std::_Vector_base<rocksdb::Slice, std::allocator<rocksdb::Slice>>::_Vector_impl_data" = type { ptr, ptr, ptr }
%"struct.rocksdb::PerfContext" = type <{ %"struct.rocksdb::PerfContextBase", ptr, i8, [7 x i8] }>
%"struct.rocksdb::PerfContextBase" = type { i64, i64, i64, i64, i64, i64, i64, i64, i64, i64, i64, i64, i64, i64, i64, i64, i64, i64, i64, i64, i64, i64, i64, i64, i64, i64, i64, i64, i64, i64, i64, i64, i64, i64, i64, i64, i64, i64, i64, i64, i64, i64, i64, i64, i64, i64, i64, i64, i64, i64, i64, i64, i64, i64, i64, i64, i64, i64, i64, i64, i64, i64, i64, i64, i64, i64, i64, i64, i64, i64, i64, i64, i64, i64, i64, i64, i64, i64, i64, i64, i64, i64, i64, i64, i64, i64, i64, i64, i64, i64, i64, i64, i64, i64, i64, i64, i64, i64, i64, i64, i64 }
%"struct.std::piecewise_construct_t" = type { i8 }
%"class.rocksdb::Slice" = type { ptr, i64 }
%"class.rocksdb::InternalKeyComparator" = type { %"class.rocksdb::CompareInterface", %"class.rocksdb::UserComparatorWrapper" }
%"class.rocksdb::CompareInterface" = type { ptr }
%"class.rocksdb::UserComparatorWrapper" = type { ptr }
%"class.rocksdb::SstFileManagerImpl" = type { %"class.rocksdb::SstFileManager", %"class.std::shared_ptr", %"class.std::shared_ptr.0", %"class.std::shared_ptr.3", %"class.rocksdb::port::Mutex", i64, i64, i64, %"class.std::unordered_map", i64, %"class.rocksdb::DeleteScheduler", %"class.rocksdb::port::CondVar", i8, %"class.std::unique_ptr", %"class.std::__cxx11::basic_string", %"class.rocksdb::Status", i64, i64, %"class.std::__cxx11::list", ptr, %"class.std::shared_ptr.22" }
%"class.rocksdb::SstFileManager" = type { ptr }
%"class.std::shared_ptr" = type { %"class.std::__shared_ptr" }
%"class.std::__shared_ptr" = type { ptr, %"class.std::__shared_count" }
%"class.std::__shared_count" = type { ptr }
%"class.std::shared_ptr.0" = type { %"class.std::__shared_ptr.1" }
%"class.std::__shared_ptr.1" = type { ptr, %"class.std::__shared_count" }
%"class.std::shared_ptr.3" = type { %"class.std::__shared_ptr.4" }
%"class.std::__shared_ptr.4" = type { ptr, %"class.std::__shared_count" }
%"class.rocksdb::port::Mutex" = type { %union.pthread_mutex_t }
%union.pthread_mutex_t = type { %struct.__pthread_mutex_s }
%struct.__pthread_mutex_s = type { i32, i32, i32, i32, i32, i16, i16, %struct.__pthread_internal_list }
%struct.__pthread_internal_list = type { ptr, ptr }
%"class.std::unordered_map" = type { %"class.std::_Hashtable" }
%"class.std::_Hashtable" = type { ptr, i64, %"struct.std::__detail::_Hash_node_base", i64, %"struct.std::__detail::_Prime_rehash_policy", ptr }
%"struct.std::__detail::_Hash_node_base" = type { ptr }
%"struct.std::__detail::_Prime_rehash_policy" = type { float, i64 }
%"class.rocksdb::DeleteScheduler" = type { ptr, ptr, %"struct.std::atomic", %"struct.std::atomic.11", %"class.rocksdb::InstrumentedMutex", %"class.std::queue", i32, i64, %"class.std::map", i8, i8, [6 x i8], %"class.rocksdb::InstrumentedCondVar", %"class.std::unique_ptr", %"class.rocksdb::InstrumentedMutex", ptr, ptr, %"struct.std::atomic.21", %"class.std::shared_ptr.22" }
%"struct.std::atomic" = type { %"struct.std::__atomic_base" }
%"struct.std::__atomic_base" = type { i64 }
%"struct.std::atomic.11" = type { %"struct.std::__atomic_base.12" }
%"struct.std::__atomic_base.12" = type { i64 }
%"class.std::queue" = type { %"class.std::deque" }
%"class.std::deque" = type { %"class.std::_Deque_base" }
%"class.std::_Deque_base" = type { %"struct.std::_Deque_base<rocksdb::DeleteScheduler::FileAndDir, std::allocator<rocksdb::DeleteScheduler::FileAndDir>>::_Deque_impl" }
%"struct.std::_Deque_base<rocksdb::DeleteScheduler::FileAndDir, std::allocator<rocksdb::DeleteScheduler::FileAndDir>>::_Deque_impl" = type { %"struct.std::_Deque_base<rocksdb::DeleteScheduler::FileAndDir, std::allocator<rocksdb::DeleteScheduler::FileAndDir>>::_Deque_impl_data" }
%"struct.std::_Deque_base<rocksdb::DeleteScheduler::FileAndDir, std::allocator<rocksdb::DeleteScheduler::FileAndDir>>::_Deque_impl_data" = type { ptr, i64, %"struct.std::_Deque_iterator", %"struct.std::_Deque_iterator" }
%"struct.std::_Deque_iterator" = type { ptr, ptr, ptr, ptr }
%"class.std::map" = type { %"class.std::_Rb_tree" }
%"class.std::_Rb_tree" = type { %"struct.std::_Rb_tree<std::__cxx11::basic_string<char>, std::pair<const std::__cxx11::basic_string<char>, rocksdb::Status>, std::_Select1st<std::pair<const std::__cxx11::basic_string<char>, rocksdb::Status>>, std::less<std::__cxx11::basic_string<char>>>::_Rb_tree_impl" }
%"struct.std::_Rb_tree<std::__cxx11::basic_string<char>, std::pair<const std::__cxx11::basic_string<char>, rocksdb::Status>, std::_Select1st<std::pair<const std::__cxx11::basic_string<char>, rocksdb::Status>>, std::less<std::__cxx11::basic_string<char>>>::_Rb_tree_impl" = type { %"struct.std::_Rb_tree_key_compare", %"struct.std::_Rb_tree_header" }
%"struct.std::_Rb_tree_key_compare" = type { %"struct.std::less" }
%"struct.std::less" = type { i8 }
%"struct.std::_Rb_tree_header" = type { %"struct.std::_Rb_tree_node_base", i64 }
%"struct.std::_Rb_tree_node_base" = type { i32, ptr, ptr, ptr }
%"class.rocksdb::InstrumentedCondVar" = type <{ %"class.rocksdb::port::CondVar", ptr, ptr, i32, [4 x i8] }>
%"class.rocksdb::InstrumentedMutex" = type <{ %"class.rocksdb::port::Mutex", ptr, ptr, i32, [4 x i8] }>
%"struct.std::atomic.21" = type { double }
%"class.rocksdb::port::CondVar" = type { %union.pthread_cond_t, ptr }
%union.pthread_cond_t = type { %struct.__pthread_cond_s }
%struct.__pthread_cond_s = type { %union.__atomic_wide_counter, %union.__atomic_wide_counter, [2 x i32], [2 x i32], i32, i32, [2 x i32] }
%union.__atomic_wide_counter = type { i64 }
%"class.std::unique_ptr" = type { %"struct.std::__uniq_ptr_data" }
%"struct.std::__uniq_ptr_data" = type { %"class.std::__uniq_ptr_impl" }
%"class.std::__uniq_ptr_impl" = type { %"class.std::tuple" }
%"class.std::tuple" = type { %"struct.std::_Tuple_impl" }
%"struct.std::_Tuple_impl" = type { %"struct.std::_Head_base.20" }
%"struct.std::_Head_base.20" = type { ptr }
%"class.std::__cxx11::basic_string" = type { %"struct.std::__cxx11::basic_string<char>::_Alloc_hider", i64, %union.anon }
%"struct.std::__cxx11::basic_string<char>::_Alloc_hider" = type { ptr }
%union.anon = type { i64, [8 x i8] }
%"class.rocksdb::Status" = type { i8, i8, i8, i8, i8, i8, %"class.std::unique_ptr.28" }
%"class.std::unique_ptr.28" = type { %"struct.std::__uniq_ptr_data.29" }
%"struct.std::__uniq_ptr_data.29" = type { %"class.std::__uniq_ptr_impl.30" }
%"class.std::__uniq_ptr_impl.30" = type { %"class.std::tuple.31" }
%"class.std::tuple.31" = type { %"struct.std::_Tuple_impl.32" }
%"struct.std::_Tuple_impl.32" = type { %"struct.std::_Head_base.35" }
%"struct.std::_Head_base.35" = type { ptr }
%"class.std::__cxx11::list" = type { %"class.std::__cxx11::_List_base" }
%"class.std::__cxx11::_List_base" = type { %"struct.std::__cxx11::_List_base<rocksdb::ErrorHandler *, std::allocator<rocksdb::ErrorHandler *>>::_List_impl" }
%"struct.std::__cxx11::_List_base<rocksdb::ErrorHandler *, std::allocator<rocksdb::ErrorHandler *>>::_List_impl" = type { %"struct.std::__detail::_List_node_header" }
%"struct.std::__detail::_List_node_header" = type { %"struct.std::__detail::_List_node_base", i64 }
%"struct.std::__detail::_List_node_base" = type { ptr, ptr }
%"class.std::shared_ptr.22" = type { %"class.std::__shared_ptr.23" }
%"class.std::__shared_ptr.23" = type { ptr, %"class.std::__shared_count" }
%"class.rocksdb::MutexLock" = type { ptr }
%"class.rocksdb::IOStatus" = type { %"class.rocksdb::Status" }
%"struct.rocksdb::IOOptions" = type <{ %"class.std::chrono::duration", i8, [3 x i8], i32, i8, [7 x i8], %"class.std::unordered_map.44", i8, i8, i8, [5 x i8] }>
%"class.std::chrono::duration" = type { i64 }
%"class.std::unordered_map.44" = type { %"class.std::_Hashtable.45" }
%"class.std::_Hashtable.45" = type { ptr, i64, %"struct.std::__detail::_Hash_node_base", i64, %"struct.std::__detail::_Prime_rehash_policy", ptr }
%"struct.std::__detail::_Node_iterator" = type { %"struct.std::__detail::_Node_iterator_base" }
%"struct.std::__detail::_Node_iterator_base" = type { ptr }
%"struct.std::pair" = type { %"class.std::__cxx11::basic_string", i64 }
%"struct.rocksdb::FileMetaData" = type <{ %"struct.rocksdb::FileDescriptor", %"class.rocksdb::InternalKey", %"class.rocksdb::InternalKey", ptr, %"struct.rocksdb::FileSampledStats", i64, i64, i64, i64, i64, i64, i64, i32, i8, i8, i8, i8, i64, i64, i64, i64, %"class.std::__cxx11::basic_string", %"class.std::__cxx11::basic_string", %"struct.std::array", i64, i8, [7 x i8] }>
%"struct.rocksdb::FileDescriptor" = type { ptr, i64, i64, i64, i64 }
%"class.rocksdb::InternalKey" = type { %"class.std::__cxx11::basic_string" }
%"struct.rocksdb::FileSampledStats" = type { %"struct.std::atomic" }
%"struct.std::array" = type { [2 x i64] }
%"class.rocksdb::Compaction" = type <{ ptr, i32, i32, i64, i64, i64, i32, [4 x i8], %"struct.rocksdb::ImmutableOptions", %"struct.rocksdb::MutableCFOptions", ptr, %"class.rocksdb::VersionEdit", i32, [4 x i8], ptr, %"class.rocksdb::Arena", i32, i8, [3 x i8], %"struct.rocksdb::CompressionOptions", i8, i8, [6 x i8], ptr, i8, [7 x i8], %"class.std::vector.176", %"class.rocksdb::autovector.181", %"class.std::vector.187", double, i8, i8, i8, [5 x i8], %"class.std::__cxx11::basic_string", i8, [7 x i8], %"class.std::unordered_map.192", %"class.std::unordered_map.192", %"class.rocksdb::Slice", %"class.rocksdb::Slice", i32, i8, i8, [2 x i8], double, i32, [4 x i8], %"class.rocksdb::InternalKey", %"class.rocksdb::InternalKey", i32, [12 x i8] }>
%"struct.rocksdb::ImmutableOptions" = type { %"struct.rocksdb::ImmutableDBOptions.base", [7 x i8], %"struct.rocksdb::ImmutableCFOptions.base", [7 x i8] }
%"struct.rocksdb::ImmutableDBOptions.base" = type <{ i8, i8, i8, i8, i8, i8, i8, i8, ptr, %"class.std::shared_ptr.58", %"class.std::shared_ptr.61", %"class.std::shared_ptr.3", i8, [3 x i8], i32, %"class.std::shared_ptr.22", i8, [7 x i8], %"class.std::vector.64", %"class.std::__cxx11::basic_string", %"class.std::__cxx11::basic_string", i64, i64, i64, i64, i64, i32, [4 x i8], i64, i64, i64, i64, i8, i8, i8, i8, i8, i8, i8, i8, i64, %"class.std::shared_ptr.69", i32, [4 x i8], i64, i8, [7 x i8], %"class.std::vector.72", i8, i8, i8, i8, i8, [3 x i8], i64, i64, i8, i8, i8, i8, [4 x i8], %"class.std::shared_ptr.77", ptr, i8, i8, i8, i8, i8, i8, i8, i8, i8, i8, i8, [5 x i8], i64, %"class.std::shared_ptr.80", i8, [3 x i8], i32, i64, i8, [7 x i8], %"class.std::__cxx11::basic_string", %"class.rocksdb::SmallEnumSet", i8, [7 x i8], %"class.std::shared_ptr.0", ptr, ptr, ptr, %"class.std::shared_ptr.83", i8 }>
%"class.std::shared_ptr.58" = type { %"class.std::__shared_ptr.59" }
%"class.std::__shared_ptr.59" = type { ptr, %"class.std::__shared_count" }
%"class.std::shared_ptr.61" = type { %"class.std::__shared_ptr.62" }
%"class.std::__shared_ptr.62" = type { ptr, %"class.std::__shared_count" }
%"class.std::vector.64" = type { %"struct.std::_Vector_base.65" }
%"struct.std::_Vector_base.65" = type { %"struct.std::_Vector_base<rocksdb::DbPath, std::allocator<rocksdb::DbPath>>::_Vector_impl" }
%"struct.std::_Vector_base<rocksdb::DbPath, std::allocator<rocksdb::DbPath>>::_Vector_impl" = type { %"struct.std::_Vector_base<rocksdb::DbPath, std::allocator<rocksdb::DbPath>>::_Vector_impl_data" }
%"struct.std::_Vector_base<rocksdb::DbPath, std::allocator<rocksdb::DbPath>>::_Vector_impl_data" = type { ptr, ptr, ptr }
%"class.std::shared_ptr.69" = type { %"class.std::__shared_ptr.70" }
%"class.std::__shared_ptr.70" = type { ptr, %"class.std::__shared_count" }
%"class.std::vector.72" = type { %"struct.std::_Vector_base.73" }
%"struct.std::_Vector_base.73" = type { %"struct.std::_Vector_base<std::shared_ptr<rocksdb::EventListener>, std::allocator<std::shared_ptr<rocksdb::EventListener>>>::_Vector_impl" }
%"struct.std::_Vector_base<std::shared_ptr<rocksdb::EventListener>, std::allocator<std::shared_ptr<rocksdb::EventListener>>>::_Vector_impl" = type { %"struct.std::_Vector_base<std::shared_ptr<rocksdb::EventListener>, std::allocator<std::shared_ptr<rocksdb::EventListener>>>::_Vector_impl_data" }
%"struct.std::_Vector_base<std::shared_ptr<rocksdb::EventListener>, std::allocator<std::shared_ptr<rocksdb::EventListener>>>::_Vector_impl_data" = type { ptr, ptr, ptr }
%"class.std::shared_ptr.77" = type { %"class.std::__shared_ptr.78" }
%"class.std::__shared_ptr.78" = type { ptr, %"class.std::__shared_count" }
%"class.std::shared_ptr.80" = type { %"class.std::__shared_ptr.81" }
%"class.std::__shared_ptr.81" = type { ptr, %"class.std::__shared_count" }
%"class.rocksdb::SmallEnumSet" = type { i64 }
%"class.std::shared_ptr.83" = type { %"class.std::__shared_ptr.84" }
%"class.std::__shared_ptr.84" = type { ptr, %"class.std::__shared_count" }
%"struct.rocksdb::ImmutableCFOptions.base" = type <{ i8, i8, [6 x i8], ptr, %"class.rocksdb::InternalKeyComparator", %"class.std::shared_ptr.86", ptr, %"class.std::shared_ptr.89", i32, i32, i64, i8, [7 x i8], ptr, %"class.std::shared_ptr.92", %"class.std::shared_ptr.95", %"class.std::vector.98", i32, i8, i8, [2 x i8], i32, i8, i8, i8, i8, i64, i64, %"class.std::shared_ptr.103", %"class.std::vector.64", %"class.std::shared_ptr.106", %"class.std::shared_ptr.109", %"class.std::shared_ptr.77", i8 }>
%"class.std::shared_ptr.86" = type { %"class.std::__shared_ptr.87" }
%"class.std::__shared_ptr.87" = type { ptr, %"class.std::__shared_count" }
%"class.std::shared_ptr.89" = type { %"class.std::__shared_ptr.90" }
%"class.std::__shared_ptr.90" = type { ptr, %"class.std::__shared_count" }
%"class.std::shared_ptr.92" = type { %"class.std::__shared_ptr.93" }
%"class.std::__shared_ptr.93" = type { ptr, %"class.std::__shared_count" }
%"class.std::shared_ptr.95" = type { %"class.std::__shared_ptr.96" }
%"class.std::__shared_ptr.96" = type { ptr, %"class.std::__shared_count" }
%"class.std::vector.98" = type { %"struct.std::_Vector_base.99" }
%"struct.std::_Vector_base.99" = type { %"struct.std::_Vector_base<std::shared_ptr<rocksdb::TablePropertiesCollectorFactory>, std::allocator<std::shared_ptr<rocksdb::TablePropertiesCollectorFactory>>>::_Vector_impl" }
%"struct.std::_Vector_base<std::shared_ptr<rocksdb::TablePropertiesCollectorFactory>, std::allocator<std::shared_ptr<rocksdb::TablePropertiesCollectorFactory>>>::_Vector_impl" = type { %"struct.std::_Vector_base<std::shared_ptr<rocksdb::TablePropertiesCollectorFactory>, std::allocator<std::shared_ptr<rocksdb::TablePropertiesCollectorFactory>>>::_Vector_impl_data" }
%"struct.std::_Vector_base<std::shared_ptr<rocksdb::TablePropertiesCollectorFactory>, std::allocator<std::shared_ptr<rocksdb::TablePropertiesCollectorFactory>>>::_Vector_impl_data" = type { ptr, ptr, ptr }
%"class.std::shared_ptr.103" = type { %"class.std::__shared_ptr.104" }
%"class.std::__shared_ptr.104" = type { ptr, %"class.std::__shared_count" }
%"class.std::shared_ptr.106" = type { %"class.std::__shared_ptr.107" }
%"class.std::__shared_ptr.107" = type { ptr, %"class.std::__shared_count" }
%"class.std::shared_ptr.109" = type { %"class.std::__shared_ptr.110" }
%"class.std::__shared_ptr.110" = type { ptr, %"class.std::__shared_count" }
%"struct.rocksdb::MutableCFOptions" = type { i64, i32, i64, double, i8, i64, i64, i64, %"class.std::shared_ptr.103", double, i8, i64, i64, i32, i32, i32, i64, i8, i64, i32, i64, double, i64, i64, %"class.std::vector.112", %"struct.rocksdb::CompactionOptionsFIFO", %"class.rocksdb::CompactionOptionsUniversal", i8, i64, i64, i8, i8, double, double, i64, i32, i8, i64, i8, i8, i8, i8, i8, [3 x i8], %"struct.rocksdb::CompressionOptions", %"struct.rocksdb::CompressionOptions", i8, i32, i8, i64, %"class.std::vector.122", i32, i32, %"class.std::vector.127" }
%"class.std::vector.112" = type { %"struct.std::_Vector_base.113" }
%"struct.std::_Vector_base.113" = type { %"struct.std::_Vector_base<int, std::allocator<int>>::_Vector_impl" }
%"struct.std::_Vector_base<int, std::allocator<int>>::_Vector_impl" = type { %"struct.std::_Vector_base<int, std::allocator<int>>::_Vector_impl_data" }
%"struct.std::_Vector_base<int, std::allocator<int>>::_Vector_impl_data" = type { ptr, ptr, ptr }
%"struct.rocksdb::CompactionOptionsFIFO" = type { i64, i8, i64, %"class.std::vector.117" }
%"class.std::vector.117" = type { %"struct.std::_Vector_base.118" }
%"struct.std::_Vector_base.118" = type { %"struct.std::_Vector_base<rocksdb::FileTemperatureAge, std::allocator<rocksdb::FileTemperatureAge>>::_Vector_impl" }
%"struct.std::_Vector_base<rocksdb::FileTemperatureAge, std::allocator<rocksdb::FileTemperatureAge>>::_Vector_impl" = type { %"struct.std::_Vector_base<rocksdb::FileTemperatureAge, std::allocator<rocksdb::FileTemperatureAge>>::_Vector_impl_data" }
%"struct.std::_Vector_base<rocksdb::FileTemperatureAge, std::allocator<rocksdb::FileTemperatureAge>>::_Vector_impl_data" = type { ptr, ptr, ptr }
%"class.rocksdb::CompactionOptionsUniversal" = type <{ i32, i32, i32, i32, i32, i32, i8, i8, [2 x i8] }>
%"class.std::vector.122" = type { %"struct.std::_Vector_base.123" }
%"struct.std::_Vector_base.123" = type { %"struct.std::_Vector_base<rocksdb::CompressionType, std::allocator<rocksdb::CompressionType>>::_Vector_impl" }
%"struct.std::_Vector_base<rocksdb::CompressionType, std::allocator<rocksdb::CompressionType>>::_Vector_impl" = type { %"struct.std::_Vector_base<rocksdb::CompressionType, std::allocator<rocksdb::CompressionType>>::_Vector_impl_data" }
%"struct.std::_Vector_base<rocksdb::CompressionType, std::allocator<rocksdb::CompressionType>>::_Vector_impl_data" = type { ptr, ptr, ptr }
%"class.std::vector.127" = type { %"struct.std::_Vector_base.128" }
%"struct.std::_Vector_base.128" = type { %"struct.std::_Vector_base<unsigned long, std::allocator<unsigned long>>::_Vector_impl" }
%"struct.std::_Vector_base<unsigned long, std::allocator<unsigned long>>::_Vector_impl" = type { %"struct.std::_Vector_base<unsigned long, std::allocator<unsigned long>>::_Vector_impl_data" }
%"struct.std::_Vector_base<unsigned long, std::allocator<unsigned long>>::_Vector_impl_data" = type { ptr, ptr, ptr }
%"class.rocksdb::VersionEdit" = type { i32, %"class.std::__cxx11::basic_string", %"class.std::__cxx11::basic_string", i64, i64, i64, i32, i64, i64, i8, i8, i8, i8, i8, i8, i8, i8, i8, %"class.std::vector.132", %"class.std::set", %"class.std::vector.144", %"class.std::vector.149", %"class.std::vector.154", %"class.std::vector.159", %"class.rocksdb::WalDeletion", i32, i8, i8, %"class.std::__cxx11::basic_string", i8, i32, %"class.std::__cxx11::basic_string", i8, %"class.rocksdb::autovector" }
%"class.std::vector.132" = type { %"struct.std::_Vector_base.133" }
%"struct.std::_Vector_base.133" = type { %"struct.std::_Vector_base<std::pair<int, rocksdb::InternalKey>, std::allocator<std::pair<int, rocksdb::InternalKey>>>::_Vector_impl" }
%"struct.std::_Vector_base<std::pair<int, rocksdb::InternalKey>, std::allocator<std::pair<int, rocksdb::InternalKey>>>::_Vector_impl" = type { %"struct.std::_Vector_base<std::pair<int, rocksdb::InternalKey>, std::allocator<std::pair<int, rocksdb::InternalKey>>>::_Vector_impl_data" }
%"struct.std::_Vector_base<std::pair<int, rocksdb::InternalKey>, std::allocator<std::pair<int, rocksdb::InternalKey>>>::_Vector_impl_data" = type { ptr, ptr, ptr }
%"class.std::set" = type { %"class.std::_Rb_tree.137" }
%"class.std::_Rb_tree.137" = type { %"struct.std::_Rb_tree<std::pair<int, unsigned long>, std::pair<int, unsigned long>, std::_Identity<std::pair<int, unsigned long>>, std::less<std::pair<int, unsigned long>>>::_Rb_tree_impl" }
%"struct.std::_Rb_tree<std::pair<int, unsigned long>, std::pair<int, unsigned long>, std::_Identity<std::pair<int, unsigned long>>, std::less<std::pair<int, unsigned long>>>::_Rb_tree_impl" = type { %"struct.std::_Rb_tree_key_compare.141", %"struct.std::_Rb_tree_header" }
%"struct.std::_Rb_tree_key_compare.141" = type { %"struct.std::less.142" }
%"struct.std::less.142" = type { i8 }
%"class.std::vector.144" = type { %"struct.std::_Vector_base.145" }
%"struct.std::_Vector_base.145" = type { %"struct.std::_Vector_base<std::pair<int, rocksdb::FileMetaData>, std::allocator<std::pair<int, rocksdb::FileMetaData>>>::_Vector_impl" }
%"struct.std::_Vector_base<std::pair<int, rocksdb::FileMetaData>, std::allocator<std::pair<int, rocksdb::FileMetaData>>>::_Vector_impl" = type { %"struct.std::_Vector_base<std::pair<int, rocksdb::FileMetaData>, std::allocator<std::pair<int, rocksdb::FileMetaData>>>::_Vector_impl_data" }
%"struct.std::_Vector_base<std::pair<int, rocksdb::FileMetaData>, std::allocator<std::pair<int, rocksdb::FileMetaData>>>::_Vector_impl_data" = type { ptr, ptr, ptr }
%"class.std::vector.149" = type { %"struct.std::_Vector_base.150" }
%"struct.std::_Vector_base.150" = type { %"struct.std::_Vector_base<rocksdb::BlobFileAddition, std::allocator<rocksdb::BlobFileAddition>>::_Vector_impl" }
%"struct.std::_Vector_base<rocksdb::BlobFileAddition, std::allocator<rocksdb::BlobFileAddition>>::_Vector_impl" = type { %"struct.std::_Vector_base<rocksdb::BlobFileAddition, std::allocator<rocksdb::BlobFileAddition>>::_Vector_impl_data" }
%"struct.std::_Vector_base<rocksdb::BlobFileAddition, std::allocator<rocksdb::BlobFileAddition>>::_Vector_impl_data" = type { ptr, ptr, ptr }
%"class.std::vector.154" = type { %"struct.std::_Vector_base.155" }
%"struct.std::_Vector_base.155" = type { %"struct.std::_Vector_base<rocksdb::BlobFileGarbage, std::allocator<rocksdb::BlobFileGarbage>>::_Vector_impl" }
%"struct.std::_Vector_base<rocksdb::BlobFileGarbage, std::allocator<rocksdb::BlobFileGarbage>>::_Vector_impl" = type { %"struct.std::_Vector_base<rocksdb::BlobFileGarbage, std::allocator<rocksdb::BlobFileGarbage>>::_Vector_impl_data" }
%"struct.std::_Vector_base<rocksdb::BlobFileGarbage, std::allocator<rocksdb::BlobFileGarbage>>::_Vector_impl_data" = type { ptr, ptr, ptr }
%"class.std::vector.159" = type { %"struct.std::_Vector_base.160" }
%"struct.std::_Vector_base.160" = type { %"struct.std::_Vector_base<rocksdb::WalAddition, std::allocator<rocksdb::WalAddition>>::_Vector_impl" }
%"struct.std::_Vector_base<rocksdb::WalAddition, std::allocator<rocksdb::WalAddition>>::_Vector_impl" = type { %"struct.std::_Vector_base<rocksdb::WalAddition, std::allocator<rocksdb::WalAddition>>::_Vector_impl_data" }
%"struct.std::_Vector_base<rocksdb::WalAddition, std::allocator<rocksdb::WalAddition>>::_Vector_impl_data" = type { ptr, ptr, ptr }
%"class.rocksdb::WalDeletion" = type { i64 }
%"class.rocksdb::autovector" = type { i64, [64 x i8], ptr, %"class.std::vector.127" }
%"class.rocksdb::Arena" = type { %"class.rocksdb::Allocator", [8 x i8], [2048 x i8], i64, %"class.std::deque.164", %"class.std::deque.170", i64, ptr, ptr, i64, i64, i64, ptr }
%"class.rocksdb::Allocator" = type { ptr }
%"class.std::deque.164" = type { %"class.std::_Deque_base.165" }
%"class.std::_Deque_base.165" = type { %"struct.std::_Deque_base<std::unique_ptr<char[]>, std::allocator<std::unique_ptr<char[]>>>::_Deque_impl" }
%"struct.std::_Deque_base<std::unique_ptr<char[]>, std::allocator<std::unique_ptr<char[]>>>::_Deque_impl" = type { %"struct.std::_Deque_base<std::unique_ptr<char[]>, std::allocator<std::unique_ptr<char[]>>>::_Deque_impl_data" }
%"struct.std::_Deque_base<std::unique_ptr<char[]>, std::allocator<std::unique_ptr<char[]>>>::_Deque_impl_data" = type { ptr, i64, %"struct.std::_Deque_iterator.169", %"struct.std::_Deque_iterator.169" }
%"struct.std::_Deque_iterator.169" = type { ptr, ptr, ptr, ptr }
%"class.std::deque.170" = type { %"class.std::_Deque_base.171" }
%"class.std::_Deque_base.171" = type { %"struct.std::_Deque_base<rocksdb::MemMapping, std::allocator<rocksdb::MemMapping>>::_Deque_impl" }
%"struct.std::_Deque_base<rocksdb::MemMapping, std::allocator<rocksdb::MemMapping>>::_Deque_impl" = type { %"struct.std::_Deque_base<rocksdb::MemMapping, std::allocator<rocksdb::MemMapping>>::_Deque_impl_data" }
%"struct.std::_Deque_base<rocksdb::MemMapping, std::allocator<rocksdb::MemMapping>>::_Deque_impl_data" = type { ptr, i64, %"struct.std::_Deque_iterator.175", %"struct.std::_Deque_iterator.175" }
%"struct.std::_Deque_iterator.175" = type { ptr, ptr, ptr, ptr }
%"struct.rocksdb::CompressionOptions" = type <{ i32, i32, i32, i32, i32, i32, i8, [7 x i8], i64, i8, [3 x i8], i32, i8, [7 x i8] }>
%"class.std::vector.176" = type { %"struct.std::_Vector_base.177" }
%"struct.std::_Vector_base.177" = type { %"struct.std::_Vector_base<rocksdb::CompactionInputFiles, std::allocator<rocksdb::CompactionInputFiles>>::_Vector_impl" }
%"struct.std::_Vector_base<rocksdb::CompactionInputFiles, std::allocator<rocksdb::CompactionInputFiles>>::_Vector_impl" = type { %"struct.std::_Vector_base<rocksdb::CompactionInputFiles, std::allocator<rocksdb::CompactionInputFiles>>::_Vector_impl_data" }
%"struct.std::_Vector_base<rocksdb::CompactionInputFiles, std::allocator<rocksdb::CompactionInputFiles>>::_Vector_impl_data" = type { ptr, ptr, ptr }
%"class.rocksdb::autovector.181" = type { i64, [32 x i8], ptr, %"class.std::vector.182" }
%"class.std::vector.182" = type { %"struct.std::_Vector_base.183" }
%"struct.std::_Vector_base.183" = type { %"struct.std::_Vector_base<rocksdb::LevelFilesBrief, std::allocator<rocksdb::LevelFilesBrief>>::_Vector_impl" }
%"struct.std::_Vector_base<rocksdb::LevelFilesBrief, std::allocator<rocksdb::LevelFilesBrief>>::_Vector_impl" = type { %"struct.std::_Vector_base<rocksdb::LevelFilesBrief, std::allocator<rocksdb::LevelFilesBrief>>::_Vector_impl_data" }
%"struct.std::_Vector_base<rocksdb::LevelFilesBrief, std::allocator<rocksdb::LevelFilesBrief>>::_Vector_impl_data" = type { ptr, ptr, ptr }
%"class.std::vector.187" = type { %"struct.std::_Vector_base.188" }
%"struct.std::_Vector_base.188" = type { %"struct.std::_Vector_base<rocksdb::FileMetaData *, std::allocator<rocksdb::FileMetaData *>>::_Vector_impl" }
%"struct.std::_Vector_base<rocksdb::FileMetaData *, std::allocator<rocksdb::FileMetaData *>>::_Vector_impl" = type { %"struct.std::_Vector_base<rocksdb::FileMetaData *, std::allocator<rocksdb::FileMetaData *>>::_Vector_impl_data" }
%"struct.std::_Vector_base<rocksdb::FileMetaData *, std::allocator<rocksdb::FileMetaData *>>::_Vector_impl_data" = type { ptr, ptr, ptr }
%"class.std::unordered_map.192" = type { %"class.std::_Hashtable.193" }
%"class.std::_Hashtable.193" = type { ptr, i64, %"struct.std::__detail::_Hash_node_base", i64, %"struct.std::__detail::_Prime_rehash_policy", ptr }
%"struct.rocksdb::ImmutableCFOptions" = type <{ i8, i8, [6 x i8], ptr, %"class.rocksdb::InternalKeyComparator", %"class.std::shared_ptr.86", ptr, %"class.std::shared_ptr.89", i32, i32, i64, i8, [7 x i8], ptr, %"class.std::shared_ptr.92", %"class.std::shared_ptr.95", %"class.std::vector.98", i32, i8, i8, [2 x i8], i32, i8, i8, i8, i8, i64, i64, %"class.std::shared_ptr.103", %"class.std::vector.64", %"class.std::shared_ptr.106", %"class.std::shared_ptr.109", %"class.std::shared_ptr.77", i8, [7 x i8] }>
%"struct.rocksdb::CompactionInputFiles" = type { i32, %"class.std::vector.187", %"class.std::vector.206" }
%"class.std::vector.206" = type { %"struct.std::_Vector_base.207" }
%"struct.std::_Vector_base.207" = type { %"struct.std::_Vector_base<rocksdb::AtomicCompactionUnitBoundary, std::allocator<rocksdb::AtomicCompactionUnitBoundary>>::_Vector_impl" }
%"struct.std::_Vector_base<rocksdb::AtomicCompactionUnitBoundary, std::allocator<rocksdb::AtomicCompactionUnitBoundary>>::_Vector_impl" = type { %"struct.std::_Vector_base<rocksdb::AtomicCompactionUnitBoundary, std::allocator<rocksdb::AtomicCompactionUnitBoundary>>::_Vector_impl_data" }
%"struct.std::_Vector_base<rocksdb::AtomicCompactionUnitBoundary, std::allocator<rocksdb::AtomicCompactionUnitBoundary>>::_Vector_impl_data" = type { ptr, ptr, ptr }
%"class.rocksdb::ColumnFamilyData" = type { i32, %"class.std::__cxx11::basic_string", ptr, ptr, %"struct.std::atomic.211", %"struct.std::atomic.213", %"struct.std::atomic.213", %"class.rocksdb::InternalKeyComparator", %"class.std::vector.215", %"struct.rocksdb::ColumnFamilyOptions", %"struct.rocksdb::ImmutableOptions", %"struct.rocksdb::MutableCFOptions", i8, %"class.std::unique_ptr.220", %"class.std::unique_ptr.228", %"class.std::unique_ptr.236", %"class.std::unique_ptr.244", ptr, ptr, %"class.rocksdb::MemTableList", ptr, %"struct.std::atomic", %"class.std::unique_ptr.252", ptr, ptr, i64, %"class.std::unique_ptr.260", ptr, %"class.std::unique_ptr.268", i8, i8, i64, i8, %"struct.std::atomic", %"class.std::vector.276", i8, %"class.std::__cxx11::basic_string", %"class.std::shared_ptr.281", i8, %"struct.std::atomic" }
%"struct.std::atomic.211" = type { %"struct.std::__atomic_base.212" }
%"struct.std::__atomic_base.212" = type { i32 }
%"struct.std::atomic.213" = type { %"struct.std::__atomic_base.214" }
%"struct.std::__atomic_base.214" = type { i8 }
%"class.std::vector.215" = type { %"struct.std::_Vector_base.216" }
%"struct.std::_Vector_base.216" = type { %"struct.std::_Vector_base<std::unique_ptr<rocksdb::IntTblPropCollectorFactory>, std::allocator<std::unique_ptr<rocksdb::IntTblPropCollectorFactory>>>::_Vector_impl" }
%"struct.std::_Vector_base<std::unique_ptr<rocksdb::IntTblPropCollectorFactory>, std::allocator<std::unique_ptr<rocksdb::IntTblPropCollectorFactory>>>::_Vector_impl" = type { %"struct.std::_Vector_base<std::unique_ptr<rocksdb::IntTblPropCollectorFactory>, std::allocator<std::unique_ptr<rocksdb::IntTblPropCollectorFactory>>>::_Vector_impl_data" }
%"struct.std::_Vector_base<std::unique_ptr<rocksdb::IntTblPropCollectorFactory>, std::allocator<std::unique_ptr<rocksdb::IntTblPropCollectorFactory>>>::_Vector_impl_data" = type { ptr, ptr, ptr }
%"struct.rocksdb::ColumnFamilyOptions" = type <{ %"struct.rocksdb::AdvancedColumnFamilyOptions", ptr, %"class.std::shared_ptr.86", ptr, %"class.std::shared_ptr.89", i64, i8, i8, [6 x i8], %"struct.rocksdb::CompressionOptions", %"struct.rocksdb::CompressionOptions", i32, [4 x i8], %"class.std::shared_ptr.103", i64, i64, i8, [7 x i8], %"class.std::shared_ptr.95", %"class.std::vector.64", %"class.std::shared_ptr.106", %"class.std::shared_ptr.109", i32, [4 x i8] }>
%"struct.rocksdb::AdvancedColumnFamilyOptions" = type { i32, i32, i32, i64, i8, i64, double, ptr, double, i8, i64, %"class.std::shared_ptr.103", i32, i64, %"class.std::vector.122", i32, i32, i32, i64, i32, i8, i8, double, %"class.std::vector.112", i64, i8, i64, i64, i8, i8, [2 x i8], %"class.rocksdb::CompactionOptionsUniversal", %"struct.rocksdb::CompactionOptionsFIFO", i64, %"class.std::shared_ptr.92", %"class.std::vector.98", i64, i8, i8, i8, i8, i8, i64, i64, i64, i8, i8, i8, i64, i64, i8, i64, i64, i8, i8, double, double, i64, i32, %"class.std::shared_ptr.77", i8, i32, i8, i8, i32 }
%"class.std::unique_ptr.220" = type { %"struct.std::__uniq_ptr_data.221" }
%"struct.std::__uniq_ptr_data.221" = type { %"class.std::__uniq_ptr_impl.222" }
%"class.std::__uniq_ptr_impl.222" = type { %"class.std::tuple.223" }
%"class.std::tuple.223" = type { %"struct.std::_Tuple_impl.224" }
%"struct.std::_Tuple_impl.224" = type { %"struct.std::_Head_base.227" }
%"struct.std::_Head_base.227" = type { ptr }
%"class.std::unique_ptr.228" = type { %"struct.std::__uniq_ptr_data.229" }
%"struct.std::__uniq_ptr_data.229" = type { %"class.std::__uniq_ptr_impl.230" }
%"class.std::__uniq_ptr_impl.230" = type { %"class.std::tuple.231" }
%"class.std::tuple.231" = type { %"struct.std::_Tuple_impl.232" }
%"struct.std::_Tuple_impl.232" = type { %"struct.std::_Head_base.235" }
%"struct.std::_Head_base.235" = type { ptr }
%"class.std::unique_ptr.236" = type { %"struct.std::__uniq_ptr_data.237" }
%"struct.std::__uniq_ptr_data.237" = type { %"class.std::__uniq_ptr_impl.238" }
%"class.std::__uniq_ptr_impl.238" = type { %"class.std::tuple.239" }
%"class.std::tuple.239" = type { %"struct.std::_Tuple_impl.240" }
%"struct.std::_Tuple_impl.240" = type { %"struct.std::_Head_base.243" }
%"struct.std::_Head_base.243" = type { ptr }
%"class.std::unique_ptr.244" = type { %"struct.std::__uniq_ptr_data.245" }
%"struct.std::__uniq_ptr_data.245" = type { %"class.std::__uniq_ptr_impl.246" }
%"class.std::__uniq_ptr_impl.246" = type { %"class.std::tuple.247" }
%"class.std::tuple.247" = type { %"struct.std::_Tuple_impl.248" }
%"struct.std::_Tuple_impl.248" = type { %"struct.std::_Head_base.251" }
%"struct.std::_Head_base.251" = type { ptr }
%"class.rocksdb::MemTableList" = type <{ %"struct.std::atomic.213", %"struct.std::atomic.213", [2 x i8], i32, ptr, i32, i8, i8, [2 x i8], i64, %"struct.std::atomic", %"struct.std::atomic.213", [7 x i8] }>
%"class.std::unique_ptr.252" = type { %"struct.std::__uniq_ptr_data.253" }
%"struct.std::__uniq_ptr_data.253" = type { %"class.std::__uniq_ptr_impl.254" }
%"class.std::__uniq_ptr_impl.254" = type { %"class.std::tuple.255" }
%"class.std::tuple.255" = type { %"struct.std::_Tuple_impl.256" }
%"struct.std::_Tuple_impl.256" = type { %"struct.std::_Head_base.259" }
%"struct.std::_Head_base.259" = type { ptr }
%"class.std::unique_ptr.260" = type { %"struct.std::__uniq_ptr_data.261" }
%"struct.std::__uniq_ptr_data.261" = type { %"class.std::__uniq_ptr_impl.262" }
%"class.std::__uniq_ptr_impl.262" = type { %"class.std::tuple.263" }
%"class.std::tuple.263" = type { %"struct.std::_Tuple_impl.264" }
%"struct.std::_Tuple_impl.264" = type { %"struct.std::_Head_base.267" }
%"struct.std::_Head_base.267" = type { ptr }
%"class.std::unique_ptr.268" = type { %"struct.std::__uniq_ptr_data.269" }
%"struct.std::__uniq_ptr_data.269" = type { %"class.std::__uniq_ptr_impl.270" }
%"class.std::__uniq_ptr_impl.270" = type { %"class.std::tuple.271" }
%"class.std::tuple.271" = type { %"struct.std::_Tuple_impl.272" }
%"struct.std::_Tuple_impl.272" = type { %"struct.std::_Head_base.275" }
%"struct.std::_Head_base.275" = type { ptr }
%"class.std::vector.276" = type { %"struct.std::_Vector_base.277" }
%"struct.std::_Vector_base.277" = type { %"struct.std::_Vector_base<std::shared_ptr<rocksdb::FSDirectory>, std::allocator<std::shared_ptr<rocksdb::FSDirectory>>>::_Vector_impl" }
%"struct.std::_Vector_base<std::shared_ptr<rocksdb::FSDirectory>, std::allocator<std::shared_ptr<rocksdb::FSDirectory>>>::_Vector_impl" = type { %"struct.std::_Vector_base<std::shared_ptr<rocksdb::FSDirectory>, std::allocator<std::shared_ptr<rocksdb::FSDirectory>>>::_Vector_impl_data" }
%"struct.std::_Vector_base<std::shared_ptr<rocksdb::FSDirectory>, std::allocator<std::shared_ptr<rocksdb::FSDirectory>>>::_Vector_impl_data" = type { ptr, ptr, ptr }
%"class.std::shared_ptr.281" = type { %"class.std::__shared_ptr.282" }
%"class.std::__shared_ptr.282" = type { ptr, %"class.std::__shared_count" }
%"struct.std::_List_iterator" = type { ptr }
%"class.rocksdb::ErrorHandler" = type { ptr, ptr, %"class.rocksdb::Status", %"class.rocksdb::IOStatus", %"class.rocksdb::InstrumentedCondVar", i8, %"class.std::unique_ptr", ptr, i8, i8, i8, i8, %"struct.rocksdb::DBRecoverContext", %"struct.std::atomic.213", %"class.std::shared_ptr.22", %"class.rocksdb::autovector" }
%"struct.rocksdb::DBRecoverContext" = type <{ i32, i8, [3 x i8] }>
%"class.std::unique_ptr.310" = type { %"struct.std::__uniq_ptr_data.311" }
%"struct.std::__uniq_ptr_data.311" = type { %"class.std::__uniq_ptr_impl.312" }
%"class.std::__uniq_ptr_impl.312" = type { %"class.std::tuple.313" }
%"class.std::tuple.313" = type { %"struct.std::_Tuple_impl.314" }
%"struct.std::_Tuple_impl.314" = type { %"struct.std::_Head_base.317" }
%"struct.std::_Head_base.317" = type { ptr }
%"class.std::thread" = type { %"class.std::thread::id" }
%"class.std::thread::id" = type { i64 }
%"struct.std::_List_const_iterator" = type { ptr }
%"class.std::vector.284" = type { %"struct.std::_Vector_base.285" }
%"struct.std::_Vector_base.285" = type { %"struct.std::_Vector_base<std::__cxx11::basic_string<char>, std::allocator<std::__cxx11::basic_string<char>>>::_Vector_impl" }
%"struct.std::_Vector_base<std::__cxx11::basic_string<char>, std::allocator<std::__cxx11::basic_string<char>>>::_Vector_impl" = type { %"struct.std::_Vector_base<std::__cxx11::basic_string<char>, std::allocator<std::__cxx11::basic_string<char>>>::_Vector_impl_data" }
%"struct.std::_Vector_base<std::__cxx11::basic_string<char>, std::allocator<std::__cxx11::basic_string<char>>>::_Vector_impl_data" = type { ptr, ptr, ptr }
%"class.__gnu_cxx::__normal_iterator" = type { ptr }
%"class.std::_Sp_counted_base" = type { ptr, i32, i32 }
%"struct.std::__detail::_Hash_node_value_base" = type { %"struct.__gnu_cxx::__aligned_buffer" }
%"struct.__gnu_cxx::__aligned_buffer" = type { %"union.std::aligned_storage<40, 8>::type" }
%"union.std::aligned_storage<40, 8>::type" = type { [40 x i8] }
%"class.std::allocator.292" = type { i8 }
%"struct.std::_List_node" = type { %"struct.std::__detail::_List_node_base", %"struct.__gnu_cxx::__aligned_membuf" }
%"struct.__gnu_cxx::__aligned_membuf" = type { [8 x i8] }
%"struct.std::__detail::_Hash_node_value_base.297" = type { %"struct.__gnu_cxx::__aligned_buffer.298" }
%"struct.__gnu_cxx::__aligned_buffer.298" = type { %"union.std::aligned_storage<64, 8>::type" }
%"union.std::aligned_storage<64, 8>::type" = type { [64 x i8] }
%"struct.std::pair.301" = type { %"class.std::__cxx11::basic_string", %"class.std::__cxx11::basic_string" }
%"class.std::allocator.8" = type { i8 }
%"struct.std::__detail::_AllocNode" = type { ptr }
%"struct.std::__detail::_Hash_node_code_cache" = type { i64 }
%"struct.std::__detail::_Mod_range_hashing" = type { i8 }
%"class.rocksdb::InstrumentedMutexLock" = type { ptr }
%"struct.std::_Hashtable<std::__cxx11::basic_string<char>, std::pair<const std::__cxx11::basic_string<char>, unsigned long>, std::allocator<std::pair<const std::__cxx11::basic_string<char>, unsigned long>>, std::__detail::_Select1st, std::equal_to<std::__cxx11::basic_string<char>>, std::hash<string>, std::__detail::_Mod_range_hashing, std::__detail::_Default_ranged_hash, std::__detail::_Prime_rehash_policy, std::__detail::_Hashtable_traits<true, false, true>>::_Scoped_node" = type { ptr, ptr }
%"class.std::tuple.303" = type { %"struct.std::_Tuple_impl.304" }
%"struct.std::_Tuple_impl.304" = type { %"struct.std::_Head_base.305" }
%"struct.std::_Head_base.305" = type { ptr }
%"class.std::tuple.306" = type { i8 }
%"struct.std::pair.308" = type { i8, i64 }
%"struct.std::__detail::_Select1st" = type { i8 }
%"struct.std::__allocated_ptr" = type { ptr, ptr }
%"struct.std::thread::_State_impl" = type { %"struct.std::thread::_State", %"struct.std::thread::_Invoker" }
%"struct.std::thread::_State" = type { ptr }
%"struct.std::thread::_Invoker" = type { %"class.std::tuple.318" }
%"class.std::tuple.318" = type { %"struct.std::_Tuple_impl.319" }
%"struct.std::_Tuple_impl.319" = type { %"struct.std::_Tuple_impl.320", %"struct.std::_Head_base.322" }
%"struct.std::_Tuple_impl.320" = type { %"struct.std::_Head_base.321" }
%"struct.std::_Head_base.321" = type { ptr }
%"struct.std::_Head_base.322" = type { { i64, i64 } }
%"struct.std::__detail::_Node_const_iterator" = type { %"struct.std::__detail::_Node_iterator_base" }

$_ZNK7rocksdb21InternalKeyComparator7CompareERKNS_5SliceES3_ = comdat any

$_ZNK7rocksdb21UserComparatorWrapper7CompareERKNS_5SliceES3_ = comdat any

$_ZN7rocksdb14ExtractUserKeyERKNS_5SliceE = comdat any

$_ZN7rocksdb13DecodeFixed64EPKc = comdat any

$_ZNK7rocksdb5Slice4dataEv = comdat any

$_ZNK7rocksdb5Slice4sizeEv = comdat any

$_ZNSt6vectorIN7rocksdb5SliceESaIS1_EEC2Ev = comdat any

$_ZNSt6vectorIN7rocksdb5SliceESaIS1_EED2Ev = comdat any

$_ZN7rocksdb14SstFileManagerC2Ev = comdat any

$_ZNSt10shared_ptrIN7rocksdb11SystemClockEEC2ERKS2_ = comdat any

$_ZNSt10shared_ptrIN7rocksdb10FileSystemEEC2ERKS2_ = comdat any

$_ZNSt10shared_ptrIN7rocksdb6LoggerEEC2ERKS2_ = comdat any

$_ZNSt13unordered_mapINSt7__cxx1112basic_stringIcSt11char_traitsIcESaIcEEEmSt4hashIS5_ESt8equal_toIS5_ESaISt4pairIKS5_mEEEC2Ev = comdat any

$_ZNKSt12__shared_ptrIN7rocksdb11SystemClockELN9__gnu_cxx12_Lock_policyE2EE3getEv = comdat any

$_ZNKSt12__shared_ptrIN7rocksdb10FileSystemELN9__gnu_cxx12_Lock_policyE2EE3getEv = comdat any

$_ZNKSt12__shared_ptrIN7rocksdb6LoggerELN9__gnu_cxx12_Lock_policyE2EE3getEv = comdat any

$_ZNSt10unique_ptrISt6threadSt14default_deleteIS0_EEC2IS2_vEEDn = comdat any

$_ZN7rocksdb6StatusC2Ev = comdat any

$_ZNSt7__cxx114listIPN7rocksdb12ErrorHandlerESaIS3_EEC2Ev = comdat any

$_ZNSt10shared_ptrIN7rocksdb10StatisticsEEC2Ev = comdat any

$_ZNSt10unique_ptrISt6threadSt14default_deleteIS0_EED2Ev = comdat any

$_ZNSt13unordered_mapINSt7__cxx1112basic_stringIcSt11char_traitsIcESaIcEEEmSt4hashIS5_ESt8equal_toIS5_ESaISt4pairIKS5_mEEED2Ev = comdat any

$_ZNSt10shared_ptrIN7rocksdb6LoggerEED2Ev = comdat any

$_ZNSt10shared_ptrIN7rocksdb10FileSystemEED2Ev = comdat any

$_ZNSt10shared_ptrIN7rocksdb11SystemClockEED2Ev = comdat any

$__clang_call_terminate = comdat any

$_ZNK7rocksdb6Status20PermitUncheckedErrorEv = comdat any

$_ZNSt10shared_ptrIN7rocksdb10StatisticsEED2Ev = comdat any

$_ZNSt7__cxx114listIPN7rocksdb12ErrorHandlerESaIS3_EED2Ev = comdat any

$_ZN7rocksdb6StatusD2Ev = comdat any

$_ZN7rocksdb9MutexLockC2EPNS_4port5MutexE = comdat any

$_ZN7rocksdb9MutexLockD2Ev = comdat any

$_ZNKSt10unique_ptrISt6threadSt14default_deleteIS0_EEcvbEv = comdat any

$_ZNKSt10unique_ptrISt6threadSt14default_deleteIS0_EEptEv = comdat any

$_ZNKSt19__shared_ptr_accessIN7rocksdb10FileSystemELN9__gnu_cxx12_Lock_policyE2ELb0ELb0EEptEv = comdat any

$_ZN7rocksdb9IOOptionsC2Ev = comdat any

$_ZN7rocksdb6StatusC2EOS0_ = comdat any

$_ZN7rocksdb8IOStatusD2Ev = comdat any

$_ZN7rocksdb9IOOptionsD2Ev = comdat any

$_ZNK7rocksdb6Status2okEv = comdat any

$_ZN7rocksdb6Status2OKEv = comdat any

$_ZNK7rocksdb10Compaction16num_input_levelsEv = comdat any

$_ZNK7rocksdb10Compaction15num_input_filesEm = comdat any

$_ZNK7rocksdb10Compaction5inputEmm = comdat any

$_ZNK7rocksdb14FileDescriptor11GetFileSizeEv = comdat any

$_ZNSt13unordered_mapINSt7__cxx1112basic_stringIcSt11char_traitsIcESaIcEEEmSt4hashIS5_ESt8equal_toIS5_ESaISt4pairIKS5_mEEEixERSB_ = comdat any

$_ZNKSt6vectorIN7rocksdb20CompactionInputFilesESaIS1_EE4sizeEv = comdat any

$_ZNKSt6vectorIN7rocksdb20CompactionInputFilesESaIS1_EEixEm = comdat any

$_ZNK7rocksdb20CompactionInputFiles4sizeEv = comdat any

$_ZNK7rocksdb20CompactionInputFilesixEm = comdat any

$_ZNK7rocksdb6Status9IsNoSpaceEv = comdat any

$_ZN7rocksdb18SstFileManagerImpl14CheckFreeSpaceEv = comdat any

$_ZNK7rocksdb16ColumnFamilyData8ioptionsEv = comdat any

$_ZNK7rocksdb14FileDescriptor9GetNumberEv = comdat any

$_ZNK7rocksdb14FileDescriptor9GetPathIdEv = comdat any

$_Z23RocksLogShorterFileNamePKc = comdat any

$_ZNSt13unordered_mapINSt7__cxx1112basic_stringIcSt11char_traitsIcESaIcEEEmSt4hashIS5_ESt8equal_toIS5_ESaISt4pairIKS5_mEEEC2ERKSE_ = comdat any

$_ZN7rocksdb15DeleteScheduler21GetRateBytesPerSecondEv = comdat any

$_ZN7rocksdb15DeleteScheduler21SetRateBytesPerSecondEl = comdat any

$_ZN7rocksdb15DeleteScheduler18GetMaxTrashDBRatioEv = comdat any

$_ZN7rocksdb15DeleteScheduler18SetMaxTrashDBRatioEd = comdat any

$_ZN7rocksdb15DeleteScheduler17GetTotalTrashSizeEv = comdat any

$_ZNKSt7__cxx114listIPN7rocksdb12ErrorHandlerESaIS3_EE5emptyEv = comdat any

$_ZSt3minImERKT_S2_S2_ = comdat any

$_ZNK7rocksdb6Status8severityEv = comdat any

$_ZN7rocksdb6Status7NoSpaceEv = comdat any

$_ZN7rocksdb6StatusaSEOS0_ = comdat any

$_ZNSt7__cxx114listIPN7rocksdb12ErrorHandlerESaIS3_EE5frontEv = comdat any

$_ZNK7rocksdb12ErrorHandler10GetBGErrorEv = comdat any

$_ZNK7rocksdb6Status7subcodeEv = comdat any

$_ZN7rocksdb6StatusaSERKS0_ = comdat any

$_ZNK7rocksdb6Status20IsShutdownInProgressEv = comdat any

$_ZNSt7__cxx114listIPN7rocksdb12ErrorHandlerESaIS3_EE9pop_frontEv = comdat any

$_ZNKSt19__shared_ptr_accessIN7rocksdb11SystemClockELN9__gnu_cxx12_Lock_policyE2ELb0ELb0EEptEv = comdat any

$_ZNSt7__cxx114listIPN7rocksdb12ErrorHandlerESaIS3_EE9push_backERKS3_ = comdat any

$_ZNSt10unique_ptrISt6threadSt14default_deleteIS0_EE5resetEPS0_ = comdat any

$_ZNSt6threadC2IMN7rocksdb18SstFileManagerImplEFvvEJPS2_EvEEOT_DpOT0_ = comdat any

$_ZNSt7__cxx114listIPN7rocksdb12ErrorHandlerESaIS3_EE5beginEv = comdat any

$_ZStneRKSt14_List_iteratorIPN7rocksdb12ErrorHandlerEES5_ = comdat any

$_ZNSt7__cxx114listIPN7rocksdb12ErrorHandlerESaIS3_EE3endEv = comdat any

$_ZNKSt14_List_iteratorIPN7rocksdb12ErrorHandlerEEdeEv = comdat any

$_ZNSt14_List_iteratorIPN7rocksdb12ErrorHandlerEEppEv = comdat any

$_ZNSt7__cxx114listIPN7rocksdb12ErrorHandlerESaIS3_EE5eraseESt20_List_const_iteratorIS3_E = comdat any

$_ZNSt20_List_const_iteratorIPN7rocksdb12ErrorHandlerEEC2ERKSt14_List_iteratorIS2_E = comdat any

$_ZNSt13unordered_mapINSt7__cxx1112basic_stringIcSt11char_traitsIcESaIcEEEmSt4hashIS5_ESt8equal_toIS5_ESaISt4pairIKS5_mEEE4findERSB_ = comdat any

$_ZNSt8__detailneERKNS_19_Node_iterator_baseISt4pairIKNSt7__cxx1112basic_stringIcSt11char_traitsIcESaIcEEEmELb1EEESC_ = comdat any

$_ZNSt13unordered_mapINSt7__cxx1112basic_stringIcSt11char_traitsIcESaIcEEEmSt4hashIS5_ESt8equal_toIS5_ESaISt4pairIKS5_mEEE3endEv = comdat any

$_ZNKSt8__detail14_Node_iteratorISt4pairIKNSt7__cxx1112basic_stringIcSt11char_traitsIcESaIcEEEmELb0ELb1EEptEv = comdat any

$_ZNSt8__detaileqERKNS_19_Node_iterator_baseISt4pairIKNSt7__cxx1112basic_stringIcSt11char_traitsIcESaIcEEEmELb1EEESC_ = comdat any

$_ZNSt13unordered_mapINSt7__cxx1112basic_stringIcSt11char_traitsIcESaIcEEEmSt4hashIS5_ESt8equal_toIS5_ESaISt4pairIKS5_mEEE5eraseENSt8__detail14_Node_iteratorISC_Lb0ELb1EEE = comdat any

$_ZStneIcSt11char_traitsIcESaIcEEbRKNSt7__cxx1112basic_stringIT_T0_T1_EEPKS5_ = comdat any

$_ZNSt6vectorINSt7__cxx1112basic_stringIcSt11char_traitsIcESaIcEEESaIS5_EEC2Ev = comdat any

$_ZNSt6vectorINSt7__cxx1112basic_stringIcSt11char_traitsIcESaIcEEESaIS5_EE5beginEv = comdat any

$_ZNSt6vectorINSt7__cxx1112basic_stringIcSt11char_traitsIcESaIcEEESaIS5_EE3endEv = comdat any

$_ZN9__gnu_cxxneIPNSt7__cxx1112basic_stringIcSt11char_traitsIcESaIcEEESt6vectorIS6_SaIS6_EEEEbRKNS_17__normal_iteratorIT_T0_EESG_ = comdat any

$_ZNK9__gnu_cxx17__normal_iteratorIPNSt7__cxx1112basic_stringIcSt11char_traitsIcESaIcEEESt6vectorIS6_SaIS6_EEEdeEv = comdat any

$_ZStplIcSt11char_traitsIcESaIcEENSt7__cxx1112basic_stringIT_T0_T1_EEOS8_RKS8_ = comdat any

$_ZStplIcSt11char_traitsIcESaIcEENSt7__cxx1112basic_stringIT_T0_T1_EERKS8_PKS5_ = comdat any

$_ZN9__gnu_cxx17__normal_iteratorIPNSt7__cxx1112basic_stringIcSt11char_traitsIcESaIcEEESt6vectorIS6_SaIS6_EEEppEv = comdat any

$_ZNSt6vectorINSt7__cxx1112basic_stringIcSt11char_traitsIcESaIcEEESaIS5_EED2Ev = comdat any

$_ZN7rocksdb21InternalKeyComparatorD2Ev = comdat any

$_ZN7rocksdb21InternalKeyComparatorD0Ev = comdat any

$_ZN7rocksdb18SstFileManagerImpl16SetStatisticsPtrERKSt10shared_ptrINS_10StatisticsEE = comdat any

$_ZTWN7rocksdb10perf_levelE = comdat any

$_ZTWN7rocksdb12perf_contextE = comdat any

$_ZN7rocksdb5SliceC2EPKcm = comdat any

$_ZNSt12_Vector_baseIN7rocksdb5SliceESaIS1_EEC2Ev = comdat any

$_ZNSt12_Vector_baseIN7rocksdb5SliceESaIS1_EE12_Vector_implC2Ev = comdat any

$_ZNSaIN7rocksdb5SliceEEC2Ev = comdat any

$_ZNSt12_Vector_baseIN7rocksdb5SliceESaIS1_EE17_Vector_impl_dataC2Ev = comdat any

$_ZNSt15__new_allocatorIN7rocksdb5SliceEEC2Ev = comdat any

$_ZN7rocksdb14SstFileManagerD2Ev = comdat any

$_ZN7rocksdb14SstFileManagerD0Ev = comdat any

$_ZNSt12__shared_ptrIN7rocksdb11SystemClockELN9__gnu_cxx12_Lock_policyE2EEC2ERKS4_ = comdat any

$_ZNSt14__shared_countILN9__gnu_cxx12_Lock_policyE2EEC2ERKS2_ = comdat any

$_ZNSt16_Sp_counted_baseILN9__gnu_cxx12_Lock_policyE2EE15_M_add_ref_copyEv = comdat any

$_ZNSt12__shared_ptrIN7rocksdb10FileSystemELN9__gnu_cxx12_Lock_policyE2EEC2ERKS4_ = comdat any

$_ZNSt12__shared_ptrIN7rocksdb6LoggerELN9__gnu_cxx12_Lock_policyE2EEC2ERKS4_ = comdat any

$_ZNSt10_HashtableINSt7__cxx1112basic_stringIcSt11char_traitsIcESaIcEEESt4pairIKS5_mESaIS8_ENSt8__detail10_Select1stESt8equal_toIS5_ESt4hashIS5_ENSA_18_Mod_range_hashingENSA_20_Default_ranged_hashENSA_20_Prime_rehash_policyENSA_17_Hashtable_traitsILb1ELb0ELb1EEEEC2Ev = comdat any

$_ZNSt8__detail15_Hashtable_baseINSt7__cxx1112basic_stringIcSt11char_traitsIcESaIcEEESt4pairIKS6_mENS_10_Select1stESt8equal_toIS6_ESt4hashIS6_ENS_18_Mod_range_hashingENS_20_Default_ranged_hashENS_17_Hashtable_traitsILb1ELb0ELb1EEEEC2Ev = comdat any

$_ZNSt8__detail16_Hashtable_allocISaINS_10_Hash_nodeISt4pairIKNSt7__cxx1112basic_stringIcSt11char_traitsIcESaIcEEEmELb1EEEEEC2Ev = comdat any

$_ZNSt8__detail15_Hash_node_baseC2Ev = comdat any

$_ZNSt8__detail20_Prime_rehash_policyC2Ef = comdat any

$_ZNSt8__detail15_Hash_code_baseINSt7__cxx1112basic_stringIcSt11char_traitsIcESaIcEEESt4pairIKS6_mENS_10_Select1stESt4hashIS6_ENS_18_Mod_range_hashingENS_20_Default_ranged_hashELb1EEC2Ev = comdat any

$_ZNSt8__detail21_Hashtable_ebo_helperILi0ESt8equal_toINSt7__cxx1112basic_stringIcSt11char_traitsIcESaIcEEEELb1EEC2Ev = comdat any

$_ZNSt8__detail21_Hashtable_ebo_helperILi1ESt4hashINSt7__cxx1112basic_stringIcSt11char_traitsIcESaIcEEEELb1EEC2Ev = comdat any

$_ZNSt8__detail21_Hashtable_ebo_helperILi0ESaINS_10_Hash_nodeISt4pairIKNSt7__cxx1112basic_stringIcSt11char_traitsIcESaIcEEEmELb1EEEELb1EEC2Ev = comdat any

$_ZNSaINSt8__detail10_Hash_nodeISt4pairIKNSt7__cxx1112basic_stringIcSt11char_traitsIcESaIcEEEmELb1EEEEC2Ev = comdat any

$_ZNSt15__new_allocatorINSt8__detail10_Hash_nodeISt4pairIKNSt7__cxx1112basic_stringIcSt11char_traitsIcESaIcEEEmELb1EEEEC2Ev = comdat any

$_ZNSt15__uniq_ptr_dataISt6threadSt14default_deleteIS0_ELb1ELb1EEC2Ev = comdat any

$_ZNSt15__uniq_ptr_implISt6threadSt14default_deleteIS0_EEC2Ev = comdat any

$_ZNSt5tupleIJPSt6threadSt14default_deleteIS0_EEEC2ILb1ETnNSt9enable_ifIXclsr17_TupleConstraintsIXT_ES1_S3_EE37__is_implicitly_default_constructibleEEbE4typeELb1EEEv = comdat any

$_ZNSt11_Tuple_implILm0EJPSt6threadSt14default_deleteIS0_EEEC2Ev = comdat any

$_ZNSt11_Tuple_implILm1EJSt14default_deleteISt6threadEEEC2Ev = comdat any

$_ZNSt10_Head_baseILm0EPSt6threadLb0EEC2Ev = comdat any

$_ZNSt10_Head_baseILm1ESt14default_deleteISt6threadELb1EEC2Ev = comdat any

$_ZNSt10unique_ptrIA_KcSt14default_deleteIS1_EEC2IS3_vEEDn = comdat any

$_ZNSt15__uniq_ptr_dataIKcSt14default_deleteIA_S0_ELb1ELb1EEC2Ev = comdat any

$_ZNSt15__uniq_ptr_implIKcSt14default_deleteIA_S0_EEC2Ev = comdat any

$_ZNSt5tupleIJPKcSt14default_deleteIA_S0_EEEC2ILb1ETnNSt9enable_ifIXclsr17_TupleConstraintsIXT_ES1_S4_EE37__is_implicitly_default_constructibleEEbE4typeELb1EEEv = comdat any

$_ZNSt11_Tuple_implILm0EJPKcSt14default_deleteIA_S0_EEEC2Ev = comdat any

$_ZNSt11_Tuple_implILm1EJSt14default_deleteIA_KcEEEC2Ev = comdat any

$_ZNSt10_Head_baseILm0EPKcLb0EEC2Ev = comdat any

$_ZNSt10_Head_baseILm1ESt14default_deleteIA_KcELb1EEC2Ev = comdat any

$_ZNSt7__cxx1110_List_baseIPN7rocksdb12ErrorHandlerESaIS3_EEC2Ev = comdat any

$_ZNSt7__cxx1110_List_baseIPN7rocksdb12ErrorHandlerESaIS3_EE10_List_implC2Ev = comdat any

$_ZNSaISt10_List_nodeIPN7rocksdb12ErrorHandlerEEEC2Ev = comdat any

$_ZNSt8__detail17_List_node_headerC2Ev = comdat any

$_ZNSt15__new_allocatorISt10_List_nodeIPN7rocksdb12ErrorHandlerEEEC2Ev = comdat any

$_ZNSt8__detail17_List_node_header7_M_initEv = comdat any

$_ZNSt12__shared_ptrIN7rocksdb10StatisticsELN9__gnu_cxx12_Lock_policyE2EEC2Ev = comdat any

$_ZNSt14__shared_countILN9__gnu_cxx12_Lock_policyE2EEC2Ev = comdat any

$_ZNSt10_HashtableINSt7__cxx1112basic_stringIcSt11char_traitsIcESaIcEEESt4pairIKS5_mESaIS8_ENSt8__detail10_Select1stESt8equal_toIS5_ESt4hashIS5_ENSA_18_Mod_range_hashingENSA_20_Default_ranged_hashENSA_20_Prime_rehash_policyENSA_17_Hashtable_traitsILb1ELb0ELb1EEEED2Ev = comdat any

$_ZNSt10_HashtableINSt7__cxx1112basic_stringIcSt11char_traitsIcESaIcEEESt4pairIKS5_mESaIS8_ENSt8__detail10_Select1stESt8equal_toIS5_ESt4hashIS5_ENSA_18_Mod_range_hashingENSA_20_Default_ranged_hashENSA_20_Prime_rehash_policyENSA_17_Hashtable_traitsILb1ELb0ELb1EEEE5clearEv = comdat any

$_ZNSt10_HashtableINSt7__cxx1112basic_stringIcSt11char_traitsIcESaIcEEESt4pairIKS5_mESaIS8_ENSt8__detail10_Select1stESt8equal_toIS5_ESt4hashIS5_ENSA_18_Mod_range_hashingENSA_20_Default_ranged_hashENSA_20_Prime_rehash_policyENSA_17_Hashtable_traitsILb1ELb0ELb1EEEE21_M_deallocate_bucketsEv = comdat any

$_ZNSt8__detail16_Hashtable_allocISaINS_10_Hash_nodeISt4pairIKNSt7__cxx1112basic_stringIcSt11char_traitsIcESaIcEEEmELb1EEEEED2Ev = comdat any

$_ZNSt8__detail16_Hashtable_allocISaINS_10_Hash_nodeISt4pairIKNSt7__cxx1112basic_stringIcSt11char_traitsIcESaIcEEEmELb1EEEEE19_M_deallocate_nodesEPSB_ = comdat any

$_ZNKSt10_HashtableINSt7__cxx1112basic_stringIcSt11char_traitsIcESaIcEEESt4pairIKS5_mESaIS8_ENSt8__detail10_Select1stESt8equal_toIS5_ESt4hashIS5_ENSA_18_Mod_range_hashingENSA_20_Default_ranged_hashENSA_20_Prime_rehash_policyENSA_17_Hashtable_traitsILb1ELb0ELb1EEEE8_M_beginEv = comdat any

$_ZNKSt8__detail10_Hash_nodeISt4pairIKNSt7__cxx1112basic_stringIcSt11char_traitsIcESaIcEEEmELb1EE7_M_nextEv = comdat any

$_ZNSt8__detail16_Hashtable_allocISaINS_10_Hash_nodeISt4pairIKNSt7__cxx1112basic_stringIcSt11char_traitsIcESaIcEEEmELb1EEEEE18_M_deallocate_nodeEPSB_ = comdat any

$_ZNSt16allocator_traitsISaINSt8__detail10_Hash_nodeISt4pairIKNSt7__cxx1112basic_stringIcSt11char_traitsIcESaIcEEEmELb1EEEEE7destroyISA_EEvRSC_PT_ = comdat any

$_ZNSt8__detail16_Hashtable_allocISaINS_10_Hash_nodeISt4pairIKNSt7__cxx1112basic_stringIcSt11char_traitsIcESaIcEEEmELb1EEEEE17_M_node_allocatorEv = comdat any

$_ZNSt8__detail21_Hash_node_value_baseISt4pairIKNSt7__cxx1112basic_stringIcSt11char_traitsIcESaIcEEEmEE9_M_valptrEv = comdat any

$_ZNSt8__detail16_Hashtable_allocISaINS_10_Hash_nodeISt4pairIKNSt7__cxx1112basic_stringIcSt11char_traitsIcESaIcEEEmELb1EEEEE22_M_deallocate_node_ptrEPSB_ = comdat any

$_ZNSt15__new_allocatorINSt8__detail10_Hash_nodeISt4pairIKNSt7__cxx1112basic_stringIcSt11char_traitsIcESaIcEEEmELb1EEEE7destroyISA_EEvPT_ = comdat any

$_ZNSt4pairIKNSt7__cxx1112basic_stringIcSt11char_traitsIcESaIcEEEmED2Ev = comdat any

$_ZNSt8__detail21_Hashtable_ebo_helperILi0ESaINS_10_Hash_nodeISt4pairIKNSt7__cxx1112basic_stringIcSt11char_traitsIcESaIcEEEmELb1EEEELb1EE6_M_getEv = comdat any

$_ZN9__gnu_cxx16__aligned_bufferISt4pairIKNSt7__cxx1112basic_stringIcSt11char_traitsIcESaIcEEEmEE6_M_ptrEv = comdat any

$_ZN9__gnu_cxx16__aligned_bufferISt4pairIKNSt7__cxx1112basic_stringIcSt11char_traitsIcESaIcEEEmEE7_M_addrEv = comdat any

$_ZNSt19__ptr_traits_ptr_toIPNSt8__detail10_Hash_nodeISt4pairIKNSt7__cxx1112basic_stringIcSt11char_traitsIcESaIcEEEmELb1EEESB_Lb0EE10pointer_toERSB_ = comdat any

$_ZNSt16allocator_traitsISaINSt8__detail10_Hash_nodeISt4pairIKNSt7__cxx1112basic_stringIcSt11char_traitsIcESaIcEEEmELb1EEEEE10deallocateERSC_PSB_m = comdat any

$_ZNSt15__new_allocatorINSt8__detail10_Hash_nodeISt4pairIKNSt7__cxx1112basic_stringIcSt11char_traitsIcESaIcEEEmELb1EEEE10deallocateEPSB_m = comdat any

$_ZNSt10_HashtableINSt7__cxx1112basic_stringIcSt11char_traitsIcESaIcEEESt4pairIKS5_mESaIS8_ENSt8__detail10_Select1stESt8equal_toIS5_ESt4hashIS5_ENSA_18_Mod_range_hashingENSA_20_Default_ranged_hashENSA_20_Prime_rehash_policyENSA_17_Hashtable_traitsILb1ELb0ELb1EEEE21_M_deallocate_bucketsEPPNSA_15_Hash_node_baseEm = comdat any

$_ZNKSt10_HashtableINSt7__cxx1112basic_stringIcSt11char_traitsIcESaIcEEESt4pairIKS5_mESaIS8_ENSt8__detail10_Select1stESt8equal_toIS5_ESt4hashIS5_ENSA_18_Mod_range_hashingENSA_20_Default_ranged_hashENSA_20_Prime_rehash_policyENSA_17_Hashtable_traitsILb1ELb0ELb1EEEE21_M_uses_single_bucketEPPNSA_15_Hash_node_baseE = comdat any

$_ZNSt8__detail16_Hashtable_allocISaINS_10_Hash_nodeISt4pairIKNSt7__cxx1112basic_stringIcSt11char_traitsIcESaIcEEEmELb1EEEEE21_M_deallocate_bucketsEPPNS_15_Hash_node_baseEm = comdat any

$_ZNSt19__ptr_traits_ptr_toIPPNSt8__detail15_Hash_node_baseES2_Lb0EE10pointer_toERS2_ = comdat any

$_ZNSaIPNSt8__detail15_Hash_node_baseEEC2INS_10_Hash_nodeISt4pairIKNSt7__cxx1112basic_stringIcSt11char_traitsIcESaIcEEEmELb1EEEEERKSaIT_E = comdat any

$_ZNSt16allocator_traitsISaIPNSt8__detail15_Hash_node_baseEEE10deallocateERS3_PS2_m = comdat any

$_ZNSaIPNSt8__detail15_Hash_node_baseEED2Ev = comdat any

$_ZNSt15__new_allocatorIPNSt8__detail15_Hash_node_baseEEC2Ev = comdat any

$_ZNSt15__new_allocatorIPNSt8__detail15_Hash_node_baseEE10deallocateEPS2_m = comdat any

$_ZNSt15__new_allocatorIPNSt8__detail15_Hash_node_baseEED2Ev = comdat any

$_ZNSt8__detail21_Hashtable_ebo_helperILi0ESaINS_10_Hash_nodeISt4pairIKNSt7__cxx1112basic_stringIcSt11char_traitsIcESaIcEEEmELb1EEEELb1EED2Ev = comdat any

$_ZNSt15__new_allocatorINSt8__detail10_Hash_nodeISt4pairIKNSt7__cxx1112basic_stringIcSt11char_traitsIcESaIcEEEmELb1EEEED2Ev = comdat any

$_ZNSt12__shared_ptrIN7rocksdb6LoggerELN9__gnu_cxx12_Lock_policyE2EED2Ev = comdat any

$_ZNSt14__shared_countILN9__gnu_cxx12_Lock_policyE2EED2Ev = comdat any

$_ZNSt16_Sp_counted_baseILN9__gnu_cxx12_Lock_policyE2EE10_M_releaseEv = comdat any

$_ZNSt16_Sp_counted_baseILN9__gnu_cxx12_Lock_policyE2EE24_M_release_last_use_coldEv = comdat any

$_ZNSt16_Sp_counted_baseILN9__gnu_cxx12_Lock_policyE2EE19_M_release_last_useEv = comdat any

$_ZNSt12__shared_ptrIN7rocksdb10FileSystemELN9__gnu_cxx12_Lock_policyE2EED2Ev = comdat any

$_ZNSt12__shared_ptrIN7rocksdb11SystemClockELN9__gnu_cxx12_Lock_policyE2EED2Ev = comdat any

$_ZNK7rocksdb6Status11MarkCheckedEv = comdat any

$_ZNSt12__shared_ptrIN7rocksdb10StatisticsELN9__gnu_cxx12_Lock_policyE2EED2Ev = comdat any

$_ZNSt7__cxx1110_List_baseIPN7rocksdb12ErrorHandlerESaIS3_EED2Ev = comdat any

$_ZNSt7__cxx1110_List_baseIPN7rocksdb12ErrorHandlerESaIS3_EE8_M_clearEv = comdat any

$_ZNSt7__cxx1110_List_baseIPN7rocksdb12ErrorHandlerESaIS3_EE10_List_implD2Ev = comdat any

$_ZNSt10_List_nodeIPN7rocksdb12ErrorHandlerEE9_M_valptrEv = comdat any

$_ZNSt16allocator_traitsISaISt10_List_nodeIPN7rocksdb12ErrorHandlerEEEE7destroyIS3_EEvRS5_PT_ = comdat any

$_ZNSt7__cxx1110_List_baseIPN7rocksdb12ErrorHandlerESaIS3_EE21_M_get_Node_allocatorEv = comdat any

$_ZNSt7__cxx1110_List_baseIPN7rocksdb12ErrorHandlerESaIS3_EE11_M_put_nodeEPSt10_List_nodeIS3_E = comdat any

$_ZN9__gnu_cxx16__aligned_membufIPN7rocksdb12ErrorHandlerEE6_M_ptrEv = comdat any

$_ZN9__gnu_cxx16__aligned_membufIPN7rocksdb12ErrorHandlerEE7_M_addrEv = comdat any

$_ZNSt15__new_allocatorISt10_List_nodeIPN7rocksdb12ErrorHandlerEEE7destroyIS3_EEvPT_ = comdat any

$_ZNSt16allocator_traitsISaISt10_List_nodeIPN7rocksdb12ErrorHandlerEEEE10deallocateERS5_PS4_m = comdat any

$_ZNSt15__new_allocatorISt10_List_nodeIPN7rocksdb12ErrorHandlerEEE10deallocateEPS4_m = comdat any

$_ZNSaISt10_List_nodeIPN7rocksdb12ErrorHandlerEEED2Ev = comdat any

$_ZNSt15__new_allocatorISt10_List_nodeIPN7rocksdb12ErrorHandlerEEED2Ev = comdat any

$_ZNSt10unique_ptrIA_KcSt14default_deleteIS1_EED2Ev = comdat any

$_ZNSt15__uniq_ptr_implIKcSt14default_deleteIA_S0_EE6_M_ptrEv = comdat any

$_ZNSt10unique_ptrIA_KcSt14default_deleteIS1_EE11get_deleterEv = comdat any

$_ZNKSt14default_deleteIA_KcEclIS0_EENSt9enable_ifIXsr14is_convertibleIPA_T_PS1_EE5valueEvE4typeEPS5_ = comdat any

$_ZSt3getILm0EJPKcSt14default_deleteIA_S0_EEERNSt13tuple_elementIXT_ESt5tupleIJDpT0_EEE4typeERS9_ = comdat any

$_ZSt12__get_helperILm0EPKcJSt14default_deleteIA_S0_EEERT0_RSt11_Tuple_implIXT_EJS5_DpT1_EE = comdat any

$_ZNSt11_Tuple_implILm0EJPKcSt14default_deleteIA_S0_EEE7_M_headERS5_ = comdat any

$_ZNSt10_Head_baseILm0EPKcLb0EE7_M_headERS2_ = comdat any

$_ZNSt15__uniq_ptr_implIKcSt14default_deleteIA_S0_EE10_M_deleterEv = comdat any

$_ZSt3getILm1EJPKcSt14default_deleteIA_S0_EEERNSt13tuple_elementIXT_ESt5tupleIJDpT0_EEE4typeERS9_ = comdat any

$_ZSt12__get_helperILm1ESt14default_deleteIA_KcEJEERT0_RSt11_Tuple_implIXT_EJS4_DpT1_EE = comdat any

$_ZNSt11_Tuple_implILm1EJSt14default_deleteIA_KcEEE7_M_headERS4_ = comdat any

$_ZNSt10_Head_baseILm1ESt14default_deleteIA_KcELb1EE7_M_headERS4_ = comdat any

$_ZN7rocksdb9IOOptionsC2Eb = comdat any

$_ZNSt6chrono8durationIlSt5ratioILl1ELl1000000EEE4zeroEv = comdat any

$_ZNSt13unordered_mapINSt7__cxx1112basic_stringIcSt11char_traitsIcESaIcEEES5_St4hashIS5_ESt8equal_toIS5_ESaISt4pairIKS5_S5_EEEC2Ev = comdat any

$_ZNSt6chrono15duration_valuesIlE4zeroEv = comdat any

$_ZNSt6chrono8durationIlSt5ratioILl1ELl1000000EEEC2IlvEERKT_ = comdat any

$_ZNSt10_HashtableINSt7__cxx1112basic_stringIcSt11char_traitsIcESaIcEEESt4pairIKS5_S5_ESaIS8_ENSt8__detail10_Select1stESt8equal_toIS5_ESt4hashIS5_ENSA_18_Mod_range_hashingENSA_20_Default_ranged_hashENSA_20_Prime_rehash_policyENSA_17_Hashtable_traitsILb1ELb0ELb1EEEEC2Ev = comdat any

$_ZNSt8__detail15_Hashtable_baseINSt7__cxx1112basic_stringIcSt11char_traitsIcESaIcEEESt4pairIKS6_S6_ENS_10_Select1stESt8equal_toIS6_ESt4hashIS6_ENS_18_Mod_range_hashingENS_20_Default_ranged_hashENS_17_Hashtable_traitsILb1ELb0ELb1EEEEC2Ev = comdat any

$_ZNSt8__detail16_Hashtable_allocISaINS_10_Hash_nodeISt4pairIKNSt7__cxx1112basic_stringIcSt11char_traitsIcESaIcEEES8_ELb1EEEEEC2Ev = comdat any

$_ZNSt8__detail15_Hash_code_baseINSt7__cxx1112basic_stringIcSt11char_traitsIcESaIcEEESt4pairIKS6_S6_ENS_10_Select1stESt4hashIS6_ENS_18_Mod_range_hashingENS_20_Default_ranged_hashELb1EEC2Ev = comdat any

$_ZNSt8__detail21_Hashtable_ebo_helperILi0ESaINS_10_Hash_nodeISt4pairIKNSt7__cxx1112basic_stringIcSt11char_traitsIcESaIcEEES8_ELb1EEEELb1EEC2Ev = comdat any

$_ZNSaINSt8__detail10_Hash_nodeISt4pairIKNSt7__cxx1112basic_stringIcSt11char_traitsIcESaIcEEES7_ELb1EEEEC2Ev = comdat any

$_ZNSt15__new_allocatorINSt8__detail10_Hash_nodeISt4pairIKNSt7__cxx1112basic_stringIcSt11char_traitsIcESaIcEEES8_ELb1EEEEC2Ev = comdat any

$_ZNSt13unordered_mapINSt7__cxx1112basic_stringIcSt11char_traitsIcESaIcEEES5_St4hashIS5_ESt8equal_toIS5_ESaISt4pairIKS5_S5_EEED2Ev = comdat any

$_ZNSt10_HashtableINSt7__cxx1112basic_stringIcSt11char_traitsIcESaIcEEESt4pairIKS5_S5_ESaIS8_ENSt8__detail10_Select1stESt8equal_toIS5_ESt4hashIS5_ENSA_18_Mod_range_hashingENSA_20_Default_ranged_hashENSA_20_Prime_rehash_policyENSA_17_Hashtable_traitsILb1ELb0ELb1EEEED2Ev = comdat any

$_ZNSt10_HashtableINSt7__cxx1112basic_stringIcSt11char_traitsIcESaIcEEESt4pairIKS5_S5_ESaIS8_ENSt8__detail10_Select1stESt8equal_toIS5_ESt4hashIS5_ENSA_18_Mod_range_hashingENSA_20_Default_ranged_hashENSA_20_Prime_rehash_policyENSA_17_Hashtable_traitsILb1ELb0ELb1EEEE5clearEv = comdat any

$_ZNSt10_HashtableINSt7__cxx1112basic_stringIcSt11char_traitsIcESaIcEEESt4pairIKS5_S5_ESaIS8_ENSt8__detail10_Select1stESt8equal_toIS5_ESt4hashIS5_ENSA_18_Mod_range_hashingENSA_20_Default_ranged_hashENSA_20_Prime_rehash_policyENSA_17_Hashtable_traitsILb1ELb0ELb1EEEE21_M_deallocate_bucketsEv = comdat any

$_ZNSt8__detail16_Hashtable_allocISaINS_10_Hash_nodeISt4pairIKNSt7__cxx1112basic_stringIcSt11char_traitsIcESaIcEEES8_ELb1EEEEED2Ev = comdat any

$_ZNSt8__detail16_Hashtable_allocISaINS_10_Hash_nodeISt4pairIKNSt7__cxx1112basic_stringIcSt11char_traitsIcESaIcEEES8_ELb1EEEEE19_M_deallocate_nodesEPSB_ = comdat any

$_ZNKSt10_HashtableINSt7__cxx1112basic_stringIcSt11char_traitsIcESaIcEEESt4pairIKS5_S5_ESaIS8_ENSt8__detail10_Select1stESt8equal_toIS5_ESt4hashIS5_ENSA_18_Mod_range_hashingENSA_20_Default_ranged_hashENSA_20_Prime_rehash_policyENSA_17_Hashtable_traitsILb1ELb0ELb1EEEE8_M_beginEv = comdat any

$_ZNKSt8__detail10_Hash_nodeISt4pairIKNSt7__cxx1112basic_stringIcSt11char_traitsIcESaIcEEES7_ELb1EE7_M_nextEv = comdat any

$_ZNSt8__detail16_Hashtable_allocISaINS_10_Hash_nodeISt4pairIKNSt7__cxx1112basic_stringIcSt11char_traitsIcESaIcEEES8_ELb1EEEEE18_M_deallocate_nodeEPSB_ = comdat any

$_ZNSt16allocator_traitsISaINSt8__detail10_Hash_nodeISt4pairIKNSt7__cxx1112basic_stringIcSt11char_traitsIcESaIcEEES8_ELb1EEEEE7destroyISA_EEvRSC_PT_ = comdat any

$_ZNSt8__detail16_Hashtable_allocISaINS_10_Hash_nodeISt4pairIKNSt7__cxx1112basic_stringIcSt11char_traitsIcESaIcEEES8_ELb1EEEEE17_M_node_allocatorEv = comdat any

$_ZNSt8__detail21_Hash_node_value_baseISt4pairIKNSt7__cxx1112basic_stringIcSt11char_traitsIcESaIcEEES7_EE9_M_valptrEv = comdat any

$_ZNSt8__detail16_Hashtable_allocISaINS_10_Hash_nodeISt4pairIKNSt7__cxx1112basic_stringIcSt11char_traitsIcESaIcEEES8_ELb1EEEEE22_M_deallocate_node_ptrEPSB_ = comdat any

$_ZNSt15__new_allocatorINSt8__detail10_Hash_nodeISt4pairIKNSt7__cxx1112basic_stringIcSt11char_traitsIcESaIcEEES8_ELb1EEEE7destroyISA_EEvPT_ = comdat any

$_ZNSt4pairIKNSt7__cxx1112basic_stringIcSt11char_traitsIcESaIcEEES5_ED2Ev = comdat any

$_ZNSt8__detail21_Hashtable_ebo_helperILi0ESaINS_10_Hash_nodeISt4pairIKNSt7__cxx1112basic_stringIcSt11char_traitsIcESaIcEEES8_ELb1EEEELb1EE6_M_getEv = comdat any

$_ZN9__gnu_cxx16__aligned_bufferISt4pairIKNSt7__cxx1112basic_stringIcSt11char_traitsIcESaIcEEES7_EE6_M_ptrEv = comdat any

$_ZN9__gnu_cxx16__aligned_bufferISt4pairIKNSt7__cxx1112basic_stringIcSt11char_traitsIcESaIcEEES7_EE7_M_addrEv = comdat any

$_ZNSt19__ptr_traits_ptr_toIPNSt8__detail10_Hash_nodeISt4pairIKNSt7__cxx1112basic_stringIcSt11char_traitsIcESaIcEEES8_ELb1EEESB_Lb0EE10pointer_toERSB_ = comdat any

$_ZNSt16allocator_traitsISaINSt8__detail10_Hash_nodeISt4pairIKNSt7__cxx1112basic_stringIcSt11char_traitsIcESaIcEEES8_ELb1EEEEE10deallocateERSC_PSB_m = comdat any

$_ZNSt15__new_allocatorINSt8__detail10_Hash_nodeISt4pairIKNSt7__cxx1112basic_stringIcSt11char_traitsIcESaIcEEES8_ELb1EEEE10deallocateEPSB_m = comdat any

$_ZNSt10_HashtableINSt7__cxx1112basic_stringIcSt11char_traitsIcESaIcEEESt4pairIKS5_S5_ESaIS8_ENSt8__detail10_Select1stESt8equal_toIS5_ESt4hashIS5_ENSA_18_Mod_range_hashingENSA_20_Default_ranged_hashENSA_20_Prime_rehash_policyENSA_17_Hashtable_traitsILb1ELb0ELb1EEEE21_M_deallocate_bucketsEPPNSA_15_Hash_node_baseEm = comdat any

$_ZNKSt10_HashtableINSt7__cxx1112basic_stringIcSt11char_traitsIcESaIcEEESt4pairIKS5_S5_ESaIS8_ENSt8__detail10_Select1stESt8equal_toIS5_ESt4hashIS5_ENSA_18_Mod_range_hashingENSA_20_Default_ranged_hashENSA_20_Prime_rehash_policyENSA_17_Hashtable_traitsILb1ELb0ELb1EEEE21_M_uses_single_bucketEPPNSA_15_Hash_node_baseE = comdat any

$_ZNSt8__detail16_Hashtable_allocISaINS_10_Hash_nodeISt4pairIKNSt7__cxx1112basic_stringIcSt11char_traitsIcESaIcEEES8_ELb1EEEEE21_M_deallocate_bucketsEPPNS_15_Hash_node_baseEm = comdat any

$_ZNSaIPNSt8__detail15_Hash_node_baseEEC2INS_10_Hash_nodeISt4pairIKNSt7__cxx1112basic_stringIcSt11char_traitsIcESaIcEEESB_ELb1EEEEERKSaIT_E = comdat any

$_ZNSt8__detail21_Hashtable_ebo_helperILi0ESaINS_10_Hash_nodeISt4pairIKNSt7__cxx1112basic_stringIcSt11char_traitsIcESaIcEEES8_ELb1EEEELb1EED2Ev = comdat any

$_ZNSaINSt8__detail10_Hash_nodeISt4pairIKNSt7__cxx1112basic_stringIcSt11char_traitsIcESaIcEEES7_ELb1EEEED2Ev = comdat any

$_ZNSt15__new_allocatorINSt8__detail10_Hash_nodeISt4pairIKNSt7__cxx1112basic_stringIcSt11char_traitsIcESaIcEEES8_ELb1EEEED2Ev = comdat any

$_ZNK7rocksdb6Status4codeEv = comdat any

$_ZNKSt6vectorIPN7rocksdb12FileMetaDataESaIS2_EE4sizeEv = comdat any

$_ZNKSt6vectorIPN7rocksdb12FileMetaDataESaIS2_EEixEm = comdat any

$_ZNSt10_HashtableINSt7__cxx1112basic_stringIcSt11char_traitsIcESaIcEEESt4pairIKS5_mESaIS8_ENSt8__detail10_Select1stESt8equal_toIS5_ESt4hashIS5_ENSA_18_Mod_range_hashingENSA_20_Default_ranged_hashENSA_20_Prime_rehash_policyENSA_17_Hashtable_traitsILb1ELb0ELb1EEEEC2ERKSL_ = comdat any

$_ZN9__gnu_cxx14__alloc_traitsISaINSt8__detail10_Hash_nodeISt4pairIKNSt7__cxx1112basic_stringIcSt11char_traitsIcESaIcEEEmELb1EEEESC_E17_S_select_on_copyERKSD_ = comdat any

$_ZNKSt8__detail16_Hashtable_allocISaINS_10_Hash_nodeISt4pairIKNSt7__cxx1112basic_stringIcSt11char_traitsIcESaIcEEEmELb1EEEEE17_M_node_allocatorEv = comdat any

$_ZNSt8__detail16_Hashtable_allocISaINS_10_Hash_nodeISt4pairIKNSt7__cxx1112basic_stringIcSt11char_traitsIcESaIcEEEmELb1EEEEEC2ISC_EEOT_ = comdat any

$_ZNSaINSt8__detail10_Hash_nodeISt4pairIKNSt7__cxx1112basic_stringIcSt11char_traitsIcESaIcEEEmELb1EEEED2Ev = comdat any

$_ZNSt8__detail10_AllocNodeISaINS_10_Hash_nodeISt4pairIKNSt7__cxx1112basic_stringIcSt11char_traitsIcESaIcEEEmELb1EEEEEC2ERNS_16_Hashtable_allocISC_EE = comdat any

$_ZNSt10_HashtableINSt7__cxx1112basic_stringIcSt11char_traitsIcESaIcEEESt4pairIKS5_mESaIS8_ENSt8__detail10_Select1stESt8equal_toIS5_ESt4hashIS5_ENSA_18_Mod_range_hashingENSA_20_Default_ranged_hashENSA_20_Prime_rehash_policyENSA_17_Hashtable_traitsILb1ELb0ELb1EEEE9_M_assignIRKSL_NSA_10_AllocNodeISaINSA_10_Hash_nodeIS8_Lb1EEEEEEEEvOT_RKT0_ = comdat any

$_ZNSt16allocator_traitsISaINSt8__detail10_Hash_nodeISt4pairIKNSt7__cxx1112basic_stringIcSt11char_traitsIcESaIcEEEmELb1EEEEE37select_on_container_copy_constructionERKSC_ = comdat any

$_ZNSaINSt8__detail10_Hash_nodeISt4pairIKNSt7__cxx1112basic_stringIcSt11char_traitsIcESaIcEEEmELb1EEEEC2ERKSB_ = comdat any

$_ZNSt15__new_allocatorINSt8__detail10_Hash_nodeISt4pairIKNSt7__cxx1112basic_stringIcSt11char_traitsIcESaIcEEEmELb1EEEEC2ERKSC_ = comdat any

$_ZNKSt8__detail21_Hashtable_ebo_helperILi0ESaINS_10_Hash_nodeISt4pairIKNSt7__cxx1112basic_stringIcSt11char_traitsIcESaIcEEEmELb1EEEELb1EE7_M_cgetEv = comdat any

$_ZNSt8__detail21_Hashtable_ebo_helperILi0ESaINS_10_Hash_nodeISt4pairIKNSt7__cxx1112basic_stringIcSt11char_traitsIcESaIcEEEmELb1EEEELb1EEC2ISC_EEOT_ = comdat any

$_ZNSt10_HashtableINSt7__cxx1112basic_stringIcSt11char_traitsIcESaIcEEESt4pairIKS5_mESaIS8_ENSt8__detail10_Select1stESt8equal_toIS5_ESt4hashIS5_ENSA_18_Mod_range_hashingENSA_20_Default_ranged_hashENSA_20_Prime_rehash_policyENSA_17_Hashtable_traitsILb1ELb0ELb1EEEE19_M_allocate_bucketsEm = comdat any

$_ZNKSt8__detail10_AllocNodeISaINS_10_Hash_nodeISt4pairIKNSt7__cxx1112basic_stringIcSt11char_traitsIcESaIcEEEmELb1EEEEEclIJRKSA_EEEPSB_DpOT_ = comdat any

$_ZNSt10_HashtableINSt7__cxx1112basic_stringIcSt11char_traitsIcESaIcEEESt4pairIKS5_mESaIS8_ENSt8__detail10_Select1stESt8equal_toIS5_ESt4hashIS5_ENSA_18_Mod_range_hashingENSA_20_Default_ranged_hashENSA_20_Prime_rehash_policyENSA_17_Hashtable_traitsILb1ELb0ELb1EEEE15__fwd_value_forIRKSL_EENSt13__conditionalIXsr3std19is_lvalue_referenceIT_EE5valueEE4typeIRKS8_OS8_EERS8_ = comdat any

$_ZNSt8__detail21_Hash_node_value_baseISt4pairIKNSt7__cxx1112basic_stringIcSt11char_traitsIcESaIcEEEmEE4_M_vEv = comdat any

$_ZNKSt8__detail15_Hash_code_baseINSt7__cxx1112basic_stringIcSt11char_traitsIcESaIcEEESt4pairIKS6_mENS_10_Select1stESt4hashIS6_ENS_18_Mod_range_hashingENS_20_Default_ranged_hashELb1EE12_M_copy_codeERNS_21_Hash_node_code_cacheILb1EEERKSH_ = comdat any

$_ZNSt10_HashtableINSt7__cxx1112basic_stringIcSt11char_traitsIcESaIcEEESt4pairIKS5_mESaIS8_ENSt8__detail10_Select1stESt8equal_toIS5_ESt4hashIS5_ENSA_18_Mod_range_hashingENSA_20_Default_ranged_hashENSA_20_Prime_rehash_policyENSA_17_Hashtable_traitsILb1ELb0ELb1EEEE16_M_update_bbeginEPNSA_10_Hash_nodeIS8_Lb1EEE = comdat any

$_ZNKSt10_HashtableINSt7__cxx1112basic_stringIcSt11char_traitsIcESaIcEEESt4pairIKS5_mESaIS8_ENSt8__detail10_Select1stESt8equal_toIS5_ESt4hashIS5_ENSA_18_Mod_range_hashingENSA_20_Default_ranged_hashENSA_20_Prime_rehash_policyENSA_17_Hashtable_traitsILb1ELb0ELb1EEEE15_M_bucket_indexERKNSA_16_Hash_node_valueIS8_Lb1EEE = comdat any

$_ZNSt8__detail16_Hashtable_allocISaINS_10_Hash_nodeISt4pairIKNSt7__cxx1112basic_stringIcSt11char_traitsIcESaIcEEEmELb1EEEEE19_M_allocate_bucketsEm = comdat any

$_ZNSt16allocator_traitsISaIPNSt8__detail15_Hash_node_baseEEE8allocateERS3_m = comdat any

$_ZSt12__to_addressIPNSt8__detail15_Hash_node_baseEEPT_S4_ = comdat any

$_ZNSt15__new_allocatorIPNSt8__detail15_Hash_node_baseEE8allocateEmPKv = comdat any

$_ZNKSt15__new_allocatorIPNSt8__detail15_Hash_node_baseEE11_M_max_sizeEv = comdat any

$_ZNSt8__detail16_Hashtable_allocISaINS_10_Hash_nodeISt4pairIKNSt7__cxx1112basic_stringIcSt11char_traitsIcESaIcEEEmELb1EEEEE16_M_allocate_nodeIJRKSA_EEEPSB_DpOT_ = comdat any

$_ZNSt16allocator_traitsISaINSt8__detail10_Hash_nodeISt4pairIKNSt7__cxx1112basic_stringIcSt11char_traitsIcESaIcEEEmELb1EEEEE8allocateERSC_m = comdat any

$_ZSt12__to_addressINSt8__detail10_Hash_nodeISt4pairIKNSt7__cxx1112basic_stringIcSt11char_traitsIcESaIcEEEmELb1EEEEPT_SD_ = comdat any

$_ZNSt8__detail10_Hash_nodeISt4pairIKNSt7__cxx1112basic_stringIcSt11char_traitsIcESaIcEEEmELb1EEC2Ev = comdat any

$_ZNSt16allocator_traitsISaINSt8__detail10_Hash_nodeISt4pairIKNSt7__cxx1112basic_stringIcSt11char_traitsIcESaIcEEEmELb1EEEEE9constructISA_JRKSA_EEEvRSC_PT_DpOT0_ = comdat any

$_ZNSt15__new_allocatorINSt8__detail10_Hash_nodeISt4pairIKNSt7__cxx1112basic_stringIcSt11char_traitsIcESaIcEEEmELb1EEEE8allocateEmPKv = comdat any

$_ZNKSt15__new_allocatorINSt8__detail10_Hash_nodeISt4pairIKNSt7__cxx1112basic_stringIcSt11char_traitsIcESaIcEEEmELb1EEEE11_M_max_sizeEv = comdat any

$_ZNSt15__new_allocatorINSt8__detail10_Hash_nodeISt4pairIKNSt7__cxx1112basic_stringIcSt11char_traitsIcESaIcEEEmELb1EEEE9constructISA_JRKSA_EEEvPT_DpOT0_ = comdat any

$_ZNSt4pairIKNSt7__cxx1112basic_stringIcSt11char_traitsIcESaIcEEEmEC2ERKS7_ = comdat any

$_ZNSt10_HashtableINSt7__cxx1112basic_stringIcSt11char_traitsIcESaIcEEESt4pairIKS5_mESaIS8_ENSt8__detail10_Select1stESt8equal_toIS5_ESt4hashIS5_ENSA_18_Mod_range_hashingENSA_20_Default_ranged_hashENSA_20_Prime_rehash_policyENSA_17_Hashtable_traitsILb1ELb0ELb1EEEE16_M_update_bbeginEv = comdat any

$_ZNKSt8__detail15_Hash_code_baseINSt7__cxx1112basic_stringIcSt11char_traitsIcESaIcEEESt4pairIKS6_mENS_10_Select1stESt4hashIS6_ENS_18_Mod_range_hashingENS_20_Default_ranged_hashELb1EE15_M_bucket_indexERKNS_16_Hash_node_valueIS9_Lb1EEEm = comdat any

$_ZNKSt8__detail18_Mod_range_hashingclEmm = comdat any

$_ZStanSt12memory_orderSt23__memory_order_modifier = comdat any

$_ZNKSt6atomicIdE4loadESt12memory_order = comdat any

$_ZNSt6atomicIdE5storeEdSt12memory_order = comdat any

$_ZN7rocksdb6StatusC2ENS0_4CodeENS0_7SubCodeE = comdat any

$_ZNSt10unique_ptrIA_KcSt14default_deleteIS1_EEC2IS3_vEEv = comdat any

$_ZNK7rocksdb6Status9MustCheckEv = comdat any

$_ZNSt10unique_ptrIA_KcSt14default_deleteIS1_EEaSEOS4_ = comdat any

$_ZNSt15__uniq_ptr_dataIKcSt14default_deleteIA_S0_ELb1ELb1EEaSEOS4_ = comdat any

$_ZNSt15__uniq_ptr_implIKcSt14default_deleteIA_S0_EEaSEOS4_ = comdat any

$_ZNSt15__uniq_ptr_implIKcSt14default_deleteIA_S0_EE5resetEPS0_ = comdat any

$_ZNSt15__uniq_ptr_implIKcSt14default_deleteIA_S0_EE7releaseEv = comdat any

$_ZN7rocksdb6StatusC2ERKS0_ = comdat any

$_ZSteqIA_KcSt14default_deleteIS1_EEbRKSt10unique_ptrIT_T0_EDn = comdat any

$_ZNKSt10unique_ptrIA_KcSt14default_deleteIS1_EE3getEv = comdat any

$_ZNKSt10unique_ptrIA_KcSt14default_deleteIS1_EEcvbEv = comdat any

$_ZNKSt15__uniq_ptr_implIKcSt14default_deleteIA_S0_EE6_M_ptrEv = comdat any

$_ZSt3getILm0EJPKcSt14default_deleteIA_S0_EEERKNSt13tuple_elementIXT_ESt5tupleIJDpT0_EEE4typeERKS9_ = comdat any

$_ZSt12__get_helperILm0EPKcJSt14default_deleteIA_S0_EEERKT0_RKSt11_Tuple_implIXT_EJS5_DpT1_EE = comdat any

$_ZNSt11_Tuple_implILm0EJPKcSt14default_deleteIA_S0_EEE7_M_headERKS5_ = comdat any

$_ZNSt10_Head_baseILm0EPKcLb0EE7_M_headERKS2_ = comdat any

$_ZNSt12_Vector_baseINSt7__cxx1112basic_stringIcSt11char_traitsIcESaIcEEESaIS5_EEC2Ev = comdat any

$_ZNSt12_Vector_baseINSt7__cxx1112basic_stringIcSt11char_traitsIcESaIcEEESaIS5_EE12_Vector_implC2Ev = comdat any

$_ZNSaINSt7__cxx1112basic_stringIcSt11char_traitsIcESaIcEEEEC2Ev = comdat any

$_ZNSt12_Vector_baseINSt7__cxx1112basic_stringIcSt11char_traitsIcESaIcEEESaIS5_EE17_Vector_impl_dataC2Ev = comdat any

$_ZNSt15__new_allocatorINSt7__cxx1112basic_stringIcSt11char_traitsIcESaIcEEEEC2Ev = comdat any

$_ZN7rocksdb16CompareInterfaceD2Ev = comdat any

$_ZNSt10shared_ptrIN7rocksdb10StatisticsEEaSERKS2_ = comdat any

$_ZN7rocksdb15DeleteScheduler16SetStatisticsPtrERKSt10shared_ptrINS_10StatisticsEE = comdat any

$_ZNSt12__shared_ptrIN7rocksdb10StatisticsELN9__gnu_cxx12_Lock_policyE2EEaSERKS4_ = comdat any

$_ZNSt14__shared_countILN9__gnu_cxx12_Lock_policyE2EEaSERKS2_ = comdat any

$_ZN7rocksdb21InstrumentedMutexLockC2EPNS_17InstrumentedMutexE = comdat any

$_ZN7rocksdb21InstrumentedMutexLockD2Ev = comdat any

$_ZN7rocksdb17InstrumentedMutex6UnlockEv = comdat any

$_ZSt8_DestroyIPNSt7__cxx1112basic_stringIcSt11char_traitsIcESaIcEEES5_EvT_S7_RSaIT0_E = comdat any

$_ZNSt12_Vector_baseINSt7__cxx1112basic_stringIcSt11char_traitsIcESaIcEEESaIS5_EE19_M_get_Tp_allocatorEv = comdat any

$_ZNSt12_Vector_baseINSt7__cxx1112basic_stringIcSt11char_traitsIcESaIcEEESaIS5_EED2Ev = comdat any

$_ZSt8_DestroyIPNSt7__cxx1112basic_stringIcSt11char_traitsIcESaIcEEEEvT_S7_ = comdat any

$_ZNSt12_Destroy_auxILb0EE9__destroyIPNSt7__cxx1112basic_stringIcSt11char_traitsIcESaIcEEEEEvT_S9_ = comdat any

$_ZSt8_DestroyINSt7__cxx1112basic_stringIcSt11char_traitsIcESaIcEEEEvPT_ = comdat any

$_ZNSt12_Vector_baseINSt7__cxx1112basic_stringIcSt11char_traitsIcESaIcEEESaIS5_EE13_M_deallocateEPS5_m = comdat any

$_ZNSt12_Vector_baseINSt7__cxx1112basic_stringIcSt11char_traitsIcESaIcEEESaIS5_EE12_Vector_implD2Ev = comdat any

$_ZNSt16allocator_traitsISaINSt7__cxx1112basic_stringIcSt11char_traitsIcESaIcEEEEE10deallocateERS6_PS5_m = comdat any

$_ZNSt15__new_allocatorINSt7__cxx1112basic_stringIcSt11char_traitsIcESaIcEEEE10deallocateEPS5_m = comdat any

$_ZNSaINSt7__cxx1112basic_stringIcSt11char_traitsIcESaIcEEEED2Ev = comdat any

$_ZNSt15__new_allocatorINSt7__cxx1112basic_stringIcSt11char_traitsIcESaIcEEEED2Ev = comdat any

$_ZNKSt19__shared_ptr_accessIN7rocksdb11SystemClockELN9__gnu_cxx12_Lock_policyE2ELb0ELb0EE6_M_getEv = comdat any

$_ZSt8_DestroyIPN7rocksdb5SliceES1_EvT_S3_RSaIT0_E = comdat any

$_ZNSt12_Vector_baseIN7rocksdb5SliceESaIS1_EE19_M_get_Tp_allocatorEv = comdat any

$_ZNSt12_Vector_baseIN7rocksdb5SliceESaIS1_EED2Ev = comdat any

$_ZSt8_DestroyIPN7rocksdb5SliceEEvT_S3_ = comdat any

$_ZNSt12_Destroy_auxILb1EE9__destroyIPN7rocksdb5SliceEEEvT_S5_ = comdat any

$_ZNSt12_Vector_baseIN7rocksdb5SliceESaIS1_EE13_M_deallocateEPS1_m = comdat any

$_ZNSt12_Vector_baseIN7rocksdb5SliceESaIS1_EE12_Vector_implD2Ev = comdat any

$_ZNSt16allocator_traitsISaIN7rocksdb5SliceEEE10deallocateERS2_PS1_m = comdat any

$_ZNSt15__new_allocatorIN7rocksdb5SliceEE10deallocateEPS1_m = comdat any

$_ZNSaIN7rocksdb5SliceEED2Ev = comdat any

$_ZNSt15__new_allocatorIN7rocksdb5SliceEED2Ev = comdat any

$_ZNKSt19__shared_ptr_accessIN7rocksdb10FileSystemELN9__gnu_cxx12_Lock_policyE2ELb0ELb0EE6_M_getEv = comdat any

$_ZN9__gnu_cxx17__normal_iteratorIPNSt7__cxx1112basic_stringIcSt11char_traitsIcESaIcEEESt6vectorIS6_SaIS6_EEEC2ERKS7_ = comdat any

$_ZNK9__gnu_cxx17__normal_iteratorIPNSt7__cxx1112basic_stringIcSt11char_traitsIcESaIcEEESt6vectorIS6_SaIS6_EEE4baseEv = comdat any

$_ZNSt15__uniq_ptr_implISt6threadSt14default_deleteIS0_EE6_M_ptrEv = comdat any

$_ZNSt10unique_ptrISt6threadSt14default_deleteIS0_EE11get_deleterEv = comdat any

$_ZNKSt14default_deleteISt6threadEclEPS0_ = comdat any

$_ZSt3getILm0EJPSt6threadSt14default_deleteIS0_EEERNSt13tuple_elementIXT_ESt5tupleIJDpT0_EEE4typeERS8_ = comdat any

$_ZSt12__get_helperILm0EPSt6threadJSt14default_deleteIS0_EEERT0_RSt11_Tuple_implIXT_EJS4_DpT1_EE = comdat any

$_ZNSt11_Tuple_implILm0EJPSt6threadSt14default_deleteIS0_EEE7_M_headERS4_ = comdat any

$_ZNSt10_Head_baseILm0EPSt6threadLb0EE7_M_headERS2_ = comdat any

$_ZNSt15__uniq_ptr_implISt6threadSt14default_deleteIS0_EE10_M_deleterEv = comdat any

$_ZSt3getILm1EJPSt6threadSt14default_deleteIS0_EEERNSt13tuple_elementIXT_ESt5tupleIJDpT0_EEE4typeERS8_ = comdat any

$_ZSt12__get_helperILm1ESt14default_deleteISt6threadEJEERT0_RSt11_Tuple_implIXT_EJS3_DpT1_EE = comdat any

$_ZNSt11_Tuple_implILm1EJSt14default_deleteISt6threadEEE7_M_headERS3_ = comdat any

$_ZNSt10_Head_baseILm1ESt14default_deleteISt6threadELb1EE7_M_headERS3_ = comdat any

$_ZNSt6threadD2Ev = comdat any

$_ZNKSt6thread8joinableEv = comdat any

$_ZSteqNSt6thread2idES0_ = comdat any

$_ZNSt6thread2idC2Ev = comdat any

$_ZNKSt10unique_ptrISt6threadSt14default_deleteIS0_EE3getEv = comdat any

$_ZNKSt15__uniq_ptr_implISt6threadSt14default_deleteIS0_EE6_M_ptrEv = comdat any

$_ZSt3getILm0EJPSt6threadSt14default_deleteIS0_EEERKNSt13tuple_elementIXT_ESt5tupleIJDpT0_EEE4typeERKS8_ = comdat any

$_ZSt12__get_helperILm0EPSt6threadJSt14default_deleteIS0_EEERKT0_RKSt11_Tuple_implIXT_EJS4_DpT1_EE = comdat any

$_ZNSt11_Tuple_implILm0EJPSt6threadSt14default_deleteIS0_EEE7_M_headERKS4_ = comdat any

$_ZNSt10_Head_baseILm0EPSt6threadLb0EE7_M_headERKS2_ = comdat any

$_ZNSt8__detail9_Map_baseINSt7__cxx1112basic_stringIcSt11char_traitsIcESaIcEEESt4pairIKS6_mESaIS9_ENS_10_Select1stESt8equal_toIS6_ESt4hashIS6_ENS_18_Mod_range_hashingENS_20_Default_ranged_hashENS_20_Prime_rehash_policyENS_17_Hashtable_traitsILb1ELb0ELb1EEELb1EEixERS8_ = comdat any

$_ZNKSt8__detail15_Hash_code_baseINSt7__cxx1112basic_stringIcSt11char_traitsIcESaIcEEESt4pairIKS6_mENS_10_Select1stESt4hashIS6_ENS_18_Mod_range_hashingENS_20_Default_ranged_hashELb1EE12_M_hash_codeERS8_ = comdat any

$_ZNKSt10_HashtableINSt7__cxx1112basic_stringIcSt11char_traitsIcESaIcEEESt4pairIKS5_mESaIS8_ENSt8__detail10_Select1stESt8equal_toIS5_ESt4hashIS5_ENSA_18_Mod_range_hashingENSA_20_Default_ranged_hashENSA_20_Prime_rehash_policyENSA_17_Hashtable_traitsILb1ELb0ELb1EEEE15_M_bucket_indexEm = comdat any

$_ZNKSt10_HashtableINSt7__cxx1112basic_stringIcSt11char_traitsIcESaIcEEESt4pairIKS5_mESaIS8_ENSt8__detail10_Select1stESt8equal_toIS5_ESt4hashIS5_ENSA_18_Mod_range_hashingENSA_20_Default_ranged_hashENSA_20_Prime_rehash_policyENSA_17_Hashtable_traitsILb1ELb0ELb1EEEE12_M_find_nodeEmRS7_m = comdat any

$_ZNSt5tupleIJRKNSt7__cxx1112basic_stringIcSt11char_traitsIcESaIcEEEEEC2ILb1ETnNSt9enable_ifIXclsr4_TCCIXT_EEE29__is_implicitly_constructibleIS7_EEEbE4typeELb1EEES7_ = comdat any

$_ZNSt10_HashtableINSt7__cxx1112basic_stringIcSt11char_traitsIcESaIcEEESt4pairIKS5_mESaIS8_ENSt8__detail10_Select1stESt8equal_toIS5_ESt4hashIS5_ENSA_18_Mod_range_hashingENSA_20_Default_ranged_hashENSA_20_Prime_rehash_policyENSA_17_Hashtable_traitsILb1ELb0ELb1EEEE12_Scoped_nodeC2IJRKSt21piecewise_construct_tSt5tupleIJRS7_EESR_IJEEEEEPNSA_16_Hashtable_allocISaINSA_10_Hash_nodeIS8_Lb1EEEEEEDpOT_ = comdat any

$_ZNSt10_HashtableINSt7__cxx1112basic_stringIcSt11char_traitsIcESaIcEEESt4pairIKS5_mESaIS8_ENSt8__detail10_Select1stESt8equal_toIS5_ESt4hashIS5_ENSA_18_Mod_range_hashingENSA_20_Default_ranged_hashENSA_20_Prime_rehash_policyENSA_17_Hashtable_traitsILb1ELb0ELb1EEEE21_M_insert_unique_nodeEmmPNSA_10_Hash_nodeIS8_Lb1EEEm = comdat any

$_ZNSt10_HashtableINSt7__cxx1112basic_stringIcSt11char_traitsIcESaIcEEESt4pairIKS5_mESaIS8_ENSt8__detail10_Select1stESt8equal_toIS5_ESt4hashIS5_ENSA_18_Mod_range_hashingENSA_20_Default_ranged_hashENSA_20_Prime_rehash_policyENSA_17_Hashtable_traitsILb1ELb0ELb1EEEE12_Scoped_nodeD2Ev = comdat any

$_ZNKSt8__detail15_Hash_code_baseINSt7__cxx1112basic_stringIcSt11char_traitsIcESaIcEEESt4pairIKS6_mENS_10_Select1stESt4hashIS6_ENS_18_Mod_range_hashingENS_20_Default_ranged_hashELb1EE7_M_hashEv = comdat any

$_ZNKSt4hashINSt7__cxx1112basic_stringIcSt11char_traitsIcESaIcEEEEclERKS5_ = comdat any

$_ZNKSt8__detail21_Hashtable_ebo_helperILi1ESt4hashINSt7__cxx1112basic_stringIcSt11char_traitsIcESaIcEEEELb1EE7_M_cgetEv = comdat any

$_ZNSt10_Hash_impl4hashEPKvmm = comdat any

$_ZNKSt8__detail15_Hash_code_baseINSt7__cxx1112basic_stringIcSt11char_traitsIcESaIcEEESt4pairIKS6_mENS_10_Select1stESt4hashIS6_ENS_18_Mod_range_hashingENS_20_Default_ranged_hashELb1EE15_M_bucket_indexEmm = comdat any

$_ZNKSt10_HashtableINSt7__cxx1112basic_stringIcSt11char_traitsIcESaIcEEESt4pairIKS5_mESaIS8_ENSt8__detail10_Select1stESt8equal_toIS5_ESt4hashIS5_ENSA_18_Mod_range_hashingENSA_20_Default_ranged_hashENSA_20_Prime_rehash_policyENSA_17_Hashtable_traitsILb1ELb0ELb1EEEE19_M_find_before_nodeEmRS7_m = comdat any

$_ZNKSt8__detail15_Hashtable_baseINSt7__cxx1112basic_stringIcSt11char_traitsIcESaIcEEESt4pairIKS6_mENS_10_Select1stESt8equal_toIS6_ESt4hashIS6_ENS_18_Mod_range_hashingENS_20_Default_ranged_hashENS_17_Hashtable_traitsILb1ELb0ELb1EEEE9_M_equalsERS8_mRKNS_16_Hash_node_valueIS9_Lb1EEE = comdat any

$_ZNSt8__detail15_Hashtable_baseINSt7__cxx1112basic_stringIcSt11char_traitsIcESaIcEEESt4pairIKS6_mENS_10_Select1stESt8equal_toIS6_ESt4hashIS6_ENS_18_Mod_range_hashingENS_20_Default_ranged_hashENS_17_Hashtable_traitsILb1ELb0ELb1EEEE9_S_equalsEmRKNS_21_Hash_node_code_cacheILb1EEE = comdat any

$_ZNKSt8__detail15_Hashtable_baseINSt7__cxx1112basic_stringIcSt11char_traitsIcESaIcEEESt4pairIKS6_mENS_10_Select1stESt8equal_toIS6_ESt4hashIS6_ENS_18_Mod_range_hashingENS_20_Default_ranged_hashENS_17_Hashtable_traitsILb1ELb0ELb1EEEE13_M_key_equalsERS8_RKNS_16_Hash_node_valueIS9_Lb1EEE = comdat any

$_ZNKSt8__detail15_Hashtable_baseINSt7__cxx1112basic_stringIcSt11char_traitsIcESaIcEEESt4pairIKS6_mENS_10_Select1stESt8equal_toIS6_ESt4hashIS6_ENS_18_Mod_range_hashingENS_20_Default_ranged_hashENS_17_Hashtable_traitsILb1ELb0ELb1EEEE5_M_eqEv = comdat any

$_ZNKSt8equal_toINSt7__cxx1112basic_stringIcSt11char_traitsIcESaIcEEEEclERKS5_S8_ = comdat any

$_ZNKSt8__detail10_Select1stclIRKSt4pairIKNSt7__cxx1112basic_stringIcSt11char_traitsIcESaIcEEEmEEEONS0_10__1st_typeIT_E4typeEOSE_ = comdat any

$_ZNKSt8__detail21_Hash_node_value_baseISt4pairIKNSt7__cxx1112basic_stringIcSt11char_traitsIcESaIcEEEmEE4_M_vEv = comdat any

$_ZNKSt8__detail21_Hashtable_ebo_helperILi0ESt8equal_toINSt7__cxx1112basic_stringIcSt11char_traitsIcESaIcEEEELb1EE7_M_cgetEv = comdat any

$_ZSteqIcEN9__gnu_cxx11__enable_ifIXsr9__is_charIT_EE7__valueEbE6__typeERKNSt7__cxx1112basic_stringIS2_St11char_traitsIS2_ESaIS2_EEESC_ = comdat any

$_ZNSt11char_traitsIcE7compareEPKcS2_m = comdat any

$_ZNKSt8__detail21_Hash_node_value_baseISt4pairIKNSt7__cxx1112basic_stringIcSt11char_traitsIcESaIcEEEmEE9_M_valptrEv = comdat any

$_ZNK9__gnu_cxx16__aligned_bufferISt4pairIKNSt7__cxx1112basic_stringIcSt11char_traitsIcESaIcEEEmEE6_M_ptrEv = comdat any

$_ZNK9__gnu_cxx16__aligned_bufferISt4pairIKNSt7__cxx1112basic_stringIcSt11char_traitsIcESaIcEEEmEE7_M_addrEv = comdat any

$_ZNSt11_Tuple_implILm0EJRKNSt7__cxx1112basic_stringIcSt11char_traitsIcESaIcEEEEEC2ES7_ = comdat any

$_ZNSt10_Head_baseILm0ERKNSt7__cxx1112basic_stringIcSt11char_traitsIcESaIcEEELb0EEC2ES7_ = comdat any

$_ZNSt8__detail16_Hashtable_allocISaINS_10_Hash_nodeISt4pairIKNSt7__cxx1112basic_stringIcSt11char_traitsIcESaIcEEEmELb1EEEEE16_M_allocate_nodeIJRKSt21piecewise_construct_tSt5tupleIJRS9_EESI_IJEEEEEPSB_DpOT_ = comdat any

$_ZNSt16allocator_traitsISaINSt8__detail10_Hash_nodeISt4pairIKNSt7__cxx1112basic_stringIcSt11char_traitsIcESaIcEEEmELb1EEEEE9constructISA_JRKSt21piecewise_construct_tSt5tupleIJRS9_EESI_IJEEEEEvRSC_PT_DpOT0_ = comdat any

$_ZNSt15__new_allocatorINSt8__detail10_Hash_nodeISt4pairIKNSt7__cxx1112basic_stringIcSt11char_traitsIcESaIcEEEmELb1EEEE9constructISA_JRKSt21piecewise_construct_tSt5tupleIJRS9_EESH_IJEEEEEvPT_DpOT0_ = comdat any

$_ZNSt5tupleIJRKNSt7__cxx1112basic_stringIcSt11char_traitsIcESaIcEEEEEC2EOS8_ = comdat any

$_ZNSt4pairIKNSt7__cxx1112basic_stringIcSt11char_traitsIcESaIcEEEmEC2IJRS6_EJEEESt21piecewise_construct_tSt5tupleIJDpT_EESB_IJDpT0_EE = comdat any

$_ZNSt11_Tuple_implILm0EJRKNSt7__cxx1112basic_stringIcSt11char_traitsIcESaIcEEEEEC2EOS8_ = comdat any

$_ZNSt4pairIKNSt7__cxx1112basic_stringIcSt11char_traitsIcESaIcEEEmEC2IJRS6_EJLm0EEJETpTnmJEEERSt5tupleIJDpT_EERSA_IJDpT1_EESt12_Index_tupleIJXspT0_EEESJ_IJXspT2_EEE = comdat any

$_ZSt3getILm0EJRKNSt7__cxx1112basic_stringIcSt11char_traitsIcESaIcEEEEERNSt13tuple_elementIXT_ESt5tupleIJDpT0_EEE4typeERSC_ = comdat any

$_ZSt12__get_helperILm0ERKNSt7__cxx1112basic_stringIcSt11char_traitsIcESaIcEEEJEERT0_RSt11_Tuple_implIXT_EJS8_DpT1_EE = comdat any

$_ZNSt11_Tuple_implILm0EJRKNSt7__cxx1112basic_stringIcSt11char_traitsIcESaIcEEEEE7_M_headERS8_ = comdat any

$_ZNSt10_Head_baseILm0ERKNSt7__cxx1112basic_stringIcSt11char_traitsIcESaIcEEELb0EE7_M_headERS8_ = comdat any

$_ZNKSt8__detail20_Prime_rehash_policy8_M_stateEv = comdat any

$_ZNSt10_HashtableINSt7__cxx1112basic_stringIcSt11char_traitsIcESaIcEEESt4pairIKS5_mESaIS8_ENSt8__detail10_Select1stESt8equal_toIS5_ESt4hashIS5_ENSA_18_Mod_range_hashingENSA_20_Default_ranged_hashENSA_20_Prime_rehash_policyENSA_17_Hashtable_traitsILb1ELb0ELb1EEEE9_M_rehashEmRKm = comdat any

$_ZNKSt8__detail15_Hash_code_baseINSt7__cxx1112basic_stringIcSt11char_traitsIcESaIcEEESt4pairIKS6_mENS_10_Select1stESt4hashIS6_ENS_18_Mod_range_hashingENS_20_Default_ranged_hashELb1EE13_M_store_codeERNS_21_Hash_node_code_cacheILb1EEEm = comdat any

$_ZNSt10_HashtableINSt7__cxx1112basic_stringIcSt11char_traitsIcESaIcEEESt4pairIKS5_mESaIS8_ENSt8__detail10_Select1stESt8equal_toIS5_ESt4hashIS5_ENSA_18_Mod_range_hashingENSA_20_Default_ranged_hashENSA_20_Prime_rehash_policyENSA_17_Hashtable_traitsILb1ELb0ELb1EEEE22_M_insert_bucket_beginEmPNSA_10_Hash_nodeIS8_Lb1EEE = comdat any

$_ZNSt8__detail14_Node_iteratorISt4pairIKNSt7__cxx1112basic_stringIcSt11char_traitsIcESaIcEEEmELb0ELb1EEC2EPNS_10_Hash_nodeIS9_Lb1EEE = comdat any

$_ZNSt10_HashtableINSt7__cxx1112basic_stringIcSt11char_traitsIcESaIcEEESt4pairIKS5_mESaIS8_ENSt8__detail10_Select1stESt8equal_toIS5_ESt4hashIS5_ENSA_18_Mod_range_hashingENSA_20_Default_ranged_hashENSA_20_Prime_rehash_policyENSA_17_Hashtable_traitsILb1ELb0ELb1EEEE13_M_rehash_auxEmSt17integral_constantIbLb1EE = comdat any

$_ZNSt8__detail20_Prime_rehash_policy8_M_resetEm = comdat any

$_ZNSt8__detail19_Node_iterator_baseISt4pairIKNSt7__cxx1112basic_stringIcSt11char_traitsIcESaIcEEEmELb1EEC2EPNS_10_Hash_nodeIS9_Lb1EEE = comdat any

$_ZNSt7__cxx114listIPN7rocksdb12ErrorHandlerESaIS3_EE8_M_eraseESt14_List_iteratorIS3_E = comdat any

$_ZNSt7__cxx1110_List_baseIPN7rocksdb12ErrorHandlerESaIS3_EE11_M_dec_sizeEm = comdat any

$_ZNSt7__cxx114listIPN7rocksdb12ErrorHandlerESaIS3_EE9_M_insertIJRKS3_EEEvSt14_List_iteratorIS3_EDpOT_ = comdat any

$_ZNSt7__cxx114listIPN7rocksdb12ErrorHandlerESaIS3_EE14_M_create_nodeIJRKS3_EEEPSt10_List_nodeIS3_EDpOT_ = comdat any

$_ZNSt7__cxx1110_List_baseIPN7rocksdb12ErrorHandlerESaIS3_EE11_M_inc_sizeEm = comdat any

$_ZNSt7__cxx1110_List_baseIPN7rocksdb12ErrorHandlerESaIS3_EE11_M_get_nodeEv = comdat any

$_ZNSt15__allocated_ptrISaISt10_List_nodeIPN7rocksdb12ErrorHandlerEEEEC2ERS5_PS4_ = comdat any

$_ZNSt16allocator_traitsISaISt10_List_nodeIPN7rocksdb12ErrorHandlerEEEE9constructIS3_JRKS3_EEEvRS5_PT_DpOT0_ = comdat any

$_ZNSt15__allocated_ptrISaISt10_List_nodeIPN7rocksdb12ErrorHandlerEEEEaSEDn = comdat any

$_ZNSt15__allocated_ptrISaISt10_List_nodeIPN7rocksdb12ErrorHandlerEEEED2Ev = comdat any

$_ZNSt16allocator_traitsISaISt10_List_nodeIPN7rocksdb12ErrorHandlerEEEE8allocateERS5_m = comdat any

$_ZNSt15__new_allocatorISt10_List_nodeIPN7rocksdb12ErrorHandlerEEE8allocateEmPKv = comdat any

$_ZNKSt15__new_allocatorISt10_List_nodeIPN7rocksdb12ErrorHandlerEEE11_M_max_sizeEv = comdat any

$_ZNSt15__new_allocatorISt10_List_nodeIPN7rocksdb12ErrorHandlerEEE9constructIS3_JRKS3_EEEvPT_DpOT0_ = comdat any

$_ZNSt15__uniq_ptr_implISt6threadSt14default_deleteIS0_EE5resetEPS0_ = comdat any

$_ZNSt6thread11_State_implINS_8_InvokerISt5tupleIJMN7rocksdb18SstFileManagerImplEFvvEPS4_EEEEEC2IJS6_S7_EEEDpOT_ = comdat any

$_ZNSt10unique_ptrINSt6thread6_StateESt14default_deleteIS1_EEC2IS3_vEEPS1_ = comdat any

$_ZNSt10unique_ptrINSt6thread6_StateESt14default_deleteIS1_EED2Ev = comdat any

$_ZNSt6thread6_StateC2Ev = comdat any

$_ZNSt6thread8_InvokerISt5tupleIJMN7rocksdb18SstFileManagerImplEFvvEPS3_EEEC2IJS5_S6_EEEDpOT_ = comdat any

$_ZNSt6thread11_State_implINS_8_InvokerISt5tupleIJMN7rocksdb18SstFileManagerImplEFvvEPS4_EEEEED2Ev = comdat any

$_ZNSt6thread11_State_implINS_8_InvokerISt5tupleIJMN7rocksdb18SstFileManagerImplEFvvEPS4_EEEEED0Ev = comdat any

$_ZNSt6thread11_State_implINS_8_InvokerISt5tupleIJMN7rocksdb18SstFileManagerImplEFvvEPS4_EEEEE6_M_runEv = comdat any

$_ZNSt5tupleIJMN7rocksdb18SstFileManagerImplEFvvEPS1_EEC2IS3_S4_TnNSt9enable_ifIXclsr4_TCCIXntcl14__is_alloc_argIT_EEEEE29__is_implicitly_constructibleIS8_T0_EEEbE4typeELb1EEEOS8_OS9_ = comdat any

$_ZNSt11_Tuple_implILm0EJMN7rocksdb18SstFileManagerImplEFvvEPS1_EEC2IS3_JS4_EvEEOT_DpOT0_ = comdat any

$_ZNSt11_Tuple_implILm1EJPN7rocksdb18SstFileManagerImplEEEC2IS2_EEOT_ = comdat any

$_ZNSt10_Head_baseILm0EMN7rocksdb18SstFileManagerImplEFvvELb0EEC2IS3_EEOT_ = comdat any

$_ZNSt10_Head_baseILm1EPN7rocksdb18SstFileManagerImplELb0EEC2IS2_EEOT_ = comdat any

$_ZNSt6thread8_InvokerISt5tupleIJMN7rocksdb18SstFileManagerImplEFvvEPS3_EEEclEv = comdat any

$_ZNSt6thread8_InvokerISt5tupleIJMN7rocksdb18SstFileManagerImplEFvvEPS3_EEE9_M_invokeIJLm0ELm1EEEEvSt12_Index_tupleIJXspT_EEE = comdat any

$_ZSt8__invokeIMN7rocksdb18SstFileManagerImplEFvvEJPS1_EENSt15__invoke_resultIT_JDpT0_EE4typeEOS6_DpOS7_ = comdat any

$_ZSt3getILm0EJMN7rocksdb18SstFileManagerImplEFvvEPS1_EEONSt13tuple_elementIXT_ESt5tupleIJDpT0_EEE4typeEOS9_ = comdat any

$_ZSt3getILm1EJMN7rocksdb18SstFileManagerImplEFvvEPS1_EEONSt13tuple_elementIXT_ESt5tupleIJDpT0_EEE4typeEOS9_ = comdat any

$_ZSt13__invoke_implIvMN7rocksdb18SstFileManagerImplEFvvEPS1_JEET_St21__invoke_memfun_derefOT0_OT1_DpOT2_ = comdat any

$_ZSt12__get_helperILm0EMN7rocksdb18SstFileManagerImplEFvvEJPS1_EERT0_RSt11_Tuple_implIXT_EJS5_DpT1_EE = comdat any

$_ZNSt11_Tuple_implILm0EJMN7rocksdb18SstFileManagerImplEFvvEPS1_EE7_M_headERS5_ = comdat any

$_ZNSt10_Head_baseILm0EMN7rocksdb18SstFileManagerImplEFvvELb0EE7_M_headERS4_ = comdat any

$_ZSt12__get_helperILm1EPN7rocksdb18SstFileManagerImplEJEERT0_RSt11_Tuple_implIXT_EJS3_DpT1_EE = comdat any

$_ZNSt11_Tuple_implILm1EJPN7rocksdb18SstFileManagerImplEEE7_M_headERS3_ = comdat any

$_ZNSt10_Head_baseILm1EPN7rocksdb18SstFileManagerImplELb0EE7_M_headERS3_ = comdat any

$_ZNSt15__uniq_ptr_dataINSt6thread6_StateESt14default_deleteIS1_ELb1ELb1EECI2St15__uniq_ptr_implIS1_S3_EEPS1_ = comdat any

$_ZNSt15__uniq_ptr_implINSt6thread6_StateESt14default_deleteIS1_EEC2EPS1_ = comdat any

$_ZNSt5tupleIJPNSt6thread6_StateESt14default_deleteIS1_EEEC2ILb1ETnNSt9enable_ifIXclsr17_TupleConstraintsIXT_ES2_S4_EE37__is_implicitly_default_constructibleEEbE4typeELb1EEEv = comdat any

$_ZNSt15__uniq_ptr_implINSt6thread6_StateESt14default_deleteIS1_EE6_M_ptrEv = comdat any

$_ZNSt11_Tuple_implILm0EJPNSt6thread6_StateESt14default_deleteIS1_EEEC2Ev = comdat any

$_ZNSt11_Tuple_implILm1EJSt14default_deleteINSt6thread6_StateEEEEC2Ev = comdat any

$_ZNSt10_Head_baseILm0EPNSt6thread6_StateELb0EEC2Ev = comdat any

$_ZNSt10_Head_baseILm1ESt14default_deleteINSt6thread6_StateEELb1EEC2Ev = comdat any

$_ZSt3getILm0EJPNSt6thread6_StateESt14default_deleteIS1_EEERNSt13tuple_elementIXT_ESt5tupleIJDpT0_EEE4typeERS9_ = comdat any

$_ZSt12__get_helperILm0EPNSt6thread6_StateEJSt14default_deleteIS1_EEERT0_RSt11_Tuple_implIXT_EJS5_DpT1_EE = comdat any

$_ZNSt11_Tuple_implILm0EJPNSt6thread6_StateESt14default_deleteIS1_EEE7_M_headERS5_ = comdat any

$_ZNSt10_Head_baseILm0EPNSt6thread6_StateELb0EE7_M_headERS3_ = comdat any

$_ZNSt10unique_ptrINSt6thread6_StateESt14default_deleteIS1_EE11get_deleterEv = comdat any

$_ZNKSt14default_deleteINSt6thread6_StateEEclEPS1_ = comdat any

$_ZNSt15__uniq_ptr_implINSt6thread6_StateESt14default_deleteIS1_EE10_M_deleterEv = comdat any

$_ZSt3getILm1EJPNSt6thread6_StateESt14default_deleteIS1_EEERNSt13tuple_elementIXT_ESt5tupleIJDpT0_EEE4typeERS9_ = comdat any

$_ZSt12__get_helperILm1ESt14default_deleteINSt6thread6_StateEEJEERT0_RSt11_Tuple_implIXT_EJS4_DpT1_EE = comdat any

$_ZNSt11_Tuple_implILm1EJSt14default_deleteINSt6thread6_StateEEEE7_M_headERS4_ = comdat any

$_ZNSt10_Head_baseILm1ESt14default_deleteINSt6thread6_StateEELb1EE7_M_headERS4_ = comdat any

$_ZNSt14_List_iteratorIPN7rocksdb12ErrorHandlerEEC2EPNSt8__detail15_List_node_baseE = comdat any

$_ZNKSt20_List_const_iteratorIPN7rocksdb12ErrorHandlerEE13_M_const_castEv = comdat any

$_ZNSt10_HashtableINSt7__cxx1112basic_stringIcSt11char_traitsIcESaIcEEESt4pairIKS5_mESaIS8_ENSt8__detail10_Select1stESt8equal_toIS5_ESt4hashIS5_ENSA_18_Mod_range_hashingENSA_20_Default_ranged_hashENSA_20_Prime_rehash_policyENSA_17_Hashtable_traitsILb1ELb0ELb1EEEE4findERS7_ = comdat any

$_ZNKSt10_HashtableINSt7__cxx1112basic_stringIcSt11char_traitsIcESaIcEEESt4pairIKS5_mESaIS8_ENSt8__detail10_Select1stESt8equal_toIS5_ESt4hashIS5_ENSA_18_Mod_range_hashingENSA_20_Default_ranged_hashENSA_20_Prime_rehash_policyENSA_17_Hashtable_traitsILb1ELb0ELb1EEEE4sizeEv = comdat any

$_ZNSt10_HashtableINSt7__cxx1112basic_stringIcSt11char_traitsIcESaIcEEESt4pairIKS5_mESaIS8_ENSt8__detail10_Select1stESt8equal_toIS5_ESt4hashIS5_ENSA_18_Mod_range_hashingENSA_20_Default_ranged_hashENSA_20_Prime_rehash_policyENSA_17_Hashtable_traitsILb1ELb0ELb1EEEE22__small_size_thresholdEv = comdat any

$_ZNSt10_HashtableINSt7__cxx1112basic_stringIcSt11char_traitsIcESaIcEEESt4pairIKS5_mESaIS8_ENSt8__detail10_Select1stESt8equal_toIS5_ESt4hashIS5_ENSA_18_Mod_range_hashingENSA_20_Default_ranged_hashENSA_20_Prime_rehash_policyENSA_17_Hashtable_traitsILb1ELb0ELb1EEEE5beginEv = comdat any

$_ZNSt10_HashtableINSt7__cxx1112basic_stringIcSt11char_traitsIcESaIcEEESt4pairIKS5_mESaIS8_ENSt8__detail10_Select1stESt8equal_toIS5_ESt4hashIS5_ENSA_18_Mod_range_hashingENSA_20_Default_ranged_hashENSA_20_Prime_rehash_policyENSA_17_Hashtable_traitsILb1ELb0ELb1EEEE3endEv = comdat any

$_ZNSt8__detail14_Node_iteratorISt4pairIKNSt7__cxx1112basic_stringIcSt11char_traitsIcESaIcEEEmELb0ELb1EEppEv = comdat any

$_ZNSt8__detail22_Hashtable_hash_traitsISt4hashINSt7__cxx1112basic_stringIcSt11char_traitsIcESaIcEEEEE22__small_size_thresholdEv = comdat any

$_ZNSt8__detail19_Node_iterator_baseISt4pairIKNSt7__cxx1112basic_stringIcSt11char_traitsIcESaIcEEEmELb1EE7_M_incrEv = comdat any

$_ZNSt10_HashtableINSt7__cxx1112basic_stringIcSt11char_traitsIcESaIcEEESt4pairIKS5_mESaIS8_ENSt8__detail10_Select1stESt8equal_toIS5_ESt4hashIS5_ENSA_18_Mod_range_hashingENSA_20_Default_ranged_hashENSA_20_Prime_rehash_policyENSA_17_Hashtable_traitsILb1ELb0ELb1EEEE5eraseENSA_14_Node_iteratorIS8_Lb0ELb1EEE = comdat any

$_ZNSt10_HashtableINSt7__cxx1112basic_stringIcSt11char_traitsIcESaIcEEESt4pairIKS5_mESaIS8_ENSt8__detail10_Select1stESt8equal_toIS5_ESt4hashIS5_ENSA_18_Mod_range_hashingENSA_20_Default_ranged_hashENSA_20_Prime_rehash_policyENSA_17_Hashtable_traitsILb1ELb0ELb1EEEE5eraseENSA_20_Node_const_iteratorIS8_Lb0ELb1EEE = comdat any

$_ZNSt8__detail20_Node_const_iteratorISt4pairIKNSt7__cxx1112basic_stringIcSt11char_traitsIcESaIcEEEmELb0ELb1EEC2ERKNS_14_Node_iteratorIS9_Lb0ELb1EEE = comdat any

$_ZNSt10_HashtableINSt7__cxx1112basic_stringIcSt11char_traitsIcESaIcEEESt4pairIKS5_mESaIS8_ENSt8__detail10_Select1stESt8equal_toIS5_ESt4hashIS5_ENSA_18_Mod_range_hashingENSA_20_Default_ranged_hashENSA_20_Prime_rehash_policyENSA_17_Hashtable_traitsILb1ELb0ELb1EEEE20_M_get_previous_nodeEmPNSA_10_Hash_nodeIS8_Lb1EEE = comdat any

$_ZNSt10_HashtableINSt7__cxx1112basic_stringIcSt11char_traitsIcESaIcEEESt4pairIKS5_mESaIS8_ENSt8__detail10_Select1stESt8equal_toIS5_ESt4hashIS5_ENSA_18_Mod_range_hashingENSA_20_Default_ranged_hashENSA_20_Prime_rehash_policyENSA_17_Hashtable_traitsILb1ELb0ELb1EEEE8_M_eraseEmPNSA_15_Hash_node_baseEPNSA_10_Hash_nodeIS8_Lb1EEE = comdat any

$_ZNSt10_HashtableINSt7__cxx1112basic_stringIcSt11char_traitsIcESaIcEEESt4pairIKS5_mESaIS8_ENSt8__detail10_Select1stESt8equal_toIS5_ESt4hashIS5_ENSA_18_Mod_range_hashingENSA_20_Default_ranged_hashENSA_20_Prime_rehash_policyENSA_17_Hashtable_traitsILb1ELb0ELb1EEEE22_M_remove_bucket_beginEmPNSA_10_Hash_nodeIS8_Lb1EEEm = comdat any

$_ZSteqIcSt11char_traitsIcESaIcEEbRKNSt7__cxx1112basic_stringIT_T0_T1_EEPKS5_ = comdat any

$_ZTVN7rocksdb21InternalKeyComparatorE = comdat any

$_ZTVN7rocksdb14SstFileManagerE = comdat any

$_ZSt19piecewise_construct = comdat any

$_ZTVNSt6thread11_State_implINS_8_InvokerISt5tupleIJMN7rocksdb18SstFileManagerImplEFvvEPS4_EEEEEE = comdat any

@_ZN7rocksdbL18empty_operand_listE = internal global %"class.std::vector" zeroinitializer, align 8
@__dso_handle = external hidden global i8
@_ZTVN7rocksdb18SstFileManagerImplE = unnamed_addr constant { [18 x ptr] } { [18 x ptr] [ptr null, ptr null, ptr @_ZN7rocksdb18SstFileManagerImplD1Ev, ptr @_ZN7rocksdb18SstFileManagerImplD0Ev, ptr @_ZN7rocksdb18SstFileManagerImpl23SetMaxAllowedSpaceUsageEm, ptr @_ZN7rocksdb18SstFileManagerImpl23SetCompactionBufferSizeEm, ptr @_ZN7rocksdb18SstFileManagerImpl24IsMaxAllowedSpaceReachedEv, ptr @_ZN7rocksdb18SstFileManagerImpl44IsMaxAllowedSpaceReachedIncludingCompactionsEv, ptr @_ZN7rocksdb18SstFileManagerImpl12GetTotalSizeEv, ptr @_ZN7rocksdb18SstFileManagerImpl15GetTrackedFilesB5cxx11Ev, ptr @_ZN7rocksdb18SstFileManagerImpl27GetDeleteRateBytesPerSecondEv, ptr @_ZN7rocksdb18SstFileManagerImpl27SetDeleteRateBytesPerSecondEl, ptr @_ZN7rocksdb18SstFileManagerImpl18GetMaxTrashDBRatioEv, ptr @_ZN7rocksdb18SstFileManagerImpl18SetMaxTrashDBRatioEd, ptr @_ZN7rocksdb18SstFileManagerImpl17GetTotalTrashSizeEv, ptr @_ZN7rocksdb18SstFileManagerImpl16SetStatisticsPtrERKSt10shared_ptrINS_10StatisticsEE, ptr @_ZN7rocksdb18SstFileManagerImpl20ScheduleFileDeletionERKNSt7__cxx1112basic_stringIcSt11char_traitsIcESaIcEEES8_b, ptr @_ZN7rocksdb18SstFileManagerImpl17WaitForEmptyTrashEv] }, align 8
@_ZN7rocksdb23kDefaultToAdaptiveMutexE = external constant i8, align 1
@.str = private unnamed_addr constant [74 x i8] c"[%s:195] free space [%lu bytes] is less than needed headroom [%zu bytes]\0A\00", align 1
@.str.1 = private unnamed_addr constant [123 x i8] c"generated/home/dtcxzyw/WorkSpace/Projects/compilers/llvm-opt-benchmark/bench/rocksdb/rocksdb/file/sst_file_manager_impl.cc\00", align 1
@.str.2 = private unnamed_addr constant [79 x i8] c"[%s:278] free space [%lu bytes] is less than required disk buffer [%lu bytes]\0A\00", align 1
@.str.3 = private unnamed_addr constant [34 x i8] c"[%s:279] Cannot clear hard error\0A\00", align 1
@.str.4 = private unnamed_addr constant [92 x i8] c"[%s:289] free space [%lu bytes] is less than free space for compaction trigger [%lu bytes]\0A\00", align 1
@.str.5 = private unnamed_addr constant [34 x i8] c"[%s:290] Cannot clear soft error\0A\00", align 1
@.str.6 = private unnamed_addr constant [25 x i8] c"[%s:345] Clearing error\0A\00", align 1
@.str.7 = private unnamed_addr constant [1 x i8] zeroinitializer, align 1
@.str.8 = private unnamed_addr constant [2 x i8] c"/\00", align 1
@_ZTVN7rocksdb21InternalKeyComparatorE = linkonce_odr unnamed_addr constant { [5 x ptr] } { [5 x ptr] [ptr null, ptr null, ptr @_ZN7rocksdb21InternalKeyComparatorD2Ev, ptr @_ZN7rocksdb21InternalKeyComparatorD0Ev, ptr @_ZNK7rocksdb21InternalKeyComparator7CompareERKNS_5SliceES3_] }, comdat, align 8
@_ZN7rocksdb10perf_levelE = external thread_local global i8, align 1
@_ZN7rocksdb12perf_contextE = external thread_local global %"struct.rocksdb::PerfContext", align 8
@_ZTVN7rocksdb14SstFileManagerE = linkonce_odr unnamed_addr constant { [16 x ptr] } { [16 x ptr] [ptr null, ptr null, ptr @_ZN7rocksdb14SstFileManagerD2Ev, ptr @_ZN7rocksdb14SstFileManagerD0Ev, ptr @__cxa_pure_virtual, ptr @__cxa_pure_virtual, ptr @__cxa_pure_virtual, ptr @__cxa_pure_virtual, ptr @__cxa_pure_virtual, ptr @__cxa_pure_virtual, ptr @__cxa_pure_virtual, ptr @__cxa_pure_virtual, ptr @__cxa_pure_virtual, ptr @__cxa_pure_virtual, ptr @__cxa_pure_virtual, ptr @__cxa_pure_virtual] }, comdat, align 8
@__libc_single_threaded = external global i8, align 1
@_ZSt19piecewise_construct = linkonce_odr constant %"struct.std::piecewise_construct_t" zeroinitializer, comdat, align 1
@_ZTVNSt6thread11_State_implINS_8_InvokerISt5tupleIJMN7rocksdb18SstFileManagerImplEFvvEPS4_EEEEEE = linkonce_odr unnamed_addr constant { [5 x ptr] } { [5 x ptr] [ptr null, ptr null, ptr @_ZNSt6thread11_State_implINS_8_InvokerISt5tupleIJMN7rocksdb18SstFileManagerImplEFvvEPS4_EEEEED2Ev, ptr @_ZNSt6thread11_State_implINS_8_InvokerISt5tupleIJMN7rocksdb18SstFileManagerImplEFvvEPS4_EEEEED0Ev, ptr @_ZNSt6thread11_State_implINS_8_InvokerISt5tupleIJMN7rocksdb18SstFileManagerImplEFvvEPS4_EEEEE6_M_runEv] }, comdat, align 8
@_ZTVNSt6thread6_StateE = external unnamed_addr constant { [5 x ptr] }, align 8
@llvm.global_ctors = appending global [1 x { i32, ptr, ptr }] [{ i32, ptr, ptr } { i32 65535, ptr @_GLOBAL__sub_I_sst_file_manager_impl.cc, ptr null }]

@_ZN7rocksdb18SstFileManagerImplC1ERKSt10shared_ptrINS_11SystemClockEERKS1_INS_10FileSystemEERKS1_INS_6LoggerEEldm = unnamed_addr alias void (ptr, ptr, ptr, ptr, i64, double, i64), ptr @_ZN7rocksdb18SstFileManagerImplC2ERKSt10shared_ptrINS_11SystemClockEERKS1_INS_10FileSystemEERKS1_INS_6LoggerEEldm
@_ZN7rocksdb18SstFileManagerImplD1Ev = unnamed_addr alias void (ptr), ptr @_ZN7rocksdb18SstFileManagerImplD2Ev

; Function Attrs: mustprogress uwtable
define linkonce_odr noundef i32 @_ZNK7rocksdb21InternalKeyComparator7CompareERKNS_5SliceES3_(ptr noundef nonnull align 8 dereferenceable(16) %this, ptr noundef nonnull align 8 dereferenceable(16) %akey, ptr noundef nonnull align 8 dereferenceable(16) %bkey) unnamed_addr #0 comdat align 2 {
entry:
  %this.addr = alloca ptr, align 8
  %akey.addr = alloca ptr, align 8
  %bkey.addr = alloca ptr, align 8
  %r = alloca i32, align 4
  %ref.tmp = alloca %"class.rocksdb::Slice", align 8
  %ref.tmp2 = alloca %"class.rocksdb::Slice", align 8
  %anum = alloca i64, align 8
  %bnum = alloca i64, align 8
  store ptr %this, ptr %this.addr, align 8
  store ptr %akey, ptr %akey.addr, align 8
  store ptr %bkey, ptr %bkey.addr, align 8
  %this1 = load ptr, ptr %this.addr, align 8
  %user_comparator_ = getelementptr inbounds %"class.rocksdb::InternalKeyComparator", ptr %this1, i32 0, i32 1
  %0 = load ptr, ptr %akey.addr, align 8
  %call = call { ptr, i64 } @_ZN7rocksdb14ExtractUserKeyERKNS_5SliceE(ptr noundef nonnull align 8 dereferenceable(16) %0)
  %1 = getelementptr inbounds { ptr, i64 }, ptr %ref.tmp, i32 0, i32 0
  %2 = extractvalue { ptr, i64 } %call, 0
  store ptr %2, ptr %1, align 8
  %3 = getelementptr inbounds { ptr, i64 }, ptr %ref.tmp, i32 0, i32 1
  %4 = extractvalue { ptr, i64 } %call, 1
  store i64 %4, ptr %3, align 8
  %5 = load ptr, ptr %bkey.addr, align 8
  %call3 = call { ptr, i64 } @_ZN7rocksdb14ExtractUserKeyERKNS_5SliceE(ptr noundef nonnull align 8 dereferenceable(16) %5)
  %6 = getelementptr inbounds { ptr, i64 }, ptr %ref.tmp2, i32 0, i32 0
  %7 = extractvalue { ptr, i64 } %call3, 0
  store ptr %7, ptr %6, align 8
  %8 = getelementptr inbounds { ptr, i64 }, ptr %ref.tmp2, i32 0, i32 1
  %9 = extractvalue { ptr, i64 } %call3, 1
  store i64 %9, ptr %8, align 8
  %call4 = call noundef i32 @_ZNK7rocksdb21UserComparatorWrapper7CompareERKNS_5SliceES3_(ptr noundef nonnull align 8 dereferenceable(8) %user_comparator_, ptr noundef nonnull align 8 dereferenceable(16) %ref.tmp, ptr noundef nonnull align 8 dereferenceable(16) %ref.tmp2)
  store i32 %call4, ptr %r, align 4
  %10 = load i32, ptr %r, align 4
  %cmp = icmp eq i32 %10, 0
  br i1 %cmp, label %if.then, label %if.end19

if.then:                                          ; preds = %entry
  %11 = load ptr, ptr %akey.addr, align 8
  %call5 = call noundef ptr @_ZNK7rocksdb5Slice4dataEv(ptr noundef nonnull align 8 dereferenceable(16) %11)
  %12 = load ptr, ptr %akey.addr, align 8
  %call6 = call noundef i64 @_ZNK7rocksdb5Slice4sizeEv(ptr noundef nonnull align 8 dereferenceable(16) %12)
  %add.ptr = getelementptr inbounds i8, ptr %call5, i64 %call6
  %add.ptr7 = getelementptr inbounds i8, ptr %add.ptr, i64 -8
  %call8 = call noundef i64 @_ZN7rocksdb13DecodeFixed64EPKc(ptr noundef %add.ptr7)
  store i64 %call8, ptr %anum, align 8
  %13 = load ptr, ptr %bkey.addr, align 8
  %call9 = call noundef ptr @_ZNK7rocksdb5Slice4dataEv(ptr noundef nonnull align 8 dereferenceable(16) %13)
  %14 = load ptr, ptr %bkey.addr, align 8
  %call10 = call noundef i64 @_ZNK7rocksdb5Slice4sizeEv(ptr noundef nonnull align 8 dereferenceable(16) %14)
  %add.ptr11 = getelementptr inbounds i8, ptr %call9, i64 %call10
  %add.ptr12 = getelementptr inbounds i8, ptr %add.ptr11, i64 -8
  %call13 = call noundef i64 @_ZN7rocksdb13DecodeFixed64EPKc(ptr noundef %add.ptr12)
  store i64 %call13, ptr %bnum, align 8
  %15 = load i64, ptr %anum, align 8
  %16 = load i64, ptr %bnum, align 8
  %cmp14 = icmp ugt i64 %15, %16
  br i1 %cmp14, label %if.then15, label %if.else

if.then15:                                        ; preds = %if.then
  store i32 -1, ptr %r, align 4
  br label %if.end18

if.else:                                          ; preds = %if.then
  %17 = load i64, ptr %anum, align 8
  %18 = load i64, ptr %bnum, align 8
  %cmp16 = icmp ult i64 %17, %18
  br i1 %cmp16, label %if.then17, label %if.end

if.then17:                                        ; preds = %if.else
  store i32 1, ptr %r, align 4
  br label %if.end

if.end:                                           ; preds = %if.then17, %if.else
  br label %if.end18

if.end18:                                         ; preds = %if.end, %if.then15
  br label %if.end19

if.end19:                                         ; preds = %if.end18, %entry
  %19 = load i32, ptr %r, align 4
  ret i32 %19
}

; Function Attrs: mustprogress uwtable
define linkonce_odr noundef i32 @_ZNK7rocksdb21UserComparatorWrapper7CompareERKNS_5SliceES3_(ptr noundef nonnull align 8 dereferenceable(8) %this, ptr noundef nonnull align 8 dereferenceable(16) %a, ptr noundef nonnull align 8 dereferenceable(16) %b) #0 comdat align 2 {
entry:
  %this.addr = alloca ptr, align 8
  %a.addr = alloca ptr, align 8
  %b.addr = alloca ptr, align 8
  store ptr %this, ptr %this.addr, align 8
  store ptr %a, ptr %a.addr, align 8
  store ptr %b, ptr %b.addr, align 8
  %this1 = load ptr, ptr %this.addr, align 8
  %0 = call ptr @_ZTWN7rocksdb10perf_levelE()
  %1 = load i8, ptr %0, align 1
  %conv = zext i8 %1 to i32
  %cmp = icmp sge i32 %conv, 2
  br i1 %cmp, label %if.then, label %if.end

if.then:                                          ; preds = %entry
  %2 = call ptr @_ZTWN7rocksdb12perf_contextE()
  %user_key_comparison_count = getelementptr inbounds %"struct.rocksdb::PerfContextBase", ptr %2, i32 0, i32 0
  %3 = load i64, ptr %user_key_comparison_count, align 8
  %add = add i64 %3, 1
  store i64 %add, ptr %user_key_comparison_count, align 8
  br label %if.end

if.end:                                           ; preds = %if.then, %entry
  %user_comparator_ = getelementptr inbounds %"class.rocksdb::UserComparatorWrapper", ptr %this1, i32 0, i32 0
  %4 = load ptr, ptr %user_comparator_, align 8
  %add.ptr = getelementptr inbounds i8, ptr %4, i64 32
  %5 = load ptr, ptr %a.addr, align 8
  %6 = load ptr, ptr %b.addr, align 8
  %vtable = load ptr, ptr %add.ptr, align 8
  %vfn = getelementptr inbounds ptr, ptr %vtable, i64 2
  %7 = load ptr, ptr %vfn, align 8
  %call = call noundef i32 %7(ptr noundef nonnull align 8 dereferenceable(8) %add.ptr, ptr noundef nonnull align 8 dereferenceable(16) %5, ptr noundef nonnull align 8 dereferenceable(16) %6)
  ret i32 %call
}

; Function Attrs: mustprogress uwtable
define linkonce_odr { ptr, i64 } @_ZN7rocksdb14ExtractUserKeyERKNS_5SliceE(ptr noundef nonnull align 8 dereferenceable(16) %internal_key) #0 comdat {
entry:
  %retval = alloca %"class.rocksdb::Slice", align 8
  %internal_key.addr = alloca ptr, align 8
  store ptr %internal_key, ptr %internal_key.addr, align 8
  %0 = load ptr, ptr %internal_key.addr, align 8
  %call = call noundef ptr @_ZNK7rocksdb5Slice4dataEv(ptr noundef nonnull align 8 dereferenceable(16) %0)
  %1 = load ptr, ptr %internal_key.addr, align 8
  %call1 = call noundef i64 @_ZNK7rocksdb5Slice4sizeEv(ptr noundef nonnull align 8 dereferenceable(16) %1)
  %sub = sub i64 %call1, 8
  call void @_ZN7rocksdb5SliceC2EPKcm(ptr noundef nonnull align 8 dereferenceable(16) %retval, ptr noundef %call, i64 noundef %sub)
  %2 = load { ptr, i64 }, ptr %retval, align 8
  ret { ptr, i64 } %2
}

; Function Attrs: mustprogress nounwind uwtable
define linkonce_odr noundef i64 @_ZN7rocksdb13DecodeFixed64EPKc(ptr noundef %ptr) #1 comdat {
entry:
  %ptr.addr = alloca ptr, align 8
  %result = alloca i64, align 8
  store ptr %ptr, ptr %ptr.addr, align 8
  %0 = load ptr, ptr %ptr.addr, align 8
  call void @llvm.memcpy.p0.p0.i64(ptr align 8 %result, ptr align 1 %0, i64 8, i1 false)
  %1 = load i64, ptr %result, align 8
  ret i64 %1
}

; Function Attrs: mustprogress nounwind uwtable
define linkonce_odr noundef ptr @_ZNK7rocksdb5Slice4dataEv(ptr noundef nonnull align 8 dereferenceable(16) %this) #1 comdat align 2 {
entry:
  %this.addr = alloca ptr, align 8
  store ptr %this, ptr %this.addr, align 8
  %this1 = load ptr, ptr %this.addr, align 8
  %data_ = getelementptr inbounds %"class.rocksdb::Slice", ptr %this1, i32 0, i32 0
  %0 = load ptr, ptr %data_, align 8
  ret ptr %0
}

; Function Attrs: mustprogress nounwind uwtable
define linkonce_odr noundef i64 @_ZNK7rocksdb5Slice4sizeEv(ptr noundef nonnull align 8 dereferenceable(16) %this) #1 comdat align 2 {
entry:
  %this.addr = alloca ptr, align 8
  store ptr %this, ptr %this.addr, align 8
  %this1 = load ptr, ptr %this.addr, align 8
  %size_ = getelementptr inbounds %"class.rocksdb::Slice", ptr %this1, i32 0, i32 1
  %0 = load i64, ptr %size_, align 8
  ret i64 %0
}

; Function Attrs: uwtable
define internal void @__cxx_global_var_init() #2 section ".text.startup" {
entry:
  call void @_ZNSt6vectorIN7rocksdb5SliceESaIS1_EEC2Ev(ptr noundef nonnull align 8 dereferenceable(24) @_ZN7rocksdbL18empty_operand_listE) #3
  %0 = call i32 @__cxa_atexit(ptr @_ZNSt6vectorIN7rocksdb5SliceESaIS1_EED2Ev, ptr @_ZN7rocksdbL18empty_operand_listE, ptr @__dso_handle) #3
  ret void
}

; Function Attrs: mustprogress nounwind uwtable
define linkonce_odr void @_ZNSt6vectorIN7rocksdb5SliceESaIS1_EEC2Ev(ptr noundef nonnull align 8 dereferenceable(24) %this) unnamed_addr #1 comdat align 2 {
entry:
  %this.addr = alloca ptr, align 8
  store ptr %this, ptr %this.addr, align 8
  %this1 = load ptr, ptr %this.addr, align 8
  call void @_ZNSt12_Vector_baseIN7rocksdb5SliceESaIS1_EEC2Ev(ptr noundef nonnull align 8 dereferenceable(24) %this1) #3
  ret void
}

; Function Attrs: mustprogress nounwind uwtable
define linkonce_odr void @_ZNSt6vectorIN7rocksdb5SliceESaIS1_EED2Ev(ptr noundef nonnull align 8 dereferenceable(24) %this) unnamed_addr #1 comdat align 2 personality ptr @__gxx_personality_v0 {
entry:
  %this.addr = alloca ptr, align 8
  store ptr %this, ptr %this.addr, align 8
  %this1 = load ptr, ptr %this.addr, align 8
  %_M_impl = getelementptr inbounds %"struct.std::_Vector_base", ptr %this1, i32 0, i32 0
  %_M_start = getelementptr inbounds %"struct.std::_Vector_base<rocksdb::Slice, std::allocator<rocksdb::Slice>>::_Vector_impl_data", ptr %_M_impl, i32 0, i32 0
  %0 = load ptr, ptr %_M_start, align 8
  %_M_impl2 = getelementptr inbounds %"struct.std::_Vector_base", ptr %this1, i32 0, i32 0
  %_M_finish = getelementptr inbounds %"struct.std::_Vector_base<rocksdb::Slice, std::allocator<rocksdb::Slice>>::_Vector_impl_data", ptr %_M_impl2, i32 0, i32 1
  %1 = load ptr, ptr %_M_finish, align 8
  %call = call noundef nonnull align 1 dereferenceable(1) ptr @_ZNSt12_Vector_baseIN7rocksdb5SliceESaIS1_EE19_M_get_Tp_allocatorEv(ptr noundef nonnull align 8 dereferenceable(24) %this1) #3
  invoke void @_ZSt8_DestroyIPN7rocksdb5SliceES1_EvT_S3_RSaIT0_E(ptr noundef %0, ptr noundef %1, ptr noundef nonnull align 1 dereferenceable(1) %call)
          to label %invoke.cont unwind label %terminate.lpad

invoke.cont:                                      ; preds = %entry
  call void @_ZNSt12_Vector_baseIN7rocksdb5SliceESaIS1_EED2Ev(ptr noundef nonnull align 8 dereferenceable(24) %this1) #3
  ret void

terminate.lpad:                                   ; preds = %entry
  %2 = landingpad { ptr, i32 }
          catch ptr null
  %3 = extractvalue { ptr, i32 } %2, 0
  call void @__clang_call_terminate(ptr %3) #15
  unreachable
}

; Function Attrs: nounwind
declare i32 @__cxa_atexit(ptr, ptr, ptr) #3

; Function Attrs: mustprogress uwtable
define void @_ZN7rocksdb18SstFileManagerImplC2ERKSt10shared_ptrINS_11SystemClockEERKS1_INS_10FileSystemEERKS1_INS_6LoggerEEldm(ptr noundef nonnull align 8 dereferenceable(808) %this, ptr noundef nonnull align 8 dereferenceable(16) %clock, ptr noundef nonnull align 8 dereferenceable(16) %fs, ptr noundef nonnull align 8 dereferenceable(16) %logger, i64 noundef %rate_bytes_per_sec, double noundef %max_trash_db_ratio, i64 noundef %bytes_max_delete_chunk) unnamed_addr #0 align 2 personality ptr @__gxx_personality_v0 {
entry:
  %this.addr = alloca ptr, align 8
  %clock.addr = alloca ptr, align 8
  %fs.addr = alloca ptr, align 8
  %logger.addr = alloca ptr, align 8
  %rate_bytes_per_sec.addr = alloca i64, align 8
  %max_trash_db_ratio.addr = alloca double, align 8
  %bytes_max_delete_chunk.addr = alloca i64, align 8
  %exn.slot = alloca ptr, align 8
  %ehselector.slot = alloca i32, align 4
  store ptr %this, ptr %this.addr, align 8
  store ptr %clock, ptr %clock.addr, align 8
  store ptr %fs, ptr %fs.addr, align 8
  store ptr %logger, ptr %logger.addr, align 8
  store i64 %rate_bytes_per_sec, ptr %rate_bytes_per_sec.addr, align 8
  store double %max_trash_db_ratio, ptr %max_trash_db_ratio.addr, align 8
  store i64 %bytes_max_delete_chunk, ptr %bytes_max_delete_chunk.addr, align 8
  %this1 = load ptr, ptr %this.addr, align 8
  call void @_ZN7rocksdb14SstFileManagerC2Ev(ptr noundef nonnull align 8 dereferenceable(8) %this1) #3
  store ptr getelementptr inbounds ({ [18 x ptr] }, ptr @_ZTVN7rocksdb18SstFileManagerImplE, i32 0, inrange i32 0, i32 2), ptr %this1, align 8
  %clock_ = getelementptr inbounds %"class.rocksdb::SstFileManagerImpl", ptr %this1, i32 0, i32 1
  %0 = load ptr, ptr %clock.addr, align 8
  call void @_ZNSt10shared_ptrIN7rocksdb11SystemClockEEC2ERKS2_(ptr noundef nonnull align 8 dereferenceable(16) %clock_, ptr noundef nonnull align 8 dereferenceable(16) %0) #3
  %fs_ = getelementptr inbounds %"class.rocksdb::SstFileManagerImpl", ptr %this1, i32 0, i32 2
  %1 = load ptr, ptr %fs.addr, align 8
  call void @_ZNSt10shared_ptrIN7rocksdb10FileSystemEEC2ERKS2_(ptr noundef nonnull align 8 dereferenceable(16) %fs_, ptr noundef nonnull align 8 dereferenceable(16) %1) #3
  %logger_ = getelementptr inbounds %"class.rocksdb::SstFileManagerImpl", ptr %this1, i32 0, i32 3
  %2 = load ptr, ptr %logger.addr, align 8
  call void @_ZNSt10shared_ptrIN7rocksdb6LoggerEEC2ERKS2_(ptr noundef nonnull align 8 dereferenceable(16) %logger_, ptr noundef nonnull align 8 dereferenceable(16) %2) #3
  %mu_ = getelementptr inbounds %"class.rocksdb::SstFileManagerImpl", ptr %this1, i32 0, i32 4
  %3 = load i8, ptr @_ZN7rocksdb23kDefaultToAdaptiveMutexE, align 1
  %tobool = trunc i8 %3 to i1
  invoke void @_ZN7rocksdb4port5MutexC1Eb(ptr noundef nonnull align 8 dereferenceable(40) %mu_, i1 noundef zeroext %tobool)
          to label %invoke.cont unwind label %lpad

invoke.cont:                                      ; preds = %entry
  %total_files_size_ = getelementptr inbounds %"class.rocksdb::SstFileManagerImpl", ptr %this1, i32 0, i32 5
  store i64 0, ptr %total_files_size_, align 8
  %compaction_buffer_size_ = getelementptr inbounds %"class.rocksdb::SstFileManagerImpl", ptr %this1, i32 0, i32 6
  store i64 0, ptr %compaction_buffer_size_, align 8
  %cur_compactions_reserved_size_ = getelementptr inbounds %"class.rocksdb::SstFileManagerImpl", ptr %this1, i32 0, i32 7
  store i64 0, ptr %cur_compactions_reserved_size_, align 8
  %tracked_files_ = getelementptr inbounds %"class.rocksdb::SstFileManagerImpl", ptr %this1, i32 0, i32 8
  call void @_ZNSt13unordered_mapINSt7__cxx1112basic_stringIcSt11char_traitsIcESaIcEEEmSt4hashIS5_ESt8equal_toIS5_ESaISt4pairIKS5_mEEEC2Ev(ptr noundef nonnull align 8 dereferenceable(56) %tracked_files_) #3
  %max_allowed_space_ = getelementptr inbounds %"class.rocksdb::SstFileManagerImpl", ptr %this1, i32 0, i32 9
  store i64 0, ptr %max_allowed_space_, align 8
  %delete_scheduler_ = getelementptr inbounds %"class.rocksdb::SstFileManagerImpl", ptr %this1, i32 0, i32 10
  %clock_2 = getelementptr inbounds %"class.rocksdb::SstFileManagerImpl", ptr %this1, i32 0, i32 1
  %call = call noundef ptr @_ZNKSt12__shared_ptrIN7rocksdb11SystemClockELN9__gnu_cxx12_Lock_policyE2EE3getEv(ptr noundef nonnull align 8 dereferenceable(16) %clock_2) #3
  %fs_3 = getelementptr inbounds %"class.rocksdb::SstFileManagerImpl", ptr %this1, i32 0, i32 2
  %call4 = call noundef ptr @_ZNKSt12__shared_ptrIN7rocksdb10FileSystemELN9__gnu_cxx12_Lock_policyE2EE3getEv(ptr noundef nonnull align 8 dereferenceable(16) %fs_3) #3
  %4 = load i64, ptr %rate_bytes_per_sec.addr, align 8
  %5 = load ptr, ptr %logger.addr, align 8
  %call5 = call noundef ptr @_ZNKSt12__shared_ptrIN7rocksdb6LoggerELN9__gnu_cxx12_Lock_policyE2EE3getEv(ptr noundef nonnull align 8 dereferenceable(16) %5) #3
  %6 = load double, ptr %max_trash_db_ratio.addr, align 8
  %7 = load i64, ptr %bytes_max_delete_chunk.addr, align 8
  invoke void @_ZN7rocksdb15DeleteSchedulerC1EPNS_11SystemClockEPNS_10FileSystemElPNS_6LoggerEPNS_18SstFileManagerImplEdm(ptr noundef nonnull align 8 dereferenceable(440) %delete_scheduler_, ptr noundef %call, ptr noundef %call4, i64 noundef %4, ptr noundef %call5, ptr noundef %this1, double noundef %6, i64 noundef %7)
          to label %invoke.cont7 unwind label %lpad6

invoke.cont7:                                     ; preds = %invoke.cont
  %cv_ = getelementptr inbounds %"class.rocksdb::SstFileManagerImpl", ptr %this1, i32 0, i32 11
  %mu_8 = getelementptr inbounds %"class.rocksdb::SstFileManagerImpl", ptr %this1, i32 0, i32 4
  invoke void @_ZN7rocksdb4port7CondVarC1EPNS0_5MutexE(ptr noundef nonnull align 8 dereferenceable(56) %cv_, ptr noundef %mu_8)
          to label %invoke.cont10 unwind label %lpad9

invoke.cont10:                                    ; preds = %invoke.cont7
  %closing_ = getelementptr inbounds %"class.rocksdb::SstFileManagerImpl", ptr %this1, i32 0, i32 12
  store i8 0, ptr %closing_, align 8
  %bg_thread_ = getelementptr inbounds %"class.rocksdb::SstFileManagerImpl", ptr %this1, i32 0, i32 13
  call void @_ZNSt10unique_ptrISt6threadSt14default_deleteIS0_EEC2IS2_vEEDn(ptr noundef nonnull align 8 dereferenceable(8) %bg_thread_, ptr null) #3
  %path_ = getelementptr inbounds %"class.rocksdb::SstFileManagerImpl", ptr %this1, i32 0, i32 14
  call void @_ZNSt7__cxx1112basic_stringIcSt11char_traitsIcESaIcEEC1Ev(ptr noundef nonnull align 8 dereferenceable(32) %path_) #3
  %bg_err_ = getelementptr inbounds %"class.rocksdb::SstFileManagerImpl", ptr %this1, i32 0, i32 15
  invoke void @_ZN7rocksdb6StatusC2Ev(ptr noundef nonnull align 8 dereferenceable(16) %bg_err_)
          to label %invoke.cont12 unwind label %lpad11

invoke.cont12:                                    ; preds = %invoke.cont10
  %reserved_disk_buffer_ = getelementptr inbounds %"class.rocksdb::SstFileManagerImpl", ptr %this1, i32 0, i32 16
  store i64 0, ptr %reserved_disk_buffer_, align 8
  %free_space_trigger_ = getelementptr inbounds %"class.rocksdb::SstFileManagerImpl", ptr %this1, i32 0, i32 17
  store i64 0, ptr %free_space_trigger_, align 8
  %error_handler_list_ = getelementptr inbounds %"class.rocksdb::SstFileManagerImpl", ptr %this1, i32 0, i32 18
  call void @_ZNSt7__cxx114listIPN7rocksdb12ErrorHandlerESaIS3_EEC2Ev(ptr noundef nonnull align 8 dereferenceable(24) %error_handler_list_) #3
  %cur_instance_ = getelementptr inbounds %"class.rocksdb::SstFileManagerImpl", ptr %this1, i32 0, i32 19
  store ptr null, ptr %cur_instance_, align 8
  %stats_ = getelementptr inbounds %"class.rocksdb::SstFileManagerImpl", ptr %this1, i32 0, i32 20
  call void @_ZNSt10shared_ptrIN7rocksdb10StatisticsEEC2Ev(ptr noundef nonnull align 8 dereferenceable(16) %stats_) #3
  ret void

lpad:                                             ; preds = %entry
  %8 = landingpad { ptr, i32 }
          cleanup
  %9 = extractvalue { ptr, i32 } %8, 0
  store ptr %9, ptr %exn.slot, align 8
  %10 = extractvalue { ptr, i32 } %8, 1
  store i32 %10, ptr %ehselector.slot, align 4
  br label %ehcleanup15

lpad6:                                            ; preds = %invoke.cont
  %11 = landingpad { ptr, i32 }
          cleanup
  %12 = extractvalue { ptr, i32 } %11, 0
  store ptr %12, ptr %exn.slot, align 8
  %13 = extractvalue { ptr, i32 } %11, 1
  store i32 %13, ptr %ehselector.slot, align 4
  br label %ehcleanup13

lpad9:                                            ; preds = %invoke.cont7
  %14 = landingpad { ptr, i32 }
          cleanup
  %15 = extractvalue { ptr, i32 } %14, 0
  store ptr %15, ptr %exn.slot, align 8
  %16 = extractvalue { ptr, i32 } %14, 1
  store i32 %16, ptr %ehselector.slot, align 4
  br label %ehcleanup

lpad11:                                           ; preds = %invoke.cont10
  %17 = landingpad { ptr, i32 }
          cleanup
  %18 = extractvalue { ptr, i32 } %17, 0
  store ptr %18, ptr %exn.slot, align 8
  %19 = extractvalue { ptr, i32 } %17, 1
  store i32 %19, ptr %ehselector.slot, align 4
  call void @_ZNSt7__cxx1112basic_stringIcSt11char_traitsIcESaIcEED1Ev(ptr noundef nonnull align 8 dereferenceable(32) %path_) #3
  call void @_ZNSt10unique_ptrISt6threadSt14default_deleteIS0_EED2Ev(ptr noundef nonnull align 8 dereferenceable(8) %bg_thread_) #3
  call void @_ZN7rocksdb4port7CondVarD1Ev(ptr noundef nonnull align 8 dereferenceable(56) %cv_) #3
  br label %ehcleanup

ehcleanup:                                        ; preds = %lpad11, %lpad9
  call void @_ZN7rocksdb15DeleteSchedulerD1Ev(ptr noundef nonnull align 8 dereferenceable(440) %delete_scheduler_) #3
  br label %ehcleanup13

ehcleanup13:                                      ; preds = %ehcleanup, %lpad6
  call void @_ZNSt13unordered_mapINSt7__cxx1112basic_stringIcSt11char_traitsIcESaIcEEEmSt4hashIS5_ESt8equal_toIS5_ESaISt4pairIKS5_mEEED2Ev(ptr noundef nonnull align 8 dereferenceable(56) %tracked_files_) #3
  call void @_ZN7rocksdb4port5MutexD1Ev(ptr noundef nonnull align 8 dereferenceable(40) %mu_) #3
  br label %ehcleanup15

ehcleanup15:                                      ; preds = %ehcleanup13, %lpad
  call void @_ZNSt10shared_ptrIN7rocksdb6LoggerEED2Ev(ptr noundef nonnull align 8 dereferenceable(16) %logger_) #3
  call void @_ZNSt10shared_ptrIN7rocksdb10FileSystemEED2Ev(ptr noundef nonnull align 8 dereferenceable(16) %fs_) #3
  call void @_ZNSt10shared_ptrIN7rocksdb11SystemClockEED2Ev(ptr noundef nonnull align 8 dereferenceable(16) %clock_) #3
  call void @_ZN7rocksdb14SstFileManagerD2Ev(ptr noundef nonnull align 8 dereferenceable(8) %this1) #3
  br label %eh.resume

eh.resume:                                        ; preds = %ehcleanup15
  %exn = load ptr, ptr %exn.slot, align 8
  %sel = load i32, ptr %ehselector.slot, align 4
  %lpad.val = insertvalue { ptr, i32 } poison, ptr %exn, 0
  %lpad.val19 = insertvalue { ptr, i32 } %lpad.val, i32 %sel, 1
  resume { ptr, i32 } %lpad.val19
}

; Function Attrs: mustprogress nounwind uwtable
define linkonce_odr void @_ZN7rocksdb14SstFileManagerC2Ev(ptr noundef nonnull align 8 dereferenceable(8) %this) unnamed_addr #1 comdat align 2 {
entry:
  %this.addr = alloca ptr, align 8
  store ptr %this, ptr %this.addr, align 8
  %this1 = load ptr, ptr %this.addr, align 8
  store ptr getelementptr inbounds ({ [16 x ptr] }, ptr @_ZTVN7rocksdb14SstFileManagerE, i32 0, inrange i32 0, i32 2), ptr %this1, align 8
  ret void
}

; Function Attrs: mustprogress nounwind uwtable
define linkonce_odr void @_ZNSt10shared_ptrIN7rocksdb11SystemClockEEC2ERKS2_(ptr noundef nonnull align 8 dereferenceable(16) %this, ptr noundef nonnull align 8 dereferenceable(16) %0) unnamed_addr #1 comdat align 2 {
entry:
  %this.addr = alloca ptr, align 8
  %.addr = alloca ptr, align 8
  store ptr %this, ptr %this.addr, align 8
  store ptr %0, ptr %.addr, align 8
  %this1 = load ptr, ptr %this.addr, align 8
  %1 = load ptr, ptr %.addr, align 8
  call void @_ZNSt12__shared_ptrIN7rocksdb11SystemClockELN9__gnu_cxx12_Lock_policyE2EEC2ERKS4_(ptr noundef nonnull align 8 dereferenceable(16) %this1, ptr noundef nonnull align 8 dereferenceable(16) %1) #3
  ret void
}

; Function Attrs: mustprogress nounwind uwtable
define linkonce_odr void @_ZNSt10shared_ptrIN7rocksdb10FileSystemEEC2ERKS2_(ptr noundef nonnull align 8 dereferenceable(16) %this, ptr noundef nonnull align 8 dereferenceable(16) %0) unnamed_addr #1 comdat align 2 {
entry:
  %this.addr = alloca ptr, align 8
  %.addr = alloca ptr, align 8
  store ptr %this, ptr %this.addr, align 8
  store ptr %0, ptr %.addr, align 8
  %this1 = load ptr, ptr %this.addr, align 8
  %1 = load ptr, ptr %.addr, align 8
  call void @_ZNSt12__shared_ptrIN7rocksdb10FileSystemELN9__gnu_cxx12_Lock_policyE2EEC2ERKS4_(ptr noundef nonnull align 8 dereferenceable(16) %this1, ptr noundef nonnull align 8 dereferenceable(16) %1) #3
  ret void
}

; Function Attrs: mustprogress nounwind uwtable
define linkonce_odr void @_ZNSt10shared_ptrIN7rocksdb6LoggerEEC2ERKS2_(ptr noundef nonnull align 8 dereferenceable(16) %this, ptr noundef nonnull align 8 dereferenceable(16) %0) unnamed_addr #1 comdat align 2 {
entry:
  %this.addr = alloca ptr, align 8
  %.addr = alloca ptr, align 8
  store ptr %this, ptr %this.addr, align 8
  store ptr %0, ptr %.addr, align 8
  %this1 = load ptr, ptr %this.addr, align 8
  %1 = load ptr, ptr %.addr, align 8
  call void @_ZNSt12__shared_ptrIN7rocksdb6LoggerELN9__gnu_cxx12_Lock_policyE2EEC2ERKS4_(ptr noundef nonnull align 8 dereferenceable(16) %this1, ptr noundef nonnull align 8 dereferenceable(16) %1) #3
  ret void
}

declare void @_ZN7rocksdb4port5MutexC1Eb(ptr noundef nonnull align 8 dereferenceable(40), i1 noundef zeroext) unnamed_addr #4

declare i32 @__gxx_personality_v0(...)

; Function Attrs: mustprogress nounwind uwtable
define linkonce_odr void @_ZNSt13unordered_mapINSt7__cxx1112basic_stringIcSt11char_traitsIcESaIcEEEmSt4hashIS5_ESt8equal_toIS5_ESaISt4pairIKS5_mEEEC2Ev(ptr noundef nonnull align 8 dereferenceable(56) %this) unnamed_addr #1 comdat align 2 {
entry:
  %this.addr = alloca ptr, align 8
  store ptr %this, ptr %this.addr, align 8
  %this1 = load ptr, ptr %this.addr, align 8
  %_M_h = getelementptr inbounds %"class.std::unordered_map", ptr %this1, i32 0, i32 0
  call void @_ZNSt10_HashtableINSt7__cxx1112basic_stringIcSt11char_traitsIcESaIcEEESt4pairIKS5_mESaIS8_ENSt8__detail10_Select1stESt8equal_toIS5_ESt4hashIS5_ENSA_18_Mod_range_hashingENSA_20_Default_ranged_hashENSA_20_Prime_rehash_policyENSA_17_Hashtable_traitsILb1ELb0ELb1EEEEC2Ev(ptr noundef nonnull align 8 dereferenceable(56) %_M_h) #3
  ret void
}

; Function Attrs: mustprogress nounwind uwtable
define linkonce_odr noundef ptr @_ZNKSt12__shared_ptrIN7rocksdb11SystemClockELN9__gnu_cxx12_Lock_policyE2EE3getEv(ptr noundef nonnull align 8 dereferenceable(16) %this) #1 comdat align 2 {
entry:
  %this.addr = alloca ptr, align 8
  store ptr %this, ptr %this.addr, align 8
  %this1 = load ptr, ptr %this.addr, align 8
  %_M_ptr = getelementptr inbounds %"class.std::__shared_ptr", ptr %this1, i32 0, i32 0
  %0 = load ptr, ptr %_M_ptr, align 8
  ret ptr %0
}

; Function Attrs: mustprogress nounwind uwtable
define linkonce_odr noundef ptr @_ZNKSt12__shared_ptrIN7rocksdb10FileSystemELN9__gnu_cxx12_Lock_policyE2EE3getEv(ptr noundef nonnull align 8 dereferenceable(16) %this) #1 comdat align 2 {
entry:
  %this.addr = alloca ptr, align 8
  store ptr %this, ptr %this.addr, align 8
  %this1 = load ptr, ptr %this.addr, align 8
  %_M_ptr = getelementptr inbounds %"class.std::__shared_ptr.1", ptr %this1, i32 0, i32 0
  %0 = load ptr, ptr %_M_ptr, align 8
  ret ptr %0
}

; Function Attrs: mustprogress nounwind uwtable
define linkonce_odr noundef ptr @_ZNKSt12__shared_ptrIN7rocksdb6LoggerELN9__gnu_cxx12_Lock_policyE2EE3getEv(ptr noundef nonnull align 8 dereferenceable(16) %this) #1 comdat align 2 {
entry:
  %this.addr = alloca ptr, align 8
  store ptr %this, ptr %this.addr, align 8
  %this1 = load ptr, ptr %this.addr, align 8
  %_M_ptr = getelementptr inbounds %"class.std::__shared_ptr.4", ptr %this1, i32 0, i32 0
  %0 = load ptr, ptr %_M_ptr, align 8
  ret ptr %0
}

declare void @_ZN7rocksdb15DeleteSchedulerC1EPNS_11SystemClockEPNS_10FileSystemElPNS_6LoggerEPNS_18SstFileManagerImplEdm(ptr noundef nonnull align 8 dereferenceable(440), ptr noundef, ptr noundef, i64 noundef, ptr noundef, ptr noundef, double noundef, i64 noundef) unnamed_addr #4

declare void @_ZN7rocksdb4port7CondVarC1EPNS0_5MutexE(ptr noundef nonnull align 8 dereferenceable(56), ptr noundef) unnamed_addr #4

; Function Attrs: mustprogress nounwind uwtable
define linkonce_odr void @_ZNSt10unique_ptrISt6threadSt14default_deleteIS0_EEC2IS2_vEEDn(ptr noundef nonnull align 8 dereferenceable(8) %this, ptr %0) unnamed_addr #1 comdat align 2 {
entry:
  %this.addr = alloca ptr, align 8
  %.addr = alloca ptr, align 8
  store ptr %this, ptr %this.addr, align 8
  store ptr %0, ptr %.addr, align 8
  %this1 = load ptr, ptr %this.addr, align 8
  %_M_t = getelementptr inbounds %"class.std::unique_ptr", ptr %this1, i32 0, i32 0
  call void @llvm.memset.p0.i64(ptr align 8 %_M_t, i8 0, i64 8, i1 false)
  call void @_ZNSt15__uniq_ptr_dataISt6threadSt14default_deleteIS0_ELb1ELb1EEC2Ev(ptr noundef nonnull align 8 dereferenceable(8) %_M_t) #3
  ret void
}

; Function Attrs: nounwind
declare void @_ZNSt7__cxx1112basic_stringIcSt11char_traitsIcESaIcEEC1Ev(ptr noundef nonnull align 8 dereferenceable(32)) unnamed_addr #5

; Function Attrs: mustprogress nounwind uwtable
define linkonce_odr void @_ZN7rocksdb6StatusC2Ev(ptr noundef nonnull align 8 dereferenceable(16) %this) unnamed_addr #1 comdat align 2 {
entry:
  %this.addr = alloca ptr, align 8
  store ptr %this, ptr %this.addr, align 8
  %this1 = load ptr, ptr %this.addr, align 8
  %code_ = getelementptr inbounds %"class.rocksdb::Status", ptr %this1, i32 0, i32 0
  store i8 0, ptr %code_, align 8
  %subcode_ = getelementptr inbounds %"class.rocksdb::Status", ptr %this1, i32 0, i32 1
  store i8 0, ptr %subcode_, align 1
  %sev_ = getelementptr inbounds %"class.rocksdb::Status", ptr %this1, i32 0, i32 2
  store i8 0, ptr %sev_, align 2
  %retryable_ = getelementptr inbounds %"class.rocksdb::Status", ptr %this1, i32 0, i32 3
  store i8 0, ptr %retryable_, align 1
  %data_loss_ = getelementptr inbounds %"class.rocksdb::Status", ptr %this1, i32 0, i32 4
  store i8 0, ptr %data_loss_, align 4
  %scope_ = getelementptr inbounds %"class.rocksdb::Status", ptr %this1, i32 0, i32 5
  store i8 0, ptr %scope_, align 1
  %state_ = getelementptr inbounds %"class.rocksdb::Status", ptr %this1, i32 0, i32 6
  call void @_ZNSt10unique_ptrIA_KcSt14default_deleteIS1_EEC2IS3_vEEDn(ptr noundef nonnull align 8 dereferenceable(8) %state_, ptr null) #3
  ret void
}

; Function Attrs: mustprogress nounwind uwtable
define linkonce_odr void @_ZNSt7__cxx114listIPN7rocksdb12ErrorHandlerESaIS3_EEC2Ev(ptr noundef nonnull align 8 dereferenceable(24) %this) unnamed_addr #1 comdat align 2 {
entry:
  %this.addr = alloca ptr, align 8
  store ptr %this, ptr %this.addr, align 8
  %this1 = load ptr, ptr %this.addr, align 8
  call void @_ZNSt7__cxx1110_List_baseIPN7rocksdb12ErrorHandlerESaIS3_EEC2Ev(ptr noundef nonnull align 8 dereferenceable(24) %this1) #3
  ret void
}

; Function Attrs: mustprogress nounwind uwtable
define linkonce_odr void @_ZNSt10shared_ptrIN7rocksdb10StatisticsEEC2Ev(ptr noundef nonnull align 8 dereferenceable(16) %this) unnamed_addr #1 comdat align 2 {
entry:
  %this.addr = alloca ptr, align 8
  store ptr %this, ptr %this.addr, align 8
  %this1 = load ptr, ptr %this.addr, align 8
  call void @_ZNSt12__shared_ptrIN7rocksdb10StatisticsELN9__gnu_cxx12_Lock_policyE2EEC2Ev(ptr noundef nonnull align 8 dereferenceable(16) %this1) #3
  ret void
}

; Function Attrs: nounwind
declare void @_ZNSt7__cxx1112basic_stringIcSt11char_traitsIcESaIcEED1Ev(ptr noundef nonnull align 8 dereferenceable(32)) unnamed_addr #5

; Function Attrs: mustprogress nounwind uwtable
define linkonce_odr void @_ZNSt10unique_ptrISt6threadSt14default_deleteIS0_EED2Ev(ptr noundef nonnull align 8 dereferenceable(8) %this) unnamed_addr #1 comdat align 2 personality ptr @__gxx_personality_v0 {
entry:
  %this.addr = alloca ptr, align 8
  %__ptr = alloca ptr, align 8
  store ptr %this, ptr %this.addr, align 8
  %this1 = load ptr, ptr %this.addr, align 8
  %_M_t = getelementptr inbounds %"class.std::unique_ptr", ptr %this1, i32 0, i32 0
  %call = call noundef nonnull align 8 dereferenceable(8) ptr @_ZNSt15__uniq_ptr_implISt6threadSt14default_deleteIS0_EE6_M_ptrEv(ptr noundef nonnull align 8 dereferenceable(8) %_M_t) #3
  store ptr %call, ptr %__ptr, align 8
  %0 = load ptr, ptr %__ptr, align 8
  %1 = load ptr, ptr %0, align 8
  %cmp = icmp ne ptr %1, null
  br i1 %cmp, label %if.then, label %if.end

if.then:                                          ; preds = %entry
  %call2 = call noundef nonnull align 1 dereferenceable(1) ptr @_ZNSt10unique_ptrISt6threadSt14default_deleteIS0_EE11get_deleterEv(ptr noundef nonnull align 8 dereferenceable(8) %this1) #3
  %2 = load ptr, ptr %__ptr, align 8
  %3 = load ptr, ptr %2, align 8
  invoke void @_ZNKSt14default_deleteISt6threadEclEPS0_(ptr noundef nonnull align 1 dereferenceable(1) %call2, ptr noundef %3)
          to label %invoke.cont unwind label %terminate.lpad

invoke.cont:                                      ; preds = %if.then
  br label %if.end

if.end:                                           ; preds = %invoke.cont, %entry
  %4 = load ptr, ptr %__ptr, align 8
  store ptr null, ptr %4, align 8
  ret void

terminate.lpad:                                   ; preds = %if.then
  %5 = landingpad { ptr, i32 }
          catch ptr null
  %6 = extractvalue { ptr, i32 } %5, 0
  call void @__clang_call_terminate(ptr %6) #15
  unreachable
}

; Function Attrs: nounwind
declare void @_ZN7rocksdb4port7CondVarD1Ev(ptr noundef nonnull align 8 dereferenceable(56)) unnamed_addr #5

; Function Attrs: nounwind
declare void @_ZN7rocksdb15DeleteSchedulerD1Ev(ptr noundef nonnull align 8 dereferenceable(440)) unnamed_addr #5

; Function Attrs: mustprogress nounwind uwtable
define linkonce_odr void @_ZNSt13unordered_mapINSt7__cxx1112basic_stringIcSt11char_traitsIcESaIcEEEmSt4hashIS5_ESt8equal_toIS5_ESaISt4pairIKS5_mEEED2Ev(ptr noundef nonnull align 8 dereferenceable(56) %this) unnamed_addr #1 comdat align 2 {
entry:
  %this.addr = alloca ptr, align 8
  store ptr %this, ptr %this.addr, align 8
  %this1 = load ptr, ptr %this.addr, align 8
  %_M_h = getelementptr inbounds %"class.std::unordered_map", ptr %this1, i32 0, i32 0
  call void @_ZNSt10_HashtableINSt7__cxx1112basic_stringIcSt11char_traitsIcESaIcEEESt4pairIKS5_mESaIS8_ENSt8__detail10_Select1stESt8equal_toIS5_ESt4hashIS5_ENSA_18_Mod_range_hashingENSA_20_Default_ranged_hashENSA_20_Prime_rehash_policyENSA_17_Hashtable_traitsILb1ELb0ELb1EEEED2Ev(ptr noundef nonnull align 8 dereferenceable(56) %_M_h) #3
  ret void
}

; Function Attrs: nounwind
declare void @_ZN7rocksdb4port5MutexD1Ev(ptr noundef nonnull align 8 dereferenceable(40)) unnamed_addr #5

; Function Attrs: mustprogress nounwind uwtable
define linkonce_odr void @_ZNSt10shared_ptrIN7rocksdb6LoggerEED2Ev(ptr noundef nonnull align 8 dereferenceable(16) %this) unnamed_addr #1 comdat align 2 {
entry:
  %this.addr = alloca ptr, align 8
  store ptr %this, ptr %this.addr, align 8
  %this1 = load ptr, ptr %this.addr, align 8
  call void @_ZNSt12__shared_ptrIN7rocksdb6LoggerELN9__gnu_cxx12_Lock_policyE2EED2Ev(ptr noundef nonnull align 8 dereferenceable(16) %this1) #3
  ret void
}

; Function Attrs: mustprogress nounwind uwtable
define linkonce_odr void @_ZNSt10shared_ptrIN7rocksdb10FileSystemEED2Ev(ptr noundef nonnull align 8 dereferenceable(16) %this) unnamed_addr #1 comdat align 2 {
entry:
  %this.addr = alloca ptr, align 8
  store ptr %this, ptr %this.addr, align 8
  %this1 = load ptr, ptr %this.addr, align 8
  call void @_ZNSt12__shared_ptrIN7rocksdb10FileSystemELN9__gnu_cxx12_Lock_policyE2EED2Ev(ptr noundef nonnull align 8 dereferenceable(16) %this1) #3
  ret void
}

; Function Attrs: mustprogress nounwind uwtable
define linkonce_odr void @_ZNSt10shared_ptrIN7rocksdb11SystemClockEED2Ev(ptr noundef nonnull align 8 dereferenceable(16) %this) unnamed_addr #1 comdat align 2 {
entry:
  %this.addr = alloca ptr, align 8
  store ptr %this, ptr %this.addr, align 8
  %this1 = load ptr, ptr %this.addr, align 8
  call void @_ZNSt12__shared_ptrIN7rocksdb11SystemClockELN9__gnu_cxx12_Lock_policyE2EED2Ev(ptr noundef nonnull align 8 dereferenceable(16) %this1) #3
  ret void
}

; Function Attrs: mustprogress nounwind uwtable
define void @_ZN7rocksdb18SstFileManagerImplD2Ev(ptr noundef nonnull align 8 dereferenceable(808) %this) unnamed_addr #1 align 2 personality ptr @__gxx_personality_v0 {
entry:
  %this.addr = alloca ptr, align 8
  store ptr %this, ptr %this.addr, align 8
  %this1 = load ptr, ptr %this.addr, align 8
  store ptr getelementptr inbounds ({ [18 x ptr] }, ptr @_ZTVN7rocksdb18SstFileManagerImplE, i32 0, inrange i32 0, i32 2), ptr %this1, align 8
  invoke void @_ZN7rocksdb18SstFileManagerImpl5CloseEv(ptr noundef nonnull align 8 dereferenceable(808) %this1)
          to label %invoke.cont unwind label %terminate.lpad

invoke.cont:                                      ; preds = %entry
  %bg_err_ = getelementptr inbounds %"class.rocksdb::SstFileManagerImpl", ptr %this1, i32 0, i32 15
  invoke void @_ZNK7rocksdb6Status20PermitUncheckedErrorEv(ptr noundef nonnull align 8 dereferenceable(16) %bg_err_)
          to label %invoke.cont2 unwind label %terminate.lpad

invoke.cont2:                                     ; preds = %invoke.cont
  %stats_ = getelementptr inbounds %"class.rocksdb::SstFileManagerImpl", ptr %this1, i32 0, i32 20
  call void @_ZNSt10shared_ptrIN7rocksdb10StatisticsEED2Ev(ptr noundef nonnull align 8 dereferenceable(16) %stats_) #3
  %error_handler_list_ = getelementptr inbounds %"class.rocksdb::SstFileManagerImpl", ptr %this1, i32 0, i32 18
  call void @_ZNSt7__cxx114listIPN7rocksdb12ErrorHandlerESaIS3_EED2Ev(ptr noundef nonnull align 8 dereferenceable(24) %error_handler_list_) #3
  %bg_err_3 = getelementptr inbounds %"class.rocksdb::SstFileManagerImpl", ptr %this1, i32 0, i32 15
  call void @_ZN7rocksdb6StatusD2Ev(ptr noundef nonnull align 8 dereferenceable(16) %bg_err_3) #3
  %path_ = getelementptr inbounds %"class.rocksdb::SstFileManagerImpl", ptr %this1, i32 0, i32 14
  call void @_ZNSt7__cxx1112basic_stringIcSt11char_traitsIcESaIcEED1Ev(ptr noundef nonnull align 8 dereferenceable(32) %path_) #3
  %bg_thread_ = getelementptr inbounds %"class.rocksdb::SstFileManagerImpl", ptr %this1, i32 0, i32 13
  call void @_ZNSt10unique_ptrISt6threadSt14default_deleteIS0_EED2Ev(ptr noundef nonnull align 8 dereferenceable(8) %bg_thread_) #3
  %cv_ = getelementptr inbounds %"class.rocksdb::SstFileManagerImpl", ptr %this1, i32 0, i32 11
  call void @_ZN7rocksdb4port7CondVarD1Ev(ptr noundef nonnull align 8 dereferenceable(56) %cv_) #3
  %delete_scheduler_ = getelementptr inbounds %"class.rocksdb::SstFileManagerImpl", ptr %this1, i32 0, i32 10
  call void @_ZN7rocksdb15DeleteSchedulerD1Ev(ptr noundef nonnull align 8 dereferenceable(440) %delete_scheduler_) #3
  %tracked_files_ = getelementptr inbounds %"class.rocksdb::SstFileManagerImpl", ptr %this1, i32 0, i32 8
  call void @_ZNSt13unordered_mapINSt7__cxx1112basic_stringIcSt11char_traitsIcESaIcEEEmSt4hashIS5_ESt8equal_toIS5_ESaISt4pairIKS5_mEEED2Ev(ptr noundef nonnull align 8 dereferenceable(56) %tracked_files_) #3
  %mu_ = getelementptr inbounds %"class.rocksdb::SstFileManagerImpl", ptr %this1, i32 0, i32 4
  call void @_ZN7rocksdb4port5MutexD1Ev(ptr noundef nonnull align 8 dereferenceable(40) %mu_) #3
  %logger_ = getelementptr inbounds %"class.rocksdb::SstFileManagerImpl", ptr %this1, i32 0, i32 3
  call void @_ZNSt10shared_ptrIN7rocksdb6LoggerEED2Ev(ptr noundef nonnull align 8 dereferenceable(16) %logger_) #3
  %fs_ = getelementptr inbounds %"class.rocksdb::SstFileManagerImpl", ptr %this1, i32 0, i32 2
  call void @_ZNSt10shared_ptrIN7rocksdb10FileSystemEED2Ev(ptr noundef nonnull align 8 dereferenceable(16) %fs_) #3
  %clock_ = getelementptr inbounds %"class.rocksdb::SstFileManagerImpl", ptr %this1, i32 0, i32 1
  call void @_ZNSt10shared_ptrIN7rocksdb11SystemClockEED2Ev(ptr noundef nonnull align 8 dereferenceable(16) %clock_) #3
  call void @_ZN7rocksdb14SstFileManagerD2Ev(ptr noundef nonnull align 8 dereferenceable(8) %this1) #3
  ret void

terminate.lpad:                                   ; preds = %invoke.cont, %entry
  %0 = landingpad { ptr, i32 }
          catch ptr null
  %1 = extractvalue { ptr, i32 } %0, 0
  call void @__clang_call_terminate(ptr %1) #15
  unreachable
}

; Function Attrs: mustprogress uwtable
define void @_ZN7rocksdb18SstFileManagerImpl5CloseEv(ptr noundef nonnull align 8 dereferenceable(808) %this) #0 align 2 personality ptr @__gxx_personality_v0 {
entry:
  %this.addr = alloca ptr, align 8
  %l = alloca %"class.rocksdb::MutexLock", align 8
  %cleanup.dest.slot = alloca i32, align 4
  %exn.slot = alloca ptr, align 8
  %ehselector.slot = alloca i32, align 4
  store ptr %this, ptr %this.addr, align 8
  %this1 = load ptr, ptr %this.addr, align 8
  %mu_ = getelementptr inbounds %"class.rocksdb::SstFileManagerImpl", ptr %this1, i32 0, i32 4
  call void @_ZN7rocksdb9MutexLockC2EPNS_4port5MutexE(ptr noundef nonnull align 8 dereferenceable(8) %l, ptr noundef %mu_)
  %closing_ = getelementptr inbounds %"class.rocksdb::SstFileManagerImpl", ptr %this1, i32 0, i32 12
  %0 = load i8, ptr %closing_, align 8
  %tobool = trunc i8 %0 to i1
  br i1 %tobool, label %if.then, label %if.end

if.then:                                          ; preds = %entry
  store i32 1, ptr %cleanup.dest.slot, align 4
  br label %cleanup

if.end:                                           ; preds = %entry
  %closing_2 = getelementptr inbounds %"class.rocksdb::SstFileManagerImpl", ptr %this1, i32 0, i32 12
  store i8 1, ptr %closing_2, align 8
  %cv_ = getelementptr inbounds %"class.rocksdb::SstFileManagerImpl", ptr %this1, i32 0, i32 11
  invoke void @_ZN7rocksdb4port7CondVar9SignalAllEv(ptr noundef nonnull align 8 dereferenceable(56) %cv_)
          to label %invoke.cont unwind label %lpad

invoke.cont:                                      ; preds = %if.end
  store i32 0, ptr %cleanup.dest.slot, align 4
  br label %cleanup

cleanup:                                          ; preds = %invoke.cont, %if.then
  call void @_ZN7rocksdb9MutexLockD2Ev(ptr noundef nonnull align 8 dereferenceable(8) %l) #3
  %cleanup.dest = load i32, ptr %cleanup.dest.slot, align 4
  switch i32 %cleanup.dest, label %unreachable [
    i32 0, label %cleanup.cont
    i32 1, label %if.end6
  ]

cleanup.cont:                                     ; preds = %cleanup
  %bg_thread_ = getelementptr inbounds %"class.rocksdb::SstFileManagerImpl", ptr %this1, i32 0, i32 13
  %call = call noundef zeroext i1 @_ZNKSt10unique_ptrISt6threadSt14default_deleteIS0_EEcvbEv(ptr noundef nonnull align 8 dereferenceable(8) %bg_thread_) #3
  br i1 %call, label %if.then3, label %if.end6

if.then3:                                         ; preds = %cleanup.cont
  %bg_thread_4 = getelementptr inbounds %"class.rocksdb::SstFileManagerImpl", ptr %this1, i32 0, i32 13
  %call5 = call noundef ptr @_ZNKSt10unique_ptrISt6threadSt14default_deleteIS0_EEptEv(ptr noundef nonnull align 8 dereferenceable(8) %bg_thread_4) #3
  call void @_ZNSt6thread4joinEv(ptr noundef nonnull align 8 dereferenceable(8) %call5)
  br label %if.end6

lpad:                                             ; preds = %if.end
  %1 = landingpad { ptr, i32 }
          cleanup
  %2 = extractvalue { ptr, i32 } %1, 0
  store ptr %2, ptr %exn.slot, align 8
  %3 = extractvalue { ptr, i32 } %1, 1
  store i32 %3, ptr %ehselector.slot, align 4
  call void @_ZN7rocksdb9MutexLockD2Ev(ptr noundef nonnull align 8 dereferenceable(8) %l) #3
  br label %eh.resume

if.end6:                                          ; preds = %if.then3, %cleanup.cont, %cleanup
  ret void

eh.resume:                                        ; preds = %lpad
  %exn = load ptr, ptr %exn.slot, align 8
  %sel = load i32, ptr %ehselector.slot, align 4
  %lpad.val = insertvalue { ptr, i32 } poison, ptr %exn, 0
  %lpad.val7 = insertvalue { ptr, i32 } %lpad.val, i32 %sel, 1
  resume { ptr, i32 } %lpad.val7

unreachable:                                      ; preds = %cleanup
  unreachable
}

; Function Attrs: noreturn nounwind uwtable
define linkonce_odr hidden void @__clang_call_terminate(ptr noundef %0) #6 comdat {
  %2 = call ptr @__cxa_begin_catch(ptr %0) #3
  call void @_ZSt9terminatev() #15
  unreachable
}

declare ptr @__cxa_begin_catch(ptr)

declare void @_ZSt9terminatev()

; Function Attrs: mustprogress uwtable
define linkonce_odr void @_ZNK7rocksdb6Status20PermitUncheckedErrorEv(ptr noundef nonnull align 8 dereferenceable(16) %this) #0 comdat align 2 {
entry:
  %this.addr = alloca ptr, align 8
  store ptr %this, ptr %this.addr, align 8
  %this1 = load ptr, ptr %this.addr, align 8
  call void @_ZNK7rocksdb6Status11MarkCheckedEv(ptr noundef nonnull align 8 dereferenceable(16) %this1)
  ret void
}

; Function Attrs: mustprogress nounwind uwtable
define linkonce_odr void @_ZNSt10shared_ptrIN7rocksdb10StatisticsEED2Ev(ptr noundef nonnull align 8 dereferenceable(16) %this) unnamed_addr #1 comdat align 2 {
entry:
  %this.addr = alloca ptr, align 8
  store ptr %this, ptr %this.addr, align 8
  %this1 = load ptr, ptr %this.addr, align 8
  call void @_ZNSt12__shared_ptrIN7rocksdb10StatisticsELN9__gnu_cxx12_Lock_policyE2EED2Ev(ptr noundef nonnull align 8 dereferenceable(16) %this1) #3
  ret void
}

; Function Attrs: mustprogress nounwind uwtable
define linkonce_odr void @_ZNSt7__cxx114listIPN7rocksdb12ErrorHandlerESaIS3_EED2Ev(ptr noundef nonnull align 8 dereferenceable(24) %this) unnamed_addr #1 comdat align 2 {
entry:
  %this.addr = alloca ptr, align 8
  store ptr %this, ptr %this.addr, align 8
  %this1 = load ptr, ptr %this.addr, align 8
  call void @_ZNSt7__cxx1110_List_baseIPN7rocksdb12ErrorHandlerESaIS3_EED2Ev(ptr noundef nonnull align 8 dereferenceable(24) %this1) #3
  ret void
}

; Function Attrs: mustprogress nounwind uwtable
define linkonce_odr void @_ZN7rocksdb6StatusD2Ev(ptr noundef nonnull align 8 dereferenceable(16) %this) unnamed_addr #1 comdat align 2 {
entry:
  %this.addr = alloca ptr, align 8
  store ptr %this, ptr %this.addr, align 8
  %this1 = load ptr, ptr %this.addr, align 8
  %state_ = getelementptr inbounds %"class.rocksdb::Status", ptr %this1, i32 0, i32 6
  call void @_ZNSt10unique_ptrIA_KcSt14default_deleteIS1_EED2Ev(ptr noundef nonnull align 8 dereferenceable(8) %state_) #3
  ret void
}

; Function Attrs: mustprogress nounwind uwtable
define void @_ZN7rocksdb18SstFileManagerImplD0Ev(ptr noundef nonnull align 8 dereferenceable(808) %this) unnamed_addr #1 align 2 {
entry:
  %this.addr = alloca ptr, align 8
  store ptr %this, ptr %this.addr, align 8
  %this1 = load ptr, ptr %this.addr, align 8
  call void @_ZN7rocksdb18SstFileManagerImplD1Ev(ptr noundef nonnull align 8 dereferenceable(808) %this1) #3
  call void @_ZdlPv(ptr noundef %this1) #16
  ret void
}

; Function Attrs: nobuiltin nounwind
declare void @_ZdlPv(ptr noundef) #7

; Function Attrs: mustprogress uwtable
define linkonce_odr void @_ZN7rocksdb9MutexLockC2EPNS_4port5MutexE(ptr noundef nonnull align 8 dereferenceable(8) %this, ptr noundef %mu) unnamed_addr #0 comdat align 2 {
entry:
  %this.addr = alloca ptr, align 8
  %mu.addr = alloca ptr, align 8
  store ptr %this, ptr %this.addr, align 8
  store ptr %mu, ptr %mu.addr, align 8
  %this1 = load ptr, ptr %this.addr, align 8
  %mu_ = getelementptr inbounds %"class.rocksdb::MutexLock", ptr %this1, i32 0, i32 0
  %0 = load ptr, ptr %mu.addr, align 8
  store ptr %0, ptr %mu_, align 8
  %mu_2 = getelementptr inbounds %"class.rocksdb::MutexLock", ptr %this1, i32 0, i32 0
  %1 = load ptr, ptr %mu_2, align 8
  call void @_ZN7rocksdb4port5Mutex4LockEv(ptr noundef nonnull align 8 dereferenceable(40) %1)
  ret void
}

declare void @_ZN7rocksdb4port7CondVar9SignalAllEv(ptr noundef nonnull align 8 dereferenceable(56)) #4

; Function Attrs: mustprogress nounwind uwtable
define linkonce_odr void @_ZN7rocksdb9MutexLockD2Ev(ptr noundef nonnull align 8 dereferenceable(8) %this) unnamed_addr #1 comdat align 2 personality ptr @__gxx_personality_v0 {
entry:
  %this.addr = alloca ptr, align 8
  store ptr %this, ptr %this.addr, align 8
  %this1 = load ptr, ptr %this.addr, align 8
  %mu_ = getelementptr inbounds %"class.rocksdb::MutexLock", ptr %this1, i32 0, i32 0
  %0 = load ptr, ptr %mu_, align 8
  invoke void @_ZN7rocksdb4port5Mutex6UnlockEv(ptr noundef nonnull align 8 dereferenceable(40) %0)
          to label %invoke.cont unwind label %terminate.lpad

invoke.cont:                                      ; preds = %entry
  ret void

terminate.lpad:                                   ; preds = %entry
  %1 = landingpad { ptr, i32 }
          catch ptr null
  %2 = extractvalue { ptr, i32 } %1, 0
  call void @__clang_call_terminate(ptr %2) #15
  unreachable
}

; Function Attrs: mustprogress nounwind uwtable
define linkonce_odr noundef zeroext i1 @_ZNKSt10unique_ptrISt6threadSt14default_deleteIS0_EEcvbEv(ptr noundef nonnull align 8 dereferenceable(8) %this) #1 comdat align 2 {
entry:
  %this.addr = alloca ptr, align 8
  store ptr %this, ptr %this.addr, align 8
  %this1 = load ptr, ptr %this.addr, align 8
  %call = call noundef ptr @_ZNKSt10unique_ptrISt6threadSt14default_deleteIS0_EE3getEv(ptr noundef nonnull align 8 dereferenceable(8) %this1) #3
  %cmp = icmp eq ptr %call, null
  %cond = select i1 %cmp, i1 false, i1 true
  ret i1 %cond
}

; Function Attrs: mustprogress nounwind uwtable
define linkonce_odr noundef ptr @_ZNKSt10unique_ptrISt6threadSt14default_deleteIS0_EEptEv(ptr noundef nonnull align 8 dereferenceable(8) %this) #1 comdat align 2 {
entry:
  %this.addr = alloca ptr, align 8
  store ptr %this, ptr %this.addr, align 8
  %this1 = load ptr, ptr %this.addr, align 8
  %call = call noundef ptr @_ZNKSt10unique_ptrISt6threadSt14default_deleteIS0_EE3getEv(ptr noundef nonnull align 8 dereferenceable(8) %this1) #3
  ret ptr %call
}

declare void @_ZNSt6thread4joinEv(ptr noundef nonnull align 8 dereferenceable(8)) #4

; Function Attrs: mustprogress uwtable
define void @_ZN7rocksdb18SstFileManagerImpl9OnAddFileERKNSt7__cxx1112basic_stringIcSt11char_traitsIcESaIcEEE(ptr noalias sret(%"class.rocksdb::Status") align 8 %agg.result, ptr noundef nonnull align 8 dereferenceable(808) %this, ptr noundef nonnull align 8 dereferenceable(32) %file_path) #0 align 2 personality ptr @__gxx_personality_v0 {
entry:
  %result.ptr = alloca ptr, align 8
  %this.addr = alloca ptr, align 8
  %file_path.addr = alloca ptr, align 8
  %file_size = alloca i64, align 8
  %nrvo = alloca i1, align 1
  %ref.tmp = alloca %"class.rocksdb::IOStatus", align 8
  %ref.tmp2 = alloca %"struct.rocksdb::IOOptions", align 8
  %exn.slot = alloca ptr, align 8
  %ehselector.slot = alloca i32, align 4
  %l = alloca %"class.rocksdb::MutexLock", align 8
  store ptr %agg.result, ptr %result.ptr, align 8
  store ptr %this, ptr %this.addr, align 8
  store ptr %file_path, ptr %file_path.addr, align 8
  %this1 = load ptr, ptr %this.addr, align 8
  store i1 false, ptr %nrvo, align 1
  %fs_ = getelementptr inbounds %"class.rocksdb::SstFileManagerImpl", ptr %this1, i32 0, i32 2
  %call = call noundef ptr @_ZNKSt19__shared_ptr_accessIN7rocksdb10FileSystemELN9__gnu_cxx12_Lock_policyE2ELb0ELb0EEptEv(ptr noundef nonnull align 1 dereferenceable(1) %fs_) #3
  %0 = load ptr, ptr %file_path.addr, align 8
  call void @_ZN7rocksdb9IOOptionsC2Ev(ptr noundef nonnull align 8 dereferenceable(83) %ref.tmp2)
  %vtable = load ptr, ptr %call, align 8
  %vfn = getelementptr inbounds ptr, ptr %vtable, i64 37
  %1 = load ptr, ptr %vfn, align 8
  invoke void %1(ptr sret(%"class.rocksdb::IOStatus") align 8 %ref.tmp, ptr noundef nonnull align 8 dereferenceable(32) %call, ptr noundef nonnull align 8 dereferenceable(32) %0, ptr noundef nonnull align 8 dereferenceable(83) %ref.tmp2, ptr noundef %file_size, ptr noundef null)
          to label %invoke.cont unwind label %lpad

invoke.cont:                                      ; preds = %entry
  call void @_ZN7rocksdb6StatusC2EOS0_(ptr noundef nonnull align 8 dereferenceable(16) %agg.result, ptr noundef nonnull align 8 dereferenceable(16) %ref.tmp) #3
  call void @_ZN7rocksdb8IOStatusD2Ev(ptr noundef nonnull align 8 dereferenceable(16) %ref.tmp) #3
  call void @_ZN7rocksdb9IOOptionsD2Ev(ptr noundef nonnull align 8 dereferenceable(83) %ref.tmp2) #3
  %call5 = invoke noundef zeroext i1 @_ZNK7rocksdb6Status2okEv(ptr noundef nonnull align 8 dereferenceable(16) %agg.result)
          to label %invoke.cont4 unwind label %lpad3

invoke.cont4:                                     ; preds = %invoke.cont
  br i1 %call5, label %if.then, label %if.end

if.then:                                          ; preds = %invoke.cont4
  %mu_ = getelementptr inbounds %"class.rocksdb::SstFileManagerImpl", ptr %this1, i32 0, i32 4
  invoke void @_ZN7rocksdb9MutexLockC2EPNS_4port5MutexE(ptr noundef nonnull align 8 dereferenceable(8) %l, ptr noundef %mu_)
          to label %invoke.cont6 unwind label %lpad3

invoke.cont6:                                     ; preds = %if.then
  %2 = load ptr, ptr %file_path.addr, align 8
  %3 = load i64, ptr %file_size, align 8
  invoke void @_ZN7rocksdb18SstFileManagerImpl13OnAddFileImplERKNSt7__cxx1112basic_stringIcSt11char_traitsIcESaIcEEEm(ptr noundef nonnull align 8 dereferenceable(808) %this1, ptr noundef nonnull align 8 dereferenceable(32) %2, i64 noundef %3)
          to label %invoke.cont8 unwind label %lpad7

invoke.cont8:                                     ; preds = %invoke.cont6
  call void @_ZN7rocksdb9MutexLockD2Ev(ptr noundef nonnull align 8 dereferenceable(8) %l) #3
  br label %if.end

lpad:                                             ; preds = %entry
  %4 = landingpad { ptr, i32 }
          cleanup
  %5 = extractvalue { ptr, i32 } %4, 0
  store ptr %5, ptr %exn.slot, align 8
  %6 = extractvalue { ptr, i32 } %4, 1
  store i32 %6, ptr %ehselector.slot, align 4
  call void @_ZN7rocksdb9IOOptionsD2Ev(ptr noundef nonnull align 8 dereferenceable(83) %ref.tmp2) #3
  br label %eh.resume

lpad3:                                            ; preds = %if.then, %invoke.cont
  %7 = landingpad { ptr, i32 }
          cleanup
  %8 = extractvalue { ptr, i32 } %7, 0
  store ptr %8, ptr %exn.slot, align 8
  %9 = extractvalue { ptr, i32 } %7, 1
  store i32 %9, ptr %ehselector.slot, align 4
  br label %ehcleanup

lpad7:                                            ; preds = %invoke.cont6
  %10 = landingpad { ptr, i32 }
          cleanup
  %11 = extractvalue { ptr, i32 } %10, 0
  store ptr %11, ptr %exn.slot, align 8
  %12 = extractvalue { ptr, i32 } %10, 1
  store i32 %12, ptr %ehselector.slot, align 4
  call void @_ZN7rocksdb9MutexLockD2Ev(ptr noundef nonnull align 8 dereferenceable(8) %l) #3
  br label %ehcleanup

if.end:                                           ; preds = %invoke.cont8, %invoke.cont4
  store i1 true, ptr %nrvo, align 1
  %nrvo.val = load i1, ptr %nrvo, align 1
  br i1 %nrvo.val, label %nrvo.skipdtor, label %nrvo.unused

nrvo.unused:                                      ; preds = %if.end
  call void @_ZN7rocksdb6StatusD2Ev(ptr noundef nonnull align 8 dereferenceable(16) %agg.result) #3
  br label %nrvo.skipdtor

nrvo.skipdtor:                                    ; preds = %nrvo.unused, %if.end
  ret void

ehcleanup:                                        ; preds = %lpad7, %lpad3
  call void @_ZN7rocksdb6StatusD2Ev(ptr noundef nonnull align 8 dereferenceable(16) %agg.result) #3
  br label %eh.resume

eh.resume:                                        ; preds = %ehcleanup, %lpad
  %exn = load ptr, ptr %exn.slot, align 8
  %sel = load i32, ptr %ehselector.slot, align 4
  %lpad.val = insertvalue { ptr, i32 } poison, ptr %exn, 0
  %lpad.val9 = insertvalue { ptr, i32 } %lpad.val, i32 %sel, 1
  resume { ptr, i32 } %lpad.val9
}

; Function Attrs: mustprogress nounwind uwtable
define linkonce_odr noundef ptr @_ZNKSt19__shared_ptr_accessIN7rocksdb10FileSystemELN9__gnu_cxx12_Lock_policyE2ELb0ELb0EEptEv(ptr noundef nonnull align 1 dereferenceable(1) %this) #1 comdat align 2 {
entry:
  %this.addr = alloca ptr, align 8
  store ptr %this, ptr %this.addr, align 8
  %this1 = load ptr, ptr %this.addr, align 8
  %call = call noundef ptr @_ZNKSt19__shared_ptr_accessIN7rocksdb10FileSystemELN9__gnu_cxx12_Lock_policyE2ELb0ELb0EE6_M_getEv(ptr noundef nonnull align 1 dereferenceable(1) %this1) #3
  ret ptr %call
}

; Function Attrs: mustprogress uwtable
define linkonce_odr void @_ZN7rocksdb9IOOptionsC2Ev(ptr noundef nonnull align 8 dereferenceable(83) %this) unnamed_addr #0 comdat align 2 {
entry:
  %this.addr = alloca ptr, align 8
  store ptr %this, ptr %this.addr, align 8
  %this1 = load ptr, ptr %this.addr, align 8
  call void @_ZN7rocksdb9IOOptionsC2Eb(ptr noundef nonnull align 8 dereferenceable(83) %this1, i1 noundef zeroext false)
  ret void
}

; Function Attrs: mustprogress nounwind uwtable
define linkonce_odr void @_ZN7rocksdb6StatusC2EOS0_(ptr noundef nonnull align 8 dereferenceable(16) %this, ptr noundef nonnull align 8 dereferenceable(16) %s) unnamed_addr #1 comdat align 2 {
entry:
  %this.addr = alloca ptr, align 8
  %s.addr = alloca ptr, align 8
  store ptr %this, ptr %this.addr, align 8
  store ptr %s, ptr %s.addr, align 8
  %this1 = load ptr, ptr %this.addr, align 8
  call void @_ZN7rocksdb6StatusC2Ev(ptr noundef nonnull align 8 dereferenceable(16) %this1)
  %0 = load ptr, ptr %s.addr, align 8
  call void @_ZNK7rocksdb6Status11MarkCheckedEv(ptr noundef nonnull align 8 dereferenceable(16) %0)
  %1 = load ptr, ptr %s.addr, align 8
  %call = call noundef nonnull align 8 dereferenceable(16) ptr @_ZN7rocksdb6StatusaSEOS0_(ptr noundef nonnull align 8 dereferenceable(16) %this1, ptr noundef nonnull align 8 dereferenceable(16) %1) #3
  ret void
}

; Function Attrs: mustprogress nounwind uwtable
define linkonce_odr void @_ZN7rocksdb8IOStatusD2Ev(ptr noundef nonnull align 8 dereferenceable(16) %this) unnamed_addr #1 comdat align 2 {
entry:
  %this.addr = alloca ptr, align 8
  store ptr %this, ptr %this.addr, align 8
  %this1 = load ptr, ptr %this.addr, align 8
  call void @_ZN7rocksdb6StatusD2Ev(ptr noundef nonnull align 8 dereferenceable(16) %this1) #3
  ret void
}

; Function Attrs: mustprogress nounwind uwtable
define linkonce_odr void @_ZN7rocksdb9IOOptionsD2Ev(ptr noundef nonnull align 8 dereferenceable(83) %this) unnamed_addr #1 comdat align 2 {
entry:
  %this.addr = alloca ptr, align 8
  store ptr %this, ptr %this.addr, align 8
  %this1 = load ptr, ptr %this.addr, align 8
  %property_bag = getelementptr inbounds %"struct.rocksdb::IOOptions", ptr %this1, i32 0, i32 6
  call void @_ZNSt13unordered_mapINSt7__cxx1112basic_stringIcSt11char_traitsIcESaIcEEES5_St4hashIS5_ESt8equal_toIS5_ESaISt4pairIKS5_S5_EEED2Ev(ptr noundef nonnull align 8 dereferenceable(56) %property_bag) #3
  ret void
}

; Function Attrs: mustprogress uwtable
define linkonce_odr noundef zeroext i1 @_ZNK7rocksdb6Status2okEv(ptr noundef nonnull align 8 dereferenceable(16) %this) #0 comdat align 2 {
entry:
  %this.addr = alloca ptr, align 8
  store ptr %this, ptr %this.addr, align 8
  %this1 = load ptr, ptr %this.addr, align 8
  call void @_ZNK7rocksdb6Status11MarkCheckedEv(ptr noundef nonnull align 8 dereferenceable(16) %this1)
  %call = call noundef zeroext i8 @_ZNK7rocksdb6Status4codeEv(ptr noundef nonnull align 8 dereferenceable(16) %this1)
  %conv = zext i8 %call to i32
  %cmp = icmp eq i32 %conv, 0
  ret i1 %cmp
}

; Function Attrs: mustprogress uwtable
define void @_ZN7rocksdb18SstFileManagerImpl13OnAddFileImplERKNSt7__cxx1112basic_stringIcSt11char_traitsIcESaIcEEEm(ptr noundef nonnull align 8 dereferenceable(808) %this, ptr noundef nonnull align 8 dereferenceable(32) %file_path, i64 noundef %file_size) #0 align 2 {
entry:
  %this.addr = alloca ptr, align 8
  %file_path.addr = alloca ptr, align 8
  %file_size.addr = alloca i64, align 8
  %tracked_file = alloca %"struct.std::__detail::_Node_iterator", align 8
  %ref.tmp = alloca %"struct.std::__detail::_Node_iterator", align 8
  store ptr %this, ptr %this.addr, align 8
  store ptr %file_path, ptr %file_path.addr, align 8
  store i64 %file_size, ptr %file_size.addr, align 8
  %this1 = load ptr, ptr %this.addr, align 8
  %tracked_files_ = getelementptr inbounds %"class.rocksdb::SstFileManagerImpl", ptr %this1, i32 0, i32 8
  %0 = load ptr, ptr %file_path.addr, align 8
  %call = call ptr @_ZNSt13unordered_mapINSt7__cxx1112basic_stringIcSt11char_traitsIcESaIcEEEmSt4hashIS5_ESt8equal_toIS5_ESaISt4pairIKS5_mEEE4findERSB_(ptr noundef nonnull align 8 dereferenceable(56) %tracked_files_, ptr noundef nonnull align 8 dereferenceable(32) %0)
  %coerce.dive = getelementptr inbounds %"struct.std::__detail::_Node_iterator", ptr %tracked_file, i32 0, i32 0
  %coerce.dive2 = getelementptr inbounds %"struct.std::__detail::_Node_iterator_base", ptr %coerce.dive, i32 0, i32 0
  store ptr %call, ptr %coerce.dive2, align 8
  %tracked_files_3 = getelementptr inbounds %"class.rocksdb::SstFileManagerImpl", ptr %this1, i32 0, i32 8
  %call4 = call ptr @_ZNSt13unordered_mapINSt7__cxx1112basic_stringIcSt11char_traitsIcESaIcEEEmSt4hashIS5_ESt8equal_toIS5_ESaISt4pairIKS5_mEEE3endEv(ptr noundef nonnull align 8 dereferenceable(56) %tracked_files_3) #3
  %coerce.dive5 = getelementptr inbounds %"struct.std::__detail::_Node_iterator", ptr %ref.tmp, i32 0, i32 0
  %coerce.dive6 = getelementptr inbounds %"struct.std::__detail::_Node_iterator_base", ptr %coerce.dive5, i32 0, i32 0
  store ptr %call4, ptr %coerce.dive6, align 8
  %call7 = call noundef zeroext i1 @_ZNSt8__detailneERKNS_19_Node_iterator_baseISt4pairIKNSt7__cxx1112basic_stringIcSt11char_traitsIcESaIcEEEmELb1EEESC_(ptr noundef nonnull align 8 dereferenceable(8) %tracked_file, ptr noundef nonnull align 8 dereferenceable(8) %ref.tmp) #3
  br i1 %call7, label %if.then, label %if.else

if.then:                                          ; preds = %entry
  %call8 = call noundef ptr @_ZNKSt8__detail14_Node_iteratorISt4pairIKNSt7__cxx1112basic_stringIcSt11char_traitsIcESaIcEEEmELb0ELb1EEptEv(ptr noundef nonnull align 8 dereferenceable(8) %tracked_file) #3
  %second = getelementptr inbounds %"struct.std::pair", ptr %call8, i32 0, i32 1
  %1 = load i64, ptr %second, align 8
  %total_files_size_ = getelementptr inbounds %"class.rocksdb::SstFileManagerImpl", ptr %this1, i32 0, i32 5
  %2 = load i64, ptr %total_files_size_, align 8
  %sub = sub i64 %2, %1
  store i64 %sub, ptr %total_files_size_, align 8
  %3 = load i64, ptr %file_size.addr, align 8
  %total_files_size_9 = getelementptr inbounds %"class.rocksdb::SstFileManagerImpl", ptr %this1, i32 0, i32 5
  %4 = load i64, ptr %total_files_size_9, align 8
  %add = add i64 %4, %3
  store i64 %add, ptr %total_files_size_9, align 8
  %5 = load i64, ptr %file_size.addr, align 8
  %cur_compactions_reserved_size_ = getelementptr inbounds %"class.rocksdb::SstFileManagerImpl", ptr %this1, i32 0, i32 7
  %6 = load i64, ptr %cur_compactions_reserved_size_, align 8
  %sub10 = sub i64 %6, %5
  store i64 %sub10, ptr %cur_compactions_reserved_size_, align 8
  br label %if.end

if.else:                                          ; preds = %entry
  %7 = load i64, ptr %file_size.addr, align 8
  %total_files_size_11 = getelementptr inbounds %"class.rocksdb::SstFileManagerImpl", ptr %this1, i32 0, i32 5
  %8 = load i64, ptr %total_files_size_11, align 8
  %add12 = add i64 %8, %7
  store i64 %add12, ptr %total_files_size_11, align 8
  br label %if.end

if.end:                                           ; preds = %if.else, %if.then
  %9 = load i64, ptr %file_size.addr, align 8
  %tracked_files_13 = getelementptr inbounds %"class.rocksdb::SstFileManagerImpl", ptr %this1, i32 0, i32 8
  %10 = load ptr, ptr %file_path.addr, align 8
  %call14 = call noundef nonnull align 8 dereferenceable(8) ptr @_ZNSt13unordered_mapINSt7__cxx1112basic_stringIcSt11char_traitsIcESaIcEEEmSt4hashIS5_ESt8equal_toIS5_ESaISt4pairIKS5_mEEEixERSB_(ptr noundef nonnull align 8 dereferenceable(56) %tracked_files_13, ptr noundef nonnull align 8 dereferenceable(32) %10)
  store i64 %9, ptr %call14, align 8
  ret void
}

; Function Attrs: mustprogress uwtable
define void @_ZN7rocksdb18SstFileManagerImpl9OnAddFileERKNSt7__cxx1112basic_stringIcSt11char_traitsIcESaIcEEEm(ptr noalias sret(%"class.rocksdb::Status") align 8 %agg.result, ptr noundef nonnull align 8 dereferenceable(808) %this, ptr noundef nonnull align 8 dereferenceable(32) %file_path, i64 noundef %file_size) #0 align 2 personality ptr @__gxx_personality_v0 {
entry:
  %result.ptr = alloca ptr, align 8
  %this.addr = alloca ptr, align 8
  %file_path.addr = alloca ptr, align 8
  %file_size.addr = alloca i64, align 8
  %l = alloca %"class.rocksdb::MutexLock", align 8
  %exn.slot = alloca ptr, align 8
  %ehselector.slot = alloca i32, align 4
  store ptr %agg.result, ptr %result.ptr, align 8
  store ptr %this, ptr %this.addr, align 8
  store ptr %file_path, ptr %file_path.addr, align 8
  store i64 %file_size, ptr %file_size.addr, align 8
  %this1 = load ptr, ptr %this.addr, align 8
  %mu_ = getelementptr inbounds %"class.rocksdb::SstFileManagerImpl", ptr %this1, i32 0, i32 4
  call void @_ZN7rocksdb9MutexLockC2EPNS_4port5MutexE(ptr noundef nonnull align 8 dereferenceable(8) %l, ptr noundef %mu_)
  %0 = load ptr, ptr %file_path.addr, align 8
  %1 = load i64, ptr %file_size.addr, align 8
  invoke void @_ZN7rocksdb18SstFileManagerImpl13OnAddFileImplERKNSt7__cxx1112basic_stringIcSt11char_traitsIcESaIcEEEm(ptr noundef nonnull align 8 dereferenceable(808) %this1, ptr noundef nonnull align 8 dereferenceable(32) %0, i64 noundef %1)
          to label %invoke.cont unwind label %lpad

invoke.cont:                                      ; preds = %entry
  invoke void @_ZN7rocksdb6Status2OKEv(ptr sret(%"class.rocksdb::Status") align 8 %agg.result)
          to label %invoke.cont2 unwind label %lpad

invoke.cont2:                                     ; preds = %invoke.cont
  call void @_ZN7rocksdb9MutexLockD2Ev(ptr noundef nonnull align 8 dereferenceable(8) %l) #3
  ret void

lpad:                                             ; preds = %invoke.cont, %entry
  %2 = landingpad { ptr, i32 }
          cleanup
  %3 = extractvalue { ptr, i32 } %2, 0
  store ptr %3, ptr %exn.slot, align 8
  %4 = extractvalue { ptr, i32 } %2, 1
  store i32 %4, ptr %ehselector.slot, align 4
  call void @_ZN7rocksdb9MutexLockD2Ev(ptr noundef nonnull align 8 dereferenceable(8) %l) #3
  br label %eh.resume

eh.resume:                                        ; preds = %lpad
  %exn = load ptr, ptr %exn.slot, align 8
  %sel = load i32, ptr %ehselector.slot, align 4
  %lpad.val = insertvalue { ptr, i32 } poison, ptr %exn, 0
  %lpad.val3 = insertvalue { ptr, i32 } %lpad.val, i32 %sel, 1
  resume { ptr, i32 } %lpad.val3
}

; Function Attrs: mustprogress uwtable
define linkonce_odr void @_ZN7rocksdb6Status2OKEv(ptr noalias sret(%"class.rocksdb::Status") align 8 %agg.result) #0 comdat align 2 {
entry:
  %result.ptr = alloca ptr, align 8
  store ptr %agg.result, ptr %result.ptr, align 8
  call void @_ZN7rocksdb6StatusC2Ev(ptr noundef nonnull align 8 dereferenceable(16) %agg.result)
  ret void
}

; Function Attrs: mustprogress uwtable
define void @_ZN7rocksdb18SstFileManagerImpl12OnDeleteFileERKNSt7__cxx1112basic_stringIcSt11char_traitsIcESaIcEEE(ptr noalias sret(%"class.rocksdb::Status") align 8 %agg.result, ptr noundef nonnull align 8 dereferenceable(808) %this, ptr noundef nonnull align 8 dereferenceable(32) %file_path) #0 align 2 personality ptr @__gxx_personality_v0 {
entry:
  %result.ptr = alloca ptr, align 8
  %this.addr = alloca ptr, align 8
  %file_path.addr = alloca ptr, align 8
  %l = alloca %"class.rocksdb::MutexLock", align 8
  %exn.slot = alloca ptr, align 8
  %ehselector.slot = alloca i32, align 4
  store ptr %agg.result, ptr %result.ptr, align 8
  store ptr %this, ptr %this.addr, align 8
  store ptr %file_path, ptr %file_path.addr, align 8
  %this1 = load ptr, ptr %this.addr, align 8
  %mu_ = getelementptr inbounds %"class.rocksdb::SstFileManagerImpl", ptr %this1, i32 0, i32 4
  call void @_ZN7rocksdb9MutexLockC2EPNS_4port5MutexE(ptr noundef nonnull align 8 dereferenceable(8) %l, ptr noundef %mu_)
  %0 = load ptr, ptr %file_path.addr, align 8
  invoke void @_ZN7rocksdb18SstFileManagerImpl16OnDeleteFileImplERKNSt7__cxx1112basic_stringIcSt11char_traitsIcESaIcEEE(ptr noundef nonnull align 8 dereferenceable(808) %this1, ptr noundef nonnull align 8 dereferenceable(32) %0)
          to label %invoke.cont unwind label %lpad

invoke.cont:                                      ; preds = %entry
  call void @_ZN7rocksdb9MutexLockD2Ev(ptr noundef nonnull align 8 dereferenceable(8) %l) #3
  call void @_ZN7rocksdb6Status2OKEv(ptr sret(%"class.rocksdb::Status") align 8 %agg.result)
  ret void

lpad:                                             ; preds = %entry
  %1 = landingpad { ptr, i32 }
          cleanup
  %2 = extractvalue { ptr, i32 } %1, 0
  store ptr %2, ptr %exn.slot, align 8
  %3 = extractvalue { ptr, i32 } %1, 1
  store i32 %3, ptr %ehselector.slot, align 4
  call void @_ZN7rocksdb9MutexLockD2Ev(ptr noundef nonnull align 8 dereferenceable(8) %l) #3
  br label %eh.resume

eh.resume:                                        ; preds = %lpad
  %exn = load ptr, ptr %exn.slot, align 8
  %sel = load i32, ptr %ehselector.slot, align 4
  %lpad.val = insertvalue { ptr, i32 } poison, ptr %exn, 0
  %lpad.val2 = insertvalue { ptr, i32 } %lpad.val, i32 %sel, 1
  resume { ptr, i32 } %lpad.val2
}

; Function Attrs: mustprogress uwtable
define void @_ZN7rocksdb18SstFileManagerImpl16OnDeleteFileImplERKNSt7__cxx1112basic_stringIcSt11char_traitsIcESaIcEEE(ptr noundef nonnull align 8 dereferenceable(808) %this, ptr noundef nonnull align 8 dereferenceable(32) %file_path) #0 align 2 {
entry:
  %this.addr = alloca ptr, align 8
  %file_path.addr = alloca ptr, align 8
  %tracked_file = alloca %"struct.std::__detail::_Node_iterator", align 8
  %ref.tmp = alloca %"struct.std::__detail::_Node_iterator", align 8
  %agg.tmp = alloca %"struct.std::__detail::_Node_iterator", align 8
  %coerce = alloca %"struct.std::__detail::_Node_iterator", align 8
  store ptr %this, ptr %this.addr, align 8
  store ptr %file_path, ptr %file_path.addr, align 8
  %this1 = load ptr, ptr %this.addr, align 8
  %tracked_files_ = getelementptr inbounds %"class.rocksdb::SstFileManagerImpl", ptr %this1, i32 0, i32 8
  %0 = load ptr, ptr %file_path.addr, align 8
  %call = call ptr @_ZNSt13unordered_mapINSt7__cxx1112basic_stringIcSt11char_traitsIcESaIcEEEmSt4hashIS5_ESt8equal_toIS5_ESaISt4pairIKS5_mEEE4findERSB_(ptr noundef nonnull align 8 dereferenceable(56) %tracked_files_, ptr noundef nonnull align 8 dereferenceable(32) %0)
  %coerce.dive = getelementptr inbounds %"struct.std::__detail::_Node_iterator", ptr %tracked_file, i32 0, i32 0
  %coerce.dive2 = getelementptr inbounds %"struct.std::__detail::_Node_iterator_base", ptr %coerce.dive, i32 0, i32 0
  store ptr %call, ptr %coerce.dive2, align 8
  %tracked_files_3 = getelementptr inbounds %"class.rocksdb::SstFileManagerImpl", ptr %this1, i32 0, i32 8
  %call4 = call ptr @_ZNSt13unordered_mapINSt7__cxx1112basic_stringIcSt11char_traitsIcESaIcEEEmSt4hashIS5_ESt8equal_toIS5_ESaISt4pairIKS5_mEEE3endEv(ptr noundef nonnull align 8 dereferenceable(56) %tracked_files_3) #3
  %coerce.dive5 = getelementptr inbounds %"struct.std::__detail::_Node_iterator", ptr %ref.tmp, i32 0, i32 0
  %coerce.dive6 = getelementptr inbounds %"struct.std::__detail::_Node_iterator_base", ptr %coerce.dive5, i32 0, i32 0
  store ptr %call4, ptr %coerce.dive6, align 8
  %call7 = call noundef zeroext i1 @_ZNSt8__detaileqERKNS_19_Node_iterator_baseISt4pairIKNSt7__cxx1112basic_stringIcSt11char_traitsIcESaIcEEEmELb1EEESC_(ptr noundef nonnull align 8 dereferenceable(8) %tracked_file, ptr noundef nonnull align 8 dereferenceable(8) %ref.tmp) #3
  br i1 %call7, label %if.then, label %if.end

if.then:                                          ; preds = %entry
  br label %return

if.end:                                           ; preds = %entry
  %call8 = call noundef ptr @_ZNKSt8__detail14_Node_iteratorISt4pairIKNSt7__cxx1112basic_stringIcSt11char_traitsIcESaIcEEEmELb0ELb1EEptEv(ptr noundef nonnull align 8 dereferenceable(8) %tracked_file) #3
  %second = getelementptr inbounds %"struct.std::pair", ptr %call8, i32 0, i32 1
  %1 = load i64, ptr %second, align 8
  %total_files_size_ = getelementptr inbounds %"class.rocksdb::SstFileManagerImpl", ptr %this1, i32 0, i32 5
  %2 = load i64, ptr %total_files_size_, align 8
  %sub = sub i64 %2, %1
  store i64 %sub, ptr %total_files_size_, align 8
  %tracked_files_9 = getelementptr inbounds %"class.rocksdb::SstFileManagerImpl", ptr %this1, i32 0, i32 8
  call void @llvm.memcpy.p0.p0.i64(ptr align 8 %agg.tmp, ptr align 8 %tracked_file, i64 8, i1 false)
  %coerce.dive10 = getelementptr inbounds %"struct.std::__detail::_Node_iterator", ptr %agg.tmp, i32 0, i32 0
  %coerce.dive11 = getelementptr inbounds %"struct.std::__detail::_Node_iterator_base", ptr %coerce.dive10, i32 0, i32 0
  %3 = load ptr, ptr %coerce.dive11, align 8
  %call12 = call ptr @_ZNSt13unordered_mapINSt7__cxx1112basic_stringIcSt11char_traitsIcESaIcEEEmSt4hashIS5_ESt8equal_toIS5_ESaISt4pairIKS5_mEEE5eraseENSt8__detail14_Node_iteratorISC_Lb0ELb1EEE(ptr noundef nonnull align 8 dereferenceable(56) %tracked_files_9, ptr %3)
  %coerce.dive13 = getelementptr inbounds %"struct.std::__detail::_Node_iterator", ptr %coerce, i32 0, i32 0
  %coerce.dive14 = getelementptr inbounds %"struct.std::__detail::_Node_iterator_base", ptr %coerce.dive13, i32 0, i32 0
  store ptr %call12, ptr %coerce.dive14, align 8
  br label %return

return:                                           ; preds = %if.end, %if.then
  ret void
}

; Function Attrs: mustprogress uwtable
define void @_ZN7rocksdb18SstFileManagerImpl22OnCompactionCompletionEPNS_10CompactionE(ptr noundef nonnull align 8 dereferenceable(808) %this, ptr noundef %c) #0 align 2 personality ptr @__gxx_personality_v0 {
entry:
  %this.addr = alloca ptr, align 8
  %c.addr = alloca ptr, align 8
  %l = alloca %"class.rocksdb::MutexLock", align 8
  %size_added_by_compaction = alloca i64, align 8
  %i = alloca i64, align 8
  %exn.slot = alloca ptr, align 8
  %ehselector.slot = alloca i32, align 4
  %j = alloca i64, align 8
  %filemeta = alloca ptr, align 8
  store ptr %this, ptr %this.addr, align 8
  store ptr %c, ptr %c.addr, align 8
  %this1 = load ptr, ptr %this.addr, align 8
  %mu_ = getelementptr inbounds %"class.rocksdb::SstFileManagerImpl", ptr %this1, i32 0, i32 4
  call void @_ZN7rocksdb9MutexLockC2EPNS_4port5MutexE(ptr noundef nonnull align 8 dereferenceable(8) %l, ptr noundef %mu_)
  store i64 0, ptr %size_added_by_compaction, align 8
  store i64 0, ptr %i, align 8
  br label %for.cond

for.cond:                                         ; preds = %for.inc11, %entry
  %0 = load i64, ptr %i, align 8
  %1 = load ptr, ptr %c.addr, align 8
  %call = invoke noundef i64 @_ZNK7rocksdb10Compaction16num_input_levelsEv(ptr noundef nonnull align 16 dereferenceable(4788) %1)
          to label %invoke.cont unwind label %lpad

invoke.cont:                                      ; preds = %for.cond
  %cmp = icmp ult i64 %0, %call
  br i1 %cmp, label %for.body, label %for.end13

for.body:                                         ; preds = %invoke.cont
  store i64 0, ptr %j, align 8
  br label %for.cond2

for.cond2:                                        ; preds = %for.inc, %for.body
  %2 = load i64, ptr %j, align 8
  %3 = load ptr, ptr %c.addr, align 8
  %4 = load i64, ptr %i, align 8
  %call4 = invoke noundef i64 @_ZNK7rocksdb10Compaction15num_input_filesEm(ptr noundef nonnull align 16 dereferenceable(4788) %3, i64 noundef %4)
          to label %invoke.cont3 unwind label %lpad

invoke.cont3:                                     ; preds = %for.cond2
  %cmp5 = icmp ult i64 %2, %call4
  br i1 %cmp5, label %for.body6, label %for.end

for.body6:                                        ; preds = %invoke.cont3
  %5 = load ptr, ptr %c.addr, align 8
  %6 = load i64, ptr %i, align 8
  %7 = load i64, ptr %j, align 8
  %call8 = invoke noundef ptr @_ZNK7rocksdb10Compaction5inputEmm(ptr noundef nonnull align 16 dereferenceable(4788) %5, i64 noundef %6, i64 noundef %7)
          to label %invoke.cont7 unwind label %lpad

invoke.cont7:                                     ; preds = %for.body6
  store ptr %call8, ptr %filemeta, align 8
  %8 = load ptr, ptr %filemeta, align 8
  %fd = getelementptr inbounds %"struct.rocksdb::FileMetaData", ptr %8, i32 0, i32 0
  %call10 = invoke noundef i64 @_ZNK7rocksdb14FileDescriptor11GetFileSizeEv(ptr noundef nonnull align 8 dereferenceable(40) %fd)
          to label %invoke.cont9 unwind label %lpad

invoke.cont9:                                     ; preds = %invoke.cont7
  %9 = load i64, ptr %size_added_by_compaction, align 8
  %add = add i64 %9, %call10
  store i64 %add, ptr %size_added_by_compaction, align 8
  br label %for.inc

for.inc:                                          ; preds = %invoke.cont9
  %10 = load i64, ptr %j, align 8
  %inc = add i64 %10, 1
  store i64 %inc, ptr %j, align 8
  br label %for.cond2, !llvm.loop !4

lpad:                                             ; preds = %invoke.cont7, %for.body6, %for.cond2, %for.cond
  %11 = landingpad { ptr, i32 }
          cleanup
  %12 = extractvalue { ptr, i32 } %11, 0
  store ptr %12, ptr %exn.slot, align 8
  %13 = extractvalue { ptr, i32 } %11, 1
  store i32 %13, ptr %ehselector.slot, align 4
  call void @_ZN7rocksdb9MutexLockD2Ev(ptr noundef nonnull align 8 dereferenceable(8) %l) #3
  br label %eh.resume

for.end:                                          ; preds = %invoke.cont3
  br label %for.inc11

for.inc11:                                        ; preds = %for.end
  %14 = load i64, ptr %i, align 8
  %inc12 = add i64 %14, 1
  store i64 %inc12, ptr %i, align 8
  br label %for.cond, !llvm.loop !6

for.end13:                                        ; preds = %invoke.cont
  %15 = load i64, ptr %size_added_by_compaction, align 8
  %cur_compactions_reserved_size_ = getelementptr inbounds %"class.rocksdb::SstFileManagerImpl", ptr %this1, i32 0, i32 7
  %16 = load i64, ptr %cur_compactions_reserved_size_, align 8
  %sub = sub i64 %16, %15
  store i64 %sub, ptr %cur_compactions_reserved_size_, align 8
  call void @_ZN7rocksdb9MutexLockD2Ev(ptr noundef nonnull align 8 dereferenceable(8) %l) #3
  ret void

eh.resume:                                        ; preds = %lpad
  %exn = load ptr, ptr %exn.slot, align 8
  %sel = load i32, ptr %ehselector.slot, align 4
  %lpad.val = insertvalue { ptr, i32 } poison, ptr %exn, 0
  %lpad.val14 = insertvalue { ptr, i32 } %lpad.val, i32 %sel, 1
  resume { ptr, i32 } %lpad.val14
}

; Function Attrs: mustprogress nounwind uwtable
define linkonce_odr noundef i64 @_ZNK7rocksdb10Compaction16num_input_levelsEv(ptr noundef nonnull align 16 dereferenceable(4788) %this) #1 comdat align 2 {
entry:
  %this.addr = alloca ptr, align 8
  store ptr %this, ptr %this.addr, align 8
  %this1 = load ptr, ptr %this.addr, align 8
  %inputs_ = getelementptr inbounds %"class.rocksdb::Compaction", ptr %this1, i32 0, i32 26
  %call = call noundef i64 @_ZNKSt6vectorIN7rocksdb20CompactionInputFilesESaIS1_EE4sizeEv(ptr noundef nonnull align 8 dereferenceable(24) %inputs_) #3
  ret i64 %call
}

; Function Attrs: mustprogress uwtable
define linkonce_odr noundef i64 @_ZNK7rocksdb10Compaction15num_input_filesEm(ptr noundef nonnull align 16 dereferenceable(4788) %this, i64 noundef %compaction_input_level) #0 comdat align 2 {
entry:
  %retval = alloca i64, align 8
  %this.addr = alloca ptr, align 8
  %compaction_input_level.addr = alloca i64, align 8
  store ptr %this, ptr %this.addr, align 8
  store i64 %compaction_input_level, ptr %compaction_input_level.addr, align 8
  %this1 = load ptr, ptr %this.addr, align 8
  %0 = load i64, ptr %compaction_input_level.addr, align 8
  %inputs_ = getelementptr inbounds %"class.rocksdb::Compaction", ptr %this1, i32 0, i32 26
  %call = call noundef i64 @_ZNKSt6vectorIN7rocksdb20CompactionInputFilesESaIS1_EE4sizeEv(ptr noundef nonnull align 8 dereferenceable(24) %inputs_) #3
  %cmp = icmp ult i64 %0, %call
  br i1 %cmp, label %if.then, label %if.end

if.then:                                          ; preds = %entry
  %inputs_2 = getelementptr inbounds %"class.rocksdb::Compaction", ptr %this1, i32 0, i32 26
  %1 = load i64, ptr %compaction_input_level.addr, align 8
  %call3 = call noundef nonnull align 8 dereferenceable(56) ptr @_ZNKSt6vectorIN7rocksdb20CompactionInputFilesESaIS1_EEixEm(ptr noundef nonnull align 8 dereferenceable(24) %inputs_2, i64 noundef %1) #3
  %call4 = call noundef i64 @_ZNK7rocksdb20CompactionInputFiles4sizeEv(ptr noundef nonnull align 8 dereferenceable(56) %call3)
  store i64 %call4, ptr %retval, align 8
  br label %return

if.end:                                           ; preds = %entry
  store i64 0, ptr %retval, align 8
  br label %return

return:                                           ; preds = %if.end, %if.then
  %2 = load i64, ptr %retval, align 8
  ret i64 %2
}

; Function Attrs: mustprogress uwtable
define linkonce_odr noundef ptr @_ZNK7rocksdb10Compaction5inputEmm(ptr noundef nonnull align 16 dereferenceable(4788) %this, i64 noundef %compaction_input_level, i64 noundef %i) #0 comdat align 2 {
entry:
  %this.addr = alloca ptr, align 8
  %compaction_input_level.addr = alloca i64, align 8
  %i.addr = alloca i64, align 8
  store ptr %this, ptr %this.addr, align 8
  store i64 %compaction_input_level, ptr %compaction_input_level.addr, align 8
  store i64 %i, ptr %i.addr, align 8
  %this1 = load ptr, ptr %this.addr, align 8
  %inputs_ = getelementptr inbounds %"class.rocksdb::Compaction", ptr %this1, i32 0, i32 26
  %0 = load i64, ptr %compaction_input_level.addr, align 8
  %call = call noundef nonnull align 8 dereferenceable(56) ptr @_ZNKSt6vectorIN7rocksdb20CompactionInputFilesESaIS1_EEixEm(ptr noundef nonnull align 8 dereferenceable(24) %inputs_, i64 noundef %0) #3
  %1 = load i64, ptr %i.addr, align 8
  %call2 = call noundef ptr @_ZNK7rocksdb20CompactionInputFilesixEm(ptr noundef nonnull align 8 dereferenceable(56) %call, i64 noundef %1)
  ret ptr %call2
}

; Function Attrs: mustprogress nounwind uwtable
define linkonce_odr noundef i64 @_ZNK7rocksdb14FileDescriptor11GetFileSizeEv(ptr noundef nonnull align 8 dereferenceable(40) %this) #1 comdat align 2 {
entry:
  %this.addr = alloca ptr, align 8
  store ptr %this, ptr %this.addr, align 8
  %this1 = load ptr, ptr %this.addr, align 8
  %file_size = getelementptr inbounds %"struct.rocksdb::FileDescriptor", ptr %this1, i32 0, i32 2
  %0 = load i64, ptr %file_size, align 8
  ret i64 %0
}

; Function Attrs: mustprogress uwtable
define void @_ZN7rocksdb18SstFileManagerImpl10OnMoveFileERKNSt7__cxx1112basic_stringIcSt11char_traitsIcESaIcEEES8_Pm(ptr noalias sret(%"class.rocksdb::Status") align 8 %agg.result, ptr noundef nonnull align 8 dereferenceable(808) %this, ptr noundef nonnull align 8 dereferenceable(32) %old_path, ptr noundef nonnull align 8 dereferenceable(32) %new_path, ptr noundef %file_size) #0 align 2 personality ptr @__gxx_personality_v0 {
entry:
  %result.ptr = alloca ptr, align 8
  %this.addr = alloca ptr, align 8
  %old_path.addr = alloca ptr, align 8
  %new_path.addr = alloca ptr, align 8
  %file_size.addr = alloca ptr, align 8
  %l = alloca %"class.rocksdb::MutexLock", align 8
  %exn.slot = alloca ptr, align 8
  %ehselector.slot = alloca i32, align 4
  store ptr %agg.result, ptr %result.ptr, align 8
  store ptr %this, ptr %this.addr, align 8
  store ptr %old_path, ptr %old_path.addr, align 8
  store ptr %new_path, ptr %new_path.addr, align 8
  store ptr %file_size, ptr %file_size.addr, align 8
  %this1 = load ptr, ptr %this.addr, align 8
  %mu_ = getelementptr inbounds %"class.rocksdb::SstFileManagerImpl", ptr %this1, i32 0, i32 4
  call void @_ZN7rocksdb9MutexLockC2EPNS_4port5MutexE(ptr noundef nonnull align 8 dereferenceable(8) %l, ptr noundef %mu_)
  %0 = load ptr, ptr %file_size.addr, align 8
  %cmp = icmp ne ptr %0, null
  br i1 %cmp, label %if.then, label %if.end

if.then:                                          ; preds = %entry
  %tracked_files_ = getelementptr inbounds %"class.rocksdb::SstFileManagerImpl", ptr %this1, i32 0, i32 8
  %1 = load ptr, ptr %old_path.addr, align 8
  %call = invoke noundef nonnull align 8 dereferenceable(8) ptr @_ZNSt13unordered_mapINSt7__cxx1112basic_stringIcSt11char_traitsIcESaIcEEEmSt4hashIS5_ESt8equal_toIS5_ESaISt4pairIKS5_mEEEixERSB_(ptr noundef nonnull align 8 dereferenceable(56) %tracked_files_, ptr noundef nonnull align 8 dereferenceable(32) %1)
          to label %invoke.cont unwind label %lpad

invoke.cont:                                      ; preds = %if.then
  %2 = load i64, ptr %call, align 8
  %3 = load ptr, ptr %file_size.addr, align 8
  store i64 %2, ptr %3, align 8
  br label %if.end

lpad:                                             ; preds = %invoke.cont5, %invoke.cont3, %if.end, %if.then
  %4 = landingpad { ptr, i32 }
          cleanup
  %5 = extractvalue { ptr, i32 } %4, 0
  store ptr %5, ptr %exn.slot, align 8
  %6 = extractvalue { ptr, i32 } %4, 1
  store i32 %6, ptr %ehselector.slot, align 4
  call void @_ZN7rocksdb9MutexLockD2Ev(ptr noundef nonnull align 8 dereferenceable(8) %l) #3
  br label %eh.resume

if.end:                                           ; preds = %invoke.cont, %entry
  %7 = load ptr, ptr %new_path.addr, align 8
  %tracked_files_2 = getelementptr inbounds %"class.rocksdb::SstFileManagerImpl", ptr %this1, i32 0, i32 8
  %8 = load ptr, ptr %old_path.addr, align 8
  %call4 = invoke noundef nonnull align 8 dereferenceable(8) ptr @_ZNSt13unordered_mapINSt7__cxx1112basic_stringIcSt11char_traitsIcESaIcEEEmSt4hashIS5_ESt8equal_toIS5_ESaISt4pairIKS5_mEEEixERSB_(ptr noundef nonnull align 8 dereferenceable(56) %tracked_files_2, ptr noundef nonnull align 8 dereferenceable(32) %8)
          to label %invoke.cont3 unwind label %lpad

invoke.cont3:                                     ; preds = %if.end
  %9 = load i64, ptr %call4, align 8
  invoke void @_ZN7rocksdb18SstFileManagerImpl13OnAddFileImplERKNSt7__cxx1112basic_stringIcSt11char_traitsIcESaIcEEEm(ptr noundef nonnull align 8 dereferenceable(808) %this1, ptr noundef nonnull align 8 dereferenceable(32) %7, i64 noundef %9)
          to label %invoke.cont5 unwind label %lpad

invoke.cont5:                                     ; preds = %invoke.cont3
  %10 = load ptr, ptr %old_path.addr, align 8
  invoke void @_ZN7rocksdb18SstFileManagerImpl16OnDeleteFileImplERKNSt7__cxx1112basic_stringIcSt11char_traitsIcESaIcEEE(ptr noundef nonnull align 8 dereferenceable(808) %this1, ptr noundef nonnull align 8 dereferenceable(32) %10)
          to label %invoke.cont6 unwind label %lpad

invoke.cont6:                                     ; preds = %invoke.cont5
  call void @_ZN7rocksdb9MutexLockD2Ev(ptr noundef nonnull align 8 dereferenceable(8) %l) #3
  call void @_ZN7rocksdb6Status2OKEv(ptr sret(%"class.rocksdb::Status") align 8 %agg.result)
  ret void

eh.resume:                                        ; preds = %lpad
  %exn = load ptr, ptr %exn.slot, align 8
  %sel = load i32, ptr %ehselector.slot, align 4
  %lpad.val = insertvalue { ptr, i32 } poison, ptr %exn, 0
  %lpad.val7 = insertvalue { ptr, i32 } %lpad.val, i32 %sel, 1
  resume { ptr, i32 } %lpad.val7
}

; Function Attrs: mustprogress uwtable
define linkonce_odr noundef nonnull align 8 dereferenceable(8) ptr @_ZNSt13unordered_mapINSt7__cxx1112basic_stringIcSt11char_traitsIcESaIcEEEmSt4hashIS5_ESt8equal_toIS5_ESaISt4pairIKS5_mEEEixERSB_(ptr noundef nonnull align 8 dereferenceable(56) %this, ptr noundef nonnull align 8 dereferenceable(32) %__k) #0 comdat align 2 {
entry:
  %this.addr = alloca ptr, align 8
  %__k.addr = alloca ptr, align 8
  store ptr %this, ptr %this.addr, align 8
  store ptr %__k, ptr %__k.addr, align 8
  %this1 = load ptr, ptr %this.addr, align 8
  %_M_h = getelementptr inbounds %"class.std::unordered_map", ptr %this1, i32 0, i32 0
  %0 = load ptr, ptr %__k.addr, align 8
  %call = call noundef nonnull align 8 dereferenceable(8) ptr @_ZNSt8__detail9_Map_baseINSt7__cxx1112basic_stringIcSt11char_traitsIcESaIcEEESt4pairIKS6_mESaIS9_ENS_10_Select1stESt8equal_toIS6_ESt4hashIS6_ENS_18_Mod_range_hashingENS_20_Default_ranged_hashENS_20_Prime_rehash_policyENS_17_Hashtable_traitsILb1ELb0ELb1EEELb1EEixERS8_(ptr noundef nonnull align 1 dereferenceable(1) %_M_h, ptr noundef nonnull align 8 dereferenceable(32) %0)
  ret ptr %call
}

; Function Attrs: mustprogress uwtable
define void @_ZN7rocksdb18SstFileManagerImpl23SetMaxAllowedSpaceUsageEm(ptr noundef nonnull align 8 dereferenceable(808) %this, i64 noundef %max_allowed_space) unnamed_addr #0 align 2 {
entry:
  %this.addr = alloca ptr, align 8
  %max_allowed_space.addr = alloca i64, align 8
  %l = alloca %"class.rocksdb::MutexLock", align 8
  store ptr %this, ptr %this.addr, align 8
  store i64 %max_allowed_space, ptr %max_allowed_space.addr, align 8
  %this1 = load ptr, ptr %this.addr, align 8
  %mu_ = getelementptr inbounds %"class.rocksdb::SstFileManagerImpl", ptr %this1, i32 0, i32 4
  call void @_ZN7rocksdb9MutexLockC2EPNS_4port5MutexE(ptr noundef nonnull align 8 dereferenceable(8) %l, ptr noundef %mu_)
  %0 = load i64, ptr %max_allowed_space.addr, align 8
  %max_allowed_space_ = getelementptr inbounds %"class.rocksdb::SstFileManagerImpl", ptr %this1, i32 0, i32 9
  store i64 %0, ptr %max_allowed_space_, align 8
  call void @_ZN7rocksdb9MutexLockD2Ev(ptr noundef nonnull align 8 dereferenceable(8) %l) #3
  ret void
}

; Function Attrs: mustprogress uwtable
define void @_ZN7rocksdb18SstFileManagerImpl23SetCompactionBufferSizeEm(ptr noundef nonnull align 8 dereferenceable(808) %this, i64 noundef %compaction_buffer_size) unnamed_addr #0 align 2 {
entry:
  %this.addr = alloca ptr, align 8
  %compaction_buffer_size.addr = alloca i64, align 8
  %l = alloca %"class.rocksdb::MutexLock", align 8
  store ptr %this, ptr %this.addr, align 8
  store i64 %compaction_buffer_size, ptr %compaction_buffer_size.addr, align 8
  %this1 = load ptr, ptr %this.addr, align 8
  %mu_ = getelementptr inbounds %"class.rocksdb::SstFileManagerImpl", ptr %this1, i32 0, i32 4
  call void @_ZN7rocksdb9MutexLockC2EPNS_4port5MutexE(ptr noundef nonnull align 8 dereferenceable(8) %l, ptr noundef %mu_)
  %0 = load i64, ptr %compaction_buffer_size.addr, align 8
  %compaction_buffer_size_ = getelementptr inbounds %"class.rocksdb::SstFileManagerImpl", ptr %this1, i32 0, i32 6
  store i64 %0, ptr %compaction_buffer_size_, align 8
  call void @_ZN7rocksdb9MutexLockD2Ev(ptr noundef nonnull align 8 dereferenceable(8) %l) #3
  ret void
}

; Function Attrs: mustprogress uwtable
define noundef zeroext i1 @_ZN7rocksdb18SstFileManagerImpl24IsMaxAllowedSpaceReachedEv(ptr noundef nonnull align 8 dereferenceable(808) %this) unnamed_addr #0 align 2 {
entry:
  %retval = alloca i1, align 1
  %this.addr = alloca ptr, align 8
  %l = alloca %"class.rocksdb::MutexLock", align 8
  %cleanup.dest.slot = alloca i32, align 4
  store ptr %this, ptr %this.addr, align 8
  %this1 = load ptr, ptr %this.addr, align 8
  %mu_ = getelementptr inbounds %"class.rocksdb::SstFileManagerImpl", ptr %this1, i32 0, i32 4
  call void @_ZN7rocksdb9MutexLockC2EPNS_4port5MutexE(ptr noundef nonnull align 8 dereferenceable(8) %l, ptr noundef %mu_)
  %max_allowed_space_ = getelementptr inbounds %"class.rocksdb::SstFileManagerImpl", ptr %this1, i32 0, i32 9
  %0 = load i64, ptr %max_allowed_space_, align 8
  %cmp = icmp ule i64 %0, 0
  br i1 %cmp, label %if.then, label %if.end

if.then:                                          ; preds = %entry
  store i1 false, ptr %retval, align 1
  store i32 1, ptr %cleanup.dest.slot, align 4
  br label %cleanup

if.end:                                           ; preds = %entry
  %total_files_size_ = getelementptr inbounds %"class.rocksdb::SstFileManagerImpl", ptr %this1, i32 0, i32 5
  %1 = load i64, ptr %total_files_size_, align 8
  %max_allowed_space_2 = getelementptr inbounds %"class.rocksdb::SstFileManagerImpl", ptr %this1, i32 0, i32 9
  %2 = load i64, ptr %max_allowed_space_2, align 8
  %cmp3 = icmp uge i64 %1, %2
  store i1 %cmp3, ptr %retval, align 1
  store i32 1, ptr %cleanup.dest.slot, align 4
  br label %cleanup

cleanup:                                          ; preds = %if.end, %if.then
  call void @_ZN7rocksdb9MutexLockD2Ev(ptr noundef nonnull align 8 dereferenceable(8) %l) #3
  %3 = load i1, ptr %retval, align 1
  ret i1 %3
}

; Function Attrs: mustprogress uwtable
define noundef zeroext i1 @_ZN7rocksdb18SstFileManagerImpl44IsMaxAllowedSpaceReachedIncludingCompactionsEv(ptr noundef nonnull align 8 dereferenceable(808) %this) unnamed_addr #0 align 2 {
entry:
  %retval = alloca i1, align 1
  %this.addr = alloca ptr, align 8
  %l = alloca %"class.rocksdb::MutexLock", align 8
  %cleanup.dest.slot = alloca i32, align 4
  store ptr %this, ptr %this.addr, align 8
  %this1 = load ptr, ptr %this.addr, align 8
  %mu_ = getelementptr inbounds %"class.rocksdb::SstFileManagerImpl", ptr %this1, i32 0, i32 4
  call void @_ZN7rocksdb9MutexLockC2EPNS_4port5MutexE(ptr noundef nonnull align 8 dereferenceable(8) %l, ptr noundef %mu_)
  %max_allowed_space_ = getelementptr inbounds %"class.rocksdb::SstFileManagerImpl", ptr %this1, i32 0, i32 9
  %0 = load i64, ptr %max_allowed_space_, align 8
  %cmp = icmp ule i64 %0, 0
  br i1 %cmp, label %if.then, label %if.end

if.then:                                          ; preds = %entry
  store i1 false, ptr %retval, align 1
  store i32 1, ptr %cleanup.dest.slot, align 4
  br label %cleanup

if.end:                                           ; preds = %entry
  %total_files_size_ = getelementptr inbounds %"class.rocksdb::SstFileManagerImpl", ptr %this1, i32 0, i32 5
  %1 = load i64, ptr %total_files_size_, align 8
  %cur_compactions_reserved_size_ = getelementptr inbounds %"class.rocksdb::SstFileManagerImpl", ptr %this1, i32 0, i32 7
  %2 = load i64, ptr %cur_compactions_reserved_size_, align 8
  %add = add i64 %1, %2
  %max_allowed_space_2 = getelementptr inbounds %"class.rocksdb::SstFileManagerImpl", ptr %this1, i32 0, i32 9
  %3 = load i64, ptr %max_allowed_space_2, align 8
  %cmp3 = icmp uge i64 %add, %3
  store i1 %cmp3, ptr %retval, align 1
  store i32 1, ptr %cleanup.dest.slot, align 4
  br label %cleanup

cleanup:                                          ; preds = %if.end, %if.then
  call void @_ZN7rocksdb9MutexLockD2Ev(ptr noundef nonnull align 8 dereferenceable(8) %l) #3
  %4 = load i1, ptr %retval, align 1
  ret i1 %4
}

; Function Attrs: mustprogress uwtable
define noundef zeroext i1 @_ZN7rocksdb18SstFileManagerImpl23EnoughRoomForCompactionEPNS_16ColumnFamilyDataERKSt6vectorINS_20CompactionInputFilesESaIS4_EERKNS_6StatusE(ptr noundef nonnull align 8 dereferenceable(808) %this, ptr noundef %cfd, ptr noundef nonnull align 8 dereferenceable(24) %inputs, ptr noundef nonnull align 8 dereferenceable(16) %bg_error) #0 align 2 personality ptr @__gxx_personality_v0 {
entry:
  %retval = alloca i1, align 1
  %this.addr = alloca ptr, align 8
  %cfd.addr = alloca ptr, align 8
  %inputs.addr = alloca ptr, align 8
  %bg_error.addr = alloca ptr, align 8
  %l = alloca %"class.rocksdb::MutexLock", align 8
  %size_added_by_compaction = alloca i64, align 8
  %i = alloca i64, align 8
  %j = alloca i64, align 8
  %exn.slot = alloca ptr, align 8
  %ehselector.slot = alloca i32, align 4
  %filemeta = alloca ptr, align 8
  %needed_headroom = alloca i64, align 8
  %cleanup.dest.slot = alloca i32, align 4
  %fn = alloca %"class.std::__cxx11::basic_string", align 8
  %free_space = alloca i64, align 8
  %s = alloca %"class.rocksdb::Status", align 8
  %ref.tmp = alloca %"class.rocksdb::IOStatus", align 8
  %ref.tmp43 = alloca %"struct.rocksdb::IOOptions", align 8
  store ptr %this, ptr %this.addr, align 8
  store ptr %cfd, ptr %cfd.addr, align 8
  store ptr %inputs, ptr %inputs.addr, align 8
  store ptr %bg_error, ptr %bg_error.addr, align 8
  %this1 = load ptr, ptr %this.addr, align 8
  %mu_ = getelementptr inbounds %"class.rocksdb::SstFileManagerImpl", ptr %this1, i32 0, i32 4
  call void @_ZN7rocksdb9MutexLockC2EPNS_4port5MutexE(ptr noundef nonnull align 8 dereferenceable(8) %l, ptr noundef %mu_)
  store i64 0, ptr %size_added_by_compaction, align 8
  store i64 0, ptr %i, align 8
  br label %for.cond

for.cond:                                         ; preds = %for.inc12, %entry
  %0 = load i64, ptr %i, align 8
  %1 = load ptr, ptr %inputs.addr, align 8
  %call = call noundef i64 @_ZNKSt6vectorIN7rocksdb20CompactionInputFilesESaIS1_EE4sizeEv(ptr noundef nonnull align 8 dereferenceable(24) %1) #3
  %cmp = icmp ult i64 %0, %call
  br i1 %cmp, label %for.body, label %for.end14

for.body:                                         ; preds = %for.cond
  store i64 0, ptr %j, align 8
  br label %for.cond2

for.cond2:                                        ; preds = %for.inc, %for.body
  %2 = load i64, ptr %j, align 8
  %3 = load ptr, ptr %inputs.addr, align 8
  %4 = load i64, ptr %i, align 8
  %call3 = call noundef nonnull align 8 dereferenceable(56) ptr @_ZNKSt6vectorIN7rocksdb20CompactionInputFilesESaIS1_EEixEm(ptr noundef nonnull align 8 dereferenceable(24) %3, i64 noundef %4) #3
  %call4 = invoke noundef i64 @_ZNK7rocksdb20CompactionInputFiles4sizeEv(ptr noundef nonnull align 8 dereferenceable(56) %call3)
          to label %invoke.cont unwind label %lpad

invoke.cont:                                      ; preds = %for.cond2
  %cmp5 = icmp ult i64 %2, %call4
  br i1 %cmp5, label %for.body6, label %for.end

for.body6:                                        ; preds = %invoke.cont
  %5 = load ptr, ptr %inputs.addr, align 8
  %6 = load i64, ptr %i, align 8
  %call7 = call noundef nonnull align 8 dereferenceable(56) ptr @_ZNKSt6vectorIN7rocksdb20CompactionInputFilesESaIS1_EEixEm(ptr noundef nonnull align 8 dereferenceable(24) %5, i64 noundef %6) #3
  %7 = load i64, ptr %j, align 8
  %call9 = invoke noundef ptr @_ZNK7rocksdb20CompactionInputFilesixEm(ptr noundef nonnull align 8 dereferenceable(56) %call7, i64 noundef %7)
          to label %invoke.cont8 unwind label %lpad

invoke.cont8:                                     ; preds = %for.body6
  store ptr %call9, ptr %filemeta, align 8
  %8 = load ptr, ptr %filemeta, align 8
  %fd = getelementptr inbounds %"struct.rocksdb::FileMetaData", ptr %8, i32 0, i32 0
  %call11 = invoke noundef i64 @_ZNK7rocksdb14FileDescriptor11GetFileSizeEv(ptr noundef nonnull align 8 dereferenceable(40) %fd)
          to label %invoke.cont10 unwind label %lpad

invoke.cont10:                                    ; preds = %invoke.cont8
  %9 = load i64, ptr %size_added_by_compaction, align 8
  %add = add i64 %9, %call11
  store i64 %add, ptr %size_added_by_compaction, align 8
  br label %for.inc

for.inc:                                          ; preds = %invoke.cont10
  %10 = load i64, ptr %j, align 8
  %inc = add i64 %10, 1
  store i64 %inc, ptr %j, align 8
  br label %for.cond2, !llvm.loop !7

lpad:                                             ; preds = %invoke.cont39, %invoke.cont36, %invoke.cont33, %invoke.cont30, %invoke.cont27, %if.then26, %land.lhs.true23, %if.end, %invoke.cont8, %for.body6, %for.cond2
  %11 = landingpad { ptr, i32 }
          cleanup
  %12 = extractvalue { ptr, i32 } %11, 0
  store ptr %12, ptr %exn.slot, align 8
  %13 = extractvalue { ptr, i32 } %11, 1
  store i32 %13, ptr %ehselector.slot, align 4
  br label %ehcleanup68

for.end:                                          ; preds = %invoke.cont
  br label %for.inc12

for.inc12:                                        ; preds = %for.end
  %14 = load i64, ptr %i, align 8
  %inc13 = add i64 %14, 1
  store i64 %inc13, ptr %i, align 8
  br label %for.cond, !llvm.loop !8

for.end14:                                        ; preds = %for.cond
  %cur_compactions_reserved_size_ = getelementptr inbounds %"class.rocksdb::SstFileManagerImpl", ptr %this1, i32 0, i32 7
  %15 = load i64, ptr %cur_compactions_reserved_size_, align 8
  %16 = load i64, ptr %size_added_by_compaction, align 8
  %add15 = add i64 %15, %16
  %compaction_buffer_size_ = getelementptr inbounds %"class.rocksdb::SstFileManagerImpl", ptr %this1, i32 0, i32 6
  %17 = load i64, ptr %compaction_buffer_size_, align 8
  %add16 = add i64 %add15, %17
  store i64 %add16, ptr %needed_headroom, align 8
  %max_allowed_space_ = getelementptr inbounds %"class.rocksdb::SstFileManagerImpl", ptr %this1, i32 0, i32 9
  %18 = load i64, ptr %max_allowed_space_, align 8
  %cmp17 = icmp ne i64 %18, 0
  br i1 %cmp17, label %land.lhs.true, label %if.end

land.lhs.true:                                    ; preds = %for.end14
  %19 = load i64, ptr %needed_headroom, align 8
  %total_files_size_ = getelementptr inbounds %"class.rocksdb::SstFileManagerImpl", ptr %this1, i32 0, i32 5
  %20 = load i64, ptr %total_files_size_, align 8
  %add18 = add i64 %19, %20
  %max_allowed_space_19 = getelementptr inbounds %"class.rocksdb::SstFileManagerImpl", ptr %this1, i32 0, i32 9
  %21 = load i64, ptr %max_allowed_space_19, align 8
  %cmp20 = icmp ugt i64 %add18, %21
  br i1 %cmp20, label %if.then, label %if.end

if.then:                                          ; preds = %land.lhs.true
  store i1 false, ptr %retval, align 1
  store i32 1, ptr %cleanup.dest.slot, align 4
  br label %cleanup67

if.end:                                           ; preds = %land.lhs.true, %for.end14
  %22 = load ptr, ptr %bg_error.addr, align 8
  %call22 = invoke noundef zeroext i1 @_ZNK7rocksdb6Status9IsNoSpaceEv(ptr noundef nonnull align 8 dereferenceable(16) %22)
          to label %invoke.cont21 unwind label %lpad

invoke.cont21:                                    ; preds = %if.end
  br i1 %call22, label %land.lhs.true23, label %if.end63

land.lhs.true23:                                  ; preds = %invoke.cont21
  %call25 = invoke noundef zeroext i1 @_ZN7rocksdb18SstFileManagerImpl14CheckFreeSpaceEv(ptr noundef nonnull align 8 dereferenceable(808) %this1)
          to label %invoke.cont24 unwind label %lpad

invoke.cont24:                                    ; preds = %land.lhs.true23
  br i1 %call25, label %if.then26, label %if.end63

if.then26:                                        ; preds = %invoke.cont24
  %23 = load ptr, ptr %cfd.addr, align 8
  %call28 = invoke noundef ptr @_ZNK7rocksdb16ColumnFamilyData8ioptionsEv(ptr noundef nonnull align 8 dereferenceable(2656) %23)
          to label %invoke.cont27 unwind label %lpad

invoke.cont27:                                    ; preds = %if.then26
  %add.ptr = getelementptr inbounds i8, ptr %call28, i64 576
  %cf_paths = getelementptr inbounds %"struct.rocksdb::ImmutableCFOptions", ptr %add.ptr, i32 0, i32 29
  %24 = load ptr, ptr %inputs.addr, align 8
  %call29 = call noundef nonnull align 8 dereferenceable(56) ptr @_ZNKSt6vectorIN7rocksdb20CompactionInputFilesESaIS1_EEixEm(ptr noundef nonnull align 8 dereferenceable(24) %24, i64 noundef 0) #3
  %call31 = invoke noundef ptr @_ZNK7rocksdb20CompactionInputFilesixEm(ptr noundef nonnull align 8 dereferenceable(56) %call29, i64 noundef 0)
          to label %invoke.cont30 unwind label %lpad

invoke.cont30:                                    ; preds = %invoke.cont27
  %fd32 = getelementptr inbounds %"struct.rocksdb::FileMetaData", ptr %call31, i32 0, i32 0
  %call34 = invoke noundef i64 @_ZNK7rocksdb14FileDescriptor9GetNumberEv(ptr noundef nonnull align 8 dereferenceable(40) %fd32)
          to label %invoke.cont33 unwind label %lpad

invoke.cont33:                                    ; preds = %invoke.cont30
  %25 = load ptr, ptr %inputs.addr, align 8
  %call35 = call noundef nonnull align 8 dereferenceable(56) ptr @_ZNKSt6vectorIN7rocksdb20CompactionInputFilesESaIS1_EEixEm(ptr noundef nonnull align 8 dereferenceable(24) %25, i64 noundef 0) #3
  %call37 = invoke noundef ptr @_ZNK7rocksdb20CompactionInputFilesixEm(ptr noundef nonnull align 8 dereferenceable(56) %call35, i64 noundef 0)
          to label %invoke.cont36 unwind label %lpad

invoke.cont36:                                    ; preds = %invoke.cont33
  %fd38 = getelementptr inbounds %"struct.rocksdb::FileMetaData", ptr %call37, i32 0, i32 0
  %call40 = invoke noundef i32 @_ZNK7rocksdb14FileDescriptor9GetPathIdEv(ptr noundef nonnull align 8 dereferenceable(40) %fd38)
          to label %invoke.cont39 unwind label %lpad

invoke.cont39:                                    ; preds = %invoke.cont36
  invoke void @_ZN7rocksdb13TableFileNameB5cxx11ERKSt6vectorINS_6DbPathESaIS1_EEmj(ptr sret(%"class.std::__cxx11::basic_string") align 8 %fn, ptr noundef nonnull align 8 dereferenceable(24) %cf_paths, i64 noundef %call34, i32 noundef %call40)
          to label %invoke.cont41 unwind label %lpad

invoke.cont41:                                    ; preds = %invoke.cont39
  store i64 0, ptr %free_space, align 8
  %fs_ = getelementptr inbounds %"class.rocksdb::SstFileManagerImpl", ptr %this1, i32 0, i32 2
  %call42 = call noundef ptr @_ZNKSt19__shared_ptr_accessIN7rocksdb10FileSystemELN9__gnu_cxx12_Lock_policyE2ELb0ELb0EEptEv(ptr noundef nonnull align 1 dereferenceable(1) %fs_) #3
  invoke void @_ZN7rocksdb9IOOptionsC2Ev(ptr noundef nonnull align 8 dereferenceable(83) %ref.tmp43)
          to label %invoke.cont45 unwind label %lpad44

invoke.cont45:                                    ; preds = %invoke.cont41
  %vtable = load ptr, ptr %call42, align 8
  %vfn = getelementptr inbounds ptr, ptr %vtable, i64 56
  %26 = load ptr, ptr %vfn, align 8
  invoke void %26(ptr sret(%"class.rocksdb::IOStatus") align 8 %ref.tmp, ptr noundef nonnull align 8 dereferenceable(32) %call42, ptr noundef nonnull align 8 dereferenceable(32) %fn, ptr noundef nonnull align 8 dereferenceable(83) %ref.tmp43, ptr noundef %free_space, ptr noundef null)
          to label %invoke.cont47 unwind label %lpad46

invoke.cont47:                                    ; preds = %invoke.cont45
  call void @_ZN7rocksdb6StatusC2EOS0_(ptr noundef nonnull align 8 dereferenceable(16) %s, ptr noundef nonnull align 8 dereferenceable(16) %ref.tmp) #3
  call void @_ZN7rocksdb8IOStatusD2Ev(ptr noundef nonnull align 8 dereferenceable(16) %ref.tmp) #3
  call void @_ZN7rocksdb9IOOptionsD2Ev(ptr noundef nonnull align 8 dereferenceable(83) %ref.tmp43) #3
  invoke void @_ZNK7rocksdb6Status20PermitUncheckedErrorEv(ptr noundef nonnull align 8 dereferenceable(16) %s)
          to label %invoke.cont49 unwind label %lpad48

invoke.cont49:                                    ; preds = %invoke.cont47
  %compaction_buffer_size_50 = getelementptr inbounds %"class.rocksdb::SstFileManagerImpl", ptr %this1, i32 0, i32 6
  %27 = load i64, ptr %compaction_buffer_size_50, align 8
  %cmp51 = icmp eq i64 %27, 0
  br i1 %cmp51, label %if.then52, label %if.end54

if.then52:                                        ; preds = %invoke.cont49
  %reserved_disk_buffer_ = getelementptr inbounds %"class.rocksdb::SstFileManagerImpl", ptr %this1, i32 0, i32 16
  %28 = load i64, ptr %reserved_disk_buffer_, align 8
  %29 = load i64, ptr %needed_headroom, align 8
  %add53 = add i64 %29, %28
  store i64 %add53, ptr %needed_headroom, align 8
  br label %if.end54

lpad44:                                           ; preds = %invoke.cont41
  %30 = landingpad { ptr, i32 }
          cleanup
  %31 = extractvalue { ptr, i32 } %30, 0
  store ptr %31, ptr %exn.slot, align 8
  %32 = extractvalue { ptr, i32 } %30, 1
  store i32 %32, ptr %ehselector.slot, align 4
  br label %ehcleanup

lpad46:                                           ; preds = %invoke.cont45
  %33 = landingpad { ptr, i32 }
          cleanup
  %34 = extractvalue { ptr, i32 } %33, 0
  store ptr %34, ptr %exn.slot, align 8
  %35 = extractvalue { ptr, i32 } %33, 1
  store i32 %35, ptr %ehselector.slot, align 4
  call void @_ZN7rocksdb9IOOptionsD2Ev(ptr noundef nonnull align 8 dereferenceable(83) %ref.tmp43) #3
  br label %ehcleanup

lpad48:                                           ; preds = %invoke.cont58, %if.then57, %invoke.cont47
  %36 = landingpad { ptr, i32 }
          cleanup
  %37 = extractvalue { ptr, i32 } %36, 0
  store ptr %37, ptr %exn.slot, align 8
  %38 = extractvalue { ptr, i32 } %36, 1
  store i32 %38, ptr %ehselector.slot, align 4
  call void @_ZN7rocksdb6StatusD2Ev(ptr noundef nonnull align 8 dereferenceable(16) %s) #3
  br label %ehcleanup

if.end54:                                         ; preds = %if.then52, %invoke.cont49
  %39 = load i64, ptr %free_space, align 8
  %40 = load i64, ptr %needed_headroom, align 8
  %41 = load i64, ptr %size_added_by_compaction, align 8
  %add55 = add i64 %40, %41
  %cmp56 = icmp ult i64 %39, %add55
  br i1 %cmp56, label %if.then57, label %if.end61

if.then57:                                        ; preds = %if.end54
  %logger_ = getelementptr inbounds %"class.rocksdb::SstFileManagerImpl", ptr %this1, i32 0, i32 3
  %call59 = invoke noundef ptr @_Z23RocksLogShorterFileNamePKc(ptr noundef @.str.1)
          to label %invoke.cont58 unwind label %lpad48

invoke.cont58:                                    ; preds = %if.then57
  %42 = load i64, ptr %free_space, align 8
  %43 = load i64, ptr %needed_headroom, align 8
  invoke void (i8, ptr, ptr, ...) @_ZN7rocksdb3LogENS_12InfoLogLevelERKSt10shared_ptrINS_6LoggerEEPKcz(i8 noundef zeroext 3, ptr noundef nonnull align 8 dereferenceable(16) %logger_, ptr noundef @.str, ptr noundef %call59, i64 noundef %42, i64 noundef %43)
          to label %invoke.cont60 unwind label %lpad48

invoke.cont60:                                    ; preds = %invoke.cont58
  store i1 false, ptr %retval, align 1
  store i32 1, ptr %cleanup.dest.slot, align 4
  br label %cleanup

if.end61:                                         ; preds = %if.end54
  store i32 0, ptr %cleanup.dest.slot, align 4
  br label %cleanup

cleanup:                                          ; preds = %if.end61, %invoke.cont60
  call void @_ZN7rocksdb6StatusD2Ev(ptr noundef nonnull align 8 dereferenceable(16) %s) #3
  call void @_ZNSt7__cxx1112basic_stringIcSt11char_traitsIcESaIcEED1Ev(ptr noundef nonnull align 8 dereferenceable(32) %fn) #3
  %cleanup.dest = load i32, ptr %cleanup.dest.slot, align 4
  switch i32 %cleanup.dest, label %cleanup67 [
    i32 0, label %cleanup.cont
  ]

cleanup.cont:                                     ; preds = %cleanup
  br label %if.end63

ehcleanup:                                        ; preds = %lpad48, %lpad46, %lpad44
  call void @_ZNSt7__cxx1112basic_stringIcSt11char_traitsIcESaIcEED1Ev(ptr noundef nonnull align 8 dereferenceable(32) %fn) #3
  br label %ehcleanup68

if.end63:                                         ; preds = %cleanup.cont, %invoke.cont24, %invoke.cont21
  %44 = load i64, ptr %size_added_by_compaction, align 8
  %cur_compactions_reserved_size_64 = getelementptr inbounds %"class.rocksdb::SstFileManagerImpl", ptr %this1, i32 0, i32 7
  %45 = load i64, ptr %cur_compactions_reserved_size_64, align 8
  %add65 = add i64 %45, %44
  store i64 %add65, ptr %cur_compactions_reserved_size_64, align 8
  %cur_compactions_reserved_size_66 = getelementptr inbounds %"class.rocksdb::SstFileManagerImpl", ptr %this1, i32 0, i32 7
  %46 = load i64, ptr %cur_compactions_reserved_size_66, align 8
  %free_space_trigger_ = getelementptr inbounds %"class.rocksdb::SstFileManagerImpl", ptr %this1, i32 0, i32 17
  store i64 %46, ptr %free_space_trigger_, align 8
  store i1 true, ptr %retval, align 1
  store i32 1, ptr %cleanup.dest.slot, align 4
  br label %cleanup67

cleanup67:                                        ; preds = %if.end63, %cleanup, %if.then
  call void @_ZN7rocksdb9MutexLockD2Ev(ptr noundef nonnull align 8 dereferenceable(8) %l) #3
  %47 = load i1, ptr %retval, align 1
  ret i1 %47

ehcleanup68:                                      ; preds = %ehcleanup, %lpad
  call void @_ZN7rocksdb9MutexLockD2Ev(ptr noundef nonnull align 8 dereferenceable(8) %l) #3
  br label %eh.resume

eh.resume:                                        ; preds = %ehcleanup68
  %exn = load ptr, ptr %exn.slot, align 8
  %sel = load i32, ptr %ehselector.slot, align 4
  %lpad.val = insertvalue { ptr, i32 } poison, ptr %exn, 0
  %lpad.val69 = insertvalue { ptr, i32 } %lpad.val, i32 %sel, 1
  resume { ptr, i32 } %lpad.val69
}

; Function Attrs: mustprogress nounwind uwtable
define linkonce_odr noundef i64 @_ZNKSt6vectorIN7rocksdb20CompactionInputFilesESaIS1_EE4sizeEv(ptr noundef nonnull align 8 dereferenceable(24) %this) #1 comdat align 2 {
entry:
  %this.addr = alloca ptr, align 8
  store ptr %this, ptr %this.addr, align 8
  %this1 = load ptr, ptr %this.addr, align 8
  %_M_impl = getelementptr inbounds %"struct.std::_Vector_base.177", ptr %this1, i32 0, i32 0
  %_M_finish = getelementptr inbounds %"struct.std::_Vector_base<rocksdb::CompactionInputFiles, std::allocator<rocksdb::CompactionInputFiles>>::_Vector_impl_data", ptr %_M_impl, i32 0, i32 1
  %0 = load ptr, ptr %_M_finish, align 8
  %_M_impl2 = getelementptr inbounds %"struct.std::_Vector_base.177", ptr %this1, i32 0, i32 0
  %_M_start = getelementptr inbounds %"struct.std::_Vector_base<rocksdb::CompactionInputFiles, std::allocator<rocksdb::CompactionInputFiles>>::_Vector_impl_data", ptr %_M_impl2, i32 0, i32 0
  %1 = load ptr, ptr %_M_start, align 8
  %sub.ptr.lhs.cast = ptrtoint ptr %0 to i64
  %sub.ptr.rhs.cast = ptrtoint ptr %1 to i64
  %sub.ptr.sub = sub i64 %sub.ptr.lhs.cast, %sub.ptr.rhs.cast
  %sub.ptr.div = sdiv exact i64 %sub.ptr.sub, 56
  ret i64 %sub.ptr.div
}

; Function Attrs: mustprogress nounwind uwtable
define linkonce_odr noundef nonnull align 8 dereferenceable(56) ptr @_ZNKSt6vectorIN7rocksdb20CompactionInputFilesESaIS1_EEixEm(ptr noundef nonnull align 8 dereferenceable(24) %this, i64 noundef %__n) #1 comdat align 2 {
entry:
  %this.addr = alloca ptr, align 8
  %__n.addr = alloca i64, align 8
  store ptr %this, ptr %this.addr, align 8
  store i64 %__n, ptr %__n.addr, align 8
  %this1 = load ptr, ptr %this.addr, align 8
  %_M_impl = getelementptr inbounds %"struct.std::_Vector_base.177", ptr %this1, i32 0, i32 0
  %_M_start = getelementptr inbounds %"struct.std::_Vector_base<rocksdb::CompactionInputFiles, std::allocator<rocksdb::CompactionInputFiles>>::_Vector_impl_data", ptr %_M_impl, i32 0, i32 0
  %0 = load ptr, ptr %_M_start, align 8
  %1 = load i64, ptr %__n.addr, align 8
  %add.ptr = getelementptr inbounds %"struct.rocksdb::CompactionInputFiles", ptr %0, i64 %1
  ret ptr %add.ptr
}

; Function Attrs: mustprogress nounwind uwtable
define linkonce_odr noundef i64 @_ZNK7rocksdb20CompactionInputFiles4sizeEv(ptr noundef nonnull align 8 dereferenceable(56) %this) #1 comdat align 2 {
entry:
  %this.addr = alloca ptr, align 8
  store ptr %this, ptr %this.addr, align 8
  %this1 = load ptr, ptr %this.addr, align 8
  %files = getelementptr inbounds %"struct.rocksdb::CompactionInputFiles", ptr %this1, i32 0, i32 1
  %call = call noundef i64 @_ZNKSt6vectorIPN7rocksdb12FileMetaDataESaIS2_EE4sizeEv(ptr noundef nonnull align 8 dereferenceable(24) %files) #3
  ret i64 %call
}

; Function Attrs: mustprogress nounwind uwtable
define linkonce_odr noundef ptr @_ZNK7rocksdb20CompactionInputFilesixEm(ptr noundef nonnull align 8 dereferenceable(56) %this, i64 noundef %i) #1 comdat align 2 {
entry:
  %this.addr = alloca ptr, align 8
  %i.addr = alloca i64, align 8
  store ptr %this, ptr %this.addr, align 8
  store i64 %i, ptr %i.addr, align 8
  %this1 = load ptr, ptr %this.addr, align 8
  %files = getelementptr inbounds %"struct.rocksdb::CompactionInputFiles", ptr %this1, i32 0, i32 1
  %0 = load i64, ptr %i.addr, align 8
  %call = call noundef nonnull align 8 dereferenceable(8) ptr @_ZNKSt6vectorIPN7rocksdb12FileMetaDataESaIS2_EEixEm(ptr noundef nonnull align 8 dereferenceable(24) %files, i64 noundef %0) #3
  %1 = load ptr, ptr %call, align 8
  ret ptr %1
}

; Function Attrs: mustprogress uwtable
define linkonce_odr noundef zeroext i1 @_ZNK7rocksdb6Status9IsNoSpaceEv(ptr noundef nonnull align 8 dereferenceable(16) %this) #0 comdat align 2 {
entry:
  %this.addr = alloca ptr, align 8
  store ptr %this, ptr %this.addr, align 8
  %this1 = load ptr, ptr %this.addr, align 8
  call void @_ZNK7rocksdb6Status11MarkCheckedEv(ptr noundef nonnull align 8 dereferenceable(16) %this1)
  %call = call noundef zeroext i8 @_ZNK7rocksdb6Status4codeEv(ptr noundef nonnull align 8 dereferenceable(16) %this1)
  %conv = zext i8 %call to i32
  %cmp = icmp eq i32 %conv, 5
  br i1 %cmp, label %land.rhs, label %land.end

land.rhs:                                         ; preds = %entry
  %call2 = call noundef zeroext i8 @_ZNK7rocksdb6Status7subcodeEv(ptr noundef nonnull align 8 dereferenceable(16) %this1)
  %conv3 = zext i8 %call2 to i32
  %cmp4 = icmp eq i32 %conv3, 4
  br label %land.end

land.end:                                         ; preds = %land.rhs, %entry
  %0 = phi i1 [ false, %entry ], [ %cmp4, %land.rhs ]
  ret i1 %0
}

; Function Attrs: mustprogress uwtable
define linkonce_odr noundef zeroext i1 @_ZN7rocksdb18SstFileManagerImpl14CheckFreeSpaceEv(ptr noundef nonnull align 8 dereferenceable(808) %this) #0 comdat align 2 {
entry:
  %this.addr = alloca ptr, align 8
  store ptr %this, ptr %this.addr, align 8
  %this1 = load ptr, ptr %this.addr, align 8
  %bg_err_ = getelementptr inbounds %"class.rocksdb::SstFileManagerImpl", ptr %this1, i32 0, i32 15
  %call = call noundef zeroext i8 @_ZNK7rocksdb6Status8severityEv(ptr noundef nonnull align 8 dereferenceable(16) %bg_err_)
  %conv = zext i8 %call to i32
  %cmp = icmp eq i32 %conv, 1
  ret i1 %cmp
}

declare void @_ZN7rocksdb13TableFileNameB5cxx11ERKSt6vectorINS_6DbPathESaIS1_EEmj(ptr sret(%"class.std::__cxx11::basic_string") align 8, ptr noundef nonnull align 8 dereferenceable(24), i64 noundef, i32 noundef) #4

; Function Attrs: mustprogress nounwind uwtable
define linkonce_odr noundef ptr @_ZNK7rocksdb16ColumnFamilyData8ioptionsEv(ptr noundef nonnull align 8 dereferenceable(2656) %this) #1 comdat align 2 {
entry:
  %this.addr = alloca ptr, align 8
  store ptr %this, ptr %this.addr, align 8
  %this1 = load ptr, ptr %this.addr, align 8
  %ioptions_ = getelementptr inbounds %"class.rocksdb::ColumnFamilyData", ptr %this1, i32 0, i32 10
  ret ptr %ioptions_
}

; Function Attrs: mustprogress nounwind uwtable
define linkonce_odr noundef i64 @_ZNK7rocksdb14FileDescriptor9GetNumberEv(ptr noundef nonnull align 8 dereferenceable(40) %this) #1 comdat align 2 {
entry:
  %this.addr = alloca ptr, align 8
  store ptr %this, ptr %this.addr, align 8
  %this1 = load ptr, ptr %this.addr, align 8
  %packed_number_and_path_id = getelementptr inbounds %"struct.rocksdb::FileDescriptor", ptr %this1, i32 0, i32 1
  %0 = load i64, ptr %packed_number_and_path_id, align 8
  %and = and i64 %0, 4611686018427387903
  ret i64 %and
}

; Function Attrs: mustprogress nounwind uwtable
define linkonce_odr noundef i32 @_ZNK7rocksdb14FileDescriptor9GetPathIdEv(ptr noundef nonnull align 8 dereferenceable(40) %this) #1 comdat align 2 {
entry:
  %this.addr = alloca ptr, align 8
  store ptr %this, ptr %this.addr, align 8
  %this1 = load ptr, ptr %this.addr, align 8
  %packed_number_and_path_id = getelementptr inbounds %"struct.rocksdb::FileDescriptor", ptr %this1, i32 0, i32 1
  %0 = load i64, ptr %packed_number_and_path_id, align 8
  %div = udiv i64 %0, 4611686018427387904
  %conv = trunc i64 %div to i32
  ret i32 %conv
}

declare void @_ZN7rocksdb3LogENS_12InfoLogLevelERKSt10shared_ptrINS_6LoggerEEPKcz(i8 noundef zeroext, ptr noundef nonnull align 8 dereferenceable(16), ptr noundef, ...) #4

; Function Attrs: mustprogress nounwind uwtable
define linkonce_odr noundef ptr @_Z23RocksLogShorterFileNamePKc(ptr noundef %file) #1 comdat {
entry:
  %file.addr = alloca ptr, align 8
  store ptr %file, ptr %file.addr, align 8
  %0 = load ptr, ptr %file.addr, align 8
  %add.ptr = getelementptr inbounds i8, ptr %0, i64 93
  ret ptr %add.ptr
}

; Function Attrs: mustprogress uwtable
define noundef i64 @_ZN7rocksdb18SstFileManagerImpl26GetCompactionsReservedSizeEv(ptr noundef nonnull align 8 dereferenceable(808) %this) #0 align 2 {
entry:
  %this.addr = alloca ptr, align 8
  %l = alloca %"class.rocksdb::MutexLock", align 8
  store ptr %this, ptr %this.addr, align 8
  %this1 = load ptr, ptr %this.addr, align 8
  %mu_ = getelementptr inbounds %"class.rocksdb::SstFileManagerImpl", ptr %this1, i32 0, i32 4
  call void @_ZN7rocksdb9MutexLockC2EPNS_4port5MutexE(ptr noundef nonnull align 8 dereferenceable(8) %l, ptr noundef %mu_)
  %cur_compactions_reserved_size_ = getelementptr inbounds %"class.rocksdb::SstFileManagerImpl", ptr %this1, i32 0, i32 7
  %0 = load i64, ptr %cur_compactions_reserved_size_, align 8
  call void @_ZN7rocksdb9MutexLockD2Ev(ptr noundef nonnull align 8 dereferenceable(8) %l) #3
  ret i64 %0
}

; Function Attrs: mustprogress uwtable
define noundef i64 @_ZN7rocksdb18SstFileManagerImpl12GetTotalSizeEv(ptr noundef nonnull align 8 dereferenceable(808) %this) unnamed_addr #0 align 2 {
entry:
  %this.addr = alloca ptr, align 8
  %l = alloca %"class.rocksdb::MutexLock", align 8
  store ptr %this, ptr %this.addr, align 8
  %this1 = load ptr, ptr %this.addr, align 8
  %mu_ = getelementptr inbounds %"class.rocksdb::SstFileManagerImpl", ptr %this1, i32 0, i32 4
  call void @_ZN7rocksdb9MutexLockC2EPNS_4port5MutexE(ptr noundef nonnull align 8 dereferenceable(8) %l, ptr noundef %mu_)
  %total_files_size_ = getelementptr inbounds %"class.rocksdb::SstFileManagerImpl", ptr %this1, i32 0, i32 5
  %0 = load i64, ptr %total_files_size_, align 8
  call void @_ZN7rocksdb9MutexLockD2Ev(ptr noundef nonnull align 8 dereferenceable(8) %l) #3
  ret i64 %0
}

; Function Attrs: mustprogress uwtable
define void @_ZN7rocksdb18SstFileManagerImpl15GetTrackedFilesB5cxx11Ev(ptr noalias sret(%"class.std::unordered_map") align 8 %agg.result, ptr noundef nonnull align 8 dereferenceable(808) %this) unnamed_addr #0 align 2 personality ptr @__gxx_personality_v0 {
entry:
  %result.ptr = alloca ptr, align 8
  %this.addr = alloca ptr, align 8
  %l = alloca %"class.rocksdb::MutexLock", align 8
  %exn.slot = alloca ptr, align 8
  %ehselector.slot = alloca i32, align 4
  store ptr %agg.result, ptr %result.ptr, align 8
  store ptr %this, ptr %this.addr, align 8
  %this1 = load ptr, ptr %this.addr, align 8
  %mu_ = getelementptr inbounds %"class.rocksdb::SstFileManagerImpl", ptr %this1, i32 0, i32 4
  call void @_ZN7rocksdb9MutexLockC2EPNS_4port5MutexE(ptr noundef nonnull align 8 dereferenceable(8) %l, ptr noundef %mu_)
  %tracked_files_ = getelementptr inbounds %"class.rocksdb::SstFileManagerImpl", ptr %this1, i32 0, i32 8
  invoke void @_ZNSt13unordered_mapINSt7__cxx1112basic_stringIcSt11char_traitsIcESaIcEEEmSt4hashIS5_ESt8equal_toIS5_ESaISt4pairIKS5_mEEEC2ERKSE_(ptr noundef nonnull align 8 dereferenceable(56) %agg.result, ptr noundef nonnull align 8 dereferenceable(56) %tracked_files_)
          to label %invoke.cont unwind label %lpad

invoke.cont:                                      ; preds = %entry
  call void @_ZN7rocksdb9MutexLockD2Ev(ptr noundef nonnull align 8 dereferenceable(8) %l) #3
  ret void

lpad:                                             ; preds = %entry
  %0 = landingpad { ptr, i32 }
          cleanup
  %1 = extractvalue { ptr, i32 } %0, 0
  store ptr %1, ptr %exn.slot, align 8
  %2 = extractvalue { ptr, i32 } %0, 1
  store i32 %2, ptr %ehselector.slot, align 4
  call void @_ZN7rocksdb9MutexLockD2Ev(ptr noundef nonnull align 8 dereferenceable(8) %l) #3
  br label %eh.resume

eh.resume:                                        ; preds = %lpad
  %exn = load ptr, ptr %exn.slot, align 8
  %sel = load i32, ptr %ehselector.slot, align 4
  %lpad.val = insertvalue { ptr, i32 } poison, ptr %exn, 0
  %lpad.val2 = insertvalue { ptr, i32 } %lpad.val, i32 %sel, 1
  resume { ptr, i32 } %lpad.val2
}

; Function Attrs: mustprogress uwtable
define linkonce_odr void @_ZNSt13unordered_mapINSt7__cxx1112basic_stringIcSt11char_traitsIcESaIcEEEmSt4hashIS5_ESt8equal_toIS5_ESaISt4pairIKS5_mEEEC2ERKSE_(ptr noundef nonnull align 8 dereferenceable(56) %this, ptr noundef nonnull align 8 dereferenceable(56) %0) unnamed_addr #0 comdat align 2 {
entry:
  %this.addr = alloca ptr, align 8
  %.addr = alloca ptr, align 8
  store ptr %this, ptr %this.addr, align 8
  store ptr %0, ptr %.addr, align 8
  %this1 = load ptr, ptr %this.addr, align 8
  %_M_h = getelementptr inbounds %"class.std::unordered_map", ptr %this1, i32 0, i32 0
  %1 = load ptr, ptr %.addr, align 8
  %_M_h2 = getelementptr inbounds %"class.std::unordered_map", ptr %1, i32 0, i32 0
  call void @_ZNSt10_HashtableINSt7__cxx1112basic_stringIcSt11char_traitsIcESaIcEEESt4pairIKS5_mESaIS8_ENSt8__detail10_Select1stESt8equal_toIS5_ESt4hashIS5_ENSA_18_Mod_range_hashingENSA_20_Default_ranged_hashENSA_20_Prime_rehash_policyENSA_17_Hashtable_traitsILb1ELb0ELb1EEEEC2ERKSL_(ptr noundef nonnull align 8 dereferenceable(56) %_M_h, ptr noundef nonnull align 8 dereferenceable(56) %_M_h2)
  ret void
}

; Function Attrs: mustprogress uwtable
define noundef i64 @_ZN7rocksdb18SstFileManagerImpl27GetDeleteRateBytesPerSecondEv(ptr noundef nonnull align 8 dereferenceable(808) %this) unnamed_addr #0 align 2 {
entry:
  %this.addr = alloca ptr, align 8
  store ptr %this, ptr %this.addr, align 8
  %this1 = load ptr, ptr %this.addr, align 8
  %delete_scheduler_ = getelementptr inbounds %"class.rocksdb::SstFileManagerImpl", ptr %this1, i32 0, i32 10
  %call = call noundef i64 @_ZN7rocksdb15DeleteScheduler21GetRateBytesPerSecondEv(ptr noundef nonnull align 8 dereferenceable(440) %delete_scheduler_)
  ret i64 %call
}

; Function Attrs: mustprogress nounwind uwtable
define linkonce_odr noundef i64 @_ZN7rocksdb15DeleteScheduler21GetRateBytesPerSecondEv(ptr noundef nonnull align 8 dereferenceable(440) %this) #1 comdat align 2 personality ptr @__gxx_personality_v0 {
entry:
  %this.addr.i = alloca ptr, align 8
  %__m.addr.i = alloca i32, align 4
  %__b.i = alloca i32, align 4
  %atomic-temp.i = alloca i64, align 8
  %this.addr = alloca ptr, align 8
  store ptr %this, ptr %this.addr, align 8
  %this1 = load ptr, ptr %this.addr, align 8
  %rate_bytes_per_sec_ = getelementptr inbounds %"class.rocksdb::DeleteScheduler", ptr %this1, i32 0, i32 3
  store ptr %rate_bytes_per_sec_, ptr %this.addr.i, align 8
  store i32 5, ptr %__m.addr.i, align 4
  %this1.i = load ptr, ptr %this.addr.i, align 8
  %0 = load i32, ptr %__m.addr.i, align 4
  %call.i = invoke noundef i32 @_ZStanSt12memory_orderSt23__memory_order_modifier(i32 noundef %0, i32 noundef 65535)
          to label %invoke.cont.i unwind label %terminate.lpad.i

invoke.cont.i:                                    ; preds = %entry
  store i32 %call.i, ptr %__b.i, align 4
  %1 = load i32, ptr %__m.addr.i, align 4
  switch i32 %1, label %monotonic.i [
    i32 1, label %acquire.i
    i32 2, label %acquire.i
    i32 5, label %seqcst.i
  ]

monotonic.i:                                      ; preds = %invoke.cont.i
  %2 = load atomic i64, ptr %this1.i monotonic, align 8
  store i64 %2, ptr %atomic-temp.i, align 8
  br label %_ZNKSt13__atomic_baseIlE4loadESt12memory_order.exit

acquire.i:                                        ; preds = %invoke.cont.i, %invoke.cont.i
  %3 = load atomic i64, ptr %this1.i acquire, align 8
  store i64 %3, ptr %atomic-temp.i, align 8
  br label %_ZNKSt13__atomic_baseIlE4loadESt12memory_order.exit

seqcst.i:                                         ; preds = %invoke.cont.i
  %4 = load atomic i64, ptr %this1.i seq_cst, align 8
  store i64 %4, ptr %atomic-temp.i, align 8
  br label %_ZNKSt13__atomic_baseIlE4loadESt12memory_order.exit

terminate.lpad.i:                                 ; preds = %entry
  %5 = landingpad { ptr, i32 }
          catch ptr null
  %6 = extractvalue { ptr, i32 } %5, 0
  call void @__clang_call_terminate(ptr %6) #15
  unreachable

_ZNKSt13__atomic_baseIlE4loadESt12memory_order.exit: ; preds = %seqcst.i, %acquire.i, %monotonic.i
  %7 = load i64, ptr %atomic-temp.i, align 8
  ret i64 %7
}

; Function Attrs: mustprogress uwtable
define void @_ZN7rocksdb18SstFileManagerImpl27SetDeleteRateBytesPerSecondEl(ptr noundef nonnull align 8 dereferenceable(808) %this, i64 noundef %delete_rate) unnamed_addr #0 align 2 {
entry:
  %this.addr = alloca ptr, align 8
  %delete_rate.addr = alloca i64, align 8
  store ptr %this, ptr %this.addr, align 8
  store i64 %delete_rate, ptr %delete_rate.addr, align 8
  %this1 = load ptr, ptr %this.addr, align 8
  %delete_scheduler_ = getelementptr inbounds %"class.rocksdb::SstFileManagerImpl", ptr %this1, i32 0, i32 10
  %0 = load i64, ptr %delete_rate.addr, align 8
  call void @_ZN7rocksdb15DeleteScheduler21SetRateBytesPerSecondEl(ptr noundef nonnull align 8 dereferenceable(440) %delete_scheduler_, i64 noundef %0)
  ret void
}

; Function Attrs: mustprogress uwtable
define linkonce_odr void @_ZN7rocksdb15DeleteScheduler21SetRateBytesPerSecondEl(ptr noundef nonnull align 8 dereferenceable(440) %this, i64 noundef %bytes_per_sec) #0 comdat align 2 {
entry:
  %this.addr.i = alloca ptr, align 8
  %__i.addr.i = alloca i64, align 8
  %__m.addr.i = alloca i32, align 4
  %__b.i = alloca i32, align 4
  %.atomictmp.i = alloca i64, align 8
  %this.addr = alloca ptr, align 8
  %bytes_per_sec.addr = alloca i64, align 8
  store ptr %this, ptr %this.addr, align 8
  store i64 %bytes_per_sec, ptr %bytes_per_sec.addr, align 8
  %this1 = load ptr, ptr %this.addr, align 8
  %rate_bytes_per_sec_ = getelementptr inbounds %"class.rocksdb::DeleteScheduler", ptr %this1, i32 0, i32 3
  %0 = load i64, ptr %bytes_per_sec.addr, align 8
  store ptr %rate_bytes_per_sec_, ptr %this.addr.i, align 8
  store i64 %0, ptr %__i.addr.i, align 8
  store i32 5, ptr %__m.addr.i, align 4
  %this1.i = load ptr, ptr %this.addr.i, align 8
  %1 = load i32, ptr %__m.addr.i, align 4
  %call.i = call noundef i32 @_ZStanSt12memory_orderSt23__memory_order_modifier(i32 noundef %1, i32 noundef 65535)
  store i32 %call.i, ptr %__b.i, align 4
  %2 = load i32, ptr %__m.addr.i, align 4
  %3 = load i64, ptr %__i.addr.i, align 8
  store i64 %3, ptr %.atomictmp.i, align 8
  switch i32 %2, label %monotonic.i [
    i32 3, label %release.i
    i32 5, label %seqcst.i
  ]

monotonic.i:                                      ; preds = %entry
  %4 = load i64, ptr %.atomictmp.i, align 8
  store atomic i64 %4, ptr %this1.i monotonic, align 8
  br label %_ZNSt13__atomic_baseIlE5storeElSt12memory_order.exit

release.i:                                        ; preds = %entry
  %5 = load i64, ptr %.atomictmp.i, align 8
  store atomic i64 %5, ptr %this1.i release, align 8
  br label %_ZNSt13__atomic_baseIlE5storeElSt12memory_order.exit

seqcst.i:                                         ; preds = %entry
  %6 = load i64, ptr %.atomictmp.i, align 8
  store atomic i64 %6, ptr %this1.i seq_cst, align 8
  br label %_ZNSt13__atomic_baseIlE5storeElSt12memory_order.exit

_ZNSt13__atomic_baseIlE5storeElSt12memory_order.exit: ; preds = %seqcst.i, %release.i, %monotonic.i
  call void @_ZN7rocksdb15DeleteScheduler27MaybeCreateBackgroundThreadEv(ptr noundef nonnull align 8 dereferenceable(440) %this1)
  ret void
}

; Function Attrs: mustprogress uwtable
define noundef double @_ZN7rocksdb18SstFileManagerImpl18GetMaxTrashDBRatioEv(ptr noundef nonnull align 8 dereferenceable(808) %this) unnamed_addr #0 align 2 {
entry:
  %this.addr = alloca ptr, align 8
  store ptr %this, ptr %this.addr, align 8
  %this1 = load ptr, ptr %this.addr, align 8
  %delete_scheduler_ = getelementptr inbounds %"class.rocksdb::SstFileManagerImpl", ptr %this1, i32 0, i32 10
  %call = call noundef double @_ZN7rocksdb15DeleteScheduler18GetMaxTrashDBRatioEv(ptr noundef nonnull align 8 dereferenceable(440) %delete_scheduler_)
  ret double %call
}

; Function Attrs: mustprogress nounwind uwtable
define linkonce_odr noundef double @_ZN7rocksdb15DeleteScheduler18GetMaxTrashDBRatioEv(ptr noundef nonnull align 8 dereferenceable(440) %this) #1 comdat align 2 {
entry:
  %this.addr = alloca ptr, align 8
  store ptr %this, ptr %this.addr, align 8
  %this1 = load ptr, ptr %this.addr, align 8
  %max_trash_db_ratio_ = getelementptr inbounds %"class.rocksdb::DeleteScheduler", ptr %this1, i32 0, i32 17
  %call = call noundef double @_ZNKSt6atomicIdE4loadESt12memory_order(ptr noundef nonnull align 8 dereferenceable(8) %max_trash_db_ratio_, i32 noundef 5) #3
  ret double %call
}

; Function Attrs: mustprogress uwtable
define void @_ZN7rocksdb18SstFileManagerImpl18SetMaxTrashDBRatioEd(ptr noundef nonnull align 8 dereferenceable(808) %this, double noundef %r) unnamed_addr #0 align 2 {
entry:
  %this.addr = alloca ptr, align 8
  %r.addr = alloca double, align 8
  store ptr %this, ptr %this.addr, align 8
  store double %r, ptr %r.addr, align 8
  %this1 = load ptr, ptr %this.addr, align 8
  %delete_scheduler_ = getelementptr inbounds %"class.rocksdb::SstFileManagerImpl", ptr %this1, i32 0, i32 10
  %0 = load double, ptr %r.addr, align 8
  call void @_ZN7rocksdb15DeleteScheduler18SetMaxTrashDBRatioEd(ptr noundef nonnull align 8 dereferenceable(440) %delete_scheduler_, double noundef %0)
  ret void
}

; Function Attrs: mustprogress nounwind uwtable
define linkonce_odr void @_ZN7rocksdb15DeleteScheduler18SetMaxTrashDBRatioEd(ptr noundef nonnull align 8 dereferenceable(440) %this, double noundef %r) #1 comdat align 2 {
entry:
  %this.addr = alloca ptr, align 8
  %r.addr = alloca double, align 8
  store ptr %this, ptr %this.addr, align 8
  store double %r, ptr %r.addr, align 8
  %this1 = load ptr, ptr %this.addr, align 8
  %max_trash_db_ratio_ = getelementptr inbounds %"class.rocksdb::DeleteScheduler", ptr %this1, i32 0, i32 17
  %0 = load double, ptr %r.addr, align 8
  call void @_ZNSt6atomicIdE5storeEdSt12memory_order(ptr noundef nonnull align 8 dereferenceable(8) %max_trash_db_ratio_, double noundef %0, i32 noundef 5) #3
  ret void
}

; Function Attrs: mustprogress uwtable
define noundef i64 @_ZN7rocksdb18SstFileManagerImpl17GetTotalTrashSizeEv(ptr noundef nonnull align 8 dereferenceable(808) %this) unnamed_addr #0 align 2 {
entry:
  %this.addr = alloca ptr, align 8
  store ptr %this, ptr %this.addr, align 8
  %this1 = load ptr, ptr %this.addr, align 8
  %delete_scheduler_ = getelementptr inbounds %"class.rocksdb::SstFileManagerImpl", ptr %this1, i32 0, i32 10
  %call = call noundef i64 @_ZN7rocksdb15DeleteScheduler17GetTotalTrashSizeEv(ptr noundef nonnull align 8 dereferenceable(440) %delete_scheduler_)
  ret i64 %call
}

; Function Attrs: mustprogress nounwind uwtable
define linkonce_odr noundef i64 @_ZN7rocksdb15DeleteScheduler17GetTotalTrashSizeEv(ptr noundef nonnull align 8 dereferenceable(440) %this) #1 comdat align 2 {
entry:
  %this.addr.i = alloca ptr, align 8
  %__m.addr.i = alloca i32, align 4
  %__b.i = alloca i32, align 4
  %atomic-temp.i = alloca i64, align 8
  %this.addr = alloca ptr, align 8
  store ptr %this, ptr %this.addr, align 8
  %this1 = load ptr, ptr %this.addr, align 8
  %total_trash_size_ = getelementptr inbounds %"class.rocksdb::DeleteScheduler", ptr %this1, i32 0, i32 2
  store ptr %total_trash_size_, ptr %this.addr.i, align 8
  store i32 5, ptr %__m.addr.i, align 4
  %this1.i = load ptr, ptr %this.addr.i, align 8
  %0 = load i32, ptr %__m.addr.i, align 4
  %call.i = call noundef i32 @_ZStanSt12memory_orderSt23__memory_order_modifier(i32 noundef %0, i32 noundef 65535)
  store i32 %call.i, ptr %__b.i, align 4
  %1 = load i32, ptr %__m.addr.i, align 4
  switch i32 %1, label %monotonic.i [
    i32 1, label %acquire.i
    i32 2, label %acquire.i
    i32 5, label %seqcst.i
  ]

monotonic.i:                                      ; preds = %entry
  %2 = load atomic i64, ptr %this1.i monotonic, align 8
  store i64 %2, ptr %atomic-temp.i, align 8
  br label %_ZNKSt13__atomic_baseImE4loadESt12memory_order.exit

acquire.i:                                        ; preds = %entry, %entry
  %3 = load atomic i64, ptr %this1.i acquire, align 8
  store i64 %3, ptr %atomic-temp.i, align 8
  br label %_ZNKSt13__atomic_baseImE4loadESt12memory_order.exit

seqcst.i:                                         ; preds = %entry
  %4 = load atomic i64, ptr %this1.i seq_cst, align 8
  store i64 %4, ptr %atomic-temp.i, align 8
  br label %_ZNKSt13__atomic_baseImE4loadESt12memory_order.exit

_ZNKSt13__atomic_baseImE4loadESt12memory_order.exit: ; preds = %seqcst.i, %acquire.i, %monotonic.i
  %5 = load i64, ptr %atomic-temp.i, align 8
  ret i64 %5
}

; Function Attrs: mustprogress uwtable
define void @_ZN7rocksdb18SstFileManagerImpl17ReserveDiskBufferEmRKNSt7__cxx1112basic_stringIcSt11char_traitsIcESaIcEEE(ptr noundef nonnull align 8 dereferenceable(808) %this, i64 noundef %size, ptr noundef nonnull align 8 dereferenceable(32) %path) #0 align 2 personality ptr @__gxx_personality_v0 {
entry:
  %this.addr = alloca ptr, align 8
  %size.addr = alloca i64, align 8
  %path.addr = alloca ptr, align 8
  %l = alloca %"class.rocksdb::MutexLock", align 8
  %exn.slot = alloca ptr, align 8
  %ehselector.slot = alloca i32, align 4
  store ptr %this, ptr %this.addr, align 8
  store i64 %size, ptr %size.addr, align 8
  store ptr %path, ptr %path.addr, align 8
  %this1 = load ptr, ptr %this.addr, align 8
  %mu_ = getelementptr inbounds %"class.rocksdb::SstFileManagerImpl", ptr %this1, i32 0, i32 4
  call void @_ZN7rocksdb9MutexLockC2EPNS_4port5MutexE(ptr noundef nonnull align 8 dereferenceable(8) %l, ptr noundef %mu_)
  %0 = load i64, ptr %size.addr, align 8
  %reserved_disk_buffer_ = getelementptr inbounds %"class.rocksdb::SstFileManagerImpl", ptr %this1, i32 0, i32 16
  %1 = load i64, ptr %reserved_disk_buffer_, align 8
  %add = add i64 %1, %0
  store i64 %add, ptr %reserved_disk_buffer_, align 8
  %path_ = getelementptr inbounds %"class.rocksdb::SstFileManagerImpl", ptr %this1, i32 0, i32 14
  %call = call noundef zeroext i1 @_ZNKSt7__cxx1112basic_stringIcSt11char_traitsIcESaIcEE5emptyEv(ptr noundef nonnull align 8 dereferenceable(32) %path_) #3
  br i1 %call, label %if.then, label %if.end

if.then:                                          ; preds = %entry
  %2 = load ptr, ptr %path.addr, align 8
  %path_2 = getelementptr inbounds %"class.rocksdb::SstFileManagerImpl", ptr %this1, i32 0, i32 14
  %call3 = invoke noundef nonnull align 8 dereferenceable(32) ptr @_ZNSt7__cxx1112basic_stringIcSt11char_traitsIcESaIcEEaSERKS4_(ptr noundef nonnull align 8 dereferenceable(32) %path_2, ptr noundef nonnull align 8 dereferenceable(32) %2)
          to label %invoke.cont unwind label %lpad

invoke.cont:                                      ; preds = %if.then
  br label %if.end

lpad:                                             ; preds = %if.then
  %3 = landingpad { ptr, i32 }
          cleanup
  %4 = extractvalue { ptr, i32 } %3, 0
  store ptr %4, ptr %exn.slot, align 8
  %5 = extractvalue { ptr, i32 } %3, 1
  store i32 %5, ptr %ehselector.slot, align 4
  call void @_ZN7rocksdb9MutexLockD2Ev(ptr noundef nonnull align 8 dereferenceable(8) %l) #3
  br label %eh.resume

if.end:                                           ; preds = %invoke.cont, %entry
  call void @_ZN7rocksdb9MutexLockD2Ev(ptr noundef nonnull align 8 dereferenceable(8) %l) #3
  ret void

eh.resume:                                        ; preds = %lpad
  %exn = load ptr, ptr %exn.slot, align 8
  %sel = load i32, ptr %ehselector.slot, align 4
  %lpad.val = insertvalue { ptr, i32 } poison, ptr %exn, 0
  %lpad.val4 = insertvalue { ptr, i32 } %lpad.val, i32 %sel, 1
  resume { ptr, i32 } %lpad.val4
}

; Function Attrs: nounwind
declare noundef zeroext i1 @_ZNKSt7__cxx1112basic_stringIcSt11char_traitsIcESaIcEE5emptyEv(ptr noundef nonnull align 8 dereferenceable(32)) #5

declare noundef nonnull align 8 dereferenceable(32) ptr @_ZNSt7__cxx1112basic_stringIcSt11char_traitsIcESaIcEEaSERKS4_(ptr noundef nonnull align 8 dereferenceable(32), ptr noundef nonnull align 8 dereferenceable(32)) #4

; Function Attrs: mustprogress uwtable
define void @_ZN7rocksdb18SstFileManagerImpl10ClearErrorEv(ptr noundef nonnull align 8 dereferenceable(808) %this) #0 align 2 personality ptr @__gxx_personality_v0 {
entry:
  %this.addr = alloca ptr, align 8
  %l = alloca %"class.rocksdb::MutexLock", align 8
  %cleanup.dest.slot = alloca i32, align 4
  %free_space = alloca i64, align 8
  %s = alloca %"class.rocksdb::Status", align 8
  %ref.tmp = alloca %"class.rocksdb::IOStatus", align 8
  %ref.tmp3 = alloca %"struct.rocksdb::IOOptions", align 8
  %exn.slot = alloca ptr, align 8
  %ehselector.slot = alloca i32, align 4
  %ref.tmp27 = alloca %"class.rocksdb::Status", align 8
  %ref.tmp48 = alloca %"class.rocksdb::Status", align 8
  %error_handler = alloca ptr, align 8
  %ref.tmp62 = alloca %"class.rocksdb::Status", align 8
  %err = alloca %"class.rocksdb::Status", align 8
  %wait_until = alloca i64, align 8
  %ref.tmp125 = alloca %"class.rocksdb::Status", align 8
  store ptr %this, ptr %this.addr, align 8
  %this1 = load ptr, ptr %this.addr, align 8
  br label %while.body

while.body:                                       ; preds = %cleanup.cont, %entry
  %mu_ = getelementptr inbounds %"class.rocksdb::SstFileManagerImpl", ptr %this1, i32 0, i32 4
  call void @_ZN7rocksdb9MutexLockC2EPNS_4port5MutexE(ptr noundef nonnull align 8 dereferenceable(8) %l, ptr noundef %mu_)
  %error_handler_list_ = getelementptr inbounds %"class.rocksdb::SstFileManagerImpl", ptr %this1, i32 0, i32 18
  %call = call noundef zeroext i1 @_ZNKSt7__cxx114listIPN7rocksdb12ErrorHandlerESaIS3_EE5emptyEv(ptr noundef nonnull align 8 dereferenceable(24) %error_handler_list_) #3
  br i1 %call, label %if.then, label %lor.lhs.false

lor.lhs.false:                                    ; preds = %while.body
  %closing_ = getelementptr inbounds %"class.rocksdb::SstFileManagerImpl", ptr %this1, i32 0, i32 12
  %0 = load i8, ptr %closing_, align 8
  %tobool = trunc i8 %0 to i1
  br i1 %tobool, label %if.then, label %if.end

if.then:                                          ; preds = %lor.lhs.false, %while.body
  store i32 1, ptr %cleanup.dest.slot, align 4
  br label %cleanup130

if.end:                                           ; preds = %lor.lhs.false
  store i64 0, ptr %free_space, align 8
  %fs_ = getelementptr inbounds %"class.rocksdb::SstFileManagerImpl", ptr %this1, i32 0, i32 2
  %call2 = call noundef ptr @_ZNKSt19__shared_ptr_accessIN7rocksdb10FileSystemELN9__gnu_cxx12_Lock_policyE2ELb0ELb0EEptEv(ptr noundef nonnull align 1 dereferenceable(1) %fs_) #3
  %path_ = getelementptr inbounds %"class.rocksdb::SstFileManagerImpl", ptr %this1, i32 0, i32 14
  invoke void @_ZN7rocksdb9IOOptionsC2Ev(ptr noundef nonnull align 8 dereferenceable(83) %ref.tmp3)
          to label %invoke.cont unwind label %lpad

invoke.cont:                                      ; preds = %if.end
  %vtable = load ptr, ptr %call2, align 8
  %vfn = getelementptr inbounds ptr, ptr %vtable, i64 56
  %1 = load ptr, ptr %vfn, align 8
  invoke void %1(ptr sret(%"class.rocksdb::IOStatus") align 8 %ref.tmp, ptr noundef nonnull align 8 dereferenceable(32) %call2, ptr noundef nonnull align 8 dereferenceable(32) %path_, ptr noundef nonnull align 8 dereferenceable(83) %ref.tmp3, ptr noundef %free_space, ptr noundef null)
          to label %invoke.cont5 unwind label %lpad4

invoke.cont5:                                     ; preds = %invoke.cont
  call void @_ZN7rocksdb6StatusC2EOS0_(ptr noundef nonnull align 8 dereferenceable(16) %s, ptr noundef nonnull align 8 dereferenceable(16) %ref.tmp) #3
  call void @_ZN7rocksdb8IOStatusD2Ev(ptr noundef nonnull align 8 dereferenceable(16) %ref.tmp) #3
  call void @_ZN7rocksdb9IOOptionsD2Ev(ptr noundef nonnull align 8 dereferenceable(83) %ref.tmp3) #3
  %max_allowed_space_ = getelementptr inbounds %"class.rocksdb::SstFileManagerImpl", ptr %this1, i32 0, i32 9
  %2 = load i64, ptr %max_allowed_space_, align 8
  %cmp = icmp ugt i64 %2, 0
  br i1 %cmp, label %cond.true, label %cond.false

cond.true:                                        ; preds = %invoke.cont5
  %max_allowed_space_6 = getelementptr inbounds %"class.rocksdb::SstFileManagerImpl", ptr %this1, i32 0, i32 9
  %call9 = invoke noundef nonnull align 8 dereferenceable(8) ptr @_ZSt3minImERKT_S2_S2_(ptr noundef nonnull align 8 dereferenceable(8) %max_allowed_space_6, ptr noundef nonnull align 8 dereferenceable(8) %free_space)
          to label %invoke.cont8 unwind label %lpad7

invoke.cont8:                                     ; preds = %cond.true
  %3 = load i64, ptr %call9, align 8
  br label %cond.end

cond.false:                                       ; preds = %invoke.cont5
  %4 = load i64, ptr %free_space, align 8
  br label %cond.end

cond.end:                                         ; preds = %cond.false, %invoke.cont8
  %cond = phi i64 [ %3, %invoke.cont8 ], [ %4, %cond.false ]
  store i64 %cond, ptr %free_space, align 8
  %call11 = invoke noundef zeroext i1 @_ZNK7rocksdb6Status2okEv(ptr noundef nonnull align 8 dereferenceable(16) %s)
          to label %invoke.cont10 unwind label %lpad7

invoke.cont10:                                    ; preds = %cond.end
  br i1 %call11, label %if.then12, label %if.end54

if.then12:                                        ; preds = %invoke.cont10
  %bg_err_ = getelementptr inbounds %"class.rocksdb::SstFileManagerImpl", ptr %this1, i32 0, i32 15
  %call14 = invoke noundef zeroext i8 @_ZNK7rocksdb6Status8severityEv(ptr noundef nonnull align 8 dereferenceable(16) %bg_err_)
          to label %invoke.cont13 unwind label %lpad7

invoke.cont13:                                    ; preds = %if.then12
  %conv = zext i8 %call14 to i32
  %cmp15 = icmp eq i32 %conv, 2
  br i1 %cmp15, label %if.then16, label %if.else

if.then16:                                        ; preds = %invoke.cont13
  %5 = load i64, ptr %free_space, align 8
  %reserved_disk_buffer_ = getelementptr inbounds %"class.rocksdb::SstFileManagerImpl", ptr %this1, i32 0, i32 16
  %6 = load i64, ptr %reserved_disk_buffer_, align 8
  %cmp17 = icmp ult i64 %5, %6
  br i1 %cmp17, label %if.then18, label %if.end30

if.then18:                                        ; preds = %if.then16
  %logger_ = getelementptr inbounds %"class.rocksdb::SstFileManagerImpl", ptr %this1, i32 0, i32 3
  %call20 = invoke noundef ptr @_Z23RocksLogShorterFileNamePKc(ptr noundef @.str.1)
          to label %invoke.cont19 unwind label %lpad7

invoke.cont19:                                    ; preds = %if.then18
  %7 = load i64, ptr %free_space, align 8
  %reserved_disk_buffer_21 = getelementptr inbounds %"class.rocksdb::SstFileManagerImpl", ptr %this1, i32 0, i32 16
  %8 = load i64, ptr %reserved_disk_buffer_21, align 8
  invoke void (i8, ptr, ptr, ...) @_ZN7rocksdb3LogENS_12InfoLogLevelERKSt10shared_ptrINS_6LoggerEEPKcz(i8 noundef zeroext 3, ptr noundef nonnull align 8 dereferenceable(16) %logger_, ptr noundef @.str.2, ptr noundef %call20, i64 noundef %7, i64 noundef %8)
          to label %invoke.cont22 unwind label %lpad7

invoke.cont22:                                    ; preds = %invoke.cont19
  %logger_23 = getelementptr inbounds %"class.rocksdb::SstFileManagerImpl", ptr %this1, i32 0, i32 3
  %call25 = invoke noundef ptr @_Z23RocksLogShorterFileNamePKc(ptr noundef @.str.1)
          to label %invoke.cont24 unwind label %lpad7

invoke.cont24:                                    ; preds = %invoke.cont22
  invoke void (i8, ptr, ptr, ...) @_ZN7rocksdb3LogENS_12InfoLogLevelERKSt10shared_ptrINS_6LoggerEEPKcz(i8 noundef zeroext 3, ptr noundef nonnull align 8 dereferenceable(16) %logger_23, ptr noundef @.str.3, ptr noundef %call25)
          to label %invoke.cont26 unwind label %lpad7

invoke.cont26:                                    ; preds = %invoke.cont24
  invoke void @_ZN7rocksdb6Status7NoSpaceEv(ptr sret(%"class.rocksdb::Status") align 8 %ref.tmp27)
          to label %invoke.cont28 unwind label %lpad7

invoke.cont28:                                    ; preds = %invoke.cont26
  %call29 = call noundef nonnull align 8 dereferenceable(16) ptr @_ZN7rocksdb6StatusaSEOS0_(ptr noundef nonnull align 8 dereferenceable(16) %s, ptr noundef nonnull align 8 dereferenceable(16) %ref.tmp27) #3
  call void @_ZN7rocksdb6StatusD2Ev(ptr noundef nonnull align 8 dereferenceable(16) %ref.tmp27) #3
  br label %if.end30

lpad:                                             ; preds = %if.end
  %9 = landingpad { ptr, i32 }
          cleanup
  %10 = extractvalue { ptr, i32 } %9, 0
  store ptr %10, ptr %exn.slot, align 8
  %11 = extractvalue { ptr, i32 } %9, 1
  store i32 %11, ptr %ehselector.slot, align 4
  br label %ehcleanup131

lpad4:                                            ; preds = %invoke.cont
  %12 = landingpad { ptr, i32 }
          cleanup
  %13 = extractvalue { ptr, i32 } %12, 0
  store ptr %13, ptr %exn.slot, align 8
  %14 = extractvalue { ptr, i32 } %12, 1
  store i32 %14, ptr %ehselector.slot, align 4
  call void @_ZN7rocksdb9IOOptionsD2Ev(ptr noundef nonnull align 8 dereferenceable(83) %ref.tmp3) #3
  br label %ehcleanup131

lpad7:                                            ; preds = %invoke.cont124, %invoke.cont122, %if.then120, %invoke.cont113, %if.then109, %land.lhs.true98, %lor.lhs.false95, %lor.lhs.false92, %if.end89, %if.then69, %invoke.cont63, %invoke.cont61, %if.then57, %if.end54, %invoke.cont47, %invoke.cont45, %invoke.cont43, %invoke.cont40, %if.then38, %if.else, %invoke.cont26, %invoke.cont24, %invoke.cont22, %invoke.cont19, %if.then18, %if.then12, %cond.end, %cond.true
  %15 = landingpad { ptr, i32 }
          cleanup
  %16 = extractvalue { ptr, i32 } %15, 0
  store ptr %16, ptr %exn.slot, align 8
  %17 = extractvalue { ptr, i32 } %15, 1
  store i32 %17, ptr %ehselector.slot, align 4
  br label %ehcleanup

if.end30:                                         ; preds = %invoke.cont28, %if.then16
  br label %if.end53

if.else:                                          ; preds = %invoke.cont13
  %bg_err_31 = getelementptr inbounds %"class.rocksdb::SstFileManagerImpl", ptr %this1, i32 0, i32 15
  %call33 = invoke noundef zeroext i8 @_ZNK7rocksdb6Status8severityEv(ptr noundef nonnull align 8 dereferenceable(16) %bg_err_31)
          to label %invoke.cont32 unwind label %lpad7

invoke.cont32:                                    ; preds = %if.else
  %conv34 = zext i8 %call33 to i32
  %cmp35 = icmp eq i32 %conv34, 1
  br i1 %cmp35, label %if.then36, label %if.end52

if.then36:                                        ; preds = %invoke.cont32
  %18 = load i64, ptr %free_space, align 8
  %free_space_trigger_ = getelementptr inbounds %"class.rocksdb::SstFileManagerImpl", ptr %this1, i32 0, i32 17
  %19 = load i64, ptr %free_space_trigger_, align 8
  %cmp37 = icmp ult i64 %18, %19
  br i1 %cmp37, label %if.then38, label %if.end51

if.then38:                                        ; preds = %if.then36
  %logger_39 = getelementptr inbounds %"class.rocksdb::SstFileManagerImpl", ptr %this1, i32 0, i32 3
  %call41 = invoke noundef ptr @_Z23RocksLogShorterFileNamePKc(ptr noundef @.str.1)
          to label %invoke.cont40 unwind label %lpad7

invoke.cont40:                                    ; preds = %if.then38
  %20 = load i64, ptr %free_space, align 8
  %free_space_trigger_42 = getelementptr inbounds %"class.rocksdb::SstFileManagerImpl", ptr %this1, i32 0, i32 17
  %21 = load i64, ptr %free_space_trigger_42, align 8
  invoke void (i8, ptr, ptr, ...) @_ZN7rocksdb3LogENS_12InfoLogLevelERKSt10shared_ptrINS_6LoggerEEPKcz(i8 noundef zeroext 2, ptr noundef nonnull align 8 dereferenceable(16) %logger_39, ptr noundef @.str.4, ptr noundef %call41, i64 noundef %20, i64 noundef %21)
          to label %invoke.cont43 unwind label %lpad7

invoke.cont43:                                    ; preds = %invoke.cont40
  %logger_44 = getelementptr inbounds %"class.rocksdb::SstFileManagerImpl", ptr %this1, i32 0, i32 3
  %call46 = invoke noundef ptr @_Z23RocksLogShorterFileNamePKc(ptr noundef @.str.1)
          to label %invoke.cont45 unwind label %lpad7

invoke.cont45:                                    ; preds = %invoke.cont43
  invoke void (i8, ptr, ptr, ...) @_ZN7rocksdb3LogENS_12InfoLogLevelERKSt10shared_ptrINS_6LoggerEEPKcz(i8 noundef zeroext 2, ptr noundef nonnull align 8 dereferenceable(16) %logger_44, ptr noundef @.str.5, ptr noundef %call46)
          to label %invoke.cont47 unwind label %lpad7

invoke.cont47:                                    ; preds = %invoke.cont45
  invoke void @_ZN7rocksdb6Status7NoSpaceEv(ptr sret(%"class.rocksdb::Status") align 8 %ref.tmp48)
          to label %invoke.cont49 unwind label %lpad7

invoke.cont49:                                    ; preds = %invoke.cont47
  %call50 = call noundef nonnull align 8 dereferenceable(16) ptr @_ZN7rocksdb6StatusaSEOS0_(ptr noundef nonnull align 8 dereferenceable(16) %s, ptr noundef nonnull align 8 dereferenceable(16) %ref.tmp48) #3
  call void @_ZN7rocksdb6StatusD2Ev(ptr noundef nonnull align 8 dereferenceable(16) %ref.tmp48) #3
  br label %if.end51

if.end51:                                         ; preds = %invoke.cont49, %if.then36
  br label %if.end52

if.end52:                                         ; preds = %if.end51, %invoke.cont32
  br label %if.end53

if.end53:                                         ; preds = %if.end52, %if.end30
  br label %if.end54

if.end54:                                         ; preds = %if.end53, %invoke.cont10
  %call56 = invoke noundef zeroext i1 @_ZNK7rocksdb6Status2okEv(ptr noundef nonnull align 8 dereferenceable(16) %s)
          to label %invoke.cont55 unwind label %lpad7

invoke.cont55:                                    ; preds = %if.end54
  br i1 %call56, label %if.then57, label %if.end106

if.then57:                                        ; preds = %invoke.cont55
  %error_handler_list_58 = getelementptr inbounds %"class.rocksdb::SstFileManagerImpl", ptr %this1, i32 0, i32 18
  %call59 = call noundef nonnull align 8 dereferenceable(8) ptr @_ZNSt7__cxx114listIPN7rocksdb12ErrorHandlerESaIS3_EE5frontEv(ptr noundef nonnull align 8 dereferenceable(24) %error_handler_list_58) #3
  %22 = load ptr, ptr %call59, align 8
  store ptr %22, ptr %error_handler, align 8
  %23 = load ptr, ptr %error_handler, align 8
  %cur_instance_ = getelementptr inbounds %"class.rocksdb::SstFileManagerImpl", ptr %this1, i32 0, i32 19
  store ptr %23, ptr %cur_instance_, align 8
  %mu_60 = getelementptr inbounds %"class.rocksdb::SstFileManagerImpl", ptr %this1, i32 0, i32 4
  invoke void @_ZN7rocksdb4port5Mutex6UnlockEv(ptr noundef nonnull align 8 dereferenceable(40) %mu_60)
          to label %invoke.cont61 unwind label %lpad7

invoke.cont61:                                    ; preds = %if.then57
  %24 = load ptr, ptr %error_handler, align 8
  invoke void @_ZN7rocksdb12ErrorHandler18RecoverFromBGErrorEb(ptr sret(%"class.rocksdb::Status") align 8 %ref.tmp62, ptr noundef nonnull align 8 dereferenceable(288) %24, i1 noundef zeroext false)
          to label %invoke.cont63 unwind label %lpad7

invoke.cont63:                                    ; preds = %invoke.cont61
  %call64 = call noundef nonnull align 8 dereferenceable(16) ptr @_ZN7rocksdb6StatusaSEOS0_(ptr noundef nonnull align 8 dereferenceable(16) %s, ptr noundef nonnull align 8 dereferenceable(16) %ref.tmp62) #3
  call void @_ZN7rocksdb6StatusD2Ev(ptr noundef nonnull align 8 dereferenceable(16) %ref.tmp62) #3
  %mu_65 = getelementptr inbounds %"class.rocksdb::SstFileManagerImpl", ptr %this1, i32 0, i32 4
  invoke void @_ZN7rocksdb4port5Mutex4LockEv(ptr noundef nonnull align 8 dereferenceable(40) %mu_65)
          to label %invoke.cont66 unwind label %lpad7

invoke.cont66:                                    ; preds = %invoke.cont63
  %cur_instance_67 = getelementptr inbounds %"class.rocksdb::SstFileManagerImpl", ptr %this1, i32 0, i32 19
  %25 = load ptr, ptr %cur_instance_67, align 8
  %tobool68 = icmp ne ptr %25, null
  br i1 %tobool68, label %if.then69, label %if.end89

if.then69:                                        ; preds = %invoke.cont66
  %cur_instance_70 = getelementptr inbounds %"class.rocksdb::SstFileManagerImpl", ptr %this1, i32 0, i32 19
  %26 = load ptr, ptr %cur_instance_70, align 8
  invoke void @_ZNK7rocksdb12ErrorHandler10GetBGErrorEv(ptr sret(%"class.rocksdb::Status") align 8 %err, ptr noundef nonnull align 8 dereferenceable(288) %26)
          to label %invoke.cont71 unwind label %lpad7

invoke.cont71:                                    ; preds = %if.then69
  %call74 = invoke noundef zeroext i1 @_ZNK7rocksdb6Status2okEv(ptr noundef nonnull align 8 dereferenceable(16) %s)
          to label %invoke.cont73 unwind label %lpad72

invoke.cont73:                                    ; preds = %invoke.cont71
  br i1 %call74, label %land.lhs.true, label %if.end87

land.lhs.true:                                    ; preds = %invoke.cont73
  %call76 = invoke noundef zeroext i8 @_ZNK7rocksdb6Status7subcodeEv(ptr noundef nonnull align 8 dereferenceable(16) %err)
          to label %invoke.cont75 unwind label %lpad72

invoke.cont75:                                    ; preds = %land.lhs.true
  %conv77 = zext i8 %call76 to i32
  %cmp78 = icmp eq i32 %conv77, 4
  br i1 %cmp78, label %land.lhs.true79, label %if.end87

land.lhs.true79:                                  ; preds = %invoke.cont75
  %call81 = invoke noundef zeroext i8 @_ZNK7rocksdb6Status8severityEv(ptr noundef nonnull align 8 dereferenceable(16) %err)
          to label %invoke.cont80 unwind label %lpad72

invoke.cont80:                                    ; preds = %land.lhs.true79
  %conv82 = zext i8 %call81 to i32
  %cmp83 = icmp slt i32 %conv82, 3
  br i1 %cmp83, label %if.then84, label %if.end87

if.then84:                                        ; preds = %invoke.cont80
  %call86 = invoke noundef nonnull align 8 dereferenceable(16) ptr @_ZN7rocksdb6StatusaSERKS0_(ptr noundef nonnull align 8 dereferenceable(16) %s, ptr noundef nonnull align 8 dereferenceable(16) %err)
          to label %invoke.cont85 unwind label %lpad72

invoke.cont85:                                    ; preds = %if.then84
  br label %if.end87

lpad72:                                           ; preds = %if.then84, %land.lhs.true79, %land.lhs.true, %invoke.cont71
  %27 = landingpad { ptr, i32 }
          cleanup
  %28 = extractvalue { ptr, i32 } %27, 0
  store ptr %28, ptr %exn.slot, align 8
  %29 = extractvalue { ptr, i32 } %27, 1
  store i32 %29, ptr %ehselector.slot, align 4
  call void @_ZN7rocksdb6StatusD2Ev(ptr noundef nonnull align 8 dereferenceable(16) %err) #3
  br label %ehcleanup

if.end87:                                         ; preds = %invoke.cont85, %invoke.cont80, %invoke.cont75, %invoke.cont73
  %cur_instance_88 = getelementptr inbounds %"class.rocksdb::SstFileManagerImpl", ptr %this1, i32 0, i32 19
  store ptr null, ptr %cur_instance_88, align 8
  call void @_ZN7rocksdb6StatusD2Ev(ptr noundef nonnull align 8 dereferenceable(16) %err) #3
  br label %if.end89

if.end89:                                         ; preds = %if.end87, %invoke.cont66
  %call91 = invoke noundef zeroext i1 @_ZNK7rocksdb6Status2okEv(ptr noundef nonnull align 8 dereferenceable(16) %s)
          to label %invoke.cont90 unwind label %lpad7

invoke.cont90:                                    ; preds = %if.end89
  br i1 %call91, label %if.then103, label %lor.lhs.false92

lor.lhs.false92:                                  ; preds = %invoke.cont90
  %call94 = invoke noundef zeroext i1 @_ZNK7rocksdb6Status20IsShutdownInProgressEv(ptr noundef nonnull align 8 dereferenceable(16) %s)
          to label %invoke.cont93 unwind label %lpad7

invoke.cont93:                                    ; preds = %lor.lhs.false92
  br i1 %call94, label %if.then103, label %lor.lhs.false95

lor.lhs.false95:                                  ; preds = %invoke.cont93
  %call97 = invoke noundef zeroext i1 @_ZNK7rocksdb6Status2okEv(ptr noundef nonnull align 8 dereferenceable(16) %s)
          to label %invoke.cont96 unwind label %lpad7

invoke.cont96:                                    ; preds = %lor.lhs.false95
  br i1 %call97, label %if.end105, label %land.lhs.true98

land.lhs.true98:                                  ; preds = %invoke.cont96
  %call100 = invoke noundef zeroext i8 @_ZNK7rocksdb6Status8severityEv(ptr noundef nonnull align 8 dereferenceable(16) %s)
          to label %invoke.cont99 unwind label %lpad7

invoke.cont99:                                    ; preds = %land.lhs.true98
  %conv101 = zext i8 %call100 to i32
  %cmp102 = icmp sge i32 %conv101, 3
  br i1 %cmp102, label %if.then103, label %if.end105

if.then103:                                       ; preds = %invoke.cont99, %invoke.cont93, %invoke.cont90
  %error_handler_list_104 = getelementptr inbounds %"class.rocksdb::SstFileManagerImpl", ptr %this1, i32 0, i32 18
  call void @_ZNSt7__cxx114listIPN7rocksdb12ErrorHandlerESaIS3_EE9pop_frontEv(ptr noundef nonnull align 8 dereferenceable(24) %error_handler_list_104) #3
  br label %if.end105

if.end105:                                        ; preds = %if.then103, %invoke.cont99, %invoke.cont96
  br label %if.end106

if.end106:                                        ; preds = %if.end105, %invoke.cont55
  %error_handler_list_107 = getelementptr inbounds %"class.rocksdb::SstFileManagerImpl", ptr %this1, i32 0, i32 18
  %call108 = call noundef zeroext i1 @_ZNKSt7__cxx114listIPN7rocksdb12ErrorHandlerESaIS3_EE5emptyEv(ptr noundef nonnull align 8 dereferenceable(24) %error_handler_list_107) #3
  br i1 %call108, label %if.end117, label %if.then109

if.then109:                                       ; preds = %if.end106
  %clock_ = getelementptr inbounds %"class.rocksdb::SstFileManagerImpl", ptr %this1, i32 0, i32 1
  %call110 = call noundef ptr @_ZNKSt19__shared_ptr_accessIN7rocksdb11SystemClockELN9__gnu_cxx12_Lock_policyE2ELb0ELb0EEptEv(ptr noundef nonnull align 1 dereferenceable(1) %clock_) #3
  %vtable111 = load ptr, ptr %call110, align 8
  %vfn112 = getelementptr inbounds ptr, ptr %vtable111, i64 19
  %30 = load ptr, ptr %vfn112, align 8
  %call114 = invoke noundef i64 %30(ptr noundef nonnull align 8 dereferenceable(32) %call110)
          to label %invoke.cont113 unwind label %lpad7

invoke.cont113:                                   ; preds = %if.then109
  %add = add i64 %call114, 5000000
  store i64 %add, ptr %wait_until, align 8
  %cv_ = getelementptr inbounds %"class.rocksdb::SstFileManagerImpl", ptr %this1, i32 0, i32 11
  %31 = load i64, ptr %wait_until, align 8
  %call116 = invoke noundef zeroext i1 @_ZN7rocksdb4port7CondVar9TimedWaitEm(ptr noundef nonnull align 8 dereferenceable(56) %cv_, i64 noundef %31)
          to label %invoke.cont115 unwind label %lpad7

invoke.cont115:                                   ; preds = %invoke.cont113
  br label %if.end117

if.end117:                                        ; preds = %invoke.cont115, %if.end106
  %error_handler_list_118 = getelementptr inbounds %"class.rocksdb::SstFileManagerImpl", ptr %this1, i32 0, i32 18
  %call119 = call noundef zeroext i1 @_ZNKSt7__cxx114listIPN7rocksdb12ErrorHandlerESaIS3_EE5emptyEv(ptr noundef nonnull align 8 dereferenceable(24) %error_handler_list_118) #3
  br i1 %call119, label %if.then120, label %if.end129

if.then120:                                       ; preds = %if.end117
  %logger_121 = getelementptr inbounds %"class.rocksdb::SstFileManagerImpl", ptr %this1, i32 0, i32 3
  %call123 = invoke noundef ptr @_Z23RocksLogShorterFileNamePKc(ptr noundef @.str.1)
          to label %invoke.cont122 unwind label %lpad7

invoke.cont122:                                   ; preds = %if.then120
  invoke void (i8, ptr, ptr, ...) @_ZN7rocksdb3LogENS_12InfoLogLevelERKSt10shared_ptrINS_6LoggerEEPKcz(i8 noundef zeroext 1, ptr noundef nonnull align 8 dereferenceable(16) %logger_121, ptr noundef @.str.6, ptr noundef %call123)
          to label %invoke.cont124 unwind label %lpad7

invoke.cont124:                                   ; preds = %invoke.cont122
  invoke void @_ZN7rocksdb6Status2OKEv(ptr sret(%"class.rocksdb::Status") align 8 %ref.tmp125)
          to label %invoke.cont126 unwind label %lpad7

invoke.cont126:                                   ; preds = %invoke.cont124
  %bg_err_127 = getelementptr inbounds %"class.rocksdb::SstFileManagerImpl", ptr %this1, i32 0, i32 15
  %call128 = call noundef nonnull align 8 dereferenceable(16) ptr @_ZN7rocksdb6StatusaSEOS0_(ptr noundef nonnull align 8 dereferenceable(16) %bg_err_127, ptr noundef nonnull align 8 dereferenceable(16) %ref.tmp125) #3
  call void @_ZN7rocksdb6StatusD2Ev(ptr noundef nonnull align 8 dereferenceable(16) %ref.tmp125) #3
  store i32 1, ptr %cleanup.dest.slot, align 4
  br label %cleanup

if.end129:                                        ; preds = %if.end117
  store i32 0, ptr %cleanup.dest.slot, align 4
  br label %cleanup

cleanup:                                          ; preds = %if.end129, %invoke.cont126
  call void @_ZN7rocksdb6StatusD2Ev(ptr noundef nonnull align 8 dereferenceable(16) %s) #3
  br label %cleanup130

cleanup130:                                       ; preds = %cleanup, %if.then
  call void @_ZN7rocksdb9MutexLockD2Ev(ptr noundef nonnull align 8 dereferenceable(8) %l) #3
  %cleanup.dest = load i32, ptr %cleanup.dest.slot, align 4
  switch i32 %cleanup.dest, label %unreachable [
    i32 0, label %cleanup.cont
    i32 1, label %return
  ]

cleanup.cont:                                     ; preds = %cleanup130
  br label %while.body, !llvm.loop !9

ehcleanup:                                        ; preds = %lpad72, %lpad7
  call void @_ZN7rocksdb6StatusD2Ev(ptr noundef nonnull align 8 dereferenceable(16) %s) #3
  br label %ehcleanup131

ehcleanup131:                                     ; preds = %ehcleanup, %lpad4, %lpad
  call void @_ZN7rocksdb9MutexLockD2Ev(ptr noundef nonnull align 8 dereferenceable(8) %l) #3
  br label %eh.resume

return:                                           ; preds = %cleanup130
  ret void

eh.resume:                                        ; preds = %ehcleanup131
  %exn = load ptr, ptr %exn.slot, align 8
  %sel = load i32, ptr %ehselector.slot, align 4
  %lpad.val = insertvalue { ptr, i32 } poison, ptr %exn, 0
  %lpad.val132 = insertvalue { ptr, i32 } %lpad.val, i32 %sel, 1
  resume { ptr, i32 } %lpad.val132

unreachable:                                      ; preds = %cleanup130
  unreachable
}

; Function Attrs: mustprogress nounwind uwtable
define linkonce_odr noundef zeroext i1 @_ZNKSt7__cxx114listIPN7rocksdb12ErrorHandlerESaIS3_EE5emptyEv(ptr noundef nonnull align 8 dereferenceable(24) %this) #1 comdat align 2 {
entry:
  %this.addr = alloca ptr, align 8
  store ptr %this, ptr %this.addr, align 8
  %this1 = load ptr, ptr %this.addr, align 8
  %_M_impl = getelementptr inbounds %"class.std::__cxx11::_List_base", ptr %this1, i32 0, i32 0
  %_M_node = getelementptr inbounds %"struct.std::__cxx11::_List_base<rocksdb::ErrorHandler *, std::allocator<rocksdb::ErrorHandler *>>::_List_impl", ptr %_M_impl, i32 0, i32 0
  %_M_next = getelementptr inbounds %"struct.std::__detail::_List_node_base", ptr %_M_node, i32 0, i32 0
  %0 = load ptr, ptr %_M_next, align 8
  %_M_impl2 = getelementptr inbounds %"class.std::__cxx11::_List_base", ptr %this1, i32 0, i32 0
  %_M_node3 = getelementptr inbounds %"struct.std::__cxx11::_List_base<rocksdb::ErrorHandler *, std::allocator<rocksdb::ErrorHandler *>>::_List_impl", ptr %_M_impl2, i32 0, i32 0
  %cmp = icmp eq ptr %0, %_M_node3
  ret i1 %cmp
}

; Function Attrs: mustprogress nounwind uwtable
define linkonce_odr noundef nonnull align 8 dereferenceable(8) ptr @_ZSt3minImERKT_S2_S2_(ptr noundef nonnull align 8 dereferenceable(8) %__a, ptr noundef nonnull align 8 dereferenceable(8) %__b) #1 comdat {
entry:
  %retval = alloca ptr, align 8
  %__a.addr = alloca ptr, align 8
  %__b.addr = alloca ptr, align 8
  store ptr %__a, ptr %__a.addr, align 8
  store ptr %__b, ptr %__b.addr, align 8
  %0 = load ptr, ptr %__b.addr, align 8
  %1 = load i64, ptr %0, align 8
  %2 = load ptr, ptr %__a.addr, align 8
  %3 = load i64, ptr %2, align 8
  %cmp = icmp ult i64 %1, %3
  br i1 %cmp, label %if.then, label %if.end

if.then:                                          ; preds = %entry
  %4 = load ptr, ptr %__b.addr, align 8
  store ptr %4, ptr %retval, align 8
  br label %return

if.end:                                           ; preds = %entry
  %5 = load ptr, ptr %__a.addr, align 8
  store ptr %5, ptr %retval, align 8
  br label %return

return:                                           ; preds = %if.end, %if.then
  %6 = load ptr, ptr %retval, align 8
  ret ptr %6
}

; Function Attrs: mustprogress nounwind uwtable
define linkonce_odr noundef zeroext i8 @_ZNK7rocksdb6Status8severityEv(ptr noundef nonnull align 8 dereferenceable(16) %this) #1 comdat align 2 {
entry:
  %this.addr = alloca ptr, align 8
  store ptr %this, ptr %this.addr, align 8
  %this1 = load ptr, ptr %this.addr, align 8
  call void @_ZNK7rocksdb6Status11MarkCheckedEv(ptr noundef nonnull align 8 dereferenceable(16) %this1)
  %sev_ = getelementptr inbounds %"class.rocksdb::Status", ptr %this1, i32 0, i32 2
  %0 = load i8, ptr %sev_, align 2
  ret i8 %0
}

; Function Attrs: mustprogress uwtable
define linkonce_odr void @_ZN7rocksdb6Status7NoSpaceEv(ptr noalias sret(%"class.rocksdb::Status") align 8 %agg.result) #0 comdat align 2 {
entry:
  %result.ptr = alloca ptr, align 8
  store ptr %agg.result, ptr %result.ptr, align 8
  call void @_ZN7rocksdb6StatusC2ENS0_4CodeENS0_7SubCodeE(ptr noundef nonnull align 8 dereferenceable(16) %agg.result, i8 noundef zeroext 5, i8 noundef zeroext 4)
  ret void
}

; Function Attrs: mustprogress nounwind uwtable
define linkonce_odr noundef nonnull align 8 dereferenceable(16) ptr @_ZN7rocksdb6StatusaSEOS0_(ptr noundef nonnull align 8 dereferenceable(16) %this, ptr noundef nonnull align 8 dereferenceable(16) %s) #1 comdat align 2 personality ptr @__gxx_personality_v0 {
entry:
  %this.addr = alloca ptr, align 8
  %s.addr = alloca ptr, align 8
  store ptr %this, ptr %this.addr, align 8
  store ptr %s, ptr %s.addr, align 8
  %this1 = load ptr, ptr %this.addr, align 8
  %0 = load ptr, ptr %s.addr, align 8
  %cmp = icmp ne ptr %this1, %0
  br i1 %cmp, label %if.then, label %if.end

if.then:                                          ; preds = %entry
  %1 = load ptr, ptr %s.addr, align 8
  call void @_ZNK7rocksdb6Status11MarkCheckedEv(ptr noundef nonnull align 8 dereferenceable(16) %1)
  invoke void @_ZNK7rocksdb6Status9MustCheckEv(ptr noundef nonnull align 8 dereferenceable(16) %this1)
          to label %invoke.cont unwind label %terminate.lpad

invoke.cont:                                      ; preds = %if.then
  %2 = load ptr, ptr %s.addr, align 8
  %code_ = getelementptr inbounds %"class.rocksdb::Status", ptr %2, i32 0, i32 0
  %3 = load i8, ptr %code_, align 1
  %code_2 = getelementptr inbounds %"class.rocksdb::Status", ptr %this1, i32 0, i32 0
  store i8 %3, ptr %code_2, align 8
  %4 = load ptr, ptr %s.addr, align 8
  %code_3 = getelementptr inbounds %"class.rocksdb::Status", ptr %4, i32 0, i32 0
  store i8 0, ptr %code_3, align 8
  %5 = load ptr, ptr %s.addr, align 8
  %subcode_ = getelementptr inbounds %"class.rocksdb::Status", ptr %5, i32 0, i32 1
  %6 = load i8, ptr %subcode_, align 1
  %subcode_4 = getelementptr inbounds %"class.rocksdb::Status", ptr %this1, i32 0, i32 1
  store i8 %6, ptr %subcode_4, align 1
  %7 = load ptr, ptr %s.addr, align 8
  %subcode_5 = getelementptr inbounds %"class.rocksdb::Status", ptr %7, i32 0, i32 1
  store i8 0, ptr %subcode_5, align 1
  %8 = load ptr, ptr %s.addr, align 8
  %sev_ = getelementptr inbounds %"class.rocksdb::Status", ptr %8, i32 0, i32 2
  %9 = load i8, ptr %sev_, align 1
  %sev_6 = getelementptr inbounds %"class.rocksdb::Status", ptr %this1, i32 0, i32 2
  store i8 %9, ptr %sev_6, align 2
  %10 = load ptr, ptr %s.addr, align 8
  %sev_7 = getelementptr inbounds %"class.rocksdb::Status", ptr %10, i32 0, i32 2
  store i8 0, ptr %sev_7, align 2
  %11 = load ptr, ptr %s.addr, align 8
  %retryable_ = getelementptr inbounds %"class.rocksdb::Status", ptr %11, i32 0, i32 3
  %12 = load i8, ptr %retryable_, align 1
  %tobool = trunc i8 %12 to i1
  %retryable_8 = getelementptr inbounds %"class.rocksdb::Status", ptr %this1, i32 0, i32 3
  %frombool = zext i1 %tobool to i8
  store i8 %frombool, ptr %retryable_8, align 1
  %13 = load ptr, ptr %s.addr, align 8
  %retryable_9 = getelementptr inbounds %"class.rocksdb::Status", ptr %13, i32 0, i32 3
  store i8 0, ptr %retryable_9, align 1
  %14 = load ptr, ptr %s.addr, align 8
  %data_loss_ = getelementptr inbounds %"class.rocksdb::Status", ptr %14, i32 0, i32 4
  %15 = load i8, ptr %data_loss_, align 1
  %tobool10 = trunc i8 %15 to i1
  %data_loss_11 = getelementptr inbounds %"class.rocksdb::Status", ptr %this1, i32 0, i32 4
  %frombool12 = zext i1 %tobool10 to i8
  store i8 %frombool12, ptr %data_loss_11, align 4
  %16 = load ptr, ptr %s.addr, align 8
  %data_loss_13 = getelementptr inbounds %"class.rocksdb::Status", ptr %16, i32 0, i32 4
  store i8 0, ptr %data_loss_13, align 4
  %17 = load ptr, ptr %s.addr, align 8
  %scope_ = getelementptr inbounds %"class.rocksdb::Status", ptr %17, i32 0, i32 5
  %18 = load i8, ptr %scope_, align 1
  %scope_14 = getelementptr inbounds %"class.rocksdb::Status", ptr %this1, i32 0, i32 5
  store i8 %18, ptr %scope_14, align 1
  %19 = load ptr, ptr %s.addr, align 8
  %scope_15 = getelementptr inbounds %"class.rocksdb::Status", ptr %19, i32 0, i32 5
  store i8 0, ptr %scope_15, align 1
  %20 = load ptr, ptr %s.addr, align 8
  %state_ = getelementptr inbounds %"class.rocksdb::Status", ptr %20, i32 0, i32 6
  %state_16 = getelementptr inbounds %"class.rocksdb::Status", ptr %this1, i32 0, i32 6
  %call = call noundef nonnull align 8 dereferenceable(8) ptr @_ZNSt10unique_ptrIA_KcSt14default_deleteIS1_EEaSEOS4_(ptr noundef nonnull align 8 dereferenceable(8) %state_16, ptr noundef nonnull align 8 dereferenceable(8) %state_) #3
  br label %if.end

if.end:                                           ; preds = %invoke.cont, %entry
  ret ptr %this1

terminate.lpad:                                   ; preds = %if.then
  %21 = landingpad { ptr, i32 }
          catch ptr null
  %22 = extractvalue { ptr, i32 } %21, 0
  call void @__clang_call_terminate(ptr %22) #15
  unreachable
}

; Function Attrs: mustprogress nounwind uwtable
define linkonce_odr noundef nonnull align 8 dereferenceable(8) ptr @_ZNSt7__cxx114listIPN7rocksdb12ErrorHandlerESaIS3_EE5frontEv(ptr noundef nonnull align 8 dereferenceable(24) %this) #1 comdat align 2 {
entry:
  %this.addr = alloca ptr, align 8
  %ref.tmp = alloca %"struct.std::_List_iterator", align 8
  store ptr %this, ptr %this.addr, align 8
  %this1 = load ptr, ptr %this.addr, align 8
  %call = call ptr @_ZNSt7__cxx114listIPN7rocksdb12ErrorHandlerESaIS3_EE5beginEv(ptr noundef nonnull align 8 dereferenceable(24) %this1) #3
  %coerce.dive = getelementptr inbounds %"struct.std::_List_iterator", ptr %ref.tmp, i32 0, i32 0
  store ptr %call, ptr %coerce.dive, align 8
  %call2 = call noundef nonnull align 8 dereferenceable(8) ptr @_ZNKSt14_List_iteratorIPN7rocksdb12ErrorHandlerEEdeEv(ptr noundef nonnull align 8 dereferenceable(8) %ref.tmp) #3
  ret ptr %call2
}

declare void @_ZN7rocksdb4port5Mutex6UnlockEv(ptr noundef nonnull align 8 dereferenceable(40)) #4

declare void @_ZN7rocksdb12ErrorHandler18RecoverFromBGErrorEb(ptr sret(%"class.rocksdb::Status") align 8, ptr noundef nonnull align 8 dereferenceable(288), i1 noundef zeroext) #4

declare void @_ZN7rocksdb4port5Mutex4LockEv(ptr noundef nonnull align 8 dereferenceable(40)) #4

; Function Attrs: mustprogress uwtable
define linkonce_odr void @_ZNK7rocksdb12ErrorHandler10GetBGErrorEv(ptr noalias sret(%"class.rocksdb::Status") align 8 %agg.result, ptr noundef nonnull align 8 dereferenceable(288) %this) #0 comdat align 2 {
entry:
  %result.ptr = alloca ptr, align 8
  %this.addr = alloca ptr, align 8
  store ptr %agg.result, ptr %result.ptr, align 8
  store ptr %this, ptr %this.addr, align 8
  %this1 = load ptr, ptr %this.addr, align 8
  %bg_error_ = getelementptr inbounds %"class.rocksdb::ErrorHandler", ptr %this1, i32 0, i32 2
  call void @_ZN7rocksdb6StatusC2ERKS0_(ptr noundef nonnull align 8 dereferenceable(16) %agg.result, ptr noundef nonnull align 8 dereferenceable(16) %bg_error_)
  ret void
}

; Function Attrs: mustprogress nounwind uwtable
define linkonce_odr noundef zeroext i8 @_ZNK7rocksdb6Status7subcodeEv(ptr noundef nonnull align 8 dereferenceable(16) %this) #1 comdat align 2 {
entry:
  %this.addr = alloca ptr, align 8
  store ptr %this, ptr %this.addr, align 8
  %this1 = load ptr, ptr %this.addr, align 8
  call void @_ZNK7rocksdb6Status11MarkCheckedEv(ptr noundef nonnull align 8 dereferenceable(16) %this1)
  %subcode_ = getelementptr inbounds %"class.rocksdb::Status", ptr %this1, i32 0, i32 1
  %0 = load i8, ptr %subcode_, align 1
  ret i8 %0
}

; Function Attrs: mustprogress uwtable
define linkonce_odr noundef nonnull align 8 dereferenceable(16) ptr @_ZN7rocksdb6StatusaSERKS0_(ptr noundef nonnull align 8 dereferenceable(16) %this, ptr noundef nonnull align 8 dereferenceable(16) %s) #0 comdat align 2 {
entry:
  %this.addr = alloca ptr, align 8
  %s.addr = alloca ptr, align 8
  %ref.tmp = alloca %"class.std::unique_ptr.28", align 8
  store ptr %this, ptr %this.addr, align 8
  store ptr %s, ptr %s.addr, align 8
  %this1 = load ptr, ptr %this.addr, align 8
  %0 = load ptr, ptr %s.addr, align 8
  %cmp = icmp ne ptr %this1, %0
  br i1 %cmp, label %if.then, label %if.end

if.then:                                          ; preds = %entry
  %1 = load ptr, ptr %s.addr, align 8
  call void @_ZNK7rocksdb6Status11MarkCheckedEv(ptr noundef nonnull align 8 dereferenceable(16) %1)
  call void @_ZNK7rocksdb6Status9MustCheckEv(ptr noundef nonnull align 8 dereferenceable(16) %this1)
  %2 = load ptr, ptr %s.addr, align 8
  %code_ = getelementptr inbounds %"class.rocksdb::Status", ptr %2, i32 0, i32 0
  %3 = load i8, ptr %code_, align 8
  %code_2 = getelementptr inbounds %"class.rocksdb::Status", ptr %this1, i32 0, i32 0
  store i8 %3, ptr %code_2, align 8
  %4 = load ptr, ptr %s.addr, align 8
  %subcode_ = getelementptr inbounds %"class.rocksdb::Status", ptr %4, i32 0, i32 1
  %5 = load i8, ptr %subcode_, align 1
  %subcode_3 = getelementptr inbounds %"class.rocksdb::Status", ptr %this1, i32 0, i32 1
  store i8 %5, ptr %subcode_3, align 1
  %6 = load ptr, ptr %s.addr, align 8
  %sev_ = getelementptr inbounds %"class.rocksdb::Status", ptr %6, i32 0, i32 2
  %7 = load i8, ptr %sev_, align 2
  %sev_4 = getelementptr inbounds %"class.rocksdb::Status", ptr %this1, i32 0, i32 2
  store i8 %7, ptr %sev_4, align 2
  %8 = load ptr, ptr %s.addr, align 8
  %retryable_ = getelementptr inbounds %"class.rocksdb::Status", ptr %8, i32 0, i32 3
  %9 = load i8, ptr %retryable_, align 1
  %tobool = trunc i8 %9 to i1
  %retryable_5 = getelementptr inbounds %"class.rocksdb::Status", ptr %this1, i32 0, i32 3
  %frombool = zext i1 %tobool to i8
  store i8 %frombool, ptr %retryable_5, align 1
  %10 = load ptr, ptr %s.addr, align 8
  %data_loss_ = getelementptr inbounds %"class.rocksdb::Status", ptr %10, i32 0, i32 4
  %11 = load i8, ptr %data_loss_, align 4
  %tobool6 = trunc i8 %11 to i1
  %data_loss_7 = getelementptr inbounds %"class.rocksdb::Status", ptr %this1, i32 0, i32 4
  %frombool8 = zext i1 %tobool6 to i8
  store i8 %frombool8, ptr %data_loss_7, align 4
  %12 = load ptr, ptr %s.addr, align 8
  %scope_ = getelementptr inbounds %"class.rocksdb::Status", ptr %12, i32 0, i32 5
  %13 = load i8, ptr %scope_, align 1
  %scope_9 = getelementptr inbounds %"class.rocksdb::Status", ptr %this1, i32 0, i32 5
  store i8 %13, ptr %scope_9, align 1
  %14 = load ptr, ptr %s.addr, align 8
  %state_ = getelementptr inbounds %"class.rocksdb::Status", ptr %14, i32 0, i32 6
  %call = call noundef zeroext i1 @_ZSteqIA_KcSt14default_deleteIS1_EEbRKSt10unique_ptrIT_T0_EDn(ptr noundef nonnull align 8 dereferenceable(8) %state_, ptr null) #3
  br i1 %call, label %cond.true, label %cond.false

cond.true:                                        ; preds = %if.then
  call void @_ZNSt10unique_ptrIA_KcSt14default_deleteIS1_EEC2IS3_vEEDn(ptr noundef nonnull align 8 dereferenceable(8) %ref.tmp, ptr null) #3
  br label %cond.end

cond.false:                                       ; preds = %if.then
  %15 = load ptr, ptr %s.addr, align 8
  %state_10 = getelementptr inbounds %"class.rocksdb::Status", ptr %15, i32 0, i32 6
  %call11 = call noundef ptr @_ZNKSt10unique_ptrIA_KcSt14default_deleteIS1_EE3getEv(ptr noundef nonnull align 8 dereferenceable(8) %state_10) #3
  call void @_ZN7rocksdb6Status9CopyStateEPKc(ptr sret(%"class.std::unique_ptr.28") align 8 %ref.tmp, ptr noundef %call11)
  br label %cond.end

cond.end:                                         ; preds = %cond.false, %cond.true
  %state_12 = getelementptr inbounds %"class.rocksdb::Status", ptr %this1, i32 0, i32 6
  %call13 = call noundef nonnull align 8 dereferenceable(8) ptr @_ZNSt10unique_ptrIA_KcSt14default_deleteIS1_EEaSEOS4_(ptr noundef nonnull align 8 dereferenceable(8) %state_12, ptr noundef nonnull align 8 dereferenceable(8) %ref.tmp) #3
  call void @_ZNSt10unique_ptrIA_KcSt14default_deleteIS1_EED2Ev(ptr noundef nonnull align 8 dereferenceable(8) %ref.tmp) #3
  br label %if.end

if.end:                                           ; preds = %cond.end, %entry
  ret ptr %this1
}

; Function Attrs: mustprogress nounwind uwtable
define linkonce_odr noundef zeroext i1 @_ZNK7rocksdb6Status20IsShutdownInProgressEv(ptr noundef nonnull align 8 dereferenceable(16) %this) #1 comdat align 2 {
entry:
  %this.addr = alloca ptr, align 8
  store ptr %this, ptr %this.addr, align 8
  %this1 = load ptr, ptr %this.addr, align 8
  call void @_ZNK7rocksdb6Status11MarkCheckedEv(ptr noundef nonnull align 8 dereferenceable(16) %this1)
  %call = call noundef zeroext i8 @_ZNK7rocksdb6Status4codeEv(ptr noundef nonnull align 8 dereferenceable(16) %this1)
  %conv = zext i8 %call to i32
  %cmp = icmp eq i32 %conv, 8
  ret i1 %cmp
}

; Function Attrs: mustprogress nounwind uwtable
define linkonce_odr void @_ZNSt7__cxx114listIPN7rocksdb12ErrorHandlerESaIS3_EE9pop_frontEv(ptr noundef nonnull align 8 dereferenceable(24) %this) #1 comdat align 2 {
entry:
  %this.addr = alloca ptr, align 8
  %agg.tmp = alloca %"struct.std::_List_iterator", align 8
  store ptr %this, ptr %this.addr, align 8
  %this1 = load ptr, ptr %this.addr, align 8
  %call = call ptr @_ZNSt7__cxx114listIPN7rocksdb12ErrorHandlerESaIS3_EE5beginEv(ptr noundef nonnull align 8 dereferenceable(24) %this1) #3
  %coerce.dive = getelementptr inbounds %"struct.std::_List_iterator", ptr %agg.tmp, i32 0, i32 0
  store ptr %call, ptr %coerce.dive, align 8
  %coerce.dive2 = getelementptr inbounds %"struct.std::_List_iterator", ptr %agg.tmp, i32 0, i32 0
  %0 = load ptr, ptr %coerce.dive2, align 8
  call void @_ZNSt7__cxx114listIPN7rocksdb12ErrorHandlerESaIS3_EE8_M_eraseESt14_List_iteratorIS3_E(ptr noundef nonnull align 8 dereferenceable(24) %this1, ptr %0) #3
  ret void
}

; Function Attrs: mustprogress nounwind uwtable
define linkonce_odr noundef ptr @_ZNKSt19__shared_ptr_accessIN7rocksdb11SystemClockELN9__gnu_cxx12_Lock_policyE2ELb0ELb0EEptEv(ptr noundef nonnull align 1 dereferenceable(1) %this) #1 comdat align 2 {
entry:
  %this.addr = alloca ptr, align 8
  store ptr %this, ptr %this.addr, align 8
  %this1 = load ptr, ptr %this.addr, align 8
  %call = call noundef ptr @_ZNKSt19__shared_ptr_accessIN7rocksdb11SystemClockELN9__gnu_cxx12_Lock_policyE2ELb0ELb0EE6_M_getEv(ptr noundef nonnull align 1 dereferenceable(1) %this1) #3
  ret ptr %call
}

declare noundef zeroext i1 @_ZN7rocksdb4port7CondVar9TimedWaitEm(ptr noundef nonnull align 8 dereferenceable(56), i64 noundef) #4

; Function Attrs: mustprogress uwtable
define void @_ZN7rocksdb18SstFileManagerImpl18StartErrorRecoveryEPNS_12ErrorHandlerENS_6StatusE(ptr noundef nonnull align 8 dereferenceable(808) %this, ptr noundef %handler, ptr noundef %bg_error) #0 align 2 personality ptr @__gxx_personality_v0 {
entry:
  %this.addr = alloca ptr, align 8
  %handler.addr = alloca ptr, align 8
  %bg_error.indirect_addr = alloca ptr, align 8
  %l = alloca %"class.rocksdb::MutexLock", align 8
  %exn.slot = alloca ptr, align 8
  %ehselector.slot = alloca i32, align 4
  %ref.tmp = alloca { i64, i64 }, align 8
  %ref.tmp34 = alloca ptr, align 8
  %iter = alloca %"struct.std::_List_iterator", align 8
  %ref.tmp42 = alloca %"struct.std::_List_iterator", align 8
  %cleanup.dest.slot = alloca i32, align 4
  store ptr %this, ptr %this.addr, align 8
  store ptr %handler, ptr %handler.addr, align 8
  store ptr %bg_error, ptr %bg_error.indirect_addr, align 8
  %this1 = load ptr, ptr %this.addr, align 8
  %mu_ = getelementptr inbounds %"class.rocksdb::SstFileManagerImpl", ptr %this1, i32 0, i32 4
  call void @_ZN7rocksdb9MutexLockC2EPNS_4port5MutexE(ptr noundef nonnull align 8 dereferenceable(8) %l, ptr noundef %mu_)
  %call = invoke noundef zeroext i8 @_ZNK7rocksdb6Status8severityEv(ptr noundef nonnull align 8 dereferenceable(16) %bg_error)
          to label %invoke.cont unwind label %lpad

invoke.cont:                                      ; preds = %entry
  %conv = zext i8 %call to i32
  %cmp = icmp eq i32 %conv, 1
  br i1 %cmp, label %if.then, label %if.else

if.then:                                          ; preds = %invoke.cont
  %bg_err_ = getelementptr inbounds %"class.rocksdb::SstFileManagerImpl", ptr %this1, i32 0, i32 15
  %call3 = invoke noundef zeroext i1 @_ZNK7rocksdb6Status2okEv(ptr noundef nonnull align 8 dereferenceable(16) %bg_err_)
          to label %invoke.cont2 unwind label %lpad

invoke.cont2:                                     ; preds = %if.then
  br i1 %call3, label %if.then4, label %if.end

if.then4:                                         ; preds = %invoke.cont2
  %bg_err_5 = getelementptr inbounds %"class.rocksdb::SstFileManagerImpl", ptr %this1, i32 0, i32 15
  %call7 = invoke noundef nonnull align 8 dereferenceable(16) ptr @_ZN7rocksdb6StatusaSERKS0_(ptr noundef nonnull align 8 dereferenceable(16) %bg_err_5, ptr noundef nonnull align 8 dereferenceable(16) %bg_error)
          to label %invoke.cont6 unwind label %lpad

invoke.cont6:                                     ; preds = %if.then4
  br label %if.end

lpad:                                             ; preds = %for.end, %invoke.cont36, %if.end30, %if.then26, %invoke.cont22, %if.then20, %if.then12, %if.else, %if.then4, %if.then, %entry
  %0 = landingpad { ptr, i32 }
          cleanup
  %1 = extractvalue { ptr, i32 } %0, 0
  store ptr %1, ptr %exn.slot, align 8
  %2 = extractvalue { ptr, i32 } %0, 1
  store i32 %2, ptr %ehselector.slot, align 4
  br label %ehcleanup

if.end:                                           ; preds = %invoke.cont6, %invoke.cont2
  br label %if.end18

if.else:                                          ; preds = %invoke.cont
  %call9 = invoke noundef zeroext i8 @_ZNK7rocksdb6Status8severityEv(ptr noundef nonnull align 8 dereferenceable(16) %bg_error)
          to label %invoke.cont8 unwind label %lpad

invoke.cont8:                                     ; preds = %if.else
  %conv10 = zext i8 %call9 to i32
  %cmp11 = icmp eq i32 %conv10, 2
  br i1 %cmp11, label %if.then12, label %if.else16

if.then12:                                        ; preds = %invoke.cont8
  %bg_err_13 = getelementptr inbounds %"class.rocksdb::SstFileManagerImpl", ptr %this1, i32 0, i32 15
  %call15 = invoke noundef nonnull align 8 dereferenceable(16) ptr @_ZN7rocksdb6StatusaSERKS0_(ptr noundef nonnull align 8 dereferenceable(16) %bg_err_13, ptr noundef nonnull align 8 dereferenceable(16) %bg_error)
          to label %invoke.cont14 unwind label %lpad

invoke.cont14:                                    ; preds = %if.then12
  br label %if.end17

if.else16:                                        ; preds = %invoke.cont8
  br label %if.end17

if.end17:                                         ; preds = %if.else16, %invoke.cont14
  br label %if.end18

if.end18:                                         ; preds = %if.end17, %if.end
  %error_handler_list_ = getelementptr inbounds %"class.rocksdb::SstFileManagerImpl", ptr %this1, i32 0, i32 18
  %call19 = call noundef zeroext i1 @_ZNKSt7__cxx114listIPN7rocksdb12ErrorHandlerESaIS3_EE5emptyEv(ptr noundef nonnull align 8 dereferenceable(24) %error_handler_list_) #3
  br i1 %call19, label %if.then20, label %if.else39

if.then20:                                        ; preds = %if.end18
  %error_handler_list_21 = getelementptr inbounds %"class.rocksdb::SstFileManagerImpl", ptr %this1, i32 0, i32 18
  invoke void @_ZNSt7__cxx114listIPN7rocksdb12ErrorHandlerESaIS3_EE9push_backERKS3_(ptr noundef nonnull align 8 dereferenceable(24) %error_handler_list_21, ptr noundef nonnull align 8 dereferenceable(8) %handler.addr)
          to label %invoke.cont22 unwind label %lpad

invoke.cont22:                                    ; preds = %if.then20
  %mu_23 = getelementptr inbounds %"class.rocksdb::SstFileManagerImpl", ptr %this1, i32 0, i32 4
  invoke void @_ZN7rocksdb4port5Mutex6UnlockEv(ptr noundef nonnull align 8 dereferenceable(40) %mu_23)
          to label %invoke.cont24 unwind label %lpad

invoke.cont24:                                    ; preds = %invoke.cont22
  %bg_thread_ = getelementptr inbounds %"class.rocksdb::SstFileManagerImpl", ptr %this1, i32 0, i32 13
  %call25 = call noundef zeroext i1 @_ZNKSt10unique_ptrISt6threadSt14default_deleteIS0_EEcvbEv(ptr noundef nonnull align 8 dereferenceable(8) %bg_thread_) #3
  br i1 %call25, label %if.then26, label %if.end30

if.then26:                                        ; preds = %invoke.cont24
  %bg_thread_27 = getelementptr inbounds %"class.rocksdb::SstFileManagerImpl", ptr %this1, i32 0, i32 13
  %call28 = call noundef ptr @_ZNKSt10unique_ptrISt6threadSt14default_deleteIS0_EEptEv(ptr noundef nonnull align 8 dereferenceable(8) %bg_thread_27) #3
  invoke void @_ZNSt6thread4joinEv(ptr noundef nonnull align 8 dereferenceable(8) %call28)
          to label %invoke.cont29 unwind label %lpad

invoke.cont29:                                    ; preds = %if.then26
  br label %if.end30

if.end30:                                         ; preds = %invoke.cont29, %invoke.cont24
  %bg_thread_31 = getelementptr inbounds %"class.rocksdb::SstFileManagerImpl", ptr %this1, i32 0, i32 13
  %call33 = invoke noalias noundef nonnull ptr @_Znwm(i64 noundef 8) #17
          to label %invoke.cont32 unwind label %lpad

invoke.cont32:                                    ; preds = %if.end30
  store { i64, i64 } { i64 ptrtoint (ptr @_ZN7rocksdb18SstFileManagerImpl10ClearErrorEv to i64), i64 0 }, ptr %ref.tmp, align 8
  store ptr %this1, ptr %ref.tmp34, align 8
  invoke void @_ZNSt6threadC2IMN7rocksdb18SstFileManagerImplEFvvEJPS2_EvEEOT_DpOT0_(ptr noundef nonnull align 8 dereferenceable(8) %call33, ptr noundef nonnull align 8 dereferenceable(16) %ref.tmp, ptr noundef nonnull align 8 dereferenceable(8) %ref.tmp34)
          to label %invoke.cont36 unwind label %lpad35

invoke.cont36:                                    ; preds = %invoke.cont32
  call void @_ZNSt10unique_ptrISt6threadSt14default_deleteIS0_EE5resetEPS0_(ptr noundef nonnull align 8 dereferenceable(8) %bg_thread_31, ptr noundef %call33) #3
  %mu_37 = getelementptr inbounds %"class.rocksdb::SstFileManagerImpl", ptr %this1, i32 0, i32 4
  invoke void @_ZN7rocksdb4port5Mutex4LockEv(ptr noundef nonnull align 8 dereferenceable(40) %mu_37)
          to label %invoke.cont38 unwind label %lpad

invoke.cont38:                                    ; preds = %invoke.cont36
  br label %if.end54

lpad35:                                           ; preds = %invoke.cont32
  %3 = landingpad { ptr, i32 }
          cleanup
  %4 = extractvalue { ptr, i32 } %3, 0
  store ptr %4, ptr %exn.slot, align 8
  %5 = extractvalue { ptr, i32 } %3, 1
  store i32 %5, ptr %ehselector.slot, align 4
  call void @_ZdlPv(ptr noundef %call33) #16
  br label %ehcleanup

if.else39:                                        ; preds = %if.end18
  %error_handler_list_40 = getelementptr inbounds %"class.rocksdb::SstFileManagerImpl", ptr %this1, i32 0, i32 18
  %call41 = call ptr @_ZNSt7__cxx114listIPN7rocksdb12ErrorHandlerESaIS3_EE5beginEv(ptr noundef nonnull align 8 dereferenceable(24) %error_handler_list_40) #3
  %coerce.dive = getelementptr inbounds %"struct.std::_List_iterator", ptr %iter, i32 0, i32 0
  store ptr %call41, ptr %coerce.dive, align 8
  br label %for.cond

for.cond:                                         ; preds = %for.inc, %if.else39
  %error_handler_list_43 = getelementptr inbounds %"class.rocksdb::SstFileManagerImpl", ptr %this1, i32 0, i32 18
  %call44 = call ptr @_ZNSt7__cxx114listIPN7rocksdb12ErrorHandlerESaIS3_EE3endEv(ptr noundef nonnull align 8 dereferenceable(24) %error_handler_list_43) #3
  %coerce.dive45 = getelementptr inbounds %"struct.std::_List_iterator", ptr %ref.tmp42, i32 0, i32 0
  store ptr %call44, ptr %coerce.dive45, align 8
  %call46 = call noundef zeroext i1 @_ZStneRKSt14_List_iteratorIPN7rocksdb12ErrorHandlerEES5_(ptr noundef nonnull align 8 dereferenceable(8) %iter, ptr noundef nonnull align 8 dereferenceable(8) %ref.tmp42) #3
  br i1 %call46, label %for.body, label %for.end

for.body:                                         ; preds = %for.cond
  %call47 = call noundef nonnull align 8 dereferenceable(8) ptr @_ZNKSt14_List_iteratorIPN7rocksdb12ErrorHandlerEEdeEv(ptr noundef nonnull align 8 dereferenceable(8) %iter) #3
  %6 = load ptr, ptr %call47, align 8
  %7 = load ptr, ptr %handler.addr, align 8
  %cmp48 = icmp eq ptr %6, %7
  br i1 %cmp48, label %if.then49, label %if.end50

if.then49:                                        ; preds = %for.body
  store i32 1, ptr %cleanup.dest.slot, align 4
  br label %cleanup

if.end50:                                         ; preds = %for.body
  br label %for.inc

for.inc:                                          ; preds = %if.end50
  %call51 = call noundef nonnull align 8 dereferenceable(8) ptr @_ZNSt14_List_iteratorIPN7rocksdb12ErrorHandlerEEppEv(ptr noundef nonnull align 8 dereferenceable(8) %iter) #3
  br label %for.cond, !llvm.loop !10

for.end:                                          ; preds = %for.cond
  %error_handler_list_52 = getelementptr inbounds %"class.rocksdb::SstFileManagerImpl", ptr %this1, i32 0, i32 18
  invoke void @_ZNSt7__cxx114listIPN7rocksdb12ErrorHandlerESaIS3_EE9push_backERKS3_(ptr noundef nonnull align 8 dereferenceable(24) %error_handler_list_52, ptr noundef nonnull align 8 dereferenceable(8) %handler.addr)
          to label %invoke.cont53 unwind label %lpad

invoke.cont53:                                    ; preds = %for.end
  br label %if.end54

if.end54:                                         ; preds = %invoke.cont53, %invoke.cont38
  store i32 0, ptr %cleanup.dest.slot, align 4
  br label %cleanup

cleanup:                                          ; preds = %if.end54, %if.then49
  call void @_ZN7rocksdb9MutexLockD2Ev(ptr noundef nonnull align 8 dereferenceable(8) %l) #3
  %cleanup.dest = load i32, ptr %cleanup.dest.slot, align 4
  switch i32 %cleanup.dest, label %unreachable [
    i32 0, label %cleanup.cont
    i32 1, label %cleanup.cont
  ]

cleanup.cont:                                     ; preds = %cleanup, %cleanup
  ret void

ehcleanup:                                        ; preds = %lpad35, %lpad
  call void @_ZN7rocksdb9MutexLockD2Ev(ptr noundef nonnull align 8 dereferenceable(8) %l) #3
  br label %eh.resume

eh.resume:                                        ; preds = %ehcleanup
  %exn = load ptr, ptr %exn.slot, align 8
  %sel = load i32, ptr %ehselector.slot, align 4
  %lpad.val = insertvalue { ptr, i32 } poison, ptr %exn, 0
  %lpad.val55 = insertvalue { ptr, i32 } %lpad.val, i32 %sel, 1
  resume { ptr, i32 } %lpad.val55

unreachable:                                      ; preds = %cleanup
  unreachable
}

; Function Attrs: mustprogress uwtable
define linkonce_odr void @_ZNSt7__cxx114listIPN7rocksdb12ErrorHandlerESaIS3_EE9push_backERKS3_(ptr noundef nonnull align 8 dereferenceable(24) %this, ptr noundef nonnull align 8 dereferenceable(8) %__x) #0 comdat align 2 {
entry:
  %this.addr = alloca ptr, align 8
  %__x.addr = alloca ptr, align 8
  %agg.tmp = alloca %"struct.std::_List_iterator", align 8
  store ptr %this, ptr %this.addr, align 8
  store ptr %__x, ptr %__x.addr, align 8
  %this1 = load ptr, ptr %this.addr, align 8
  %call = call ptr @_ZNSt7__cxx114listIPN7rocksdb12ErrorHandlerESaIS3_EE3endEv(ptr noundef nonnull align 8 dereferenceable(24) %this1) #3
  %coerce.dive = getelementptr inbounds %"struct.std::_List_iterator", ptr %agg.tmp, i32 0, i32 0
  store ptr %call, ptr %coerce.dive, align 8
  %0 = load ptr, ptr %__x.addr, align 8
  %coerce.dive2 = getelementptr inbounds %"struct.std::_List_iterator", ptr %agg.tmp, i32 0, i32 0
  %1 = load ptr, ptr %coerce.dive2, align 8
  call void @_ZNSt7__cxx114listIPN7rocksdb12ErrorHandlerESaIS3_EE9_M_insertIJRKS3_EEEvSt14_List_iteratorIS3_EDpOT_(ptr noundef nonnull align 8 dereferenceable(24) %this1, ptr %1, ptr noundef nonnull align 8 dereferenceable(8) %0)
  ret void
}

; Function Attrs: mustprogress nounwind uwtable
define linkonce_odr void @_ZNSt10unique_ptrISt6threadSt14default_deleteIS0_EE5resetEPS0_(ptr noundef nonnull align 8 dereferenceable(8) %this, ptr noundef %__p) #1 comdat align 2 {
entry:
  %this.addr = alloca ptr, align 8
  %__p.addr = alloca ptr, align 8
  store ptr %this, ptr %this.addr, align 8
  store ptr %__p, ptr %__p.addr, align 8
  %this1 = load ptr, ptr %this.addr, align 8
  %_M_t = getelementptr inbounds %"class.std::unique_ptr", ptr %this1, i32 0, i32 0
  %0 = load ptr, ptr %__p.addr, align 8
  call void @_ZNSt15__uniq_ptr_implISt6threadSt14default_deleteIS0_EE5resetEPS0_(ptr noundef nonnull align 8 dereferenceable(8) %_M_t, ptr noundef %0) #3
  ret void
}

; Function Attrs: nobuiltin allocsize(0)
declare noundef nonnull ptr @_Znwm(i64 noundef) #8

; Function Attrs: mustprogress uwtable
define linkonce_odr void @_ZNSt6threadC2IMN7rocksdb18SstFileManagerImplEFvvEJPS2_EvEEOT_DpOT0_(ptr noundef nonnull align 8 dereferenceable(8) %this, ptr noundef nonnull align 8 dereferenceable(16) %__f, ptr noundef nonnull align 8 dereferenceable(8) %__args) unnamed_addr #0 comdat align 2 personality ptr @__gxx_personality_v0 {
entry:
  %this.addr = alloca ptr, align 8
  %__f.addr = alloca ptr, align 8
  %__args.addr = alloca ptr, align 8
  %__depend = alloca ptr, align 8
  %agg.tmp = alloca %"class.std::unique_ptr.310", align 8
  %exn.slot = alloca ptr, align 8
  %ehselector.slot = alloca i32, align 4
  store ptr %this, ptr %this.addr, align 8
  store ptr %__f, ptr %__f.addr, align 8
  store ptr %__args, ptr %__args.addr, align 8
  %this1 = load ptr, ptr %this.addr, align 8
  %_M_id = getelementptr inbounds %"class.std::thread", ptr %this1, i32 0, i32 0
  call void @_ZNSt6thread2idC2Ev(ptr noundef nonnull align 8 dereferenceable(8) %_M_id) #3
  store ptr null, ptr %__depend, align 8
  %call = call noalias noundef nonnull ptr @_Znwm(i64 noundef 32) #17
  %0 = load ptr, ptr %__f.addr, align 8
  %1 = load ptr, ptr %__args.addr, align 8
  invoke void @_ZNSt6thread11_State_implINS_8_InvokerISt5tupleIJMN7rocksdb18SstFileManagerImplEFvvEPS4_EEEEEC2IJS6_S7_EEEDpOT_(ptr noundef nonnull align 8 dereferenceable(32) %call, ptr noundef nonnull align 8 dereferenceable(16) %0, ptr noundef nonnull align 8 dereferenceable(8) %1)
          to label %invoke.cont unwind label %lpad

invoke.cont:                                      ; preds = %entry
  call void @_ZNSt10unique_ptrINSt6thread6_StateESt14default_deleteIS1_EEC2IS3_vEEPS1_(ptr noundef nonnull align 8 dereferenceable(8) %agg.tmp, ptr noundef %call) #3
  invoke void @_ZNSt6thread15_M_start_threadESt10unique_ptrINS_6_StateESt14default_deleteIS1_EEPFvvE(ptr noundef nonnull align 8 dereferenceable(8) %this1, ptr noundef %agg.tmp, ptr noundef null)
          to label %invoke.cont3 unwind label %lpad2

invoke.cont3:                                     ; preds = %invoke.cont
  call void @_ZNSt10unique_ptrINSt6thread6_StateESt14default_deleteIS1_EED2Ev(ptr noundef nonnull align 8 dereferenceable(8) %agg.tmp) #3
  ret void

lpad:                                             ; preds = %entry
  %2 = landingpad { ptr, i32 }
          cleanup
  %3 = extractvalue { ptr, i32 } %2, 0
  store ptr %3, ptr %exn.slot, align 8
  %4 = extractvalue { ptr, i32 } %2, 1
  store i32 %4, ptr %ehselector.slot, align 4
  call void @_ZdlPv(ptr noundef %call) #16
  br label %eh.resume

lpad2:                                            ; preds = %invoke.cont
  %5 = landingpad { ptr, i32 }
          cleanup
  %6 = extractvalue { ptr, i32 } %5, 0
  store ptr %6, ptr %exn.slot, align 8
  %7 = extractvalue { ptr, i32 } %5, 1
  store i32 %7, ptr %ehselector.slot, align 4
  call void @_ZNSt10unique_ptrINSt6thread6_StateESt14default_deleteIS1_EED2Ev(ptr noundef nonnull align 8 dereferenceable(8) %agg.tmp) #3
  br label %eh.resume

eh.resume:                                        ; preds = %lpad2, %lpad
  %exn = load ptr, ptr %exn.slot, align 8
  %sel = load i32, ptr %ehselector.slot, align 4
  %lpad.val = insertvalue { ptr, i32 } poison, ptr %exn, 0
  %lpad.val4 = insertvalue { ptr, i32 } %lpad.val, i32 %sel, 1
  resume { ptr, i32 } %lpad.val4
}

; Function Attrs: mustprogress nounwind uwtable
define linkonce_odr ptr @_ZNSt7__cxx114listIPN7rocksdb12ErrorHandlerESaIS3_EE5beginEv(ptr noundef nonnull align 8 dereferenceable(24) %this) #1 comdat align 2 {
entry:
  %retval = alloca %"struct.std::_List_iterator", align 8
  %this.addr = alloca ptr, align 8
  store ptr %this, ptr %this.addr, align 8
  %this1 = load ptr, ptr %this.addr, align 8
  %_M_impl = getelementptr inbounds %"class.std::__cxx11::_List_base", ptr %this1, i32 0, i32 0
  %_M_node = getelementptr inbounds %"struct.std::__cxx11::_List_base<rocksdb::ErrorHandler *, std::allocator<rocksdb::ErrorHandler *>>::_List_impl", ptr %_M_impl, i32 0, i32 0
  %_M_next = getelementptr inbounds %"struct.std::__detail::_List_node_base", ptr %_M_node, i32 0, i32 0
  %0 = load ptr, ptr %_M_next, align 8
  call void @_ZNSt14_List_iteratorIPN7rocksdb12ErrorHandlerEEC2EPNSt8__detail15_List_node_baseE(ptr noundef nonnull align 8 dereferenceable(8) %retval, ptr noundef %0) #3
  %coerce.dive = getelementptr inbounds %"struct.std::_List_iterator", ptr %retval, i32 0, i32 0
  %1 = load ptr, ptr %coerce.dive, align 8
  ret ptr %1
}

; Function Attrs: mustprogress nounwind uwtable
define linkonce_odr noundef zeroext i1 @_ZStneRKSt14_List_iteratorIPN7rocksdb12ErrorHandlerEES5_(ptr noundef nonnull align 8 dereferenceable(8) %__x, ptr noundef nonnull align 8 dereferenceable(8) %__y) #1 comdat {
entry:
  %__x.addr = alloca ptr, align 8
  %__y.addr = alloca ptr, align 8
  store ptr %__x, ptr %__x.addr, align 8
  store ptr %__y, ptr %__y.addr, align 8
  %0 = load ptr, ptr %__x.addr, align 8
  %_M_node = getelementptr inbounds %"struct.std::_List_iterator", ptr %0, i32 0, i32 0
  %1 = load ptr, ptr %_M_node, align 8
  %2 = load ptr, ptr %__y.addr, align 8
  %_M_node1 = getelementptr inbounds %"struct.std::_List_iterator", ptr %2, i32 0, i32 0
  %3 = load ptr, ptr %_M_node1, align 8
  %cmp = icmp ne ptr %1, %3
  ret i1 %cmp
}

; Function Attrs: mustprogress nounwind uwtable
define linkonce_odr ptr @_ZNSt7__cxx114listIPN7rocksdb12ErrorHandlerESaIS3_EE3endEv(ptr noundef nonnull align 8 dereferenceable(24) %this) #1 comdat align 2 {
entry:
  %retval = alloca %"struct.std::_List_iterator", align 8
  %this.addr = alloca ptr, align 8
  store ptr %this, ptr %this.addr, align 8
  %this1 = load ptr, ptr %this.addr, align 8
  %_M_impl = getelementptr inbounds %"class.std::__cxx11::_List_base", ptr %this1, i32 0, i32 0
  %_M_node = getelementptr inbounds %"struct.std::__cxx11::_List_base<rocksdb::ErrorHandler *, std::allocator<rocksdb::ErrorHandler *>>::_List_impl", ptr %_M_impl, i32 0, i32 0
  call void @_ZNSt14_List_iteratorIPN7rocksdb12ErrorHandlerEEC2EPNSt8__detail15_List_node_baseE(ptr noundef nonnull align 8 dereferenceable(8) %retval, ptr noundef %_M_node) #3
  %coerce.dive = getelementptr inbounds %"struct.std::_List_iterator", ptr %retval, i32 0, i32 0
  %0 = load ptr, ptr %coerce.dive, align 8
  ret ptr %0
}

; Function Attrs: mustprogress nounwind uwtable
define linkonce_odr noundef nonnull align 8 dereferenceable(8) ptr @_ZNKSt14_List_iteratorIPN7rocksdb12ErrorHandlerEEdeEv(ptr noundef nonnull align 8 dereferenceable(8) %this) #1 comdat align 2 {
entry:
  %this.addr = alloca ptr, align 8
  store ptr %this, ptr %this.addr, align 8
  %this1 = load ptr, ptr %this.addr, align 8
  %_M_node = getelementptr inbounds %"struct.std::_List_iterator", ptr %this1, i32 0, i32 0
  %0 = load ptr, ptr %_M_node, align 8
  %call = call noundef ptr @_ZNSt10_List_nodeIPN7rocksdb12ErrorHandlerEE9_M_valptrEv(ptr noundef nonnull align 8 dereferenceable(24) %0)
  ret ptr %call
}

; Function Attrs: mustprogress nounwind uwtable
define linkonce_odr noundef nonnull align 8 dereferenceable(8) ptr @_ZNSt14_List_iteratorIPN7rocksdb12ErrorHandlerEEppEv(ptr noundef nonnull align 8 dereferenceable(8) %this) #1 comdat align 2 {
entry:
  %this.addr = alloca ptr, align 8
  store ptr %this, ptr %this.addr, align 8
  %this1 = load ptr, ptr %this.addr, align 8
  %_M_node = getelementptr inbounds %"struct.std::_List_iterator", ptr %this1, i32 0, i32 0
  %0 = load ptr, ptr %_M_node, align 8
  %_M_next = getelementptr inbounds %"struct.std::__detail::_List_node_base", ptr %0, i32 0, i32 0
  %1 = load ptr, ptr %_M_next, align 8
  %_M_node2 = getelementptr inbounds %"struct.std::_List_iterator", ptr %this1, i32 0, i32 0
  store ptr %1, ptr %_M_node2, align 8
  ret ptr %this1
}

; Function Attrs: mustprogress uwtable
define noundef zeroext i1 @_ZN7rocksdb18SstFileManagerImpl19CancelErrorRecoveryEPNS_12ErrorHandlerE(ptr noundef nonnull align 8 dereferenceable(808) %this, ptr noundef %handler) #0 align 2 {
entry:
  %retval = alloca i1, align 1
  %this.addr = alloca ptr, align 8
  %handler.addr = alloca ptr, align 8
  %l = alloca %"class.rocksdb::MutexLock", align 8
  %cleanup.dest.slot = alloca i32, align 4
  %iter = alloca %"struct.std::_List_iterator", align 8
  %ref.tmp = alloca %"struct.std::_List_iterator", align 8
  %agg.tmp = alloca %"struct.std::_List_const_iterator", align 8
  %coerce = alloca %"struct.std::_List_iterator", align 8
  store ptr %this, ptr %this.addr, align 8
  store ptr %handler, ptr %handler.addr, align 8
  %this1 = load ptr, ptr %this.addr, align 8
  %mu_ = getelementptr inbounds %"class.rocksdb::SstFileManagerImpl", ptr %this1, i32 0, i32 4
  call void @_ZN7rocksdb9MutexLockC2EPNS_4port5MutexE(ptr noundef nonnull align 8 dereferenceable(8) %l, ptr noundef %mu_)
  %cur_instance_ = getelementptr inbounds %"class.rocksdb::SstFileManagerImpl", ptr %this1, i32 0, i32 19
  %0 = load ptr, ptr %cur_instance_, align 8
  %1 = load ptr, ptr %handler.addr, align 8
  %cmp = icmp eq ptr %0, %1
  br i1 %cmp, label %if.then, label %if.end

if.then:                                          ; preds = %entry
  %cur_instance_2 = getelementptr inbounds %"class.rocksdb::SstFileManagerImpl", ptr %this1, i32 0, i32 19
  store ptr null, ptr %cur_instance_2, align 8
  store i1 false, ptr %retval, align 1
  store i32 1, ptr %cleanup.dest.slot, align 4
  br label %cleanup

if.end:                                           ; preds = %entry
  %error_handler_list_ = getelementptr inbounds %"class.rocksdb::SstFileManagerImpl", ptr %this1, i32 0, i32 18
  %call = call ptr @_ZNSt7__cxx114listIPN7rocksdb12ErrorHandlerESaIS3_EE5beginEv(ptr noundef nonnull align 8 dereferenceable(24) %error_handler_list_) #3
  %coerce.dive = getelementptr inbounds %"struct.std::_List_iterator", ptr %iter, i32 0, i32 0
  store ptr %call, ptr %coerce.dive, align 8
  br label %for.cond

for.cond:                                         ; preds = %for.inc, %if.end
  %error_handler_list_3 = getelementptr inbounds %"class.rocksdb::SstFileManagerImpl", ptr %this1, i32 0, i32 18
  %call4 = call ptr @_ZNSt7__cxx114listIPN7rocksdb12ErrorHandlerESaIS3_EE3endEv(ptr noundef nonnull align 8 dereferenceable(24) %error_handler_list_3) #3
  %coerce.dive5 = getelementptr inbounds %"struct.std::_List_iterator", ptr %ref.tmp, i32 0, i32 0
  store ptr %call4, ptr %coerce.dive5, align 8
  %call6 = call noundef zeroext i1 @_ZStneRKSt14_List_iteratorIPN7rocksdb12ErrorHandlerEES5_(ptr noundef nonnull align 8 dereferenceable(8) %iter, ptr noundef nonnull align 8 dereferenceable(8) %ref.tmp) #3
  br i1 %call6, label %for.body, label %for.end

for.body:                                         ; preds = %for.cond
  %call7 = call noundef nonnull align 8 dereferenceable(8) ptr @_ZNKSt14_List_iteratorIPN7rocksdb12ErrorHandlerEEdeEv(ptr noundef nonnull align 8 dereferenceable(8) %iter) #3
  %2 = load ptr, ptr %call7, align 8
  %3 = load ptr, ptr %handler.addr, align 8
  %cmp8 = icmp eq ptr %2, %3
  br i1 %cmp8, label %if.then9, label %if.end14

if.then9:                                         ; preds = %for.body
  %error_handler_list_10 = getelementptr inbounds %"class.rocksdb::SstFileManagerImpl", ptr %this1, i32 0, i32 18
  call void @_ZNSt20_List_const_iteratorIPN7rocksdb12ErrorHandlerEEC2ERKSt14_List_iteratorIS2_E(ptr noundef nonnull align 8 dereferenceable(8) %agg.tmp, ptr noundef nonnull align 8 dereferenceable(8) %iter) #3
  %coerce.dive11 = getelementptr inbounds %"struct.std::_List_const_iterator", ptr %agg.tmp, i32 0, i32 0
  %4 = load ptr, ptr %coerce.dive11, align 8
  %call12 = call ptr @_ZNSt7__cxx114listIPN7rocksdb12ErrorHandlerESaIS3_EE5eraseESt20_List_const_iteratorIS3_E(ptr noundef nonnull align 8 dereferenceable(24) %error_handler_list_10, ptr %4) #3
  %coerce.dive13 = getelementptr inbounds %"struct.std::_List_iterator", ptr %coerce, i32 0, i32 0
  store ptr %call12, ptr %coerce.dive13, align 8
  store i1 true, ptr %retval, align 1
  store i32 1, ptr %cleanup.dest.slot, align 4
  br label %cleanup

if.end14:                                         ; preds = %for.body
  br label %for.inc

for.inc:                                          ; preds = %if.end14
  %call15 = call noundef nonnull align 8 dereferenceable(8) ptr @_ZNSt14_List_iteratorIPN7rocksdb12ErrorHandlerEEppEv(ptr noundef nonnull align 8 dereferenceable(8) %iter) #3
  br label %for.cond, !llvm.loop !11

for.end:                                          ; preds = %for.cond
  store i1 false, ptr %retval, align 1
  store i32 1, ptr %cleanup.dest.slot, align 4
  br label %cleanup

cleanup:                                          ; preds = %for.end, %if.then9, %if.then
  call void @_ZN7rocksdb9MutexLockD2Ev(ptr noundef nonnull align 8 dereferenceable(8) %l) #3
  %5 = load i1, ptr %retval, align 1
  ret i1 %5
}

; Function Attrs: mustprogress nounwind uwtable
define linkonce_odr ptr @_ZNSt7__cxx114listIPN7rocksdb12ErrorHandlerESaIS3_EE5eraseESt20_List_const_iteratorIS3_E(ptr noundef nonnull align 8 dereferenceable(24) %this, ptr %__position.coerce) #1 comdat align 2 {
entry:
  %retval = alloca %"struct.std::_List_iterator", align 8
  %__position = alloca %"struct.std::_List_const_iterator", align 8
  %this.addr = alloca ptr, align 8
  %agg.tmp = alloca %"struct.std::_List_iterator", align 8
  %coerce.dive = getelementptr inbounds %"struct.std::_List_const_iterator", ptr %__position, i32 0, i32 0
  store ptr %__position.coerce, ptr %coerce.dive, align 8
  store ptr %this, ptr %this.addr, align 8
  %this1 = load ptr, ptr %this.addr, align 8
  %_M_node = getelementptr inbounds %"struct.std::_List_const_iterator", ptr %__position, i32 0, i32 0
  %0 = load ptr, ptr %_M_node, align 8
  %_M_next = getelementptr inbounds %"struct.std::__detail::_List_node_base", ptr %0, i32 0, i32 0
  %1 = load ptr, ptr %_M_next, align 8
  call void @_ZNSt14_List_iteratorIPN7rocksdb12ErrorHandlerEEC2EPNSt8__detail15_List_node_baseE(ptr noundef nonnull align 8 dereferenceable(8) %retval, ptr noundef %1) #3
  %call = call ptr @_ZNKSt20_List_const_iteratorIPN7rocksdb12ErrorHandlerEE13_M_const_castEv(ptr noundef nonnull align 8 dereferenceable(8) %__position) #3
  %coerce.dive2 = getelementptr inbounds %"struct.std::_List_iterator", ptr %agg.tmp, i32 0, i32 0
  store ptr %call, ptr %coerce.dive2, align 8
  %coerce.dive3 = getelementptr inbounds %"struct.std::_List_iterator", ptr %agg.tmp, i32 0, i32 0
  %2 = load ptr, ptr %coerce.dive3, align 8
  call void @_ZNSt7__cxx114listIPN7rocksdb12ErrorHandlerESaIS3_EE8_M_eraseESt14_List_iteratorIS3_E(ptr noundef nonnull align 8 dereferenceable(24) %this1, ptr %2) #3
  %coerce.dive4 = getelementptr inbounds %"struct.std::_List_iterator", ptr %retval, i32 0, i32 0
  %3 = load ptr, ptr %coerce.dive4, align 8
  ret ptr %3
}

; Function Attrs: mustprogress nounwind uwtable
define linkonce_odr void @_ZNSt20_List_const_iteratorIPN7rocksdb12ErrorHandlerEEC2ERKSt14_List_iteratorIS2_E(ptr noundef nonnull align 8 dereferenceable(8) %this, ptr noundef nonnull align 8 dereferenceable(8) %__x) unnamed_addr #1 comdat align 2 {
entry:
  %this.addr = alloca ptr, align 8
  %__x.addr = alloca ptr, align 8
  store ptr %this, ptr %this.addr, align 8
  store ptr %__x, ptr %__x.addr, align 8
  %this1 = load ptr, ptr %this.addr, align 8
  %_M_node = getelementptr inbounds %"struct.std::_List_const_iterator", ptr %this1, i32 0, i32 0
  %0 = load ptr, ptr %__x.addr, align 8
  %_M_node2 = getelementptr inbounds %"struct.std::_List_iterator", ptr %0, i32 0, i32 0
  %1 = load ptr, ptr %_M_node2, align 8
  store ptr %1, ptr %_M_node, align 8
  ret void
}

; Function Attrs: mustprogress uwtable
define void @_ZN7rocksdb18SstFileManagerImpl20ScheduleFileDeletionERKNSt7__cxx1112basic_stringIcSt11char_traitsIcESaIcEEES8_b(ptr noalias sret(%"class.rocksdb::Status") align 8 %agg.result, ptr noundef nonnull align 8 dereferenceable(808) %this, ptr noundef nonnull align 8 dereferenceable(32) %file_path, ptr noundef nonnull align 8 dereferenceable(32) %path_to_sync, i1 noundef zeroext %force_bg) unnamed_addr #0 align 2 {
entry:
  %result.ptr = alloca ptr, align 8
  %this.addr = alloca ptr, align 8
  %file_path.addr = alloca ptr, align 8
  %path_to_sync.addr = alloca ptr, align 8
  %force_bg.addr = alloca i8, align 1
  store ptr %agg.result, ptr %result.ptr, align 8
  store ptr %this, ptr %this.addr, align 8
  store ptr %file_path, ptr %file_path.addr, align 8
  store ptr %path_to_sync, ptr %path_to_sync.addr, align 8
  %frombool = zext i1 %force_bg to i8
  store i8 %frombool, ptr %force_bg.addr, align 1
  %this1 = load ptr, ptr %this.addr, align 8
  %delete_scheduler_ = getelementptr inbounds %"class.rocksdb::SstFileManagerImpl", ptr %this1, i32 0, i32 10
  %0 = load ptr, ptr %file_path.addr, align 8
  %1 = load ptr, ptr %path_to_sync.addr, align 8
  %2 = load i8, ptr %force_bg.addr, align 1
  %tobool = trunc i8 %2 to i1
  call void @_ZN7rocksdb15DeleteScheduler10DeleteFileERKNSt7__cxx1112basic_stringIcSt11char_traitsIcESaIcEEES8_b(ptr sret(%"class.rocksdb::Status") align 8 %agg.result, ptr noundef nonnull align 8 dereferenceable(440) %delete_scheduler_, ptr noundef nonnull align 8 dereferenceable(32) %0, ptr noundef nonnull align 8 dereferenceable(32) %1, i1 noundef zeroext %tobool)
  ret void
}

declare void @_ZN7rocksdb15DeleteScheduler10DeleteFileERKNSt7__cxx1112basic_stringIcSt11char_traitsIcESaIcEEES8_b(ptr sret(%"class.rocksdb::Status") align 8, ptr noundef nonnull align 8 dereferenceable(440), ptr noundef nonnull align 8 dereferenceable(32), ptr noundef nonnull align 8 dereferenceable(32), i1 noundef zeroext) #4

; Function Attrs: mustprogress uwtable
define void @_ZN7rocksdb18SstFileManagerImpl17WaitForEmptyTrashEv(ptr noundef nonnull align 8 dereferenceable(808) %this) unnamed_addr #0 align 2 {
entry:
  %this.addr = alloca ptr, align 8
  store ptr %this, ptr %this.addr, align 8
  %this1 = load ptr, ptr %this.addr, align 8
  %delete_scheduler_ = getelementptr inbounds %"class.rocksdb::SstFileManagerImpl", ptr %this1, i32 0, i32 10
  call void @_ZN7rocksdb15DeleteScheduler17WaitForEmptyTrashEv(ptr noundef nonnull align 8 dereferenceable(440) %delete_scheduler_)
  ret void
}

declare void @_ZN7rocksdb15DeleteScheduler17WaitForEmptyTrashEv(ptr noundef nonnull align 8 dereferenceable(440)) #4

; Function Attrs: mustprogress uwtable
define linkonce_odr ptr @_ZNSt13unordered_mapINSt7__cxx1112basic_stringIcSt11char_traitsIcESaIcEEEmSt4hashIS5_ESt8equal_toIS5_ESaISt4pairIKS5_mEEE4findERSB_(ptr noundef nonnull align 8 dereferenceable(56) %this, ptr noundef nonnull align 8 dereferenceable(32) %__x) #0 comdat align 2 {
entry:
  %retval = alloca %"struct.std::__detail::_Node_iterator", align 8
  %this.addr = alloca ptr, align 8
  %__x.addr = alloca ptr, align 8
  store ptr %this, ptr %this.addr, align 8
  store ptr %__x, ptr %__x.addr, align 8
  %this1 = load ptr, ptr %this.addr, align 8
  %_M_h = getelementptr inbounds %"class.std::unordered_map", ptr %this1, i32 0, i32 0
  %0 = load ptr, ptr %__x.addr, align 8
  %call = call ptr @_ZNSt10_HashtableINSt7__cxx1112basic_stringIcSt11char_traitsIcESaIcEEESt4pairIKS5_mESaIS8_ENSt8__detail10_Select1stESt8equal_toIS5_ESt4hashIS5_ENSA_18_Mod_range_hashingENSA_20_Default_ranged_hashENSA_20_Prime_rehash_policyENSA_17_Hashtable_traitsILb1ELb0ELb1EEEE4findERS7_(ptr noundef nonnull align 8 dereferenceable(56) %_M_h, ptr noundef nonnull align 8 dereferenceable(32) %0)
  %coerce.dive = getelementptr inbounds %"struct.std::__detail::_Node_iterator", ptr %retval, i32 0, i32 0
  %coerce.dive2 = getelementptr inbounds %"struct.std::__detail::_Node_iterator_base", ptr %coerce.dive, i32 0, i32 0
  store ptr %call, ptr %coerce.dive2, align 8
  %coerce.dive3 = getelementptr inbounds %"struct.std::__detail::_Node_iterator", ptr %retval, i32 0, i32 0
  %coerce.dive4 = getelementptr inbounds %"struct.std::__detail::_Node_iterator_base", ptr %coerce.dive3, i32 0, i32 0
  %1 = load ptr, ptr %coerce.dive4, align 8
  ret ptr %1
}

; Function Attrs: mustprogress nounwind uwtable
define linkonce_odr noundef zeroext i1 @_ZNSt8__detailneERKNS_19_Node_iterator_baseISt4pairIKNSt7__cxx1112basic_stringIcSt11char_traitsIcESaIcEEEmELb1EEESC_(ptr noundef nonnull align 8 dereferenceable(8) %__x, ptr noundef nonnull align 8 dereferenceable(8) %__y) #1 comdat {
entry:
  %__x.addr = alloca ptr, align 8
  %__y.addr = alloca ptr, align 8
  store ptr %__x, ptr %__x.addr, align 8
  store ptr %__y, ptr %__y.addr, align 8
  %0 = load ptr, ptr %__x.addr, align 8
  %_M_cur = getelementptr inbounds %"struct.std::__detail::_Node_iterator_base", ptr %0, i32 0, i32 0
  %1 = load ptr, ptr %_M_cur, align 8
  %2 = load ptr, ptr %__y.addr, align 8
  %_M_cur1 = getelementptr inbounds %"struct.std::__detail::_Node_iterator_base", ptr %2, i32 0, i32 0
  %3 = load ptr, ptr %_M_cur1, align 8
  %cmp = icmp ne ptr %1, %3
  ret i1 %cmp
}

; Function Attrs: mustprogress nounwind uwtable
define linkonce_odr ptr @_ZNSt13unordered_mapINSt7__cxx1112basic_stringIcSt11char_traitsIcESaIcEEEmSt4hashIS5_ESt8equal_toIS5_ESaISt4pairIKS5_mEEE3endEv(ptr noundef nonnull align 8 dereferenceable(56) %this) #1 comdat align 2 {
entry:
  %retval = alloca %"struct.std::__detail::_Node_iterator", align 8
  %this.addr = alloca ptr, align 8
  store ptr %this, ptr %this.addr, align 8
  %this1 = load ptr, ptr %this.addr, align 8
  %_M_h = getelementptr inbounds %"class.std::unordered_map", ptr %this1, i32 0, i32 0
  %call = call ptr @_ZNSt10_HashtableINSt7__cxx1112basic_stringIcSt11char_traitsIcESaIcEEESt4pairIKS5_mESaIS8_ENSt8__detail10_Select1stESt8equal_toIS5_ESt4hashIS5_ENSA_18_Mod_range_hashingENSA_20_Default_ranged_hashENSA_20_Prime_rehash_policyENSA_17_Hashtable_traitsILb1ELb0ELb1EEEE3endEv(ptr noundef nonnull align 8 dereferenceable(56) %_M_h) #3
  %coerce.dive = getelementptr inbounds %"struct.std::__detail::_Node_iterator", ptr %retval, i32 0, i32 0
  %coerce.dive2 = getelementptr inbounds %"struct.std::__detail::_Node_iterator_base", ptr %coerce.dive, i32 0, i32 0
  store ptr %call, ptr %coerce.dive2, align 8
  %coerce.dive3 = getelementptr inbounds %"struct.std::__detail::_Node_iterator", ptr %retval, i32 0, i32 0
  %coerce.dive4 = getelementptr inbounds %"struct.std::__detail::_Node_iterator_base", ptr %coerce.dive3, i32 0, i32 0
  %0 = load ptr, ptr %coerce.dive4, align 8
  ret ptr %0
}

; Function Attrs: mustprogress nounwind uwtable
define linkonce_odr noundef ptr @_ZNKSt8__detail14_Node_iteratorISt4pairIKNSt7__cxx1112basic_stringIcSt11char_traitsIcESaIcEEEmELb0ELb1EEptEv(ptr noundef nonnull align 8 dereferenceable(8) %this) #1 comdat align 2 {
entry:
  %this.addr = alloca ptr, align 8
  store ptr %this, ptr %this.addr, align 8
  %this1 = load ptr, ptr %this.addr, align 8
  %_M_cur = getelementptr inbounds %"struct.std::__detail::_Node_iterator_base", ptr %this1, i32 0, i32 0
  %0 = load ptr, ptr %_M_cur, align 8
  %add.ptr = getelementptr inbounds i8, ptr %0, i64 8
  %call = call noundef ptr @_ZNSt8__detail21_Hash_node_value_baseISt4pairIKNSt7__cxx1112basic_stringIcSt11char_traitsIcESaIcEEEmEE9_M_valptrEv(ptr noundef nonnull align 8 dereferenceable(40) %add.ptr) #3
  ret ptr %call
}

; Function Attrs: mustprogress nounwind uwtable
define linkonce_odr noundef zeroext i1 @_ZNSt8__detaileqERKNS_19_Node_iterator_baseISt4pairIKNSt7__cxx1112basic_stringIcSt11char_traitsIcESaIcEEEmELb1EEESC_(ptr noundef nonnull align 8 dereferenceable(8) %__x, ptr noundef nonnull align 8 dereferenceable(8) %__y) #1 comdat {
entry:
  %__x.addr = alloca ptr, align 8
  %__y.addr = alloca ptr, align 8
  store ptr %__x, ptr %__x.addr, align 8
  store ptr %__y, ptr %__y.addr, align 8
  %0 = load ptr, ptr %__x.addr, align 8
  %_M_cur = getelementptr inbounds %"struct.std::__detail::_Node_iterator_base", ptr %0, i32 0, i32 0
  %1 = load ptr, ptr %_M_cur, align 8
  %2 = load ptr, ptr %__y.addr, align 8
  %_M_cur1 = getelementptr inbounds %"struct.std::__detail::_Node_iterator_base", ptr %2, i32 0, i32 0
  %3 = load ptr, ptr %_M_cur1, align 8
  %cmp = icmp eq ptr %1, %3
  ret i1 %cmp
}

; Function Attrs: mustprogress uwtable
define linkonce_odr ptr @_ZNSt13unordered_mapINSt7__cxx1112basic_stringIcSt11char_traitsIcESaIcEEEmSt4hashIS5_ESt8equal_toIS5_ESaISt4pairIKS5_mEEE5eraseENSt8__detail14_Node_iteratorISC_Lb0ELb1EEE(ptr noundef nonnull align 8 dereferenceable(56) %this, ptr %__position.coerce) #0 comdat align 2 {
entry:
  %retval = alloca %"struct.std::__detail::_Node_iterator", align 8
  %__position = alloca %"struct.std::__detail::_Node_iterator", align 8
  %this.addr = alloca ptr, align 8
  %agg.tmp = alloca %"struct.std::__detail::_Node_iterator", align 8
  %coerce.dive = getelementptr inbounds %"struct.std::__detail::_Node_iterator", ptr %__position, i32 0, i32 0
  %coerce.dive1 = getelementptr inbounds %"struct.std::__detail::_Node_iterator_base", ptr %coerce.dive, i32 0, i32 0
  store ptr %__position.coerce, ptr %coerce.dive1, align 8
  store ptr %this, ptr %this.addr, align 8
  %this2 = load ptr, ptr %this.addr, align 8
  %_M_h = getelementptr inbounds %"class.std::unordered_map", ptr %this2, i32 0, i32 0
  call void @llvm.memcpy.p0.p0.i64(ptr align 8 %agg.tmp, ptr align 8 %__position, i64 8, i1 false)
  %coerce.dive3 = getelementptr inbounds %"struct.std::__detail::_Node_iterator", ptr %agg.tmp, i32 0, i32 0
  %coerce.dive4 = getelementptr inbounds %"struct.std::__detail::_Node_iterator_base", ptr %coerce.dive3, i32 0, i32 0
  %0 = load ptr, ptr %coerce.dive4, align 8
  %call = call ptr @_ZNSt10_HashtableINSt7__cxx1112basic_stringIcSt11char_traitsIcESaIcEEESt4pairIKS5_mESaIS8_ENSt8__detail10_Select1stESt8equal_toIS5_ESt4hashIS5_ENSA_18_Mod_range_hashingENSA_20_Default_ranged_hashENSA_20_Prime_rehash_policyENSA_17_Hashtable_traitsILb1ELb0ELb1EEEE5eraseENSA_14_Node_iteratorIS8_Lb0ELb1EEE(ptr noundef nonnull align 8 dereferenceable(56) %_M_h, ptr %0)
  %coerce.dive5 = getelementptr inbounds %"struct.std::__detail::_Node_iterator", ptr %retval, i32 0, i32 0
  %coerce.dive6 = getelementptr inbounds %"struct.std::__detail::_Node_iterator_base", ptr %coerce.dive5, i32 0, i32 0
  store ptr %call, ptr %coerce.dive6, align 8
  %coerce.dive7 = getelementptr inbounds %"struct.std::__detail::_Node_iterator", ptr %retval, i32 0, i32 0
  %coerce.dive8 = getelementptr inbounds %"struct.std::__detail::_Node_iterator_base", ptr %coerce.dive7, i32 0, i32 0
  %1 = load ptr, ptr %coerce.dive8, align 8
  ret ptr %1
}

; Function Attrs: nocallback nofree nounwind willreturn memory(argmem: readwrite)
declare void @llvm.memcpy.p0.p0.i64(ptr noalias nocapture writeonly, ptr noalias nocapture readonly, i64, i1 immarg) #9

; Function Attrs: mustprogress uwtable
define noundef ptr @_ZN7rocksdb17NewSstFileManagerEPNS_3EnvESt10shared_ptrINS_6LoggerEENSt7__cxx1112basic_stringIcSt11char_traitsIcESaIcEEElbPNS_6StatusEdm(ptr noundef %env, ptr noundef %info_log, ptr noundef %trash_dir, i64 noundef %rate_bytes_per_sec, i1 noundef zeroext %delete_existing_trash, ptr noundef %status, double noundef %max_trash_db_ratio, i64 noundef %bytes_max_delete_chunk) #0 personality ptr @__gxx_personality_v0 {
entry:
  %env.addr = alloca ptr, align 8
  %info_log.indirect_addr = alloca ptr, align 8
  %trash_dir.indirect_addr = alloca ptr, align 8
  %rate_bytes_per_sec.addr = alloca i64, align 8
  %delete_existing_trash.addr = alloca i8, align 1
  %status.addr = alloca ptr, align 8
  %max_trash_db_ratio.addr = alloca double, align 8
  %bytes_max_delete_chunk.addr = alloca i64, align 8
  %fs = alloca ptr, align 8
  %agg.tmp = alloca %"class.std::shared_ptr.0", align 8
  %agg.tmp1 = alloca %"class.std::shared_ptr.3", align 8
  %exn.slot = alloca ptr, align 8
  %ehselector.slot = alloca i32, align 4
  store ptr %env, ptr %env.addr, align 8
  store ptr %info_log, ptr %info_log.indirect_addr, align 8
  store ptr %trash_dir, ptr %trash_dir.indirect_addr, align 8
  store i64 %rate_bytes_per_sec, ptr %rate_bytes_per_sec.addr, align 8
  %frombool = zext i1 %delete_existing_trash to i8
  store i8 %frombool, ptr %delete_existing_trash.addr, align 1
  store ptr %status, ptr %status.addr, align 8
  store double %max_trash_db_ratio, ptr %max_trash_db_ratio.addr, align 8
  store i64 %bytes_max_delete_chunk, ptr %bytes_max_delete_chunk.addr, align 8
  %0 = load ptr, ptr %env.addr, align 8
  %call = call noundef nonnull align 8 dereferenceable(16) ptr @_ZNK7rocksdb3Env13GetFileSystemEv(ptr noundef nonnull align 8 dereferenceable(72) %0)
  store ptr %call, ptr %fs, align 8
  %1 = load ptr, ptr %env.addr, align 8
  %2 = load ptr, ptr %fs, align 8
  call void @_ZNSt10shared_ptrIN7rocksdb10FileSystemEEC2ERKS2_(ptr noundef nonnull align 8 dereferenceable(16) %agg.tmp, ptr noundef nonnull align 8 dereferenceable(16) %2) #3
  call void @_ZNSt10shared_ptrIN7rocksdb6LoggerEEC2ERKS2_(ptr noundef nonnull align 8 dereferenceable(16) %agg.tmp1, ptr noundef nonnull align 8 dereferenceable(16) %info_log) #3
  %3 = load i64, ptr %rate_bytes_per_sec.addr, align 8
  %4 = load i8, ptr %delete_existing_trash.addr, align 1
  %tobool = trunc i8 %4 to i1
  %5 = load ptr, ptr %status.addr, align 8
  %6 = load double, ptr %max_trash_db_ratio.addr, align 8
  %7 = load i64, ptr %bytes_max_delete_chunk.addr, align 8
  %call2 = invoke noundef ptr @_ZN7rocksdb17NewSstFileManagerEPNS_3EnvESt10shared_ptrINS_10FileSystemEES2_INS_6LoggerEERKNSt7__cxx1112basic_stringIcSt11char_traitsIcESaIcEEElbPNS_6StatusEdm(ptr noundef %1, ptr noundef %agg.tmp, ptr noundef %agg.tmp1, ptr noundef nonnull align 8 dereferenceable(32) %trash_dir, i64 noundef %3, i1 noundef zeroext %tobool, ptr noundef %5, double noundef %6, i64 noundef %7)
          to label %invoke.cont unwind label %lpad

invoke.cont:                                      ; preds = %entry
  call void @_ZNSt10shared_ptrIN7rocksdb6LoggerEED2Ev(ptr noundef nonnull align 8 dereferenceable(16) %agg.tmp1) #3
  call void @_ZNSt10shared_ptrIN7rocksdb10FileSystemEED2Ev(ptr noundef nonnull align 8 dereferenceable(16) %agg.tmp) #3
  ret ptr %call2

lpad:                                             ; preds = %entry
  %8 = landingpad { ptr, i32 }
          cleanup
  %9 = extractvalue { ptr, i32 } %8, 0
  store ptr %9, ptr %exn.slot, align 8
  %10 = extractvalue { ptr, i32 } %8, 1
  store i32 %10, ptr %ehselector.slot, align 4
  call void @_ZNSt10shared_ptrIN7rocksdb6LoggerEED2Ev(ptr noundef nonnull align 8 dereferenceable(16) %agg.tmp1) #3
  call void @_ZNSt10shared_ptrIN7rocksdb10FileSystemEED2Ev(ptr noundef nonnull align 8 dereferenceable(16) %agg.tmp) #3
  br label %eh.resume

eh.resume:                                        ; preds = %lpad
  %exn = load ptr, ptr %exn.slot, align 8
  %sel = load i32, ptr %ehselector.slot, align 4
  %lpad.val = insertvalue { ptr, i32 } poison, ptr %exn, 0
  %lpad.val3 = insertvalue { ptr, i32 } %lpad.val, i32 %sel, 1
  resume { ptr, i32 } %lpad.val3
}

declare noundef nonnull align 8 dereferenceable(16) ptr @_ZNK7rocksdb3Env13GetFileSystemEv(ptr noundef nonnull align 8 dereferenceable(72)) #4

; Function Attrs: mustprogress uwtable
define noundef ptr @_ZN7rocksdb17NewSstFileManagerEPNS_3EnvESt10shared_ptrINS_10FileSystemEES2_INS_6LoggerEERKNSt7__cxx1112basic_stringIcSt11char_traitsIcESaIcEEElbPNS_6StatusEdm(ptr noundef %env, ptr noundef %fs, ptr noundef %info_log, ptr noundef nonnull align 8 dereferenceable(32) %trash_dir, i64 noundef %rate_bytes_per_sec, i1 noundef zeroext %delete_existing_trash, ptr noundef %status, double noundef %max_trash_db_ratio, i64 noundef %bytes_max_delete_chunk) #0 personality ptr @__gxx_personality_v0 {
entry:
  %env.addr = alloca ptr, align 8
  %fs.indirect_addr = alloca ptr, align 8
  %info_log.indirect_addr = alloca ptr, align 8
  %trash_dir.addr = alloca ptr, align 8
  %rate_bytes_per_sec.addr = alloca i64, align 8
  %delete_existing_trash.addr = alloca i8, align 1
  %status.addr = alloca ptr, align 8
  %max_trash_db_ratio.addr = alloca double, align 8
  %bytes_max_delete_chunk.addr = alloca i64, align 8
  %clock = alloca ptr, align 8
  %res = alloca ptr, align 8
  %exn.slot = alloca ptr, align 8
  %ehselector.slot = alloca i32, align 4
  %s = alloca %"class.rocksdb::Status", align 8
  %files_in_trash = alloca %"class.std::vector.284", align 8
  %ref.tmp = alloca %"class.rocksdb::IOStatus", align 8
  %ref.tmp6 = alloca %"struct.rocksdb::IOOptions", align 8
  %__range3 = alloca ptr, align 8
  %__begin3 = alloca %"class.__gnu_cxx::__normal_iterator", align 8
  %__end3 = alloca %"class.__gnu_cxx::__normal_iterator", align 8
  %trash_file = alloca ptr, align 8
  %path_in_trash = alloca %"class.std::__cxx11::basic_string", align 8
  %ref.tmp20 = alloca %"class.std::__cxx11::basic_string", align 8
  %agg.tmp.ensured = alloca %"class.rocksdb::Status", align 8
  %file_delete = alloca %"class.rocksdb::Status", align 8
  store ptr %env, ptr %env.addr, align 8
  store ptr %fs, ptr %fs.indirect_addr, align 8
  store ptr %info_log, ptr %info_log.indirect_addr, align 8
  store ptr %trash_dir, ptr %trash_dir.addr, align 8
  store i64 %rate_bytes_per_sec, ptr %rate_bytes_per_sec.addr, align 8
  %frombool = zext i1 %delete_existing_trash to i8
  store i8 %frombool, ptr %delete_existing_trash.addr, align 1
  store ptr %status, ptr %status.addr, align 8
  store double %max_trash_db_ratio, ptr %max_trash_db_ratio.addr, align 8
  store i64 %bytes_max_delete_chunk, ptr %bytes_max_delete_chunk.addr, align 8
  %0 = load ptr, ptr %env.addr, align 8
  %call = call noundef nonnull align 8 dereferenceable(16) ptr @_ZNK7rocksdb3Env14GetSystemClockEv(ptr noundef nonnull align 8 dereferenceable(72) %0)
  store ptr %call, ptr %clock, align 8
  %call1 = call noalias noundef nonnull ptr @_Znwm(i64 noundef 808) #17
  %1 = load ptr, ptr %clock, align 8
  %2 = load i64, ptr %rate_bytes_per_sec.addr, align 8
  %3 = load double, ptr %max_trash_db_ratio.addr, align 8
  %4 = load i64, ptr %bytes_max_delete_chunk.addr, align 8
  invoke void @_ZN7rocksdb18SstFileManagerImplC1ERKSt10shared_ptrINS_11SystemClockEERKS1_INS_10FileSystemEERKS1_INS_6LoggerEEldm(ptr noundef nonnull align 8 dereferenceable(808) %call1, ptr noundef nonnull align 8 dereferenceable(16) %1, ptr noundef nonnull align 8 dereferenceable(16) %fs, ptr noundef nonnull align 8 dereferenceable(16) %info_log, i64 noundef %2, double noundef %3, i64 noundef %4)
          to label %invoke.cont unwind label %lpad

invoke.cont:                                      ; preds = %entry
  store ptr %call1, ptr %res, align 8
  call void @_ZN7rocksdb6Status2OKEv(ptr sret(%"class.rocksdb::Status") align 8 %s)
  %5 = load i8, ptr %delete_existing_trash.addr, align 1
  %tobool = trunc i8 %5 to i1
  br i1 %tobool, label %land.lhs.true, label %if.end41

land.lhs.true:                                    ; preds = %invoke.cont
  %6 = load ptr, ptr %trash_dir.addr, align 8
  %call4 = invoke noundef zeroext i1 @_ZStneIcSt11char_traitsIcESaIcEEbRKNSt7__cxx1112basic_stringIT_T0_T1_EEPKS5_(ptr noundef nonnull align 8 dereferenceable(32) %6, ptr noundef @.str.7)
          to label %invoke.cont3 unwind label %lpad2

invoke.cont3:                                     ; preds = %land.lhs.true
  br i1 %call4, label %if.then, label %if.end41

if.then:                                          ; preds = %invoke.cont3
  call void @_ZNSt6vectorINSt7__cxx1112basic_stringIcSt11char_traitsIcESaIcEEESaIS5_EEC2Ev(ptr noundef nonnull align 8 dereferenceable(24) %files_in_trash) #3
  %call5 = call noundef ptr @_ZNKSt19__shared_ptr_accessIN7rocksdb10FileSystemELN9__gnu_cxx12_Lock_policyE2ELb0ELb0EEptEv(ptr noundef nonnull align 1 dereferenceable(1) %fs) #3
  %7 = load ptr, ptr %trash_dir.addr, align 8
  invoke void @_ZN7rocksdb9IOOptionsC2Ev(ptr noundef nonnull align 8 dereferenceable(83) %ref.tmp6)
          to label %invoke.cont8 unwind label %lpad7

invoke.cont8:                                     ; preds = %if.then
  %vtable = load ptr, ptr %call5, align 8
  %vfn = getelementptr inbounds ptr, ptr %vtable, i64 30
  %8 = load ptr, ptr %vfn, align 8
  invoke void %8(ptr sret(%"class.rocksdb::IOStatus") align 8 %ref.tmp, ptr noundef nonnull align 8 dereferenceable(32) %call5, ptr noundef nonnull align 8 dereferenceable(32) %7, ptr noundef nonnull align 8 dereferenceable(83) %ref.tmp6, ptr noundef %files_in_trash, ptr noundef null)
          to label %invoke.cont10 unwind label %lpad9

invoke.cont10:                                    ; preds = %invoke.cont8
  %call11 = call noundef nonnull align 8 dereferenceable(16) ptr @_ZN7rocksdb6StatusaSEOS0_(ptr noundef nonnull align 8 dereferenceable(16) %s, ptr noundef nonnull align 8 dereferenceable(16) %ref.tmp) #3
  call void @_ZN7rocksdb8IOStatusD2Ev(ptr noundef nonnull align 8 dereferenceable(16) %ref.tmp) #3
  call void @_ZN7rocksdb9IOOptionsD2Ev(ptr noundef nonnull align 8 dereferenceable(83) %ref.tmp6) #3
  %call13 = invoke noundef zeroext i1 @_ZNK7rocksdb6Status2okEv(ptr noundef nonnull align 8 dereferenceable(16) %s)
          to label %invoke.cont12 unwind label %lpad7

invoke.cont12:                                    ; preds = %invoke.cont10
  br i1 %call13, label %if.then14, label %if.end39

if.then14:                                        ; preds = %invoke.cont12
  store ptr %files_in_trash, ptr %__range3, align 8
  %9 = load ptr, ptr %__range3, align 8
  %call15 = call ptr @_ZNSt6vectorINSt7__cxx1112basic_stringIcSt11char_traitsIcESaIcEEESaIS5_EE5beginEv(ptr noundef nonnull align 8 dereferenceable(24) %9) #3
  %coerce.dive = getelementptr inbounds %"class.__gnu_cxx::__normal_iterator", ptr %__begin3, i32 0, i32 0
  store ptr %call15, ptr %coerce.dive, align 8
  %10 = load ptr, ptr %__range3, align 8
  %call16 = call ptr @_ZNSt6vectorINSt7__cxx1112basic_stringIcSt11char_traitsIcESaIcEEESaIS5_EE3endEv(ptr noundef nonnull align 8 dereferenceable(24) %10) #3
  %coerce.dive17 = getelementptr inbounds %"class.__gnu_cxx::__normal_iterator", ptr %__end3, i32 0, i32 0
  store ptr %call16, ptr %coerce.dive17, align 8
  br label %for.cond

for.cond:                                         ; preds = %for.inc, %if.then14
  %call18 = call noundef zeroext i1 @_ZN9__gnu_cxxneIPNSt7__cxx1112basic_stringIcSt11char_traitsIcESaIcEEESt6vectorIS6_SaIS6_EEEEbRKNS_17__normal_iteratorIT_T0_EESG_(ptr noundef nonnull align 8 dereferenceable(8) %__begin3, ptr noundef nonnull align 8 dereferenceable(8) %__end3) #3
  br i1 %call18, label %for.body, label %for.end

for.body:                                         ; preds = %for.cond
  %call19 = call noundef nonnull align 8 dereferenceable(32) ptr @_ZNK9__gnu_cxx17__normal_iteratorIPNSt7__cxx1112basic_stringIcSt11char_traitsIcESaIcEEESt6vectorIS6_SaIS6_EEEdeEv(ptr noundef nonnull align 8 dereferenceable(8) %__begin3) #3
  store ptr %call19, ptr %trash_file, align 8
  %11 = load ptr, ptr %trash_dir.addr, align 8
  invoke void @_ZStplIcSt11char_traitsIcESaIcEENSt7__cxx1112basic_stringIT_T0_T1_EERKS8_PKS5_(ptr sret(%"class.std::__cxx11::basic_string") align 8 %ref.tmp20, ptr noundef nonnull align 8 dereferenceable(32) %11, ptr noundef @.str.8)
          to label %invoke.cont21 unwind label %lpad7

invoke.cont21:                                    ; preds = %for.body
  %12 = load ptr, ptr %trash_file, align 8
  invoke void @_ZStplIcSt11char_traitsIcESaIcEENSt7__cxx1112basic_stringIT_T0_T1_EEOS8_RKS8_(ptr sret(%"class.std::__cxx11::basic_string") align 8 %path_in_trash, ptr noundef nonnull align 8 dereferenceable(32) %ref.tmp20, ptr noundef nonnull align 8 dereferenceable(32) %12)
          to label %invoke.cont23 unwind label %lpad22

invoke.cont23:                                    ; preds = %invoke.cont21
  call void @_ZNSt7__cxx1112basic_stringIcSt11char_traitsIcESaIcEED1Ev(ptr noundef nonnull align 8 dereferenceable(32) %ref.tmp20) #3
  %13 = load ptr, ptr %res, align 8
  invoke void @_ZN7rocksdb18SstFileManagerImpl9OnAddFileERKNSt7__cxx1112basic_stringIcSt11char_traitsIcESaIcEEE(ptr sret(%"class.rocksdb::Status") align 8 %agg.tmp.ensured, ptr noundef nonnull align 8 dereferenceable(808) %13, ptr noundef nonnull align 8 dereferenceable(32) %path_in_trash)
          to label %invoke.cont25 unwind label %lpad24

invoke.cont25:                                    ; preds = %invoke.cont23
  call void @_ZN7rocksdb6StatusD2Ev(ptr noundef nonnull align 8 dereferenceable(16) %agg.tmp.ensured) #3
  %14 = load ptr, ptr %res, align 8
  %15 = load ptr, ptr %trash_dir.addr, align 8
  %vtable26 = load ptr, ptr %14, align 8
  %vfn27 = getelementptr inbounds ptr, ptr %vtable26, i64 14
  %16 = load ptr, ptr %vfn27, align 8
  invoke void %16(ptr sret(%"class.rocksdb::Status") align 8 %file_delete, ptr noundef nonnull align 8 dereferenceable(808) %14, ptr noundef nonnull align 8 dereferenceable(32) %path_in_trash, ptr noundef nonnull align 8 dereferenceable(32) %15, i1 noundef zeroext false)
          to label %invoke.cont28 unwind label %lpad24

invoke.cont28:                                    ; preds = %invoke.cont25
  %call31 = invoke noundef zeroext i1 @_ZNK7rocksdb6Status2okEv(ptr noundef nonnull align 8 dereferenceable(16) %s)
          to label %invoke.cont30 unwind label %lpad29

invoke.cont30:                                    ; preds = %invoke.cont28
  br i1 %call31, label %land.lhs.true32, label %if.end

land.lhs.true32:                                  ; preds = %invoke.cont30
  %call34 = invoke noundef zeroext i1 @_ZNK7rocksdb6Status2okEv(ptr noundef nonnull align 8 dereferenceable(16) %file_delete)
          to label %invoke.cont33 unwind label %lpad29

invoke.cont33:                                    ; preds = %land.lhs.true32
  br i1 %call34, label %if.end, label %if.then35

if.then35:                                        ; preds = %invoke.cont33
  %call37 = invoke noundef nonnull align 8 dereferenceable(16) ptr @_ZN7rocksdb6StatusaSERKS0_(ptr noundef nonnull align 8 dereferenceable(16) %s, ptr noundef nonnull align 8 dereferenceable(16) %file_delete)
          to label %invoke.cont36 unwind label %lpad29

invoke.cont36:                                    ; preds = %if.then35
  br label %if.end

lpad:                                             ; preds = %entry
  %17 = landingpad { ptr, i32 }
          cleanup
  %18 = extractvalue { ptr, i32 } %17, 0
  store ptr %18, ptr %exn.slot, align 8
  %19 = extractvalue { ptr, i32 } %17, 1
  store i32 %19, ptr %ehselector.slot, align 4
  call void @_ZdlPv(ptr noundef %call1) #16
  br label %eh.resume

lpad2:                                            ; preds = %if.else, %if.then43, %land.lhs.true
  %20 = landingpad { ptr, i32 }
          cleanup
  %21 = extractvalue { ptr, i32 } %20, 0
  store ptr %21, ptr %exn.slot, align 8
  %22 = extractvalue { ptr, i32 } %20, 1
  store i32 %22, ptr %ehselector.slot, align 4
  br label %ehcleanup48

lpad7:                                            ; preds = %for.body, %invoke.cont10, %if.then
  %23 = landingpad { ptr, i32 }
          cleanup
  %24 = extractvalue { ptr, i32 } %23, 0
  store ptr %24, ptr %exn.slot, align 8
  %25 = extractvalue { ptr, i32 } %23, 1
  store i32 %25, ptr %ehselector.slot, align 4
  br label %ehcleanup40

lpad9:                                            ; preds = %invoke.cont8
  %26 = landingpad { ptr, i32 }
          cleanup
  %27 = extractvalue { ptr, i32 } %26, 0
  store ptr %27, ptr %exn.slot, align 8
  %28 = extractvalue { ptr, i32 } %26, 1
  store i32 %28, ptr %ehselector.slot, align 4
  call void @_ZN7rocksdb9IOOptionsD2Ev(ptr noundef nonnull align 8 dereferenceable(83) %ref.tmp6) #3
  br label %ehcleanup40

lpad22:                                           ; preds = %invoke.cont21
  %29 = landingpad { ptr, i32 }
          cleanup
  %30 = extractvalue { ptr, i32 } %29, 0
  store ptr %30, ptr %exn.slot, align 8
  %31 = extractvalue { ptr, i32 } %29, 1
  store i32 %31, ptr %ehselector.slot, align 4
  call void @_ZNSt7__cxx1112basic_stringIcSt11char_traitsIcESaIcEED1Ev(ptr noundef nonnull align 8 dereferenceable(32) %ref.tmp20) #3
  br label %ehcleanup40

lpad24:                                           ; preds = %invoke.cont25, %invoke.cont23
  %32 = landingpad { ptr, i32 }
          cleanup
  %33 = extractvalue { ptr, i32 } %32, 0
  store ptr %33, ptr %exn.slot, align 8
  %34 = extractvalue { ptr, i32 } %32, 1
  store i32 %34, ptr %ehselector.slot, align 4
  br label %ehcleanup

lpad29:                                           ; preds = %if.then35, %land.lhs.true32, %invoke.cont28
  %35 = landingpad { ptr, i32 }
          cleanup
  %36 = extractvalue { ptr, i32 } %35, 0
  store ptr %36, ptr %exn.slot, align 8
  %37 = extractvalue { ptr, i32 } %35, 1
  store i32 %37, ptr %ehselector.slot, align 4
  call void @_ZN7rocksdb6StatusD2Ev(ptr noundef nonnull align 8 dereferenceable(16) %file_delete) #3
  br label %ehcleanup

if.end:                                           ; preds = %invoke.cont36, %invoke.cont33, %invoke.cont30
  call void @_ZN7rocksdb6StatusD2Ev(ptr noundef nonnull align 8 dereferenceable(16) %file_delete) #3
  call void @_ZNSt7__cxx1112basic_stringIcSt11char_traitsIcESaIcEED1Ev(ptr noundef nonnull align 8 dereferenceable(32) %path_in_trash) #3
  br label %for.inc

for.inc:                                          ; preds = %if.end
  %call38 = call noundef nonnull align 8 dereferenceable(8) ptr @_ZN9__gnu_cxx17__normal_iteratorIPNSt7__cxx1112basic_stringIcSt11char_traitsIcESaIcEEESt6vectorIS6_SaIS6_EEEppEv(ptr noundef nonnull align 8 dereferenceable(8) %__begin3) #3
  br label %for.cond

ehcleanup:                                        ; preds = %lpad29, %lpad24
  call void @_ZNSt7__cxx1112basic_stringIcSt11char_traitsIcESaIcEED1Ev(ptr noundef nonnull align 8 dereferenceable(32) %path_in_trash) #3
  br label %ehcleanup40

for.end:                                          ; preds = %for.cond
  br label %if.end39

if.end39:                                         ; preds = %for.end, %invoke.cont12
  call void @_ZNSt6vectorINSt7__cxx1112basic_stringIcSt11char_traitsIcESaIcEEESaIS5_EED2Ev(ptr noundef nonnull align 8 dereferenceable(24) %files_in_trash) #3
  br label %if.end41

ehcleanup40:                                      ; preds = %ehcleanup, %lpad22, %lpad9, %lpad7
  call void @_ZNSt6vectorINSt7__cxx1112basic_stringIcSt11char_traitsIcESaIcEEESaIS5_EED2Ev(ptr noundef nonnull align 8 dereferenceable(24) %files_in_trash) #3
  br label %ehcleanup48

if.end41:                                         ; preds = %if.end39, %invoke.cont3, %invoke.cont
  %38 = load ptr, ptr %status.addr, align 8
  %tobool42 = icmp ne ptr %38, null
  br i1 %tobool42, label %if.then43, label %if.else

if.then43:                                        ; preds = %if.end41
  %39 = load ptr, ptr %status.addr, align 8
  %call45 = invoke noundef nonnull align 8 dereferenceable(16) ptr @_ZN7rocksdb6StatusaSERKS0_(ptr noundef nonnull align 8 dereferenceable(16) %39, ptr noundef nonnull align 8 dereferenceable(16) %s)
          to label %invoke.cont44 unwind label %lpad2

invoke.cont44:                                    ; preds = %if.then43
  br label %if.end47

if.else:                                          ; preds = %if.end41
  invoke void @_ZNK7rocksdb6Status20PermitUncheckedErrorEv(ptr noundef nonnull align 8 dereferenceable(16) %s)
          to label %invoke.cont46 unwind label %lpad2

invoke.cont46:                                    ; preds = %if.else
  br label %if.end47

if.end47:                                         ; preds = %invoke.cont46, %invoke.cont44
  %40 = load ptr, ptr %res, align 8
  call void @_ZN7rocksdb6StatusD2Ev(ptr noundef nonnull align 8 dereferenceable(16) %s) #3
  ret ptr %40

ehcleanup48:                                      ; preds = %ehcleanup40, %lpad2
  call void @_ZN7rocksdb6StatusD2Ev(ptr noundef nonnull align 8 dereferenceable(16) %s) #3
  br label %eh.resume

eh.resume:                                        ; preds = %ehcleanup48, %lpad
  %exn = load ptr, ptr %exn.slot, align 8
  %sel = load i32, ptr %ehselector.slot, align 4
  %lpad.val = insertvalue { ptr, i32 } poison, ptr %exn, 0
  %lpad.val49 = insertvalue { ptr, i32 } %lpad.val, i32 %sel, 1
  resume { ptr, i32 } %lpad.val49
}

declare noundef nonnull align 8 dereferenceable(16) ptr @_ZNK7rocksdb3Env14GetSystemClockEv(ptr noundef nonnull align 8 dereferenceable(72)) #4

; Function Attrs: mustprogress uwtable
define linkonce_odr noundef zeroext i1 @_ZStneIcSt11char_traitsIcESaIcEEbRKNSt7__cxx1112basic_stringIT_T0_T1_EEPKS5_(ptr noundef nonnull align 8 dereferenceable(32) %__lhs, ptr noundef %__rhs) #0 comdat {
entry:
  %__lhs.addr = alloca ptr, align 8
  %__rhs.addr = alloca ptr, align 8
  store ptr %__lhs, ptr %__lhs.addr, align 8
  store ptr %__rhs, ptr %__rhs.addr, align 8
  %0 = load ptr, ptr %__lhs.addr, align 8
  %1 = load ptr, ptr %__rhs.addr, align 8
  %call = call noundef zeroext i1 @_ZSteqIcSt11char_traitsIcESaIcEEbRKNSt7__cxx1112basic_stringIT_T0_T1_EEPKS5_(ptr noundef nonnull align 8 dereferenceable(32) %0, ptr noundef %1)
  %lnot = xor i1 %call, true
  ret i1 %lnot
}

; Function Attrs: mustprogress nounwind uwtable
define linkonce_odr void @_ZNSt6vectorINSt7__cxx1112basic_stringIcSt11char_traitsIcESaIcEEESaIS5_EEC2Ev(ptr noundef nonnull align 8 dereferenceable(24) %this) unnamed_addr #1 comdat align 2 {
entry:
  %this.addr = alloca ptr, align 8
  store ptr %this, ptr %this.addr, align 8
  %this1 = load ptr, ptr %this.addr, align 8
  call void @_ZNSt12_Vector_baseINSt7__cxx1112basic_stringIcSt11char_traitsIcESaIcEEESaIS5_EEC2Ev(ptr noundef nonnull align 8 dereferenceable(24) %this1) #3
  ret void
}

; Function Attrs: mustprogress nounwind uwtable
define linkonce_odr ptr @_ZNSt6vectorINSt7__cxx1112basic_stringIcSt11char_traitsIcESaIcEEESaIS5_EE5beginEv(ptr noundef nonnull align 8 dereferenceable(24) %this) #1 comdat align 2 {
entry:
  %retval = alloca %"class.__gnu_cxx::__normal_iterator", align 8
  %this.addr = alloca ptr, align 8
  store ptr %this, ptr %this.addr, align 8
  %this1 = load ptr, ptr %this.addr, align 8
  %_M_impl = getelementptr inbounds %"struct.std::_Vector_base.285", ptr %this1, i32 0, i32 0
  %_M_start = getelementptr inbounds %"struct.std::_Vector_base<std::__cxx11::basic_string<char>, std::allocator<std::__cxx11::basic_string<char>>>::_Vector_impl_data", ptr %_M_impl, i32 0, i32 0
  call void @_ZN9__gnu_cxx17__normal_iteratorIPNSt7__cxx1112basic_stringIcSt11char_traitsIcESaIcEEESt6vectorIS6_SaIS6_EEEC2ERKS7_(ptr noundef nonnull align 8 dereferenceable(8) %retval, ptr noundef nonnull align 8 dereferenceable(8) %_M_start) #3
  %coerce.dive = getelementptr inbounds %"class.__gnu_cxx::__normal_iterator", ptr %retval, i32 0, i32 0
  %0 = load ptr, ptr %coerce.dive, align 8
  ret ptr %0
}

; Function Attrs: mustprogress nounwind uwtable
define linkonce_odr ptr @_ZNSt6vectorINSt7__cxx1112basic_stringIcSt11char_traitsIcESaIcEEESaIS5_EE3endEv(ptr noundef nonnull align 8 dereferenceable(24) %this) #1 comdat align 2 {
entry:
  %retval = alloca %"class.__gnu_cxx::__normal_iterator", align 8
  %this.addr = alloca ptr, align 8
  store ptr %this, ptr %this.addr, align 8
  %this1 = load ptr, ptr %this.addr, align 8
  %_M_impl = getelementptr inbounds %"struct.std::_Vector_base.285", ptr %this1, i32 0, i32 0
  %_M_finish = getelementptr inbounds %"struct.std::_Vector_base<std::__cxx11::basic_string<char>, std::allocator<std::__cxx11::basic_string<char>>>::_Vector_impl_data", ptr %_M_impl, i32 0, i32 1
  call void @_ZN9__gnu_cxx17__normal_iteratorIPNSt7__cxx1112basic_stringIcSt11char_traitsIcESaIcEEESt6vectorIS6_SaIS6_EEEC2ERKS7_(ptr noundef nonnull align 8 dereferenceable(8) %retval, ptr noundef nonnull align 8 dereferenceable(8) %_M_finish) #3
  %coerce.dive = getelementptr inbounds %"class.__gnu_cxx::__normal_iterator", ptr %retval, i32 0, i32 0
  %0 = load ptr, ptr %coerce.dive, align 8
  ret ptr %0
}

; Function Attrs: mustprogress nounwind uwtable
define linkonce_odr noundef zeroext i1 @_ZN9__gnu_cxxneIPNSt7__cxx1112basic_stringIcSt11char_traitsIcESaIcEEESt6vectorIS6_SaIS6_EEEEbRKNS_17__normal_iteratorIT_T0_EESG_(ptr noundef nonnull align 8 dereferenceable(8) %__lhs, ptr noundef nonnull align 8 dereferenceable(8) %__rhs) #1 comdat {
entry:
  %__lhs.addr = alloca ptr, align 8
  %__rhs.addr = alloca ptr, align 8
  store ptr %__lhs, ptr %__lhs.addr, align 8
  store ptr %__rhs, ptr %__rhs.addr, align 8
  %0 = load ptr, ptr %__lhs.addr, align 8
  %call = call noundef nonnull align 8 dereferenceable(8) ptr @_ZNK9__gnu_cxx17__normal_iteratorIPNSt7__cxx1112basic_stringIcSt11char_traitsIcESaIcEEESt6vectorIS6_SaIS6_EEE4baseEv(ptr noundef nonnull align 8 dereferenceable(8) %0) #3
  %1 = load ptr, ptr %call, align 8
  %2 = load ptr, ptr %__rhs.addr, align 8
  %call1 = call noundef nonnull align 8 dereferenceable(8) ptr @_ZNK9__gnu_cxx17__normal_iteratorIPNSt7__cxx1112basic_stringIcSt11char_traitsIcESaIcEEESt6vectorIS6_SaIS6_EEE4baseEv(ptr noundef nonnull align 8 dereferenceable(8) %2) #3
  %3 = load ptr, ptr %call1, align 8
  %cmp = icmp ne ptr %1, %3
  ret i1 %cmp
}

; Function Attrs: mustprogress nounwind uwtable
define linkonce_odr noundef nonnull align 8 dereferenceable(32) ptr @_ZNK9__gnu_cxx17__normal_iteratorIPNSt7__cxx1112basic_stringIcSt11char_traitsIcESaIcEEESt6vectorIS6_SaIS6_EEEdeEv(ptr noundef nonnull align 8 dereferenceable(8) %this) #1 comdat align 2 {
entry:
  %this.addr = alloca ptr, align 8
  store ptr %this, ptr %this.addr, align 8
  %this1 = load ptr, ptr %this.addr, align 8
  %_M_current = getelementptr inbounds %"class.__gnu_cxx::__normal_iterator", ptr %this1, i32 0, i32 0
  %0 = load ptr, ptr %_M_current, align 8
  ret ptr %0
}

; Function Attrs: mustprogress uwtable
define linkonce_odr void @_ZStplIcSt11char_traitsIcESaIcEENSt7__cxx1112basic_stringIT_T0_T1_EEOS8_RKS8_(ptr noalias sret(%"class.std::__cxx11::basic_string") align 8 %agg.result, ptr noundef nonnull align 8 dereferenceable(32) %__lhs, ptr noundef nonnull align 8 dereferenceable(32) %__rhs) #0 comdat {
entry:
  %result.ptr = alloca ptr, align 8
  %__lhs.addr = alloca ptr, align 8
  %__rhs.addr = alloca ptr, align 8
  store ptr %agg.result, ptr %result.ptr, align 8
  store ptr %__lhs, ptr %__lhs.addr, align 8
  store ptr %__rhs, ptr %__rhs.addr, align 8
  %0 = load ptr, ptr %__lhs.addr, align 8
  %1 = load ptr, ptr %__rhs.addr, align 8
  %call = call noundef nonnull align 8 dereferenceable(32) ptr @_ZNSt7__cxx1112basic_stringIcSt11char_traitsIcESaIcEE6appendERKS4_(ptr noundef nonnull align 8 dereferenceable(32) %0, ptr noundef nonnull align 8 dereferenceable(32) %1)
  call void @_ZNSt7__cxx1112basic_stringIcSt11char_traitsIcESaIcEEC1EOS4_(ptr noundef nonnull align 8 dereferenceable(32) %agg.result, ptr noundef nonnull align 8 dereferenceable(32) %call) #3
  ret void
}

; Function Attrs: mustprogress uwtable
define linkonce_odr void @_ZStplIcSt11char_traitsIcESaIcEENSt7__cxx1112basic_stringIT_T0_T1_EERKS8_PKS5_(ptr noalias sret(%"class.std::__cxx11::basic_string") align 8 %agg.result, ptr noundef nonnull align 8 dereferenceable(32) %__lhs, ptr noundef %__rhs) #0 comdat personality ptr @__gxx_personality_v0 {
entry:
  %result.ptr = alloca ptr, align 8
  %__lhs.addr = alloca ptr, align 8
  %__rhs.addr = alloca ptr, align 8
  %nrvo = alloca i1, align 1
  %exn.slot = alloca ptr, align 8
  %ehselector.slot = alloca i32, align 4
  store ptr %agg.result, ptr %result.ptr, align 8
  store ptr %__lhs, ptr %__lhs.addr, align 8
  store ptr %__rhs, ptr %__rhs.addr, align 8
  store i1 false, ptr %nrvo, align 1
  %0 = load ptr, ptr %__lhs.addr, align 8
  call void @_ZNSt7__cxx1112basic_stringIcSt11char_traitsIcESaIcEEC1ERKS4_(ptr noundef nonnull align 8 dereferenceable(32) %agg.result, ptr noundef nonnull align 8 dereferenceable(32) %0)
  %1 = load ptr, ptr %__rhs.addr, align 8
  %call = invoke noundef nonnull align 8 dereferenceable(32) ptr @_ZNSt7__cxx1112basic_stringIcSt11char_traitsIcESaIcEE6appendEPKc(ptr noundef nonnull align 8 dereferenceable(32) %agg.result, ptr noundef %1)
          to label %invoke.cont unwind label %lpad

invoke.cont:                                      ; preds = %entry
  store i1 true, ptr %nrvo, align 1
  %nrvo.val = load i1, ptr %nrvo, align 1
  br i1 %nrvo.val, label %nrvo.skipdtor, label %nrvo.unused

lpad:                                             ; preds = %entry
  %2 = landingpad { ptr, i32 }
          cleanup
  %3 = extractvalue { ptr, i32 } %2, 0
  store ptr %3, ptr %exn.slot, align 8
  %4 = extractvalue { ptr, i32 } %2, 1
  store i32 %4, ptr %ehselector.slot, align 4
  call void @_ZNSt7__cxx1112basic_stringIcSt11char_traitsIcESaIcEED1Ev(ptr noundef nonnull align 8 dereferenceable(32) %agg.result) #3
  br label %eh.resume

nrvo.unused:                                      ; preds = %invoke.cont
  call void @_ZNSt7__cxx1112basic_stringIcSt11char_traitsIcESaIcEED1Ev(ptr noundef nonnull align 8 dereferenceable(32) %agg.result) #3
  br label %nrvo.skipdtor

nrvo.skipdtor:                                    ; preds = %nrvo.unused, %invoke.cont
  ret void

eh.resume:                                        ; preds = %lpad
  %exn = load ptr, ptr %exn.slot, align 8
  %sel = load i32, ptr %ehselector.slot, align 4
  %lpad.val = insertvalue { ptr, i32 } poison, ptr %exn, 0
  %lpad.val1 = insertvalue { ptr, i32 } %lpad.val, i32 %sel, 1
  resume { ptr, i32 } %lpad.val1
}

; Function Attrs: mustprogress nounwind uwtable
define linkonce_odr noundef nonnull align 8 dereferenceable(8) ptr @_ZN9__gnu_cxx17__normal_iteratorIPNSt7__cxx1112basic_stringIcSt11char_traitsIcESaIcEEESt6vectorIS6_SaIS6_EEEppEv(ptr noundef nonnull align 8 dereferenceable(8) %this) #1 comdat align 2 {
entry:
  %this.addr = alloca ptr, align 8
  store ptr %this, ptr %this.addr, align 8
  %this1 = load ptr, ptr %this.addr, align 8
  %_M_current = getelementptr inbounds %"class.__gnu_cxx::__normal_iterator", ptr %this1, i32 0, i32 0
  %0 = load ptr, ptr %_M_current, align 8
  %incdec.ptr = getelementptr inbounds %"class.std::__cxx11::basic_string", ptr %0, i32 1
  store ptr %incdec.ptr, ptr %_M_current, align 8
  ret ptr %this1
}

; Function Attrs: mustprogress nounwind uwtable
define linkonce_odr void @_ZNSt6vectorINSt7__cxx1112basic_stringIcSt11char_traitsIcESaIcEEESaIS5_EED2Ev(ptr noundef nonnull align 8 dereferenceable(24) %this) unnamed_addr #1 comdat align 2 personality ptr @__gxx_personality_v0 {
entry:
  %this.addr = alloca ptr, align 8
  store ptr %this, ptr %this.addr, align 8
  %this1 = load ptr, ptr %this.addr, align 8
  %_M_impl = getelementptr inbounds %"struct.std::_Vector_base.285", ptr %this1, i32 0, i32 0
  %_M_start = getelementptr inbounds %"struct.std::_Vector_base<std::__cxx11::basic_string<char>, std::allocator<std::__cxx11::basic_string<char>>>::_Vector_impl_data", ptr %_M_impl, i32 0, i32 0
  %0 = load ptr, ptr %_M_start, align 8
  %_M_impl2 = getelementptr inbounds %"struct.std::_Vector_base.285", ptr %this1, i32 0, i32 0
  %_M_finish = getelementptr inbounds %"struct.std::_Vector_base<std::__cxx11::basic_string<char>, std::allocator<std::__cxx11::basic_string<char>>>::_Vector_impl_data", ptr %_M_impl2, i32 0, i32 1
  %1 = load ptr, ptr %_M_finish, align 8
  %call = call noundef nonnull align 1 dereferenceable(1) ptr @_ZNSt12_Vector_baseINSt7__cxx1112basic_stringIcSt11char_traitsIcESaIcEEESaIS5_EE19_M_get_Tp_allocatorEv(ptr noundef nonnull align 8 dereferenceable(24) %this1) #3
  invoke void @_ZSt8_DestroyIPNSt7__cxx1112basic_stringIcSt11char_traitsIcESaIcEEES5_EvT_S7_RSaIT0_E(ptr noundef %0, ptr noundef %1, ptr noundef nonnull align 1 dereferenceable(1) %call)
          to label %invoke.cont unwind label %terminate.lpad

invoke.cont:                                      ; preds = %entry
  call void @_ZNSt12_Vector_baseINSt7__cxx1112basic_stringIcSt11char_traitsIcESaIcEEESaIS5_EED2Ev(ptr noundef nonnull align 8 dereferenceable(24) %this1) #3
  ret void

terminate.lpad:                                   ; preds = %entry
  %2 = landingpad { ptr, i32 }
          catch ptr null
  %3 = extractvalue { ptr, i32 } %2, 0
  call void @__clang_call_terminate(ptr %3) #15
  unreachable
}

; Function Attrs: mustprogress nounwind uwtable
define linkonce_odr void @_ZN7rocksdb21InternalKeyComparatorD2Ev(ptr noundef nonnull align 8 dereferenceable(16) %this) unnamed_addr #1 comdat align 2 {
entry:
  %this.addr = alloca ptr, align 8
  store ptr %this, ptr %this.addr, align 8
  %this1 = load ptr, ptr %this.addr, align 8
  call void @_ZN7rocksdb16CompareInterfaceD2Ev(ptr noundef nonnull align 8 dereferenceable(8) %this1) #3
  ret void
}

; Function Attrs: mustprogress nounwind uwtable
define linkonce_odr void @_ZN7rocksdb21InternalKeyComparatorD0Ev(ptr noundef nonnull align 8 dereferenceable(16) %this) unnamed_addr #1 comdat align 2 {
entry:
  %this.addr = alloca ptr, align 8
  store ptr %this, ptr %this.addr, align 8
  %this1 = load ptr, ptr %this.addr, align 8
  call void @_ZN7rocksdb21InternalKeyComparatorD2Ev(ptr noundef nonnull align 8 dereferenceable(16) %this1) #3
  call void @_ZdlPv(ptr noundef %this1) #16
  ret void
}

; Function Attrs: mustprogress uwtable
define linkonce_odr void @_ZN7rocksdb18SstFileManagerImpl16SetStatisticsPtrERKSt10shared_ptrINS_10StatisticsEE(ptr noundef nonnull align 8 dereferenceable(808) %this, ptr noundef nonnull align 8 dereferenceable(16) %stats) unnamed_addr #0 comdat align 2 {
entry:
  %this.addr = alloca ptr, align 8
  %stats.addr = alloca ptr, align 8
  store ptr %this, ptr %this.addr, align 8
  store ptr %stats, ptr %stats.addr, align 8
  %this1 = load ptr, ptr %this.addr, align 8
  %0 = load ptr, ptr %stats.addr, align 8
  %stats_ = getelementptr inbounds %"class.rocksdb::SstFileManagerImpl", ptr %this1, i32 0, i32 20
  %call = call noundef nonnull align 8 dereferenceable(16) ptr @_ZNSt10shared_ptrIN7rocksdb10StatisticsEEaSERKS2_(ptr noundef nonnull align 8 dereferenceable(16) %stats_, ptr noundef nonnull align 8 dereferenceable(16) %0) #3
  %delete_scheduler_ = getelementptr inbounds %"class.rocksdb::SstFileManagerImpl", ptr %this1, i32 0, i32 10
  %1 = load ptr, ptr %stats.addr, align 8
  call void @_ZN7rocksdb15DeleteScheduler16SetStatisticsPtrERKSt10shared_ptrINS_10StatisticsEE(ptr noundef nonnull align 8 dereferenceable(440) %delete_scheduler_, ptr noundef nonnull align 8 dereferenceable(16) %1)
  ret void
}

; Function Attrs: uwtable
define linkonce_odr hidden noundef ptr @_ZTWN7rocksdb10perf_levelE() #10 comdat {
  br i1 icmp ne (ptr @_ZTHN7rocksdb10perf_levelE, ptr null), label %1, label %2

1:                                                ; preds = %0
  call void @_ZTHN7rocksdb10perf_levelE()
  br label %2

2:                                                ; preds = %1, %0
  %3 = call align 1 ptr @llvm.threadlocal.address.p0(ptr align 1 @_ZN7rocksdb10perf_levelE)
  ret ptr %3
}

; Function Attrs: uwtable
define linkonce_odr hidden noundef ptr @_ZTWN7rocksdb12perf_contextE() #10 comdat {
  br i1 icmp ne (ptr @_ZTHN7rocksdb12perf_contextE, ptr null), label %1, label %2

1:                                                ; preds = %0
  call void @_ZTHN7rocksdb12perf_contextE()
  br label %2

2:                                                ; preds = %1, %0
  %3 = call align 8 ptr @llvm.threadlocal.address.p0(ptr align 8 @_ZN7rocksdb12perf_contextE)
  ret ptr %3
}

; Function Attrs: mustprogress nounwind uwtable
define linkonce_odr void @_ZN7rocksdb5SliceC2EPKcm(ptr noundef nonnull align 8 dereferenceable(16) %this, ptr noundef %d, i64 noundef %n) unnamed_addr #1 comdat align 2 {
entry:
  %this.addr = alloca ptr, align 8
  %d.addr = alloca ptr, align 8
  %n.addr = alloca i64, align 8
  store ptr %this, ptr %this.addr, align 8
  store ptr %d, ptr %d.addr, align 8
  store i64 %n, ptr %n.addr, align 8
  %this1 = load ptr, ptr %this.addr, align 8
  %data_ = getelementptr inbounds %"class.rocksdb::Slice", ptr %this1, i32 0, i32 0
  %0 = load ptr, ptr %d.addr, align 8
  store ptr %0, ptr %data_, align 8
  %size_ = getelementptr inbounds %"class.rocksdb::Slice", ptr %this1, i32 0, i32 1
  %1 = load i64, ptr %n.addr, align 8
  store i64 %1, ptr %size_, align 8
  ret void
}

; Function Attrs: mustprogress nounwind uwtable
define linkonce_odr void @_ZNSt12_Vector_baseIN7rocksdb5SliceESaIS1_EEC2Ev(ptr noundef nonnull align 8 dereferenceable(24) %this) unnamed_addr #1 comdat align 2 {
entry:
  %this.addr = alloca ptr, align 8
  store ptr %this, ptr %this.addr, align 8
  %this1 = load ptr, ptr %this.addr, align 8
  %_M_impl = getelementptr inbounds %"struct.std::_Vector_base", ptr %this1, i32 0, i32 0
  call void @_ZNSt12_Vector_baseIN7rocksdb5SliceESaIS1_EE12_Vector_implC2Ev(ptr noundef nonnull align 8 dereferenceable(24) %_M_impl) #3
  ret void
}

; Function Attrs: mustprogress nounwind uwtable
define linkonce_odr void @_ZNSt12_Vector_baseIN7rocksdb5SliceESaIS1_EE12_Vector_implC2Ev(ptr noundef nonnull align 8 dereferenceable(24) %this) unnamed_addr #1 comdat align 2 {
entry:
  %this.addr = alloca ptr, align 8
  store ptr %this, ptr %this.addr, align 8
  %this1 = load ptr, ptr %this.addr, align 8
  call void @_ZNSaIN7rocksdb5SliceEEC2Ev(ptr noundef nonnull align 1 dereferenceable(1) %this1) #3
  call void @_ZNSt12_Vector_baseIN7rocksdb5SliceESaIS1_EE17_Vector_impl_dataC2Ev(ptr noundef nonnull align 8 dereferenceable(24) %this1) #3
  ret void
}

; Function Attrs: mustprogress nounwind uwtable
define linkonce_odr void @_ZNSaIN7rocksdb5SliceEEC2Ev(ptr noundef nonnull align 1 dereferenceable(1) %this) unnamed_addr #1 comdat align 2 {
entry:
  %this.addr = alloca ptr, align 8
  store ptr %this, ptr %this.addr, align 8
  %this1 = load ptr, ptr %this.addr, align 8
  call void @_ZNSt15__new_allocatorIN7rocksdb5SliceEEC2Ev(ptr noundef nonnull align 1 dereferenceable(1) %this1) #3
  ret void
}

; Function Attrs: mustprogress nounwind uwtable
define linkonce_odr void @_ZNSt12_Vector_baseIN7rocksdb5SliceESaIS1_EE17_Vector_impl_dataC2Ev(ptr noundef nonnull align 8 dereferenceable(24) %this) unnamed_addr #1 comdat align 2 {
entry:
  %this.addr = alloca ptr, align 8
  store ptr %this, ptr %this.addr, align 8
  %this1 = load ptr, ptr %this.addr, align 8
  %_M_start = getelementptr inbounds %"struct.std::_Vector_base<rocksdb::Slice, std::allocator<rocksdb::Slice>>::_Vector_impl_data", ptr %this1, i32 0, i32 0
  store ptr null, ptr %_M_start, align 8
  %_M_finish = getelementptr inbounds %"struct.std::_Vector_base<rocksdb::Slice, std::allocator<rocksdb::Slice>>::_Vector_impl_data", ptr %this1, i32 0, i32 1
  store ptr null, ptr %_M_finish, align 8
  %_M_end_of_storage = getelementptr inbounds %"struct.std::_Vector_base<rocksdb::Slice, std::allocator<rocksdb::Slice>>::_Vector_impl_data", ptr %this1, i32 0, i32 2
  store ptr null, ptr %_M_end_of_storage, align 8
  ret void
}

; Function Attrs: mustprogress nounwind uwtable
define linkonce_odr void @_ZNSt15__new_allocatorIN7rocksdb5SliceEEC2Ev(ptr noundef nonnull align 1 dereferenceable(1) %this) unnamed_addr #1 comdat align 2 {
entry:
  %this.addr = alloca ptr, align 8
  store ptr %this, ptr %this.addr, align 8
  ret void
}

; Function Attrs: mustprogress nounwind uwtable
define linkonce_odr void @_ZN7rocksdb14SstFileManagerD2Ev(ptr noundef nonnull align 8 dereferenceable(8) %this) unnamed_addr #1 comdat align 2 {
entry:
  %this.addr = alloca ptr, align 8
  store ptr %this, ptr %this.addr, align 8
  ret void
}

; Function Attrs: mustprogress nounwind uwtable
define linkonce_odr void @_ZN7rocksdb14SstFileManagerD0Ev(ptr noundef nonnull align 8 dereferenceable(8) %this) unnamed_addr #1 comdat align 2 {
entry:
  %this.addr = alloca ptr, align 8
  store ptr %this, ptr %this.addr, align 8
  call void @llvm.trap() #15
  unreachable
}

declare void @__cxa_pure_virtual() unnamed_addr

; Function Attrs: cold noreturn nounwind memory(inaccessiblemem: write)
declare void @llvm.trap() #11

; Function Attrs: mustprogress nounwind uwtable
define linkonce_odr void @_ZNSt12__shared_ptrIN7rocksdb11SystemClockELN9__gnu_cxx12_Lock_policyE2EEC2ERKS4_(ptr noundef nonnull align 8 dereferenceable(16) %this, ptr noundef nonnull align 8 dereferenceable(16) %0) unnamed_addr #1 comdat align 2 {
entry:
  %this.addr = alloca ptr, align 8
  %.addr = alloca ptr, align 8
  store ptr %this, ptr %this.addr, align 8
  store ptr %0, ptr %.addr, align 8
  %this1 = load ptr, ptr %this.addr, align 8
  %_M_ptr = getelementptr inbounds %"class.std::__shared_ptr", ptr %this1, i32 0, i32 0
  %1 = load ptr, ptr %.addr, align 8
  %_M_ptr2 = getelementptr inbounds %"class.std::__shared_ptr", ptr %1, i32 0, i32 0
  %2 = load ptr, ptr %_M_ptr2, align 8
  store ptr %2, ptr %_M_ptr, align 8
  %_M_refcount = getelementptr inbounds %"class.std::__shared_ptr", ptr %this1, i32 0, i32 1
  %3 = load ptr, ptr %.addr, align 8
  %_M_refcount3 = getelementptr inbounds %"class.std::__shared_ptr", ptr %3, i32 0, i32 1
  call void @_ZNSt14__shared_countILN9__gnu_cxx12_Lock_policyE2EEC2ERKS2_(ptr noundef nonnull align 8 dereferenceable(8) %_M_refcount, ptr noundef nonnull align 8 dereferenceable(8) %_M_refcount3) #3
  ret void
}

; Function Attrs: mustprogress nounwind uwtable
define linkonce_odr void @_ZNSt14__shared_countILN9__gnu_cxx12_Lock_policyE2EEC2ERKS2_(ptr noundef nonnull align 8 dereferenceable(8) %this, ptr noundef nonnull align 8 dereferenceable(8) %__r) unnamed_addr #1 comdat align 2 personality ptr @__gxx_personality_v0 {
entry:
  %this.addr = alloca ptr, align 8
  %__r.addr = alloca ptr, align 8
  store ptr %this, ptr %this.addr, align 8
  store ptr %__r, ptr %__r.addr, align 8
  %this1 = load ptr, ptr %this.addr, align 8
  %_M_pi = getelementptr inbounds %"class.std::__shared_count", ptr %this1, i32 0, i32 0
  %0 = load ptr, ptr %__r.addr, align 8
  %_M_pi2 = getelementptr inbounds %"class.std::__shared_count", ptr %0, i32 0, i32 0
  %1 = load ptr, ptr %_M_pi2, align 8
  store ptr %1, ptr %_M_pi, align 8
  %_M_pi3 = getelementptr inbounds %"class.std::__shared_count", ptr %this1, i32 0, i32 0
  %2 = load ptr, ptr %_M_pi3, align 8
  %cmp = icmp ne ptr %2, null
  br i1 %cmp, label %if.then, label %if.end

if.then:                                          ; preds = %entry
  %_M_pi4 = getelementptr inbounds %"class.std::__shared_count", ptr %this1, i32 0, i32 0
  %3 = load ptr, ptr %_M_pi4, align 8
  invoke void @_ZNSt16_Sp_counted_baseILN9__gnu_cxx12_Lock_policyE2EE15_M_add_ref_copyEv(ptr noundef nonnull align 8 dereferenceable(16) %3)
          to label %invoke.cont unwind label %terminate.lpad

invoke.cont:                                      ; preds = %if.then
  br label %if.end

if.end:                                           ; preds = %invoke.cont, %entry
  ret void

terminate.lpad:                                   ; preds = %if.then
  %4 = landingpad { ptr, i32 }
          catch ptr null
  %5 = extractvalue { ptr, i32 } %4, 0
  call void @__clang_call_terminate(ptr %5) #15
  unreachable
}

; Function Attrs: mustprogress uwtable
define linkonce_odr void @_ZNSt16_Sp_counted_baseILN9__gnu_cxx12_Lock_policyE2EE15_M_add_ref_copyEv(ptr noundef nonnull align 8 dereferenceable(16) %this) #0 comdat align 2 {
entry:
  %__mem.addr.i4 = alloca ptr, align 8
  %__val.addr.i5 = alloca i32, align 4
  %.atomictmp.i = alloca i32, align 4
  %atomic-temp.i = alloca i32, align 4
  %__mem.addr.i2 = alloca ptr, align 8
  %__val.addr.i3 = alloca i32, align 4
  %__mem.addr.i = alloca ptr, align 8
  %__val.addr.i = alloca i32, align 4
  %this.addr = alloca ptr, align 8
  store ptr %this, ptr %this.addr, align 8
  %this1 = load ptr, ptr %this.addr, align 8
  %_M_use_count = getelementptr inbounds %"class.std::_Sp_counted_base", ptr %this1, i32 0, i32 1
  store ptr %_M_use_count, ptr %__mem.addr.i, align 8
  store i32 1, ptr %__val.addr.i, align 4
  %0 = load i8, ptr @__libc_single_threaded, align 1
  %tobool.i = icmp ne i8 %0, 0
  br i1 %tobool.i, label %if.then.i, label %if.else.i

if.then.i:                                        ; preds = %entry
  %1 = load ptr, ptr %__mem.addr.i, align 8
  %2 = load i32, ptr %__val.addr.i, align 4
  store ptr %1, ptr %__mem.addr.i2, align 8
  store i32 %2, ptr %__val.addr.i3, align 4
  %3 = load i32, ptr %__val.addr.i3, align 4
  %4 = load ptr, ptr %__mem.addr.i2, align 8
  %5 = load i32, ptr %4, align 4
  %add.i = add nsw i32 %5, %3
  store i32 %add.i, ptr %4, align 4
  br label %_ZN9__gnu_cxx21__atomic_add_dispatchEPii.exit

if.else.i:                                        ; preds = %entry
  %6 = load ptr, ptr %__mem.addr.i, align 8
  %7 = load i32, ptr %__val.addr.i, align 4
  store ptr %6, ptr %__mem.addr.i4, align 8
  store i32 %7, ptr %__val.addr.i5, align 4
  %8 = load ptr, ptr %__mem.addr.i4, align 8
  %9 = load i32, ptr %__val.addr.i5, align 4
  store i32 %9, ptr %.atomictmp.i, align 4
  %10 = load i32, ptr %.atomictmp.i, align 4
  %11 = atomicrmw volatile add ptr %8, i32 %10 acq_rel, align 4
  store i32 %11, ptr %atomic-temp.i, align 4
  br label %_ZN9__gnu_cxx21__atomic_add_dispatchEPii.exit

_ZN9__gnu_cxx21__atomic_add_dispatchEPii.exit:    ; preds = %if.else.i, %if.then.i
  ret void
}

; Function Attrs: mustprogress nounwind uwtable
define linkonce_odr void @_ZNSt12__shared_ptrIN7rocksdb10FileSystemELN9__gnu_cxx12_Lock_policyE2EEC2ERKS4_(ptr noundef nonnull align 8 dereferenceable(16) %this, ptr noundef nonnull align 8 dereferenceable(16) %0) unnamed_addr #1 comdat align 2 {
entry:
  %this.addr = alloca ptr, align 8
  %.addr = alloca ptr, align 8
  store ptr %this, ptr %this.addr, align 8
  store ptr %0, ptr %.addr, align 8
  %this1 = load ptr, ptr %this.addr, align 8
  %_M_ptr = getelementptr inbounds %"class.std::__shared_ptr.1", ptr %this1, i32 0, i32 0
  %1 = load ptr, ptr %.addr, align 8
  %_M_ptr2 = getelementptr inbounds %"class.std::__shared_ptr.1", ptr %1, i32 0, i32 0
  %2 = load ptr, ptr %_M_ptr2, align 8
  store ptr %2, ptr %_M_ptr, align 8
  %_M_refcount = getelementptr inbounds %"class.std::__shared_ptr.1", ptr %this1, i32 0, i32 1
  %3 = load ptr, ptr %.addr, align 8
  %_M_refcount3 = getelementptr inbounds %"class.std::__shared_ptr.1", ptr %3, i32 0, i32 1
  call void @_ZNSt14__shared_countILN9__gnu_cxx12_Lock_policyE2EEC2ERKS2_(ptr noundef nonnull align 8 dereferenceable(8) %_M_refcount, ptr noundef nonnull align 8 dereferenceable(8) %_M_refcount3) #3
  ret void
}

; Function Attrs: mustprogress nounwind uwtable
define linkonce_odr void @_ZNSt12__shared_ptrIN7rocksdb6LoggerELN9__gnu_cxx12_Lock_policyE2EEC2ERKS4_(ptr noundef nonnull align 8 dereferenceable(16) %this, ptr noundef nonnull align 8 dereferenceable(16) %0) unnamed_addr #1 comdat align 2 {
entry:
  %this.addr = alloca ptr, align 8
  %.addr = alloca ptr, align 8
  store ptr %this, ptr %this.addr, align 8
  store ptr %0, ptr %.addr, align 8
  %this1 = load ptr, ptr %this.addr, align 8
  %_M_ptr = getelementptr inbounds %"class.std::__shared_ptr.4", ptr %this1, i32 0, i32 0
  %1 = load ptr, ptr %.addr, align 8
  %_M_ptr2 = getelementptr inbounds %"class.std::__shared_ptr.4", ptr %1, i32 0, i32 0
  %2 = load ptr, ptr %_M_ptr2, align 8
  store ptr %2, ptr %_M_ptr, align 8
  %_M_refcount = getelementptr inbounds %"class.std::__shared_ptr.4", ptr %this1, i32 0, i32 1
  %3 = load ptr, ptr %.addr, align 8
  %_M_refcount3 = getelementptr inbounds %"class.std::__shared_ptr.4", ptr %3, i32 0, i32 1
  call void @_ZNSt14__shared_countILN9__gnu_cxx12_Lock_policyE2EEC2ERKS2_(ptr noundef nonnull align 8 dereferenceable(8) %_M_refcount, ptr noundef nonnull align 8 dereferenceable(8) %_M_refcount3) #3
  ret void
}

; Function Attrs: mustprogress nounwind uwtable
define linkonce_odr void @_ZNSt10_HashtableINSt7__cxx1112basic_stringIcSt11char_traitsIcESaIcEEESt4pairIKS5_mESaIS8_ENSt8__detail10_Select1stESt8equal_toIS5_ESt4hashIS5_ENSA_18_Mod_range_hashingENSA_20_Default_ranged_hashENSA_20_Prime_rehash_policyENSA_17_Hashtable_traitsILb1ELb0ELb1EEEEC2Ev(ptr noundef nonnull align 8 dereferenceable(56) %this) unnamed_addr #1 comdat align 2 {
entry:
  %this.addr = alloca ptr, align 8
  store ptr %this, ptr %this.addr, align 8
  %this1 = load ptr, ptr %this.addr, align 8
  call void @_ZNSt8__detail15_Hashtable_baseINSt7__cxx1112basic_stringIcSt11char_traitsIcESaIcEEESt4pairIKS6_mENS_10_Select1stESt8equal_toIS6_ESt4hashIS6_ENS_18_Mod_range_hashingENS_20_Default_ranged_hashENS_17_Hashtable_traitsILb1ELb0ELb1EEEEC2Ev(ptr noundef nonnull align 1 dereferenceable(1) %this1) #3
  call void @_ZNSt8__detail16_Hashtable_allocISaINS_10_Hash_nodeISt4pairIKNSt7__cxx1112basic_stringIcSt11char_traitsIcESaIcEEEmELb1EEEEEC2Ev(ptr noundef nonnull align 1 dereferenceable(1) %this1) #3
  %_M_buckets = getelementptr inbounds %"class.std::_Hashtable", ptr %this1, i32 0, i32 0
  %_M_single_bucket = getelementptr inbounds %"class.std::_Hashtable", ptr %this1, i32 0, i32 5
  store ptr %_M_single_bucket, ptr %_M_buckets, align 8
  %_M_bucket_count = getelementptr inbounds %"class.std::_Hashtable", ptr %this1, i32 0, i32 1
  store i64 1, ptr %_M_bucket_count, align 8
  %_M_before_begin = getelementptr inbounds %"class.std::_Hashtable", ptr %this1, i32 0, i32 2
  call void @_ZNSt8__detail15_Hash_node_baseC2Ev(ptr noundef nonnull align 8 dereferenceable(8) %_M_before_begin) #3
  %_M_element_count = getelementptr inbounds %"class.std::_Hashtable", ptr %this1, i32 0, i32 3
  store i64 0, ptr %_M_element_count, align 8
  %_M_rehash_policy = getelementptr inbounds %"class.std::_Hashtable", ptr %this1, i32 0, i32 4
  call void @_ZNSt8__detail20_Prime_rehash_policyC2Ef(ptr noundef nonnull align 8 dereferenceable(16) %_M_rehash_policy, float noundef 1.000000e+00) #3
  %_M_single_bucket2 = getelementptr inbounds %"class.std::_Hashtable", ptr %this1, i32 0, i32 5
  store ptr null, ptr %_M_single_bucket2, align 8
  ret void
}

; Function Attrs: mustprogress nounwind uwtable
define linkonce_odr void @_ZNSt8__detail15_Hashtable_baseINSt7__cxx1112basic_stringIcSt11char_traitsIcESaIcEEESt4pairIKS6_mENS_10_Select1stESt8equal_toIS6_ESt4hashIS6_ENS_18_Mod_range_hashingENS_20_Default_ranged_hashENS_17_Hashtable_traitsILb1ELb0ELb1EEEEC2Ev(ptr noundef nonnull align 1 dereferenceable(1) %this) unnamed_addr #1 comdat align 2 {
entry:
  %this.addr = alloca ptr, align 8
  store ptr %this, ptr %this.addr, align 8
  %this1 = load ptr, ptr %this.addr, align 8
  call void @_ZNSt8__detail15_Hash_code_baseINSt7__cxx1112basic_stringIcSt11char_traitsIcESaIcEEESt4pairIKS6_mENS_10_Select1stESt4hashIS6_ENS_18_Mod_range_hashingENS_20_Default_ranged_hashELb1EEC2Ev(ptr noundef nonnull align 1 dereferenceable(1) %this1) #3
  call void @_ZNSt8__detail21_Hashtable_ebo_helperILi0ESt8equal_toINSt7__cxx1112basic_stringIcSt11char_traitsIcESaIcEEEELb1EEC2Ev(ptr noundef nonnull align 1 dereferenceable(1) %this1) #3
  ret void
}

; Function Attrs: mustprogress nounwind uwtable
define linkonce_odr void @_ZNSt8__detail16_Hashtable_allocISaINS_10_Hash_nodeISt4pairIKNSt7__cxx1112basic_stringIcSt11char_traitsIcESaIcEEEmELb1EEEEEC2Ev(ptr noundef nonnull align 1 dereferenceable(1) %this) unnamed_addr #1 comdat align 2 {
entry:
  %this.addr = alloca ptr, align 8
  store ptr %this, ptr %this.addr, align 8
  %this1 = load ptr, ptr %this.addr, align 8
  call void @_ZNSt8__detail21_Hashtable_ebo_helperILi0ESaINS_10_Hash_nodeISt4pairIKNSt7__cxx1112basic_stringIcSt11char_traitsIcESaIcEEEmELb1EEEELb1EEC2Ev(ptr noundef nonnull align 1 dereferenceable(1) %this1) #3
  ret void
}

; Function Attrs: mustprogress nounwind uwtable
define linkonce_odr void @_ZNSt8__detail15_Hash_node_baseC2Ev(ptr noundef nonnull align 8 dereferenceable(8) %this) unnamed_addr #1 comdat align 2 {
entry:
  %this.addr = alloca ptr, align 8
  store ptr %this, ptr %this.addr, align 8
  %this1 = load ptr, ptr %this.addr, align 8
  %_M_nxt = getelementptr inbounds %"struct.std::__detail::_Hash_node_base", ptr %this1, i32 0, i32 0
  store ptr null, ptr %_M_nxt, align 8
  ret void
}

; Function Attrs: mustprogress nounwind uwtable
define linkonce_odr void @_ZNSt8__detail20_Prime_rehash_policyC2Ef(ptr noundef nonnull align 8 dereferenceable(16) %this, float noundef %__z) unnamed_addr #1 comdat align 2 {
entry:
  %this.addr = alloca ptr, align 8
  %__z.addr = alloca float, align 4
  store ptr %this, ptr %this.addr, align 8
  store float %__z, ptr %__z.addr, align 4
  %this1 = load ptr, ptr %this.addr, align 8
  %_M_max_load_factor = getelementptr inbounds %"struct.std::__detail::_Prime_rehash_policy", ptr %this1, i32 0, i32 0
  %0 = load float, ptr %__z.addr, align 4
  store float %0, ptr %_M_max_load_factor, align 8
  %_M_next_resize = getelementptr inbounds %"struct.std::__detail::_Prime_rehash_policy", ptr %this1, i32 0, i32 1
  store i64 0, ptr %_M_next_resize, align 8
  ret void
}

; Function Attrs: mustprogress nounwind uwtable
define linkonce_odr void @_ZNSt8__detail15_Hash_code_baseINSt7__cxx1112basic_stringIcSt11char_traitsIcESaIcEEESt4pairIKS6_mENS_10_Select1stESt4hashIS6_ENS_18_Mod_range_hashingENS_20_Default_ranged_hashELb1EEC2Ev(ptr noundef nonnull align 1 dereferenceable(1) %this) unnamed_addr #1 comdat align 2 {
entry:
  %this.addr = alloca ptr, align 8
  store ptr %this, ptr %this.addr, align 8
  %this1 = load ptr, ptr %this.addr, align 8
  call void @_ZNSt8__detail21_Hashtable_ebo_helperILi1ESt4hashINSt7__cxx1112basic_stringIcSt11char_traitsIcESaIcEEEELb1EEC2Ev(ptr noundef nonnull align 1 dereferenceable(1) %this1) #3
  ret void
}

; Function Attrs: mustprogress nounwind uwtable
define linkonce_odr void @_ZNSt8__detail21_Hashtable_ebo_helperILi0ESt8equal_toINSt7__cxx1112basic_stringIcSt11char_traitsIcESaIcEEEELb1EEC2Ev(ptr noundef nonnull align 1 dereferenceable(1) %this) unnamed_addr #1 comdat align 2 {
entry:
  %this.addr = alloca ptr, align 8
  store ptr %this, ptr %this.addr, align 8
  ret void
}

; Function Attrs: mustprogress nounwind uwtable
define linkonce_odr void @_ZNSt8__detail21_Hashtable_ebo_helperILi1ESt4hashINSt7__cxx1112basic_stringIcSt11char_traitsIcESaIcEEEELb1EEC2Ev(ptr noundef nonnull align 1 dereferenceable(1) %this) unnamed_addr #1 comdat align 2 {
entry:
  %this.addr = alloca ptr, align 8
  store ptr %this, ptr %this.addr, align 8
  ret void
}

; Function Attrs: mustprogress nounwind uwtable
define linkonce_odr void @_ZNSt8__detail21_Hashtable_ebo_helperILi0ESaINS_10_Hash_nodeISt4pairIKNSt7__cxx1112basic_stringIcSt11char_traitsIcESaIcEEEmELb1EEEELb1EEC2Ev(ptr noundef nonnull align 1 dereferenceable(1) %this) unnamed_addr #1 comdat align 2 {
entry:
  %this.addr = alloca ptr, align 8
  store ptr %this, ptr %this.addr, align 8
  %this1 = load ptr, ptr %this.addr, align 8
  call void @_ZNSaINSt8__detail10_Hash_nodeISt4pairIKNSt7__cxx1112basic_stringIcSt11char_traitsIcESaIcEEEmELb1EEEEC2Ev(ptr noundef nonnull align 1 dereferenceable(1) %this1) #3
  ret void
}

; Function Attrs: mustprogress nounwind uwtable
define linkonce_odr void @_ZNSaINSt8__detail10_Hash_nodeISt4pairIKNSt7__cxx1112basic_stringIcSt11char_traitsIcESaIcEEEmELb1EEEEC2Ev(ptr noundef nonnull align 1 dereferenceable(1) %this) unnamed_addr #1 comdat align 2 {
entry:
  %this.addr = alloca ptr, align 8
  store ptr %this, ptr %this.addr, align 8
  %this1 = load ptr, ptr %this.addr, align 8
  call void @_ZNSt15__new_allocatorINSt8__detail10_Hash_nodeISt4pairIKNSt7__cxx1112basic_stringIcSt11char_traitsIcESaIcEEEmELb1EEEEC2Ev(ptr noundef nonnull align 1 dereferenceable(1) %this1) #3
  ret void
}

; Function Attrs: mustprogress nounwind uwtable
define linkonce_odr void @_ZNSt15__new_allocatorINSt8__detail10_Hash_nodeISt4pairIKNSt7__cxx1112basic_stringIcSt11char_traitsIcESaIcEEEmELb1EEEEC2Ev(ptr noundef nonnull align 1 dereferenceable(1) %this) unnamed_addr #1 comdat align 2 {
entry:
  %this.addr = alloca ptr, align 8
  store ptr %this, ptr %this.addr, align 8
  ret void
}

; Function Attrs: nocallback nofree nounwind willreturn memory(argmem: write)
declare void @llvm.memset.p0.i64(ptr nocapture writeonly, i8, i64, i1 immarg) #12

; Function Attrs: mustprogress nounwind uwtable
define linkonce_odr void @_ZNSt15__uniq_ptr_dataISt6threadSt14default_deleteIS0_ELb1ELb1EEC2Ev(ptr noundef nonnull align 8 dereferenceable(8) %this) unnamed_addr #1 comdat align 2 {
entry:
  %this.addr = alloca ptr, align 8
  store ptr %this, ptr %this.addr, align 8
  %this1 = load ptr, ptr %this.addr, align 8
  call void @_ZNSt15__uniq_ptr_implISt6threadSt14default_deleteIS0_EEC2Ev(ptr noundef nonnull align 8 dereferenceable(8) %this1) #3
  ret void
}

; Function Attrs: mustprogress nounwind uwtable
define linkonce_odr void @_ZNSt15__uniq_ptr_implISt6threadSt14default_deleteIS0_EEC2Ev(ptr noundef nonnull align 8 dereferenceable(8) %this) unnamed_addr #1 comdat align 2 {
entry:
  %this.addr = alloca ptr, align 8
  store ptr %this, ptr %this.addr, align 8
  %this1 = load ptr, ptr %this.addr, align 8
  %_M_t = getelementptr inbounds %"class.std::__uniq_ptr_impl", ptr %this1, i32 0, i32 0
  call void @_ZNSt5tupleIJPSt6threadSt14default_deleteIS0_EEEC2ILb1ETnNSt9enable_ifIXclsr17_TupleConstraintsIXT_ES1_S3_EE37__is_implicitly_default_constructibleEEbE4typeELb1EEEv(ptr noundef nonnull align 8 dereferenceable(8) %_M_t) #3
  ret void
}

; Function Attrs: mustprogress nounwind uwtable
define linkonce_odr void @_ZNSt5tupleIJPSt6threadSt14default_deleteIS0_EEEC2ILb1ETnNSt9enable_ifIXclsr17_TupleConstraintsIXT_ES1_S3_EE37__is_implicitly_default_constructibleEEbE4typeELb1EEEv(ptr noundef nonnull align 8 dereferenceable(8) %this) unnamed_addr #1 comdat align 2 personality ptr @__gxx_personality_v0 {
entry:
  %this.addr = alloca ptr, align 8
  store ptr %this, ptr %this.addr, align 8
  %this1 = load ptr, ptr %this.addr, align 8
  invoke void @_ZNSt11_Tuple_implILm0EJPSt6threadSt14default_deleteIS0_EEEC2Ev(ptr noundef nonnull align 8 dereferenceable(8) %this1)
          to label %invoke.cont unwind label %terminate.lpad

invoke.cont:                                      ; preds = %entry
  ret void

terminate.lpad:                                   ; preds = %entry
  %0 = landingpad { ptr, i32 }
          catch ptr null
  %1 = extractvalue { ptr, i32 } %0, 0
  call void @__clang_call_terminate(ptr %1) #15
  unreachable
}

; Function Attrs: mustprogress uwtable
define linkonce_odr void @_ZNSt11_Tuple_implILm0EJPSt6threadSt14default_deleteIS0_EEEC2Ev(ptr noundef nonnull align 8 dereferenceable(8) %this) unnamed_addr #0 comdat align 2 {
entry:
  %this.addr = alloca ptr, align 8
  store ptr %this, ptr %this.addr, align 8
  %this1 = load ptr, ptr %this.addr, align 8
  call void @_ZNSt11_Tuple_implILm1EJSt14default_deleteISt6threadEEEC2Ev(ptr noundef nonnull align 1 dereferenceable(1) %this1)
  call void @_ZNSt10_Head_baseILm0EPSt6threadLb0EEC2Ev(ptr noundef nonnull align 8 dereferenceable(8) %this1)
  ret void
}

; Function Attrs: mustprogress uwtable
define linkonce_odr void @_ZNSt11_Tuple_implILm1EJSt14default_deleteISt6threadEEEC2Ev(ptr noundef nonnull align 1 dereferenceable(1) %this) unnamed_addr #0 comdat align 2 {
entry:
  %this.addr = alloca ptr, align 8
  store ptr %this, ptr %this.addr, align 8
  %this1 = load ptr, ptr %this.addr, align 8
  call void @_ZNSt10_Head_baseILm1ESt14default_deleteISt6threadELb1EEC2Ev(ptr noundef nonnull align 1 dereferenceable(1) %this1)
  ret void
}

; Function Attrs: mustprogress nounwind uwtable
define linkonce_odr void @_ZNSt10_Head_baseILm0EPSt6threadLb0EEC2Ev(ptr noundef nonnull align 8 dereferenceable(8) %this) unnamed_addr #1 comdat align 2 {
entry:
  %this.addr = alloca ptr, align 8
  store ptr %this, ptr %this.addr, align 8
  %this1 = load ptr, ptr %this.addr, align 8
  %_M_head_impl = getelementptr inbounds %"struct.std::_Head_base.20", ptr %this1, i32 0, i32 0
  store ptr null, ptr %_M_head_impl, align 8
  ret void
}

; Function Attrs: mustprogress nounwind uwtable
define linkonce_odr void @_ZNSt10_Head_baseILm1ESt14default_deleteISt6threadELb1EEC2Ev(ptr noundef nonnull align 1 dereferenceable(1) %this) unnamed_addr #1 comdat align 2 {
entry:
  %this.addr = alloca ptr, align 8
  store ptr %this, ptr %this.addr, align 8
  ret void
}

; Function Attrs: mustprogress nounwind uwtable
define linkonce_odr void @_ZNSt10unique_ptrIA_KcSt14default_deleteIS1_EEC2IS3_vEEDn(ptr noundef nonnull align 8 dereferenceable(8) %this, ptr %0) unnamed_addr #1 comdat align 2 {
entry:
  %this.addr = alloca ptr, align 8
  %.addr = alloca ptr, align 8
  store ptr %this, ptr %this.addr, align 8
  store ptr %0, ptr %.addr, align 8
  %this1 = load ptr, ptr %this.addr, align 8
  %_M_t = getelementptr inbounds %"class.std::unique_ptr.28", ptr %this1, i32 0, i32 0
  call void @llvm.memset.p0.i64(ptr align 8 %_M_t, i8 0, i64 8, i1 false)
  call void @_ZNSt15__uniq_ptr_dataIKcSt14default_deleteIA_S0_ELb1ELb1EEC2Ev(ptr noundef nonnull align 8 dereferenceable(8) %_M_t) #3
  ret void
}

; Function Attrs: mustprogress nounwind uwtable
define linkonce_odr void @_ZNSt15__uniq_ptr_dataIKcSt14default_deleteIA_S0_ELb1ELb1EEC2Ev(ptr noundef nonnull align 8 dereferenceable(8) %this) unnamed_addr #1 comdat align 2 {
entry:
  %this.addr = alloca ptr, align 8
  store ptr %this, ptr %this.addr, align 8
  %this1 = load ptr, ptr %this.addr, align 8
  call void @_ZNSt15__uniq_ptr_implIKcSt14default_deleteIA_S0_EEC2Ev(ptr noundef nonnull align 8 dereferenceable(8) %this1) #3
  ret void
}

; Function Attrs: mustprogress nounwind uwtable
define linkonce_odr void @_ZNSt15__uniq_ptr_implIKcSt14default_deleteIA_S0_EEC2Ev(ptr noundef nonnull align 8 dereferenceable(8) %this) unnamed_addr #1 comdat align 2 {
entry:
  %this.addr = alloca ptr, align 8
  store ptr %this, ptr %this.addr, align 8
  %this1 = load ptr, ptr %this.addr, align 8
  %_M_t = getelementptr inbounds %"class.std::__uniq_ptr_impl.30", ptr %this1, i32 0, i32 0
  call void @_ZNSt5tupleIJPKcSt14default_deleteIA_S0_EEEC2ILb1ETnNSt9enable_ifIXclsr17_TupleConstraintsIXT_ES1_S4_EE37__is_implicitly_default_constructibleEEbE4typeELb1EEEv(ptr noundef nonnull align 8 dereferenceable(8) %_M_t) #3
  ret void
}

; Function Attrs: mustprogress nounwind uwtable
define linkonce_odr void @_ZNSt5tupleIJPKcSt14default_deleteIA_S0_EEEC2ILb1ETnNSt9enable_ifIXclsr17_TupleConstraintsIXT_ES1_S4_EE37__is_implicitly_default_constructibleEEbE4typeELb1EEEv(ptr noundef nonnull align 8 dereferenceable(8) %this) unnamed_addr #1 comdat align 2 personality ptr @__gxx_personality_v0 {
entry:
  %this.addr = alloca ptr, align 8
  store ptr %this, ptr %this.addr, align 8
  %this1 = load ptr, ptr %this.addr, align 8
  invoke void @_ZNSt11_Tuple_implILm0EJPKcSt14default_deleteIA_S0_EEEC2Ev(ptr noundef nonnull align 8 dereferenceable(8) %this1)
          to label %invoke.cont unwind label %terminate.lpad

invoke.cont:                                      ; preds = %entry
  ret void

terminate.lpad:                                   ; preds = %entry
  %0 = landingpad { ptr, i32 }
          catch ptr null
  %1 = extractvalue { ptr, i32 } %0, 0
  call void @__clang_call_terminate(ptr %1) #15
  unreachable
}

; Function Attrs: mustprogress uwtable
define linkonce_odr void @_ZNSt11_Tuple_implILm0EJPKcSt14default_deleteIA_S0_EEEC2Ev(ptr noundef nonnull align 8 dereferenceable(8) %this) unnamed_addr #0 comdat align 2 {
entry:
  %this.addr = alloca ptr, align 8
  store ptr %this, ptr %this.addr, align 8
  %this1 = load ptr, ptr %this.addr, align 8
  call void @_ZNSt11_Tuple_implILm1EJSt14default_deleteIA_KcEEEC2Ev(ptr noundef nonnull align 1 dereferenceable(1) %this1)
  call void @_ZNSt10_Head_baseILm0EPKcLb0EEC2Ev(ptr noundef nonnull align 8 dereferenceable(8) %this1)
  ret void
}

; Function Attrs: mustprogress uwtable
define linkonce_odr void @_ZNSt11_Tuple_implILm1EJSt14default_deleteIA_KcEEEC2Ev(ptr noundef nonnull align 1 dereferenceable(1) %this) unnamed_addr #0 comdat align 2 {
entry:
  %this.addr = alloca ptr, align 8
  store ptr %this, ptr %this.addr, align 8
  %this1 = load ptr, ptr %this.addr, align 8
  call void @_ZNSt10_Head_baseILm1ESt14default_deleteIA_KcELb1EEC2Ev(ptr noundef nonnull align 1 dereferenceable(1) %this1)
  ret void
}

; Function Attrs: mustprogress nounwind uwtable
define linkonce_odr void @_ZNSt10_Head_baseILm0EPKcLb0EEC2Ev(ptr noundef nonnull align 8 dereferenceable(8) %this) unnamed_addr #1 comdat align 2 {
entry:
  %this.addr = alloca ptr, align 8
  store ptr %this, ptr %this.addr, align 8
  %this1 = load ptr, ptr %this.addr, align 8
  %_M_head_impl = getelementptr inbounds %"struct.std::_Head_base.35", ptr %this1, i32 0, i32 0
  store ptr null, ptr %_M_head_impl, align 8
  ret void
}

; Function Attrs: mustprogress nounwind uwtable
define linkonce_odr void @_ZNSt10_Head_baseILm1ESt14default_deleteIA_KcELb1EEC2Ev(ptr noundef nonnull align 1 dereferenceable(1) %this) unnamed_addr #1 comdat align 2 {
entry:
  %this.addr = alloca ptr, align 8
  store ptr %this, ptr %this.addr, align 8
  ret void
}

; Function Attrs: mustprogress nounwind uwtable
define linkonce_odr void @_ZNSt7__cxx1110_List_baseIPN7rocksdb12ErrorHandlerESaIS3_EEC2Ev(ptr noundef nonnull align 8 dereferenceable(24) %this) unnamed_addr #1 comdat align 2 {
entry:
  %this.addr = alloca ptr, align 8
  store ptr %this, ptr %this.addr, align 8
  %this1 = load ptr, ptr %this.addr, align 8
  %_M_impl = getelementptr inbounds %"class.std::__cxx11::_List_base", ptr %this1, i32 0, i32 0
  call void @_ZNSt7__cxx1110_List_baseIPN7rocksdb12ErrorHandlerESaIS3_EE10_List_implC2Ev(ptr noundef nonnull align 8 dereferenceable(24) %_M_impl) #3
  ret void
}

; Function Attrs: mustprogress nounwind uwtable
define linkonce_odr void @_ZNSt7__cxx1110_List_baseIPN7rocksdb12ErrorHandlerESaIS3_EE10_List_implC2Ev(ptr noundef nonnull align 8 dereferenceable(24) %this) unnamed_addr #1 comdat align 2 {
entry:
  %this.addr = alloca ptr, align 8
  store ptr %this, ptr %this.addr, align 8
  %this1 = load ptr, ptr %this.addr, align 8
  call void @_ZNSaISt10_List_nodeIPN7rocksdb12ErrorHandlerEEEC2Ev(ptr noundef nonnull align 1 dereferenceable(1) %this1) #3
  %_M_node = getelementptr inbounds %"struct.std::__cxx11::_List_base<rocksdb::ErrorHandler *, std::allocator<rocksdb::ErrorHandler *>>::_List_impl", ptr %this1, i32 0, i32 0
  call void @_ZNSt8__detail17_List_node_headerC2Ev(ptr noundef nonnull align 8 dereferenceable(24) %_M_node) #3
  ret void
}

; Function Attrs: mustprogress nounwind uwtable
define linkonce_odr void @_ZNSaISt10_List_nodeIPN7rocksdb12ErrorHandlerEEEC2Ev(ptr noundef nonnull align 1 dereferenceable(1) %this) unnamed_addr #1 comdat align 2 {
entry:
  %this.addr = alloca ptr, align 8
  store ptr %this, ptr %this.addr, align 8
  %this1 = load ptr, ptr %this.addr, align 8
  call void @_ZNSt15__new_allocatorISt10_List_nodeIPN7rocksdb12ErrorHandlerEEEC2Ev(ptr noundef nonnull align 1 dereferenceable(1) %this1) #3
  ret void
}

; Function Attrs: mustprogress nounwind uwtable
define linkonce_odr void @_ZNSt8__detail17_List_node_headerC2Ev(ptr noundef nonnull align 8 dereferenceable(24) %this) unnamed_addr #1 comdat align 2 {
entry:
  %this.addr = alloca ptr, align 8
  store ptr %this, ptr %this.addr, align 8
  %this1 = load ptr, ptr %this.addr, align 8
  call void @_ZNSt8__detail17_List_node_header7_M_initEv(ptr noundef nonnull align 8 dereferenceable(24) %this1) #3
  ret void
}

; Function Attrs: mustprogress nounwind uwtable
define linkonce_odr void @_ZNSt15__new_allocatorISt10_List_nodeIPN7rocksdb12ErrorHandlerEEEC2Ev(ptr noundef nonnull align 1 dereferenceable(1) %this) unnamed_addr #1 comdat align 2 {
entry:
  %this.addr = alloca ptr, align 8
  store ptr %this, ptr %this.addr, align 8
  ret void
}

; Function Attrs: mustprogress nounwind uwtable
define linkonce_odr void @_ZNSt8__detail17_List_node_header7_M_initEv(ptr noundef nonnull align 8 dereferenceable(24) %this) #1 comdat align 2 {
entry:
  %this.addr = alloca ptr, align 8
  store ptr %this, ptr %this.addr, align 8
  %this1 = load ptr, ptr %this.addr, align 8
  %_M_prev = getelementptr inbounds %"struct.std::__detail::_List_node_base", ptr %this1, i32 0, i32 1
  store ptr %this1, ptr %_M_prev, align 8
  %_M_next = getelementptr inbounds %"struct.std::__detail::_List_node_base", ptr %this1, i32 0, i32 0
  store ptr %this1, ptr %_M_next, align 8
  %_M_size = getelementptr inbounds %"struct.std::__detail::_List_node_header", ptr %this1, i32 0, i32 1
  store i64 0, ptr %_M_size, align 8
  ret void
}

; Function Attrs: mustprogress nounwind uwtable
define linkonce_odr void @_ZNSt12__shared_ptrIN7rocksdb10StatisticsELN9__gnu_cxx12_Lock_policyE2EEC2Ev(ptr noundef nonnull align 8 dereferenceable(16) %this) unnamed_addr #1 comdat align 2 {
entry:
  %this.addr = alloca ptr, align 8
  store ptr %this, ptr %this.addr, align 8
  %this1 = load ptr, ptr %this.addr, align 8
  %_M_ptr = getelementptr inbounds %"class.std::__shared_ptr.23", ptr %this1, i32 0, i32 0
  store ptr null, ptr %_M_ptr, align 8
  %_M_refcount = getelementptr inbounds %"class.std::__shared_ptr.23", ptr %this1, i32 0, i32 1
  call void @_ZNSt14__shared_countILN9__gnu_cxx12_Lock_policyE2EEC2Ev(ptr noundef nonnull align 8 dereferenceable(8) %_M_refcount) #3
  ret void
}

; Function Attrs: mustprogress nounwind uwtable
define linkonce_odr void @_ZNSt14__shared_countILN9__gnu_cxx12_Lock_policyE2EEC2Ev(ptr noundef nonnull align 8 dereferenceable(8) %this) unnamed_addr #1 comdat align 2 {
entry:
  %this.addr = alloca ptr, align 8
  store ptr %this, ptr %this.addr, align 8
  %this1 = load ptr, ptr %this.addr, align 8
  %_M_pi = getelementptr inbounds %"class.std::__shared_count", ptr %this1, i32 0, i32 0
  store ptr null, ptr %_M_pi, align 8
  ret void
}

; Function Attrs: mustprogress nounwind uwtable
define linkonce_odr void @_ZNSt10_HashtableINSt7__cxx1112basic_stringIcSt11char_traitsIcESaIcEEESt4pairIKS5_mESaIS8_ENSt8__detail10_Select1stESt8equal_toIS5_ESt4hashIS5_ENSA_18_Mod_range_hashingENSA_20_Default_ranged_hashENSA_20_Prime_rehash_policyENSA_17_Hashtable_traitsILb1ELb0ELb1EEEED2Ev(ptr noundef nonnull align 8 dereferenceable(56) %this) unnamed_addr #1 comdat align 2 personality ptr @__gxx_personality_v0 {
entry:
  %this.addr = alloca ptr, align 8
  store ptr %this, ptr %this.addr, align 8
  %this1 = load ptr, ptr %this.addr, align 8
  call void @_ZNSt10_HashtableINSt7__cxx1112basic_stringIcSt11char_traitsIcESaIcEEESt4pairIKS5_mESaIS8_ENSt8__detail10_Select1stESt8equal_toIS5_ESt4hashIS5_ENSA_18_Mod_range_hashingENSA_20_Default_ranged_hashENSA_20_Prime_rehash_policyENSA_17_Hashtable_traitsILb1ELb0ELb1EEEE5clearEv(ptr noundef nonnull align 8 dereferenceable(56) %this1) #3
  invoke void @_ZNSt10_HashtableINSt7__cxx1112basic_stringIcSt11char_traitsIcESaIcEEESt4pairIKS5_mESaIS8_ENSt8__detail10_Select1stESt8equal_toIS5_ESt4hashIS5_ENSA_18_Mod_range_hashingENSA_20_Default_ranged_hashENSA_20_Prime_rehash_policyENSA_17_Hashtable_traitsILb1ELb0ELb1EEEE21_M_deallocate_bucketsEv(ptr noundef nonnull align 8 dereferenceable(56) %this1)
          to label %invoke.cont unwind label %terminate.lpad

invoke.cont:                                      ; preds = %entry
  call void @_ZNSt8__detail16_Hashtable_allocISaINS_10_Hash_nodeISt4pairIKNSt7__cxx1112basic_stringIcSt11char_traitsIcESaIcEEEmELb1EEEEED2Ev(ptr noundef nonnull align 1 dereferenceable(1) %this1) #3
  ret void

terminate.lpad:                                   ; preds = %entry
  %0 = landingpad { ptr, i32 }
          catch ptr null
  %1 = extractvalue { ptr, i32 } %0, 0
  call void @__clang_call_terminate(ptr %1) #15
  unreachable
}

; Function Attrs: mustprogress nounwind uwtable
define linkonce_odr void @_ZNSt10_HashtableINSt7__cxx1112basic_stringIcSt11char_traitsIcESaIcEEESt4pairIKS5_mESaIS8_ENSt8__detail10_Select1stESt8equal_toIS5_ESt4hashIS5_ENSA_18_Mod_range_hashingENSA_20_Default_ranged_hashENSA_20_Prime_rehash_policyENSA_17_Hashtable_traitsILb1ELb0ELb1EEEE5clearEv(ptr noundef nonnull align 8 dereferenceable(56) %this) #1 comdat align 2 personality ptr @__gxx_personality_v0 {
entry:
  %this.addr = alloca ptr, align 8
  store ptr %this, ptr %this.addr, align 8
  %this1 = load ptr, ptr %this.addr, align 8
  %call = invoke noundef ptr @_ZNKSt10_HashtableINSt7__cxx1112basic_stringIcSt11char_traitsIcESaIcEEESt4pairIKS5_mESaIS8_ENSt8__detail10_Select1stESt8equal_toIS5_ESt4hashIS5_ENSA_18_Mod_range_hashingENSA_20_Default_ranged_hashENSA_20_Prime_rehash_policyENSA_17_Hashtable_traitsILb1ELb0ELb1EEEE8_M_beginEv(ptr noundef nonnull align 8 dereferenceable(56) %this1)
          to label %invoke.cont unwind label %terminate.lpad

invoke.cont:                                      ; preds = %entry
  invoke void @_ZNSt8__detail16_Hashtable_allocISaINS_10_Hash_nodeISt4pairIKNSt7__cxx1112basic_stringIcSt11char_traitsIcESaIcEEEmELb1EEEEE19_M_deallocate_nodesEPSB_(ptr noundef nonnull align 1 dereferenceable(1) %this1, ptr noundef %call)
          to label %invoke.cont2 unwind label %terminate.lpad

invoke.cont2:                                     ; preds = %invoke.cont
  %_M_buckets = getelementptr inbounds %"class.std::_Hashtable", ptr %this1, i32 0, i32 0
  %0 = load ptr, ptr %_M_buckets, align 8
  %_M_bucket_count = getelementptr inbounds %"class.std::_Hashtable", ptr %this1, i32 0, i32 1
  %1 = load i64, ptr %_M_bucket_count, align 8
  %mul = mul i64 %1, 8
  call void @llvm.memset.p0.i64(ptr align 8 %0, i8 0, i64 %mul, i1 false)
  %_M_element_count = getelementptr inbounds %"class.std::_Hashtable", ptr %this1, i32 0, i32 3
  store i64 0, ptr %_M_element_count, align 8
  %_M_before_begin = getelementptr inbounds %"class.std::_Hashtable", ptr %this1, i32 0, i32 2
  %_M_nxt = getelementptr inbounds %"struct.std::__detail::_Hash_node_base", ptr %_M_before_begin, i32 0, i32 0
  store ptr null, ptr %_M_nxt, align 8
  ret void

terminate.lpad:                                   ; preds = %invoke.cont, %entry
  %2 = landingpad { ptr, i32 }
          catch ptr null
  %3 = extractvalue { ptr, i32 } %2, 0
  call void @__clang_call_terminate(ptr %3) #15
  unreachable
}

; Function Attrs: mustprogress uwtable
define linkonce_odr void @_ZNSt10_HashtableINSt7__cxx1112basic_stringIcSt11char_traitsIcESaIcEEESt4pairIKS5_mESaIS8_ENSt8__detail10_Select1stESt8equal_toIS5_ESt4hashIS5_ENSA_18_Mod_range_hashingENSA_20_Default_ranged_hashENSA_20_Prime_rehash_policyENSA_17_Hashtable_traitsILb1ELb0ELb1EEEE21_M_deallocate_bucketsEv(ptr noundef nonnull align 8 dereferenceable(56) %this) #0 comdat align 2 {
entry:
  %this.addr = alloca ptr, align 8
  store ptr %this, ptr %this.addr, align 8
  %this1 = load ptr, ptr %this.addr, align 8
  %_M_buckets = getelementptr inbounds %"class.std::_Hashtable", ptr %this1, i32 0, i32 0
  %0 = load ptr, ptr %_M_buckets, align 8
  %_M_bucket_count = getelementptr inbounds %"class.std::_Hashtable", ptr %this1, i32 0, i32 1
  %1 = load i64, ptr %_M_bucket_count, align 8
  call void @_ZNSt10_HashtableINSt7__cxx1112basic_stringIcSt11char_traitsIcESaIcEEESt4pairIKS5_mESaIS8_ENSt8__detail10_Select1stESt8equal_toIS5_ESt4hashIS5_ENSA_18_Mod_range_hashingENSA_20_Default_ranged_hashENSA_20_Prime_rehash_policyENSA_17_Hashtable_traitsILb1ELb0ELb1EEEE21_M_deallocate_bucketsEPPNSA_15_Hash_node_baseEm(ptr noundef nonnull align 8 dereferenceable(56) %this1, ptr noundef %0, i64 noundef %1)
  ret void
}

; Function Attrs: mustprogress nounwind uwtable
define linkonce_odr void @_ZNSt8__detail16_Hashtable_allocISaINS_10_Hash_nodeISt4pairIKNSt7__cxx1112basic_stringIcSt11char_traitsIcESaIcEEEmELb1EEEEED2Ev(ptr noundef nonnull align 1 dereferenceable(1) %this) unnamed_addr #1 comdat align 2 {
entry:
  %this.addr = alloca ptr, align 8
  store ptr %this, ptr %this.addr, align 8
  %this1 = load ptr, ptr %this.addr, align 8
  call void @_ZNSt8__detail21_Hashtable_ebo_helperILi0ESaINS_10_Hash_nodeISt4pairIKNSt7__cxx1112basic_stringIcSt11char_traitsIcESaIcEEEmELb1EEEELb1EED2Ev(ptr noundef nonnull align 1 dereferenceable(1) %this1) #3
  ret void
}

; Function Attrs: mustprogress uwtable
define linkonce_odr void @_ZNSt8__detail16_Hashtable_allocISaINS_10_Hash_nodeISt4pairIKNSt7__cxx1112basic_stringIcSt11char_traitsIcESaIcEEEmELb1EEEEE19_M_deallocate_nodesEPSB_(ptr noundef nonnull align 1 dereferenceable(1) %this, ptr noundef %__n) #0 comdat align 2 {
entry:
  %this.addr = alloca ptr, align 8
  %__n.addr = alloca ptr, align 8
  %__tmp = alloca ptr, align 8
  store ptr %this, ptr %this.addr, align 8
  store ptr %__n, ptr %__n.addr, align 8
  %this1 = load ptr, ptr %this.addr, align 8
  br label %while.cond

while.cond:                                       ; preds = %while.body, %entry
  %0 = load ptr, ptr %__n.addr, align 8
  %tobool = icmp ne ptr %0, null
  br i1 %tobool, label %while.body, label %while.end

while.body:                                       ; preds = %while.cond
  %1 = load ptr, ptr %__n.addr, align 8
  store ptr %1, ptr %__tmp, align 8
  %2 = load ptr, ptr %__n.addr, align 8
  %call = call noundef ptr @_ZNKSt8__detail10_Hash_nodeISt4pairIKNSt7__cxx1112basic_stringIcSt11char_traitsIcESaIcEEEmELb1EE7_M_nextEv(ptr noundef nonnull align 8 dereferenceable(56) %2) #3
  store ptr %call, ptr %__n.addr, align 8
  %3 = load ptr, ptr %__tmp, align 8
  call void @_ZNSt8__detail16_Hashtable_allocISaINS_10_Hash_nodeISt4pairIKNSt7__cxx1112basic_stringIcSt11char_traitsIcESaIcEEEmELb1EEEEE18_M_deallocate_nodeEPSB_(ptr noundef nonnull align 1 dereferenceable(1) %this1, ptr noundef %3)
  br label %while.cond, !llvm.loop !12

while.end:                                        ; preds = %while.cond
  ret void
}

; Function Attrs: mustprogress nounwind uwtable
define linkonce_odr noundef ptr @_ZNKSt10_HashtableINSt7__cxx1112basic_stringIcSt11char_traitsIcESaIcEEESt4pairIKS5_mESaIS8_ENSt8__detail10_Select1stESt8equal_toIS5_ESt4hashIS5_ENSA_18_Mod_range_hashingENSA_20_Default_ranged_hashENSA_20_Prime_rehash_policyENSA_17_Hashtable_traitsILb1ELb0ELb1EEEE8_M_beginEv(ptr noundef nonnull align 8 dereferenceable(56) %this) #1 comdat align 2 {
entry:
  %this.addr = alloca ptr, align 8
  store ptr %this, ptr %this.addr, align 8
  %this1 = load ptr, ptr %this.addr, align 8
  %_M_before_begin = getelementptr inbounds %"class.std::_Hashtable", ptr %this1, i32 0, i32 2
  %_M_nxt = getelementptr inbounds %"struct.std::__detail::_Hash_node_base", ptr %_M_before_begin, i32 0, i32 0
  %0 = load ptr, ptr %_M_nxt, align 8
  ret ptr %0
}

; Function Attrs: mustprogress nounwind uwtable
define linkonce_odr noundef ptr @_ZNKSt8__detail10_Hash_nodeISt4pairIKNSt7__cxx1112basic_stringIcSt11char_traitsIcESaIcEEEmELb1EE7_M_nextEv(ptr noundef nonnull align 8 dereferenceable(56) %this) #1 comdat align 2 {
entry:
  %this.addr = alloca ptr, align 8
  store ptr %this, ptr %this.addr, align 8
  %this1 = load ptr, ptr %this.addr, align 8
  %_M_nxt = getelementptr inbounds %"struct.std::__detail::_Hash_node_base", ptr %this1, i32 0, i32 0
  %0 = load ptr, ptr %_M_nxt, align 8
  ret ptr %0
}

; Function Attrs: mustprogress uwtable
define linkonce_odr void @_ZNSt8__detail16_Hashtable_allocISaINS_10_Hash_nodeISt4pairIKNSt7__cxx1112basic_stringIcSt11char_traitsIcESaIcEEEmELb1EEEEE18_M_deallocate_nodeEPSB_(ptr noundef nonnull align 1 dereferenceable(1) %this, ptr noundef %__n) #0 comdat align 2 {
entry:
  %this.addr = alloca ptr, align 8
  %__n.addr = alloca ptr, align 8
  store ptr %this, ptr %this.addr, align 8
  store ptr %__n, ptr %__n.addr, align 8
  %this1 = load ptr, ptr %this.addr, align 8
  %call = call noundef nonnull align 1 dereferenceable(1) ptr @_ZNSt8__detail16_Hashtable_allocISaINS_10_Hash_nodeISt4pairIKNSt7__cxx1112basic_stringIcSt11char_traitsIcESaIcEEEmELb1EEEEE17_M_node_allocatorEv(ptr noundef nonnull align 1 dereferenceable(1) %this1)
  %0 = load ptr, ptr %__n.addr, align 8
  %add.ptr = getelementptr inbounds i8, ptr %0, i64 8
  %call2 = call noundef ptr @_ZNSt8__detail21_Hash_node_value_baseISt4pairIKNSt7__cxx1112basic_stringIcSt11char_traitsIcESaIcEEEmEE9_M_valptrEv(ptr noundef nonnull align 8 dereferenceable(40) %add.ptr) #3
  call void @_ZNSt16allocator_traitsISaINSt8__detail10_Hash_nodeISt4pairIKNSt7__cxx1112basic_stringIcSt11char_traitsIcESaIcEEEmELb1EEEEE7destroyISA_EEvRSC_PT_(ptr noundef nonnull align 1 dereferenceable(1) %call, ptr noundef %call2) #3
  %1 = load ptr, ptr %__n.addr, align 8
  call void @_ZNSt8__detail16_Hashtable_allocISaINS_10_Hash_nodeISt4pairIKNSt7__cxx1112basic_stringIcSt11char_traitsIcESaIcEEEmELb1EEEEE22_M_deallocate_node_ptrEPSB_(ptr noundef nonnull align 1 dereferenceable(1) %this1, ptr noundef %1)
  ret void
}

; Function Attrs: mustprogress nounwind uwtable
define linkonce_odr void @_ZNSt16allocator_traitsISaINSt8__detail10_Hash_nodeISt4pairIKNSt7__cxx1112basic_stringIcSt11char_traitsIcESaIcEEEmELb1EEEEE7destroyISA_EEvRSC_PT_(ptr noundef nonnull align 1 dereferenceable(1) %__a, ptr noundef %__p) #1 comdat align 2 {
entry:
  %__a.addr = alloca ptr, align 8
  %__p.addr = alloca ptr, align 8
  store ptr %__a, ptr %__a.addr, align 8
  store ptr %__p, ptr %__p.addr, align 8
  %0 = load ptr, ptr %__a.addr, align 8
  %1 = load ptr, ptr %__p.addr, align 8
  call void @_ZNSt15__new_allocatorINSt8__detail10_Hash_nodeISt4pairIKNSt7__cxx1112basic_stringIcSt11char_traitsIcESaIcEEEmELb1EEEE7destroyISA_EEvPT_(ptr noundef nonnull align 1 dereferenceable(1) %0, ptr noundef %1) #3
  ret void
}

; Function Attrs: mustprogress uwtable
define linkonce_odr noundef nonnull align 1 dereferenceable(1) ptr @_ZNSt8__detail16_Hashtable_allocISaINS_10_Hash_nodeISt4pairIKNSt7__cxx1112basic_stringIcSt11char_traitsIcESaIcEEEmELb1EEEEE17_M_node_allocatorEv(ptr noundef nonnull align 1 dereferenceable(1) %this) #0 comdat align 2 {
entry:
  %this.addr = alloca ptr, align 8
  store ptr %this, ptr %this.addr, align 8
  %this1 = load ptr, ptr %this.addr, align 8
  %call = call noundef nonnull align 1 dereferenceable(1) ptr @_ZNSt8__detail21_Hashtable_ebo_helperILi0ESaINS_10_Hash_nodeISt4pairIKNSt7__cxx1112basic_stringIcSt11char_traitsIcESaIcEEEmELb1EEEELb1EE6_M_getEv(ptr noundef nonnull align 1 dereferenceable(1) %this1)
  ret ptr %call
}

; Function Attrs: mustprogress nounwind uwtable
define linkonce_odr noundef ptr @_ZNSt8__detail21_Hash_node_value_baseISt4pairIKNSt7__cxx1112basic_stringIcSt11char_traitsIcESaIcEEEmEE9_M_valptrEv(ptr noundef nonnull align 8 dereferenceable(40) %this) #1 comdat align 2 {
entry:
  %this.addr = alloca ptr, align 8
  store ptr %this, ptr %this.addr, align 8
  %this1 = load ptr, ptr %this.addr, align 8
  %_M_storage = getelementptr inbounds %"struct.std::__detail::_Hash_node_value_base", ptr %this1, i32 0, i32 0
  %call = call noundef ptr @_ZN9__gnu_cxx16__aligned_bufferISt4pairIKNSt7__cxx1112basic_stringIcSt11char_traitsIcESaIcEEEmEE6_M_ptrEv(ptr noundef nonnull align 8 dereferenceable(40) %_M_storage) #3
  ret ptr %call
}

; Function Attrs: mustprogress uwtable
define linkonce_odr void @_ZNSt8__detail16_Hashtable_allocISaINS_10_Hash_nodeISt4pairIKNSt7__cxx1112basic_stringIcSt11char_traitsIcESaIcEEEmELb1EEEEE22_M_deallocate_node_ptrEPSB_(ptr noundef nonnull align 1 dereferenceable(1) %this, ptr noundef %__n) #0 comdat align 2 {
entry:
  %this.addr = alloca ptr, align 8
  %__n.addr = alloca ptr, align 8
  %__ptr = alloca ptr, align 8
  store ptr %this, ptr %this.addr, align 8
  store ptr %__n, ptr %__n.addr, align 8
  %this1 = load ptr, ptr %this.addr, align 8
  %0 = load ptr, ptr %__n.addr, align 8
  %call = call noundef ptr @_ZNSt19__ptr_traits_ptr_toIPNSt8__detail10_Hash_nodeISt4pairIKNSt7__cxx1112basic_stringIcSt11char_traitsIcESaIcEEEmELb1EEESB_Lb0EE10pointer_toERSB_(ptr noundef nonnull align 8 dereferenceable(56) %0) #3
  store ptr %call, ptr %__ptr, align 8
  %call2 = call noundef nonnull align 1 dereferenceable(1) ptr @_ZNSt8__detail16_Hashtable_allocISaINS_10_Hash_nodeISt4pairIKNSt7__cxx1112basic_stringIcSt11char_traitsIcESaIcEEEmELb1EEEEE17_M_node_allocatorEv(ptr noundef nonnull align 1 dereferenceable(1) %this1)
  %1 = load ptr, ptr %__ptr, align 8
  call void @_ZNSt16allocator_traitsISaINSt8__detail10_Hash_nodeISt4pairIKNSt7__cxx1112basic_stringIcSt11char_traitsIcESaIcEEEmELb1EEEEE10deallocateERSC_PSB_m(ptr noundef nonnull align 1 dereferenceable(1) %call2, ptr noundef %1, i64 noundef 1)
  ret void
}

; Function Attrs: mustprogress nounwind uwtable
define linkonce_odr void @_ZNSt15__new_allocatorINSt8__detail10_Hash_nodeISt4pairIKNSt7__cxx1112basic_stringIcSt11char_traitsIcESaIcEEEmELb1EEEE7destroyISA_EEvPT_(ptr noundef nonnull align 1 dereferenceable(1) %this, ptr noundef %__p) #1 comdat align 2 {
entry:
  %this.addr = alloca ptr, align 8
  %__p.addr = alloca ptr, align 8
  store ptr %this, ptr %this.addr, align 8
  store ptr %__p, ptr %__p.addr, align 8
  %0 = load ptr, ptr %__p.addr, align 8
  call void @_ZNSt4pairIKNSt7__cxx1112basic_stringIcSt11char_traitsIcESaIcEEEmED2Ev(ptr noundef nonnull align 8 dereferenceable(40) %0) #3
  ret void
}

; Function Attrs: mustprogress nounwind uwtable
define linkonce_odr void @_ZNSt4pairIKNSt7__cxx1112basic_stringIcSt11char_traitsIcESaIcEEEmED2Ev(ptr noundef nonnull align 8 dereferenceable(40) %this) unnamed_addr #1 comdat align 2 {
entry:
  %this.addr = alloca ptr, align 8
  store ptr %this, ptr %this.addr, align 8
  %this1 = load ptr, ptr %this.addr, align 8
  %first = getelementptr inbounds %"struct.std::pair", ptr %this1, i32 0, i32 0
  call void @_ZNSt7__cxx1112basic_stringIcSt11char_traitsIcESaIcEED1Ev(ptr noundef nonnull align 8 dereferenceable(32) %first) #3
  ret void
}

; Function Attrs: mustprogress nounwind uwtable
define linkonce_odr noundef nonnull align 1 dereferenceable(1) ptr @_ZNSt8__detail21_Hashtable_ebo_helperILi0ESaINS_10_Hash_nodeISt4pairIKNSt7__cxx1112basic_stringIcSt11char_traitsIcESaIcEEEmELb1EEEELb1EE6_M_getEv(ptr noundef nonnull align 1 dereferenceable(1) %this) #1 comdat align 2 {
entry:
  %this.addr = alloca ptr, align 8
  store ptr %this, ptr %this.addr, align 8
  %this1 = load ptr, ptr %this.addr, align 8
  ret ptr %this1
}

; Function Attrs: mustprogress nounwind uwtable
define linkonce_odr noundef ptr @_ZN9__gnu_cxx16__aligned_bufferISt4pairIKNSt7__cxx1112basic_stringIcSt11char_traitsIcESaIcEEEmEE6_M_ptrEv(ptr noundef nonnull align 8 dereferenceable(40) %this) #1 comdat align 2 {
entry:
  %this.addr = alloca ptr, align 8
  store ptr %this, ptr %this.addr, align 8
  %this1 = load ptr, ptr %this.addr, align 8
  %call = call noundef ptr @_ZN9__gnu_cxx16__aligned_bufferISt4pairIKNSt7__cxx1112basic_stringIcSt11char_traitsIcESaIcEEEmEE7_M_addrEv(ptr noundef nonnull align 8 dereferenceable(40) %this1) #3
  ret ptr %call
}

; Function Attrs: mustprogress nounwind uwtable
define linkonce_odr noundef ptr @_ZN9__gnu_cxx16__aligned_bufferISt4pairIKNSt7__cxx1112basic_stringIcSt11char_traitsIcESaIcEEEmEE7_M_addrEv(ptr noundef nonnull align 8 dereferenceable(40) %this) #1 comdat align 2 {
entry:
  %this.addr = alloca ptr, align 8
  store ptr %this, ptr %this.addr, align 8
  %this1 = load ptr, ptr %this.addr, align 8
  %_M_storage = getelementptr inbounds %"struct.__gnu_cxx::__aligned_buffer", ptr %this1, i32 0, i32 0
  ret ptr %_M_storage
}

; Function Attrs: mustprogress nounwind uwtable
define linkonce_odr noundef ptr @_ZNSt19__ptr_traits_ptr_toIPNSt8__detail10_Hash_nodeISt4pairIKNSt7__cxx1112basic_stringIcSt11char_traitsIcESaIcEEEmELb1EEESB_Lb0EE10pointer_toERSB_(ptr noundef nonnull align 8 dereferenceable(56) %__r) #1 comdat align 2 {
entry:
  %__r.addr = alloca ptr, align 8
  store ptr %__r, ptr %__r.addr, align 8
  %0 = load ptr, ptr %__r.addr, align 8
  ret ptr %0
}

; Function Attrs: mustprogress uwtable
define linkonce_odr void @_ZNSt16allocator_traitsISaINSt8__detail10_Hash_nodeISt4pairIKNSt7__cxx1112basic_stringIcSt11char_traitsIcESaIcEEEmELb1EEEEE10deallocateERSC_PSB_m(ptr noundef nonnull align 1 dereferenceable(1) %__a, ptr noundef %__p, i64 noundef %__n) #0 comdat align 2 {
entry:
  %__a.addr = alloca ptr, align 8
  %__p.addr = alloca ptr, align 8
  %__n.addr = alloca i64, align 8
  store ptr %__a, ptr %__a.addr, align 8
  store ptr %__p, ptr %__p.addr, align 8
  store i64 %__n, ptr %__n.addr, align 8
  %0 = load ptr, ptr %__a.addr, align 8
  %1 = load ptr, ptr %__p.addr, align 8
  %2 = load i64, ptr %__n.addr, align 8
  call void @_ZNSt15__new_allocatorINSt8__detail10_Hash_nodeISt4pairIKNSt7__cxx1112basic_stringIcSt11char_traitsIcESaIcEEEmELb1EEEE10deallocateEPSB_m(ptr noundef nonnull align 1 dereferenceable(1) %0, ptr noundef %1, i64 noundef %2)
  ret void
}

; Function Attrs: mustprogress nounwind uwtable
define linkonce_odr void @_ZNSt15__new_allocatorINSt8__detail10_Hash_nodeISt4pairIKNSt7__cxx1112basic_stringIcSt11char_traitsIcESaIcEEEmELb1EEEE10deallocateEPSB_m(ptr noundef nonnull align 1 dereferenceable(1) %this, ptr noundef %__p, i64 noundef %__n) #1 comdat align 2 {
entry:
  %this.addr = alloca ptr, align 8
  %__p.addr = alloca ptr, align 8
  %__n.addr = alloca i64, align 8
  store ptr %this, ptr %this.addr, align 8
  store ptr %__p, ptr %__p.addr, align 8
  store i64 %__n, ptr %__n.addr, align 8
  %0 = load ptr, ptr %__p.addr, align 8
  call void @_ZdlPv(ptr noundef %0) #16
  ret void
}

; Function Attrs: mustprogress uwtable
define linkonce_odr void @_ZNSt10_HashtableINSt7__cxx1112basic_stringIcSt11char_traitsIcESaIcEEESt4pairIKS5_mESaIS8_ENSt8__detail10_Select1stESt8equal_toIS5_ESt4hashIS5_ENSA_18_Mod_range_hashingENSA_20_Default_ranged_hashENSA_20_Prime_rehash_policyENSA_17_Hashtable_traitsILb1ELb0ELb1EEEE21_M_deallocate_bucketsEPPNSA_15_Hash_node_baseEm(ptr noundef nonnull align 8 dereferenceable(56) %this, ptr noundef %__bkts, i64 noundef %__bkt_count) #0 comdat align 2 {
entry:
  %this.addr = alloca ptr, align 8
  %__bkts.addr = alloca ptr, align 8
  %__bkt_count.addr = alloca i64, align 8
  store ptr %this, ptr %this.addr, align 8
  store ptr %__bkts, ptr %__bkts.addr, align 8
  store i64 %__bkt_count, ptr %__bkt_count.addr, align 8
  %this1 = load ptr, ptr %this.addr, align 8
  %0 = load ptr, ptr %__bkts.addr, align 8
  %call = call noundef zeroext i1 @_ZNKSt10_HashtableINSt7__cxx1112basic_stringIcSt11char_traitsIcESaIcEEESt4pairIKS5_mESaIS8_ENSt8__detail10_Select1stESt8equal_toIS5_ESt4hashIS5_ENSA_18_Mod_range_hashingENSA_20_Default_ranged_hashENSA_20_Prime_rehash_policyENSA_17_Hashtable_traitsILb1ELb0ELb1EEEE21_M_uses_single_bucketEPPNSA_15_Hash_node_baseE(ptr noundef nonnull align 8 dereferenceable(56) %this1, ptr noundef %0)
  br i1 %call, label %if.then, label %if.end

if.then:                                          ; preds = %entry
  br label %return

if.end:                                           ; preds = %entry
  %1 = load ptr, ptr %__bkts.addr, align 8
  %2 = load i64, ptr %__bkt_count.addr, align 8
  call void @_ZNSt8__detail16_Hashtable_allocISaINS_10_Hash_nodeISt4pairIKNSt7__cxx1112basic_stringIcSt11char_traitsIcESaIcEEEmELb1EEEEE21_M_deallocate_bucketsEPPNS_15_Hash_node_baseEm(ptr noundef nonnull align 1 dereferenceable(1) %this1, ptr noundef %1, i64 noundef %2)
  br label %return

return:                                           ; preds = %if.end, %if.then
  ret void
}

; Function Attrs: mustprogress nounwind uwtable
define linkonce_odr noundef zeroext i1 @_ZNKSt10_HashtableINSt7__cxx1112basic_stringIcSt11char_traitsIcESaIcEEESt4pairIKS5_mESaIS8_ENSt8__detail10_Select1stESt8equal_toIS5_ESt4hashIS5_ENSA_18_Mod_range_hashingENSA_20_Default_ranged_hashENSA_20_Prime_rehash_policyENSA_17_Hashtable_traitsILb1ELb0ELb1EEEE21_M_uses_single_bucketEPPNSA_15_Hash_node_baseE(ptr noundef nonnull align 8 dereferenceable(56) %this, ptr noundef %__bkts) #1 comdat align 2 {
entry:
  %this.addr = alloca ptr, align 8
  %__bkts.addr = alloca ptr, align 8
  store ptr %this, ptr %this.addr, align 8
  store ptr %__bkts, ptr %__bkts.addr, align 8
  %this1 = load ptr, ptr %this.addr, align 8
  %0 = load ptr, ptr %__bkts.addr, align 8
  %_M_single_bucket = getelementptr inbounds %"class.std::_Hashtable", ptr %this1, i32 0, i32 5
  %cmp = icmp eq ptr %0, %_M_single_bucket
  ret i1 %cmp
}

; Function Attrs: mustprogress uwtable
define linkonce_odr void @_ZNSt8__detail16_Hashtable_allocISaINS_10_Hash_nodeISt4pairIKNSt7__cxx1112basic_stringIcSt11char_traitsIcESaIcEEEmELb1EEEEE21_M_deallocate_bucketsEPPNS_15_Hash_node_baseEm(ptr noundef nonnull align 1 dereferenceable(1) %this, ptr noundef %__bkts, i64 noundef %__bkt_count) #0 comdat align 2 personality ptr @__gxx_personality_v0 {
entry:
  %this.addr = alloca ptr, align 8
  %__bkts.addr = alloca ptr, align 8
  %__bkt_count.addr = alloca i64, align 8
  %__ptr = alloca ptr, align 8
  %__alloc = alloca %"class.std::allocator.292", align 1
  %exn.slot = alloca ptr, align 8
  %ehselector.slot = alloca i32, align 4
  store ptr %this, ptr %this.addr, align 8
  store ptr %__bkts, ptr %__bkts.addr, align 8
  store i64 %__bkt_count, ptr %__bkt_count.addr, align 8
  %this1 = load ptr, ptr %this.addr, align 8
  %0 = load ptr, ptr %__bkts.addr, align 8
  %call = call noundef ptr @_ZNSt19__ptr_traits_ptr_toIPPNSt8__detail15_Hash_node_baseES2_Lb0EE10pointer_toERS2_(ptr noundef nonnull align 8 dereferenceable(8) %0) #3
  store ptr %call, ptr %__ptr, align 8
  %call2 = call noundef nonnull align 1 dereferenceable(1) ptr @_ZNSt8__detail16_Hashtable_allocISaINS_10_Hash_nodeISt4pairIKNSt7__cxx1112basic_stringIcSt11char_traitsIcESaIcEEEmELb1EEEEE17_M_node_allocatorEv(ptr noundef nonnull align 1 dereferenceable(1) %this1)
  call void @_ZNSaIPNSt8__detail15_Hash_node_baseEEC2INS_10_Hash_nodeISt4pairIKNSt7__cxx1112basic_stringIcSt11char_traitsIcESaIcEEEmELb1EEEEERKSaIT_E(ptr noundef nonnull align 1 dereferenceable(1) %__alloc, ptr noundef nonnull align 1 dereferenceable(1) %call2) #3
  %1 = load ptr, ptr %__ptr, align 8
  %2 = load i64, ptr %__bkt_count.addr, align 8
  invoke void @_ZNSt16allocator_traitsISaIPNSt8__detail15_Hash_node_baseEEE10deallocateERS3_PS2_m(ptr noundef nonnull align 1 dereferenceable(1) %__alloc, ptr noundef %1, i64 noundef %2)
          to label %invoke.cont unwind label %lpad

invoke.cont:                                      ; preds = %entry
  call void @_ZNSaIPNSt8__detail15_Hash_node_baseEED2Ev(ptr noundef nonnull align 1 dereferenceable(1) %__alloc) #3
  ret void

lpad:                                             ; preds = %entry
  %3 = landingpad { ptr, i32 }
          cleanup
  %4 = extractvalue { ptr, i32 } %3, 0
  store ptr %4, ptr %exn.slot, align 8
  %5 = extractvalue { ptr, i32 } %3, 1
  store i32 %5, ptr %ehselector.slot, align 4
  call void @_ZNSaIPNSt8__detail15_Hash_node_baseEED2Ev(ptr noundef nonnull align 1 dereferenceable(1) %__alloc) #3
  br label %eh.resume

eh.resume:                                        ; preds = %lpad
  %exn = load ptr, ptr %exn.slot, align 8
  %sel = load i32, ptr %ehselector.slot, align 4
  %lpad.val = insertvalue { ptr, i32 } poison, ptr %exn, 0
  %lpad.val3 = insertvalue { ptr, i32 } %lpad.val, i32 %sel, 1
  resume { ptr, i32 } %lpad.val3
}

; Function Attrs: mustprogress nounwind uwtable
define linkonce_odr noundef ptr @_ZNSt19__ptr_traits_ptr_toIPPNSt8__detail15_Hash_node_baseES2_Lb0EE10pointer_toERS2_(ptr noundef nonnull align 8 dereferenceable(8) %__r) #1 comdat align 2 {
entry:
  %__r.addr = alloca ptr, align 8
  store ptr %__r, ptr %__r.addr, align 8
  %0 = load ptr, ptr %__r.addr, align 8
  ret ptr %0
}

; Function Attrs: mustprogress nounwind uwtable
define linkonce_odr void @_ZNSaIPNSt8__detail15_Hash_node_baseEEC2INS_10_Hash_nodeISt4pairIKNSt7__cxx1112basic_stringIcSt11char_traitsIcESaIcEEEmELb1EEEEERKSaIT_E(ptr noundef nonnull align 1 dereferenceable(1) %this, ptr noundef nonnull align 1 dereferenceable(1) %0) unnamed_addr #1 comdat align 2 {
entry:
  %this.addr = alloca ptr, align 8
  %.addr = alloca ptr, align 8
  store ptr %this, ptr %this.addr, align 8
  store ptr %0, ptr %.addr, align 8
  %this1 = load ptr, ptr %this.addr, align 8
  call void @_ZNSt15__new_allocatorIPNSt8__detail15_Hash_node_baseEEC2Ev(ptr noundef nonnull align 1 dereferenceable(1) %this1) #3
  ret void
}

; Function Attrs: mustprogress uwtable
define linkonce_odr void @_ZNSt16allocator_traitsISaIPNSt8__detail15_Hash_node_baseEEE10deallocateERS3_PS2_m(ptr noundef nonnull align 1 dereferenceable(1) %__a, ptr noundef %__p, i64 noundef %__n) #0 comdat align 2 {
entry:
  %__a.addr = alloca ptr, align 8
  %__p.addr = alloca ptr, align 8
  %__n.addr = alloca i64, align 8
  store ptr %__a, ptr %__a.addr, align 8
  store ptr %__p, ptr %__p.addr, align 8
  store i64 %__n, ptr %__n.addr, align 8
  %0 = load ptr, ptr %__a.addr, align 8
  %1 = load ptr, ptr %__p.addr, align 8
  %2 = load i64, ptr %__n.addr, align 8
  call void @_ZNSt15__new_allocatorIPNSt8__detail15_Hash_node_baseEE10deallocateEPS2_m(ptr noundef nonnull align 1 dereferenceable(1) %0, ptr noundef %1, i64 noundef %2)
  ret void
}

; Function Attrs: mustprogress nounwind uwtable
define linkonce_odr void @_ZNSaIPNSt8__detail15_Hash_node_baseEED2Ev(ptr noundef nonnull align 1 dereferenceable(1) %this) unnamed_addr #1 comdat align 2 {
entry:
  %this.addr = alloca ptr, align 8
  store ptr %this, ptr %this.addr, align 8
  %this1 = load ptr, ptr %this.addr, align 8
  call void @_ZNSt15__new_allocatorIPNSt8__detail15_Hash_node_baseEED2Ev(ptr noundef nonnull align 1 dereferenceable(1) %this1) #3
  ret void
}

; Function Attrs: mustprogress nounwind uwtable
define linkonce_odr void @_ZNSt15__new_allocatorIPNSt8__detail15_Hash_node_baseEEC2Ev(ptr noundef nonnull align 1 dereferenceable(1) %this) unnamed_addr #1 comdat align 2 {
entry:
  %this.addr = alloca ptr, align 8
  store ptr %this, ptr %this.addr, align 8
  ret void
}

; Function Attrs: mustprogress nounwind uwtable
define linkonce_odr void @_ZNSt15__new_allocatorIPNSt8__detail15_Hash_node_baseEE10deallocateEPS2_m(ptr noundef nonnull align 1 dereferenceable(1) %this, ptr noundef %__p, i64 noundef %__n) #1 comdat align 2 {
entry:
  %this.addr = alloca ptr, align 8
  %__p.addr = alloca ptr, align 8
  %__n.addr = alloca i64, align 8
  store ptr %this, ptr %this.addr, align 8
  store ptr %__p, ptr %__p.addr, align 8
  store i64 %__n, ptr %__n.addr, align 8
  %0 = load ptr, ptr %__p.addr, align 8
  call void @_ZdlPv(ptr noundef %0) #16
  ret void
}

; Function Attrs: mustprogress nounwind uwtable
define linkonce_odr void @_ZNSt15__new_allocatorIPNSt8__detail15_Hash_node_baseEED2Ev(ptr noundef nonnull align 1 dereferenceable(1) %this) unnamed_addr #1 comdat align 2 {
entry:
  %this.addr = alloca ptr, align 8
  store ptr %this, ptr %this.addr, align 8
  ret void
}

; Function Attrs: mustprogress nounwind uwtable
define linkonce_odr void @_ZNSt8__detail21_Hashtable_ebo_helperILi0ESaINS_10_Hash_nodeISt4pairIKNSt7__cxx1112basic_stringIcSt11char_traitsIcESaIcEEEmELb1EEEELb1EED2Ev(ptr noundef nonnull align 1 dereferenceable(1) %this) unnamed_addr #1 comdat align 2 {
entry:
  %this.addr = alloca ptr, align 8
  store ptr %this, ptr %this.addr, align 8
  %this1 = load ptr, ptr %this.addr, align 8
  call void @_ZNSaINSt8__detail10_Hash_nodeISt4pairIKNSt7__cxx1112basic_stringIcSt11char_traitsIcESaIcEEEmELb1EEEED2Ev(ptr noundef nonnull align 1 dereferenceable(1) %this1) #3
  ret void
}

; Function Attrs: mustprogress nounwind uwtable
define linkonce_odr void @_ZNSt15__new_allocatorINSt8__detail10_Hash_nodeISt4pairIKNSt7__cxx1112basic_stringIcSt11char_traitsIcESaIcEEEmELb1EEEED2Ev(ptr noundef nonnull align 1 dereferenceable(1) %this) unnamed_addr #1 comdat align 2 {
entry:
  %this.addr = alloca ptr, align 8
  store ptr %this, ptr %this.addr, align 8
  ret void
}

; Function Attrs: mustprogress nounwind uwtable
define linkonce_odr void @_ZNSt12__shared_ptrIN7rocksdb6LoggerELN9__gnu_cxx12_Lock_policyE2EED2Ev(ptr noundef nonnull align 8 dereferenceable(16) %this) unnamed_addr #1 comdat align 2 {
entry:
  %this.addr = alloca ptr, align 8
  store ptr %this, ptr %this.addr, align 8
  %this1 = load ptr, ptr %this.addr, align 8
  %_M_refcount = getelementptr inbounds %"class.std::__shared_ptr.4", ptr %this1, i32 0, i32 1
  call void @_ZNSt14__shared_countILN9__gnu_cxx12_Lock_policyE2EED2Ev(ptr noundef nonnull align 8 dereferenceable(8) %_M_refcount) #3
  ret void
}

; Function Attrs: mustprogress nounwind uwtable
define linkonce_odr void @_ZNSt14__shared_countILN9__gnu_cxx12_Lock_policyE2EED2Ev(ptr noundef nonnull align 8 dereferenceable(8) %this) unnamed_addr #1 comdat align 2 {
entry:
  %this.addr = alloca ptr, align 8
  store ptr %this, ptr %this.addr, align 8
  %this1 = load ptr, ptr %this.addr, align 8
  %_M_pi = getelementptr inbounds %"class.std::__shared_count", ptr %this1, i32 0, i32 0
  %0 = load ptr, ptr %_M_pi, align 8
  %cmp = icmp ne ptr %0, null
  br i1 %cmp, label %if.then, label %if.end

if.then:                                          ; preds = %entry
  %_M_pi2 = getelementptr inbounds %"class.std::__shared_count", ptr %this1, i32 0, i32 0
  %1 = load ptr, ptr %_M_pi2, align 8
  call void @_ZNSt16_Sp_counted_baseILN9__gnu_cxx12_Lock_policyE2EE10_M_releaseEv(ptr noundef nonnull align 8 dereferenceable(16) %1) #3
  br label %if.end

if.end:                                           ; preds = %if.then, %entry
  ret void
}

; Function Attrs: mustprogress nounwind uwtable
define linkonce_odr void @_ZNSt16_Sp_counted_baseILN9__gnu_cxx12_Lock_policyE2EE10_M_releaseEv(ptr noundef nonnull align 8 dereferenceable(16) %this) #1 comdat align 2 personality ptr @__gxx_personality_v0 {
entry:
  %__mem.addr.i11 = alloca ptr, align 8
  %__val.addr.i12 = alloca i32, align 4
  %.atomictmp.i = alloca i32, align 4
  %atomic-temp.i = alloca i32, align 4
  %__mem.addr.i9 = alloca ptr, align 8
  %__val.addr.i10 = alloca i32, align 4
  %__result.i = alloca i32, align 4
  %retval.i = alloca i32, align 4
  %__mem.addr.i = alloca ptr, align 8
  %__val.addr.i = alloca i32, align 4
  %this.addr = alloca ptr, align 8
  %__lock_free = alloca i8, align 1
  %__double_word = alloca i8, align 1
  %__aligned = alloca i8, align 1
  %__wordbits = alloca i32, align 4
  %__shiftbits = alloca i32, align 4
  %__unique_ref = alloca i64, align 8
  %__both_counts = alloca ptr, align 8
  %atomic-temp = alloca i64, align 8
  store ptr %this, ptr %this.addr, align 8
  %this1 = load ptr, ptr %this.addr, align 8
  store i8 1, ptr %__lock_free, align 1
  store i8 1, ptr %__double_word, align 1
  store i8 1, ptr %__aligned, align 1
  store i32 32, ptr %__wordbits, align 4
  store i32 32, ptr %__shiftbits, align 4
  store i64 4294967297, ptr %__unique_ref, align 8
  %_M_use_count = getelementptr inbounds %"class.std::_Sp_counted_base", ptr %this1, i32 0, i32 1
  store ptr %_M_use_count, ptr %__both_counts, align 8
  %0 = load ptr, ptr %__both_counts, align 8
  %1 = load atomic i64, ptr %0 acquire, align 8
  store i64 %1, ptr %atomic-temp, align 8
  %2 = load i64, ptr %atomic-temp, align 8
  %cmp = icmp eq i64 %2, 4294967297
  br i1 %cmp, label %if.then, label %if.end

if.then:                                          ; preds = %entry
  %_M_use_count2 = getelementptr inbounds %"class.std::_Sp_counted_base", ptr %this1, i32 0, i32 1
  store i32 0, ptr %_M_use_count2, align 8
  %_M_weak_count = getelementptr inbounds %"class.std::_Sp_counted_base", ptr %this1, i32 0, i32 2
  store i32 0, ptr %_M_weak_count, align 4
  %vtable = load ptr, ptr %this1, align 8
  %vfn = getelementptr inbounds ptr, ptr %vtable, i64 2
  %3 = load ptr, ptr %vfn, align 8
  call void %3(ptr noundef nonnull align 8 dereferenceable(16) %this1) #3
  %vtable3 = load ptr, ptr %this1, align 8
  %vfn4 = getelementptr inbounds ptr, ptr %vtable3, i64 3
  %4 = load ptr, ptr %vfn4, align 8
  call void %4(ptr noundef nonnull align 8 dereferenceable(16) %this1) #3
  br label %if.end8

if.end:                                           ; preds = %entry
  %_M_use_count5 = getelementptr inbounds %"class.std::_Sp_counted_base", ptr %this1, i32 0, i32 1
  store ptr %_M_use_count5, ptr %__mem.addr.i, align 8
  store i32 -1, ptr %__val.addr.i, align 4
  %5 = load i8, ptr @__libc_single_threaded, align 1
  %tobool.i.i = icmp ne i8 %5, 0
  br i1 %tobool.i.i, label %if.then.i, label %if.else.i

if.then.i:                                        ; preds = %if.end
  %6 = load ptr, ptr %__mem.addr.i, align 8
  %7 = load i32, ptr %__val.addr.i, align 4
  store ptr %6, ptr %__mem.addr.i9, align 8
  store i32 %7, ptr %__val.addr.i10, align 4
  %8 = load ptr, ptr %__mem.addr.i9, align 8
  %9 = load i32, ptr %8, align 4
  store i32 %9, ptr %__result.i, align 4
  %10 = load i32, ptr %__val.addr.i10, align 4
  %11 = load ptr, ptr %__mem.addr.i9, align 8
  %12 = load i32, ptr %11, align 4
  %add.i = add nsw i32 %12, %10
  store i32 %add.i, ptr %11, align 4
  %13 = load i32, ptr %__result.i, align 4
  store i32 %13, ptr %retval.i, align 4
  br label %_ZN9__gnu_cxx27__exchange_and_add_dispatchEPii.exit

if.else.i:                                        ; preds = %if.end
  %14 = load ptr, ptr %__mem.addr.i, align 8
  %15 = load i32, ptr %__val.addr.i, align 4
  store ptr %14, ptr %__mem.addr.i11, align 8
  store i32 %15, ptr %__val.addr.i12, align 4
  %16 = load ptr, ptr %__mem.addr.i11, align 8
  %17 = load i32, ptr %__val.addr.i12, align 4
  store i32 %17, ptr %.atomictmp.i, align 4
  %18 = load i32, ptr %.atomictmp.i, align 4
  %19 = atomicrmw volatile add ptr %16, i32 %18 acq_rel, align 4
  store i32 %19, ptr %atomic-temp.i, align 4
  %20 = load i32, ptr %atomic-temp.i, align 4
  store i32 %20, ptr %retval.i, align 4
  br label %_ZN9__gnu_cxx27__exchange_and_add_dispatchEPii.exit

_ZN9__gnu_cxx27__exchange_and_add_dispatchEPii.exit: ; preds = %if.else.i, %if.then.i
  %21 = load i32, ptr %retval.i, align 4
  br label %invoke.cont

invoke.cont:                                      ; preds = %_ZN9__gnu_cxx27__exchange_and_add_dispatchEPii.exit
  %cmp6 = icmp eq i32 %21, 1
  br i1 %cmp6, label %if.then7, label %if.end8

if.then7:                                         ; preds = %invoke.cont
  call void @_ZNSt16_Sp_counted_baseILN9__gnu_cxx12_Lock_policyE2EE24_M_release_last_use_coldEv(ptr noundef nonnull align 8 dereferenceable(16) %this1) #3
  br label %if.end8

if.end8:                                          ; preds = %if.then7, %invoke.cont, %if.then
  ret void

terminate.lpad:                                   ; No predecessors!
  %22 = landingpad { ptr, i32 }
          catch ptr null
  %23 = extractvalue { ptr, i32 } %22, 0
  call void @__clang_call_terminate(ptr %23) #15
  unreachable
}

; Function Attrs: mustprogress nounwind uwtable
define linkonce_odr void @_ZNSt16_Sp_counted_baseILN9__gnu_cxx12_Lock_policyE2EE24_M_release_last_use_coldEv(ptr noundef nonnull align 8 dereferenceable(16) %this) #1 comdat align 2 {
entry:
  %this.addr = alloca ptr, align 8
  store ptr %this, ptr %this.addr, align 8
  %this1 = load ptr, ptr %this.addr, align 8
  call void @_ZNSt16_Sp_counted_baseILN9__gnu_cxx12_Lock_policyE2EE19_M_release_last_useEv(ptr noundef nonnull align 8 dereferenceable(16) %this1) #3
  ret void
}

; Function Attrs: mustprogress nounwind uwtable
define linkonce_odr void @_ZNSt16_Sp_counted_baseILN9__gnu_cxx12_Lock_policyE2EE19_M_release_last_useEv(ptr noundef nonnull align 8 dereferenceable(16) %this) #1 comdat align 2 personality ptr @__gxx_personality_v0 {
entry:
  %__mem.addr.i6 = alloca ptr, align 8
  %__val.addr.i7 = alloca i32, align 4
  %.atomictmp.i = alloca i32, align 4
  %atomic-temp.i = alloca i32, align 4
  %__mem.addr.i4 = alloca ptr, align 8
  %__val.addr.i5 = alloca i32, align 4
  %__result.i = alloca i32, align 4
  %retval.i = alloca i32, align 4
  %__mem.addr.i = alloca ptr, align 8
  %__val.addr.i = alloca i32, align 4
  %this.addr = alloca ptr, align 8
  store ptr %this, ptr %this.addr, align 8
  %this1 = load ptr, ptr %this.addr, align 8
  %vtable = load ptr, ptr %this1, align 8
  %vfn = getelementptr inbounds ptr, ptr %vtable, i64 2
  %0 = load ptr, ptr %vfn, align 8
  call void %0(ptr noundef nonnull align 8 dereferenceable(16) %this1) #3
  %_M_weak_count = getelementptr inbounds %"class.std::_Sp_counted_base", ptr %this1, i32 0, i32 2
  store ptr %_M_weak_count, ptr %__mem.addr.i, align 8
  store i32 -1, ptr %__val.addr.i, align 4
  %1 = load i8, ptr @__libc_single_threaded, align 1
  %tobool.i.i = icmp ne i8 %1, 0
  br i1 %tobool.i.i, label %if.then.i, label %if.else.i

if.then.i:                                        ; preds = %entry
  %2 = load ptr, ptr %__mem.addr.i, align 8
  %3 = load i32, ptr %__val.addr.i, align 4
  store ptr %2, ptr %__mem.addr.i4, align 8
  store i32 %3, ptr %__val.addr.i5, align 4
  %4 = load ptr, ptr %__mem.addr.i4, align 8
  %5 = load i32, ptr %4, align 4
  store i32 %5, ptr %__result.i, align 4
  %6 = load i32, ptr %__val.addr.i5, align 4
  %7 = load ptr, ptr %__mem.addr.i4, align 8
  %8 = load i32, ptr %7, align 4
  %add.i = add nsw i32 %8, %6
  store i32 %add.i, ptr %7, align 4
  %9 = load i32, ptr %__result.i, align 4
  store i32 %9, ptr %retval.i, align 4
  br label %_ZN9__gnu_cxx27__exchange_and_add_dispatchEPii.exit

if.else.i:                                        ; preds = %entry
  %10 = load ptr, ptr %__mem.addr.i, align 8
  %11 = load i32, ptr %__val.addr.i, align 4
  store ptr %10, ptr %__mem.addr.i6, align 8
  store i32 %11, ptr %__val.addr.i7, align 4
  %12 = load ptr, ptr %__mem.addr.i6, align 8
  %13 = load i32, ptr %__val.addr.i7, align 4
  store i32 %13, ptr %.atomictmp.i, align 4
  %14 = load i32, ptr %.atomictmp.i, align 4
  %15 = atomicrmw volatile add ptr %12, i32 %14 acq_rel, align 4
  store i32 %15, ptr %atomic-temp.i, align 4
  %16 = load i32, ptr %atomic-temp.i, align 4
  store i32 %16, ptr %retval.i, align 4
  br label %_ZN9__gnu_cxx27__exchange_and_add_dispatchEPii.exit

_ZN9__gnu_cxx27__exchange_and_add_dispatchEPii.exit: ; preds = %if.else.i, %if.then.i
  %17 = load i32, ptr %retval.i, align 4
  br label %invoke.cont

invoke.cont:                                      ; preds = %_ZN9__gnu_cxx27__exchange_and_add_dispatchEPii.exit
  %cmp = icmp eq i32 %17, 1
  br i1 %cmp, label %if.then, label %if.end

if.then:                                          ; preds = %invoke.cont
  %vtable2 = load ptr, ptr %this1, align 8
  %vfn3 = getelementptr inbounds ptr, ptr %vtable2, i64 3
  %18 = load ptr, ptr %vfn3, align 8
  call void %18(ptr noundef nonnull align 8 dereferenceable(16) %this1) #3
  br label %if.end

if.end:                                           ; preds = %if.then, %invoke.cont
  ret void

terminate.lpad:                                   ; No predecessors!
  %19 = landingpad { ptr, i32 }
          catch ptr null
  %20 = extractvalue { ptr, i32 } %19, 0
  call void @__clang_call_terminate(ptr %20) #15
  unreachable
}

; Function Attrs: mustprogress nounwind uwtable
define linkonce_odr void @_ZNSt12__shared_ptrIN7rocksdb10FileSystemELN9__gnu_cxx12_Lock_policyE2EED2Ev(ptr noundef nonnull align 8 dereferenceable(16) %this) unnamed_addr #1 comdat align 2 {
entry:
  %this.addr = alloca ptr, align 8
  store ptr %this, ptr %this.addr, align 8
  %this1 = load ptr, ptr %this.addr, align 8
  %_M_refcount = getelementptr inbounds %"class.std::__shared_ptr.1", ptr %this1, i32 0, i32 1
  call void @_ZNSt14__shared_countILN9__gnu_cxx12_Lock_policyE2EED2Ev(ptr noundef nonnull align 8 dereferenceable(8) %_M_refcount) #3
  ret void
}

; Function Attrs: mustprogress nounwind uwtable
define linkonce_odr void @_ZNSt12__shared_ptrIN7rocksdb11SystemClockELN9__gnu_cxx12_Lock_policyE2EED2Ev(ptr noundef nonnull align 8 dereferenceable(16) %this) unnamed_addr #1 comdat align 2 {
entry:
  %this.addr = alloca ptr, align 8
  store ptr %this, ptr %this.addr, align 8
  %this1 = load ptr, ptr %this.addr, align 8
  %_M_refcount = getelementptr inbounds %"class.std::__shared_ptr", ptr %this1, i32 0, i32 1
  call void @_ZNSt14__shared_countILN9__gnu_cxx12_Lock_policyE2EED2Ev(ptr noundef nonnull align 8 dereferenceable(8) %_M_refcount) #3
  ret void
}

; Function Attrs: mustprogress nounwind uwtable
define linkonce_odr void @_ZNK7rocksdb6Status11MarkCheckedEv(ptr noundef nonnull align 8 dereferenceable(16) %this) #1 comdat align 2 {
entry:
  %this.addr = alloca ptr, align 8
  store ptr %this, ptr %this.addr, align 8
  ret void
}

; Function Attrs: mustprogress nounwind uwtable
define linkonce_odr void @_ZNSt12__shared_ptrIN7rocksdb10StatisticsELN9__gnu_cxx12_Lock_policyE2EED2Ev(ptr noundef nonnull align 8 dereferenceable(16) %this) unnamed_addr #1 comdat align 2 {
entry:
  %this.addr = alloca ptr, align 8
  store ptr %this, ptr %this.addr, align 8
  %this1 = load ptr, ptr %this.addr, align 8
  %_M_refcount = getelementptr inbounds %"class.std::__shared_ptr.23", ptr %this1, i32 0, i32 1
  call void @_ZNSt14__shared_countILN9__gnu_cxx12_Lock_policyE2EED2Ev(ptr noundef nonnull align 8 dereferenceable(8) %_M_refcount) #3
  ret void
}

; Function Attrs: mustprogress nounwind uwtable
define linkonce_odr void @_ZNSt7__cxx1110_List_baseIPN7rocksdb12ErrorHandlerESaIS3_EED2Ev(ptr noundef nonnull align 8 dereferenceable(24) %this) unnamed_addr #1 comdat align 2 {
entry:
  %this.addr = alloca ptr, align 8
  store ptr %this, ptr %this.addr, align 8
  %this1 = load ptr, ptr %this.addr, align 8
  call void @_ZNSt7__cxx1110_List_baseIPN7rocksdb12ErrorHandlerESaIS3_EE8_M_clearEv(ptr noundef nonnull align 8 dereferenceable(24) %this1) #3
  %_M_impl = getelementptr inbounds %"class.std::__cxx11::_List_base", ptr %this1, i32 0, i32 0
  call void @_ZNSt7__cxx1110_List_baseIPN7rocksdb12ErrorHandlerESaIS3_EE10_List_implD2Ev(ptr noundef nonnull align 8 dereferenceable(24) %_M_impl) #3
  ret void
}

; Function Attrs: mustprogress nounwind uwtable
define linkonce_odr void @_ZNSt7__cxx1110_List_baseIPN7rocksdb12ErrorHandlerESaIS3_EE8_M_clearEv(ptr noundef nonnull align 8 dereferenceable(24) %this) #1 comdat align 2 personality ptr @__gxx_personality_v0 {
entry:
  %this.addr = alloca ptr, align 8
  %__cur = alloca ptr, align 8
  %__tmp = alloca ptr, align 8
  %__val = alloca ptr, align 8
  store ptr %this, ptr %this.addr, align 8
  %this1 = load ptr, ptr %this.addr, align 8
  %_M_impl = getelementptr inbounds %"class.std::__cxx11::_List_base", ptr %this1, i32 0, i32 0
  %_M_node = getelementptr inbounds %"struct.std::__cxx11::_List_base<rocksdb::ErrorHandler *, std::allocator<rocksdb::ErrorHandler *>>::_List_impl", ptr %_M_impl, i32 0, i32 0
  %_M_next = getelementptr inbounds %"struct.std::__detail::_List_node_base", ptr %_M_node, i32 0, i32 0
  %0 = load ptr, ptr %_M_next, align 8
  store ptr %0, ptr %__cur, align 8
  br label %while.cond

while.cond:                                       ; preds = %invoke.cont, %entry
  %1 = load ptr, ptr %__cur, align 8
  %_M_impl2 = getelementptr inbounds %"class.std::__cxx11::_List_base", ptr %this1, i32 0, i32 0
  %_M_node3 = getelementptr inbounds %"struct.std::__cxx11::_List_base<rocksdb::ErrorHandler *, std::allocator<rocksdb::ErrorHandler *>>::_List_impl", ptr %_M_impl2, i32 0, i32 0
  %cmp = icmp ne ptr %1, %_M_node3
  br i1 %cmp, label %while.body, label %while.end

while.body:                                       ; preds = %while.cond
  %2 = load ptr, ptr %__cur, align 8
  store ptr %2, ptr %__tmp, align 8
  %3 = load ptr, ptr %__tmp, align 8
  %_M_next4 = getelementptr inbounds %"struct.std::__detail::_List_node_base", ptr %3, i32 0, i32 0
  %4 = load ptr, ptr %_M_next4, align 8
  store ptr %4, ptr %__cur, align 8
  %5 = load ptr, ptr %__tmp, align 8
  %call = invoke noundef ptr @_ZNSt10_List_nodeIPN7rocksdb12ErrorHandlerEE9_M_valptrEv(ptr noundef nonnull align 8 dereferenceable(24) %5)
          to label %invoke.cont unwind label %terminate.lpad

invoke.cont:                                      ; preds = %while.body
  store ptr %call, ptr %__val, align 8
  %call5 = call noundef nonnull align 1 dereferenceable(1) ptr @_ZNSt7__cxx1110_List_baseIPN7rocksdb12ErrorHandlerESaIS3_EE21_M_get_Node_allocatorEv(ptr noundef nonnull align 8 dereferenceable(24) %this1) #3
  %6 = load ptr, ptr %__val, align 8
  call void @_ZNSt16allocator_traitsISaISt10_List_nodeIPN7rocksdb12ErrorHandlerEEEE7destroyIS3_EEvRS5_PT_(ptr noundef nonnull align 1 dereferenceable(1) %call5, ptr noundef %6) #3
  %7 = load ptr, ptr %__tmp, align 8
  call void @_ZNSt7__cxx1110_List_baseIPN7rocksdb12ErrorHandlerESaIS3_EE11_M_put_nodeEPSt10_List_nodeIS3_E(ptr noundef nonnull align 8 dereferenceable(24) %this1, ptr noundef %7) #3
  br label %while.cond, !llvm.loop !13

while.end:                                        ; preds = %while.cond
  ret void

terminate.lpad:                                   ; preds = %while.body
  %8 = landingpad { ptr, i32 }
          catch ptr null
  %9 = extractvalue { ptr, i32 } %8, 0
  call void @__clang_call_terminate(ptr %9) #15
  unreachable
}

; Function Attrs: mustprogress nounwind uwtable
define linkonce_odr void @_ZNSt7__cxx1110_List_baseIPN7rocksdb12ErrorHandlerESaIS3_EE10_List_implD2Ev(ptr noundef nonnull align 8 dereferenceable(24) %this) unnamed_addr #1 comdat align 2 {
entry:
  %this.addr = alloca ptr, align 8
  store ptr %this, ptr %this.addr, align 8
  %this1 = load ptr, ptr %this.addr, align 8
  call void @_ZNSaISt10_List_nodeIPN7rocksdb12ErrorHandlerEEED2Ev(ptr noundef nonnull align 1 dereferenceable(1) %this1) #3
  ret void
}

; Function Attrs: mustprogress nounwind uwtable
define linkonce_odr noundef ptr @_ZNSt10_List_nodeIPN7rocksdb12ErrorHandlerEE9_M_valptrEv(ptr noundef nonnull align 8 dereferenceable(24) %this) #1 comdat align 2 {
entry:
  %this.addr = alloca ptr, align 8
  store ptr %this, ptr %this.addr, align 8
  %this1 = load ptr, ptr %this.addr, align 8
  %_M_storage = getelementptr inbounds %"struct.std::_List_node", ptr %this1, i32 0, i32 1
  %call = call noundef ptr @_ZN9__gnu_cxx16__aligned_membufIPN7rocksdb12ErrorHandlerEE6_M_ptrEv(ptr noundef nonnull align 8 dereferenceable(8) %_M_storage) #3
  ret ptr %call
}

; Function Attrs: mustprogress nounwind uwtable
define linkonce_odr void @_ZNSt16allocator_traitsISaISt10_List_nodeIPN7rocksdb12ErrorHandlerEEEE7destroyIS3_EEvRS5_PT_(ptr noundef nonnull align 1 dereferenceable(1) %__a, ptr noundef %__p) #1 comdat align 2 {
entry:
  %__a.addr = alloca ptr, align 8
  %__p.addr = alloca ptr, align 8
  store ptr %__a, ptr %__a.addr, align 8
  store ptr %__p, ptr %__p.addr, align 8
  %0 = load ptr, ptr %__a.addr, align 8
  %1 = load ptr, ptr %__p.addr, align 8
  call void @_ZNSt15__new_allocatorISt10_List_nodeIPN7rocksdb12ErrorHandlerEEE7destroyIS3_EEvPT_(ptr noundef nonnull align 1 dereferenceable(1) %0, ptr noundef %1) #3
  ret void
}

; Function Attrs: mustprogress nounwind uwtable
define linkonce_odr noundef nonnull align 1 dereferenceable(1) ptr @_ZNSt7__cxx1110_List_baseIPN7rocksdb12ErrorHandlerESaIS3_EE21_M_get_Node_allocatorEv(ptr noundef nonnull align 8 dereferenceable(24) %this) #1 comdat align 2 {
entry:
  %this.addr = alloca ptr, align 8
  store ptr %this, ptr %this.addr, align 8
  %this1 = load ptr, ptr %this.addr, align 8
  %_M_impl = getelementptr inbounds %"class.std::__cxx11::_List_base", ptr %this1, i32 0, i32 0
  ret ptr %_M_impl
}

; Function Attrs: mustprogress nounwind uwtable
define linkonce_odr void @_ZNSt7__cxx1110_List_baseIPN7rocksdb12ErrorHandlerESaIS3_EE11_M_put_nodeEPSt10_List_nodeIS3_E(ptr noundef nonnull align 8 dereferenceable(24) %this, ptr noundef %__p) #1 comdat align 2 personality ptr @__gxx_personality_v0 {
entry:
  %this.addr = alloca ptr, align 8
  %__p.addr = alloca ptr, align 8
  store ptr %this, ptr %this.addr, align 8
  store ptr %__p, ptr %__p.addr, align 8
  %this1 = load ptr, ptr %this.addr, align 8
  %_M_impl = getelementptr inbounds %"class.std::__cxx11::_List_base", ptr %this1, i32 0, i32 0
  %0 = load ptr, ptr %__p.addr, align 8
  invoke void @_ZNSt16allocator_traitsISaISt10_List_nodeIPN7rocksdb12ErrorHandlerEEEE10deallocateERS5_PS4_m(ptr noundef nonnull align 1 dereferenceable(1) %_M_impl, ptr noundef %0, i64 noundef 1)
          to label %invoke.cont unwind label %terminate.lpad

invoke.cont:                                      ; preds = %entry
  ret void

terminate.lpad:                                   ; preds = %entry
  %1 = landingpad { ptr, i32 }
          catch ptr null
  %2 = extractvalue { ptr, i32 } %1, 0
  call void @__clang_call_terminate(ptr %2) #15
  unreachable
}

; Function Attrs: mustprogress nounwind uwtable
define linkonce_odr noundef ptr @_ZN9__gnu_cxx16__aligned_membufIPN7rocksdb12ErrorHandlerEE6_M_ptrEv(ptr noundef nonnull align 8 dereferenceable(8) %this) #1 comdat align 2 {
entry:
  %this.addr = alloca ptr, align 8
  store ptr %this, ptr %this.addr, align 8
  %this1 = load ptr, ptr %this.addr, align 8
  %call = call noundef ptr @_ZN9__gnu_cxx16__aligned_membufIPN7rocksdb12ErrorHandlerEE7_M_addrEv(ptr noundef nonnull align 8 dereferenceable(8) %this1) #3
  ret ptr %call
}

; Function Attrs: mustprogress nounwind uwtable
define linkonce_odr noundef ptr @_ZN9__gnu_cxx16__aligned_membufIPN7rocksdb12ErrorHandlerEE7_M_addrEv(ptr noundef nonnull align 8 dereferenceable(8) %this) #1 comdat align 2 {
entry:
  %this.addr = alloca ptr, align 8
  store ptr %this, ptr %this.addr, align 8
  %this1 = load ptr, ptr %this.addr, align 8
  %_M_storage = getelementptr inbounds %"struct.__gnu_cxx::__aligned_membuf", ptr %this1, i32 0, i32 0
  ret ptr %_M_storage
}

; Function Attrs: mustprogress nounwind uwtable
define linkonce_odr void @_ZNSt15__new_allocatorISt10_List_nodeIPN7rocksdb12ErrorHandlerEEE7destroyIS3_EEvPT_(ptr noundef nonnull align 1 dereferenceable(1) %this, ptr noundef %__p) #1 comdat align 2 {
entry:
  %this.addr = alloca ptr, align 8
  %__p.addr = alloca ptr, align 8
  store ptr %this, ptr %this.addr, align 8
  store ptr %__p, ptr %__p.addr, align 8
  ret void
}

; Function Attrs: mustprogress uwtable
define linkonce_odr void @_ZNSt16allocator_traitsISaISt10_List_nodeIPN7rocksdb12ErrorHandlerEEEE10deallocateERS5_PS4_m(ptr noundef nonnull align 1 dereferenceable(1) %__a, ptr noundef %__p, i64 noundef %__n) #0 comdat align 2 {
entry:
  %__a.addr = alloca ptr, align 8
  %__p.addr = alloca ptr, align 8
  %__n.addr = alloca i64, align 8
  store ptr %__a, ptr %__a.addr, align 8
  store ptr %__p, ptr %__p.addr, align 8
  store i64 %__n, ptr %__n.addr, align 8
  %0 = load ptr, ptr %__a.addr, align 8
  %1 = load ptr, ptr %__p.addr, align 8
  %2 = load i64, ptr %__n.addr, align 8
  call void @_ZNSt15__new_allocatorISt10_List_nodeIPN7rocksdb12ErrorHandlerEEE10deallocateEPS4_m(ptr noundef nonnull align 1 dereferenceable(1) %0, ptr noundef %1, i64 noundef %2)
  ret void
}

; Function Attrs: mustprogress nounwind uwtable
define linkonce_odr void @_ZNSt15__new_allocatorISt10_List_nodeIPN7rocksdb12ErrorHandlerEEE10deallocateEPS4_m(ptr noundef nonnull align 1 dereferenceable(1) %this, ptr noundef %__p, i64 noundef %__n) #1 comdat align 2 {
entry:
  %this.addr = alloca ptr, align 8
  %__p.addr = alloca ptr, align 8
  %__n.addr = alloca i64, align 8
  store ptr %this, ptr %this.addr, align 8
  store ptr %__p, ptr %__p.addr, align 8
  store i64 %__n, ptr %__n.addr, align 8
  %0 = load ptr, ptr %__p.addr, align 8
  call void @_ZdlPv(ptr noundef %0) #16
  ret void
}

; Function Attrs: mustprogress nounwind uwtable
define linkonce_odr void @_ZNSaISt10_List_nodeIPN7rocksdb12ErrorHandlerEEED2Ev(ptr noundef nonnull align 1 dereferenceable(1) %this) unnamed_addr #1 comdat align 2 {
entry:
  %this.addr = alloca ptr, align 8
  store ptr %this, ptr %this.addr, align 8
  %this1 = load ptr, ptr %this.addr, align 8
  call void @_ZNSt15__new_allocatorISt10_List_nodeIPN7rocksdb12ErrorHandlerEEED2Ev(ptr noundef nonnull align 1 dereferenceable(1) %this1) #3
  ret void
}

; Function Attrs: mustprogress nounwind uwtable
define linkonce_odr void @_ZNSt15__new_allocatorISt10_List_nodeIPN7rocksdb12ErrorHandlerEEED2Ev(ptr noundef nonnull align 1 dereferenceable(1) %this) unnamed_addr #1 comdat align 2 {
entry:
  %this.addr = alloca ptr, align 8
  store ptr %this, ptr %this.addr, align 8
  ret void
}

; Function Attrs: mustprogress nounwind uwtable
define linkonce_odr void @_ZNSt10unique_ptrIA_KcSt14default_deleteIS1_EED2Ev(ptr noundef nonnull align 8 dereferenceable(8) %this) unnamed_addr #1 comdat align 2 personality ptr @__gxx_personality_v0 {
entry:
  %this.addr = alloca ptr, align 8
  %__ptr = alloca ptr, align 8
  store ptr %this, ptr %this.addr, align 8
  %this1 = load ptr, ptr %this.addr, align 8
  %_M_t = getelementptr inbounds %"class.std::unique_ptr.28", ptr %this1, i32 0, i32 0
  %call = call noundef nonnull align 8 dereferenceable(8) ptr @_ZNSt15__uniq_ptr_implIKcSt14default_deleteIA_S0_EE6_M_ptrEv(ptr noundef nonnull align 8 dereferenceable(8) %_M_t) #3
  store ptr %call, ptr %__ptr, align 8
  %0 = load ptr, ptr %__ptr, align 8
  %1 = load ptr, ptr %0, align 8
  %cmp = icmp ne ptr %1, null
  br i1 %cmp, label %if.then, label %if.end

if.then:                                          ; preds = %entry
  %call2 = call noundef nonnull align 1 dereferenceable(1) ptr @_ZNSt10unique_ptrIA_KcSt14default_deleteIS1_EE11get_deleterEv(ptr noundef nonnull align 8 dereferenceable(8) %this1) #3
  %2 = load ptr, ptr %__ptr, align 8
  %3 = load ptr, ptr %2, align 8
  invoke void @_ZNKSt14default_deleteIA_KcEclIS0_EENSt9enable_ifIXsr14is_convertibleIPA_T_PS1_EE5valueEvE4typeEPS5_(ptr noundef nonnull align 1 dereferenceable(1) %call2, ptr noundef %3)
          to label %invoke.cont unwind label %terminate.lpad

invoke.cont:                                      ; preds = %if.then
  br label %if.end

if.end:                                           ; preds = %invoke.cont, %entry
  %4 = load ptr, ptr %__ptr, align 8
  store ptr null, ptr %4, align 8
  ret void

terminate.lpad:                                   ; preds = %if.then
  %5 = landingpad { ptr, i32 }
          catch ptr null
  %6 = extractvalue { ptr, i32 } %5, 0
  call void @__clang_call_terminate(ptr %6) #15
  unreachable
}

; Function Attrs: mustprogress nounwind uwtable
define linkonce_odr noundef nonnull align 8 dereferenceable(8) ptr @_ZNSt15__uniq_ptr_implIKcSt14default_deleteIA_S0_EE6_M_ptrEv(ptr noundef nonnull align 8 dereferenceable(8) %this) #1 comdat align 2 {
entry:
  %this.addr = alloca ptr, align 8
  store ptr %this, ptr %this.addr, align 8
  %this1 = load ptr, ptr %this.addr, align 8
  %_M_t = getelementptr inbounds %"class.std::__uniq_ptr_impl.30", ptr %this1, i32 0, i32 0
  %call = call noundef nonnull align 8 dereferenceable(8) ptr @_ZSt3getILm0EJPKcSt14default_deleteIA_S0_EEERNSt13tuple_elementIXT_ESt5tupleIJDpT0_EEE4typeERS9_(ptr noundef nonnull align 8 dereferenceable(8) %_M_t) #3
  ret ptr %call
}

; Function Attrs: mustprogress nounwind uwtable
define linkonce_odr noundef nonnull align 1 dereferenceable(1) ptr @_ZNSt10unique_ptrIA_KcSt14default_deleteIS1_EE11get_deleterEv(ptr noundef nonnull align 8 dereferenceable(8) %this) #1 comdat align 2 {
entry:
  %this.addr = alloca ptr, align 8
  store ptr %this, ptr %this.addr, align 8
  %this1 = load ptr, ptr %this.addr, align 8
  %_M_t = getelementptr inbounds %"class.std::unique_ptr.28", ptr %this1, i32 0, i32 0
  %call = call noundef nonnull align 1 dereferenceable(1) ptr @_ZNSt15__uniq_ptr_implIKcSt14default_deleteIA_S0_EE10_M_deleterEv(ptr noundef nonnull align 8 dereferenceable(8) %_M_t) #3
  ret ptr %call
}

; Function Attrs: mustprogress nounwind uwtable
define linkonce_odr void @_ZNKSt14default_deleteIA_KcEclIS0_EENSt9enable_ifIXsr14is_convertibleIPA_T_PS1_EE5valueEvE4typeEPS5_(ptr noundef nonnull align 1 dereferenceable(1) %this, ptr noundef %__ptr) #1 comdat align 2 {
entry:
  %this.addr = alloca ptr, align 8
  %__ptr.addr = alloca ptr, align 8
  store ptr %this, ptr %this.addr, align 8
  store ptr %__ptr, ptr %__ptr.addr, align 8
  %0 = load ptr, ptr %__ptr.addr, align 8
  %isnull = icmp eq ptr %0, null
  br i1 %isnull, label %delete.end, label %delete.notnull

delete.notnull:                                   ; preds = %entry
  call void @_ZdaPv(ptr noundef %0) #16
  br label %delete.end

delete.end:                                       ; preds = %delete.notnull, %entry
  ret void
}

; Function Attrs: mustprogress nounwind uwtable
define linkonce_odr noundef nonnull align 8 dereferenceable(8) ptr @_ZSt3getILm0EJPKcSt14default_deleteIA_S0_EEERNSt13tuple_elementIXT_ESt5tupleIJDpT0_EEE4typeERS9_(ptr noundef nonnull align 8 dereferenceable(8) %__t) #1 comdat {
entry:
  %__t.addr = alloca ptr, align 8
  store ptr %__t, ptr %__t.addr, align 8
  %0 = load ptr, ptr %__t.addr, align 8
  %call = call noundef nonnull align 8 dereferenceable(8) ptr @_ZSt12__get_helperILm0EPKcJSt14default_deleteIA_S0_EEERT0_RSt11_Tuple_implIXT_EJS5_DpT1_EE(ptr noundef nonnull align 8 dereferenceable(8) %0) #3
  ret ptr %call
}

; Function Attrs: mustprogress nounwind uwtable
define linkonce_odr noundef nonnull align 8 dereferenceable(8) ptr @_ZSt12__get_helperILm0EPKcJSt14default_deleteIA_S0_EEERT0_RSt11_Tuple_implIXT_EJS5_DpT1_EE(ptr noundef nonnull align 8 dereferenceable(8) %__t) #1 comdat {
entry:
  %__t.addr = alloca ptr, align 8
  store ptr %__t, ptr %__t.addr, align 8
  %0 = load ptr, ptr %__t.addr, align 8
  %call = call noundef nonnull align 8 dereferenceable(8) ptr @_ZNSt11_Tuple_implILm0EJPKcSt14default_deleteIA_S0_EEE7_M_headERS5_(ptr noundef nonnull align 8 dereferenceable(8) %0) #3
  ret ptr %call
}

; Function Attrs: mustprogress nounwind uwtable
define linkonce_odr noundef nonnull align 8 dereferenceable(8) ptr @_ZNSt11_Tuple_implILm0EJPKcSt14default_deleteIA_S0_EEE7_M_headERS5_(ptr noundef nonnull align 8 dereferenceable(8) %__t) #1 comdat align 2 {
entry:
  %__t.addr = alloca ptr, align 8
  store ptr %__t, ptr %__t.addr, align 8
  %0 = load ptr, ptr %__t.addr, align 8
  %call = call noundef nonnull align 8 dereferenceable(8) ptr @_ZNSt10_Head_baseILm0EPKcLb0EE7_M_headERS2_(ptr noundef nonnull align 8 dereferenceable(8) %0) #3
  ret ptr %call
}

; Function Attrs: mustprogress nounwind uwtable
define linkonce_odr noundef nonnull align 8 dereferenceable(8) ptr @_ZNSt10_Head_baseILm0EPKcLb0EE7_M_headERS2_(ptr noundef nonnull align 8 dereferenceable(8) %__b) #1 comdat align 2 {
entry:
  %__b.addr = alloca ptr, align 8
  store ptr %__b, ptr %__b.addr, align 8
  %0 = load ptr, ptr %__b.addr, align 8
  %_M_head_impl = getelementptr inbounds %"struct.std::_Head_base.35", ptr %0, i32 0, i32 0
  ret ptr %_M_head_impl
}

; Function Attrs: mustprogress nounwind uwtable
define linkonce_odr noundef nonnull align 1 dereferenceable(1) ptr @_ZNSt15__uniq_ptr_implIKcSt14default_deleteIA_S0_EE10_M_deleterEv(ptr noundef nonnull align 8 dereferenceable(8) %this) #1 comdat align 2 {
entry:
  %this.addr = alloca ptr, align 8
  store ptr %this, ptr %this.addr, align 8
  %this1 = load ptr, ptr %this.addr, align 8
  %_M_t = getelementptr inbounds %"class.std::__uniq_ptr_impl.30", ptr %this1, i32 0, i32 0
  %call = call noundef nonnull align 1 dereferenceable(1) ptr @_ZSt3getILm1EJPKcSt14default_deleteIA_S0_EEERNSt13tuple_elementIXT_ESt5tupleIJDpT0_EEE4typeERS9_(ptr noundef nonnull align 8 dereferenceable(8) %_M_t) #3
  ret ptr %call
}

; Function Attrs: mustprogress nounwind uwtable
define linkonce_odr noundef nonnull align 1 dereferenceable(1) ptr @_ZSt3getILm1EJPKcSt14default_deleteIA_S0_EEERNSt13tuple_elementIXT_ESt5tupleIJDpT0_EEE4typeERS9_(ptr noundef nonnull align 8 dereferenceable(8) %__t) #1 comdat {
entry:
  %__t.addr = alloca ptr, align 8
  store ptr %__t, ptr %__t.addr, align 8
  %0 = load ptr, ptr %__t.addr, align 8
  %call = call noundef nonnull align 1 dereferenceable(1) ptr @_ZSt12__get_helperILm1ESt14default_deleteIA_KcEJEERT0_RSt11_Tuple_implIXT_EJS4_DpT1_EE(ptr noundef nonnull align 1 dereferenceable(1) %0) #3
  ret ptr %call
}

; Function Attrs: mustprogress nounwind uwtable
define linkonce_odr noundef nonnull align 1 dereferenceable(1) ptr @_ZSt12__get_helperILm1ESt14default_deleteIA_KcEJEERT0_RSt11_Tuple_implIXT_EJS4_DpT1_EE(ptr noundef nonnull align 1 dereferenceable(1) %__t) #1 comdat {
entry:
  %__t.addr = alloca ptr, align 8
  store ptr %__t, ptr %__t.addr, align 8
  %0 = load ptr, ptr %__t.addr, align 8
  %call = call noundef nonnull align 1 dereferenceable(1) ptr @_ZNSt11_Tuple_implILm1EJSt14default_deleteIA_KcEEE7_M_headERS4_(ptr noundef nonnull align 1 dereferenceable(1) %0) #3
  ret ptr %call
}

; Function Attrs: mustprogress nounwind uwtable
define linkonce_odr noundef nonnull align 1 dereferenceable(1) ptr @_ZNSt11_Tuple_implILm1EJSt14default_deleteIA_KcEEE7_M_headERS4_(ptr noundef nonnull align 1 dereferenceable(1) %__t) #1 comdat align 2 {
entry:
  %__t.addr = alloca ptr, align 8
  store ptr %__t, ptr %__t.addr, align 8
  %0 = load ptr, ptr %__t.addr, align 8
  %call = call noundef nonnull align 1 dereferenceable(1) ptr @_ZNSt10_Head_baseILm1ESt14default_deleteIA_KcELb1EE7_M_headERS4_(ptr noundef nonnull align 1 dereferenceable(1) %0) #3
  ret ptr %call
}

; Function Attrs: mustprogress nounwind uwtable
define linkonce_odr noundef nonnull align 1 dereferenceable(1) ptr @_ZNSt10_Head_baseILm1ESt14default_deleteIA_KcELb1EE7_M_headERS4_(ptr noundef nonnull align 1 dereferenceable(1) %__b) #1 comdat align 2 {
entry:
  %__b.addr = alloca ptr, align 8
  store ptr %__b, ptr %__b.addr, align 8
  %0 = load ptr, ptr %__b.addr, align 8
  ret ptr %0
}

; Function Attrs: nobuiltin nounwind
declare void @_ZdaPv(ptr noundef) #7

; Function Attrs: mustprogress nounwind uwtable
define linkonce_odr void @_ZN7rocksdb9IOOptionsC2Eb(ptr noundef nonnull align 8 dereferenceable(83) %this, i1 noundef zeroext %force_dir_fsync_) unnamed_addr #1 comdat align 2 {
entry:
  %this.addr = alloca ptr, align 8
  %force_dir_fsync_.addr = alloca i8, align 1
  store ptr %this, ptr %this.addr, align 8
  %frombool = zext i1 %force_dir_fsync_ to i8
  store i8 %frombool, ptr %force_dir_fsync_.addr, align 1
  %this1 = load ptr, ptr %this.addr, align 8
  %timeout = getelementptr inbounds %"struct.rocksdb::IOOptions", ptr %this1, i32 0, i32 0
  %call = call i64 @_ZNSt6chrono8durationIlSt5ratioILl1ELl1000000EEE4zeroEv() #3
  %coerce.dive = getelementptr inbounds %"class.std::chrono::duration", ptr %timeout, i32 0, i32 0
  store i64 %call, ptr %coerce.dive, align 8
  %prio = getelementptr inbounds %"struct.rocksdb::IOOptions", ptr %this1, i32 0, i32 1
  store i8 0, ptr %prio, align 8
  %rate_limiter_priority = getelementptr inbounds %"struct.rocksdb::IOOptions", ptr %this1, i32 0, i32 3
  store i32 4, ptr %rate_limiter_priority, align 4
  %type = getelementptr inbounds %"struct.rocksdb::IOOptions", ptr %this1, i32 0, i32 4
  store i8 7, ptr %type, align 8
  %property_bag = getelementptr inbounds %"struct.rocksdb::IOOptions", ptr %this1, i32 0, i32 6
  call void @_ZNSt13unordered_mapINSt7__cxx1112basic_stringIcSt11char_traitsIcESaIcEEES5_St4hashIS5_ESt8equal_toIS5_ESaISt4pairIKS5_S5_EEEC2Ev(ptr noundef nonnull align 8 dereferenceable(56) %property_bag) #3
  %force_dir_fsync = getelementptr inbounds %"struct.rocksdb::IOOptions", ptr %this1, i32 0, i32 7
  %0 = load i8, ptr %force_dir_fsync_.addr, align 1
  %tobool = trunc i8 %0 to i1
  %frombool2 = zext i1 %tobool to i8
  store i8 %frombool2, ptr %force_dir_fsync, align 8
  %do_not_recurse = getelementptr inbounds %"struct.rocksdb::IOOptions", ptr %this1, i32 0, i32 8
  store i8 0, ptr %do_not_recurse, align 1
  %io_activity = getelementptr inbounds %"struct.rocksdb::IOOptions", ptr %this1, i32 0, i32 9
  store i8 10, ptr %io_activity, align 2
  ret void
}

; Function Attrs: mustprogress nounwind uwtable
define linkonce_odr i64 @_ZNSt6chrono8durationIlSt5ratioILl1ELl1000000EEE4zeroEv() #1 comdat align 2 personality ptr @__gxx_personality_v0 {
entry:
  %retval = alloca %"class.std::chrono::duration", align 8
  %ref.tmp = alloca i64, align 8
  %call = call noundef i64 @_ZNSt6chrono15duration_valuesIlE4zeroEv() #3
  store i64 %call, ptr %ref.tmp, align 8
  invoke void @_ZNSt6chrono8durationIlSt5ratioILl1ELl1000000EEEC2IlvEERKT_(ptr noundef nonnull align 8 dereferenceable(8) %retval, ptr noundef nonnull align 8 dereferenceable(8) %ref.tmp)
          to label %invoke.cont unwind label %terminate.lpad

invoke.cont:                                      ; preds = %entry
  %coerce.dive = getelementptr inbounds %"class.std::chrono::duration", ptr %retval, i32 0, i32 0
  %0 = load i64, ptr %coerce.dive, align 8
  ret i64 %0

terminate.lpad:                                   ; preds = %entry
  %1 = landingpad { ptr, i32 }
          catch ptr null
  %2 = extractvalue { ptr, i32 } %1, 0
  call void @__clang_call_terminate(ptr %2) #15
  unreachable
}

; Function Attrs: mustprogress nounwind uwtable
define linkonce_odr void @_ZNSt13unordered_mapINSt7__cxx1112basic_stringIcSt11char_traitsIcESaIcEEES5_St4hashIS5_ESt8equal_toIS5_ESaISt4pairIKS5_S5_EEEC2Ev(ptr noundef nonnull align 8 dereferenceable(56) %this) unnamed_addr #1 comdat align 2 {
entry:
  %this.addr = alloca ptr, align 8
  store ptr %this, ptr %this.addr, align 8
  %this1 = load ptr, ptr %this.addr, align 8
  %_M_h = getelementptr inbounds %"class.std::unordered_map.44", ptr %this1, i32 0, i32 0
  call void @_ZNSt10_HashtableINSt7__cxx1112basic_stringIcSt11char_traitsIcESaIcEEESt4pairIKS5_S5_ESaIS8_ENSt8__detail10_Select1stESt8equal_toIS5_ESt4hashIS5_ENSA_18_Mod_range_hashingENSA_20_Default_ranged_hashENSA_20_Prime_rehash_policyENSA_17_Hashtable_traitsILb1ELb0ELb1EEEEC2Ev(ptr noundef nonnull align 8 dereferenceable(56) %_M_h) #3
  ret void
}

; Function Attrs: mustprogress nounwind uwtable
define linkonce_odr noundef i64 @_ZNSt6chrono15duration_valuesIlE4zeroEv() #1 comdat align 2 {
entry:
  ret i64 0
}

; Function Attrs: mustprogress nounwind uwtable
define linkonce_odr void @_ZNSt6chrono8durationIlSt5ratioILl1ELl1000000EEEC2IlvEERKT_(ptr noundef nonnull align 8 dereferenceable(8) %this, ptr noundef nonnull align 8 dereferenceable(8) %__rep) unnamed_addr #1 comdat align 2 {
entry:
  %this.addr = alloca ptr, align 8
  %__rep.addr = alloca ptr, align 8
  store ptr %this, ptr %this.addr, align 8
  store ptr %__rep, ptr %__rep.addr, align 8
  %this1 = load ptr, ptr %this.addr, align 8
  %__r = getelementptr inbounds %"class.std::chrono::duration", ptr %this1, i32 0, i32 0
  %0 = load ptr, ptr %__rep.addr, align 8
  %1 = load i64, ptr %0, align 8
  store i64 %1, ptr %__r, align 8
  ret void
}

; Function Attrs: mustprogress nounwind uwtable
define linkonce_odr void @_ZNSt10_HashtableINSt7__cxx1112basic_stringIcSt11char_traitsIcESaIcEEESt4pairIKS5_S5_ESaIS8_ENSt8__detail10_Select1stESt8equal_toIS5_ESt4hashIS5_ENSA_18_Mod_range_hashingENSA_20_Default_ranged_hashENSA_20_Prime_rehash_policyENSA_17_Hashtable_traitsILb1ELb0ELb1EEEEC2Ev(ptr noundef nonnull align 8 dereferenceable(56) %this) unnamed_addr #1 comdat align 2 {
entry:
  %this.addr = alloca ptr, align 8
  store ptr %this, ptr %this.addr, align 8
  %this1 = load ptr, ptr %this.addr, align 8
  call void @_ZNSt8__detail15_Hashtable_baseINSt7__cxx1112basic_stringIcSt11char_traitsIcESaIcEEESt4pairIKS6_S6_ENS_10_Select1stESt8equal_toIS6_ESt4hashIS6_ENS_18_Mod_range_hashingENS_20_Default_ranged_hashENS_17_Hashtable_traitsILb1ELb0ELb1EEEEC2Ev(ptr noundef nonnull align 1 dereferenceable(1) %this1) #3
  call void @_ZNSt8__detail16_Hashtable_allocISaINS_10_Hash_nodeISt4pairIKNSt7__cxx1112basic_stringIcSt11char_traitsIcESaIcEEES8_ELb1EEEEEC2Ev(ptr noundef nonnull align 1 dereferenceable(1) %this1) #3
  %_M_buckets = getelementptr inbounds %"class.std::_Hashtable.45", ptr %this1, i32 0, i32 0
  %_M_single_bucket = getelementptr inbounds %"class.std::_Hashtable.45", ptr %this1, i32 0, i32 5
  store ptr %_M_single_bucket, ptr %_M_buckets, align 8
  %_M_bucket_count = getelementptr inbounds %"class.std::_Hashtable.45", ptr %this1, i32 0, i32 1
  store i64 1, ptr %_M_bucket_count, align 8
  %_M_before_begin = getelementptr inbounds %"class.std::_Hashtable.45", ptr %this1, i32 0, i32 2
  call void @_ZNSt8__detail15_Hash_node_baseC2Ev(ptr noundef nonnull align 8 dereferenceable(8) %_M_before_begin) #3
  %_M_element_count = getelementptr inbounds %"class.std::_Hashtable.45", ptr %this1, i32 0, i32 3
  store i64 0, ptr %_M_element_count, align 8
  %_M_rehash_policy = getelementptr inbounds %"class.std::_Hashtable.45", ptr %this1, i32 0, i32 4
  call void @_ZNSt8__detail20_Prime_rehash_policyC2Ef(ptr noundef nonnull align 8 dereferenceable(16) %_M_rehash_policy, float noundef 1.000000e+00) #3
  %_M_single_bucket2 = getelementptr inbounds %"class.std::_Hashtable.45", ptr %this1, i32 0, i32 5
  store ptr null, ptr %_M_single_bucket2, align 8
  ret void
}

; Function Attrs: mustprogress nounwind uwtable
define linkonce_odr void @_ZNSt8__detail15_Hashtable_baseINSt7__cxx1112basic_stringIcSt11char_traitsIcESaIcEEESt4pairIKS6_S6_ENS_10_Select1stESt8equal_toIS6_ESt4hashIS6_ENS_18_Mod_range_hashingENS_20_Default_ranged_hashENS_17_Hashtable_traitsILb1ELb0ELb1EEEEC2Ev(ptr noundef nonnull align 1 dereferenceable(1) %this) unnamed_addr #1 comdat align 2 {
entry:
  %this.addr = alloca ptr, align 8
  store ptr %this, ptr %this.addr, align 8
  %this1 = load ptr, ptr %this.addr, align 8
  call void @_ZNSt8__detail15_Hash_code_baseINSt7__cxx1112basic_stringIcSt11char_traitsIcESaIcEEESt4pairIKS6_S6_ENS_10_Select1stESt4hashIS6_ENS_18_Mod_range_hashingENS_20_Default_ranged_hashELb1EEC2Ev(ptr noundef nonnull align 1 dereferenceable(1) %this1) #3
  call void @_ZNSt8__detail21_Hashtable_ebo_helperILi0ESt8equal_toINSt7__cxx1112basic_stringIcSt11char_traitsIcESaIcEEEELb1EEC2Ev(ptr noundef nonnull align 1 dereferenceable(1) %this1) #3
  ret void
}

; Function Attrs: mustprogress nounwind uwtable
define linkonce_odr void @_ZNSt8__detail16_Hashtable_allocISaINS_10_Hash_nodeISt4pairIKNSt7__cxx1112basic_stringIcSt11char_traitsIcESaIcEEES8_ELb1EEEEEC2Ev(ptr noundef nonnull align 1 dereferenceable(1) %this) unnamed_addr #1 comdat align 2 {
entry:
  %this.addr = alloca ptr, align 8
  store ptr %this, ptr %this.addr, align 8
  %this1 = load ptr, ptr %this.addr, align 8
  call void @_ZNSt8__detail21_Hashtable_ebo_helperILi0ESaINS_10_Hash_nodeISt4pairIKNSt7__cxx1112basic_stringIcSt11char_traitsIcESaIcEEES8_ELb1EEEELb1EEC2Ev(ptr noundef nonnull align 1 dereferenceable(1) %this1) #3
  ret void
}

; Function Attrs: mustprogress nounwind uwtable
define linkonce_odr void @_ZNSt8__detail15_Hash_code_baseINSt7__cxx1112basic_stringIcSt11char_traitsIcESaIcEEESt4pairIKS6_S6_ENS_10_Select1stESt4hashIS6_ENS_18_Mod_range_hashingENS_20_Default_ranged_hashELb1EEC2Ev(ptr noundef nonnull align 1 dereferenceable(1) %this) unnamed_addr #1 comdat align 2 {
entry:
  %this.addr = alloca ptr, align 8
  store ptr %this, ptr %this.addr, align 8
  %this1 = load ptr, ptr %this.addr, align 8
  call void @_ZNSt8__detail21_Hashtable_ebo_helperILi1ESt4hashINSt7__cxx1112basic_stringIcSt11char_traitsIcESaIcEEEELb1EEC2Ev(ptr noundef nonnull align 1 dereferenceable(1) %this1) #3
  ret void
}

; Function Attrs: mustprogress nounwind uwtable
define linkonce_odr void @_ZNSt8__detail21_Hashtable_ebo_helperILi0ESaINS_10_Hash_nodeISt4pairIKNSt7__cxx1112basic_stringIcSt11char_traitsIcESaIcEEES8_ELb1EEEELb1EEC2Ev(ptr noundef nonnull align 1 dereferenceable(1) %this) unnamed_addr #1 comdat align 2 {
entry:
  %this.addr = alloca ptr, align 8
  store ptr %this, ptr %this.addr, align 8
  %this1 = load ptr, ptr %this.addr, align 8
  call void @_ZNSaINSt8__detail10_Hash_nodeISt4pairIKNSt7__cxx1112basic_stringIcSt11char_traitsIcESaIcEEES7_ELb1EEEEC2Ev(ptr noundef nonnull align 1 dereferenceable(1) %this1) #3
  ret void
}

; Function Attrs: mustprogress nounwind uwtable
define linkonce_odr void @_ZNSaINSt8__detail10_Hash_nodeISt4pairIKNSt7__cxx1112basic_stringIcSt11char_traitsIcESaIcEEES7_ELb1EEEEC2Ev(ptr noundef nonnull align 1 dereferenceable(1) %this) unnamed_addr #1 comdat align 2 {
entry:
  %this.addr = alloca ptr, align 8
  store ptr %this, ptr %this.addr, align 8
  %this1 = load ptr, ptr %this.addr, align 8
  call void @_ZNSt15__new_allocatorINSt8__detail10_Hash_nodeISt4pairIKNSt7__cxx1112basic_stringIcSt11char_traitsIcESaIcEEES8_ELb1EEEEC2Ev(ptr noundef nonnull align 1 dereferenceable(1) %this1) #3
  ret void
}

; Function Attrs: mustprogress nounwind uwtable
define linkonce_odr void @_ZNSt15__new_allocatorINSt8__detail10_Hash_nodeISt4pairIKNSt7__cxx1112basic_stringIcSt11char_traitsIcESaIcEEES8_ELb1EEEEC2Ev(ptr noundef nonnull align 1 dereferenceable(1) %this) unnamed_addr #1 comdat align 2 {
entry:
  %this.addr = alloca ptr, align 8
  store ptr %this, ptr %this.addr, align 8
  ret void
}

; Function Attrs: mustprogress nounwind uwtable
define linkonce_odr void @_ZNSt13unordered_mapINSt7__cxx1112basic_stringIcSt11char_traitsIcESaIcEEES5_St4hashIS5_ESt8equal_toIS5_ESaISt4pairIKS5_S5_EEED2Ev(ptr noundef nonnull align 8 dereferenceable(56) %this) unnamed_addr #1 comdat align 2 {
entry:
  %this.addr = alloca ptr, align 8
  store ptr %this, ptr %this.addr, align 8
  %this1 = load ptr, ptr %this.addr, align 8
  %_M_h = getelementptr inbounds %"class.std::unordered_map.44", ptr %this1, i32 0, i32 0
  call void @_ZNSt10_HashtableINSt7__cxx1112basic_stringIcSt11char_traitsIcESaIcEEESt4pairIKS5_S5_ESaIS8_ENSt8__detail10_Select1stESt8equal_toIS5_ESt4hashIS5_ENSA_18_Mod_range_hashingENSA_20_Default_ranged_hashENSA_20_Prime_rehash_policyENSA_17_Hashtable_traitsILb1ELb0ELb1EEEED2Ev(ptr noundef nonnull align 8 dereferenceable(56) %_M_h) #3
  ret void
}

; Function Attrs: mustprogress nounwind uwtable
define linkonce_odr void @_ZNSt10_HashtableINSt7__cxx1112basic_stringIcSt11char_traitsIcESaIcEEESt4pairIKS5_S5_ESaIS8_ENSt8__detail10_Select1stESt8equal_toIS5_ESt4hashIS5_ENSA_18_Mod_range_hashingENSA_20_Default_ranged_hashENSA_20_Prime_rehash_policyENSA_17_Hashtable_traitsILb1ELb0ELb1EEEED2Ev(ptr noundef nonnull align 8 dereferenceable(56) %this) unnamed_addr #1 comdat align 2 personality ptr @__gxx_personality_v0 {
entry:
  %this.addr = alloca ptr, align 8
  store ptr %this, ptr %this.addr, align 8
  %this1 = load ptr, ptr %this.addr, align 8
  call void @_ZNSt10_HashtableINSt7__cxx1112basic_stringIcSt11char_traitsIcESaIcEEESt4pairIKS5_S5_ESaIS8_ENSt8__detail10_Select1stESt8equal_toIS5_ESt4hashIS5_ENSA_18_Mod_range_hashingENSA_20_Default_ranged_hashENSA_20_Prime_rehash_policyENSA_17_Hashtable_traitsILb1ELb0ELb1EEEE5clearEv(ptr noundef nonnull align 8 dereferenceable(56) %this1) #3
  invoke void @_ZNSt10_HashtableINSt7__cxx1112basic_stringIcSt11char_traitsIcESaIcEEESt4pairIKS5_S5_ESaIS8_ENSt8__detail10_Select1stESt8equal_toIS5_ESt4hashIS5_ENSA_18_Mod_range_hashingENSA_20_Default_ranged_hashENSA_20_Prime_rehash_policyENSA_17_Hashtable_traitsILb1ELb0ELb1EEEE21_M_deallocate_bucketsEv(ptr noundef nonnull align 8 dereferenceable(56) %this1)
          to label %invoke.cont unwind label %terminate.lpad

invoke.cont:                                      ; preds = %entry
  call void @_ZNSt8__detail16_Hashtable_allocISaINS_10_Hash_nodeISt4pairIKNSt7__cxx1112basic_stringIcSt11char_traitsIcESaIcEEES8_ELb1EEEEED2Ev(ptr noundef nonnull align 1 dereferenceable(1) %this1) #3
  ret void

terminate.lpad:                                   ; preds = %entry
  %0 = landingpad { ptr, i32 }
          catch ptr null
  %1 = extractvalue { ptr, i32 } %0, 0
  call void @__clang_call_terminate(ptr %1) #15
  unreachable
}

; Function Attrs: mustprogress nounwind uwtable
define linkonce_odr void @_ZNSt10_HashtableINSt7__cxx1112basic_stringIcSt11char_traitsIcESaIcEEESt4pairIKS5_S5_ESaIS8_ENSt8__detail10_Select1stESt8equal_toIS5_ESt4hashIS5_ENSA_18_Mod_range_hashingENSA_20_Default_ranged_hashENSA_20_Prime_rehash_policyENSA_17_Hashtable_traitsILb1ELb0ELb1EEEE5clearEv(ptr noundef nonnull align 8 dereferenceable(56) %this) #1 comdat align 2 personality ptr @__gxx_personality_v0 {
entry:
  %this.addr = alloca ptr, align 8
  store ptr %this, ptr %this.addr, align 8
  %this1 = load ptr, ptr %this.addr, align 8
  %call = invoke noundef ptr @_ZNKSt10_HashtableINSt7__cxx1112basic_stringIcSt11char_traitsIcESaIcEEESt4pairIKS5_S5_ESaIS8_ENSt8__detail10_Select1stESt8equal_toIS5_ESt4hashIS5_ENSA_18_Mod_range_hashingENSA_20_Default_ranged_hashENSA_20_Prime_rehash_policyENSA_17_Hashtable_traitsILb1ELb0ELb1EEEE8_M_beginEv(ptr noundef nonnull align 8 dereferenceable(56) %this1)
          to label %invoke.cont unwind label %terminate.lpad

invoke.cont:                                      ; preds = %entry
  invoke void @_ZNSt8__detail16_Hashtable_allocISaINS_10_Hash_nodeISt4pairIKNSt7__cxx1112basic_stringIcSt11char_traitsIcESaIcEEES8_ELb1EEEEE19_M_deallocate_nodesEPSB_(ptr noundef nonnull align 1 dereferenceable(1) %this1, ptr noundef %call)
          to label %invoke.cont2 unwind label %terminate.lpad

invoke.cont2:                                     ; preds = %invoke.cont
  %_M_buckets = getelementptr inbounds %"class.std::_Hashtable.45", ptr %this1, i32 0, i32 0
  %0 = load ptr, ptr %_M_buckets, align 8
  %_M_bucket_count = getelementptr inbounds %"class.std::_Hashtable.45", ptr %this1, i32 0, i32 1
  %1 = load i64, ptr %_M_bucket_count, align 8
  %mul = mul i64 %1, 8
  call void @llvm.memset.p0.i64(ptr align 8 %0, i8 0, i64 %mul, i1 false)
  %_M_element_count = getelementptr inbounds %"class.std::_Hashtable.45", ptr %this1, i32 0, i32 3
  store i64 0, ptr %_M_element_count, align 8
  %_M_before_begin = getelementptr inbounds %"class.std::_Hashtable.45", ptr %this1, i32 0, i32 2
  %_M_nxt = getelementptr inbounds %"struct.std::__detail::_Hash_node_base", ptr %_M_before_begin, i32 0, i32 0
  store ptr null, ptr %_M_nxt, align 8
  ret void

terminate.lpad:                                   ; preds = %invoke.cont, %entry
  %2 = landingpad { ptr, i32 }
          catch ptr null
  %3 = extractvalue { ptr, i32 } %2, 0
  call void @__clang_call_terminate(ptr %3) #15
  unreachable
}

; Function Attrs: mustprogress uwtable
define linkonce_odr void @_ZNSt10_HashtableINSt7__cxx1112basic_stringIcSt11char_traitsIcESaIcEEESt4pairIKS5_S5_ESaIS8_ENSt8__detail10_Select1stESt8equal_toIS5_ESt4hashIS5_ENSA_18_Mod_range_hashingENSA_20_Default_ranged_hashENSA_20_Prime_rehash_policyENSA_17_Hashtable_traitsILb1ELb0ELb1EEEE21_M_deallocate_bucketsEv(ptr noundef nonnull align 8 dereferenceable(56) %this) #0 comdat align 2 {
entry:
  %this.addr = alloca ptr, align 8
  store ptr %this, ptr %this.addr, align 8
  %this1 = load ptr, ptr %this.addr, align 8
  %_M_buckets = getelementptr inbounds %"class.std::_Hashtable.45", ptr %this1, i32 0, i32 0
  %0 = load ptr, ptr %_M_buckets, align 8
  %_M_bucket_count = getelementptr inbounds %"class.std::_Hashtable.45", ptr %this1, i32 0, i32 1
  %1 = load i64, ptr %_M_bucket_count, align 8
  call void @_ZNSt10_HashtableINSt7__cxx1112basic_stringIcSt11char_traitsIcESaIcEEESt4pairIKS5_S5_ESaIS8_ENSt8__detail10_Select1stESt8equal_toIS5_ESt4hashIS5_ENSA_18_Mod_range_hashingENSA_20_Default_ranged_hashENSA_20_Prime_rehash_policyENSA_17_Hashtable_traitsILb1ELb0ELb1EEEE21_M_deallocate_bucketsEPPNSA_15_Hash_node_baseEm(ptr noundef nonnull align 8 dereferenceable(56) %this1, ptr noundef %0, i64 noundef %1)
  ret void
}

; Function Attrs: mustprogress nounwind uwtable
define linkonce_odr void @_ZNSt8__detail16_Hashtable_allocISaINS_10_Hash_nodeISt4pairIKNSt7__cxx1112basic_stringIcSt11char_traitsIcESaIcEEES8_ELb1EEEEED2Ev(ptr noundef nonnull align 1 dereferenceable(1) %this) unnamed_addr #1 comdat align 2 {
entry:
  %this.addr = alloca ptr, align 8
  store ptr %this, ptr %this.addr, align 8
  %this1 = load ptr, ptr %this.addr, align 8
  call void @_ZNSt8__detail21_Hashtable_ebo_helperILi0ESaINS_10_Hash_nodeISt4pairIKNSt7__cxx1112basic_stringIcSt11char_traitsIcESaIcEEES8_ELb1EEEELb1EED2Ev(ptr noundef nonnull align 1 dereferenceable(1) %this1) #3
  ret void
}

; Function Attrs: mustprogress uwtable
define linkonce_odr void @_ZNSt8__detail16_Hashtable_allocISaINS_10_Hash_nodeISt4pairIKNSt7__cxx1112basic_stringIcSt11char_traitsIcESaIcEEES8_ELb1EEEEE19_M_deallocate_nodesEPSB_(ptr noundef nonnull align 1 dereferenceable(1) %this, ptr noundef %__n) #0 comdat align 2 {
entry:
  %this.addr = alloca ptr, align 8
  %__n.addr = alloca ptr, align 8
  %__tmp = alloca ptr, align 8
  store ptr %this, ptr %this.addr, align 8
  store ptr %__n, ptr %__n.addr, align 8
  %this1 = load ptr, ptr %this.addr, align 8
  br label %while.cond

while.cond:                                       ; preds = %while.body, %entry
  %0 = load ptr, ptr %__n.addr, align 8
  %tobool = icmp ne ptr %0, null
  br i1 %tobool, label %while.body, label %while.end

while.body:                                       ; preds = %while.cond
  %1 = load ptr, ptr %__n.addr, align 8
  store ptr %1, ptr %__tmp, align 8
  %2 = load ptr, ptr %__n.addr, align 8
  %call = call noundef ptr @_ZNKSt8__detail10_Hash_nodeISt4pairIKNSt7__cxx1112basic_stringIcSt11char_traitsIcESaIcEEES7_ELb1EE7_M_nextEv(ptr noundef nonnull align 8 dereferenceable(80) %2) #3
  store ptr %call, ptr %__n.addr, align 8
  %3 = load ptr, ptr %__tmp, align 8
  call void @_ZNSt8__detail16_Hashtable_allocISaINS_10_Hash_nodeISt4pairIKNSt7__cxx1112basic_stringIcSt11char_traitsIcESaIcEEES8_ELb1EEEEE18_M_deallocate_nodeEPSB_(ptr noundef nonnull align 1 dereferenceable(1) %this1, ptr noundef %3)
  br label %while.cond, !llvm.loop !14

while.end:                                        ; preds = %while.cond
  ret void
}

; Function Attrs: mustprogress nounwind uwtable
define linkonce_odr noundef ptr @_ZNKSt10_HashtableINSt7__cxx1112basic_stringIcSt11char_traitsIcESaIcEEESt4pairIKS5_S5_ESaIS8_ENSt8__detail10_Select1stESt8equal_toIS5_ESt4hashIS5_ENSA_18_Mod_range_hashingENSA_20_Default_ranged_hashENSA_20_Prime_rehash_policyENSA_17_Hashtable_traitsILb1ELb0ELb1EEEE8_M_beginEv(ptr noundef nonnull align 8 dereferenceable(56) %this) #1 comdat align 2 {
entry:
  %this.addr = alloca ptr, align 8
  store ptr %this, ptr %this.addr, align 8
  %this1 = load ptr, ptr %this.addr, align 8
  %_M_before_begin = getelementptr inbounds %"class.std::_Hashtable.45", ptr %this1, i32 0, i32 2
  %_M_nxt = getelementptr inbounds %"struct.std::__detail::_Hash_node_base", ptr %_M_before_begin, i32 0, i32 0
  %0 = load ptr, ptr %_M_nxt, align 8
  ret ptr %0
}

; Function Attrs: mustprogress nounwind uwtable
define linkonce_odr noundef ptr @_ZNKSt8__detail10_Hash_nodeISt4pairIKNSt7__cxx1112basic_stringIcSt11char_traitsIcESaIcEEES7_ELb1EE7_M_nextEv(ptr noundef nonnull align 8 dereferenceable(80) %this) #1 comdat align 2 {
entry:
  %this.addr = alloca ptr, align 8
  store ptr %this, ptr %this.addr, align 8
  %this1 = load ptr, ptr %this.addr, align 8
  %_M_nxt = getelementptr inbounds %"struct.std::__detail::_Hash_node_base", ptr %this1, i32 0, i32 0
  %0 = load ptr, ptr %_M_nxt, align 8
  ret ptr %0
}

; Function Attrs: mustprogress uwtable
define linkonce_odr void @_ZNSt8__detail16_Hashtable_allocISaINS_10_Hash_nodeISt4pairIKNSt7__cxx1112basic_stringIcSt11char_traitsIcESaIcEEES8_ELb1EEEEE18_M_deallocate_nodeEPSB_(ptr noundef nonnull align 1 dereferenceable(1) %this, ptr noundef %__n) #0 comdat align 2 {
entry:
  %this.addr = alloca ptr, align 8
  %__n.addr = alloca ptr, align 8
  store ptr %this, ptr %this.addr, align 8
  store ptr %__n, ptr %__n.addr, align 8
  %this1 = load ptr, ptr %this.addr, align 8
  %call = call noundef nonnull align 1 dereferenceable(1) ptr @_ZNSt8__detail16_Hashtable_allocISaINS_10_Hash_nodeISt4pairIKNSt7__cxx1112basic_stringIcSt11char_traitsIcESaIcEEES8_ELb1EEEEE17_M_node_allocatorEv(ptr noundef nonnull align 1 dereferenceable(1) %this1)
  %0 = load ptr, ptr %__n.addr, align 8
  %add.ptr = getelementptr inbounds i8, ptr %0, i64 8
  %call2 = call noundef ptr @_ZNSt8__detail21_Hash_node_value_baseISt4pairIKNSt7__cxx1112basic_stringIcSt11char_traitsIcESaIcEEES7_EE9_M_valptrEv(ptr noundef nonnull align 8 dereferenceable(64) %add.ptr) #3
  call void @_ZNSt16allocator_traitsISaINSt8__detail10_Hash_nodeISt4pairIKNSt7__cxx1112basic_stringIcSt11char_traitsIcESaIcEEES8_ELb1EEEEE7destroyISA_EEvRSC_PT_(ptr noundef nonnull align 1 dereferenceable(1) %call, ptr noundef %call2) #3
  %1 = load ptr, ptr %__n.addr, align 8
  call void @_ZNSt8__detail16_Hashtable_allocISaINS_10_Hash_nodeISt4pairIKNSt7__cxx1112basic_stringIcSt11char_traitsIcESaIcEEES8_ELb1EEEEE22_M_deallocate_node_ptrEPSB_(ptr noundef nonnull align 1 dereferenceable(1) %this1, ptr noundef %1)
  ret void
}

; Function Attrs: mustprogress nounwind uwtable
define linkonce_odr void @_ZNSt16allocator_traitsISaINSt8__detail10_Hash_nodeISt4pairIKNSt7__cxx1112basic_stringIcSt11char_traitsIcESaIcEEES8_ELb1EEEEE7destroyISA_EEvRSC_PT_(ptr noundef nonnull align 1 dereferenceable(1) %__a, ptr noundef %__p) #1 comdat align 2 {
entry:
  %__a.addr = alloca ptr, align 8
  %__p.addr = alloca ptr, align 8
  store ptr %__a, ptr %__a.addr, align 8
  store ptr %__p, ptr %__p.addr, align 8
  %0 = load ptr, ptr %__a.addr, align 8
  %1 = load ptr, ptr %__p.addr, align 8
  call void @_ZNSt15__new_allocatorINSt8__detail10_Hash_nodeISt4pairIKNSt7__cxx1112basic_stringIcSt11char_traitsIcESaIcEEES8_ELb1EEEE7destroyISA_EEvPT_(ptr noundef nonnull align 1 dereferenceable(1) %0, ptr noundef %1) #3
  ret void
}

; Function Attrs: mustprogress uwtable
define linkonce_odr noundef nonnull align 1 dereferenceable(1) ptr @_ZNSt8__detail16_Hashtable_allocISaINS_10_Hash_nodeISt4pairIKNSt7__cxx1112basic_stringIcSt11char_traitsIcESaIcEEES8_ELb1EEEEE17_M_node_allocatorEv(ptr noundef nonnull align 1 dereferenceable(1) %this) #0 comdat align 2 {
entry:
  %this.addr = alloca ptr, align 8
  store ptr %this, ptr %this.addr, align 8
  %this1 = load ptr, ptr %this.addr, align 8
  %call = call noundef nonnull align 1 dereferenceable(1) ptr @_ZNSt8__detail21_Hashtable_ebo_helperILi0ESaINS_10_Hash_nodeISt4pairIKNSt7__cxx1112basic_stringIcSt11char_traitsIcESaIcEEES8_ELb1EEEELb1EE6_M_getEv(ptr noundef nonnull align 1 dereferenceable(1) %this1)
  ret ptr %call
}

; Function Attrs: mustprogress nounwind uwtable
define linkonce_odr noundef ptr @_ZNSt8__detail21_Hash_node_value_baseISt4pairIKNSt7__cxx1112basic_stringIcSt11char_traitsIcESaIcEEES7_EE9_M_valptrEv(ptr noundef nonnull align 8 dereferenceable(64) %this) #1 comdat align 2 {
entry:
  %this.addr = alloca ptr, align 8
  store ptr %this, ptr %this.addr, align 8
  %this1 = load ptr, ptr %this.addr, align 8
  %_M_storage = getelementptr inbounds %"struct.std::__detail::_Hash_node_value_base.297", ptr %this1, i32 0, i32 0
  %call = call noundef ptr @_ZN9__gnu_cxx16__aligned_bufferISt4pairIKNSt7__cxx1112basic_stringIcSt11char_traitsIcESaIcEEES7_EE6_M_ptrEv(ptr noundef nonnull align 8 dereferenceable(64) %_M_storage) #3
  ret ptr %call
}

; Function Attrs: mustprogress uwtable
define linkonce_odr void @_ZNSt8__detail16_Hashtable_allocISaINS_10_Hash_nodeISt4pairIKNSt7__cxx1112basic_stringIcSt11char_traitsIcESaIcEEES8_ELb1EEEEE22_M_deallocate_node_ptrEPSB_(ptr noundef nonnull align 1 dereferenceable(1) %this, ptr noundef %__n) #0 comdat align 2 {
entry:
  %this.addr = alloca ptr, align 8
  %__n.addr = alloca ptr, align 8
  %__ptr = alloca ptr, align 8
  store ptr %this, ptr %this.addr, align 8
  store ptr %__n, ptr %__n.addr, align 8
  %this1 = load ptr, ptr %this.addr, align 8
  %0 = load ptr, ptr %__n.addr, align 8
  %call = call noundef ptr @_ZNSt19__ptr_traits_ptr_toIPNSt8__detail10_Hash_nodeISt4pairIKNSt7__cxx1112basic_stringIcSt11char_traitsIcESaIcEEES8_ELb1EEESB_Lb0EE10pointer_toERSB_(ptr noundef nonnull align 8 dereferenceable(80) %0) #3
  store ptr %call, ptr %__ptr, align 8
  %call2 = call noundef nonnull align 1 dereferenceable(1) ptr @_ZNSt8__detail16_Hashtable_allocISaINS_10_Hash_nodeISt4pairIKNSt7__cxx1112basic_stringIcSt11char_traitsIcESaIcEEES8_ELb1EEEEE17_M_node_allocatorEv(ptr noundef nonnull align 1 dereferenceable(1) %this1)
  %1 = load ptr, ptr %__ptr, align 8
  call void @_ZNSt16allocator_traitsISaINSt8__detail10_Hash_nodeISt4pairIKNSt7__cxx1112basic_stringIcSt11char_traitsIcESaIcEEES8_ELb1EEEEE10deallocateERSC_PSB_m(ptr noundef nonnull align 1 dereferenceable(1) %call2, ptr noundef %1, i64 noundef 1)
  ret void
}

; Function Attrs: mustprogress nounwind uwtable
define linkonce_odr void @_ZNSt15__new_allocatorINSt8__detail10_Hash_nodeISt4pairIKNSt7__cxx1112basic_stringIcSt11char_traitsIcESaIcEEES8_ELb1EEEE7destroyISA_EEvPT_(ptr noundef nonnull align 1 dereferenceable(1) %this, ptr noundef %__p) #1 comdat align 2 {
entry:
  %this.addr = alloca ptr, align 8
  %__p.addr = alloca ptr, align 8
  store ptr %this, ptr %this.addr, align 8
  store ptr %__p, ptr %__p.addr, align 8
  %0 = load ptr, ptr %__p.addr, align 8
  call void @_ZNSt4pairIKNSt7__cxx1112basic_stringIcSt11char_traitsIcESaIcEEES5_ED2Ev(ptr noundef nonnull align 8 dereferenceable(64) %0) #3
  ret void
}

; Function Attrs: mustprogress nounwind uwtable
define linkonce_odr void @_ZNSt4pairIKNSt7__cxx1112basic_stringIcSt11char_traitsIcESaIcEEES5_ED2Ev(ptr noundef nonnull align 8 dereferenceable(64) %this) unnamed_addr #1 comdat align 2 {
entry:
  %this.addr = alloca ptr, align 8
  store ptr %this, ptr %this.addr, align 8
  %this1 = load ptr, ptr %this.addr, align 8
  %second = getelementptr inbounds %"struct.std::pair.301", ptr %this1, i32 0, i32 1
  call void @_ZNSt7__cxx1112basic_stringIcSt11char_traitsIcESaIcEED1Ev(ptr noundef nonnull align 8 dereferenceable(32) %second) #3
  %first = getelementptr inbounds %"struct.std::pair.301", ptr %this1, i32 0, i32 0
  call void @_ZNSt7__cxx1112basic_stringIcSt11char_traitsIcESaIcEED1Ev(ptr noundef nonnull align 8 dereferenceable(32) %first) #3
  ret void
}

; Function Attrs: mustprogress nounwind uwtable
define linkonce_odr noundef nonnull align 1 dereferenceable(1) ptr @_ZNSt8__detail21_Hashtable_ebo_helperILi0ESaINS_10_Hash_nodeISt4pairIKNSt7__cxx1112basic_stringIcSt11char_traitsIcESaIcEEES8_ELb1EEEELb1EE6_M_getEv(ptr noundef nonnull align 1 dereferenceable(1) %this) #1 comdat align 2 {
entry:
  %this.addr = alloca ptr, align 8
  store ptr %this, ptr %this.addr, align 8
  %this1 = load ptr, ptr %this.addr, align 8
  ret ptr %this1
}

; Function Attrs: mustprogress nounwind uwtable
define linkonce_odr noundef ptr @_ZN9__gnu_cxx16__aligned_bufferISt4pairIKNSt7__cxx1112basic_stringIcSt11char_traitsIcESaIcEEES7_EE6_M_ptrEv(ptr noundef nonnull align 8 dereferenceable(64) %this) #1 comdat align 2 {
entry:
  %this.addr = alloca ptr, align 8
  store ptr %this, ptr %this.addr, align 8
  %this1 = load ptr, ptr %this.addr, align 8
  %call = call noundef ptr @_ZN9__gnu_cxx16__aligned_bufferISt4pairIKNSt7__cxx1112basic_stringIcSt11char_traitsIcESaIcEEES7_EE7_M_addrEv(ptr noundef nonnull align 8 dereferenceable(64) %this1) #3
  ret ptr %call
}

; Function Attrs: mustprogress nounwind uwtable
define linkonce_odr noundef ptr @_ZN9__gnu_cxx16__aligned_bufferISt4pairIKNSt7__cxx1112basic_stringIcSt11char_traitsIcESaIcEEES7_EE7_M_addrEv(ptr noundef nonnull align 8 dereferenceable(64) %this) #1 comdat align 2 {
entry:
  %this.addr = alloca ptr, align 8
  store ptr %this, ptr %this.addr, align 8
  %this1 = load ptr, ptr %this.addr, align 8
  %_M_storage = getelementptr inbounds %"struct.__gnu_cxx::__aligned_buffer.298", ptr %this1, i32 0, i32 0
  ret ptr %_M_storage
}

; Function Attrs: mustprogress nounwind uwtable
define linkonce_odr noundef ptr @_ZNSt19__ptr_traits_ptr_toIPNSt8__detail10_Hash_nodeISt4pairIKNSt7__cxx1112basic_stringIcSt11char_traitsIcESaIcEEES8_ELb1EEESB_Lb0EE10pointer_toERSB_(ptr noundef nonnull align 8 dereferenceable(80) %__r) #1 comdat align 2 {
entry:
  %__r.addr = alloca ptr, align 8
  store ptr %__r, ptr %__r.addr, align 8
  %0 = load ptr, ptr %__r.addr, align 8
  ret ptr %0
}

; Function Attrs: mustprogress uwtable
define linkonce_odr void @_ZNSt16allocator_traitsISaINSt8__detail10_Hash_nodeISt4pairIKNSt7__cxx1112basic_stringIcSt11char_traitsIcESaIcEEES8_ELb1EEEEE10deallocateERSC_PSB_m(ptr noundef nonnull align 1 dereferenceable(1) %__a, ptr noundef %__p, i64 noundef %__n) #0 comdat align 2 {
entry:
  %__a.addr = alloca ptr, align 8
  %__p.addr = alloca ptr, align 8
  %__n.addr = alloca i64, align 8
  store ptr %__a, ptr %__a.addr, align 8
  store ptr %__p, ptr %__p.addr, align 8
  store i64 %__n, ptr %__n.addr, align 8
  %0 = load ptr, ptr %__a.addr, align 8
  %1 = load ptr, ptr %__p.addr, align 8
  %2 = load i64, ptr %__n.addr, align 8
  call void @_ZNSt15__new_allocatorINSt8__detail10_Hash_nodeISt4pairIKNSt7__cxx1112basic_stringIcSt11char_traitsIcESaIcEEES8_ELb1EEEE10deallocateEPSB_m(ptr noundef nonnull align 1 dereferenceable(1) %0, ptr noundef %1, i64 noundef %2)
  ret void
}

; Function Attrs: mustprogress nounwind uwtable
define linkonce_odr void @_ZNSt15__new_allocatorINSt8__detail10_Hash_nodeISt4pairIKNSt7__cxx1112basic_stringIcSt11char_traitsIcESaIcEEES8_ELb1EEEE10deallocateEPSB_m(ptr noundef nonnull align 1 dereferenceable(1) %this, ptr noundef %__p, i64 noundef %__n) #1 comdat align 2 {
entry:
  %this.addr = alloca ptr, align 8
  %__p.addr = alloca ptr, align 8
  %__n.addr = alloca i64, align 8
  store ptr %this, ptr %this.addr, align 8
  store ptr %__p, ptr %__p.addr, align 8
  store i64 %__n, ptr %__n.addr, align 8
  %0 = load ptr, ptr %__p.addr, align 8
  call void @_ZdlPv(ptr noundef %0) #16
  ret void
}

; Function Attrs: mustprogress uwtable
define linkonce_odr void @_ZNSt10_HashtableINSt7__cxx1112basic_stringIcSt11char_traitsIcESaIcEEESt4pairIKS5_S5_ESaIS8_ENSt8__detail10_Select1stESt8equal_toIS5_ESt4hashIS5_ENSA_18_Mod_range_hashingENSA_20_Default_ranged_hashENSA_20_Prime_rehash_policyENSA_17_Hashtable_traitsILb1ELb0ELb1EEEE21_M_deallocate_bucketsEPPNSA_15_Hash_node_baseEm(ptr noundef nonnull align 8 dereferenceable(56) %this, ptr noundef %__bkts, i64 noundef %__bkt_count) #0 comdat align 2 {
entry:
  %this.addr = alloca ptr, align 8
  %__bkts.addr = alloca ptr, align 8
  %__bkt_count.addr = alloca i64, align 8
  store ptr %this, ptr %this.addr, align 8
  store ptr %__bkts, ptr %__bkts.addr, align 8
  store i64 %__bkt_count, ptr %__bkt_count.addr, align 8
  %this1 = load ptr, ptr %this.addr, align 8
  %0 = load ptr, ptr %__bkts.addr, align 8
  %call = call noundef zeroext i1 @_ZNKSt10_HashtableINSt7__cxx1112basic_stringIcSt11char_traitsIcESaIcEEESt4pairIKS5_S5_ESaIS8_ENSt8__detail10_Select1stESt8equal_toIS5_ESt4hashIS5_ENSA_18_Mod_range_hashingENSA_20_Default_ranged_hashENSA_20_Prime_rehash_policyENSA_17_Hashtable_traitsILb1ELb0ELb1EEEE21_M_uses_single_bucketEPPNSA_15_Hash_node_baseE(ptr noundef nonnull align 8 dereferenceable(56) %this1, ptr noundef %0)
  br i1 %call, label %if.then, label %if.end

if.then:                                          ; preds = %entry
  br label %return

if.end:                                           ; preds = %entry
  %1 = load ptr, ptr %__bkts.addr, align 8
  %2 = load i64, ptr %__bkt_count.addr, align 8
  call void @_ZNSt8__detail16_Hashtable_allocISaINS_10_Hash_nodeISt4pairIKNSt7__cxx1112basic_stringIcSt11char_traitsIcESaIcEEES8_ELb1EEEEE21_M_deallocate_bucketsEPPNS_15_Hash_node_baseEm(ptr noundef nonnull align 1 dereferenceable(1) %this1, ptr noundef %1, i64 noundef %2)
  br label %return

return:                                           ; preds = %if.end, %if.then
  ret void
}

; Function Attrs: mustprogress nounwind uwtable
define linkonce_odr noundef zeroext i1 @_ZNKSt10_HashtableINSt7__cxx1112basic_stringIcSt11char_traitsIcESaIcEEESt4pairIKS5_S5_ESaIS8_ENSt8__detail10_Select1stESt8equal_toIS5_ESt4hashIS5_ENSA_18_Mod_range_hashingENSA_20_Default_ranged_hashENSA_20_Prime_rehash_policyENSA_17_Hashtable_traitsILb1ELb0ELb1EEEE21_M_uses_single_bucketEPPNSA_15_Hash_node_baseE(ptr noundef nonnull align 8 dereferenceable(56) %this, ptr noundef %__bkts) #1 comdat align 2 {
entry:
  %this.addr = alloca ptr, align 8
  %__bkts.addr = alloca ptr, align 8
  store ptr %this, ptr %this.addr, align 8
  store ptr %__bkts, ptr %__bkts.addr, align 8
  %this1 = load ptr, ptr %this.addr, align 8
  %0 = load ptr, ptr %__bkts.addr, align 8
  %_M_single_bucket = getelementptr inbounds %"class.std::_Hashtable.45", ptr %this1, i32 0, i32 5
  %cmp = icmp eq ptr %0, %_M_single_bucket
  ret i1 %cmp
}

; Function Attrs: mustprogress uwtable
define linkonce_odr void @_ZNSt8__detail16_Hashtable_allocISaINS_10_Hash_nodeISt4pairIKNSt7__cxx1112basic_stringIcSt11char_traitsIcESaIcEEES8_ELb1EEEEE21_M_deallocate_bucketsEPPNS_15_Hash_node_baseEm(ptr noundef nonnull align 1 dereferenceable(1) %this, ptr noundef %__bkts, i64 noundef %__bkt_count) #0 comdat align 2 personality ptr @__gxx_personality_v0 {
entry:
  %this.addr = alloca ptr, align 8
  %__bkts.addr = alloca ptr, align 8
  %__bkt_count.addr = alloca i64, align 8
  %__ptr = alloca ptr, align 8
  %__alloc = alloca %"class.std::allocator.292", align 1
  %exn.slot = alloca ptr, align 8
  %ehselector.slot = alloca i32, align 4
  store ptr %this, ptr %this.addr, align 8
  store ptr %__bkts, ptr %__bkts.addr, align 8
  store i64 %__bkt_count, ptr %__bkt_count.addr, align 8
  %this1 = load ptr, ptr %this.addr, align 8
  %0 = load ptr, ptr %__bkts.addr, align 8
  %call = call noundef ptr @_ZNSt19__ptr_traits_ptr_toIPPNSt8__detail15_Hash_node_baseES2_Lb0EE10pointer_toERS2_(ptr noundef nonnull align 8 dereferenceable(8) %0) #3
  store ptr %call, ptr %__ptr, align 8
  %call2 = call noundef nonnull align 1 dereferenceable(1) ptr @_ZNSt8__detail16_Hashtable_allocISaINS_10_Hash_nodeISt4pairIKNSt7__cxx1112basic_stringIcSt11char_traitsIcESaIcEEES8_ELb1EEEEE17_M_node_allocatorEv(ptr noundef nonnull align 1 dereferenceable(1) %this1)
  call void @_ZNSaIPNSt8__detail15_Hash_node_baseEEC2INS_10_Hash_nodeISt4pairIKNSt7__cxx1112basic_stringIcSt11char_traitsIcESaIcEEESB_ELb1EEEEERKSaIT_E(ptr noundef nonnull align 1 dereferenceable(1) %__alloc, ptr noundef nonnull align 1 dereferenceable(1) %call2) #3
  %1 = load ptr, ptr %__ptr, align 8
  %2 = load i64, ptr %__bkt_count.addr, align 8
  invoke void @_ZNSt16allocator_traitsISaIPNSt8__detail15_Hash_node_baseEEE10deallocateERS3_PS2_m(ptr noundef nonnull align 1 dereferenceable(1) %__alloc, ptr noundef %1, i64 noundef %2)
          to label %invoke.cont unwind label %lpad

invoke.cont:                                      ; preds = %entry
  call void @_ZNSaIPNSt8__detail15_Hash_node_baseEED2Ev(ptr noundef nonnull align 1 dereferenceable(1) %__alloc) #3
  ret void

lpad:                                             ; preds = %entry
  %3 = landingpad { ptr, i32 }
          cleanup
  %4 = extractvalue { ptr, i32 } %3, 0
  store ptr %4, ptr %exn.slot, align 8
  %5 = extractvalue { ptr, i32 } %3, 1
  store i32 %5, ptr %ehselector.slot, align 4
  call void @_ZNSaIPNSt8__detail15_Hash_node_baseEED2Ev(ptr noundef nonnull align 1 dereferenceable(1) %__alloc) #3
  br label %eh.resume

eh.resume:                                        ; preds = %lpad
  %exn = load ptr, ptr %exn.slot, align 8
  %sel = load i32, ptr %ehselector.slot, align 4
  %lpad.val = insertvalue { ptr, i32 } poison, ptr %exn, 0
  %lpad.val3 = insertvalue { ptr, i32 } %lpad.val, i32 %sel, 1
  resume { ptr, i32 } %lpad.val3
}

; Function Attrs: mustprogress nounwind uwtable
define linkonce_odr void @_ZNSaIPNSt8__detail15_Hash_node_baseEEC2INS_10_Hash_nodeISt4pairIKNSt7__cxx1112basic_stringIcSt11char_traitsIcESaIcEEESB_ELb1EEEEERKSaIT_E(ptr noundef nonnull align 1 dereferenceable(1) %this, ptr noundef nonnull align 1 dereferenceable(1) %0) unnamed_addr #1 comdat align 2 {
entry:
  %this.addr = alloca ptr, align 8
  %.addr = alloca ptr, align 8
  store ptr %this, ptr %this.addr, align 8
  store ptr %0, ptr %.addr, align 8
  %this1 = load ptr, ptr %this.addr, align 8
  call void @_ZNSt15__new_allocatorIPNSt8__detail15_Hash_node_baseEEC2Ev(ptr noundef nonnull align 1 dereferenceable(1) %this1) #3
  ret void
}

