target datalayout = "e-m:e-p270:32:32-p271:32:32-p272:64:64-i64:64-i128:128-f80:128-n8:16:32:64-S128"
target triple = "x86_64-unknown-linux-gnu"

%"class.std::vector" = type { %"struct.std::_Vector_base" }
%"struct.std::_Vector_base" = type { %"struct.std::_Vector_base<rocksdb::Slice, std::allocator<rocksdb::Slice>>::_Vector_impl" }
%"struct.std::_Vector_base<rocksdb::Slice, std::allocator<rocksdb::Slice>>::_Vector_impl" = type { %"struct.std::_Vector_base<rocksdb::Slice, std::allocator<rocksdb::Slice>>::_Vector_impl_data" }
%"struct.std::_Vector_base<rocksdb::Slice, std::allocator<rocksdb::Slice>>::_Vector_impl_data" = type { ptr, ptr, ptr }
%"struct.rocksdb::MergeHelper::PlainBaseValueTag" = type { i8 }
%"struct.rocksdb::MergeHelper::WideBaseValueTag" = type { i8 }
%"struct.rocksdb::PerfContext" = type <{ %"struct.rocksdb::PerfContextBase", ptr, i8, [7 x i8] }>
%"struct.rocksdb::PerfContextBase" = type { i64, i64, i64, i64, i64, i64, i64, i64, i64, i64, i64, i64, i64, i64, i64, i64, i64, i64, i64, i64, i64, i64, i64, i64, i64, i64, i64, i64, i64, i64, i64, i64, i64, i64, i64, i64, i64, i64, i64, i64, i64, i64, i64, i64, i64, i64, i64, i64, i64, i64, i64, i64, i64, i64, i64, i64, i64, i64, i64, i64, i64, i64, i64, i64, i64, i64, i64, i64, i64, i64, i64, i64, i64, i64, i64, i64, i64, i64, i64, i64, i64, i64, i64, i64, i64, i64, i64, i64, i64, i64, i64, i64, i64, i64, i64, i64, i64, i64, i64, i64, i64 }
%"class.rocksdb::Slice" = type { ptr, i64 }
%"struct.std::in_place_index_t" = type { i8 }
%"struct.std::in_place_index_t.472" = type { i8 }
%"struct.std::in_place_index_t.476" = type { i8 }
%"struct.rocksdb::MergeHelper::NoBaseValueTag" = type { i8 }
%"class.rocksdb::InternalKeyComparator" = type { %"class.rocksdb::CompareInterface", %"class.rocksdb::UserComparatorWrapper" }
%"class.rocksdb::CompareInterface" = type { ptr }
%"class.rocksdb::UserComparatorWrapper" = type { ptr }
%"class.rocksdb::WBWIIteratorImpl" = type <{ %"class.rocksdb::WBWIIterator", i32, [4 x i8], %"class.rocksdb::SkipList<rocksdb::WriteBatchIndexEntry *, const rocksdb::WriteBatchEntryComparator &>::Iterator", ptr, ptr, ptr, ptr, i8, [7 x i8] }>
%"class.rocksdb::WBWIIterator" = type { ptr }
%"class.rocksdb::SkipList<rocksdb::WriteBatchIndexEntry *, const rocksdb::WriteBatchEntryComparator &>::Iterator" = type { ptr, ptr }
%"struct.rocksdb::WriteBatchWithIndex::Rep" = type { %"class.rocksdb::ReadableWriteBatch", %"class.rocksdb::WriteBatchEntryComparator", [8 x i8], %"class.rocksdb::Arena", %"class.rocksdb::SkipList", i8, i64, i64, i64, [8 x i8] }
%"class.rocksdb::ReadableWriteBatch" = type { %"class.rocksdb::WriteBatch" }
%"class.rocksdb::WriteBatch" = type { %"class.rocksdb::WriteBatchBase", %"class.std::unique_ptr", %"struct.rocksdb::SavePoint", i8, i8, i8, %"struct.std::atomic", i64, %"class.std::unique_ptr.2", i64, %"class.std::__cxx11::basic_string" }
%"class.rocksdb::WriteBatchBase" = type { ptr }
%"class.std::unique_ptr" = type { %"struct.std::__uniq_ptr_data" }
%"struct.std::__uniq_ptr_data" = type { %"class.std::__uniq_ptr_impl" }
%"class.std::__uniq_ptr_impl" = type { %"class.std::tuple" }
%"class.std::tuple" = type { %"struct.std::_Tuple_impl" }
%"struct.std::_Tuple_impl" = type { %"struct.std::_Head_base.1" }
%"struct.std::_Head_base.1" = type { ptr }
%"struct.rocksdb::SavePoint" = type { i64, i32, i32 }
%"struct.std::atomic" = type { %"struct.std::__atomic_base" }
%"struct.std::__atomic_base" = type { i32 }
%"class.std::unique_ptr.2" = type { %"struct.std::__uniq_ptr_data.3" }
%"struct.std::__uniq_ptr_data.3" = type { %"class.std::__uniq_ptr_impl.4" }
%"class.std::__uniq_ptr_impl.4" = type { %"class.std::tuple.5" }
%"class.std::tuple.5" = type { %"struct.std::_Tuple_impl.6" }
%"struct.std::_Tuple_impl.6" = type { %"struct.std::_Head_base.9" }
%"struct.std::_Head_base.9" = type { ptr }
%"class.std::__cxx11::basic_string" = type { %"struct.std::__cxx11::basic_string<char>::_Alloc_hider", i64, %union.anon }
%"struct.std::__cxx11::basic_string<char>::_Alloc_hider" = type { ptr }
%union.anon = type { i64, [8 x i8] }
%"class.rocksdb::WriteBatchEntryComparator" = type { ptr, %"class.std::vector.13", ptr }
%"class.std::vector.13" = type { %"struct.std::_Vector_base.14" }
%"struct.std::_Vector_base.14" = type { %"struct.std::_Vector_base<const rocksdb::Comparator *, std::allocator<const rocksdb::Comparator *>>::_Vector_impl" }
%"struct.std::_Vector_base<const rocksdb::Comparator *, std::allocator<const rocksdb::Comparator *>>::_Vector_impl" = type { %"struct.std::_Vector_base<const rocksdb::Comparator *, std::allocator<const rocksdb::Comparator *>>::_Vector_impl_data" }
%"struct.std::_Vector_base<const rocksdb::Comparator *, std::allocator<const rocksdb::Comparator *>>::_Vector_impl_data" = type { ptr, ptr, ptr }
%"class.rocksdb::Arena" = type { %"class.rocksdb::Allocator", [8 x i8], [2048 x i8], i64, %"class.std::deque", %"class.std::deque.21", i64, ptr, ptr, i64, i64, i64, ptr }
%"class.rocksdb::Allocator" = type { ptr }
%"class.std::deque" = type { %"class.std::_Deque_base" }
%"class.std::_Deque_base" = type { %"struct.std::_Deque_base<std::unique_ptr<char[]>, std::allocator<std::unique_ptr<char[]>>>::_Deque_impl" }
%"struct.std::_Deque_base<std::unique_ptr<char[]>, std::allocator<std::unique_ptr<char[]>>>::_Deque_impl" = type { %"struct.std::_Deque_base<std::unique_ptr<char[]>, std::allocator<std::unique_ptr<char[]>>>::_Deque_impl_data" }
%"struct.std::_Deque_base<std::unique_ptr<char[]>, std::allocator<std::unique_ptr<char[]>>>::_Deque_impl_data" = type { ptr, i64, %"struct.std::_Deque_iterator", %"struct.std::_Deque_iterator" }
%"struct.std::_Deque_iterator" = type { ptr, ptr, ptr, ptr }
%"class.std::deque.21" = type { %"class.std::_Deque_base.22" }
%"class.std::_Deque_base.22" = type { %"struct.std::_Deque_base<rocksdb::MemMapping, std::allocator<rocksdb::MemMapping>>::_Deque_impl" }
%"struct.std::_Deque_base<rocksdb::MemMapping, std::allocator<rocksdb::MemMapping>>::_Deque_impl" = type { %"struct.std::_Deque_base<rocksdb::MemMapping, std::allocator<rocksdb::MemMapping>>::_Deque_impl_data" }
%"struct.std::_Deque_base<rocksdb::MemMapping, std::allocator<rocksdb::MemMapping>>::_Deque_impl_data" = type { ptr, i64, %"struct.std::_Deque_iterator.26", %"struct.std::_Deque_iterator.26" }
%"struct.std::_Deque_iterator.26" = type { ptr, ptr, ptr, ptr }
%"class.rocksdb::SkipList" = type <{ i16, i16, i32, ptr, ptr, ptr, %"struct.std::atomic.27", [4 x i8], ptr, i32, [4 x i8] }>
%"struct.std::atomic.27" = type { %"struct.std::__atomic_base.28" }
%"struct.std::__atomic_base.28" = type { i32 }
%"struct.rocksdb::WriteBatchIndexEntry" = type { i64, i32, i64, i64, ptr }
%"class.rocksdb::Comparator" = type { %"class.rocksdb::Customizable", %"class.rocksdb::CompareInterface", i64 }
%"class.rocksdb::Customizable" = type { %"class.rocksdb::Configurable" }
%"class.rocksdb::Configurable" = type { ptr, %"class.std::vector.29" }
%"class.std::vector.29" = type { %"struct.std::_Vector_base.30" }
%"struct.std::_Vector_base.30" = type { %"struct.std::_Vector_base<rocksdb::Configurable::RegisteredOptions, std::allocator<rocksdb::Configurable::RegisteredOptions>>::_Vector_impl" }
%"struct.std::_Vector_base<rocksdb::Configurable::RegisteredOptions, std::allocator<rocksdb::Configurable::RegisteredOptions>>::_Vector_impl" = type { %"struct.std::_Vector_base<rocksdb::Configurable::RegisteredOptions, std::allocator<rocksdb::Configurable::RegisteredOptions>>::_Vector_impl_data" }
%"struct.std::_Vector_base<rocksdb::Configurable::RegisteredOptions, std::allocator<rocksdb::Configurable::RegisteredOptions>>::_Vector_impl_data" = type { ptr, ptr, ptr }
%"class.rocksdb::Status" = type { i8, i8, i8, i8, i8, i8, %"class.std::unique_ptr.34" }
%"class.std::unique_ptr.34" = type { %"struct.std::__uniq_ptr_data.35" }
%"struct.std::__uniq_ptr_data.35" = type { %"class.std::__uniq_ptr_impl.36" }
%"class.std::__uniq_ptr_impl.36" = type { %"class.std::tuple.37" }
%"class.std::tuple.37" = type { %"struct.std::_Tuple_impl.38" }
%"struct.std::_Tuple_impl.38" = type { %"struct.std::_Head_base.41" }
%"struct.std::_Head_base.41" = type { ptr }
%"class.std::allocator.10" = type { i8 }
%"class.rocksdb::WriteBatchWithIndex" = type { %"class.rocksdb::WriteBatchBase", %"class.std::unique_ptr.42" }
%"class.std::unique_ptr.42" = type { %"struct.std::__uniq_ptr_data.43" }
%"struct.std::__uniq_ptr_data.43" = type { %"class.std::__uniq_ptr_impl.44" }
%"class.std::__uniq_ptr_impl.44" = type { %"class.std::tuple.45" }
%"class.std::tuple.45" = type { %"struct.std::_Tuple_impl.46" }
%"struct.std::_Tuple_impl.46" = type { %"struct.std::_Head_base.49" }
%"struct.std::_Head_base.49" = type { ptr }
%"struct.rocksdb::ReadOptions" = type <{ ptr, ptr, ptr, %"class.std::chrono::duration", %"class.std::chrono::duration", i32, i32, i64, %"class.std::optional", i8, i8, i8, i8, i8, [3 x i8], i64, i64, ptr, ptr, i8, i8, i8, i8, i8, i8, i8, i8, %"class.std::function", i8, i8, [6 x i8] }>
%"class.std::chrono::duration" = type { i64 }
%"class.std::optional" = type { %"struct.std::_Optional_base" }
%"struct.std::_Optional_base" = type { %"struct.std::_Optional_payload" }
%"struct.std::_Optional_payload" = type { %"struct.std::_Optional_payload_base.base", [7 x i8] }
%"struct.std::_Optional_payload_base.base" = type <{ %"union.std::_Optional_payload_base<unsigned long>::_Storage", i8 }>
%"union.std::_Optional_payload_base<unsigned long>::_Storage" = type { i64 }
%"class.std::function" = type { %"class.std::_Function_base", ptr }
%"class.std::_Function_base" = type { %"union.std::_Any_data", ptr }
%"union.std::_Any_data" = type { %"union.std::_Nocopy_types" }
%"union.std::_Nocopy_types" = type { { i64, i64 } }
%"class.rocksdb::MergeContext" = type <{ %"class.std::unique_ptr.66", %"class.std::unique_ptr.74", i8, [7 x i8] }>
%"class.std::unique_ptr.66" = type { %"struct.std::__uniq_ptr_data.67" }
%"struct.std::__uniq_ptr_data.67" = type { %"class.std::__uniq_ptr_impl.68" }
%"class.std::__uniq_ptr_impl.68" = type { %"class.std::tuple.69" }
%"class.std::tuple.69" = type { %"struct.std::_Tuple_impl.70" }
%"struct.std::_Tuple_impl.70" = type { %"struct.std::_Head_base.73" }
%"struct.std::_Head_base.73" = type { ptr }
%"class.std::unique_ptr.74" = type { %"struct.std::__uniq_ptr_data.75" }
%"struct.std::__uniq_ptr_data.75" = type { %"class.std::__uniq_ptr_impl.76" }
%"class.std::__uniq_ptr_impl.76" = type { %"class.std::tuple.77" }
%"class.std::tuple.77" = type { %"struct.std::_Tuple_impl.78" }
%"struct.std::_Tuple_impl.78" = type { %"struct.std::_Head_base.81" }
%"struct.std::_Head_base.81" = type { ptr }
%"class.rocksdb::PinnableSlice" = type <{ %"class.rocksdb::Slice", %"class.rocksdb::Cleanable", %"class.std::__cxx11::basic_string", ptr, i8, [7 x i8] }>
%"class.rocksdb::Cleanable" = type { %"struct.rocksdb::Cleanable::Cleanup" }
%"struct.rocksdb::Cleanable::Cleanup" = type { ptr, ptr, ptr, ptr }
%"struct.rocksdb::DBImpl::GetImplOptions" = type { ptr, ptr, ptr, ptr, ptr, ptr, ptr, i8, ptr, ptr, ptr }
%"class.rocksdb::PinnableWideColumns" = type { %"class.rocksdb::PinnableSlice", %"class.std::vector.82" }
%"class.std::vector.82" = type { %"struct.std::_Vector_base.83" }
%"struct.std::_Vector_base.83" = type { %"struct.std::_Vector_base<rocksdb::WideColumn, std::allocator<rocksdb::WideColumn>>::_Vector_impl" }
%"struct.std::_Vector_base<rocksdb::WideColumn, std::allocator<rocksdb::WideColumn>>::_Vector_impl" = type { %"struct.std::_Vector_base<rocksdb::WideColumn, std::allocator<rocksdb::WideColumn>>::_Vector_impl_data" }
%"struct.std::_Vector_base<rocksdb::WideColumn, std::allocator<rocksdb::WideColumn>>::_Vector_impl_data" = type { ptr, ptr, ptr }
%"struct.rocksdb::ImmutableCFOptions" = type <{ i8, i8, [6 x i8], ptr, %"class.rocksdb::InternalKeyComparator", %"class.std::shared_ptr.438", ptr, %"class.std::shared_ptr.441", i32, i32, i64, i8, [7 x i8], ptr, %"class.std::shared_ptr.444", %"class.std::shared_ptr.447", %"class.std::vector.450", i32, i8, i8, [2 x i8], i32, i8, i8, i8, i8, i64, i64, %"class.std::shared_ptr.455", %"class.std::vector.104", %"class.std::shared_ptr.458", %"class.std::shared_ptr.461", %"class.std::shared_ptr.117", i8, [7 x i8] }>
%"class.std::shared_ptr.438" = type { %"class.std::__shared_ptr.439" }
%"class.std::__shared_ptr.439" = type { ptr, %"class.std::__shared_count" }
%"class.std::__shared_count" = type { ptr }
%"class.std::shared_ptr.441" = type { %"class.std::__shared_ptr.442" }
%"class.std::__shared_ptr.442" = type { ptr, %"class.std::__shared_count" }
%"class.std::shared_ptr.444" = type { %"class.std::__shared_ptr.445" }
%"class.std::__shared_ptr.445" = type { ptr, %"class.std::__shared_count" }
%"class.std::shared_ptr.447" = type { %"class.std::__shared_ptr.448" }
%"class.std::__shared_ptr.448" = type { ptr, %"class.std::__shared_count" }
%"class.std::vector.450" = type { %"struct.std::_Vector_base.451" }
%"struct.std::_Vector_base.451" = type { %"struct.std::_Vector_base<std::shared_ptr<rocksdb::TablePropertiesCollectorFactory>, std::allocator<std::shared_ptr<rocksdb::TablePropertiesCollectorFactory>>>::_Vector_impl" }
%"struct.std::_Vector_base<std::shared_ptr<rocksdb::TablePropertiesCollectorFactory>, std::allocator<std::shared_ptr<rocksdb::TablePropertiesCollectorFactory>>>::_Vector_impl" = type { %"struct.std::_Vector_base<std::shared_ptr<rocksdb::TablePropertiesCollectorFactory>, std::allocator<std::shared_ptr<rocksdb::TablePropertiesCollectorFactory>>>::_Vector_impl_data" }
%"struct.std::_Vector_base<std::shared_ptr<rocksdb::TablePropertiesCollectorFactory>, std::allocator<std::shared_ptr<rocksdb::TablePropertiesCollectorFactory>>>::_Vector_impl_data" = type { ptr, ptr, ptr }
%"class.std::shared_ptr.455" = type { %"class.std::__shared_ptr.456" }
%"class.std::__shared_ptr.456" = type { ptr, %"class.std::__shared_count" }
%"class.std::vector.104" = type { %"struct.std::_Vector_base.105" }
%"struct.std::_Vector_base.105" = type { %"struct.std::_Vector_base<rocksdb::DbPath, std::allocator<rocksdb::DbPath>>::_Vector_impl" }
%"struct.std::_Vector_base<rocksdb::DbPath, std::allocator<rocksdb::DbPath>>::_Vector_impl" = type { %"struct.std::_Vector_base<rocksdb::DbPath, std::allocator<rocksdb::DbPath>>::_Vector_impl_data" }
%"struct.std::_Vector_base<rocksdb::DbPath, std::allocator<rocksdb::DbPath>>::_Vector_impl_data" = type { ptr, ptr, ptr }
%"class.std::shared_ptr.458" = type { %"class.std::__shared_ptr.459" }
%"class.std::__shared_ptr.459" = type { ptr, %"class.std::__shared_count" }
%"class.std::shared_ptr.461" = type { %"class.std::__shared_ptr.462" }
%"class.std::__shared_ptr.462" = type { ptr, %"class.std::__shared_count" }
%"class.std::shared_ptr.117" = type { %"class.std::__shared_ptr.118" }
%"class.std::__shared_ptr.118" = type { ptr, %"class.std::__shared_count" }
%"struct.rocksdb::ImmutableDBOptions" = type <{ i8, i8, i8, i8, i8, i8, i8, i8, ptr, %"class.std::shared_ptr", %"class.std::shared_ptr.95", %"class.std::shared_ptr.98", i8, [3 x i8], i32, %"class.std::shared_ptr.101", i8, [7 x i8], %"class.std::vector.104", %"class.std::__cxx11::basic_string", %"class.std::__cxx11::basic_string", i64, i64, i64, i64, i64, i32, [4 x i8], i64, i64, i64, i64, i8, i8, i8, i8, i8, i8, i8, i8, i64, %"class.std::shared_ptr.109", i32, [4 x i8], i64, i8, [7 x i8], %"class.std::vector.112", i8, i8, i8, i8, i8, [3 x i8], i64, i64, i8, i8, i8, i8, [4 x i8], %"class.std::shared_ptr.117", ptr, i8, i8, i8, i8, i8, i8, i8, i8, i8, i8, i8, [5 x i8], i64, %"class.std::shared_ptr.120", i8, [3 x i8], i32, i64, i8, [7 x i8], %"class.std::__cxx11::basic_string", %"class.rocksdb::SmallEnumSet", i8, [7 x i8], %"class.std::shared_ptr.129", ptr, ptr, ptr, %"class.std::shared_ptr.123", i8, [7 x i8] }>
%"class.std::shared_ptr" = type { %"class.std::__shared_ptr" }
%"class.std::__shared_ptr" = type { ptr, %"class.std::__shared_count" }
%"class.std::shared_ptr.95" = type { %"class.std::__shared_ptr.96" }
%"class.std::__shared_ptr.96" = type { ptr, %"class.std::__shared_count" }
%"class.std::shared_ptr.98" = type { %"class.std::__shared_ptr.99" }
%"class.std::__shared_ptr.99" = type { ptr, %"class.std::__shared_count" }
%"class.std::shared_ptr.101" = type { %"class.std::__shared_ptr.102" }
%"class.std::__shared_ptr.102" = type { ptr, %"class.std::__shared_count" }
%"class.std::shared_ptr.109" = type { %"class.std::__shared_ptr.110" }
%"class.std::__shared_ptr.110" = type { ptr, %"class.std::__shared_count" }
%"class.std::vector.112" = type { %"struct.std::_Vector_base.113" }
%"struct.std::_Vector_base.113" = type { %"struct.std::_Vector_base<std::shared_ptr<rocksdb::EventListener>, std::allocator<std::shared_ptr<rocksdb::EventListener>>>::_Vector_impl" }
%"struct.std::_Vector_base<std::shared_ptr<rocksdb::EventListener>, std::allocator<std::shared_ptr<rocksdb::EventListener>>>::_Vector_impl" = type { %"struct.std::_Vector_base<std::shared_ptr<rocksdb::EventListener>, std::allocator<std::shared_ptr<rocksdb::EventListener>>>::_Vector_impl_data" }
%"struct.std::_Vector_base<std::shared_ptr<rocksdb::EventListener>, std::allocator<std::shared_ptr<rocksdb::EventListener>>>::_Vector_impl_data" = type { ptr, ptr, ptr }
%"class.std::shared_ptr.120" = type { %"class.std::__shared_ptr.121" }
%"class.std::__shared_ptr.121" = type { ptr, %"class.std::__shared_count" }
%"class.rocksdb::SmallEnumSet" = type { i64 }
%"class.std::shared_ptr.129" = type { %"class.std::__shared_ptr.130" }
%"class.std::__shared_ptr.130" = type { ptr, %"class.std::__shared_count" }
%"class.std::shared_ptr.123" = type { %"class.std::__shared_ptr.124" }
%"class.std::__shared_ptr.124" = type { ptr, %"class.std::__shared_count" }
%"class.rocksdb::autovector.390" = type { i64, [5632 x i8], ptr, %"class.std::vector.391" }
%"class.std::vector.391" = type { %"struct.std::_Vector_base.392" }
%"struct.std::_Vector_base.392" = type { %"struct.std::_Vector_base<MergeTuple, std::allocator<MergeTuple>>::_Vector_impl" }
%"struct.std::_Vector_base<MergeTuple, std::allocator<MergeTuple>>::_Vector_impl" = type { %"struct.std::_Vector_base<MergeTuple, std::allocator<MergeTuple>>::_Vector_impl_data" }
%"struct.std::_Vector_base<MergeTuple, std::allocator<MergeTuple>>::_Vector_impl_data" = type { ptr, ptr, ptr }
%"class.rocksdb::autovector.396" = type { i64, [5120 x i8], ptr, %"class.std::vector.397" }
%"class.std::vector.397" = type { %"struct.std::_Vector_base.398" }
%"struct.std::_Vector_base.398" = type { %"struct.std::_Vector_base<rocksdb::KeyContext, std::allocator<rocksdb::KeyContext>>::_Vector_impl" }
%"struct.std::_Vector_base<rocksdb::KeyContext, std::allocator<rocksdb::KeyContext>>::_Vector_impl" = type { %"struct.std::_Vector_base<rocksdb::KeyContext, std::allocator<rocksdb::KeyContext>>::_Vector_impl_data" }
%"struct.std::_Vector_base<rocksdb::KeyContext, std::allocator<rocksdb::KeyContext>>::_Vector_impl_data" = type { ptr, ptr, ptr }
%"class.rocksdb::autovector.402" = type { i64, [256 x i8], ptr, %"class.std::vector.403" }
%"class.std::vector.403" = type { %"struct.std::_Vector_base.404" }
%"struct.std::_Vector_base.404" = type { %"struct.std::_Vector_base<rocksdb::KeyContext *, std::allocator<rocksdb::KeyContext *>>::_Vector_impl" }
%"struct.std::_Vector_base<rocksdb::KeyContext *, std::allocator<rocksdb::KeyContext *>>::_Vector_impl" = type { %"struct.std::_Vector_base<rocksdb::KeyContext *, std::allocator<rocksdb::KeyContext *>>::_Vector_impl_data" }
%"struct.std::_Vector_base<rocksdb::KeyContext *, std::allocator<rocksdb::KeyContext *>>::_Vector_impl_data" = type { ptr, ptr, ptr }
%"class.rocksdb::autovector<rocksdb::KeyContext, 32>::iterator_impl" = type { ptr, i64 }
%"class.rocksdb::autovector<MergeTuple, 32>::iterator_impl" = type { ptr, i64 }
%"struct.rocksdb::KeyContext" = type { ptr, ptr, %"class.rocksdb::Slice", %"class.rocksdb::Slice", %"class.rocksdb::Slice", ptr, ptr, %"class.rocksdb::MergeContext", i64, i8, i8, ptr, ptr, ptr, ptr, ptr }
%struct.MergeTuple = type { %"class.rocksdb::Slice", ptr, %"class.rocksdb::PinnableWideColumns", %"class.rocksdb::MergeContext", ptr }
%"struct.rocksdb::WriteEntry" = type { i32, %"class.rocksdb::Slice", %"class.rocksdb::Slice" }
%"struct.rocksdb::SkipList<rocksdb::WriteBatchIndexEntry *, const rocksdb::WriteBatchEntryComparator &>::Node" = type { ptr, [1 x %"struct.std::atomic.408"] }
%"struct.std::atomic.408" = type { %"struct.std::__atomic_base.409" }
%"struct.std::__atomic_base.409" = type { ptr }
%"class.__gnu_cxx::__normal_iterator" = type { ptr }
%"struct.std::vector<const rocksdb::Comparator *>::_Temporary_value" = type { ptr, %"union.std::vector<const rocksdb::Comparator *>::_Temporary_value::_Storage" }
%"union.std::vector<const rocksdb::Comparator *>::_Temporary_value::_Storage" = type { ptr }
%"class.std::move_iterator" = type { ptr }
%"struct.std::_Vector_base.417" = type { %"struct.std::_Vector_base<std::unique_ptr<std::__cxx11::basic_string<char>>, std::allocator<std::unique_ptr<std::__cxx11::basic_string<char>>>>::_Vector_impl" }
%"struct.std::_Vector_base<std::unique_ptr<std::__cxx11::basic_string<char>>, std::allocator<std::unique_ptr<std::__cxx11::basic_string<char>>>>::_Vector_impl" = type { %"struct.std::_Vector_base<std::unique_ptr<std::__cxx11::basic_string<char>>, std::allocator<std::unique_ptr<std::__cxx11::basic_string<char>>>>::_Vector_impl_data" }
%"struct.std::_Vector_base<std::unique_ptr<std::__cxx11::basic_string<char>>, std::allocator<std::unique_ptr<std::__cxx11::basic_string<char>>>>::_Vector_impl_data" = type { ptr, ptr, ptr }
%"class.std::unique_ptr.421" = type { %"struct.std::__uniq_ptr_data.422" }
%"struct.std::__uniq_ptr_data.422" = type { %"class.std::__uniq_ptr_impl.423" }
%"class.std::__uniq_ptr_impl.423" = type { %"class.std::tuple.424" }
%"class.std::tuple.424" = type { %"struct.std::_Tuple_impl.425" }
%"struct.std::_Tuple_impl.425" = type { %"struct.std::_Head_base.428" }
%"struct.std::_Head_base.428" = type { ptr }
%"class.__gnu_cxx::__normal_iterator.431" = type { ptr }
%"class.rocksdb::WideColumn" = type { %"class.rocksdb::Slice", %"class.rocksdb::Slice" }
%"class.__gnu_cxx::__normal_iterator.437" = type { ptr }
%"struct.std::_Vector_base.433" = type { %"struct.std::_Vector_base<rocksdb::AttributeGroup, std::allocator<rocksdb::AttributeGroup>>::_Vector_impl" }
%"struct.std::_Vector_base<rocksdb::AttributeGroup, std::allocator<rocksdb::AttributeGroup>>::_Vector_impl" = type { %"struct.std::_Vector_base<rocksdb::AttributeGroup, std::allocator<rocksdb::AttributeGroup>>::_Vector_impl_data" }
%"struct.std::_Vector_base<rocksdb::AttributeGroup, std::allocator<rocksdb::AttributeGroup>>::_Vector_impl_data" = type { ptr, ptr, ptr }
%"class.rocksdb::Random" = type { i32 }
%"class.std::variant" = type { %"struct.std::__detail::__variant::_Variant_base.base", [7 x i8] }
%"struct.std::__detail::__variant::_Variant_base.base" = type { %"struct.std::__detail::__variant::_Move_assign_base.base" }
%"struct.std::__detail::__variant::_Move_assign_base.base" = type { %"struct.std::__detail::__variant::_Copy_assign_base.base" }
%"struct.std::__detail::__variant::_Copy_assign_base.base" = type { %"struct.std::__detail::__variant::_Move_ctor_base.base" }
%"struct.std::__detail::__variant::_Move_ctor_base.base" = type { %"struct.std::__detail::__variant::_Copy_ctor_base.base" }
%"struct.std::__detail::__variant::_Copy_ctor_base.base" = type { %"struct.std::__detail::__variant::_Variant_storage.base" }
%"struct.std::__detail::__variant::_Variant_storage.base" = type <{ %"union.std::__detail::__variant::_Variadic_union", i8 }>
%"union.std::__detail::__variant::_Variadic_union" = type { %"union.std::__detail::__variant::_Variadic_union.464" }
%"union.std::__detail::__variant::_Variadic_union.464" = type { %"struct.std::__detail::__variant::_Uninitialized.465", [8 x i8] }
%"struct.std::__detail::__variant::_Uninitialized.465" = type { %"class.rocksdb::Slice" }
%"struct.std::__detail::__variant::_Variant_storage" = type <{ %"union.std::__detail::__variant::_Variadic_union", i8, [7 x i8] }>
%class.anon = type { i8 }
%class.anon.473 = type { i8 }
%"struct.std::__detail::__variant::_Uninitialized" = type { %"struct.std::monostate" }
%"struct.std::monostate" = type { i8 }
%"struct.std::__detail::__variant::_Uninitialized.467" = type { %"struct.__gnu_cxx::__aligned_membuf" }
%"struct.__gnu_cxx::__aligned_membuf" = type { [24 x i8] }
%"class.__gnu_cxx::__normal_iterator.475" = type { ptr }
%"class.std::allocator.84" = type { i8 }
%"class.__gnu_cxx::__normal_iterator.477" = type { ptr }
%"class.std::move_iterator.478" = type { ptr }
%"class.__gnu_cxx::__normal_iterator.479" = type { ptr }
%"class.__gnu_cxx::__normal_iterator.480" = type { ptr }

$_ZNK7rocksdb21InternalKeyComparator7CompareERKNS_5SliceES3_ = comdat any

$_ZNK7rocksdb21UserComparatorWrapper7CompareERKNS_5SliceES3_ = comdat any

$_ZN7rocksdb14ExtractUserKeyERKNS_5SliceE = comdat any

$_ZN7rocksdb13DecodeFixed64EPKc = comdat any

$_ZNK7rocksdb5Slice4dataEv = comdat any

$_ZNK7rocksdb5Slice4sizeEv = comdat any

$_ZNSt6vectorIN7rocksdb5SliceESaIS1_EEC2Ev = comdat any

$_ZNSt6vectorIN7rocksdb5SliceESaIS1_EED2Ev = comdat any

$_ZN7rocksdb16WBWIIteratorImplC2EjPNS_8SkipListIPNS_20WriteBatchIndexEntryERKNS_25WriteBatchEntryComparatorEEEPKNS_18ReadableWriteBatchEPS4_PKNS_5SliceESF_ = comdat any

$_ZN7rocksdb16WBWIIteratorImpl4SeekERKNS_5SliceE = comdat any

$_ZNK7rocksdb16WBWIIteratorImpl5ValidEv = comdat any

$_ZN7rocksdb16WBWIIteratorImpl4PrevEv = comdat any

$_ZN7rocksdb16WBWIIteratorImpl10SeekToLastEv = comdat any

$_ZNK7rocksdb16WBWIIteratorImpl11GetRawEntryEv = comdat any

$_ZN7rocksdb16WBWIIteratorImplD2Ev = comdat any

$_ZN7rocksdb25WriteBatchEntryComparator18SetComparatorForCFEjPKNS_10ComparatorE = comdat any

$_ZNK7rocksdb10WriteBatch4DataB5cxx11Ev = comdat any

$_ZN7rocksdb5SliceC2EPKcm = comdat any

$_ZN7rocksdb5SliceC2Ev = comdat any

$_ZNK7rocksdb10Comparator14timestamp_sizeEv = comdat any

$_ZN7rocksdb5Slice13remove_suffixEm = comdat any

$_ZN7rocksdb5Arena8AllocateEm = comdat any

$_ZN7rocksdb20WriteBatchIndexEntryC2Emjmm = comdat any

$_ZN7rocksdb8SkipListIPNS_20WriteBatchIndexEntryERKNS_25WriteBatchEntryComparatorEE6InsertERKS2_ = comdat any

$_ZN7rocksdb8SkipListIPNS_20WriteBatchIndexEntryERKNS_25WriteBatchEntryComparatorEEC2ES5_PNS_9AllocatorEii = comdat any

$_ZN7rocksdb6StatusC2Ev = comdat any

$_ZN7rocksdb6StatusC2EOS0_ = comdat any

$_ZN7rocksdb5SliceC2ERKNSt7__cxx1112basic_stringIcSt11char_traitsIcESaIcEEE = comdat any

$_ZN7rocksdb5Slice13remove_prefixEm = comdat any

$_ZNK7rocksdb6Status2okEv = comdat any

$_ZNK7rocksdb5Slice5emptyEv = comdat any

$_ZN7rocksdb6StatusaSEOS0_ = comdat any

$_ZN7rocksdb6StatusD2Ev = comdat any

$_ZN7rocksdb6Status10CorruptionERKNS_5SliceES3_ = comdat any

$_ZN7rocksdb5SliceC2EPKc = comdat any

$_ZNSt7__cxx119to_stringEj = comdat any

$_ZN7rocksdb14WriteBatchBaseC2Ev = comdat any

$_ZN7rocksdb19WriteBatchWithIndex3RepC2EPKNS_10ComparatorEmmbm = comdat any

$_ZNSt10unique_ptrIN7rocksdb19WriteBatchWithIndex3RepESt14default_deleteIS2_EEC2IS4_vEEPS2_ = comdat any

$_ZN7rocksdb14WriteBatchBaseD2Ev = comdat any

$_ZNSt10unique_ptrIN7rocksdb19WriteBatchWithIndex3RepESt14default_deleteIS2_EED2Ev = comdat any

$_ZN7rocksdb14WriteBatchBaseC2ERKS0_ = comdat any

$_ZNSt10unique_ptrIN7rocksdb19WriteBatchWithIndex3RepESt14default_deleteIS2_EEC2EOS5_ = comdat any

$_ZN7rocksdb14WriteBatchBaseaSERKS0_ = comdat any

$_ZNSt10unique_ptrIN7rocksdb19WriteBatchWithIndex3RepESt14default_deleteIS2_EEaSEOS5_ = comdat any

$_ZNKSt10unique_ptrIN7rocksdb19WriteBatchWithIndex3RepESt14default_deleteIS2_EEptEv = comdat any

$_ZN7rocksdb25WriteBatchEntryComparator18default_comparatorEv = comdat any

$_ZN7rocksdb19WriteBatchWithIndex3Rep18SetLastEntryOffsetEv = comdat any

$_ZN7rocksdb10WriteBatch3PutERKNS_5SliceES3_ = comdat any

$_ZN7rocksdb6Status15InvalidArgumentERKNS_5SliceES3_ = comdat any

$_ZN7rocksdb6Status12NotSupportedENS0_7SubCodeE = comdat any

$_ZN7rocksdb10WriteBatch6DeleteERKNS_5SliceE = comdat any

$_ZN7rocksdb10WriteBatch12SingleDeleteERKNS_5SliceE = comdat any

$_ZN7rocksdb10WriteBatch5MergeERKNS_5SliceES3_ = comdat any

$_ZN7rocksdb12MergeContextC2Ev = comdat any

$_ZN7rocksdb6Status8NotFoundENS0_7SubCodeE = comdat any

$_ZN7rocksdb6Status15MergeInProgressENS0_7SubCodeE = comdat any

$_ZN7rocksdb12MergeContextD2Ev = comdat any

$_ZN7rocksdb13PinnableSliceC2EPNSt7__cxx1112basic_stringIcSt11char_traitsIcESaIcEEE = comdat any

$_ZNK7rocksdb13PinnableSlice8IsPinnedEv = comdat any

$_ZN7rocksdb13PinnableSliceD2Ev = comdat any

$_ZN7rocksdb17WideColumnsHelper20HasDefaultColumnOnlyERKSt6vectorINS_10WideColumnESaIS2_EE = comdat any

$_ZNK7rocksdb19PinnableWideColumns7columnsEv = comdat any

$_ZN7rocksdb27WriteBatchWithIndexInternal21MergeKeyWithBaseValueINS_11MergeHelper17PlainBaseValueTagENS_5SliceEJPNSt7__cxx1112basic_stringIcSt11char_traitsIcESaIcEEEPNS_19PinnableWideColumnsEEEENS_6StatusEPNS_18ColumnFamilyHandleERKS4_RKT_RKT0_RKNS_12MergeContextEDpT1_ = comdat any

$_ZN7rocksdb17WideColumnsHelper16GetDefaultColumnERKSt6vectorINS_10WideColumnESaIS2_EE = comdat any

$_ZN7rocksdb27WriteBatchWithIndexInternal21MergeKeyWithBaseValueINS_11MergeHelper16WideBaseValueTagESt6vectorINS_10WideColumnESaIS5_EEJPNSt7__cxx1112basic_stringIcSt11char_traitsIcESaIcEEEPNS_19PinnableWideColumnsEEEENS_6StatusEPNS_18ColumnFamilyHandleERKNS_5SliceERKT_RKT0_RKNS_12MergeContextEDpT1_ = comdat any

$_ZN7rocksdb27WriteBatchWithIndexInternal23MergeKeyWithNoBaseValueIJPNSt7__cxx1112basic_stringIcSt11char_traitsIcESaIcEEEPNS_19PinnableWideColumnsEEEENS_6StatusEPNS_18ColumnFamilyHandleERKNS_5SliceERKNS_12MergeContextEDpT_ = comdat any

$_ZN7rocksdb13PinnableSlice5ResetEv = comdat any

$_ZN7rocksdb13PinnableSlice7GetSelfB5cxx11Ev = comdat any

$_ZN7rocksdb13PinnableSlice7PinSelfEv = comdat any

$_ZN7rocksdb6DBImpl14GetImplOptionsC2Ev = comdat any

$_ZN7rocksdb19PinnableWideColumnsC2Ev = comdat any

$_ZN7rocksdb22static_cast_with_checkINS_6DBImplENS_2DBEEEPT_PT0_ = comdat any

$_ZNK7rocksdb6Status10IsNotFoundEv = comdat any

$_ZN7rocksdb19PinnableWideColumnsD2Ev = comdat any

$_ZN7rocksdb10autovectorINS_10KeyContextELm32EEC2Ev = comdat any

$_ZN7rocksdb10autovectorINS_10KeyContextELm32EE12emplace_backIJRPNS_18ColumnFamilyHandleERKNS_5SliceEDnDnDnRKPNS_6StatusEEEEvDpOT_ = comdat any

$_ZN7rocksdb10autovectorINS_10KeyContextELm32EE12emplace_backIJRPNS_18ColumnFamilyHandleERKNS_5SliceERKPNS_13PinnableSliceEDnDnRKPNS_6StatusEEEEvDpOT_ = comdat any

$_ZN7rocksdb10autovectorIPNS_10KeyContextELm32EEC2Ev = comdat any

$_ZN7rocksdb10autovectorIPNS_10KeyContextELm32EE7reserveEm = comdat any

$_ZNK7rocksdb10autovectorINS_10KeyContextELm32EE4sizeEv = comdat any

$_ZN7rocksdb10autovectorINS_10KeyContextELm32EE5beginEv = comdat any

$_ZN7rocksdb10autovectorINS_10KeyContextELm32EE3endEv = comdat any

$_ZNK7rocksdb10autovectorINS_10KeyContextELm32EE13iterator_implIS2_S1_EneERKS4_ = comdat any

$_ZNK7rocksdb10autovectorINS_10KeyContextELm32EE13iterator_implIS2_S1_EdeEv = comdat any

$_ZN7rocksdb10autovectorIPNS_10KeyContextELm32EE12emplace_backIJS2_EEEvDpOT_ = comdat any

$_ZN7rocksdb10autovectorINS_10KeyContextELm32EE13iterator_implIS2_S1_EppEv = comdat any

$_ZN7rocksdb10autovectorINS_10KeyContextELm32EE13iterator_implIS2_S1_ED2Ev = comdat any

$_ZNK7rocksdb10autovectorIPNS_10KeyContextELm32EE4sizeEv = comdat any

$_ZN7rocksdb10autovectorIPNS_10KeyContextELm32EED2Ev = comdat any

$_ZN7rocksdb10autovectorINS_10KeyContextELm32EED2Ev = comdat any

$_ZN7rocksdb10WriteBatch11SetMaxBytesEm = comdat any

$_ZNK7rocksdb10WriteBatch11GetDataSizeEv = comdat any

$_ZN7rocksdb21InternalKeyComparatorD2Ev = comdat any

$_ZN7rocksdb21InternalKeyComparatorD0Ev = comdat any

$_ZN7rocksdb19WriteBatchWithIndex8TimedPutEPNS_18ColumnFamilyHandleERKNS_5SliceES5_m = comdat any

$_ZN7rocksdb19WriteBatchWithIndex9PutEntityERKNS_5SliceERKSt6vectorINS_14AttributeGroupESaIS5_EE = comdat any

$_ZN7rocksdb19WriteBatchWithIndex5MergeEPNS_18ColumnFamilyHandleERKNS_5SliceES5_S5_ = comdat any

$_ZN7rocksdb19WriteBatchWithIndex11DeleteRangeEPNS_18ColumnFamilyHandleERKNS_5SliceES5_ = comdat any

$_ZN7rocksdb19WriteBatchWithIndex11DeleteRangeERKNS_5SliceES3_ = comdat any

$_ZN7rocksdb19WriteBatchWithIndex11DeleteRangeEPNS_18ColumnFamilyHandleERKNS_5SliceES5_S5_ = comdat any

$_ZTWN7rocksdb10perf_levelE = comdat any

$_ZTWN7rocksdb12perf_contextE = comdat any

$_ZNSt12_Vector_baseIN7rocksdb5SliceESaIS1_EEC2Ev = comdat any

$_ZNSt12_Vector_baseIN7rocksdb5SliceESaIS1_EE12_Vector_implC2Ev = comdat any

$_ZNSaIN7rocksdb5SliceEEC2Ev = comdat any

$_ZNSt12_Vector_baseIN7rocksdb5SliceESaIS1_EE17_Vector_impl_dataC2Ev = comdat any

$_ZNSt15__new_allocatorIN7rocksdb5SliceEEC2Ev = comdat any

$_ZN7rocksdb12WBWIIteratorC2Ev = comdat any

$_ZN7rocksdb8SkipListIPNS_20WriteBatchIndexEntryERKNS_25WriteBatchEntryComparatorEE8IteratorC2EPKS6_ = comdat any

$_ZN7rocksdb12WBWIIteratorD2Ev = comdat any

$_ZN7rocksdb12WBWIIteratorD0Ev = comdat any

$_ZN7rocksdb8SkipListIPNS_20WriteBatchIndexEntryERKNS_25WriteBatchEntryComparatorEE8Iterator7SetListEPKS6_ = comdat any

$_ZNK7rocksdb16WBWIIteratorImpl16BeforeLowerBoundEPKNS_5SliceE = comdat any

$_ZN7rocksdb20WriteBatchIndexEntryC2EPKNS_5SliceEjbb = comdat any

$_ZN7rocksdb8SkipListIPNS_20WriteBatchIndexEntryERKNS_25WriteBatchEntryComparatorEE8Iterator4SeekERKS2_ = comdat any

$_ZNK7rocksdb16WBWIIteratorImpl27ValidRegardlessOfBoundLimitEv = comdat any

$_ZNK7rocksdb16WBWIIteratorImpl14TestOutOfBoundEv = comdat any

$_ZNSt14numeric_limitsImE3maxEv = comdat any

$_ZNK7rocksdb8SkipListIPNS_20WriteBatchIndexEntryERKNS_25WriteBatchEntryComparatorEE18FindGreaterOrEqualERKS2_ = comdat any

$_ZNK7rocksdb8SkipListIPNS_20WriteBatchIndexEntryERKNS_25WriteBatchEntryComparatorEE12GetMaxHeightEv = comdat any

$_ZN7rocksdb8SkipListIPNS_20WriteBatchIndexEntryERKNS_25WriteBatchEntryComparatorEE4Node4NextEi = comdat any

$_ZStanSt12memory_orderSt23__memory_order_modifier = comdat any

$__clang_call_terminate = comdat any

$_ZNKSt6atomicIPN7rocksdb8SkipListIPNS0_20WriteBatchIndexEntryERKNS0_25WriteBatchEntryComparatorEE4NodeEE4loadESt12memory_order = comdat any

$_ZNK7rocksdb8SkipListIPNS_20WriteBatchIndexEntryERKNS_25WriteBatchEntryComparatorEE8Iterator5ValidEv = comdat any

$_ZNK7rocksdb8SkipListIPNS_20WriteBatchIndexEntryERKNS_25WriteBatchEntryComparatorEE8Iterator3keyEv = comdat any

$_ZNK7rocksdb16WBWIIteratorImpl19AtOrAfterUpperBoundEPKNS_5SliceE = comdat any

$_ZN7rocksdb8SkipListIPNS_20WriteBatchIndexEntryERKNS_25WriteBatchEntryComparatorEE8Iterator4PrevEv = comdat any

$_ZNK7rocksdb8SkipListIPNS_20WriteBatchIndexEntryERKNS_25WriteBatchEntryComparatorEE12FindLessThanERKS2_PPNS6_4NodeE = comdat any

$_ZNK7rocksdb8SkipListIPNS_20WriteBatchIndexEntryERKNS_25WriteBatchEntryComparatorEE14KeyIsAfterNodeERKS2_PNS6_4NodeE = comdat any

$_ZN7rocksdb8SkipListIPNS_20WriteBatchIndexEntryERKNS_25WriteBatchEntryComparatorEE8Iterator10SeekToLastEv = comdat any

$_ZNK7rocksdb8SkipListIPNS_20WriteBatchIndexEntryERKNS_25WriteBatchEntryComparatorEE8FindLastEv = comdat any

$_ZNKSt6vectorIPKN7rocksdb10ComparatorESaIS3_EE4sizeEv = comdat any

$_ZNSt6vectorIPKN7rocksdb10ComparatorESaIS3_EE6resizeEmRKS3_ = comdat any

$_ZNSt6vectorIPKN7rocksdb10ComparatorESaIS3_EEixEm = comdat any

$_ZNSt6vectorIPKN7rocksdb10ComparatorESaIS3_EE14_M_fill_insertEN9__gnu_cxx17__normal_iteratorIPS3_S5_EEmRKS3_ = comdat any

$_ZNSt6vectorIPKN7rocksdb10ComparatorESaIS3_EE3endEv = comdat any

$_ZNSt6vectorIPKN7rocksdb10ComparatorESaIS3_EE15_M_erase_at_endEPS3_ = comdat any

$_ZNSt6vectorIPKN7rocksdb10ComparatorESaIS3_EE16_Temporary_valueC2IJRKS3_EEEPS5_DpOT_ = comdat any

$_ZNSt6vectorIPKN7rocksdb10ComparatorESaIS3_EE16_Temporary_value6_M_valEv = comdat any

$_ZN9__gnu_cxxmiIPPKN7rocksdb10ComparatorESt6vectorIS4_SaIS4_EEEENS_17__normal_iteratorIT_T0_E15difference_typeERKSC_SF_ = comdat any

$_ZSt22__uninitialized_move_aIPPKN7rocksdb10ComparatorES4_SaIS3_EET0_T_S7_S6_RT1_ = comdat any

$_ZNSt12_Vector_baseIPKN7rocksdb10ComparatorESaIS3_EE19_M_get_Tp_allocatorEv = comdat any

$_ZSt13move_backwardIPPKN7rocksdb10ComparatorES4_ET0_T_S6_S5_ = comdat any

$_ZNK9__gnu_cxx17__normal_iteratorIPPKN7rocksdb10ComparatorESt6vectorIS4_SaIS4_EEE4baseEv = comdat any

$_ZSt4fillIPPKN7rocksdb10ComparatorES3_EvT_S5_RKT0_ = comdat any

$_ZSt24__uninitialized_fill_n_aIPPKN7rocksdb10ComparatorEmS3_S3_ET_S5_T0_RKT1_RSaIT2_E = comdat any

$_ZNSt6vectorIPKN7rocksdb10ComparatorESaIS3_EE16_Temporary_valueD2Ev = comdat any

$_ZNKSt6vectorIPKN7rocksdb10ComparatorESaIS3_EE12_M_check_lenEmPKc = comdat any

$_ZNSt12_Vector_baseIPKN7rocksdb10ComparatorESaIS3_EE11_M_allocateEm = comdat any

$_ZSt34__uninitialized_move_if_noexcept_aIPPKN7rocksdb10ComparatorES4_SaIS3_EET0_T_S7_S6_RT1_ = comdat any

$_ZSt8_DestroyIPPKN7rocksdb10ComparatorES3_EvT_S5_RSaIT0_E = comdat any

$_ZNSt12_Vector_baseIPKN7rocksdb10ComparatorESaIS3_EE13_M_deallocateEPS3_m = comdat any

$_ZNSt6vectorIPKN7rocksdb10ComparatorESaIS3_EE16_Temporary_value8_StorageC2Ev = comdat any

$_ZNSt16allocator_traitsISaIPKN7rocksdb10ComparatorEEE9constructIS3_JRKS3_EEEvRS4_PT_DpOT0_ = comdat any

$_ZNSt6vectorIPKN7rocksdb10ComparatorESaIS3_EE16_Temporary_value6_M_ptrEv = comdat any

$_ZNSt15__new_allocatorIPKN7rocksdb10ComparatorEE9constructIS3_JRKS3_EEEvPT_DpOT0_ = comdat any

$_ZSt22__uninitialized_copy_aISt13move_iteratorIPPKN7rocksdb10ComparatorEES5_S4_ET0_T_S8_S7_RSaIT1_E = comdat any

$_ZSt18make_move_iteratorIPPKN7rocksdb10ComparatorEESt13move_iteratorIT_ES6_ = comdat any

$_ZSt18uninitialized_copyISt13move_iteratorIPPKN7rocksdb10ComparatorEES5_ET0_T_S8_S7_ = comdat any

$_ZNSt20__uninitialized_copyILb1EE13__uninit_copyISt13move_iteratorIPPKN7rocksdb10ComparatorEES7_EET0_T_SA_S9_ = comdat any

$_ZSt4copyISt13move_iteratorIPPKN7rocksdb10ComparatorEES5_ET0_T_S8_S7_ = comdat any

$_ZSt13__copy_move_aILb1EPPKN7rocksdb10ComparatorES4_ET1_T0_S6_S5_ = comdat any

$_ZSt12__miter_baseIPPKN7rocksdb10ComparatorEEDTcl12__miter_basecldtfp_4baseEEESt13move_iteratorIT_E = comdat any

$_ZSt12__niter_wrapIPPKN7rocksdb10ComparatorEET_RKS5_S5_ = comdat any

$_ZSt14__copy_move_a1ILb1EPPKN7rocksdb10ComparatorES4_ET1_T0_S6_S5_ = comdat any

$_ZSt12__niter_baseIPPKN7rocksdb10ComparatorEET_S5_ = comdat any

$_ZSt14__copy_move_a2ILb1EPPKN7rocksdb10ComparatorES4_ET1_T0_S6_S5_ = comdat any

$_ZNSt11__copy_moveILb1ELb1ESt26random_access_iterator_tagE8__copy_mIPKN7rocksdb10ComparatorEEEPT_PKS7_SA_S8_ = comdat any

$_ZSt12__miter_baseIPPKN7rocksdb10ComparatorEET_S5_ = comdat any

$_ZNKSt13move_iteratorIPPKN7rocksdb10ComparatorEE4baseEv = comdat any

$_ZNSt13move_iteratorIPPKN7rocksdb10ComparatorEEC2ES4_ = comdat any

$_ZSt22__copy_move_backward_aILb1EPPKN7rocksdb10ComparatorES4_ET1_T0_S6_S5_ = comdat any

$_ZSt23__copy_move_backward_a1ILb1EPPKN7rocksdb10ComparatorES4_ET1_T0_S6_S5_ = comdat any

$_ZSt23__copy_move_backward_a2ILb1EPPKN7rocksdb10ComparatorES4_ET1_T0_S6_S5_ = comdat any

$_ZNSt20__copy_move_backwardILb1ELb1ESt26random_access_iterator_tagE13__copy_move_bIPKN7rocksdb10ComparatorEEEPT_PKS7_SA_S8_ = comdat any

$_ZSt8__fill_aIPPKN7rocksdb10ComparatorES3_EvT_S5_RKT0_ = comdat any

$_ZSt9__fill_a1IPPKN7rocksdb10ComparatorES3_EN9__gnu_cxx11__enable_ifIXsr11__is_scalarIT0_EE7__valueEvE6__typeET_SA_RKS7_ = comdat any

$_ZSt20uninitialized_fill_nIPPKN7rocksdb10ComparatorEmS3_ET_S5_T0_RKT1_ = comdat any

$_ZNSt22__uninitialized_fill_nILb1EE15__uninit_fill_nIPPKN7rocksdb10ComparatorEmS5_EET_S7_T0_RKT1_ = comdat any

$_ZSt6fill_nIPPKN7rocksdb10ComparatorEmS3_ET_S5_T0_RKT1_ = comdat any

$_ZSt10__fill_n_aIPPKN7rocksdb10ComparatorEmS3_ET_S5_T0_RKT1_St26random_access_iterator_tag = comdat any

$_ZSt17__size_to_integerm = comdat any

$_ZSt19__iterator_categoryIPPKN7rocksdb10ComparatorEENSt15iterator_traitsIT_E17iterator_categoryERKS6_ = comdat any

$_ZNSt16allocator_traitsISaIPKN7rocksdb10ComparatorEEE7destroyIS3_EEvRS4_PT_ = comdat any

$_ZNSt6vectorIPKN7rocksdb10ComparatorESaIS3_EE16_Temporary_value8_StorageD2Ev = comdat any

$_ZNSt15__new_allocatorIPKN7rocksdb10ComparatorEE7destroyIS3_EEvPT_ = comdat any

$_ZNKSt6vectorIPKN7rocksdb10ComparatorESaIS3_EE8max_sizeEv = comdat any

$_ZSt3maxImERKT_S2_S2_ = comdat any

$_ZNSt6vectorIPKN7rocksdb10ComparatorESaIS3_EE11_S_max_sizeERKS4_ = comdat any

$_ZNKSt12_Vector_baseIPKN7rocksdb10ComparatorESaIS3_EE19_M_get_Tp_allocatorEv = comdat any

$_ZNSt16allocator_traitsISaIPKN7rocksdb10ComparatorEEE8max_sizeERKS4_ = comdat any

$_ZSt3minImERKT_S2_S2_ = comdat any

$_ZNKSt15__new_allocatorIPKN7rocksdb10ComparatorEE8max_sizeEv = comdat any

$_ZNKSt15__new_allocatorIPKN7rocksdb10ComparatorEE11_M_max_sizeEv = comdat any

$_ZNSt16allocator_traitsISaIPKN7rocksdb10ComparatorEEE8allocateERS4_m = comdat any

$_ZNSt15__new_allocatorIPKN7rocksdb10ComparatorEE8allocateEmPKv = comdat any

$_ZSt32__make_move_if_noexcept_iteratorIPKN7rocksdb10ComparatorESt13move_iteratorIPS3_EET0_PT_ = comdat any

$_ZSt8_DestroyIPPKN7rocksdb10ComparatorEEvT_S5_ = comdat any

$_ZNSt12_Destroy_auxILb1EE9__destroyIPPKN7rocksdb10ComparatorEEEvT_S7_ = comdat any

$_ZNSt16allocator_traitsISaIPKN7rocksdb10ComparatorEEE10deallocateERS4_PS3_m = comdat any

$_ZNSt15__new_allocatorIPKN7rocksdb10ComparatorEE10deallocateEPS3_m = comdat any

$_ZN9__gnu_cxx17__normal_iteratorIPPKN7rocksdb10ComparatorESt6vectorIS4_SaIS4_EEEC2ERKS5_ = comdat any

$_ZNSt10unique_ptrIA_KcSt14default_deleteIS1_EEC2IS3_vEEDn = comdat any

$_ZNSt15__uniq_ptr_dataIKcSt14default_deleteIA_S0_ELb1ELb1EEC2Ev = comdat any

$_ZNSt15__uniq_ptr_implIKcSt14default_deleteIA_S0_EEC2Ev = comdat any

$_ZNSt5tupleIJPKcSt14default_deleteIA_S0_EEEC2ILb1ETnNSt9enable_ifIXclsr17_TupleConstraintsIXT_ES1_S4_EE37__is_implicitly_default_constructibleEEbE4typeELb1EEEv = comdat any

$_ZNSt11_Tuple_implILm0EJPKcSt14default_deleteIA_S0_EEEC2Ev = comdat any

$_ZNSt11_Tuple_implILm1EJSt14default_deleteIA_KcEEEC2Ev = comdat any

$_ZNSt10_Head_baseILm0EPKcLb0EEC2Ev = comdat any

$_ZNSt10_Head_baseILm1ESt14default_deleteIA_KcELb1EEC2Ev = comdat any

$_ZNK7rocksdb6Status11MarkCheckedEv = comdat any

$_ZNK7rocksdb6Status4codeEv = comdat any

$_ZNK7rocksdb6Status9MustCheckEv = comdat any

$_ZNSt10unique_ptrIA_KcSt14default_deleteIS1_EEaSEOS4_ = comdat any

$_ZNSt15__uniq_ptr_dataIKcSt14default_deleteIA_S0_ELb1ELb1EEaSEOS4_ = comdat any

$_ZNSt15__uniq_ptr_implIKcSt14default_deleteIA_S0_EEaSEOS4_ = comdat any

$_ZNSt15__uniq_ptr_implIKcSt14default_deleteIA_S0_EE5resetEPS0_ = comdat any

$_ZNSt15__uniq_ptr_implIKcSt14default_deleteIA_S0_EE7releaseEv = comdat any

$_ZNSt15__uniq_ptr_implIKcSt14default_deleteIA_S0_EE10_M_deleterEv = comdat any

$_ZNSt15__uniq_ptr_implIKcSt14default_deleteIA_S0_EE6_M_ptrEv = comdat any

$_ZNKSt14default_deleteIA_KcEclIS0_EENSt9enable_ifIXsr14is_convertibleIPA_T_PS1_EE5valueEvE4typeEPS5_ = comdat any

$_ZSt3getILm0EJPKcSt14default_deleteIA_S0_EEERNSt13tuple_elementIXT_ESt5tupleIJDpT0_EEE4typeERS9_ = comdat any

$_ZSt12__get_helperILm0EPKcJSt14default_deleteIA_S0_EEERT0_RSt11_Tuple_implIXT_EJS5_DpT1_EE = comdat any

$_ZNSt11_Tuple_implILm0EJPKcSt14default_deleteIA_S0_EEE7_M_headERS5_ = comdat any

$_ZNSt10_Head_baseILm0EPKcLb0EE7_M_headERS2_ = comdat any

$_ZSt3getILm1EJPKcSt14default_deleteIA_S0_EEERNSt13tuple_elementIXT_ESt5tupleIJDpT0_EEE4typeERS9_ = comdat any

$_ZSt12__get_helperILm1ESt14default_deleteIA_KcEJEERT0_RSt11_Tuple_implIXT_EJS4_DpT1_EE = comdat any

$_ZNSt11_Tuple_implILm1EJSt14default_deleteIA_KcEEE7_M_headERS4_ = comdat any

$_ZNSt10_Head_baseILm1ESt14default_deleteIA_KcELb1EE7_M_headERS4_ = comdat any

$_ZNSt10unique_ptrIA_KcSt14default_deleteIS1_EED2Ev = comdat any

$_ZNSt10unique_ptrIA_KcSt14default_deleteIS1_EE11get_deleterEv = comdat any

$_ZN7rocksdb6StatusC2ENS0_4CodeERKNS_5SliceES4_ = comdat any

$_ZNSt8__detail14__to_chars_lenIjEEjT_i = comdat any

$_ZNSt7__cxx1112basic_stringIcSt11char_traitsIcESaIcEEC2IS3_EEmcRKS3_ = comdat any

$_ZNSt8__detail18__to_chars_10_implIjEEvPcjT_ = comdat any

$_ZNSt7__cxx1112basic_stringIcSt11char_traitsIcESaIcEE12_Alloc_hiderD2Ev = comdat any

$_ZN7rocksdb18ReadableWriteBatchC2Emmmm = comdat any

$_ZN7rocksdb25WriteBatchEntryComparatorC2EPKNS_10ComparatorEPKNS_18ReadableWriteBatchE = comdat any

$_ZN7rocksdb25WriteBatchEntryComparatorD2Ev = comdat any

$_ZN7rocksdb18ReadableWriteBatchD2Ev = comdat any

$_ZN7rocksdb18ReadableWriteBatchD0Ev = comdat any

$_ZN7rocksdb10WriteBatch3PutERKNS_10SlicePartsES3_ = comdat any

$_ZN7rocksdb10WriteBatch8TimedPutEPNS_18ColumnFamilyHandleERKNS_5SliceES5_m = comdat any

$_ZN7rocksdb10WriteBatch5MergeERKNS_10SlicePartsES3_ = comdat any

$_ZN7rocksdb10WriteBatch6DeleteERKNS_10SlicePartsE = comdat any

$_ZN7rocksdb10WriteBatch12SingleDeleteERKNS_10SlicePartsE = comdat any

$_ZN7rocksdb10WriteBatch11DeleteRangeERKNS_5SliceES3_ = comdat any

$_ZN7rocksdb10WriteBatch11DeleteRangeERKNS_10SlicePartsES3_ = comdat any

$_ZN7rocksdb10WriteBatch13GetWriteBatchEv = comdat any

$_ZN7rocksdb6Status12NotSupportedERKNS_5SliceES3_ = comdat any

$_ZNSt6vectorIPKN7rocksdb10ComparatorESaIS3_EEC2Ev = comdat any

$_ZNSt12_Vector_baseIPKN7rocksdb10ComparatorESaIS3_EEC2Ev = comdat any

$_ZNSt12_Vector_baseIPKN7rocksdb10ComparatorESaIS3_EE12_Vector_implC2Ev = comdat any

$_ZNSaIPKN7rocksdb10ComparatorEEC2Ev = comdat any

$_ZNSt12_Vector_baseIPKN7rocksdb10ComparatorESaIS3_EE17_Vector_impl_dataC2Ev = comdat any

$_ZNSt15__new_allocatorIPKN7rocksdb10ComparatorEEC2Ev = comdat any

$_ZNSt6vectorIPKN7rocksdb10ComparatorESaIS3_EED2Ev = comdat any

$_ZNSt12_Vector_baseIPKN7rocksdb10ComparatorESaIS3_EED2Ev = comdat any

$_ZNSt12_Vector_baseIPKN7rocksdb10ComparatorESaIS3_EE12_Vector_implD2Ev = comdat any

$_ZNSaIPKN7rocksdb10ComparatorEED2Ev = comdat any

$_ZNSt15__new_allocatorIPKN7rocksdb10ComparatorEED2Ev = comdat any

$_ZNSt15__uniq_ptr_dataIN7rocksdb19WriteBatchWithIndex3RepESt14default_deleteIS2_ELb1ELb1EEC2EOS5_ = comdat any

$_ZNSt15__uniq_ptr_implIN7rocksdb19WriteBatchWithIndex3RepESt14default_deleteIS2_EEC2EOS5_ = comdat any

$_ZNSt5tupleIJPN7rocksdb19WriteBatchWithIndex3RepESt14default_deleteIS2_EEEC2EOS6_ = comdat any

$_ZNSt15__uniq_ptr_implIN7rocksdb19WriteBatchWithIndex3RepESt14default_deleteIS2_EE6_M_ptrEv = comdat any

$_ZNSt11_Tuple_implILm0EJPN7rocksdb19WriteBatchWithIndex3RepESt14default_deleteIS2_EEEC2EOS6_ = comdat any

$_ZNSt11_Tuple_implILm1EJSt14default_deleteIN7rocksdb19WriteBatchWithIndex3RepEEEEC2EOS5_ = comdat any

$_ZSt3getILm0EJPN7rocksdb19WriteBatchWithIndex3RepESt14default_deleteIS2_EEERNSt13tuple_elementIXT_ESt5tupleIJDpT0_EEE4typeERSA_ = comdat any

$_ZSt12__get_helperILm0EPN7rocksdb19WriteBatchWithIndex3RepEJSt14default_deleteIS2_EEERT0_RSt11_Tuple_implIXT_EJS6_DpT1_EE = comdat any

$_ZNSt11_Tuple_implILm0EJPN7rocksdb19WriteBatchWithIndex3RepESt14default_deleteIS2_EEE7_M_headERS6_ = comdat any

$_ZNSt10_Head_baseILm0EPN7rocksdb19WriteBatchWithIndex3RepELb0EE7_M_headERS4_ = comdat any

$_ZNSt15__uniq_ptr_dataIN7rocksdb19WriteBatchWithIndex3RepESt14default_deleteIS2_ELb1ELb1EEaSEOS5_ = comdat any

$_ZNSt15__uniq_ptr_implIN7rocksdb19WriteBatchWithIndex3RepESt14default_deleteIS2_EEaSEOS5_ = comdat any

$_ZNSt15__uniq_ptr_implIN7rocksdb19WriteBatchWithIndex3RepESt14default_deleteIS2_EE5resetEPS2_ = comdat any

$_ZNSt15__uniq_ptr_implIN7rocksdb19WriteBatchWithIndex3RepESt14default_deleteIS2_EE7releaseEv = comdat any

$_ZNSt15__uniq_ptr_implIN7rocksdb19WriteBatchWithIndex3RepESt14default_deleteIS2_EE10_M_deleterEv = comdat any

$_ZNKSt14default_deleteIN7rocksdb19WriteBatchWithIndex3RepEEclEPS2_ = comdat any

$_ZN7rocksdb19WriteBatchWithIndex3RepD2Ev = comdat any

$_ZSt3getILm1EJPN7rocksdb19WriteBatchWithIndex3RepESt14default_deleteIS2_EEERNSt13tuple_elementIXT_ESt5tupleIJDpT0_EEE4typeERSA_ = comdat any

$_ZSt12__get_helperILm1ESt14default_deleteIN7rocksdb19WriteBatchWithIndex3RepEEJEERT0_RSt11_Tuple_implIXT_EJS5_DpT1_EE = comdat any

$_ZNSt11_Tuple_implILm1EJSt14default_deleteIN7rocksdb19WriteBatchWithIndex3RepEEEE7_M_headERS5_ = comdat any

$_ZNSt10_Head_baseILm1ESt14default_deleteIN7rocksdb19WriteBatchWithIndex3RepEELb1EE7_M_headERS5_ = comdat any

$_ZN7rocksdb6StatusC2ENS0_4CodeENS0_7SubCodeE = comdat any

$_ZNSt10unique_ptrIA_KcSt14default_deleteIS1_EEC2IS3_vEEv = comdat any

$_ZNSt10unique_ptrISt6vectorIN7rocksdb5SliceESaIS2_EESt14default_deleteIS4_EEC2IS6_vEEv = comdat any

$_ZNSt10unique_ptrISt6vectorIS_INSt7__cxx1112basic_stringIcSt11char_traitsIcESaIcEEESt14default_deleteIS6_EESaIS9_EES7_ISB_EEC2ISC_vEEv = comdat any

$_ZNSt15__uniq_ptr_dataISt6vectorIN7rocksdb5SliceESaIS2_EESt14default_deleteIS4_ELb1ELb1EEC2Ev = comdat any

$_ZNSt15__uniq_ptr_implISt6vectorIN7rocksdb5SliceESaIS2_EESt14default_deleteIS4_EEC2Ev = comdat any

$_ZNSt5tupleIJPSt6vectorIN7rocksdb5SliceESaIS2_EESt14default_deleteIS4_EEEC2ILb1ETnNSt9enable_ifIXclsr17_TupleConstraintsIXT_ES5_S7_EE37__is_implicitly_default_constructibleEEbE4typeELb1EEEv = comdat any

$_ZNSt11_Tuple_implILm0EJPSt6vectorIN7rocksdb5SliceESaIS2_EESt14default_deleteIS4_EEEC2Ev = comdat any

$_ZNSt11_Tuple_implILm1EJSt14default_deleteISt6vectorIN7rocksdb5SliceESaIS3_EEEEEC2Ev = comdat any

$_ZNSt10_Head_baseILm0EPSt6vectorIN7rocksdb5SliceESaIS2_EELb0EEC2Ev = comdat any

$_ZNSt10_Head_baseILm1ESt14default_deleteISt6vectorIN7rocksdb5SliceESaIS3_EEELb1EEC2Ev = comdat any

$_ZNSt15__uniq_ptr_dataISt6vectorISt10unique_ptrINSt7__cxx1112basic_stringIcSt11char_traitsIcESaIcEEESt14default_deleteIS7_EESaISA_EES8_ISC_ELb1ELb1EEC2Ev = comdat any

$_ZNSt15__uniq_ptr_implISt6vectorISt10unique_ptrINSt7__cxx1112basic_stringIcSt11char_traitsIcESaIcEEESt14default_deleteIS7_EESaISA_EES8_ISC_EEC2Ev = comdat any

$_ZNSt5tupleIJPSt6vectorISt10unique_ptrINSt7__cxx1112basic_stringIcSt11char_traitsIcESaIcEEESt14default_deleteIS7_EESaISA_EES8_ISC_EEEC2ILb1ETnNSt9enable_ifIXclsr17_TupleConstraintsIXT_ESD_SE_EE37__is_implicitly_default_constructibleEEbE4typeELb1EEEv = comdat any

$_ZNSt11_Tuple_implILm0EJPSt6vectorISt10unique_ptrINSt7__cxx1112basic_stringIcSt11char_traitsIcESaIcEEESt14default_deleteIS7_EESaISA_EES8_ISC_EEEC2Ev = comdat any

$_ZNSt11_Tuple_implILm1EJSt14default_deleteISt6vectorISt10unique_ptrINSt7__cxx1112basic_stringIcSt11char_traitsIcESaIcEEES0_IS8_EESaISA_EEEEEC2Ev = comdat any

$_ZNSt10_Head_baseILm0EPSt6vectorISt10unique_ptrINSt7__cxx1112basic_stringIcSt11char_traitsIcESaIcEEESt14default_deleteIS7_EESaISA_EELb0EEC2Ev = comdat any

$_ZNSt10_Head_baseILm1ESt14default_deleteISt6vectorISt10unique_ptrINSt7__cxx1112basic_stringIcSt11char_traitsIcESaIcEEES0_IS8_EESaISA_EEELb1EEC2Ev = comdat any

$_ZNSt10unique_ptrISt6vectorIS_INSt7__cxx1112basic_stringIcSt11char_traitsIcESaIcEEESt14default_deleteIS6_EESaIS9_EES7_ISB_EED2Ev = comdat any

$_ZNSt10unique_ptrISt6vectorIN7rocksdb5SliceESaIS2_EESt14default_deleteIS4_EED2Ev = comdat any

$_ZNSt15__uniq_ptr_implISt6vectorISt10unique_ptrINSt7__cxx1112basic_stringIcSt11char_traitsIcESaIcEEESt14default_deleteIS7_EESaISA_EES8_ISC_EE6_M_ptrEv = comdat any

$_ZNSt10unique_ptrISt6vectorIS_INSt7__cxx1112basic_stringIcSt11char_traitsIcESaIcEEESt14default_deleteIS6_EESaIS9_EES7_ISB_EE11get_deleterEv = comdat any

$_ZNKSt14default_deleteISt6vectorISt10unique_ptrINSt7__cxx1112basic_stringIcSt11char_traitsIcESaIcEEES_IS7_EESaIS9_EEEclEPSB_ = comdat any

$_ZSt3getILm0EJPSt6vectorISt10unique_ptrINSt7__cxx1112basic_stringIcSt11char_traitsIcESaIcEEESt14default_deleteIS7_EESaISA_EES8_ISC_EEERNSt13tuple_elementIXT_ESt5tupleIJDpT0_EEE4typeERSJ_ = comdat any

$_ZSt12__get_helperILm0EPSt6vectorISt10unique_ptrINSt7__cxx1112basic_stringIcSt11char_traitsIcESaIcEEESt14default_deleteIS7_EESaISA_EEJS8_ISC_EEERT0_RSt11_Tuple_implIXT_EJSF_DpT1_EE = comdat any

$_ZNSt11_Tuple_implILm0EJPSt6vectorISt10unique_ptrINSt7__cxx1112basic_stringIcSt11char_traitsIcESaIcEEESt14default_deleteIS7_EESaISA_EES8_ISC_EEE7_M_headERSF_ = comdat any

$_ZNSt10_Head_baseILm0EPSt6vectorISt10unique_ptrINSt7__cxx1112basic_stringIcSt11char_traitsIcESaIcEEESt14default_deleteIS7_EESaISA_EELb0EE7_M_headERSE_ = comdat any

$_ZNSt15__uniq_ptr_implISt6vectorISt10unique_ptrINSt7__cxx1112basic_stringIcSt11char_traitsIcESaIcEEESt14default_deleteIS7_EESaISA_EES8_ISC_EE10_M_deleterEv = comdat any

$_ZSt3getILm1EJPSt6vectorISt10unique_ptrINSt7__cxx1112basic_stringIcSt11char_traitsIcESaIcEEESt14default_deleteIS7_EESaISA_EES8_ISC_EEERNSt13tuple_elementIXT_ESt5tupleIJDpT0_EEE4typeERSJ_ = comdat any

$_ZSt12__get_helperILm1ESt14default_deleteISt6vectorISt10unique_ptrINSt7__cxx1112basic_stringIcSt11char_traitsIcESaIcEEES0_IS8_EESaISA_EEEJEERT0_RSt11_Tuple_implIXT_EJSE_DpT1_EE = comdat any

$_ZNSt11_Tuple_implILm1EJSt14default_deleteISt6vectorISt10unique_ptrINSt7__cxx1112basic_stringIcSt11char_traitsIcESaIcEEES0_IS8_EESaISA_EEEEE7_M_headERSE_ = comdat any

$_ZNSt10_Head_baseILm1ESt14default_deleteISt6vectorISt10unique_ptrINSt7__cxx1112basic_stringIcSt11char_traitsIcESaIcEEES0_IS8_EESaISA_EEELb1EE7_M_headERSE_ = comdat any

$_ZNSt6vectorISt10unique_ptrINSt7__cxx1112basic_stringIcSt11char_traitsIcESaIcEEESt14default_deleteIS6_EESaIS9_EED2Ev = comdat any

$_ZSt8_DestroyIPSt10unique_ptrINSt7__cxx1112basic_stringIcSt11char_traitsIcESaIcEEESt14default_deleteIS6_EES9_EvT_SB_RSaIT0_E = comdat any

$_ZNSt12_Vector_baseISt10unique_ptrINSt7__cxx1112basic_stringIcSt11char_traitsIcESaIcEEESt14default_deleteIS6_EESaIS9_EE19_M_get_Tp_allocatorEv = comdat any

$_ZNSt12_Vector_baseISt10unique_ptrINSt7__cxx1112basic_stringIcSt11char_traitsIcESaIcEEESt14default_deleteIS6_EESaIS9_EED2Ev = comdat any

$_ZSt8_DestroyIPSt10unique_ptrINSt7__cxx1112basic_stringIcSt11char_traitsIcESaIcEEESt14default_deleteIS6_EEEvT_SB_ = comdat any

$_ZNSt12_Destroy_auxILb0EE9__destroyIPSt10unique_ptrINSt7__cxx1112basic_stringIcSt11char_traitsIcESaIcEEESt14default_deleteIS8_EEEEvT_SD_ = comdat any

$_ZSt8_DestroyISt10unique_ptrINSt7__cxx1112basic_stringIcSt11char_traitsIcESaIcEEESt14default_deleteIS6_EEEvPT_ = comdat any

$_ZNSt10unique_ptrINSt7__cxx1112basic_stringIcSt11char_traitsIcESaIcEEESt14default_deleteIS5_EED2Ev = comdat any

$_ZNSt15__uniq_ptr_implINSt7__cxx1112basic_stringIcSt11char_traitsIcESaIcEEESt14default_deleteIS5_EE6_M_ptrEv = comdat any

$_ZNSt10unique_ptrINSt7__cxx1112basic_stringIcSt11char_traitsIcESaIcEEESt14default_deleteIS5_EE11get_deleterEv = comdat any

$_ZNKSt14default_deleteINSt7__cxx1112basic_stringIcSt11char_traitsIcESaIcEEEEclEPS5_ = comdat any

$_ZSt3getILm0EJPNSt7__cxx1112basic_stringIcSt11char_traitsIcESaIcEEESt14default_deleteIS5_EEERNSt13tuple_elementIXT_ESt5tupleIJDpT0_EEE4typeERSD_ = comdat any

$_ZSt12__get_helperILm0EPNSt7__cxx1112basic_stringIcSt11char_traitsIcESaIcEEEJSt14default_deleteIS5_EEERT0_RSt11_Tuple_implIXT_EJS9_DpT1_EE = comdat any

$_ZNSt11_Tuple_implILm0EJPNSt7__cxx1112basic_stringIcSt11char_traitsIcESaIcEEESt14default_deleteIS5_EEE7_M_headERS9_ = comdat any

$_ZNSt10_Head_baseILm0EPNSt7__cxx1112basic_stringIcSt11char_traitsIcESaIcEEELb0EE7_M_headERS7_ = comdat any

$_ZNSt15__uniq_ptr_implINSt7__cxx1112basic_stringIcSt11char_traitsIcESaIcEEESt14default_deleteIS5_EE10_M_deleterEv = comdat any

$_ZSt3getILm1EJPNSt7__cxx1112basic_stringIcSt11char_traitsIcESaIcEEESt14default_deleteIS5_EEERNSt13tuple_elementIXT_ESt5tupleIJDpT0_EEE4typeERSD_ = comdat any

$_ZSt12__get_helperILm1ESt14default_deleteINSt7__cxx1112basic_stringIcSt11char_traitsIcESaIcEEEEJEERT0_RSt11_Tuple_implIXT_EJS8_DpT1_EE = comdat any

$_ZNSt11_Tuple_implILm1EJSt14default_deleteINSt7__cxx1112basic_stringIcSt11char_traitsIcESaIcEEEEEE7_M_headERS8_ = comdat any

$_ZNSt10_Head_baseILm1ESt14default_deleteINSt7__cxx1112basic_stringIcSt11char_traitsIcESaIcEEEELb1EE7_M_headERS8_ = comdat any

$_ZNSt12_Vector_baseISt10unique_ptrINSt7__cxx1112basic_stringIcSt11char_traitsIcESaIcEEESt14default_deleteIS6_EESaIS9_EE13_M_deallocateEPS9_m = comdat any

$_ZNSt12_Vector_baseISt10unique_ptrINSt7__cxx1112basic_stringIcSt11char_traitsIcESaIcEEESt14default_deleteIS6_EESaIS9_EE12_Vector_implD2Ev = comdat any

$_ZNSt16allocator_traitsISaISt10unique_ptrINSt7__cxx1112basic_stringIcSt11char_traitsIcESaIcEEESt14default_deleteIS6_EEEE10deallocateERSA_PS9_m = comdat any

$_ZNSt15__new_allocatorISt10unique_ptrINSt7__cxx1112basic_stringIcSt11char_traitsIcESaIcEEESt14default_deleteIS6_EEE10deallocateEPS9_m = comdat any

$_ZNSaISt10unique_ptrINSt7__cxx1112basic_stringIcSt11char_traitsIcESaIcEEESt14default_deleteIS5_EEED2Ev = comdat any

$_ZNSt15__new_allocatorISt10unique_ptrINSt7__cxx1112basic_stringIcSt11char_traitsIcESaIcEEESt14default_deleteIS6_EEED2Ev = comdat any

$_ZNSt15__uniq_ptr_implISt6vectorIN7rocksdb5SliceESaIS2_EESt14default_deleteIS4_EE6_M_ptrEv = comdat any

$_ZNSt10unique_ptrISt6vectorIN7rocksdb5SliceESaIS2_EESt14default_deleteIS4_EE11get_deleterEv = comdat any

$_ZNKSt14default_deleteISt6vectorIN7rocksdb5SliceESaIS2_EEEclEPS4_ = comdat any

$_ZSt3getILm0EJPSt6vectorIN7rocksdb5SliceESaIS2_EESt14default_deleteIS4_EEERNSt13tuple_elementIXT_ESt5tupleIJDpT0_EEE4typeERSC_ = comdat any

$_ZSt12__get_helperILm0EPSt6vectorIN7rocksdb5SliceESaIS2_EEJSt14default_deleteIS4_EEERT0_RSt11_Tuple_implIXT_EJS8_DpT1_EE = comdat any

$_ZNSt11_Tuple_implILm0EJPSt6vectorIN7rocksdb5SliceESaIS2_EESt14default_deleteIS4_EEE7_M_headERS8_ = comdat any

$_ZNSt10_Head_baseILm0EPSt6vectorIN7rocksdb5SliceESaIS2_EELb0EE7_M_headERS6_ = comdat any

$_ZNSt15__uniq_ptr_implISt6vectorIN7rocksdb5SliceESaIS2_EESt14default_deleteIS4_EE10_M_deleterEv = comdat any

$_ZSt3getILm1EJPSt6vectorIN7rocksdb5SliceESaIS2_EESt14default_deleteIS4_EEERNSt13tuple_elementIXT_ESt5tupleIJDpT0_EEE4typeERSC_ = comdat any

$_ZSt12__get_helperILm1ESt14default_deleteISt6vectorIN7rocksdb5SliceESaIS3_EEEJEERT0_RSt11_Tuple_implIXT_EJS7_DpT1_EE = comdat any

$_ZNSt11_Tuple_implILm1EJSt14default_deleteISt6vectorIN7rocksdb5SliceESaIS3_EEEEE7_M_headERS7_ = comdat any

$_ZNSt10_Head_baseILm1ESt14default_deleteISt6vectorIN7rocksdb5SliceESaIS3_EEELb1EE7_M_headERS7_ = comdat any

$_ZNKSt6vectorIN7rocksdb10WideColumnESaIS1_EE4sizeEv = comdat any

$_ZN7rocksdbeqERKNS_5SliceES2_ = comdat any

$_ZNKSt6vectorIN7rocksdb10WideColumnESaIS1_EE5frontEv = comdat any

$_ZNK7rocksdb10WideColumn4nameEv = comdat any

$_ZNKSt6vectorIN7rocksdb10WideColumnESaIS1_EE5beginEv = comdat any

$_ZNK9__gnu_cxx17__normal_iteratorIPKN7rocksdb10WideColumnESt6vectorIS2_SaIS2_EEEdeEv = comdat any

$_ZN9__gnu_cxx17__normal_iteratorIPKN7rocksdb10WideColumnESt6vectorIS2_SaIS2_EEEC2ERKS4_ = comdat any

$_ZNK7rocksdb10WideColumn5valueEv = comdat any

$_ZN7rocksdb9Cleanable5ResetEv = comdat any

$_ZN7rocksdb9Cleanable9DoCleanupEv = comdat any

$_ZN7rocksdb13PinnableSliceC2Ev = comdat any

$_ZNSt6vectorIN7rocksdb10WideColumnESaIS1_EEC2Ev = comdat any

$_ZNSt12_Vector_baseIN7rocksdb10WideColumnESaIS1_EEC2Ev = comdat any

$_ZNSt12_Vector_baseIN7rocksdb10WideColumnESaIS1_EE12_Vector_implC2Ev = comdat any

$_ZNSaIN7rocksdb10WideColumnEEC2Ev = comdat any

$_ZNSt12_Vector_baseIN7rocksdb10WideColumnESaIS1_EE17_Vector_impl_dataC2Ev = comdat any

$_ZNSt15__new_allocatorIN7rocksdb10WideColumnEEC2Ev = comdat any

$_ZNSt6vectorIN7rocksdb10WideColumnESaIS1_EED2Ev = comdat any

$_ZSt8_DestroyIPN7rocksdb10WideColumnES1_EvT_S3_RSaIT0_E = comdat any

$_ZNSt12_Vector_baseIN7rocksdb10WideColumnESaIS1_EE19_M_get_Tp_allocatorEv = comdat any

$_ZNSt12_Vector_baseIN7rocksdb10WideColumnESaIS1_EED2Ev = comdat any

$_ZSt8_DestroyIPN7rocksdb10WideColumnEEvT_S3_ = comdat any

$_ZNSt12_Destroy_auxILb1EE9__destroyIPN7rocksdb10WideColumnEEEvT_S5_ = comdat any

$_ZNSt12_Vector_baseIN7rocksdb10WideColumnESaIS1_EE13_M_deallocateEPS1_m = comdat any

$_ZNSt12_Vector_baseIN7rocksdb10WideColumnESaIS1_EE12_Vector_implD2Ev = comdat any

$_ZNSt16allocator_traitsISaIN7rocksdb10WideColumnEEE10deallocateERS2_PS1_m = comdat any

$_ZNSt15__new_allocatorIN7rocksdb10WideColumnEE10deallocateEPS1_m = comdat any

$_ZNSt15__new_allocatorIN7rocksdb10WideColumnEED2Ev = comdat any

$_ZN7rocksdb16CompareInterfaceD2Ev = comdat any

$_ZNKSt6vectorIN7rocksdb14AttributeGroupESaIS1_EE5emptyEv = comdat any

$_ZN9__gnu_cxxeqIPKN7rocksdb14AttributeGroupESt6vectorIS2_SaIS2_EEEEbRKNS_17__normal_iteratorIT_T0_EESD_ = comdat any

$_ZNKSt6vectorIN7rocksdb14AttributeGroupESaIS1_EE5beginEv = comdat any

$_ZNKSt6vectorIN7rocksdb14AttributeGroupESaIS1_EE3endEv = comdat any

$_ZNK9__gnu_cxx17__normal_iteratorIPKN7rocksdb14AttributeGroupESt6vectorIS2_SaIS2_EEE4baseEv = comdat any

$_ZN9__gnu_cxx17__normal_iteratorIPKN7rocksdb14AttributeGroupESt6vectorIS2_SaIS2_EEEC2ERKS4_ = comdat any

$_ZSt8_DestroyIPN7rocksdb5SliceES1_EvT_S3_RSaIT0_E = comdat any

$_ZNSt12_Vector_baseIN7rocksdb5SliceESaIS1_EE19_M_get_Tp_allocatorEv = comdat any

$_ZNSt12_Vector_baseIN7rocksdb5SliceESaIS1_EED2Ev = comdat any

$_ZSt8_DestroyIPN7rocksdb5SliceEEvT_S3_ = comdat any

$_ZNSt12_Destroy_auxILb1EE9__destroyIPN7rocksdb5SliceEEEvT_S5_ = comdat any

$_ZNSt12_Vector_baseIN7rocksdb5SliceESaIS1_EE13_M_deallocateEPS1_m = comdat any

$_ZNSt12_Vector_baseIN7rocksdb5SliceESaIS1_EE12_Vector_implD2Ev = comdat any

$_ZNSt16allocator_traitsISaIN7rocksdb5SliceEEE10deallocateERS2_PS1_m = comdat any

$_ZNSt15__new_allocatorIN7rocksdb5SliceEE10deallocateEPS1_m = comdat any

$_ZNSaIN7rocksdb5SliceEED2Ev = comdat any

$_ZNSt15__new_allocatorIN7rocksdb5SliceEED2Ev = comdat any

$_ZN7rocksdb8SkipListIPNS_20WriteBatchIndexEntryERKNS_25WriteBatchEntryComparatorEE7NewNodeERKS2_i = comdat any

$_ZNSt6atomicIiEC2Ei = comdat any

$_ZN7rocksdb8SkipListIPNS_20WriteBatchIndexEntryERKNS_25WriteBatchEntryComparatorEE4Node7SetNextEiPS7_ = comdat any

$_ZN7rocksdb8SkipListIPNS_20WriteBatchIndexEntryERKNS_25WriteBatchEntryComparatorEE4NodeC2ERKS2_ = comdat any

$_ZNSt13__atomic_baseIiEC2Ei = comdat any

$_ZNSt6atomicIPN7rocksdb8SkipListIPNS0_20WriteBatchIndexEntryERKNS0_25WriteBatchEntryComparatorEE4NodeEE5storeES9_St12memory_order = comdat any

$_ZN7rocksdb8SkipListIPNS_20WriteBatchIndexEntryERKNS_25WriteBatchEntryComparatorEE4Node14NoBarrier_NextEi = comdat any

$_ZN7rocksdb8SkipListIPNS_20WriteBatchIndexEntryERKNS_25WriteBatchEntryComparatorEE12RandomHeightEv = comdat any

$_ZN7rocksdb8SkipListIPNS_20WriteBatchIndexEntryERKNS_25WriteBatchEntryComparatorEE4Node17NoBarrier_SetNextEiPS7_ = comdat any

$_ZN7rocksdb6Random4NextEv = comdat any

$_ZNSt15__uniq_ptr_dataIN7rocksdb19WriteBatchWithIndex3RepESt14default_deleteIS2_ELb1ELb1EECI2St15__uniq_ptr_implIS2_S4_EEPS2_ = comdat any

$_ZNSt15__uniq_ptr_implIN7rocksdb19WriteBatchWithIndex3RepESt14default_deleteIS2_EEC2EPS2_ = comdat any

$_ZNSt5tupleIJPN7rocksdb19WriteBatchWithIndex3RepESt14default_deleteIS2_EEEC2ILb1ETnNSt9enable_ifIXclsr17_TupleConstraintsIXT_ES3_S5_EE37__is_implicitly_default_constructibleEEbE4typeELb1EEEv = comdat any

$_ZNSt11_Tuple_implILm0EJPN7rocksdb19WriteBatchWithIndex3RepESt14default_deleteIS2_EEEC2Ev = comdat any

$_ZNSt11_Tuple_implILm1EJSt14default_deleteIN7rocksdb19WriteBatchWithIndex3RepEEEEC2Ev = comdat any

$_ZNSt10_Head_baseILm0EPN7rocksdb19WriteBatchWithIndex3RepELb0EEC2Ev = comdat any

$_ZNSt10_Head_baseILm1ESt14default_deleteIN7rocksdb19WriteBatchWithIndex3RepEELb1EEC2Ev = comdat any

$_ZNSt10unique_ptrIN7rocksdb19WriteBatchWithIndex3RepESt14default_deleteIS2_EE11get_deleterEv = comdat any

$_ZNKSt10unique_ptrIN7rocksdb19WriteBatchWithIndex3RepESt14default_deleteIS2_EE3getEv = comdat any

$_ZNKSt15__uniq_ptr_implIN7rocksdb19WriteBatchWithIndex3RepESt14default_deleteIS2_EE6_M_ptrEv = comdat any

$_ZSt3getILm0EJPN7rocksdb19WriteBatchWithIndex3RepESt14default_deleteIS2_EEERKNSt13tuple_elementIXT_ESt5tupleIJDpT0_EEE4typeERKSA_ = comdat any

$_ZSt12__get_helperILm0EPN7rocksdb19WriteBatchWithIndex3RepEJSt14default_deleteIS2_EEERKT0_RKSt11_Tuple_implIXT_EJS6_DpT1_EE = comdat any

$_ZNSt11_Tuple_implILm0EJPN7rocksdb19WriteBatchWithIndex3RepESt14default_deleteIS2_EEE7_M_headERKS6_ = comdat any

$_ZNSt10_Head_baseILm0EPN7rocksdb19WriteBatchWithIndex3RepELb0EE7_M_headERKS4_ = comdat any

$_ZN7rocksdb6StatusC2ERKS0_ = comdat any

$_ZN7rocksdb11MergeHelper14TimedFullMergeIJPNSt7__cxx1112basic_stringIcSt11char_traitsIcESaIcEEEPNS_19PinnableWideColumnsEEEENS_6StatusEPKNS_13MergeOperatorERKNS_5SliceENS0_17PlainBaseValueTagESH_RKSt6vectorISF_SaISF_EEPNS_6LoggerEPNS_10StatisticsEPNS_11SystemClockEbPNSC_14OpFailureScopeEDpT_ = comdat any

$_ZNKSt12__shared_ptrIN7rocksdb13MergeOperatorELN9__gnu_cxx12_Lock_policyE2EE3getEv = comdat any

$_ZNK7rocksdb12MergeContext11GetOperandsEv = comdat any

$_ZSteqIA_KcSt14default_deleteIS1_EEbRKSt10unique_ptrIT_T0_EDn = comdat any

$_ZNKSt10unique_ptrIA_KcSt14default_deleteIS1_EE3getEv = comdat any

$_ZNKSt10unique_ptrIA_KcSt14default_deleteIS1_EEcvbEv = comdat any

$_ZNKSt15__uniq_ptr_implIKcSt14default_deleteIA_S0_EE6_M_ptrEv = comdat any

$_ZSt3getILm0EJPKcSt14default_deleteIA_S0_EEERKNSt13tuple_elementIXT_ESt5tupleIJDpT0_EEE4typeERKS9_ = comdat any

$_ZSt12__get_helperILm0EPKcJSt14default_deleteIA_S0_EEERKT0_RKSt11_Tuple_implIXT_EJS5_DpT1_EE = comdat any

$_ZNSt11_Tuple_implILm0EJPKcSt14default_deleteIA_S0_EEE7_M_headERKS5_ = comdat any

$_ZNSt10_Head_baseILm0EPKcLb0EE7_M_headERKS2_ = comdat any

$_ZNSt7variantIJSt9monostateN7rocksdb5SliceESt6vectorINS1_10WideColumnESaIS4_EEEEC2IRKS2_vvS2_vEEOT_ = comdat any

$_ZNSt7variantIJSt9monostateN7rocksdb5SliceESt6vectorINS1_10WideColumnESaIS4_EEEED2Ev = comdat any

$_ZNSt7variantIJSt9monostateN7rocksdb5SliceESt6vectorINS1_10WideColumnESaIS4_EEEEC2ILm1EJRKS2_ES2_vEESt16in_place_index_tIXT_EEDpOT0_ = comdat any

$_ZNSt8__detail9__variant13_Variant_baseIJSt9monostateN7rocksdb5SliceESt6vectorINS3_10WideColumnESaIS6_EEEEC2ILm1EJRKS4_EEESt16in_place_index_tIXT_EEDpOT0_ = comdat any

$_ZNSt27_Enable_default_constructorILb1ESt7variantIJSt9monostateN7rocksdb5SliceESt6vectorINS2_10WideColumnESaIS5_EEEEEC2ESt31_Enable_default_constructor_tag = comdat any

$_ZNSt8__detail9__variant13_Variant_baseIJSt9monostateN7rocksdb5SliceESt6vectorINS3_10WideColumnESaIS6_EEEED2Ev = comdat any

$_ZNSt8__detail9__variant17_Move_assign_baseILb0EJSt9monostateN7rocksdb5SliceESt6vectorINS3_10WideColumnESaIS6_EEEECI2NS0_16_Variant_storageILb0EJS2_S4_S8_EEEILm1EJRKS4_EEESt16in_place_index_tIXT_EEDpOT0_ = comdat any

$_ZNSt8__detail9__variant17_Copy_assign_baseILb0EJSt9monostateN7rocksdb5SliceESt6vectorINS3_10WideColumnESaIS6_EEEECI2NS0_16_Variant_storageILb0EJS2_S4_S8_EEEILm1EJRKS4_EEESt16in_place_index_tIXT_EEDpOT0_ = comdat any

$_ZNSt8__detail9__variant15_Move_ctor_baseILb0EJSt9monostateN7rocksdb5SliceESt6vectorINS3_10WideColumnESaIS6_EEEECI2NS0_16_Variant_storageILb0EJS2_S4_S8_EEEILm1EJRKS4_EEESt16in_place_index_tIXT_EEDpOT0_ = comdat any

$_ZNSt8__detail9__variant15_Copy_ctor_baseILb0EJSt9monostateN7rocksdb5SliceESt6vectorINS3_10WideColumnESaIS6_EEEECI2NS0_16_Variant_storageILb0EJS2_S4_S8_EEEILm1EJRKS4_EEESt16in_place_index_tIXT_EEDpOT0_ = comdat any

$_ZNSt8__detail9__variant16_Variant_storageILb0EJSt9monostateN7rocksdb5SliceESt6vectorINS3_10WideColumnESaIS6_EEEEC2ILm1EJRKS4_EEESt16in_place_index_tIXT_EEDpOT0_ = comdat any

$_ZNSt8__detail9__variant15_Variadic_unionIJSt9monostateN7rocksdb5SliceESt6vectorINS3_10WideColumnESaIS6_EEEEC2ILm1EJRKS4_EEESt16in_place_index_tIXT_EEDpOT0_ = comdat any

$_ZNSt8__detail9__variant15_Variadic_unionIJN7rocksdb5SliceESt6vectorINS2_10WideColumnESaIS5_EEEEC2IJRKS3_EEESt16in_place_index_tILm0EEDpOT_ = comdat any

$_ZNSt8__detail9__variant14_UninitializedIN7rocksdb5SliceELb1EEC2IJRKS3_EEESt16in_place_index_tILm0EEDpOT_ = comdat any

$_ZNSt8__detail9__variant17_Move_assign_baseILb0EJSt9monostateN7rocksdb5SliceESt6vectorINS3_10WideColumnESaIS6_EEEED2Ev = comdat any

$_ZNSt8__detail9__variant17_Copy_assign_baseILb0EJSt9monostateN7rocksdb5SliceESt6vectorINS3_10WideColumnESaIS6_EEEED2Ev = comdat any

$_ZNSt8__detail9__variant15_Move_ctor_baseILb0EJSt9monostateN7rocksdb5SliceESt6vectorINS3_10WideColumnESaIS6_EEEED2Ev = comdat any

$_ZNSt8__detail9__variant15_Copy_ctor_baseILb0EJSt9monostateN7rocksdb5SliceESt6vectorINS3_10WideColumnESaIS6_EEEED2Ev = comdat any

$_ZNSt8__detail9__variant16_Variant_storageILb0EJSt9monostateN7rocksdb5SliceESt6vectorINS3_10WideColumnESaIS6_EEEED2Ev = comdat any

$_ZNSt8__detail9__variant16_Variant_storageILb0EJSt9monostateN7rocksdb5SliceESt6vectorINS3_10WideColumnESaIS6_EEEE8_M_resetEv = comdat any

$_ZNKSt8__detail9__variant16_Variant_storageILb0EJSt9monostateN7rocksdb5SliceESt6vectorINS3_10WideColumnESaIS6_EEEE8_M_validEv = comdat any

$_ZSt10__do_visitIvZNSt8__detail9__variant16_Variant_storageILb0EJSt9monostateN7rocksdb5SliceESt6vectorINS4_10WideColumnESaIS7_EEEE8_M_resetEvEUlOT_E_JRSt7variantIJS3_S5_S9_EEEEDcOT0_DpOT1_ = comdat any

$_ZSt14__variant_castIJSt9monostateN7rocksdb5SliceESt6vectorINS1_10WideColumnESaIS4_EEERNSt8__detail9__variant16_Variant_storageILb0EJS0_S2_S6_EEEEDcOT0_ = comdat any

$_ZZSt10__do_visitIvZNSt8__detail9__variant16_Variant_storageILb0EJSt9monostateN7rocksdb5SliceESt6vectorINS4_10WideColumnESaIS7_EEEE8_M_resetEvEUlOT_E_JRSt7variantIJS3_S5_S9_EEEEDcOT0_DpOT1_ENKUlSG_zE_clESG_z = comdat any

$_ZNKSt7variantIJSt9monostateN7rocksdb5SliceESt6vectorINS1_10WideColumnESaIS4_EEEE5indexEv = comdat any

$_ZNSt8__detail9__variant17__gen_vtable_implINS0_12_Multi_arrayIPFvOZNS0_16_Variant_storageILb0EJSt9monostateN7rocksdb5SliceESt6vectorINS5_10WideColumnESaIS8_EEEE8_M_resetEvEUlOT_E_RSt7variantIJS4_S6_SA_EEEJEEESt16integer_sequenceImJLm0EEEE14__visit_invokeESF_SI_ = comdat any

$_ZNSt8__detail9__variant17__gen_vtable_implINS0_12_Multi_arrayIPFvOZNS0_16_Variant_storageILb0EJSt9monostateN7rocksdb5SliceESt6vectorINS5_10WideColumnESaIS8_EEEE8_M_resetEvEUlOT_E_RSt7variantIJS4_S6_SA_EEEJEEESt16integer_sequenceImJLm1EEEE14__visit_invokeESF_SI_ = comdat any

$_ZNSt8__detail9__variant17__gen_vtable_implINS0_12_Multi_arrayIPFvOZNS0_16_Variant_storageILb0EJSt9monostateN7rocksdb5SliceESt6vectorINS5_10WideColumnESaIS8_EEEE8_M_resetEvEUlOT_E_RSt7variantIJS4_S6_SA_EEEJEEESt16integer_sequenceImJLm2EEEE14__visit_invokeESF_SI_ = comdat any

$_ZSt10__invoke_rIvZNSt8__detail9__variant16_Variant_storageILb0EJSt9monostateN7rocksdb5SliceESt6vectorINS4_10WideColumnESaIS7_EEEE8_M_resetEvEUlOT_E_JRS3_EENSt9enable_ifIX16is_invocable_r_vISB_T0_DpT1_EESB_E4typeEOSG_DpOSH_ = comdat any

$_ZNSt8__detail9__variant5__getILm0ERSt7variantIJSt9monostateN7rocksdb5SliceESt6vectorINS4_10WideColumnESaIS7_EEEEEEDcOT0_ = comdat any

$_ZSt13__invoke_implIvZNSt8__detail9__variant16_Variant_storageILb0EJSt9monostateN7rocksdb5SliceESt6vectorINS4_10WideColumnESaIS7_EEEE8_M_resetEvEUlOT_E_JRS3_EESB_St14__invoke_otherOT0_DpOT1_ = comdat any

$_ZZNSt8__detail9__variant16_Variant_storageILb0EJSt9monostateN7rocksdb5SliceESt6vectorINS3_10WideColumnESaIS6_EEEE8_M_resetEvENUlOT_E_clIRS2_EEDaSB_ = comdat any

$_ZSt8_DestroyISt9monostateEvPT_ = comdat any

$_ZNSt8__detail9__variant7__get_nILm0ERNS0_15_Variadic_unionIJSt9monostateN7rocksdb5SliceESt6vectorINS4_10WideColumnESaIS7_EEEEEEEDcOT0_ = comdat any

$_ZNRSt8__detail9__variant14_UninitializedISt9monostateLb1EE6_M_getEv = comdat any

$_ZSt10__invoke_rIvZNSt8__detail9__variant16_Variant_storageILb0EJSt9monostateN7rocksdb5SliceESt6vectorINS4_10WideColumnESaIS7_EEEE8_M_resetEvEUlOT_E_JRS5_EENSt9enable_ifIX16is_invocable_r_vISB_T0_DpT1_EESB_E4typeEOSG_DpOSH_ = comdat any

$_ZNSt8__detail9__variant5__getILm1ERSt7variantIJSt9monostateN7rocksdb5SliceESt6vectorINS4_10WideColumnESaIS7_EEEEEEDcOT0_ = comdat any

$_ZSt13__invoke_implIvZNSt8__detail9__variant16_Variant_storageILb0EJSt9monostateN7rocksdb5SliceESt6vectorINS4_10WideColumnESaIS7_EEEE8_M_resetEvEUlOT_E_JRS5_EESB_St14__invoke_otherOT0_DpOT1_ = comdat any

$_ZZNSt8__detail9__variant16_Variant_storageILb0EJSt9monostateN7rocksdb5SliceESt6vectorINS3_10WideColumnESaIS6_EEEE8_M_resetEvENUlOT_E_clIRS4_EEDaSB_ = comdat any

$_ZSt8_DestroyIN7rocksdb5SliceEEvPT_ = comdat any

$_ZNSt8__detail9__variant7__get_nILm1ERNS0_15_Variadic_unionIJSt9monostateN7rocksdb5SliceESt6vectorINS4_10WideColumnESaIS7_EEEEEEEDcOT0_ = comdat any

$_ZNRSt8__detail9__variant14_UninitializedIN7rocksdb5SliceELb1EE6_M_getEv = comdat any

$_ZSt10__invoke_rIvZNSt8__detail9__variant16_Variant_storageILb0EJSt9monostateN7rocksdb5SliceESt6vectorINS4_10WideColumnESaIS7_EEEE8_M_resetEvEUlOT_E_JRS9_EENSt9enable_ifIX16is_invocable_r_vISB_T0_DpT1_EESB_E4typeEOSG_DpOSH_ = comdat any

$_ZNSt8__detail9__variant5__getILm2ERSt7variantIJSt9monostateN7rocksdb5SliceESt6vectorINS4_10WideColumnESaIS7_EEEEEEDcOT0_ = comdat any

$_ZSt13__invoke_implIvZNSt8__detail9__variant16_Variant_storageILb0EJSt9monostateN7rocksdb5SliceESt6vectorINS4_10WideColumnESaIS7_EEEE8_M_resetEvEUlOT_E_JRS9_EESB_St14__invoke_otherOT0_DpOT1_ = comdat any

$_ZZNSt8__detail9__variant16_Variant_storageILb0EJSt9monostateN7rocksdb5SliceESt6vectorINS3_10WideColumnESaIS6_EEEE8_M_resetEvENUlOT_E_clIRS8_EEDaSB_ = comdat any

$_ZSt8_DestroyISt6vectorIN7rocksdb10WideColumnESaIS2_EEEvPT_ = comdat any

$_ZNSt8__detail9__variant7__get_nILm2ERNS0_15_Variadic_unionIJSt9monostateN7rocksdb5SliceESt6vectorINS4_10WideColumnESaIS7_EEEEEEEDcOT0_ = comdat any

$_ZNRSt8__detail9__variant14_UninitializedISt6vectorIN7rocksdb10WideColumnESaIS4_EELb0EE6_M_getEv = comdat any

$_ZN9__gnu_cxx16__aligned_membufISt6vectorIN7rocksdb10WideColumnESaIS3_EEE6_M_ptrEv = comdat any

$_ZN9__gnu_cxx16__aligned_membufISt6vectorIN7rocksdb10WideColumnESaIS3_EEE7_M_addrEv = comdat any

$_ZNK7rocksdb12MergeContext27GetOperandsDirectionForwardEv = comdat any

$_ZNKSt10unique_ptrISt6vectorIN7rocksdb5SliceESaIS2_EESt14default_deleteIS4_EEcvbEv = comdat any

$_ZNK7rocksdb12MergeContext19SetDirectionForwardEv = comdat any

$_ZNKSt10unique_ptrISt6vectorIN7rocksdb5SliceESaIS2_EESt14default_deleteIS4_EEdeEv = comdat any

$_ZNKSt10unique_ptrISt6vectorIN7rocksdb5SliceESaIS2_EESt14default_deleteIS4_EE3getEv = comdat any

$_ZNKSt15__uniq_ptr_implISt6vectorIN7rocksdb5SliceESaIS2_EESt14default_deleteIS4_EE6_M_ptrEv = comdat any

$_ZSt3getILm0EJPSt6vectorIN7rocksdb5SliceESaIS2_EESt14default_deleteIS4_EEERKNSt13tuple_elementIXT_ESt5tupleIJDpT0_EEE4typeERKSC_ = comdat any

$_ZSt12__get_helperILm0EPSt6vectorIN7rocksdb5SliceESaIS2_EEJSt14default_deleteIS4_EEERKT0_RKSt11_Tuple_implIXT_EJS8_DpT1_EE = comdat any

$_ZNSt11_Tuple_implILm0EJPSt6vectorIN7rocksdb5SliceESaIS2_EESt14default_deleteIS4_EEE7_M_headERKS8_ = comdat any

$_ZNSt10_Head_baseILm0EPSt6vectorIN7rocksdb5SliceESaIS2_EELb0EE7_M_headERKS6_ = comdat any

$_ZSt7reverseIN9__gnu_cxx17__normal_iteratorIPN7rocksdb5SliceESt6vectorIS3_SaIS3_EEEEEvT_S9_ = comdat any

$_ZNKSt10unique_ptrISt6vectorIN7rocksdb5SliceESaIS2_EESt14default_deleteIS4_EEptEv = comdat any

$_ZNSt6vectorIN7rocksdb5SliceESaIS1_EE5beginEv = comdat any

$_ZNSt6vectorIN7rocksdb5SliceESaIS1_EE3endEv = comdat any

$_ZSt9__reverseIN9__gnu_cxx17__normal_iteratorIPN7rocksdb5SliceESt6vectorIS3_SaIS3_EEEEEvT_S9_St26random_access_iterator_tag = comdat any

$_ZSt19__iterator_categoryIN9__gnu_cxx17__normal_iteratorIPN7rocksdb5SliceESt6vectorIS3_SaIS3_EEEEENSt15iterator_traitsIT_E17iterator_categoryERKSA_ = comdat any

$_ZN9__gnu_cxxeqIPN7rocksdb5SliceESt6vectorIS2_SaIS2_EEEEbRKNS_17__normal_iteratorIT_T0_EESC_ = comdat any

$_ZN9__gnu_cxx17__normal_iteratorIPN7rocksdb5SliceESt6vectorIS2_SaIS2_EEEmmEv = comdat any

$_ZN9__gnu_cxxltIPN7rocksdb5SliceESt6vectorIS2_SaIS2_EEEEbRKNS_17__normal_iteratorIT_T0_EESC_ = comdat any

$_ZSt9iter_swapIN9__gnu_cxx17__normal_iteratorIPN7rocksdb5SliceESt6vectorIS3_SaIS3_EEEES8_EvT_T0_ = comdat any

$_ZN9__gnu_cxx17__normal_iteratorIPN7rocksdb5SliceESt6vectorIS2_SaIS2_EEEppEv = comdat any

$_ZNK9__gnu_cxx17__normal_iteratorIPN7rocksdb5SliceESt6vectorIS2_SaIS2_EEE4baseEv = comdat any

$_ZSt4swapIN7rocksdb5SliceEENSt9enable_ifIXsr6__and_ISt6__not_ISt15__is_tuple_likeIT_EESt21is_move_constructibleIS5_ESt18is_move_assignableIS5_EEE5valueEvE4typeERS5_SE_ = comdat any

$_ZNK9__gnu_cxx17__normal_iteratorIPN7rocksdb5SliceESt6vectorIS2_SaIS2_EEEdeEv = comdat any

$_ZN9__gnu_cxx17__normal_iteratorIPN7rocksdb5SliceESt6vectorIS2_SaIS2_EEEC2ERKS3_ = comdat any

$_ZN7rocksdb11MergeHelper14TimedFullMergeIJPNSt7__cxx1112basic_stringIcSt11char_traitsIcESaIcEEEPNS_19PinnableWideColumnsEEEENS_6StatusEPKNS_13MergeOperatorERKNS_5SliceENS0_16WideBaseValueTagERKSt6vectorINS_10WideColumnESaISK_EERKSJ_ISF_SaISF_EEPNS_6LoggerEPNS_10StatisticsEPNS_11SystemClockEbPNSC_14OpFailureScopeEDpT_ = comdat any

$_ZNSt7variantIJSt9monostateN7rocksdb5SliceESt6vectorINS1_10WideColumnESaIS4_EEEEC2IRKS6_vvS6_vEEOT_ = comdat any

$_ZNSt7variantIJSt9monostateN7rocksdb5SliceESt6vectorINS1_10WideColumnESaIS4_EEEEC2ILm2EJRKS6_ES6_vEESt16in_place_index_tIXT_EEDpOT0_ = comdat any

$_ZNSt8__detail9__variant13_Variant_baseIJSt9monostateN7rocksdb5SliceESt6vectorINS3_10WideColumnESaIS6_EEEEC2ILm2EJRKS8_EEESt16in_place_index_tIXT_EEDpOT0_ = comdat any

$_ZNSt8__detail9__variant17_Move_assign_baseILb0EJSt9monostateN7rocksdb5SliceESt6vectorINS3_10WideColumnESaIS6_EEEECI2NS0_16_Variant_storageILb0EJS2_S4_S8_EEEILm2EJRKS8_EEESt16in_place_index_tIXT_EEDpOT0_ = comdat any

$_ZNSt8__detail9__variant17_Copy_assign_baseILb0EJSt9monostateN7rocksdb5SliceESt6vectorINS3_10WideColumnESaIS6_EEEECI2NS0_16_Variant_storageILb0EJS2_S4_S8_EEEILm2EJRKS8_EEESt16in_place_index_tIXT_EEDpOT0_ = comdat any

$_ZNSt8__detail9__variant15_Move_ctor_baseILb0EJSt9monostateN7rocksdb5SliceESt6vectorINS3_10WideColumnESaIS6_EEEECI2NS0_16_Variant_storageILb0EJS2_S4_S8_EEEILm2EJRKS8_EEESt16in_place_index_tIXT_EEDpOT0_ = comdat any

$_ZNSt8__detail9__variant15_Copy_ctor_baseILb0EJSt9monostateN7rocksdb5SliceESt6vectorINS3_10WideColumnESaIS6_EEEECI2NS0_16_Variant_storageILb0EJS2_S4_S8_EEEILm2EJRKS8_EEESt16in_place_index_tIXT_EEDpOT0_ = comdat any

$_ZNSt8__detail9__variant16_Variant_storageILb0EJSt9monostateN7rocksdb5SliceESt6vectorINS3_10WideColumnESaIS6_EEEEC2ILm2EJRKS8_EEESt16in_place_index_tIXT_EEDpOT0_ = comdat any

$_ZNSt8__detail9__variant15_Variadic_unionIJSt9monostateN7rocksdb5SliceESt6vectorINS3_10WideColumnESaIS6_EEEEC2ILm2EJRKS8_EEESt16in_place_index_tIXT_EEDpOT0_ = comdat any

$_ZNSt8__detail9__variant15_Variadic_unionIJN7rocksdb5SliceESt6vectorINS2_10WideColumnESaIS5_EEEEC2ILm1EJRKS7_EEESt16in_place_index_tIXT_EEDpOT0_ = comdat any

$_ZNSt8__detail9__variant15_Variadic_unionIJSt6vectorIN7rocksdb10WideColumnESaIS4_EEEEC2IJRKS6_EEESt16in_place_index_tILm0EEDpOT_ = comdat any

$_ZNSt8__detail9__variant14_UninitializedISt6vectorIN7rocksdb10WideColumnESaIS4_EELb0EEC2IJRKS6_EEESt16in_place_index_tILm0EEDpOT_ = comdat any

$_ZNSt6vectorIN7rocksdb10WideColumnESaIS1_EEC2ERKS3_ = comdat any

$_ZN9__gnu_cxx14__alloc_traitsISaIN7rocksdb10WideColumnEES2_E17_S_select_on_copyERKS3_ = comdat any

$_ZNKSt12_Vector_baseIN7rocksdb10WideColumnESaIS1_EE19_M_get_Tp_allocatorEv = comdat any

$_ZNSt12_Vector_baseIN7rocksdb10WideColumnESaIS1_EEC2EmRKS2_ = comdat any

$_ZNSaIN7rocksdb10WideColumnEED2Ev = comdat any

$_ZSt22__uninitialized_copy_aIN9__gnu_cxx17__normal_iteratorIPKN7rocksdb10WideColumnESt6vectorIS3_SaIS3_EEEEPS3_S3_ET0_T_SC_SB_RSaIT1_E = comdat any

$_ZNKSt6vectorIN7rocksdb10WideColumnESaIS1_EE3endEv = comdat any

$_ZNSt16allocator_traitsISaIN7rocksdb10WideColumnEEE37select_on_container_copy_constructionERKS2_ = comdat any

$_ZNSaIN7rocksdb10WideColumnEEC2ERKS1_ = comdat any

$_ZNSt15__new_allocatorIN7rocksdb10WideColumnEEC2ERKS2_ = comdat any

$_ZNSt12_Vector_baseIN7rocksdb10WideColumnESaIS1_EE12_Vector_implC2ERKS2_ = comdat any

$_ZNSt12_Vector_baseIN7rocksdb10WideColumnESaIS1_EE17_M_create_storageEm = comdat any

$_ZNSt12_Vector_baseIN7rocksdb10WideColumnESaIS1_EE11_M_allocateEm = comdat any

$_ZNSt16allocator_traitsISaIN7rocksdb10WideColumnEEE8allocateERS2_m = comdat any

$_ZNSt15__new_allocatorIN7rocksdb10WideColumnEE8allocateEmPKv = comdat any

$_ZNKSt15__new_allocatorIN7rocksdb10WideColumnEE11_M_max_sizeEv = comdat any

$_ZSt18uninitialized_copyIN9__gnu_cxx17__normal_iteratorIPKN7rocksdb10WideColumnESt6vectorIS3_SaIS3_EEEEPS3_ET0_T_SC_SB_ = comdat any

$_ZNSt20__uninitialized_copyILb0EE13__uninit_copyIN9__gnu_cxx17__normal_iteratorIPKN7rocksdb10WideColumnESt6vectorIS5_SaIS5_EEEEPS5_EET0_T_SE_SD_ = comdat any

$_ZSt16__do_uninit_copyIN9__gnu_cxx17__normal_iteratorIPKN7rocksdb10WideColumnESt6vectorIS3_SaIS3_EEEEPS3_ET0_T_SC_SB_ = comdat any

$_ZN9__gnu_cxxneIPKN7rocksdb10WideColumnESt6vectorIS2_SaIS2_EEEEbRKNS_17__normal_iteratorIT_T0_EESD_ = comdat any

$_ZSt10_ConstructIN7rocksdb10WideColumnEJRKS1_EEvPT_DpOT0_ = comdat any

$_ZN9__gnu_cxx17__normal_iteratorIPKN7rocksdb10WideColumnESt6vectorIS2_SaIS2_EEEppEv = comdat any

$_ZNK9__gnu_cxx17__normal_iteratorIPKN7rocksdb10WideColumnESt6vectorIS2_SaIS2_EEE4baseEv = comdat any

$_ZN7rocksdb11MergeHelper14TimedFullMergeIJPNSt7__cxx1112basic_stringIcSt11char_traitsIcESaIcEEEPNS_19PinnableWideColumnsEEEENS_6StatusEPKNS_13MergeOperatorERKNS_5SliceENS0_14NoBaseValueTagERKSt6vectorISF_SaISF_EEPNS_6LoggerEPNS_10StatisticsEPNS_11SystemClockEbPNSC_14OpFailureScopeEDpT_ = comdat any

$_ZNSt7variantIJSt9monostateN7rocksdb5SliceESt6vectorINS1_10WideColumnESaIS4_EEEEC2Ev = comdat any

$_ZNSt8__detail9__variant13_Variant_baseIJSt9monostateN7rocksdb5SliceESt6vectorINS3_10WideColumnESaIS6_EEEEC2Ev = comdat any

$_ZNSt8__detail9__variant13_Variant_baseIJSt9monostateN7rocksdb5SliceESt6vectorINS3_10WideColumnESaIS6_EEEEC2ILm0EJEEESt16in_place_index_tIXT_EEDpOT0_ = comdat any

$_ZNSt8__detail9__variant17_Move_assign_baseILb0EJSt9monostateN7rocksdb5SliceESt6vectorINS3_10WideColumnESaIS6_EEEECI2NS0_16_Variant_storageILb0EJS2_S4_S8_EEEILm0EJEEESt16in_place_index_tIXT_EEDpOT0_ = comdat any

$_ZNSt8__detail9__variant17_Copy_assign_baseILb0EJSt9monostateN7rocksdb5SliceESt6vectorINS3_10WideColumnESaIS6_EEEECI2NS0_16_Variant_storageILb0EJS2_S4_S8_EEEILm0EJEEESt16in_place_index_tIXT_EEDpOT0_ = comdat any

$_ZNSt8__detail9__variant15_Move_ctor_baseILb0EJSt9monostateN7rocksdb5SliceESt6vectorINS3_10WideColumnESaIS6_EEEECI2NS0_16_Variant_storageILb0EJS2_S4_S8_EEEILm0EJEEESt16in_place_index_tIXT_EEDpOT0_ = comdat any

$_ZNSt8__detail9__variant15_Copy_ctor_baseILb0EJSt9monostateN7rocksdb5SliceESt6vectorINS3_10WideColumnESaIS6_EEEECI2NS0_16_Variant_storageILb0EJS2_S4_S8_EEEILm0EJEEESt16in_place_index_tIXT_EEDpOT0_ = comdat any

$_ZNSt8__detail9__variant16_Variant_storageILb0EJSt9monostateN7rocksdb5SliceESt6vectorINS3_10WideColumnESaIS6_EEEEC2ILm0EJEEESt16in_place_index_tIXT_EEDpOT0_ = comdat any

$_ZNSt8__detail9__variant15_Variadic_unionIJSt9monostateN7rocksdb5SliceESt6vectorINS3_10WideColumnESaIS6_EEEEC2IJEEESt16in_place_index_tILm0EEDpOT_ = comdat any

$_ZNSt8__detail9__variant14_UninitializedISt9monostateLb1EEC2IJEEESt16in_place_index_tILm0EEDpOT_ = comdat any

$_ZNSt6vectorIN7rocksdb10KeyContextESaIS1_EEC2Ev = comdat any

$_ZNSt12_Vector_baseIN7rocksdb10KeyContextESaIS1_EEC2Ev = comdat any

$_ZNSt12_Vector_baseIN7rocksdb10KeyContextESaIS1_EE12_Vector_implC2Ev = comdat any

$_ZNSaIN7rocksdb10KeyContextEEC2Ev = comdat any

$_ZNSt12_Vector_baseIN7rocksdb10KeyContextESaIS1_EE17_Vector_impl_dataC2Ev = comdat any

$_ZNSt15__new_allocatorIN7rocksdb10KeyContextEEC2Ev = comdat any

$_ZN7rocksdb10autovectorINS_10KeyContextELm32EE5clearEv = comdat any

$_ZNSt6vectorIN7rocksdb10KeyContextESaIS1_EED2Ev = comdat any

$_ZN7rocksdb10KeyContextD2Ev = comdat any

$_ZNSt6vectorIN7rocksdb10KeyContextESaIS1_EE5clearEv = comdat any

$_ZNSt6vectorIN7rocksdb10KeyContextESaIS1_EE15_M_erase_at_endEPS1_ = comdat any

$_ZSt8_DestroyIPN7rocksdb10KeyContextES1_EvT_S3_RSaIT0_E = comdat any

$_ZNSt12_Vector_baseIN7rocksdb10KeyContextESaIS1_EE19_M_get_Tp_allocatorEv = comdat any

$_ZSt8_DestroyIPN7rocksdb10KeyContextEEvT_S3_ = comdat any

$_ZNSt12_Destroy_auxILb0EE9__destroyIPN7rocksdb10KeyContextEEEvT_S5_ = comdat any

$_ZSt8_DestroyIN7rocksdb10KeyContextEEvPT_ = comdat any

$_ZNSt12_Vector_baseIN7rocksdb10KeyContextESaIS1_EED2Ev = comdat any

$_ZNSt12_Vector_baseIN7rocksdb10KeyContextESaIS1_EE13_M_deallocateEPS1_m = comdat any

$_ZNSt12_Vector_baseIN7rocksdb10KeyContextESaIS1_EE12_Vector_implD2Ev = comdat any

$_ZNSt16allocator_traitsISaIN7rocksdb10KeyContextEEE10deallocateERS2_PS1_m = comdat any

$_ZNSt15__new_allocatorIN7rocksdb10KeyContextEE10deallocateEPS1_m = comdat any

$_ZNSaIN7rocksdb10KeyContextEED2Ev = comdat any

$_ZNSt15__new_allocatorIN7rocksdb10KeyContextEED2Ev = comdat any

$_ZN7rocksdb12MergeContextC2EOS0_ = comdat any

$_ZNSt10unique_ptrISt6vectorIN7rocksdb5SliceESaIS2_EESt14default_deleteIS4_EEC2EOS7_ = comdat any

$_ZNSt10unique_ptrISt6vectorIS_INSt7__cxx1112basic_stringIcSt11char_traitsIcESaIcEEESt14default_deleteIS6_EESaIS9_EES7_ISB_EEC2EOSD_ = comdat any

$_ZNSt15__uniq_ptr_dataISt6vectorIN7rocksdb5SliceESaIS2_EESt14default_deleteIS4_ELb1ELb1EEC2EOS7_ = comdat any

$_ZNSt15__uniq_ptr_implISt6vectorIN7rocksdb5SliceESaIS2_EESt14default_deleteIS4_EEC2EOS7_ = comdat any

$_ZNSt5tupleIJPSt6vectorIN7rocksdb5SliceESaIS2_EESt14default_deleteIS4_EEEC2EOS8_ = comdat any

$_ZNSt11_Tuple_implILm0EJPSt6vectorIN7rocksdb5SliceESaIS2_EESt14default_deleteIS4_EEEC2EOS8_ = comdat any

$_ZNSt11_Tuple_implILm1EJSt14default_deleteISt6vectorIN7rocksdb5SliceESaIS3_EEEEEC2EOS7_ = comdat any

$_ZNSt15__uniq_ptr_dataISt6vectorISt10unique_ptrINSt7__cxx1112basic_stringIcSt11char_traitsIcESaIcEEESt14default_deleteIS7_EESaISA_EES8_ISC_ELb1ELb1EEC2EOSE_ = comdat any

$_ZNSt15__uniq_ptr_implISt6vectorISt10unique_ptrINSt7__cxx1112basic_stringIcSt11char_traitsIcESaIcEEESt14default_deleteIS7_EESaISA_EES8_ISC_EEC2EOSE_ = comdat any

$_ZNSt5tupleIJPSt6vectorISt10unique_ptrINSt7__cxx1112basic_stringIcSt11char_traitsIcESaIcEEESt14default_deleteIS7_EESaISA_EES8_ISC_EEEC2EOSF_ = comdat any

$_ZNSt11_Tuple_implILm0EJPSt6vectorISt10unique_ptrINSt7__cxx1112basic_stringIcSt11char_traitsIcESaIcEEESt14default_deleteIS7_EESaISA_EES8_ISC_EEEC2EOSF_ = comdat any

$_ZNSt11_Tuple_implILm1EJSt14default_deleteISt6vectorISt10unique_ptrINSt7__cxx1112basic_stringIcSt11char_traitsIcESaIcEEES0_IS8_EESaISA_EEEEEC2EOSE_ = comdat any

$_ZN7rocksdb19PinnableWideColumnsC2EOS0_ = comdat any

$_ZNSt6vectorIN7rocksdb10WideColumnESaIS1_EEC2EOS3_ = comdat any

$_ZNSt12_Vector_baseIN7rocksdb10WideColumnESaIS1_EEC2EOS3_ = comdat any

$_ZNSt12_Vector_baseIN7rocksdb10WideColumnESaIS1_EE12_Vector_implC2EOS4_ = comdat any

$_ZNSt12_Vector_baseIN7rocksdb10WideColumnESaIS1_EE17_Vector_impl_dataC2EOS4_ = comdat any

$_ZN7rocksdb10KeyContextC2EPNS_18ColumnFamilyHandleERKNS_5SliceEPNS_13PinnableSliceEPNS_19PinnableWideColumnsEPNSt7__cxx1112basic_stringIcSt11char_traitsIcESaIcEEEPNS_6StatusE = comdat any

$_ZNSt6vectorIN7rocksdb10KeyContextESaIS1_EE12emplace_backIJRPNS0_18ColumnFamilyHandleERKNS0_5SliceEDnDnDnRKPNS0_6StatusEEEERS1_DpOT_ = comdat any

$_ZNSt16allocator_traitsISaIN7rocksdb10KeyContextEEE9constructIS1_JRPNS0_18ColumnFamilyHandleERKNS0_5SliceEDnDnDnRKPNS0_6StatusEEEEvRS2_PT_DpOT0_ = comdat any

$_ZNSt6vectorIN7rocksdb10KeyContextESaIS1_EE17_M_realloc_insertIJRPNS0_18ColumnFamilyHandleERKNS0_5SliceEDnDnDnRKPNS0_6StatusEEEEvN9__gnu_cxx17__normal_iteratorIPS1_S3_EEDpOT_ = comdat any

$_ZNSt6vectorIN7rocksdb10KeyContextESaIS1_EE3endEv = comdat any

$_ZNSt6vectorIN7rocksdb10KeyContextESaIS1_EE4backEv = comdat any

$_ZNSt15__new_allocatorIN7rocksdb10KeyContextEE9constructIS1_JRPNS0_18ColumnFamilyHandleERKNS0_5SliceEDnDnDnRKPNS0_6StatusEEEEvPT_DpOT0_ = comdat any

$_ZNKSt6vectorIN7rocksdb10KeyContextESaIS1_EE12_M_check_lenEmPKc = comdat any

$_ZN9__gnu_cxxmiIPN7rocksdb10KeyContextESt6vectorIS2_SaIS2_EEEENS_17__normal_iteratorIT_T0_E15difference_typeERKSA_SD_ = comdat any

$_ZNSt6vectorIN7rocksdb10KeyContextESaIS1_EE5beginEv = comdat any

$_ZNSt12_Vector_baseIN7rocksdb10KeyContextESaIS1_EE11_M_allocateEm = comdat any

$_ZNSt6vectorIN7rocksdb10KeyContextESaIS1_EE11_S_relocateEPS1_S4_S4_RS2_ = comdat any

$_ZNK9__gnu_cxx17__normal_iteratorIPN7rocksdb10KeyContextESt6vectorIS2_SaIS2_EEE4baseEv = comdat any

$_ZNSt16allocator_traitsISaIN7rocksdb10KeyContextEEE7destroyIS1_EEvRS2_PT_ = comdat any

$_ZNKSt6vectorIN7rocksdb10KeyContextESaIS1_EE8max_sizeEv = comdat any

$_ZNKSt6vectorIN7rocksdb10KeyContextESaIS1_EE4sizeEv = comdat any

$_ZNSt6vectorIN7rocksdb10KeyContextESaIS1_EE11_S_max_sizeERKS2_ = comdat any

$_ZNKSt12_Vector_baseIN7rocksdb10KeyContextESaIS1_EE19_M_get_Tp_allocatorEv = comdat any

$_ZNSt16allocator_traitsISaIN7rocksdb10KeyContextEEE8max_sizeERKS2_ = comdat any

$_ZNKSt15__new_allocatorIN7rocksdb10KeyContextEE8max_sizeEv = comdat any

$_ZNKSt15__new_allocatorIN7rocksdb10KeyContextEE11_M_max_sizeEv = comdat any

$_ZN9__gnu_cxx17__normal_iteratorIPN7rocksdb10KeyContextESt6vectorIS2_SaIS2_EEEC2ERKS3_ = comdat any

$_ZNSt16allocator_traitsISaIN7rocksdb10KeyContextEEE8allocateERS2_m = comdat any

$_ZNSt15__new_allocatorIN7rocksdb10KeyContextEE8allocateEmPKv = comdat any

$_ZSt12__relocate_aIPN7rocksdb10KeyContextES2_SaIS1_EET0_T_S5_S4_RT1_ = comdat any

$_ZSt14__relocate_a_1IPN7rocksdb10KeyContextES2_SaIS1_EET0_T_S5_S4_RT1_ = comdat any

$_ZSt12__niter_baseIPN7rocksdb10KeyContextEET_S3_ = comdat any

$_ZSt19__relocate_object_aIN7rocksdb10KeyContextES1_SaIS1_EEvPT_PT0_RT1_ = comdat any

$_ZNSt16allocator_traitsISaIN7rocksdb10KeyContextEEE9constructIS1_JS1_EEEvRS2_PT_DpOT0_ = comdat any

$_ZNSt15__new_allocatorIN7rocksdb10KeyContextEE9constructIS1_JS1_EEEvPT_DpOT0_ = comdat any

$_ZN7rocksdb10KeyContextC2EOS0_ = comdat any

$_ZNSt15__new_allocatorIN7rocksdb10KeyContextEE7destroyIS1_EEvPT_ = comdat any

$_ZNK9__gnu_cxx17__normal_iteratorIPN7rocksdb10KeyContextESt6vectorIS2_SaIS2_EEEmiEl = comdat any

$_ZNK9__gnu_cxx17__normal_iteratorIPN7rocksdb10KeyContextESt6vectorIS2_SaIS2_EEEdeEv = comdat any

$_ZNSt6vectorIN7rocksdb10KeyContextESaIS1_EE12emplace_backIJRPNS0_18ColumnFamilyHandleERKNS0_5SliceERKPNS0_13PinnableSliceEDnDnRKPNS0_6StatusEEEERS1_DpOT_ = comdat any

$_ZNSt16allocator_traitsISaIN7rocksdb10KeyContextEEE9constructIS1_JRPNS0_18ColumnFamilyHandleERKNS0_5SliceERKPNS0_13PinnableSliceEDnDnRKPNS0_6StatusEEEEvRS2_PT_DpOT0_ = comdat any

$_ZNSt6vectorIN7rocksdb10KeyContextESaIS1_EE17_M_realloc_insertIJRPNS0_18ColumnFamilyHandleERKNS0_5SliceERKPNS0_13PinnableSliceEDnDnRKPNS0_6StatusEEEEvN9__gnu_cxx17__normal_iteratorIPS1_S3_EEDpOT_ = comdat any

$_ZNSt15__new_allocatorIN7rocksdb10KeyContextEE9constructIS1_JRPNS0_18ColumnFamilyHandleERKNS0_5SliceERKPNS0_13PinnableSliceEDnDnRKPNS0_6StatusEEEEvPT_DpOT0_ = comdat any

$_ZNSt6vectorIPN7rocksdb10KeyContextESaIS2_EEC2Ev = comdat any

$_ZNSt12_Vector_baseIPN7rocksdb10KeyContextESaIS2_EEC2Ev = comdat any

$_ZNSt12_Vector_baseIPN7rocksdb10KeyContextESaIS2_EE12_Vector_implC2Ev = comdat any

$_ZNSaIPN7rocksdb10KeyContextEEC2Ev = comdat any

$_ZNSt12_Vector_baseIPN7rocksdb10KeyContextESaIS2_EE17_Vector_impl_dataC2Ev = comdat any

$_ZNSt15__new_allocatorIPN7rocksdb10KeyContextEEC2Ev = comdat any

$_ZN7rocksdb10autovectorIPNS_10KeyContextELm32EE5clearEv = comdat any

$_ZNSt6vectorIPN7rocksdb10KeyContextESaIS2_EED2Ev = comdat any

$_ZNSt6vectorIPN7rocksdb10KeyContextESaIS2_EE5clearEv = comdat any

$_ZNSt6vectorIPN7rocksdb10KeyContextESaIS2_EE15_M_erase_at_endEPS2_ = comdat any

$_ZSt8_DestroyIPPN7rocksdb10KeyContextES2_EvT_S4_RSaIT0_E = comdat any

$_ZNSt12_Vector_baseIPN7rocksdb10KeyContextESaIS2_EE19_M_get_Tp_allocatorEv = comdat any

$_ZSt8_DestroyIPPN7rocksdb10KeyContextEEvT_S4_ = comdat any

$_ZNSt12_Destroy_auxILb1EE9__destroyIPPN7rocksdb10KeyContextEEEvT_S6_ = comdat any

$_ZNSt12_Vector_baseIPN7rocksdb10KeyContextESaIS2_EED2Ev = comdat any

$_ZNSt12_Vector_baseIPN7rocksdb10KeyContextESaIS2_EE13_M_deallocateEPS2_m = comdat any

$_ZNSt12_Vector_baseIPN7rocksdb10KeyContextESaIS2_EE12_Vector_implD2Ev = comdat any

$_ZNSt16allocator_traitsISaIPN7rocksdb10KeyContextEEE10deallocateERS3_PS2_m = comdat any

$_ZNSt15__new_allocatorIPN7rocksdb10KeyContextEE10deallocateEPS2_m = comdat any

$_ZNSaIPN7rocksdb10KeyContextEED2Ev = comdat any

$_ZNSt15__new_allocatorIPN7rocksdb10KeyContextEED2Ev = comdat any

$_ZNSt6vectorIPN7rocksdb10KeyContextESaIS2_EE7reserveEm = comdat any

$_ZNKSt6vectorIPN7rocksdb10KeyContextESaIS2_EE8max_sizeEv = comdat any

$_ZNKSt6vectorIPN7rocksdb10KeyContextESaIS2_EE8capacityEv = comdat any

$_ZNKSt6vectorIPN7rocksdb10KeyContextESaIS2_EE4sizeEv = comdat any

$_ZNSt12_Vector_baseIPN7rocksdb10KeyContextESaIS2_EE11_M_allocateEm = comdat any

$_ZNSt6vectorIPN7rocksdb10KeyContextESaIS2_EE11_S_relocateEPS2_S5_S5_RS3_ = comdat any

$_ZNSt6vectorIPN7rocksdb10KeyContextESaIS2_EE11_S_max_sizeERKS3_ = comdat any

$_ZNKSt12_Vector_baseIPN7rocksdb10KeyContextESaIS2_EE19_M_get_Tp_allocatorEv = comdat any

$_ZNSt16allocator_traitsISaIPN7rocksdb10KeyContextEEE8max_sizeERKS3_ = comdat any

$_ZNKSt15__new_allocatorIPN7rocksdb10KeyContextEE8max_sizeEv = comdat any

$_ZNKSt15__new_allocatorIPN7rocksdb10KeyContextEE11_M_max_sizeEv = comdat any

$_ZNSt16allocator_traitsISaIPN7rocksdb10KeyContextEEE8allocateERS3_m = comdat any

$_ZNSt15__new_allocatorIPN7rocksdb10KeyContextEE8allocateEmPKv = comdat any

$_ZSt12__relocate_aIPPN7rocksdb10KeyContextES3_SaIS2_EET0_T_S6_S5_RT1_ = comdat any

$_ZSt14__relocate_a_1IPN7rocksdb10KeyContextES2_ENSt9enable_ifIXsr3std24__is_bitwise_relocatableIT_EE5valueEPS4_E4typeES5_S5_S5_RSaIT0_E = comdat any

$_ZSt12__niter_baseIPPN7rocksdb10KeyContextEET_S4_ = comdat any

$_ZN7rocksdb10autovectorINS_10KeyContextELm32EE13iterator_implIS2_S1_EC2EPS2_m = comdat any

$_ZNK7rocksdb10autovectorINS_10KeyContextELm32EE13iterator_implIS2_S1_EeqERKS4_ = comdat any

$_ZN7rocksdb10autovectorINS_10KeyContextELm32EEixEm = comdat any

$_ZNSt6vectorIN7rocksdb10KeyContextESaIS1_EEixEm = comdat any

$_ZNSt6vectorIPN7rocksdb10KeyContextESaIS2_EE12emplace_backIJS2_EEERS2_DpOT_ = comdat any

$_ZNSt16allocator_traitsISaIPN7rocksdb10KeyContextEEE9constructIS2_JS2_EEEvRS3_PT_DpOT0_ = comdat any

$_ZNSt6vectorIPN7rocksdb10KeyContextESaIS2_EE17_M_realloc_insertIJS2_EEEvN9__gnu_cxx17__normal_iteratorIPS2_S4_EEDpOT_ = comdat any

$_ZNSt6vectorIPN7rocksdb10KeyContextESaIS2_EE3endEv = comdat any

$_ZNSt6vectorIPN7rocksdb10KeyContextESaIS2_EE4backEv = comdat any

$_ZNSt15__new_allocatorIPN7rocksdb10KeyContextEE9constructIS2_JS2_EEEvPT_DpOT0_ = comdat any

$_ZNKSt6vectorIPN7rocksdb10KeyContextESaIS2_EE12_M_check_lenEmPKc = comdat any

$_ZN9__gnu_cxxmiIPPN7rocksdb10KeyContextESt6vectorIS3_SaIS3_EEEENS_17__normal_iteratorIT_T0_E15difference_typeERKSB_SE_ = comdat any

$_ZNSt6vectorIPN7rocksdb10KeyContextESaIS2_EE5beginEv = comdat any

$_ZNK9__gnu_cxx17__normal_iteratorIPPN7rocksdb10KeyContextESt6vectorIS3_SaIS3_EEE4baseEv = comdat any

$_ZN9__gnu_cxx17__normal_iteratorIPPN7rocksdb10KeyContextESt6vectorIS3_SaIS3_EEEC2ERKS4_ = comdat any

$_ZNK9__gnu_cxx17__normal_iteratorIPPN7rocksdb10KeyContextESt6vectorIS3_SaIS3_EEEmiEl = comdat any

$_ZNK9__gnu_cxx17__normal_iteratorIPPN7rocksdb10KeyContextESt6vectorIS3_SaIS3_EEEdeEv = comdat any

$_ZN7rocksdb11MergeHelper15kPlainBaseValueE = comdat any

$_ZN7rocksdb11MergeHelper14kWideBaseValueE = comdat any

$_ZTVN7rocksdb21InternalKeyComparatorE = comdat any

$_ZTVN7rocksdb12WBWIIteratorE = comdat any

$_ZZNSt8__detail18__to_chars_10_implIjEEvPcjT_E8__digits = comdat any

$_ZTVN7rocksdb18ReadableWriteBatchE = comdat any

$_ZSt14in_place_indexILm1EE = comdat any

$_ZSt14in_place_indexILm0EE = comdat any

$_ZSt14in_place_indexILm2EE = comdat any

$_ZN7rocksdb11MergeHelper12kNoBaseValueE = comdat any

@_ZN7rocksdbL18empty_operand_listE = internal global %"class.std::vector" zeroinitializer, align 8
@__dso_handle = external hidden global i8
@.str = private unnamed_addr constant [39 x i8] c"unknown WriteBatch tag in ReBuildIndex\00", align 1
@.str.1 = private unnamed_addr constant [27 x i8] c"WriteBatch has wrong count\00", align 1
@_ZTVN7rocksdb19WriteBatchWithIndexE = unnamed_addr constant { [39 x ptr] } { [39 x ptr] [ptr null, ptr null, ptr @_ZN7rocksdb19WriteBatchWithIndexD1Ev, ptr @_ZN7rocksdb19WriteBatchWithIndexD0Ev, ptr @_ZN7rocksdb19WriteBatchWithIndex3PutEPNS_18ColumnFamilyHandleERKNS_5SliceES5_, ptr @_ZN7rocksdb19WriteBatchWithIndex3PutERKNS_5SliceES3_, ptr @_ZN7rocksdb19WriteBatchWithIndex3PutEPNS_18ColumnFamilyHandleERKNS_5SliceES5_S5_, ptr @_ZN7rocksdb14WriteBatchBase3PutEPNS_18ColumnFamilyHandleERKNS_10SlicePartsES5_, ptr @_ZN7rocksdb14WriteBatchBase3PutERKNS_10SlicePartsES3_, ptr @_ZN7rocksdb19WriteBatchWithIndex8TimedPutEPNS_18ColumnFamilyHandleERKNS_5SliceES5_m, ptr @_ZN7rocksdb19WriteBatchWithIndex9PutEntityEPNS_18ColumnFamilyHandleERKNS_5SliceERKSt6vectorINS_10WideColumnESaIS7_EE, ptr @_ZN7rocksdb19WriteBatchWithIndex9PutEntityERKNS_5SliceERKSt6vectorINS_14AttributeGroupESaIS5_EE, ptr @_ZN7rocksdb19WriteBatchWithIndex5MergeEPNS_18ColumnFamilyHandleERKNS_5SliceES5_, ptr @_ZN7rocksdb19WriteBatchWithIndex5MergeERKNS_5SliceES3_, ptr @_ZN7rocksdb19WriteBatchWithIndex5MergeEPNS_18ColumnFamilyHandleERKNS_5SliceES5_S5_, ptr @_ZN7rocksdb14WriteBatchBase5MergeEPNS_18ColumnFamilyHandleERKNS_10SlicePartsES5_, ptr @_ZN7rocksdb14WriteBatchBase5MergeERKNS_10SlicePartsES3_, ptr @_ZN7rocksdb19WriteBatchWithIndex6DeleteEPNS_18ColumnFamilyHandleERKNS_5SliceE, ptr @_ZN7rocksdb19WriteBatchWithIndex6DeleteERKNS_5SliceE, ptr @_ZN7rocksdb19WriteBatchWithIndex6DeleteEPNS_18ColumnFamilyHandleERKNS_5SliceES5_, ptr @_ZN7rocksdb14WriteBatchBase6DeleteEPNS_18ColumnFamilyHandleERKNS_10SlicePartsE, ptr @_ZN7rocksdb14WriteBatchBase6DeleteERKNS_10SlicePartsE, ptr @_ZN7rocksdb19WriteBatchWithIndex12SingleDeleteEPNS_18ColumnFamilyHandleERKNS_5SliceE, ptr @_ZN7rocksdb19WriteBatchWithIndex12SingleDeleteERKNS_5SliceE, ptr @_ZN7rocksdb19WriteBatchWithIndex12SingleDeleteEPNS_18ColumnFamilyHandleERKNS_5SliceES5_, ptr @_ZN7rocksdb14WriteBatchBase12SingleDeleteEPNS_18ColumnFamilyHandleERKNS_10SlicePartsE, ptr @_ZN7rocksdb14WriteBatchBase12SingleDeleteERKNS_10SlicePartsE, ptr @_ZN7rocksdb19WriteBatchWithIndex11DeleteRangeEPNS_18ColumnFamilyHandleERKNS_5SliceES5_, ptr @_ZN7rocksdb19WriteBatchWithIndex11DeleteRangeERKNS_5SliceES3_, ptr @_ZN7rocksdb19WriteBatchWithIndex11DeleteRangeEPNS_18ColumnFamilyHandleERKNS_5SliceES5_S5_, ptr @_ZN7rocksdb14WriteBatchBase11DeleteRangeEPNS_18ColumnFamilyHandleERKNS_10SlicePartsES5_, ptr @_ZN7rocksdb14WriteBatchBase11DeleteRangeERKNS_10SlicePartsES3_, ptr @_ZN7rocksdb19WriteBatchWithIndex10PutLogDataERKNS_5SliceE, ptr @_ZN7rocksdb19WriteBatchWithIndex5ClearEv, ptr @_ZN7rocksdb19WriteBatchWithIndex13GetWriteBatchEv, ptr @_ZN7rocksdb19WriteBatchWithIndex12SetSavePointEv, ptr @_ZN7rocksdb19WriteBatchWithIndex19RollbackToSavePointEv, ptr @_ZN7rocksdb19WriteBatchWithIndex12PopSavePointEv, ptr @_ZN7rocksdb19WriteBatchWithIndex11SetMaxBytesEm] }, align 8
@.str.2 = private unnamed_addr constant [39 x i8] c"column family handle cannot be nullptr\00", align 1
@_ZN7rocksdb11MergeHelper15kPlainBaseValueE = linkonce_odr constant %"struct.rocksdb::MergeHelper::PlainBaseValueTag" undef, comdat, align 1
@_ZN7rocksdb11MergeHelper14kWideBaseValueE = linkonce_odr constant %"struct.rocksdb::MergeHelper::WideBaseValueTag" undef, comdat, align 1
@.str.3 = private unnamed_addr constant [23 x i8] c"Must specify timestamp\00", align 1
@_ZTVN7rocksdb21InternalKeyComparatorE = linkonce_odr unnamed_addr constant { [5 x ptr] } { [5 x ptr] [ptr null, ptr null, ptr @_ZN7rocksdb21InternalKeyComparatorD2Ev, ptr @_ZN7rocksdb21InternalKeyComparatorD0Ev, ptr @_ZNK7rocksdb21InternalKeyComparator7CompareERKNS_5SliceES3_] }, comdat, align 8
@_ZN7rocksdb10perf_levelE = external thread_local global i8, align 1
@_ZN7rocksdb12perf_contextE = external thread_local global %"struct.rocksdb::PerfContext", align 8
@_ZTVN7rocksdb16WBWIIteratorImplE = external unnamed_addr constant { [13 x ptr] }, align 8
@_ZTVN7rocksdb12WBWIIteratorE = linkonce_odr unnamed_addr constant { [13 x ptr] } { [13 x ptr] [ptr null, ptr null, ptr @_ZN7rocksdb12WBWIIteratorD2Ev, ptr @_ZN7rocksdb12WBWIIteratorD0Ev, ptr @__cxa_pure_virtual, ptr @__cxa_pure_virtual, ptr @__cxa_pure_virtual, ptr @__cxa_pure_virtual, ptr @__cxa_pure_virtual, ptr @__cxa_pure_virtual, ptr @__cxa_pure_virtual, ptr @__cxa_pure_virtual, ptr @__cxa_pure_virtual] }, comdat, align 8
@.str.4 = private unnamed_addr constant [23 x i8] c"vector::_M_fill_insert\00", align 1
@.str.5 = private unnamed_addr constant [1 x i8] zeroinitializer, align 1
@_ZZNSt8__detail18__to_chars_10_implIjEEvPcjT_E8__digits = linkonce_odr constant [201 x i8] c"00010203040506070809101112131415161718192021222324252627282930313233343536373839404142434445464748495051525354555657585960616263646566676869707172737475767778798081828384858687888990919293949596979899\00", comdat, align 16
@_ZTVN7rocksdb14WriteBatchBaseE = external unnamed_addr constant { [39 x ptr] }, align 8
@_ZTVN7rocksdb18ReadableWriteBatchE = linkonce_odr unnamed_addr constant { [39 x ptr] } { [39 x ptr] [ptr null, ptr null, ptr @_ZN7rocksdb18ReadableWriteBatchD2Ev, ptr @_ZN7rocksdb18ReadableWriteBatchD0Ev, ptr @_ZN7rocksdb10WriteBatch3PutEPNS_18ColumnFamilyHandleERKNS_5SliceES5_, ptr @_ZN7rocksdb10WriteBatch3PutERKNS_5SliceES3_, ptr @_ZN7rocksdb10WriteBatch3PutEPNS_18ColumnFamilyHandleERKNS_5SliceES5_S5_, ptr @_ZN7rocksdb10WriteBatch3PutEPNS_18ColumnFamilyHandleERKNS_10SlicePartsES5_, ptr @_ZN7rocksdb10WriteBatch3PutERKNS_10SlicePartsES3_, ptr @_ZN7rocksdb10WriteBatch8TimedPutEPNS_18ColumnFamilyHandleERKNS_5SliceES5_m, ptr @_ZN7rocksdb10WriteBatch9PutEntityEPNS_18ColumnFamilyHandleERKNS_5SliceERKSt6vectorINS_10WideColumnESaIS7_EE, ptr @_ZN7rocksdb10WriteBatch9PutEntityERKNS_5SliceERKSt6vectorINS_14AttributeGroupESaIS5_EE, ptr @_ZN7rocksdb10WriteBatch5MergeEPNS_18ColumnFamilyHandleERKNS_5SliceES5_, ptr @_ZN7rocksdb10WriteBatch5MergeERKNS_5SliceES3_, ptr @_ZN7rocksdb10WriteBatch5MergeEPNS_18ColumnFamilyHandleERKNS_5SliceES5_S5_, ptr @_ZN7rocksdb10WriteBatch5MergeEPNS_18ColumnFamilyHandleERKNS_10SlicePartsES5_, ptr @_ZN7rocksdb10WriteBatch5MergeERKNS_10SlicePartsES3_, ptr @_ZN7rocksdb10WriteBatch6DeleteEPNS_18ColumnFamilyHandleERKNS_5SliceE, ptr @_ZN7rocksdb10WriteBatch6DeleteERKNS_5SliceE, ptr @_ZN7rocksdb10WriteBatch6DeleteEPNS_18ColumnFamilyHandleERKNS_5SliceES5_, ptr @_ZN7rocksdb10WriteBatch6DeleteEPNS_18ColumnFamilyHandleERKNS_10SlicePartsE, ptr @_ZN7rocksdb10WriteBatch6DeleteERKNS_10SlicePartsE, ptr @_ZN7rocksdb10WriteBatch12SingleDeleteEPNS_18ColumnFamilyHandleERKNS_5SliceE, ptr @_ZN7rocksdb10WriteBatch12SingleDeleteERKNS_5SliceE, ptr @_ZN7rocksdb10WriteBatch12SingleDeleteEPNS_18ColumnFamilyHandleERKNS_5SliceES5_, ptr @_ZN7rocksdb10WriteBatch12SingleDeleteEPNS_18ColumnFamilyHandleERKNS_10SlicePartsE, ptr @_ZN7rocksdb10WriteBatch12SingleDeleteERKNS_10SlicePartsE, ptr @_ZN7rocksdb10WriteBatch11DeleteRangeEPNS_18ColumnFamilyHandleERKNS_5SliceES5_, ptr @_ZN7rocksdb10WriteBatch11DeleteRangeERKNS_5SliceES3_, ptr @_ZN7rocksdb10WriteBatch11DeleteRangeEPNS_18ColumnFamilyHandleERKNS_5SliceES5_S5_, ptr @_ZN7rocksdb10WriteBatch11DeleteRangeEPNS_18ColumnFamilyHandleERKNS_10SlicePartsES5_, ptr @_ZN7rocksdb10WriteBatch11DeleteRangeERKNS_10SlicePartsES3_, ptr @_ZN7rocksdb10WriteBatch10PutLogDataERKNS_5SliceE, ptr @_ZN7rocksdb10WriteBatch5ClearEv, ptr @_ZN7rocksdb10WriteBatch13GetWriteBatchEv, ptr @_ZN7rocksdb10WriteBatch12SetSavePointEv, ptr @_ZN7rocksdb10WriteBatch19RollbackToSavePointEv, ptr @_ZN7rocksdb10WriteBatch12PopSavePointEv, ptr @_ZN7rocksdb10WriteBatch11SetMaxBytesEm] }, comdat, align 8
@.str.6 = private unnamed_addr constant [31 x i8] c"TimedPut is under construction\00", align 1
@_ZN7rocksdb22kDefaultWideColumnNameE = external global %"class.rocksdb::Slice", align 8
@.str.7 = private unnamed_addr constant [46 x i8] c"TimedPut not supported by WriteBatchWithIndex\00", align 1
@.str.8 = private unnamed_addr constant [49 x i8] c"Cannot call this method without attribute groups\00", align 1
@.str.9 = private unnamed_addr constant [47 x i8] c"PutEntity not supported by WriteBatchWithIndex\00", align 1
@.str.10 = private unnamed_addr constant [46 x i8] c"Merge does not support user-defined timestamp\00", align 1
@.str.11 = private unnamed_addr constant [47 x i8] c"DeleteRange unsupported in WriteBatchWithIndex\00", align 1
@_ZSt14in_place_indexILm1EE = linkonce_odr constant %"struct.std::in_place_index_t" zeroinitializer, comdat, align 1
@_ZSt14in_place_indexILm0EE = linkonce_odr constant %"struct.std::in_place_index_t.472" zeroinitializer, comdat, align 1
@_ZSt14in_place_indexILm2EE = linkonce_odr constant %"struct.std::in_place_index_t.476" zeroinitializer, comdat, align 1
@_ZN7rocksdb11MergeHelper12kNoBaseValueE = linkonce_odr constant %"struct.rocksdb::MergeHelper::NoBaseValueTag" undef, comdat, align 1
@.str.12 = private unnamed_addr constant [26 x i8] c"vector::_M_realloc_insert\00", align 1
@.str.13 = private unnamed_addr constant [16 x i8] c"vector::reserve\00", align 1
@llvm.global_ctors = appending global [1 x { i32, ptr, ptr }] [{ i32, ptr, ptr } { i32 65535, ptr @_GLOBAL__sub_I_write_batch_with_index.cc, ptr null }]

@_ZN7rocksdb19WriteBatchWithIndexC1EPKNS_10ComparatorEmbmm = unnamed_addr alias void (ptr, ptr, i64, i1, i64, i64), ptr @_ZN7rocksdb19WriteBatchWithIndexC2EPKNS_10ComparatorEmbmm
@_ZN7rocksdb19WriteBatchWithIndexD1Ev = unnamed_addr alias void (ptr), ptr @_ZN7rocksdb19WriteBatchWithIndexD2Ev
@_ZN7rocksdb19WriteBatchWithIndexC1EOS0_ = unnamed_addr alias void (ptr, ptr), ptr @_ZN7rocksdb19WriteBatchWithIndexC2EOS0_

; Function Attrs: mustprogress uwtable
define linkonce_odr noundef i32 @_ZNK7rocksdb21InternalKeyComparator7CompareERKNS_5SliceES3_(ptr noundef nonnull align 8 dereferenceable(16) %this, ptr noundef nonnull align 8 dereferenceable(16) %akey, ptr noundef nonnull align 8 dereferenceable(16) %bkey) unnamed_addr #0 comdat align 2 {
entry:
  %this.addr = alloca ptr, align 8
  %akey.addr = alloca ptr, align 8
  %bkey.addr = alloca ptr, align 8
  %r = alloca i32, align 4
  %ref.tmp = alloca %"class.rocksdb::Slice", align 8
  %ref.tmp2 = alloca %"class.rocksdb::Slice", align 8
  %anum = alloca i64, align 8
  %bnum = alloca i64, align 8
  store ptr %this, ptr %this.addr, align 8
  store ptr %akey, ptr %akey.addr, align 8
  store ptr %bkey, ptr %bkey.addr, align 8
  %this1 = load ptr, ptr %this.addr, align 8
  %user_comparator_ = getelementptr inbounds %"class.rocksdb::InternalKeyComparator", ptr %this1, i32 0, i32 1
  %0 = load ptr, ptr %akey.addr, align 8
  %call = call { ptr, i64 } @_ZN7rocksdb14ExtractUserKeyERKNS_5SliceE(ptr noundef nonnull align 8 dereferenceable(16) %0)
  %1 = getelementptr inbounds { ptr, i64 }, ptr %ref.tmp, i32 0, i32 0
  %2 = extractvalue { ptr, i64 } %call, 0
  store ptr %2, ptr %1, align 8
  %3 = getelementptr inbounds { ptr, i64 }, ptr %ref.tmp, i32 0, i32 1
  %4 = extractvalue { ptr, i64 } %call, 1
  store i64 %4, ptr %3, align 8
  %5 = load ptr, ptr %bkey.addr, align 8
  %call3 = call { ptr, i64 } @_ZN7rocksdb14ExtractUserKeyERKNS_5SliceE(ptr noundef nonnull align 8 dereferenceable(16) %5)
  %6 = getelementptr inbounds { ptr, i64 }, ptr %ref.tmp2, i32 0, i32 0
  %7 = extractvalue { ptr, i64 } %call3, 0
  store ptr %7, ptr %6, align 8
  %8 = getelementptr inbounds { ptr, i64 }, ptr %ref.tmp2, i32 0, i32 1
  %9 = extractvalue { ptr, i64 } %call3, 1
  store i64 %9, ptr %8, align 8
  %call4 = call noundef i32 @_ZNK7rocksdb21UserComparatorWrapper7CompareERKNS_5SliceES3_(ptr noundef nonnull align 8 dereferenceable(8) %user_comparator_, ptr noundef nonnull align 8 dereferenceable(16) %ref.tmp, ptr noundef nonnull align 8 dereferenceable(16) %ref.tmp2)
  store i32 %call4, ptr %r, align 4
  %10 = load i32, ptr %r, align 4
  %cmp = icmp eq i32 %10, 0
  br i1 %cmp, label %if.then, label %if.end19

if.then:                                          ; preds = %entry
  %11 = load ptr, ptr %akey.addr, align 8
  %call5 = call noundef ptr @_ZNK7rocksdb5Slice4dataEv(ptr noundef nonnull align 8 dereferenceable(16) %11)
  %12 = load ptr, ptr %akey.addr, align 8
  %call6 = call noundef i64 @_ZNK7rocksdb5Slice4sizeEv(ptr noundef nonnull align 8 dereferenceable(16) %12)
  %add.ptr = getelementptr inbounds i8, ptr %call5, i64 %call6
  %add.ptr7 = getelementptr inbounds i8, ptr %add.ptr, i64 -8
  %call8 = call noundef i64 @_ZN7rocksdb13DecodeFixed64EPKc(ptr noundef %add.ptr7)
  store i64 %call8, ptr %anum, align 8
  %13 = load ptr, ptr %bkey.addr, align 8
  %call9 = call noundef ptr @_ZNK7rocksdb5Slice4dataEv(ptr noundef nonnull align 8 dereferenceable(16) %13)
  %14 = load ptr, ptr %bkey.addr, align 8
  %call10 = call noundef i64 @_ZNK7rocksdb5Slice4sizeEv(ptr noundef nonnull align 8 dereferenceable(16) %14)
  %add.ptr11 = getelementptr inbounds i8, ptr %call9, i64 %call10
  %add.ptr12 = getelementptr inbounds i8, ptr %add.ptr11, i64 -8
  %call13 = call noundef i64 @_ZN7rocksdb13DecodeFixed64EPKc(ptr noundef %add.ptr12)
  store i64 %call13, ptr %bnum, align 8
  %15 = load i64, ptr %anum, align 8
  %16 = load i64, ptr %bnum, align 8
  %cmp14 = icmp ugt i64 %15, %16
  br i1 %cmp14, label %if.then15, label %if.else

if.then15:                                        ; preds = %if.then
  store i32 -1, ptr %r, align 4
  br label %if.end18

if.else:                                          ; preds = %if.then
  %17 = load i64, ptr %anum, align 8
  %18 = load i64, ptr %bnum, align 8
  %cmp16 = icmp ult i64 %17, %18
  br i1 %cmp16, label %if.then17, label %if.end

if.then17:                                        ; preds = %if.else
  store i32 1, ptr %r, align 4
  br label %if.end

if.end:                                           ; preds = %if.then17, %if.else
  br label %if.end18

if.end18:                                         ; preds = %if.end, %if.then15
  br label %if.end19

if.end19:                                         ; preds = %if.end18, %entry
  %19 = load i32, ptr %r, align 4
  ret i32 %19
}

; Function Attrs: mustprogress uwtable
define linkonce_odr noundef i32 @_ZNK7rocksdb21UserComparatorWrapper7CompareERKNS_5SliceES3_(ptr noundef nonnull align 8 dereferenceable(8) %this, ptr noundef nonnull align 8 dereferenceable(16) %a, ptr noundef nonnull align 8 dereferenceable(16) %b) #0 comdat align 2 {
entry:
  %this.addr = alloca ptr, align 8
  %a.addr = alloca ptr, align 8
  %b.addr = alloca ptr, align 8
  store ptr %this, ptr %this.addr, align 8
  store ptr %a, ptr %a.addr, align 8
  store ptr %b, ptr %b.addr, align 8
  %this1 = load ptr, ptr %this.addr, align 8
  %0 = call ptr @_ZTWN7rocksdb10perf_levelE()
  %1 = load i8, ptr %0, align 1
  %conv = zext i8 %1 to i32
  %cmp = icmp sge i32 %conv, 2
  br i1 %cmp, label %if.then, label %if.end

if.then:                                          ; preds = %entry
  %2 = call ptr @_ZTWN7rocksdb12perf_contextE()
  %user_key_comparison_count = getelementptr inbounds %"struct.rocksdb::PerfContextBase", ptr %2, i32 0, i32 0
  %3 = load i64, ptr %user_key_comparison_count, align 8
  %add = add i64 %3, 1
  store i64 %add, ptr %user_key_comparison_count, align 8
  br label %if.end

if.end:                                           ; preds = %if.then, %entry
  %user_comparator_ = getelementptr inbounds %"class.rocksdb::UserComparatorWrapper", ptr %this1, i32 0, i32 0
  %4 = load ptr, ptr %user_comparator_, align 8
  %add.ptr = getelementptr inbounds i8, ptr %4, i64 32
  %5 = load ptr, ptr %a.addr, align 8
  %6 = load ptr, ptr %b.addr, align 8
  %vtable = load ptr, ptr %add.ptr, align 8
  %vfn = getelementptr inbounds ptr, ptr %vtable, i64 2
  %7 = load ptr, ptr %vfn, align 8
  %call = call noundef i32 %7(ptr noundef nonnull align 8 dereferenceable(8) %add.ptr, ptr noundef nonnull align 8 dereferenceable(16) %5, ptr noundef nonnull align 8 dereferenceable(16) %6)
  ret i32 %call
}

; Function Attrs: mustprogress uwtable
define linkonce_odr { ptr, i64 } @_ZN7rocksdb14ExtractUserKeyERKNS_5SliceE(ptr noundef nonnull align 8 dereferenceable(16) %internal_key) #0 comdat {
entry:
  %retval = alloca %"class.rocksdb::Slice", align 8
  %internal_key.addr = alloca ptr, align 8
  store ptr %internal_key, ptr %internal_key.addr, align 8
  %0 = load ptr, ptr %internal_key.addr, align 8
  %call = call noundef ptr @_ZNK7rocksdb5Slice4dataEv(ptr noundef nonnull align 8 dereferenceable(16) %0)
  %1 = load ptr, ptr %internal_key.addr, align 8
  %call1 = call noundef i64 @_ZNK7rocksdb5Slice4sizeEv(ptr noundef nonnull align 8 dereferenceable(16) %1)
  %sub = sub i64 %call1, 8
  call void @_ZN7rocksdb5SliceC2EPKcm(ptr noundef nonnull align 8 dereferenceable(16) %retval, ptr noundef %call, i64 noundef %sub)
  %2 = load { ptr, i64 }, ptr %retval, align 8
  ret { ptr, i64 } %2
}

; Function Attrs: mustprogress nounwind uwtable
define linkonce_odr noundef i64 @_ZN7rocksdb13DecodeFixed64EPKc(ptr noundef %ptr) #1 comdat {
entry:
  %ptr.addr = alloca ptr, align 8
  %result = alloca i64, align 8
  store ptr %ptr, ptr %ptr.addr, align 8
  %0 = load ptr, ptr %ptr.addr, align 8
  call void @llvm.memcpy.p0.p0.i64(ptr align 8 %result, ptr align 1 %0, i64 8, i1 false)
  %1 = load i64, ptr %result, align 8
  ret i64 %1
}

; Function Attrs: mustprogress nounwind uwtable
define linkonce_odr noundef ptr @_ZNK7rocksdb5Slice4dataEv(ptr noundef nonnull align 8 dereferenceable(16) %this) #1 comdat align 2 {
entry:
  %this.addr = alloca ptr, align 8
  store ptr %this, ptr %this.addr, align 8
  %this1 = load ptr, ptr %this.addr, align 8
  %data_ = getelementptr inbounds %"class.rocksdb::Slice", ptr %this1, i32 0, i32 0
  %0 = load ptr, ptr %data_, align 8
  ret ptr %0
}

; Function Attrs: mustprogress nounwind uwtable
define linkonce_odr noundef i64 @_ZNK7rocksdb5Slice4sizeEv(ptr noundef nonnull align 8 dereferenceable(16) %this) #1 comdat align 2 {
entry:
  %this.addr = alloca ptr, align 8
  store ptr %this, ptr %this.addr, align 8
  %this1 = load ptr, ptr %this.addr, align 8
  %size_ = getelementptr inbounds %"class.rocksdb::Slice", ptr %this1, i32 0, i32 1
  %0 = load i64, ptr %size_, align 8
  ret i64 %0
}

; Function Attrs: uwtable
define internal void @__cxx_global_var_init() #2 section ".text.startup" {
entry:
  call void @_ZNSt6vectorIN7rocksdb5SliceESaIS1_EEC2Ev(ptr noundef nonnull align 8 dereferenceable(24) @_ZN7rocksdbL18empty_operand_listE) #3
  %0 = call i32 @__cxa_atexit(ptr @_ZNSt6vectorIN7rocksdb5SliceESaIS1_EED2Ev, ptr @_ZN7rocksdbL18empty_operand_listE, ptr @__dso_handle) #3
  ret void
}

; Function Attrs: mustprogress nounwind uwtable
define linkonce_odr void @_ZNSt6vectorIN7rocksdb5SliceESaIS1_EEC2Ev(ptr noundef nonnull align 8 dereferenceable(24) %this) unnamed_addr #1 comdat align 2 {
entry:
  %this.addr = alloca ptr, align 8
  store ptr %this, ptr %this.addr, align 8
  %this1 = load ptr, ptr %this.addr, align 8
  call void @_ZNSt12_Vector_baseIN7rocksdb5SliceESaIS1_EEC2Ev(ptr noundef nonnull align 8 dereferenceable(24) %this1) #3
  ret void
}

; Function Attrs: mustprogress nounwind uwtable
define linkonce_odr void @_ZNSt6vectorIN7rocksdb5SliceESaIS1_EED2Ev(ptr noundef nonnull align 8 dereferenceable(24) %this) unnamed_addr #1 comdat align 2 personality ptr @__gxx_personality_v0 {
entry:
  %this.addr = alloca ptr, align 8
  store ptr %this, ptr %this.addr, align 8
  %this1 = load ptr, ptr %this.addr, align 8
  %_M_impl = getelementptr inbounds %"struct.std::_Vector_base", ptr %this1, i32 0, i32 0
  %_M_start = getelementptr inbounds %"struct.std::_Vector_base<rocksdb::Slice, std::allocator<rocksdb::Slice>>::_Vector_impl_data", ptr %_M_impl, i32 0, i32 0
  %0 = load ptr, ptr %_M_start, align 8
  %_M_impl2 = getelementptr inbounds %"struct.std::_Vector_base", ptr %this1, i32 0, i32 0
  %_M_finish = getelementptr inbounds %"struct.std::_Vector_base<rocksdb::Slice, std::allocator<rocksdb::Slice>>::_Vector_impl_data", ptr %_M_impl2, i32 0, i32 1
  %1 = load ptr, ptr %_M_finish, align 8
  %call = call noundef nonnull align 1 dereferenceable(1) ptr @_ZNSt12_Vector_baseIN7rocksdb5SliceESaIS1_EE19_M_get_Tp_allocatorEv(ptr noundef nonnull align 8 dereferenceable(24) %this1) #3
  invoke void @_ZSt8_DestroyIPN7rocksdb5SliceES1_EvT_S3_RSaIT0_E(ptr noundef %0, ptr noundef %1, ptr noundef nonnull align 1 dereferenceable(1) %call)
          to label %invoke.cont unwind label %terminate.lpad

invoke.cont:                                      ; preds = %entry
  call void @_ZNSt12_Vector_baseIN7rocksdb5SliceESaIS1_EED2Ev(ptr noundef nonnull align 8 dereferenceable(24) %this1) #3
  ret void

terminate.lpad:                                   ; preds = %entry
  %2 = landingpad { ptr, i32 }
          catch ptr null
  %3 = extractvalue { ptr, i32 } %2, 0
  call void @__clang_call_terminate(ptr %3) #16
  unreachable
}

; Function Attrs: nounwind
declare i32 @__cxa_atexit(ptr, ptr, ptr) #3

; Function Attrs: mustprogress uwtable
define noundef zeroext i1 @_ZN7rocksdb19WriteBatchWithIndex3Rep19UpdateExistingEntryEPNS_18ColumnFamilyHandleERKNS_5SliceENS_9WriteTypeE(ptr noundef nonnull align 16 dereferenceable(2520) %this, ptr noundef %column_family, ptr noundef nonnull align 8 dereferenceable(16) %key, i32 noundef %type) #0 align 2 {
entry:
  %this.addr = alloca ptr, align 8
  %column_family.addr = alloca ptr, align 8
  %key.addr = alloca ptr, align 8
  %type.addr = alloca i32, align 4
  %cf_id = alloca i32, align 4
  store ptr %this, ptr %this.addr, align 8
  store ptr %column_family, ptr %column_family.addr, align 8
  store ptr %key, ptr %key.addr, align 8
  store i32 %type, ptr %type.addr, align 4
  %this1 = load ptr, ptr %this.addr, align 8
  %0 = load ptr, ptr %column_family.addr, align 8
  %call = call noundef i32 @_ZN7rocksdb17GetColumnFamilyIDEPNS_18ColumnFamilyHandleE(ptr noundef %0)
  store i32 %call, ptr %cf_id, align 4
  %1 = load i32, ptr %cf_id, align 4
  %2 = load ptr, ptr %key.addr, align 8
  %3 = load i32, ptr %type.addr, align 4
  %call2 = call noundef zeroext i1 @_ZN7rocksdb19WriteBatchWithIndex3Rep27UpdateExistingEntryWithCfIdEjRKNS_5SliceENS_9WriteTypeE(ptr noundef nonnull align 16 dereferenceable(2520) %this1, i32 noundef %1, ptr noundef nonnull align 8 dereferenceable(16) %2, i32 noundef %3)
  ret i1 %call2
}

declare noundef i32 @_ZN7rocksdb17GetColumnFamilyIDEPNS_18ColumnFamilyHandleE(ptr noundef) #4

; Function Attrs: mustprogress uwtable
define noundef zeroext i1 @_ZN7rocksdb19WriteBatchWithIndex3Rep27UpdateExistingEntryWithCfIdEjRKNS_5SliceENS_9WriteTypeE(ptr noundef nonnull align 16 dereferenceable(2520) %this, i32 noundef %column_family_id, ptr noundef nonnull align 8 dereferenceable(16) %key, i32 noundef %type) #0 align 2 personality ptr @__gxx_personality_v0 {
entry:
  %retval = alloca i1, align 1
  %this.addr = alloca ptr, align 8
  %column_family_id.addr = alloca i32, align 4
  %key.addr = alloca ptr, align 8
  %type.addr = alloca i32, align 4
  %iter = alloca %"class.rocksdb::WBWIIteratorImpl", align 8
  %exn.slot = alloca ptr, align 8
  %ehselector.slot = alloca i32, align 4
  %cleanup.dest.slot = alloca i32, align 4
  %non_const_entry = alloca ptr, align 8
  store ptr %this, ptr %this.addr, align 8
  store i32 %column_family_id, ptr %column_family_id.addr, align 4
  store ptr %key, ptr %key.addr, align 8
  store i32 %type, ptr %type.addr, align 4
  %this1 = load ptr, ptr %this.addr, align 8
  %overwrite_key = getelementptr inbounds %"struct.rocksdb::WriteBatchWithIndex::Rep", ptr %this1, i32 0, i32 5
  %0 = load i8, ptr %overwrite_key, align 8
  %tobool = trunc i8 %0 to i1
  br i1 %tobool, label %if.end, label %if.then

if.then:                                          ; preds = %entry
  store i1 false, ptr %retval, align 1
  br label %return

if.end:                                           ; preds = %entry
  %1 = load i32, ptr %column_family_id.addr, align 4
  %skip_list = getelementptr inbounds %"struct.rocksdb::WriteBatchWithIndex::Rep", ptr %this1, i32 0, i32 4
  %write_batch = getelementptr inbounds %"struct.rocksdb::WriteBatchWithIndex::Rep", ptr %this1, i32 0, i32 0
  %comparator = getelementptr inbounds %"struct.rocksdb::WriteBatchWithIndex::Rep", ptr %this1, i32 0, i32 1
  call void @_ZN7rocksdb16WBWIIteratorImplC2EjPNS_8SkipListIPNS_20WriteBatchIndexEntryERKNS_25WriteBatchEntryComparatorEEEPKNS_18ReadableWriteBatchEPS4_PKNS_5SliceESF_(ptr noundef nonnull align 8 dereferenceable(65) %iter, i32 noundef %1, ptr noundef %skip_list, ptr noundef %write_batch, ptr noundef %comparator, ptr noundef null, ptr noundef null)
  %2 = load ptr, ptr %key.addr, align 8
  invoke void @_ZN7rocksdb16WBWIIteratorImpl4SeekERKNS_5SliceE(ptr noundef nonnull align 8 dereferenceable(65) %iter, ptr noundef nonnull align 8 dereferenceable(16) %2)
          to label %invoke.cont unwind label %lpad

invoke.cont:                                      ; preds = %if.end
  %call = invoke noundef zeroext i1 @_ZNK7rocksdb16WBWIIteratorImpl5ValidEv(ptr noundef nonnull align 8 dereferenceable(65) %iter)
          to label %invoke.cont2 unwind label %lpad

invoke.cont2:                                     ; preds = %invoke.cont
  br i1 %call, label %if.else, label %if.then3

if.then3:                                         ; preds = %invoke.cont2
  store i1 false, ptr %retval, align 1
  store i32 1, ptr %cleanup.dest.slot, align 4
  br label %cleanup

lpad:                                             ; preds = %if.end17, %if.else13, %if.then11, %invoke.cont8, %if.else7, %if.else, %invoke.cont, %if.end
  %3 = landingpad { ptr, i32 }
          cleanup
  %4 = extractvalue { ptr, i32 } %3, 0
  store ptr %4, ptr %exn.slot, align 8
  %5 = extractvalue { ptr, i32 } %3, 1
  store i32 %5, ptr %ehselector.slot, align 4
  call void @_ZN7rocksdb16WBWIIteratorImplD2Ev(ptr noundef nonnull align 8 dereferenceable(65) %iter) #3
  br label %eh.resume

if.else:                                          ; preds = %invoke.cont2
  %6 = load i32, ptr %column_family_id.addr, align 4
  %7 = load ptr, ptr %key.addr, align 8
  %call5 = invoke noundef zeroext i1 @_ZN7rocksdb16WBWIIteratorImpl10MatchesKeyEjRKNS_5SliceE(ptr noundef nonnull align 8 dereferenceable(65) %iter, i32 noundef %6, ptr noundef nonnull align 8 dereferenceable(16) %7)
          to label %invoke.cont4 unwind label %lpad

invoke.cont4:                                     ; preds = %if.else
  br i1 %call5, label %if.else7, label %if.then6

if.then6:                                         ; preds = %invoke.cont4
  store i1 false, ptr %retval, align 1
  store i32 1, ptr %cleanup.dest.slot, align 4
  br label %cleanup

if.else7:                                         ; preds = %invoke.cont4
  invoke void @_ZN7rocksdb16WBWIIteratorImpl7NextKeyEv(ptr noundef nonnull align 8 dereferenceable(65) %iter)
          to label %invoke.cont8 unwind label %lpad

invoke.cont8:                                     ; preds = %if.else7
  %call10 = invoke noundef zeroext i1 @_ZNK7rocksdb16WBWIIteratorImpl5ValidEv(ptr noundef nonnull align 8 dereferenceable(65) %iter)
          to label %invoke.cont9 unwind label %lpad

invoke.cont9:                                     ; preds = %invoke.cont8
  br i1 %call10, label %if.then11, label %if.else13

if.then11:                                        ; preds = %invoke.cont9
  invoke void @_ZN7rocksdb16WBWIIteratorImpl4PrevEv(ptr noundef nonnull align 8 dereferenceable(65) %iter)
          to label %invoke.cont12 unwind label %lpad

invoke.cont12:                                    ; preds = %if.then11
  br label %if.end15

if.else13:                                        ; preds = %invoke.cont9
  invoke void @_ZN7rocksdb16WBWIIteratorImpl10SeekToLastEv(ptr noundef nonnull align 8 dereferenceable(65) %iter)
          to label %invoke.cont14 unwind label %lpad

invoke.cont14:                                    ; preds = %if.else13
  br label %if.end15

if.end15:                                         ; preds = %invoke.cont14, %invoke.cont12
  br label %if.end16

if.end16:                                         ; preds = %if.end15
  br label %if.end17

if.end17:                                         ; preds = %if.end16
  %call19 = invoke noundef ptr @_ZNK7rocksdb16WBWIIteratorImpl11GetRawEntryEv(ptr noundef nonnull align 8 dereferenceable(65) %iter)
          to label %invoke.cont18 unwind label %lpad

invoke.cont18:                                    ; preds = %if.end17
  store ptr %call19, ptr %non_const_entry, align 8
  %last_sub_batch_offset = getelementptr inbounds %"struct.rocksdb::WriteBatchWithIndex::Rep", ptr %this1, i32 0, i32 7
  %8 = load i64, ptr %last_sub_batch_offset, align 8
  %9 = load ptr, ptr %non_const_entry, align 8
  %offset = getelementptr inbounds %"struct.rocksdb::WriteBatchIndexEntry", ptr %9, i32 0, i32 0
  %10 = load i64, ptr %offset, align 8
  %cmp = icmp ule i64 %8, %10
  br i1 %cmp, label %if.then20, label %if.end22

if.then20:                                        ; preds = %invoke.cont18
  %last_entry_offset = getelementptr inbounds %"struct.rocksdb::WriteBatchWithIndex::Rep", ptr %this1, i32 0, i32 6
  %11 = load i64, ptr %last_entry_offset, align 16
  %last_sub_batch_offset21 = getelementptr inbounds %"struct.rocksdb::WriteBatchWithIndex::Rep", ptr %this1, i32 0, i32 7
  store i64 %11, ptr %last_sub_batch_offset21, align 8
  %sub_batch_cnt = getelementptr inbounds %"struct.rocksdb::WriteBatchWithIndex::Rep", ptr %this1, i32 0, i32 8
  %12 = load i64, ptr %sub_batch_cnt, align 16
  %inc = add i64 %12, 1
  store i64 %inc, ptr %sub_batch_cnt, align 16
  br label %if.end22

if.end22:                                         ; preds = %if.then20, %invoke.cont18
  %13 = load i32, ptr %type.addr, align 4
  %cmp23 = icmp eq i32 %13, 1
  br i1 %cmp23, label %if.then24, label %if.else25

if.then24:                                        ; preds = %if.end22
  store i1 false, ptr %retval, align 1
  store i32 1, ptr %cleanup.dest.slot, align 4
  br label %cleanup

if.else25:                                        ; preds = %if.end22
  %last_entry_offset26 = getelementptr inbounds %"struct.rocksdb::WriteBatchWithIndex::Rep", ptr %this1, i32 0, i32 6
  %14 = load i64, ptr %last_entry_offset26, align 16
  %15 = load ptr, ptr %non_const_entry, align 8
  %offset27 = getelementptr inbounds %"struct.rocksdb::WriteBatchIndexEntry", ptr %15, i32 0, i32 0
  store i64 %14, ptr %offset27, align 8
  store i1 true, ptr %retval, align 1
  store i32 1, ptr %cleanup.dest.slot, align 4
  br label %cleanup

cleanup:                                          ; preds = %if.else25, %if.then24, %if.then6, %if.then3
  call void @_ZN7rocksdb16WBWIIteratorImplD2Ev(ptr noundef nonnull align 8 dereferenceable(65) %iter) #3
  br label %return

return:                                           ; preds = %cleanup, %if.then
  %16 = load i1, ptr %retval, align 1
  ret i1 %16

eh.resume:                                        ; preds = %lpad
  %exn = load ptr, ptr %exn.slot, align 8
  %sel = load i32, ptr %ehselector.slot, align 4
  %lpad.val = insertvalue { ptr, i32 } poison, ptr %exn, 0
  %lpad.val28 = insertvalue { ptr, i32 } %lpad.val, i32 %sel, 1
  resume { ptr, i32 } %lpad.val28
}

; Function Attrs: mustprogress uwtable
define linkonce_odr void @_ZN7rocksdb16WBWIIteratorImplC2EjPNS_8SkipListIPNS_20WriteBatchIndexEntryERKNS_25WriteBatchEntryComparatorEEEPKNS_18ReadableWriteBatchEPS4_PKNS_5SliceESF_(ptr noundef nonnull align 8 dereferenceable(65) %this, i32 noundef %column_family_id, ptr noundef %skip_list, ptr noundef %write_batch, ptr noundef %comparator, ptr noundef %iterate_lower_bound, ptr noundef %iterate_upper_bound) unnamed_addr #0 comdat align 2 personality ptr @__gxx_personality_v0 {
entry:
  %this.addr = alloca ptr, align 8
  %column_family_id.addr = alloca i32, align 4
  %skip_list.addr = alloca ptr, align 8
  %write_batch.addr = alloca ptr, align 8
  %comparator.addr = alloca ptr, align 8
  %iterate_lower_bound.addr = alloca ptr, align 8
  %iterate_upper_bound.addr = alloca ptr, align 8
  %exn.slot = alloca ptr, align 8
  %ehselector.slot = alloca i32, align 4
  store ptr %this, ptr %this.addr, align 8
  store i32 %column_family_id, ptr %column_family_id.addr, align 4
  store ptr %skip_list, ptr %skip_list.addr, align 8
  store ptr %write_batch, ptr %write_batch.addr, align 8
  store ptr %comparator, ptr %comparator.addr, align 8
  store ptr %iterate_lower_bound, ptr %iterate_lower_bound.addr, align 8
  store ptr %iterate_upper_bound, ptr %iterate_upper_bound.addr, align 8
  %this1 = load ptr, ptr %this.addr, align 8
  call void @_ZN7rocksdb12WBWIIteratorC2Ev(ptr noundef nonnull align 8 dereferenceable(8) %this1) #3
  store ptr getelementptr inbounds ({ [13 x ptr] }, ptr @_ZTVN7rocksdb16WBWIIteratorImplE, i32 0, inrange i32 0, i32 2), ptr %this1, align 8
  %column_family_id_ = getelementptr inbounds %"class.rocksdb::WBWIIteratorImpl", ptr %this1, i32 0, i32 1
  %0 = load i32, ptr %column_family_id.addr, align 4
  store i32 %0, ptr %column_family_id_, align 8
  %skip_list_iter_ = getelementptr inbounds %"class.rocksdb::WBWIIteratorImpl", ptr %this1, i32 0, i32 3
  %1 = load ptr, ptr %skip_list.addr, align 8
  invoke void @_ZN7rocksdb8SkipListIPNS_20WriteBatchIndexEntryERKNS_25WriteBatchEntryComparatorEE8IteratorC2EPKS6_(ptr noundef nonnull align 8 dereferenceable(16) %skip_list_iter_, ptr noundef %1)
          to label %invoke.cont unwind label %lpad

invoke.cont:                                      ; preds = %entry
  %write_batch_ = getelementptr inbounds %"class.rocksdb::WBWIIteratorImpl", ptr %this1, i32 0, i32 4
  %2 = load ptr, ptr %write_batch.addr, align 8
  store ptr %2, ptr %write_batch_, align 8
  %comparator_ = getelementptr inbounds %"class.rocksdb::WBWIIteratorImpl", ptr %this1, i32 0, i32 5
  %3 = load ptr, ptr %comparator.addr, align 8
  store ptr %3, ptr %comparator_, align 8
  %iterate_lower_bound_ = getelementptr inbounds %"class.rocksdb::WBWIIteratorImpl", ptr %this1, i32 0, i32 6
  %4 = load ptr, ptr %iterate_lower_bound.addr, align 8
  store ptr %4, ptr %iterate_lower_bound_, align 8
  %iterate_upper_bound_ = getelementptr inbounds %"class.rocksdb::WBWIIteratorImpl", ptr %this1, i32 0, i32 7
  %5 = load ptr, ptr %iterate_upper_bound.addr, align 8
  store ptr %5, ptr %iterate_upper_bound_, align 8
  %out_of_bound_ = getelementptr inbounds %"class.rocksdb::WBWIIteratorImpl", ptr %this1, i32 0, i32 8
  store i8 0, ptr %out_of_bound_, align 8
  ret void

lpad:                                             ; preds = %entry
  %6 = landingpad { ptr, i32 }
          cleanup
  %7 = extractvalue { ptr, i32 } %6, 0
  store ptr %7, ptr %exn.slot, align 8
  %8 = extractvalue { ptr, i32 } %6, 1
  store i32 %8, ptr %ehselector.slot, align 4
  call void @_ZN7rocksdb12WBWIIteratorD2Ev(ptr noundef nonnull align 8 dereferenceable(8) %this1) #3
  br label %eh.resume

eh.resume:                                        ; preds = %lpad
  %exn = load ptr, ptr %exn.slot, align 8
  %sel = load i32, ptr %ehselector.slot, align 4
  %lpad.val = insertvalue { ptr, i32 } poison, ptr %exn, 0
  %lpad.val2 = insertvalue { ptr, i32 } %lpad.val, i32 %sel, 1
  resume { ptr, i32 } %lpad.val2
}

; Function Attrs: mustprogress uwtable
define linkonce_odr void @_ZN7rocksdb16WBWIIteratorImpl4SeekERKNS_5SliceE(ptr noundef nonnull align 8 dereferenceable(65) %this, ptr noundef nonnull align 8 dereferenceable(16) %key) unnamed_addr #0 comdat align 2 {
entry:
  %this.addr = alloca ptr, align 8
  %key.addr = alloca ptr, align 8
  %search_entry = alloca %"struct.rocksdb::WriteBatchIndexEntry", align 8
  %ref.tmp = alloca ptr, align 8
  store ptr %this, ptr %this.addr, align 8
  store ptr %key, ptr %key.addr, align 8
  %this1 = load ptr, ptr %this.addr, align 8
  %0 = load ptr, ptr %key.addr, align 8
  %call = call noundef zeroext i1 @_ZNK7rocksdb16WBWIIteratorImpl16BeforeLowerBoundEPKNS_5SliceE(ptr noundef nonnull align 8 dereferenceable(65) %this1, ptr noundef %0)
  br i1 %call, label %if.then, label %if.end

if.then:                                          ; preds = %entry
  %vtable = load ptr, ptr %this1, align 8
  %vfn = getelementptr inbounds ptr, ptr %vtable, i64 3
  %1 = load ptr, ptr %vfn, align 8
  call void %1(ptr noundef nonnull align 8 dereferenceable(65) %this1)
  br label %if.end5

if.end:                                           ; preds = %entry
  %2 = load ptr, ptr %key.addr, align 8
  %column_family_id_ = getelementptr inbounds %"class.rocksdb::WBWIIteratorImpl", ptr %this1, i32 0, i32 1
  %3 = load i32, ptr %column_family_id_, align 8
  call void @_ZN7rocksdb20WriteBatchIndexEntryC2EPKNS_5SliceEjbb(ptr noundef nonnull align 8 dereferenceable(40) %search_entry, ptr noundef %2, i32 noundef %3, i1 noundef zeroext true, i1 noundef zeroext false)
  %skip_list_iter_ = getelementptr inbounds %"class.rocksdb::WBWIIteratorImpl", ptr %this1, i32 0, i32 3
  store ptr %search_entry, ptr %ref.tmp, align 8
  call void @_ZN7rocksdb8SkipListIPNS_20WriteBatchIndexEntryERKNS_25WriteBatchEntryComparatorEE8Iterator4SeekERKS2_(ptr noundef nonnull align 8 dereferenceable(16) %skip_list_iter_, ptr noundef nonnull align 8 dereferenceable(8) %ref.tmp)
  %call2 = call noundef zeroext i1 @_ZNK7rocksdb16WBWIIteratorImpl27ValidRegardlessOfBoundLimitEv(ptr noundef nonnull align 8 dereferenceable(65) %this1)
  br i1 %call2, label %if.then3, label %if.end5

if.then3:                                         ; preds = %if.end
  %call4 = call noundef zeroext i1 @_ZNK7rocksdb16WBWIIteratorImpl14TestOutOfBoundEv(ptr noundef nonnull align 8 dereferenceable(65) %this1)
  %out_of_bound_ = getelementptr inbounds %"class.rocksdb::WBWIIteratorImpl", ptr %this1, i32 0, i32 8
  %frombool = zext i1 %call4 to i8
  store i8 %frombool, ptr %out_of_bound_, align 8
  br label %if.end5

if.end5:                                          ; preds = %if.then3, %if.end, %if.then
  ret void
}

declare i32 @__gxx_personality_v0(...)

; Function Attrs: mustprogress uwtable
define linkonce_odr noundef zeroext i1 @_ZNK7rocksdb16WBWIIteratorImpl5ValidEv(ptr noundef nonnull align 8 dereferenceable(65) %this) unnamed_addr #0 comdat align 2 {
entry:
  %this.addr = alloca ptr, align 8
  store ptr %this, ptr %this.addr, align 8
  %this1 = load ptr, ptr %this.addr, align 8
  %out_of_bound_ = getelementptr inbounds %"class.rocksdb::WBWIIteratorImpl", ptr %this1, i32 0, i32 8
  %0 = load i8, ptr %out_of_bound_, align 8
  %tobool = trunc i8 %0 to i1
  br i1 %tobool, label %land.end, label %land.rhs

land.rhs:                                         ; preds = %entry
  %call = call noundef zeroext i1 @_ZNK7rocksdb16WBWIIteratorImpl27ValidRegardlessOfBoundLimitEv(ptr noundef nonnull align 8 dereferenceable(65) %this1)
  br label %land.end

land.end:                                         ; preds = %land.rhs, %entry
  %1 = phi i1 [ false, %entry ], [ %call, %land.rhs ]
  ret i1 %1
}

declare noundef zeroext i1 @_ZN7rocksdb16WBWIIteratorImpl10MatchesKeyEjRKNS_5SliceE(ptr noundef nonnull align 8 dereferenceable(65), i32 noundef, ptr noundef nonnull align 8 dereferenceable(16)) #4

declare void @_ZN7rocksdb16WBWIIteratorImpl7NextKeyEv(ptr noundef nonnull align 8 dereferenceable(65)) #4

; Function Attrs: mustprogress uwtable
define linkonce_odr void @_ZN7rocksdb16WBWIIteratorImpl4PrevEv(ptr noundef nonnull align 8 dereferenceable(65) %this) unnamed_addr #0 comdat align 2 {
entry:
  %this.addr = alloca ptr, align 8
  store ptr %this, ptr %this.addr, align 8
  %this1 = load ptr, ptr %this.addr, align 8
  %skip_list_iter_ = getelementptr inbounds %"class.rocksdb::WBWIIteratorImpl", ptr %this1, i32 0, i32 3
  call void @_ZN7rocksdb8SkipListIPNS_20WriteBatchIndexEntryERKNS_25WriteBatchEntryComparatorEE8Iterator4PrevEv(ptr noundef nonnull align 8 dereferenceable(16) %skip_list_iter_)
  %call = call noundef zeroext i1 @_ZNK7rocksdb16WBWIIteratorImpl27ValidRegardlessOfBoundLimitEv(ptr noundef nonnull align 8 dereferenceable(65) %this1)
  br i1 %call, label %if.then, label %if.end

if.then:                                          ; preds = %entry
  %call2 = call noundef zeroext i1 @_ZNK7rocksdb16WBWIIteratorImpl14TestOutOfBoundEv(ptr noundef nonnull align 8 dereferenceable(65) %this1)
  %out_of_bound_ = getelementptr inbounds %"class.rocksdb::WBWIIteratorImpl", ptr %this1, i32 0, i32 8
  %frombool = zext i1 %call2 to i8
  store i8 %frombool, ptr %out_of_bound_, align 8
  br label %if.end

if.end:                                           ; preds = %if.then, %entry
  ret void
}

; Function Attrs: mustprogress uwtable
define linkonce_odr void @_ZN7rocksdb16WBWIIteratorImpl10SeekToLastEv(ptr noundef nonnull align 8 dereferenceable(65) %this) unnamed_addr #0 comdat align 2 {
entry:
  %this.addr = alloca ptr, align 8
  %search_entry = alloca %"struct.rocksdb::WriteBatchIndexEntry", align 8
  %ref.tmp = alloca ptr, align 8
  store ptr %this, ptr %this.addr, align 8
  %this1 = load ptr, ptr %this.addr, align 8
  %iterate_upper_bound_ = getelementptr inbounds %"class.rocksdb::WBWIIteratorImpl", ptr %this1, i32 0, i32 7
  %0 = load ptr, ptr %iterate_upper_bound_, align 8
  %cmp = icmp ne ptr %0, null
  br i1 %cmp, label %cond.true, label %cond.false

cond.true:                                        ; preds = %entry
  %iterate_upper_bound_2 = getelementptr inbounds %"class.rocksdb::WBWIIteratorImpl", ptr %this1, i32 0, i32 7
  %1 = load ptr, ptr %iterate_upper_bound_2, align 8
  %column_family_id_ = getelementptr inbounds %"class.rocksdb::WBWIIteratorImpl", ptr %this1, i32 0, i32 1
  %2 = load i32, ptr %column_family_id_, align 8
  call void @_ZN7rocksdb20WriteBatchIndexEntryC2EPKNS_5SliceEjbb(ptr noundef nonnull align 8 dereferenceable(40) %search_entry, ptr noundef %1, i32 noundef %2, i1 noundef zeroext true, i1 noundef zeroext false)
  br label %cond.end

cond.false:                                       ; preds = %entry
  %column_family_id_3 = getelementptr inbounds %"class.rocksdb::WBWIIteratorImpl", ptr %this1, i32 0, i32 1
  %3 = load i32, ptr %column_family_id_3, align 8
  %add = add i32 %3, 1
  call void @_ZN7rocksdb20WriteBatchIndexEntryC2EPKNS_5SliceEjbb(ptr noundef nonnull align 8 dereferenceable(40) %search_entry, ptr noundef null, i32 noundef %add, i1 noundef zeroext true, i1 noundef zeroext true)
  br label %cond.end

cond.end:                                         ; preds = %cond.false, %cond.true
  %skip_list_iter_ = getelementptr inbounds %"class.rocksdb::WBWIIteratorImpl", ptr %this1, i32 0, i32 3
  store ptr %search_entry, ptr %ref.tmp, align 8
  call void @_ZN7rocksdb8SkipListIPNS_20WriteBatchIndexEntryERKNS_25WriteBatchEntryComparatorEE8Iterator4SeekERKS2_(ptr noundef nonnull align 8 dereferenceable(16) %skip_list_iter_, ptr noundef nonnull align 8 dereferenceable(8) %ref.tmp)
  %skip_list_iter_4 = getelementptr inbounds %"class.rocksdb::WBWIIteratorImpl", ptr %this1, i32 0, i32 3
  %call = call noundef zeroext i1 @_ZNK7rocksdb8SkipListIPNS_20WriteBatchIndexEntryERKNS_25WriteBatchEntryComparatorEE8Iterator5ValidEv(ptr noundef nonnull align 8 dereferenceable(16) %skip_list_iter_4)
  br i1 %call, label %if.else, label %if.then

if.then:                                          ; preds = %cond.end
  %skip_list_iter_5 = getelementptr inbounds %"class.rocksdb::WBWIIteratorImpl", ptr %this1, i32 0, i32 3
  call void @_ZN7rocksdb8SkipListIPNS_20WriteBatchIndexEntryERKNS_25WriteBatchEntryComparatorEE8Iterator10SeekToLastEv(ptr noundef nonnull align 8 dereferenceable(16) %skip_list_iter_5)
  br label %if.end

if.else:                                          ; preds = %cond.end
  %skip_list_iter_6 = getelementptr inbounds %"class.rocksdb::WBWIIteratorImpl", ptr %this1, i32 0, i32 3
  call void @_ZN7rocksdb8SkipListIPNS_20WriteBatchIndexEntryERKNS_25WriteBatchEntryComparatorEE8Iterator4PrevEv(ptr noundef nonnull align 8 dereferenceable(16) %skip_list_iter_6)
  br label %if.end

if.end:                                           ; preds = %if.else, %if.then
  %call7 = call noundef zeroext i1 @_ZNK7rocksdb16WBWIIteratorImpl27ValidRegardlessOfBoundLimitEv(ptr noundef nonnull align 8 dereferenceable(65) %this1)
  br i1 %call7, label %if.then8, label %if.end10

if.then8:                                         ; preds = %if.end
  %call9 = call noundef zeroext i1 @_ZNK7rocksdb16WBWIIteratorImpl14TestOutOfBoundEv(ptr noundef nonnull align 8 dereferenceable(65) %this1)
  %out_of_bound_ = getelementptr inbounds %"class.rocksdb::WBWIIteratorImpl", ptr %this1, i32 0, i32 8
  %frombool = zext i1 %call9 to i8
  store i8 %frombool, ptr %out_of_bound_, align 8
  br label %if.end10

if.end10:                                         ; preds = %if.then8, %if.end
  ret void
}

; Function Attrs: mustprogress nounwind uwtable
define linkonce_odr noundef ptr @_ZNK7rocksdb16WBWIIteratorImpl11GetRawEntryEv(ptr noundef nonnull align 8 dereferenceable(65) %this) #1 comdat align 2 {
entry:
  %this.addr = alloca ptr, align 8
  store ptr %this, ptr %this.addr, align 8
  %this1 = load ptr, ptr %this.addr, align 8
  %skip_list_iter_ = getelementptr inbounds %"class.rocksdb::WBWIIteratorImpl", ptr %this1, i32 0, i32 3
  %call = call noundef nonnull align 8 dereferenceable(8) ptr @_ZNK7rocksdb8SkipListIPNS_20WriteBatchIndexEntryERKNS_25WriteBatchEntryComparatorEE8Iterator3keyEv(ptr noundef nonnull align 8 dereferenceable(16) %skip_list_iter_)
  %0 = load ptr, ptr %call, align 8
  ret ptr %0
}

; Function Attrs: mustprogress nounwind uwtable
define linkonce_odr void @_ZN7rocksdb16WBWIIteratorImplD2Ev(ptr noundef nonnull align 8 dereferenceable(65) %this) unnamed_addr #1 comdat align 2 {
entry:
  %this.addr = alloca ptr, align 8
  store ptr %this, ptr %this.addr, align 8
  %this1 = load ptr, ptr %this.addr, align 8
  call void @_ZN7rocksdb12WBWIIteratorD2Ev(ptr noundef nonnull align 8 dereferenceable(8) %this1) #3
  ret void
}

; Function Attrs: mustprogress uwtable
define void @_ZN7rocksdb19WriteBatchWithIndex3Rep16AddOrUpdateIndexEPNS_18ColumnFamilyHandleERKNS_5SliceENS_9WriteTypeE(ptr noundef nonnull align 16 dereferenceable(2520) %this, ptr noundef %column_family, ptr noundef nonnull align 8 dereferenceable(16) %key, i32 noundef %type) #0 align 2 {
entry:
  %this.addr = alloca ptr, align 8
  %column_family.addr = alloca ptr, align 8
  %key.addr = alloca ptr, align 8
  %type.addr = alloca i32, align 4
  %cf_id = alloca i32, align 4
  %cf_cmp = alloca ptr, align 8
  store ptr %this, ptr %this.addr, align 8
  store ptr %column_family, ptr %column_family.addr, align 8
  store ptr %key, ptr %key.addr, align 8
  store i32 %type, ptr %type.addr, align 4
  %this1 = load ptr, ptr %this.addr, align 8
  %0 = load ptr, ptr %column_family.addr, align 8
  %1 = load ptr, ptr %key.addr, align 8
  %2 = load i32, ptr %type.addr, align 4
  %call = call noundef zeroext i1 @_ZN7rocksdb19WriteBatchWithIndex3Rep19UpdateExistingEntryEPNS_18ColumnFamilyHandleERKNS_5SliceENS_9WriteTypeE(ptr noundef nonnull align 16 dereferenceable(2520) %this1, ptr noundef %0, ptr noundef nonnull align 8 dereferenceable(16) %1, i32 noundef %2)
  br i1 %call, label %if.end5, label %if.then

if.then:                                          ; preds = %entry
  %3 = load ptr, ptr %column_family.addr, align 8
  %call2 = call noundef i32 @_ZN7rocksdb17GetColumnFamilyIDEPNS_18ColumnFamilyHandleE(ptr noundef %3)
  store i32 %call2, ptr %cf_id, align 4
  %4 = load ptr, ptr %column_family.addr, align 8
  %call3 = call noundef ptr @_ZN7rocksdb29GetColumnFamilyUserComparatorEPNS_18ColumnFamilyHandleE(ptr noundef %4)
  store ptr %call3, ptr %cf_cmp, align 8
  %5 = load ptr, ptr %cf_cmp, align 8
  %cmp = icmp ne ptr %5, null
  br i1 %cmp, label %if.then4, label %if.end

if.then4:                                         ; preds = %if.then
  %comparator = getelementptr inbounds %"struct.rocksdb::WriteBatchWithIndex::Rep", ptr %this1, i32 0, i32 1
  %6 = load i32, ptr %cf_id, align 4
  %7 = load ptr, ptr %cf_cmp, align 8
  call void @_ZN7rocksdb25WriteBatchEntryComparator18SetComparatorForCFEjPKNS_10ComparatorE(ptr noundef nonnull align 8 dereferenceable(40) %comparator, i32 noundef %6, ptr noundef %7)
  br label %if.end

if.end:                                           ; preds = %if.then4, %if.then
  %8 = load i32, ptr %cf_id, align 4
  call void @_ZN7rocksdb19WriteBatchWithIndex3Rep11AddNewEntryEj(ptr noundef nonnull align 16 dereferenceable(2520) %this1, i32 noundef %8)
  br label %if.end5

if.end5:                                          ; preds = %if.end, %entry
  ret void
}

declare noundef ptr @_ZN7rocksdb29GetColumnFamilyUserComparatorEPNS_18ColumnFamilyHandleE(ptr noundef) #4

; Function Attrs: mustprogress uwtable
define linkonce_odr void @_ZN7rocksdb25WriteBatchEntryComparator18SetComparatorForCFEjPKNS_10ComparatorE(ptr noundef nonnull align 8 dereferenceable(40) %this, i32 noundef %column_family_id, ptr noundef %comparator) #0 comdat align 2 {
entry:
  %this.addr = alloca ptr, align 8
  %column_family_id.addr = alloca i32, align 4
  %comparator.addr = alloca ptr, align 8
  %ref.tmp = alloca ptr, align 8
  store ptr %this, ptr %this.addr, align 8
  store i32 %column_family_id, ptr %column_family_id.addr, align 4
  store ptr %comparator, ptr %comparator.addr, align 8
  %this1 = load ptr, ptr %this.addr, align 8
  %0 = load i32, ptr %column_family_id.addr, align 4
  %conv = zext i32 %0 to i64
  %cf_comparators_ = getelementptr inbounds %"class.rocksdb::WriteBatchEntryComparator", ptr %this1, i32 0, i32 1
  %call = call noundef i64 @_ZNKSt6vectorIPKN7rocksdb10ComparatorESaIS3_EE4sizeEv(ptr noundef nonnull align 8 dereferenceable(24) %cf_comparators_) #3
  %cmp = icmp uge i64 %conv, %call
  br i1 %cmp, label %if.then, label %if.end

if.then:                                          ; preds = %entry
  %cf_comparators_2 = getelementptr inbounds %"class.rocksdb::WriteBatchEntryComparator", ptr %this1, i32 0, i32 1
  %1 = load i32, ptr %column_family_id.addr, align 4
  %add = add i32 %1, 1
  %conv3 = zext i32 %add to i64
  store ptr null, ptr %ref.tmp, align 8
  call void @_ZNSt6vectorIPKN7rocksdb10ComparatorESaIS3_EE6resizeEmRKS3_(ptr noundef nonnull align 8 dereferenceable(24) %cf_comparators_2, i64 noundef %conv3, ptr noundef nonnull align 8 dereferenceable(8) %ref.tmp)
  br label %if.end

if.end:                                           ; preds = %if.then, %entry
  %2 = load ptr, ptr %comparator.addr, align 8
  %cf_comparators_4 = getelementptr inbounds %"class.rocksdb::WriteBatchEntryComparator", ptr %this1, i32 0, i32 1
  %3 = load i32, ptr %column_family_id.addr, align 4
  %conv5 = zext i32 %3 to i64
  %call6 = call noundef nonnull align 8 dereferenceable(8) ptr @_ZNSt6vectorIPKN7rocksdb10ComparatorESaIS3_EEixEm(ptr noundef nonnull align 8 dereferenceable(24) %cf_comparators_4, i64 noundef %conv5) #3
  store ptr %2, ptr %call6, align 8
  ret void
}

; Function Attrs: mustprogress uwtable
define void @_ZN7rocksdb19WriteBatchWithIndex3Rep11AddNewEntryEj(ptr noundef nonnull align 16 dereferenceable(2520) %this, i32 noundef %column_family_id) #0 align 2 {
entry:
  %this.addr = alloca ptr, align 8
  %column_family_id.addr = alloca i32, align 4
  %wb_data = alloca ptr, align 8
  %entry_ptr = alloca %"class.rocksdb::Slice", align 8
  %key = alloca %"class.rocksdb::Slice", align 8
  %success = alloca i8, align 1
  %ucmp = alloca ptr, align 8
  %ts_sz = alloca i64, align 8
  %mem = alloca ptr, align 8
  %index_entry = alloca ptr, align 8
  store ptr %this, ptr %this.addr, align 8
  store i32 %column_family_id, ptr %column_family_id.addr, align 4
  %this1 = load ptr, ptr %this.addr, align 8
  %write_batch = getelementptr inbounds %"struct.rocksdb::WriteBatchWithIndex::Rep", ptr %this1, i32 0, i32 0
  %call = call noundef nonnull align 8 dereferenceable(32) ptr @_ZNK7rocksdb10WriteBatch4DataB5cxx11Ev(ptr noundef nonnull align 8 dereferenceable(96) %write_batch)
  store ptr %call, ptr %wb_data, align 8
  %0 = load ptr, ptr %wb_data, align 8
  %call2 = call noundef ptr @_ZNKSt7__cxx1112basic_stringIcSt11char_traitsIcESaIcEE4dataEv(ptr noundef nonnull align 8 dereferenceable(32) %0) #3
  %last_entry_offset = getelementptr inbounds %"struct.rocksdb::WriteBatchWithIndex::Rep", ptr %this1, i32 0, i32 6
  %1 = load i64, ptr %last_entry_offset, align 16
  %add.ptr = getelementptr inbounds i8, ptr %call2, i64 %1
  %2 = load ptr, ptr %wb_data, align 8
  %call3 = call noundef i64 @_ZNKSt7__cxx1112basic_stringIcSt11char_traitsIcESaIcEE4sizeEv(ptr noundef nonnull align 8 dereferenceable(32) %2) #3
  %last_entry_offset4 = getelementptr inbounds %"struct.rocksdb::WriteBatchWithIndex::Rep", ptr %this1, i32 0, i32 6
  %3 = load i64, ptr %last_entry_offset4, align 16
  %sub = sub i64 %call3, %3
  call void @_ZN7rocksdb5SliceC2EPKcm(ptr noundef nonnull align 8 dereferenceable(16) %entry_ptr, ptr noundef %add.ptr, i64 noundef %sub)
  call void @_ZN7rocksdb5SliceC2Ev(ptr noundef nonnull align 8 dereferenceable(16) %key)
  %4 = load i32, ptr %column_family_id.addr, align 4
  %cmp = icmp ne i32 %4, 0
  %call5 = call noundef zeroext i1 @_ZN7rocksdb26ReadKeyFromWriteBatchEntryEPNS_5SliceES1_b(ptr noundef %entry_ptr, ptr noundef %key, i1 noundef zeroext %cmp)
  %frombool = zext i1 %call5 to i8
  store i8 %frombool, ptr %success, align 1
  %comparator = getelementptr inbounds %"struct.rocksdb::WriteBatchWithIndex::Rep", ptr %this1, i32 0, i32 1
  %5 = load i32, ptr %column_family_id.addr, align 4
  %call6 = call noundef ptr @_ZNK7rocksdb25WriteBatchEntryComparator13GetComparatorEj(ptr noundef nonnull align 8 dereferenceable(40) %comparator, i32 noundef %5)
  store ptr %call6, ptr %ucmp, align 8
  %6 = load ptr, ptr %ucmp, align 8
  %tobool = icmp ne ptr %6, null
  br i1 %tobool, label %cond.true, label %cond.false

cond.true:                                        ; preds = %entry
  %7 = load ptr, ptr %ucmp, align 8
  %call7 = call noundef i64 @_ZNK7rocksdb10Comparator14timestamp_sizeEv(ptr noundef nonnull align 8 dereferenceable(48) %7)
  br label %cond.end

cond.false:                                       ; preds = %entry
  br label %cond.end

cond.end:                                         ; preds = %cond.false, %cond.true
  %cond = phi i64 [ %call7, %cond.true ], [ 0, %cond.false ]
  store i64 %cond, ptr %ts_sz, align 8
  %8 = load i64, ptr %ts_sz, align 8
  %cmp8 = icmp ugt i64 %8, 0
  br i1 %cmp8, label %if.then, label %if.end

if.then:                                          ; preds = %cond.end
  %9 = load i64, ptr %ts_sz, align 8
  call void @_ZN7rocksdb5Slice13remove_suffixEm(ptr noundef nonnull align 8 dereferenceable(16) %key, i64 noundef %9)
  br label %if.end

if.end:                                           ; preds = %if.then, %cond.end
  %arena = getelementptr inbounds %"struct.rocksdb::WriteBatchWithIndex::Rep", ptr %this1, i32 0, i32 3
  %call9 = call noundef ptr @_ZN7rocksdb5Arena8AllocateEm(ptr noundef nonnull align 16 dereferenceable(2288) %arena, i64 noundef 40)
  store ptr %call9, ptr %mem, align 8
  %10 = load ptr, ptr %mem, align 8
  %last_entry_offset10 = getelementptr inbounds %"struct.rocksdb::WriteBatchWithIndex::Rep", ptr %this1, i32 0, i32 6
  %11 = load i64, ptr %last_entry_offset10, align 16
  %12 = load i32, ptr %column_family_id.addr, align 4
  %call11 = call noundef ptr @_ZNK7rocksdb5Slice4dataEv(ptr noundef nonnull align 8 dereferenceable(16) %key)
  %13 = load ptr, ptr %wb_data, align 8
  %call12 = call noundef ptr @_ZNKSt7__cxx1112basic_stringIcSt11char_traitsIcESaIcEE4dataEv(ptr noundef nonnull align 8 dereferenceable(32) %13) #3
  %sub.ptr.lhs.cast = ptrtoint ptr %call11 to i64
  %sub.ptr.rhs.cast = ptrtoint ptr %call12 to i64
  %sub.ptr.sub = sub i64 %sub.ptr.lhs.cast, %sub.ptr.rhs.cast
  %call13 = call noundef i64 @_ZNK7rocksdb5Slice4sizeEv(ptr noundef nonnull align 8 dereferenceable(16) %key)
  call void @_ZN7rocksdb20WriteBatchIndexEntryC2Emjmm(ptr noundef nonnull align 8 dereferenceable(40) %10, i64 noundef %11, i32 noundef %12, i64 noundef %sub.ptr.sub, i64 noundef %call13)
  store ptr %10, ptr %index_entry, align 8
  %skip_list = getelementptr inbounds %"struct.rocksdb::WriteBatchWithIndex::Rep", ptr %this1, i32 0, i32 4
  call void @_ZN7rocksdb8SkipListIPNS_20WriteBatchIndexEntryERKNS_25WriteBatchEntryComparatorEE6InsertERKS2_(ptr noundef nonnull align 8 dereferenceable(52) %skip_list, ptr noundef nonnull align 8 dereferenceable(8) %index_entry)
  ret void
}

; Function Attrs: mustprogress uwtable
define void @_ZN7rocksdb19WriteBatchWithIndex3Rep16AddOrUpdateIndexERKNS_5SliceENS_9WriteTypeE(ptr noundef nonnull align 16 dereferenceable(2520) %this, ptr noundef nonnull align 8 dereferenceable(16) %key, i32 noundef %type) #0 align 2 {
entry:
  %this.addr = alloca ptr, align 8
  %key.addr = alloca ptr, align 8
  %type.addr = alloca i32, align 4
  store ptr %this, ptr %this.addr, align 8
  store ptr %key, ptr %key.addr, align 8
  store i32 %type, ptr %type.addr, align 4
  %this1 = load ptr, ptr %this.addr, align 8
  %0 = load ptr, ptr %key.addr, align 8
  %1 = load i32, ptr %type.addr, align 4
  %call = call noundef zeroext i1 @_ZN7rocksdb19WriteBatchWithIndex3Rep27UpdateExistingEntryWithCfIdEjRKNS_5SliceENS_9WriteTypeE(ptr noundef nonnull align 16 dereferenceable(2520) %this1, i32 noundef 0, ptr noundef nonnull align 8 dereferenceable(16) %0, i32 noundef %1)
  br i1 %call, label %if.end, label %if.then

if.then:                                          ; preds = %entry
  call void @_ZN7rocksdb19WriteBatchWithIndex3Rep11AddNewEntryEj(ptr noundef nonnull align 16 dereferenceable(2520) %this1, i32 noundef 0)
  br label %if.end

if.end:                                           ; preds = %if.then, %entry
  ret void
}

; Function Attrs: mustprogress nounwind uwtable
define linkonce_odr noundef nonnull align 8 dereferenceable(32) ptr @_ZNK7rocksdb10WriteBatch4DataB5cxx11Ev(ptr noundef nonnull align 8 dereferenceable(96) %this) #1 comdat align 2 {
entry:
  %this.addr = alloca ptr, align 8
  store ptr %this, ptr %this.addr, align 8
  %this1 = load ptr, ptr %this.addr, align 8
  %rep_ = getelementptr inbounds %"class.rocksdb::WriteBatch", ptr %this1, i32 0, i32 10
  ret ptr %rep_
}

; Function Attrs: nounwind
declare noundef ptr @_ZNKSt7__cxx1112basic_stringIcSt11char_traitsIcESaIcEE4dataEv(ptr noundef nonnull align 8 dereferenceable(32)) #5

; Function Attrs: nounwind
declare noundef i64 @_ZNKSt7__cxx1112basic_stringIcSt11char_traitsIcESaIcEE4sizeEv(ptr noundef nonnull align 8 dereferenceable(32)) #5

; Function Attrs: mustprogress nounwind uwtable
define linkonce_odr void @_ZN7rocksdb5SliceC2EPKcm(ptr noundef nonnull align 8 dereferenceable(16) %this, ptr noundef %d, i64 noundef %n) unnamed_addr #1 comdat align 2 {
entry:
  %this.addr = alloca ptr, align 8
  %d.addr = alloca ptr, align 8
  %n.addr = alloca i64, align 8
  store ptr %this, ptr %this.addr, align 8
  store ptr %d, ptr %d.addr, align 8
  store i64 %n, ptr %n.addr, align 8
  %this1 = load ptr, ptr %this.addr, align 8
  %data_ = getelementptr inbounds %"class.rocksdb::Slice", ptr %this1, i32 0, i32 0
  %0 = load ptr, ptr %d.addr, align 8
  store ptr %0, ptr %data_, align 8
  %size_ = getelementptr inbounds %"class.rocksdb::Slice", ptr %this1, i32 0, i32 1
  %1 = load i64, ptr %n.addr, align 8
  store i64 %1, ptr %size_, align 8
  ret void
}

; Function Attrs: mustprogress nounwind uwtable
define linkonce_odr void @_ZN7rocksdb5SliceC2Ev(ptr noundef nonnull align 8 dereferenceable(16) %this) unnamed_addr #1 comdat align 2 {
entry:
  %this.addr = alloca ptr, align 8
  store ptr %this, ptr %this.addr, align 8
  %this1 = load ptr, ptr %this.addr, align 8
  %data_ = getelementptr inbounds %"class.rocksdb::Slice", ptr %this1, i32 0, i32 0
  store ptr @.str.5, ptr %data_, align 8
  %size_ = getelementptr inbounds %"class.rocksdb::Slice", ptr %this1, i32 0, i32 1
  store i64 0, ptr %size_, align 8
  ret void
}

declare noundef zeroext i1 @_ZN7rocksdb26ReadKeyFromWriteBatchEntryEPNS_5SliceES1_b(ptr noundef, ptr noundef, i1 noundef zeroext) #4

declare noundef ptr @_ZNK7rocksdb25WriteBatchEntryComparator13GetComparatorEj(ptr noundef nonnull align 8 dereferenceable(40), i32 noundef) #4

; Function Attrs: mustprogress nounwind uwtable
define linkonce_odr noundef i64 @_ZNK7rocksdb10Comparator14timestamp_sizeEv(ptr noundef nonnull align 8 dereferenceable(48) %this) #1 comdat align 2 {
entry:
  %this.addr = alloca ptr, align 8
  store ptr %this, ptr %this.addr, align 8
  %this1 = load ptr, ptr %this.addr, align 8
  %timestamp_size_ = getelementptr inbounds %"class.rocksdb::Comparator", ptr %this1, i32 0, i32 2
  %0 = load i64, ptr %timestamp_size_, align 8
  ret i64 %0
}

; Function Attrs: mustprogress nounwind uwtable
define linkonce_odr void @_ZN7rocksdb5Slice13remove_suffixEm(ptr noundef nonnull align 8 dereferenceable(16) %this, i64 noundef %n) #1 comdat align 2 {
entry:
  %this.addr = alloca ptr, align 8
  %n.addr = alloca i64, align 8
  store ptr %this, ptr %this.addr, align 8
  store i64 %n, ptr %n.addr, align 8
  %this1 = load ptr, ptr %this.addr, align 8
  %0 = load i64, ptr %n.addr, align 8
  %size_ = getelementptr inbounds %"class.rocksdb::Slice", ptr %this1, i32 0, i32 1
  %1 = load i64, ptr %size_, align 8
  %sub = sub i64 %1, %0
  store i64 %sub, ptr %size_, align 8
  ret void
}

; Function Attrs: mustprogress uwtable
define linkonce_odr noundef ptr @_ZN7rocksdb5Arena8AllocateEm(ptr noundef nonnull align 16 dereferenceable(2288) %this, i64 noundef %bytes) unnamed_addr #0 comdat align 2 {
entry:
  %retval = alloca ptr, align 8
  %this.addr = alloca ptr, align 8
  %bytes.addr = alloca i64, align 8
  store ptr %this, ptr %this.addr, align 8
  store i64 %bytes, ptr %bytes.addr, align 8
  %this1 = load ptr, ptr %this.addr, align 8
  %0 = load i64, ptr %bytes.addr, align 8
  %alloc_bytes_remaining_ = getelementptr inbounds %"class.rocksdb::Arena", ptr %this1, i32 0, i32 9
  %1 = load i64, ptr %alloc_bytes_remaining_, align 16
  %cmp = icmp ule i64 %0, %1
  br i1 %cmp, label %if.then, label %if.end

if.then:                                          ; preds = %entry
  %2 = load i64, ptr %bytes.addr, align 8
  %unaligned_alloc_ptr_ = getelementptr inbounds %"class.rocksdb::Arena", ptr %this1, i32 0, i32 7
  %3 = load ptr, ptr %unaligned_alloc_ptr_, align 16
  %idx.neg = sub i64 0, %2
  %add.ptr = getelementptr inbounds i8, ptr %3, i64 %idx.neg
  store ptr %add.ptr, ptr %unaligned_alloc_ptr_, align 16
  %4 = load i64, ptr %bytes.addr, align 8
  %alloc_bytes_remaining_2 = getelementptr inbounds %"class.rocksdb::Arena", ptr %this1, i32 0, i32 9
  %5 = load i64, ptr %alloc_bytes_remaining_2, align 16
  %sub = sub i64 %5, %4
  store i64 %sub, ptr %alloc_bytes_remaining_2, align 16
  %unaligned_alloc_ptr_3 = getelementptr inbounds %"class.rocksdb::Arena", ptr %this1, i32 0, i32 7
  %6 = load ptr, ptr %unaligned_alloc_ptr_3, align 16
  store ptr %6, ptr %retval, align 8
  br label %return

if.end:                                           ; preds = %entry
  %7 = load i64, ptr %bytes.addr, align 8
  %call = call noundef ptr @_ZN7rocksdb5Arena16AllocateFallbackEmb(ptr noundef nonnull align 16 dereferenceable(2288) %this1, i64 noundef %7, i1 noundef zeroext false)
  store ptr %call, ptr %retval, align 8
  br label %return

return:                                           ; preds = %if.end, %if.then
  %8 = load ptr, ptr %retval, align 8
  ret ptr %8
}

; Function Attrs: mustprogress nounwind uwtable
define linkonce_odr void @_ZN7rocksdb20WriteBatchIndexEntryC2Emjmm(ptr noundef nonnull align 8 dereferenceable(40) %this, i64 noundef %o, i32 noundef %c, i64 noundef %ko, i64 noundef %ksz) unnamed_addr #1 comdat align 2 {
entry:
  %this.addr = alloca ptr, align 8
  %o.addr = alloca i64, align 8
  %c.addr = alloca i32, align 4
  %ko.addr = alloca i64, align 8
  %ksz.addr = alloca i64, align 8
  store ptr %this, ptr %this.addr, align 8
  store i64 %o, ptr %o.addr, align 8
  store i32 %c, ptr %c.addr, align 4
  store i64 %ko, ptr %ko.addr, align 8
  store i64 %ksz, ptr %ksz.addr, align 8
  %this1 = load ptr, ptr %this.addr, align 8
  %offset = getelementptr inbounds %"struct.rocksdb::WriteBatchIndexEntry", ptr %this1, i32 0, i32 0
  %0 = load i64, ptr %o.addr, align 8
  store i64 %0, ptr %offset, align 8
  %column_family = getelementptr inbounds %"struct.rocksdb::WriteBatchIndexEntry", ptr %this1, i32 0, i32 1
  %1 = load i32, ptr %c.addr, align 4
  store i32 %1, ptr %column_family, align 8
  %key_offset = getelementptr inbounds %"struct.rocksdb::WriteBatchIndexEntry", ptr %this1, i32 0, i32 2
  %2 = load i64, ptr %ko.addr, align 8
  store i64 %2, ptr %key_offset, align 8
  %key_size = getelementptr inbounds %"struct.rocksdb::WriteBatchIndexEntry", ptr %this1, i32 0, i32 3
  %3 = load i64, ptr %ksz.addr, align 8
  store i64 %3, ptr %key_size, align 8
  %search_key = getelementptr inbounds %"struct.rocksdb::WriteBatchIndexEntry", ptr %this1, i32 0, i32 4
  store ptr null, ptr %search_key, align 8
  ret void
}

; Function Attrs: mustprogress uwtable
define linkonce_odr void @_ZN7rocksdb8SkipListIPNS_20WriteBatchIndexEntryERKNS_25WriteBatchEntryComparatorEE6InsertERKS2_(ptr noundef nonnull align 8 dereferenceable(52) %this, ptr noundef nonnull align 8 dereferenceable(8) %key) #0 comdat align 2 {
entry:
  %this.addr.i = alloca ptr, align 8
  %__i.addr.i = alloca i32, align 4
  %__m.addr.i = alloca i32, align 4
  %__b.i = alloca i32, align 4
  %.atomictmp.i = alloca i32, align 4
  %this.addr = alloca ptr, align 8
  %key.addr = alloca ptr, align 8
  %i = alloca i32, align 4
  %height = alloca i32, align 4
  %i19 = alloca i32, align 4
  %x = alloca ptr, align 8
  %i33 = alloca i32, align 4
  store ptr %this, ptr %this.addr, align 8
  store ptr %key, ptr %key.addr, align 8
  %this1 = load ptr, ptr %this.addr, align 8
  %0 = load ptr, ptr %key.addr, align 8
  %prev_ = getelementptr inbounds %"class.rocksdb::SkipList", ptr %this1, i32 0, i32 8
  %1 = load ptr, ptr %prev_, align 8
  %arrayidx = getelementptr inbounds ptr, ptr %1, i64 0
  %2 = load ptr, ptr %arrayidx, align 8
  %call = call noundef ptr @_ZN7rocksdb8SkipListIPNS_20WriteBatchIndexEntryERKNS_25WriteBatchEntryComparatorEE4Node14NoBarrier_NextEi(ptr noundef nonnull align 8 dereferenceable(16) %2, i32 noundef 0)
  %call2 = call noundef zeroext i1 @_ZNK7rocksdb8SkipListIPNS_20WriteBatchIndexEntryERKNS_25WriteBatchEntryComparatorEE14KeyIsAfterNodeERKS2_PNS6_4NodeE(ptr noundef nonnull align 8 dereferenceable(52) %this1, ptr noundef nonnull align 8 dereferenceable(8) %0, ptr noundef %call)
  br i1 %call2, label %if.else, label %land.lhs.true

land.lhs.true:                                    ; preds = %entry
  %prev_3 = getelementptr inbounds %"class.rocksdb::SkipList", ptr %this1, i32 0, i32 8
  %3 = load ptr, ptr %prev_3, align 8
  %arrayidx4 = getelementptr inbounds ptr, ptr %3, i64 0
  %4 = load ptr, ptr %arrayidx4, align 8
  %head_ = getelementptr inbounds %"class.rocksdb::SkipList", ptr %this1, i32 0, i32 5
  %5 = load ptr, ptr %head_, align 8
  %cmp = icmp eq ptr %4, %5
  br i1 %cmp, label %if.then, label %lor.lhs.false

lor.lhs.false:                                    ; preds = %land.lhs.true
  %6 = load ptr, ptr %key.addr, align 8
  %prev_5 = getelementptr inbounds %"class.rocksdb::SkipList", ptr %this1, i32 0, i32 8
  %7 = load ptr, ptr %prev_5, align 8
  %arrayidx6 = getelementptr inbounds ptr, ptr %7, i64 0
  %8 = load ptr, ptr %arrayidx6, align 8
  %call7 = call noundef zeroext i1 @_ZNK7rocksdb8SkipListIPNS_20WriteBatchIndexEntryERKNS_25WriteBatchEntryComparatorEE14KeyIsAfterNodeERKS2_PNS6_4NodeE(ptr noundef nonnull align 8 dereferenceable(52) %this1, ptr noundef nonnull align 8 dereferenceable(8) %6, ptr noundef %8)
  br i1 %call7, label %if.then, label %if.else

if.then:                                          ; preds = %lor.lhs.false, %land.lhs.true
  store i32 1, ptr %i, align 4
  br label %for.cond

for.cond:                                         ; preds = %for.inc, %if.then
  %9 = load i32, ptr %i, align 4
  %prev_height_ = getelementptr inbounds %"class.rocksdb::SkipList", ptr %this1, i32 0, i32 9
  %10 = load i32, ptr %prev_height_, align 8
  %cmp8 = icmp slt i32 %9, %10
  br i1 %cmp8, label %for.body, label %for.end

for.body:                                         ; preds = %for.cond
  %prev_9 = getelementptr inbounds %"class.rocksdb::SkipList", ptr %this1, i32 0, i32 8
  %11 = load ptr, ptr %prev_9, align 8
  %arrayidx10 = getelementptr inbounds ptr, ptr %11, i64 0
  %12 = load ptr, ptr %arrayidx10, align 8
  %prev_11 = getelementptr inbounds %"class.rocksdb::SkipList", ptr %this1, i32 0, i32 8
  %13 = load ptr, ptr %prev_11, align 8
  %14 = load i32, ptr %i, align 4
  %idxprom = sext i32 %14 to i64
  %arrayidx12 = getelementptr inbounds ptr, ptr %13, i64 %idxprom
  store ptr %12, ptr %arrayidx12, align 8
  br label %for.inc

for.inc:                                          ; preds = %for.body
  %15 = load i32, ptr %i, align 4
  %inc = add nsw i32 %15, 1
  store i32 %inc, ptr %i, align 4
  br label %for.cond, !llvm.loop !4

for.end:                                          ; preds = %for.cond
  br label %if.end

if.else:                                          ; preds = %lor.lhs.false, %entry
  %16 = load ptr, ptr %key.addr, align 8
  %prev_13 = getelementptr inbounds %"class.rocksdb::SkipList", ptr %this1, i32 0, i32 8
  %17 = load ptr, ptr %prev_13, align 8
  %call14 = call noundef ptr @_ZNK7rocksdb8SkipListIPNS_20WriteBatchIndexEntryERKNS_25WriteBatchEntryComparatorEE12FindLessThanERKS2_PPNS6_4NodeE(ptr noundef nonnull align 8 dereferenceable(52) %this1, ptr noundef nonnull align 8 dereferenceable(8) %16, ptr noundef %17)
  br label %if.end

if.end:                                           ; preds = %if.else, %for.end
  %call15 = call noundef i32 @_ZN7rocksdb8SkipListIPNS_20WriteBatchIndexEntryERKNS_25WriteBatchEntryComparatorEE12RandomHeightEv(ptr noundef nonnull align 8 dereferenceable(52) %this1)
  store i32 %call15, ptr %height, align 4
  %18 = load i32, ptr %height, align 4
  %call16 = call noundef i32 @_ZNK7rocksdb8SkipListIPNS_20WriteBatchIndexEntryERKNS_25WriteBatchEntryComparatorEE12GetMaxHeightEv(ptr noundef nonnull align 8 dereferenceable(52) %this1)
  %cmp17 = icmp sgt i32 %18, %call16
  br i1 %cmp17, label %if.then18, label %if.end31

if.then18:                                        ; preds = %if.end
  %call20 = call noundef i32 @_ZNK7rocksdb8SkipListIPNS_20WriteBatchIndexEntryERKNS_25WriteBatchEntryComparatorEE12GetMaxHeightEv(ptr noundef nonnull align 8 dereferenceable(52) %this1)
  store i32 %call20, ptr %i19, align 4
  br label %for.cond21

for.cond21:                                       ; preds = %for.inc28, %if.then18
  %19 = load i32, ptr %i19, align 4
  %20 = load i32, ptr %height, align 4
  %cmp22 = icmp slt i32 %19, %20
  br i1 %cmp22, label %for.body23, label %for.end30

for.body23:                                       ; preds = %for.cond21
  %head_24 = getelementptr inbounds %"class.rocksdb::SkipList", ptr %this1, i32 0, i32 5
  %21 = load ptr, ptr %head_24, align 8
  %prev_25 = getelementptr inbounds %"class.rocksdb::SkipList", ptr %this1, i32 0, i32 8
  %22 = load ptr, ptr %prev_25, align 8
  %23 = load i32, ptr %i19, align 4
  %idxprom26 = sext i32 %23 to i64
  %arrayidx27 = getelementptr inbounds ptr, ptr %22, i64 %idxprom26
  store ptr %21, ptr %arrayidx27, align 8
  br label %for.inc28

for.inc28:                                        ; preds = %for.body23
  %24 = load i32, ptr %i19, align 4
  %inc29 = add nsw i32 %24, 1
  store i32 %inc29, ptr %i19, align 4
  br label %for.cond21, !llvm.loop !6

for.end30:                                        ; preds = %for.cond21
  %max_height_ = getelementptr inbounds %"class.rocksdb::SkipList", ptr %this1, i32 0, i32 6
  %25 = load i32, ptr %height, align 4
  store ptr %max_height_, ptr %this.addr.i, align 8
  store i32 %25, ptr %__i.addr.i, align 4
  store i32 0, ptr %__m.addr.i, align 4
  %this1.i = load ptr, ptr %this.addr.i, align 8
  %26 = load i32, ptr %__m.addr.i, align 4
  %call.i = call noundef i32 @_ZStanSt12memory_orderSt23__memory_order_modifier(i32 noundef %26, i32 noundef 65535)
  store i32 %call.i, ptr %__b.i, align 4
  %27 = load i32, ptr %__m.addr.i, align 4
  %28 = load i32, ptr %__i.addr.i, align 4
  store i32 %28, ptr %.atomictmp.i, align 4
  switch i32 %27, label %monotonic.i [
    i32 3, label %release.i
    i32 5, label %seqcst.i
  ]

monotonic.i:                                      ; preds = %for.end30
  %29 = load i32, ptr %.atomictmp.i, align 4
  store atomic i32 %29, ptr %this1.i monotonic, align 4
  br label %_ZNSt13__atomic_baseIiE5storeEiSt12memory_order.exit

release.i:                                        ; preds = %for.end30
  %30 = load i32, ptr %.atomictmp.i, align 4
  store atomic i32 %30, ptr %this1.i release, align 4
  br label %_ZNSt13__atomic_baseIiE5storeEiSt12memory_order.exit

seqcst.i:                                         ; preds = %for.end30
  %31 = load i32, ptr %.atomictmp.i, align 4
  store atomic i32 %31, ptr %this1.i seq_cst, align 4
  br label %_ZNSt13__atomic_baseIiE5storeEiSt12memory_order.exit

_ZNSt13__atomic_baseIiE5storeEiSt12memory_order.exit: ; preds = %seqcst.i, %release.i, %monotonic.i
  br label %if.end31

if.end31:                                         ; preds = %_ZNSt13__atomic_baseIiE5storeEiSt12memory_order.exit, %if.end
  %32 = load ptr, ptr %key.addr, align 8
  %33 = load i32, ptr %height, align 4
  %call32 = call noundef ptr @_ZN7rocksdb8SkipListIPNS_20WriteBatchIndexEntryERKNS_25WriteBatchEntryComparatorEE7NewNodeERKS2_i(ptr noundef nonnull align 8 dereferenceable(52) %this1, ptr noundef nonnull align 8 dereferenceable(8) %32, i32 noundef %33)
  store ptr %call32, ptr %x, align 8
  store i32 0, ptr %i33, align 4
  br label %for.cond34

for.cond34:                                       ; preds = %for.inc44, %if.end31
  %34 = load i32, ptr %i33, align 4
  %35 = load i32, ptr %height, align 4
  %cmp35 = icmp slt i32 %34, %35
  br i1 %cmp35, label %for.body36, label %for.end46

for.body36:                                       ; preds = %for.cond34
  %36 = load ptr, ptr %x, align 8
  %37 = load i32, ptr %i33, align 4
  %prev_37 = getelementptr inbounds %"class.rocksdb::SkipList", ptr %this1, i32 0, i32 8
  %38 = load ptr, ptr %prev_37, align 8
  %39 = load i32, ptr %i33, align 4
  %idxprom38 = sext i32 %39 to i64
  %arrayidx39 = getelementptr inbounds ptr, ptr %38, i64 %idxprom38
  %40 = load ptr, ptr %arrayidx39, align 8
  %41 = load i32, ptr %i33, align 4
  %call40 = call noundef ptr @_ZN7rocksdb8SkipListIPNS_20WriteBatchIndexEntryERKNS_25WriteBatchEntryComparatorEE4Node14NoBarrier_NextEi(ptr noundef nonnull align 8 dereferenceable(16) %40, i32 noundef %41)
  call void @_ZN7rocksdb8SkipListIPNS_20WriteBatchIndexEntryERKNS_25WriteBatchEntryComparatorEE4Node17NoBarrier_SetNextEiPS7_(ptr noundef nonnull align 8 dereferenceable(16) %36, i32 noundef %37, ptr noundef %call40)
  %prev_41 = getelementptr inbounds %"class.rocksdb::SkipList", ptr %this1, i32 0, i32 8
  %42 = load ptr, ptr %prev_41, align 8
  %43 = load i32, ptr %i33, align 4
  %idxprom42 = sext i32 %43 to i64
  %arrayidx43 = getelementptr inbounds ptr, ptr %42, i64 %idxprom42
  %44 = load ptr, ptr %arrayidx43, align 8
  %45 = load i32, ptr %i33, align 4
  %46 = load ptr, ptr %x, align 8
  call void @_ZN7rocksdb8SkipListIPNS_20WriteBatchIndexEntryERKNS_25WriteBatchEntryComparatorEE4Node7SetNextEiPS7_(ptr noundef nonnull align 8 dereferenceable(16) %44, i32 noundef %45, ptr noundef %46)
  br label %for.inc44

for.inc44:                                        ; preds = %for.body36
  %47 = load i32, ptr %i33, align 4
  %inc45 = add nsw i32 %47, 1
  store i32 %inc45, ptr %i33, align 4
  br label %for.cond34, !llvm.loop !7

for.end46:                                        ; preds = %for.cond34
  %48 = load ptr, ptr %x, align 8
  %prev_47 = getelementptr inbounds %"class.rocksdb::SkipList", ptr %this1, i32 0, i32 8
  %49 = load ptr, ptr %prev_47, align 8
  %arrayidx48 = getelementptr inbounds ptr, ptr %49, i64 0
  store ptr %48, ptr %arrayidx48, align 8
  %50 = load i32, ptr %height, align 4
  %prev_height_49 = getelementptr inbounds %"class.rocksdb::SkipList", ptr %this1, i32 0, i32 9
  store i32 %50, ptr %prev_height_49, align 8
  ret void
}

; Function Attrs: mustprogress uwtable
define void @_ZN7rocksdb19WriteBatchWithIndex3Rep5ClearEv(ptr noundef nonnull align 16 dereferenceable(2520) %this) #0 align 2 {
entry:
  %this.addr = alloca ptr, align 8
  store ptr %this, ptr %this.addr, align 8
  %this1 = load ptr, ptr %this.addr, align 8
  %write_batch = getelementptr inbounds %"struct.rocksdb::WriteBatchWithIndex::Rep", ptr %this1, i32 0, i32 0
  call void @_ZN7rocksdb10WriteBatch5ClearEv(ptr noundef nonnull align 8 dereferenceable(96) %write_batch)
  call void @_ZN7rocksdb19WriteBatchWithIndex3Rep10ClearIndexEv(ptr noundef nonnull align 16 dereferenceable(2520) %this1)
  ret void
}

declare void @_ZN7rocksdb10WriteBatch5ClearEv(ptr noundef nonnull align 8 dereferenceable(96)) unnamed_addr #4

; Function Attrs: mustprogress uwtable
define void @_ZN7rocksdb19WriteBatchWithIndex3Rep10ClearIndexEv(ptr noundef nonnull align 16 dereferenceable(2520) %this) #0 align 2 {
entry:
  %this.addr = alloca ptr, align 8
  store ptr %this, ptr %this.addr, align 8
  %this1 = load ptr, ptr %this.addr, align 8
  %arena = getelementptr inbounds %"struct.rocksdb::WriteBatchWithIndex::Rep", ptr %this1, i32 0, i32 3
  call void @_ZN7rocksdb5ArenaD1Ev(ptr noundef nonnull align 16 dereferenceable(2288) %arena) #3
  %arena2 = getelementptr inbounds %"struct.rocksdb::WriteBatchWithIndex::Rep", ptr %this1, i32 0, i32 3
  call void @_ZN7rocksdb5ArenaC1EmPNS_12AllocTrackerEm(ptr noundef nonnull align 16 dereferenceable(2288) %arena2, i64 noundef 4096, ptr noundef null, i64 noundef 0)
  %skip_list3 = getelementptr inbounds %"struct.rocksdb::WriteBatchWithIndex::Rep", ptr %this1, i32 0, i32 4
  %comparator = getelementptr inbounds %"struct.rocksdb::WriteBatchWithIndex::Rep", ptr %this1, i32 0, i32 1
  %arena4 = getelementptr inbounds %"struct.rocksdb::WriteBatchWithIndex::Rep", ptr %this1, i32 0, i32 3
  call void @_ZN7rocksdb8SkipListIPNS_20WriteBatchIndexEntryERKNS_25WriteBatchEntryComparatorEEC2ES5_PNS_9AllocatorEii(ptr noundef nonnull align 8 dereferenceable(52) %skip_list3, ptr noundef nonnull align 8 dereferenceable(40) %comparator, ptr noundef %arena4, i32 noundef 12, i32 noundef 4)
  %last_entry_offset = getelementptr inbounds %"struct.rocksdb::WriteBatchWithIndex::Rep", ptr %this1, i32 0, i32 6
  store i64 0, ptr %last_entry_offset, align 16
  %last_sub_batch_offset = getelementptr inbounds %"struct.rocksdb::WriteBatchWithIndex::Rep", ptr %this1, i32 0, i32 7
  store i64 0, ptr %last_sub_batch_offset, align 8
  %sub_batch_cnt = getelementptr inbounds %"struct.rocksdb::WriteBatchWithIndex::Rep", ptr %this1, i32 0, i32 8
  store i64 1, ptr %sub_batch_cnt, align 16
  ret void
}

; Function Attrs: nounwind
declare void @_ZN7rocksdb5ArenaD1Ev(ptr noundef nonnull align 16 dereferenceable(2288)) unnamed_addr #5

declare void @_ZN7rocksdb5ArenaC1EmPNS_12AllocTrackerEm(ptr noundef nonnull align 16 dereferenceable(2288), i64 noundef, ptr noundef, i64 noundef) unnamed_addr #4

; Function Attrs: mustprogress uwtable
define linkonce_odr void @_ZN7rocksdb8SkipListIPNS_20WriteBatchIndexEntryERKNS_25WriteBatchEntryComparatorEEC2ES5_PNS_9AllocatorEii(ptr noundef nonnull align 8 dereferenceable(52) %this, ptr noundef nonnull align 8 dereferenceable(40) %cmp, ptr noundef %allocator, i32 noundef %max_height, i32 noundef %branching_factor) unnamed_addr #0 comdat align 2 {
entry:
  %this.addr = alloca ptr, align 8
  %cmp.addr = alloca ptr, align 8
  %allocator.addr = alloca ptr, align 8
  %max_height.addr = alloca i32, align 4
  %branching_factor.addr = alloca i32, align 4
  %ref.tmp = alloca ptr, align 8
  %i = alloca i32, align 4
  store ptr %this, ptr %this.addr, align 8
  store ptr %cmp, ptr %cmp.addr, align 8
  store ptr %allocator, ptr %allocator.addr, align 8
  store i32 %max_height, ptr %max_height.addr, align 4
  store i32 %branching_factor, ptr %branching_factor.addr, align 4
  %this1 = load ptr, ptr %this.addr, align 8
  %kMaxHeight_ = getelementptr inbounds %"class.rocksdb::SkipList", ptr %this1, i32 0, i32 0
  %0 = load i32, ptr %max_height.addr, align 4
  %conv = trunc i32 %0 to i16
  store i16 %conv, ptr %kMaxHeight_, align 8
  %kBranching_ = getelementptr inbounds %"class.rocksdb::SkipList", ptr %this1, i32 0, i32 1
  %1 = load i32, ptr %branching_factor.addr, align 4
  %conv2 = trunc i32 %1 to i16
  store i16 %conv2, ptr %kBranching_, align 2
  %kScaledInverseBranching_ = getelementptr inbounds %"class.rocksdb::SkipList", ptr %this1, i32 0, i32 2
  %kBranching_3 = getelementptr inbounds %"class.rocksdb::SkipList", ptr %this1, i32 0, i32 1
  %2 = load i16, ptr %kBranching_3, align 2
  %conv4 = zext i16 %2 to i32
  %div = udiv i32 -2147483648, %conv4
  store i32 %div, ptr %kScaledInverseBranching_, align 4
  %compare_ = getelementptr inbounds %"class.rocksdb::SkipList", ptr %this1, i32 0, i32 3
  %3 = load ptr, ptr %cmp.addr, align 8
  store ptr %3, ptr %compare_, align 8
  %allocator_ = getelementptr inbounds %"class.rocksdb::SkipList", ptr %this1, i32 0, i32 4
  %4 = load ptr, ptr %allocator.addr, align 8
  store ptr %4, ptr %allocator_, align 8
  %head_ = getelementptr inbounds %"class.rocksdb::SkipList", ptr %this1, i32 0, i32 5
  store ptr null, ptr %ref.tmp, align 8
  %5 = load i32, ptr %max_height.addr, align 4
  %call = call noundef ptr @_ZN7rocksdb8SkipListIPNS_20WriteBatchIndexEntryERKNS_25WriteBatchEntryComparatorEE7NewNodeERKS2_i(ptr noundef nonnull align 8 dereferenceable(52) %this1, ptr noundef nonnull align 8 dereferenceable(8) %ref.tmp, i32 noundef %5)
  store ptr %call, ptr %head_, align 8
  %max_height_ = getelementptr inbounds %"class.rocksdb::SkipList", ptr %this1, i32 0, i32 6
  call void @_ZNSt6atomicIiEC2Ei(ptr noundef nonnull align 4 dereferenceable(4) %max_height_, i32 noundef 1) #3
  %prev_height_ = getelementptr inbounds %"class.rocksdb::SkipList", ptr %this1, i32 0, i32 9
  store i32 1, ptr %prev_height_, align 8
  %allocator_5 = getelementptr inbounds %"class.rocksdb::SkipList", ptr %this1, i32 0, i32 4
  %6 = load ptr, ptr %allocator_5, align 8
  %kMaxHeight_6 = getelementptr inbounds %"class.rocksdb::SkipList", ptr %this1, i32 0, i32 0
  %7 = load i16, ptr %kMaxHeight_6, align 8
  %conv7 = zext i16 %7 to i64
  %mul = mul i64 8, %conv7
  %vtable = load ptr, ptr %6, align 8
  %vfn = getelementptr inbounds ptr, ptr %vtable, i64 3
  %8 = load ptr, ptr %vfn, align 8
  %call8 = call noundef ptr %8(ptr noundef nonnull align 8 dereferenceable(8) %6, i64 noundef %mul, i64 noundef 0, ptr noundef null)
  %prev_ = getelementptr inbounds %"class.rocksdb::SkipList", ptr %this1, i32 0, i32 8
  store ptr %call8, ptr %prev_, align 8
  store i32 0, ptr %i, align 4
  br label %for.cond

for.cond:                                         ; preds = %for.inc, %entry
  %9 = load i32, ptr %i, align 4
  %kMaxHeight_9 = getelementptr inbounds %"class.rocksdb::SkipList", ptr %this1, i32 0, i32 0
  %10 = load i16, ptr %kMaxHeight_9, align 8
  %conv10 = zext i16 %10 to i32
  %cmp11 = icmp slt i32 %9, %conv10
  br i1 %cmp11, label %for.body, label %for.end

for.body:                                         ; preds = %for.cond
  %head_12 = getelementptr inbounds %"class.rocksdb::SkipList", ptr %this1, i32 0, i32 5
  %11 = load ptr, ptr %head_12, align 8
  %12 = load i32, ptr %i, align 4
  call void @_ZN7rocksdb8SkipListIPNS_20WriteBatchIndexEntryERKNS_25WriteBatchEntryComparatorEE4Node7SetNextEiPS7_(ptr noundef nonnull align 8 dereferenceable(16) %11, i32 noundef %12, ptr noundef null)
  %head_13 = getelementptr inbounds %"class.rocksdb::SkipList", ptr %this1, i32 0, i32 5
  %13 = load ptr, ptr %head_13, align 8
  %prev_14 = getelementptr inbounds %"class.rocksdb::SkipList", ptr %this1, i32 0, i32 8
  %14 = load ptr, ptr %prev_14, align 8
  %15 = load i32, ptr %i, align 4
  %idxprom = sext i32 %15 to i64
  %arrayidx = getelementptr inbounds ptr, ptr %14, i64 %idxprom
  store ptr %13, ptr %arrayidx, align 8
  br label %for.inc

for.inc:                                          ; preds = %for.body
  %16 = load i32, ptr %i, align 4
  %inc = add nsw i32 %16, 1
  store i32 %inc, ptr %i, align 4
  br label %for.cond, !llvm.loop !8

for.end:                                          ; preds = %for.cond
  ret void
}

; Function Attrs: mustprogress uwtable
define void @_ZN7rocksdb19WriteBatchWithIndex3Rep12ReBuildIndexEv(ptr noalias sret(%"class.rocksdb::Status") align 8 %agg.result, ptr noundef nonnull align 16 dereferenceable(2520) %this) #0 align 2 personality ptr @__gxx_personality_v0 {
entry:
  %result.ptr = alloca ptr, align 8
  %this.addr = alloca ptr, align 8
  %s = alloca %"class.rocksdb::Status", align 8
  %exn.slot = alloca ptr, align 8
  %ehselector.slot = alloca i32, align 4
  %cleanup.dest.slot = alloca i32, align 4
  %offset = alloca i64, align 8
  %input = alloca %"class.rocksdb::Slice", align 8
  %found = alloca i32, align 4
  %key = alloca %"class.rocksdb::Slice", align 8
  %value = alloca %"class.rocksdb::Slice", align 8
  %blob = alloca %"class.rocksdb::Slice", align 8
  %xid = alloca %"class.rocksdb::Slice", align 8
  %column_family_id = alloca i32, align 4
  %tag = alloca i8, align 1
  %ref.tmp = alloca %"class.rocksdb::Status", align 8
  %ref.tmp65 = alloca %"class.rocksdb::Slice", align 8
  %ref.tmp67 = alloca %"class.rocksdb::Slice", align 8
  %ref.tmp68 = alloca %"class.std::__cxx11::basic_string", align 8
  %ref.tmp80 = alloca %"class.rocksdb::Status", align 8
  %ref.tmp81 = alloca %"class.rocksdb::Slice", align 8
  %ref.tmp83 = alloca %"class.rocksdb::Slice", align 8
  store ptr %agg.result, ptr %result.ptr, align 8
  store ptr %this, ptr %this.addr, align 8
  %this1 = load ptr, ptr %this.addr, align 8
  call void @_ZN7rocksdb6StatusC2Ev(ptr noundef nonnull align 8 dereferenceable(16) %s)
  invoke void @_ZN7rocksdb19WriteBatchWithIndex3Rep10ClearIndexEv(ptr noundef nonnull align 16 dereferenceable(2520) %this1)
          to label %invoke.cont unwind label %lpad

invoke.cont:                                      ; preds = %entry
  %write_batch = getelementptr inbounds %"struct.rocksdb::WriteBatchWithIndex::Rep", ptr %this1, i32 0, i32 0
  %call = invoke noundef i32 @_ZNK7rocksdb10WriteBatch5CountEv(ptr noundef nonnull align 8 dereferenceable(96) %write_batch)
          to label %invoke.cont2 unwind label %lpad

invoke.cont2:                                     ; preds = %invoke.cont
  %cmp = icmp eq i32 %call, 0
  br i1 %cmp, label %if.then, label %if.end

if.then:                                          ; preds = %invoke.cont2
  call void @_ZN7rocksdb6StatusC2EOS0_(ptr noundef nonnull align 8 dereferenceable(16) %agg.result, ptr noundef nonnull align 8 dereferenceable(16) %s) #3
  store i32 1, ptr %cleanup.dest.slot, align 4
  br label %cleanup

lpad:                                             ; preds = %invoke.cont84, %invoke.cont82, %if.then79, %land.lhs.true, %while.end, %sw.default, %if.then62, %sw.bb58, %if.then54, %sw.bb50, %if.then47, %sw.bb43, %if.then40, %sw.bb36, %if.then33, %sw.bb, %invoke.cont25, %invoke.cont22, %invoke.cont19, %invoke.cont18, %invoke.cont17, %invoke.cont16, %invoke.cont15, %while.body, %land.rhs, %while.cond, %invoke.cont9, %invoke.cont7, %invoke.cont4, %if.end, %invoke.cont, %entry
  %0 = landingpad { ptr, i32 }
          cleanup
  %1 = extractvalue { ptr, i32 } %0, 0
  store ptr %1, ptr %exn.slot, align 8
  %2 = extractvalue { ptr, i32 } %0, 1
  store i32 %2, ptr %ehselector.slot, align 4
  br label %ehcleanup

if.end:                                           ; preds = %invoke.cont2
  %write_batch3 = getelementptr inbounds %"struct.rocksdb::WriteBatchWithIndex::Rep", ptr %this1, i32 0, i32 0
  %call5 = invoke noundef i64 @_ZN7rocksdb18WriteBatchInternal14GetFirstOffsetEPNS_10WriteBatchE(ptr noundef %write_batch3)
          to label %invoke.cont4 unwind label %lpad

invoke.cont4:                                     ; preds = %if.end
  store i64 %call5, ptr %offset, align 8
  %write_batch6 = getelementptr inbounds %"struct.rocksdb::WriteBatchWithIndex::Rep", ptr %this1, i32 0, i32 0
  %call8 = invoke noundef nonnull align 8 dereferenceable(32) ptr @_ZNK7rocksdb10WriteBatch4DataB5cxx11Ev(ptr noundef nonnull align 8 dereferenceable(96) %write_batch6)
          to label %invoke.cont7 unwind label %lpad

invoke.cont7:                                     ; preds = %invoke.cont4
  invoke void @_ZN7rocksdb5SliceC2ERKNSt7__cxx1112basic_stringIcSt11char_traitsIcESaIcEEE(ptr noundef nonnull align 8 dereferenceable(16) %input, ptr noundef nonnull align 8 dereferenceable(32) %call8)
          to label %invoke.cont9 unwind label %lpad

invoke.cont9:                                     ; preds = %invoke.cont7
  %3 = load i64, ptr %offset, align 8
  invoke void @_ZN7rocksdb5Slice13remove_prefixEm(ptr noundef nonnull align 8 dereferenceable(16) %input, i64 noundef %3)
          to label %invoke.cont10 unwind label %lpad

invoke.cont10:                                    ; preds = %invoke.cont9
  store i32 0, ptr %found, align 4
  br label %while.cond

while.cond:                                       ; preds = %sw.epilog, %invoke.cont10
  %call12 = invoke noundef zeroext i1 @_ZNK7rocksdb6Status2okEv(ptr noundef nonnull align 8 dereferenceable(16) %s)
          to label %invoke.cont11 unwind label %lpad

invoke.cont11:                                    ; preds = %while.cond
  br i1 %call12, label %land.rhs, label %land.end

land.rhs:                                         ; preds = %invoke.cont11
  %call14 = invoke noundef zeroext i1 @_ZNK7rocksdb5Slice5emptyEv(ptr noundef nonnull align 8 dereferenceable(16) %input)
          to label %invoke.cont13 unwind label %lpad

invoke.cont13:                                    ; preds = %land.rhs
  %lnot = xor i1 %call14, true
  br label %land.end

land.end:                                         ; preds = %invoke.cont13, %invoke.cont11
  %4 = phi i1 [ false, %invoke.cont11 ], [ %lnot, %invoke.cont13 ]
  br i1 %4, label %while.body, label %while.end

while.body:                                       ; preds = %land.end
  invoke void @_ZN7rocksdb5SliceC2Ev(ptr noundef nonnull align 8 dereferenceable(16) %key)
          to label %invoke.cont15 unwind label %lpad

invoke.cont15:                                    ; preds = %while.body
  invoke void @_ZN7rocksdb5SliceC2Ev(ptr noundef nonnull align 8 dereferenceable(16) %value)
          to label %invoke.cont16 unwind label %lpad

invoke.cont16:                                    ; preds = %invoke.cont15
  invoke void @_ZN7rocksdb5SliceC2Ev(ptr noundef nonnull align 8 dereferenceable(16) %blob)
          to label %invoke.cont17 unwind label %lpad

invoke.cont17:                                    ; preds = %invoke.cont16
  invoke void @_ZN7rocksdb5SliceC2Ev(ptr noundef nonnull align 8 dereferenceable(16) %xid)
          to label %invoke.cont18 unwind label %lpad

invoke.cont18:                                    ; preds = %invoke.cont17
  store i32 0, ptr %column_family_id, align 4
  store i8 0, ptr %tag, align 1
  %call20 = invoke noundef ptr @_ZNK7rocksdb5Slice4dataEv(ptr noundef nonnull align 8 dereferenceable(16) %input)
          to label %invoke.cont19 unwind label %lpad

invoke.cont19:                                    ; preds = %invoke.cont18
  %write_batch21 = getelementptr inbounds %"struct.rocksdb::WriteBatchWithIndex::Rep", ptr %this1, i32 0, i32 0
  %call23 = invoke noundef nonnull align 8 dereferenceable(32) ptr @_ZNK7rocksdb10WriteBatch4DataB5cxx11Ev(ptr noundef nonnull align 8 dereferenceable(96) %write_batch21)
          to label %invoke.cont22 unwind label %lpad

invoke.cont22:                                    ; preds = %invoke.cont19
  %call24 = call noundef ptr @_ZNKSt7__cxx1112basic_stringIcSt11char_traitsIcESaIcEE4dataEv(ptr noundef nonnull align 8 dereferenceable(32) %call23) #3
  %sub.ptr.lhs.cast = ptrtoint ptr %call20 to i64
  %sub.ptr.rhs.cast = ptrtoint ptr %call24 to i64
  %sub.ptr.sub = sub i64 %sub.ptr.lhs.cast, %sub.ptr.rhs.cast
  %last_entry_offset = getelementptr inbounds %"struct.rocksdb::WriteBatchWithIndex::Rep", ptr %this1, i32 0, i32 6
  store i64 %sub.ptr.sub, ptr %last_entry_offset, align 16
  invoke void @_ZN7rocksdb24ReadRecordFromWriteBatchEPNS_5SliceEPcPjS1_S1_S1_S1_(ptr sret(%"class.rocksdb::Status") align 8 %ref.tmp, ptr noundef %input, ptr noundef %tag, ptr noundef %column_family_id, ptr noundef %key, ptr noundef %value, ptr noundef %blob, ptr noundef %xid)
          to label %invoke.cont25 unwind label %lpad

invoke.cont25:                                    ; preds = %invoke.cont22
  %call26 = call noundef nonnull align 8 dereferenceable(16) ptr @_ZN7rocksdb6StatusaSEOS0_(ptr noundef nonnull align 8 dereferenceable(16) %s, ptr noundef nonnull align 8 dereferenceable(16) %ref.tmp) #3
  call void @_ZN7rocksdb6StatusD2Ev(ptr noundef nonnull align 8 dereferenceable(16) %ref.tmp) #3
  %call28 = invoke noundef zeroext i1 @_ZNK7rocksdb6Status2okEv(ptr noundef nonnull align 8 dereferenceable(16) %s)
          to label %invoke.cont27 unwind label %lpad

invoke.cont27:                                    ; preds = %invoke.cont25
  br i1 %call28, label %if.end30, label %if.then29

if.then29:                                        ; preds = %invoke.cont27
  br label %while.end

if.end30:                                         ; preds = %invoke.cont27
  %5 = load i8, ptr %tag, align 1
  %conv = sext i8 %5 to i32
  switch i32 %conv, label %sw.default [
    i32 5, label %sw.bb
    i32 1, label %sw.bb
    i32 4, label %sw.bb36
    i32 0, label %sw.bb36
    i32 8, label %sw.bb43
    i32 7, label %sw.bb43
    i32 6, label %sw.bb50
    i32 2, label %sw.bb50
    i32 3, label %sw.bb57
    i32 9, label %sw.bb57
    i32 18, label %sw.bb57
    i32 19, label %sw.bb57
    i32 10, label %sw.bb57
    i32 11, label %sw.bb57
    i32 21, label %sw.bb57
    i32 12, label %sw.bb57
    i32 13, label %sw.bb57
    i32 23, label %sw.bb58
    i32 22, label %sw.bb58
  ]

sw.bb:                                            ; preds = %if.end30, %if.end30
  %6 = load i32, ptr %found, align 4
  %inc = add i32 %6, 1
  store i32 %inc, ptr %found, align 4
  %7 = load i32, ptr %column_family_id, align 4
  %call32 = invoke noundef zeroext i1 @_ZN7rocksdb19WriteBatchWithIndex3Rep27UpdateExistingEntryWithCfIdEjRKNS_5SliceENS_9WriteTypeE(ptr noundef nonnull align 16 dereferenceable(2520) %this1, i32 noundef %7, ptr noundef nonnull align 8 dereferenceable(16) %key, i32 noundef 0)
          to label %invoke.cont31 unwind label %lpad

invoke.cont31:                                    ; preds = %sw.bb
  br i1 %call32, label %if.end35, label %if.then33

if.then33:                                        ; preds = %invoke.cont31
  %8 = load i32, ptr %column_family_id, align 4
  invoke void @_ZN7rocksdb19WriteBatchWithIndex3Rep11AddNewEntryEj(ptr noundef nonnull align 16 dereferenceable(2520) %this1, i32 noundef %8)
          to label %invoke.cont34 unwind label %lpad

invoke.cont34:                                    ; preds = %if.then33
  br label %if.end35

if.end35:                                         ; preds = %invoke.cont34, %invoke.cont31
  br label %sw.epilog

sw.bb36:                                          ; preds = %if.end30, %if.end30
  %9 = load i32, ptr %found, align 4
  %inc37 = add i32 %9, 1
  store i32 %inc37, ptr %found, align 4
  %10 = load i32, ptr %column_family_id, align 4
  %call39 = invoke noundef zeroext i1 @_ZN7rocksdb19WriteBatchWithIndex3Rep27UpdateExistingEntryWithCfIdEjRKNS_5SliceENS_9WriteTypeE(ptr noundef nonnull align 16 dereferenceable(2520) %this1, i32 noundef %10, ptr noundef nonnull align 8 dereferenceable(16) %key, i32 noundef 2)
          to label %invoke.cont38 unwind label %lpad

invoke.cont38:                                    ; preds = %sw.bb36
  br i1 %call39, label %if.end42, label %if.then40

if.then40:                                        ; preds = %invoke.cont38
  %11 = load i32, ptr %column_family_id, align 4
  invoke void @_ZN7rocksdb19WriteBatchWithIndex3Rep11AddNewEntryEj(ptr noundef nonnull align 16 dereferenceable(2520) %this1, i32 noundef %11)
          to label %invoke.cont41 unwind label %lpad

invoke.cont41:                                    ; preds = %if.then40
  br label %if.end42

if.end42:                                         ; preds = %invoke.cont41, %invoke.cont38
  br label %sw.epilog

sw.bb43:                                          ; preds = %if.end30, %if.end30
  %12 = load i32, ptr %found, align 4
  %inc44 = add i32 %12, 1
  store i32 %inc44, ptr %found, align 4
  %13 = load i32, ptr %column_family_id, align 4
  %call46 = invoke noundef zeroext i1 @_ZN7rocksdb19WriteBatchWithIndex3Rep27UpdateExistingEntryWithCfIdEjRKNS_5SliceENS_9WriteTypeE(ptr noundef nonnull align 16 dereferenceable(2520) %this1, i32 noundef %13, ptr noundef nonnull align 8 dereferenceable(16) %key, i32 noundef 3)
          to label %invoke.cont45 unwind label %lpad

invoke.cont45:                                    ; preds = %sw.bb43
  br i1 %call46, label %if.end49, label %if.then47

if.then47:                                        ; preds = %invoke.cont45
  %14 = load i32, ptr %column_family_id, align 4
  invoke void @_ZN7rocksdb19WriteBatchWithIndex3Rep11AddNewEntryEj(ptr noundef nonnull align 16 dereferenceable(2520) %this1, i32 noundef %14)
          to label %invoke.cont48 unwind label %lpad

invoke.cont48:                                    ; preds = %if.then47
  br label %if.end49

if.end49:                                         ; preds = %invoke.cont48, %invoke.cont45
  br label %sw.epilog

sw.bb50:                                          ; preds = %if.end30, %if.end30
  %15 = load i32, ptr %found, align 4
  %inc51 = add i32 %15, 1
  store i32 %inc51, ptr %found, align 4
  %16 = load i32, ptr %column_family_id, align 4
  %call53 = invoke noundef zeroext i1 @_ZN7rocksdb19WriteBatchWithIndex3Rep27UpdateExistingEntryWithCfIdEjRKNS_5SliceENS_9WriteTypeE(ptr noundef nonnull align 16 dereferenceable(2520) %this1, i32 noundef %16, ptr noundef nonnull align 8 dereferenceable(16) %key, i32 noundef 1)
          to label %invoke.cont52 unwind label %lpad

invoke.cont52:                                    ; preds = %sw.bb50
  br i1 %call53, label %if.end56, label %if.then54

if.then54:                                        ; preds = %invoke.cont52
  %17 = load i32, ptr %column_family_id, align 4
  invoke void @_ZN7rocksdb19WriteBatchWithIndex3Rep11AddNewEntryEj(ptr noundef nonnull align 16 dereferenceable(2520) %this1, i32 noundef %17)
          to label %invoke.cont55 unwind label %lpad

invoke.cont55:                                    ; preds = %if.then54
  br label %if.end56

if.end56:                                         ; preds = %invoke.cont55, %invoke.cont52
  br label %sw.epilog

sw.bb57:                                          ; preds = %if.end30, %if.end30, %if.end30, %if.end30, %if.end30, %if.end30, %if.end30, %if.end30, %if.end30
  br label %sw.epilog

sw.bb58:                                          ; preds = %if.end30, %if.end30
  %18 = load i32, ptr %found, align 4
  %inc59 = add i32 %18, 1
  store i32 %inc59, ptr %found, align 4
  %19 = load i32, ptr %column_family_id, align 4
  %call61 = invoke noundef zeroext i1 @_ZN7rocksdb19WriteBatchWithIndex3Rep27UpdateExistingEntryWithCfIdEjRKNS_5SliceENS_9WriteTypeE(ptr noundef nonnull align 16 dereferenceable(2520) %this1, i32 noundef %19, ptr noundef nonnull align 8 dereferenceable(16) %key, i32 noundef 7)
          to label %invoke.cont60 unwind label %lpad

invoke.cont60:                                    ; preds = %sw.bb58
  br i1 %call61, label %if.end64, label %if.then62

if.then62:                                        ; preds = %invoke.cont60
  %20 = load i32, ptr %column_family_id, align 4
  invoke void @_ZN7rocksdb19WriteBatchWithIndex3Rep11AddNewEntryEj(ptr noundef nonnull align 16 dereferenceable(2520) %this1, i32 noundef %20)
          to label %invoke.cont63 unwind label %lpad

invoke.cont63:                                    ; preds = %if.then62
  br label %if.end64

if.end64:                                         ; preds = %invoke.cont63, %invoke.cont60
  br label %sw.epilog

sw.default:                                       ; preds = %if.end30
  invoke void @_ZN7rocksdb5SliceC2EPKc(ptr noundef nonnull align 8 dereferenceable(16) %ref.tmp65, ptr noundef @.str)
          to label %invoke.cont66 unwind label %lpad

invoke.cont66:                                    ; preds = %sw.default
  %21 = load i8, ptr %tag, align 1
  %conv69 = sext i8 %21 to i32
  call void @_ZNSt7__cxx119to_stringEj(ptr sret(%"class.std::__cxx11::basic_string") align 8 %ref.tmp68, i32 noundef %conv69) #3
  invoke void @_ZN7rocksdb5SliceC2ERKNSt7__cxx1112basic_stringIcSt11char_traitsIcESaIcEEE(ptr noundef nonnull align 8 dereferenceable(16) %ref.tmp67, ptr noundef nonnull align 8 dereferenceable(32) %ref.tmp68)
          to label %invoke.cont71 unwind label %lpad70

invoke.cont71:                                    ; preds = %invoke.cont66
  invoke void @_ZN7rocksdb6Status10CorruptionERKNS_5SliceES3_(ptr sret(%"class.rocksdb::Status") align 8 %agg.result, ptr noundef nonnull align 8 dereferenceable(16) %ref.tmp65, ptr noundef nonnull align 8 dereferenceable(16) %ref.tmp67)
          to label %invoke.cont72 unwind label %lpad70

invoke.cont72:                                    ; preds = %invoke.cont71
  call void @_ZNSt7__cxx1112basic_stringIcSt11char_traitsIcESaIcEED1Ev(ptr noundef nonnull align 8 dereferenceable(32) %ref.tmp68) #3
  store i32 1, ptr %cleanup.dest.slot, align 4
  br label %cleanup

lpad70:                                           ; preds = %invoke.cont71, %invoke.cont66
  %22 = landingpad { ptr, i32 }
          cleanup
  %23 = extractvalue { ptr, i32 } %22, 0
  store ptr %23, ptr %exn.slot, align 8
  %24 = extractvalue { ptr, i32 } %22, 1
  store i32 %24, ptr %ehselector.slot, align 4
  call void @_ZNSt7__cxx1112basic_stringIcSt11char_traitsIcESaIcEED1Ev(ptr noundef nonnull align 8 dereferenceable(32) %ref.tmp68) #3
  br label %ehcleanup

sw.epilog:                                        ; preds = %if.end64, %sw.bb57, %if.end56, %if.end49, %if.end42, %if.end35
  br label %while.cond, !llvm.loop !9

while.end:                                        ; preds = %if.then29, %land.end
  %call74 = invoke noundef zeroext i1 @_ZNK7rocksdb6Status2okEv(ptr noundef nonnull align 8 dereferenceable(16) %s)
          to label %invoke.cont73 unwind label %lpad

invoke.cont73:                                    ; preds = %while.end
  br i1 %call74, label %land.lhs.true, label %if.end87

land.lhs.true:                                    ; preds = %invoke.cont73
  %25 = load i32, ptr %found, align 4
  %write_batch75 = getelementptr inbounds %"struct.rocksdb::WriteBatchWithIndex::Rep", ptr %this1, i32 0, i32 0
  %call77 = invoke noundef i32 @_ZNK7rocksdb10WriteBatch5CountEv(ptr noundef nonnull align 8 dereferenceable(96) %write_batch75)
          to label %invoke.cont76 unwind label %lpad

invoke.cont76:                                    ; preds = %land.lhs.true
  %cmp78 = icmp ne i32 %25, %call77
  br i1 %cmp78, label %if.then79, label %if.end87

if.then79:                                        ; preds = %invoke.cont76
  invoke void @_ZN7rocksdb5SliceC2EPKc(ptr noundef nonnull align 8 dereferenceable(16) %ref.tmp81, ptr noundef @.str.1)
          to label %invoke.cont82 unwind label %lpad

invoke.cont82:                                    ; preds = %if.then79
  invoke void @_ZN7rocksdb5SliceC2Ev(ptr noundef nonnull align 8 dereferenceable(16) %ref.tmp83)
          to label %invoke.cont84 unwind label %lpad

invoke.cont84:                                    ; preds = %invoke.cont82
  invoke void @_ZN7rocksdb6Status10CorruptionERKNS_5SliceES3_(ptr sret(%"class.rocksdb::Status") align 8 %ref.tmp80, ptr noundef nonnull align 8 dereferenceable(16) %ref.tmp81, ptr noundef nonnull align 8 dereferenceable(16) %ref.tmp83)
          to label %invoke.cont85 unwind label %lpad

invoke.cont85:                                    ; preds = %invoke.cont84
  %call86 = call noundef nonnull align 8 dereferenceable(16) ptr @_ZN7rocksdb6StatusaSEOS0_(ptr noundef nonnull align 8 dereferenceable(16) %s, ptr noundef nonnull align 8 dereferenceable(16) %ref.tmp80) #3
  call void @_ZN7rocksdb6StatusD2Ev(ptr noundef nonnull align 8 dereferenceable(16) %ref.tmp80) #3
  br label %if.end87

if.end87:                                         ; preds = %invoke.cont85, %invoke.cont76, %invoke.cont73
  call void @_ZN7rocksdb6StatusC2EOS0_(ptr noundef nonnull align 8 dereferenceable(16) %agg.result, ptr noundef nonnull align 8 dereferenceable(16) %s) #3
  store i32 1, ptr %cleanup.dest.slot, align 4
  br label %cleanup

cleanup:                                          ; preds = %if.end87, %invoke.cont72, %if.then
  call void @_ZN7rocksdb6StatusD2Ev(ptr noundef nonnull align 8 dereferenceable(16) %s) #3
  ret void

ehcleanup:                                        ; preds = %lpad70, %lpad
  call void @_ZN7rocksdb6StatusD2Ev(ptr noundef nonnull align 8 dereferenceable(16) %s) #3
  br label %eh.resume

eh.resume:                                        ; preds = %ehcleanup
  %exn = load ptr, ptr %exn.slot, align 8
  %sel = load i32, ptr %ehselector.slot, align 4
  %lpad.val = insertvalue { ptr, i32 } poison, ptr %exn, 0
  %lpad.val88 = insertvalue { ptr, i32 } %lpad.val, i32 %sel, 1
  resume { ptr, i32 } %lpad.val88
}

; Function Attrs: mustprogress nounwind uwtable
define linkonce_odr void @_ZN7rocksdb6StatusC2Ev(ptr noundef nonnull align 8 dereferenceable(16) %this) unnamed_addr #1 comdat align 2 {
entry:
  %this.addr = alloca ptr, align 8
  store ptr %this, ptr %this.addr, align 8
  %this1 = load ptr, ptr %this.addr, align 8
  %code_ = getelementptr inbounds %"class.rocksdb::Status", ptr %this1, i32 0, i32 0
  store i8 0, ptr %code_, align 8
  %subcode_ = getelementptr inbounds %"class.rocksdb::Status", ptr %this1, i32 0, i32 1
  store i8 0, ptr %subcode_, align 1
  %sev_ = getelementptr inbounds %"class.rocksdb::Status", ptr %this1, i32 0, i32 2
  store i8 0, ptr %sev_, align 2
  %retryable_ = getelementptr inbounds %"class.rocksdb::Status", ptr %this1, i32 0, i32 3
  store i8 0, ptr %retryable_, align 1
  %data_loss_ = getelementptr inbounds %"class.rocksdb::Status", ptr %this1, i32 0, i32 4
  store i8 0, ptr %data_loss_, align 4
  %scope_ = getelementptr inbounds %"class.rocksdb::Status", ptr %this1, i32 0, i32 5
  store i8 0, ptr %scope_, align 1
  %state_ = getelementptr inbounds %"class.rocksdb::Status", ptr %this1, i32 0, i32 6
  call void @_ZNSt10unique_ptrIA_KcSt14default_deleteIS1_EEC2IS3_vEEDn(ptr noundef nonnull align 8 dereferenceable(8) %state_, ptr null) #3
  ret void
}

declare noundef i32 @_ZNK7rocksdb10WriteBatch5CountEv(ptr noundef nonnull align 8 dereferenceable(96)) #4

; Function Attrs: mustprogress nounwind uwtable
define linkonce_odr void @_ZN7rocksdb6StatusC2EOS0_(ptr noundef nonnull align 8 dereferenceable(16) %this, ptr noundef nonnull align 8 dereferenceable(16) %s) unnamed_addr #1 comdat align 2 personality ptr @__gxx_personality_v0 {
entry:
  %this.addr = alloca ptr, align 8
  %s.addr = alloca ptr, align 8
  store ptr %this, ptr %this.addr, align 8
  store ptr %s, ptr %s.addr, align 8
  %this1 = load ptr, ptr %this.addr, align 8
  call void @_ZN7rocksdb6StatusC2Ev(ptr noundef nonnull align 8 dereferenceable(16) %this1)
  %0 = load ptr, ptr %s.addr, align 8
  invoke void @_ZNK7rocksdb6Status11MarkCheckedEv(ptr noundef nonnull align 8 dereferenceable(16) %0)
          to label %invoke.cont unwind label %terminate.lpad

invoke.cont:                                      ; preds = %entry
  %1 = load ptr, ptr %s.addr, align 8
  %call = call noundef nonnull align 8 dereferenceable(16) ptr @_ZN7rocksdb6StatusaSEOS0_(ptr noundef nonnull align 8 dereferenceable(16) %this1, ptr noundef nonnull align 8 dereferenceable(16) %1) #3
  ret void

terminate.lpad:                                   ; preds = %entry
  %2 = landingpad { ptr, i32 }
          catch ptr null
  %3 = extractvalue { ptr, i32 } %2, 0
  call void @__clang_call_terminate(ptr %3) #16
  unreachable
}

declare noundef i64 @_ZN7rocksdb18WriteBatchInternal14GetFirstOffsetEPNS_10WriteBatchE(ptr noundef) #4

; Function Attrs: mustprogress nounwind uwtable
define linkonce_odr void @_ZN7rocksdb5SliceC2ERKNSt7__cxx1112basic_stringIcSt11char_traitsIcESaIcEEE(ptr noundef nonnull align 8 dereferenceable(16) %this, ptr noundef nonnull align 8 dereferenceable(32) %s) unnamed_addr #1 comdat align 2 {
entry:
  %this.addr = alloca ptr, align 8
  %s.addr = alloca ptr, align 8
  store ptr %this, ptr %this.addr, align 8
  store ptr %s, ptr %s.addr, align 8
  %this1 = load ptr, ptr %this.addr, align 8
  %data_ = getelementptr inbounds %"class.rocksdb::Slice", ptr %this1, i32 0, i32 0
  %0 = load ptr, ptr %s.addr, align 8
  %call = call noundef ptr @_ZNKSt7__cxx1112basic_stringIcSt11char_traitsIcESaIcEE4dataEv(ptr noundef nonnull align 8 dereferenceable(32) %0) #3
  store ptr %call, ptr %data_, align 8
  %size_ = getelementptr inbounds %"class.rocksdb::Slice", ptr %this1, i32 0, i32 1
  %1 = load ptr, ptr %s.addr, align 8
  %call2 = call noundef i64 @_ZNKSt7__cxx1112basic_stringIcSt11char_traitsIcESaIcEE4sizeEv(ptr noundef nonnull align 8 dereferenceable(32) %1) #3
  store i64 %call2, ptr %size_, align 8
  ret void
}

; Function Attrs: mustprogress nounwind uwtable
define linkonce_odr void @_ZN7rocksdb5Slice13remove_prefixEm(ptr noundef nonnull align 8 dereferenceable(16) %this, i64 noundef %n) #1 comdat align 2 {
entry:
  %this.addr = alloca ptr, align 8
  %n.addr = alloca i64, align 8
  store ptr %this, ptr %this.addr, align 8
  store i64 %n, ptr %n.addr, align 8
  %this1 = load ptr, ptr %this.addr, align 8
  %0 = load i64, ptr %n.addr, align 8
  %data_ = getelementptr inbounds %"class.rocksdb::Slice", ptr %this1, i32 0, i32 0
  %1 = load ptr, ptr %data_, align 8
  %add.ptr = getelementptr inbounds i8, ptr %1, i64 %0
  store ptr %add.ptr, ptr %data_, align 8
  %2 = load i64, ptr %n.addr, align 8
  %size_ = getelementptr inbounds %"class.rocksdb::Slice", ptr %this1, i32 0, i32 1
  %3 = load i64, ptr %size_, align 8
  %sub = sub i64 %3, %2
  store i64 %sub, ptr %size_, align 8
  ret void
}

; Function Attrs: mustprogress uwtable
define linkonce_odr noundef zeroext i1 @_ZNK7rocksdb6Status2okEv(ptr noundef nonnull align 8 dereferenceable(16) %this) #0 comdat align 2 {
entry:
  %this.addr = alloca ptr, align 8
  store ptr %this, ptr %this.addr, align 8
  %this1 = load ptr, ptr %this.addr, align 8
  call void @_ZNK7rocksdb6Status11MarkCheckedEv(ptr noundef nonnull align 8 dereferenceable(16) %this1)
  %call = call noundef zeroext i8 @_ZNK7rocksdb6Status4codeEv(ptr noundef nonnull align 8 dereferenceable(16) %this1)
  %conv = zext i8 %call to i32
  %cmp = icmp eq i32 %conv, 0
  ret i1 %cmp
}

; Function Attrs: mustprogress nounwind uwtable
define linkonce_odr noundef zeroext i1 @_ZNK7rocksdb5Slice5emptyEv(ptr noundef nonnull align 8 dereferenceable(16) %this) #1 comdat align 2 {
entry:
  %this.addr = alloca ptr, align 8
  store ptr %this, ptr %this.addr, align 8
  %this1 = load ptr, ptr %this.addr, align 8
  %size_ = getelementptr inbounds %"class.rocksdb::Slice", ptr %this1, i32 0, i32 1
  %0 = load i64, ptr %size_, align 8
  %cmp = icmp eq i64 %0, 0
  ret i1 %cmp
}

declare void @_ZN7rocksdb24ReadRecordFromWriteBatchEPNS_5SliceEPcPjS1_S1_S1_S1_(ptr sret(%"class.rocksdb::Status") align 8, ptr noundef, ptr noundef, ptr noundef, ptr noundef, ptr noundef, ptr noundef, ptr noundef) #4

; Function Attrs: mustprogress nounwind uwtable
define linkonce_odr noundef nonnull align 8 dereferenceable(16) ptr @_ZN7rocksdb6StatusaSEOS0_(ptr noundef nonnull align 8 dereferenceable(16) %this, ptr noundef nonnull align 8 dereferenceable(16) %s) #1 comdat align 2 personality ptr @__gxx_personality_v0 {
entry:
  %this.addr = alloca ptr, align 8
  %s.addr = alloca ptr, align 8
  store ptr %this, ptr %this.addr, align 8
  store ptr %s, ptr %s.addr, align 8
  %this1 = load ptr, ptr %this.addr, align 8
  %0 = load ptr, ptr %s.addr, align 8
  %cmp = icmp ne ptr %this1, %0
  br i1 %cmp, label %if.then, label %if.end

if.then:                                          ; preds = %entry
  %1 = load ptr, ptr %s.addr, align 8
  call void @_ZNK7rocksdb6Status11MarkCheckedEv(ptr noundef nonnull align 8 dereferenceable(16) %1)
  invoke void @_ZNK7rocksdb6Status9MustCheckEv(ptr noundef nonnull align 8 dereferenceable(16) %this1)
          to label %invoke.cont unwind label %terminate.lpad

invoke.cont:                                      ; preds = %if.then
  %2 = load ptr, ptr %s.addr, align 8
  %code_ = getelementptr inbounds %"class.rocksdb::Status", ptr %2, i32 0, i32 0
  %3 = load i8, ptr %code_, align 1
  %code_2 = getelementptr inbounds %"class.rocksdb::Status", ptr %this1, i32 0, i32 0
  store i8 %3, ptr %code_2, align 8
  %4 = load ptr, ptr %s.addr, align 8
  %code_3 = getelementptr inbounds %"class.rocksdb::Status", ptr %4, i32 0, i32 0
  store i8 0, ptr %code_3, align 8
  %5 = load ptr, ptr %s.addr, align 8
  %subcode_ = getelementptr inbounds %"class.rocksdb::Status", ptr %5, i32 0, i32 1
  %6 = load i8, ptr %subcode_, align 1
  %subcode_4 = getelementptr inbounds %"class.rocksdb::Status", ptr %this1, i32 0, i32 1
  store i8 %6, ptr %subcode_4, align 1
  %7 = load ptr, ptr %s.addr, align 8
  %subcode_5 = getelementptr inbounds %"class.rocksdb::Status", ptr %7, i32 0, i32 1
  store i8 0, ptr %subcode_5, align 1
  %8 = load ptr, ptr %s.addr, align 8
  %sev_ = getelementptr inbounds %"class.rocksdb::Status", ptr %8, i32 0, i32 2
  %9 = load i8, ptr %sev_, align 1
  %sev_6 = getelementptr inbounds %"class.rocksdb::Status", ptr %this1, i32 0, i32 2
  store i8 %9, ptr %sev_6, align 2
  %10 = load ptr, ptr %s.addr, align 8
  %sev_7 = getelementptr inbounds %"class.rocksdb::Status", ptr %10, i32 0, i32 2
  store i8 0, ptr %sev_7, align 2
  %11 = load ptr, ptr %s.addr, align 8
  %retryable_ = getelementptr inbounds %"class.rocksdb::Status", ptr %11, i32 0, i32 3
  %12 = load i8, ptr %retryable_, align 1
  %tobool = trunc i8 %12 to i1
  %retryable_8 = getelementptr inbounds %"class.rocksdb::Status", ptr %this1, i32 0, i32 3
  %frombool = zext i1 %tobool to i8
  store i8 %frombool, ptr %retryable_8, align 1
  %13 = load ptr, ptr %s.addr, align 8
  %retryable_9 = getelementptr inbounds %"class.rocksdb::Status", ptr %13, i32 0, i32 3
  store i8 0, ptr %retryable_9, align 1
  %14 = load ptr, ptr %s.addr, align 8
  %data_loss_ = getelementptr inbounds %"class.rocksdb::Status", ptr %14, i32 0, i32 4
  %15 = load i8, ptr %data_loss_, align 1
  %tobool10 = trunc i8 %15 to i1
  %data_loss_11 = getelementptr inbounds %"class.rocksdb::Status", ptr %this1, i32 0, i32 4
  %frombool12 = zext i1 %tobool10 to i8
  store i8 %frombool12, ptr %data_loss_11, align 4
  %16 = load ptr, ptr %s.addr, align 8
  %data_loss_13 = getelementptr inbounds %"class.rocksdb::Status", ptr %16, i32 0, i32 4
  store i8 0, ptr %data_loss_13, align 4
  %17 = load ptr, ptr %s.addr, align 8
  %scope_ = getelementptr inbounds %"class.rocksdb::Status", ptr %17, i32 0, i32 5
  %18 = load i8, ptr %scope_, align 1
  %scope_14 = getelementptr inbounds %"class.rocksdb::Status", ptr %this1, i32 0, i32 5
  store i8 %18, ptr %scope_14, align 1
  %19 = load ptr, ptr %s.addr, align 8
  %scope_15 = getelementptr inbounds %"class.rocksdb::Status", ptr %19, i32 0, i32 5
  store i8 0, ptr %scope_15, align 1
  %20 = load ptr, ptr %s.addr, align 8
  %state_ = getelementptr inbounds %"class.rocksdb::Status", ptr %20, i32 0, i32 6
  %state_16 = getelementptr inbounds %"class.rocksdb::Status", ptr %this1, i32 0, i32 6
  %call = call noundef nonnull align 8 dereferenceable(8) ptr @_ZNSt10unique_ptrIA_KcSt14default_deleteIS1_EEaSEOS4_(ptr noundef nonnull align 8 dereferenceable(8) %state_16, ptr noundef nonnull align 8 dereferenceable(8) %state_) #3
  br label %if.end

if.end:                                           ; preds = %invoke.cont, %entry
  ret ptr %this1

terminate.lpad:                                   ; preds = %if.then
  %21 = landingpad { ptr, i32 }
          catch ptr null
  %22 = extractvalue { ptr, i32 } %21, 0
  call void @__clang_call_terminate(ptr %22) #16
  unreachable
}

; Function Attrs: mustprogress nounwind uwtable
define linkonce_odr void @_ZN7rocksdb6StatusD2Ev(ptr noundef nonnull align 8 dereferenceable(16) %this) unnamed_addr #1 comdat align 2 {
entry:
  %this.addr = alloca ptr, align 8
  store ptr %this, ptr %this.addr, align 8
  %this1 = load ptr, ptr %this.addr, align 8
  %state_ = getelementptr inbounds %"class.rocksdb::Status", ptr %this1, i32 0, i32 6
  call void @_ZNSt10unique_ptrIA_KcSt14default_deleteIS1_EED2Ev(ptr noundef nonnull align 8 dereferenceable(8) %state_) #3
  ret void
}

; Function Attrs: mustprogress uwtable
define linkonce_odr void @_ZN7rocksdb6Status10CorruptionERKNS_5SliceES3_(ptr noalias sret(%"class.rocksdb::Status") align 8 %agg.result, ptr noundef nonnull align 8 dereferenceable(16) %msg, ptr noundef nonnull align 8 dereferenceable(16) %msg2) #0 comdat align 2 {
entry:
  %result.ptr = alloca ptr, align 8
  %msg.addr = alloca ptr, align 8
  %msg2.addr = alloca ptr, align 8
  store ptr %agg.result, ptr %result.ptr, align 8
  store ptr %msg, ptr %msg.addr, align 8
  store ptr %msg2, ptr %msg2.addr, align 8
  %0 = load ptr, ptr %msg.addr, align 8
  %1 = load ptr, ptr %msg2.addr, align 8
  call void @_ZN7rocksdb6StatusC2ENS0_4CodeERKNS_5SliceES4_(ptr noundef nonnull align 8 dereferenceable(16) %agg.result, i8 noundef zeroext 2, ptr noundef nonnull align 8 dereferenceable(16) %0, ptr noundef nonnull align 8 dereferenceable(16) %1)
  ret void
}

; Function Attrs: mustprogress nounwind uwtable
define linkonce_odr void @_ZN7rocksdb5SliceC2EPKc(ptr noundef nonnull align 8 dereferenceable(16) %this, ptr noundef %s) unnamed_addr #1 comdat align 2 {
entry:
  %this.addr = alloca ptr, align 8
  %s.addr = alloca ptr, align 8
  store ptr %this, ptr %this.addr, align 8
  store ptr %s, ptr %s.addr, align 8
  %this1 = load ptr, ptr %this.addr, align 8
  %data_ = getelementptr inbounds %"class.rocksdb::Slice", ptr %this1, i32 0, i32 0
  %0 = load ptr, ptr %s.addr, align 8
  store ptr %0, ptr %data_, align 8
  %1 = load ptr, ptr %s.addr, align 8
  %cmp = icmp eq ptr %1, null
  br i1 %cmp, label %cond.true, label %cond.false

cond.true:                                        ; preds = %entry
  br label %cond.end

cond.false:                                       ; preds = %entry
  %2 = load ptr, ptr %s.addr, align 8
  %call = call i64 @strlen(ptr noundef %2) #17
  br label %cond.end

cond.end:                                         ; preds = %cond.false, %cond.true
  %cond = phi i64 [ 0, %cond.true ], [ %call, %cond.false ]
  %size_ = getelementptr inbounds %"class.rocksdb::Slice", ptr %this1, i32 0, i32 1
  store i64 %cond, ptr %size_, align 8
  ret void
}

; Function Attrs: mustprogress nounwind uwtable
define linkonce_odr void @_ZNSt7__cxx119to_stringEj(ptr noalias sret(%"class.std::__cxx11::basic_string") align 8 %agg.result, i32 noundef %__val) #1 comdat personality ptr @__gxx_personality_v0 {
entry:
  %result.ptr = alloca ptr, align 8
  %__val.addr = alloca i32, align 4
  %nrvo = alloca i1, align 1
  %ref.tmp = alloca %"class.std::allocator.10", align 1
  store ptr %agg.result, ptr %result.ptr, align 8
  store i32 %__val, ptr %__val.addr, align 4
  store i1 false, ptr %nrvo, align 1
  %0 = load i32, ptr %__val.addr, align 4
  %call = call noundef i32 @_ZNSt8__detail14__to_chars_lenIjEEjT_i(i32 noundef %0, i32 noundef 10) #3
  %conv = zext i32 %call to i64
  call void @_ZNSaIcEC1Ev(ptr noundef nonnull align 1 dereferenceable(1) %ref.tmp) #3
  invoke void @_ZNSt7__cxx1112basic_stringIcSt11char_traitsIcESaIcEEC2IS3_EEmcRKS3_(ptr noundef nonnull align 8 dereferenceable(32) %agg.result, i64 noundef %conv, i8 noundef signext 0, ptr noundef nonnull align 1 dereferenceable(1) %ref.tmp)
          to label %invoke.cont unwind label %terminate.lpad

invoke.cont:                                      ; preds = %entry
  call void @_ZNSaIcED1Ev(ptr noundef nonnull align 1 dereferenceable(1) %ref.tmp) #3
  %call2 = invoke noundef nonnull align 1 dereferenceable(1) ptr @_ZNSt7__cxx1112basic_stringIcSt11char_traitsIcESaIcEEixEm(ptr noundef nonnull align 8 dereferenceable(32) %agg.result, i64 noundef 0)
          to label %invoke.cont1 unwind label %terminate.lpad

invoke.cont1:                                     ; preds = %invoke.cont
  %call3 = call noundef i64 @_ZNKSt7__cxx1112basic_stringIcSt11char_traitsIcESaIcEE4sizeEv(ptr noundef nonnull align 8 dereferenceable(32) %agg.result) #3
  %conv4 = trunc i64 %call3 to i32
  %1 = load i32, ptr %__val.addr, align 4
  call void @_ZNSt8__detail18__to_chars_10_implIjEEvPcjT_(ptr noundef %call2, i32 noundef %conv4, i32 noundef %1) #3
  store i1 true, ptr %nrvo, align 1
  %nrvo.val = load i1, ptr %nrvo, align 1
  br i1 %nrvo.val, label %nrvo.skipdtor, label %nrvo.unused

nrvo.unused:                                      ; preds = %invoke.cont1
  call void @_ZNSt7__cxx1112basic_stringIcSt11char_traitsIcESaIcEED1Ev(ptr noundef nonnull align 8 dereferenceable(32) %agg.result) #3
  br label %nrvo.skipdtor

nrvo.skipdtor:                                    ; preds = %nrvo.unused, %invoke.cont1
  ret void

terminate.lpad:                                   ; preds = %invoke.cont, %entry
  %2 = landingpad { ptr, i32 }
          catch ptr null
  %3 = extractvalue { ptr, i32 } %2, 0
  call void @__clang_call_terminate(ptr %3) #16
  unreachable
}

; Function Attrs: nounwind
declare void @_ZNSt7__cxx1112basic_stringIcSt11char_traitsIcESaIcEED1Ev(ptr noundef nonnull align 8 dereferenceable(32)) unnamed_addr #5

; Function Attrs: mustprogress uwtable
define void @_ZN7rocksdb19WriteBatchWithIndexC2EPKNS_10ComparatorEmbmm(ptr noundef nonnull align 8 dereferenceable(16) %this, ptr noundef %default_index_comparator, i64 noundef %reserved_bytes, i1 noundef zeroext %overwrite_key, i64 noundef %max_bytes, i64 noundef %protection_bytes_per_key) unnamed_addr #0 align 2 personality ptr @__gxx_personality_v0 {
entry:
  %this.addr = alloca ptr, align 8
  %default_index_comparator.addr = alloca ptr, align 8
  %reserved_bytes.addr = alloca i64, align 8
  %overwrite_key.addr = alloca i8, align 1
  %max_bytes.addr = alloca i64, align 8
  %protection_bytes_per_key.addr = alloca i64, align 8
  %exn.slot = alloca ptr, align 8
  %ehselector.slot = alloca i32, align 4
  store ptr %this, ptr %this.addr, align 8
  store ptr %default_index_comparator, ptr %default_index_comparator.addr, align 8
  store i64 %reserved_bytes, ptr %reserved_bytes.addr, align 8
  %frombool = zext i1 %overwrite_key to i8
  store i8 %frombool, ptr %overwrite_key.addr, align 1
  store i64 %max_bytes, ptr %max_bytes.addr, align 8
  store i64 %protection_bytes_per_key, ptr %protection_bytes_per_key.addr, align 8
  %this1 = load ptr, ptr %this.addr, align 8
  call void @_ZN7rocksdb14WriteBatchBaseC2Ev(ptr noundef nonnull align 8 dereferenceable(8) %this1) #3
  store ptr getelementptr inbounds ({ [39 x ptr] }, ptr @_ZTVN7rocksdb19WriteBatchWithIndexE, i32 0, inrange i32 0, i32 2), ptr %this1, align 8
  %rep = getelementptr inbounds %"class.rocksdb::WriteBatchWithIndex", ptr %this1, i32 0, i32 1
  %call = invoke noalias noundef nonnull ptr @_Znwm(i64 noundef 2528) #18
          to label %invoke.cont unwind label %lpad

invoke.cont:                                      ; preds = %entry
  %0 = load ptr, ptr %default_index_comparator.addr, align 8
  %1 = load i64, ptr %reserved_bytes.addr, align 8
  %2 = load i64, ptr %max_bytes.addr, align 8
  %3 = load i8, ptr %overwrite_key.addr, align 1
  %tobool = trunc i8 %3 to i1
  %4 = load i64, ptr %protection_bytes_per_key.addr, align 8
  invoke void @_ZN7rocksdb19WriteBatchWithIndex3RepC2EPKNS_10ComparatorEmmbm(ptr noundef nonnull align 16 dereferenceable(2520) %call, ptr noundef %0, i64 noundef %1, i64 noundef %2, i1 noundef zeroext %tobool, i64 noundef %4)
          to label %invoke.cont3 unwind label %lpad2

invoke.cont3:                                     ; preds = %invoke.cont
  call void @_ZNSt10unique_ptrIN7rocksdb19WriteBatchWithIndex3RepESt14default_deleteIS2_EEC2IS4_vEEPS2_(ptr noundef nonnull align 8 dereferenceable(8) %rep, ptr noundef %call) #3
  ret void

lpad:                                             ; preds = %entry
  %5 = landingpad { ptr, i32 }
          cleanup
  %6 = extractvalue { ptr, i32 } %5, 0
  store ptr %6, ptr %exn.slot, align 8
  %7 = extractvalue { ptr, i32 } %5, 1
  store i32 %7, ptr %ehselector.slot, align 4
  br label %ehcleanup

lpad2:                                            ; preds = %invoke.cont
  %8 = landingpad { ptr, i32 }
          cleanup
  %9 = extractvalue { ptr, i32 } %8, 0
  store ptr %9, ptr %exn.slot, align 8
  %10 = extractvalue { ptr, i32 } %8, 1
  store i32 %10, ptr %ehselector.slot, align 4
  call void @_ZdlPv(ptr noundef %call) #19
  br label %ehcleanup

ehcleanup:                                        ; preds = %lpad2, %lpad
  call void @_ZN7rocksdb14WriteBatchBaseD2Ev(ptr noundef nonnull align 8 dereferenceable(8) %this1) #3
  br label %eh.resume

eh.resume:                                        ; preds = %ehcleanup
  %exn = load ptr, ptr %exn.slot, align 8
  %sel = load i32, ptr %ehselector.slot, align 4
  %lpad.val = insertvalue { ptr, i32 } poison, ptr %exn, 0
  %lpad.val4 = insertvalue { ptr, i32 } %lpad.val, i32 %sel, 1
  resume { ptr, i32 } %lpad.val4
}

; Function Attrs: mustprogress nounwind uwtable
define linkonce_odr void @_ZN7rocksdb14WriteBatchBaseC2Ev(ptr noundef nonnull align 8 dereferenceable(8) %this) unnamed_addr #1 comdat align 2 {
entry:
  %this.addr = alloca ptr, align 8
  store ptr %this, ptr %this.addr, align 8
  %this1 = load ptr, ptr %this.addr, align 8
  store ptr getelementptr inbounds ({ [39 x ptr] }, ptr @_ZTVN7rocksdb14WriteBatchBaseE, i32 0, inrange i32 0, i32 2), ptr %this1, align 8
  ret void
}

; Function Attrs: nobuiltin allocsize(0)
declare noundef nonnull ptr @_Znwm(i64 noundef) #6

; Function Attrs: mustprogress uwtable
define linkonce_odr void @_ZN7rocksdb19WriteBatchWithIndex3RepC2EPKNS_10ComparatorEmmbm(ptr noundef nonnull align 16 dereferenceable(2520) %this, ptr noundef %index_comparator, i64 noundef %reserved_bytes, i64 noundef %max_bytes, i1 noundef zeroext %_overwrite_key, i64 noundef %protection_bytes_per_key) unnamed_addr #0 comdat align 2 personality ptr @__gxx_personality_v0 {
entry:
  %this.addr = alloca ptr, align 8
  %index_comparator.addr = alloca ptr, align 8
  %reserved_bytes.addr = alloca i64, align 8
  %max_bytes.addr = alloca i64, align 8
  %_overwrite_key.addr = alloca i8, align 1
  %protection_bytes_per_key.addr = alloca i64, align 8
  %exn.slot = alloca ptr, align 8
  %ehselector.slot = alloca i32, align 4
  store ptr %this, ptr %this.addr, align 8
  store ptr %index_comparator, ptr %index_comparator.addr, align 8
  store i64 %reserved_bytes, ptr %reserved_bytes.addr, align 8
  store i64 %max_bytes, ptr %max_bytes.addr, align 8
  %frombool = zext i1 %_overwrite_key to i8
  store i8 %frombool, ptr %_overwrite_key.addr, align 1
  store i64 %protection_bytes_per_key, ptr %protection_bytes_per_key.addr, align 8
  %this1 = load ptr, ptr %this.addr, align 8
  %write_batch = getelementptr inbounds %"struct.rocksdb::WriteBatchWithIndex::Rep", ptr %this1, i32 0, i32 0
  %0 = load i64, ptr %reserved_bytes.addr, align 8
  %1 = load i64, ptr %max_bytes.addr, align 8
  %2 = load i64, ptr %protection_bytes_per_key.addr, align 8
  %3 = load ptr, ptr %index_comparator.addr, align 8
  %tobool = icmp ne ptr %3, null
  br i1 %tobool, label %cond.true, label %cond.false

cond.true:                                        ; preds = %entry
  %4 = load ptr, ptr %index_comparator.addr, align 8
  %call = call noundef i64 @_ZNK7rocksdb10Comparator14timestamp_sizeEv(ptr noundef nonnull align 8 dereferenceable(48) %4)
  br label %cond.end

cond.false:                                       ; preds = %entry
  br label %cond.end

cond.end:                                         ; preds = %cond.false, %cond.true
  %cond = phi i64 [ %call, %cond.true ], [ 0, %cond.false ]
  call void @_ZN7rocksdb18ReadableWriteBatchC2Emmmm(ptr noundef nonnull align 8 dereferenceable(96) %write_batch, i64 noundef %0, i64 noundef %1, i64 noundef %2, i64 noundef %cond)
  %comparator = getelementptr inbounds %"struct.rocksdb::WriteBatchWithIndex::Rep", ptr %this1, i32 0, i32 1
  %5 = load ptr, ptr %index_comparator.addr, align 8
  %write_batch2 = getelementptr inbounds %"struct.rocksdb::WriteBatchWithIndex::Rep", ptr %this1, i32 0, i32 0
  invoke void @_ZN7rocksdb25WriteBatchEntryComparatorC2EPKNS_10ComparatorEPKNS_18ReadableWriteBatchE(ptr noundef nonnull align 8 dereferenceable(40) %comparator, ptr noundef %5, ptr noundef %write_batch2)
          to label %invoke.cont unwind label %lpad

invoke.cont:                                      ; preds = %cond.end
  %arena = getelementptr inbounds %"struct.rocksdb::WriteBatchWithIndex::Rep", ptr %this1, i32 0, i32 3
  invoke void @_ZN7rocksdb5ArenaC1EmPNS_12AllocTrackerEm(ptr noundef nonnull align 16 dereferenceable(2288) %arena, i64 noundef 4096, ptr noundef null, i64 noundef 0)
          to label %invoke.cont4 unwind label %lpad3

invoke.cont4:                                     ; preds = %invoke.cont
  %skip_list = getelementptr inbounds %"struct.rocksdb::WriteBatchWithIndex::Rep", ptr %this1, i32 0, i32 4
  %comparator5 = getelementptr inbounds %"struct.rocksdb::WriteBatchWithIndex::Rep", ptr %this1, i32 0, i32 1
  %arena6 = getelementptr inbounds %"struct.rocksdb::WriteBatchWithIndex::Rep", ptr %this1, i32 0, i32 3
  invoke void @_ZN7rocksdb8SkipListIPNS_20WriteBatchIndexEntryERKNS_25WriteBatchEntryComparatorEEC2ES5_PNS_9AllocatorEii(ptr noundef nonnull align 8 dereferenceable(52) %skip_list, ptr noundef nonnull align 8 dereferenceable(40) %comparator5, ptr noundef %arena6, i32 noundef 12, i32 noundef 4)
          to label %invoke.cont8 unwind label %lpad7

invoke.cont8:                                     ; preds = %invoke.cont4
  %overwrite_key = getelementptr inbounds %"struct.rocksdb::WriteBatchWithIndex::Rep", ptr %this1, i32 0, i32 5
  %6 = load i8, ptr %_overwrite_key.addr, align 1
  %tobool9 = trunc i8 %6 to i1
  %frombool10 = zext i1 %tobool9 to i8
  store i8 %frombool10, ptr %overwrite_key, align 8
  %last_entry_offset = getelementptr inbounds %"struct.rocksdb::WriteBatchWithIndex::Rep", ptr %this1, i32 0, i32 6
  store i64 0, ptr %last_entry_offset, align 16
  %last_sub_batch_offset = getelementptr inbounds %"struct.rocksdb::WriteBatchWithIndex::Rep", ptr %this1, i32 0, i32 7
  store i64 0, ptr %last_sub_batch_offset, align 8
  %sub_batch_cnt = getelementptr inbounds %"struct.rocksdb::WriteBatchWithIndex::Rep", ptr %this1, i32 0, i32 8
  store i64 1, ptr %sub_batch_cnt, align 16
  ret void

lpad:                                             ; preds = %cond.end
  %7 = landingpad { ptr, i32 }
          cleanup
  %8 = extractvalue { ptr, i32 } %7, 0
  store ptr %8, ptr %exn.slot, align 8
  %9 = extractvalue { ptr, i32 } %7, 1
  store i32 %9, ptr %ehselector.slot, align 4
  br label %ehcleanup11

lpad3:                                            ; preds = %invoke.cont
  %10 = landingpad { ptr, i32 }
          cleanup
  %11 = extractvalue { ptr, i32 } %10, 0
  store ptr %11, ptr %exn.slot, align 8
  %12 = extractvalue { ptr, i32 } %10, 1
  store i32 %12, ptr %ehselector.slot, align 4
  br label %ehcleanup

lpad7:                                            ; preds = %invoke.cont4
  %13 = landingpad { ptr, i32 }
          cleanup
  %14 = extractvalue { ptr, i32 } %13, 0
  store ptr %14, ptr %exn.slot, align 8
  %15 = extractvalue { ptr, i32 } %13, 1
  store i32 %15, ptr %ehselector.slot, align 4
  call void @_ZN7rocksdb5ArenaD1Ev(ptr noundef nonnull align 16 dereferenceable(2288) %arena) #3
  br label %ehcleanup

ehcleanup:                                        ; preds = %lpad7, %lpad3
  call void @_ZN7rocksdb25WriteBatchEntryComparatorD2Ev(ptr noundef nonnull align 8 dereferenceable(40) %comparator) #3
  br label %ehcleanup11

ehcleanup11:                                      ; preds = %ehcleanup, %lpad
  call void @_ZN7rocksdb18ReadableWriteBatchD2Ev(ptr noundef nonnull align 8 dereferenceable(96) %write_batch) #3
  br label %eh.resume

eh.resume:                                        ; preds = %ehcleanup11
  %exn = load ptr, ptr %exn.slot, align 8
  %sel = load i32, ptr %ehselector.slot, align 4
  %lpad.val = insertvalue { ptr, i32 } poison, ptr %exn, 0
  %lpad.val12 = insertvalue { ptr, i32 } %lpad.val, i32 %sel, 1
  resume { ptr, i32 } %lpad.val12
}

; Function Attrs: nobuiltin nounwind
declare void @_ZdlPv(ptr noundef) #7

; Function Attrs: mustprogress nounwind uwtable
define linkonce_odr void @_ZNSt10unique_ptrIN7rocksdb19WriteBatchWithIndex3RepESt14default_deleteIS2_EEC2IS4_vEEPS2_(ptr noundef nonnull align 8 dereferenceable(8) %this, ptr noundef %__p) unnamed_addr #1 comdat align 2 personality ptr @__gxx_personality_v0 {
entry:
  %this.addr = alloca ptr, align 8
  %__p.addr = alloca ptr, align 8
  store ptr %this, ptr %this.addr, align 8
  store ptr %__p, ptr %__p.addr, align 8
  %this1 = load ptr, ptr %this.addr, align 8
  %_M_t = getelementptr inbounds %"class.std::unique_ptr.42", ptr %this1, i32 0, i32 0
  %0 = load ptr, ptr %__p.addr, align 8
  invoke void @_ZNSt15__uniq_ptr_dataIN7rocksdb19WriteBatchWithIndex3RepESt14default_deleteIS2_ELb1ELb1EECI2St15__uniq_ptr_implIS2_S4_EEPS2_(ptr noundef nonnull align 8 dereferenceable(8) %_M_t, ptr noundef %0)
          to label %invoke.cont unwind label %terminate.lpad

invoke.cont:                                      ; preds = %entry
  ret void

terminate.lpad:                                   ; preds = %entry
  %1 = landingpad { ptr, i32 }
          catch ptr null
  %2 = extractvalue { ptr, i32 } %1, 0
  call void @__clang_call_terminate(ptr %2) #16
  unreachable
}

; Function Attrs: mustprogress nounwind uwtable
define linkonce_odr void @_ZN7rocksdb14WriteBatchBaseD2Ev(ptr noundef nonnull align 8 dereferenceable(8) %this) unnamed_addr #1 comdat align 2 {
entry:
  %this.addr = alloca ptr, align 8
  store ptr %this, ptr %this.addr, align 8
  ret void
}

; Function Attrs: mustprogress nounwind uwtable
define void @_ZN7rocksdb19WriteBatchWithIndexD2Ev(ptr noundef nonnull align 8 dereferenceable(16) %this) unnamed_addr #1 align 2 {
entry:
  %this.addr = alloca ptr, align 8
  store ptr %this, ptr %this.addr, align 8
  %this1 = load ptr, ptr %this.addr, align 8
  store ptr getelementptr inbounds ({ [39 x ptr] }, ptr @_ZTVN7rocksdb19WriteBatchWithIndexE, i32 0, inrange i32 0, i32 2), ptr %this1, align 8
  %rep = getelementptr inbounds %"class.rocksdb::WriteBatchWithIndex", ptr %this1, i32 0, i32 1
  call void @_ZNSt10unique_ptrIN7rocksdb19WriteBatchWithIndex3RepESt14default_deleteIS2_EED2Ev(ptr noundef nonnull align 8 dereferenceable(8) %rep) #3
  call void @_ZN7rocksdb14WriteBatchBaseD2Ev(ptr noundef nonnull align 8 dereferenceable(8) %this1) #3
  ret void
}

; Function Attrs: mustprogress nounwind uwtable
define linkonce_odr void @_ZNSt10unique_ptrIN7rocksdb19WriteBatchWithIndex3RepESt14default_deleteIS2_EED2Ev(ptr noundef nonnull align 8 dereferenceable(8) %this) unnamed_addr #1 comdat align 2 {
entry:
  %this.addr = alloca ptr, align 8
  %__ptr = alloca ptr, align 8
  store ptr %this, ptr %this.addr, align 8
  %this1 = load ptr, ptr %this.addr, align 8
  %_M_t = getelementptr inbounds %"class.std::unique_ptr.42", ptr %this1, i32 0, i32 0
  %call = call noundef nonnull align 8 dereferenceable(8) ptr @_ZNSt15__uniq_ptr_implIN7rocksdb19WriteBatchWithIndex3RepESt14default_deleteIS2_EE6_M_ptrEv(ptr noundef nonnull align 8 dereferenceable(8) %_M_t) #3
  store ptr %call, ptr %__ptr, align 8
  %0 = load ptr, ptr %__ptr, align 8
  %1 = load ptr, ptr %0, align 8
  %cmp = icmp ne ptr %1, null
  br i1 %cmp, label %if.then, label %if.end

if.then:                                          ; preds = %entry
  %call2 = call noundef nonnull align 1 dereferenceable(1) ptr @_ZNSt10unique_ptrIN7rocksdb19WriteBatchWithIndex3RepESt14default_deleteIS2_EE11get_deleterEv(ptr noundef nonnull align 8 dereferenceable(8) %this1) #3
  %2 = load ptr, ptr %__ptr, align 8
  %3 = load ptr, ptr %2, align 8
  call void @_ZNKSt14default_deleteIN7rocksdb19WriteBatchWithIndex3RepEEclEPS2_(ptr noundef nonnull align 1 dereferenceable(1) %call2, ptr noundef %3)
  br label %if.end

if.end:                                           ; preds = %if.then, %entry
  %4 = load ptr, ptr %__ptr, align 8
  store ptr null, ptr %4, align 8
  ret void
}

; Function Attrs: mustprogress nounwind uwtable
define void @_ZN7rocksdb19WriteBatchWithIndexD0Ev(ptr noundef nonnull align 8 dereferenceable(16) %this) unnamed_addr #1 align 2 {
entry:
  %this.addr = alloca ptr, align 8
  store ptr %this, ptr %this.addr, align 8
  %this1 = load ptr, ptr %this.addr, align 8
  call void @_ZN7rocksdb19WriteBatchWithIndexD1Ev(ptr noundef nonnull align 8 dereferenceable(16) %this1) #3
  call void @_ZdlPv(ptr noundef %this1) #19
  ret void
}

; Function Attrs: mustprogress nounwind uwtable
define void @_ZN7rocksdb19WriteBatchWithIndexC2EOS0_(ptr noundef nonnull align 8 dereferenceable(16) %this, ptr noundef nonnull align 8 dereferenceable(16) %0) unnamed_addr #1 align 2 {
entry:
  %this.addr = alloca ptr, align 8
  %.addr = alloca ptr, align 8
  store ptr %this, ptr %this.addr, align 8
  store ptr %0, ptr %.addr, align 8
  %this1 = load ptr, ptr %this.addr, align 8
  %1 = load ptr, ptr %.addr, align 8
  call void @_ZN7rocksdb14WriteBatchBaseC2ERKS0_(ptr noundef nonnull align 8 dereferenceable(8) %this1, ptr noundef nonnull align 8 dereferenceable(8) %1) #3
  store ptr getelementptr inbounds ({ [39 x ptr] }, ptr @_ZTVN7rocksdb19WriteBatchWithIndexE, i32 0, inrange i32 0, i32 2), ptr %this1, align 8
  %rep = getelementptr inbounds %"class.rocksdb::WriteBatchWithIndex", ptr %this1, i32 0, i32 1
  %2 = load ptr, ptr %.addr, align 8
  %rep2 = getelementptr inbounds %"class.rocksdb::WriteBatchWithIndex", ptr %2, i32 0, i32 1
  call void @_ZNSt10unique_ptrIN7rocksdb19WriteBatchWithIndex3RepESt14default_deleteIS2_EEC2EOS5_(ptr noundef nonnull align 8 dereferenceable(8) %rep, ptr noundef nonnull align 8 dereferenceable(8) %rep2) #3
  ret void
}

; Function Attrs: mustprogress nounwind uwtable
define linkonce_odr void @_ZN7rocksdb14WriteBatchBaseC2ERKS0_(ptr noundef nonnull align 8 dereferenceable(8) %this, ptr noundef nonnull align 8 dereferenceable(8) %0) unnamed_addr #1 comdat align 2 {
entry:
  %this.addr = alloca ptr, align 8
  %.addr = alloca ptr, align 8
  store ptr %this, ptr %this.addr, align 8
  store ptr %0, ptr %.addr, align 8
  %this1 = load ptr, ptr %this.addr, align 8
  store ptr getelementptr inbounds ({ [39 x ptr] }, ptr @_ZTVN7rocksdb14WriteBatchBaseE, i32 0, inrange i32 0, i32 2), ptr %this1, align 8
  ret void
}

; Function Attrs: mustprogress nounwind uwtable
define linkonce_odr void @_ZNSt10unique_ptrIN7rocksdb19WriteBatchWithIndex3RepESt14default_deleteIS2_EEC2EOS5_(ptr noundef nonnull align 8 dereferenceable(8) %this, ptr noundef nonnull align 8 dereferenceable(8) %0) unnamed_addr #1 comdat align 2 {
entry:
  %this.addr = alloca ptr, align 8
  %.addr = alloca ptr, align 8
  store ptr %this, ptr %this.addr, align 8
  store ptr %0, ptr %.addr, align 8
  %this1 = load ptr, ptr %this.addr, align 8
  %_M_t = getelementptr inbounds %"class.std::unique_ptr.42", ptr %this1, i32 0, i32 0
  %1 = load ptr, ptr %.addr, align 8
  %_M_t2 = getelementptr inbounds %"class.std::unique_ptr.42", ptr %1, i32 0, i32 0
  call void @_ZNSt15__uniq_ptr_dataIN7rocksdb19WriteBatchWithIndex3RepESt14default_deleteIS2_ELb1ELb1EEC2EOS5_(ptr noundef nonnull align 8 dereferenceable(8) %_M_t, ptr noundef nonnull align 8 dereferenceable(8) %_M_t2) #3
  ret void
}

; Function Attrs: mustprogress nounwind uwtable
define noundef nonnull align 8 dereferenceable(16) ptr @_ZN7rocksdb19WriteBatchWithIndexaSEOS0_(ptr noundef nonnull align 8 dereferenceable(16) %this, ptr noundef nonnull align 8 dereferenceable(16) %0) #1 align 2 {
entry:
  %this.addr = alloca ptr, align 8
  %.addr = alloca ptr, align 8
  store ptr %this, ptr %this.addr, align 8
  store ptr %0, ptr %.addr, align 8
  %this1 = load ptr, ptr %this.addr, align 8
  %1 = load ptr, ptr %.addr, align 8
  %call = call noundef nonnull align 8 dereferenceable(8) ptr @_ZN7rocksdb14WriteBatchBaseaSERKS0_(ptr noundef nonnull align 8 dereferenceable(8) %this1, ptr noundef nonnull align 8 dereferenceable(8) %1) #3
  %rep = getelementptr inbounds %"class.rocksdb::WriteBatchWithIndex", ptr %this1, i32 0, i32 1
  %2 = load ptr, ptr %.addr, align 8
  %rep2 = getelementptr inbounds %"class.rocksdb::WriteBatchWithIndex", ptr %2, i32 0, i32 1
  %call3 = call noundef nonnull align 8 dereferenceable(8) ptr @_ZNSt10unique_ptrIN7rocksdb19WriteBatchWithIndex3RepESt14default_deleteIS2_EEaSEOS5_(ptr noundef nonnull align 8 dereferenceable(8) %rep, ptr noundef nonnull align 8 dereferenceable(8) %rep2) #3
  ret ptr %this1
}

; Function Attrs: mustprogress nounwind uwtable
define linkonce_odr noundef nonnull align 8 dereferenceable(8) ptr @_ZN7rocksdb14WriteBatchBaseaSERKS0_(ptr noundef nonnull align 8 dereferenceable(8) %this, ptr noundef nonnull align 8 dereferenceable(8) %0) #1 comdat align 2 {
entry:
  %this.addr = alloca ptr, align 8
  %.addr = alloca ptr, align 8
  store ptr %this, ptr %this.addr, align 8
  store ptr %0, ptr %.addr, align 8
  %this1 = load ptr, ptr %this.addr, align 8
  ret ptr %this1
}

; Function Attrs: mustprogress nounwind uwtable
define linkonce_odr noundef nonnull align 8 dereferenceable(8) ptr @_ZNSt10unique_ptrIN7rocksdb19WriteBatchWithIndex3RepESt14default_deleteIS2_EEaSEOS5_(ptr noundef nonnull align 8 dereferenceable(8) %this, ptr noundef nonnull align 8 dereferenceable(8) %0) #1 comdat align 2 {
entry:
  %this.addr = alloca ptr, align 8
  %.addr = alloca ptr, align 8
  store ptr %this, ptr %this.addr, align 8
  store ptr %0, ptr %.addr, align 8
  %this1 = load ptr, ptr %this.addr, align 8
  %_M_t = getelementptr inbounds %"class.std::unique_ptr.42", ptr %this1, i32 0, i32 0
  %1 = load ptr, ptr %.addr, align 8
  %_M_t2 = getelementptr inbounds %"class.std::unique_ptr.42", ptr %1, i32 0, i32 0
  %call = call noundef nonnull align 8 dereferenceable(8) ptr @_ZNSt15__uniq_ptr_dataIN7rocksdb19WriteBatchWithIndex3RepESt14default_deleteIS2_ELb1ELb1EEaSEOS5_(ptr noundef nonnull align 8 dereferenceable(8) %_M_t, ptr noundef nonnull align 8 dereferenceable(8) %_M_t2) #3
  ret ptr %this1
}

; Function Attrs: mustprogress nounwind uwtable
define noundef ptr @_ZN7rocksdb19WriteBatchWithIndex13GetWriteBatchEv(ptr noundef nonnull align 8 dereferenceable(16) %this) unnamed_addr #1 align 2 {
entry:
  %this.addr = alloca ptr, align 8
  store ptr %this, ptr %this.addr, align 8
  %this1 = load ptr, ptr %this.addr, align 8
  %rep = getelementptr inbounds %"class.rocksdb::WriteBatchWithIndex", ptr %this1, i32 0, i32 1
  %call = call noundef ptr @_ZNKSt10unique_ptrIN7rocksdb19WriteBatchWithIndex3RepESt14default_deleteIS2_EEptEv(ptr noundef nonnull align 8 dereferenceable(8) %rep) #3
  %write_batch = getelementptr inbounds %"struct.rocksdb::WriteBatchWithIndex::Rep", ptr %call, i32 0, i32 0
  ret ptr %write_batch
}

; Function Attrs: mustprogress nounwind uwtable
define linkonce_odr noundef ptr @_ZNKSt10unique_ptrIN7rocksdb19WriteBatchWithIndex3RepESt14default_deleteIS2_EEptEv(ptr noundef nonnull align 8 dereferenceable(8) %this) #1 comdat align 2 {
entry:
  %this.addr = alloca ptr, align 8
  store ptr %this, ptr %this.addr, align 8
  %this1 = load ptr, ptr %this.addr, align 8
  %call = call noundef ptr @_ZNKSt10unique_ptrIN7rocksdb19WriteBatchWithIndex3RepESt14default_deleteIS2_EE3getEv(ptr noundef nonnull align 8 dereferenceable(8) %this1) #3
  ret ptr %call
}

; Function Attrs: mustprogress nounwind uwtable
define noundef i64 @_ZN7rocksdb19WriteBatchWithIndex11SubBatchCntEv(ptr noundef nonnull align 8 dereferenceable(16) %this) #1 align 2 {
entry:
  %this.addr = alloca ptr, align 8
  store ptr %this, ptr %this.addr, align 8
  %this1 = load ptr, ptr %this.addr, align 8
  %rep = getelementptr inbounds %"class.rocksdb::WriteBatchWithIndex", ptr %this1, i32 0, i32 1
  %call = call noundef ptr @_ZNKSt10unique_ptrIN7rocksdb19WriteBatchWithIndex3RepESt14default_deleteIS2_EEptEv(ptr noundef nonnull align 8 dereferenceable(8) %rep) #3
  %sub_batch_cnt = getelementptr inbounds %"struct.rocksdb::WriteBatchWithIndex::Rep", ptr %call, i32 0, i32 8
  %0 = load i64, ptr %sub_batch_cnt, align 16
  ret i64 %0
}

; Function Attrs: mustprogress uwtable
define noundef ptr @_ZN7rocksdb19WriteBatchWithIndex11NewIteratorEv(ptr noundef nonnull align 8 dereferenceable(16) %this) #0 align 2 personality ptr @__gxx_personality_v0 {
entry:
  %this.addr = alloca ptr, align 8
  %exn.slot = alloca ptr, align 8
  %ehselector.slot = alloca i32, align 4
  store ptr %this, ptr %this.addr, align 8
  %this1 = load ptr, ptr %this.addr, align 8
  %call = call noalias noundef nonnull ptr @_Znwm(i64 noundef 72) #18
  %rep = getelementptr inbounds %"class.rocksdb::WriteBatchWithIndex", ptr %this1, i32 0, i32 1
  %call2 = call noundef ptr @_ZNKSt10unique_ptrIN7rocksdb19WriteBatchWithIndex3RepESt14default_deleteIS2_EEptEv(ptr noundef nonnull align 8 dereferenceable(8) %rep) #3
  %skip_list = getelementptr inbounds %"struct.rocksdb::WriteBatchWithIndex::Rep", ptr %call2, i32 0, i32 4
  %rep3 = getelementptr inbounds %"class.rocksdb::WriteBatchWithIndex", ptr %this1, i32 0, i32 1
  %call4 = call noundef ptr @_ZNKSt10unique_ptrIN7rocksdb19WriteBatchWithIndex3RepESt14default_deleteIS2_EEptEv(ptr noundef nonnull align 8 dereferenceable(8) %rep3) #3
  %write_batch = getelementptr inbounds %"struct.rocksdb::WriteBatchWithIndex::Rep", ptr %call4, i32 0, i32 0
  %rep5 = getelementptr inbounds %"class.rocksdb::WriteBatchWithIndex", ptr %this1, i32 0, i32 1
  %call6 = call noundef ptr @_ZNKSt10unique_ptrIN7rocksdb19WriteBatchWithIndex3RepESt14default_deleteIS2_EEptEv(ptr noundef nonnull align 8 dereferenceable(8) %rep5) #3
  %comparator = getelementptr inbounds %"struct.rocksdb::WriteBatchWithIndex::Rep", ptr %call6, i32 0, i32 1
  invoke void @_ZN7rocksdb16WBWIIteratorImplC2EjPNS_8SkipListIPNS_20WriteBatchIndexEntryERKNS_25WriteBatchEntryComparatorEEEPKNS_18ReadableWriteBatchEPS4_PKNS_5SliceESF_(ptr noundef nonnull align 8 dereferenceable(65) %call, i32 noundef 0, ptr noundef %skip_list, ptr noundef %write_batch, ptr noundef %comparator, ptr noundef null, ptr noundef null)
          to label %invoke.cont unwind label %lpad

invoke.cont:                                      ; preds = %entry
  ret ptr %call

lpad:                                             ; preds = %entry
  %0 = landingpad { ptr, i32 }
          cleanup
  %1 = extractvalue { ptr, i32 } %0, 0
  store ptr %1, ptr %exn.slot, align 8
  %2 = extractvalue { ptr, i32 } %0, 1
  store i32 %2, ptr %ehselector.slot, align 4
  call void @_ZdlPv(ptr noundef %call) #19
  br label %eh.resume

eh.resume:                                        ; preds = %lpad
  %exn = load ptr, ptr %exn.slot, align 8
  %sel = load i32, ptr %ehselector.slot, align 4
  %lpad.val = insertvalue { ptr, i32 } poison, ptr %exn, 0
  %lpad.val7 = insertvalue { ptr, i32 } %lpad.val, i32 %sel, 1
  resume { ptr, i32 } %lpad.val7
}

; Function Attrs: mustprogress uwtable
define noundef ptr @_ZN7rocksdb19WriteBatchWithIndex11NewIteratorEPNS_18ColumnFamilyHandleE(ptr noundef nonnull align 8 dereferenceable(16) %this, ptr noundef %column_family) #0 align 2 personality ptr @__gxx_personality_v0 {
entry:
  %this.addr = alloca ptr, align 8
  %column_family.addr = alloca ptr, align 8
  %exn.slot = alloca ptr, align 8
  %ehselector.slot = alloca i32, align 4
  store ptr %this, ptr %this.addr, align 8
  store ptr %column_family, ptr %column_family.addr, align 8
  %this1 = load ptr, ptr %this.addr, align 8
  %call = call noalias noundef nonnull ptr @_Znwm(i64 noundef 72) #18
  %0 = load ptr, ptr %column_family.addr, align 8
  %call2 = invoke noundef i32 @_ZN7rocksdb17GetColumnFamilyIDEPNS_18ColumnFamilyHandleE(ptr noundef %0)
          to label %invoke.cont unwind label %lpad

invoke.cont:                                      ; preds = %entry
  %rep = getelementptr inbounds %"class.rocksdb::WriteBatchWithIndex", ptr %this1, i32 0, i32 1
  %call3 = call noundef ptr @_ZNKSt10unique_ptrIN7rocksdb19WriteBatchWithIndex3RepESt14default_deleteIS2_EEptEv(ptr noundef nonnull align 8 dereferenceable(8) %rep) #3
  %skip_list = getelementptr inbounds %"struct.rocksdb::WriteBatchWithIndex::Rep", ptr %call3, i32 0, i32 4
  %rep4 = getelementptr inbounds %"class.rocksdb::WriteBatchWithIndex", ptr %this1, i32 0, i32 1
  %call5 = call noundef ptr @_ZNKSt10unique_ptrIN7rocksdb19WriteBatchWithIndex3RepESt14default_deleteIS2_EEptEv(ptr noundef nonnull align 8 dereferenceable(8) %rep4) #3
  %write_batch = getelementptr inbounds %"struct.rocksdb::WriteBatchWithIndex::Rep", ptr %call5, i32 0, i32 0
  %rep6 = getelementptr inbounds %"class.rocksdb::WriteBatchWithIndex", ptr %this1, i32 0, i32 1
  %call7 = call noundef ptr @_ZNKSt10unique_ptrIN7rocksdb19WriteBatchWithIndex3RepESt14default_deleteIS2_EEptEv(ptr noundef nonnull align 8 dereferenceable(8) %rep6) #3
  %comparator = getelementptr inbounds %"struct.rocksdb::WriteBatchWithIndex::Rep", ptr %call7, i32 0, i32 1
  invoke void @_ZN7rocksdb16WBWIIteratorImplC2EjPNS_8SkipListIPNS_20WriteBatchIndexEntryERKNS_25WriteBatchEntryComparatorEEEPKNS_18ReadableWriteBatchEPS4_PKNS_5SliceESF_(ptr noundef nonnull align 8 dereferenceable(65) %call, i32 noundef %call2, ptr noundef %skip_list, ptr noundef %write_batch, ptr noundef %comparator, ptr noundef null, ptr noundef null)
          to label %invoke.cont8 unwind label %lpad

invoke.cont8:                                     ; preds = %invoke.cont
  ret ptr %call

lpad:                                             ; preds = %invoke.cont, %entry
  %1 = landingpad { ptr, i32 }
          cleanup
  %2 = extractvalue { ptr, i32 } %1, 0
  store ptr %2, ptr %exn.slot, align 8
  %3 = extractvalue { ptr, i32 } %1, 1
  store i32 %3, ptr %ehselector.slot, align 4
  call void @_ZdlPv(ptr noundef %call) #19
  br label %eh.resume

eh.resume:                                        ; preds = %lpad
  %exn = load ptr, ptr %exn.slot, align 8
  %sel = load i32, ptr %ehselector.slot, align 4
  %lpad.val = insertvalue { ptr, i32 } poison, ptr %exn, 0
  %lpad.val9 = insertvalue { ptr, i32 } %lpad.val, i32 %sel, 1
  resume { ptr, i32 } %lpad.val9
}

; Function Attrs: mustprogress uwtable
define noundef ptr @_ZN7rocksdb19WriteBatchWithIndex19NewIteratorWithBaseEPNS_18ColumnFamilyHandleEPNS_8IteratorEPKNS_11ReadOptionsE(ptr noundef nonnull align 8 dereferenceable(16) %this, ptr noundef %column_family, ptr noundef %base_iterator, ptr noundef %read_options) #0 align 2 personality ptr @__gxx_personality_v0 {
entry:
  %this.addr = alloca ptr, align 8
  %column_family.addr = alloca ptr, align 8
  %base_iterator.addr = alloca ptr, align 8
  %read_options.addr = alloca ptr, align 8
  %wbwiii = alloca ptr, align 8
  %exn.slot = alloca ptr, align 8
  %ehselector.slot = alloca i32, align 4
  store ptr %this, ptr %this.addr, align 8
  store ptr %column_family, ptr %column_family.addr, align 8
  store ptr %base_iterator, ptr %base_iterator.addr, align 8
  store ptr %read_options, ptr %read_options.addr, align 8
  %this1 = load ptr, ptr %this.addr, align 8
  %0 = load ptr, ptr %read_options.addr, align 8
  %cmp = icmp ne ptr %0, null
  br i1 %cmp, label %if.then, label %if.else

if.then:                                          ; preds = %entry
  %call = call noalias noundef nonnull ptr @_Znwm(i64 noundef 72) #18
  %1 = load ptr, ptr %column_family.addr, align 8
  %call2 = invoke noundef i32 @_ZN7rocksdb17GetColumnFamilyIDEPNS_18ColumnFamilyHandleE(ptr noundef %1)
          to label %invoke.cont unwind label %lpad

invoke.cont:                                      ; preds = %if.then
  %rep = getelementptr inbounds %"class.rocksdb::WriteBatchWithIndex", ptr %this1, i32 0, i32 1
  %call3 = call noundef ptr @_ZNKSt10unique_ptrIN7rocksdb19WriteBatchWithIndex3RepESt14default_deleteIS2_EEptEv(ptr noundef nonnull align 8 dereferenceable(8) %rep) #3
  %skip_list = getelementptr inbounds %"struct.rocksdb::WriteBatchWithIndex::Rep", ptr %call3, i32 0, i32 4
  %rep4 = getelementptr inbounds %"class.rocksdb::WriteBatchWithIndex", ptr %this1, i32 0, i32 1
  %call5 = call noundef ptr @_ZNKSt10unique_ptrIN7rocksdb19WriteBatchWithIndex3RepESt14default_deleteIS2_EEptEv(ptr noundef nonnull align 8 dereferenceable(8) %rep4) #3
  %write_batch = getelementptr inbounds %"struct.rocksdb::WriteBatchWithIndex::Rep", ptr %call5, i32 0, i32 0
  %rep6 = getelementptr inbounds %"class.rocksdb::WriteBatchWithIndex", ptr %this1, i32 0, i32 1
  %call7 = call noundef ptr @_ZNKSt10unique_ptrIN7rocksdb19WriteBatchWithIndex3RepESt14default_deleteIS2_EEptEv(ptr noundef nonnull align 8 dereferenceable(8) %rep6) #3
  %comparator = getelementptr inbounds %"struct.rocksdb::WriteBatchWithIndex::Rep", ptr %call7, i32 0, i32 1
  %2 = load ptr, ptr %read_options.addr, align 8
  %iterate_lower_bound = getelementptr inbounds %"struct.rocksdb::ReadOptions", ptr %2, i32 0, i32 17
  %3 = load ptr, ptr %iterate_lower_bound, align 8
  %4 = load ptr, ptr %read_options.addr, align 8
  %iterate_upper_bound = getelementptr inbounds %"struct.rocksdb::ReadOptions", ptr %4, i32 0, i32 18
  %5 = load ptr, ptr %iterate_upper_bound, align 8
  invoke void @_ZN7rocksdb16WBWIIteratorImplC2EjPNS_8SkipListIPNS_20WriteBatchIndexEntryERKNS_25WriteBatchEntryComparatorEEEPKNS_18ReadableWriteBatchEPS4_PKNS_5SliceESF_(ptr noundef nonnull align 8 dereferenceable(65) %call, i32 noundef %call2, ptr noundef %skip_list, ptr noundef %write_batch, ptr noundef %comparator, ptr noundef %3, ptr noundef %5)
          to label %invoke.cont8 unwind label %lpad

invoke.cont8:                                     ; preds = %invoke.cont
  store ptr %call, ptr %wbwiii, align 8
  br label %if.end

lpad:                                             ; preds = %invoke.cont, %if.then
  %6 = landingpad { ptr, i32 }
          cleanup
  %7 = extractvalue { ptr, i32 } %6, 0
  store ptr %7, ptr %exn.slot, align 8
  %8 = extractvalue { ptr, i32 } %6, 1
  store i32 %8, ptr %ehselector.slot, align 4
  call void @_ZdlPv(ptr noundef %call) #19
  br label %eh.resume

if.else:                                          ; preds = %entry
  %call9 = call noalias noundef nonnull ptr @_Znwm(i64 noundef 72) #18
  %9 = load ptr, ptr %column_family.addr, align 8
  %call12 = invoke noundef i32 @_ZN7rocksdb17GetColumnFamilyIDEPNS_18ColumnFamilyHandleE(ptr noundef %9)
          to label %invoke.cont11 unwind label %lpad10

invoke.cont11:                                    ; preds = %if.else
  %rep13 = getelementptr inbounds %"class.rocksdb::WriteBatchWithIndex", ptr %this1, i32 0, i32 1
  %call14 = call noundef ptr @_ZNKSt10unique_ptrIN7rocksdb19WriteBatchWithIndex3RepESt14default_deleteIS2_EEptEv(ptr noundef nonnull align 8 dereferenceable(8) %rep13) #3
  %skip_list15 = getelementptr inbounds %"struct.rocksdb::WriteBatchWithIndex::Rep", ptr %call14, i32 0, i32 4
  %rep16 = getelementptr inbounds %"class.rocksdb::WriteBatchWithIndex", ptr %this1, i32 0, i32 1
  %call17 = call noundef ptr @_ZNKSt10unique_ptrIN7rocksdb19WriteBatchWithIndex3RepESt14default_deleteIS2_EEptEv(ptr noundef nonnull align 8 dereferenceable(8) %rep16) #3
  %write_batch18 = getelementptr inbounds %"struct.rocksdb::WriteBatchWithIndex::Rep", ptr %call17, i32 0, i32 0
  %rep19 = getelementptr inbounds %"class.rocksdb::WriteBatchWithIndex", ptr %this1, i32 0, i32 1
  %call20 = call noundef ptr @_ZNKSt10unique_ptrIN7rocksdb19WriteBatchWithIndex3RepESt14default_deleteIS2_EEptEv(ptr noundef nonnull align 8 dereferenceable(8) %rep19) #3
  %comparator21 = getelementptr inbounds %"struct.rocksdb::WriteBatchWithIndex::Rep", ptr %call20, i32 0, i32 1
  invoke void @_ZN7rocksdb16WBWIIteratorImplC2EjPNS_8SkipListIPNS_20WriteBatchIndexEntryERKNS_25WriteBatchEntryComparatorEEEPKNS_18ReadableWriteBatchEPS4_PKNS_5SliceESF_(ptr noundef nonnull align 8 dereferenceable(65) %call9, i32 noundef %call12, ptr noundef %skip_list15, ptr noundef %write_batch18, ptr noundef %comparator21, ptr noundef null, ptr noundef null)
          to label %invoke.cont22 unwind label %lpad10

invoke.cont22:                                    ; preds = %invoke.cont11
  store ptr %call9, ptr %wbwiii, align 8
  br label %if.end

lpad10:                                           ; preds = %invoke.cont11, %if.else
  %10 = landingpad { ptr, i32 }
          cleanup
  %11 = extractvalue { ptr, i32 } %10, 0
  store ptr %11, ptr %exn.slot, align 8
  %12 = extractvalue { ptr, i32 } %10, 1
  store i32 %12, ptr %ehselector.slot, align 4
  call void @_ZdlPv(ptr noundef %call9) #19
  br label %eh.resume

if.end:                                           ; preds = %invoke.cont22, %invoke.cont8
  %call23 = call noalias noundef nonnull ptr @_Znwm(i64 noundef 192) #18
  %13 = load ptr, ptr %column_family.addr, align 8
  %14 = load ptr, ptr %base_iterator.addr, align 8
  %15 = load ptr, ptr %wbwiii, align 8
  %16 = load ptr, ptr %column_family.addr, align 8
  %call26 = invoke noundef ptr @_ZN7rocksdb29GetColumnFamilyUserComparatorEPNS_18ColumnFamilyHandleE(ptr noundef %16)
          to label %invoke.cont25 unwind label %lpad24

invoke.cont25:                                    ; preds = %if.end
  invoke void @_ZN7rocksdb17BaseDeltaIteratorC1EPNS_18ColumnFamilyHandleEPNS_8IteratorEPNS_16WBWIIteratorImplEPKNS_10ComparatorE(ptr noundef nonnull align 8 dereferenceable(192) %call23, ptr noundef %13, ptr noundef %14, ptr noundef %15, ptr noundef %call26)
          to label %invoke.cont27 unwind label %lpad24

invoke.cont27:                                    ; preds = %invoke.cont25
  ret ptr %call23

lpad24:                                           ; preds = %invoke.cont25, %if.end
  %17 = landingpad { ptr, i32 }
          cleanup
  %18 = extractvalue { ptr, i32 } %17, 0
  store ptr %18, ptr %exn.slot, align 8
  %19 = extractvalue { ptr, i32 } %17, 1
  store i32 %19, ptr %ehselector.slot, align 4
  call void @_ZdlPv(ptr noundef %call23) #19
  br label %eh.resume

eh.resume:                                        ; preds = %lpad24, %lpad10, %lpad
  %exn = load ptr, ptr %exn.slot, align 8
  %sel = load i32, ptr %ehselector.slot, align 4
  %lpad.val = insertvalue { ptr, i32 } poison, ptr %exn, 0
  %lpad.val28 = insertvalue { ptr, i32 } %lpad.val, i32 %sel, 1
  resume { ptr, i32 } %lpad.val28
}

declare void @_ZN7rocksdb17BaseDeltaIteratorC1EPNS_18ColumnFamilyHandleEPNS_8IteratorEPNS_16WBWIIteratorImplEPKNS_10ComparatorE(ptr noundef nonnull align 8 dereferenceable(192), ptr noundef, ptr noundef, ptr noundef, ptr noundef) unnamed_addr #4

; Function Attrs: mustprogress uwtable
define noundef ptr @_ZN7rocksdb19WriteBatchWithIndex19NewIteratorWithBaseEPNS_8IteratorE(ptr noundef nonnull align 8 dereferenceable(16) %this, ptr noundef %base_iterator) #0 align 2 personality ptr @__gxx_personality_v0 {
entry:
  %this.addr = alloca ptr, align 8
  %base_iterator.addr = alloca ptr, align 8
  %wbwiii = alloca ptr, align 8
  %exn.slot = alloca ptr, align 8
  %ehselector.slot = alloca i32, align 4
  store ptr %this, ptr %this.addr, align 8
  store ptr %base_iterator, ptr %base_iterator.addr, align 8
  %this1 = load ptr, ptr %this.addr, align 8
  %call = call noalias noundef nonnull ptr @_Znwm(i64 noundef 72) #18
  %rep = getelementptr inbounds %"class.rocksdb::WriteBatchWithIndex", ptr %this1, i32 0, i32 1
  %call2 = call noundef ptr @_ZNKSt10unique_ptrIN7rocksdb19WriteBatchWithIndex3RepESt14default_deleteIS2_EEptEv(ptr noundef nonnull align 8 dereferenceable(8) %rep) #3
  %skip_list = getelementptr inbounds %"struct.rocksdb::WriteBatchWithIndex::Rep", ptr %call2, i32 0, i32 4
  %rep3 = getelementptr inbounds %"class.rocksdb::WriteBatchWithIndex", ptr %this1, i32 0, i32 1
  %call4 = call noundef ptr @_ZNKSt10unique_ptrIN7rocksdb19WriteBatchWithIndex3RepESt14default_deleteIS2_EEptEv(ptr noundef nonnull align 8 dereferenceable(8) %rep3) #3
  %write_batch = getelementptr inbounds %"struct.rocksdb::WriteBatchWithIndex::Rep", ptr %call4, i32 0, i32 0
  %rep5 = getelementptr inbounds %"class.rocksdb::WriteBatchWithIndex", ptr %this1, i32 0, i32 1
  %call6 = call noundef ptr @_ZNKSt10unique_ptrIN7rocksdb19WriteBatchWithIndex3RepESt14default_deleteIS2_EEptEv(ptr noundef nonnull align 8 dereferenceable(8) %rep5) #3
  %comparator = getelementptr inbounds %"struct.rocksdb::WriteBatchWithIndex::Rep", ptr %call6, i32 0, i32 1
  invoke void @_ZN7rocksdb16WBWIIteratorImplC2EjPNS_8SkipListIPNS_20WriteBatchIndexEntryERKNS_25WriteBatchEntryComparatorEEEPKNS_18ReadableWriteBatchEPS4_PKNS_5SliceESF_(ptr noundef nonnull align 8 dereferenceable(65) %call, i32 noundef 0, ptr noundef %skip_list, ptr noundef %write_batch, ptr noundef %comparator, ptr noundef null, ptr noundef null)
          to label %invoke.cont unwind label %lpad

invoke.cont:                                      ; preds = %entry
  store ptr %call, ptr %wbwiii, align 8
  %call7 = call noalias noundef nonnull ptr @_Znwm(i64 noundef 192) #18
  %0 = load ptr, ptr %base_iterator.addr, align 8
  %1 = load ptr, ptr %wbwiii, align 8
  %rep8 = getelementptr inbounds %"class.rocksdb::WriteBatchWithIndex", ptr %this1, i32 0, i32 1
  %call9 = call noundef ptr @_ZNKSt10unique_ptrIN7rocksdb19WriteBatchWithIndex3RepESt14default_deleteIS2_EEptEv(ptr noundef nonnull align 8 dereferenceable(8) %rep8) #3
  %comparator10 = getelementptr inbounds %"struct.rocksdb::WriteBatchWithIndex::Rep", ptr %call9, i32 0, i32 1
  %call13 = invoke noundef ptr @_ZN7rocksdb25WriteBatchEntryComparator18default_comparatorEv(ptr noundef nonnull align 8 dereferenceable(40) %comparator10)
          to label %invoke.cont12 unwind label %lpad11

invoke.cont12:                                    ; preds = %invoke.cont
  invoke void @_ZN7rocksdb17BaseDeltaIteratorC1EPNS_18ColumnFamilyHandleEPNS_8IteratorEPNS_16WBWIIteratorImplEPKNS_10ComparatorE(ptr noundef nonnull align 8 dereferenceable(192) %call7, ptr noundef null, ptr noundef %0, ptr noundef %1, ptr noundef %call13)
          to label %invoke.cont14 unwind label %lpad11

invoke.cont14:                                    ; preds = %invoke.cont12
  ret ptr %call7

lpad:                                             ; preds = %entry
  %2 = landingpad { ptr, i32 }
          cleanup
  %3 = extractvalue { ptr, i32 } %2, 0
  store ptr %3, ptr %exn.slot, align 8
  %4 = extractvalue { ptr, i32 } %2, 1
  store i32 %4, ptr %ehselector.slot, align 4
  call void @_ZdlPv(ptr noundef %call) #19
  br label %eh.resume

lpad11:                                           ; preds = %invoke.cont12, %invoke.cont
  %5 = landingpad { ptr, i32 }
          cleanup
  %6 = extractvalue { ptr, i32 } %5, 0
  store ptr %6, ptr %exn.slot, align 8
  %7 = extractvalue { ptr, i32 } %5, 1
  store i32 %7, ptr %ehselector.slot, align 4
  call void @_ZdlPv(ptr noundef %call7) #19
  br label %eh.resume

eh.resume:                                        ; preds = %lpad11, %lpad
  %exn = load ptr, ptr %exn.slot, align 8
  %sel = load i32, ptr %ehselector.slot, align 4
  %lpad.val = insertvalue { ptr, i32 } poison, ptr %exn, 0
  %lpad.val15 = insertvalue { ptr, i32 } %lpad.val, i32 %sel, 1
  resume { ptr, i32 } %lpad.val15
}

; Function Attrs: mustprogress nounwind uwtable
define linkonce_odr noundef ptr @_ZN7rocksdb25WriteBatchEntryComparator18default_comparatorEv(ptr noundef nonnull align 8 dereferenceable(40) %this) #1 comdat align 2 {
entry:
  %this.addr = alloca ptr, align 8
  store ptr %this, ptr %this.addr, align 8
  %this1 = load ptr, ptr %this.addr, align 8
  %default_comparator_ = getelementptr inbounds %"class.rocksdb::WriteBatchEntryComparator", ptr %this1, i32 0, i32 0
  %0 = load ptr, ptr %default_comparator_, align 8
  ret ptr %0
}

; Function Attrs: mustprogress uwtable
define void @_ZN7rocksdb19WriteBatchWithIndex3PutEPNS_18ColumnFamilyHandleERKNS_5SliceES5_(ptr noalias sret(%"class.rocksdb::Status") align 8 %agg.result, ptr noundef nonnull align 8 dereferenceable(16) %this, ptr noundef %column_family, ptr noundef nonnull align 8 dereferenceable(16) %key, ptr noundef nonnull align 8 dereferenceable(16) %value) unnamed_addr #0 align 2 personality ptr @__gxx_personality_v0 {
entry:
  %result.ptr = alloca ptr, align 8
  %this.addr = alloca ptr, align 8
  %column_family.addr = alloca ptr, align 8
  %key.addr = alloca ptr, align 8
  %value.addr = alloca ptr, align 8
  %nrvo = alloca i1, align 1
  %exn.slot = alloca ptr, align 8
  %ehselector.slot = alloca i32, align 4
  store ptr %agg.result, ptr %result.ptr, align 8
  store ptr %this, ptr %this.addr, align 8
  store ptr %column_family, ptr %column_family.addr, align 8
  store ptr %key, ptr %key.addr, align 8
  store ptr %value, ptr %value.addr, align 8
  %this1 = load ptr, ptr %this.addr, align 8
  %rep = getelementptr inbounds %"class.rocksdb::WriteBatchWithIndex", ptr %this1, i32 0, i32 1
  %call = call noundef ptr @_ZNKSt10unique_ptrIN7rocksdb19WriteBatchWithIndex3RepESt14default_deleteIS2_EEptEv(ptr noundef nonnull align 8 dereferenceable(8) %rep) #3
  call void @_ZN7rocksdb19WriteBatchWithIndex3Rep18SetLastEntryOffsetEv(ptr noundef nonnull align 16 dereferenceable(2520) %call)
  store i1 false, ptr %nrvo, align 1
  %rep2 = getelementptr inbounds %"class.rocksdb::WriteBatchWithIndex", ptr %this1, i32 0, i32 1
  %call3 = call noundef ptr @_ZNKSt10unique_ptrIN7rocksdb19WriteBatchWithIndex3RepESt14default_deleteIS2_EEptEv(ptr noundef nonnull align 8 dereferenceable(8) %rep2) #3
  %write_batch = getelementptr inbounds %"struct.rocksdb::WriteBatchWithIndex::Rep", ptr %call3, i32 0, i32 0
  %0 = load ptr, ptr %column_family.addr, align 8
  %1 = load ptr, ptr %key.addr, align 8
  %2 = load ptr, ptr %value.addr, align 8
  call void @_ZN7rocksdb10WriteBatch3PutEPNS_18ColumnFamilyHandleERKNS_5SliceES5_(ptr sret(%"class.rocksdb::Status") align 8 %agg.result, ptr noundef nonnull align 8 dereferenceable(96) %write_batch, ptr noundef %0, ptr noundef nonnull align 8 dereferenceable(16) %1, ptr noundef nonnull align 8 dereferenceable(16) %2)
  %call4 = invoke noundef zeroext i1 @_ZNK7rocksdb6Status2okEv(ptr noundef nonnull align 8 dereferenceable(16) %agg.result)
          to label %invoke.cont unwind label %lpad

invoke.cont:                                      ; preds = %entry
  br i1 %call4, label %if.then, label %if.end

if.then:                                          ; preds = %invoke.cont
  %rep5 = getelementptr inbounds %"class.rocksdb::WriteBatchWithIndex", ptr %this1, i32 0, i32 1
  %call6 = call noundef ptr @_ZNKSt10unique_ptrIN7rocksdb19WriteBatchWithIndex3RepESt14default_deleteIS2_EEptEv(ptr noundef nonnull align 8 dereferenceable(8) %rep5) #3
  %3 = load ptr, ptr %column_family.addr, align 8
  %4 = load ptr, ptr %key.addr, align 8
  invoke void @_ZN7rocksdb19WriteBatchWithIndex3Rep16AddOrUpdateIndexEPNS_18ColumnFamilyHandleERKNS_5SliceENS_9WriteTypeE(ptr noundef nonnull align 16 dereferenceable(2520) %call6, ptr noundef %3, ptr noundef nonnull align 8 dereferenceable(16) %4, i32 noundef 0)
          to label %invoke.cont7 unwind label %lpad

invoke.cont7:                                     ; preds = %if.then
  br label %if.end

lpad:                                             ; preds = %if.then, %entry
  %5 = landingpad { ptr, i32 }
          cleanup
  %6 = extractvalue { ptr, i32 } %5, 0
  store ptr %6, ptr %exn.slot, align 8
  %7 = extractvalue { ptr, i32 } %5, 1
  store i32 %7, ptr %ehselector.slot, align 4
  call void @_ZN7rocksdb6StatusD2Ev(ptr noundef nonnull align 8 dereferenceable(16) %agg.result) #3
  br label %eh.resume

if.end:                                           ; preds = %invoke.cont7, %invoke.cont
  store i1 true, ptr %nrvo, align 1
  %nrvo.val = load i1, ptr %nrvo, align 1
  br i1 %nrvo.val, label %nrvo.skipdtor, label %nrvo.unused

nrvo.unused:                                      ; preds = %if.end
  call void @_ZN7rocksdb6StatusD2Ev(ptr noundef nonnull align 8 dereferenceable(16) %agg.result) #3
  br label %nrvo.skipdtor

nrvo.skipdtor:                                    ; preds = %nrvo.unused, %if.end
  ret void

eh.resume:                                        ; preds = %lpad
  %exn = load ptr, ptr %exn.slot, align 8
  %sel = load i32, ptr %ehselector.slot, align 4
  %lpad.val = insertvalue { ptr, i32 } poison, ptr %exn, 0
  %lpad.val8 = insertvalue { ptr, i32 } %lpad.val, i32 %sel, 1
  resume { ptr, i32 } %lpad.val8
}

; Function Attrs: mustprogress uwtable
define linkonce_odr void @_ZN7rocksdb19WriteBatchWithIndex3Rep18SetLastEntryOffsetEv(ptr noundef nonnull align 16 dereferenceable(2520) %this) #0 comdat align 2 {
entry:
  %this.addr = alloca ptr, align 8
  store ptr %this, ptr %this.addr, align 8
  %this1 = load ptr, ptr %this.addr, align 8
  %write_batch = getelementptr inbounds %"struct.rocksdb::WriteBatchWithIndex::Rep", ptr %this1, i32 0, i32 0
  %call = call noundef i64 @_ZNK7rocksdb10WriteBatch11GetDataSizeEv(ptr noundef nonnull align 8 dereferenceable(96) %write_batch)
  %last_entry_offset = getelementptr inbounds %"struct.rocksdb::WriteBatchWithIndex::Rep", ptr %this1, i32 0, i32 6
  store i64 %call, ptr %last_entry_offset, align 16
  ret void
}

declare void @_ZN7rocksdb10WriteBatch3PutEPNS_18ColumnFamilyHandleERKNS_5SliceES5_(ptr sret(%"class.rocksdb::Status") align 8, ptr noundef nonnull align 8 dereferenceable(96), ptr noundef, ptr noundef nonnull align 8 dereferenceable(16), ptr noundef nonnull align 8 dereferenceable(16)) unnamed_addr #4

; Function Attrs: mustprogress uwtable
define void @_ZN7rocksdb19WriteBatchWithIndex3PutERKNS_5SliceES3_(ptr noalias sret(%"class.rocksdb::Status") align 8 %agg.result, ptr noundef nonnull align 8 dereferenceable(16) %this, ptr noundef nonnull align 8 dereferenceable(16) %key, ptr noundef nonnull align 8 dereferenceable(16) %value) unnamed_addr #0 align 2 personality ptr @__gxx_personality_v0 {
entry:
  %result.ptr = alloca ptr, align 8
  %this.addr = alloca ptr, align 8
  %key.addr = alloca ptr, align 8
  %value.addr = alloca ptr, align 8
  %nrvo = alloca i1, align 1
  %exn.slot = alloca ptr, align 8
  %ehselector.slot = alloca i32, align 4
  store ptr %agg.result, ptr %result.ptr, align 8
  store ptr %this, ptr %this.addr, align 8
  store ptr %key, ptr %key.addr, align 8
  store ptr %value, ptr %value.addr, align 8
  %this1 = load ptr, ptr %this.addr, align 8
  %rep = getelementptr inbounds %"class.rocksdb::WriteBatchWithIndex", ptr %this1, i32 0, i32 1
  %call = call noundef ptr @_ZNKSt10unique_ptrIN7rocksdb19WriteBatchWithIndex3RepESt14default_deleteIS2_EEptEv(ptr noundef nonnull align 8 dereferenceable(8) %rep) #3
  call void @_ZN7rocksdb19WriteBatchWithIndex3Rep18SetLastEntryOffsetEv(ptr noundef nonnull align 16 dereferenceable(2520) %call)
  store i1 false, ptr %nrvo, align 1
  %rep2 = getelementptr inbounds %"class.rocksdb::WriteBatchWithIndex", ptr %this1, i32 0, i32 1
  %call3 = call noundef ptr @_ZNKSt10unique_ptrIN7rocksdb19WriteBatchWithIndex3RepESt14default_deleteIS2_EEptEv(ptr noundef nonnull align 8 dereferenceable(8) %rep2) #3
  %write_batch = getelementptr inbounds %"struct.rocksdb::WriteBatchWithIndex::Rep", ptr %call3, i32 0, i32 0
  %0 = load ptr, ptr %key.addr, align 8
  %1 = load ptr, ptr %value.addr, align 8
  call void @_ZN7rocksdb10WriteBatch3PutERKNS_5SliceES3_(ptr sret(%"class.rocksdb::Status") align 8 %agg.result, ptr noundef nonnull align 8 dereferenceable(96) %write_batch, ptr noundef nonnull align 8 dereferenceable(16) %0, ptr noundef nonnull align 8 dereferenceable(16) %1)
  %call4 = invoke noundef zeroext i1 @_ZNK7rocksdb6Status2okEv(ptr noundef nonnull align 8 dereferenceable(16) %agg.result)
          to label %invoke.cont unwind label %lpad

invoke.cont:                                      ; preds = %entry
  br i1 %call4, label %if.then, label %if.end

if.then:                                          ; preds = %invoke.cont
  %rep5 = getelementptr inbounds %"class.rocksdb::WriteBatchWithIndex", ptr %this1, i32 0, i32 1
  %call6 = call noundef ptr @_ZNKSt10unique_ptrIN7rocksdb19WriteBatchWithIndex3RepESt14default_deleteIS2_EEptEv(ptr noundef nonnull align 8 dereferenceable(8) %rep5) #3
  %2 = load ptr, ptr %key.addr, align 8
  invoke void @_ZN7rocksdb19WriteBatchWithIndex3Rep16AddOrUpdateIndexERKNS_5SliceENS_9WriteTypeE(ptr noundef nonnull align 16 dereferenceable(2520) %call6, ptr noundef nonnull align 8 dereferenceable(16) %2, i32 noundef 0)
          to label %invoke.cont7 unwind label %lpad

invoke.cont7:                                     ; preds = %if.then
  br label %if.end

lpad:                                             ; preds = %if.then, %entry
  %3 = landingpad { ptr, i32 }
          cleanup
  %4 = extractvalue { ptr, i32 } %3, 0
  store ptr %4, ptr %exn.slot, align 8
  %5 = extractvalue { ptr, i32 } %3, 1
  store i32 %5, ptr %ehselector.slot, align 4
  call void @_ZN7rocksdb6StatusD2Ev(ptr noundef nonnull align 8 dereferenceable(16) %agg.result) #3
  br label %eh.resume

if.end:                                           ; preds = %invoke.cont7, %invoke.cont
  store i1 true, ptr %nrvo, align 1
  %nrvo.val = load i1, ptr %nrvo, align 1
  br i1 %nrvo.val, label %nrvo.skipdtor, label %nrvo.unused

nrvo.unused:                                      ; preds = %if.end
  call void @_ZN7rocksdb6StatusD2Ev(ptr noundef nonnull align 8 dereferenceable(16) %agg.result) #3
  br label %nrvo.skipdtor

nrvo.skipdtor:                                    ; preds = %nrvo.unused, %if.end
  ret void

eh.resume:                                        ; preds = %lpad
  %exn = load ptr, ptr %exn.slot, align 8
  %sel = load i32, ptr %ehselector.slot, align 4
  %lpad.val = insertvalue { ptr, i32 } poison, ptr %exn, 0
  %lpad.val8 = insertvalue { ptr, i32 } %lpad.val, i32 %sel, 1
  resume { ptr, i32 } %lpad.val8
}

; Function Attrs: mustprogress uwtable
define linkonce_odr void @_ZN7rocksdb10WriteBatch3PutERKNS_5SliceES3_(ptr noalias sret(%"class.rocksdb::Status") align 8 %agg.result, ptr noundef nonnull align 8 dereferenceable(96) %this, ptr noundef nonnull align 8 dereferenceable(16) %key, ptr noundef nonnull align 8 dereferenceable(16) %value) unnamed_addr #0 comdat align 2 {
entry:
  %result.ptr = alloca ptr, align 8
  %this.addr = alloca ptr, align 8
  %key.addr = alloca ptr, align 8
  %value.addr = alloca ptr, align 8
  store ptr %agg.result, ptr %result.ptr, align 8
  store ptr %this, ptr %this.addr, align 8
  store ptr %key, ptr %key.addr, align 8
  store ptr %value, ptr %value.addr, align 8
  %this1 = load ptr, ptr %this.addr, align 8
  %0 = load ptr, ptr %key.addr, align 8
  %1 = load ptr, ptr %value.addr, align 8
  %vtable = load ptr, ptr %this1, align 8
  %vfn = getelementptr inbounds ptr, ptr %vtable, i64 2
  %2 = load ptr, ptr %vfn, align 8
  call void %2(ptr sret(%"class.rocksdb::Status") align 8 %agg.result, ptr noundef nonnull align 8 dereferenceable(96) %this1, ptr noundef null, ptr noundef nonnull align 8 dereferenceable(16) %0, ptr noundef nonnull align 8 dereferenceable(16) %1)
  ret void
}

; Function Attrs: mustprogress uwtable
define void @_ZN7rocksdb19WriteBatchWithIndex3PutEPNS_18ColumnFamilyHandleERKNS_5SliceES5_S5_(ptr noalias sret(%"class.rocksdb::Status") align 8 %agg.result, ptr noundef nonnull align 8 dereferenceable(16) %this, ptr noundef %column_family, ptr noundef nonnull align 8 dereferenceable(16) %0, ptr noundef nonnull align 8 dereferenceable(16) %1, ptr noundef nonnull align 8 dereferenceable(16) %2) unnamed_addr #0 align 2 {
entry:
  %result.ptr = alloca ptr, align 8
  %this.addr = alloca ptr, align 8
  %column_family.addr = alloca ptr, align 8
  %.addr = alloca ptr, align 8
  %.addr1 = alloca ptr, align 8
  %.addr2 = alloca ptr, align 8
  %ref.tmp = alloca %"class.rocksdb::Slice", align 8
  %ref.tmp4 = alloca %"class.rocksdb::Slice", align 8
  store ptr %agg.result, ptr %result.ptr, align 8
  store ptr %this, ptr %this.addr, align 8
  store ptr %column_family, ptr %column_family.addr, align 8
  store ptr %0, ptr %.addr, align 8
  store ptr %1, ptr %.addr1, align 8
  store ptr %2, ptr %.addr2, align 8
  %3 = load ptr, ptr %column_family.addr, align 8
  %tobool = icmp ne ptr %3, null
  br i1 %tobool, label %if.end, label %if.then

if.then:                                          ; preds = %entry
  call void @_ZN7rocksdb5SliceC2EPKc(ptr noundef nonnull align 8 dereferenceable(16) %ref.tmp, ptr noundef @.str.2)
  call void @_ZN7rocksdb5SliceC2Ev(ptr noundef nonnull align 8 dereferenceable(16) %ref.tmp4)
  call void @_ZN7rocksdb6Status15InvalidArgumentERKNS_5SliceES3_(ptr sret(%"class.rocksdb::Status") align 8 %agg.result, ptr noundef nonnull align 8 dereferenceable(16) %ref.tmp, ptr noundef nonnull align 8 dereferenceable(16) %ref.tmp4)
  br label %return

if.end:                                           ; preds = %entry
  call void @_ZN7rocksdb6Status12NotSupportedENS0_7SubCodeE(ptr sret(%"class.rocksdb::Status") align 8 %agg.result, i8 noundef zeroext 0)
  br label %return

return:                                           ; preds = %if.end, %if.then
  ret void
}

; Function Attrs: mustprogress uwtable
define linkonce_odr void @_ZN7rocksdb6Status15InvalidArgumentERKNS_5SliceES3_(ptr noalias sret(%"class.rocksdb::Status") align 8 %agg.result, ptr noundef nonnull align 8 dereferenceable(16) %msg, ptr noundef nonnull align 8 dereferenceable(16) %msg2) #0 comdat align 2 {
entry:
  %result.ptr = alloca ptr, align 8
  %msg.addr = alloca ptr, align 8
  %msg2.addr = alloca ptr, align 8
  store ptr %agg.result, ptr %result.ptr, align 8
  store ptr %msg, ptr %msg.addr, align 8
  store ptr %msg2, ptr %msg2.addr, align 8
  %0 = load ptr, ptr %msg.addr, align 8
  %1 = load ptr, ptr %msg2.addr, align 8
  call void @_ZN7rocksdb6StatusC2ENS0_4CodeERKNS_5SliceES4_(ptr noundef nonnull align 8 dereferenceable(16) %agg.result, i8 noundef zeroext 4, ptr noundef nonnull align 8 dereferenceable(16) %0, ptr noundef nonnull align 8 dereferenceable(16) %1)
  ret void
}

; Function Attrs: mustprogress uwtable
define linkonce_odr void @_ZN7rocksdb6Status12NotSupportedENS0_7SubCodeE(ptr noalias sret(%"class.rocksdb::Status") align 8 %agg.result, i8 noundef zeroext %msg) #0 comdat align 2 {
entry:
  %result.ptr = alloca ptr, align 8
  %msg.addr = alloca i8, align 1
  store ptr %agg.result, ptr %result.ptr, align 8
  store i8 %msg, ptr %msg.addr, align 1
  %0 = load i8, ptr %msg.addr, align 1
  call void @_ZN7rocksdb6StatusC2ENS0_4CodeENS0_7SubCodeE(ptr noundef nonnull align 8 dereferenceable(16) %agg.result, i8 noundef zeroext 3, i8 noundef zeroext %0)
  ret void
}

; Function Attrs: mustprogress uwtable
define void @_ZN7rocksdb19WriteBatchWithIndex9PutEntityEPNS_18ColumnFamilyHandleERKNS_5SliceERKSt6vectorINS_10WideColumnESaIS7_EE(ptr noalias sret(%"class.rocksdb::Status") align 8 %agg.result, ptr noundef nonnull align 8 dereferenceable(16) %this, ptr noundef %column_family, ptr noundef nonnull align 8 dereferenceable(16) %key, ptr noundef nonnull align 8 dereferenceable(24) %columns) unnamed_addr #0 align 2 personality ptr @__gxx_personality_v0 {
entry:
  %result.ptr = alloca ptr, align 8
  %this.addr = alloca ptr, align 8
  %column_family.addr = alloca ptr, align 8
  %key.addr = alloca ptr, align 8
  %columns.addr = alloca ptr, align 8
  %nrvo = alloca i1, align 1
  %exn.slot = alloca ptr, align 8
  %ehselector.slot = alloca i32, align 4
  store ptr %agg.result, ptr %result.ptr, align 8
  store ptr %this, ptr %this.addr, align 8
  store ptr %column_family, ptr %column_family.addr, align 8
  store ptr %key, ptr %key.addr, align 8
  store ptr %columns, ptr %columns.addr, align 8
  %this1 = load ptr, ptr %this.addr, align 8
  %rep = getelementptr inbounds %"class.rocksdb::WriteBatchWithIndex", ptr %this1, i32 0, i32 1
  %call = call noundef ptr @_ZNKSt10unique_ptrIN7rocksdb19WriteBatchWithIndex3RepESt14default_deleteIS2_EEptEv(ptr noundef nonnull align 8 dereferenceable(8) %rep) #3
  call void @_ZN7rocksdb19WriteBatchWithIndex3Rep18SetLastEntryOffsetEv(ptr noundef nonnull align 16 dereferenceable(2520) %call)
  store i1 false, ptr %nrvo, align 1
  %rep2 = getelementptr inbounds %"class.rocksdb::WriteBatchWithIndex", ptr %this1, i32 0, i32 1
  %call3 = call noundef ptr @_ZNKSt10unique_ptrIN7rocksdb19WriteBatchWithIndex3RepESt14default_deleteIS2_EEptEv(ptr noundef nonnull align 8 dereferenceable(8) %rep2) #3
  %write_batch = getelementptr inbounds %"struct.rocksdb::WriteBatchWithIndex::Rep", ptr %call3, i32 0, i32 0
  %0 = load ptr, ptr %column_family.addr, align 8
  %1 = load ptr, ptr %key.addr, align 8
  %2 = load ptr, ptr %columns.addr, align 8
  call void @_ZN7rocksdb10WriteBatch9PutEntityEPNS_18ColumnFamilyHandleERKNS_5SliceERKSt6vectorINS_10WideColumnESaIS7_EE(ptr sret(%"class.rocksdb::Status") align 8 %agg.result, ptr noundef nonnull align 8 dereferenceable(96) %write_batch, ptr noundef %0, ptr noundef nonnull align 8 dereferenceable(16) %1, ptr noundef nonnull align 8 dereferenceable(24) %2)
  %call4 = invoke noundef zeroext i1 @_ZNK7rocksdb6Status2okEv(ptr noundef nonnull align 8 dereferenceable(16) %agg.result)
          to label %invoke.cont unwind label %lpad

invoke.cont:                                      ; preds = %entry
  br i1 %call4, label %if.then, label %if.end

if.then:                                          ; preds = %invoke.cont
  %rep5 = getelementptr inbounds %"class.rocksdb::WriteBatchWithIndex", ptr %this1, i32 0, i32 1
  %call6 = call noundef ptr @_ZNKSt10unique_ptrIN7rocksdb19WriteBatchWithIndex3RepESt14default_deleteIS2_EEptEv(ptr noundef nonnull align 8 dereferenceable(8) %rep5) #3
  %3 = load ptr, ptr %column_family.addr, align 8
  %4 = load ptr, ptr %key.addr, align 8
  invoke void @_ZN7rocksdb19WriteBatchWithIndex3Rep16AddOrUpdateIndexEPNS_18ColumnFamilyHandleERKNS_5SliceENS_9WriteTypeE(ptr noundef nonnull align 16 dereferenceable(2520) %call6, ptr noundef %3, ptr noundef nonnull align 8 dereferenceable(16) %4, i32 noundef 7)
          to label %invoke.cont7 unwind label %lpad

invoke.cont7:                                     ; preds = %if.then
  br label %if.end

lpad:                                             ; preds = %if.then, %entry
  %5 = landingpad { ptr, i32 }
          cleanup
  %6 = extractvalue { ptr, i32 } %5, 0
  store ptr %6, ptr %exn.slot, align 8
  %7 = extractvalue { ptr, i32 } %5, 1
  store i32 %7, ptr %ehselector.slot, align 4
  call void @_ZN7rocksdb6StatusD2Ev(ptr noundef nonnull align 8 dereferenceable(16) %agg.result) #3
  br label %eh.resume

if.end:                                           ; preds = %invoke.cont7, %invoke.cont
  store i1 true, ptr %nrvo, align 1
  %nrvo.val = load i1, ptr %nrvo, align 1
  br i1 %nrvo.val, label %nrvo.skipdtor, label %nrvo.unused

nrvo.unused:                                      ; preds = %if.end
  call void @_ZN7rocksdb6StatusD2Ev(ptr noundef nonnull align 8 dereferenceable(16) %agg.result) #3
  br label %nrvo.skipdtor

nrvo.skipdtor:                                    ; preds = %nrvo.unused, %if.end
  ret void

eh.resume:                                        ; preds = %lpad
  %exn = load ptr, ptr %exn.slot, align 8
  %sel = load i32, ptr %ehselector.slot, align 4
  %lpad.val = insertvalue { ptr, i32 } poison, ptr %exn, 0
  %lpad.val8 = insertvalue { ptr, i32 } %lpad.val, i32 %sel, 1
  resume { ptr, i32 } %lpad.val8
}

declare void @_ZN7rocksdb10WriteBatch9PutEntityEPNS_18ColumnFamilyHandleERKNS_5SliceERKSt6vectorINS_10WideColumnESaIS7_EE(ptr sret(%"class.rocksdb::Status") align 8, ptr noundef nonnull align 8 dereferenceable(96), ptr noundef, ptr noundef nonnull align 8 dereferenceable(16), ptr noundef nonnull align 8 dereferenceable(24)) unnamed_addr #4

; Function Attrs: mustprogress uwtable
define void @_ZN7rocksdb19WriteBatchWithIndex6DeleteEPNS_18ColumnFamilyHandleERKNS_5SliceE(ptr noalias sret(%"class.rocksdb::Status") align 8 %agg.result, ptr noundef nonnull align 8 dereferenceable(16) %this, ptr noundef %column_family, ptr noundef nonnull align 8 dereferenceable(16) %key) unnamed_addr #0 align 2 personality ptr @__gxx_personality_v0 {
entry:
  %result.ptr = alloca ptr, align 8
  %this.addr = alloca ptr, align 8
  %column_family.addr = alloca ptr, align 8
  %key.addr = alloca ptr, align 8
  %nrvo = alloca i1, align 1
  %exn.slot = alloca ptr, align 8
  %ehselector.slot = alloca i32, align 4
  store ptr %agg.result, ptr %result.ptr, align 8
  store ptr %this, ptr %this.addr, align 8
  store ptr %column_family, ptr %column_family.addr, align 8
  store ptr %key, ptr %key.addr, align 8
  %this1 = load ptr, ptr %this.addr, align 8
  %rep = getelementptr inbounds %"class.rocksdb::WriteBatchWithIndex", ptr %this1, i32 0, i32 1
  %call = call noundef ptr @_ZNKSt10unique_ptrIN7rocksdb19WriteBatchWithIndex3RepESt14default_deleteIS2_EEptEv(ptr noundef nonnull align 8 dereferenceable(8) %rep) #3
  call void @_ZN7rocksdb19WriteBatchWithIndex3Rep18SetLastEntryOffsetEv(ptr noundef nonnull align 16 dereferenceable(2520) %call)
  store i1 false, ptr %nrvo, align 1
  %rep2 = getelementptr inbounds %"class.rocksdb::WriteBatchWithIndex", ptr %this1, i32 0, i32 1
  %call3 = call noundef ptr @_ZNKSt10unique_ptrIN7rocksdb19WriteBatchWithIndex3RepESt14default_deleteIS2_EEptEv(ptr noundef nonnull align 8 dereferenceable(8) %rep2) #3
  %write_batch = getelementptr inbounds %"struct.rocksdb::WriteBatchWithIndex::Rep", ptr %call3, i32 0, i32 0
  %0 = load ptr, ptr %column_family.addr, align 8
  %1 = load ptr, ptr %key.addr, align 8
  call void @_ZN7rocksdb10WriteBatch6DeleteEPNS_18ColumnFamilyHandleERKNS_5SliceE(ptr sret(%"class.rocksdb::Status") align 8 %agg.result, ptr noundef nonnull align 8 dereferenceable(96) %write_batch, ptr noundef %0, ptr noundef nonnull align 8 dereferenceable(16) %1)
  %call4 = invoke noundef zeroext i1 @_ZNK7rocksdb6Status2okEv(ptr noundef nonnull align 8 dereferenceable(16) %agg.result)
          to label %invoke.cont unwind label %lpad

invoke.cont:                                      ; preds = %entry
  br i1 %call4, label %if.then, label %if.end

if.then:                                          ; preds = %invoke.cont
  %rep5 = getelementptr inbounds %"class.rocksdb::WriteBatchWithIndex", ptr %this1, i32 0, i32 1
  %call6 = call noundef ptr @_ZNKSt10unique_ptrIN7rocksdb19WriteBatchWithIndex3RepESt14default_deleteIS2_EEptEv(ptr noundef nonnull align 8 dereferenceable(8) %rep5) #3
  %2 = load ptr, ptr %column_family.addr, align 8
  %3 = load ptr, ptr %key.addr, align 8
  invoke void @_ZN7rocksdb19WriteBatchWithIndex3Rep16AddOrUpdateIndexEPNS_18ColumnFamilyHandleERKNS_5SliceENS_9WriteTypeE(ptr noundef nonnull align 16 dereferenceable(2520) %call6, ptr noundef %2, ptr noundef nonnull align 8 dereferenceable(16) %3, i32 noundef 2)
          to label %invoke.cont7 unwind label %lpad

invoke.cont7:                                     ; preds = %if.then
  br label %if.end

lpad:                                             ; preds = %if.then, %entry
  %4 = landingpad { ptr, i32 }
          cleanup
  %5 = extractvalue { ptr, i32 } %4, 0
  store ptr %5, ptr %exn.slot, align 8
  %6 = extractvalue { ptr, i32 } %4, 1
  store i32 %6, ptr %ehselector.slot, align 4
  call void @_ZN7rocksdb6StatusD2Ev(ptr noundef nonnull align 8 dereferenceable(16) %agg.result) #3
  br label %eh.resume

if.end:                                           ; preds = %invoke.cont7, %invoke.cont
  store i1 true, ptr %nrvo, align 1
  %nrvo.val = load i1, ptr %nrvo, align 1
  br i1 %nrvo.val, label %nrvo.skipdtor, label %nrvo.unused

nrvo.unused:                                      ; preds = %if.end
  call void @_ZN7rocksdb6StatusD2Ev(ptr noundef nonnull align 8 dereferenceable(16) %agg.result) #3
  br label %nrvo.skipdtor

nrvo.skipdtor:                                    ; preds = %nrvo.unused, %if.end
  ret void

eh.resume:                                        ; preds = %lpad
  %exn = load ptr, ptr %exn.slot, align 8
  %sel = load i32, ptr %ehselector.slot, align 4
  %lpad.val = insertvalue { ptr, i32 } poison, ptr %exn, 0
  %lpad.val8 = insertvalue { ptr, i32 } %lpad.val, i32 %sel, 1
  resume { ptr, i32 } %lpad.val8
}

declare void @_ZN7rocksdb10WriteBatch6DeleteEPNS_18ColumnFamilyHandleERKNS_5SliceE(ptr sret(%"class.rocksdb::Status") align 8, ptr noundef nonnull align 8 dereferenceable(96), ptr noundef, ptr noundef nonnull align 8 dereferenceable(16)) unnamed_addr #4

; Function Attrs: mustprogress uwtable
define void @_ZN7rocksdb19WriteBatchWithIndex6DeleteERKNS_5SliceE(ptr noalias sret(%"class.rocksdb::Status") align 8 %agg.result, ptr noundef nonnull align 8 dereferenceable(16) %this, ptr noundef nonnull align 8 dereferenceable(16) %key) unnamed_addr #0 align 2 personality ptr @__gxx_personality_v0 {
entry:
  %result.ptr = alloca ptr, align 8
  %this.addr = alloca ptr, align 8
  %key.addr = alloca ptr, align 8
  %nrvo = alloca i1, align 1
  %exn.slot = alloca ptr, align 8
  %ehselector.slot = alloca i32, align 4
  store ptr %agg.result, ptr %result.ptr, align 8
  store ptr %this, ptr %this.addr, align 8
  store ptr %key, ptr %key.addr, align 8
  %this1 = load ptr, ptr %this.addr, align 8
  %rep = getelementptr inbounds %"class.rocksdb::WriteBatchWithIndex", ptr %this1, i32 0, i32 1
  %call = call noundef ptr @_ZNKSt10unique_ptrIN7rocksdb19WriteBatchWithIndex3RepESt14default_deleteIS2_EEptEv(ptr noundef nonnull align 8 dereferenceable(8) %rep) #3
  call void @_ZN7rocksdb19WriteBatchWithIndex3Rep18SetLastEntryOffsetEv(ptr noundef nonnull align 16 dereferenceable(2520) %call)
  store i1 false, ptr %nrvo, align 1
  %rep2 = getelementptr inbounds %"class.rocksdb::WriteBatchWithIndex", ptr %this1, i32 0, i32 1
  %call3 = call noundef ptr @_ZNKSt10unique_ptrIN7rocksdb19WriteBatchWithIndex3RepESt14default_deleteIS2_EEptEv(ptr noundef nonnull align 8 dereferenceable(8) %rep2) #3
  %write_batch = getelementptr inbounds %"struct.rocksdb::WriteBatchWithIndex::Rep", ptr %call3, i32 0, i32 0
  %0 = load ptr, ptr %key.addr, align 8
  call void @_ZN7rocksdb10WriteBatch6DeleteERKNS_5SliceE(ptr sret(%"class.rocksdb::Status") align 8 %agg.result, ptr noundef nonnull align 8 dereferenceable(96) %write_batch, ptr noundef nonnull align 8 dereferenceable(16) %0)
  %call4 = invoke noundef zeroext i1 @_ZNK7rocksdb6Status2okEv(ptr noundef nonnull align 8 dereferenceable(16) %agg.result)
          to label %invoke.cont unwind label %lpad

invoke.cont:                                      ; preds = %entry
  br i1 %call4, label %if.then, label %if.end

if.then:                                          ; preds = %invoke.cont
  %rep5 = getelementptr inbounds %"class.rocksdb::WriteBatchWithIndex", ptr %this1, i32 0, i32 1
  %call6 = call noundef ptr @_ZNKSt10unique_ptrIN7rocksdb19WriteBatchWithIndex3RepESt14default_deleteIS2_EEptEv(ptr noundef nonnull align 8 dereferenceable(8) %rep5) #3
  %1 = load ptr, ptr %key.addr, align 8
  invoke void @_ZN7rocksdb19WriteBatchWithIndex3Rep16AddOrUpdateIndexERKNS_5SliceENS_9WriteTypeE(ptr noundef nonnull align 16 dereferenceable(2520) %call6, ptr noundef nonnull align 8 dereferenceable(16) %1, i32 noundef 2)
          to label %invoke.cont7 unwind label %lpad

invoke.cont7:                                     ; preds = %if.then
  br label %if.end

lpad:                                             ; preds = %if.then, %entry
  %2 = landingpad { ptr, i32 }
          cleanup
  %3 = extractvalue { ptr, i32 } %2, 0
  store ptr %3, ptr %exn.slot, align 8
  %4 = extractvalue { ptr, i32 } %2, 1
  store i32 %4, ptr %ehselector.slot, align 4
  call void @_ZN7rocksdb6StatusD2Ev(ptr noundef nonnull align 8 dereferenceable(16) %agg.result) #3
  br label %eh.resume

if.end:                                           ; preds = %invoke.cont7, %invoke.cont
  store i1 true, ptr %nrvo, align 1
  %nrvo.val = load i1, ptr %nrvo, align 1
  br i1 %nrvo.val, label %nrvo.skipdtor, label %nrvo.unused

nrvo.unused:                                      ; preds = %if.end
  call void @_ZN7rocksdb6StatusD2Ev(ptr noundef nonnull align 8 dereferenceable(16) %agg.result) #3
  br label %nrvo.skipdtor

nrvo.skipdtor:                                    ; preds = %nrvo.unused, %if.end
  ret void

eh.resume:                                        ; preds = %lpad
  %exn = load ptr, ptr %exn.slot, align 8
  %sel = load i32, ptr %ehselector.slot, align 4
  %lpad.val = insertvalue { ptr, i32 } poison, ptr %exn, 0
  %lpad.val8 = insertvalue { ptr, i32 } %lpad.val, i32 %sel, 1
  resume { ptr, i32 } %lpad.val8
}

; Function Attrs: mustprogress uwtable
define linkonce_odr void @_ZN7rocksdb10WriteBatch6DeleteERKNS_5SliceE(ptr noalias sret(%"class.rocksdb::Status") align 8 %agg.result, ptr noundef nonnull align 8 dereferenceable(96) %this, ptr noundef nonnull align 8 dereferenceable(16) %key) unnamed_addr #0 comdat align 2 {
entry:
  %result.ptr = alloca ptr, align 8
  %this.addr = alloca ptr, align 8
  %key.addr = alloca ptr, align 8
  store ptr %agg.result, ptr %result.ptr, align 8
  store ptr %this, ptr %this.addr, align 8
  store ptr %key, ptr %key.addr, align 8
  %this1 = load ptr, ptr %this.addr, align 8
  %0 = load ptr, ptr %key.addr, align 8
  %vtable = load ptr, ptr %this1, align 8
  %vfn = getelementptr inbounds ptr, ptr %vtable, i64 15
  %1 = load ptr, ptr %vfn, align 8
  call void %1(ptr sret(%"class.rocksdb::Status") align 8 %agg.result, ptr noundef nonnull align 8 dereferenceable(96) %this1, ptr noundef null, ptr noundef nonnull align 8 dereferenceable(16) %0)
  ret void
}

; Function Attrs: mustprogress uwtable
define void @_ZN7rocksdb19WriteBatchWithIndex6DeleteEPNS_18ColumnFamilyHandleERKNS_5SliceES5_(ptr noalias sret(%"class.rocksdb::Status") align 8 %agg.result, ptr noundef nonnull align 8 dereferenceable(16) %this, ptr noundef %column_family, ptr noundef nonnull align 8 dereferenceable(16) %0, ptr noundef nonnull align 8 dereferenceable(16) %1) unnamed_addr #0 align 2 {
entry:
  %result.ptr = alloca ptr, align 8
  %this.addr = alloca ptr, align 8
  %column_family.addr = alloca ptr, align 8
  %.addr = alloca ptr, align 8
  %.addr1 = alloca ptr, align 8
  %ref.tmp = alloca %"class.rocksdb::Slice", align 8
  %ref.tmp3 = alloca %"class.rocksdb::Slice", align 8
  store ptr %agg.result, ptr %result.ptr, align 8
  store ptr %this, ptr %this.addr, align 8
  store ptr %column_family, ptr %column_family.addr, align 8
  store ptr %0, ptr %.addr, align 8
  store ptr %1, ptr %.addr1, align 8
  %2 = load ptr, ptr %column_family.addr, align 8
  %tobool = icmp ne ptr %2, null
  br i1 %tobool, label %if.end, label %if.then

if.then:                                          ; preds = %entry
  call void @_ZN7rocksdb5SliceC2EPKc(ptr noundef nonnull align 8 dereferenceable(16) %ref.tmp, ptr noundef @.str.2)
  call void @_ZN7rocksdb5SliceC2Ev(ptr noundef nonnull align 8 dereferenceable(16) %ref.tmp3)
  call void @_ZN7rocksdb6Status15InvalidArgumentERKNS_5SliceES3_(ptr sret(%"class.rocksdb::Status") align 8 %agg.result, ptr noundef nonnull align 8 dereferenceable(16) %ref.tmp, ptr noundef nonnull align 8 dereferenceable(16) %ref.tmp3)
  br label %return

if.end:                                           ; preds = %entry
  call void @_ZN7rocksdb6Status12NotSupportedENS0_7SubCodeE(ptr sret(%"class.rocksdb::Status") align 8 %agg.result, i8 noundef zeroext 0)
  br label %return

return:                                           ; preds = %if.end, %if.then
  ret void
}

; Function Attrs: mustprogress uwtable
define void @_ZN7rocksdb19WriteBatchWithIndex12SingleDeleteEPNS_18ColumnFamilyHandleERKNS_5SliceE(ptr noalias sret(%"class.rocksdb::Status") align 8 %agg.result, ptr noundef nonnull align 8 dereferenceable(16) %this, ptr noundef %column_family, ptr noundef nonnull align 8 dereferenceable(16) %key) unnamed_addr #0 align 2 personality ptr @__gxx_personality_v0 {
entry:
  %result.ptr = alloca ptr, align 8
  %this.addr = alloca ptr, align 8
  %column_family.addr = alloca ptr, align 8
  %key.addr = alloca ptr, align 8
  %nrvo = alloca i1, align 1
  %exn.slot = alloca ptr, align 8
  %ehselector.slot = alloca i32, align 4
  store ptr %agg.result, ptr %result.ptr, align 8
  store ptr %this, ptr %this.addr, align 8
  store ptr %column_family, ptr %column_family.addr, align 8
  store ptr %key, ptr %key.addr, align 8
  %this1 = load ptr, ptr %this.addr, align 8
  %rep = getelementptr inbounds %"class.rocksdb::WriteBatchWithIndex", ptr %this1, i32 0, i32 1
  %call = call noundef ptr @_ZNKSt10unique_ptrIN7rocksdb19WriteBatchWithIndex3RepESt14default_deleteIS2_EEptEv(ptr noundef nonnull align 8 dereferenceable(8) %rep) #3
  call void @_ZN7rocksdb19WriteBatchWithIndex3Rep18SetLastEntryOffsetEv(ptr noundef nonnull align 16 dereferenceable(2520) %call)
  store i1 false, ptr %nrvo, align 1
  %rep2 = getelementptr inbounds %"class.rocksdb::WriteBatchWithIndex", ptr %this1, i32 0, i32 1
  %call3 = call noundef ptr @_ZNKSt10unique_ptrIN7rocksdb19WriteBatchWithIndex3RepESt14default_deleteIS2_EEptEv(ptr noundef nonnull align 8 dereferenceable(8) %rep2) #3
  %write_batch = getelementptr inbounds %"struct.rocksdb::WriteBatchWithIndex::Rep", ptr %call3, i32 0, i32 0
  %0 = load ptr, ptr %column_family.addr, align 8
  %1 = load ptr, ptr %key.addr, align 8
  call void @_ZN7rocksdb10WriteBatch12SingleDeleteEPNS_18ColumnFamilyHandleERKNS_5SliceE(ptr sret(%"class.rocksdb::Status") align 8 %agg.result, ptr noundef nonnull align 8 dereferenceable(96) %write_batch, ptr noundef %0, ptr noundef nonnull align 8 dereferenceable(16) %1)
  %call4 = invoke noundef zeroext i1 @_ZNK7rocksdb6Status2okEv(ptr noundef nonnull align 8 dereferenceable(16) %agg.result)
          to label %invoke.cont unwind label %lpad

invoke.cont:                                      ; preds = %entry
  br i1 %call4, label %if.then, label %if.end

if.then:                                          ; preds = %invoke.cont
  %rep5 = getelementptr inbounds %"class.rocksdb::WriteBatchWithIndex", ptr %this1, i32 0, i32 1
  %call6 = call noundef ptr @_ZNKSt10unique_ptrIN7rocksdb19WriteBatchWithIndex3RepESt14default_deleteIS2_EEptEv(ptr noundef nonnull align 8 dereferenceable(8) %rep5) #3
  %2 = load ptr, ptr %column_family.addr, align 8
  %3 = load ptr, ptr %key.addr, align 8
  invoke void @_ZN7rocksdb19WriteBatchWithIndex3Rep16AddOrUpdateIndexEPNS_18ColumnFamilyHandleERKNS_5SliceENS_9WriteTypeE(ptr noundef nonnull align 16 dereferenceable(2520) %call6, ptr noundef %2, ptr noundef nonnull align 8 dereferenceable(16) %3, i32 noundef 3)
          to label %invoke.cont7 unwind label %lpad

invoke.cont7:                                     ; preds = %if.then
  br label %if.end

lpad:                                             ; preds = %if.then, %entry
  %4 = landingpad { ptr, i32 }
          cleanup
  %5 = extractvalue { ptr, i32 } %4, 0
  store ptr %5, ptr %exn.slot, align 8
  %6 = extractvalue { ptr, i32 } %4, 1
  store i32 %6, ptr %ehselector.slot, align 4
  call void @_ZN7rocksdb6StatusD2Ev(ptr noundef nonnull align 8 dereferenceable(16) %agg.result) #3
  br label %eh.resume

if.end:                                           ; preds = %invoke.cont7, %invoke.cont
  store i1 true, ptr %nrvo, align 1
  %nrvo.val = load i1, ptr %nrvo, align 1
  br i1 %nrvo.val, label %nrvo.skipdtor, label %nrvo.unused

nrvo.unused:                                      ; preds = %if.end
  call void @_ZN7rocksdb6StatusD2Ev(ptr noundef nonnull align 8 dereferenceable(16) %agg.result) #3
  br label %nrvo.skipdtor

nrvo.skipdtor:                                    ; preds = %nrvo.unused, %if.end
  ret void

eh.resume:                                        ; preds = %lpad
  %exn = load ptr, ptr %exn.slot, align 8
  %sel = load i32, ptr %ehselector.slot, align 4
  %lpad.val = insertvalue { ptr, i32 } poison, ptr %exn, 0
  %lpad.val8 = insertvalue { ptr, i32 } %lpad.val, i32 %sel, 1
  resume { ptr, i32 } %lpad.val8
}

declare void @_ZN7rocksdb10WriteBatch12SingleDeleteEPNS_18ColumnFamilyHandleERKNS_5SliceE(ptr sret(%"class.rocksdb::Status") align 8, ptr noundef nonnull align 8 dereferenceable(96), ptr noundef, ptr noundef nonnull align 8 dereferenceable(16)) unnamed_addr #4

; Function Attrs: mustprogress uwtable
define void @_ZN7rocksdb19WriteBatchWithIndex12SingleDeleteERKNS_5SliceE(ptr noalias sret(%"class.rocksdb::Status") align 8 %agg.result, ptr noundef nonnull align 8 dereferenceable(16) %this, ptr noundef nonnull align 8 dereferenceable(16) %key) unnamed_addr #0 align 2 personality ptr @__gxx_personality_v0 {
entry:
  %result.ptr = alloca ptr, align 8
  %this.addr = alloca ptr, align 8
  %key.addr = alloca ptr, align 8
  %nrvo = alloca i1, align 1
  %exn.slot = alloca ptr, align 8
  %ehselector.slot = alloca i32, align 4
  store ptr %agg.result, ptr %result.ptr, align 8
  store ptr %this, ptr %this.addr, align 8
  store ptr %key, ptr %key.addr, align 8
  %this1 = load ptr, ptr %this.addr, align 8
  %rep = getelementptr inbounds %"class.rocksdb::WriteBatchWithIndex", ptr %this1, i32 0, i32 1
  %call = call noundef ptr @_ZNKSt10unique_ptrIN7rocksdb19WriteBatchWithIndex3RepESt14default_deleteIS2_EEptEv(ptr noundef nonnull align 8 dereferenceable(8) %rep) #3
  call void @_ZN7rocksdb19WriteBatchWithIndex3Rep18SetLastEntryOffsetEv(ptr noundef nonnull align 16 dereferenceable(2520) %call)
  store i1 false, ptr %nrvo, align 1
  %rep2 = getelementptr inbounds %"class.rocksdb::WriteBatchWithIndex", ptr %this1, i32 0, i32 1
  %call3 = call noundef ptr @_ZNKSt10unique_ptrIN7rocksdb19WriteBatchWithIndex3RepESt14default_deleteIS2_EEptEv(ptr noundef nonnull align 8 dereferenceable(8) %rep2) #3
  %write_batch = getelementptr inbounds %"struct.rocksdb::WriteBatchWithIndex::Rep", ptr %call3, i32 0, i32 0
  %0 = load ptr, ptr %key.addr, align 8
  call void @_ZN7rocksdb10WriteBatch12SingleDeleteERKNS_5SliceE(ptr sret(%"class.rocksdb::Status") align 8 %agg.result, ptr noundef nonnull align 8 dereferenceable(96) %write_batch, ptr noundef nonnull align 8 dereferenceable(16) %0)
  %call4 = invoke noundef zeroext i1 @_ZNK7rocksdb6Status2okEv(ptr noundef nonnull align 8 dereferenceable(16) %agg.result)
          to label %invoke.cont unwind label %lpad

invoke.cont:                                      ; preds = %entry
  br i1 %call4, label %if.then, label %if.end

if.then:                                          ; preds = %invoke.cont
  %rep5 = getelementptr inbounds %"class.rocksdb::WriteBatchWithIndex", ptr %this1, i32 0, i32 1
  %call6 = call noundef ptr @_ZNKSt10unique_ptrIN7rocksdb19WriteBatchWithIndex3RepESt14default_deleteIS2_EEptEv(ptr noundef nonnull align 8 dereferenceable(8) %rep5) #3
  %1 = load ptr, ptr %key.addr, align 8
  invoke void @_ZN7rocksdb19WriteBatchWithIndex3Rep16AddOrUpdateIndexERKNS_5SliceENS_9WriteTypeE(ptr noundef nonnull align 16 dereferenceable(2520) %call6, ptr noundef nonnull align 8 dereferenceable(16) %1, i32 noundef 3)
          to label %invoke.cont7 unwind label %lpad

invoke.cont7:                                     ; preds = %if.then
  br label %if.end

lpad:                                             ; preds = %if.then, %entry
  %2 = landingpad { ptr, i32 }
          cleanup
  %3 = extractvalue { ptr, i32 } %2, 0
  store ptr %3, ptr %exn.slot, align 8
  %4 = extractvalue { ptr, i32 } %2, 1
  store i32 %4, ptr %ehselector.slot, align 4
  call void @_ZN7rocksdb6StatusD2Ev(ptr noundef nonnull align 8 dereferenceable(16) %agg.result) #3
  br label %eh.resume

if.end:                                           ; preds = %invoke.cont7, %invoke.cont
  store i1 true, ptr %nrvo, align 1
  %nrvo.val = load i1, ptr %nrvo, align 1
  br i1 %nrvo.val, label %nrvo.skipdtor, label %nrvo.unused

nrvo.unused:                                      ; preds = %if.end
  call void @_ZN7rocksdb6StatusD2Ev(ptr noundef nonnull align 8 dereferenceable(16) %agg.result) #3
  br label %nrvo.skipdtor

nrvo.skipdtor:                                    ; preds = %nrvo.unused, %if.end
  ret void

eh.resume:                                        ; preds = %lpad
  %exn = load ptr, ptr %exn.slot, align 8
  %sel = load i32, ptr %ehselector.slot, align 4
  %lpad.val = insertvalue { ptr, i32 } poison, ptr %exn, 0
  %lpad.val8 = insertvalue { ptr, i32 } %lpad.val, i32 %sel, 1
  resume { ptr, i32 } %lpad.val8
}

; Function Attrs: mustprogress uwtable
define linkonce_odr void @_ZN7rocksdb10WriteBatch12SingleDeleteERKNS_5SliceE(ptr noalias sret(%"class.rocksdb::Status") align 8 %agg.result, ptr noundef nonnull align 8 dereferenceable(96) %this, ptr noundef nonnull align 8 dereferenceable(16) %key) unnamed_addr #0 comdat align 2 {
entry:
  %result.ptr = alloca ptr, align 8
  %this.addr = alloca ptr, align 8
  %key.addr = alloca ptr, align 8
  store ptr %agg.result, ptr %result.ptr, align 8
  store ptr %this, ptr %this.addr, align 8
  store ptr %key, ptr %key.addr, align 8
  %this1 = load ptr, ptr %this.addr, align 8
  %0 = load ptr, ptr %key.addr, align 8
  %vtable = load ptr, ptr %this1, align 8
  %vfn = getelementptr inbounds ptr, ptr %vtable, i64 20
  %1 = load ptr, ptr %vfn, align 8
  call void %1(ptr sret(%"class.rocksdb::Status") align 8 %agg.result, ptr noundef nonnull align 8 dereferenceable(96) %this1, ptr noundef null, ptr noundef nonnull align 8 dereferenceable(16) %0)
  ret void
}

; Function Attrs: mustprogress uwtable
define void @_ZN7rocksdb19WriteBatchWithIndex12SingleDeleteEPNS_18ColumnFamilyHandleERKNS_5SliceES5_(ptr noalias sret(%"class.rocksdb::Status") align 8 %agg.result, ptr noundef nonnull align 8 dereferenceable(16) %this, ptr noundef %column_family, ptr noundef nonnull align 8 dereferenceable(16) %0, ptr noundef nonnull align 8 dereferenceable(16) %1) unnamed_addr #0 align 2 {
entry:
  %result.ptr = alloca ptr, align 8
  %this.addr = alloca ptr, align 8
  %column_family.addr = alloca ptr, align 8
  %.addr = alloca ptr, align 8
  %.addr1 = alloca ptr, align 8
  %ref.tmp = alloca %"class.rocksdb::Slice", align 8
  %ref.tmp3 = alloca %"class.rocksdb::Slice", align 8
  store ptr %agg.result, ptr %result.ptr, align 8
  store ptr %this, ptr %this.addr, align 8
  store ptr %column_family, ptr %column_family.addr, align 8
  store ptr %0, ptr %.addr, align 8
  store ptr %1, ptr %.addr1, align 8
  %2 = load ptr, ptr %column_family.addr, align 8
  %tobool = icmp ne ptr %2, null
  br i1 %tobool, label %if.end, label %if.then

if.then:                                          ; preds = %entry
  call void @_ZN7rocksdb5SliceC2EPKc(ptr noundef nonnull align 8 dereferenceable(16) %ref.tmp, ptr noundef @.str.2)
  call void @_ZN7rocksdb5SliceC2Ev(ptr noundef nonnull align 8 dereferenceable(16) %ref.tmp3)
  call void @_ZN7rocksdb6Status15InvalidArgumentERKNS_5SliceES3_(ptr sret(%"class.rocksdb::Status") align 8 %agg.result, ptr noundef nonnull align 8 dereferenceable(16) %ref.tmp, ptr noundef nonnull align 8 dereferenceable(16) %ref.tmp3)
  br label %return

if.end:                                           ; preds = %entry
  call void @_ZN7rocksdb6Status12NotSupportedENS0_7SubCodeE(ptr sret(%"class.rocksdb::Status") align 8 %agg.result, i8 noundef zeroext 0)
  br label %return

return:                                           ; preds = %if.end, %if.then
  ret void
}

; Function Attrs: mustprogress uwtable
define void @_ZN7rocksdb19WriteBatchWithIndex5MergeEPNS_18ColumnFamilyHandleERKNS_5SliceES5_(ptr noalias sret(%"class.rocksdb::Status") align 8 %agg.result, ptr noundef nonnull align 8 dereferenceable(16) %this, ptr noundef %column_family, ptr noundef nonnull align 8 dereferenceable(16) %key, ptr noundef nonnull align 8 dereferenceable(16) %value) unnamed_addr #0 align 2 personality ptr @__gxx_personality_v0 {
entry:
  %result.ptr = alloca ptr, align 8
  %this.addr = alloca ptr, align 8
  %column_family.addr = alloca ptr, align 8
  %key.addr = alloca ptr, align 8
  %value.addr = alloca ptr, align 8
  %nrvo = alloca i1, align 1
  %exn.slot = alloca ptr, align 8
  %ehselector.slot = alloca i32, align 4
  store ptr %agg.result, ptr %result.ptr, align 8
  store ptr %this, ptr %this.addr, align 8
  store ptr %column_family, ptr %column_family.addr, align 8
  store ptr %key, ptr %key.addr, align 8
  store ptr %value, ptr %value.addr, align 8
  %this1 = load ptr, ptr %this.addr, align 8
  %rep = getelementptr inbounds %"class.rocksdb::WriteBatchWithIndex", ptr %this1, i32 0, i32 1
  %call = call noundef ptr @_ZNKSt10unique_ptrIN7rocksdb19WriteBatchWithIndex3RepESt14default_deleteIS2_EEptEv(ptr noundef nonnull align 8 dereferenceable(8) %rep) #3
  call void @_ZN7rocksdb19WriteBatchWithIndex3Rep18SetLastEntryOffsetEv(ptr noundef nonnull align 16 dereferenceable(2520) %call)
  store i1 false, ptr %nrvo, align 1
  %rep2 = getelementptr inbounds %"class.rocksdb::WriteBatchWithIndex", ptr %this1, i32 0, i32 1
  %call3 = call noundef ptr @_ZNKSt10unique_ptrIN7rocksdb19WriteBatchWithIndex3RepESt14default_deleteIS2_EEptEv(ptr noundef nonnull align 8 dereferenceable(8) %rep2) #3
  %write_batch = getelementptr inbounds %"struct.rocksdb::WriteBatchWithIndex::Rep", ptr %call3, i32 0, i32 0
  %0 = load ptr, ptr %column_family.addr, align 8
  %1 = load ptr, ptr %key.addr, align 8
  %2 = load ptr, ptr %value.addr, align 8
  call void @_ZN7rocksdb10WriteBatch5MergeEPNS_18ColumnFamilyHandleERKNS_5SliceES5_(ptr sret(%"class.rocksdb::Status") align 8 %agg.result, ptr noundef nonnull align 8 dereferenceable(96) %write_batch, ptr noundef %0, ptr noundef nonnull align 8 dereferenceable(16) %1, ptr noundef nonnull align 8 dereferenceable(16) %2)
  %call4 = invoke noundef zeroext i1 @_ZNK7rocksdb6Status2okEv(ptr noundef nonnull align 8 dereferenceable(16) %agg.result)
          to label %invoke.cont unwind label %lpad

invoke.cont:                                      ; preds = %entry
  br i1 %call4, label %if.then, label %if.end

if.then:                                          ; preds = %invoke.cont
  %rep5 = getelementptr inbounds %"class.rocksdb::WriteBatchWithIndex", ptr %this1, i32 0, i32 1
  %call6 = call noundef ptr @_ZNKSt10unique_ptrIN7rocksdb19WriteBatchWithIndex3RepESt14default_deleteIS2_EEptEv(ptr noundef nonnull align 8 dereferenceable(8) %rep5) #3
  %3 = load ptr, ptr %column_family.addr, align 8
  %4 = load ptr, ptr %key.addr, align 8
  invoke void @_ZN7rocksdb19WriteBatchWithIndex3Rep16AddOrUpdateIndexEPNS_18ColumnFamilyHandleERKNS_5SliceENS_9WriteTypeE(ptr noundef nonnull align 16 dereferenceable(2520) %call6, ptr noundef %3, ptr noundef nonnull align 8 dereferenceable(16) %4, i32 noundef 1)
          to label %invoke.cont7 unwind label %lpad

invoke.cont7:                                     ; preds = %if.then
  br label %if.end

lpad:                                             ; preds = %if.then, %entry
  %5 = landingpad { ptr, i32 }
          cleanup
  %6 = extractvalue { ptr, i32 } %5, 0
  store ptr %6, ptr %exn.slot, align 8
  %7 = extractvalue { ptr, i32 } %5, 1
  store i32 %7, ptr %ehselector.slot, align 4
  call void @_ZN7rocksdb6StatusD2Ev(ptr noundef nonnull align 8 dereferenceable(16) %agg.result) #3
  br label %eh.resume

if.end:                                           ; preds = %invoke.cont7, %invoke.cont
  store i1 true, ptr %nrvo, align 1
  %nrvo.val = load i1, ptr %nrvo, align 1
  br i1 %nrvo.val, label %nrvo.skipdtor, label %nrvo.unused

nrvo.unused:                                      ; preds = %if.end
  call void @_ZN7rocksdb6StatusD2Ev(ptr noundef nonnull align 8 dereferenceable(16) %agg.result) #3
  br label %nrvo.skipdtor

nrvo.skipdtor:                                    ; preds = %nrvo.unused, %if.end
  ret void

eh.resume:                                        ; preds = %lpad
  %exn = load ptr, ptr %exn.slot, align 8
  %sel = load i32, ptr %ehselector.slot, align 4
  %lpad.val = insertvalue { ptr, i32 } poison, ptr %exn, 0
  %lpad.val8 = insertvalue { ptr, i32 } %lpad.val, i32 %sel, 1
  resume { ptr, i32 } %lpad.val8
}

declare void @_ZN7rocksdb10WriteBatch5MergeEPNS_18ColumnFamilyHandleERKNS_5SliceES5_(ptr sret(%"class.rocksdb::Status") align 8, ptr noundef nonnull align 8 dereferenceable(96), ptr noundef, ptr noundef nonnull align 8 dereferenceable(16), ptr noundef nonnull align 8 dereferenceable(16)) unnamed_addr #4

; Function Attrs: mustprogress uwtable
define void @_ZN7rocksdb19WriteBatchWithIndex5MergeERKNS_5SliceES3_(ptr noalias sret(%"class.rocksdb::Status") align 8 %agg.result, ptr noundef nonnull align 8 dereferenceable(16) %this, ptr noundef nonnull align 8 dereferenceable(16) %key, ptr noundef nonnull align 8 dereferenceable(16) %value) unnamed_addr #0 align 2 personality ptr @__gxx_personality_v0 {
entry:
  %result.ptr = alloca ptr, align 8
  %this.addr = alloca ptr, align 8
  %key.addr = alloca ptr, align 8
  %value.addr = alloca ptr, align 8
  %nrvo = alloca i1, align 1
  %exn.slot = alloca ptr, align 8
  %ehselector.slot = alloca i32, align 4
  store ptr %agg.result, ptr %result.ptr, align 8
  store ptr %this, ptr %this.addr, align 8
  store ptr %key, ptr %key.addr, align 8
  store ptr %value, ptr %value.addr, align 8
  %this1 = load ptr, ptr %this.addr, align 8
  %rep = getelementptr inbounds %"class.rocksdb::WriteBatchWithIndex", ptr %this1, i32 0, i32 1
  %call = call noundef ptr @_ZNKSt10unique_ptrIN7rocksdb19WriteBatchWithIndex3RepESt14default_deleteIS2_EEptEv(ptr noundef nonnull align 8 dereferenceable(8) %rep) #3
  call void @_ZN7rocksdb19WriteBatchWithIndex3Rep18SetLastEntryOffsetEv(ptr noundef nonnull align 16 dereferenceable(2520) %call)
  store i1 false, ptr %nrvo, align 1
  %rep2 = getelementptr inbounds %"class.rocksdb::WriteBatchWithIndex", ptr %this1, i32 0, i32 1
  %call3 = call noundef ptr @_ZNKSt10unique_ptrIN7rocksdb19WriteBatchWithIndex3RepESt14default_deleteIS2_EEptEv(ptr noundef nonnull align 8 dereferenceable(8) %rep2) #3
  %write_batch = getelementptr inbounds %"struct.rocksdb::WriteBatchWithIndex::Rep", ptr %call3, i32 0, i32 0
  %0 = load ptr, ptr %key.addr, align 8
  %1 = load ptr, ptr %value.addr, align 8
  call void @_ZN7rocksdb10WriteBatch5MergeERKNS_5SliceES3_(ptr sret(%"class.rocksdb::Status") align 8 %agg.result, ptr noundef nonnull align 8 dereferenceable(96) %write_batch, ptr noundef nonnull align 8 dereferenceable(16) %0, ptr noundef nonnull align 8 dereferenceable(16) %1)
  %call4 = invoke noundef zeroext i1 @_ZNK7rocksdb6Status2okEv(ptr noundef nonnull align 8 dereferenceable(16) %agg.result)
          to label %invoke.cont unwind label %lpad

invoke.cont:                                      ; preds = %entry
  br i1 %call4, label %if.then, label %if.end

if.then:                                          ; preds = %invoke.cont
  %rep5 = getelementptr inbounds %"class.rocksdb::WriteBatchWithIndex", ptr %this1, i32 0, i32 1
  %call6 = call noundef ptr @_ZNKSt10unique_ptrIN7rocksdb19WriteBatchWithIndex3RepESt14default_deleteIS2_EEptEv(ptr noundef nonnull align 8 dereferenceable(8) %rep5) #3
  %2 = load ptr, ptr %key.addr, align 8
  invoke void @_ZN7rocksdb19WriteBatchWithIndex3Rep16AddOrUpdateIndexERKNS_5SliceENS_9WriteTypeE(ptr noundef nonnull align 16 dereferenceable(2520) %call6, ptr noundef nonnull align 8 dereferenceable(16) %2, i32 noundef 1)
          to label %invoke.cont7 unwind label %lpad

invoke.cont7:                                     ; preds = %if.then
  br label %if.end

lpad:                                             ; preds = %if.then, %entry
  %3 = landingpad { ptr, i32 }
          cleanup
  %4 = extractvalue { ptr, i32 } %3, 0
  store ptr %4, ptr %exn.slot, align 8
  %5 = extractvalue { ptr, i32 } %3, 1
  store i32 %5, ptr %ehselector.slot, align 4
  call void @_ZN7rocksdb6StatusD2Ev(ptr noundef nonnull align 8 dereferenceable(16) %agg.result) #3
  br label %eh.resume

if.end:                                           ; preds = %invoke.cont7, %invoke.cont
  store i1 true, ptr %nrvo, align 1
  %nrvo.val = load i1, ptr %nrvo, align 1
  br i1 %nrvo.val, label %nrvo.skipdtor, label %nrvo.unused

nrvo.unused:                                      ; preds = %if.end
  call void @_ZN7rocksdb6StatusD2Ev(ptr noundef nonnull align 8 dereferenceable(16) %agg.result) #3
  br label %nrvo.skipdtor

nrvo.skipdtor:                                    ; preds = %nrvo.unused, %if.end
  ret void

eh.resume:                                        ; preds = %lpad
  %exn = load ptr, ptr %exn.slot, align 8
  %sel = load i32, ptr %ehselector.slot, align 4
  %lpad.val = insertvalue { ptr, i32 } poison, ptr %exn, 0
  %lpad.val8 = insertvalue { ptr, i32 } %lpad.val, i32 %sel, 1
  resume { ptr, i32 } %lpad.val8
}

; Function Attrs: mustprogress uwtable
define linkonce_odr void @_ZN7rocksdb10WriteBatch5MergeERKNS_5SliceES3_(ptr noalias sret(%"class.rocksdb::Status") align 8 %agg.result, ptr noundef nonnull align 8 dereferenceable(96) %this, ptr noundef nonnull align 8 dereferenceable(16) %key, ptr noundef nonnull align 8 dereferenceable(16) %value) unnamed_addr #0 comdat align 2 {
entry:
  %result.ptr = alloca ptr, align 8
  %this.addr = alloca ptr, align 8
  %key.addr = alloca ptr, align 8
  %value.addr = alloca ptr, align 8
  store ptr %agg.result, ptr %result.ptr, align 8
  store ptr %this, ptr %this.addr, align 8
  store ptr %key, ptr %key.addr, align 8
  store ptr %value, ptr %value.addr, align 8
  %this1 = load ptr, ptr %this.addr, align 8
  %0 = load ptr, ptr %key.addr, align 8
  %1 = load ptr, ptr %value.addr, align 8
  %vtable = load ptr, ptr %this1, align 8
  %vfn = getelementptr inbounds ptr, ptr %vtable, i64 10
  %2 = load ptr, ptr %vfn, align 8
  call void %2(ptr sret(%"class.rocksdb::Status") align 8 %agg.result, ptr noundef nonnull align 8 dereferenceable(96) %this1, ptr noundef null, ptr noundef nonnull align 8 dereferenceable(16) %0, ptr noundef nonnull align 8 dereferenceable(16) %1)
  ret void
}

; Function Attrs: mustprogress uwtable
define void @_ZN7rocksdb19WriteBatchWithIndex10PutLogDataERKNS_5SliceE(ptr noalias sret(%"class.rocksdb::Status") align 8 %agg.result, ptr noundef nonnull align 8 dereferenceable(16) %this, ptr noundef nonnull align 8 dereferenceable(16) %blob) unnamed_addr #0 align 2 {
entry:
  %result.ptr = alloca ptr, align 8
  %this.addr = alloca ptr, align 8
  %blob.addr = alloca ptr, align 8
  store ptr %agg.result, ptr %result.ptr, align 8
  store ptr %this, ptr %this.addr, align 8
  store ptr %blob, ptr %blob.addr, align 8
  %this1 = load ptr, ptr %this.addr, align 8
  %rep = getelementptr inbounds %"class.rocksdb::WriteBatchWithIndex", ptr %this1, i32 0, i32 1
  %call = call noundef ptr @_ZNKSt10unique_ptrIN7rocksdb19WriteBatchWithIndex3RepESt14default_deleteIS2_EEptEv(ptr noundef nonnull align 8 dereferenceable(8) %rep) #3
  %write_batch = getelementptr inbounds %"struct.rocksdb::WriteBatchWithIndex::Rep", ptr %call, i32 0, i32 0
  %0 = load ptr, ptr %blob.addr, align 8
  call void @_ZN7rocksdb10WriteBatch10PutLogDataERKNS_5SliceE(ptr sret(%"class.rocksdb::Status") align 8 %agg.result, ptr noundef nonnull align 8 dereferenceable(96) %write_batch, ptr noundef nonnull align 8 dereferenceable(16) %0)
  ret void
}

declare void @_ZN7rocksdb10WriteBatch10PutLogDataERKNS_5SliceE(ptr sret(%"class.rocksdb::Status") align 8, ptr noundef nonnull align 8 dereferenceable(96), ptr noundef nonnull align 8 dereferenceable(16)) unnamed_addr #4

; Function Attrs: mustprogress uwtable
define void @_ZN7rocksdb19WriteBatchWithIndex5ClearEv(ptr noundef nonnull align 8 dereferenceable(16) %this) unnamed_addr #0 align 2 {
entry:
  %this.addr = alloca ptr, align 8
  store ptr %this, ptr %this.addr, align 8
  %this1 = load ptr, ptr %this.addr, align 8
  %rep = getelementptr inbounds %"class.rocksdb::WriteBatchWithIndex", ptr %this1, i32 0, i32 1
  %call = call noundef ptr @_ZNKSt10unique_ptrIN7rocksdb19WriteBatchWithIndex3RepESt14default_deleteIS2_EEptEv(ptr noundef nonnull align 8 dereferenceable(8) %rep) #3
  call void @_ZN7rocksdb19WriteBatchWithIndex3Rep5ClearEv(ptr noundef nonnull align 16 dereferenceable(2520) %call)
  ret void
}

; Function Attrs: mustprogress uwtable
define void @_ZN7rocksdb19WriteBatchWithIndex12GetFromBatchEPNS_18ColumnFamilyHandleERKNS_9DBOptionsERKNS_5SliceEPNSt7__cxx1112basic_stringIcSt11char_traitsIcESaIcEEE(ptr noalias sret(%"class.rocksdb::Status") align 8 %agg.result, ptr noundef nonnull align 8 dereferenceable(16) %this, ptr noundef %column_family, ptr noundef nonnull align 8 dereferenceable(688) %0, ptr noundef nonnull align 8 dereferenceable(16) %key, ptr noundef %value) #0 align 2 personality ptr @__gxx_personality_v0 {
entry:
  %result.ptr = alloca ptr, align 8
  %this.addr = alloca ptr, align 8
  %column_family.addr = alloca ptr, align 8
  %.addr = alloca ptr, align 8
  %key.addr = alloca ptr, align 8
  %value.addr = alloca ptr, align 8
  %merge_context = alloca %"class.rocksdb::MergeContext", align 8
  %nrvo = alloca i1, align 1
  %exn.slot = alloca ptr, align 8
  %ehselector.slot = alloca i32, align 4
  %result = alloca i8, align 1
  %ref.tmp = alloca %"class.rocksdb::Status", align 8
  %ref.tmp8 = alloca %"class.rocksdb::Status", align 8
  store ptr %agg.result, ptr %result.ptr, align 8
  store ptr %this, ptr %this.addr, align 8
  store ptr %column_family, ptr %column_family.addr, align 8
  store ptr %0, ptr %.addr, align 8
  store ptr %key, ptr %key.addr, align 8
  store ptr %value, ptr %value.addr, align 8
  %this1 = load ptr, ptr %this.addr, align 8
  call void @_ZN7rocksdb12MergeContextC2Ev(ptr noundef nonnull align 8 dereferenceable(17) %merge_context) #3
  store i1 false, ptr %nrvo, align 1
  invoke void @_ZN7rocksdb6StatusC2Ev(ptr noundef nonnull align 8 dereferenceable(16) %agg.result)
          to label %invoke.cont unwind label %lpad

invoke.cont:                                      ; preds = %entry
  %1 = load ptr, ptr %column_family.addr, align 8
  %2 = load ptr, ptr %key.addr, align 8
  %3 = load ptr, ptr %value.addr, align 8
  %call = invoke noundef zeroext i8 @_ZN7rocksdb27WriteBatchWithIndexInternal12GetFromBatchEPNS_19WriteBatchWithIndexEPNS_18ColumnFamilyHandleERKNS_5SliceEPNS_12MergeContextEPNSt7__cxx1112basic_stringIcSt11char_traitsIcESaIcEEEPNS_6StatusE(ptr noundef %this1, ptr noundef %1, ptr noundef nonnull align 8 dereferenceable(16) %2, ptr noundef %merge_context, ptr noundef %3, ptr noundef %agg.result)
          to label %invoke.cont3 unwind label %lpad2

invoke.cont3:                                     ; preds = %invoke.cont
  store i8 %call, ptr %result, align 1
  %4 = load i8, ptr %result, align 1
  %conv = zext i8 %4 to i32
  switch i32 %conv, label %sw.default [
    i32 0, label %sw.bb
    i32 4, label %sw.bb
    i32 1, label %sw.bb4
    i32 2, label %sw.bb4
    i32 3, label %sw.bb7
  ]

lpad:                                             ; preds = %entry
  %5 = landingpad { ptr, i32 }
          cleanup
  %6 = extractvalue { ptr, i32 } %5, 0
  store ptr %6, ptr %exn.slot, align 8
  %7 = extractvalue { ptr, i32 } %5, 1
  store i32 %7, ptr %ehselector.slot, align 4
  br label %ehcleanup

lpad2:                                            ; preds = %sw.bb7, %sw.bb4, %invoke.cont
  %8 = landingpad { ptr, i32 }
          cleanup
  %9 = extractvalue { ptr, i32 } %8, 0
  store ptr %9, ptr %exn.slot, align 8
  %10 = extractvalue { ptr, i32 } %8, 1
  store i32 %10, ptr %ehselector.slot, align 4
  call void @_ZN7rocksdb6StatusD2Ev(ptr noundef nonnull align 8 dereferenceable(16) %agg.result) #3
  br label %ehcleanup

sw.bb:                                            ; preds = %invoke.cont3, %invoke.cont3
  br label %sw.epilog

sw.bb4:                                           ; preds = %invoke.cont3, %invoke.cont3
  invoke void @_ZN7rocksdb6Status8NotFoundENS0_7SubCodeE(ptr sret(%"class.rocksdb::Status") align 8 %ref.tmp, i8 noundef zeroext 0)
          to label %invoke.cont5 unwind label %lpad2

invoke.cont5:                                     ; preds = %sw.bb4
  %call6 = call noundef nonnull align 8 dereferenceable(16) ptr @_ZN7rocksdb6StatusaSEOS0_(ptr noundef nonnull align 8 dereferenceable(16) %agg.result, ptr noundef nonnull align 8 dereferenceable(16) %ref.tmp) #3
  call void @_ZN7rocksdb6StatusD2Ev(ptr noundef nonnull align 8 dereferenceable(16) %ref.tmp) #3
  br label %sw.epilog

sw.bb7:                                           ; preds = %invoke.cont3
  invoke void @_ZN7rocksdb6Status15MergeInProgressENS0_7SubCodeE(ptr sret(%"class.rocksdb::Status") align 8 %ref.tmp8, i8 noundef zeroext 0)
          to label %invoke.cont9 unwind label %lpad2

invoke.cont9:                                     ; preds = %sw.bb7
  %call10 = call noundef nonnull align 8 dereferenceable(16) ptr @_ZN7rocksdb6StatusaSEOS0_(ptr noundef nonnull align 8 dereferenceable(16) %agg.result, ptr noundef nonnull align 8 dereferenceable(16) %ref.tmp8) #3
  call void @_ZN7rocksdb6StatusD2Ev(ptr noundef nonnull align 8 dereferenceable(16) %ref.tmp8) #3
  br label %sw.epilog

sw.default:                                       ; preds = %invoke.cont3
  br label %sw.epilog

sw.epilog:                                        ; preds = %sw.default, %invoke.cont9, %invoke.cont5, %sw.bb
  store i1 true, ptr %nrvo, align 1
  %nrvo.val = load i1, ptr %nrvo, align 1
  br i1 %nrvo.val, label %nrvo.skipdtor, label %nrvo.unused

nrvo.unused:                                      ; preds = %sw.epilog
  call void @_ZN7rocksdb6StatusD2Ev(ptr noundef nonnull align 8 dereferenceable(16) %agg.result) #3
  br label %nrvo.skipdtor

nrvo.skipdtor:                                    ; preds = %nrvo.unused, %sw.epilog
  call void @_ZN7rocksdb12MergeContextD2Ev(ptr noundef nonnull align 8 dereferenceable(17) %merge_context) #3
  ret void

ehcleanup:                                        ; preds = %lpad2, %lpad
  call void @_ZN7rocksdb12MergeContextD2Ev(ptr noundef nonnull align 8 dereferenceable(17) %merge_context) #3
  br label %eh.resume

eh.resume:                                        ; preds = %ehcleanup
  %exn = load ptr, ptr %exn.slot, align 8
  %sel = load i32, ptr %ehselector.slot, align 4
  %lpad.val = insertvalue { ptr, i32 } poison, ptr %exn, 0
  %lpad.val11 = insertvalue { ptr, i32 } %lpad.val, i32 %sel, 1
  resume { ptr, i32 } %lpad.val11
}

; Function Attrs: mustprogress nounwind uwtable
define linkonce_odr void @_ZN7rocksdb12MergeContextC2Ev(ptr noundef nonnull align 8 dereferenceable(17) %this) unnamed_addr #1 comdat align 2 {
entry:
  %this.addr = alloca ptr, align 8
  store ptr %this, ptr %this.addr, align 8
  %this1 = load ptr, ptr %this.addr, align 8
  %operand_list_ = getelementptr inbounds %"class.rocksdb::MergeContext", ptr %this1, i32 0, i32 0
  call void @_ZNSt10unique_ptrISt6vectorIN7rocksdb5SliceESaIS2_EESt14default_deleteIS4_EEC2IS6_vEEv(ptr noundef nonnull align 8 dereferenceable(8) %operand_list_) #3
  %copied_operands_ = getelementptr inbounds %"class.rocksdb::MergeContext", ptr %this1, i32 0, i32 1
  call void @_ZNSt10unique_ptrISt6vectorIS_INSt7__cxx1112basic_stringIcSt11char_traitsIcESaIcEEESt14default_deleteIS6_EESaIS9_EES7_ISB_EEC2ISC_vEEv(ptr noundef nonnull align 8 dereferenceable(8) %copied_operands_) #3
  %operands_reversed_ = getelementptr inbounds %"class.rocksdb::MergeContext", ptr %this1, i32 0, i32 2
  store i8 1, ptr %operands_reversed_, align 8
  ret void
}

declare noundef zeroext i8 @_ZN7rocksdb27WriteBatchWithIndexInternal12GetFromBatchEPNS_19WriteBatchWithIndexEPNS_18ColumnFamilyHandleERKNS_5SliceEPNS_12MergeContextEPNSt7__cxx1112basic_stringIcSt11char_traitsIcESaIcEEEPNS_6StatusE(ptr noundef, ptr noundef, ptr noundef nonnull align 8 dereferenceable(16), ptr noundef, ptr noundef, ptr noundef) #4

; Function Attrs: mustprogress uwtable
define linkonce_odr void @_ZN7rocksdb6Status8NotFoundENS0_7SubCodeE(ptr noalias sret(%"class.rocksdb::Status") align 8 %agg.result, i8 noundef zeroext %msg) #0 comdat align 2 {
entry:
  %result.ptr = alloca ptr, align 8
  %msg.addr = alloca i8, align 1
  store ptr %agg.result, ptr %result.ptr, align 8
  store i8 %msg, ptr %msg.addr, align 1
  %0 = load i8, ptr %msg.addr, align 1
  call void @_ZN7rocksdb6StatusC2ENS0_4CodeENS0_7SubCodeE(ptr noundef nonnull align 8 dereferenceable(16) %agg.result, i8 noundef zeroext 1, i8 noundef zeroext %0)
  ret void
}

; Function Attrs: mustprogress uwtable
define linkonce_odr void @_ZN7rocksdb6Status15MergeInProgressENS0_7SubCodeE(ptr noalias sret(%"class.rocksdb::Status") align 8 %agg.result, i8 noundef zeroext %msg) #0 comdat align 2 {
entry:
  %result.ptr = alloca ptr, align 8
  %msg.addr = alloca i8, align 1
  store ptr %agg.result, ptr %result.ptr, align 8
  store i8 %msg, ptr %msg.addr, align 1
  %0 = load i8, ptr %msg.addr, align 1
  call void @_ZN7rocksdb6StatusC2ENS0_4CodeENS0_7SubCodeE(ptr noundef nonnull align 8 dereferenceable(16) %agg.result, i8 noundef zeroext 6, i8 noundef zeroext %0)
  ret void
}

; Function Attrs: mustprogress nounwind uwtable
define linkonce_odr void @_ZN7rocksdb12MergeContextD2Ev(ptr noundef nonnull align 8 dereferenceable(17) %this) unnamed_addr #1 comdat align 2 {
entry:
  %this.addr = alloca ptr, align 8
  store ptr %this, ptr %this.addr, align 8
  %this1 = load ptr, ptr %this.addr, align 8
  %copied_operands_ = getelementptr inbounds %"class.rocksdb::MergeContext", ptr %this1, i32 0, i32 1
  call void @_ZNSt10unique_ptrISt6vectorIS_INSt7__cxx1112basic_stringIcSt11char_traitsIcESaIcEEESt14default_deleteIS6_EESaIS9_EES7_ISB_EED2Ev(ptr noundef nonnull align 8 dereferenceable(8) %copied_operands_) #3
  %operand_list_ = getelementptr inbounds %"class.rocksdb::MergeContext", ptr %this1, i32 0, i32 0
  call void @_ZNSt10unique_ptrISt6vectorIN7rocksdb5SliceESaIS2_EESt14default_deleteIS4_EED2Ev(ptr noundef nonnull align 8 dereferenceable(8) %operand_list_) #3
  ret void
}

; Function Attrs: mustprogress uwtable
define void @_ZN7rocksdb19WriteBatchWithIndex17GetFromBatchAndDBEPNS_2DBERKNS_11ReadOptionsERKNS_5SliceEPNSt7__cxx1112basic_stringIcSt11char_traitsIcESaIcEEE(ptr noalias sret(%"class.rocksdb::Status") align 8 %agg.result, ptr noundef nonnull align 8 dereferenceable(16) %this, ptr noundef %db, ptr noundef nonnull align 8 dereferenceable(154) %read_options, ptr noundef nonnull align 8 dereferenceable(16) %key, ptr noundef %value) #0 align 2 personality ptr @__gxx_personality_v0 {
entry:
  %result.ptr = alloca ptr, align 8
  %this.addr = alloca ptr, align 8
  %db.addr = alloca ptr, align 8
  %read_options.addr = alloca ptr, align 8
  %key.addr = alloca ptr, align 8
  %value.addr = alloca ptr, align 8
  %pinnable_val = alloca %"class.rocksdb::PinnableSlice", align 8
  %nrvo = alloca i1, align 1
  %exn.slot = alloca ptr, align 8
  %ehselector.slot = alloca i32, align 4
  store ptr %agg.result, ptr %result.ptr, align 8
  store ptr %this, ptr %this.addr, align 8
  store ptr %db, ptr %db.addr, align 8
  store ptr %read_options, ptr %read_options.addr, align 8
  store ptr %key, ptr %key.addr, align 8
  store ptr %value, ptr %value.addr, align 8
  %this1 = load ptr, ptr %this.addr, align 8
  %0 = load ptr, ptr %value.addr, align 8
  call void @_ZN7rocksdb13PinnableSliceC2EPNSt7__cxx1112basic_stringIcSt11char_traitsIcESaIcEEE(ptr noundef nonnull align 8 dereferenceable(89) %pinnable_val, ptr noundef %0)
  store i1 false, ptr %nrvo, align 1
  %1 = load ptr, ptr %db.addr, align 8
  %2 = load ptr, ptr %read_options.addr, align 8
  %3 = load ptr, ptr %db.addr, align 8
  %vtable = load ptr, ptr %3, align 8
  %vfn = getelementptr inbounds ptr, ptr %vtable, i64 133
  %4 = load ptr, ptr %vfn, align 8
  %call = invoke noundef ptr %4(ptr noundef nonnull align 8 dereferenceable(8) %3)
          to label %invoke.cont unwind label %lpad

invoke.cont:                                      ; preds = %entry
  %5 = load ptr, ptr %key.addr, align 8
  invoke void @_ZN7rocksdb19WriteBatchWithIndex17GetFromBatchAndDBEPNS_2DBERKNS_11ReadOptionsEPNS_18ColumnFamilyHandleERKNS_5SliceEPNS_13PinnableSliceE(ptr sret(%"class.rocksdb::Status") align 8 %agg.result, ptr noundef nonnull align 8 dereferenceable(16) %this1, ptr noundef %1, ptr noundef nonnull align 8 dereferenceable(154) %2, ptr noundef %call, ptr noundef nonnull align 8 dereferenceable(16) %5, ptr noundef %pinnable_val)
          to label %invoke.cont2 unwind label %lpad

invoke.cont2:                                     ; preds = %invoke.cont
  %call5 = invoke noundef zeroext i1 @_ZNK7rocksdb6Status2okEv(ptr noundef nonnull align 8 dereferenceable(16) %agg.result)
          to label %invoke.cont4 unwind label %lpad3

invoke.cont4:                                     ; preds = %invoke.cont2
  br i1 %call5, label %land.lhs.true, label %if.end

land.lhs.true:                                    ; preds = %invoke.cont4
  %call7 = invoke noundef zeroext i1 @_ZNK7rocksdb13PinnableSlice8IsPinnedEv(ptr noundef nonnull align 8 dereferenceable(89) %pinnable_val)
          to label %invoke.cont6 unwind label %lpad3

invoke.cont6:                                     ; preds = %land.lhs.true
  br i1 %call7, label %if.then, label %if.end

if.then:                                          ; preds = %invoke.cont6
  %6 = load ptr, ptr %value.addr, align 8
  %call9 = invoke noundef ptr @_ZNK7rocksdb5Slice4dataEv(ptr noundef nonnull align 8 dereferenceable(16) %pinnable_val)
          to label %invoke.cont8 unwind label %lpad3

invoke.cont8:                                     ; preds = %if.then
  %call11 = invoke noundef i64 @_ZNK7rocksdb5Slice4sizeEv(ptr noundef nonnull align 8 dereferenceable(16) %pinnable_val)
          to label %invoke.cont10 unwind label %lpad3

invoke.cont10:                                    ; preds = %invoke.cont8
  %call13 = invoke noundef nonnull align 8 dereferenceable(32) ptr @_ZNSt7__cxx1112basic_stringIcSt11char_traitsIcESaIcEE6assignEPKcm(ptr noundef nonnull align 8 dereferenceable(32) %6, ptr noundef %call9, i64 noundef %call11)
          to label %invoke.cont12 unwind label %lpad3

invoke.cont12:                                    ; preds = %invoke.cont10
  br label %if.end

lpad:                                             ; preds = %invoke.cont, %entry
  %7 = landingpad { ptr, i32 }
          cleanup
  %8 = extractvalue { ptr, i32 } %7, 0
  store ptr %8, ptr %exn.slot, align 8
  %9 = extractvalue { ptr, i32 } %7, 1
  store i32 %9, ptr %ehselector.slot, align 4
  br label %ehcleanup

lpad3:                                            ; preds = %invoke.cont10, %invoke.cont8, %if.then, %land.lhs.true, %invoke.cont2
  %10 = landingpad { ptr, i32 }
          cleanup
  %11 = extractvalue { ptr, i32 } %10, 0
  store ptr %11, ptr %exn.slot, align 8
  %12 = extractvalue { ptr, i32 } %10, 1
  store i32 %12, ptr %ehselector.slot, align 4
  call void @_ZN7rocksdb6StatusD2Ev(ptr noundef nonnull align 8 dereferenceable(16) %agg.result) #3
  br label %ehcleanup

if.end:                                           ; preds = %invoke.cont12, %invoke.cont6, %invoke.cont4
  store i1 true, ptr %nrvo, align 1
  %nrvo.val = load i1, ptr %nrvo, align 1
  br i1 %nrvo.val, label %nrvo.skipdtor, label %nrvo.unused

nrvo.unused:                                      ; preds = %if.end
  call void @_ZN7rocksdb6StatusD2Ev(ptr noundef nonnull align 8 dereferenceable(16) %agg.result) #3
  br label %nrvo.skipdtor

nrvo.skipdtor:                                    ; preds = %nrvo.unused, %if.end
  call void @_ZN7rocksdb13PinnableSliceD2Ev(ptr noundef nonnull align 8 dereferenceable(89) %pinnable_val) #3
  ret void

ehcleanup:                                        ; preds = %lpad3, %lpad
  call void @_ZN7rocksdb13PinnableSliceD2Ev(ptr noundef nonnull align 8 dereferenceable(89) %pinnable_val) #3
  br label %eh.resume

eh.resume:                                        ; preds = %ehcleanup
  %exn = load ptr, ptr %exn.slot, align 8
  %sel = load i32, ptr %ehselector.slot, align 4
  %lpad.val = insertvalue { ptr, i32 } poison, ptr %exn, 0
  %lpad.val14 = insertvalue { ptr, i32 } %lpad.val, i32 %sel, 1
  resume { ptr, i32 } %lpad.val14
}

; Function Attrs: mustprogress uwtable
define linkonce_odr void @_ZN7rocksdb13PinnableSliceC2EPNSt7__cxx1112basic_stringIcSt11char_traitsIcESaIcEEE(ptr noundef nonnull align 8 dereferenceable(89) %this, ptr noundef %buf) unnamed_addr #0 comdat align 2 {
entry:
  %this.addr = alloca ptr, align 8
  %buf.addr = alloca ptr, align 8
  store ptr %this, ptr %this.addr, align 8
  store ptr %buf, ptr %buf.addr, align 8
  %this1 = load ptr, ptr %this.addr, align 8
  call void @_ZN7rocksdb5SliceC2Ev(ptr noundef nonnull align 8 dereferenceable(16) %this1)
  %0 = getelementptr inbounds i8, ptr %this1, i64 16
  call void @_ZN7rocksdb9CleanableC2Ev(ptr noundef nonnull align 8 dereferenceable(32) %0)
  %self_space_ = getelementptr inbounds %"class.rocksdb::PinnableSlice", ptr %this1, i32 0, i32 2
  call void @_ZNSt7__cxx1112basic_stringIcSt11char_traitsIcESaIcEEC1Ev(ptr noundef nonnull align 8 dereferenceable(32) %self_space_) #3
  %pinned_ = getelementptr inbounds %"class.rocksdb::PinnableSlice", ptr %this1, i32 0, i32 4
  store i8 0, ptr %pinned_, align 8
  %1 = load ptr, ptr %buf.addr, align 8
  %buf_ = getelementptr inbounds %"class.rocksdb::PinnableSlice", ptr %this1, i32 0, i32 3
  store ptr %1, ptr %buf_, align 8
  ret void
}

; Function Attrs: mustprogress uwtable
define void @_ZN7rocksdb19WriteBatchWithIndex17GetFromBatchAndDBEPNS_2DBERKNS_11ReadOptionsEPNS_18ColumnFamilyHandleERKNS_5SliceEPNS_13PinnableSliceE(ptr noalias sret(%"class.rocksdb::Status") align 8 %agg.result, ptr noundef nonnull align 8 dereferenceable(16) %this, ptr noundef %db, ptr noundef nonnull align 8 dereferenceable(154) %read_options, ptr noundef %column_family, ptr noundef nonnull align 8 dereferenceable(16) %key, ptr noundef %pinnable_val) #0 align 2 {
entry:
  %result.ptr = alloca ptr, align 8
  %this.addr = alloca ptr, align 8
  %db.addr = alloca ptr, align 8
  %read_options.addr = alloca ptr, align 8
  %column_family.addr = alloca ptr, align 8
  %key.addr = alloca ptr, align 8
  %pinnable_val.addr = alloca ptr, align 8
  store ptr %agg.result, ptr %result.ptr, align 8
  store ptr %this, ptr %this.addr, align 8
  store ptr %db, ptr %db.addr, align 8
  store ptr %read_options, ptr %read_options.addr, align 8
  store ptr %column_family, ptr %column_family.addr, align 8
  store ptr %key, ptr %key.addr, align 8
  store ptr %pinnable_val, ptr %pinnable_val.addr, align 8
  %this1 = load ptr, ptr %this.addr, align 8
  %0 = load ptr, ptr %db.addr, align 8
  %1 = load ptr, ptr %read_options.addr, align 8
  %2 = load ptr, ptr %column_family.addr, align 8
  %3 = load ptr, ptr %key.addr, align 8
  %4 = load ptr, ptr %pinnable_val.addr, align 8
  call void @_ZN7rocksdb19WriteBatchWithIndex17GetFromBatchAndDBEPNS_2DBERKNS_11ReadOptionsEPNS_18ColumnFamilyHandleERKNS_5SliceEPNS_13PinnableSliceEPNS_12ReadCallbackE(ptr sret(%"class.rocksdb::Status") align 8 %agg.result, ptr noundef nonnull align 8 dereferenceable(16) %this1, ptr noundef %0, ptr noundef nonnull align 8 dereferenceable(154) %1, ptr noundef %2, ptr noundef nonnull align 8 dereferenceable(16) %3, ptr noundef %4, ptr noundef null)
  ret void
}

; Function Attrs: mustprogress nounwind uwtable
define linkonce_odr noundef zeroext i1 @_ZNK7rocksdb13PinnableSlice8IsPinnedEv(ptr noundef nonnull align 8 dereferenceable(89) %this) #1 comdat align 2 {
entry:
  %this.addr = alloca ptr, align 8
  store ptr %this, ptr %this.addr, align 8
  %this1 = load ptr, ptr %this.addr, align 8
  %pinned_ = getelementptr inbounds %"class.rocksdb::PinnableSlice", ptr %this1, i32 0, i32 4
  %0 = load i8, ptr %pinned_, align 8
  %tobool = trunc i8 %0 to i1
  ret i1 %tobool
}

declare noundef nonnull align 8 dereferenceable(32) ptr @_ZNSt7__cxx1112basic_stringIcSt11char_traitsIcESaIcEE6assignEPKcm(ptr noundef nonnull align 8 dereferenceable(32), ptr noundef, i64 noundef) #4

; Function Attrs: mustprogress nounwind uwtable
define linkonce_odr void @_ZN7rocksdb13PinnableSliceD2Ev(ptr noundef nonnull align 8 dereferenceable(89) %this) unnamed_addr #1 comdat align 2 {
entry:
  %this.addr = alloca ptr, align 8
  store ptr %this, ptr %this.addr, align 8
  %this1 = load ptr, ptr %this.addr, align 8
  %self_space_ = getelementptr inbounds %"class.rocksdb::PinnableSlice", ptr %this1, i32 0, i32 2
  call void @_ZNSt7__cxx1112basic_stringIcSt11char_traitsIcESaIcEED1Ev(ptr noundef nonnull align 8 dereferenceable(32) %self_space_) #3
  %0 = getelementptr inbounds i8, ptr %this1, i64 16
  call void @_ZN7rocksdb9CleanableD2Ev(ptr noundef nonnull align 8 dereferenceable(32) %0) #3
  ret void
}

; Function Attrs: mustprogress uwtable
define void @_ZN7rocksdb19WriteBatchWithIndex17GetFromBatchAndDBEPNS_2DBERKNS_11ReadOptionsERKNS_5SliceEPNS_13PinnableSliceE(ptr noalias sret(%"class.rocksdb::Status") align 8 %agg.result, ptr noundef nonnull align 8 dereferenceable(16) %this, ptr noundef %db, ptr noundef nonnull align 8 dereferenceable(154) %read_options, ptr noundef nonnull align 8 dereferenceable(16) %key, ptr noundef %pinnable_val) #0 align 2 {
entry:
  %result.ptr = alloca ptr, align 8
  %this.addr = alloca ptr, align 8
  %db.addr = alloca ptr, align 8
  %read_options.addr = alloca ptr, align 8
  %key.addr = alloca ptr, align 8
  %pinnable_val.addr = alloca ptr, align 8
  store ptr %agg.result, ptr %result.ptr, align 8
  store ptr %this, ptr %this.addr, align 8
  store ptr %db, ptr %db.addr, align 8
  store ptr %read_options, ptr %read_options.addr, align 8
  store ptr %key, ptr %key.addr, align 8
  store ptr %pinnable_val, ptr %pinnable_val.addr, align 8
  %this1 = load ptr, ptr %this.addr, align 8
  %0 = load ptr, ptr %db.addr, align 8
  %1 = load ptr, ptr %read_options.addr, align 8
  %2 = load ptr, ptr %db.addr, align 8
  %vtable = load ptr, ptr %2, align 8
  %vfn = getelementptr inbounds ptr, ptr %vtable, i64 133
  %3 = load ptr, ptr %vfn, align 8
  %call = call noundef ptr %3(ptr noundef nonnull align 8 dereferenceable(8) %2)
  %4 = load ptr, ptr %key.addr, align 8
  %5 = load ptr, ptr %pinnable_val.addr, align 8
  call void @_ZN7rocksdb19WriteBatchWithIndex17GetFromBatchAndDBEPNS_2DBERKNS_11ReadOptionsEPNS_18ColumnFamilyHandleERKNS_5SliceEPNS_13PinnableSliceE(ptr sret(%"class.rocksdb::Status") align 8 %agg.result, ptr noundef nonnull align 8 dereferenceable(16) %this1, ptr noundef %0, ptr noundef nonnull align 8 dereferenceable(154) %1, ptr noundef %call, ptr noundef nonnull align 8 dereferenceable(16) %4, ptr noundef %5)
  ret void
}

; Function Attrs: mustprogress uwtable
define void @_ZN7rocksdb19WriteBatchWithIndex17GetFromBatchAndDBEPNS_2DBERKNS_11ReadOptionsEPNS_18ColumnFamilyHandleERKNS_5SliceEPNSt7__cxx1112basic_stringIcSt11char_traitsIcESaIcEEE(ptr noalias sret(%"class.rocksdb::Status") align 8 %agg.result, ptr noundef nonnull align 8 dereferenceable(16) %this, ptr noundef %db, ptr noundef nonnull align 8 dereferenceable(154) %read_options, ptr noundef %column_family, ptr noundef nonnull align 8 dereferenceable(16) %key, ptr noundef %value) #0 align 2 personality ptr @__gxx_personality_v0 {
entry:
  %result.ptr = alloca ptr, align 8
  %this.addr = alloca ptr, align 8
  %db.addr = alloca ptr, align 8
  %read_options.addr = alloca ptr, align 8
  %column_family.addr = alloca ptr, align 8
  %key.addr = alloca ptr, align 8
  %value.addr = alloca ptr, align 8
  %pinnable_val = alloca %"class.rocksdb::PinnableSlice", align 8
  %nrvo = alloca i1, align 1
  %exn.slot = alloca ptr, align 8
  %ehselector.slot = alloca i32, align 4
  store ptr %agg.result, ptr %result.ptr, align 8
  store ptr %this, ptr %this.addr, align 8
  store ptr %db, ptr %db.addr, align 8
  store ptr %read_options, ptr %read_options.addr, align 8
  store ptr %column_family, ptr %column_family.addr, align 8
  store ptr %key, ptr %key.addr, align 8
  store ptr %value, ptr %value.addr, align 8
  %this1 = load ptr, ptr %this.addr, align 8
  %0 = load ptr, ptr %value.addr, align 8
  call void @_ZN7rocksdb13PinnableSliceC2EPNSt7__cxx1112basic_stringIcSt11char_traitsIcESaIcEEE(ptr noundef nonnull align 8 dereferenceable(89) %pinnable_val, ptr noundef %0)
  store i1 false, ptr %nrvo, align 1
  %1 = load ptr, ptr %db.addr, align 8
  %2 = load ptr, ptr %read_options.addr, align 8
  %3 = load ptr, ptr %column_family.addr, align 8
  %4 = load ptr, ptr %key.addr, align 8
  invoke void @_ZN7rocksdb19WriteBatchWithIndex17GetFromBatchAndDBEPNS_2DBERKNS_11ReadOptionsEPNS_18ColumnFamilyHandleERKNS_5SliceEPNS_13PinnableSliceE(ptr sret(%"class.rocksdb::Status") align 8 %agg.result, ptr noundef nonnull align 8 dereferenceable(16) %this1, ptr noundef %1, ptr noundef nonnull align 8 dereferenceable(154) %2, ptr noundef %3, ptr noundef nonnull align 8 dereferenceable(16) %4, ptr noundef %pinnable_val)
          to label %invoke.cont unwind label %lpad

invoke.cont:                                      ; preds = %entry
  %call = invoke noundef zeroext i1 @_ZNK7rocksdb6Status2okEv(ptr noundef nonnull align 8 dereferenceable(16) %agg.result)
          to label %invoke.cont3 unwind label %lpad2

invoke.cont3:                                     ; preds = %invoke.cont
  br i1 %call, label %land.lhs.true, label %if.end

land.lhs.true:                                    ; preds = %invoke.cont3
  %call5 = invoke noundef zeroext i1 @_ZNK7rocksdb13PinnableSlice8IsPinnedEv(ptr noundef nonnull align 8 dereferenceable(89) %pinnable_val)
          to label %invoke.cont4 unwind label %lpad2

invoke.cont4:                                     ; preds = %land.lhs.true
  br i1 %call5, label %if.then, label %if.end

if.then:                                          ; preds = %invoke.cont4
  %5 = load ptr, ptr %value.addr, align 8
  %call7 = invoke noundef ptr @_ZNK7rocksdb5Slice4dataEv(ptr noundef nonnull align 8 dereferenceable(16) %pinnable_val)
          to label %invoke.cont6 unwind label %lpad2

invoke.cont6:                                     ; preds = %if.then
  %call9 = invoke noundef i64 @_ZNK7rocksdb5Slice4sizeEv(ptr noundef nonnull align 8 dereferenceable(16) %pinnable_val)
          to label %invoke.cont8 unwind label %lpad2

invoke.cont8:                                     ; preds = %invoke.cont6
  %call11 = invoke noundef nonnull align 8 dereferenceable(32) ptr @_ZNSt7__cxx1112basic_stringIcSt11char_traitsIcESaIcEE6assignEPKcm(ptr noundef nonnull align 8 dereferenceable(32) %5, ptr noundef %call7, i64 noundef %call9)
          to label %invoke.cont10 unwind label %lpad2

invoke.cont10:                                    ; preds = %invoke.cont8
  br label %if.end

lpad:                                             ; preds = %entry
  %6 = landingpad { ptr, i32 }
          cleanup
  %7 = extractvalue { ptr, i32 } %6, 0
  store ptr %7, ptr %exn.slot, align 8
  %8 = extractvalue { ptr, i32 } %6, 1
  store i32 %8, ptr %ehselector.slot, align 4
  br label %ehcleanup

lpad2:                                            ; preds = %invoke.cont8, %invoke.cont6, %if.then, %land.lhs.true, %invoke.cont
  %9 = landingpad { ptr, i32 }
          cleanup
  %10 = extractvalue { ptr, i32 } %9, 0
  store ptr %10, ptr %exn.slot, align 8
  %11 = extractvalue { ptr, i32 } %9, 1
  store i32 %11, ptr %ehselector.slot, align 4
  call void @_ZN7rocksdb6StatusD2Ev(ptr noundef nonnull align 8 dereferenceable(16) %agg.result) #3
  br label %ehcleanup

if.end:                                           ; preds = %invoke.cont10, %invoke.cont4, %invoke.cont3
  store i1 true, ptr %nrvo, align 1
  %nrvo.val = load i1, ptr %nrvo, align 1
  br i1 %nrvo.val, label %nrvo.skipdtor, label %nrvo.unused

nrvo.unused:                                      ; preds = %if.end
  call void @_ZN7rocksdb6StatusD2Ev(ptr noundef nonnull align 8 dereferenceable(16) %agg.result) #3
  br label %nrvo.skipdtor

nrvo.skipdtor:                                    ; preds = %nrvo.unused, %if.end
  call void @_ZN7rocksdb13PinnableSliceD2Ev(ptr noundef nonnull align 8 dereferenceable(89) %pinnable_val) #3
  ret void

ehcleanup:                                        ; preds = %lpad2, %lpad
  call void @_ZN7rocksdb13PinnableSliceD2Ev(ptr noundef nonnull align 8 dereferenceable(89) %pinnable_val) #3
  br label %eh.resume

eh.resume:                                        ; preds = %ehcleanup
  %exn = load ptr, ptr %exn.slot, align 8
  %sel = load i32, ptr %ehselector.slot, align 4
  %lpad.val = insertvalue { ptr, i32 } poison, ptr %exn, 0
  %lpad.val12 = insertvalue { ptr, i32 } %lpad.val, i32 %sel, 1
  resume { ptr, i32 } %lpad.val12
}

; Function Attrs: mustprogress uwtable
define void @_ZN7rocksdb19WriteBatchWithIndex17GetFromBatchAndDBEPNS_2DBERKNS_11ReadOptionsEPNS_18ColumnFamilyHandleERKNS_5SliceEPNS_13PinnableSliceEPNS_12ReadCallbackE(ptr noalias sret(%"class.rocksdb::Status") align 8 %agg.result, ptr noundef nonnull align 8 dereferenceable(16) %this, ptr noundef %db, ptr noundef nonnull align 8 dereferenceable(154) %read_options, ptr noundef %column_family, ptr noundef nonnull align 8 dereferenceable(16) %key, ptr noundef %pinnable_val, ptr noundef %callback) #0 align 2 personality ptr @__gxx_personality_v0 {
entry:
  %result.ptr = alloca ptr, align 8
  %this.addr = alloca ptr, align 8
  %db.addr = alloca ptr, align 8
  %read_options.addr = alloca ptr, align 8
  %column_family.addr = alloca ptr, align 8
  %key.addr = alloca ptr, align 8
  %pinnable_val.addr = alloca ptr, align 8
  %callback.addr = alloca ptr, align 8
  %ucmp = alloca ptr, align 8
  %ts_sz = alloca i64, align 8
  %ref.tmp = alloca %"class.rocksdb::Slice", align 8
  %ref.tmp8 = alloca %"class.rocksdb::Slice", align 8
  %merge_context = alloca %"class.rocksdb::MergeContext", align 8
  %s = alloca %"class.rocksdb::Status", align 8
  %exn.slot = alloca ptr, align 8
  %ehselector.slot = alloca i32, align 4
  %result = alloca i8, align 1
  %cleanup.dest.slot = alloca i32, align 4
  %get_impl_options = alloca %"struct.rocksdb::DBImpl::GetImplOptions", align 8
  %existing = alloca %"class.rocksdb::PinnableWideColumns", align 8
  %ref.tmp37 = alloca %"class.rocksdb::Status", align 8
  store ptr %agg.result, ptr %result.ptr, align 8
  store ptr %this, ptr %this.addr, align 8
  store ptr %db, ptr %db.addr, align 8
  store ptr %read_options, ptr %read_options.addr, align 8
  store ptr %column_family, ptr %column_family.addr, align 8
  store ptr %key, ptr %key.addr, align 8
  store ptr %pinnable_val, ptr %pinnable_val.addr, align 8
  store ptr %callback, ptr %callback.addr, align 8
  %this1 = load ptr, ptr %this.addr, align 8
  %0 = load ptr, ptr %column_family.addr, align 8
  %tobool = icmp ne ptr %0, null
  br i1 %tobool, label %if.end, label %if.then

if.then:                                          ; preds = %entry
  %1 = load ptr, ptr %db.addr, align 8
  %vtable = load ptr, ptr %1, align 8
  %vfn = getelementptr inbounds ptr, ptr %vtable, i64 133
  %2 = load ptr, ptr %vfn, align 8
  %call = call noundef ptr %2(ptr noundef nonnull align 8 dereferenceable(8) %1)
  store ptr %call, ptr %column_family.addr, align 8
  br label %if.end

if.end:                                           ; preds = %if.then, %entry
  %rep = getelementptr inbounds %"class.rocksdb::WriteBatchWithIndex", ptr %this1, i32 0, i32 1
  %call2 = call noundef ptr @_ZNKSt10unique_ptrIN7rocksdb19WriteBatchWithIndex3RepESt14default_deleteIS2_EEptEv(ptr noundef nonnull align 8 dereferenceable(8) %rep) #3
  %comparator = getelementptr inbounds %"struct.rocksdb::WriteBatchWithIndex::Rep", ptr %call2, i32 0, i32 1
  %3 = load ptr, ptr %column_family.addr, align 8
  %call3 = call noundef ptr @_ZNK7rocksdb25WriteBatchEntryComparator13GetComparatorEPKNS_18ColumnFamilyHandleE(ptr noundef nonnull align 8 dereferenceable(40) %comparator, ptr noundef %3)
  store ptr %call3, ptr %ucmp, align 8
  %4 = load ptr, ptr %ucmp, align 8
  %tobool4 = icmp ne ptr %4, null
  br i1 %tobool4, label %cond.true, label %cond.false

cond.true:                                        ; preds = %if.end
  %5 = load ptr, ptr %ucmp, align 8
  %call5 = call noundef i64 @_ZNK7rocksdb10Comparator14timestamp_sizeEv(ptr noundef nonnull align 8 dereferenceable(48) %5)
  br label %cond.end

cond.false:                                       ; preds = %if.end
  br label %cond.end

cond.end:                                         ; preds = %cond.false, %cond.true
  %cond = phi i64 [ %call5, %cond.true ], [ 0, %cond.false ]
  store i64 %cond, ptr %ts_sz, align 8
  %6 = load i64, ptr %ts_sz, align 8
  %cmp = icmp ugt i64 %6, 0
  br i1 %cmp, label %land.lhs.true, label %if.end9

land.lhs.true:                                    ; preds = %cond.end
  %7 = load ptr, ptr %read_options.addr, align 8
  %timestamp = getelementptr inbounds %"struct.rocksdb::ReadOptions", ptr %7, i32 0, i32 1
  %8 = load ptr, ptr %timestamp, align 8
  %tobool6 = icmp ne ptr %8, null
  br i1 %tobool6, label %if.end9, label %if.then7

if.then7:                                         ; preds = %land.lhs.true
  call void @_ZN7rocksdb5SliceC2EPKc(ptr noundef nonnull align 8 dereferenceable(16) %ref.tmp, ptr noundef @.str.3)
  call void @_ZN7rocksdb5SliceC2Ev(ptr noundef nonnull align 8 dereferenceable(16) %ref.tmp8)
  call void @_ZN7rocksdb6Status15InvalidArgumentERKNS_5SliceES3_(ptr sret(%"class.rocksdb::Status") align 8 %agg.result, ptr noundef nonnull align 8 dereferenceable(16) %ref.tmp, ptr noundef nonnull align 8 dereferenceable(16) %ref.tmp8)
  br label %return

if.end9:                                          ; preds = %land.lhs.true, %cond.end
  call void @_ZN7rocksdb12MergeContextC2Ev(ptr noundef nonnull align 8 dereferenceable(17) %merge_context) #3
  invoke void @_ZN7rocksdb6StatusC2Ev(ptr noundef nonnull align 8 dereferenceable(16) %s)
          to label %invoke.cont unwind label %lpad

invoke.cont:                                      ; preds = %if.end9
  %9 = load ptr, ptr %column_family.addr, align 8
  %10 = load ptr, ptr %key.addr, align 8
  %11 = load ptr, ptr %pinnable_val.addr, align 8
  %call12 = invoke noundef ptr @_ZN7rocksdb13PinnableSlice7GetSelfB5cxx11Ev(ptr noundef nonnull align 8 dereferenceable(89) %11)
          to label %invoke.cont11 unwind label %lpad10

invoke.cont11:                                    ; preds = %invoke.cont
  %call14 = invoke noundef zeroext i8 @_ZN7rocksdb27WriteBatchWithIndexInternal12GetFromBatchEPNS_19WriteBatchWithIndexEPNS_18ColumnFamilyHandleERKNS_5SliceEPNS_12MergeContextEPNSt7__cxx1112basic_stringIcSt11char_traitsIcESaIcEEEPNS_6StatusE(ptr noundef %this1, ptr noundef %9, ptr noundef nonnull align 8 dereferenceable(16) %10, ptr noundef %merge_context, ptr noundef %call12, ptr noundef %s)
          to label %invoke.cont13 unwind label %lpad10

invoke.cont13:                                    ; preds = %invoke.cont11
  store i8 %call14, ptr %result, align 1
  %12 = load i8, ptr %result, align 1
  %conv = zext i8 %12 to i32
  %cmp15 = icmp eq i32 %conv, 0
  br i1 %cmp15, label %if.then16, label %if.end18

if.then16:                                        ; preds = %invoke.cont13
  %13 = load ptr, ptr %pinnable_val.addr, align 8
  invoke void @_ZN7rocksdb13PinnableSlice7PinSelfEv(ptr noundef nonnull align 8 dereferenceable(89) %13)
          to label %invoke.cont17 unwind label %lpad10

invoke.cont17:                                    ; preds = %if.then16
  call void @_ZN7rocksdb6StatusC2EOS0_(ptr noundef nonnull align 8 dereferenceable(16) %agg.result, ptr noundef nonnull align 8 dereferenceable(16) %s) #3
  store i32 1, ptr %cleanup.dest.slot, align 4
  br label %cleanup

lpad:                                             ; preds = %if.end9
  %14 = landingpad { ptr, i32 }
          cleanup
  %15 = extractvalue { ptr, i32 } %14, 0
  store ptr %15, ptr %exn.slot, align 8
  %16 = extractvalue { ptr, i32 } %14, 1
  store i32 %16, ptr %ehselector.slot, align 4
  br label %ehcleanup62

lpad10:                                           ; preds = %if.end29, %if.then27, %if.end18, %if.then16, %invoke.cont11, %invoke.cont
  %17 = landingpad { ptr, i32 }
          cleanup
  %18 = extractvalue { ptr, i32 } %17, 0
  store ptr %18, ptr %exn.slot, align 8
  %19 = extractvalue { ptr, i32 } %17, 1
  store i32 %19, ptr %ehselector.slot, align 4
  br label %ehcleanup

if.end18:                                         ; preds = %invoke.cont13
  %call20 = invoke noundef zeroext i1 @_ZNK7rocksdb6Status2okEv(ptr noundef nonnull align 8 dereferenceable(16) %s)
          to label %invoke.cont19 unwind label %lpad10

invoke.cont19:                                    ; preds = %if.end18
  br i1 %call20, label %lor.lhs.false, label %if.then23

lor.lhs.false:                                    ; preds = %invoke.cont19
  %20 = load i8, ptr %result, align 1
  %conv21 = zext i8 %20 to i32
  %cmp22 = icmp eq i32 %conv21, 4
  br i1 %cmp22, label %if.then23, label %if.end24

if.then23:                                        ; preds = %lor.lhs.false, %invoke.cont19
  call void @_ZN7rocksdb6StatusC2EOS0_(ptr noundef nonnull align 8 dereferenceable(16) %agg.result, ptr noundef nonnull align 8 dereferenceable(16) %s) #3
  store i32 1, ptr %cleanup.dest.slot, align 4
  br label %cleanup

if.end24:                                         ; preds = %lor.lhs.false
  %21 = load i8, ptr %result, align 1
  %conv25 = zext i8 %21 to i32
  %cmp26 = icmp eq i32 %conv25, 1
  br i1 %cmp26, label %if.then27, label %if.end29

if.then27:                                        ; preds = %if.end24
  invoke void @_ZN7rocksdb6Status8NotFoundENS0_7SubCodeE(ptr sret(%"class.rocksdb::Status") align 8 %agg.result, i8 noundef zeroext 0)
          to label %invoke.cont28 unwind label %lpad10

invoke.cont28:                                    ; preds = %if.then27
  store i32 1, ptr %cleanup.dest.slot, align 4
  br label %cleanup

if.end29:                                         ; preds = %if.end24
  call void @_ZN7rocksdb6DBImpl14GetImplOptionsC2Ev(ptr noundef nonnull align 8 dereferenceable(88) %get_impl_options) #3
  %22 = load ptr, ptr %column_family.addr, align 8
  %column_family30 = getelementptr inbounds %"struct.rocksdb::DBImpl::GetImplOptions", ptr %get_impl_options, i32 0, i32 0
  store ptr %22, ptr %column_family30, align 8
  invoke void @_ZN7rocksdb19PinnableWideColumnsC2Ev(ptr noundef nonnull align 8 dereferenceable(120) %existing)
          to label %invoke.cont31 unwind label %lpad10

invoke.cont31:                                    ; preds = %if.end29
  %23 = load i8, ptr %result, align 1
  %conv32 = zext i8 %23 to i32
  %cmp33 = icmp eq i32 %conv32, 3
  br i1 %cmp33, label %if.then34, label %if.else

if.then34:                                        ; preds = %invoke.cont31
  %columns = getelementptr inbounds %"struct.rocksdb::DBImpl::GetImplOptions", ptr %get_impl_options, i32 0, i32 2
  store ptr %existing, ptr %columns, align 8
  br label %if.end35

if.else:                                          ; preds = %invoke.cont31
  %24 = load ptr, ptr %pinnable_val.addr, align 8
  %value = getelementptr inbounds %"struct.rocksdb::DBImpl::GetImplOptions", ptr %get_impl_options, i32 0, i32 1
  store ptr %24, ptr %value, align 8
  br label %if.end35

if.end35:                                         ; preds = %if.else, %if.then34
  %25 = load ptr, ptr %callback.addr, align 8
  %callback36 = getelementptr inbounds %"struct.rocksdb::DBImpl::GetImplOptions", ptr %get_impl_options, i32 0, i32 5
  store ptr %25, ptr %callback36, align 8
  %26 = load ptr, ptr %db.addr, align 8
  %vtable38 = load ptr, ptr %26, align 8
  %vfn39 = getelementptr inbounds ptr, ptr %vtable38, i64 147
  %27 = load ptr, ptr %vfn39, align 8
  %call42 = invoke noundef ptr %27(ptr noundef nonnull align 8 dereferenceable(8) %26)
          to label %invoke.cont41 unwind label %lpad40

invoke.cont41:                                    ; preds = %if.end35
  %call44 = invoke noundef ptr @_ZN7rocksdb22static_cast_with_checkINS_6DBImplENS_2DBEEEPT_PT0_(ptr noundef %call42)
          to label %invoke.cont43 unwind label %lpad40

invoke.cont43:                                    ; preds = %invoke.cont41
  %28 = load ptr, ptr %read_options.addr, align 8
  %29 = load ptr, ptr %key.addr, align 8
  %vtable45 = load ptr, ptr %call44, align 64
  %vfn46 = getelementptr inbounds ptr, ptr %vtable45, i64 152
  %30 = load ptr, ptr %vfn46, align 8
  invoke void %30(ptr sret(%"class.rocksdb::Status") align 8 %ref.tmp37, ptr noundef nonnull align 64 dereferenceable(6660) %call44, ptr noundef nonnull align 8 dereferenceable(154) %28, ptr noundef nonnull align 8 dereferenceable(16) %29, ptr noundef nonnull align 8 dereferenceable(88) %get_impl_options)
          to label %invoke.cont47 unwind label %lpad40

invoke.cont47:                                    ; preds = %invoke.cont43
  %call48 = call noundef nonnull align 8 dereferenceable(16) ptr @_ZN7rocksdb6StatusaSEOS0_(ptr noundef nonnull align 8 dereferenceable(16) %s, ptr noundef nonnull align 8 dereferenceable(16) %ref.tmp37) #3
  call void @_ZN7rocksdb6StatusD2Ev(ptr noundef nonnull align 8 dereferenceable(16) %ref.tmp37) #3
  %31 = load i8, ptr %result, align 1
  %conv49 = zext i8 %31 to i32
  %cmp50 = icmp eq i32 %conv49, 3
  br i1 %cmp50, label %if.then51, label %if.end60

if.then51:                                        ; preds = %invoke.cont47
  %call53 = invoke noundef zeroext i1 @_ZNK7rocksdb6Status2okEv(ptr noundef nonnull align 8 dereferenceable(16) %s)
          to label %invoke.cont52 unwind label %lpad40

invoke.cont52:                                    ; preds = %if.then51
  br i1 %call53, label %if.then57, label %lor.lhs.false54

lor.lhs.false54:                                  ; preds = %invoke.cont52
  %call56 = invoke noundef zeroext i1 @_ZNK7rocksdb6Status10IsNotFoundEv(ptr noundef nonnull align 8 dereferenceable(16) %s)
          to label %invoke.cont55 unwind label %lpad40

invoke.cont55:                                    ; preds = %lor.lhs.false54
  br i1 %call56, label %if.then57, label %if.end59

if.then57:                                        ; preds = %invoke.cont55, %invoke.cont52
  %32 = load ptr, ptr %column_family.addr, align 8
  %33 = load ptr, ptr %key.addr, align 8
  %34 = load ptr, ptr %pinnable_val.addr, align 8
  invoke void @_ZN7rocksdb19WriteBatchWithIndex21MergeAcrossBatchAndDBEPNS_18ColumnFamilyHandleERKNS_5SliceERKNS_19PinnableWideColumnsERKNS_12MergeContextEPNS_13PinnableSliceEPNS_6StatusE(ptr noundef nonnull align 8 dereferenceable(16) %this1, ptr noundef %32, ptr noundef nonnull align 8 dereferenceable(16) %33, ptr noundef nonnull align 8 dereferenceable(120) %existing, ptr noundef nonnull align 8 dereferenceable(17) %merge_context, ptr noundef %34, ptr noundef %s)
          to label %invoke.cont58 unwind label %lpad40

invoke.cont58:                                    ; preds = %if.then57
  br label %if.end59

lpad40:                                           ; preds = %if.then57, %lor.lhs.false54, %if.then51, %invoke.cont43, %invoke.cont41, %if.end35
  %35 = landingpad { ptr, i32 }
          cleanup
  %36 = extractvalue { ptr, i32 } %35, 0
  store ptr %36, ptr %exn.slot, align 8
  %37 = extractvalue { ptr, i32 } %35, 1
  store i32 %37, ptr %ehselector.slot, align 4
  call void @_ZN7rocksdb19PinnableWideColumnsD2Ev(ptr noundef nonnull align 8 dereferenceable(120) %existing) #3
  br label %ehcleanup

if.end59:                                         ; preds = %invoke.cont58, %invoke.cont55
  br label %if.end60

if.end60:                                         ; preds = %if.end59, %invoke.cont47
  call void @_ZN7rocksdb6StatusC2EOS0_(ptr noundef nonnull align 8 dereferenceable(16) %agg.result, ptr noundef nonnull align 8 dereferenceable(16) %s) #3
  store i32 1, ptr %cleanup.dest.slot, align 4
  call void @_ZN7rocksdb19PinnableWideColumnsD2Ev(ptr noundef nonnull align 8 dereferenceable(120) %existing) #3
  br label %cleanup

cleanup:                                          ; preds = %if.end60, %invoke.cont28, %if.then23, %invoke.cont17
  call void @_ZN7rocksdb6StatusD2Ev(ptr noundef nonnull align 8 dereferenceable(16) %s) #3
  call void @_ZN7rocksdb12MergeContextD2Ev(ptr noundef nonnull align 8 dereferenceable(17) %merge_context) #3
  br label %return

ehcleanup:                                        ; preds = %lpad40, %lpad10
  call void @_ZN7rocksdb6StatusD2Ev(ptr noundef nonnull align 8 dereferenceable(16) %s) #3
  br label %ehcleanup62

ehcleanup62:                                      ; preds = %ehcleanup, %lpad
  call void @_ZN7rocksdb12MergeContextD2Ev(ptr noundef nonnull align 8 dereferenceable(17) %merge_context) #3
  br label %eh.resume

return:                                           ; preds = %cleanup, %if.then7
  ret void

eh.resume:                                        ; preds = %ehcleanup62
  %exn = load ptr, ptr %exn.slot, align 8
  %sel = load i32, ptr %ehselector.slot, align 4
  %lpad.val = insertvalue { ptr, i32 } poison, ptr %exn, 0
  %lpad.val63 = insertvalue { ptr, i32 } %lpad.val, i32 %sel, 1
  resume { ptr, i32 } %lpad.val63
}

; Function Attrs: mustprogress uwtable
define void @_ZN7rocksdb19WriteBatchWithIndex21MergeAcrossBatchAndDBEPNS_18ColumnFamilyHandleERKNS_5SliceERKNS_19PinnableWideColumnsERKNS_12MergeContextEPNS_13PinnableSliceEPNS_6StatusE(ptr noundef nonnull align 8 dereferenceable(16) %this, ptr noundef %column_family, ptr noundef nonnull align 8 dereferenceable(16) %key, ptr noundef nonnull align 8 dereferenceable(120) %existing, ptr noundef nonnull align 8 dereferenceable(17) %merge_context, ptr noundef %value, ptr noundef %status) #0 align 2 personality ptr @__gxx_personality_v0 {
entry:
  %this.addr = alloca ptr, align 8
  %column_family.addr = alloca ptr, align 8
  %key.addr = alloca ptr, align 8
  %existing.addr = alloca ptr, align 8
  %merge_context.addr = alloca ptr, align 8
  %value.addr = alloca ptr, align 8
  %status.addr = alloca ptr, align 8
  %result_value = alloca %"class.std::__cxx11::basic_string", align 8
  %exn.slot = alloca ptr, align 8
  %ehselector.slot = alloca i32, align 4
  %ref.tmp = alloca %"class.rocksdb::Status", align 8
  %ref.tmp13 = alloca %"class.rocksdb::Status", align 8
  %ref.tmp19 = alloca %"class.rocksdb::Status", align 8
  store ptr %this, ptr %this.addr, align 8
  store ptr %column_family, ptr %column_family.addr, align 8
  store ptr %key, ptr %key.addr, align 8
  store ptr %existing, ptr %existing.addr, align 8
  store ptr %merge_context, ptr %merge_context.addr, align 8
  store ptr %value, ptr %value.addr, align 8
  store ptr %status, ptr %status.addr, align 8
  call void @_ZNSt7__cxx1112basic_stringIcSt11char_traitsIcESaIcEEC1Ev(ptr noundef nonnull align 8 dereferenceable(32) %result_value) #3
  %0 = load ptr, ptr %status.addr, align 8
  %call = invoke noundef zeroext i1 @_ZNK7rocksdb6Status2okEv(ptr noundef nonnull align 8 dereferenceable(16) %0)
          to label %invoke.cont unwind label %lpad

invoke.cont:                                      ; preds = %entry
  br i1 %call, label %if.then, label %if.else18

if.then:                                          ; preds = %invoke.cont
  %1 = load ptr, ptr %existing.addr, align 8
  %call3 = invoke noundef nonnull align 8 dereferenceable(24) ptr @_ZNK7rocksdb19PinnableWideColumns7columnsEv(ptr noundef nonnull align 8 dereferenceable(120) %1)
          to label %invoke.cont2 unwind label %lpad

invoke.cont2:                                     ; preds = %if.then
  %call5 = invoke noundef zeroext i1 @_ZN7rocksdb17WideColumnsHelper20HasDefaultColumnOnlyERKSt6vectorINS_10WideColumnESaIS2_EE(ptr noundef nonnull align 8 dereferenceable(24) %call3)
          to label %invoke.cont4 unwind label %lpad

invoke.cont4:                                     ; preds = %invoke.cont2
  br i1 %call5, label %if.then6, label %if.else

if.then6:                                         ; preds = %invoke.cont4
  %2 = load ptr, ptr %column_family.addr, align 8
  %3 = load ptr, ptr %key.addr, align 8
  %4 = load ptr, ptr %existing.addr, align 8
  %call8 = invoke noundef nonnull align 8 dereferenceable(24) ptr @_ZNK7rocksdb19PinnableWideColumns7columnsEv(ptr noundef nonnull align 8 dereferenceable(120) %4)
          to label %invoke.cont7 unwind label %lpad

invoke.cont7:                                     ; preds = %if.then6
  %call10 = invoke noundef nonnull align 8 dereferenceable(16) ptr @_ZN7rocksdb17WideColumnsHelper16GetDefaultColumnERKSt6vectorINS_10WideColumnESaIS2_EE(ptr noundef nonnull align 8 dereferenceable(24) %call8)
          to label %invoke.cont9 unwind label %lpad

invoke.cont9:                                     ; preds = %invoke.cont7
  %5 = load ptr, ptr %merge_context.addr, align 8
  invoke void @_ZN7rocksdb27WriteBatchWithIndexInternal21MergeKeyWithBaseValueINS_11MergeHelper17PlainBaseValueTagENS_5SliceEJPNSt7__cxx1112basic_stringIcSt11char_traitsIcESaIcEEEPNS_19PinnableWideColumnsEEEENS_6StatusEPNS_18ColumnFamilyHandleERKS4_RKT_RKT0_RKNS_12MergeContextEDpT1_(ptr sret(%"class.rocksdb::Status") align 8 %ref.tmp, ptr noundef %2, ptr noundef nonnull align 8 dereferenceable(16) %3, ptr noundef nonnull align 1 dereferenceable(1) @_ZN7rocksdb11MergeHelper15kPlainBaseValueE, ptr noundef nonnull align 8 dereferenceable(16) %call10, ptr noundef nonnull align 8 dereferenceable(17) %5, ptr noundef %result_value, ptr noundef null)
          to label %invoke.cont11 unwind label %lpad

invoke.cont11:                                    ; preds = %invoke.cont9
  %6 = load ptr, ptr %status.addr, align 8
  %call12 = call noundef nonnull align 8 dereferenceable(16) ptr @_ZN7rocksdb6StatusaSEOS0_(ptr noundef nonnull align 8 dereferenceable(16) %6, ptr noundef nonnull align 8 dereferenceable(16) %ref.tmp) #3
  call void @_ZN7rocksdb6StatusD2Ev(ptr noundef nonnull align 8 dereferenceable(16) %ref.tmp) #3
  br label %if.end

lpad:                                             ; preds = %invoke.cont27, %invoke.cont26, %if.then25, %if.end22, %if.else18, %invoke.cont14, %if.else, %invoke.cont9, %invoke.cont7, %if.then6, %invoke.cont2, %if.then, %entry
  %7 = landingpad { ptr, i32 }
          cleanup
  %8 = extractvalue { ptr, i32 } %7, 0
  store ptr %8, ptr %exn.slot, align 8
  %9 = extractvalue { ptr, i32 } %7, 1
  store i32 %9, ptr %ehselector.slot, align 4
  call void @_ZNSt7__cxx1112basic_stringIcSt11char_traitsIcESaIcEED1Ev(ptr noundef nonnull align 8 dereferenceable(32) %result_value) #3
  br label %eh.resume

if.else:                                          ; preds = %invoke.cont4
  %10 = load ptr, ptr %column_family.addr, align 8
  %11 = load ptr, ptr %key.addr, align 8
  %12 = load ptr, ptr %existing.addr, align 8
  %call15 = invoke noundef nonnull align 8 dereferenceable(24) ptr @_ZNK7rocksdb19PinnableWideColumns7columnsEv(ptr noundef nonnull align 8 dereferenceable(120) %12)
          to label %invoke.cont14 unwind label %lpad

invoke.cont14:                                    ; preds = %if.else
  %13 = load ptr, ptr %merge_context.addr, align 8
  invoke void @_ZN7rocksdb27WriteBatchWithIndexInternal21MergeKeyWithBaseValueINS_11MergeHelper16WideBaseValueTagESt6vectorINS_10WideColumnESaIS5_EEJPNSt7__cxx1112basic_stringIcSt11char_traitsIcESaIcEEEPNS_19PinnableWideColumnsEEEENS_6StatusEPNS_18ColumnFamilyHandleERKNS_5SliceERKT_RKT0_RKNS_12MergeContextEDpT1_(ptr sret(%"class.rocksdb::Status") align 8 %ref.tmp13, ptr noundef %10, ptr noundef nonnull align 8 dereferenceable(16) %11, ptr noundef nonnull align 1 dereferenceable(1) @_ZN7rocksdb11MergeHelper14kWideBaseValueE, ptr noundef nonnull align 8 dereferenceable(24) %call15, ptr noundef nonnull align 8 dereferenceable(17) %13, ptr noundef %result_value, ptr noundef null)
          to label %invoke.cont16 unwind label %lpad

invoke.cont16:                                    ; preds = %invoke.cont14
  %14 = load ptr, ptr %status.addr, align 8
  %call17 = call noundef nonnull align 8 dereferenceable(16) ptr @_ZN7rocksdb6StatusaSEOS0_(ptr noundef nonnull align 8 dereferenceable(16) %14, ptr noundef nonnull align 8 dereferenceable(16) %ref.tmp13) #3
  call void @_ZN7rocksdb6StatusD2Ev(ptr noundef nonnull align 8 dereferenceable(16) %ref.tmp13) #3
  br label %if.end

if.end:                                           ; preds = %invoke.cont16, %invoke.cont11
  br label %if.end22

if.else18:                                        ; preds = %invoke.cont
  %15 = load ptr, ptr %column_family.addr, align 8
  %16 = load ptr, ptr %key.addr, align 8
  %17 = load ptr, ptr %merge_context.addr, align 8
  invoke void @_ZN7rocksdb27WriteBatchWithIndexInternal23MergeKeyWithNoBaseValueIJPNSt7__cxx1112basic_stringIcSt11char_traitsIcESaIcEEEPNS_19PinnableWideColumnsEEEENS_6StatusEPNS_18ColumnFamilyHandleERKNS_5SliceERKNS_12MergeContextEDpT_(ptr sret(%"class.rocksdb::Status") align 8 %ref.tmp19, ptr noundef %15, ptr noundef nonnull align 8 dereferenceable(16) %16, ptr noundef nonnull align 8 dereferenceable(17) %17, ptr noundef %result_value, ptr noundef null)
          to label %invoke.cont20 unwind label %lpad

invoke.cont20:                                    ; preds = %if.else18
  %18 = load ptr, ptr %status.addr, align 8
  %call21 = call noundef nonnull align 8 dereferenceable(16) ptr @_ZN7rocksdb6StatusaSEOS0_(ptr noundef nonnull align 8 dereferenceable(16) %18, ptr noundef nonnull align 8 dereferenceable(16) %ref.tmp19) #3
  call void @_ZN7rocksdb6StatusD2Ev(ptr noundef nonnull align 8 dereferenceable(16) %ref.tmp19) #3
  br label %if.end22

if.end22:                                         ; preds = %invoke.cont20, %if.end
  %19 = load ptr, ptr %status.addr, align 8
  %call24 = invoke noundef zeroext i1 @_ZNK7rocksdb6Status2okEv(ptr noundef nonnull align 8 dereferenceable(16) %19)
          to label %invoke.cont23 unwind label %lpad

invoke.cont23:                                    ; preds = %if.end22
  br i1 %call24, label %if.then25, label %if.end31

if.then25:                                        ; preds = %invoke.cont23
  %20 = load ptr, ptr %value.addr, align 8
  invoke void @_ZN7rocksdb13PinnableSlice5ResetEv(ptr noundef nonnull align 8 dereferenceable(89) %20)
          to label %invoke.cont26 unwind label %lpad

invoke.cont26:                                    ; preds = %if.then25
  %21 = load ptr, ptr %value.addr, align 8
  %call28 = invoke noundef ptr @_ZN7rocksdb13PinnableSlice7GetSelfB5cxx11Ev(ptr noundef nonnull align 8 dereferenceable(89) %21)
          to label %invoke.cont27 unwind label %lpad

invoke.cont27:                                    ; preds = %invoke.cont26
  %call29 = call noundef nonnull align 8 dereferenceable(32) ptr @_ZNSt7__cxx1112basic_stringIcSt11char_traitsIcESaIcEEaSEOS4_(ptr noundef nonnull align 8 dereferenceable(32) %call28, ptr noundef nonnull align 8 dereferenceable(32) %result_value) #3
  %22 = load ptr, ptr %value.addr, align 8
  invoke void @_ZN7rocksdb13PinnableSlice7PinSelfEv(ptr noundef nonnull align 8 dereferenceable(89) %22)
          to label %invoke.cont30 unwind label %lpad

invoke.cont30:                                    ; preds = %invoke.cont27
  br label %if.end31

if.end31:                                         ; preds = %invoke.cont30, %invoke.cont23
  call void @_ZNSt7__cxx1112basic_stringIcSt11char_traitsIcESaIcEED1Ev(ptr noundef nonnull align 8 dereferenceable(32) %result_value) #3
  ret void

eh.resume:                                        ; preds = %lpad
  %exn = load ptr, ptr %exn.slot, align 8
  %sel = load i32, ptr %ehselector.slot, align 4
  %lpad.val = insertvalue { ptr, i32 } poison, ptr %exn, 0
  %lpad.val32 = insertvalue { ptr, i32 } %lpad.val, i32 %sel, 1
  resume { ptr, i32 } %lpad.val32
}

; Function Attrs: nounwind
declare void @_ZNSt7__cxx1112basic_stringIcSt11char_traitsIcESaIcEEC1Ev(ptr noundef nonnull align 8 dereferenceable(32)) unnamed_addr #5

; Function Attrs: mustprogress uwtable
define linkonce_odr noundef zeroext i1 @_ZN7rocksdb17WideColumnsHelper20HasDefaultColumnOnlyERKSt6vectorINS_10WideColumnESaIS2_EE(ptr noundef nonnull align 8 dereferenceable(24) %columns) #0 comdat align 2 {
entry:
  %columns.addr = alloca ptr, align 8
  store ptr %columns, ptr %columns.addr, align 8
  %0 = load ptr, ptr %columns.addr, align 8
  %call = call noundef i64 @_ZNKSt6vectorIN7rocksdb10WideColumnESaIS1_EE4sizeEv(ptr noundef nonnull align 8 dereferenceable(24) %0) #3
  %cmp = icmp eq i64 %call, 1
  br i1 %cmp, label %land.rhs, label %land.end

land.rhs:                                         ; preds = %entry
  %1 = load ptr, ptr %columns.addr, align 8
  %call1 = call noundef nonnull align 8 dereferenceable(32) ptr @_ZNKSt6vectorIN7rocksdb10WideColumnESaIS1_EE5frontEv(ptr noundef nonnull align 8 dereferenceable(24) %1) #3
  %call2 = call noundef nonnull align 8 dereferenceable(16) ptr @_ZNK7rocksdb10WideColumn4nameEv(ptr noundef nonnull align 8 dereferenceable(32) %call1)
  %call3 = call noundef zeroext i1 @_ZN7rocksdbeqERKNS_5SliceES2_(ptr noundef nonnull align 8 dereferenceable(16) %call2, ptr noundef nonnull align 8 dereferenceable(16) @_ZN7rocksdb22kDefaultWideColumnNameE)
  br label %land.end

land.end:                                         ; preds = %land.rhs, %entry
  %2 = phi i1 [ false, %entry ], [ %call3, %land.rhs ]
  ret i1 %2
}

; Function Attrs: mustprogress nounwind uwtable
define linkonce_odr noundef nonnull align 8 dereferenceable(24) ptr @_ZNK7rocksdb19PinnableWideColumns7columnsEv(ptr noundef nonnull align 8 dereferenceable(120) %this) #1 comdat align 2 {
entry:
  %this.addr = alloca ptr, align 8
  store ptr %this, ptr %this.addr, align 8
  %this1 = load ptr, ptr %this.addr, align 8
  %columns_ = getelementptr inbounds %"class.rocksdb::PinnableWideColumns", ptr %this1, i32 0, i32 1
  ret ptr %columns_
}

; Function Attrs: mustprogress uwtable
define linkonce_odr void @_ZN7rocksdb27WriteBatchWithIndexInternal21MergeKeyWithBaseValueINS_11MergeHelper17PlainBaseValueTagENS_5SliceEJPNSt7__cxx1112basic_stringIcSt11char_traitsIcESaIcEEEPNS_19PinnableWideColumnsEEEENS_6StatusEPNS_18ColumnFamilyHandleERKS4_RKT_RKT0_RKNS_12MergeContextEDpT1_(ptr noalias sret(%"class.rocksdb::Status") align 8 %agg.result, ptr noundef %column_family, ptr noundef nonnull align 8 dereferenceable(16) %key, ptr noundef nonnull align 1 dereferenceable(1) %base_tag, ptr noundef nonnull align 8 dereferenceable(16) %value, ptr noundef nonnull align 8 dereferenceable(17) %context, ptr noundef %results, ptr noundef %results1) #0 comdat align 2 personality ptr @__gxx_personality_v0 {
entry:
  %result.ptr = alloca ptr, align 8
  %column_family.addr = alloca ptr, align 8
  %key.addr = alloca ptr, align 8
  %base_tag.addr = alloca ptr, align 8
  %value.addr = alloca ptr, align 8
  %context.addr = alloca ptr, align 8
  %results.addr = alloca ptr, align 8
  %results.addr2 = alloca ptr, align 8
  %ioptions = alloca ptr, align 8
  %s = alloca %"class.rocksdb::Status", align 8
  %exn.slot = alloca ptr, align 8
  %ehselector.slot = alloca i32, align 4
  %cleanup.dest.slot = alloca i32, align 4
  store ptr %agg.result, ptr %result.ptr, align 8
  store ptr %column_family, ptr %column_family.addr, align 8
  store ptr %key, ptr %key.addr, align 8
  store ptr %base_tag, ptr %base_tag.addr, align 8
  store ptr %value, ptr %value.addr, align 8
  store ptr %context, ptr %context.addr, align 8
  store ptr %results, ptr %results.addr, align 8
  store ptr %results1, ptr %results.addr2, align 8
  store ptr null, ptr %ioptions, align 8
  %0 = load ptr, ptr %column_family.addr, align 8
  call void @_ZN7rocksdb27WriteBatchWithIndexInternal27CheckAndGetImmutableOptionsEPNS_18ColumnFamilyHandleEPPKNS_16ImmutableOptionsE(ptr sret(%"class.rocksdb::Status") align 8 %s, ptr noundef %0, ptr noundef %ioptions)
  %call = invoke noundef zeroext i1 @_ZNK7rocksdb6Status2okEv(ptr noundef nonnull align 8 dereferenceable(16) %s)
          to label %invoke.cont unwind label %lpad

invoke.cont:                                      ; preds = %entry
  br i1 %call, label %if.end, label %if.then

if.then:                                          ; preds = %invoke.cont
  invoke void @_ZN7rocksdb6StatusC2ERKS0_(ptr noundef nonnull align 8 dereferenceable(16) %agg.result, ptr noundef nonnull align 8 dereferenceable(16) %s)
          to label %invoke.cont3 unwind label %lpad

invoke.cont3:                                     ; preds = %if.then
  store i32 1, ptr %cleanup.dest.slot, align 4
  br label %cleanup

lpad:                                             ; preds = %invoke.cont5, %if.end, %if.then, %entry
  %1 = landingpad { ptr, i32 }
          cleanup
  %2 = extractvalue { ptr, i32 } %1, 0
  store ptr %2, ptr %exn.slot, align 8
  %3 = extractvalue { ptr, i32 } %1, 1
  store i32 %3, ptr %ehselector.slot, align 4
  call void @_ZN7rocksdb6StatusD2Ev(ptr noundef nonnull align 8 dereferenceable(16) %s) #3
  br label %eh.resume

if.end:                                           ; preds = %invoke.cont
  %4 = load ptr, ptr %ioptions, align 8
  %add.ptr = getelementptr inbounds i8, ptr %4, i64 576
  %merge_operator = getelementptr inbounds %"struct.rocksdb::ImmutableCFOptions", ptr %add.ptr, i32 0, i32 5
  %call4 = call noundef ptr @_ZNKSt12__shared_ptrIN7rocksdb13MergeOperatorELN9__gnu_cxx12_Lock_policyE2EE3getEv(ptr noundef nonnull align 8 dereferenceable(16) %merge_operator) #3
  %5 = load ptr, ptr %key.addr, align 8
  %6 = load ptr, ptr %value.addr, align 8
  %7 = load ptr, ptr %context.addr, align 8
  %call6 = invoke noundef nonnull align 8 dereferenceable(24) ptr @_ZNK7rocksdb12MergeContext11GetOperandsEv(ptr noundef nonnull align 8 dereferenceable(17) %7)
          to label %invoke.cont5 unwind label %lpad

invoke.cont5:                                     ; preds = %if.end
  %8 = load ptr, ptr %ioptions, align 8
  %logger = getelementptr inbounds %"struct.rocksdb::ImmutableDBOptions", ptr %8, i32 0, i32 90
  %9 = load ptr, ptr %logger, align 8
  %10 = load ptr, ptr %ioptions, align 8
  %stats = getelementptr inbounds %"struct.rocksdb::ImmutableDBOptions", ptr %10, i32 0, i32 89
  %11 = load ptr, ptr %stats, align 8
  %12 = load ptr, ptr %ioptions, align 8
  %clock = getelementptr inbounds %"struct.rocksdb::ImmutableDBOptions", ptr %12, i32 0, i32 88
  %13 = load ptr, ptr %clock, align 8
  %14 = load ptr, ptr %results.addr, align 8
  %15 = load ptr, ptr %results.addr2, align 8
  invoke void @_ZN7rocksdb11MergeHelper14TimedFullMergeIJPNSt7__cxx1112basic_stringIcSt11char_traitsIcESaIcEEEPNS_19PinnableWideColumnsEEEENS_6StatusEPKNS_13MergeOperatorERKNS_5SliceENS0_17PlainBaseValueTagESH_RKSt6vectorISF_SaISF_EEPNS_6LoggerEPNS_10StatisticsEPNS_11SystemClockEbPNSC_14OpFailureScopeEDpT_(ptr sret(%"class.rocksdb::Status") align 8 %agg.result, ptr noundef %call4, ptr noundef nonnull align 8 dereferenceable(16) %5, ptr noundef nonnull align 8 dereferenceable(16) %6, ptr noundef nonnull align 8 dereferenceable(24) %call6, ptr noundef %9, ptr noundef %11, ptr noundef %13, i1 noundef zeroext false, ptr noundef null, ptr noundef %14, ptr noundef %15)
          to label %invoke.cont7 unwind label %lpad

invoke.cont7:                                     ; preds = %invoke.cont5
  store i32 1, ptr %cleanup.dest.slot, align 4
  br label %cleanup

cleanup:                                          ; preds = %invoke.cont7, %invoke.cont3
  call void @_ZN7rocksdb6StatusD2Ev(ptr noundef nonnull align 8 dereferenceable(16) %s) #3
  ret void

eh.resume:                                        ; preds = %lpad
  %exn = load ptr, ptr %exn.slot, align 8
  %sel = load i32, ptr %ehselector.slot, align 4
  %lpad.val = insertvalue { ptr, i32 } poison, ptr %exn, 0
  %lpad.val8 = insertvalue { ptr, i32 } %lpad.val, i32 %sel, 1
  resume { ptr, i32 } %lpad.val8
}

; Function Attrs: mustprogress uwtable
define linkonce_odr noundef nonnull align 8 dereferenceable(16) ptr @_ZN7rocksdb17WideColumnsHelper16GetDefaultColumnERKSt6vectorINS_10WideColumnESaIS2_EE(ptr noundef nonnull align 8 dereferenceable(24) %columns) #0 comdat align 2 {
entry:
  %columns.addr = alloca ptr, align 8
  store ptr %columns, ptr %columns.addr, align 8
  %0 = load ptr, ptr %columns.addr, align 8
  %call = call noundef nonnull align 8 dereferenceable(32) ptr @_ZNKSt6vectorIN7rocksdb10WideColumnESaIS1_EE5frontEv(ptr noundef nonnull align 8 dereferenceable(24) %0) #3
  %call1 = call noundef nonnull align 8 dereferenceable(16) ptr @_ZNK7rocksdb10WideColumn5valueEv(ptr noundef nonnull align 8 dereferenceable(32) %call)
  ret ptr %call1
}

; Function Attrs: mustprogress uwtable
define linkonce_odr void @_ZN7rocksdb27WriteBatchWithIndexInternal21MergeKeyWithBaseValueINS_11MergeHelper16WideBaseValueTagESt6vectorINS_10WideColumnESaIS5_EEJPNSt7__cxx1112basic_stringIcSt11char_traitsIcESaIcEEEPNS_19PinnableWideColumnsEEEENS_6StatusEPNS_18ColumnFamilyHandleERKNS_5SliceERKT_RKT0_RKNS_12MergeContextEDpT1_(ptr noalias sret(%"class.rocksdb::Status") align 8 %agg.result, ptr noundef %column_family, ptr noundef nonnull align 8 dereferenceable(16) %key, ptr noundef nonnull align 1 dereferenceable(1) %base_tag, ptr noundef nonnull align 8 dereferenceable(24) %value, ptr noundef nonnull align 8 dereferenceable(17) %context, ptr noundef %results, ptr noundef %results1) #0 comdat align 2 personality ptr @__gxx_personality_v0 {
entry:
  %result.ptr = alloca ptr, align 8
  %column_family.addr = alloca ptr, align 8
  %key.addr = alloca ptr, align 8
  %base_tag.addr = alloca ptr, align 8
  %value.addr = alloca ptr, align 8
  %context.addr = alloca ptr, align 8
  %results.addr = alloca ptr, align 8
  %results.addr2 = alloca ptr, align 8
  %ioptions = alloca ptr, align 8
  %s = alloca %"class.rocksdb::Status", align 8
  %exn.slot = alloca ptr, align 8
  %ehselector.slot = alloca i32, align 4
  %cleanup.dest.slot = alloca i32, align 4
  store ptr %agg.result, ptr %result.ptr, align 8
  store ptr %column_family, ptr %column_family.addr, align 8
  store ptr %key, ptr %key.addr, align 8
  store ptr %base_tag, ptr %base_tag.addr, align 8
  store ptr %value, ptr %value.addr, align 8
  store ptr %context, ptr %context.addr, align 8
  store ptr %results, ptr %results.addr, align 8
  store ptr %results1, ptr %results.addr2, align 8
  store ptr null, ptr %ioptions, align 8
  %0 = load ptr, ptr %column_family.addr, align 8
  call void @_ZN7rocksdb27WriteBatchWithIndexInternal27CheckAndGetImmutableOptionsEPNS_18ColumnFamilyHandleEPPKNS_16ImmutableOptionsE(ptr sret(%"class.rocksdb::Status") align 8 %s, ptr noundef %0, ptr noundef %ioptions)
  %call = invoke noundef zeroext i1 @_ZNK7rocksdb6Status2okEv(ptr noundef nonnull align 8 dereferenceable(16) %s)
          to label %invoke.cont unwind label %lpad

invoke.cont:                                      ; preds = %entry
  br i1 %call, label %if.end, label %if.then

if.then:                                          ; preds = %invoke.cont
  invoke void @_ZN7rocksdb6StatusC2ERKS0_(ptr noundef nonnull align 8 dereferenceable(16) %agg.result, ptr noundef nonnull align 8 dereferenceable(16) %s)
          to label %invoke.cont3 unwind label %lpad

invoke.cont3:                                     ; preds = %if.then
  store i32 1, ptr %cleanup.dest.slot, align 4
  br label %cleanup

lpad:                                             ; preds = %invoke.cont5, %if.end, %if.then, %entry
  %1 = landingpad { ptr, i32 }
          cleanup
  %2 = extractvalue { ptr, i32 } %1, 0
  store ptr %2, ptr %exn.slot, align 8
  %3 = extractvalue { ptr, i32 } %1, 1
  store i32 %3, ptr %ehselector.slot, align 4
  call void @_ZN7rocksdb6StatusD2Ev(ptr noundef nonnull align 8 dereferenceable(16) %s) #3
  br label %eh.resume

if.end:                                           ; preds = %invoke.cont
  %4 = load ptr, ptr %ioptions, align 8
  %add.ptr = getelementptr inbounds i8, ptr %4, i64 576
  %merge_operator = getelementptr inbounds %"struct.rocksdb::ImmutableCFOptions", ptr %add.ptr, i32 0, i32 5
  %call4 = call noundef ptr @_ZNKSt12__shared_ptrIN7rocksdb13MergeOperatorELN9__gnu_cxx12_Lock_policyE2EE3getEv(ptr noundef nonnull align 8 dereferenceable(16) %merge_operator) #3
  %5 = load ptr, ptr %key.addr, align 8
  %6 = load ptr, ptr %value.addr, align 8
  %7 = load ptr, ptr %context.addr, align 8
  %call6 = invoke noundef nonnull align 8 dereferenceable(24) ptr @_ZNK7rocksdb12MergeContext11GetOperandsEv(ptr noundef nonnull align 8 dereferenceable(17) %7)
          to label %invoke.cont5 unwind label %lpad

invoke.cont5:                                     ; preds = %if.end
  %8 = load ptr, ptr %ioptions, align 8
  %logger = getelementptr inbounds %"struct.rocksdb::ImmutableDBOptions", ptr %8, i32 0, i32 90
  %9 = load ptr, ptr %logger, align 8
  %10 = load ptr, ptr %ioptions, align 8
  %stats = getelementptr inbounds %"struct.rocksdb::ImmutableDBOptions", ptr %10, i32 0, i32 89
  %11 = load ptr, ptr %stats, align 8
  %12 = load ptr, ptr %ioptions, align 8
  %clock = getelementptr inbounds %"struct.rocksdb::ImmutableDBOptions", ptr %12, i32 0, i32 88
  %13 = load ptr, ptr %clock, align 8
  %14 = load ptr, ptr %results.addr, align 8
  %15 = load ptr, ptr %results.addr2, align 8
  invoke void @_ZN7rocksdb11MergeHelper14TimedFullMergeIJPNSt7__cxx1112basic_stringIcSt11char_traitsIcESaIcEEEPNS_19PinnableWideColumnsEEEENS_6StatusEPKNS_13MergeOperatorERKNS_5SliceENS0_16WideBaseValueTagERKSt6vectorINS_10WideColumnESaISK_EERKSJ_ISF_SaISF_EEPNS_6LoggerEPNS_10StatisticsEPNS_11SystemClockEbPNSC_14OpFailureScopeEDpT_(ptr sret(%"class.rocksdb::Status") align 8 %agg.result, ptr noundef %call4, ptr noundef nonnull align 8 dereferenceable(16) %5, ptr noundef nonnull align 8 dereferenceable(24) %6, ptr noundef nonnull align 8 dereferenceable(24) %call6, ptr noundef %9, ptr noundef %11, ptr noundef %13, i1 noundef zeroext false, ptr noundef null, ptr noundef %14, ptr noundef %15)
          to label %invoke.cont7 unwind label %lpad

invoke.cont7:                                     ; preds = %invoke.cont5
  store i32 1, ptr %cleanup.dest.slot, align 4
  br label %cleanup

cleanup:                                          ; preds = %invoke.cont7, %invoke.cont3
  call void @_ZN7rocksdb6StatusD2Ev(ptr noundef nonnull align 8 dereferenceable(16) %s) #3
  ret void

eh.resume:                                        ; preds = %lpad
  %exn = load ptr, ptr %exn.slot, align 8
  %sel = load i32, ptr %ehselector.slot, align 4
  %lpad.val = insertvalue { ptr, i32 } poison, ptr %exn, 0
  %lpad.val8 = insertvalue { ptr, i32 } %lpad.val, i32 %sel, 1
  resume { ptr, i32 } %lpad.val8
}

; Function Attrs: mustprogress uwtable
define linkonce_odr void @_ZN7rocksdb27WriteBatchWithIndexInternal23MergeKeyWithNoBaseValueIJPNSt7__cxx1112basic_stringIcSt11char_traitsIcESaIcEEEPNS_19PinnableWideColumnsEEEENS_6StatusEPNS_18ColumnFamilyHandleERKNS_5SliceERKNS_12MergeContextEDpT_(ptr noalias sret(%"class.rocksdb::Status") align 8 %agg.result, ptr noundef %column_family, ptr noundef nonnull align 8 dereferenceable(16) %key, ptr noundef nonnull align 8 dereferenceable(17) %context, ptr noundef %results, ptr noundef %results1) #0 comdat align 2 personality ptr @__gxx_personality_v0 {
entry:
  %result.ptr = alloca ptr, align 8
  %column_family.addr = alloca ptr, align 8
  %key.addr = alloca ptr, align 8
  %context.addr = alloca ptr, align 8
  %results.addr = alloca ptr, align 8
  %results.addr2 = alloca ptr, align 8
  %ioptions = alloca ptr, align 8
  %s = alloca %"class.rocksdb::Status", align 8
  %exn.slot = alloca ptr, align 8
  %ehselector.slot = alloca i32, align 4
  %cleanup.dest.slot = alloca i32, align 4
  store ptr %agg.result, ptr %result.ptr, align 8
  store ptr %column_family, ptr %column_family.addr, align 8
  store ptr %key, ptr %key.addr, align 8
  store ptr %context, ptr %context.addr, align 8
  store ptr %results, ptr %results.addr, align 8
  store ptr %results1, ptr %results.addr2, align 8
  store ptr null, ptr %ioptions, align 8
  %0 = load ptr, ptr %column_family.addr, align 8
  call void @_ZN7rocksdb27WriteBatchWithIndexInternal27CheckAndGetImmutableOptionsEPNS_18ColumnFamilyHandleEPPKNS_16ImmutableOptionsE(ptr sret(%"class.rocksdb::Status") align 8 %s, ptr noundef %0, ptr noundef %ioptions)
  %call = invoke noundef zeroext i1 @_ZNK7rocksdb6Status2okEv(ptr noundef nonnull align 8 dereferenceable(16) %s)
          to label %invoke.cont unwind label %lpad

invoke.cont:                                      ; preds = %entry
  br i1 %call, label %if.end, label %if.then

if.then:                                          ; preds = %invoke.cont
  invoke void @_ZN7rocksdb6StatusC2ERKS0_(ptr noundef nonnull align 8 dereferenceable(16) %agg.result, ptr noundef nonnull align 8 dereferenceable(16) %s)
          to label %invoke.cont3 unwind label %lpad

invoke.cont3:                                     ; preds = %if.then
  store i32 1, ptr %cleanup.dest.slot, align 4
  br label %cleanup

lpad:                                             ; preds = %invoke.cont5, %if.end, %if.then, %entry
  %1 = landingpad { ptr, i32 }
          cleanup
  %2 = extractvalue { ptr, i32 } %1, 0
  store ptr %2, ptr %exn.slot, align 8
  %3 = extractvalue { ptr, i32 } %1, 1
  store i32 %3, ptr %ehselector.slot, align 4
  call void @_ZN7rocksdb6StatusD2Ev(ptr noundef nonnull align 8 dereferenceable(16) %s) #3
  br label %eh.resume

if.end:                                           ; preds = %invoke.cont
  %4 = load ptr, ptr %ioptions, align 8
  %add.ptr = getelementptr inbounds i8, ptr %4, i64 576
  %merge_operator = getelementptr inbounds %"struct.rocksdb::ImmutableCFOptions", ptr %add.ptr, i32 0, i32 5
  %call4 = call noundef ptr @_ZNKSt12__shared_ptrIN7rocksdb13MergeOperatorELN9__gnu_cxx12_Lock_policyE2EE3getEv(ptr noundef nonnull align 8 dereferenceable(16) %merge_operator) #3
  %5 = load ptr, ptr %key.addr, align 8
  %6 = load ptr, ptr %context.addr, align 8
  %call6 = invoke noundef nonnull align 8 dereferenceable(24) ptr @_ZNK7rocksdb12MergeContext11GetOperandsEv(ptr noundef nonnull align 8 dereferenceable(17) %6)
          to label %invoke.cont5 unwind label %lpad

invoke.cont5:                                     ; preds = %if.end
  %7 = load ptr, ptr %ioptions, align 8
  %logger = getelementptr inbounds %"struct.rocksdb::ImmutableDBOptions", ptr %7, i32 0, i32 90
  %8 = load ptr, ptr %logger, align 8
  %9 = load ptr, ptr %ioptions, align 8
  %stats = getelementptr inbounds %"struct.rocksdb::ImmutableDBOptions", ptr %9, i32 0, i32 89
  %10 = load ptr, ptr %stats, align 8
  %11 = load ptr, ptr %ioptions, align 8
  %clock = getelementptr inbounds %"struct.rocksdb::ImmutableDBOptions", ptr %11, i32 0, i32 88
  %12 = load ptr, ptr %clock, align 8
  %13 = load ptr, ptr %results.addr, align 8
  %14 = load ptr, ptr %results.addr2, align 8
  invoke void @_ZN7rocksdb11MergeHelper14TimedFullMergeIJPNSt7__cxx1112basic_stringIcSt11char_traitsIcESaIcEEEPNS_19PinnableWideColumnsEEEENS_6StatusEPKNS_13MergeOperatorERKNS_5SliceENS0_14NoBaseValueTagERKSt6vectorISF_SaISF_EEPNS_6LoggerEPNS_10StatisticsEPNS_11SystemClockEbPNSC_14OpFailureScopeEDpT_(ptr sret(%"class.rocksdb::Status") align 8 %agg.result, ptr noundef %call4, ptr noundef nonnull align 8 dereferenceable(16) %5, ptr noundef nonnull align 8 dereferenceable(24) %call6, ptr noundef %8, ptr noundef %10, ptr noundef %12, i1 noundef zeroext false, ptr noundef null, ptr noundef %13, ptr noundef %14)
          to label %invoke.cont7 unwind label %lpad

invoke.cont7:                                     ; preds = %invoke.cont5
  store i32 1, ptr %cleanup.dest.slot, align 4
  br label %cleanup

cleanup:                                          ; preds = %invoke.cont7, %invoke.cont3
  call void @_ZN7rocksdb6StatusD2Ev(ptr noundef nonnull align 8 dereferenceable(16) %s) #3
  ret void

eh.resume:                                        ; preds = %lpad
  %exn = load ptr, ptr %exn.slot, align 8
  %sel = load i32, ptr %ehselector.slot, align 4
  %lpad.val = insertvalue { ptr, i32 } poison, ptr %exn, 0
  %lpad.val8 = insertvalue { ptr, i32 } %lpad.val, i32 %sel, 1
  resume { ptr, i32 } %lpad.val8
}

; Function Attrs: mustprogress uwtable
define linkonce_odr void @_ZN7rocksdb13PinnableSlice5ResetEv(ptr noundef nonnull align 8 dereferenceable(89) %this) #0 comdat align 2 {
entry:
  %this.addr = alloca ptr, align 8
  store ptr %this, ptr %this.addr, align 8
  %this1 = load ptr, ptr %this.addr, align 8
  %add.ptr = getelementptr inbounds i8, ptr %this1, i64 16
  call void @_ZN7rocksdb9Cleanable5ResetEv(ptr noundef nonnull align 8 dereferenceable(32) %add.ptr)
  %pinned_ = getelementptr inbounds %"class.rocksdb::PinnableSlice", ptr %this1, i32 0, i32 4
  store i8 0, ptr %pinned_, align 8
  %size_ = getelementptr inbounds %"class.rocksdb::Slice", ptr %this1, i32 0, i32 1
  store i64 0, ptr %size_, align 8
  ret void
}

; Function Attrs: mustprogress nounwind uwtable
define linkonce_odr noundef ptr @_ZN7rocksdb13PinnableSlice7GetSelfB5cxx11Ev(ptr noundef nonnull align 8 dereferenceable(89) %this) #1 comdat align 2 {
entry:
  %this.addr = alloca ptr, align 8
  store ptr %this, ptr %this.addr, align 8
  %this1 = load ptr, ptr %this.addr, align 8
  %buf_ = getelementptr inbounds %"class.rocksdb::PinnableSlice", ptr %this1, i32 0, i32 3
  %0 = load ptr, ptr %buf_, align 8
  ret ptr %0
}

; Function Attrs: nounwind
declare noundef nonnull align 8 dereferenceable(32) ptr @_ZNSt7__cxx1112basic_stringIcSt11char_traitsIcESaIcEEaSEOS4_(ptr noundef nonnull align 8 dereferenceable(32), ptr noundef nonnull align 8 dereferenceable(32)) #5

; Function Attrs: mustprogress nounwind uwtable
define linkonce_odr void @_ZN7rocksdb13PinnableSlice7PinSelfEv(ptr noundef nonnull align 8 dereferenceable(89) %this) #1 comdat align 2 {
entry:
  %this.addr = alloca ptr, align 8
  store ptr %this, ptr %this.addr, align 8
  %this1 = load ptr, ptr %this.addr, align 8
  %buf_ = getelementptr inbounds %"class.rocksdb::PinnableSlice", ptr %this1, i32 0, i32 3
  %0 = load ptr, ptr %buf_, align 8
  %call = call noundef ptr @_ZNSt7__cxx1112basic_stringIcSt11char_traitsIcESaIcEE4dataEv(ptr noundef nonnull align 8 dereferenceable(32) %0) #3
  %data_ = getelementptr inbounds %"class.rocksdb::Slice", ptr %this1, i32 0, i32 0
  store ptr %call, ptr %data_, align 8
  %buf_2 = getelementptr inbounds %"class.rocksdb::PinnableSlice", ptr %this1, i32 0, i32 3
  %1 = load ptr, ptr %buf_2, align 8
  %call3 = call noundef i64 @_ZNKSt7__cxx1112basic_stringIcSt11char_traitsIcESaIcEE4sizeEv(ptr noundef nonnull align 8 dereferenceable(32) %1) #3
  %size_ = getelementptr inbounds %"class.rocksdb::Slice", ptr %this1, i32 0, i32 1
  store i64 %call3, ptr %size_, align 8
  ret void
}

declare noundef ptr @_ZNK7rocksdb25WriteBatchEntryComparator13GetComparatorEPKNS_18ColumnFamilyHandleE(ptr noundef nonnull align 8 dereferenceable(40), ptr noundef) #4

; Function Attrs: mustprogress nounwind uwtable
define linkonce_odr void @_ZN7rocksdb6DBImpl14GetImplOptionsC2Ev(ptr noundef nonnull align 8 dereferenceable(88) %this) unnamed_addr #1 comdat align 2 {
entry:
  %this.addr = alloca ptr, align 8
  store ptr %this, ptr %this.addr, align 8
  %this1 = load ptr, ptr %this.addr, align 8
  %column_family = getelementptr inbounds %"struct.rocksdb::DBImpl::GetImplOptions", ptr %this1, i32 0, i32 0
  store ptr null, ptr %column_family, align 8
  %value = getelementptr inbounds %"struct.rocksdb::DBImpl::GetImplOptions", ptr %this1, i32 0, i32 1
  store ptr null, ptr %value, align 8
  %columns = getelementptr inbounds %"struct.rocksdb::DBImpl::GetImplOptions", ptr %this1, i32 0, i32 2
  store ptr null, ptr %columns, align 8
  %timestamp = getelementptr inbounds %"struct.rocksdb::DBImpl::GetImplOptions", ptr %this1, i32 0, i32 3
  store ptr null, ptr %timestamp, align 8
  %value_found = getelementptr inbounds %"struct.rocksdb::DBImpl::GetImplOptions", ptr %this1, i32 0, i32 4
  store ptr null, ptr %value_found, align 8
  %callback = getelementptr inbounds %"struct.rocksdb::DBImpl::GetImplOptions", ptr %this1, i32 0, i32 5
  store ptr null, ptr %callback, align 8
  %is_blob_index = getelementptr inbounds %"struct.rocksdb::DBImpl::GetImplOptions", ptr %this1, i32 0, i32 6
  store ptr null, ptr %is_blob_index, align 8
  %get_value = getelementptr inbounds %"struct.rocksdb::DBImpl::GetImplOptions", ptr %this1, i32 0, i32 7
  store i8 1, ptr %get_value, align 8
  %merge_operands = getelementptr inbounds %"struct.rocksdb::DBImpl::GetImplOptions", ptr %this1, i32 0, i32 8
  store ptr null, ptr %merge_operands, align 8
  %get_merge_operands_options = getelementptr inbounds %"struct.rocksdb::DBImpl::GetImplOptions", ptr %this1, i32 0, i32 9
  store ptr null, ptr %get_merge_operands_options, align 8
  %number_of_operands = getelementptr inbounds %"struct.rocksdb::DBImpl::GetImplOptions", ptr %this1, i32 0, i32 10
  store ptr null, ptr %number_of_operands, align 8
  ret void
}

; Function Attrs: mustprogress uwtable
define linkonce_odr void @_ZN7rocksdb19PinnableWideColumnsC2Ev(ptr noundef nonnull align 8 dereferenceable(120) %this) unnamed_addr #0 comdat align 2 {
entry:
  %this.addr = alloca ptr, align 8
  store ptr %this, ptr %this.addr, align 8
  %this1 = load ptr, ptr %this.addr, align 8
  %value_ = getelementptr inbounds %"class.rocksdb::PinnableWideColumns", ptr %this1, i32 0, i32 0
  call void @_ZN7rocksdb13PinnableSliceC2Ev(ptr noundef nonnull align 8 dereferenceable(89) %value_)
  %columns_ = getelementptr inbounds %"class.rocksdb::PinnableWideColumns", ptr %this1, i32 0, i32 1
  call void @_ZNSt6vectorIN7rocksdb10WideColumnESaIS1_EEC2Ev(ptr noundef nonnull align 8 dereferenceable(24) %columns_) #3
  ret void
}

; Function Attrs: mustprogress nounwind uwtable
define linkonce_odr noundef ptr @_ZN7rocksdb22static_cast_with_checkINS_6DBImplENS_2DBEEEPT_PT0_(ptr noundef %x) #1 comdat {
entry:
  %x.addr = alloca ptr, align 8
  %ret = alloca ptr, align 8
  store ptr %x, ptr %x.addr, align 8
  %0 = load ptr, ptr %x.addr, align 8
  store ptr %0, ptr %ret, align 8
  %1 = load ptr, ptr %ret, align 8
  ret ptr %1
}

; Function Attrs: mustprogress nounwind uwtable
define linkonce_odr noundef zeroext i1 @_ZNK7rocksdb6Status10IsNotFoundEv(ptr noundef nonnull align 8 dereferenceable(16) %this) #1 comdat align 2 {
entry:
  %this.addr = alloca ptr, align 8
  store ptr %this, ptr %this.addr, align 8
  %this1 = load ptr, ptr %this.addr, align 8
  call void @_ZNK7rocksdb6Status11MarkCheckedEv(ptr noundef nonnull align 8 dereferenceable(16) %this1)
  %call = call noundef zeroext i8 @_ZNK7rocksdb6Status4codeEv(ptr noundef nonnull align 8 dereferenceable(16) %this1)
  %conv = zext i8 %call to i32
  %cmp = icmp eq i32 %conv, 1
  ret i1 %cmp
}

; Function Attrs: mustprogress nounwind uwtable
define linkonce_odr void @_ZN7rocksdb19PinnableWideColumnsD2Ev(ptr noundef nonnull align 8 dereferenceable(120) %this) unnamed_addr #1 comdat align 2 {
entry:
  %this.addr = alloca ptr, align 8
  store ptr %this, ptr %this.addr, align 8
  %this1 = load ptr, ptr %this.addr, align 8
  %columns_ = getelementptr inbounds %"class.rocksdb::PinnableWideColumns", ptr %this1, i32 0, i32 1
  call void @_ZNSt6vectorIN7rocksdb10WideColumnESaIS1_EED2Ev(ptr noundef nonnull align 8 dereferenceable(24) %columns_) #3
  %value_ = getelementptr inbounds %"class.rocksdb::PinnableWideColumns", ptr %this1, i32 0, i32 0
  call void @_ZN7rocksdb13PinnableSliceD2Ev(ptr noundef nonnull align 8 dereferenceable(89) %value_) #3
  ret void
}

; Function Attrs: mustprogress uwtable
define void @_ZN7rocksdb19WriteBatchWithIndex22MultiGetFromBatchAndDBEPNS_2DBERKNS_11ReadOptionsEPNS_18ColumnFamilyHandleEmPKNS_5SliceEPNS_13PinnableSliceEPNS_6StatusEb(ptr noundef nonnull align 8 dereferenceable(16) %this, ptr noundef %db, ptr noundef nonnull align 8 dereferenceable(154) %read_options, ptr noundef %column_family, i64 noundef %num_keys, ptr noundef %keys, ptr noundef %values, ptr noundef %statuses, i1 noundef zeroext %sorted_input) #0 align 2 {
entry:
  %this.addr = alloca ptr, align 8
  %db.addr = alloca ptr, align 8
  %read_options.addr = alloca ptr, align 8
  %column_family.addr = alloca ptr, align 8
  %num_keys.addr = alloca i64, align 8
  %keys.addr = alloca ptr, align 8
  %values.addr = alloca ptr, align 8
  %statuses.addr = alloca ptr, align 8
  %sorted_input.addr = alloca i8, align 1
  store ptr %this, ptr %this.addr, align 8
  store ptr %db, ptr %db.addr, align 8
  store ptr %read_options, ptr %read_options.addr, align 8
  store ptr %column_family, ptr %column_family.addr, align 8
  store i64 %num_keys, ptr %num_keys.addr, align 8
  store ptr %keys, ptr %keys.addr, align 8
  store ptr %values, ptr %values.addr, align 8
  store ptr %statuses, ptr %statuses.addr, align 8
  %frombool = zext i1 %sorted_input to i8
  store i8 %frombool, ptr %sorted_input.addr, align 1
  %this1 = load ptr, ptr %this.addr, align 8
  %0 = load ptr, ptr %db.addr, align 8
  %1 = load ptr, ptr %read_options.addr, align 8
  %2 = load ptr, ptr %column_family.addr, align 8
  %3 = load i64, ptr %num_keys.addr, align 8
  %4 = load ptr, ptr %keys.addr, align 8
  %5 = load ptr, ptr %values.addr, align 8
  %6 = load ptr, ptr %statuses.addr, align 8
  %7 = load i8, ptr %sorted_input.addr, align 1
  %tobool = trunc i8 %7 to i1
  call void @_ZN7rocksdb19WriteBatchWithIndex22MultiGetFromBatchAndDBEPNS_2DBERKNS_11ReadOptionsEPNS_18ColumnFamilyHandleEmPKNS_5SliceEPNS_13PinnableSliceEPNS_6StatusEbPNS_12ReadCallbackE(ptr noundef nonnull align 8 dereferenceable(16) %this1, ptr noundef %0, ptr noundef nonnull align 8 dereferenceable(154) %1, ptr noundef %2, i64 noundef %3, ptr noundef %4, ptr noundef %5, ptr noundef %6, i1 noundef zeroext %tobool, ptr noundef null)
  ret void
}

; Function Attrs: mustprogress uwtable
define void @_ZN7rocksdb19WriteBatchWithIndex22MultiGetFromBatchAndDBEPNS_2DBERKNS_11ReadOptionsEPNS_18ColumnFamilyHandleEmPKNS_5SliceEPNS_13PinnableSliceEPNS_6StatusEbPNS_12ReadCallbackE(ptr noundef nonnull align 8 dereferenceable(16) %this, ptr noundef %db, ptr noundef nonnull align 8 dereferenceable(154) %read_options, ptr noundef %column_family, i64 noundef %num_keys, ptr noundef %keys, ptr noundef %values, ptr noundef %statuses, i1 noundef zeroext %sorted_input, ptr noundef %callback) #0 align 2 personality ptr @__gxx_personality_v0 {
entry:
  %this.addr = alloca ptr, align 8
  %db.addr = alloca ptr, align 8
  %read_options.addr = alloca ptr, align 8
  %column_family.addr = alloca ptr, align 8
  %num_keys.addr = alloca i64, align 8
  %keys.addr = alloca ptr, align 8
  %values.addr = alloca ptr, align 8
  %statuses.addr = alloca ptr, align 8
  %sorted_input.addr = alloca i8, align 1
  %callback.addr = alloca ptr, align 8
  %ucmp = alloca ptr, align 8
  %ts_sz = alloca i64, align 8
  %i = alloca i64, align 8
  %ref.tmp = alloca %"class.rocksdb::Status", align 8
  %ref.tmp9 = alloca %"class.rocksdb::Slice", align 8
  %ref.tmp10 = alloca %"class.rocksdb::Slice", align 8
  %merges = alloca %"class.rocksdb::autovector.390", align 8
  %key_contexts = alloca %"class.rocksdb::autovector.396", align 8
  %exn.slot = alloca ptr, align 8
  %ehselector.slot = alloca i32, align 4
  %i13 = alloca i64, align 8
  %key = alloca ptr, align 8
  %merge_context = alloca %"class.rocksdb::MergeContext", align 8
  %batch_value = alloca %"class.std::__cxx11::basic_string", align 8
  %s = alloca ptr, align 8
  %result = alloca i8, align 1
  %pinnable_val = alloca ptr, align 8
  %cleanup.dest.slot = alloca i32, align 4
  %ref.tmp34 = alloca %"class.rocksdb::Status", align 8
  %ref.tmp46 = alloca ptr, align 8
  %ref.tmp47 = alloca ptr, align 8
  %ref.tmp48 = alloca ptr, align 8
  %ref.tmp51 = alloca ptr, align 8
  %ref.tmp52 = alloca ptr, align 8
  %sorted_keys = alloca %"class.rocksdb::autovector.402", align 8
  %merges_idx = alloca i64, align 8
  %__range1 = alloca ptr, align 8
  %__begin1 = alloca %"class.rocksdb::autovector<rocksdb::KeyContext, 32>::iterator_impl", align 8
  %__end1 = alloca %"class.rocksdb::autovector<rocksdb::KeyContext, 32>::iterator_impl", align 8
  %key_context = alloca ptr, align 8
  %ref.tmp80 = alloca ptr, align 8
  %__range1105 = alloca ptr, align 8
  %__begin1106 = alloca %"class.rocksdb::autovector<MergeTuple, 32>::iterator_impl", align 8
  %__end1108 = alloca %"class.rocksdb::autovector<MergeTuple, 32>::iterator_impl", align 8
  %merge = alloca ptr, align 8
  store ptr %this, ptr %this.addr, align 8
  store ptr %db, ptr %db.addr, align 8
  store ptr %read_options, ptr %read_options.addr, align 8
  store ptr %column_family, ptr %column_family.addr, align 8
  store i64 %num_keys, ptr %num_keys.addr, align 8
  store ptr %keys, ptr %keys.addr, align 8
  store ptr %values, ptr %values.addr, align 8
  store ptr %statuses, ptr %statuses.addr, align 8
  %frombool = zext i1 %sorted_input to i8
  store i8 %frombool, ptr %sorted_input.addr, align 1
  store ptr %callback, ptr %callback.addr, align 8
  %this1 = load ptr, ptr %this.addr, align 8
  %0 = load ptr, ptr %column_family.addr, align 8
  %tobool = icmp ne ptr %0, null
  br i1 %tobool, label %if.end, label %if.then

if.then:                                          ; preds = %entry
  %1 = load ptr, ptr %db.addr, align 8
  %vtable = load ptr, ptr %1, align 8
  %vfn = getelementptr inbounds ptr, ptr %vtable, i64 133
  %2 = load ptr, ptr %vfn, align 8
  %call = call noundef ptr %2(ptr noundef nonnull align 8 dereferenceable(8) %1)
  store ptr %call, ptr %column_family.addr, align 8
  br label %if.end

if.end:                                           ; preds = %if.then, %entry
  %rep = getelementptr inbounds %"class.rocksdb::WriteBatchWithIndex", ptr %this1, i32 0, i32 1
  %call2 = call noundef ptr @_ZNKSt10unique_ptrIN7rocksdb19WriteBatchWithIndex3RepESt14default_deleteIS2_EEptEv(ptr noundef nonnull align 8 dereferenceable(8) %rep) #3
  %comparator = getelementptr inbounds %"struct.rocksdb::WriteBatchWithIndex::Rep", ptr %call2, i32 0, i32 1
  %3 = load ptr, ptr %column_family.addr, align 8
  %call3 = call noundef ptr @_ZNK7rocksdb25WriteBatchEntryComparator13GetComparatorEPKNS_18ColumnFamilyHandleE(ptr noundef nonnull align 8 dereferenceable(40) %comparator, ptr noundef %3)
  store ptr %call3, ptr %ucmp, align 8
  %4 = load ptr, ptr %ucmp, align 8
  %tobool4 = icmp ne ptr %4, null
  br i1 %tobool4, label %cond.true, label %cond.false

cond.true:                                        ; preds = %if.end
  %5 = load ptr, ptr %ucmp, align 8
  %call5 = call noundef i64 @_ZNK7rocksdb10Comparator14timestamp_sizeEv(ptr noundef nonnull align 8 dereferenceable(48) %5)
  br label %cond.end

cond.false:                                       ; preds = %if.end
  br label %cond.end

cond.end:                                         ; preds = %cond.false, %cond.true
  %cond = phi i64 [ %call5, %cond.true ], [ 0, %cond.false ]
  store i64 %cond, ptr %ts_sz, align 8
  %6 = load i64, ptr %ts_sz, align 8
  %cmp = icmp ugt i64 %6, 0
  br i1 %cmp, label %land.lhs.true, label %if.end12

land.lhs.true:                                    ; preds = %cond.end
  %7 = load ptr, ptr %read_options.addr, align 8
  %timestamp = getelementptr inbounds %"struct.rocksdb::ReadOptions", ptr %7, i32 0, i32 1
  %8 = load ptr, ptr %timestamp, align 8
  %tobool6 = icmp ne ptr %8, null
  br i1 %tobool6, label %if.end12, label %if.then7

if.then7:                                         ; preds = %land.lhs.true
  store i64 0, ptr %i, align 8
  br label %for.cond

for.cond:                                         ; preds = %for.inc, %if.then7
  %9 = load i64, ptr %i, align 8
  %10 = load i64, ptr %num_keys.addr, align 8
  %cmp8 = icmp ult i64 %9, %10
  br i1 %cmp8, label %for.body, label %for.end

for.body:                                         ; preds = %for.cond
  call void @_ZN7rocksdb5SliceC2EPKc(ptr noundef nonnull align 8 dereferenceable(16) %ref.tmp9, ptr noundef @.str.3)
  call void @_ZN7rocksdb5SliceC2Ev(ptr noundef nonnull align 8 dereferenceable(16) %ref.tmp10)
  call void @_ZN7rocksdb6Status15InvalidArgumentERKNS_5SliceES3_(ptr sret(%"class.rocksdb::Status") align 8 %ref.tmp, ptr noundef nonnull align 8 dereferenceable(16) %ref.tmp9, ptr noundef nonnull align 8 dereferenceable(16) %ref.tmp10)
  %11 = load ptr, ptr %statuses.addr, align 8
  %12 = load i64, ptr %i, align 8
  %arrayidx = getelementptr inbounds %"class.rocksdb::Status", ptr %11, i64 %12
  %call11 = call noundef nonnull align 8 dereferenceable(16) ptr @_ZN7rocksdb6StatusaSEOS0_(ptr noundef nonnull align 8 dereferenceable(16) %arrayidx, ptr noundef nonnull align 8 dereferenceable(16) %ref.tmp) #3
  call void @_ZN7rocksdb6StatusD2Ev(ptr noundef nonnull align 8 dereferenceable(16) %ref.tmp) #3
  br label %for.inc

for.inc:                                          ; preds = %for.body
  %13 = load i64, ptr %i, align 8
  %inc = add i64 %13, 1
  store i64 %inc, ptr %i, align 8
  br label %for.cond, !llvm.loop !10

for.end:                                          ; preds = %for.cond
  br label %return

if.end12:                                         ; preds = %land.lhs.true, %cond.end
  call void @_ZN7rocksdb10autovectorIZNS_19WriteBatchWithIndex22MultiGetFromBatchAndDBEPNS_2DBERKNS_11ReadOptionsEPNS_18ColumnFamilyHandleEmPKNS_5SliceEPNS_13PinnableSliceEPNS_6StatusEbPNS_12ReadCallbackEE10MergeTupleLm32EEC2Ev(ptr noundef nonnull align 8 dereferenceable(5672) %merges)
  invoke void @_ZN7rocksdb10autovectorINS_10KeyContextELm32EEC2Ev(ptr noundef nonnull align 8 dereferenceable(5160) %key_contexts)
          to label %invoke.cont unwind label %lpad

invoke.cont:                                      ; preds = %if.end12
  store i64 0, ptr %i13, align 8
  br label %for.cond14

for.cond14:                                       ; preds = %for.inc55, %invoke.cont
  %14 = load i64, ptr %i13, align 8
  %15 = load i64, ptr %num_keys.addr, align 8
  %cmp15 = icmp ult i64 %14, %15
  br i1 %cmp15, label %for.body16, label %for.end57

for.body16:                                       ; preds = %for.cond14
  %16 = load ptr, ptr %keys.addr, align 8
  %17 = load i64, ptr %i13, align 8
  %arrayidx17 = getelementptr inbounds %"class.rocksdb::Slice", ptr %16, i64 %17
  store ptr %arrayidx17, ptr %key, align 8
  call void @_ZN7rocksdb12MergeContextC2Ev(ptr noundef nonnull align 8 dereferenceable(17) %merge_context) #3
  call void @_ZNSt7__cxx1112basic_stringIcSt11char_traitsIcESaIcEEC1Ev(ptr noundef nonnull align 8 dereferenceable(32) %batch_value) #3
  %18 = load ptr, ptr %statuses.addr, align 8
  %19 = load i64, ptr %i13, align 8
  %arrayidx18 = getelementptr inbounds %"class.rocksdb::Status", ptr %18, i64 %19
  store ptr %arrayidx18, ptr %s, align 8
  %20 = load ptr, ptr %column_family.addr, align 8
  %21 = load ptr, ptr %key, align 8
  %22 = load ptr, ptr %s, align 8
  %call21 = invoke noundef zeroext i8 @_ZN7rocksdb27WriteBatchWithIndexInternal12GetFromBatchEPNS_19WriteBatchWithIndexEPNS_18ColumnFamilyHandleERKNS_5SliceEPNS_12MergeContextEPNSt7__cxx1112basic_stringIcSt11char_traitsIcESaIcEEEPNS_6StatusE(ptr noundef %this1, ptr noundef %20, ptr noundef nonnull align 8 dereferenceable(16) %21, ptr noundef %merge_context, ptr noundef %batch_value, ptr noundef %22)
          to label %invoke.cont20 unwind label %lpad19

invoke.cont20:                                    ; preds = %for.body16
  store i8 %call21, ptr %result, align 1
  %23 = load ptr, ptr %values.addr, align 8
  %24 = load i64, ptr %i13, align 8
  %arrayidx22 = getelementptr inbounds %"class.rocksdb::PinnableSlice", ptr %23, i64 %24
  store ptr %arrayidx22, ptr %pinnable_val, align 8
  %25 = load ptr, ptr %pinnable_val, align 8
  invoke void @_ZN7rocksdb13PinnableSlice5ResetEv(ptr noundef nonnull align 8 dereferenceable(89) %25)
          to label %invoke.cont23 unwind label %lpad19

invoke.cont23:                                    ; preds = %invoke.cont20
  %26 = load i8, ptr %result, align 1
  %conv = zext i8 %26 to i32
  %cmp24 = icmp eq i32 %conv, 0
  br i1 %cmp24, label %if.then25, label %if.end30

if.then25:                                        ; preds = %invoke.cont23
  %27 = load ptr, ptr %pinnable_val, align 8
  %call27 = invoke noundef ptr @_ZN7rocksdb13PinnableSlice7GetSelfB5cxx11Ev(ptr noundef nonnull align 8 dereferenceable(89) %27)
          to label %invoke.cont26 unwind label %lpad19

invoke.cont26:                                    ; preds = %if.then25
  %call28 = call noundef nonnull align 8 dereferenceable(32) ptr @_ZNSt7__cxx1112basic_stringIcSt11char_traitsIcESaIcEEaSEOS4_(ptr noundef nonnull align 8 dereferenceable(32) %call27, ptr noundef nonnull align 8 dereferenceable(32) %batch_value) #3
  %28 = load ptr, ptr %pinnable_val, align 8
  invoke void @_ZN7rocksdb13PinnableSlice7PinSelfEv(ptr noundef nonnull align 8 dereferenceable(89) %28)
          to label %invoke.cont29 unwind label %lpad19

invoke.cont29:                                    ; preds = %invoke.cont26
  store i32 7, ptr %cleanup.dest.slot, align 4
  br label %cleanup

lpad:                                             ; preds = %if.end12
  %29 = landingpad { ptr, i32 }
          cleanup
  %30 = extractvalue { ptr, i32 } %29, 0
  store ptr %30, ptr %exn.slot, align 8
  %31 = extractvalue { ptr, i32 } %29, 1
  store i32 %31, ptr %ehselector.slot, align 4
  br label %ehcleanup143

lpad19:                                           ; preds = %if.end50, %invoke.cont45, %if.then44, %if.then33, %invoke.cont26, %if.then25, %invoke.cont20, %for.body16
  %32 = landingpad { ptr, i32 }
          cleanup
  %33 = extractvalue { ptr, i32 } %32, 0
  store ptr %33, ptr %exn.slot, align 8
  %34 = extractvalue { ptr, i32 } %32, 1
  store i32 %34, ptr %ehselector.slot, align 4
  call void @_ZNSt7__cxx1112basic_stringIcSt11char_traitsIcESaIcEED1Ev(ptr noundef nonnull align 8 dereferenceable(32) %batch_value) #3
  call void @_ZN7rocksdb12MergeContextD2Ev(ptr noundef nonnull align 8 dereferenceable(17) %merge_context) #3
  br label %ehcleanup142

if.end30:                                         ; preds = %invoke.cont23
  %35 = load i8, ptr %result, align 1
  %conv31 = zext i8 %35 to i32
  %cmp32 = icmp eq i32 %conv31, 1
  br i1 %cmp32, label %if.then33, label %if.end37

if.then33:                                        ; preds = %if.end30
  invoke void @_ZN7rocksdb6Status8NotFoundENS0_7SubCodeE(ptr sret(%"class.rocksdb::Status") align 8 %ref.tmp34, i8 noundef zeroext 0)
          to label %invoke.cont35 unwind label %lpad19

invoke.cont35:                                    ; preds = %if.then33
  %36 = load ptr, ptr %s, align 8
  %call36 = call noundef nonnull align 8 dereferenceable(16) ptr @_ZN7rocksdb6StatusaSEOS0_(ptr noundef nonnull align 8 dereferenceable(16) %36, ptr noundef nonnull align 8 dereferenceable(16) %ref.tmp34) #3
  call void @_ZN7rocksdb6StatusD2Ev(ptr noundef nonnull align 8 dereferenceable(16) %ref.tmp34) #3
  store i32 7, ptr %cleanup.dest.slot, align 4
  br label %cleanup

if.end37:                                         ; preds = %if.end30
  %37 = load i8, ptr %result, align 1
  %conv38 = zext i8 %37 to i32
  %cmp39 = icmp eq i32 %conv38, 4
  br i1 %cmp39, label %if.then40, label %if.end41

if.then40:                                        ; preds = %if.end37
  store i32 7, ptr %cleanup.dest.slot, align 4
  br label %cleanup

if.end41:                                         ; preds = %if.end37
  %38 = load i8, ptr %result, align 1
  %conv42 = zext i8 %38 to i32
  %cmp43 = icmp eq i32 %conv42, 3
  br i1 %cmp43, label %if.then44, label %if.end50

if.then44:                                        ; preds = %if.end41
  %39 = load ptr, ptr %key, align 8
  invoke void @_ZN7rocksdb10autovectorIZNS_19WriteBatchWithIndex22MultiGetFromBatchAndDBEPNS_2DBERKNS_11ReadOptionsEPNS_18ColumnFamilyHandleEmPKNS_5SliceEPNS_13PinnableSliceEPNS_6StatusEbPNS_12ReadCallbackEE10MergeTupleLm32EE12emplace_backIJRSA_RKSF_NS_12MergeContextERKSD_EEEvDpOT_(ptr noundef nonnull align 8 dereferenceable(5672) %merges, ptr noundef nonnull align 8 dereferenceable(16) %39, ptr noundef nonnull align 8 dereferenceable(8) %s, ptr noundef nonnull align 8 dereferenceable(17) %merge_context, ptr noundef nonnull align 8 dereferenceable(8) %pinnable_val)
          to label %invoke.cont45 unwind label %lpad19

invoke.cont45:                                    ; preds = %if.then44
  %40 = load ptr, ptr %key, align 8
  store ptr null, ptr %ref.tmp46, align 8
  store ptr null, ptr %ref.tmp47, align 8
  store ptr null, ptr %ref.tmp48, align 8
  invoke void @_ZN7rocksdb10autovectorINS_10KeyContextELm32EE12emplace_backIJRPNS_18ColumnFamilyHandleERKNS_5SliceEDnDnDnRKPNS_6StatusEEEEvDpOT_(ptr noundef nonnull align 8 dereferenceable(5160) %key_contexts, ptr noundef nonnull align 8 dereferenceable(8) %column_family.addr, ptr noundef nonnull align 8 dereferenceable(16) %40, ptr noundef nonnull align 8 dereferenceable(8) %ref.tmp46, ptr noundef nonnull align 8 dereferenceable(8) %ref.tmp47, ptr noundef nonnull align 8 dereferenceable(8) %ref.tmp48, ptr noundef nonnull align 8 dereferenceable(8) %s)
          to label %invoke.cont49 unwind label %lpad19

invoke.cont49:                                    ; preds = %invoke.cont45
  store i32 7, ptr %cleanup.dest.slot, align 4
  br label %cleanup

if.end50:                                         ; preds = %if.end41
  %41 = load ptr, ptr %key, align 8
  store ptr null, ptr %ref.tmp51, align 8
  store ptr null, ptr %ref.tmp52, align 8
  invoke void @_ZN7rocksdb10autovectorINS_10KeyContextELm32EE12emplace_backIJRPNS_18ColumnFamilyHandleERKNS_5SliceERKPNS_13PinnableSliceEDnDnRKPNS_6StatusEEEEvDpOT_(ptr noundef nonnull align 8 dereferenceable(5160) %key_contexts, ptr noundef nonnull align 8 dereferenceable(8) %column_family.addr, ptr noundef nonnull align 8 dereferenceable(16) %41, ptr noundef nonnull align 8 dereferenceable(8) %pinnable_val, ptr noundef nonnull align 8 dereferenceable(8) %ref.tmp51, ptr noundef nonnull align 8 dereferenceable(8) %ref.tmp52, ptr noundef nonnull align 8 dereferenceable(8) %s)
          to label %invoke.cont53 unwind label %lpad19

invoke.cont53:                                    ; preds = %if.end50
  store i32 0, ptr %cleanup.dest.slot, align 4
  br label %cleanup

cleanup:                                          ; preds = %invoke.cont53, %invoke.cont49, %if.then40, %invoke.cont35, %invoke.cont29
  call void @_ZNSt7__cxx1112basic_stringIcSt11char_traitsIcESaIcEED1Ev(ptr noundef nonnull align 8 dereferenceable(32) %batch_value) #3
  call void @_ZN7rocksdb12MergeContextD2Ev(ptr noundef nonnull align 8 dereferenceable(17) %merge_context) #3
  %cleanup.dest = load i32, ptr %cleanup.dest.slot, align 4
  switch i32 %cleanup.dest, label %unreachable [
    i32 0, label %cleanup.cont
    i32 7, label %for.inc55
  ]

cleanup.cont:                                     ; preds = %cleanup
  br label %for.inc55

for.inc55:                                        ; preds = %cleanup.cont, %cleanup
  %42 = load i64, ptr %i13, align 8
  %inc56 = add i64 %42, 1
  store i64 %inc56, ptr %i13, align 8
  br label %for.cond14, !llvm.loop !11

for.end57:                                        ; preds = %for.cond14
  invoke void @_ZN7rocksdb10autovectorIPNS_10KeyContextELm32EEC2Ev(ptr noundef nonnull align 8 dereferenceable(296) %sorted_keys)
          to label %invoke.cont59 unwind label %lpad58

invoke.cont59:                                    ; preds = %for.end57
  %call62 = invoke noundef i64 @_ZNK7rocksdb10autovectorINS_10KeyContextELm32EE4sizeEv(ptr noundef nonnull align 8 dereferenceable(5160) %key_contexts)
          to label %invoke.cont61 unwind label %lpad60

invoke.cont61:                                    ; preds = %invoke.cont59
  invoke void @_ZN7rocksdb10autovectorIPNS_10KeyContextELm32EE7reserveEm(ptr noundef nonnull align 8 dereferenceable(296) %sorted_keys, i64 noundef %call62)
          to label %invoke.cont63 unwind label %lpad60

invoke.cont63:                                    ; preds = %invoke.cont61
  store i64 0, ptr %merges_idx, align 8
  store ptr %key_contexts, ptr %__range1, align 8
  %43 = load ptr, ptr %__range1, align 8
  invoke void @_ZN7rocksdb10autovectorINS_10KeyContextELm32EE5beginEv(ptr sret(%"class.rocksdb::autovector<rocksdb::KeyContext, 32>::iterator_impl") align 8 %__begin1, ptr noundef nonnull align 8 dereferenceable(5160) %43)
          to label %invoke.cont64 unwind label %lpad60

invoke.cont64:                                    ; preds = %invoke.cont63
  %44 = load ptr, ptr %__range1, align 8
  invoke void @_ZN7rocksdb10autovectorINS_10KeyContextELm32EE3endEv(ptr sret(%"class.rocksdb::autovector<rocksdb::KeyContext, 32>::iterator_impl") align 8 %__end1, ptr noundef nonnull align 8 dereferenceable(5160) %44)
          to label %invoke.cont66 unwind label %lpad65

invoke.cont66:                                    ; preds = %invoke.cont64
  br label %for.cond67

for.cond67:                                       ; preds = %invoke.cont83, %invoke.cont66
  %call70 = invoke noundef zeroext i1 @_ZNK7rocksdb10autovectorINS_10KeyContextELm32EE13iterator_implIS2_S1_EneERKS4_(ptr noundef nonnull align 8 dereferenceable(16) %__begin1, ptr noundef nonnull align 8 dereferenceable(16) %__end1)
          to label %invoke.cont69 unwind label %lpad68

invoke.cont69:                                    ; preds = %for.cond67
  br i1 %call70, label %for.body71, label %for.cond.cleanup

for.cond.cleanup:                                 ; preds = %invoke.cont69
  store i32 8, ptr %cleanup.dest.slot, align 4
  call void @_ZN7rocksdb10autovectorINS_10KeyContextELm32EE13iterator_implIS2_S1_ED2Ev(ptr noundef nonnull align 8 dereferenceable(16) %__end1) #3
  call void @_ZN7rocksdb10autovectorINS_10KeyContextELm32EE13iterator_implIS2_S1_ED2Ev(ptr noundef nonnull align 8 dereferenceable(16) %__begin1) #3
  br label %for.end87

lpad58:                                           ; preds = %for.end57
  %45 = landingpad { ptr, i32 }
          cleanup
  %46 = extractvalue { ptr, i32 } %45, 0
  store ptr %46, ptr %exn.slot, align 8
  %47 = extractvalue { ptr, i32 } %45, 1
  store i32 %47, ptr %ehselector.slot, align 4
  br label %ehcleanup142

lpad60:                                           ; preds = %invoke.cont104, %invoke.cont102, %invoke.cont100, %invoke.cont97, %invoke.cont94, %invoke.cont92, %invoke.cont90, %for.end87, %invoke.cont63, %invoke.cont61, %invoke.cont59
  %48 = landingpad { ptr, i32 }
          cleanup
  %49 = extractvalue { ptr, i32 } %48, 0
  store ptr %49, ptr %exn.slot, align 8
  %50 = extractvalue { ptr, i32 } %48, 1
  store i32 %50, ptr %ehselector.slot, align 4
  br label %ehcleanup141

lpad65:                                           ; preds = %invoke.cont64
  %51 = landingpad { ptr, i32 }
          cleanup
  %52 = extractvalue { ptr, i32 } %51, 0
  store ptr %52, ptr %exn.slot, align 8
  %53 = extractvalue { ptr, i32 } %51, 1
  store i32 %53, ptr %ehselector.slot, align 4
  br label %ehcleanup

lpad68:                                           ; preds = %for.inc82, %if.end79, %if.then75, %for.body71, %for.cond67
  %54 = landingpad { ptr, i32 }
          cleanup
  %55 = extractvalue { ptr, i32 } %54, 0
  store ptr %55, ptr %exn.slot, align 8
  %56 = extractvalue { ptr, i32 } %54, 1
  store i32 %56, ptr %ehselector.slot, align 4
  call void @_ZN7rocksdb10autovectorINS_10KeyContextELm32EE13iterator_implIS2_S1_ED2Ev(ptr noundef nonnull align 8 dereferenceable(16) %__end1) #3
  br label %ehcleanup

for.body71:                                       ; preds = %invoke.cont69
  %call73 = invoke noundef nonnull align 8 dereferenceable(160) ptr @_ZNK7rocksdb10autovectorINS_10KeyContextELm32EE13iterator_implIS2_S1_EdeEv(ptr noundef nonnull align 8 dereferenceable(16) %__begin1)
          to label %invoke.cont72 unwind label %lpad68

invoke.cont72:                                    ; preds = %for.body71
  store ptr %call73, ptr %key_context, align 8
  %57 = load ptr, ptr %key_context, align 8
  %value = getelementptr inbounds %"struct.rocksdb::KeyContext", ptr %57, i32 0, i32 12
  %58 = load ptr, ptr %value, align 8
  %tobool74 = icmp ne ptr %58, null
  br i1 %tobool74, label %if.end79, label %if.then75

if.then75:                                        ; preds = %invoke.cont72
  %59 = load i64, ptr %merges_idx, align 8
  %call77 = invoke noundef nonnull align 8 dereferenceable(176) ptr @_ZN7rocksdb10autovectorIZNS_19WriteBatchWithIndex22MultiGetFromBatchAndDBEPNS_2DBERKNS_11ReadOptionsEPNS_18ColumnFamilyHandleEmPKNS_5SliceEPNS_13PinnableSliceEPNS_6StatusEbPNS_12ReadCallbackEE10MergeTupleLm32EEixEm(ptr noundef nonnull align 8 dereferenceable(5672) %merges, i64 noundef %59)
          to label %invoke.cont76 unwind label %lpad68

invoke.cont76:                                    ; preds = %if.then75
  %existing = getelementptr inbounds %struct.MergeTuple, ptr %call77, i32 0, i32 2
  %60 = load ptr, ptr %key_context, align 8
  %columns = getelementptr inbounds %"struct.rocksdb::KeyContext", ptr %60, i32 0, i32 13
  store ptr %existing, ptr %columns, align 8
  %61 = load i64, ptr %merges_idx, align 8
  %inc78 = add i64 %61, 1
  store i64 %inc78, ptr %merges_idx, align 8
  br label %if.end79

if.end79:                                         ; preds = %invoke.cont76, %invoke.cont72
  %62 = load ptr, ptr %key_context, align 8
  store ptr %62, ptr %ref.tmp80, align 8
  invoke void @_ZN7rocksdb10autovectorIPNS_10KeyContextELm32EE12emplace_backIJS2_EEEvDpOT_(ptr noundef nonnull align 8 dereferenceable(296) %sorted_keys, ptr noundef nonnull align 8 dereferenceable(8) %ref.tmp80)
          to label %invoke.cont81 unwind label %lpad68

invoke.cont81:                                    ; preds = %if.end79
  br label %for.inc82

for.inc82:                                        ; preds = %invoke.cont81
  %call84 = invoke noundef nonnull align 8 dereferenceable(16) ptr @_ZN7rocksdb10autovectorINS_10KeyContextELm32EE13iterator_implIS2_S1_EppEv(ptr noundef nonnull align 8 dereferenceable(16) %__begin1)
          to label %invoke.cont83 unwind label %lpad68

invoke.cont83:                                    ; preds = %for.inc82
  br label %for.cond67

ehcleanup:                                        ; preds = %lpad68, %lpad65
  call void @_ZN7rocksdb10autovectorINS_10KeyContextELm32EE13iterator_implIS2_S1_ED2Ev(ptr noundef nonnull align 8 dereferenceable(16) %__begin1) #3
  br label %ehcleanup141

for.end87:                                        ; preds = %for.cond.cleanup
  %63 = load ptr, ptr %db.addr, align 8
  %vtable88 = load ptr, ptr %63, align 8
  %vfn89 = getelementptr inbounds ptr, ptr %vtable88, i64 147
  %64 = load ptr, ptr %vfn89, align 8
  %call91 = invoke noundef ptr %64(ptr noundef nonnull align 8 dereferenceable(8) %63)
          to label %invoke.cont90 unwind label %lpad60

invoke.cont90:                                    ; preds = %for.end87
  %call93 = invoke noundef ptr @_ZN7rocksdb22static_cast_with_checkINS_6DBImplENS_2DBEEEPT_PT0_(ptr noundef %call91)
          to label %invoke.cont92 unwind label %lpad60

invoke.cont92:                                    ; preds = %invoke.cont90
  %call95 = invoke noundef i64 @_ZNK7rocksdb10autovectorIPNS_10KeyContextELm32EE4sizeEv(ptr noundef nonnull align 8 dereferenceable(296) %sorted_keys)
          to label %invoke.cont94 unwind label %lpad60

invoke.cont94:                                    ; preds = %invoke.cont92
  %65 = load i8, ptr %sorted_input.addr, align 1
  %tobool96 = trunc i8 %65 to i1
  invoke void @_ZN7rocksdb6DBImpl19PrepareMultiGetKeysEmbPNS_10autovectorIPNS_10KeyContextELm32EEE(ptr noundef nonnull align 64 dereferenceable(6660) %call93, i64 noundef %call95, i1 noundef zeroext %tobool96, ptr noundef %sorted_keys)
          to label %invoke.cont97 unwind label %lpad60

invoke.cont97:                                    ; preds = %invoke.cont94
  %66 = load ptr, ptr %db.addr, align 8
  %vtable98 = load ptr, ptr %66, align 8
  %vfn99 = getelementptr inbounds ptr, ptr %vtable98, i64 147
  %67 = load ptr, ptr %vfn99, align 8
  %call101 = invoke noundef ptr %67(ptr noundef nonnull align 8 dereferenceable(8) %66)
          to label %invoke.cont100 unwind label %lpad60

invoke.cont100:                                   ; preds = %invoke.cont97
  %call103 = invoke noundef ptr @_ZN7rocksdb22static_cast_with_checkINS_6DBImplENS_2DBEEEPT_PT0_(ptr noundef %call101)
          to label %invoke.cont102 unwind label %lpad60

invoke.cont102:                                   ; preds = %invoke.cont100
  %68 = load ptr, ptr %read_options.addr, align 8
  %69 = load ptr, ptr %column_family.addr, align 8
  %70 = load ptr, ptr %callback.addr, align 8
  invoke void @_ZN7rocksdb6DBImpl20MultiGetWithCallbackERKNS_11ReadOptionsEPNS_18ColumnFamilyHandleEPNS_12ReadCallbackEPNS_10autovectorIPNS_10KeyContextELm32EEE(ptr noundef nonnull align 64 dereferenceable(6660) %call103, ptr noundef nonnull align 8 dereferenceable(154) %68, ptr noundef %69, ptr noundef %70, ptr noundef %sorted_keys)
          to label %invoke.cont104 unwind label %lpad60

invoke.cont104:                                   ; preds = %invoke.cont102
  store ptr %merges, ptr %__range1105, align 8
  %71 = load ptr, ptr %__range1105, align 8
  invoke void @_ZN7rocksdb10autovectorIZNS_19WriteBatchWithIndex22MultiGetFromBatchAndDBEPNS_2DBERKNS_11ReadOptionsEPNS_18ColumnFamilyHandleEmPKNS_5SliceEPNS_13PinnableSliceEPNS_6StatusEbPNS_12ReadCallbackEE10MergeTupleLm32EE5beginEv(ptr sret(%"class.rocksdb::autovector<MergeTuple, 32>::iterator_impl") align 8 %__begin1106, ptr noundef nonnull align 8 dereferenceable(5672) %71)
          to label %invoke.cont107 unwind label %lpad60

invoke.cont107:                                   ; preds = %invoke.cont104
  %72 = load ptr, ptr %__range1105, align 8
  invoke void @_ZN7rocksdb10autovectorIZNS_19WriteBatchWithIndex22MultiGetFromBatchAndDBEPNS_2DBERKNS_11ReadOptionsEPNS_18ColumnFamilyHandleEmPKNS_5SliceEPNS_13PinnableSliceEPNS_6StatusEbPNS_12ReadCallbackEE10MergeTupleLm32EE3endEv(ptr sret(%"class.rocksdb::autovector<MergeTuple, 32>::iterator_impl") align 8 %__end1108, ptr noundef nonnull align 8 dereferenceable(5672) %72)
          to label %invoke.cont110 unwind label %lpad109

invoke.cont110:                                   ; preds = %invoke.cont107
  br label %for.cond111

for.cond111:                                      ; preds = %invoke.cont134, %invoke.cont110
  %call114 = invoke noundef zeroext i1 @_ZNK7rocksdb10autovectorIZNS_19WriteBatchWithIndex22MultiGetFromBatchAndDBEPNS_2DBERKNS_11ReadOptionsEPNS_18ColumnFamilyHandleEmPKNS_5SliceEPNS_13PinnableSliceEPNS_6StatusEbPNS_12ReadCallbackEE10MergeTupleLm32EE13iterator_implISJ_SI_EneERKSL_(ptr noundef nonnull align 8 dereferenceable(16) %__begin1106, ptr noundef nonnull align 8 dereferenceable(16) %__end1108)
          to label %invoke.cont113 unwind label %lpad112

invoke.cont113:                                   ; preds = %for.cond111
  br i1 %call114, label %for.body116, label %for.cond.cleanup115

for.cond.cleanup115:                              ; preds = %invoke.cont113
  store i32 10, ptr %cleanup.dest.slot, align 4
  call void @_ZN7rocksdb10autovectorIZNS_19WriteBatchWithIndex22MultiGetFromBatchAndDBEPNS_2DBERKNS_11ReadOptionsEPNS_18ColumnFamilyHandleEmPKNS_5SliceEPNS_13PinnableSliceEPNS_6StatusEbPNS_12ReadCallbackEE10MergeTupleLm32EE13iterator_implISJ_SI_ED2Ev(ptr noundef nonnull align 8 dereferenceable(16) %__end1108) #3
  call void @_ZN7rocksdb10autovectorIZNS_19WriteBatchWithIndex22MultiGetFromBatchAndDBEPNS_2DBERKNS_11ReadOptionsEPNS_18ColumnFamilyHandleEmPKNS_5SliceEPNS_13PinnableSliceEPNS_6StatusEbPNS_12ReadCallbackEE10MergeTupleLm32EE13iterator_implISJ_SI_ED2Ev(ptr noundef nonnull align 8 dereferenceable(16) %__begin1106) #3
  br label %for.end140

lpad109:                                          ; preds = %invoke.cont107
  %73 = landingpad { ptr, i32 }
          cleanup
  %74 = extractvalue { ptr, i32 } %73, 0
  store ptr %74, ptr %exn.slot, align 8
  %75 = extractvalue { ptr, i32 } %73, 1
  store i32 %75, ptr %ehselector.slot, align 4
  br label %ehcleanup139

lpad112:                                          ; preds = %for.inc133, %if.then125, %lor.lhs.false, %invoke.cont117, %for.body116, %for.cond111
  %76 = landingpad { ptr, i32 }
          cleanup
  %77 = extractvalue { ptr, i32 } %76, 0
  store ptr %77, ptr %exn.slot, align 8
  %78 = extractvalue { ptr, i32 } %76, 1
  store i32 %78, ptr %ehselector.slot, align 4
  call void @_ZN7rocksdb10autovectorIZNS_19WriteBatchWithIndex22MultiGetFromBatchAndDBEPNS_2DBERKNS_11ReadOptionsEPNS_18ColumnFamilyHandleEmPKNS_5SliceEPNS_13PinnableSliceEPNS_6StatusEbPNS_12ReadCallbackEE10MergeTupleLm32EE13iterator_implISJ_SI_ED2Ev(ptr noundef nonnull align 8 dereferenceable(16) %__end1108) #3
  br label %ehcleanup139

for.body116:                                      ; preds = %invoke.cont113
  %call118 = invoke noundef nonnull align 8 dereferenceable(176) ptr @_ZNK7rocksdb10autovectorIZNS_19WriteBatchWithIndex22MultiGetFromBatchAndDBEPNS_2DBERKNS_11ReadOptionsEPNS_18ColumnFamilyHandleEmPKNS_5SliceEPNS_13PinnableSliceEPNS_6StatusEbPNS_12ReadCallbackEE10MergeTupleLm32EE13iterator_implISJ_SI_EdeEv(ptr noundef nonnull align 8 dereferenceable(16) %__begin1106)
          to label %invoke.cont117 unwind label %lpad112

invoke.cont117:                                   ; preds = %for.body116
  store ptr %call118, ptr %merge, align 8
  %79 = load ptr, ptr %merge, align 8
  %s119 = getelementptr inbounds %struct.MergeTuple, ptr %79, i32 0, i32 1
  %80 = load ptr, ptr %s119, align 8
  %call121 = invoke noundef zeroext i1 @_ZNK7rocksdb6Status2okEv(ptr noundef nonnull align 8 dereferenceable(16) %80)
          to label %invoke.cont120 unwind label %lpad112

invoke.cont120:                                   ; preds = %invoke.cont117
  br i1 %call121, label %if.then125, label %lor.lhs.false

lor.lhs.false:                                    ; preds = %invoke.cont120
  %81 = load ptr, ptr %merge, align 8
  %s122 = getelementptr inbounds %struct.MergeTuple, ptr %81, i32 0, i32 1
  %82 = load ptr, ptr %s122, align 8
  %call124 = invoke noundef zeroext i1 @_ZNK7rocksdb6Status10IsNotFoundEv(ptr noundef nonnull align 8 dereferenceable(16) %82)
          to label %invoke.cont123 unwind label %lpad112

invoke.cont123:                                   ; preds = %lor.lhs.false
  br i1 %call124, label %if.then125, label %if.end132

if.then125:                                       ; preds = %invoke.cont123, %invoke.cont120
  %83 = load ptr, ptr %column_family.addr, align 8
  %84 = load ptr, ptr %merge, align 8
  %key126 = getelementptr inbounds %struct.MergeTuple, ptr %84, i32 0, i32 0
  %85 = load ptr, ptr %merge, align 8
  %existing127 = getelementptr inbounds %struct.MergeTuple, ptr %85, i32 0, i32 2
  %86 = load ptr, ptr %merge, align 8
  %merge_context128 = getelementptr inbounds %struct.MergeTuple, ptr %86, i32 0, i32 3
  %87 = load ptr, ptr %merge, align 8
  %value129 = getelementptr inbounds %struct.MergeTuple, ptr %87, i32 0, i32 4
  %88 = load ptr, ptr %value129, align 8
  %89 = load ptr, ptr %merge, align 8
  %s130 = getelementptr inbounds %struct.MergeTuple, ptr %89, i32 0, i32 1
  %90 = load ptr, ptr %s130, align 8
  invoke void @_ZN7rocksdb19WriteBatchWithIndex21MergeAcrossBatchAndDBEPNS_18ColumnFamilyHandleERKNS_5SliceERKNS_19PinnableWideColumnsERKNS_12MergeContextEPNS_13PinnableSliceEPNS_6StatusE(ptr noundef nonnull align 8 dereferenceable(16) %this1, ptr noundef %83, ptr noundef nonnull align 8 dereferenceable(16) %key126, ptr noundef nonnull align 8 dereferenceable(120) %existing127, ptr noundef nonnull align 8 dereferenceable(17) %merge_context128, ptr noundef %88, ptr noundef %90)
          to label %invoke.cont131 unwind label %lpad112

invoke.cont131:                                   ; preds = %if.then125
  br label %if.end132

if.end132:                                        ; preds = %invoke.cont131, %invoke.cont123
  br label %for.inc133

for.inc133:                                       ; preds = %if.end132
  %call135 = invoke noundef nonnull align 8 dereferenceable(16) ptr @_ZN7rocksdb10autovectorIZNS_19WriteBatchWithIndex22MultiGetFromBatchAndDBEPNS_2DBERKNS_11ReadOptionsEPNS_18ColumnFamilyHandleEmPKNS_5SliceEPNS_13PinnableSliceEPNS_6StatusEbPNS_12ReadCallbackEE10MergeTupleLm32EE13iterator_implISJ_SI_EppEv(ptr noundef nonnull align 8 dereferenceable(16) %__begin1106)
          to label %invoke.cont134 unwind label %lpad112

invoke.cont134:                                   ; preds = %for.inc133
  br label %for.cond111

ehcleanup139:                                     ; preds = %lpad112, %lpad109
  call void @_ZN7rocksdb10autovectorIZNS_19WriteBatchWithIndex22MultiGetFromBatchAndDBEPNS_2DBERKNS_11ReadOptionsEPNS_18ColumnFamilyHandleEmPKNS_5SliceEPNS_13PinnableSliceEPNS_6StatusEbPNS_12ReadCallbackEE10MergeTupleLm32EE13iterator_implISJ_SI_ED2Ev(ptr noundef nonnull align 8 dereferenceable(16) %__begin1106) #3
  br label %ehcleanup141

for.end140:                                       ; preds = %for.cond.cleanup115
  call void @_ZN7rocksdb10autovectorIPNS_10KeyContextELm32EED2Ev(ptr noundef nonnull align 8 dereferenceable(296) %sorted_keys) #3
  call void @_ZN7rocksdb10autovectorINS_10KeyContextELm32EED2Ev(ptr noundef nonnull align 8 dereferenceable(5160) %key_contexts) #3
  call void @_ZN7rocksdb10autovectorIZNS_19WriteBatchWithIndex22MultiGetFromBatchAndDBEPNS_2DBERKNS_11ReadOptionsEPNS_18ColumnFamilyHandleEmPKNS_5SliceEPNS_13PinnableSliceEPNS_6StatusEbPNS_12ReadCallbackEE10MergeTupleLm32EED2Ev(ptr noundef nonnull align 8 dereferenceable(5672) %merges) #3
  br label %return

return:                                           ; preds = %for.end140, %for.end
  ret void

ehcleanup141:                                     ; preds = %ehcleanup139, %ehcleanup, %lpad60
  call void @_ZN7rocksdb10autovectorIPNS_10KeyContextELm32EED2Ev(ptr noundef nonnull align 8 dereferenceable(296) %sorted_keys) #3
  br label %ehcleanup142

ehcleanup142:                                     ; preds = %ehcleanup141, %lpad58, %lpad19
  call void @_ZN7rocksdb10autovectorINS_10KeyContextELm32EED2Ev(ptr noundef nonnull align 8 dereferenceable(5160) %key_contexts) #3
  br label %ehcleanup143

ehcleanup143:                                     ; preds = %ehcleanup142, %lpad
  call void @_ZN7rocksdb10autovectorIZNS_19WriteBatchWithIndex22MultiGetFromBatchAndDBEPNS_2DBERKNS_11ReadOptionsEPNS_18ColumnFamilyHandleEmPKNS_5SliceEPNS_13PinnableSliceEPNS_6StatusEbPNS_12ReadCallbackEE10MergeTupleLm32EED2Ev(ptr noundef nonnull align 8 dereferenceable(5672) %merges) #3
  br label %eh.resume

eh.resume:                                        ; preds = %ehcleanup143
  %exn = load ptr, ptr %exn.slot, align 8
  %sel = load i32, ptr %ehselector.slot, align 4
  %lpad.val = insertvalue { ptr, i32 } poison, ptr %exn, 0
  %lpad.val144 = insertvalue { ptr, i32 } %lpad.val, i32 %sel, 1
  resume { ptr, i32 } %lpad.val144

unreachable:                                      ; preds = %cleanup
  unreachable
}

; Function Attrs: mustprogress nounwind uwtable
define internal void @_ZN7rocksdb10autovectorIZNS_19WriteBatchWithIndex22MultiGetFromBatchAndDBEPNS_2DBERKNS_11ReadOptionsEPNS_18ColumnFamilyHandleEmPKNS_5SliceEPNS_13PinnableSliceEPNS_6StatusEbPNS_12ReadCallbackEE10MergeTupleLm32EEC2Ev(ptr noundef nonnull align 8 dereferenceable(5672) %this) unnamed_addr #1 align 2 {
entry:
  %this.addr = alloca ptr, align 8
  store ptr %this, ptr %this.addr, align 8
  %this1 = load ptr, ptr %this.addr, align 8
  %num_stack_items_ = getelementptr inbounds %"class.rocksdb::autovector.390", ptr %this1, i32 0, i32 0
  store i64 0, ptr %num_stack_items_, align 8
  %values_ = getelementptr inbounds %"class.rocksdb::autovector.390", ptr %this1, i32 0, i32 2
  %buf_ = getelementptr inbounds %"class.rocksdb::autovector.390", ptr %this1, i32 0, i32 1
  %arraydecay = getelementptr inbounds [5632 x i8], ptr %buf_, i64 0, i64 0
  store ptr %arraydecay, ptr %values_, align 8
  %vect_ = getelementptr inbounds %"class.rocksdb::autovector.390", ptr %this1, i32 0, i32 3
  call void @_ZNSt6vectorIZN7rocksdb19WriteBatchWithIndex22MultiGetFromBatchAndDBEPNS0_2DBERKNS0_11ReadOptionsEPNS0_18ColumnFamilyHandleEmPKNS0_5SliceEPNS0_13PinnableSliceEPNS0_6StatusEbPNS0_12ReadCallbackEE10MergeTupleSaISI_EEC2Ev(ptr noundef nonnull align 8 dereferenceable(24) %vect_) #3
  ret void
}

; Function Attrs: mustprogress nounwind uwtable
define linkonce_odr void @_ZN7rocksdb10autovectorINS_10KeyContextELm32EEC2Ev(ptr noundef nonnull align 8 dereferenceable(5160) %this) unnamed_addr #1 comdat align 2 {
entry:
  %this.addr = alloca ptr, align 8
  store ptr %this, ptr %this.addr, align 8
  %this1 = load ptr, ptr %this.addr, align 8
  %num_stack_items_ = getelementptr inbounds %"class.rocksdb::autovector.396", ptr %this1, i32 0, i32 0
  store i64 0, ptr %num_stack_items_, align 8
  %values_ = getelementptr inbounds %"class.rocksdb::autovector.396", ptr %this1, i32 0, i32 2
  %buf_ = getelementptr inbounds %"class.rocksdb::autovector.396", ptr %this1, i32 0, i32 1
  %arraydecay = getelementptr inbounds [5120 x i8], ptr %buf_, i64 0, i64 0
  store ptr %arraydecay, ptr %values_, align 8
  %vect_ = getelementptr inbounds %"class.rocksdb::autovector.396", ptr %this1, i32 0, i32 3
  call void @_ZNSt6vectorIN7rocksdb10KeyContextESaIS1_EEC2Ev(ptr noundef nonnull align 8 dereferenceable(24) %vect_) #3
  ret void
}

; Function Attrs: mustprogress uwtable
define internal void @_ZN7rocksdb10autovectorIZNS_19WriteBatchWithIndex22MultiGetFromBatchAndDBEPNS_2DBERKNS_11ReadOptionsEPNS_18ColumnFamilyHandleEmPKNS_5SliceEPNS_13PinnableSliceEPNS_6StatusEbPNS_12ReadCallbackEE10MergeTupleLm32EE12emplace_backIJRSA_RKSF_NS_12MergeContextERKSD_EEEvDpOT_(ptr noundef nonnull align 8 dereferenceable(5672) %this, ptr noundef nonnull align 8 dereferenceable(16) %args, ptr noundef nonnull align 8 dereferenceable(8) %args1, ptr noundef nonnull align 8 dereferenceable(17) %args3, ptr noundef nonnull align 8 dereferenceable(8) %args5) #0 align 2 {
entry:
  %this.addr = alloca ptr, align 8
  %args.addr = alloca ptr, align 8
  %args.addr2 = alloca ptr, align 8
  %args.addr4 = alloca ptr, align 8
  %args.addr6 = alloca ptr, align 8
  store ptr %this, ptr %this.addr, align 8
  store ptr %args, ptr %args.addr, align 8
  store ptr %args1, ptr %args.addr2, align 8
  store ptr %args3, ptr %args.addr4, align 8
  store ptr %args5, ptr %args.addr6, align 8
  %this7 = load ptr, ptr %this.addr, align 8
  %num_stack_items_ = getelementptr inbounds %"class.rocksdb::autovector.390", ptr %this7, i32 0, i32 0
  %0 = load i64, ptr %num_stack_items_, align 8
  %cmp = icmp ult i64 %0, 32
  br i1 %cmp, label %if.then, label %if.else

if.then:                                          ; preds = %entry
  %values_ = getelementptr inbounds %"class.rocksdb::autovector.390", ptr %this7, i32 0, i32 2
  %1 = load ptr, ptr %values_, align 8
  %num_stack_items_8 = getelementptr inbounds %"class.rocksdb::autovector.390", ptr %this7, i32 0, i32 0
  %2 = load i64, ptr %num_stack_items_8, align 8
  %inc = add i64 %2, 1
  store i64 %inc, ptr %num_stack_items_8, align 8
  %arrayidx = getelementptr inbounds %struct.MergeTuple, ptr %1, i64 %2
  %3 = load ptr, ptr %args.addr, align 8
  %4 = load ptr, ptr %args.addr2, align 8
  %5 = load ptr, ptr %4, align 8
  %6 = load ptr, ptr %args.addr4, align 8
  %7 = load ptr, ptr %args.addr6, align 8
  %8 = load ptr, ptr %7, align 8
  call void @_ZZN7rocksdb19WriteBatchWithIndex22MultiGetFromBatchAndDBEPNS_2DBERKNS_11ReadOptionsEPNS_18ColumnFamilyHandleEmPKNS_5SliceEPNS_13PinnableSliceEPNS_6StatusEbPNS_12ReadCallbackEEN10MergeTupleC2ERS9_SE_ONS_12MergeContextESC_(ptr noundef nonnull align 8 dereferenceable(176) %arrayidx, ptr noundef nonnull align 8 dereferenceable(16) %3, ptr noundef %5, ptr noundef nonnull align 8 dereferenceable(17) %6, ptr noundef %8)
  br label %if.end

if.else:                                          ; preds = %entry
  %vect_ = getelementptr inbounds %"class.rocksdb::autovector.390", ptr %this7, i32 0, i32 3
  %9 = load ptr, ptr %args.addr, align 8
  %10 = load ptr, ptr %args.addr2, align 8
  %11 = load ptr, ptr %args.addr4, align 8
  %12 = load ptr, ptr %args.addr6, align 8
  %call = call noundef nonnull align 8 dereferenceable(176) ptr @_ZNSt6vectorIZN7rocksdb19WriteBatchWithIndex22MultiGetFromBatchAndDBEPNS0_2DBERKNS0_11ReadOptionsEPNS0_18ColumnFamilyHandleEmPKNS0_5SliceEPNS0_13PinnableSliceEPNS0_6StatusEbPNS0_12ReadCallbackEE10MergeTupleSaISI_EE12emplace_backIJRSA_RKSF_NS0_12MergeContextERKSD_EEERSI_DpOT_(ptr noundef nonnull align 8 dereferenceable(24) %vect_, ptr noundef nonnull align 8 dereferenceable(16) %9, ptr noundef nonnull align 8 dereferenceable(8) %10, ptr noundef nonnull align 8 dereferenceable(17) %11, ptr noundef nonnull align 8 dereferenceable(8) %12)
  br label %if.end

if.end:                                           ; preds = %if.else, %if.then
  ret void
}

; Function Attrs: mustprogress uwtable
define linkonce_odr void @_ZN7rocksdb10autovectorINS_10KeyContextELm32EE12emplace_backIJRPNS_18ColumnFamilyHandleERKNS_5SliceEDnDnDnRKPNS_6StatusEEEEvDpOT_(ptr noundef nonnull align 8 dereferenceable(5160) %this, ptr noundef nonnull align 8 dereferenceable(8) %args, ptr noundef nonnull align 8 dereferenceable(16) %args1, ptr noundef nonnull align 8 dereferenceable(8) %args3, ptr noundef nonnull align 8 dereferenceable(8) %args5, ptr noundef nonnull align 8 dereferenceable(8) %args7, ptr noundef nonnull align 8 dereferenceable(8) %args9) #0 comdat align 2 {
entry:
  %this.addr = alloca ptr, align 8
  %args.addr = alloca ptr, align 8
  %args.addr2 = alloca ptr, align 8
  %args.addr4 = alloca ptr, align 8
  %args.addr6 = alloca ptr, align 8
  %args.addr8 = alloca ptr, align 8
  %args.addr10 = alloca ptr, align 8
  store ptr %this, ptr %this.addr, align 8
  store ptr %args, ptr %args.addr, align 8
  store ptr %args1, ptr %args.addr2, align 8
  store ptr %args3, ptr %args.addr4, align 8
  store ptr %args5, ptr %args.addr6, align 8
  store ptr %args7, ptr %args.addr8, align 8
  store ptr %args9, ptr %args.addr10, align 8
  %this11 = load ptr, ptr %this.addr, align 8
  %num_stack_items_ = getelementptr inbounds %"class.rocksdb::autovector.396", ptr %this11, i32 0, i32 0
  %0 = load i64, ptr %num_stack_items_, align 8
  %cmp = icmp ult i64 %0, 32
  br i1 %cmp, label %if.then, label %if.else

if.then:                                          ; preds = %entry
  %values_ = getelementptr inbounds %"class.rocksdb::autovector.396", ptr %this11, i32 0, i32 2
  %1 = load ptr, ptr %values_, align 8
  %num_stack_items_12 = getelementptr inbounds %"class.rocksdb::autovector.396", ptr %this11, i32 0, i32 0
  %2 = load i64, ptr %num_stack_items_12, align 8
  %inc = add i64 %2, 1
  store i64 %inc, ptr %num_stack_items_12, align 8
  %arrayidx = getelementptr inbounds %"struct.rocksdb::KeyContext", ptr %1, i64 %2
  %3 = load ptr, ptr %args.addr, align 8
  %4 = load ptr, ptr %3, align 8
  %5 = load ptr, ptr %args.addr2, align 8
  %6 = load ptr, ptr %args.addr10, align 8
  %7 = load ptr, ptr %6, align 8
  call void @_ZN7rocksdb10KeyContextC2EPNS_18ColumnFamilyHandleERKNS_5SliceEPNS_13PinnableSliceEPNS_19PinnableWideColumnsEPNSt7__cxx1112basic_stringIcSt11char_traitsIcESaIcEEEPNS_6StatusE(ptr noundef nonnull align 8 dereferenceable(160) %arrayidx, ptr noundef %4, ptr noundef nonnull align 8 dereferenceable(16) %5, ptr noundef null, ptr noundef null, ptr noundef null, ptr noundef %7)
  br label %if.end

if.else:                                          ; preds = %entry
  %vect_ = getelementptr inbounds %"class.rocksdb::autovector.396", ptr %this11, i32 0, i32 3
  %8 = load ptr, ptr %args.addr, align 8
  %9 = load ptr, ptr %args.addr2, align 8
  %10 = load ptr, ptr %args.addr4, align 8
  %11 = load ptr, ptr %args.addr6, align 8
  %12 = load ptr, ptr %args.addr8, align 8
  %13 = load ptr, ptr %args.addr10, align 8
  %call = call noundef nonnull align 8 dereferenceable(160) ptr @_ZNSt6vectorIN7rocksdb10KeyContextESaIS1_EE12emplace_backIJRPNS0_18ColumnFamilyHandleERKNS0_5SliceEDnDnDnRKPNS0_6StatusEEEERS1_DpOT_(ptr noundef nonnull align 8 dereferenceable(24) %vect_, ptr noundef nonnull align 8 dereferenceable(8) %8, ptr noundef nonnull align 8 dereferenceable(16) %9, ptr noundef nonnull align 8 dereferenceable(8) %10, ptr noundef nonnull align 8 dereferenceable(8) %11, ptr noundef nonnull align 8 dereferenceable(8) %12, ptr noundef nonnull align 8 dereferenceable(8) %13)
  br label %if.end

if.end:                                           ; preds = %if.else, %if.then
  ret void
}

; Function Attrs: mustprogress uwtable
define linkonce_odr void @_ZN7rocksdb10autovectorINS_10KeyContextELm32EE12emplace_backIJRPNS_18ColumnFamilyHandleERKNS_5SliceERKPNS_13PinnableSliceEDnDnRKPNS_6StatusEEEEvDpOT_(ptr noundef nonnull align 8 dereferenceable(5160) %this, ptr noundef nonnull align 8 dereferenceable(8) %args, ptr noundef nonnull align 8 dereferenceable(16) %args1, ptr noundef nonnull align 8 dereferenceable(8) %args3, ptr noundef nonnull align 8 dereferenceable(8) %args5, ptr noundef nonnull align 8 dereferenceable(8) %args7, ptr noundef nonnull align 8 dereferenceable(8) %args9) #0 comdat align 2 {
entry:
  %this.addr = alloca ptr, align 8
  %args.addr = alloca ptr, align 8
  %args.addr2 = alloca ptr, align 8
  %args.addr4 = alloca ptr, align 8
  %args.addr6 = alloca ptr, align 8
  %args.addr8 = alloca ptr, align 8
  %args.addr10 = alloca ptr, align 8
  store ptr %this, ptr %this.addr, align 8
  store ptr %args, ptr %args.addr, align 8
  store ptr %args1, ptr %args.addr2, align 8
  store ptr %args3, ptr %args.addr4, align 8
  store ptr %args5, ptr %args.addr6, align 8
  store ptr %args7, ptr %args.addr8, align 8
  store ptr %args9, ptr %args.addr10, align 8
  %this11 = load ptr, ptr %this.addr, align 8
  %num_stack_items_ = getelementptr inbounds %"class.rocksdb::autovector.396", ptr %this11, i32 0, i32 0
  %0 = load i64, ptr %num_stack_items_, align 8
  %cmp = icmp ult i64 %0, 32
  br i1 %cmp, label %if.then, label %if.else

if.then:                                          ; preds = %entry
  %values_ = getelementptr inbounds %"class.rocksdb::autovector.396", ptr %this11, i32 0, i32 2
  %1 = load ptr, ptr %values_, align 8
  %num_stack_items_12 = getelementptr inbounds %"class.rocksdb::autovector.396", ptr %this11, i32 0, i32 0
  %2 = load i64, ptr %num_stack_items_12, align 8
  %inc = add i64 %2, 1
  store i64 %inc, ptr %num_stack_items_12, align 8
  %arrayidx = getelementptr inbounds %"struct.rocksdb::KeyContext", ptr %1, i64 %2
  %3 = load ptr, ptr %args.addr, align 8
  %4 = load ptr, ptr %3, align 8
  %5 = load ptr, ptr %args.addr2, align 8
  %6 = load ptr, ptr %args.addr4, align 8
  %7 = load ptr, ptr %6, align 8
  %8 = load ptr, ptr %args.addr10, align 8
  %9 = load ptr, ptr %8, align 8
  call void @_ZN7rocksdb10KeyContextC2EPNS_18ColumnFamilyHandleERKNS_5SliceEPNS_13PinnableSliceEPNS_19PinnableWideColumnsEPNSt7__cxx1112basic_stringIcSt11char_traitsIcESaIcEEEPNS_6StatusE(ptr noundef nonnull align 8 dereferenceable(160) %arrayidx, ptr noundef %4, ptr noundef nonnull align 8 dereferenceable(16) %5, ptr noundef %7, ptr noundef null, ptr noundef null, ptr noundef %9)
  br label %if.end

if.else:                                          ; preds = %entry
  %vect_ = getelementptr inbounds %"class.rocksdb::autovector.396", ptr %this11, i32 0, i32 3
  %10 = load ptr, ptr %args.addr, align 8
  %11 = load ptr, ptr %args.addr2, align 8
  %12 = load ptr, ptr %args.addr4, align 8
  %13 = load ptr, ptr %args.addr6, align 8
  %14 = load ptr, ptr %args.addr8, align 8
  %15 = load ptr, ptr %args.addr10, align 8
  %call = call noundef nonnull align 8 dereferenceable(160) ptr @_ZNSt6vectorIN7rocksdb10KeyContextESaIS1_EE12emplace_backIJRPNS0_18ColumnFamilyHandleERKNS0_5SliceERKPNS0_13PinnableSliceEDnDnRKPNS0_6StatusEEEERS1_DpOT_(ptr noundef nonnull align 8 dereferenceable(24) %vect_, ptr noundef nonnull align 8 dereferenceable(8) %10, ptr noundef nonnull align 8 dereferenceable(16) %11, ptr noundef nonnull align 8 dereferenceable(8) %12, ptr noundef nonnull align 8 dereferenceable(8) %13, ptr noundef nonnull align 8 dereferenceable(8) %14, ptr noundef nonnull align 8 dereferenceable(8) %15)
  br label %if.end

if.end:                                           ; preds = %if.else, %if.then
  ret void
}

; Function Attrs: mustprogress nounwind uwtable
define linkonce_odr void @_ZN7rocksdb10autovectorIPNS_10KeyContextELm32EEC2Ev(ptr noundef nonnull align 8 dereferenceable(296) %this) unnamed_addr #1 comdat align 2 {
entry:
  %this.addr = alloca ptr, align 8
  store ptr %this, ptr %this.addr, align 8
  %this1 = load ptr, ptr %this.addr, align 8
  %num_stack_items_ = getelementptr inbounds %"class.rocksdb::autovector.402", ptr %this1, i32 0, i32 0
  store i64 0, ptr %num_stack_items_, align 8
  %values_ = getelementptr inbounds %"class.rocksdb::autovector.402", ptr %this1, i32 0, i32 2
  %buf_ = getelementptr inbounds %"class.rocksdb::autovector.402", ptr %this1, i32 0, i32 1
  %arraydecay = getelementptr inbounds [256 x i8], ptr %buf_, i64 0, i64 0
  store ptr %arraydecay, ptr %values_, align 8
  %vect_ = getelementptr inbounds %"class.rocksdb::autovector.402", ptr %this1, i32 0, i32 3
  call void @_ZNSt6vectorIPN7rocksdb10KeyContextESaIS2_EEC2Ev(ptr noundef nonnull align 8 dereferenceable(24) %vect_) #3
  ret void
}

; Function Attrs: mustprogress uwtable
define linkonce_odr void @_ZN7rocksdb10autovectorIPNS_10KeyContextELm32EE7reserveEm(ptr noundef nonnull align 8 dereferenceable(296) %this, i64 noundef %cap) #0 comdat align 2 {
entry:
  %this.addr = alloca ptr, align 8
  %cap.addr = alloca i64, align 8
  store ptr %this, ptr %this.addr, align 8
  store i64 %cap, ptr %cap.addr, align 8
  %this1 = load ptr, ptr %this.addr, align 8
  %0 = load i64, ptr %cap.addr, align 8
  %cmp = icmp ugt i64 %0, 32
  br i1 %cmp, label %if.then, label %if.end

if.then:                                          ; preds = %entry
  %vect_ = getelementptr inbounds %"class.rocksdb::autovector.402", ptr %this1, i32 0, i32 3
  %1 = load i64, ptr %cap.addr, align 8
  %sub = sub i64 %1, 32
  call void @_ZNSt6vectorIPN7rocksdb10KeyContextESaIS2_EE7reserveEm(ptr noundef nonnull align 8 dereferenceable(24) %vect_, i64 noundef %sub)
  br label %if.end

if.end:                                           ; preds = %if.then, %entry
  ret void
}

; Function Attrs: mustprogress nounwind uwtable
define linkonce_odr noundef i64 @_ZNK7rocksdb10autovectorINS_10KeyContextELm32EE4sizeEv(ptr noundef nonnull align 8 dereferenceable(5160) %this) #1 comdat align 2 {
entry:
  %this.addr = alloca ptr, align 8
  store ptr %this, ptr %this.addr, align 8
  %this1 = load ptr, ptr %this.addr, align 8
  %num_stack_items_ = getelementptr inbounds %"class.rocksdb::autovector.396", ptr %this1, i32 0, i32 0
  %0 = load i64, ptr %num_stack_items_, align 8
  %vect_ = getelementptr inbounds %"class.rocksdb::autovector.396", ptr %this1, i32 0, i32 3
  %call = call noundef i64 @_ZNKSt6vectorIN7rocksdb10KeyContextESaIS1_EE4sizeEv(ptr noundef nonnull align 8 dereferenceable(24) %vect_) #3
  %add = add i64 %0, %call
  ret i64 %add
}

; Function Attrs: mustprogress uwtable
define linkonce_odr void @_ZN7rocksdb10autovectorINS_10KeyContextELm32EE5beginEv(ptr noalias sret(%"class.rocksdb::autovector<rocksdb::KeyContext, 32>::iterator_impl") align 8 %agg.result, ptr noundef nonnull align 8 dereferenceable(5160) %this) #0 comdat align 2 {
entry:
  %result.ptr = alloca ptr, align 8
  %this.addr = alloca ptr, align 8
  store ptr %agg.result, ptr %result.ptr, align 8
  store ptr %this, ptr %this.addr, align 8
  %this1 = load ptr, ptr %this.addr, align 8
  call void @_ZN7rocksdb10autovectorINS_10KeyContextELm32EE13iterator_implIS2_S1_EC2EPS2_m(ptr noundef nonnull align 8 dereferenceable(16) %agg.result, ptr noundef %this1, i64 noundef 0)
  ret void
}

; Function Attrs: mustprogress uwtable
define linkonce_odr void @_ZN7rocksdb10autovectorINS_10KeyContextELm32EE3endEv(ptr noalias sret(%"class.rocksdb::autovector<rocksdb::KeyContext, 32>::iterator_impl") align 8 %agg.result, ptr noundef nonnull align 8 dereferenceable(5160) %this) #0 comdat align 2 {
entry:
  %result.ptr = alloca ptr, align 8
  %this.addr = alloca ptr, align 8
  store ptr %agg.result, ptr %result.ptr, align 8
  store ptr %this, ptr %this.addr, align 8
  %this1 = load ptr, ptr %this.addr, align 8
  %call = call noundef i64 @_ZNK7rocksdb10autovectorINS_10KeyContextELm32EE4sizeEv(ptr noundef nonnull align 8 dereferenceable(5160) %this1)
  call void @_ZN7rocksdb10autovectorINS_10KeyContextELm32EE13iterator_implIS2_S1_EC2EPS2_m(ptr noundef nonnull align 8 dereferenceable(16) %agg.result, ptr noundef %this1, i64 noundef %call)
  ret void
}

; Function Attrs: mustprogress uwtable
define linkonce_odr noundef zeroext i1 @_ZNK7rocksdb10autovectorINS_10KeyContextELm32EE13iterator_implIS2_S1_EneERKS4_(ptr noundef nonnull align 8 dereferenceable(16) %this, ptr noundef nonnull align 8 dereferenceable(16) %other) #0 comdat align 2 {
entry:
  %this.addr = alloca ptr, align 8
  %other.addr = alloca ptr, align 8
  store ptr %this, ptr %this.addr, align 8
  store ptr %other, ptr %other.addr, align 8
  %this1 = load ptr, ptr %this.addr, align 8
  %0 = load ptr, ptr %other.addr, align 8
  %call = call noundef zeroext i1 @_ZNK7rocksdb10autovectorINS_10KeyContextELm32EE13iterator_implIS2_S1_EeqERKS4_(ptr noundef nonnull align 8 dereferenceable(16) %this1, ptr noundef nonnull align 8 dereferenceable(16) %0)
  %lnot = xor i1 %call, true
  ret i1 %lnot
}

; Function Attrs: mustprogress uwtable
define linkonce_odr noundef nonnull align 8 dereferenceable(160) ptr @_ZNK7rocksdb10autovectorINS_10KeyContextELm32EE13iterator_implIS2_S1_EdeEv(ptr noundef nonnull align 8 dereferenceable(16) %this) #0 comdat align 2 {
entry:
  %this.addr = alloca ptr, align 8
  store ptr %this, ptr %this.addr, align 8
  %this1 = load ptr, ptr %this.addr, align 8
  %vect_ = getelementptr inbounds %"class.rocksdb::autovector<rocksdb::KeyContext, 32>::iterator_impl", ptr %this1, i32 0, i32 0
  %0 = load ptr, ptr %vect_, align 8
  %index_ = getelementptr inbounds %"class.rocksdb::autovector<rocksdb::KeyContext, 32>::iterator_impl", ptr %this1, i32 0, i32 1
  %1 = load i64, ptr %index_, align 8
  %call = call noundef nonnull align 8 dereferenceable(160) ptr @_ZN7rocksdb10autovectorINS_10KeyContextELm32EEixEm(ptr noundef nonnull align 8 dereferenceable(5160) %0, i64 noundef %1)
  ret ptr %call
}

; Function Attrs: mustprogress nounwind uwtable
define internal noundef nonnull align 8 dereferenceable(176) ptr @_ZN7rocksdb10autovectorIZNS_19WriteBatchWithIndex22MultiGetFromBatchAndDBEPNS_2DBERKNS_11ReadOptionsEPNS_18ColumnFamilyHandleEmPKNS_5SliceEPNS_13PinnableSliceEPNS_6StatusEbPNS_12ReadCallbackEE10MergeTupleLm32EEixEm(ptr noundef nonnull align 8 dereferenceable(5672) %this, i64 noundef %n) #1 align 2 {
entry:
  %retval = alloca ptr, align 8
  %this.addr = alloca ptr, align 8
  %n.addr = alloca i64, align 8
  store ptr %this, ptr %this.addr, align 8
  store i64 %n, ptr %n.addr, align 8
  %this1 = load ptr, ptr %this.addr, align 8
  %0 = load i64, ptr %n.addr, align 8
  %cmp = icmp ult i64 %0, 32
  br i1 %cmp, label %if.then, label %if.end

if.then:                                          ; preds = %entry
  %values_ = getelementptr inbounds %"class.rocksdb::autovector.390", ptr %this1, i32 0, i32 2
  %1 = load ptr, ptr %values_, align 8
  %2 = load i64, ptr %n.addr, align 8
  %arrayidx = getelementptr inbounds %struct.MergeTuple, ptr %1, i64 %2
  store ptr %arrayidx, ptr %retval, align 8
  br label %return

if.end:                                           ; preds = %entry
  %vect_ = getelementptr inbounds %"class.rocksdb::autovector.390", ptr %this1, i32 0, i32 3
  %3 = load i64, ptr %n.addr, align 8
  %sub = sub i64 %3, 32
  %call = call noundef nonnull align 8 dereferenceable(176) ptr @_ZNSt6vectorIZN7rocksdb19WriteBatchWithIndex22MultiGetFromBatchAndDBEPNS0_2DBERKNS0_11ReadOptionsEPNS0_18ColumnFamilyHandleEmPKNS0_5SliceEPNS0_13PinnableSliceEPNS0_6StatusEbPNS0_12ReadCallbackEE10MergeTupleSaISI_EEixEm(ptr noundef nonnull align 8 dereferenceable(24) %vect_, i64 noundef %sub) #3
  store ptr %call, ptr %retval, align 8
  br label %return

return:                                           ; preds = %if.end, %if.then
  %4 = load ptr, ptr %retval, align 8
  ret ptr %4
}

; Function Attrs: mustprogress uwtable
define linkonce_odr void @_ZN7rocksdb10autovectorIPNS_10KeyContextELm32EE12emplace_backIJS2_EEEvDpOT_(ptr noundef nonnull align 8 dereferenceable(296) %this, ptr noundef nonnull align 8 dereferenceable(8) %args) #0 comdat align 2 {
entry:
  %this.addr = alloca ptr, align 8
  %args.addr = alloca ptr, align 8
  store ptr %this, ptr %this.addr, align 8
  store ptr %args, ptr %args.addr, align 8
  %this1 = load ptr, ptr %this.addr, align 8
  %num_stack_items_ = getelementptr inbounds %"class.rocksdb::autovector.402", ptr %this1, i32 0, i32 0
  %0 = load i64, ptr %num_stack_items_, align 8
  %cmp = icmp ult i64 %0, 32
  br i1 %cmp, label %if.then, label %if.else

if.then:                                          ; preds = %entry
  %values_ = getelementptr inbounds %"class.rocksdb::autovector.402", ptr %this1, i32 0, i32 2
  %1 = load ptr, ptr %values_, align 8
  %num_stack_items_2 = getelementptr inbounds %"class.rocksdb::autovector.402", ptr %this1, i32 0, i32 0
  %2 = load i64, ptr %num_stack_items_2, align 8
  %inc = add i64 %2, 1
  store i64 %inc, ptr %num_stack_items_2, align 8
  %arrayidx = getelementptr inbounds ptr, ptr %1, i64 %2
  %3 = load ptr, ptr %args.addr, align 8
  %4 = load ptr, ptr %3, align 8
  store ptr %4, ptr %arrayidx, align 8
  br label %if.end

if.else:                                          ; preds = %entry
  %vect_ = getelementptr inbounds %"class.rocksdb::autovector.402", ptr %this1, i32 0, i32 3
  %5 = load ptr, ptr %args.addr, align 8
  %call = call noundef nonnull align 8 dereferenceable(8) ptr @_ZNSt6vectorIPN7rocksdb10KeyContextESaIS2_EE12emplace_backIJS2_EEERS2_DpOT_(ptr noundef nonnull align 8 dereferenceable(24) %vect_, ptr noundef nonnull align 8 dereferenceable(8) %5)
  br label %if.end

if.end:                                           ; preds = %if.else, %if.then
  ret void
}

; Function Attrs: mustprogress nounwind uwtable
define linkonce_odr noundef nonnull align 8 dereferenceable(16) ptr @_ZN7rocksdb10autovectorINS_10KeyContextELm32EE13iterator_implIS2_S1_EppEv(ptr noundef nonnull align 8 dereferenceable(16) %this) #1 comdat align 2 {
entry:
  %this.addr = alloca ptr, align 8
  store ptr %this, ptr %this.addr, align 8
  %this1 = load ptr, ptr %this.addr, align 8
  %index_ = getelementptr inbounds %"class.rocksdb::autovector<rocksdb::KeyContext, 32>::iterator_impl", ptr %this1, i32 0, i32 1
  %0 = load i64, ptr %index_, align 8
  %inc = add i64 %0, 1
  store i64 %inc, ptr %index_, align 8
  ret ptr %this1
}

; Function Attrs: mustprogress nounwind uwtable
define linkonce_odr void @_ZN7rocksdb10autovectorINS_10KeyContextELm32EE13iterator_implIS2_S1_ED2Ev(ptr noundef nonnull align 8 dereferenceable(16) %this) unnamed_addr #1 comdat align 2 {
entry:
  %this.addr = alloca ptr, align 8
  store ptr %this, ptr %this.addr, align 8
  ret void
}

declare void @_ZN7rocksdb6DBImpl19PrepareMultiGetKeysEmbPNS_10autovectorIPNS_10KeyContextELm32EEE(ptr noundef nonnull align 64 dereferenceable(6660), i64 noundef, i1 noundef zeroext, ptr noundef) #4

; Function Attrs: mustprogress nounwind uwtable
define linkonce_odr noundef i64 @_ZNK7rocksdb10autovectorIPNS_10KeyContextELm32EE4sizeEv(ptr noundef nonnull align 8 dereferenceable(296) %this) #1 comdat align 2 {
entry:
  %this.addr = alloca ptr, align 8
  store ptr %this, ptr %this.addr, align 8
  %this1 = load ptr, ptr %this.addr, align 8
  %num_stack_items_ = getelementptr inbounds %"class.rocksdb::autovector.402", ptr %this1, i32 0, i32 0
  %0 = load i64, ptr %num_stack_items_, align 8
  %vect_ = getelementptr inbounds %"class.rocksdb::autovector.402", ptr %this1, i32 0, i32 3
  %call = call noundef i64 @_ZNKSt6vectorIPN7rocksdb10KeyContextESaIS2_EE4sizeEv(ptr noundef nonnull align 8 dereferenceable(24) %vect_) #3
  %add = add i64 %0, %call
  ret i64 %add
}

declare void @_ZN7rocksdb6DBImpl20MultiGetWithCallbackERKNS_11ReadOptionsEPNS_18ColumnFamilyHandleEPNS_12ReadCallbackEPNS_10autovectorIPNS_10KeyContextELm32EEE(ptr noundef nonnull align 64 dereferenceable(6660), ptr noundef nonnull align 8 dereferenceable(154), ptr noundef, ptr noundef, ptr noundef) #4

; Function Attrs: mustprogress uwtable
define internal void @_ZN7rocksdb10autovectorIZNS_19WriteBatchWithIndex22MultiGetFromBatchAndDBEPNS_2DBERKNS_11ReadOptionsEPNS_18ColumnFamilyHandleEmPKNS_5SliceEPNS_13PinnableSliceEPNS_6StatusEbPNS_12ReadCallbackEE10MergeTupleLm32EE5beginEv(ptr noalias sret(%"class.rocksdb::autovector<MergeTuple, 32>::iterator_impl") align 8 %agg.result, ptr noundef nonnull align 8 dereferenceable(5672) %this) #0 align 2 {
entry:
  %result.ptr = alloca ptr, align 8
  %this.addr = alloca ptr, align 8
  store ptr %agg.result, ptr %result.ptr, align 8
  store ptr %this, ptr %this.addr, align 8
  %this1 = load ptr, ptr %this.addr, align 8
  call void @_ZN7rocksdb10autovectorIZNS_19WriteBatchWithIndex22MultiGetFromBatchAndDBEPNS_2DBERKNS_11ReadOptionsEPNS_18ColumnFamilyHandleEmPKNS_5SliceEPNS_13PinnableSliceEPNS_6StatusEbPNS_12ReadCallbackEE10MergeTupleLm32EE13iterator_implISJ_SI_EC2EPSJ_m(ptr noundef nonnull align 8 dereferenceable(16) %agg.result, ptr noundef %this1, i64 noundef 0)
  ret void
}

; Function Attrs: mustprogress uwtable
define internal void @_ZN7rocksdb10autovectorIZNS_19WriteBatchWithIndex22MultiGetFromBatchAndDBEPNS_2DBERKNS_11ReadOptionsEPNS_18ColumnFamilyHandleEmPKNS_5SliceEPNS_13PinnableSliceEPNS_6StatusEbPNS_12ReadCallbackEE10MergeTupleLm32EE3endEv(ptr noalias sret(%"class.rocksdb::autovector<MergeTuple, 32>::iterator_impl") align 8 %agg.result, ptr noundef nonnull align 8 dereferenceable(5672) %this) #0 align 2 {
entry:
  %result.ptr = alloca ptr, align 8
  %this.addr = alloca ptr, align 8
  store ptr %agg.result, ptr %result.ptr, align 8
  store ptr %this, ptr %this.addr, align 8
  %this1 = load ptr, ptr %this.addr, align 8
  %call = call noundef i64 @_ZNK7rocksdb10autovectorIZNS_19WriteBatchWithIndex22MultiGetFromBatchAndDBEPNS_2DBERKNS_11ReadOptionsEPNS_18ColumnFamilyHandleEmPKNS_5SliceEPNS_13PinnableSliceEPNS_6StatusEbPNS_12ReadCallbackEE10MergeTupleLm32EE4sizeEv(ptr noundef nonnull align 8 dereferenceable(5672) %this1)
  call void @_ZN7rocksdb10autovectorIZNS_19WriteBatchWithIndex22MultiGetFromBatchAndDBEPNS_2DBERKNS_11ReadOptionsEPNS_18ColumnFamilyHandleEmPKNS_5SliceEPNS_13PinnableSliceEPNS_6StatusEbPNS_12ReadCallbackEE10MergeTupleLm32EE13iterator_implISJ_SI_EC2EPSJ_m(ptr noundef nonnull align 8 dereferenceable(16) %agg.result, ptr noundef %this1, i64 noundef %call)
  ret void
}

; Function Attrs: mustprogress uwtable
define internal noundef zeroext i1 @_ZNK7rocksdb10autovectorIZNS_19WriteBatchWithIndex22MultiGetFromBatchAndDBEPNS_2DBERKNS_11ReadOptionsEPNS_18ColumnFamilyHandleEmPKNS_5SliceEPNS_13PinnableSliceEPNS_6StatusEbPNS_12ReadCallbackEE10MergeTupleLm32EE13iterator_implISJ_SI_EneERKSL_(ptr noundef nonnull align 8 dereferenceable(16) %this, ptr noundef nonnull align 8 dereferenceable(16) %other) #0 align 2 {
entry:
  %this.addr = alloca ptr, align 8
  %other.addr = alloca ptr, align 8
  store ptr %this, ptr %this.addr, align 8
  store ptr %other, ptr %other.addr, align 8
  %this1 = load ptr, ptr %this.addr, align 8
  %0 = load ptr, ptr %other.addr, align 8
  %call = call noundef zeroext i1 @_ZNK7rocksdb10autovectorIZNS_19WriteBatchWithIndex22MultiGetFromBatchAndDBEPNS_2DBERKNS_11ReadOptionsEPNS_18ColumnFamilyHandleEmPKNS_5SliceEPNS_13PinnableSliceEPNS_6StatusEbPNS_12ReadCallbackEE10MergeTupleLm32EE13iterator_implISJ_SI_EeqERKSL_(ptr noundef nonnull align 8 dereferenceable(16) %this1, ptr noundef nonnull align 8 dereferenceable(16) %0)
  %lnot = xor i1 %call, true
  ret i1 %lnot
}

; Function Attrs: mustprogress nounwind uwtable
define internal noundef nonnull align 8 dereferenceable(176) ptr @_ZNK7rocksdb10autovectorIZNS_19WriteBatchWithIndex22MultiGetFromBatchAndDBEPNS_2DBERKNS_11ReadOptionsEPNS_18ColumnFamilyHandleEmPKNS_5SliceEPNS_13PinnableSliceEPNS_6StatusEbPNS_12ReadCallbackEE10MergeTupleLm32EE13iterator_implISJ_SI_EdeEv(ptr noundef nonnull align 8 dereferenceable(16) %this) #1 align 2 {
entry:
  %this.addr = alloca ptr, align 8
  store ptr %this, ptr %this.addr, align 8
  %this1 = load ptr, ptr %this.addr, align 8
  %vect_ = getelementptr inbounds %"class.rocksdb::autovector<MergeTuple, 32>::iterator_impl", ptr %this1, i32 0, i32 0
  %0 = load ptr, ptr %vect_, align 8
  %index_ = getelementptr inbounds %"class.rocksdb::autovector<MergeTuple, 32>::iterator_impl", ptr %this1, i32 0, i32 1
  %1 = load i64, ptr %index_, align 8
  %call = call noundef nonnull align 8 dereferenceable(176) ptr @_ZN7rocksdb10autovectorIZNS_19WriteBatchWithIndex22MultiGetFromBatchAndDBEPNS_2DBERKNS_11ReadOptionsEPNS_18ColumnFamilyHandleEmPKNS_5SliceEPNS_13PinnableSliceEPNS_6StatusEbPNS_12ReadCallbackEE10MergeTupleLm32EEixEm(ptr noundef nonnull align 8 dereferenceable(5672) %0, i64 noundef %1)
  ret ptr %call
}

; Function Attrs: mustprogress nounwind uwtable
define internal noundef nonnull align 8 dereferenceable(16) ptr @_ZN7rocksdb10autovectorIZNS_19WriteBatchWithIndex22MultiGetFromBatchAndDBEPNS_2DBERKNS_11ReadOptionsEPNS_18ColumnFamilyHandleEmPKNS_5SliceEPNS_13PinnableSliceEPNS_6StatusEbPNS_12ReadCallbackEE10MergeTupleLm32EE13iterator_implISJ_SI_EppEv(ptr noundef nonnull align 8 dereferenceable(16) %this) #1 align 2 {
entry:
  %this.addr = alloca ptr, align 8
  store ptr %this, ptr %this.addr, align 8
  %this1 = load ptr, ptr %this.addr, align 8
  %index_ = getelementptr inbounds %"class.rocksdb::autovector<MergeTuple, 32>::iterator_impl", ptr %this1, i32 0, i32 1
  %0 = load i64, ptr %index_, align 8
  %inc = add i64 %0, 1
  store i64 %inc, ptr %index_, align 8
  ret ptr %this1
}

; Function Attrs: mustprogress nounwind uwtable
define internal void @_ZN7rocksdb10autovectorIZNS_19WriteBatchWithIndex22MultiGetFromBatchAndDBEPNS_2DBERKNS_11ReadOptionsEPNS_18ColumnFamilyHandleEmPKNS_5SliceEPNS_13PinnableSliceEPNS_6StatusEbPNS_12ReadCallbackEE10MergeTupleLm32EE13iterator_implISJ_SI_ED2Ev(ptr noundef nonnull align 8 dereferenceable(16) %this) unnamed_addr #1 align 2 {
entry:
  %this.addr = alloca ptr, align 8
  store ptr %this, ptr %this.addr, align 8
  ret void
}

; Function Attrs: mustprogress nounwind uwtable
define linkonce_odr void @_ZN7rocksdb10autovectorIPNS_10KeyContextELm32EED2Ev(ptr noundef nonnull align 8 dereferenceable(296) %this) unnamed_addr #1 comdat align 2 personality ptr @__gxx_personality_v0 {
entry:
  %this.addr = alloca ptr, align 8
  store ptr %this, ptr %this.addr, align 8
  %this1 = load ptr, ptr %this.addr, align 8
  invoke void @_ZN7rocksdb10autovectorIPNS_10KeyContextELm32EE5clearEv(ptr noundef nonnull align 8 dereferenceable(296) %this1)
          to label %invoke.cont unwind label %terminate.lpad

invoke.cont:                                      ; preds = %entry
  %vect_ = getelementptr inbounds %"class.rocksdb::autovector.402", ptr %this1, i32 0, i32 3
  call void @_ZNSt6vectorIPN7rocksdb10KeyContextESaIS2_EED2Ev(ptr noundef nonnull align 8 dereferenceable(24) %vect_) #3
  ret void

terminate.lpad:                                   ; preds = %entry
  %0 = landingpad { ptr, i32 }
          catch ptr null
  %1 = extractvalue { ptr, i32 } %0, 0
  call void @__clang_call_terminate(ptr %1) #16
  unreachable
}

; Function Attrs: mustprogress nounwind uwtable
define linkonce_odr void @_ZN7rocksdb10autovectorINS_10KeyContextELm32EED2Ev(ptr noundef nonnull align 8 dereferenceable(5160) %this) unnamed_addr #1 comdat align 2 personality ptr @__gxx_personality_v0 {
entry:
  %this.addr = alloca ptr, align 8
  store ptr %this, ptr %this.addr, align 8
  %this1 = load ptr, ptr %this.addr, align 8
  invoke void @_ZN7rocksdb10autovectorINS_10KeyContextELm32EE5clearEv(ptr noundef nonnull align 8 dereferenceable(5160) %this1)
          to label %invoke.cont unwind label %terminate.lpad

invoke.cont:                                      ; preds = %entry
  %vect_ = getelementptr inbounds %"class.rocksdb::autovector.396", ptr %this1, i32 0, i32 3
  call void @_ZNSt6vectorIN7rocksdb10KeyContextESaIS1_EED2Ev(ptr noundef nonnull align 8 dereferenceable(24) %vect_) #3
  ret void

terminate.lpad:                                   ; preds = %entry
  %0 = landingpad { ptr, i32 }
          catch ptr null
  %1 = extractvalue { ptr, i32 } %0, 0
  call void @__clang_call_terminate(ptr %1) #16
  unreachable
}

; Function Attrs: mustprogress nounwind uwtable
define internal void @_ZN7rocksdb10autovectorIZNS_19WriteBatchWithIndex22MultiGetFromBatchAndDBEPNS_2DBERKNS_11ReadOptionsEPNS_18ColumnFamilyHandleEmPKNS_5SliceEPNS_13PinnableSliceEPNS_6StatusEbPNS_12ReadCallbackEE10MergeTupleLm32EED2Ev(ptr noundef nonnull align 8 dereferenceable(5672) %this) unnamed_addr #1 align 2 personality ptr @__gxx_personality_v0 {
entry:
  %this.addr = alloca ptr, align 8
  store ptr %this, ptr %this.addr, align 8
  %this1 = load ptr, ptr %this.addr, align 8
  invoke void @_ZN7rocksdb10autovectorIZNS_19WriteBatchWithIndex22MultiGetFromBatchAndDBEPNS_2DBERKNS_11ReadOptionsEPNS_18ColumnFamilyHandleEmPKNS_5SliceEPNS_13PinnableSliceEPNS_6StatusEbPNS_12ReadCallbackEE10MergeTupleLm32EE5clearEv(ptr noundef nonnull align 8 dereferenceable(5672) %this1)
          to label %invoke.cont unwind label %terminate.lpad

invoke.cont:                                      ; preds = %entry
  %vect_ = getelementptr inbounds %"class.rocksdb::autovector.390", ptr %this1, i32 0, i32 3
  call void @_ZNSt6vectorIZN7rocksdb19WriteBatchWithIndex22MultiGetFromBatchAndDBEPNS0_2DBERKNS0_11ReadOptionsEPNS0_18ColumnFamilyHandleEmPKNS0_5SliceEPNS0_13PinnableSliceEPNS0_6StatusEbPNS0_12ReadCallbackEE10MergeTupleSaISI_EED2Ev(ptr noundef nonnull align 8 dereferenceable(24) %vect_) #3
  ret void

terminate.lpad:                                   ; preds = %entry
  %0 = landingpad { ptr, i32 }
          catch ptr null
  %1 = extractvalue { ptr, i32 } %0, 0
  call void @__clang_call_terminate(ptr %1) #16
  unreachable
}

; Function Attrs: mustprogress uwtable
define void @_ZN7rocksdb19WriteBatchWithIndex12SetSavePointEv(ptr noundef nonnull align 8 dereferenceable(16) %this) unnamed_addr #0 align 2 {
entry:
  %this.addr = alloca ptr, align 8
  store ptr %this, ptr %this.addr, align 8
  %this1 = load ptr, ptr %this.addr, align 8
  %rep = getelementptr inbounds %"class.rocksdb::WriteBatchWithIndex", ptr %this1, i32 0, i32 1
  %call = call noundef ptr @_ZNKSt10unique_ptrIN7rocksdb19WriteBatchWithIndex3RepESt14default_deleteIS2_EEptEv(ptr noundef nonnull align 8 dereferenceable(8) %rep) #3
  %write_batch = getelementptr inbounds %"struct.rocksdb::WriteBatchWithIndex::Rep", ptr %call, i32 0, i32 0
  call void @_ZN7rocksdb10WriteBatch12SetSavePointEv(ptr noundef nonnull align 8 dereferenceable(96) %write_batch)
  ret void
}

declare void @_ZN7rocksdb10WriteBatch12SetSavePointEv(ptr noundef nonnull align 8 dereferenceable(96)) unnamed_addr #4

; Function Attrs: mustprogress uwtable
define void @_ZN7rocksdb19WriteBatchWithIndex19RollbackToSavePointEv(ptr noalias sret(%"class.rocksdb::Status") align 8 %agg.result, ptr noundef nonnull align 8 dereferenceable(16) %this) unnamed_addr #0 align 2 personality ptr @__gxx_personality_v0 {
entry:
  %result.ptr = alloca ptr, align 8
  %this.addr = alloca ptr, align 8
  %nrvo = alloca i1, align 1
  %exn.slot = alloca ptr, align 8
  %ehselector.slot = alloca i32, align 4
  %ref.tmp = alloca %"class.rocksdb::Status", align 8
  store ptr %agg.result, ptr %result.ptr, align 8
  store ptr %this, ptr %this.addr, align 8
  %this1 = load ptr, ptr %this.addr, align 8
  store i1 false, ptr %nrvo, align 1
  %rep = getelementptr inbounds %"class.rocksdb::WriteBatchWithIndex", ptr %this1, i32 0, i32 1
  %call = call noundef ptr @_ZNKSt10unique_ptrIN7rocksdb19WriteBatchWithIndex3RepESt14default_deleteIS2_EEptEv(ptr noundef nonnull align 8 dereferenceable(8) %rep) #3
  %write_batch = getelementptr inbounds %"struct.rocksdb::WriteBatchWithIndex::Rep", ptr %call, i32 0, i32 0
  call void @_ZN7rocksdb10WriteBatch19RollbackToSavePointEv(ptr sret(%"class.rocksdb::Status") align 8 %agg.result, ptr noundef nonnull align 8 dereferenceable(96) %write_batch)
  %call2 = invoke noundef zeroext i1 @_ZNK7rocksdb6Status2okEv(ptr noundef nonnull align 8 dereferenceable(16) %agg.result)
          to label %invoke.cont unwind label %lpad

invoke.cont:                                      ; preds = %entry
  br i1 %call2, label %if.then, label %if.end

if.then:                                          ; preds = %invoke.cont
  %rep3 = getelementptr inbounds %"class.rocksdb::WriteBatchWithIndex", ptr %this1, i32 0, i32 1
  %call4 = call noundef ptr @_ZNKSt10unique_ptrIN7rocksdb19WriteBatchWithIndex3RepESt14default_deleteIS2_EEptEv(ptr noundef nonnull align 8 dereferenceable(8) %rep3) #3
  %sub_batch_cnt = getelementptr inbounds %"struct.rocksdb::WriteBatchWithIndex::Rep", ptr %call4, i32 0, i32 8
  store i64 1, ptr %sub_batch_cnt, align 16
  %rep5 = getelementptr inbounds %"class.rocksdb::WriteBatchWithIndex", ptr %this1, i32 0, i32 1
  %call6 = call noundef ptr @_ZNKSt10unique_ptrIN7rocksdb19WriteBatchWithIndex3RepESt14default_deleteIS2_EEptEv(ptr noundef nonnull align 8 dereferenceable(8) %rep5) #3
  %last_sub_batch_offset = getelementptr inbounds %"struct.rocksdb::WriteBatchWithIndex::Rep", ptr %call6, i32 0, i32 7
  store i64 0, ptr %last_sub_batch_offset, align 8
  %rep7 = getelementptr inbounds %"class.rocksdb::WriteBatchWithIndex", ptr %this1, i32 0, i32 1
  %call8 = call noundef ptr @_ZNKSt10unique_ptrIN7rocksdb19WriteBatchWithIndex3RepESt14default_deleteIS2_EEptEv(ptr noundef nonnull align 8 dereferenceable(8) %rep7) #3
  invoke void @_ZN7rocksdb19WriteBatchWithIndex3Rep12ReBuildIndexEv(ptr sret(%"class.rocksdb::Status") align 8 %ref.tmp, ptr noundef nonnull align 16 dereferenceable(2520) %call8)
          to label %invoke.cont9 unwind label %lpad

invoke.cont9:                                     ; preds = %if.then
  %call10 = call noundef nonnull align 8 dereferenceable(16) ptr @_ZN7rocksdb6StatusaSEOS0_(ptr noundef nonnull align 8 dereferenceable(16) %agg.result, ptr noundef nonnull align 8 dereferenceable(16) %ref.tmp) #3
  call void @_ZN7rocksdb6StatusD2Ev(ptr noundef nonnull align 8 dereferenceable(16) %ref.tmp) #3
  br label %if.end

lpad:                                             ; preds = %if.then, %entry
  %0 = landingpad { ptr, i32 }
          cleanup
  %1 = extractvalue { ptr, i32 } %0, 0
  store ptr %1, ptr %exn.slot, align 8
  %2 = extractvalue { ptr, i32 } %0, 1
  store i32 %2, ptr %ehselector.slot, align 4
  call void @_ZN7rocksdb6StatusD2Ev(ptr noundef nonnull align 8 dereferenceable(16) %agg.result) #3
  br label %eh.resume

if.end:                                           ; preds = %invoke.cont9, %invoke.cont
  store i1 true, ptr %nrvo, align 1
  %nrvo.val = load i1, ptr %nrvo, align 1
  br i1 %nrvo.val, label %nrvo.skipdtor, label %nrvo.unused

nrvo.unused:                                      ; preds = %if.end
  call void @_ZN7rocksdb6StatusD2Ev(ptr noundef nonnull align 8 dereferenceable(16) %agg.result) #3
  br label %nrvo.skipdtor

nrvo.skipdtor:                                    ; preds = %nrvo.unused, %if.end
  ret void

eh.resume:                                        ; preds = %lpad
  %exn = load ptr, ptr %exn.slot, align 8
  %sel = load i32, ptr %ehselector.slot, align 4
  %lpad.val = insertvalue { ptr, i32 } poison, ptr %exn, 0
  %lpad.val11 = insertvalue { ptr, i32 } %lpad.val, i32 %sel, 1
  resume { ptr, i32 } %lpad.val11
}

declare void @_ZN7rocksdb10WriteBatch19RollbackToSavePointEv(ptr sret(%"class.rocksdb::Status") align 8, ptr noundef nonnull align 8 dereferenceable(96)) unnamed_addr #4

; Function Attrs: mustprogress uwtable
define void @_ZN7rocksdb19WriteBatchWithIndex12PopSavePointEv(ptr noalias sret(%"class.rocksdb::Status") align 8 %agg.result, ptr noundef nonnull align 8 dereferenceable(16) %this) unnamed_addr #0 align 2 {
entry:
  %result.ptr = alloca ptr, align 8
  %this.addr = alloca ptr, align 8
  store ptr %agg.result, ptr %result.ptr, align 8
  store ptr %this, ptr %this.addr, align 8
  %this1 = load ptr, ptr %this.addr, align 8
  %rep = getelementptr inbounds %"class.rocksdb::WriteBatchWithIndex", ptr %this1, i32 0, i32 1
  %call = call noundef ptr @_ZNKSt10unique_ptrIN7rocksdb19WriteBatchWithIndex3RepESt14default_deleteIS2_EEptEv(ptr noundef nonnull align 8 dereferenceable(8) %rep) #3
  %write_batch = getelementptr inbounds %"struct.rocksdb::WriteBatchWithIndex::Rep", ptr %call, i32 0, i32 0
  call void @_ZN7rocksdb10WriteBatch12PopSavePointEv(ptr sret(%"class.rocksdb::Status") align 8 %agg.result, ptr noundef nonnull align 8 dereferenceable(96) %write_batch)
  ret void
}

declare void @_ZN7rocksdb10WriteBatch12PopSavePointEv(ptr sret(%"class.rocksdb::Status") align 8, ptr noundef nonnull align 8 dereferenceable(96)) unnamed_addr #4

; Function Attrs: mustprogress uwtable
define void @_ZN7rocksdb19WriteBatchWithIndex11SetMaxBytesEm(ptr noundef nonnull align 8 dereferenceable(16) %this, i64 noundef %max_bytes) unnamed_addr #0 align 2 {
entry:
  %this.addr = alloca ptr, align 8
  %max_bytes.addr = alloca i64, align 8
  store ptr %this, ptr %this.addr, align 8
  store i64 %max_bytes, ptr %max_bytes.addr, align 8
  %this1 = load ptr, ptr %this.addr, align 8
  %rep = getelementptr inbounds %"class.rocksdb::WriteBatchWithIndex", ptr %this1, i32 0, i32 1
  %call = call noundef ptr @_ZNKSt10unique_ptrIN7rocksdb19WriteBatchWithIndex3RepESt14default_deleteIS2_EEptEv(ptr noundef nonnull align 8 dereferenceable(8) %rep) #3
  %write_batch = getelementptr inbounds %"struct.rocksdb::WriteBatchWithIndex::Rep", ptr %call, i32 0, i32 0
  %0 = load i64, ptr %max_bytes.addr, align 8
  call void @_ZN7rocksdb10WriteBatch11SetMaxBytesEm(ptr noundef nonnull align 8 dereferenceable(96) %write_batch, i64 noundef %0)
  ret void
}

; Function Attrs: mustprogress nounwind uwtable
define linkonce_odr void @_ZN7rocksdb10WriteBatch11SetMaxBytesEm(ptr noundef nonnull align 8 dereferenceable(96) %this, i64 noundef %max_bytes) unnamed_addr #1 comdat align 2 {
entry:
  %this.addr = alloca ptr, align 8
  %max_bytes.addr = alloca i64, align 8
  store ptr %this, ptr %this.addr, align 8
  store i64 %max_bytes, ptr %max_bytes.addr, align 8
  %this1 = load ptr, ptr %this.addr, align 8
  %0 = load i64, ptr %max_bytes.addr, align 8
  %max_bytes_ = getelementptr inbounds %"class.rocksdb::WriteBatch", ptr %this1, i32 0, i32 7
  store i64 %0, ptr %max_bytes_, align 8
  ret void
}

; Function Attrs: mustprogress uwtable
define noundef i64 @_ZNK7rocksdb19WriteBatchWithIndex11GetDataSizeEv(ptr noundef nonnull align 8 dereferenceable(16) %this) #0 align 2 {
entry:
  %this.addr = alloca ptr, align 8
  store ptr %this, ptr %this.addr, align 8
  %this1 = load ptr, ptr %this.addr, align 8
  %rep = getelementptr inbounds %"class.rocksdb::WriteBatchWithIndex", ptr %this1, i32 0, i32 1
  %call = call noundef ptr @_ZNKSt10unique_ptrIN7rocksdb19WriteBatchWithIndex3RepESt14default_deleteIS2_EEptEv(ptr noundef nonnull align 8 dereferenceable(8) %rep) #3
  %write_batch = getelementptr inbounds %"struct.rocksdb::WriteBatchWithIndex::Rep", ptr %call, i32 0, i32 0
  %call2 = call noundef i64 @_ZNK7rocksdb10WriteBatch11GetDataSizeEv(ptr noundef nonnull align 8 dereferenceable(96) %write_batch)
  ret i64 %call2
}

; Function Attrs: mustprogress nounwind uwtable
define linkonce_odr noundef i64 @_ZNK7rocksdb10WriteBatch11GetDataSizeEv(ptr noundef nonnull align 8 dereferenceable(96) %this) #1 comdat align 2 {
entry:
  %this.addr = alloca ptr, align 8
  store ptr %this, ptr %this.addr, align 8
  %this1 = load ptr, ptr %this.addr, align 8
  %rep_ = getelementptr inbounds %"class.rocksdb::WriteBatch", ptr %this1, i32 0, i32 10
  %call = call noundef i64 @_ZNKSt7__cxx1112basic_stringIcSt11char_traitsIcESaIcEE4sizeEv(ptr noundef nonnull align 8 dereferenceable(32) %rep_) #3
  ret i64 %call
}

; Function Attrs: mustprogress uwtable
define noundef ptr @_ZN7rocksdb27WriteBatchWithIndexInternal17GetUserComparatorERKNS_19WriteBatchWithIndexEj(ptr noundef nonnull align 8 dereferenceable(16) %wbwi, i32 noundef %cf_id) #0 align 2 {
entry:
  %wbwi.addr = alloca ptr, align 8
  %cf_id.addr = alloca i32, align 4
  %ucmps = alloca ptr, align 8
  store ptr %wbwi, ptr %wbwi.addr, align 8
  store i32 %cf_id, ptr %cf_id.addr, align 4
  %0 = load ptr, ptr %wbwi.addr, align 8
  %rep = getelementptr inbounds %"class.rocksdb::WriteBatchWithIndex", ptr %0, i32 0, i32 1
  %call = call noundef ptr @_ZNKSt10unique_ptrIN7rocksdb19WriteBatchWithIndex3RepESt14default_deleteIS2_EEptEv(ptr noundef nonnull align 8 dereferenceable(8) %rep) #3
  %comparator = getelementptr inbounds %"struct.rocksdb::WriteBatchWithIndex::Rep", ptr %call, i32 0, i32 1
  store ptr %comparator, ptr %ucmps, align 8
  %1 = load ptr, ptr %ucmps, align 8
  %2 = load i32, ptr %cf_id.addr, align 4
  %call1 = call noundef ptr @_ZNK7rocksdb25WriteBatchEntryComparator13GetComparatorEj(ptr noundef nonnull align 8 dereferenceable(40) %1, i32 noundef %2)
  ret ptr %call1
}

; Function Attrs: mustprogress nounwind uwtable
define linkonce_odr void @_ZN7rocksdb21InternalKeyComparatorD2Ev(ptr noundef nonnull align 8 dereferenceable(16) %this) unnamed_addr #1 comdat align 2 {
entry:
  %this.addr = alloca ptr, align 8
  store ptr %this, ptr %this.addr, align 8
  %this1 = load ptr, ptr %this.addr, align 8
  call void @_ZN7rocksdb16CompareInterfaceD2Ev(ptr noundef nonnull align 8 dereferenceable(8) %this1) #3
  ret void
}

; Function Attrs: mustprogress nounwind uwtable
define linkonce_odr void @_ZN7rocksdb21InternalKeyComparatorD0Ev(ptr noundef nonnull align 8 dereferenceable(16) %this) unnamed_addr #1 comdat align 2 {
entry:
  %this.addr = alloca ptr, align 8
  store ptr %this, ptr %this.addr, align 8
  %this1 = load ptr, ptr %this.addr, align 8
  call void @_ZN7rocksdb21InternalKeyComparatorD2Ev(ptr noundef nonnull align 8 dereferenceable(16) %this1) #3
  call void @_ZdlPv(ptr noundef %this1) #19
  ret void
}

declare void @_ZN7rocksdb14WriteBatchBase3PutEPNS_18ColumnFamilyHandleERKNS_10SlicePartsES5_(ptr sret(%"class.rocksdb::Status") align 8, ptr noundef nonnull align 8 dereferenceable(8), ptr noundef, ptr noundef nonnull align 8 dereferenceable(12), ptr noundef nonnull align 8 dereferenceable(12)) unnamed_addr #4

declare void @_ZN7rocksdb14WriteBatchBase3PutERKNS_10SlicePartsES3_(ptr sret(%"class.rocksdb::Status") align 8, ptr noundef nonnull align 8 dereferenceable(8), ptr noundef nonnull align 8 dereferenceable(12), ptr noundef nonnull align 8 dereferenceable(12)) unnamed_addr #4

; Function Attrs: mustprogress uwtable
define linkonce_odr void @_ZN7rocksdb19WriteBatchWithIndex8TimedPutEPNS_18ColumnFamilyHandleERKNS_5SliceES5_m(ptr noalias sret(%"class.rocksdb::Status") align 8 %agg.result, ptr noundef nonnull align 8 dereferenceable(16) %this, ptr noundef %0, ptr noundef nonnull align 8 dereferenceable(16) %1, ptr noundef nonnull align 8 dereferenceable(16) %2, i64 noundef %3) unnamed_addr #0 comdat align 2 {
entry:
  %result.ptr = alloca ptr, align 8
  %this.addr = alloca ptr, align 8
  %.addr = alloca ptr, align 8
  %.addr1 = alloca ptr, align 8
  %.addr2 = alloca ptr, align 8
  %.addr3 = alloca i64, align 8
  %ref.tmp = alloca %"class.rocksdb::Slice", align 8
  %ref.tmp5 = alloca %"class.rocksdb::Slice", align 8
  store ptr %agg.result, ptr %result.ptr, align 8
  store ptr %this, ptr %this.addr, align 8
  store ptr %0, ptr %.addr, align 8
  store ptr %1, ptr %.addr1, align 8
  store ptr %2, ptr %.addr2, align 8
  store i64 %3, ptr %.addr3, align 8
  call void @_ZN7rocksdb5SliceC2EPKc(ptr noundef nonnull align 8 dereferenceable(16) %ref.tmp, ptr noundef @.str.7)
  call void @_ZN7rocksdb5SliceC2Ev(ptr noundef nonnull align 8 dereferenceable(16) %ref.tmp5)
  call void @_ZN7rocksdb6Status12NotSupportedERKNS_5SliceES3_(ptr sret(%"class.rocksdb::Status") align 8 %agg.result, ptr noundef nonnull align 8 dereferenceable(16) %ref.tmp, ptr noundef nonnull align 8 dereferenceable(16) %ref.tmp5)
  ret void
}

; Function Attrs: mustprogress uwtable
define linkonce_odr void @_ZN7rocksdb19WriteBatchWithIndex9PutEntityERKNS_5SliceERKSt6vectorINS_14AttributeGroupESaIS5_EE(ptr noalias sret(%"class.rocksdb::Status") align 8 %agg.result, ptr noundef nonnull align 8 dereferenceable(16) %this, ptr noundef nonnull align 8 dereferenceable(16) %0, ptr noundef nonnull align 8 dereferenceable(24) %attribute_groups) unnamed_addr #0 comdat align 2 {
entry:
  %result.ptr = alloca ptr, align 8
  %this.addr = alloca ptr, align 8
  %.addr = alloca ptr, align 8
  %attribute_groups.addr = alloca ptr, align 8
  %ref.tmp = alloca %"class.rocksdb::Slice", align 8
  %ref.tmp2 = alloca %"class.rocksdb::Slice", align 8
  %ref.tmp3 = alloca %"class.rocksdb::Slice", align 8
  %ref.tmp4 = alloca %"class.rocksdb::Slice", align 8
  store ptr %agg.result, ptr %result.ptr, align 8
  store ptr %this, ptr %this.addr, align 8
  store ptr %0, ptr %.addr, align 8
  store ptr %attribute_groups, ptr %attribute_groups.addr, align 8
  %1 = load ptr, ptr %attribute_groups.addr, align 8
  %call = call noundef zeroext i1 @_ZNKSt6vectorIN7rocksdb14AttributeGroupESaIS1_EE5emptyEv(ptr noundef nonnull align 8 dereferenceable(24) %1) #3
  br i1 %call, label %if.then, label %if.end

if.then:                                          ; preds = %entry
  call void @_ZN7rocksdb5SliceC2EPKc(ptr noundef nonnull align 8 dereferenceable(16) %ref.tmp, ptr noundef @.str.8)
  call void @_ZN7rocksdb5SliceC2Ev(ptr noundef nonnull align 8 dereferenceable(16) %ref.tmp2)
  call void @_ZN7rocksdb6Status15InvalidArgumentERKNS_5SliceES3_(ptr sret(%"class.rocksdb::Status") align 8 %agg.result, ptr noundef nonnull align 8 dereferenceable(16) %ref.tmp, ptr noundef nonnull align 8 dereferenceable(16) %ref.tmp2)
  br label %return

if.end:                                           ; preds = %entry
  call void @_ZN7rocksdb5SliceC2EPKc(ptr noundef nonnull align 8 dereferenceable(16) %ref.tmp3, ptr noundef @.str.9)
  call void @_ZN7rocksdb5SliceC2Ev(ptr noundef nonnull align 8 dereferenceable(16) %ref.tmp4)
  call void @_ZN7rocksdb6Status12NotSupportedERKNS_5SliceES3_(ptr sret(%"class.rocksdb::Status") align 8 %agg.result, ptr noundef nonnull align 8 dereferenceable(16) %ref.tmp3, ptr noundef nonnull align 8 dereferenceable(16) %ref.tmp4)
  br label %return

return:                                           ; preds = %if.end, %if.then
  ret void
}

; Function Attrs: mustprogress uwtable
define linkonce_odr void @_ZN7rocksdb19WriteBatchWithIndex5MergeEPNS_18ColumnFamilyHandleERKNS_5SliceES5_S5_(ptr noalias sret(%"class.rocksdb::Status") align 8 %agg.result, ptr noundef nonnull align 8 dereferenceable(16) %this, ptr noundef %0, ptr noundef nonnull align 8 dereferenceable(16) %1, ptr noundef nonnull align 8 dereferenceable(16) %2, ptr noundef nonnull align 8 dereferenceable(16) %3) unnamed_addr #0 comdat align 2 {
entry:
  %result.ptr = alloca ptr, align 8
  %this.addr = alloca ptr, align 8
  %.addr = alloca ptr, align 8
  %.addr1 = alloca ptr, align 8
  %.addr2 = alloca ptr, align 8
  %.addr3 = alloca ptr, align 8
  %ref.tmp = alloca %"class.rocksdb::Slice", align 8
  %ref.tmp5 = alloca %"class.rocksdb::Slice", align 8
  store ptr %agg.result, ptr %result.ptr, align 8
  store ptr %this, ptr %this.addr, align 8
  store ptr %0, ptr %.addr, align 8
  store ptr %1, ptr %.addr1, align 8
  store ptr %2, ptr %.addr2, align 8
  store ptr %3, ptr %.addr3, align 8
  call void @_ZN7rocksdb5SliceC2EPKc(ptr noundef nonnull align 8 dereferenceable(16) %ref.tmp, ptr noundef @.str.10)
  call void @_ZN7rocksdb5SliceC2Ev(ptr noundef nonnull align 8 dereferenceable(16) %ref.tmp5)
  call void @_ZN7rocksdb6Status12NotSupportedERKNS_5SliceES3_(ptr sret(%"class.rocksdb::Status") align 8 %agg.result, ptr noundef nonnull align 8 dereferenceable(16) %ref.tmp, ptr noundef nonnull align 8 dereferenceable(16) %ref.tmp5)
  ret void
}

declare void @_ZN7rocksdb14WriteBatchBase5MergeEPNS_18ColumnFamilyHandleERKNS_10SlicePartsES5_(ptr sret(%"class.rocksdb::Status") align 8, ptr noundef nonnull align 8 dereferenceable(8), ptr noundef, ptr noundef nonnull align 8 dereferenceable(12), ptr noundef nonnull align 8 dereferenceable(12)) unnamed_addr #4

declare void @_ZN7rocksdb14WriteBatchBase5MergeERKNS_10SlicePartsES3_(ptr sret(%"class.rocksdb::Status") align 8, ptr noundef nonnull align 8 dereferenceable(8), ptr noundef nonnull align 8 dereferenceable(12), ptr noundef nonnull align 8 dereferenceable(12)) unnamed_addr #4

declare void @_ZN7rocksdb14WriteBatchBase6DeleteEPNS_18ColumnFamilyHandleERKNS_10SlicePartsE(ptr sret(%"class.rocksdb::Status") align 8, ptr noundef nonnull align 8 dereferenceable(8), ptr noundef, ptr noundef nonnull align 8 dereferenceable(12)) unnamed_addr #4

declare void @_ZN7rocksdb14WriteBatchBase6DeleteERKNS_10SlicePartsE(ptr sret(%"class.rocksdb::Status") align 8, ptr noundef nonnull align 8 dereferenceable(8), ptr noundef nonnull align 8 dereferenceable(12)) unnamed_addr #4

declare void @_ZN7rocksdb14WriteBatchBase12SingleDeleteEPNS_18ColumnFamilyHandleERKNS_10SlicePartsE(ptr sret(%"class.rocksdb::Status") align 8, ptr noundef nonnull align 8 dereferenceable(8), ptr noundef, ptr noundef nonnull align 8 dereferenceable(12)) unnamed_addr #4

declare void @_ZN7rocksdb14WriteBatchBase12SingleDeleteERKNS_10SlicePartsE(ptr sret(%"class.rocksdb::Status") align 8, ptr noundef nonnull align 8 dereferenceable(8), ptr noundef nonnull align 8 dereferenceable(12)) unnamed_addr #4

; Function Attrs: mustprogress uwtable
define linkonce_odr void @_ZN7rocksdb19WriteBatchWithIndex11DeleteRangeEPNS_18ColumnFamilyHandleERKNS_5SliceES5_(ptr noalias sret(%"class.rocksdb::Status") align 8 %agg.result, ptr noundef nonnull align 8 dereferenceable(16) %this, ptr noundef %0, ptr noundef nonnull align 8 dereferenceable(16) %1, ptr noundef nonnull align 8 dereferenceable(16) %2) unnamed_addr #0 comdat align 2 {
entry:
  %result.ptr = alloca ptr, align 8
  %this.addr = alloca ptr, align 8
  %.addr = alloca ptr, align 8
  %.addr1 = alloca ptr, align 8
  %.addr2 = alloca ptr, align 8
  %ref.tmp = alloca %"class.rocksdb::Slice", align 8
  %ref.tmp4 = alloca %"class.rocksdb::Slice", align 8
  store ptr %agg.result, ptr %result.ptr, align 8
  store ptr %this, ptr %this.addr, align 8
  store ptr %0, ptr %.addr, align 8
  store ptr %1, ptr %.addr1, align 8
  store ptr %2, ptr %.addr2, align 8
  call void @_ZN7rocksdb5SliceC2EPKc(ptr noundef nonnull align 8 dereferenceable(16) %ref.tmp, ptr noundef @.str.11)
  call void @_ZN7rocksdb5SliceC2Ev(ptr noundef nonnull align 8 dereferenceable(16) %ref.tmp4)
  call void @_ZN7rocksdb6Status12NotSupportedERKNS_5SliceES3_(ptr sret(%"class.rocksdb::Status") align 8 %agg.result, ptr noundef nonnull align 8 dereferenceable(16) %ref.tmp, ptr noundef nonnull align 8 dereferenceable(16) %ref.tmp4)
  ret void
}

; Function Attrs: mustprogress uwtable
define linkonce_odr void @_ZN7rocksdb19WriteBatchWithIndex11DeleteRangeERKNS_5SliceES3_(ptr noalias sret(%"class.rocksdb::Status") align 8 %agg.result, ptr noundef nonnull align 8 dereferenceable(16) %this, ptr noundef nonnull align 8 dereferenceable(16) %0, ptr noundef nonnull align 8 dereferenceable(16) %1) unnamed_addr #0 comdat align 2 {
entry:
  %result.ptr = alloca ptr, align 8
  %this.addr = alloca ptr, align 8
  %.addr = alloca ptr, align 8
  %.addr1 = alloca ptr, align 8
  %ref.tmp = alloca %"class.rocksdb::Slice", align 8
  %ref.tmp3 = alloca %"class.rocksdb::Slice", align 8
  store ptr %agg.result, ptr %result.ptr, align 8
  store ptr %this, ptr %this.addr, align 8
  store ptr %0, ptr %.addr, align 8
  store ptr %1, ptr %.addr1, align 8
  call void @_ZN7rocksdb5SliceC2EPKc(ptr noundef nonnull align 8 dereferenceable(16) %ref.tmp, ptr noundef @.str.11)
  call void @_ZN7rocksdb5SliceC2Ev(ptr noundef nonnull align 8 dereferenceable(16) %ref.tmp3)
  call void @_ZN7rocksdb6Status12NotSupportedERKNS_5SliceES3_(ptr sret(%"class.rocksdb::Status") align 8 %agg.result, ptr noundef nonnull align 8 dereferenceable(16) %ref.tmp, ptr noundef nonnull align 8 dereferenceable(16) %ref.tmp3)
  ret void
}

; Function Attrs: mustprogress uwtable
define linkonce_odr void @_ZN7rocksdb19WriteBatchWithIndex11DeleteRangeEPNS_18ColumnFamilyHandleERKNS_5SliceES5_S5_(ptr noalias sret(%"class.rocksdb::Status") align 8 %agg.result, ptr noundef nonnull align 8 dereferenceable(16) %this, ptr noundef %0, ptr noundef nonnull align 8 dereferenceable(16) %1, ptr noundef nonnull align 8 dereferenceable(16) %2, ptr noundef nonnull align 8 dereferenceable(16) %3) unnamed_addr #0 comdat align 2 {
entry:
  %result.ptr = alloca ptr, align 8
  %this.addr = alloca ptr, align 8
  %.addr = alloca ptr, align 8
  %.addr1 = alloca ptr, align 8
  %.addr2 = alloca ptr, align 8
  %.addr3 = alloca ptr, align 8
  %ref.tmp = alloca %"class.rocksdb::Slice", align 8
  %ref.tmp5 = alloca %"class.rocksdb::Slice", align 8
  store ptr %agg.result, ptr %result.ptr, align 8
  store ptr %this, ptr %this.addr, align 8
  store ptr %0, ptr %.addr, align 8
  store ptr %1, ptr %.addr1, align 8
  store ptr %2, ptr %.addr2, align 8
  store ptr %3, ptr %.addr3, align 8
  call void @_ZN7rocksdb5SliceC2EPKc(ptr noundef nonnull align 8 dereferenceable(16) %ref.tmp, ptr noundef @.str.11)
  call void @_ZN7rocksdb5SliceC2Ev(ptr noundef nonnull align 8 dereferenceable(16) %ref.tmp5)
  call void @_ZN7rocksdb6Status12NotSupportedERKNS_5SliceES3_(ptr sret(%"class.rocksdb::Status") align 8 %agg.result, ptr noundef nonnull align 8 dereferenceable(16) %ref.tmp, ptr noundef nonnull align 8 dereferenceable(16) %ref.tmp5)
  ret void
}

declare void @_ZN7rocksdb14WriteBatchBase11DeleteRangeEPNS_18ColumnFamilyHandleERKNS_10SlicePartsES5_(ptr sret(%"class.rocksdb::Status") align 8, ptr noundef nonnull align 8 dereferenceable(8), ptr noundef, ptr noundef nonnull align 8 dereferenceable(12), ptr noundef nonnull align 8 dereferenceable(12)) unnamed_addr #4

declare void @_ZN7rocksdb14WriteBatchBase11DeleteRangeERKNS_10SlicePartsES3_(ptr sret(%"class.rocksdb::Status") align 8, ptr noundef nonnull align 8 dereferenceable(8), ptr noundef nonnull align 8 dereferenceable(12), ptr noundef nonnull align 8 dereferenceable(12)) unnamed_addr #4

; Function Attrs: uwtable
define linkonce_odr hidden noundef ptr @_ZTWN7rocksdb10perf_levelE() #8 comdat {
  br i1 icmp ne (ptr @_ZTHN7rocksdb10perf_levelE, ptr null), label %1, label %2

1:                                                ; preds = %0
  call void @_ZTHN7rocksdb10perf_levelE()
  br label %2

2:                                                ; preds = %1, %0
  %3 = call align 1 ptr @llvm.threadlocal.address.p0(ptr align 1 @_ZN7rocksdb10perf_levelE)
  ret ptr %3
}

; Function Attrs: uwtable
define linkonce_odr hidden noundef ptr @_ZTWN7rocksdb12perf_contextE() #8 comdat {
  br i1 icmp ne (ptr @_ZTHN7rocksdb12perf_contextE, ptr null), label %1, label %2

1:                                                ; preds = %0
  call void @_ZTHN7rocksdb12perf_contextE()
  br label %2

2:                                                ; preds = %1, %0
  %3 = call align 8 ptr @llvm.threadlocal.address.p0(ptr align 8 @_ZN7rocksdb12perf_contextE)
  ret ptr %3
}

; Function Attrs: nocallback nofree nounwind willreturn memory(argmem: readwrite)
declare void @llvm.memcpy.p0.p0.i64(ptr noalias nocapture writeonly, ptr noalias nocapture readonly, i64, i1 immarg) #9

; Function Attrs: mustprogress nounwind uwtable
define linkonce_odr void @_ZNSt12_Vector_baseIN7rocksdb5SliceESaIS1_EEC2Ev(ptr noundef nonnull align 8 dereferenceable(24) %this) unnamed_addr #1 comdat align 2 {
entry:
  %this.addr = alloca ptr, align 8
  store ptr %this, ptr %this.addr, align 8
  %this1 = load ptr, ptr %this.addr, align 8
  %_M_impl = getelementptr inbounds %"struct.std::_Vector_base", ptr %this1, i32 0, i32 0
  call void @_ZNSt12_Vector_baseIN7rocksdb5SliceESaIS1_EE12_Vector_implC2Ev(ptr noundef nonnull align 8 dereferenceable(24) %_M_impl) #3
  ret void
}

; Function Attrs: mustprogress nounwind uwtable
define linkonce_odr void @_ZNSt12_Vector_baseIN7rocksdb5SliceESaIS1_EE12_Vector_implC2Ev(ptr noundef nonnull align 8 dereferenceable(24) %this) unnamed_addr #1 comdat align 2 {
entry:
  %this.addr = alloca ptr, align 8
  store ptr %this, ptr %this.addr, align 8
  %this1 = load ptr, ptr %this.addr, align 8
  call void @_ZNSaIN7rocksdb5SliceEEC2Ev(ptr noundef nonnull align 1 dereferenceable(1) %this1) #3
  call void @_ZNSt12_Vector_baseIN7rocksdb5SliceESaIS1_EE17_Vector_impl_dataC2Ev(ptr noundef nonnull align 8 dereferenceable(24) %this1) #3
  ret void
}

; Function Attrs: mustprogress nounwind uwtable
define linkonce_odr void @_ZNSaIN7rocksdb5SliceEEC2Ev(ptr noundef nonnull align 1 dereferenceable(1) %this) unnamed_addr #1 comdat align 2 {
entry:
  %this.addr = alloca ptr, align 8
  store ptr %this, ptr %this.addr, align 8
  %this1 = load ptr, ptr %this.addr, align 8
  call void @_ZNSt15__new_allocatorIN7rocksdb5SliceEEC2Ev(ptr noundef nonnull align 1 dereferenceable(1) %this1) #3
  ret void
}

; Function Attrs: mustprogress nounwind uwtable
