; ModuleID = 'bench/flatbuffers/original/idl_gen_ts.cpp.ll'
source_filename = "bench/flatbuffers/original/idl_gen_ts.cpp.ll"
target datalayout = "e-m:e-p270:32:32-p271:32:32-p272:64:64-i64:64-i128:128-f80:128-n8:16:32:64-S128"
target triple = "x86_64-unknown-linux-gnu"

%"class.std::ios_base::Init" = type { i8 }
%"class.std::basic_ostream" = type { ptr, %"class.std::basic_ios" }
%"class.std::basic_ios" = type { %"class.std::ios_base", ptr, i8, i8, ptr, ptr, ptr, ptr }
%"class.std::ios_base" = type { ptr, i64, i64, i32, i32, i32, ptr, %"struct.std::ios_base::_Words", [8 x %"struct.std::ios_base::_Words"], i32, ptr, %"class.std::locale" }
%"struct.std::ios_base::_Words" = type { ptr, i64 }
%"class.std::locale" = type { ptr }
%"class.std::unique_ptr" = type { %"struct.std::__uniq_ptr_data" }
%"struct.std::__uniq_ptr_data" = type { %"class.std::__uniq_ptr_impl" }
%"class.std::__uniq_ptr_impl" = type { %"class.std::tuple" }
%"class.std::tuple" = type { %"struct.std::_Tuple_impl" }
%"struct.std::_Tuple_impl" = type { %"struct.std::_Head_base.1" }
%"struct.std::_Head_base.1" = type { ptr }
%"class.flatbuffers::CodeGenerator" = type { ptr, %"class.std::__cxx11::basic_string" }
%"class.std::__cxx11::basic_string" = type { %"struct.std::__cxx11::basic_string<char>::_Alloc_hider", i64, %union.anon }
%"struct.std::__cxx11::basic_string<char>::_Alloc_hider" = type { ptr }
%union.anon = type { i64, [8 x i8] }
%"class.flatbuffers::ts::TsGenerator" = type { %"class.flatbuffers::BaseGenerator", %"class.flatbuffers::IdlNamer", %"class.std::map.108" }
%"class.flatbuffers::BaseGenerator" = type { ptr, ptr, ptr, ptr, %"class.std::__cxx11::basic_string", %"class.std::__cxx11::basic_string", %"class.std::__cxx11::basic_string" }
%"class.flatbuffers::IdlNamer" = type { %"class.flatbuffers::Namer" }
%"class.flatbuffers::Namer" = type { ptr, %"struct.flatbuffers::Namer::Config", %"class.std::set.103" }
%"struct.flatbuffers::Namer::Config" = type { i32, i32, i32, i32, i32, i32, i32, %"class.std::__cxx11::basic_string", i32, i32, %"class.std::__cxx11::basic_string", %"class.std::__cxx11::basic_string", %"class.std::__cxx11::basic_string", %"class.std::__cxx11::basic_string", %"class.std::__cxx11::basic_string", i32, i32, %"class.std::__cxx11::basic_string", %"class.std::__cxx11::basic_string", %"class.std::__cxx11::basic_string" }
%"class.std::set.103" = type { %"class.std::_Rb_tree.104" }
%"class.std::_Rb_tree.104" = type { %"struct.std::_Rb_tree<std::__cxx11::basic_string<char>, std::__cxx11::basic_string<char>, std::_Identity<std::__cxx11::basic_string<char>>, std::less<std::__cxx11::basic_string<char>>>::_Rb_tree_impl" }
%"struct.std::_Rb_tree<std::__cxx11::basic_string<char>, std::__cxx11::basic_string<char>, std::_Identity<std::__cxx11::basic_string<char>>, std::less<std::__cxx11::basic_string<char>>>::_Rb_tree_impl" = type { %"struct.std::_Rb_tree_key_compare", %"struct.std::_Rb_tree_header" }
%"struct.std::_Rb_tree_key_compare" = type { %"struct.std::less" }
%"struct.std::less" = type { i8 }
%"struct.std::_Rb_tree_header" = type { %"struct.std::_Rb_tree_node_base", i64 }
%"struct.std::_Rb_tree_node_base" = type { i32, ptr, ptr, ptr }
%"class.std::map.108" = type { %"class.std::_Rb_tree.109" }
%"class.std::_Rb_tree.109" = type { %"struct.std::_Rb_tree<std::__cxx11::basic_string<char>, std::pair<const std::__cxx11::basic_string<char>, flatbuffers::(anonymous namespace)::NsDefinition>, std::_Select1st<std::pair<const std::__cxx11::basic_string<char>, flatbuffers::(anonymous namespace)::NsDefinition>>, std::less<std::__cxx11::basic_string<char>>>::_Rb_tree_impl" }
%"struct.std::_Rb_tree<std::__cxx11::basic_string<char>, std::pair<const std::__cxx11::basic_string<char>, flatbuffers::(anonymous namespace)::NsDefinition>, std::_Select1st<std::pair<const std::__cxx11::basic_string<char>, flatbuffers::(anonymous namespace)::NsDefinition>>, std::less<std::__cxx11::basic_string<char>>>::_Rb_tree_impl" = type { %"struct.std::_Rb_tree_key_compare", %"struct.std::_Rb_tree_header" }
%"class.flatbuffers::Parser" = type { %"struct.flatbuffers::ParserState", %"class.flatbuffers::SymbolTable", %"class.flatbuffers::SymbolTable.21", %"class.flatbuffers::SymbolTable.32", %"class.flatbuffers::SymbolTable.43", %"class.std::vector.54", ptr, ptr, %"class.std::__cxx11::basic_string", %"class.flatbuffers::FlatBufferBuilderImpl", %"class.flexbuffers::Builder", %"class.flexbuffers::Reference", ptr, %"class.std::__cxx11::basic_string", %"class.std::__cxx11::basic_string", %"class.std::map.80", %"class.std::map.88", %"class.std::vector", %"class.std::map.93", %"struct.flatbuffers::IDLOptions", i8, i8, i64, %"class.std::__cxx11::basic_string", ptr, %"class.std::vector.98", %"class.std::set.103", i32, i32 }
%"struct.flatbuffers::ParserState" = type { ptr, ptr, ptr, i32, i32, i8, %"class.std::__cxx11::basic_string", %"class.std::vector" }
%"class.flatbuffers::SymbolTable" = type { %"class.std::map", %"class.std::vector.16" }
%"class.std::map" = type { %"class.std::_Rb_tree" }
%"class.std::_Rb_tree" = type { %"struct.std::_Rb_tree<std::__cxx11::basic_string<char>, std::pair<const std::__cxx11::basic_string<char>, flatbuffers::Type *>, std::_Select1st<std::pair<const std::__cxx11::basic_string<char>, flatbuffers::Type *>>, std::less<std::__cxx11::basic_string<char>>>::_Rb_tree_impl" }
%"struct.std::_Rb_tree<std::__cxx11::basic_string<char>, std::pair<const std::__cxx11::basic_string<char>, flatbuffers::Type *>, std::_Select1st<std::pair<const std::__cxx11::basic_string<char>, flatbuffers::Type *>>, std::less<std::__cxx11::basic_string<char>>>::_Rb_tree_impl" = type { %"struct.std::_Rb_tree_key_compare", %"struct.std::_Rb_tree_header" }
%"class.std::vector.16" = type { %"struct.std::_Vector_base.17" }
%"struct.std::_Vector_base.17" = type { %"struct.std::_Vector_base<flatbuffers::Type *, std::allocator<flatbuffers::Type *>>::_Vector_impl" }
%"struct.std::_Vector_base<flatbuffers::Type *, std::allocator<flatbuffers::Type *>>::_Vector_impl" = type { %"struct.std::_Vector_base<flatbuffers::Type *, std::allocator<flatbuffers::Type *>>::_Vector_impl_data" }
%"struct.std::_Vector_base<flatbuffers::Type *, std::allocator<flatbuffers::Type *>>::_Vector_impl_data" = type { ptr, ptr, ptr }
%"class.flatbuffers::SymbolTable.21" = type { %"class.std::map.22", %"class.std::vector.27" }
%"class.std::map.22" = type { %"class.std::_Rb_tree.23" }
%"class.std::_Rb_tree.23" = type { %"struct.std::_Rb_tree<std::__cxx11::basic_string<char>, std::pair<const std::__cxx11::basic_string<char>, flatbuffers::StructDef *>, std::_Select1st<std::pair<const std::__cxx11::basic_string<char>, flatbuffers::StructDef *>>, std::less<std::__cxx11::basic_string<char>>>::_Rb_tree_impl" }
%"struct.std::_Rb_tree<std::__cxx11::basic_string<char>, std::pair<const std::__cxx11::basic_string<char>, flatbuffers::StructDef *>, std::_Select1st<std::pair<const std::__cxx11::basic_string<char>, flatbuffers::StructDef *>>, std::less<std::__cxx11::basic_string<char>>>::_Rb_tree_impl" = type { %"struct.std::_Rb_tree_key_compare", %"struct.std::_Rb_tree_header" }
%"class.std::vector.27" = type { %"struct.std::_Vector_base.28" }
%"struct.std::_Vector_base.28" = type { %"struct.std::_Vector_base<flatbuffers::StructDef *, std::allocator<flatbuffers::StructDef *>>::_Vector_impl" }
%"struct.std::_Vector_base<flatbuffers::StructDef *, std::allocator<flatbuffers::StructDef *>>::_Vector_impl" = type { %"struct.std::_Vector_base<flatbuffers::StructDef *, std::allocator<flatbuffers::StructDef *>>::_Vector_impl_data" }
%"struct.std::_Vector_base<flatbuffers::StructDef *, std::allocator<flatbuffers::StructDef *>>::_Vector_impl_data" = type { ptr, ptr, ptr }
%"class.flatbuffers::SymbolTable.32" = type { %"class.std::map.33", %"class.std::vector.38" }
%"class.std::map.33" = type { %"class.std::_Rb_tree.34" }
%"class.std::_Rb_tree.34" = type { %"struct.std::_Rb_tree<std::__cxx11::basic_string<char>, std::pair<const std::__cxx11::basic_string<char>, flatbuffers::EnumDef *>, std::_Select1st<std::pair<const std::__cxx11::basic_string<char>, flatbuffers::EnumDef *>>, std::less<std::__cxx11::basic_string<char>>>::_Rb_tree_impl" }
%"struct.std::_Rb_tree<std::__cxx11::basic_string<char>, std::pair<const std::__cxx11::basic_string<char>, flatbuffers::EnumDef *>, std::_Select1st<std::pair<const std::__cxx11::basic_string<char>, flatbuffers::EnumDef *>>, std::less<std::__cxx11::basic_string<char>>>::_Rb_tree_impl" = type { %"struct.std::_Rb_tree_key_compare", %"struct.std::_Rb_tree_header" }
%"class.std::vector.38" = type { %"struct.std::_Vector_base.39" }
%"struct.std::_Vector_base.39" = type { %"struct.std::_Vector_base<flatbuffers::EnumDef *, std::allocator<flatbuffers::EnumDef *>>::_Vector_impl" }
%"struct.std::_Vector_base<flatbuffers::EnumDef *, std::allocator<flatbuffers::EnumDef *>>::_Vector_impl" = type { %"struct.std::_Vector_base<flatbuffers::EnumDef *, std::allocator<flatbuffers::EnumDef *>>::_Vector_impl_data" }
%"struct.std::_Vector_base<flatbuffers::EnumDef *, std::allocator<flatbuffers::EnumDef *>>::_Vector_impl_data" = type { ptr, ptr, ptr }
%"class.flatbuffers::SymbolTable.43" = type { %"class.std::map.44", %"class.std::vector.49" }
%"class.std::map.44" = type { %"class.std::_Rb_tree.45" }
%"class.std::_Rb_tree.45" = type { %"struct.std::_Rb_tree<std::__cxx11::basic_string<char>, std::pair<const std::__cxx11::basic_string<char>, flatbuffers::ServiceDef *>, std::_Select1st<std::pair<const std::__cxx11::basic_string<char>, flatbuffers::ServiceDef *>>, std::less<std::__cxx11::basic_string<char>>>::_Rb_tree_impl" }
%"struct.std::_Rb_tree<std::__cxx11::basic_string<char>, std::pair<const std::__cxx11::basic_string<char>, flatbuffers::ServiceDef *>, std::_Select1st<std::pair<const std::__cxx11::basic_string<char>, flatbuffers::ServiceDef *>>, std::less<std::__cxx11::basic_string<char>>>::_Rb_tree_impl" = type { %"struct.std::_Rb_tree_key_compare", %"struct.std::_Rb_tree_header" }
%"class.std::vector.49" = type { %"struct.std::_Vector_base.50" }
%"struct.std::_Vector_base.50" = type { %"struct.std::_Vector_base<flatbuffers::ServiceDef *, std::allocator<flatbuffers::ServiceDef *>>::_Vector_impl" }
%"struct.std::_Vector_base<flatbuffers::ServiceDef *, std::allocator<flatbuffers::ServiceDef *>>::_Vector_impl" = type { %"struct.std::_Vector_base<flatbuffers::ServiceDef *, std::allocator<flatbuffers::ServiceDef *>>::_Vector_impl_data" }
%"struct.std::_Vector_base<flatbuffers::ServiceDef *, std::allocator<flatbuffers::ServiceDef *>>::_Vector_impl_data" = type { ptr, ptr, ptr }
%"class.std::vector.54" = type { %"struct.std::_Vector_base.55" }
%"struct.std::_Vector_base.55" = type { %"struct.std::_Vector_base<flatbuffers::Namespace *, std::allocator<flatbuffers::Namespace *>>::_Vector_impl" }
%"struct.std::_Vector_base<flatbuffers::Namespace *, std::allocator<flatbuffers::Namespace *>>::_Vector_impl" = type { %"struct.std::_Vector_base<flatbuffers::Namespace *, std::allocator<flatbuffers::Namespace *>>::_Vector_impl_data" }
%"struct.std::_Vector_base<flatbuffers::Namespace *, std::allocator<flatbuffers::Namespace *>>::_Vector_impl_data" = type { ptr, ptr, ptr }
%"class.flatbuffers::FlatBufferBuilderImpl" = type { %"class.flatbuffers::vector_downward", i32, i16, i64, i8, i8, i64, i8, i8, ptr }
%"class.flatbuffers::vector_downward" = type { ptr, i8, i64, i32, i64, i64, i32, ptr, ptr, ptr }
%"class.flexbuffers::Builder" = type { %"class.std::vector.59", %"class.std::vector.64", i8, i8, i32, i32, %"class.std::set", %"class.std::set.74" }
%"class.std::vector.59" = type { %"struct.std::_Vector_base.60" }
%"struct.std::_Vector_base.60" = type { %"struct.std::_Vector_base<unsigned char, std::allocator<unsigned char>>::_Vector_impl" }
%"struct.std::_Vector_base<unsigned char, std::allocator<unsigned char>>::_Vector_impl" = type { %"struct.std::_Vector_base<unsigned char, std::allocator<unsigned char>>::_Vector_impl_data" }
%"struct.std::_Vector_base<unsigned char, std::allocator<unsigned char>>::_Vector_impl_data" = type { ptr, ptr, ptr }
%"class.std::vector.64" = type { %"struct.std::_Vector_base.65" }
%"struct.std::_Vector_base.65" = type { %"struct.std::_Vector_base<flexbuffers::Builder::Value, std::allocator<flexbuffers::Builder::Value>>::_Vector_impl" }
%"struct.std::_Vector_base<flexbuffers::Builder::Value, std::allocator<flexbuffers::Builder::Value>>::_Vector_impl" = type { %"struct.std::_Vector_base<flexbuffers::Builder::Value, std::allocator<flexbuffers::Builder::Value>>::_Vector_impl_data" }
%"struct.std::_Vector_base<flexbuffers::Builder::Value, std::allocator<flexbuffers::Builder::Value>>::_Vector_impl_data" = type { ptr, ptr, ptr }
%"class.std::set" = type { %"class.std::_Rb_tree.69" }
%"class.std::_Rb_tree.69" = type { %"struct.std::_Rb_tree<unsigned long, unsigned long, std::_Identity<unsigned long>, flexbuffers::Builder::KeyOffsetCompare>::_Rb_tree_impl" }
%"struct.std::_Rb_tree<unsigned long, unsigned long, std::_Identity<unsigned long>, flexbuffers::Builder::KeyOffsetCompare>::_Rb_tree_impl" = type { %"struct.std::_Rb_tree_key_compare.73", %"struct.std::_Rb_tree_header" }
%"struct.std::_Rb_tree_key_compare.73" = type { %"struct.flexbuffers::Builder::KeyOffsetCompare" }
%"struct.flexbuffers::Builder::KeyOffsetCompare" = type { ptr }
%"class.std::set.74" = type { %"class.std::_Rb_tree.75" }
%"class.std::_Rb_tree.75" = type { %"struct.std::_Rb_tree<std::pair<unsigned long, unsigned long>, std::pair<unsigned long, unsigned long>, std::_Identity<std::pair<unsigned long, unsigned long>>, flexbuffers::Builder::StringOffsetCompare>::_Rb_tree_impl" }
%"struct.std::_Rb_tree<std::pair<unsigned long, unsigned long>, std::pair<unsigned long, unsigned long>, std::_Identity<std::pair<unsigned long, unsigned long>>, flexbuffers::Builder::StringOffsetCompare>::_Rb_tree_impl" = type { %"struct.std::_Rb_tree_key_compare.79", %"struct.std::_Rb_tree_header" }
%"struct.std::_Rb_tree_key_compare.79" = type { %"struct.flexbuffers::Builder::StringOffsetCompare" }
%"struct.flexbuffers::Builder::StringOffsetCompare" = type { ptr }
%"class.flexbuffers::Reference" = type { ptr, i8, i8, i32 }
%"class.std::map.80" = type { %"class.std::_Rb_tree.81" }
%"class.std::_Rb_tree.81" = type { %"struct.std::_Rb_tree<unsigned long, std::pair<const unsigned long, std::__cxx11::basic_string<char>>, std::_Select1st<std::pair<const unsigned long, std::__cxx11::basic_string<char>>>, std::less<unsigned long>>::_Rb_tree_impl" }
%"struct.std::_Rb_tree<unsigned long, std::pair<const unsigned long, std::__cxx11::basic_string<char>>, std::_Select1st<std::pair<const unsigned long, std::__cxx11::basic_string<char>>>, std::less<unsigned long>>::_Rb_tree_impl" = type { %"struct.std::_Rb_tree_key_compare.85", %"struct.std::_Rb_tree_header" }
%"struct.std::_Rb_tree_key_compare.85" = type { %"struct.std::less.86" }
%"struct.std::less.86" = type { i8 }
%"class.std::map.88" = type { %"class.std::_Rb_tree.89" }
%"class.std::_Rb_tree.89" = type { %"struct.std::_Rb_tree<std::__cxx11::basic_string<char>, std::pair<const std::__cxx11::basic_string<char>, std::set<flatbuffers::IncludedFile>>, std::_Select1st<std::pair<const std::__cxx11::basic_string<char>, std::set<flatbuffers::IncludedFile>>>, std::less<std::__cxx11::basic_string<char>>>::_Rb_tree_impl" }
%"struct.std::_Rb_tree<std::__cxx11::basic_string<char>, std::pair<const std::__cxx11::basic_string<char>, std::set<flatbuffers::IncludedFile>>, std::_Select1st<std::pair<const std::__cxx11::basic_string<char>, std::set<flatbuffers::IncludedFile>>>, std::less<std::__cxx11::basic_string<char>>>::_Rb_tree_impl" = type { %"struct.std::_Rb_tree_key_compare", %"struct.std::_Rb_tree_header" }
%"class.std::vector" = type { %"struct.std::_Vector_base" }
%"struct.std::_Vector_base" = type { %"struct.std::_Vector_base<std::__cxx11::basic_string<char>, std::allocator<std::__cxx11::basic_string<char>>>::_Vector_impl" }
%"struct.std::_Vector_base<std::__cxx11::basic_string<char>, std::allocator<std::__cxx11::basic_string<char>>>::_Vector_impl" = type { %"struct.std::_Vector_base<std::__cxx11::basic_string<char>, std::allocator<std::__cxx11::basic_string<char>>>::_Vector_impl_data" }
%"struct.std::_Vector_base<std::__cxx11::basic_string<char>, std::allocator<std::__cxx11::basic_string<char>>>::_Vector_impl_data" = type { ptr, ptr, ptr }
%"class.std::map.93" = type { %"class.std::_Rb_tree.94" }
%"class.std::_Rb_tree.94" = type { %"struct.std::_Rb_tree<std::__cxx11::basic_string<char>, std::pair<const std::__cxx11::basic_string<char>, bool>, std::_Select1st<std::pair<const std::__cxx11::basic_string<char>, bool>>, std::less<std::__cxx11::basic_string<char>>>::_Rb_tree_impl" }
%"struct.std::_Rb_tree<std::__cxx11::basic_string<char>, std::pair<const std::__cxx11::basic_string<char>, bool>, std::_Select1st<std::pair<const std::__cxx11::basic_string<char>, bool>>, std::less<std::__cxx11::basic_string<char>>>::_Rb_tree_impl" = type { %"struct.std::_Rb_tree_key_compare", %"struct.std::_Rb_tree_header" }
%"struct.flatbuffers::IDLOptions" = type <{ i8, i8, i8, i8, i32, i8, i8, i8, i8, i8, i8, i8, i8, i8, i8, i8, i8, i8, i8, i8, i8, %"class.std::__cxx11::basic_string", %"class.std::__cxx11::basic_string", i8, [3 x i8], i32, i8, i8, [6 x i8], %"class.std::__cxx11::basic_string", i8, i8, i8, [5 x i8], %"class.std::__cxx11::basic_string", %"class.std::__cxx11::basic_string", i8, i8, i8, [5 x i8], %"class.std::__cxx11::basic_string", i8, i8, i8, i8, i8, [3 x i8], %"class.std::__cxx11::basic_string", %"class.std::__cxx11::basic_string", %"class.std::__cxx11::basic_string", i8, i8, [6 x i8], %"class.std::__cxx11::basic_string", i8, i8, i8, [5 x i8], %"class.std::vector", %"class.std::__cxx11::basic_string", i8, [7 x i8], %"class.std::__cxx11::basic_string", %"class.std::__cxx11::basic_string", %"class.std::__cxx11::basic_string", i8, i8, [6 x i8], %"class.std::__cxx11::basic_string", i8, i8, i8, i8, i8, i8, i8, i8, i8, i8, i8, i8, i8, [3 x i8], i32, i32, i8, i8, i8, [5 x i8], i64, i8, i8, [6 x i8] }>
%"class.std::vector.98" = type { %"struct.std::_Vector_base.99" }
%"struct.std::_Vector_base.99" = type { %"struct.std::_Vector_base<std::pair<flatbuffers::Value, flatbuffers::FieldDef *>, std::allocator<std::pair<flatbuffers::Value, flatbuffers::FieldDef *>>>::_Vector_impl" }
%"struct.std::_Vector_base<std::pair<flatbuffers::Value, flatbuffers::FieldDef *>, std::allocator<std::pair<flatbuffers::Value, flatbuffers::FieldDef *>>>::_Vector_impl" = type { %"struct.std::_Vector_base<std::pair<flatbuffers::Value, flatbuffers::FieldDef *>, std::allocator<std::pair<flatbuffers::Value, flatbuffers::FieldDef *>>>::_Vector_impl_data" }
%"struct.std::_Vector_base<std::pair<flatbuffers::Value, flatbuffers::FieldDef *>, std::allocator<std::pair<flatbuffers::Value, flatbuffers::FieldDef *>>>::_Vector_impl_data" = type { ptr, ptr, ptr }
%"struct.std::_Rb_tree_node" = type { %"struct.std::_Rb_tree_node_base", %"struct.__gnu_cxx::__aligned_membuf" }
%"struct.__gnu_cxx::__aligned_membuf" = type { [32 x i8] }
%"class.std::allocator" = type { i8 }
%struct._Guard = type { ptr }
%"struct.std::_Rb_tree<std::__cxx11::basic_string<char>, std::__cxx11::basic_string<char>, std::_Identity<std::__cxx11::basic_string<char>>, std::less<std::__cxx11::basic_string<char>>>::_Alloc_node" = type { ptr }
%"class.std::map.114" = type { %"class.std::_Rb_tree.115" }
%"class.std::_Rb_tree.115" = type { %"struct.std::_Rb_tree<std::__cxx11::basic_string<char>, std::pair<const std::__cxx11::basic_string<char>, flatbuffers::(anonymous namespace)::ImportDefinition>, std::_Select1st<std::pair<const std::__cxx11::basic_string<char>, flatbuffers::(anonymous namespace)::ImportDefinition>>, std::less<std::__cxx11::basic_string<char>>>::_Rb_tree_impl" }
%"struct.std::_Rb_tree<std::__cxx11::basic_string<char>, std::pair<const std::__cxx11::basic_string<char>, flatbuffers::(anonymous namespace)::ImportDefinition>, std::_Select1st<std::pair<const std::__cxx11::basic_string<char>, flatbuffers::(anonymous namespace)::ImportDefinition>>, std::less<std::__cxx11::basic_string<char>>>::_Rb_tree_impl" = type { %"struct.std::_Rb_tree_key_compare", %"struct.std::_Rb_tree_header" }
%"struct.flatbuffers::(anonymous namespace)::ImportDefinition" = type { %"class.std::__cxx11::basic_string", %"class.std::__cxx11::basic_string", %"class.std::__cxx11::basic_string", %"class.std::__cxx11::basic_string", %"class.std::__cxx11::basic_string", %"class.std::__cxx11::basic_string", ptr, ptr }
%"struct.std::pair.174" = type { %"class.std::__cxx11::basic_string", %"struct.flatbuffers::(anonymous namespace)::ImportDefinition" }
%"struct.flatbuffers::(anonymous namespace)::NsDefinition" = type { %"class.std::__cxx11::basic_string", %"class.std::__cxx11::basic_string", %"class.std::__cxx11::basic_string", ptr, %"class.std::map.183" }
%"class.std::map.183" = type { %"class.std::_Rb_tree.184" }
%"class.std::_Rb_tree.184" = type { %"struct.std::_Rb_tree<std::__cxx11::basic_string<char>, std::pair<const std::__cxx11::basic_string<char>, const flatbuffers::Definition *>, std::_Select1st<std::pair<const std::__cxx11::basic_string<char>, const flatbuffers::Definition *>>, std::less<std::__cxx11::basic_string<char>>>::_Rb_tree_impl" }
%"struct.std::_Rb_tree<std::__cxx11::basic_string<char>, std::pair<const std::__cxx11::basic_string<char>, const flatbuffers::Definition *>, std::_Select1st<std::pair<const std::__cxx11::basic_string<char>, const flatbuffers::Definition *>>, std::less<std::__cxx11::basic_string<char>>>::_Rb_tree_impl" = type { %"struct.std::_Rb_tree_key_compare", %"struct.std::_Rb_tree_header" }
%"struct.std::_Rb_tree_node.196" = type { %"struct.std::_Rb_tree_node_base", %"struct.__gnu_cxx::__aligned_membuf.197" }
%"struct.__gnu_cxx::__aligned_membuf.197" = type { [184 x i8] }
%"struct.std::_Rb_tree_node.205" = type { %"struct.std::_Rb_tree_node_base", %"struct.__gnu_cxx::__aligned_membuf.206" }
%"struct.__gnu_cxx::__aligned_membuf.206" = type { [40 x i8] }
%"struct.std::_Rb_tree_node.226" = type { %"struct.std::_Rb_tree_node_base", %"struct.__gnu_cxx::__aligned_membuf.227" }
%"struct.__gnu_cxx::__aligned_membuf.227" = type { [40 x i8] }
%class.anon = type { ptr, ptr, ptr, ptr, ptr }
%"struct.flatbuffers::Definition" = type { %"class.std::__cxx11::basic_string", %"class.std::__cxx11::basic_string", %"class.std::vector", %"class.flatbuffers::SymbolTable.119", i8, ptr, i32, i32, i32, ptr }
%"class.flatbuffers::SymbolTable.119" = type { %"class.std::map.120", %"class.std::vector.125" }
%"class.std::map.120" = type { %"class.std::_Rb_tree.121" }
%"class.std::_Rb_tree.121" = type { %"struct.std::_Rb_tree<std::__cxx11::basic_string<char>, std::pair<const std::__cxx11::basic_string<char>, flatbuffers::Value *>, std::_Select1st<std::pair<const std::__cxx11::basic_string<char>, flatbuffers::Value *>>, std::less<std::__cxx11::basic_string<char>>>::_Rb_tree_impl" }
%"struct.std::_Rb_tree<std::__cxx11::basic_string<char>, std::pair<const std::__cxx11::basic_string<char>, flatbuffers::Value *>, std::_Select1st<std::pair<const std::__cxx11::basic_string<char>, flatbuffers::Value *>>, std::less<std::__cxx11::basic_string<char>>>::_Rb_tree_impl" = type { %"struct.std::_Rb_tree_key_compare", %"struct.std::_Rb_tree_header" }
%"class.std::vector.125" = type { %"struct.std::_Vector_base.126" }
%"struct.std::_Vector_base.126" = type { %"struct.std::_Vector_base<flatbuffers::Value *, std::allocator<flatbuffers::Value *>>::_Vector_impl" }
%"struct.std::_Vector_base<flatbuffers::Value *, std::allocator<flatbuffers::Value *>>::_Vector_impl" = type { %"struct.std::_Vector_base<flatbuffers::Value *, std::allocator<flatbuffers::Value *>>::_Vector_impl_data" }
%"struct.std::_Vector_base<flatbuffers::Value *, std::allocator<flatbuffers::Value *>>::_Vector_impl_data" = type { ptr, ptr, ptr }
%"struct.flatbuffers::EnumDef" = type { %"struct.flatbuffers::Definition", i8, i8, [6 x i8], %"struct.flatbuffers::Type", %"class.flatbuffers::SymbolTable.130" }
%"struct.flatbuffers::Type" = type <{ i32, i32, ptr, ptr, i16, [6 x i8] }>
%"class.flatbuffers::SymbolTable.130" = type { %"class.std::map.131", %"class.std::vector.136" }
%"class.std::map.131" = type { %"class.std::_Rb_tree.132" }
%"class.std::_Rb_tree.132" = type { %"struct.std::_Rb_tree<std::__cxx11::basic_string<char>, std::pair<const std::__cxx11::basic_string<char>, flatbuffers::EnumVal *>, std::_Select1st<std::pair<const std::__cxx11::basic_string<char>, flatbuffers::EnumVal *>>, std::less<std::__cxx11::basic_string<char>>>::_Rb_tree_impl" }
%"struct.std::_Rb_tree<std::__cxx11::basic_string<char>, std::pair<const std::__cxx11::basic_string<char>, flatbuffers::EnumVal *>, std::_Select1st<std::pair<const std::__cxx11::basic_string<char>, flatbuffers::EnumVal *>>, std::less<std::__cxx11::basic_string<char>>>::_Rb_tree_impl" = type { %"struct.std::_Rb_tree_key_compare", %"struct.std::_Rb_tree_header" }
%"class.std::vector.136" = type { %"struct.std::_Vector_base.137" }
%"struct.std::_Vector_base.137" = type { %"struct.std::_Vector_base<flatbuffers::EnumVal *, std::allocator<flatbuffers::EnumVal *>>::_Vector_impl" }
%"struct.std::_Vector_base<flatbuffers::EnumVal *, std::allocator<flatbuffers::EnumVal *>>::_Vector_impl" = type { %"struct.std::_Vector_base<flatbuffers::EnumVal *, std::allocator<flatbuffers::EnumVal *>>::_Vector_impl_data" }
%"struct.std::_Vector_base<flatbuffers::EnumVal *, std::allocator<flatbuffers::EnumVal *>>::_Vector_impl_data" = type { ptr, ptr, ptr }
%"struct.flatbuffers::EnumVal" = type { %"class.std::__cxx11::basic_string", %"class.std::vector", %"struct.flatbuffers::Type", %"class.flatbuffers::SymbolTable.119", i64 }
%"struct.std::pair.192" = type { %"class.std::__cxx11::basic_string", ptr }
%"struct.std::_Rb_tree_node.176" = type { %"struct.std::_Rb_tree_node_base", %"struct.__gnu_cxx::__aligned_membuf.177" }
%"struct.__gnu_cxx::__aligned_membuf.177" = type { [240 x i8] }
%"class.std::__cxx11::basic_stringstream" = type { %"class.std::basic_iostream.base", %"class.std::__cxx11::basic_stringbuf", %"class.std::basic_ios" }
%"class.std::basic_iostream.base" = type { %"class.std::basic_istream.base", %"class.std::basic_ostream.base" }
%"class.std::basic_istream.base" = type { ptr, i64 }
%"class.std::basic_ostream.base" = type { ptr }
%"class.std::__cxx11::basic_stringbuf" = type { %"class.std::basic_streambuf", i32, %"class.std::__cxx11::basic_string" }
%"class.std::basic_streambuf" = type { ptr, ptr, ptr, ptr, ptr, ptr, ptr, %"class.std::locale" }
%"struct.std::_Rb_tree<std::__cxx11::basic_string<char>, std::pair<const std::__cxx11::basic_string<char>, const flatbuffers::Definition *>, std::_Select1st<std::pair<const std::__cxx11::basic_string<char>, const flatbuffers::Definition *>>, std::less<std::__cxx11::basic_string<char>>>::_Auto_node" = type { ptr, ptr }
%"struct.std::_Rb_tree<std::__cxx11::basic_string<char>, std::pair<const std::__cxx11::basic_string<char>, const flatbuffers::Definition *>, std::_Select1st<std::pair<const std::__cxx11::basic_string<char>, const flatbuffers::Definition *>>, std::less<std::__cxx11::basic_string<char>>>::_Reuse_or_alloc_node" = type { ptr, ptr, ptr }
%"struct.std::pair.202" = type { %"class.std::__cxx11::basic_string", ptr }
%"struct.flatbuffers::StructDef" = type { %"struct.flatbuffers::Definition", %"class.flatbuffers::SymbolTable.142", i8, i8, i8, i8, i64, i64, %"class.std::unique_ptr.153", %"class.std::vector.161" }
%"class.flatbuffers::SymbolTable.142" = type { %"class.std::map.143", %"class.std::vector.148" }
%"class.std::map.143" = type { %"class.std::_Rb_tree.144" }
%"class.std::_Rb_tree.144" = type { %"struct.std::_Rb_tree<std::__cxx11::basic_string<char>, std::pair<const std::__cxx11::basic_string<char>, flatbuffers::FieldDef *>, std::_Select1st<std::pair<const std::__cxx11::basic_string<char>, flatbuffers::FieldDef *>>, std::less<std::__cxx11::basic_string<char>>>::_Rb_tree_impl" }
%"struct.std::_Rb_tree<std::__cxx11::basic_string<char>, std::pair<const std::__cxx11::basic_string<char>, flatbuffers::FieldDef *>, std::_Select1st<std::pair<const std::__cxx11::basic_string<char>, flatbuffers::FieldDef *>>, std::less<std::__cxx11::basic_string<char>>>::_Rb_tree_impl" = type { %"struct.std::_Rb_tree_key_compare", %"struct.std::_Rb_tree_header" }
%"class.std::vector.148" = type { %"struct.std::_Vector_base.149" }
%"struct.std::_Vector_base.149" = type { %"struct.std::_Vector_base<flatbuffers::FieldDef *, std::allocator<flatbuffers::FieldDef *>>::_Vector_impl" }
%"struct.std::_Vector_base<flatbuffers::FieldDef *, std::allocator<flatbuffers::FieldDef *>>::_Vector_impl" = type { %"struct.std::_Vector_base<flatbuffers::FieldDef *, std::allocator<flatbuffers::FieldDef *>>::_Vector_impl_data" }
%"struct.std::_Vector_base<flatbuffers::FieldDef *, std::allocator<flatbuffers::FieldDef *>>::_Vector_impl_data" = type { ptr, ptr, ptr }
%"class.std::unique_ptr.153" = type { %"struct.std::__uniq_ptr_data.154" }
%"struct.std::__uniq_ptr_data.154" = type { %"class.std::__uniq_ptr_impl.155" }
%"class.std::__uniq_ptr_impl.155" = type { %"class.std::tuple.156" }
%"class.std::tuple.156" = type { %"struct.std::_Tuple_impl.157" }
%"struct.std::_Tuple_impl.157" = type { %"struct.std::_Head_base.160" }
%"struct.std::_Head_base.160" = type { ptr }
%"class.std::vector.161" = type { %"struct.std::_Vector_base.162" }
%"struct.std::_Vector_base.162" = type { %"struct.std::_Vector_base<unsigned short, std::allocator<unsigned short>>::_Vector_impl" }
%"struct.std::_Vector_base<unsigned short, std::allocator<unsigned short>>::_Vector_impl" = type { %"struct.std::_Vector_base<unsigned short, std::allocator<unsigned short>>::_Vector_impl_data" }
%"struct.std::_Vector_base<unsigned short, std::allocator<unsigned short>>::_Vector_impl_data" = type { ptr, ptr, ptr }
%"struct.flatbuffers::FieldDef" = type { %"struct.flatbuffers::Definition", %"struct.flatbuffers::Value", i8, i8, i8, i8, i8, i8, i32, ptr, i64, ptr }
%"struct.flatbuffers::Value" = type <{ %"struct.flatbuffers::Type", %"class.std::__cxx11::basic_string", i16, [6 x i8] }>

$_ZN11flatbuffers13CodeGenerator18GenerateCodeStringERKNS_6ParserERKNSt7__cxx1112basic_stringIcSt11char_traitsIcESaIcEEERS9_ = comdat any

$_ZN11flatbuffers13CodeGeneratorD2Ev = comdat any

$_ZN11flatbuffers13CodeGeneratorD0Ev = comdat any

$_ZN11flatbuffers2ts11TsGeneratorC2ERKNS_6ParserERKNSt7__cxx1112basic_stringIcSt11char_traitsIcESaIcEEESC_ = comdat any

$_ZN11flatbuffers2ts11TsGenerator8generateEv = comdat any

$_ZN11flatbuffers2ts11TsGeneratorD2Ev = comdat any

$_ZNSt7__cxx1112basic_stringIcSt11char_traitsIcESaIcEEC2IS3_EEPKcRKS3_ = comdat any

$_ZN11flatbuffers8IdlNamerC2ENS_5Namer6ConfigESt3setINSt7__cxx1112basic_stringIcSt11char_traitsIcESaIcEEESt4lessIS9_ESaIS9_EE = comdat any

$_ZNSt3setINSt7__cxx1112basic_stringIcSt11char_traitsIcESaIcEEESt4lessIS5_ESaIS5_EED2Ev = comdat any

$_ZN11flatbuffers5Namer6ConfigD2Ev = comdat any

$_ZN11flatbuffers2ts11TsGeneratorD0Ev = comdat any

$_ZNK11flatbuffers13BaseGenerator16CurrentNameSpaceEv = comdat any

$_ZNSt7__cxx1112basic_stringIcSt11char_traitsIcESaIcEE12_M_constructIPKcEEvT_S8_St20forward_iterator_tag = comdat any

$_ZZNSt7__cxx1112basic_stringIcSt11char_traitsIcESaIcEE12_M_constructIPKcEEvT_S8_St20forward_iterator_tagEN6_GuardD2Ev = comdat any

$__clang_call_terminate = comdat any

$_ZN11flatbuffers13BaseGeneratorD2Ev = comdat any

$_ZN11flatbuffers13BaseGeneratorD0Ev = comdat any

$_ZN11flatbuffers5Namer6ConfigC2ERKS1_ = comdat any

$_ZNSt8_Rb_treeINSt7__cxx1112basic_stringIcSt11char_traitsIcESaIcEEES5_St9_IdentityIS5_ESt4lessIS5_ESaIS5_EED2Ev = comdat any

$_ZNSt8_Rb_treeINSt7__cxx1112basic_stringIcSt11char_traitsIcESaIcEEES5_St9_IdentityIS5_ESt4lessIS5_ESaIS5_EE29_M_get_insert_hint_unique_posESt23_Rb_tree_const_iteratorIS5_ERKS5_ = comdat any

$_ZNSt8_Rb_treeINSt7__cxx1112basic_stringIcSt11char_traitsIcESaIcEEES5_St9_IdentityIS5_ESt4lessIS5_ESaIS5_EE10_M_insert_IRKS5_NSB_11_Alloc_nodeEEESt17_Rb_tree_iteratorIS5_EPSt18_Rb_tree_node_baseSJ_OT_RT0_ = comdat any

$_ZNSt8_Rb_treeINSt7__cxx1112basic_stringIcSt11char_traitsIcESaIcEEES5_St9_IdentityIS5_ESt4lessIS5_ESaIS5_EE8_M_eraseEPSt13_Rb_tree_nodeIS5_E = comdat any

$_ZN11flatbuffers8IdlNamerD2Ev = comdat any

$_ZN11flatbuffers8IdlNamerD0Ev = comdat any

$_ZNK11flatbuffers5Namer6MethodERKNSt7__cxx1112basic_stringIcSt11char_traitsIcESaIcEEES8_S8_ = comdat any

$_ZNK11flatbuffers5Namer6MethodERKNSt7__cxx1112basic_stringIcSt11char_traitsIcESaIcEEES8_ = comdat any

$_ZNK11flatbuffers5Namer6MethodERKNSt7__cxx1112basic_stringIcSt11char_traitsIcESaIcEEE = comdat any

$_ZNK11flatbuffers5Namer8ConstantERKNSt7__cxx1112basic_stringIcSt11char_traitsIcESaIcEEE = comdat any

$_ZNK11flatbuffers5Namer8FunctionERKNSt7__cxx1112basic_stringIcSt11char_traitsIcESaIcEEE = comdat any

$_ZNK11flatbuffers5Namer8VariableERKNSt7__cxx1112basic_stringIcSt11char_traitsIcESaIcEEE = comdat any

$_ZNK11flatbuffers5Namer8VariableERKNSt7__cxx1112basic_stringIcSt11char_traitsIcESaIcEEES8_ = comdat any

$_ZNK11flatbuffers5Namer9NamespaceERKNSt7__cxx1112basic_stringIcSt11char_traitsIcESaIcEEE = comdat any

$_ZNK11flatbuffers5Namer9NamespaceERKSt6vectorINSt7__cxx1112basic_stringIcSt11char_traitsIcESaIcEEESaIS7_EE = comdat any

$_ZNK11flatbuffers5Namer14NamespacedTypeERKSt6vectorINSt7__cxx1112basic_stringIcSt11char_traitsIcESaIcEEESaIS7_EERKS7_ = comdat any

$_ZNK11flatbuffers5Namer4FileERKNSt7__cxx1112basic_stringIcSt11char_traitsIcESaIcEEENS_8SkipFileE = comdat any

$_ZNK11flatbuffers5Namer11DirectoriesERKSt6vectorINSt7__cxx1112basic_stringIcSt11char_traitsIcESaIcEEESaIS7_EENS_7SkipDirENS_4CaseE = comdat any

$_ZNK11flatbuffers5Namer13EscapeKeywordERKNSt7__cxx1112basic_stringIcSt11char_traitsIcESaIcEEE = comdat any

$_ZNK11flatbuffers5Namer4TypeERKNSt7__cxx1112basic_stringIcSt11char_traitsIcESaIcEEE = comdat any

$_ZNK11flatbuffers5Namer4TypeERKNSt7__cxx1112basic_stringIcSt11char_traitsIcESaIcEEES8_ = comdat any

$_ZNK11flatbuffers5Namer10ObjectTypeERKNSt7__cxx1112basic_stringIcSt11char_traitsIcESaIcEEE = comdat any

$_ZNK11flatbuffers5Namer5FieldERKNSt7__cxx1112basic_stringIcSt11char_traitsIcESaIcEEE = comdat any

$_ZNK11flatbuffers5Namer7VariantERKNSt7__cxx1112basic_stringIcSt11char_traitsIcESaIcEEE = comdat any

$_ZNK11flatbuffers5Namer6FormatERKNSt7__cxx1112basic_stringIcSt11char_traitsIcESaIcEEENS_4CaseE = comdat any

$_ZNK11flatbuffers5Namer11DenamespaceERKNSt7__cxx1112basic_stringIcSt11char_traitsIcESaIcEEERS6_c = comdat any

$_ZNK11flatbuffers5Namer11DenamespaceERKNSt7__cxx1112basic_stringIcSt11char_traitsIcESaIcEEEc = comdat any

$_ZN11flatbuffers5NamerD2Ev = comdat any

$_ZN11flatbuffers5NamerD0Ev = comdat any

$_ZN11flatbuffers2ts11TsGenerator13generateEnumsEv = comdat any

$_ZN11flatbuffers2ts11TsGenerator15generateStructsEv = comdat any

$_ZN11flatbuffers2ts11TsGenerator13generateEntryEv = comdat any

$_ZN11flatbuffers2ts11TsGenerator14generateBundleEv = comdat any

$_ZN11flatbuffers2ts11TsGenerator10TrackNsDefERKNS_10DefinitionENSt7__cxx1112basic_stringIcSt11char_traitsIcESaIcEEE = comdat any

$_ZN11flatbuffers2ts11TsGenerator13GenDocCommentERKSt6vectorINSt7__cxx1112basic_stringIcSt11char_traitsIcESaIcEEESaIS8_EEPS8_PKc = comdat any

$_ZNK11flatbuffers7EnumDef8ToStringB5cxx11ERKNS_7EnumValE = comdat any

$_ZStplIcSt11char_traitsIcESaIcEENSt7__cxx1112basic_stringIT_T0_T1_EEPKS5_RKS8_ = comdat any

$_ZN11flatbuffers2ts11TsGenerator20GenUnionConvFuncNameB5cxx11ERKNS_7EnumDefE = comdat any

$_ZN11flatbuffers2ts11TsGenerator24GenUnionListConvFuncNameB5cxx11ERKNS_7EnumDefE = comdat any

$_ZN11flatbuffers2ts11TsGenerator11GetTypeNameB5cxx11ERKNS_9StructDefEbb = comdat any

$_ZN11flatbuffers2ts11TsGenerator19GenSymbolExpressionERKNS_9StructDefEbRKNSt7__cxx1112basic_stringIcSt11char_traitsIcESaIcEEESC_SC_ = comdat any

$_ZNK11flatbuffers8IdlNamer16NamespacedStringEPKNS_9NamespaceERKNSt7__cxx1112basic_stringIcSt11char_traitsIcESaIcEEE = comdat any

$_ZNSt8_Rb_treeINSt7__cxx1112basic_stringIcSt11char_traitsIcESaIcEEES5_St9_IdentityIS5_ESt4lessIS5_ESaIS5_EE16_M_insert_uniqueIRKS5_EESt4pairISt17_Rb_tree_iteratorIS5_EbEOT_ = comdat any

$_ZN11flatbuffers2ts11TsGenerator19GenSymbolExpressionERKNS_7EnumDefEbRKNSt7__cxx1112basic_stringIcSt11char_traitsIcESaIcEEESC_SC_ = comdat any

$_ZNSt8_Rb_treeINSt7__cxx1112basic_stringIcSt11char_traitsIcESaIcEEESt4pairIKS5_PKN11flatbuffers10DefinitionEESt10_Select1stISC_ESt4lessIS5_ESaISC_EE22_M_emplace_hint_uniqueIJS6_IS5_SB_EEEESt17_Rb_tree_iteratorISC_ESt23_Rb_tree_const_iteratorISC_EDpOT_ = comdat any

$_ZNSt8_Rb_treeINSt7__cxx1112basic_stringIcSt11char_traitsIcESaIcEEESt4pairIKS5_PKN11flatbuffers10DefinitionEESt10_Select1stISC_ESt4lessIS5_ESaISC_EE29_M_get_insert_hint_unique_posESt23_Rb_tree_const_iteratorISC_ERS7_ = comdat any

$_ZNSt8_Rb_treeINSt7__cxx1112basic_stringIcSt11char_traitsIcESaIcEEESt4pairIKS5_PKN11flatbuffers10DefinitionEESt10_Select1stISC_ESt4lessIS5_ESaISC_EE10_Auto_nodeD2Ev = comdat any

$_ZNSt8_Rb_treeINSt7__cxx1112basic_stringIcSt11char_traitsIcESaIcEEESt4pairIKS5_PKN11flatbuffers10DefinitionEESt10_Select1stISC_ESt4lessIS5_ESaISC_EEaSERKSI_ = comdat any

$_ZNSt8_Rb_treeINSt7__cxx1112basic_stringIcSt11char_traitsIcESaIcEEESt4pairIKS5_PKN11flatbuffers10DefinitionEESt10_Select1stISC_ESt4lessIS5_ESaISC_EE20_Reuse_or_alloc_nodeD2Ev = comdat any

$_ZNSt8_Rb_treeINSt7__cxx1112basic_stringIcSt11char_traitsIcESaIcEEESt4pairIKS5_PKN11flatbuffers10DefinitionEESt10_Select1stISC_ESt4lessIS5_ESaISC_EE7_M_copyILb0ENSI_20_Reuse_or_alloc_nodeEEEPSt13_Rb_tree_nodeISC_ESN_PSt18_Rb_tree_node_baseRT0_ = comdat any

$_ZNSt8_Rb_treeINSt7__cxx1112basic_stringIcSt11char_traitsIcESaIcEEESt4pairIKS5_PKN11flatbuffers10DefinitionEESt10_Select1stISC_ESt4lessIS5_ESaISC_EE8_M_eraseEPSt13_Rb_tree_nodeISC_E = comdat any

$_ZNSt8_Rb_treeINSt7__cxx1112basic_stringIcSt11char_traitsIcESaIcEEESt4pairIKS5_PKN11flatbuffers10DefinitionEESt10_Select1stISC_ESt4lessIS5_ESaISC_EE20_Reuse_or_alloc_nodeclIRKSC_EEPSt13_Rb_tree_nodeISC_EOT_ = comdat any

$_ZN11flatbuffers2ts11TsGenerator20GenerateRootAccessorERNS_9StructDefEPNSt7__cxx1112basic_stringIcSt11char_traitsIcESaIcEEERS9_RKS9_b = comdat any

$_ZN11flatbuffers2ts11TsGenerator9GenGetterERKNS_4TypeERKNSt7__cxx1112basic_stringIcSt11char_traitsIcESaIcEEE = comdat any

$_ZN11flatbuffers2ts11TsGenerator8MaybeAddItEENSt7__cxx1112basic_stringIcSt11char_traitsIcESaIcEEET_ = comdat any

$_ZN11flatbuffers2ts11TsGenerator21GenerateNewExpressionERKNSt7__cxx1112basic_stringIcSt11char_traitsIcESaIcEEE = comdat any

$_ZN11flatbuffers10InlineSizeERKNS_4TypeE = comdat any

$_ZN11flatbuffers2ts11TsGenerator10MaybeScaleImEENSt7__cxx1112basic_stringIcSt11char_traitsIcESaIcEEET_ = comdat any

$_ZN11flatbuffers2ts11TsGenerator21GenUnionGenericTypeTSB5cxx11ERKNS_7EnumDefE = comdat any

$_ZN11flatbuffers2ts11TsGenerator7GenTypeB5cxx11ERKNS_4TypeE = comdat any

$_ZN11flatbuffers2ts11TsGenerator13GenStructBodyERKNS_9StructDefEPNSt7__cxx1112basic_stringIcSt11char_traitsIcESaIcEEERKSA_ = comdat any

$_ZN11flatbuffers2ts11TsGenerator14GenWriteMethodB5cxx11ERKNS_4TypeE = comdat any

$_ZN11flatbuffers15InlineAlignmentERKNS_4TypeE = comdat any

$_ZN11flatbuffers2ts11TsGenerator16GenerateFinisherERNS_9StructDefEPNSt7__cxx1112basic_stringIcSt11char_traitsIcESaIcEEERS9_b = comdat any

$_ZNSt6vectorINSt7__cxx1112basic_stringIcSt11char_traitsIcESaIcEEESaIS5_EED2Ev = comdat any

$_ZSt9__find_ifIN9__gnu_cxx17__normal_iteratorIPKPN11flatbuffers7EnumValESt6vectorIS4_SaIS4_EEEENS0_5__ops10_Iter_predIZNS2_2ts11TsGenerator18UnionHasStringTypeERKNS2_7EnumDefEEUlPKS3_E_EEET_SM_SM_T0_St26random_access_iterator_tag = comdat any

$_ZN11flatbuffers34StringIsFlatbufferPositiveInfinityERKNSt7__cxx1112basic_stringIcSt11char_traitsIcESaIcEEE = comdat any

$_ZN11flatbuffers34StringIsFlatbufferNegativeInfinityERKNSt7__cxx1112basic_stringIcSt11char_traitsIcESaIcEEE = comdat any

$_ZN11flatbuffers2ts11TsGenerator22GenStructMemberValueTSERKNS_9StructDefERKNSt7__cxx1112basic_stringIcSt11char_traitsIcESaIcEEESC_b = comdat any

$_ZN11flatbuffers2ts11TsGenerator23GenNullCheckConditionalERKNSt7__cxx1112basic_stringIcSt11char_traitsIcESaIcEEES9_S9_ = comdat any

$_ZNK11flatbuffers8IdlNamer5FieldERKNS_8FieldDefERKNSt7__cxx1112basic_stringIcSt11char_traitsIcESaIcEEE = comdat any

$_ZNSt6vectorINSt7__cxx1112basic_stringIcSt11char_traitsIcESaIcEEESaIS5_EE17_M_realloc_insertIJRKS5_EEEvN9__gnu_cxx17__normal_iteratorIPS5_S7_EEDpOT_ = comdat any

$_ZTSN11flatbuffers13CodeGeneratorE = comdat any

$_ZTIN11flatbuffers13CodeGeneratorE = comdat any

$_ZTVN11flatbuffers13CodeGeneratorE = comdat any

$_ZTVN11flatbuffers2ts11TsGeneratorE = comdat any

$_ZTSN11flatbuffers2ts11TsGeneratorE = comdat any

$_ZTSN11flatbuffers13BaseGeneratorE = comdat any

$_ZTIN11flatbuffers13BaseGeneratorE = comdat any

$_ZTIN11flatbuffers2ts11TsGeneratorE = comdat any

$_ZTVN11flatbuffers13BaseGeneratorE = comdat any

$_ZTVN11flatbuffers8IdlNamerE = comdat any

$_ZTSN11flatbuffers8IdlNamerE = comdat any

$_ZTSN11flatbuffers5NamerE = comdat any

$_ZTIN11flatbuffers5NamerE = comdat any

$_ZTIN11flatbuffers8IdlNamerE = comdat any

$_ZTVN11flatbuffers5NamerE = comdat any

@_ZStL8__ioinit = internal global %"class.std::ios_base::Init" zeroinitializer, align 1
@__dso_handle = external hidden global i8
@_ZTVN11flatbuffers12_GLOBAL__N_115TsCodeGeneratorE = internal unnamed_addr constant { [15 x ptr] } { [15 x ptr] [ptr null, ptr @_ZTIN11flatbuffers12_GLOBAL__N_115TsCodeGeneratorE, ptr @_ZN11flatbuffers12_GLOBAL__N_115TsCodeGeneratorD2Ev, ptr @_ZN11flatbuffers12_GLOBAL__N_115TsCodeGeneratorD0Ev, ptr @_ZN11flatbuffers12_GLOBAL__N_115TsCodeGenerator12GenerateCodeERKNS_6ParserERKNSt7__cxx1112basic_stringIcSt11char_traitsIcESaIcEEESC_, ptr @_ZN11flatbuffers13CodeGenerator18GenerateCodeStringERKNS_6ParserERKNSt7__cxx1112basic_stringIcSt11char_traitsIcESaIcEEERS9_, ptr @_ZN11flatbuffers12_GLOBAL__N_115TsCodeGenerator12GenerateCodeEPKhlRKNS_14CodeGenOptionsE, ptr @_ZN11flatbuffers12_GLOBAL__N_115TsCodeGenerator16GenerateMakeRuleERKNS_6ParserERKNSt7__cxx1112basic_stringIcSt11char_traitsIcESaIcEEESC_RSA_, ptr @_ZN11flatbuffers12_GLOBAL__N_115TsCodeGenerator16GenerateGrpcCodeERKNS_6ParserERKNSt7__cxx1112basic_stringIcSt11char_traitsIcESaIcEEESC_, ptr @_ZN11flatbuffers12_GLOBAL__N_115TsCodeGenerator16GenerateRootFileERKNS_6ParserERKNSt7__cxx1112basic_stringIcSt11char_traitsIcESaIcEEE, ptr @_ZNK11flatbuffers12_GLOBAL__N_115TsCodeGenerator12IsSchemaOnlyEv, ptr @_ZNK11flatbuffers12_GLOBAL__N_115TsCodeGenerator22SupportsBfbsGenerationEv, ptr @_ZNK11flatbuffers12_GLOBAL__N_115TsCodeGenerator26SupportsRootFileGenerationEv, ptr @_ZNK11flatbuffers12_GLOBAL__N_115TsCodeGenerator8LanguageEv, ptr @_ZNK11flatbuffers12_GLOBAL__N_115TsCodeGenerator12LanguageNameB5cxx11Ev] }, align 8
@_ZTVN10__cxxabiv120__si_class_type_infoE = external global [0 x ptr]
@_ZTSN11flatbuffers12_GLOBAL__N_115TsCodeGeneratorE = internal constant [47 x i8] c"N11flatbuffers12_GLOBAL__N_115TsCodeGeneratorE\00", align 1
@_ZTVN10__cxxabiv117__class_type_infoE = external global [0 x ptr]
@_ZTSN11flatbuffers13CodeGeneratorE = linkonce_odr dso_local constant [31 x i8] c"N11flatbuffers13CodeGeneratorE\00", comdat, align 1
@_ZTIN11flatbuffers13CodeGeneratorE = linkonce_odr dso_local constant { ptr, ptr } { ptr getelementptr inbounds (ptr, ptr @_ZTVN10__cxxabiv117__class_type_infoE, i64 2), ptr @_ZTSN11flatbuffers13CodeGeneratorE }, comdat, align 8
@_ZTIN11flatbuffers12_GLOBAL__N_115TsCodeGeneratorE = internal constant { ptr, ptr, ptr } { ptr getelementptr inbounds (ptr, ptr @_ZTVN10__cxxabiv120__si_class_type_infoE, i64 2), ptr @_ZTSN11flatbuffers12_GLOBAL__N_115TsCodeGeneratorE, ptr @_ZTIN11flatbuffers13CodeGeneratorE }, align 8
@_ZTVN11flatbuffers13CodeGeneratorE = linkonce_odr dso_local unnamed_addr constant { [15 x ptr] } { [15 x ptr] [ptr null, ptr @_ZTIN11flatbuffers13CodeGeneratorE, ptr @_ZN11flatbuffers13CodeGeneratorD2Ev, ptr @_ZN11flatbuffers13CodeGeneratorD0Ev, ptr @__cxa_pure_virtual, ptr @_ZN11flatbuffers13CodeGenerator18GenerateCodeStringERKNS_6ParserERKNSt7__cxx1112basic_stringIcSt11char_traitsIcESaIcEEERS9_, ptr @__cxa_pure_virtual, ptr @__cxa_pure_virtual, ptr @__cxa_pure_virtual, ptr @__cxa_pure_virtual, ptr @__cxa_pure_virtual, ptr @__cxa_pure_virtual, ptr @__cxa_pure_virtual, ptr @__cxa_pure_virtual, ptr @__cxa_pure_virtual] }, comdat, align 8
@.str = private unnamed_addr constant [1 x i8] zeroinitializer, align 1
@.str.1 = private unnamed_addr constant [2 x i8] c"_\00", align 1
@.str.2 = private unnamed_addr constant [3 x i8] c"ts\00", align 1
@_ZTVN11flatbuffers2ts11TsGeneratorE = linkonce_odr dso_local unnamed_addr constant { [6 x ptr] } { [6 x ptr] [ptr null, ptr @_ZTIN11flatbuffers2ts11TsGeneratorE, ptr @_ZN11flatbuffers2ts11TsGenerator8generateEv, ptr @_ZN11flatbuffers2ts11TsGeneratorD2Ev, ptr @_ZN11flatbuffers2ts11TsGeneratorD0Ev, ptr @_ZNK11flatbuffers13BaseGenerator16CurrentNameSpaceEv] }, comdat, align 8
@_ZTSN11flatbuffers2ts11TsGeneratorE = linkonce_odr dso_local constant [32 x i8] c"N11flatbuffers2ts11TsGeneratorE\00", comdat, align 1
@_ZTSN11flatbuffers13BaseGeneratorE = linkonce_odr dso_local constant [31 x i8] c"N11flatbuffers13BaseGeneratorE\00", comdat, align 1
@_ZTIN11flatbuffers13BaseGeneratorE = linkonce_odr dso_local constant { ptr, ptr } { ptr getelementptr inbounds (ptr, ptr @_ZTVN10__cxxabiv117__class_type_infoE, i64 2), ptr @_ZTSN11flatbuffers13BaseGeneratorE }, comdat, align 8
@_ZTIN11flatbuffers2ts11TsGeneratorE = linkonce_odr dso_local constant { ptr, ptr, ptr } { ptr getelementptr inbounds (ptr, ptr @_ZTVN10__cxxabiv120__si_class_type_infoE, i64 2), ptr @_ZTSN11flatbuffers2ts11TsGeneratorE, ptr @_ZTIN11flatbuffers13BaseGeneratorE }, comdat, align 8
@.str.3 = private unnamed_addr constant [50 x i8] c"basic_string: construction from null is not valid\00", align 1
@_ZTVN11flatbuffers13BaseGeneratorE = linkonce_odr dso_local unnamed_addr constant { [6 x ptr] } { [6 x ptr] [ptr null, ptr @_ZTIN11flatbuffers13BaseGeneratorE, ptr @__cxa_pure_virtual, ptr @_ZN11flatbuffers13BaseGeneratorD2Ev, ptr @_ZN11flatbuffers13BaseGeneratorD0Ev, ptr @_ZNK11flatbuffers13BaseGenerator16CurrentNameSpaceEv] }, comdat, align 8
@.str.4 = private unnamed_addr constant [3 x i8] c"::\00", align 1
@.str.5 = private unnamed_addr constant [2 x i8] c"T\00", align 1
@.str.6 = private unnamed_addr constant [11 x i8] c"_generated\00", align 1
@.str.7 = private unnamed_addr constant [4 x i8] c".ts\00", align 1
@.str.8 = private unnamed_addr constant [10 x i8] c"arguments\00", align 1
@.str.9 = private unnamed_addr constant [6 x i8] c"break\00", align 1
@.str.10 = private unnamed_addr constant [5 x i8] c"case\00", align 1
@.str.11 = private unnamed_addr constant [6 x i8] c"catch\00", align 1
@.str.12 = private unnamed_addr constant [6 x i8] c"class\00", align 1
@.str.13 = private unnamed_addr constant [6 x i8] c"const\00", align 1
@.str.14 = private unnamed_addr constant [9 x i8] c"continue\00", align 1
@.str.15 = private unnamed_addr constant [9 x i8] c"debugger\00", align 1
@.str.16 = private unnamed_addr constant [8 x i8] c"default\00", align 1
@.str.17 = private unnamed_addr constant [7 x i8] c"delete\00", align 1
@.str.18 = private unnamed_addr constant [3 x i8] c"do\00", align 1
@.str.19 = private unnamed_addr constant [5 x i8] c"else\00", align 1
@.str.20 = private unnamed_addr constant [5 x i8] c"enum\00", align 1
@.str.21 = private unnamed_addr constant [7 x i8] c"export\00", align 1
@.str.22 = private unnamed_addr constant [8 x i8] c"extends\00", align 1
@.str.23 = private unnamed_addr constant [6 x i8] c"false\00", align 1
@.str.24 = private unnamed_addr constant [8 x i8] c"finally\00", align 1
@.str.25 = private unnamed_addr constant [4 x i8] c"for\00", align 1
@.str.26 = private unnamed_addr constant [9 x i8] c"function\00", align 1
@.str.27 = private unnamed_addr constant [3 x i8] c"if\00", align 1
@.str.28 = private unnamed_addr constant [7 x i8] c"import\00", align 1
@.str.29 = private unnamed_addr constant [3 x i8] c"in\00", align 1
@.str.30 = private unnamed_addr constant [11 x i8] c"instanceof\00", align 1
@.str.31 = private unnamed_addr constant [4 x i8] c"new\00", align 1
@.str.32 = private unnamed_addr constant [5 x i8] c"null\00", align 1
@.str.33 = private unnamed_addr constant [7 x i8] c"Object\00", align 1
@.str.34 = private unnamed_addr constant [7 x i8] c"return\00", align 1
@.str.35 = private unnamed_addr constant [6 x i8] c"super\00", align 1
@.str.36 = private unnamed_addr constant [7 x i8] c"switch\00", align 1
@.str.37 = private unnamed_addr constant [5 x i8] c"this\00", align 1
@.str.38 = private unnamed_addr constant [6 x i8] c"throw\00", align 1
@.str.39 = private unnamed_addr constant [5 x i8] c"true\00", align 1
@.str.40 = private unnamed_addr constant [4 x i8] c"try\00", align 1
@.str.41 = private unnamed_addr constant [7 x i8] c"typeof\00", align 1
@.str.42 = private unnamed_addr constant [4 x i8] c"var\00", align 1
@.str.43 = private unnamed_addr constant [5 x i8] c"void\00", align 1
@.str.44 = private unnamed_addr constant [6 x i8] c"while\00", align 1
@.str.45 = private unnamed_addr constant [5 x i8] c"with\00", align 1
@.str.46 = private unnamed_addr constant [3 x i8] c"as\00", align 1
@.str.47 = private unnamed_addr constant [11 x i8] c"implements\00", align 1
@.str.48 = private unnamed_addr constant [10 x i8] c"interface\00", align 1
@.str.49 = private unnamed_addr constant [4 x i8] c"let\00", align 1
@.str.50 = private unnamed_addr constant [8 x i8] c"package\00", align 1
@.str.51 = private unnamed_addr constant [8 x i8] c"private\00", align 1
@.str.52 = private unnamed_addr constant [10 x i8] c"protected\00", align 1
@.str.53 = private unnamed_addr constant [7 x i8] c"public\00", align 1
@.str.54 = private unnamed_addr constant [7 x i8] c"static\00", align 1
@.str.55 = private unnamed_addr constant [6 x i8] c"yield\00", align 1
@_ZTVN11flatbuffers8IdlNamerE = linkonce_odr dso_local unnamed_addr constant { [25 x ptr] } { [25 x ptr] [ptr null, ptr @_ZTIN11flatbuffers8IdlNamerE, ptr @_ZN11flatbuffers8IdlNamerD2Ev, ptr @_ZN11flatbuffers8IdlNamerD0Ev, ptr @_ZNK11flatbuffers5Namer6MethodERKNSt7__cxx1112basic_stringIcSt11char_traitsIcESaIcEEES8_S8_, ptr @_ZNK11flatbuffers5Namer6MethodERKNSt7__cxx1112basic_stringIcSt11char_traitsIcESaIcEEES8_, ptr @_ZNK11flatbuffers5Namer6MethodERKNSt7__cxx1112basic_stringIcSt11char_traitsIcESaIcEEE, ptr @_ZNK11flatbuffers5Namer8ConstantERKNSt7__cxx1112basic_stringIcSt11char_traitsIcESaIcEEE, ptr @_ZNK11flatbuffers5Namer8FunctionERKNSt7__cxx1112basic_stringIcSt11char_traitsIcESaIcEEE, ptr @_ZNK11flatbuffers5Namer8VariableERKNSt7__cxx1112basic_stringIcSt11char_traitsIcESaIcEEE, ptr @_ZNK11flatbuffers5Namer8VariableERKNSt7__cxx1112basic_stringIcSt11char_traitsIcESaIcEEES8_, ptr @_ZNK11flatbuffers5Namer9NamespaceERKNSt7__cxx1112basic_stringIcSt11char_traitsIcESaIcEEE, ptr @_ZNK11flatbuffers5Namer9NamespaceERKSt6vectorINSt7__cxx1112basic_stringIcSt11char_traitsIcESaIcEEESaIS7_EE, ptr @_ZNK11flatbuffers5Namer14NamespacedTypeERKSt6vectorINSt7__cxx1112basic_stringIcSt11char_traitsIcESaIcEEESaIS7_EERKS7_, ptr @_ZNK11flatbuffers5Namer4FileERKNSt7__cxx1112basic_stringIcSt11char_traitsIcESaIcEEENS_8SkipFileE, ptr @_ZNK11flatbuffers5Namer11DirectoriesERKSt6vectorINSt7__cxx1112basic_stringIcSt11char_traitsIcESaIcEEESaIS7_EENS_7SkipDirENS_4CaseE, ptr @_ZNK11flatbuffers5Namer13EscapeKeywordERKNSt7__cxx1112basic_stringIcSt11char_traitsIcESaIcEEE, ptr @_ZNK11flatbuffers5Namer4TypeERKNSt7__cxx1112basic_stringIcSt11char_traitsIcESaIcEEE, ptr @_ZNK11flatbuffers5Namer4TypeERKNSt7__cxx1112basic_stringIcSt11char_traitsIcESaIcEEES8_, ptr @_ZNK11flatbuffers5Namer10ObjectTypeERKNSt7__cxx1112basic_stringIcSt11char_traitsIcESaIcEEE, ptr @_ZNK11flatbuffers5Namer5FieldERKNSt7__cxx1112basic_stringIcSt11char_traitsIcESaIcEEE, ptr @_ZNK11flatbuffers5Namer7VariantERKNSt7__cxx1112basic_stringIcSt11char_traitsIcESaIcEEE, ptr @_ZNK11flatbuffers5Namer6FormatERKNSt7__cxx1112basic_stringIcSt11char_traitsIcESaIcEEENS_4CaseE, ptr @_ZNK11flatbuffers5Namer11DenamespaceERKNSt7__cxx1112basic_stringIcSt11char_traitsIcESaIcEEERS6_c, ptr @_ZNK11flatbuffers5Namer11DenamespaceERKNSt7__cxx1112basic_stringIcSt11char_traitsIcESaIcEEEc] }, comdat, align 8
@_ZTSN11flatbuffers8IdlNamerE = linkonce_odr dso_local constant [25 x i8] c"N11flatbuffers8IdlNamerE\00", comdat, align 1
@_ZTSN11flatbuffers5NamerE = linkonce_odr dso_local constant [22 x i8] c"N11flatbuffers5NamerE\00", comdat, align 1
@_ZTIN11flatbuffers5NamerE = linkonce_odr dso_local constant { ptr, ptr } { ptr getelementptr inbounds (ptr, ptr @_ZTVN10__cxxabiv117__class_type_infoE, i64 2), ptr @_ZTSN11flatbuffers5NamerE }, comdat, align 8
@_ZTIN11flatbuffers8IdlNamerE = linkonce_odr dso_local constant { ptr, ptr, ptr } { ptr getelementptr inbounds (ptr, ptr @_ZTVN10__cxxabiv120__si_class_type_infoE, i64 2), ptr @_ZTSN11flatbuffers8IdlNamerE, ptr @_ZTIN11flatbuffers5NamerE }, comdat, align 8
@_ZTVN11flatbuffers5NamerE = linkonce_odr dso_local unnamed_addr constant { [25 x ptr] } { [25 x ptr] [ptr null, ptr @_ZTIN11flatbuffers5NamerE, ptr @_ZN11flatbuffers5NamerD2Ev, ptr @_ZN11flatbuffers5NamerD0Ev, ptr @_ZNK11flatbuffers5Namer6MethodERKNSt7__cxx1112basic_stringIcSt11char_traitsIcESaIcEEES8_S8_, ptr @_ZNK11flatbuffers5Namer6MethodERKNSt7__cxx1112basic_stringIcSt11char_traitsIcESaIcEEES8_, ptr @_ZNK11flatbuffers5Namer6MethodERKNSt7__cxx1112basic_stringIcSt11char_traitsIcESaIcEEE, ptr @_ZNK11flatbuffers5Namer8ConstantERKNSt7__cxx1112basic_stringIcSt11char_traitsIcESaIcEEE, ptr @_ZNK11flatbuffers5Namer8FunctionERKNSt7__cxx1112basic_stringIcSt11char_traitsIcESaIcEEE, ptr @_ZNK11flatbuffers5Namer8VariableERKNSt7__cxx1112basic_stringIcSt11char_traitsIcESaIcEEE, ptr @_ZNK11flatbuffers5Namer8VariableERKNSt7__cxx1112basic_stringIcSt11char_traitsIcESaIcEEES8_, ptr @_ZNK11flatbuffers5Namer9NamespaceERKNSt7__cxx1112basic_stringIcSt11char_traitsIcESaIcEEE, ptr @_ZNK11flatbuffers5Namer9NamespaceERKSt6vectorINSt7__cxx1112basic_stringIcSt11char_traitsIcESaIcEEESaIS7_EE, ptr @_ZNK11flatbuffers5Namer14NamespacedTypeERKSt6vectorINSt7__cxx1112basic_stringIcSt11char_traitsIcESaIcEEESaIS7_EERKS7_, ptr @_ZNK11flatbuffers5Namer4FileERKNSt7__cxx1112basic_stringIcSt11char_traitsIcESaIcEEENS_8SkipFileE, ptr @_ZNK11flatbuffers5Namer11DirectoriesERKSt6vectorINSt7__cxx1112basic_stringIcSt11char_traitsIcESaIcEEESaIS7_EENS_7SkipDirENS_4CaseE, ptr @_ZNK11flatbuffers5Namer13EscapeKeywordERKNSt7__cxx1112basic_stringIcSt11char_traitsIcESaIcEEE, ptr @_ZNK11flatbuffers5Namer4TypeERKNSt7__cxx1112basic_stringIcSt11char_traitsIcESaIcEEE, ptr @_ZNK11flatbuffers5Namer4TypeERKNSt7__cxx1112basic_stringIcSt11char_traitsIcESaIcEEES8_, ptr @_ZNK11flatbuffers5Namer10ObjectTypeERKNSt7__cxx1112basic_stringIcSt11char_traitsIcESaIcEEE, ptr @_ZNK11flatbuffers5Namer5FieldERKNSt7__cxx1112basic_stringIcSt11char_traitsIcESaIcEEE, ptr @_ZNK11flatbuffers5Namer7VariantERKNSt7__cxx1112basic_stringIcSt11char_traitsIcESaIcEEE, ptr @_ZNK11flatbuffers5Namer6FormatERKNSt7__cxx1112basic_stringIcSt11char_traitsIcESaIcEEENS_4CaseE, ptr @_ZNK11flatbuffers5Namer11DenamespaceERKNSt7__cxx1112basic_stringIcSt11char_traitsIcESaIcEEERS6_c, ptr @_ZNK11flatbuffers5Namer11DenamespaceERKNSt7__cxx1112basic_stringIcSt11char_traitsIcESaIcEEEc] }, comdat, align 8
@.str.56 = private unnamed_addr constant [13 x i8] c"export enum \00", align 1
@.str.57 = private unnamed_addr constant [4 x i8] c" {\0A\00", align 1
@.str.58 = private unnamed_addr constant [3 x i8] c"  \00", align 1
@.str.60 = private unnamed_addr constant [2 x i8] c"'\00", align 1
@.str.61 = private unnamed_addr constant [4 x i8] c" = \00", align 1
@.str.62 = private unnamed_addr constant [3 x i8] c",\0A\00", align 1
@.str.63 = private unnamed_addr constant [2 x i8] c"\0A\00", align 1
@.str.64 = private unnamed_addr constant [2 x i8] c"}\00", align 1
@.str.65 = private unnamed_addr constant [5 x i8] c"/**\0A\00", align 1
@.str.66 = private unnamed_addr constant [3 x i8] c" *\00", align 1
@.str.67 = private unnamed_addr constant [5 x i8] c" */\0A\00", align 1
@.str.68 = private unnamed_addr constant [6 x i8] c"|null\00", align 1
@.str.69 = private unnamed_addr constant [19 x i8] c"\0A\0Aexport function \00", align 1
@.str.70 = private unnamed_addr constant [11 x i8] c"(\0A  type: \00", align 1
@.str.71 = private unnamed_addr constant [20 x i8] c",\0A  accessor: (obj:\00", align 1
@.str.72 = private unnamed_addr constant [6 x i8] c") => \00", align 1
@.str.73 = private unnamed_addr constant [5 x i8] c"\0A): \00", align 1
@.str.74 = private unnamed_addr constant [10 x i8] c"accessor(\00", align 1
@.str.75 = private unnamed_addr constant [36 x i8] c", \0A  accessor: (index: number, obj:\00", align 1
@.str.76 = private unnamed_addr constant [23 x i8] c", \0A  index: number\0A): \00", align 1
@.str.77 = private unnamed_addr constant [17 x i8] c"accessor(index, \00", align 1
@.str.78 = private unnamed_addr constant [7 x i8] c"string\00", align 1
@.str.79 = private unnamed_addr constant [2 x i8] c"|\00", align 1
@.str.80 = private unnamed_addr constant [3 x i8] c"..\00", align 1
@.str.81 = private unnamed_addr constant [2 x i8] c".\00", align 1
@.str.82 = private unnamed_addr constant [4 x i8] c".js\00", align 1
@.str.83 = private unnamed_addr constant [10 x i8] c"import { \00", align 1
@.str.84 = private unnamed_addr constant [10 x i8] c" } from '\00", align 1
@.str.85 = private unnamed_addr constant [3 x i8] c"';\00", align 1
@.str.86 = private unnamed_addr constant [10 x i8] c"export { \00", align 1
@.str.87 = private unnamed_addr constant [11 x i8] c" } from '.\00", align 1
@.str.88 = private unnamed_addr constant [5 x i8] c" as \00", align 1
@.str.89 = private unnamed_addr constant [3 x i8] c", \00", align 1
@.str.90 = private unnamed_addr constant [8 x i8] c"unionTo\00", align 1
@.str.91 = private unnamed_addr constant [12 x i8] c"unionListTo\00", align 1
@.str.92 = private unnamed_addr constant [10 x i8] c"  switch(\00", align 1
@.str.93 = private unnamed_addr constant [11 x i8] c"[type]) {\0A\00", align 1
@.str.94 = private unnamed_addr constant [32 x i8] c"    case 'NONE': return null; \0A\00", align 1
@.str.95 = private unnamed_addr constant [11 x i8] c"    case '\00", align 1
@.str.96 = private unnamed_addr constant [4 x i8] c"': \00", align 1
@.str.97 = private unnamed_addr constant [8 x i8] c"return \00", align 1
@.str.98 = private unnamed_addr constant [15 x i8] c"'') as string;\00", align 1
@.str.99 = private unnamed_addr constant [5 x i8] c"new \00", align 1
@.str.100 = private unnamed_addr constant [9 x i8] c"())! as \00", align 1
@.str.101 = private unnamed_addr constant [2 x i8] c";\00", align 1
@.str.102 = private unnamed_addr constant [27 x i8] c"    default: return null;\0A\00", align 1
@.str.103 = private unnamed_addr constant [5 x i8] c"  }\0A\00", align 1
@.str.104 = private unnamed_addr constant [4 x i8] c"// \00", align 1
@.str.105 = private unnamed_addr constant [3 x i8] c"\0A\0A\00", align 1
@.str.106 = private unnamed_addr constant [135 x i8] c"/* eslint-disable @typescript-eslint/no-unused-vars, @typescript-eslint/no-explicit-any, @typescript-eslint/no-non-null-assertion */\0A\0A\00", align 1
@.str.107 = private unnamed_addr constant [17 x i8] c"* as flatbuffers\00", align 1
@.str.108 = private unnamed_addr constant [12 x i8] c"flatbuffers\00", align 1
@.str.109 = private unnamed_addr constant [8 x i8] c"import \00", align 1
@.str.110 = private unnamed_addr constant [8 x i8] c" from '\00", align 1
@.str.111 = private unnamed_addr constant [14 x i8] c"export class \00", align 1
@.str.112 = private unnamed_addr constant [43 x i8] c" implements flatbuffers.IUnpackableObject<\00", align 1
@.str.113 = private unnamed_addr constant [5 x i8] c"> {\0A\00", align 1
@.str.114 = private unnamed_addr constant [43 x i8] c"  bb: flatbuffers.ByteBuffer|null = null;\0A\00", align 1
@.str.115 = private unnamed_addr constant [15 x i8] c"  bb_pos = 0;\0A\00", align 1
@.str.116 = private unnamed_addr constant [47 x i8] c"  __init(i:number, bb:flatbuffers.ByteBuffer):\00", align 1
@.str.117 = private unnamed_addr constant [20 x i8] c"  this.bb_pos = i;\0A\00", align 1
@.str.118 = private unnamed_addr constant [17 x i8] c"  this.bb = bb;\0A\00", align 1
@.str.119 = private unnamed_addr constant [16 x i8] c"  return this;\0A\00", align 1
@.str.120 = private unnamed_addr constant [4 x i8] c"}\0A\0A\00", align 1
@.str.121 = private unnamed_addr constant [65 x i8] c"static bufferHasIdentifier(bb:flatbuffers.ByteBuffer):boolean {\0A\00", align 1
@.str.122 = private unnamed_addr constant [31 x i8] c"  return bb.__has_identifier('\00", align 1
@.str.123 = private unnamed_addr constant [8 x i8] c"');\0A}\0A\0A\00", align 1
@.str.124 = private unnamed_addr constant [12 x i8] c"    return \00", align 1
@.str.125 = private unnamed_addr constant [18 x i8] c"  const offset = \00", align 1
@.str.126 = private unnamed_addr constant [24 x i8] c".__offset(this.bb_pos, \00", align 1
@.str.127 = private unnamed_addr constant [4 x i8] c");\0A\00", align 1
@.str.128 = private unnamed_addr constant [19 x i8] c"  return offset ? \00", align 1
@.str.129 = private unnamed_addr constant [2 x i8] c"(\00", align 1
@.str.130 = private unnamed_addr constant [15 x i8] c"):string|null\0A\00", align 1
@.str.131 = private unnamed_addr constant [38 x i8] c"optionalEncoding:flatbuffers.Encoding\00", align 1
@.str.132 = private unnamed_addr constant [3 x i8] c"):\00", align 1
@.str.133 = private unnamed_addr constant [22 x i8] c"optionalEncoding?:any\00", align 1
@.str.134 = private unnamed_addr constant [10 x i8] c"  return \00", align 1
@.str.135 = private unnamed_addr constant [13 x i8] c"(this.bb_pos\00", align 1
@.str.136 = private unnamed_addr constant [2 x i8] c")\00", align 1
@.str.137 = private unnamed_addr constant [3 x i8] c";\0A\00", align 1
@.str.138 = private unnamed_addr constant [21 x i8] c"this.bb_pos + offset\00", align 1
@.str.139 = private unnamed_addr constant [19 x i8] c", optionalEncoding\00", align 1
@.str.140 = private unnamed_addr constant [4 x i8] c" : \00", align 1
@.str.141 = private unnamed_addr constant [7 x i8] c"(obj?:\00", align 1
@.str.142 = private unnamed_addr constant [9 x i8] c"|null {\0A\00", align 1
@.str.143 = private unnamed_addr constant [18 x i8] c"  return (obj || \00", align 1
@.str.144 = private unnamed_addr constant [21 x i8] c").__init(this.bb_pos\00", align 1
@.str.145 = private unnamed_addr constant [9 x i8] c"(obj || \00", align 1
@.str.146 = private unnamed_addr constant [10 x i8] c").__init(\00", align 1
@.str.147 = private unnamed_addr constant [34 x i8] c".__indirect(this.bb_pos + offset)\00", align 1
@.str.148 = private unnamed_addr constant [11 x i8] c") : null;\0A\00", align 1
@.str.149 = private unnamed_addr constant [15 x i8] c"this.bb_pos + \00", align 1
@.str.150 = private unnamed_addr constant [9 x i8] c" + index\00", align 1
@.str.151 = private unnamed_addr constant [19 x i8] c"?flatbuffers.Table\00", align 1
@.str.152 = private unnamed_addr constant [15 x i8] c"(index: number\00", align 1
@.str.153 = private unnamed_addr constant [7 x i8] c", obj:\00", align 1
@.str.154 = private unnamed_addr constant [8 x i8] c", obj?:\00", align 1
@.str.155 = private unnamed_addr constant [10 x i8] c"):string\0A\00", align 1
@.str.156 = private unnamed_addr constant [39 x i8] c",optionalEncoding:flatbuffers.Encoding\00", align 1
@.str.157 = private unnamed_addr constant [23 x i8] c",optionalEncoding?:any\00", align 1
@.str.158 = private unnamed_addr constant [13 x i8] c".__indirect(\00", align 1
@.str.159 = private unnamed_addr constant [6 x i8] c"obj, \00", align 1
@.str.160 = private unnamed_addr constant [9 x i8] c" : false\00", align 1
@.str.161 = private unnamed_addr constant [13 x i8] c" : BigInt(0)\00", align 1
@.str.162 = private unnamed_addr constant [5 x i8] c" : 0\00", align 1
@.str.163 = private unnamed_addr constant [7 x i8] c": null\00", align 1
@.str.164 = private unnamed_addr constant [40 x i8] c".__vector(this.bb_pos + offset) + index\00", align 1
@.str.165 = private unnamed_addr constant [10 x i8] c"BigInt(0)\00", align 1
@.str.166 = private unnamed_addr constant [2 x i8] c"0\00", align 1
@.str.167 = private unnamed_addr constant [35 x i8] c"<T extends flatbuffers.Table>(obj:\00", align 1
@.str.168 = private unnamed_addr constant [28 x i8] c"(obj, this.bb_pos + offset)\00", align 1
@.str.169 = private unnamed_addr constant [10 x i8] c" : null;\0A\00", align 1
@.str.170 = private unnamed_addr constant [8 x i8] c"(value:\00", align 1
@.str.171 = private unnamed_addr constant [13 x i8] c"):boolean {\0A\00", align 1
@.str.172 = private unnamed_addr constant [6 x i8] c"write\00", align 1
@.str.173 = private unnamed_addr constant [16 x i8] c"(this.bb_pos + \00", align 1
@.str.174 = private unnamed_addr constant [5 x i8] c");\0A\0A\00", align 1
@.str.175 = private unnamed_addr constant [23 x i8] c"  if (offset === 0) {\0A\00", align 1
@.str.176 = private unnamed_addr constant [19 x i8] c"    return false;\0A\00", align 1
@.str.177 = private unnamed_addr constant [6 x i8] c"  }\0A\0A\00", align 1
@.str.178 = private unnamed_addr constant [24 x i8] c"(this.bb_pos + offset, \00", align 1
@.str.179 = private unnamed_addr constant [2 x i8] c"+\00", align 1
@.str.180 = private unnamed_addr constant [9 x i8] c"value);\0A\00", align 1
@.str.181 = private unnamed_addr constant [16 x i8] c"  return true;\0A\00", align 1
@.str.182 = private unnamed_addr constant [7 x i8] c"Length\00", align 1
@.str.183 = private unnamed_addr constant [13 x i8] c"():number {\0A\00", align 1
@.str.184 = private unnamed_addr constant [45 x i8] c".__vector_len(this.bb_pos + offset) : 0;\0A}\0A\0A\00", align 1
@.str.185 = private unnamed_addr constant [6 x i8] c"Array\00", align 1
@.str.186 = private unnamed_addr constant [4 x i8] c"():\00", align 1
@.str.187 = private unnamed_addr constant [14 x i8] c"Array|null {\0A\00", align 1
@.str.188 = private unnamed_addr constant [7 x i8] c"Array(\00", align 1
@.str.189 = private unnamed_addr constant [18 x i8] c".bytes().buffer, \00", align 1
@.str.190 = private unnamed_addr constant [23 x i8] c".bytes().byteOffset + \00", align 1
@.str.191 = private unnamed_addr constant [34 x i8] c".__vector(this.bb_pos + offset), \00", align 1
@.str.192 = private unnamed_addr constant [49 x i8] c".__vector_len(this.bb_pos + offset)) : null;\0A}\0A\0A\00", align 1
@.str.193 = private unnamed_addr constant [41 x i8] c"static getFullyQualifiedName():string {\0A\00", align 1
@.str.194 = private unnamed_addr constant [11 x i8] c"  return '\00", align 1
@.str.195 = private unnamed_addr constant [4 x i8] c"';\0A\00", align 1
@.str.196 = private unnamed_addr constant [26 x i8] c"static sizeOf():number {\0A\00", align 1
@.str.197 = private unnamed_addr constant [14 x i8] c"static create\00", align 1
@.str.198 = private unnamed_addr constant [29 x i8] c"(builder:flatbuffers.Builder\00", align 1
@.str.199 = private unnamed_addr constant [24 x i8] c"):flatbuffers.Offset {\0A\00", align 1
@.str.200 = private unnamed_addr constant [31 x i8] c"  return builder.offset();\0A}\0A\0A\00", align 1
@.str.201 = private unnamed_addr constant [13 x i8] c"static start\00", align 1
@.str.202 = private unnamed_addr constant [33 x i8] c"(builder:flatbuffers.Builder) {\0A\00", align 1
@.str.203 = private unnamed_addr constant [23 x i8] c"  builder.startObject(\00", align 1
@.str.204 = private unnamed_addr constant [8 x i8] c"static \00", align 1
@.str.205 = private unnamed_addr constant [4 x i8] c"add\00", align 1
@.str.206 = private unnamed_addr constant [31 x i8] c"(builder:flatbuffers.Builder, \00", align 1
@.str.207 = private unnamed_addr constant [2 x i8] c":\00", align 1
@.str.208 = private unnamed_addr constant [5 x i8] c") {\0A\00", align 1
@.str.209 = private unnamed_addr constant [19 x i8] c"  builder.addField\00", align 1
@.str.210 = private unnamed_addr constant [7 x i8] c");\0A}\0A\0A\00", align 1
@.str.211 = private unnamed_addr constant [7 x i8] c"create\00", align 1
@.str.212 = private unnamed_addr constant [7 x i8] c"Vector\00", align 1
@.str.213 = private unnamed_addr constant [36 x i8] c"(builder:flatbuffers.Builder, data:\00", align 1
@.str.214 = private unnamed_addr constant [21 x i8] c"):flatbuffers.Offset\00", align 1
@.str.215 = private unnamed_addr constant [3 x i8] c"[]\00", align 1
@.str.216 = private unnamed_addr constant [9 x i8] c"number[]\00", align 1
@.str.217 = private unnamed_addr constant [20 x i8] c"number[]|Uint8Array\00", align 1
@.str.218 = private unnamed_addr constant [10 x i8] c"number[]|\00", align 1
@.str.219 = private unnamed_addr constant [80 x i8] c"/**\0A * @deprecated This Uint8Array overload will be removed in the future.\0A */\0A\00", align 1
@.str.220 = private unnamed_addr constant [12 x i8] c"|Uint8Array\00", align 1
@.str.221 = private unnamed_addr constant [23 x i8] c"  builder.startVector(\00", align 1
@.str.222 = private unnamed_addr constant [16 x i8] c", data.length, \00", align 1
@.str.223 = private unnamed_addr constant [48 x i8] c"  for (let i = data.length - 1; i >= 0; i--) {\0A\00", align 1
@.str.224 = private unnamed_addr constant [16 x i8] c"    builder.add\00", align 1
@.str.225 = private unnamed_addr constant [12 x i8] c"data[i]!);\0A\00", align 1
@.str.226 = private unnamed_addr constant [31 x i8] c"  return builder.endVector();\0A\00", align 1
@.str.227 = private unnamed_addr constant [6 x i8] c"start\00", align 1
@.str.228 = private unnamed_addr constant [50 x i8] c"(builder:flatbuffers.Builder, numElems:number) {\0A\00", align 1
@.str.229 = private unnamed_addr constant [13 x i8] c", numElems, \00", align 1
@.str.230 = private unnamed_addr constant [11 x i8] c"static end\00", align 1
@.str.231 = private unnamed_addr constant [52 x i8] c"(builder:flatbuffers.Builder):flatbuffers.Offset {\0A\00", align 1
@.str.232 = private unnamed_addr constant [39 x i8] c"  const offset = builder.endObject();\0A\00", align 1
@.str.233 = private unnamed_addr constant [33 x i8] c"  builder.requiredField(offset, \00", align 1
@.str.234 = private unnamed_addr constant [6 x i8] c") // \00", align 1
@.str.235 = private unnamed_addr constant [18 x i8] c"  return offset;\0A\00", align 1
@.str.236 = private unnamed_addr constant [7 x i8] c".start\00", align 1
@.str.237 = private unnamed_addr constant [12 x i8] c"(builder);\0A\00", align 1
@.str.238 = private unnamed_addr constant [7 x i8] c"  if (\00", align 1
@.str.239 = private unnamed_addr constant [14 x i8] c" !== null)\0A  \00", align 1
@.str.240 = private unnamed_addr constant [10 x i8] c"builder, \00", align 1
@.str.241 = private unnamed_addr constant [5 x i8] c".end\00", align 1
@.str.242 = private unnamed_addr constant [3 x i8] c"}\0A\00", align 1
@.str.243 = private unnamed_addr constant [26 x i8] c"serialize():Uint8Array {\0A\00", align 1
@.str.244 = private unnamed_addr constant [28 x i8] c"  return this.bb!.bytes();\0A\00", align 1
@.str.245 = private unnamed_addr constant [40 x i8] c"static deserialize(buffer: Uint8Array):\00", align 1
@.str.246 = private unnamed_addr constant [11 x i8] c".getRootAs\00", align 1
@.str.247 = private unnamed_addr constant [38 x i8] c"(new flatbuffers.ByteBuffer(buffer))\0A\00", align 1
@.str.248 = private unnamed_addr constant [13 x i8] c"SizePrefixed\00", align 1
@.str.249 = private unnamed_addr constant [11 x i8] c"static get\00", align 1
@.str.250 = private unnamed_addr constant [5 x i8] c"Root\00", align 1
@.str.251 = private unnamed_addr constant [3 x i8] c"As\00", align 1
@.str.252 = private unnamed_addr constant [34 x i8] c"(bb:flatbuffers.ByteBuffer, obj?:\00", align 1
@.str.253 = private unnamed_addr constant [67 x i8] c"  bb.setPosition(bb.position() + flatbuffers.SIZE_PREFIX_LENGTH);\0A\00", align 1
@.str.254 = private unnamed_addr constant [60 x i8] c").__init(bb.readInt32(bb.position()) + bb.position(), bb);\0A\00", align 1
@.str.255 = private unnamed_addr constant [9 x i8] c"this.bb!\00", align 1
@.str.256 = private unnamed_addr constant [18 x i8] c"string|Uint8Array\00", align 1
@.str.257 = private unnamed_addr constant [13 x i8] c"boolean|null\00", align 1
@.str.258 = private unnamed_addr constant [8 x i8] c"boolean\00", align 1
@.str.259 = private unnamed_addr constant [12 x i8] c"bigint|null\00", align 1
@.str.260 = private unnamed_addr constant [7 x i8] c"bigint\00", align 1
@.str.261 = private unnamed_addr constant [9 x i8] c"bigint[]\00", align 1
@.str.262 = private unnamed_addr constant [6 x i8] c"any[]\00", align 1
@.str.263 = private unnamed_addr constant [6 x i8] c"(any|\00", align 1
@.str.264 = private unnamed_addr constant [4 x i8] c")[]\00", align 1
@.str.265 = private unnamed_addr constant [12 x i8] c"number|null\00", align 1
@.str.266 = private unnamed_addr constant [7 x i8] c"number\00", align 1
@.str.267 = private unnamed_addr constant [19 x i8] c"flatbuffers.Offset\00", align 1
@.str.268 = private unnamed_addr constant [10 x i8] c".__string\00", align 1
@.str.269 = private unnamed_addr constant [10 x i8] c".__struct\00", align 1
@.str.270 = private unnamed_addr constant [9 x i8] c".__union\00", align 1
@.str.271 = private unnamed_addr constant [21 x i8] c".__union_with_string\00", align 1
@.str.272 = private unnamed_addr constant [5 x i8] c"read\00", align 1
@.str.273 = private unnamed_addr constant [3 x i8] c"!!\00", align 1
@.str.274 = private unnamed_addr constant [4 x i8] c" + \00", align 1
@.str.275 = private unnamed_addr constant [2 x i8] c"[\00", align 1
@.str.276 = private unnamed_addr constant [2 x i8] c"]\00", align 1
@.str.277 = private unnamed_addr constant [9 x i8] c"BigInt('\00", align 1
@.str.278 = private unnamed_addr constant [3 x i8] c"')\00", align 1
@.str.279 = private unnamed_addr constant [4 x i8] c"NaN\00", align 1
@.str.280 = private unnamed_addr constant [9 x i8] c"Infinity\00", align 1
@.str.281 = private unnamed_addr constant [10 x i8] c"-Infinity\00", align 1
@.str.282 = private unnamed_addr constant [4 x i8] c"nan\00", align 1
@.str.283 = private unnamed_addr constant [5 x i8] c"+nan\00", align 1
@.str.284 = private unnamed_addr constant [5 x i8] c"-nan\00", align 1
@.str.285 = private unnamed_addr constant [4 x i8] c"inf\00", align 1
@.str.286 = private unnamed_addr constant [5 x i8] c"+inf\00", align 1
@.str.287 = private unnamed_addr constant [9 x i8] c"infinity\00", align 1
@.str.288 = private unnamed_addr constant [10 x i8] c"+infinity\00", align 1
@.str.289 = private unnamed_addr constant [5 x i8] c"-inf\00", align 1
@.str.290 = private unnamed_addr constant [10 x i8] c"-infinity\00", align 1
@.str.291 = private unnamed_addr constant [3 x i8] c"()\00", align 1
@.str.292 = private unnamed_addr constant [4 x i8] c" * \00", align 1
@.str.293 = private unnamed_addr constant [4 x i8] c"any\00", align 1
@.str.294 = private unnamed_addr constant [8 x i8] c"|string\00", align 1
@.str.295 = private unnamed_addr constant [8 x i8] c"mutate_\00", align 1
@.str.296 = private unnamed_addr constant [5 x i8] c"Int8\00", align 1
@.str.297 = private unnamed_addr constant [6 x i8] c"Uint8\00", align 1
@.str.298 = private unnamed_addr constant [6 x i8] c"Int16\00", align 1
@.str.299 = private unnamed_addr constant [7 x i8] c"Uint16\00", align 1
@.str.300 = private unnamed_addr constant [6 x i8] c"Int32\00", align 1
@.str.301 = private unnamed_addr constant [7 x i8] c"Uint32\00", align 1
@.str.302 = private unnamed_addr constant [6 x i8] c"Int64\00", align 1
@.str.303 = private unnamed_addr constant [7 x i8] c"Uint64\00", align 1
@.str.304 = private unnamed_addr constant [8 x i8] c"Float32\00", align 1
@.str.305 = private unnamed_addr constant [8 x i8] c"Float64\00", align 1
@.str.306 = private unnamed_addr constant [7 x i8] c"String\00", align 1
@.str.307 = private unnamed_addr constant [18 x i8] c"flatbuffers.Table\00", align 1
@.str.308 = private unnamed_addr constant [3 x i8] c": \00", align 1
@.str.309 = private unnamed_addr constant [16 x i8] c"  builder.prep(\00", align 1
@.str.310 = private unnamed_addr constant [15 x i8] c"  builder.pad(\00", align 1
@.str.311 = private unnamed_addr constant [17 x i8] c"\0A  for (let i = \00", align 1
@.str.312 = private unnamed_addr constant [14 x i8] c"; i >= 0; --i\00", align 1
@.str.313 = private unnamed_addr constant [18 x i8] c"    const item = \00", align 1
@.str.314 = private unnamed_addr constant [9 x i8] c"?.[i];\0A\0A\00", align 1
@.str.315 = private unnamed_addr constant [25 x i8] c"    if (item instanceof \00", align 1
@.str.316 = private unnamed_addr constant [27 x i8] c"      item.pack(builder);\0A\00", align 1
@.str.317 = private unnamed_addr constant [17 x i8] c"      continue;\0A\00", align 1
@.str.318 = private unnamed_addr constant [8 x i8] c"    }\0A\0A\00", align 1
@.str.319 = private unnamed_addr constant [8 x i8] c".create\00", align 1
@.str.320 = private unnamed_addr constant [11 x i8] c"(builder,\0A\00", align 1
@.str.321 = private unnamed_addr constant [5 x i8] c"    \00", align 1
@.str.322 = private unnamed_addr constant [5 x i8] c"item\00", align 1
@.str.323 = private unnamed_addr constant [7 x i8] c",\0A    \00", align 1
@.str.324 = private unnamed_addr constant [4 x i8] c"\0A  \00", align 1
@.str.325 = private unnamed_addr constant [11 x i8] c"  );\0A  }\0A\0A\00", align 1
@.str.326 = private unnamed_addr constant [18 x i8] c"; i >= 0; --i) {\0A\00", align 1
@.str.327 = private unnamed_addr constant [18 x i8] c"    builder.write\00", align 1
@.str.328 = private unnamed_addr constant [8 x i8] c"BigInt(\00", align 1
@.str.329 = private unnamed_addr constant [15 x i8] c"?.[i] ?? 0));\0A\00", align 1
@.str.330 = private unnamed_addr constant [16 x i8] c"?.[i] ?? 0));\0A\0A\00", align 1
@.str.331 = private unnamed_addr constant [16 x i8] c"  builder.write\00", align 1
@.str.332 = private unnamed_addr constant [16 x i8] c"Number(Boolean(\00", align 1
@.str.333 = private unnamed_addr constant [6 x i8] c")));\0A\00", align 1
@.str.334 = private unnamed_addr constant [10 x i8] c" ?? 0));\0A\00", align 1
@.str.335 = private unnamed_addr constant [3 x i8] c"?.\00", align 1
@.str.336 = private unnamed_addr constant [5 x i8] c" ?? \00", align 1
@.str.337 = private unnamed_addr constant [7 x i8] c"Offset\00", align 1
@.str.338 = private unnamed_addr constant [7 x i8] c"Struct\00", align 1
@.str.339 = private unnamed_addr constant [14 x i8] c"static finish\00", align 1
@.str.340 = private unnamed_addr constant [7 x i8] c"Buffer\00", align 1
@.str.341 = private unnamed_addr constant [60 x i8] c"(builder:flatbuffers.Builder, offset:flatbuffers.Offset) {\0A\00", align 1
@.str.342 = private unnamed_addr constant [24 x i8] c"  builder.finish(offset\00", align 1
@.str.343 = private unnamed_addr constant [4 x i8] c", '\00", align 1
@.str.344 = private unnamed_addr constant [12 x i8] c", undefined\00", align 1
@.str.345 = private unnamed_addr constant [7 x i8] c", true\00", align 1
@.str.346 = private unnamed_addr constant [12 x i8] c"\0Aunpack(): \00", align 1
@.str.347 = private unnamed_addr constant [17 x i8] c" {\0A  return new \00", align 1
@.str.348 = private unnamed_addr constant [15 x i8] c"\0AunpackTo(_o: \00", align 1
@.str.349 = private unnamed_addr constant [10 x i8] c"): void {\00", align 1
@.str.350 = private unnamed_addr constant [13 x i8] c"constructor(\00", align 1
@.str.351 = private unnamed_addr constant [58 x i8] c"\0Apack(builder:flatbuffers.Builder): flatbuffers.Offset {\0A\00", align 1
@.str.352 = private unnamed_addr constant [9 x i8] c"(builder\00", align 1
@.str.353 = private unnamed_addr constant [6 x i8] c"this.\00", align 1
@.str.354 = private unnamed_addr constant [12 x i8] c".bind(this)\00", align 1
@.str.355 = private unnamed_addr constant [27 x i8] c"builder.createString(this.\00", align 1
@.str.356 = private unnamed_addr constant [3 x i8] c"!)\00", align 1
@.str.357 = private unnamed_addr constant [11 x i8] c"!.unpack()\00", align 1
@.str.358 = private unnamed_addr constant [16 x i8] c"!.pack(builder)\00", align 1
@.str.359 = private unnamed_addr constant [16 x i8] c".createObjList<\00", align 1
@.str.360 = private unnamed_addr constant [3 x i8] c">(\00", align 1
@.str.361 = private unnamed_addr constant [37 x i8] c"builder.createStructOffsetList(this.\00", align 1
@.str.362 = private unnamed_addr constant [42 x i8] c"(builder, builder.createObjectOffsetList(\00", align 1
@.str.363 = private unnamed_addr constant [3 x i8] c"))\00", align 1
@.str.364 = private unnamed_addr constant [10 x i8] c"string)[]\00", align 1
@.str.365 = private unnamed_addr constant [27 x i8] c".createScalarList<string>(\00", align 1
@.str.366 = private unnamed_addr constant [8 x i8] c", this.\00", align 1
@.str.367 = private unnamed_addr constant [4 x i8] c"())\00", align 1
@.str.368 = private unnamed_addr constant [19 x i8] c".createScalarList<\00", align 1
@.str.369 = private unnamed_addr constant [16 x i8] c"(builder, this.\00", align 1
@.str.370 = private unnamed_addr constant [33 x i8] c"builder.createObjectOffset(this.\00", align 1
@.str.371 = private unnamed_addr constant [9 x i8] c"  const \00", align 1
@.str.372 = private unnamed_addr constant [6 x i8] c"  _o.\00", align 1
@.str.373 = private unnamed_addr constant [10 x i8] c"  public \00", align 1
@.str.374 = private unnamed_addr constant [11 x i8] c"(builder, \00", align 1
@.str.375 = private unnamed_addr constant [6 x i8] c"){}\0A\0A\00", align 1
@.str.376 = private unnamed_addr constant [3 x i8] c");\00", align 1
@.str.377 = private unnamed_addr constant [11 x i8] c"(builder);\00", align 1
@.str.378 = private unnamed_addr constant [44 x i8] c" implements flatbuffers.IGeneratedObject {\0A\00", align 1
@.str.379 = private unnamed_addr constant [3 x i8] c"\0A}\00", align 1
@.str.380 = private unnamed_addr constant [4 x i8] c"\0A}\0A\00", align 1
@.str.381 = private unnamed_addr constant [5 x i8] c");\0A}\00", align 1
@.str.382 = private unnamed_addr constant [13 x i8] c" !== null ? \00", align 1
@.str.383 = private unnamed_addr constant [10 x i8] c"(() => {\0A\00", align 1
@.str.384 = private unnamed_addr constant [20 x i8] c"      const temp = \00", align 1
@.str.385 = private unnamed_addr constant [7 x i8] c"(this.\00", align 1
@.str.386 = private unnamed_addr constant [5 x i8] c"Type\00", align 1
@.str.387 = private unnamed_addr constant [5 x i8] c"(), \00", align 1
@.str.388 = private unnamed_addr constant [42 x i8] c"      if(temp === null) { return null; }\0A\00", align 1
@.str.389 = private unnamed_addr constant [53 x i8] c"      if(typeof temp === 'string') { return temp; }\0A\00", align 1
@.str.390 = private unnamed_addr constant [28 x i8] c"      return temp.unpack()\0A\00", align 1
@.str.391 = private unnamed_addr constant [7 x i8] c"  })()\00", align 1
@.str.392 = private unnamed_addr constant [17 x i8] c"    const ret: (\00", align 1
@.str.393 = private unnamed_addr constant [11 x i8] c")[] = [];\0A\00", align 1
@.str.394 = private unnamed_addr constant [57 x i8] c"    for(let targetEnumIndex = 0; targetEnumIndex < this.\00", align 1
@.str.395 = private unnamed_addr constant [11 x i8] c"TypeLength\00", align 1
@.str.396 = private unnamed_addr constant [24 x i8] c"; ++targetEnumIndex) {\0A\00", align 1
@.str.397 = private unnamed_addr constant [31 x i8] c"      const targetEnum = this.\00", align 1
@.str.398 = private unnamed_addr constant [20 x i8] c"(targetEnumIndex);\0A\00", align 1
@.str.399 = private unnamed_addr constant [33 x i8] c"      if(targetEnum === null || \00", align 1
@.str.400 = private unnamed_addr constant [42 x i8] c"[targetEnum!] === 'NONE') { continue; }\0A\0A\00", align 1
@.str.401 = private unnamed_addr constant [14 x i8] c"(targetEnum, \00", align 1
@.str.402 = private unnamed_addr constant [21 x i8] c", targetEnumIndex);\0A\00", align 1
@.str.403 = private unnamed_addr constant [39 x i8] c"      if(temp === null) { continue; }\0A\00", align 1
@.str.404 = private unnamed_addr constant [66 x i8] c"      if(typeof temp === 'string') { ret.push(temp); continue; }\0A\00", align 1
@.str.405 = private unnamed_addr constant [32 x i8] c"      ret.push(temp.unpack());\0A\00", align 1
@.str.406 = private unnamed_addr constant [7 x i8] c"    }\0A\00", align 1
@.str.407 = private unnamed_addr constant [17 x i8] c"    return ret;\0A\00", align 1
@.str.408 = private unnamed_addr constant [3 x i8] c"./\00", align 1
@.str.409 = private unnamed_addr constant [13 x i8] c"export * as \00", align 1
@.str.410 = private unnamed_addr constant [10 x i8] c" from './\00", align 1
@.str.411 = private unnamed_addr constant [7 x i8] c".js';\0A\00", align 1
@.str.412 = private unnamed_addr constant [26 x i8] c"vector::_M_realloc_insert\00", align 1
@.str.413 = private unnamed_addr constant [8 x i8] c"esbuild\00", align 1
@.str.414 = private unnamed_addr constant [2 x i8] c" \00", align 1
@.str.415 = private unnamed_addr constant [34 x i8] c" --format=cjs --bundle --outfile=\00", align 1
@.str.416 = private unnamed_addr constant [24 x i8] c" --external:flatbuffers\00", align 1
@_ZSt4cout = external global %"class.std::basic_ostream", align 8
@.str.417 = private unnamed_addr constant [13 x i8] c"Entry point \00", align 1
@.str.418 = private unnamed_addr constant [12 x i8] c" generated.\00", align 1
@.str.419 = private unnamed_addr constant [60 x i8] c"A single file bundle can be created using fx. esbuild with:\00", align 1
@.str.420 = private unnamed_addr constant [3 x i8] c"> \00", align 1
@.str.421 = private unnamed_addr constant [3 x i8] c"TS\00", align 1
@llvm.global_ctors = appending global [1 x { i32, ptr, ptr }] [{ i32, ptr, ptr } { i32 65535, ptr @_GLOBAL__sub_I_idl_gen_ts.cpp, ptr null }]

declare void @_ZNSt8ios_base4InitC1Ev(ptr noundef nonnull align 1 dereferenceable(1)) unnamed_addr #0

; Function Attrs: nounwind
declare void @_ZNSt8ios_base4InitD1Ev(ptr noundef nonnull align 1 dereferenceable(1)) unnamed_addr #1

; Function Attrs: nofree nounwind
declare i32 @__cxa_atexit(ptr, ptr, ptr) local_unnamed_addr #2

; Function Attrs: mustprogress uwtable
define dso_local void @_ZN11flatbuffers18NewTsCodeGeneratorEv(ptr noalias nocapture writeonly sret(%"class.std::unique_ptr") align 8 %agg.result) local_unnamed_addr #3 personality ptr @__gxx_personality_v0 {
_ZNSt10unique_ptrIN11flatbuffers12_GLOBAL__N_115TsCodeGeneratorESt14default_deleteIS2_EED2Ev.exit:
  %call = tail call noalias noundef nonnull dereferenceable(40) ptr @_Znwm(i64 noundef 40) #20
  tail call void @llvm.memset.p0.i64(ptr noundef nonnull align 16 dereferenceable(40) %call, i8 0, i64 40, i1 false)
  store ptr getelementptr inbounds ({ [15 x ptr] }, ptr @_ZTVN11flatbuffers13CodeGeneratorE, i64 0, inrange i32 0, i64 2), ptr %call, align 8
  %status_detail.i.i = getelementptr inbounds %"class.flatbuffers::CodeGenerator", ptr %call, i64 0, i32 1
  tail call void @_ZNSt7__cxx1112basic_stringIcSt11char_traitsIcESaIcEEC1Ev(ptr noundef nonnull align 8 dereferenceable(32) %status_detail.i.i) #21
  store ptr getelementptr inbounds ({ [15 x ptr] }, ptr @_ZTVN11flatbuffers12_GLOBAL__N_115TsCodeGeneratorE, i64 0, inrange i32 0, i64 2), ptr %call, align 8
  store ptr %call, ptr %agg.result, align 8
  ret void
}

; Function Attrs: nobuiltin allocsize(0)
declare noundef nonnull ptr @_Znwm(i64 noundef) local_unnamed_addr #4

; Function Attrs: mustprogress nocallback nofree nounwind willreturn memory(argmem: write)
declare void @llvm.memset.p0.i64(ptr nocapture writeonly, i8, i64, i1 immarg) #5

; Function Attrs: mustprogress nounwind uwtable
define internal void @_ZN11flatbuffers12_GLOBAL__N_115TsCodeGeneratorD2Ev(ptr noundef nonnull align 8 dereferenceable(40) %this) unnamed_addr #6 align 2 {
entry:
  store ptr getelementptr inbounds ({ [15 x ptr] }, ptr @_ZTVN11flatbuffers13CodeGeneratorE, i64 0, inrange i32 0, i64 2), ptr %this, align 8
  %status_detail.i = getelementptr inbounds %"class.flatbuffers::CodeGenerator", ptr %this, i64 0, i32 1
  tail call void @_ZNSt7__cxx1112basic_stringIcSt11char_traitsIcESaIcEED1Ev(ptr noundef nonnull align 8 dereferenceable(32) %status_detail.i) #21
  ret void
}

; Function Attrs: mustprogress nounwind uwtable
define internal void @_ZN11flatbuffers12_GLOBAL__N_115TsCodeGeneratorD0Ev(ptr noundef nonnull align 8 dereferenceable(40) %this) unnamed_addr #6 align 2 {
entry:
  store ptr getelementptr inbounds ({ [15 x ptr] }, ptr @_ZTVN11flatbuffers13CodeGeneratorE, i64 0, inrange i32 0, i64 2), ptr %this, align 8
  %status_detail.i.i = getelementptr inbounds %"class.flatbuffers::CodeGenerator", ptr %this, i64 0, i32 1
  tail call void @_ZNSt7__cxx1112basic_stringIcSt11char_traitsIcESaIcEED1Ev(ptr noundef nonnull align 8 dereferenceable(32) %status_detail.i.i) #21
  tail call void @_ZdlPv(ptr noundef nonnull %this) #22
  ret void
}

; Function Attrs: mustprogress uwtable
define internal noundef i32 @_ZN11flatbuffers12_GLOBAL__N_115TsCodeGenerator12GenerateCodeERKNS_6ParserERKNSt7__cxx1112basic_stringIcSt11char_traitsIcESaIcEEESC_(ptr nocapture nonnull readnone align 8 %this, ptr noundef nonnull align 8 dereferenceable(1784) %parser, ptr noundef nonnull align 8 dereferenceable(32) %path, ptr noundef nonnull align 8 dereferenceable(32) %filename) unnamed_addr #3 align 2 personality ptr @__gxx_personality_v0 {
entry:
  %generator.i = alloca %"class.flatbuffers::ts::TsGenerator", align 8
  call void @llvm.lifetime.start.p0(i64 568, ptr nonnull %generator.i)
  call void @_ZN11flatbuffers2ts11TsGeneratorC2ERKNS_6ParserERKNSt7__cxx1112basic_stringIcSt11char_traitsIcESaIcEEESC_(ptr noundef nonnull align 8 dereferenceable(568) %generator.i, ptr noundef nonnull align 8 dereferenceable(1784) %parser, ptr noundef nonnull align 8 dereferenceable(32) %path, ptr noundef nonnull align 8 dereferenceable(32) %filename)
  invoke void @_ZN11flatbuffers2ts11TsGenerator13generateEnumsEv(ptr noundef nonnull align 8 dereferenceable(568) %generator.i)
          to label %.noexc.i unwind label %lpad.i

.noexc.i:                                         ; preds = %entry
  invoke void @_ZN11flatbuffers2ts11TsGenerator15generateStructsEv(ptr noundef nonnull align 8 dereferenceable(568) %generator.i)
          to label %.noexc1.i unwind label %lpad.i

.noexc1.i:                                        ; preds = %.noexc.i
  %parser_.i.i = getelementptr inbounds %"class.flatbuffers::BaseGenerator", ptr %generator.i, i64 0, i32 1
  %0 = load ptr, ptr %parser_.i.i, align 8
  %ts_omit_entrypoint.i.i = getelementptr inbounds %"class.flatbuffers::Parser", ptr %0, i64 0, i32 19, i32 81
  %1 = load i8, ptr %ts_omit_entrypoint.i.i, align 4
  %2 = and i8 %1, 1
  %tobool.not.i.i = icmp eq i8 %2, 0
  br i1 %tobool.not.i.i, label %if.then.i.i, label %if.end.i.i

if.then.i.i:                                      ; preds = %.noexc1.i
  invoke void @_ZN11flatbuffers2ts11TsGenerator13generateEntryEv(ptr noundef nonnull align 8 dereferenceable(568) %generator.i)
          to label %if.end.i.i unwind label %lpad.i

if.end.i.i:                                       ; preds = %if.then.i.i, %.noexc1.i
  %call.i3.i = invoke noundef zeroext i1 @_ZN11flatbuffers2ts11TsGenerator14generateBundleEv(ptr noundef nonnull align 8 dereferenceable(568) %generator.i)
          to label %_ZN11flatbuffersL10GenerateTSERKNS_6ParserERKNSt7__cxx1112basic_stringIcSt11char_traitsIcESaIcEEESA_.exit unwind label %lpad.i

lpad.i:                                           ; preds = %if.end.i.i, %if.then.i.i, %.noexc.i, %entry
  %3 = landingpad { ptr, i32 }
          cleanup
  call void @_ZN11flatbuffers2ts11TsGeneratorD2Ev(ptr noundef nonnull align 8 dereferenceable(568) %generator.i) #21
  resume { ptr, i32 } %3

_ZN11flatbuffersL10GenerateTSERKNS_6ParserERKNSt7__cxx1112basic_stringIcSt11char_traitsIcESaIcEEESA_.exit: ; preds = %if.end.i.i
  store ptr getelementptr inbounds ({ [6 x ptr] }, ptr @_ZTVN11flatbuffers2ts11TsGeneratorE, i64 0, inrange i32 0, i64 2), ptr %generator.i, align 8
  %4 = getelementptr inbounds %"class.flatbuffers::ts::TsGenerator", ptr %generator.i, i64 0, i32 2, i32 0, i32 0, i32 1, i32 0, i32 1
  %this.val.i.i.i.i = load ptr, ptr %4, align 8
  call fastcc void @_ZNSt8_Rb_treeINSt7__cxx1112basic_stringIcSt11char_traitsIcESaIcEEESt4pairIKS5_N11flatbuffers12_GLOBAL__N_112NsDefinitionEESt10_Select1stISB_ESt4lessIS5_ESaISB_EE8_M_eraseEPSt13_Rb_tree_nodeISB_E(ptr noundef %this.val.i.i.i.i)
  %namer_.i.i = getelementptr inbounds %"class.flatbuffers::ts::TsGenerator", ptr %generator.i, i64 0, i32 1
  call void @_ZN11flatbuffers5NamerD2Ev(ptr noundef nonnull align 8 dereferenceable(392) %namer_.i.i) #21
  store ptr getelementptr inbounds ({ [6 x ptr] }, ptr @_ZTVN11flatbuffers13BaseGeneratorE, i64 0, inrange i32 0, i64 2), ptr %generator.i, align 8
  %default_extension_.i.i.i = getelementptr inbounds %"class.flatbuffers::BaseGenerator", ptr %generator.i, i64 0, i32 6
  call void @_ZNSt7__cxx1112basic_stringIcSt11char_traitsIcESaIcEED1Ev(ptr noundef nonnull align 8 dereferenceable(32) %default_extension_.i.i.i) #21
  %qualifying_separator_.i.i.i = getelementptr inbounds %"class.flatbuffers::BaseGenerator", ptr %generator.i, i64 0, i32 5
  call void @_ZNSt7__cxx1112basic_stringIcSt11char_traitsIcESaIcEED1Ev(ptr noundef nonnull align 8 dereferenceable(32) %qualifying_separator_.i.i.i) #21
  %qualifying_start_.i.i.i = getelementptr inbounds %"class.flatbuffers::BaseGenerator", ptr %generator.i, i64 0, i32 4
  call void @_ZNSt7__cxx1112basic_stringIcSt11char_traitsIcESaIcEED1Ev(ptr noundef nonnull align 8 dereferenceable(32) %qualifying_start_.i.i.i) #21
  call void @llvm.lifetime.end.p0(i64 568, ptr nonnull %generator.i)
  %not.call.i3.i = xor i1 %call.i3.i, true
  %. = zext i1 %not.call.i3.i to i32
  ret i32 %.
}

; Function Attrs: mustprogress nounwind uwtable
define linkonce_odr dso_local noundef i32 @_ZN11flatbuffers13CodeGenerator18GenerateCodeStringERKNS_6ParserERKNSt7__cxx1112basic_stringIcSt11char_traitsIcESaIcEEERS9_(ptr noundef nonnull align 8 dereferenceable(40) %this, ptr noundef nonnull align 8 dereferenceable(1784) %parser, ptr noundef nonnull align 8 dereferenceable(32) %filename, ptr noundef nonnull align 8 dereferenceable(32) %output) unnamed_addr #6 comdat align 2 {
entry:
  ret i32 3
}

; Function Attrs: mustprogress nofree norecurse nosync nounwind willreturn memory(none) uwtable
define internal noundef i32 @_ZN11flatbuffers12_GLOBAL__N_115TsCodeGenerator12GenerateCodeEPKhlRKNS_14CodeGenOptionsE(ptr nocapture nonnull readnone align 8 %this, ptr nocapture readnone %0, i64 %1, ptr nocapture nonnull readnone align 8 %2) unnamed_addr #7 align 2 {
entry:
  ret i32 3
}

; Function Attrs: mustprogress uwtable
define internal noundef i32 @_ZN11flatbuffers12_GLOBAL__N_115TsCodeGenerator16GenerateMakeRuleERKNS_6ParserERKNSt7__cxx1112basic_stringIcSt11char_traitsIcESaIcEEESC_RSA_(ptr nocapture nonnull readnone align 8 %this, ptr noundef nonnull align 8 dereferenceable(1784) %parser, ptr noundef nonnull align 8 dereferenceable(32) %path, ptr noundef nonnull align 8 dereferenceable(32) %filename, ptr noundef nonnull align 8 dereferenceable(32) %output) unnamed_addr #3 align 2 personality ptr @__gxx_personality_v0 {
entry:
  %filebase.i = alloca %"class.std::__cxx11::basic_string", align 8
  %ref.tmp.i = alloca %"class.std::__cxx11::basic_string", align 8
  %generator.i = alloca %"class.flatbuffers::ts::TsGenerator", align 8
  %ref.tmp3.i = alloca %"class.std::__cxx11::basic_string", align 8
  %included_files.i = alloca %"class.std::set.103", align 8
  %ref.tmp14.i = alloca %"class.std::__cxx11::basic_string", align 8
  %ref.tmp = alloca %"class.std::__cxx11::basic_string", align 8
  call void @llvm.lifetime.start.p0(i64 32, ptr nonnull %filebase.i)
  call void @llvm.lifetime.start.p0(i64 32, ptr nonnull %ref.tmp.i)
  call void @llvm.lifetime.start.p0(i64 568, ptr nonnull %generator.i)
  call void @llvm.lifetime.start.p0(i64 32, ptr nonnull %ref.tmp3.i)
  call void @llvm.lifetime.start.p0(i64 48, ptr nonnull %included_files.i)
  call void @llvm.lifetime.start.p0(i64 32, ptr nonnull %ref.tmp14.i)
  call void @_ZN11flatbuffers14StripExtensionERKNSt7__cxx1112basic_stringIcSt11char_traitsIcESaIcEEE(ptr nonnull sret(%"class.std::__cxx11::basic_string") align 8 %ref.tmp.i, ptr noundef nonnull align 8 dereferenceable(32) %filename), !noalias !5
  invoke void @_ZN11flatbuffers9StripPathERKNSt7__cxx1112basic_stringIcSt11char_traitsIcESaIcEEE(ptr nonnull sret(%"class.std::__cxx11::basic_string") align 8 %filebase.i, ptr noundef nonnull align 8 dereferenceable(32) %ref.tmp.i)
          to label %invoke.cont.i unwind label %lpad.i, !noalias !5

invoke.cont.i:                                    ; preds = %entry
  call void @_ZNSt7__cxx1112basic_stringIcSt11char_traitsIcESaIcEED1Ev(ptr noundef nonnull align 8 dereferenceable(32) %ref.tmp.i) #21, !noalias !5
  invoke void @_ZN11flatbuffers2ts11TsGeneratorC2ERKNS_6ParserERKNSt7__cxx1112basic_stringIcSt11char_traitsIcESaIcEEESC_(ptr noundef nonnull align 8 dereferenceable(568) %generator.i, ptr noundef nonnull align 8 dereferenceable(1784) %parser, ptr noundef nonnull align 8 dereferenceable(32) %path, ptr noundef nonnull align 8 dereferenceable(32) %filename)
          to label %invoke.cont2.i unwind label %lpad1.i, !noalias !5

invoke.cont2.i:                                   ; preds = %invoke.cont.i
  %opts.i = getelementptr inbounds %"class.flatbuffers::Parser", ptr %parser, i64 0, i32 19
  invoke void @_ZNK11flatbuffers13BaseGenerator17GeneratedFileNameERKNSt7__cxx1112basic_stringIcSt11char_traitsIcESaIcEEES8_RKNS_10IDLOptionsE(ptr nonnull sret(%"class.std::__cxx11::basic_string") align 8 %ref.tmp3.i, ptr noundef nonnull align 8 dereferenceable(128) %generator.i, ptr noundef nonnull align 8 dereferenceable(32) %path, ptr noundef nonnull align 8 dereferenceable(32) %filebase.i, ptr noundef nonnull align 8 dereferenceable(642) %opts.i)
          to label %invoke.cont5.i unwind label %lpad4.i, !noalias !5

invoke.cont5.i:                                   ; preds = %invoke.cont2.i
  %call.i11.i = invoke noundef nonnull align 8 dereferenceable(32) ptr @_ZNSt7__cxx1112basic_stringIcSt11char_traitsIcESaIcEE6appendEPKc(ptr noundef nonnull align 8 dereferenceable(32) %ref.tmp3.i, ptr noundef nonnull @.str.308)
          to label %invoke.cont7.i unwind label %lpad6.i, !noalias !5

invoke.cont7.i:                                   ; preds = %invoke.cont5.i
  call void @_ZNSt7__cxx1112basic_stringIcSt11char_traitsIcESaIcEEC1EOS4_(ptr noundef nonnull align 8 dereferenceable(32) %ref.tmp, ptr noundef nonnull align 8 dereferenceable(32) %call.i11.i) #21
  call void @_ZNSt7__cxx1112basic_stringIcSt11char_traitsIcESaIcEED1Ev(ptr noundef nonnull align 8 dereferenceable(32) %ref.tmp3.i) #21
  invoke void @_ZNK11flatbuffers6Parser25GetIncludedFilesRecursiveERKNSt7__cxx1112basic_stringIcSt11char_traitsIcESaIcEEE(ptr nonnull sret(%"class.std::set.103") align 8 %included_files.i, ptr noundef nonnull align 8 dereferenceable(1784) %parser, ptr noundef nonnull align 8 dereferenceable(32) %filename)
          to label %invoke.cont9.i unwind label %lpad8.i

invoke.cont9.i:                                   ; preds = %invoke.cont7.i
  %_M_left.i.i.i = getelementptr inbounds i8, ptr %included_files.i, i64 24
  %0 = load ptr, ptr %_M_left.i.i.i, align 8, !noalias !5
  %add.ptr.i.i.i = getelementptr inbounds i8, ptr %included_files.i, i64 8
  %cmp.i.not14.i = icmp eq ptr %0, %add.ptr.i.i.i
  br i1 %cmp.i.not14.i, label %for.end.i, label %for.body.i

for.body.i:                                       ; preds = %invoke.cont9.i, %invoke.cont19.i
  %it.sroa.0.015.i = phi ptr [ %call.i.i, %invoke.cont19.i ], [ %0, %invoke.cont9.i ]
  %_M_storage.i.i.i = getelementptr inbounds %"struct.std::_Rb_tree_node", ptr %it.sroa.0.015.i, i64 0, i32 1
  invoke void @_ZStplIcSt11char_traitsIcESaIcEENSt7__cxx1112basic_stringIT_T0_T1_EEPKS5_RKS8_(ptr nonnull sret(%"class.std::__cxx11::basic_string") align 8 %ref.tmp14.i, ptr noundef nonnull @.str.414, ptr noundef nonnull align 8 dereferenceable(32) %_M_storage.i.i.i)
          to label %invoke.cont17.i unwind label %lpad16.i

invoke.cont17.i:                                  ; preds = %for.body.i
  %call20.i = invoke noundef nonnull align 8 dereferenceable(32) ptr @_ZNSt7__cxx1112basic_stringIcSt11char_traitsIcESaIcEEpLERKS4_(ptr noundef nonnull align 8 dereferenceable(32) %ref.tmp, ptr noundef nonnull align 8 dereferenceable(32) %ref.tmp14.i)
          to label %invoke.cont19.i unwind label %lpad18.i

invoke.cont19.i:                                  ; preds = %invoke.cont17.i
  call void @_ZNSt7__cxx1112basic_stringIcSt11char_traitsIcESaIcEED1Ev(ptr noundef nonnull align 8 dereferenceable(32) %ref.tmp14.i) #21
  %call.i.i = call noundef ptr @_ZSt18_Rb_tree_incrementPKSt18_Rb_tree_node_base(ptr noundef %it.sroa.0.015.i) #23
  %cmp.i.not.i = icmp eq ptr %call.i.i, %add.ptr.i.i.i
  br i1 %cmp.i.not.i, label %for.end.i, label %for.body.i, !llvm.loop !8

lpad.i:                                           ; preds = %entry
  %1 = landingpad { ptr, i32 }
          cleanup
  br label %eh.resume.i

lpad1.i:                                          ; preds = %invoke.cont.i
  %2 = landingpad { ptr, i32 }
          cleanup
  br label %eh.resume.i

lpad4.i:                                          ; preds = %invoke.cont2.i
  %3 = landingpad { ptr, i32 }
          cleanup
  br label %ehcleanup23.i

lpad6.i:                                          ; preds = %invoke.cont5.i
  %4 = landingpad { ptr, i32 }
          cleanup
  call void @_ZNSt7__cxx1112basic_stringIcSt11char_traitsIcESaIcEED1Ev(ptr noundef nonnull align 8 dereferenceable(32) %ref.tmp3.i) #21, !noalias !5
  br label %ehcleanup23.i

lpad8.i:                                          ; preds = %invoke.cont7.i
  %5 = landingpad { ptr, i32 }
          cleanup
  br label %ehcleanup22.i

lpad16.i:                                         ; preds = %for.body.i
  %6 = landingpad { ptr, i32 }
          cleanup
  br label %ehcleanup.i

lpad18.i:                                         ; preds = %invoke.cont17.i
  %7 = landingpad { ptr, i32 }
          cleanup
  call void @_ZNSt7__cxx1112basic_stringIcSt11char_traitsIcESaIcEED1Ev(ptr noundef nonnull align 8 dereferenceable(32) %ref.tmp14.i) #21
  br label %ehcleanup.i

for.end.i:                                        ; preds = %invoke.cont19.i, %invoke.cont9.i
  %_M_parent.i.i.i.i.i = getelementptr inbounds i8, ptr %included_files.i, i64 16
  %8 = load ptr, ptr %_M_parent.i.i.i.i.i, align 8, !noalias !5
  invoke void @_ZNSt8_Rb_treeINSt7__cxx1112basic_stringIcSt11char_traitsIcESaIcEEES5_St9_IdentityIS5_ESt4lessIS5_ESaIS5_EE8_M_eraseEPSt13_Rb_tree_nodeIS5_E(ptr noundef nonnull align 8 dereferenceable(48) %included_files.i, ptr noundef %8)
          to label %_ZN11flatbuffersL10TSMakeRuleERKNS_6ParserERKNSt7__cxx1112basic_stringIcSt11char_traitsIcESaIcEEESA_.exit unwind label %terminate.lpad.i.i.i

terminate.lpad.i.i.i:                             ; preds = %for.end.i
  %9 = landingpad { ptr, i32 }
          catch ptr null
  %10 = extractvalue { ptr, i32 } %9, 0
  call void @__clang_call_terminate(ptr %10) #24
  unreachable

ehcleanup.i:                                      ; preds = %lpad18.i, %lpad16.i
  %.pn.i = phi { ptr, i32 } [ %7, %lpad18.i ], [ %6, %lpad16.i ]
  call void @_ZNSt3setINSt7__cxx1112basic_stringIcSt11char_traitsIcESaIcEEESt4lessIS5_ESaIS5_EED2Ev(ptr noundef nonnull align 8 dereferenceable(48) %included_files.i) #21
  br label %ehcleanup22.i

ehcleanup22.i:                                    ; preds = %ehcleanup.i, %lpad8.i
  %.pn.pn.i = phi { ptr, i32 } [ %.pn.i, %ehcleanup.i ], [ %5, %lpad8.i ]
  call void @_ZNSt7__cxx1112basic_stringIcSt11char_traitsIcESaIcEED1Ev(ptr noundef nonnull align 8 dereferenceable(32) %ref.tmp) #21
  br label %ehcleanup23.i

ehcleanup23.i:                                    ; preds = %ehcleanup22.i, %lpad6.i, %lpad4.i
  %.pn.pn.pn.i = phi { ptr, i32 } [ %.pn.pn.i, %ehcleanup22.i ], [ %4, %lpad6.i ], [ %3, %lpad4.i ]
  call void @_ZN11flatbuffers2ts11TsGeneratorD2Ev(ptr noundef nonnull align 8 dereferenceable(568) %generator.i) #21
  br label %eh.resume.i

eh.resume.i:                                      ; preds = %ehcleanup23.i, %lpad1.i, %lpad.i
  %filebase.sink.i = phi ptr [ %ref.tmp.i, %lpad.i ], [ %filebase.i, %ehcleanup23.i ], [ %filebase.i, %lpad1.i ]
  %.pn.pn.pn.pn.pn.i = phi { ptr, i32 } [ %1, %lpad.i ], [ %.pn.pn.pn.i, %ehcleanup23.i ], [ %2, %lpad1.i ]
  call void @_ZNSt7__cxx1112basic_stringIcSt11char_traitsIcESaIcEED1Ev(ptr noundef nonnull align 8 dereferenceable(32) %filebase.sink.i) #21
  resume { ptr, i32 } %.pn.pn.pn.pn.pn.i

_ZN11flatbuffersL10TSMakeRuleERKNS_6ParserERKNSt7__cxx1112basic_stringIcSt11char_traitsIcESaIcEEESA_.exit: ; preds = %for.end.i
  store ptr getelementptr inbounds ({ [6 x ptr] }, ptr @_ZTVN11flatbuffers2ts11TsGeneratorE, i64 0, inrange i32 0, i64 2), ptr %generator.i, align 8, !noalias !5
  %11 = getelementptr inbounds %"class.flatbuffers::ts::TsGenerator", ptr %generator.i, i64 0, i32 2, i32 0, i32 0, i32 1, i32 0, i32 1
  %this.val.i.i.i.i = load ptr, ptr %11, align 8, !noalias !5
  call fastcc void @_ZNSt8_Rb_treeINSt7__cxx1112basic_stringIcSt11char_traitsIcESaIcEEESt4pairIKS5_N11flatbuffers12_GLOBAL__N_112NsDefinitionEESt10_Select1stISB_ESt4lessIS5_ESaISB_EE8_M_eraseEPSt13_Rb_tree_nodeISB_E(ptr noundef %this.val.i.i.i.i)
  %namer_.i.i = getelementptr inbounds %"class.flatbuffers::ts::TsGenerator", ptr %generator.i, i64 0, i32 1
  call void @_ZN11flatbuffers5NamerD2Ev(ptr noundef nonnull align 8 dereferenceable(392) %namer_.i.i) #21
  store ptr getelementptr inbounds ({ [6 x ptr] }, ptr @_ZTVN11flatbuffers13BaseGeneratorE, i64 0, inrange i32 0, i64 2), ptr %generator.i, align 8, !noalias !5
  %default_extension_.i.i.i = getelementptr inbounds %"class.flatbuffers::BaseGenerator", ptr %generator.i, i64 0, i32 6
  call void @_ZNSt7__cxx1112basic_stringIcSt11char_traitsIcESaIcEED1Ev(ptr noundef nonnull align 8 dereferenceable(32) %default_extension_.i.i.i) #21
  %qualifying_separator_.i.i.i = getelementptr inbounds %"class.flatbuffers::BaseGenerator", ptr %generator.i, i64 0, i32 5
  call void @_ZNSt7__cxx1112basic_stringIcSt11char_traitsIcESaIcEED1Ev(ptr noundef nonnull align 8 dereferenceable(32) %qualifying_separator_.i.i.i) #21
  %qualifying_start_.i.i.i = getelementptr inbounds %"class.flatbuffers::BaseGenerator", ptr %generator.i, i64 0, i32 4
  call void @_ZNSt7__cxx1112basic_stringIcSt11char_traitsIcESaIcEED1Ev(ptr noundef nonnull align 8 dereferenceable(32) %qualifying_start_.i.i.i) #21
  call void @_ZNSt7__cxx1112basic_stringIcSt11char_traitsIcESaIcEED1Ev(ptr noundef nonnull align 8 dereferenceable(32) %filebase.i) #21
  call void @llvm.lifetime.end.p0(i64 32, ptr nonnull %filebase.i)
  call void @llvm.lifetime.end.p0(i64 32, ptr nonnull %ref.tmp.i)
  call void @llvm.lifetime.end.p0(i64 568, ptr nonnull %generator.i)
  call void @llvm.lifetime.end.p0(i64 32, ptr nonnull %ref.tmp3.i)
  call void @llvm.lifetime.end.p0(i64 48, ptr nonnull %included_files.i)
  call void @llvm.lifetime.end.p0(i64 32, ptr nonnull %ref.tmp14.i)
  %call = call noundef nonnull align 8 dereferenceable(32) ptr @_ZNSt7__cxx1112basic_stringIcSt11char_traitsIcESaIcEEaSEOS4_(ptr noundef nonnull align 8 dereferenceable(32) %output, ptr noundef nonnull align 8 dereferenceable(32) %ref.tmp) #21
  call void @_ZNSt7__cxx1112basic_stringIcSt11char_traitsIcESaIcEED1Ev(ptr noundef nonnull align 8 dereferenceable(32) %ref.tmp) #21
  ret i32 0
}

; Function Attrs: mustprogress uwtable
define internal noundef i32 @_ZN11flatbuffers12_GLOBAL__N_115TsCodeGenerator16GenerateGrpcCodeERKNS_6ParserERKNSt7__cxx1112basic_stringIcSt11char_traitsIcESaIcEEESC_(ptr nocapture nonnull readnone align 8 %this, ptr noundef nonnull align 8 dereferenceable(1784) %parser, ptr noundef nonnull align 8 dereferenceable(32) %path, ptr noundef nonnull align 8 dereferenceable(32) %filename) unnamed_addr #3 align 2 {
entry:
  %call = tail call noundef zeroext i1 @_ZN11flatbuffers14GenerateTSGRPCERKNS_6ParserERKNSt7__cxx1112basic_stringIcSt11char_traitsIcESaIcEEESA_(ptr noundef nonnull align 8 dereferenceable(1784) %parser, ptr noundef nonnull align 8 dereferenceable(32) %path, ptr noundef nonnull align 8 dereferenceable(32) %filename)
  %not.call = xor i1 %call, true
  %. = zext i1 %not.call to i32
  ret i32 %.
}

; Function Attrs: mustprogress nofree norecurse nosync nounwind willreturn memory(none) uwtable
define internal noundef i32 @_ZN11flatbuffers12_GLOBAL__N_115TsCodeGenerator16GenerateRootFileERKNS_6ParserERKNSt7__cxx1112basic_stringIcSt11char_traitsIcESaIcEEE(ptr nocapture nonnull readnone align 8 %this, ptr nocapture nonnull readnone align 8 %parser, ptr nocapture nonnull readnone align 8 %path) unnamed_addr #7 align 2 {
entry:
  ret i32 3
}

; Function Attrs: mustprogress nofree norecurse nosync nounwind willreturn memory(none) uwtable
define internal noundef zeroext i1 @_ZNK11flatbuffers12_GLOBAL__N_115TsCodeGenerator12IsSchemaOnlyEv(ptr nocapture nonnull readnone align 8 %this) unnamed_addr #7 align 2 {
entry:
  ret i1 true
}

; Function Attrs: mustprogress nofree norecurse nosync nounwind willreturn memory(none) uwtable
define internal noundef zeroext i1 @_ZNK11flatbuffers12_GLOBAL__N_115TsCodeGenerator22SupportsBfbsGenerationEv(ptr nocapture nonnull readnone align 8 %this) unnamed_addr #7 align 2 {
entry:
  ret i1 false
}

; Function Attrs: mustprogress nofree norecurse nosync nounwind willreturn memory(none) uwtable
define internal noundef zeroext i1 @_ZNK11flatbuffers12_GLOBAL__N_115TsCodeGenerator26SupportsRootFileGenerationEv(ptr nocapture nonnull readnone align 8 %this) unnamed_addr #7 align 2 {
entry:
  ret i1 false
}

; Function Attrs: mustprogress nofree norecurse nosync nounwind willreturn memory(none) uwtable
define internal noundef i32 @_ZNK11flatbuffers12_GLOBAL__N_115TsCodeGenerator8LanguageEv(ptr nocapture nonnull readnone align 8 %this) unnamed_addr #7 align 2 {
entry:
  ret i32 512
}

; Function Attrs: mustprogress uwtable
define internal void @_ZNK11flatbuffers12_GLOBAL__N_115TsCodeGenerator12LanguageNameB5cxx11Ev(ptr noalias sret(%"class.std::__cxx11::basic_string") align 8 %agg.result, ptr nocapture nonnull readnone align 8 %this) unnamed_addr #3 align 2 personality ptr @__gxx_personality_v0 {
entry:
  %ref.tmp = alloca %"class.std::allocator", align 1
  call void @_ZNSaIcEC1Ev(ptr noundef nonnull align 1 dereferenceable(1) %ref.tmp) #21
  %call.i1 = invoke noundef ptr @_ZNSt7__cxx1112basic_stringIcSt11char_traitsIcESaIcEE13_M_local_dataEv(ptr noundef nonnull align 8 dereferenceable(32) %agg.result)
          to label %call.i.noexc unwind label %lpad

call.i.noexc:                                     ; preds = %entry
  invoke void @_ZNSt7__cxx1112basic_stringIcSt11char_traitsIcESaIcEE12_Alloc_hiderC1EPcRKS3_(ptr noundef nonnull align 8 dereferenceable(8) %agg.result, ptr noundef %call.i1, ptr noundef nonnull align 1 dereferenceable(1) %ref.tmp)
          to label %.noexc unwind label %lpad

.noexc:                                           ; preds = %call.i.noexc
  invoke void @_ZNSt7__cxx1112basic_stringIcSt11char_traitsIcESaIcEE12_M_constructIPKcEEvT_S8_St20forward_iterator_tag(ptr noundef nonnull align 8 dereferenceable(32) %agg.result, ptr noundef nonnull @.str.421, ptr noundef nonnull getelementptr inbounds ([3 x i8], ptr @.str.421, i64 0, i64 2))
          to label %invoke.cont unwind label %lpad.i

lpad.i:                                           ; preds = %.noexc
  %0 = landingpad { ptr, i32 }
          cleanup
  call void @_ZNSaIcED2Ev(ptr noundef nonnull align 1 dereferenceable(1) %agg.result) #21
  br label %lpad.body

invoke.cont:                                      ; preds = %.noexc
  call void @_ZNSaIcED1Ev(ptr noundef nonnull align 1 dereferenceable(1) %ref.tmp) #21
  ret void

lpad:                                             ; preds = %call.i.noexc, %entry
  %1 = landingpad { ptr, i32 }
          cleanup
  br label %lpad.body

lpad.body:                                        ; preds = %lpad.i, %lpad
  %eh.lpad-body = phi { ptr, i32 } [ %1, %lpad ], [ %0, %lpad.i ]
  call void @_ZNSaIcED1Ev(ptr noundef nonnull align 1 dereferenceable(1) %ref.tmp) #21
  resume { ptr, i32 } %eh.lpad-body
}

; Function Attrs: nounwind
declare void @_ZNSt7__cxx1112basic_stringIcSt11char_traitsIcESaIcEEC1Ev(ptr noundef nonnull align 8 dereferenceable(32)) unnamed_addr #1

; Function Attrs: mustprogress nounwind uwtable
define linkonce_odr dso_local void @_ZN11flatbuffers13CodeGeneratorD2Ev(ptr noundef nonnull align 8 dereferenceable(40) %this) unnamed_addr #6 comdat align 2 {
entry:
  store ptr getelementptr inbounds ({ [15 x ptr] }, ptr @_ZTVN11flatbuffers13CodeGeneratorE, i64 0, inrange i32 0, i64 2), ptr %this, align 8
  %status_detail = getelementptr inbounds %"class.flatbuffers::CodeGenerator", ptr %this, i64 0, i32 1
  tail call void @_ZNSt7__cxx1112basic_stringIcSt11char_traitsIcESaIcEED1Ev(ptr noundef nonnull align 8 dereferenceable(32) %status_detail) #21
  ret void
}

; Function Attrs: mustprogress nounwind uwtable
define linkonce_odr dso_local void @_ZN11flatbuffers13CodeGeneratorD0Ev(ptr noundef nonnull align 8 dereferenceable(40) %this) unnamed_addr #6 comdat align 2 {
entry:
  tail call void @llvm.trap() #24
  unreachable
}

declare void @__cxa_pure_virtual() unnamed_addr

; Function Attrs: nounwind
declare void @_ZNSt7__cxx1112basic_stringIcSt11char_traitsIcESaIcEED1Ev(ptr noundef nonnull align 8 dereferenceable(32)) unnamed_addr #1

; Function Attrs: cold noreturn nounwind memory(inaccessiblemem: write)
declare void @llvm.trap() #8

; Function Attrs: nobuiltin nounwind
declare void @_ZdlPv(ptr noundef) local_unnamed_addr #9

; Function Attrs: mustprogress uwtable
define linkonce_odr dso_local void @_ZN11flatbuffers2ts11TsGeneratorC2ERKNS_6ParserERKNSt7__cxx1112basic_stringIcSt11char_traitsIcESaIcEEESC_(ptr noundef nonnull align 8 dereferenceable(568) %this, ptr noundef nonnull align 8 dereferenceable(1784) %parser, ptr noundef nonnull align 8 dereferenceable(32) %path, ptr noundef nonnull align 8 dereferenceable(32) %file_name) unnamed_addr #3 comdat align 2 personality ptr @__gxx_personality_v0 {
entry:
  %__guard.i655 = alloca %struct._Guard, align 8
  %__guard.i645 = alloca %struct._Guard, align 8
  %__guard.i635 = alloca %struct._Guard, align 8
  %__guard.i625 = alloca %struct._Guard, align 8
  %__guard.i615 = alloca %struct._Guard, align 8
  %__guard.i605 = alloca %struct._Guard, align 8
  %__guard.i595 = alloca %struct._Guard, align 8
  %__guard.i585 = alloca %struct._Guard, align 8
  %__guard.i575 = alloca %struct._Guard, align 8
  %__guard.i565 = alloca %struct._Guard, align 8
  %__guard.i555 = alloca %struct._Guard, align 8
  %__guard.i545 = alloca %struct._Guard, align 8
  %__guard.i535 = alloca %struct._Guard, align 8
  %__guard.i525 = alloca %struct._Guard, align 8
  %__guard.i515 = alloca %struct._Guard, align 8
  %__guard.i505 = alloca %struct._Guard, align 8
  %__guard.i495 = alloca %struct._Guard, align 8
  %__guard.i485 = alloca %struct._Guard, align 8
  %__guard.i475 = alloca %struct._Guard, align 8
  %__guard.i465 = alloca %struct._Guard, align 8
  %__guard.i455 = alloca %struct._Guard, align 8
  %__guard.i445 = alloca %struct._Guard, align 8
  %__guard.i435 = alloca %struct._Guard, align 8
  %__guard.i425 = alloca %struct._Guard, align 8
  %__guard.i415 = alloca %struct._Guard, align 8
  %__guard.i405 = alloca %struct._Guard, align 8
  %__guard.i395 = alloca %struct._Guard, align 8
  %__guard.i385 = alloca %struct._Guard, align 8
  %__guard.i375 = alloca %struct._Guard, align 8
  %__guard.i365 = alloca %struct._Guard, align 8
  %__guard.i355 = alloca %struct._Guard, align 8
  %__guard.i345 = alloca %struct._Guard, align 8
  %__guard.i335 = alloca %struct._Guard, align 8
  %__guard.i325 = alloca %struct._Guard, align 8
  %__guard.i315 = alloca %struct._Guard, align 8
  %__guard.i305 = alloca %struct._Guard, align 8
  %__guard.i295 = alloca %struct._Guard, align 8
  %__guard.i285 = alloca %struct._Guard, align 8
  %__guard.i275 = alloca %struct._Guard, align 8
  %__guard.i265 = alloca %struct._Guard, align 8
  %__guard.i255 = alloca %struct._Guard, align 8
  %__guard.i245 = alloca %struct._Guard, align 8
  %__guard.i235 = alloca %struct._Guard, align 8
  %__guard.i225 = alloca %struct._Guard, align 8
  %__guard.i215 = alloca %struct._Guard, align 8
  %__guard.i205 = alloca %struct._Guard, align 8
  %__guard.i195 = alloca %struct._Guard, align 8
  %__guard.i185 = alloca %struct._Guard, align 8
  %__guard.i175 = alloca %struct._Guard, align 8
  %__guard.i165 = alloca %struct._Guard, align 8
  %__guard.i155 = alloca %struct._Guard, align 8
  %__guard.i145 = alloca %struct._Guard, align 8
  %__guard.i135 = alloca %struct._Guard, align 8
  %__guard.i125 = alloca %struct._Guard, align 8
  %__guard.i115 = alloca %struct._Guard, align 8
  %__guard.i105 = alloca %struct._Guard, align 8
  %__guard.i = alloca %struct._Guard, align 8
  %__an.i.i.i = alloca %"struct.std::_Rb_tree<std::__cxx11::basic_string<char>, std::__cxx11::basic_string<char>, std::_Identity<std::__cxx11::basic_string<char>>, std::less<std::__cxx11::basic_string<char>>>::_Alloc_node", align 8
  %ref.tmp.i46 = alloca [48 x %"class.std::__cxx11::basic_string"], align 8
  %ref.tmp1.i47 = alloca %"class.std::allocator", align 1
  %ref.tmp2.i = alloca %"class.std::allocator", align 1
  %ref.tmp6.i = alloca %"class.std::allocator", align 1
  %ref.tmp10.i48 = alloca %"class.std::allocator", align 1
  %ref.tmp14.i = alloca %"class.std::allocator", align 1
  %ref.tmp18.i = alloca %"class.std::allocator", align 1
  %ref.tmp22.i49 = alloca %"class.std::allocator", align 1
  %ref.tmp26.i = alloca %"class.std::allocator", align 1
  %ref.tmp30.i = alloca %"class.std::allocator", align 1
  %ref.tmp34.i = alloca %"class.std::allocator", align 1
  %ref.tmp38.i = alloca %"class.std::allocator", align 1
  %ref.tmp42.i = alloca %"class.std::allocator", align 1
  %ref.tmp46.i = alloca %"class.std::allocator", align 1
  %ref.tmp50.i = alloca %"class.std::allocator", align 1
  %ref.tmp54.i = alloca %"class.std::allocator", align 1
  %ref.tmp58.i = alloca %"class.std::allocator", align 1
  %ref.tmp62.i = alloca %"class.std::allocator", align 1
  %ref.tmp66.i = alloca %"class.std::allocator", align 1
  %ref.tmp70.i = alloca %"class.std::allocator", align 1
  %ref.tmp74.i = alloca %"class.std::allocator", align 1
  %ref.tmp78.i = alloca %"class.std::allocator", align 1
  %ref.tmp82.i = alloca %"class.std::allocator", align 1
  %ref.tmp86.i = alloca %"class.std::allocator", align 1
  %ref.tmp90.i = alloca %"class.std::allocator", align 1
  %ref.tmp94.i = alloca %"class.std::allocator", align 1
  %ref.tmp98.i = alloca %"class.std::allocator", align 1
  %ref.tmp102.i = alloca %"class.std::allocator", align 1
  %ref.tmp106.i = alloca %"class.std::allocator", align 1
  %ref.tmp110.i = alloca %"class.std::allocator", align 1
  %ref.tmp114.i = alloca %"class.std::allocator", align 1
  %ref.tmp118.i = alloca %"class.std::allocator", align 1
  %ref.tmp122.i = alloca %"class.std::allocator", align 1
  %ref.tmp126.i = alloca %"class.std::allocator", align 1
  %ref.tmp130.i = alloca %"class.std::allocator", align 1
  %ref.tmp134.i = alloca %"class.std::allocator", align 1
  %ref.tmp138.i = alloca %"class.std::allocator", align 1
  %ref.tmp142.i = alloca %"class.std::allocator", align 1
  %ref.tmp146.i = alloca %"class.std::allocator", align 1
  %ref.tmp150.i = alloca %"class.std::allocator", align 1
  %ref.tmp154.i = alloca %"class.std::allocator", align 1
  %ref.tmp158.i = alloca %"class.std::allocator", align 1
  %ref.tmp162.i = alloca %"class.std::allocator", align 1
  %ref.tmp166.i = alloca %"class.std::allocator", align 1
  %ref.tmp170.i = alloca %"class.std::allocator", align 1
  %ref.tmp174.i = alloca %"class.std::allocator", align 1
  %ref.tmp178.i = alloca %"class.std::allocator", align 1
  %ref.tmp182.i = alloca %"class.std::allocator", align 1
  %ref.tmp186.i = alloca %"class.std::allocator", align 1
  %ref.tmp.i = alloca %"class.std::allocator", align 1
  %ref.tmp1.i = alloca %"class.std::allocator", align 1
  %ref.tmp4.i = alloca %"class.std::allocator", align 1
  %ref.tmp7.i = alloca %"class.std::allocator", align 1
  %ref.tmp10.i = alloca %"class.std::allocator", align 1
  %ref.tmp13.i = alloca %"class.std::allocator", align 1
  %ref.tmp16.i = alloca %"class.std::allocator", align 1
  %ref.tmp19.i = alloca %"class.std::allocator", align 1
  %ref.tmp22.i = alloca %"class.std::allocator", align 1
  %agg.tmp = alloca %"class.std::__cxx11::basic_string", align 8
  %ref.tmp = alloca %"class.std::allocator", align 1
  %agg.tmp2 = alloca %"class.std::__cxx11::basic_string", align 8
  %ref.tmp3 = alloca %"class.std::allocator", align 1
  %agg.tmp6 = alloca %"class.std::__cxx11::basic_string", align 8
  %ref.tmp7 = alloca %"class.std::allocator", align 1
  %agg.tmp16 = alloca %"struct.flatbuffers::Namer::Config", align 8
  %ref.tmp17 = alloca %"struct.flatbuffers::Namer::Config", align 16
  %agg.tmp22 = alloca %"class.std::set.103", align 8
  call void @_ZNSaIcEC1Ev(ptr noundef nonnull align 1 dereferenceable(1) %ref.tmp) #21
  %call.i11 = invoke noundef ptr @_ZNSt7__cxx1112basic_stringIcSt11char_traitsIcESaIcEE13_M_local_dataEv(ptr noundef nonnull align 8 dereferenceable(32) %agg.tmp)
          to label %call.i.noexc unwind label %lpad

call.i.noexc:                                     ; preds = %entry
  invoke void @_ZNSt7__cxx1112basic_stringIcSt11char_traitsIcESaIcEE12_Alloc_hiderC1EPcRKS3_(ptr noundef nonnull align 8 dereferenceable(8) %agg.tmp, ptr noundef %call.i11, ptr noundef nonnull align 1 dereferenceable(1) %ref.tmp)
          to label %.noexc unwind label %lpad

.noexc:                                           ; preds = %call.i.noexc
  invoke void @_ZNSt7__cxx1112basic_stringIcSt11char_traitsIcESaIcEE12_M_constructIPKcEEvT_S8_St20forward_iterator_tag(ptr noundef nonnull align 8 dereferenceable(32) %agg.tmp, ptr noundef nonnull @.str, ptr noundef nonnull @.str)
          to label %invoke.cont unwind label %lpad.i

lpad.i:                                           ; preds = %.noexc
  %0 = landingpad { ptr, i32 }
          cleanup
  call void @_ZNSaIcED2Ev(ptr noundef nonnull align 1 dereferenceable(1) %agg.tmp) #21
  br label %ehcleanup15

invoke.cont:                                      ; preds = %.noexc
  call void @_ZNSaIcEC1Ev(ptr noundef nonnull align 1 dereferenceable(1) %ref.tmp3) #21
  %call.i16 = invoke noundef ptr @_ZNSt7__cxx1112basic_stringIcSt11char_traitsIcESaIcEE13_M_local_dataEv(ptr noundef nonnull align 8 dereferenceable(32) %agg.tmp2)
          to label %call.i.noexc15 unwind label %lpad4

call.i.noexc15:                                   ; preds = %invoke.cont
  invoke void @_ZNSt7__cxx1112basic_stringIcSt11char_traitsIcESaIcEE12_Alloc_hiderC1EPcRKS3_(ptr noundef nonnull align 8 dereferenceable(8) %agg.tmp2, ptr noundef %call.i16, ptr noundef nonnull align 1 dereferenceable(1) %ref.tmp3)
          to label %.noexc17 unwind label %lpad4

.noexc17:                                         ; preds = %call.i.noexc15
  invoke void @_ZNSt7__cxx1112basic_stringIcSt11char_traitsIcESaIcEE12_M_constructIPKcEEvT_S8_St20forward_iterator_tag(ptr noundef nonnull align 8 dereferenceable(32) %agg.tmp2, ptr noundef nonnull @.str.1, ptr noundef nonnull getelementptr inbounds ([2 x i8], ptr @.str.1, i64 0, i64 1))
          to label %invoke.cont5 unwind label %lpad.i14

lpad.i14:                                         ; preds = %.noexc17
  %1 = landingpad { ptr, i32 }
          cleanup
  call void @_ZNSaIcED2Ev(ptr noundef nonnull align 1 dereferenceable(1) %agg.tmp2) #21
  br label %ehcleanup13

invoke.cont5:                                     ; preds = %.noexc17
  call void @_ZNSaIcEC1Ev(ptr noundef nonnull align 1 dereferenceable(1) %ref.tmp7) #21
  %call.i24 = invoke noundef ptr @_ZNSt7__cxx1112basic_stringIcSt11char_traitsIcESaIcEE13_M_local_dataEv(ptr noundef nonnull align 8 dereferenceable(32) %agg.tmp6)
          to label %call.i.noexc23 unwind label %lpad8

call.i.noexc23:                                   ; preds = %invoke.cont5
  invoke void @_ZNSt7__cxx1112basic_stringIcSt11char_traitsIcESaIcEE12_Alloc_hiderC1EPcRKS3_(ptr noundef nonnull align 8 dereferenceable(8) %agg.tmp6, ptr noundef %call.i24, ptr noundef nonnull align 1 dereferenceable(1) %ref.tmp7)
          to label %.noexc25 unwind label %lpad8

.noexc25:                                         ; preds = %call.i.noexc23
  invoke void @_ZNSt7__cxx1112basic_stringIcSt11char_traitsIcESaIcEE12_M_constructIPKcEEvT_S8_St20forward_iterator_tag(ptr noundef nonnull align 8 dereferenceable(32) %agg.tmp6, ptr noundef nonnull @.str.2, ptr noundef nonnull getelementptr inbounds ([3 x i8], ptr @.str.2, i64 0, i64 2))
          to label %invoke.cont9 unwind label %lpad.i22

lpad.i22:                                         ; preds = %.noexc25
  %2 = landingpad { ptr, i32 }
          cleanup
  call void @_ZNSaIcED2Ev(ptr noundef nonnull align 1 dereferenceable(1) %agg.tmp6) #21
  br label %ehcleanup

invoke.cont9:                                     ; preds = %.noexc25
  store ptr getelementptr inbounds ({ [6 x ptr] }, ptr @_ZTVN11flatbuffers13BaseGeneratorE, i64 0, inrange i32 0, i64 2), ptr %this, align 8
  %parser_.i = getelementptr inbounds %"class.flatbuffers::BaseGenerator", ptr %this, i64 0, i32 1
  store ptr %parser, ptr %parser_.i, align 8
  %path_.i = getelementptr inbounds %"class.flatbuffers::BaseGenerator", ptr %this, i64 0, i32 2
  store ptr %path, ptr %path_.i, align 8
  %file_name_.i = getelementptr inbounds %"class.flatbuffers::BaseGenerator", ptr %this, i64 0, i32 3
  store ptr %file_name, ptr %file_name_.i, align 8
  %qualifying_start_.i = getelementptr inbounds %"class.flatbuffers::BaseGenerator", ptr %this, i64 0, i32 4
  invoke void @_ZNSt7__cxx1112basic_stringIcSt11char_traitsIcESaIcEEC1ERKS4_(ptr noundef nonnull align 8 dereferenceable(32) %qualifying_start_.i, ptr noundef nonnull align 8 dereferenceable(32) %agg.tmp)
          to label %.noexc29 unwind label %lpad10

.noexc29:                                         ; preds = %invoke.cont9
  %qualifying_separator_.i = getelementptr inbounds %"class.flatbuffers::BaseGenerator", ptr %this, i64 0, i32 5
  invoke void @_ZNSt7__cxx1112basic_stringIcSt11char_traitsIcESaIcEEC1ERKS4_(ptr noundef nonnull align 8 dereferenceable(32) %qualifying_separator_.i, ptr noundef nonnull align 8 dereferenceable(32) %agg.tmp2)
          to label %invoke.cont.i unwind label %lpad.i28

invoke.cont.i:                                    ; preds = %.noexc29
  %default_extension_.i = getelementptr inbounds %"class.flatbuffers::BaseGenerator", ptr %this, i64 0, i32 6
  invoke void @_ZNSt7__cxx1112basic_stringIcSt11char_traitsIcESaIcEEC1ERKS4_(ptr noundef nonnull align 8 dereferenceable(32) %default_extension_.i, ptr noundef nonnull align 8 dereferenceable(32) %agg.tmp6)
          to label %invoke.cont11 unwind label %lpad2.i

lpad.i28:                                         ; preds = %.noexc29
  %3 = landingpad { ptr, i32 }
          cleanup
  br label %ehcleanup.i

lpad2.i:                                          ; preds = %invoke.cont.i
  %4 = landingpad { ptr, i32 }
          cleanup
  call void @_ZNSt7__cxx1112basic_stringIcSt11char_traitsIcESaIcEED1Ev(ptr noundef nonnull align 8 dereferenceable(32) %qualifying_separator_.i) #21
  br label %ehcleanup.i

ehcleanup.i:                                      ; preds = %lpad2.i, %lpad.i28
  %.pn.i = phi { ptr, i32 } [ %4, %lpad2.i ], [ %3, %lpad.i28 ]
  call void @_ZNSt7__cxx1112basic_stringIcSt11char_traitsIcESaIcEED1Ev(ptr noundef nonnull align 8 dereferenceable(32) %qualifying_start_.i) #21
  br label %lpad10.body

invoke.cont11:                                    ; preds = %invoke.cont.i
  call void @_ZNSt7__cxx1112basic_stringIcSt11char_traitsIcESaIcEED1Ev(ptr noundef nonnull align 8 dereferenceable(32) %agg.tmp6) #21
  call void @_ZNSaIcED1Ev(ptr noundef nonnull align 1 dereferenceable(1) %ref.tmp7) #21
  call void @_ZNSt7__cxx1112basic_stringIcSt11char_traitsIcESaIcEED1Ev(ptr noundef nonnull align 8 dereferenceable(32) %agg.tmp2) #21
  call void @_ZNSaIcED1Ev(ptr noundef nonnull align 1 dereferenceable(1) %ref.tmp3) #21
  call void @_ZNSt7__cxx1112basic_stringIcSt11char_traitsIcESaIcEED1Ev(ptr noundef nonnull align 8 dereferenceable(32) %agg.tmp) #21
  call void @_ZNSaIcED1Ev(ptr noundef nonnull align 1 dereferenceable(1) %ref.tmp) #21
  store ptr getelementptr inbounds ({ [6 x ptr] }, ptr @_ZTVN11flatbuffers2ts11TsGeneratorE, i64 0, inrange i32 0, i64 2), ptr %this, align 8
  %namer_ = getelementptr inbounds %"class.flatbuffers::ts::TsGenerator", ptr %this, i64 0, i32 1
  call void @llvm.experimental.noalias.scope.decl(metadata !10)
  call void @llvm.lifetime.start.p0(i64 1, ptr nonnull %ref.tmp.i)
  call void @llvm.lifetime.start.p0(i64 1, ptr nonnull %ref.tmp1.i)
  call void @llvm.lifetime.start.p0(i64 1, ptr nonnull %ref.tmp4.i)
  call void @llvm.lifetime.start.p0(i64 1, ptr nonnull %ref.tmp7.i)
  call void @llvm.lifetime.start.p0(i64 1, ptr nonnull %ref.tmp10.i)
  call void @llvm.lifetime.start.p0(i64 1, ptr nonnull %ref.tmp13.i)
  call void @llvm.lifetime.start.p0(i64 1, ptr nonnull %ref.tmp16.i)
  call void @llvm.lifetime.start.p0(i64 1, ptr nonnull %ref.tmp19.i)
  call void @llvm.lifetime.start.p0(i64 1, ptr nonnull %ref.tmp22.i)
  store <4 x i32> <i32 8, i32 0, i32 2, i32 2>, ptr %ref.tmp17, align 16, !alias.scope !10
  %fields.i = getelementptr inbounds %"struct.flatbuffers::Namer::Config", ptr %ref.tmp17, i64 0, i32 4
  store i32 2, ptr %fields.i, align 16, !alias.scope !10
  %variables.i = getelementptr inbounds %"struct.flatbuffers::Namer::Config", ptr %ref.tmp17, i64 0, i32 5
  store i32 2, ptr %variables.i, align 4, !alias.scope !10
  %variants.i = getelementptr inbounds %"struct.flatbuffers::Namer::Config", ptr %ref.tmp17, i64 0, i32 6
  store i32 8, ptr %variants.i, align 8, !alias.scope !10
  %enum_variant_seperator.i = getelementptr inbounds %"struct.flatbuffers::Namer::Config", ptr %ref.tmp17, i64 0, i32 7
  call void @_ZNSaIcEC1Ev(ptr noundef nonnull align 1 dereferenceable(1) %ref.tmp.i) #21, !noalias !10
  %call.i9.i = invoke noundef ptr @_ZNSt7__cxx1112basic_stringIcSt11char_traitsIcESaIcEE13_M_local_dataEv(ptr noundef nonnull align 8 dereferenceable(32) %enum_variant_seperator.i)
          to label %call.i.noexc.i unwind label %lpad.i31

call.i.noexc.i:                                   ; preds = %invoke.cont11
  invoke void @_ZNSt7__cxx1112basic_stringIcSt11char_traitsIcESaIcEE12_Alloc_hiderC1EPcRKS3_(ptr noundef nonnull align 8 dereferenceable(8) %enum_variant_seperator.i, ptr noundef %call.i9.i, ptr noundef nonnull align 1 dereferenceable(1) %ref.tmp.i)
          to label %.noexc.i unwind label %lpad.i31

.noexc.i:                                         ; preds = %call.i.noexc.i
  call void @llvm.lifetime.start.p0(i64 8, ptr nonnull %__guard.i175)
  %call.i.i176 = invoke noundef ptr @_ZNSt7__cxx1112basic_stringIcSt11char_traitsIcESaIcEE13_M_local_dataEv(ptr noundef nonnull align 8 dereferenceable(32) %enum_variant_seperator.i)
          to label %if.end.i178 unwind label %terminate.lpad.i.i177

terminate.lpad.i.i177:                            ; preds = %.noexc.i
  %5 = landingpad { ptr, i32 }
          catch ptr null
  %6 = extractvalue { ptr, i32 } %5, 0
  call void @__clang_call_terminate(ptr %6) #24
  unreachable

if.end.i178:                                      ; preds = %.noexc.i
  store ptr %enum_variant_seperator.i, ptr %__guard.i175, align 8
  %call4.i179 = invoke noundef ptr @_ZNKSt7__cxx1112basic_stringIcSt11char_traitsIcESaIcEE7_M_dataEv(ptr noundef nonnull align 8 dereferenceable(32) %enum_variant_seperator.i)
          to label %invoke.cont.i181 unwind label %lpad.i180

invoke.cont.i181:                                 ; preds = %if.end.i178
  call void @_ZNSt7__cxx1112basic_stringIcSt11char_traitsIcESaIcEE13_S_copy_charsEPcPKcS7_(ptr noundef %call4.i179, ptr noundef nonnull @.str.4, ptr noundef nonnull getelementptr inbounds ([3 x i8], ptr @.str.4, i64 0, i64 2)) #21
  store ptr null, ptr %__guard.i175, align 8
  invoke void @_ZNSt7__cxx1112basic_stringIcSt11char_traitsIcESaIcEE13_M_set_lengthEm(ptr noundef nonnull align 8 dereferenceable(32) %enum_variant_seperator.i, i64 noundef 2)
          to label %invoke.cont.i32 unwind label %lpad.i180

lpad.i180:                                        ; preds = %invoke.cont.i181, %if.end.i178
  %7 = landingpad { ptr, i32 }
          cleanup
  call void @_ZZNSt7__cxx1112basic_stringIcSt11char_traitsIcESaIcEE12_M_constructIPKcEEvT_S8_St20forward_iterator_tagEN6_GuardD2Ev(ptr noundef nonnull align 8 dereferenceable(8) %__guard.i175) #21
  call void @_ZNSaIcED2Ev(ptr noundef nonnull align 1 dereferenceable(1) %enum_variant_seperator.i) #21
  br label %ehcleanup66.i

invoke.cont.i32:                                  ; preds = %invoke.cont.i181
  call void @llvm.lifetime.end.p0(i64 8, ptr nonnull %__guard.i175)
  %escape_keywords.i = getelementptr inbounds %"struct.flatbuffers::Namer::Config", ptr %ref.tmp17, i64 0, i32 8
  store i32 1, ptr %escape_keywords.i, align 16, !alias.scope !10
  %namespaces.i = getelementptr inbounds %"struct.flatbuffers::Namer::Config", ptr %ref.tmp17, i64 0, i32 9
  store i32 8, ptr %namespaces.i, align 4, !alias.scope !10
  %namespace_seperator.i = getelementptr inbounds %"struct.flatbuffers::Namer::Config", ptr %ref.tmp17, i64 0, i32 10
  call void @_ZNSaIcEC1Ev(ptr noundef nonnull align 1 dereferenceable(1) %ref.tmp1.i) #21
  %call.i14.i = invoke noundef ptr @_ZNSt7__cxx1112basic_stringIcSt11char_traitsIcESaIcEE13_M_local_dataEv(ptr noundef nonnull align 8 dereferenceable(32) %namespace_seperator.i)
          to label %call.i.noexc13.i unwind label %lpad2.i33

call.i.noexc13.i:                                 ; preds = %invoke.cont.i32
  invoke void @_ZNSt7__cxx1112basic_stringIcSt11char_traitsIcESaIcEE12_Alloc_hiderC1EPcRKS3_(ptr noundef nonnull align 8 dereferenceable(8) %namespace_seperator.i, ptr noundef %call.i14.i, ptr noundef nonnull align 1 dereferenceable(1) %ref.tmp1.i)
          to label %.noexc15.i unwind label %lpad2.i33

.noexc15.i:                                       ; preds = %call.i.noexc13.i
  call void @llvm.lifetime.start.p0(i64 8, ptr nonnull %__guard.i165)
  %call.i.i166 = invoke noundef ptr @_ZNSt7__cxx1112basic_stringIcSt11char_traitsIcESaIcEE13_M_local_dataEv(ptr noundef nonnull align 8 dereferenceable(32) %namespace_seperator.i)
          to label %if.end.i168 unwind label %terminate.lpad.i.i167

terminate.lpad.i.i167:                            ; preds = %.noexc15.i
  %8 = landingpad { ptr, i32 }
          catch ptr null
  %9 = extractvalue { ptr, i32 } %8, 0
  call void @__clang_call_terminate(ptr %9) #24
  unreachable

if.end.i168:                                      ; preds = %.noexc15.i
  store ptr %namespace_seperator.i, ptr %__guard.i165, align 8
  %call4.i169 = invoke noundef ptr @_ZNKSt7__cxx1112basic_stringIcSt11char_traitsIcESaIcEE7_M_dataEv(ptr noundef nonnull align 8 dereferenceable(32) %namespace_seperator.i)
          to label %invoke.cont.i171 unwind label %lpad.i170

invoke.cont.i171:                                 ; preds = %if.end.i168
  call void @_ZNSt7__cxx1112basic_stringIcSt11char_traitsIcESaIcEE13_S_copy_charsEPcPKcS7_(ptr noundef %call4.i169, ptr noundef nonnull @.str.1, ptr noundef nonnull getelementptr inbounds ([2 x i8], ptr @.str.1, i64 0, i64 1)) #21
  store ptr null, ptr %__guard.i165, align 8
  invoke void @_ZNSt7__cxx1112basic_stringIcSt11char_traitsIcESaIcEE13_M_set_lengthEm(ptr noundef nonnull align 8 dereferenceable(32) %namespace_seperator.i, i64 noundef 1)
          to label %invoke.cont3.i unwind label %lpad.i170

lpad.i170:                                        ; preds = %invoke.cont.i171, %if.end.i168
  %10 = landingpad { ptr, i32 }
          cleanup
  call void @_ZZNSt7__cxx1112basic_stringIcSt11char_traitsIcESaIcEE12_M_constructIPKcEEvT_S8_St20forward_iterator_tagEN6_GuardD2Ev(ptr noundef nonnull align 8 dereferenceable(8) %__guard.i165) #21
  call void @_ZNSaIcED2Ev(ptr noundef nonnull align 1 dereferenceable(1) %namespace_seperator.i) #21
  br label %ehcleanup61.i

invoke.cont3.i:                                   ; preds = %invoke.cont.i171
  call void @llvm.lifetime.end.p0(i64 8, ptr nonnull %__guard.i165)
  %object_prefix.i = getelementptr inbounds %"struct.flatbuffers::Namer::Config", ptr %ref.tmp17, i64 0, i32 11
  call void @_ZNSaIcEC1Ev(ptr noundef nonnull align 1 dereferenceable(1) %ref.tmp4.i) #21
  %call.i22.i = invoke noundef ptr @_ZNSt7__cxx1112basic_stringIcSt11char_traitsIcESaIcEE13_M_local_dataEv(ptr noundef nonnull align 8 dereferenceable(32) %object_prefix.i)
          to label %call.i.noexc21.i unwind label %lpad5.i

call.i.noexc21.i:                                 ; preds = %invoke.cont3.i
  invoke void @_ZNSt7__cxx1112basic_stringIcSt11char_traitsIcESaIcEE12_Alloc_hiderC1EPcRKS3_(ptr noundef nonnull align 8 dereferenceable(8) %object_prefix.i, ptr noundef %call.i22.i, ptr noundef nonnull align 1 dereferenceable(1) %ref.tmp4.i)
          to label %.noexc23.i unwind label %lpad5.i

.noexc23.i:                                       ; preds = %call.i.noexc21.i
  call void @llvm.lifetime.start.p0(i64 8, ptr nonnull %__guard.i155)
  %call.i.i156 = invoke noundef ptr @_ZNSt7__cxx1112basic_stringIcSt11char_traitsIcESaIcEE13_M_local_dataEv(ptr noundef nonnull align 8 dereferenceable(32) %object_prefix.i)
          to label %if.end.i158 unwind label %terminate.lpad.i.i157

terminate.lpad.i.i157:                            ; preds = %.noexc23.i
  %11 = landingpad { ptr, i32 }
          catch ptr null
  %12 = extractvalue { ptr, i32 } %11, 0
  call void @__clang_call_terminate(ptr %12) #24
  unreachable

if.end.i158:                                      ; preds = %.noexc23.i
  store ptr %object_prefix.i, ptr %__guard.i155, align 8
  %call4.i159 = invoke noundef ptr @_ZNKSt7__cxx1112basic_stringIcSt11char_traitsIcESaIcEE7_M_dataEv(ptr noundef nonnull align 8 dereferenceable(32) %object_prefix.i)
          to label %invoke.cont.i161 unwind label %lpad.i160

invoke.cont.i161:                                 ; preds = %if.end.i158
  call void @_ZNSt7__cxx1112basic_stringIcSt11char_traitsIcESaIcEE13_S_copy_charsEPcPKcS7_(ptr noundef %call4.i159, ptr noundef nonnull @.str, ptr noundef nonnull @.str) #21
  store ptr null, ptr %__guard.i155, align 8
  invoke void @_ZNSt7__cxx1112basic_stringIcSt11char_traitsIcESaIcEE13_M_set_lengthEm(ptr noundef nonnull align 8 dereferenceable(32) %object_prefix.i, i64 noundef 0)
          to label %invoke.cont6.i unwind label %lpad.i160

lpad.i160:                                        ; preds = %invoke.cont.i161, %if.end.i158
  %13 = landingpad { ptr, i32 }
          cleanup
  call void @_ZZNSt7__cxx1112basic_stringIcSt11char_traitsIcESaIcEE12_M_constructIPKcEEvT_S8_St20forward_iterator_tagEN6_GuardD2Ev(ptr noundef nonnull align 8 dereferenceable(8) %__guard.i155) #21
  call void @_ZNSaIcED2Ev(ptr noundef nonnull align 1 dereferenceable(1) %object_prefix.i) #21
  br label %ehcleanup56.i

invoke.cont6.i:                                   ; preds = %invoke.cont.i161
  call void @llvm.lifetime.end.p0(i64 8, ptr nonnull %__guard.i155)
  %object_suffix.i = getelementptr inbounds %"struct.flatbuffers::Namer::Config", ptr %ref.tmp17, i64 0, i32 12
  call void @_ZNSaIcEC1Ev(ptr noundef nonnull align 1 dereferenceable(1) %ref.tmp7.i) #21
  %call.i30.i = invoke noundef ptr @_ZNSt7__cxx1112basic_stringIcSt11char_traitsIcESaIcEE13_M_local_dataEv(ptr noundef nonnull align 8 dereferenceable(32) %object_suffix.i)
          to label %call.i.noexc29.i unwind label %lpad8.i

call.i.noexc29.i:                                 ; preds = %invoke.cont6.i
  invoke void @_ZNSt7__cxx1112basic_stringIcSt11char_traitsIcESaIcEE12_Alloc_hiderC1EPcRKS3_(ptr noundef nonnull align 8 dereferenceable(8) %object_suffix.i, ptr noundef %call.i30.i, ptr noundef nonnull align 1 dereferenceable(1) %ref.tmp7.i)
          to label %.noexc31.i unwind label %lpad8.i

.noexc31.i:                                       ; preds = %call.i.noexc29.i
  call void @llvm.lifetime.start.p0(i64 8, ptr nonnull %__guard.i145)
  %call.i.i146 = invoke noundef ptr @_ZNSt7__cxx1112basic_stringIcSt11char_traitsIcESaIcEE13_M_local_dataEv(ptr noundef nonnull align 8 dereferenceable(32) %object_suffix.i)
          to label %if.end.i148 unwind label %terminate.lpad.i.i147

terminate.lpad.i.i147:                            ; preds = %.noexc31.i
  %14 = landingpad { ptr, i32 }
          catch ptr null
  %15 = extractvalue { ptr, i32 } %14, 0
  call void @__clang_call_terminate(ptr %15) #24
  unreachable

if.end.i148:                                      ; preds = %.noexc31.i
  store ptr %object_suffix.i, ptr %__guard.i145, align 8
  %call4.i149 = invoke noundef ptr @_ZNKSt7__cxx1112basic_stringIcSt11char_traitsIcESaIcEE7_M_dataEv(ptr noundef nonnull align 8 dereferenceable(32) %object_suffix.i)
          to label %invoke.cont.i151 unwind label %lpad.i150

invoke.cont.i151:                                 ; preds = %if.end.i148
  call void @_ZNSt7__cxx1112basic_stringIcSt11char_traitsIcESaIcEE13_S_copy_charsEPcPKcS7_(ptr noundef %call4.i149, ptr noundef nonnull @.str.5, ptr noundef nonnull getelementptr inbounds ([2 x i8], ptr @.str.5, i64 0, i64 1)) #21
  store ptr null, ptr %__guard.i145, align 8
  invoke void @_ZNSt7__cxx1112basic_stringIcSt11char_traitsIcESaIcEE13_M_set_lengthEm(ptr noundef nonnull align 8 dereferenceable(32) %object_suffix.i, i64 noundef 1)
          to label %invoke.cont9.i unwind label %lpad.i150

lpad.i150:                                        ; preds = %invoke.cont.i151, %if.end.i148
  %16 = landingpad { ptr, i32 }
          cleanup
  call void @_ZZNSt7__cxx1112basic_stringIcSt11char_traitsIcESaIcEE12_M_constructIPKcEEvT_S8_St20forward_iterator_tagEN6_GuardD2Ev(ptr noundef nonnull align 8 dereferenceable(8) %__guard.i145) #21
  call void @_ZNSaIcED2Ev(ptr noundef nonnull align 1 dereferenceable(1) %object_suffix.i) #21
  br label %ehcleanup51.i

invoke.cont9.i:                                   ; preds = %invoke.cont.i151
  call void @llvm.lifetime.end.p0(i64 8, ptr nonnull %__guard.i145)
  %keyword_prefix.i = getelementptr inbounds %"struct.flatbuffers::Namer::Config", ptr %ref.tmp17, i64 0, i32 13
  call void @_ZNSaIcEC1Ev(ptr noundef nonnull align 1 dereferenceable(1) %ref.tmp10.i) #21
  %call.i38.i = invoke noundef ptr @_ZNSt7__cxx1112basic_stringIcSt11char_traitsIcESaIcEE13_M_local_dataEv(ptr noundef nonnull align 8 dereferenceable(32) %keyword_prefix.i)
          to label %call.i.noexc37.i unwind label %lpad11.i

call.i.noexc37.i:                                 ; preds = %invoke.cont9.i
  invoke void @_ZNSt7__cxx1112basic_stringIcSt11char_traitsIcESaIcEE12_Alloc_hiderC1EPcRKS3_(ptr noundef nonnull align 8 dereferenceable(8) %keyword_prefix.i, ptr noundef %call.i38.i, ptr noundef nonnull align 1 dereferenceable(1) %ref.tmp10.i)
          to label %.noexc39.i unwind label %lpad11.i

.noexc39.i:                                       ; preds = %call.i.noexc37.i
  call void @llvm.lifetime.start.p0(i64 8, ptr nonnull %__guard.i135)
  %call.i.i136 = invoke noundef ptr @_ZNSt7__cxx1112basic_stringIcSt11char_traitsIcESaIcEE13_M_local_dataEv(ptr noundef nonnull align 8 dereferenceable(32) %keyword_prefix.i)
          to label %if.end.i138 unwind label %terminate.lpad.i.i137

terminate.lpad.i.i137:                            ; preds = %.noexc39.i
  %17 = landingpad { ptr, i32 }
          catch ptr null
  %18 = extractvalue { ptr, i32 } %17, 0
  call void @__clang_call_terminate(ptr %18) #24
  unreachable

if.end.i138:                                      ; preds = %.noexc39.i
  store ptr %keyword_prefix.i, ptr %__guard.i135, align 8
  %call4.i139 = invoke noundef ptr @_ZNKSt7__cxx1112basic_stringIcSt11char_traitsIcESaIcEE7_M_dataEv(ptr noundef nonnull align 8 dereferenceable(32) %keyword_prefix.i)
          to label %invoke.cont.i141 unwind label %lpad.i140

invoke.cont.i141:                                 ; preds = %if.end.i138
  call void @_ZNSt7__cxx1112basic_stringIcSt11char_traitsIcESaIcEE13_S_copy_charsEPcPKcS7_(ptr noundef %call4.i139, ptr noundef nonnull @.str, ptr noundef nonnull @.str) #21
  store ptr null, ptr %__guard.i135, align 8
  invoke void @_ZNSt7__cxx1112basic_stringIcSt11char_traitsIcESaIcEE13_M_set_lengthEm(ptr noundef nonnull align 8 dereferenceable(32) %keyword_prefix.i, i64 noundef 0)
          to label %invoke.cont12.i unwind label %lpad.i140

lpad.i140:                                        ; preds = %invoke.cont.i141, %if.end.i138
  %19 = landingpad { ptr, i32 }
          cleanup
  call void @_ZZNSt7__cxx1112basic_stringIcSt11char_traitsIcESaIcEE12_M_constructIPKcEEvT_S8_St20forward_iterator_tagEN6_GuardD2Ev(ptr noundef nonnull align 8 dereferenceable(8) %__guard.i135) #21
  call void @_ZNSaIcED2Ev(ptr noundef nonnull align 1 dereferenceable(1) %keyword_prefix.i) #21
  br label %ehcleanup46.i

invoke.cont12.i:                                  ; preds = %invoke.cont.i141
  call void @llvm.lifetime.end.p0(i64 8, ptr nonnull %__guard.i135)
  %keyword_suffix.i = getelementptr inbounds %"struct.flatbuffers::Namer::Config", ptr %ref.tmp17, i64 0, i32 14
  call void @_ZNSaIcEC1Ev(ptr noundef nonnull align 1 dereferenceable(1) %ref.tmp13.i) #21
  %call.i46.i = invoke noundef ptr @_ZNSt7__cxx1112basic_stringIcSt11char_traitsIcESaIcEE13_M_local_dataEv(ptr noundef nonnull align 8 dereferenceable(32) %keyword_suffix.i)
          to label %call.i.noexc45.i unwind label %lpad14.i

call.i.noexc45.i:                                 ; preds = %invoke.cont12.i
  invoke void @_ZNSt7__cxx1112basic_stringIcSt11char_traitsIcESaIcEE12_Alloc_hiderC1EPcRKS3_(ptr noundef nonnull align 8 dereferenceable(8) %keyword_suffix.i, ptr noundef %call.i46.i, ptr noundef nonnull align 1 dereferenceable(1) %ref.tmp13.i)
          to label %.noexc47.i unwind label %lpad14.i

.noexc47.i:                                       ; preds = %call.i.noexc45.i
  call void @llvm.lifetime.start.p0(i64 8, ptr nonnull %__guard.i125)
  %call.i.i126 = invoke noundef ptr @_ZNSt7__cxx1112basic_stringIcSt11char_traitsIcESaIcEE13_M_local_dataEv(ptr noundef nonnull align 8 dereferenceable(32) %keyword_suffix.i)
          to label %if.end.i128 unwind label %terminate.lpad.i.i127

terminate.lpad.i.i127:                            ; preds = %.noexc47.i
  %20 = landingpad { ptr, i32 }
          catch ptr null
  %21 = extractvalue { ptr, i32 } %20, 0
  call void @__clang_call_terminate(ptr %21) #24
  unreachable

if.end.i128:                                      ; preds = %.noexc47.i
  store ptr %keyword_suffix.i, ptr %__guard.i125, align 8
  %call4.i129 = invoke noundef ptr @_ZNKSt7__cxx1112basic_stringIcSt11char_traitsIcESaIcEE7_M_dataEv(ptr noundef nonnull align 8 dereferenceable(32) %keyword_suffix.i)
          to label %invoke.cont.i131 unwind label %lpad.i130

invoke.cont.i131:                                 ; preds = %if.end.i128
  call void @_ZNSt7__cxx1112basic_stringIcSt11char_traitsIcESaIcEE13_S_copy_charsEPcPKcS7_(ptr noundef %call4.i129, ptr noundef nonnull @.str.1, ptr noundef nonnull getelementptr inbounds ([2 x i8], ptr @.str.1, i64 0, i64 1)) #21
  store ptr null, ptr %__guard.i125, align 8
  invoke void @_ZNSt7__cxx1112basic_stringIcSt11char_traitsIcESaIcEE13_M_set_lengthEm(ptr noundef nonnull align 8 dereferenceable(32) %keyword_suffix.i, i64 noundef 1)
          to label %invoke.cont15.i unwind label %lpad.i130

lpad.i130:                                        ; preds = %invoke.cont.i131, %if.end.i128
  %22 = landingpad { ptr, i32 }
          cleanup
  call void @_ZZNSt7__cxx1112basic_stringIcSt11char_traitsIcESaIcEE12_M_constructIPKcEEvT_S8_St20forward_iterator_tagEN6_GuardD2Ev(ptr noundef nonnull align 8 dereferenceable(8) %__guard.i125) #21
  call void @_ZNSaIcED2Ev(ptr noundef nonnull align 1 dereferenceable(1) %keyword_suffix.i) #21
  br label %ehcleanup41.i

invoke.cont15.i:                                  ; preds = %invoke.cont.i131
  call void @llvm.lifetime.end.p0(i64 8, ptr nonnull %__guard.i125)
  %filenames.i = getelementptr inbounds %"struct.flatbuffers::Namer::Config", ptr %ref.tmp17, i64 0, i32 15
  store i32 7, ptr %filenames.i, align 8, !alias.scope !10
  %directories.i = getelementptr inbounds %"struct.flatbuffers::Namer::Config", ptr %ref.tmp17, i64 0, i32 16
  store i32 7, ptr %directories.i, align 4, !alias.scope !10
  %output_path.i = getelementptr inbounds %"struct.flatbuffers::Namer::Config", ptr %ref.tmp17, i64 0, i32 17
  call void @_ZNSaIcEC1Ev(ptr noundef nonnull align 1 dereferenceable(1) %ref.tmp16.i) #21
  %call.i54.i = invoke noundef ptr @_ZNSt7__cxx1112basic_stringIcSt11char_traitsIcESaIcEE13_M_local_dataEv(ptr noundef nonnull align 8 dereferenceable(32) %output_path.i)
          to label %call.i.noexc53.i unwind label %lpad17.i

call.i.noexc53.i:                                 ; preds = %invoke.cont15.i
  invoke void @_ZNSt7__cxx1112basic_stringIcSt11char_traitsIcESaIcEE12_Alloc_hiderC1EPcRKS3_(ptr noundef nonnull align 8 dereferenceable(8) %output_path.i, ptr noundef %call.i54.i, ptr noundef nonnull align 1 dereferenceable(1) %ref.tmp16.i)
          to label %.noexc55.i unwind label %lpad17.i

.noexc55.i:                                       ; preds = %call.i.noexc53.i
  call void @llvm.lifetime.start.p0(i64 8, ptr nonnull %__guard.i115)
  %call.i.i116 = invoke noundef ptr @_ZNSt7__cxx1112basic_stringIcSt11char_traitsIcESaIcEE13_M_local_dataEv(ptr noundef nonnull align 8 dereferenceable(32) %output_path.i)
          to label %if.end.i118 unwind label %terminate.lpad.i.i117

terminate.lpad.i.i117:                            ; preds = %.noexc55.i
  %23 = landingpad { ptr, i32 }
          catch ptr null
  %24 = extractvalue { ptr, i32 } %23, 0
  call void @__clang_call_terminate(ptr %24) #24
  unreachable

if.end.i118:                                      ; preds = %.noexc55.i
  store ptr %output_path.i, ptr %__guard.i115, align 8
  %call4.i119 = invoke noundef ptr @_ZNKSt7__cxx1112basic_stringIcSt11char_traitsIcESaIcEE7_M_dataEv(ptr noundef nonnull align 8 dereferenceable(32) %output_path.i)
          to label %invoke.cont.i121 unwind label %lpad.i120

invoke.cont.i121:                                 ; preds = %if.end.i118
  call void @_ZNSt7__cxx1112basic_stringIcSt11char_traitsIcESaIcEE13_S_copy_charsEPcPKcS7_(ptr noundef %call4.i119, ptr noundef nonnull @.str, ptr noundef nonnull @.str) #21
  store ptr null, ptr %__guard.i115, align 8
  invoke void @_ZNSt7__cxx1112basic_stringIcSt11char_traitsIcESaIcEE13_M_set_lengthEm(ptr noundef nonnull align 8 dereferenceable(32) %output_path.i, i64 noundef 0)
          to label %invoke.cont18.i unwind label %lpad.i120

lpad.i120:                                        ; preds = %invoke.cont.i121, %if.end.i118
  %25 = landingpad { ptr, i32 }
          cleanup
  call void @_ZZNSt7__cxx1112basic_stringIcSt11char_traitsIcESaIcEE12_M_constructIPKcEEvT_S8_St20forward_iterator_tagEN6_GuardD2Ev(ptr noundef nonnull align 8 dereferenceable(8) %__guard.i115) #21
  call void @_ZNSaIcED2Ev(ptr noundef nonnull align 1 dereferenceable(1) %output_path.i) #21
  br label %ehcleanup36.i

invoke.cont18.i:                                  ; preds = %invoke.cont.i121
  call void @llvm.lifetime.end.p0(i64 8, ptr nonnull %__guard.i115)
  %filename_suffix.i = getelementptr inbounds %"struct.flatbuffers::Namer::Config", ptr %ref.tmp17, i64 0, i32 18
  call void @_ZNSaIcEC1Ev(ptr noundef nonnull align 1 dereferenceable(1) %ref.tmp19.i) #21
  %call.i62.i = invoke noundef ptr @_ZNSt7__cxx1112basic_stringIcSt11char_traitsIcESaIcEE13_M_local_dataEv(ptr noundef nonnull align 8 dereferenceable(32) %filename_suffix.i)
          to label %call.i.noexc61.i unwind label %lpad20.i

call.i.noexc61.i:                                 ; preds = %invoke.cont18.i
  invoke void @_ZNSt7__cxx1112basic_stringIcSt11char_traitsIcESaIcEE12_Alloc_hiderC1EPcRKS3_(ptr noundef nonnull align 8 dereferenceable(8) %filename_suffix.i, ptr noundef %call.i62.i, ptr noundef nonnull align 1 dereferenceable(1) %ref.tmp19.i)
          to label %.noexc63.i unwind label %lpad20.i

.noexc63.i:                                       ; preds = %call.i.noexc61.i
  call void @llvm.lifetime.start.p0(i64 8, ptr nonnull %__guard.i105)
  %call.i.i106 = invoke noundef ptr @_ZNSt7__cxx1112basic_stringIcSt11char_traitsIcESaIcEE13_M_local_dataEv(ptr noundef nonnull align 8 dereferenceable(32) %filename_suffix.i)
          to label %if.end.i108 unwind label %terminate.lpad.i.i107

terminate.lpad.i.i107:                            ; preds = %.noexc63.i
  %26 = landingpad { ptr, i32 }
          catch ptr null
  %27 = extractvalue { ptr, i32 } %26, 0
  call void @__clang_call_terminate(ptr %27) #24
  unreachable

if.end.i108:                                      ; preds = %.noexc63.i
  store ptr %filename_suffix.i, ptr %__guard.i105, align 8
  %call4.i109 = invoke noundef ptr @_ZNKSt7__cxx1112basic_stringIcSt11char_traitsIcESaIcEE7_M_dataEv(ptr noundef nonnull align 8 dereferenceable(32) %filename_suffix.i)
          to label %invoke.cont.i111 unwind label %lpad.i110

invoke.cont.i111:                                 ; preds = %if.end.i108
  call void @_ZNSt7__cxx1112basic_stringIcSt11char_traitsIcESaIcEE13_S_copy_charsEPcPKcS7_(ptr noundef %call4.i109, ptr noundef nonnull @.str.6, ptr noundef nonnull getelementptr inbounds ([11 x i8], ptr @.str.6, i64 0, i64 10)) #21
  store ptr null, ptr %__guard.i105, align 8
  invoke void @_ZNSt7__cxx1112basic_stringIcSt11char_traitsIcESaIcEE13_M_set_lengthEm(ptr noundef nonnull align 8 dereferenceable(32) %filename_suffix.i, i64 noundef 10)
          to label %invoke.cont21.i unwind label %lpad.i110

lpad.i110:                                        ; preds = %invoke.cont.i111, %if.end.i108
  %28 = landingpad { ptr, i32 }
          cleanup
  call void @_ZZNSt7__cxx1112basic_stringIcSt11char_traitsIcESaIcEE12_M_constructIPKcEEvT_S8_St20forward_iterator_tagEN6_GuardD2Ev(ptr noundef nonnull align 8 dereferenceable(8) %__guard.i105) #21
  call void @_ZNSaIcED2Ev(ptr noundef nonnull align 1 dereferenceable(1) %filename_suffix.i) #21
  br label %ehcleanup.i34

invoke.cont21.i:                                  ; preds = %invoke.cont.i111
  call void @llvm.lifetime.end.p0(i64 8, ptr nonnull %__guard.i105)
  %filename_extension.i = getelementptr inbounds %"struct.flatbuffers::Namer::Config", ptr %ref.tmp17, i64 0, i32 19
  call void @_ZNSaIcEC1Ev(ptr noundef nonnull align 1 dereferenceable(1) %ref.tmp22.i) #21
  %call.i70.i = invoke noundef ptr @_ZNSt7__cxx1112basic_stringIcSt11char_traitsIcESaIcEE13_M_local_dataEv(ptr noundef nonnull align 8 dereferenceable(32) %filename_extension.i)
          to label %call.i.noexc69.i unwind label %lpad23.i

call.i.noexc69.i:                                 ; preds = %invoke.cont21.i
  invoke void @_ZNSt7__cxx1112basic_stringIcSt11char_traitsIcESaIcEE12_Alloc_hiderC1EPcRKS3_(ptr noundef nonnull align 8 dereferenceable(8) %filename_extension.i, ptr noundef %call.i70.i, ptr noundef nonnull align 1 dereferenceable(1) %ref.tmp22.i)
          to label %.noexc71.i unwind label %lpad23.i

.noexc71.i:                                       ; preds = %call.i.noexc69.i
  call void @llvm.lifetime.start.p0(i64 8, ptr nonnull %__guard.i)
  %call.i.i98 = invoke noundef ptr @_ZNSt7__cxx1112basic_stringIcSt11char_traitsIcESaIcEE13_M_local_dataEv(ptr noundef nonnull align 8 dereferenceable(32) %filename_extension.i)
          to label %if.end.i unwind label %terminate.lpad.i.i99

terminate.lpad.i.i99:                             ; preds = %.noexc71.i
  %29 = landingpad { ptr, i32 }
          catch ptr null
  %30 = extractvalue { ptr, i32 } %29, 0
  call void @__clang_call_terminate(ptr %30) #24
  unreachable

if.end.i:                                         ; preds = %.noexc71.i
  store ptr %filename_extension.i, ptr %__guard.i, align 8
  %call4.i100 = invoke noundef ptr @_ZNKSt7__cxx1112basic_stringIcSt11char_traitsIcESaIcEE7_M_dataEv(ptr noundef nonnull align 8 dereferenceable(32) %filename_extension.i)
          to label %invoke.cont.i102 unwind label %lpad.i101

invoke.cont.i102:                                 ; preds = %if.end.i
  call void @_ZNSt7__cxx1112basic_stringIcSt11char_traitsIcESaIcEE13_S_copy_charsEPcPKcS7_(ptr noundef %call4.i100, ptr noundef nonnull @.str.7, ptr noundef nonnull getelementptr inbounds ([4 x i8], ptr @.str.7, i64 0, i64 3)) #21
  store ptr null, ptr %__guard.i, align 8
  invoke void @_ZNSt7__cxx1112basic_stringIcSt11char_traitsIcESaIcEE13_M_set_lengthEm(ptr noundef nonnull align 8 dereferenceable(32) %filename_extension.i, i64 noundef 3)
          to label %invoke.cont19 unwind label %lpad.i101

lpad.i101:                                        ; preds = %invoke.cont.i102, %if.end.i
  %31 = landingpad { ptr, i32 }
          cleanup
  call void @_ZZNSt7__cxx1112basic_stringIcSt11char_traitsIcESaIcEE12_M_constructIPKcEEvT_S8_St20forward_iterator_tagEN6_GuardD2Ev(ptr noundef nonnull align 8 dereferenceable(8) %__guard.i) #21
  call void @_ZNSaIcED2Ev(ptr noundef nonnull align 1 dereferenceable(1) %filename_extension.i) #21
  br label %lpad23.body.i

lpad.i31:                                         ; preds = %call.i.noexc.i, %invoke.cont11
  %32 = landingpad { ptr, i32 }
          cleanup
  br label %ehcleanup66.i

lpad2.i33:                                        ; preds = %call.i.noexc13.i, %invoke.cont.i32
  %33 = landingpad { ptr, i32 }
          cleanup
  br label %ehcleanup61.i

lpad5.i:                                          ; preds = %call.i.noexc21.i, %invoke.cont3.i
  %34 = landingpad { ptr, i32 }
          cleanup
  br label %ehcleanup56.i

lpad8.i:                                          ; preds = %call.i.noexc29.i, %invoke.cont6.i
  %35 = landingpad { ptr, i32 }
          cleanup
  br label %ehcleanup51.i

lpad11.i:                                         ; preds = %call.i.noexc37.i, %invoke.cont9.i
  %36 = landingpad { ptr, i32 }
          cleanup
  br label %ehcleanup46.i

lpad14.i:                                         ; preds = %call.i.noexc45.i, %invoke.cont12.i
  %37 = landingpad { ptr, i32 }
          cleanup
  br label %ehcleanup41.i

lpad17.i:                                         ; preds = %call.i.noexc53.i, %invoke.cont15.i
  %38 = landingpad { ptr, i32 }
          cleanup
  br label %ehcleanup36.i

lpad20.i:                                         ; preds = %call.i.noexc61.i, %invoke.cont18.i
  %39 = landingpad { ptr, i32 }
          cleanup
  br label %ehcleanup.i34

lpad23.i:                                         ; preds = %call.i.noexc69.i, %invoke.cont21.i
  %40 = landingpad { ptr, i32 }
          cleanup
  br label %lpad23.body.i

lpad23.body.i:                                    ; preds = %lpad23.i, %lpad.i101
  %eh.lpad-body72.i = phi { ptr, i32 } [ %40, %lpad23.i ], [ %31, %lpad.i101 ]
  call void @_ZNSaIcED1Ev(ptr noundef nonnull align 1 dereferenceable(1) %ref.tmp22.i) #21
  call void @_ZNSt7__cxx1112basic_stringIcSt11char_traitsIcESaIcEED1Ev(ptr noundef nonnull align 8 dereferenceable(32) %filename_suffix.i) #21
  br label %ehcleanup.i34

ehcleanup.i34:                                    ; preds = %lpad23.body.i, %lpad20.i, %lpad.i110
  %.pn.i35 = phi { ptr, i32 } [ %eh.lpad-body72.i, %lpad23.body.i ], [ %39, %lpad20.i ], [ %28, %lpad.i110 ]
  call void @_ZNSaIcED1Ev(ptr noundef nonnull align 1 dereferenceable(1) %ref.tmp19.i) #21
  call void @_ZNSt7__cxx1112basic_stringIcSt11char_traitsIcESaIcEED1Ev(ptr noundef nonnull align 8 dereferenceable(32) %output_path.i) #21
  br label %ehcleanup36.i

ehcleanup36.i:                                    ; preds = %ehcleanup.i34, %lpad17.i, %lpad.i120
  %.pn.pn.i = phi { ptr, i32 } [ %.pn.i35, %ehcleanup.i34 ], [ %38, %lpad17.i ], [ %25, %lpad.i120 ]
  call void @_ZNSaIcED1Ev(ptr noundef nonnull align 1 dereferenceable(1) %ref.tmp16.i) #21
  call void @_ZNSt7__cxx1112basic_stringIcSt11char_traitsIcESaIcEED1Ev(ptr noundef nonnull align 8 dereferenceable(32) %keyword_suffix.i) #21
  br label %ehcleanup41.i

ehcleanup41.i:                                    ; preds = %ehcleanup36.i, %lpad14.i, %lpad.i130
  %.pn.pn.pn.i = phi { ptr, i32 } [ %.pn.pn.i, %ehcleanup36.i ], [ %37, %lpad14.i ], [ %22, %lpad.i130 ]
  call void @_ZNSaIcED1Ev(ptr noundef nonnull align 1 dereferenceable(1) %ref.tmp13.i) #21
  call void @_ZNSt7__cxx1112basic_stringIcSt11char_traitsIcESaIcEED1Ev(ptr noundef nonnull align 8 dereferenceable(32) %keyword_prefix.i) #21
  br label %ehcleanup46.i

ehcleanup46.i:                                    ; preds = %ehcleanup41.i, %lpad11.i, %lpad.i140
  %.pn.pn.pn.pn.i = phi { ptr, i32 } [ %.pn.pn.pn.i, %ehcleanup41.i ], [ %36, %lpad11.i ], [ %19, %lpad.i140 ]
  call void @_ZNSaIcED1Ev(ptr noundef nonnull align 1 dereferenceable(1) %ref.tmp10.i) #21
  call void @_ZNSt7__cxx1112basic_stringIcSt11char_traitsIcESaIcEED1Ev(ptr noundef nonnull align 8 dereferenceable(32) %object_suffix.i) #21
  br label %ehcleanup51.i

ehcleanup51.i:                                    ; preds = %ehcleanup46.i, %lpad8.i, %lpad.i150
  %.pn.pn.pn.pn.pn.i = phi { ptr, i32 } [ %.pn.pn.pn.pn.i, %ehcleanup46.i ], [ %35, %lpad8.i ], [ %16, %lpad.i150 ]
  call void @_ZNSaIcED1Ev(ptr noundef nonnull align 1 dereferenceable(1) %ref.tmp7.i) #21
  call void @_ZNSt7__cxx1112basic_stringIcSt11char_traitsIcESaIcEED1Ev(ptr noundef nonnull align 8 dereferenceable(32) %object_prefix.i) #21
  br label %ehcleanup56.i

ehcleanup56.i:                                    ; preds = %ehcleanup51.i, %lpad5.i, %lpad.i160
  %.pn.pn.pn.pn.pn.pn.i = phi { ptr, i32 } [ %.pn.pn.pn.pn.pn.i, %ehcleanup51.i ], [ %34, %lpad5.i ], [ %13, %lpad.i160 ]
  call void @_ZNSaIcED1Ev(ptr noundef nonnull align 1 dereferenceable(1) %ref.tmp4.i) #21
  call void @_ZNSt7__cxx1112basic_stringIcSt11char_traitsIcESaIcEED1Ev(ptr noundef nonnull align 8 dereferenceable(32) %namespace_seperator.i) #21
  br label %ehcleanup61.i

ehcleanup61.i:                                    ; preds = %ehcleanup56.i, %lpad2.i33, %lpad.i170
  %.pn.pn.pn.pn.pn.pn.pn.i = phi { ptr, i32 } [ %.pn.pn.pn.pn.pn.pn.i, %ehcleanup56.i ], [ %33, %lpad2.i33 ], [ %10, %lpad.i170 ]
  call void @_ZNSaIcED1Ev(ptr noundef nonnull align 1 dereferenceable(1) %ref.tmp1.i) #21
  call void @_ZNSt7__cxx1112basic_stringIcSt11char_traitsIcESaIcEED1Ev(ptr noundef nonnull align 8 dereferenceable(32) %enum_variant_seperator.i) #21
  br label %ehcleanup66.i

ehcleanup66.i:                                    ; preds = %ehcleanup61.i, %lpad.i31, %lpad.i180
  %.pn.pn.pn.pn.pn.pn.pn.pn.i = phi { ptr, i32 } [ %.pn.pn.pn.pn.pn.pn.pn.i, %ehcleanup61.i ], [ %32, %lpad.i31 ], [ %7, %lpad.i180 ]
  call void @_ZNSaIcED1Ev(ptr noundef nonnull align 1 dereferenceable(1) %ref.tmp.i) #21
  br label %ehcleanup30

invoke.cont19:                                    ; preds = %invoke.cont.i102
  call void @llvm.lifetime.end.p0(i64 8, ptr nonnull %__guard.i)
  call void @_ZNSaIcED1Ev(ptr noundef nonnull align 1 dereferenceable(1) %ref.tmp22.i) #21
  call void @_ZNSaIcED1Ev(ptr noundef nonnull align 1 dereferenceable(1) %ref.tmp19.i) #21
  call void @_ZNSaIcED1Ev(ptr noundef nonnull align 1 dereferenceable(1) %ref.tmp16.i) #21
  call void @_ZNSaIcED1Ev(ptr noundef nonnull align 1 dereferenceable(1) %ref.tmp13.i) #21
  call void @_ZNSaIcED1Ev(ptr noundef nonnull align 1 dereferenceable(1) %ref.tmp10.i) #21
  call void @_ZNSaIcED1Ev(ptr noundef nonnull align 1 dereferenceable(1) %ref.tmp7.i) #21
  call void @_ZNSaIcED1Ev(ptr noundef nonnull align 1 dereferenceable(1) %ref.tmp4.i) #21
  call void @_ZNSaIcED1Ev(ptr noundef nonnull align 1 dereferenceable(1) %ref.tmp1.i) #21
  call void @_ZNSaIcED1Ev(ptr noundef nonnull align 1 dereferenceable(1) %ref.tmp.i) #21
  call void @llvm.lifetime.end.p0(i64 1, ptr nonnull %ref.tmp.i)
  call void @llvm.lifetime.end.p0(i64 1, ptr nonnull %ref.tmp1.i)
  call void @llvm.lifetime.end.p0(i64 1, ptr nonnull %ref.tmp4.i)
  call void @llvm.lifetime.end.p0(i64 1, ptr nonnull %ref.tmp7.i)
  call void @llvm.lifetime.end.p0(i64 1, ptr nonnull %ref.tmp10.i)
  call void @llvm.lifetime.end.p0(i64 1, ptr nonnull %ref.tmp13.i)
  call void @llvm.lifetime.end.p0(i64 1, ptr nonnull %ref.tmp16.i)
  call void @llvm.lifetime.end.p0(i64 1, ptr nonnull %ref.tmp19.i)
  call void @llvm.lifetime.end.p0(i64 1, ptr nonnull %ref.tmp22.i)
  invoke void @_ZN11flatbuffers5Namer6ConfigC2ERKS1_(ptr noundef nonnull align 8 dereferenceable(336) %agg.tmp16, ptr noundef nonnull align 8 dereferenceable(336) %ref.tmp17)
          to label %.noexc44 unwind label %lpad20

.noexc44:                                         ; preds = %invoke.cont19
  %object_prefix.i37 = getelementptr inbounds %"class.flatbuffers::Parser", ptr %parser, i64 0, i32 19, i32 34
  %object_prefix1.i = getelementptr inbounds %"struct.flatbuffers::Namer::Config", ptr %agg.tmp16, i64 0, i32 11
  %call.i = invoke noundef nonnull align 8 dereferenceable(32) ptr @_ZNSt7__cxx1112basic_stringIcSt11char_traitsIcESaIcEEaSERKS4_(ptr noundef nonnull align 8 dereferenceable(32) %object_prefix1.i, ptr noundef nonnull align 8 dereferenceable(32) %object_prefix.i37)
          to label %invoke.cont.i39 unwind label %lpad.i38

invoke.cont.i39:                                  ; preds = %.noexc44
  %object_suffix.i40 = getelementptr inbounds %"class.flatbuffers::Parser", ptr %parser, i64 0, i32 19, i32 35
  %object_suffix2.i = getelementptr inbounds %"struct.flatbuffers::Namer::Config", ptr %agg.tmp16, i64 0, i32 12
  %call4.i = invoke noundef nonnull align 8 dereferenceable(32) ptr @_ZNSt7__cxx1112basic_stringIcSt11char_traitsIcESaIcEEaSERKS4_(ptr noundef nonnull align 8 dereferenceable(32) %object_suffix2.i, ptr noundef nonnull align 8 dereferenceable(32) %object_suffix.i40)
          to label %invoke.cont3.i41 unwind label %lpad.i38

invoke.cont3.i41:                                 ; preds = %invoke.cont.i39
  %output_path.i42 = getelementptr inbounds %"struct.flatbuffers::Namer::Config", ptr %agg.tmp16, i64 0, i32 17
  %call6.i = invoke noundef nonnull align 8 dereferenceable(32) ptr @_ZNSt7__cxx1112basic_stringIcSt11char_traitsIcESaIcEEaSERKS4_(ptr noundef nonnull align 8 dereferenceable(32) %output_path.i42, ptr noundef nonnull align 8 dereferenceable(32) %path)
          to label %invoke.cont5.i unwind label %lpad.i38

invoke.cont5.i:                                   ; preds = %invoke.cont3.i41
  %filename_suffix.i43 = getelementptr inbounds %"class.flatbuffers::Parser", ptr %parser, i64 0, i32 19, i32 63
  %filename_suffix7.i = getelementptr inbounds %"struct.flatbuffers::Namer::Config", ptr %agg.tmp16, i64 0, i32 18
  %call9.i = invoke noundef nonnull align 8 dereferenceable(32) ptr @_ZNSt7__cxx1112basic_stringIcSt11char_traitsIcESaIcEEaSERKS4_(ptr noundef nonnull align 8 dereferenceable(32) %filename_suffix7.i, ptr noundef nonnull align 8 dereferenceable(32) %filename_suffix.i43)
          to label %invoke.cont21 unwind label %lpad.i38

lpad.i38:                                         ; preds = %invoke.cont5.i, %invoke.cont3.i41, %invoke.cont.i39, %.noexc44
  %41 = landingpad { ptr, i32 }
          cleanup
  call void @_ZN11flatbuffers5Namer6ConfigD2Ev(ptr noundef nonnull align 8 dereferenceable(336) %agg.tmp16) #21
  br label %ehcleanup29

invoke.cont21:                                    ; preds = %invoke.cont5.i
  call void @llvm.experimental.noalias.scope.decl(metadata !13)
  call void @llvm.lifetime.start.p0(i64 1536, ptr nonnull %ref.tmp.i46)
  call void @llvm.lifetime.start.p0(i64 1, ptr nonnull %ref.tmp1.i47)
  call void @llvm.lifetime.start.p0(i64 1, ptr nonnull %ref.tmp2.i)
  call void @llvm.lifetime.start.p0(i64 1, ptr nonnull %ref.tmp6.i)
  call void @llvm.lifetime.start.p0(i64 1, ptr nonnull %ref.tmp10.i48)
  call void @llvm.lifetime.start.p0(i64 1, ptr nonnull %ref.tmp14.i)
  call void @llvm.lifetime.start.p0(i64 1, ptr nonnull %ref.tmp18.i)
  call void @llvm.lifetime.start.p0(i64 1, ptr nonnull %ref.tmp22.i49)
  call void @llvm.lifetime.start.p0(i64 1, ptr nonnull %ref.tmp26.i)
  call void @llvm.lifetime.start.p0(i64 1, ptr nonnull %ref.tmp30.i)
  call void @llvm.lifetime.start.p0(i64 1, ptr nonnull %ref.tmp34.i)
  call void @llvm.lifetime.start.p0(i64 1, ptr nonnull %ref.tmp38.i)
  call void @llvm.lifetime.start.p0(i64 1, ptr nonnull %ref.tmp42.i)
  call void @llvm.lifetime.start.p0(i64 1, ptr nonnull %ref.tmp46.i)
  call void @llvm.lifetime.start.p0(i64 1, ptr nonnull %ref.tmp50.i)
  call void @llvm.lifetime.start.p0(i64 1, ptr nonnull %ref.tmp54.i)
  call void @llvm.lifetime.start.p0(i64 1, ptr nonnull %ref.tmp58.i)
  call void @llvm.lifetime.start.p0(i64 1, ptr nonnull %ref.tmp62.i)
  call void @llvm.lifetime.start.p0(i64 1, ptr nonnull %ref.tmp66.i)
  call void @llvm.lifetime.start.p0(i64 1, ptr nonnull %ref.tmp70.i)
  call void @llvm.lifetime.start.p0(i64 1, ptr nonnull %ref.tmp74.i)
  call void @llvm.lifetime.start.p0(i64 1, ptr nonnull %ref.tmp78.i)
  call void @llvm.lifetime.start.p0(i64 1, ptr nonnull %ref.tmp82.i)
  call void @llvm.lifetime.start.p0(i64 1, ptr nonnull %ref.tmp86.i)
  call void @llvm.lifetime.start.p0(i64 1, ptr nonnull %ref.tmp90.i)
  call void @llvm.lifetime.start.p0(i64 1, ptr nonnull %ref.tmp94.i)
  call void @llvm.lifetime.start.p0(i64 1, ptr nonnull %ref.tmp98.i)
  call void @llvm.lifetime.start.p0(i64 1, ptr nonnull %ref.tmp102.i)
  call void @llvm.lifetime.start.p0(i64 1, ptr nonnull %ref.tmp106.i)
  call void @llvm.lifetime.start.p0(i64 1, ptr nonnull %ref.tmp110.i)
  call void @llvm.lifetime.start.p0(i64 1, ptr nonnull %ref.tmp114.i)
  call void @llvm.lifetime.start.p0(i64 1, ptr nonnull %ref.tmp118.i)
  call void @llvm.lifetime.start.p0(i64 1, ptr nonnull %ref.tmp122.i)
  call void @llvm.lifetime.start.p0(i64 1, ptr nonnull %ref.tmp126.i)
  call void @llvm.lifetime.start.p0(i64 1, ptr nonnull %ref.tmp130.i)
  call void @llvm.lifetime.start.p0(i64 1, ptr nonnull %ref.tmp134.i)
  call void @llvm.lifetime.start.p0(i64 1, ptr nonnull %ref.tmp138.i)
  call void @llvm.lifetime.start.p0(i64 1, ptr nonnull %ref.tmp142.i)
  call void @llvm.lifetime.start.p0(i64 1, ptr nonnull %ref.tmp146.i)
  call void @llvm.lifetime.start.p0(i64 1, ptr nonnull %ref.tmp150.i)
  call void @llvm.lifetime.start.p0(i64 1, ptr nonnull %ref.tmp154.i)
  call void @llvm.lifetime.start.p0(i64 1, ptr nonnull %ref.tmp158.i)
  call void @llvm.lifetime.start.p0(i64 1, ptr nonnull %ref.tmp162.i)
  call void @llvm.lifetime.start.p0(i64 1, ptr nonnull %ref.tmp166.i)
  call void @llvm.lifetime.start.p0(i64 1, ptr nonnull %ref.tmp170.i)
  call void @llvm.lifetime.start.p0(i64 1, ptr nonnull %ref.tmp174.i)
  call void @llvm.lifetime.start.p0(i64 1, ptr nonnull %ref.tmp178.i)
  call void @llvm.lifetime.start.p0(i64 1, ptr nonnull %ref.tmp182.i)
  call void @llvm.lifetime.start.p0(i64 1, ptr nonnull %ref.tmp186.i)
  call void @_ZNSaIcEC1Ev(ptr noundef nonnull align 1 dereferenceable(1) %ref.tmp1.i47) #21, !noalias !13
  %call.i49.i = invoke noundef ptr @_ZNSt7__cxx1112basic_stringIcSt11char_traitsIcESaIcEE13_M_local_dataEv(ptr noundef nonnull align 8 dereferenceable(32) %ref.tmp.i46)
          to label %call.i.noexc.i51 unwind label %lpad.i50, !noalias !13

call.i.noexc.i51:                                 ; preds = %invoke.cont21
  invoke void @_ZNSt7__cxx1112basic_stringIcSt11char_traitsIcESaIcEE12_Alloc_hiderC1EPcRKS3_(ptr noundef nonnull align 8 dereferenceable(8) %ref.tmp.i46, ptr noundef %call.i49.i, ptr noundef nonnull align 1 dereferenceable(1) %ref.tmp1.i47)
          to label %.noexc.i52 unwind label %lpad.i50

.noexc.i52:                                       ; preds = %call.i.noexc.i51
  call void @llvm.lifetime.start.p0(i64 8, ptr nonnull %__guard.i655)
  %call.i.i656 = invoke noundef ptr @_ZNSt7__cxx1112basic_stringIcSt11char_traitsIcESaIcEE13_M_local_dataEv(ptr noundef nonnull align 8 dereferenceable(32) %ref.tmp.i46)
          to label %if.end.i658 unwind label %terminate.lpad.i.i657

terminate.lpad.i.i657:                            ; preds = %.noexc.i52
  %42 = landingpad { ptr, i32 }
          catch ptr null
  %43 = extractvalue { ptr, i32 } %42, 0
  call void @__clang_call_terminate(ptr %43) #24
  unreachable

if.end.i658:                                      ; preds = %.noexc.i52
  store ptr %ref.tmp.i46, ptr %__guard.i655, align 8
  %call4.i659 = invoke noundef ptr @_ZNKSt7__cxx1112basic_stringIcSt11char_traitsIcESaIcEE7_M_dataEv(ptr noundef nonnull align 8 dereferenceable(32) %ref.tmp.i46)
          to label %invoke.cont.i661 unwind label %lpad.i660

invoke.cont.i661:                                 ; preds = %if.end.i658
  call void @_ZNSt7__cxx1112basic_stringIcSt11char_traitsIcESaIcEE13_S_copy_charsEPcPKcS7_(ptr noundef %call4.i659, ptr noundef nonnull @.str.8, ptr noundef nonnull getelementptr inbounds ([10 x i8], ptr @.str.8, i64 0, i64 9)) #21
  store ptr null, ptr %__guard.i655, align 8
  invoke void @_ZNSt7__cxx1112basic_stringIcSt11char_traitsIcESaIcEE13_M_set_lengthEm(ptr noundef nonnull align 8 dereferenceable(32) %ref.tmp.i46, i64 noundef 9)
          to label %invoke.cont.i54 unwind label %lpad.i660

lpad.i660:                                        ; preds = %invoke.cont.i661, %if.end.i658
  %44 = landingpad { ptr, i32 }
          cleanup
  call void @_ZZNSt7__cxx1112basic_stringIcSt11char_traitsIcESaIcEE12_M_constructIPKcEEvT_S8_St20forward_iterator_tagEN6_GuardD2Ev(ptr noundef nonnull align 8 dereferenceable(8) %__guard.i655) #21
  call void @_ZNSaIcED2Ev(ptr noundef nonnull align 1 dereferenceable(1) %ref.tmp.i46) #21
  br label %ehcleanup246.thread.i

invoke.cont.i54:                                  ; preds = %invoke.cont.i661
  call void @llvm.lifetime.end.p0(i64 8, ptr nonnull %__guard.i655)
  %arrayinit.element.i = getelementptr inbounds %"class.std::__cxx11::basic_string", ptr %ref.tmp.i46, i64 1
  call void @_ZNSaIcEC1Ev(ptr noundef nonnull align 1 dereferenceable(1) %ref.tmp2.i) #21
  %call.i54.i55 = invoke noundef ptr @_ZNSt7__cxx1112basic_stringIcSt11char_traitsIcESaIcEE13_M_local_dataEv(ptr noundef nonnull align 8 dereferenceable(32) %arrayinit.element.i)
          to label %call.i.noexc53.i56 unwind label %lpad3.i

call.i.noexc53.i56:                               ; preds = %invoke.cont.i54
  invoke void @_ZNSt7__cxx1112basic_stringIcSt11char_traitsIcESaIcEE12_Alloc_hiderC1EPcRKS3_(ptr noundef nonnull align 8 dereferenceable(8) %arrayinit.element.i, ptr noundef %call.i54.i55, ptr noundef nonnull align 1 dereferenceable(1) %ref.tmp2.i)
          to label %.noexc55.i57 unwind label %lpad3.i

.noexc55.i57:                                     ; preds = %call.i.noexc53.i56
  call void @llvm.lifetime.start.p0(i64 8, ptr nonnull %__guard.i645)
  %call.i.i646 = invoke noundef ptr @_ZNSt7__cxx1112basic_stringIcSt11char_traitsIcESaIcEE13_M_local_dataEv(ptr noundef nonnull align 8 dereferenceable(32) %arrayinit.element.i)
          to label %if.end.i648 unwind label %terminate.lpad.i.i647

terminate.lpad.i.i647:                            ; preds = %.noexc55.i57
  %45 = landingpad { ptr, i32 }
          catch ptr null
  %46 = extractvalue { ptr, i32 } %45, 0
  call void @__clang_call_terminate(ptr %46) #24
  unreachable

if.end.i648:                                      ; preds = %.noexc55.i57
  store ptr %arrayinit.element.i, ptr %__guard.i645, align 8
  %call4.i649 = invoke noundef ptr @_ZNKSt7__cxx1112basic_stringIcSt11char_traitsIcESaIcEE7_M_dataEv(ptr noundef nonnull align 8 dereferenceable(32) %arrayinit.element.i)
          to label %invoke.cont.i651 unwind label %lpad.i650

invoke.cont.i651:                                 ; preds = %if.end.i648
  call void @_ZNSt7__cxx1112basic_stringIcSt11char_traitsIcESaIcEE13_S_copy_charsEPcPKcS7_(ptr noundef %call4.i649, ptr noundef nonnull @.str.9, ptr noundef nonnull getelementptr inbounds ([6 x i8], ptr @.str.9, i64 0, i64 5)) #21
  store ptr null, ptr %__guard.i645, align 8
  invoke void @_ZNSt7__cxx1112basic_stringIcSt11char_traitsIcESaIcEE13_M_set_lengthEm(ptr noundef nonnull align 8 dereferenceable(32) %arrayinit.element.i, i64 noundef 5)
          to label %invoke.cont4.i unwind label %lpad.i650

lpad.i650:                                        ; preds = %invoke.cont.i651, %if.end.i648
  %47 = landingpad { ptr, i32 }
          cleanup
  call void @_ZZNSt7__cxx1112basic_stringIcSt11char_traitsIcESaIcEE12_M_constructIPKcEEvT_S8_St20forward_iterator_tagEN6_GuardD2Ev(ptr noundef nonnull align 8 dereferenceable(8) %__guard.i645) #21
  call void @_ZNSaIcED2Ev(ptr noundef nonnull align 1 dereferenceable(1) %arrayinit.element.i) #21
  br label %ehcleanup246.i

invoke.cont4.i:                                   ; preds = %invoke.cont.i651
  call void @llvm.lifetime.end.p0(i64 8, ptr nonnull %__guard.i645)
  %arrayinit.element5.i = getelementptr inbounds %"class.std::__cxx11::basic_string", ptr %ref.tmp.i46, i64 2
  call void @_ZNSaIcEC1Ev(ptr noundef nonnull align 1 dereferenceable(1) %ref.tmp6.i) #21
  %call.i62.i59 = invoke noundef ptr @_ZNSt7__cxx1112basic_stringIcSt11char_traitsIcESaIcEE13_M_local_dataEv(ptr noundef nonnull align 8 dereferenceable(32) %arrayinit.element5.i)
          to label %call.i.noexc61.i60 unwind label %lpad7.i

call.i.noexc61.i60:                               ; preds = %invoke.cont4.i
  invoke void @_ZNSt7__cxx1112basic_stringIcSt11char_traitsIcESaIcEE12_Alloc_hiderC1EPcRKS3_(ptr noundef nonnull align 8 dereferenceable(8) %arrayinit.element5.i, ptr noundef %call.i62.i59, ptr noundef nonnull align 1 dereferenceable(1) %ref.tmp6.i)
          to label %.noexc63.i61 unwind label %lpad7.i

.noexc63.i61:                                     ; preds = %call.i.noexc61.i60
  call void @llvm.lifetime.start.p0(i64 8, ptr nonnull %__guard.i635)
  %call.i.i636 = invoke noundef ptr @_ZNSt7__cxx1112basic_stringIcSt11char_traitsIcESaIcEE13_M_local_dataEv(ptr noundef nonnull align 8 dereferenceable(32) %arrayinit.element5.i)
          to label %if.end.i638 unwind label %terminate.lpad.i.i637

terminate.lpad.i.i637:                            ; preds = %.noexc63.i61
  %48 = landingpad { ptr, i32 }
          catch ptr null
  %49 = extractvalue { ptr, i32 } %48, 0
  call void @__clang_call_terminate(ptr %49) #24
  unreachable

if.end.i638:                                      ; preds = %.noexc63.i61
  store ptr %arrayinit.element5.i, ptr %__guard.i635, align 8
  %call4.i639 = invoke noundef ptr @_ZNKSt7__cxx1112basic_stringIcSt11char_traitsIcESaIcEE7_M_dataEv(ptr noundef nonnull align 8 dereferenceable(32) %arrayinit.element5.i)
          to label %invoke.cont.i641 unwind label %lpad.i640

invoke.cont.i641:                                 ; preds = %if.end.i638
  call void @_ZNSt7__cxx1112basic_stringIcSt11char_traitsIcESaIcEE13_S_copy_charsEPcPKcS7_(ptr noundef %call4.i639, ptr noundef nonnull @.str.10, ptr noundef nonnull getelementptr inbounds ([5 x i8], ptr @.str.10, i64 0, i64 4)) #21
  store ptr null, ptr %__guard.i635, align 8
  invoke void @_ZNSt7__cxx1112basic_stringIcSt11char_traitsIcESaIcEE13_M_set_lengthEm(ptr noundef nonnull align 8 dereferenceable(32) %arrayinit.element5.i, i64 noundef 4)
          to label %invoke.cont8.i unwind label %lpad.i640

lpad.i640:                                        ; preds = %invoke.cont.i641, %if.end.i638
  %50 = landingpad { ptr, i32 }
          cleanup
  call void @_ZZNSt7__cxx1112basic_stringIcSt11char_traitsIcESaIcEE12_M_constructIPKcEEvT_S8_St20forward_iterator_tagEN6_GuardD2Ev(ptr noundef nonnull align 8 dereferenceable(8) %__guard.i635) #21
  call void @_ZNSaIcED2Ev(ptr noundef nonnull align 1 dereferenceable(1) %arrayinit.element5.i) #21
  br label %ehcleanup244.i

invoke.cont8.i:                                   ; preds = %invoke.cont.i641
  call void @llvm.lifetime.end.p0(i64 8, ptr nonnull %__guard.i635)
  %arrayinit.element9.i = getelementptr inbounds %"class.std::__cxx11::basic_string", ptr %ref.tmp.i46, i64 3
  call void @_ZNSaIcEC1Ev(ptr noundef nonnull align 1 dereferenceable(1) %ref.tmp10.i48) #21
  %call.i70.i63 = invoke noundef ptr @_ZNSt7__cxx1112basic_stringIcSt11char_traitsIcESaIcEE13_M_local_dataEv(ptr noundef nonnull align 8 dereferenceable(32) %arrayinit.element9.i)
          to label %call.i.noexc69.i65 unwind label %lpad11.i64

call.i.noexc69.i65:                               ; preds = %invoke.cont8.i
  invoke void @_ZNSt7__cxx1112basic_stringIcSt11char_traitsIcESaIcEE12_Alloc_hiderC1EPcRKS3_(ptr noundef nonnull align 8 dereferenceable(8) %arrayinit.element9.i, ptr noundef %call.i70.i63, ptr noundef nonnull align 1 dereferenceable(1) %ref.tmp10.i48)
          to label %.noexc71.i66 unwind label %lpad11.i64

.noexc71.i66:                                     ; preds = %call.i.noexc69.i65
  call void @llvm.lifetime.start.p0(i64 8, ptr nonnull %__guard.i625)
  %call.i.i626 = invoke noundef ptr @_ZNSt7__cxx1112basic_stringIcSt11char_traitsIcESaIcEE13_M_local_dataEv(ptr noundef nonnull align 8 dereferenceable(32) %arrayinit.element9.i)
          to label %if.end.i628 unwind label %terminate.lpad.i.i627

terminate.lpad.i.i627:                            ; preds = %.noexc71.i66
  %51 = landingpad { ptr, i32 }
          catch ptr null
  %52 = extractvalue { ptr, i32 } %51, 0
  call void @__clang_call_terminate(ptr %52) #24
  unreachable

if.end.i628:                                      ; preds = %.noexc71.i66
  store ptr %arrayinit.element9.i, ptr %__guard.i625, align 8
  %call4.i629 = invoke noundef ptr @_ZNKSt7__cxx1112basic_stringIcSt11char_traitsIcESaIcEE7_M_dataEv(ptr noundef nonnull align 8 dereferenceable(32) %arrayinit.element9.i)
          to label %invoke.cont.i631 unwind label %lpad.i630

invoke.cont.i631:                                 ; preds = %if.end.i628
  call void @_ZNSt7__cxx1112basic_stringIcSt11char_traitsIcESaIcEE13_S_copy_charsEPcPKcS7_(ptr noundef %call4.i629, ptr noundef nonnull @.str.11, ptr noundef nonnull getelementptr inbounds ([6 x i8], ptr @.str.11, i64 0, i64 5)) #21
  store ptr null, ptr %__guard.i625, align 8
  invoke void @_ZNSt7__cxx1112basic_stringIcSt11char_traitsIcESaIcEE13_M_set_lengthEm(ptr noundef nonnull align 8 dereferenceable(32) %arrayinit.element9.i, i64 noundef 5)
          to label %invoke.cont12.i68 unwind label %lpad.i630

lpad.i630:                                        ; preds = %invoke.cont.i631, %if.end.i628
  %53 = landingpad { ptr, i32 }
          cleanup
  call void @_ZZNSt7__cxx1112basic_stringIcSt11char_traitsIcESaIcEE12_M_constructIPKcEEvT_S8_St20forward_iterator_tagEN6_GuardD2Ev(ptr noundef nonnull align 8 dereferenceable(8) %__guard.i625) #21
  call void @_ZNSaIcED2Ev(ptr noundef nonnull align 1 dereferenceable(1) %arrayinit.element9.i) #21
  br label %ehcleanup243.i

invoke.cont12.i68:                                ; preds = %invoke.cont.i631
  call void @llvm.lifetime.end.p0(i64 8, ptr nonnull %__guard.i625)
  %arrayinit.element13.i = getelementptr inbounds %"class.std::__cxx11::basic_string", ptr %ref.tmp.i46, i64 4
  call void @_ZNSaIcEC1Ev(ptr noundef nonnull align 1 dereferenceable(1) %ref.tmp14.i) #21
  %call.i78.i = invoke noundef ptr @_ZNSt7__cxx1112basic_stringIcSt11char_traitsIcESaIcEE13_M_local_dataEv(ptr noundef nonnull align 8 dereferenceable(32) %arrayinit.element13.i)
          to label %call.i.noexc77.i unwind label %lpad15.i

call.i.noexc77.i:                                 ; preds = %invoke.cont12.i68
  invoke void @_ZNSt7__cxx1112basic_stringIcSt11char_traitsIcESaIcEE12_Alloc_hiderC1EPcRKS3_(ptr noundef nonnull align 8 dereferenceable(8) %arrayinit.element13.i, ptr noundef %call.i78.i, ptr noundef nonnull align 1 dereferenceable(1) %ref.tmp14.i)
          to label %.noexc79.i unwind label %lpad15.i

.noexc79.i:                                       ; preds = %call.i.noexc77.i
  call void @llvm.lifetime.start.p0(i64 8, ptr nonnull %__guard.i615)
  %call.i.i616 = invoke noundef ptr @_ZNSt7__cxx1112basic_stringIcSt11char_traitsIcESaIcEE13_M_local_dataEv(ptr noundef nonnull align 8 dereferenceable(32) %arrayinit.element13.i)
          to label %if.end.i618 unwind label %terminate.lpad.i.i617

terminate.lpad.i.i617:                            ; preds = %.noexc79.i
  %54 = landingpad { ptr, i32 }
          catch ptr null
  %55 = extractvalue { ptr, i32 } %54, 0
  call void @__clang_call_terminate(ptr %55) #24
  unreachable

if.end.i618:                                      ; preds = %.noexc79.i
  store ptr %arrayinit.element13.i, ptr %__guard.i615, align 8
  %call4.i619 = invoke noundef ptr @_ZNKSt7__cxx1112basic_stringIcSt11char_traitsIcESaIcEE7_M_dataEv(ptr noundef nonnull align 8 dereferenceable(32) %arrayinit.element13.i)
          to label %invoke.cont.i621 unwind label %lpad.i620

invoke.cont.i621:                                 ; preds = %if.end.i618
  call void @_ZNSt7__cxx1112basic_stringIcSt11char_traitsIcESaIcEE13_S_copy_charsEPcPKcS7_(ptr noundef %call4.i619, ptr noundef nonnull @.str.12, ptr noundef nonnull getelementptr inbounds ([6 x i8], ptr @.str.12, i64 0, i64 5)) #21
  store ptr null, ptr %__guard.i615, align 8
  invoke void @_ZNSt7__cxx1112basic_stringIcSt11char_traitsIcESaIcEE13_M_set_lengthEm(ptr noundef nonnull align 8 dereferenceable(32) %arrayinit.element13.i, i64 noundef 5)
          to label %invoke.cont16.i unwind label %lpad.i620

lpad.i620:                                        ; preds = %invoke.cont.i621, %if.end.i618
  %56 = landingpad { ptr, i32 }
          cleanup
  call void @_ZZNSt7__cxx1112basic_stringIcSt11char_traitsIcESaIcEE12_M_constructIPKcEEvT_S8_St20forward_iterator_tagEN6_GuardD2Ev(ptr noundef nonnull align 8 dereferenceable(8) %__guard.i615) #21
  call void @_ZNSaIcED2Ev(ptr noundef nonnull align 1 dereferenceable(1) %arrayinit.element13.i) #21
  br label %ehcleanup242.i

invoke.cont16.i:                                  ; preds = %invoke.cont.i621
  call void @llvm.lifetime.end.p0(i64 8, ptr nonnull %__guard.i615)
  %arrayinit.element17.i = getelementptr inbounds %"class.std::__cxx11::basic_string", ptr %ref.tmp.i46, i64 5
  call void @_ZNSaIcEC1Ev(ptr noundef nonnull align 1 dereferenceable(1) %ref.tmp18.i) #21
  %call.i86.i = invoke noundef ptr @_ZNSt7__cxx1112basic_stringIcSt11char_traitsIcESaIcEE13_M_local_dataEv(ptr noundef nonnull align 8 dereferenceable(32) %arrayinit.element17.i)
          to label %call.i.noexc85.i unwind label %lpad19.i

call.i.noexc85.i:                                 ; preds = %invoke.cont16.i
  invoke void @_ZNSt7__cxx1112basic_stringIcSt11char_traitsIcESaIcEE12_Alloc_hiderC1EPcRKS3_(ptr noundef nonnull align 8 dereferenceable(8) %arrayinit.element17.i, ptr noundef %call.i86.i, ptr noundef nonnull align 1 dereferenceable(1) %ref.tmp18.i)
          to label %.noexc87.i unwind label %lpad19.i

.noexc87.i:                                       ; preds = %call.i.noexc85.i
  call void @llvm.lifetime.start.p0(i64 8, ptr nonnull %__guard.i605)
  %call.i.i606 = invoke noundef ptr @_ZNSt7__cxx1112basic_stringIcSt11char_traitsIcESaIcEE13_M_local_dataEv(ptr noundef nonnull align 8 dereferenceable(32) %arrayinit.element17.i)
          to label %if.end.i608 unwind label %terminate.lpad.i.i607

terminate.lpad.i.i607:                            ; preds = %.noexc87.i
  %57 = landingpad { ptr, i32 }
          catch ptr null
  %58 = extractvalue { ptr, i32 } %57, 0
  call void @__clang_call_terminate(ptr %58) #24
  unreachable

if.end.i608:                                      ; preds = %.noexc87.i
  store ptr %arrayinit.element17.i, ptr %__guard.i605, align 8
  %call4.i609 = invoke noundef ptr @_ZNKSt7__cxx1112basic_stringIcSt11char_traitsIcESaIcEE7_M_dataEv(ptr noundef nonnull align 8 dereferenceable(32) %arrayinit.element17.i)
          to label %invoke.cont.i611 unwind label %lpad.i610

invoke.cont.i611:                                 ; preds = %if.end.i608
  call void @_ZNSt7__cxx1112basic_stringIcSt11char_traitsIcESaIcEE13_S_copy_charsEPcPKcS7_(ptr noundef %call4.i609, ptr noundef nonnull @.str.13, ptr noundef nonnull getelementptr inbounds ([6 x i8], ptr @.str.13, i64 0, i64 5)) #21
  store ptr null, ptr %__guard.i605, align 8
  invoke void @_ZNSt7__cxx1112basic_stringIcSt11char_traitsIcESaIcEE13_M_set_lengthEm(ptr noundef nonnull align 8 dereferenceable(32) %arrayinit.element17.i, i64 noundef 5)
          to label %invoke.cont20.i unwind label %lpad.i610

lpad.i610:                                        ; preds = %invoke.cont.i611, %if.end.i608
  %59 = landingpad { ptr, i32 }
          cleanup
  call void @_ZZNSt7__cxx1112basic_stringIcSt11char_traitsIcESaIcEE12_M_constructIPKcEEvT_S8_St20forward_iterator_tagEN6_GuardD2Ev(ptr noundef nonnull align 8 dereferenceable(8) %__guard.i605) #21
  call void @_ZNSaIcED2Ev(ptr noundef nonnull align 1 dereferenceable(1) %arrayinit.element17.i) #21
  br label %ehcleanup241.i

invoke.cont20.i:                                  ; preds = %invoke.cont.i611
  call void @llvm.lifetime.end.p0(i64 8, ptr nonnull %__guard.i605)
  %arrayinit.element21.i = getelementptr inbounds %"class.std::__cxx11::basic_string", ptr %ref.tmp.i46, i64 6
  call void @_ZNSaIcEC1Ev(ptr noundef nonnull align 1 dereferenceable(1) %ref.tmp22.i49) #21
  %call.i94.i = invoke noundef ptr @_ZNSt7__cxx1112basic_stringIcSt11char_traitsIcESaIcEE13_M_local_dataEv(ptr noundef nonnull align 8 dereferenceable(32) %arrayinit.element21.i)
          to label %call.i.noexc93.i unwind label %lpad23.i69

call.i.noexc93.i:                                 ; preds = %invoke.cont20.i
  invoke void @_ZNSt7__cxx1112basic_stringIcSt11char_traitsIcESaIcEE12_Alloc_hiderC1EPcRKS3_(ptr noundef nonnull align 8 dereferenceable(8) %arrayinit.element21.i, ptr noundef %call.i94.i, ptr noundef nonnull align 1 dereferenceable(1) %ref.tmp22.i49)
          to label %.noexc95.i unwind label %lpad23.i69

.noexc95.i:                                       ; preds = %call.i.noexc93.i
  call void @llvm.lifetime.start.p0(i64 8, ptr nonnull %__guard.i595)
  %call.i.i596 = invoke noundef ptr @_ZNSt7__cxx1112basic_stringIcSt11char_traitsIcESaIcEE13_M_local_dataEv(ptr noundef nonnull align 8 dereferenceable(32) %arrayinit.element21.i)
          to label %if.end.i598 unwind label %terminate.lpad.i.i597

terminate.lpad.i.i597:                            ; preds = %.noexc95.i
  %60 = landingpad { ptr, i32 }
          catch ptr null
  %61 = extractvalue { ptr, i32 } %60, 0
  call void @__clang_call_terminate(ptr %61) #24
  unreachable

if.end.i598:                                      ; preds = %.noexc95.i
  store ptr %arrayinit.element21.i, ptr %__guard.i595, align 8
  %call4.i599 = invoke noundef ptr @_ZNKSt7__cxx1112basic_stringIcSt11char_traitsIcESaIcEE7_M_dataEv(ptr noundef nonnull align 8 dereferenceable(32) %arrayinit.element21.i)
          to label %invoke.cont.i601 unwind label %lpad.i600

invoke.cont.i601:                                 ; preds = %if.end.i598
  call void @_ZNSt7__cxx1112basic_stringIcSt11char_traitsIcESaIcEE13_S_copy_charsEPcPKcS7_(ptr noundef %call4.i599, ptr noundef nonnull @.str.14, ptr noundef nonnull getelementptr inbounds ([9 x i8], ptr @.str.14, i64 0, i64 8)) #21
  store ptr null, ptr %__guard.i595, align 8
  invoke void @_ZNSt7__cxx1112basic_stringIcSt11char_traitsIcESaIcEE13_M_set_lengthEm(ptr noundef nonnull align 8 dereferenceable(32) %arrayinit.element21.i, i64 noundef 8)
          to label %invoke.cont24.i unwind label %lpad.i600

lpad.i600:                                        ; preds = %invoke.cont.i601, %if.end.i598
  %62 = landingpad { ptr, i32 }
          cleanup
  call void @_ZZNSt7__cxx1112basic_stringIcSt11char_traitsIcESaIcEE12_M_constructIPKcEEvT_S8_St20forward_iterator_tagEN6_GuardD2Ev(ptr noundef nonnull align 8 dereferenceable(8) %__guard.i595) #21
  call void @_ZNSaIcED2Ev(ptr noundef nonnull align 1 dereferenceable(1) %arrayinit.element21.i) #21
  br label %ehcleanup240.i

invoke.cont24.i:                                  ; preds = %invoke.cont.i601
  call void @llvm.lifetime.end.p0(i64 8, ptr nonnull %__guard.i595)
  %arrayinit.element25.i = getelementptr inbounds %"class.std::__cxx11::basic_string", ptr %ref.tmp.i46, i64 7
  call void @_ZNSaIcEC1Ev(ptr noundef nonnull align 1 dereferenceable(1) %ref.tmp26.i) #21
  %call.i102.i = invoke noundef ptr @_ZNSt7__cxx1112basic_stringIcSt11char_traitsIcESaIcEE13_M_local_dataEv(ptr noundef nonnull align 8 dereferenceable(32) %arrayinit.element25.i)
          to label %call.i.noexc101.i unwind label %lpad27.i

call.i.noexc101.i:                                ; preds = %invoke.cont24.i
  invoke void @_ZNSt7__cxx1112basic_stringIcSt11char_traitsIcESaIcEE12_Alloc_hiderC1EPcRKS3_(ptr noundef nonnull align 8 dereferenceable(8) %arrayinit.element25.i, ptr noundef %call.i102.i, ptr noundef nonnull align 1 dereferenceable(1) %ref.tmp26.i)
          to label %.noexc103.i unwind label %lpad27.i

.noexc103.i:                                      ; preds = %call.i.noexc101.i
  call void @llvm.lifetime.start.p0(i64 8, ptr nonnull %__guard.i585)
  %call.i.i586 = invoke noundef ptr @_ZNSt7__cxx1112basic_stringIcSt11char_traitsIcESaIcEE13_M_local_dataEv(ptr noundef nonnull align 8 dereferenceable(32) %arrayinit.element25.i)
          to label %if.end.i588 unwind label %terminate.lpad.i.i587

terminate.lpad.i.i587:                            ; preds = %.noexc103.i
  %63 = landingpad { ptr, i32 }
          catch ptr null
  %64 = extractvalue { ptr, i32 } %63, 0
  call void @__clang_call_terminate(ptr %64) #24
  unreachable

if.end.i588:                                      ; preds = %.noexc103.i
  store ptr %arrayinit.element25.i, ptr %__guard.i585, align 8
  %call4.i589 = invoke noundef ptr @_ZNKSt7__cxx1112basic_stringIcSt11char_traitsIcESaIcEE7_M_dataEv(ptr noundef nonnull align 8 dereferenceable(32) %arrayinit.element25.i)
          to label %invoke.cont.i591 unwind label %lpad.i590

invoke.cont.i591:                                 ; preds = %if.end.i588
  call void @_ZNSt7__cxx1112basic_stringIcSt11char_traitsIcESaIcEE13_S_copy_charsEPcPKcS7_(ptr noundef %call4.i589, ptr noundef nonnull @.str.15, ptr noundef nonnull getelementptr inbounds ([9 x i8], ptr @.str.15, i64 0, i64 8)) #21
  store ptr null, ptr %__guard.i585, align 8
  invoke void @_ZNSt7__cxx1112basic_stringIcSt11char_traitsIcESaIcEE13_M_set_lengthEm(ptr noundef nonnull align 8 dereferenceable(32) %arrayinit.element25.i, i64 noundef 8)
          to label %invoke.cont28.i unwind label %lpad.i590

lpad.i590:                                        ; preds = %invoke.cont.i591, %if.end.i588
  %65 = landingpad { ptr, i32 }
          cleanup
  call void @_ZZNSt7__cxx1112basic_stringIcSt11char_traitsIcESaIcEE12_M_constructIPKcEEvT_S8_St20forward_iterator_tagEN6_GuardD2Ev(ptr noundef nonnull align 8 dereferenceable(8) %__guard.i585) #21
  call void @_ZNSaIcED2Ev(ptr noundef nonnull align 1 dereferenceable(1) %arrayinit.element25.i) #21
  br label %ehcleanup239.i

invoke.cont28.i:                                  ; preds = %invoke.cont.i591
  call void @llvm.lifetime.end.p0(i64 8, ptr nonnull %__guard.i585)
  %arrayinit.element29.i = getelementptr inbounds %"class.std::__cxx11::basic_string", ptr %ref.tmp.i46, i64 8
  call void @_ZNSaIcEC1Ev(ptr noundef nonnull align 1 dereferenceable(1) %ref.tmp30.i) #21
  %call.i110.i = invoke noundef ptr @_ZNSt7__cxx1112basic_stringIcSt11char_traitsIcESaIcEE13_M_local_dataEv(ptr noundef nonnull align 8 dereferenceable(32) %arrayinit.element29.i)
          to label %call.i.noexc109.i unwind label %lpad31.i

call.i.noexc109.i:                                ; preds = %invoke.cont28.i
  invoke void @_ZNSt7__cxx1112basic_stringIcSt11char_traitsIcESaIcEE12_Alloc_hiderC1EPcRKS3_(ptr noundef nonnull align 8 dereferenceable(8) %arrayinit.element29.i, ptr noundef %call.i110.i, ptr noundef nonnull align 1 dereferenceable(1) %ref.tmp30.i)
          to label %.noexc111.i unwind label %lpad31.i

.noexc111.i:                                      ; preds = %call.i.noexc109.i
  call void @llvm.lifetime.start.p0(i64 8, ptr nonnull %__guard.i575)
  %call.i.i576 = invoke noundef ptr @_ZNSt7__cxx1112basic_stringIcSt11char_traitsIcESaIcEE13_M_local_dataEv(ptr noundef nonnull align 8 dereferenceable(32) %arrayinit.element29.i)
          to label %if.end.i578 unwind label %terminate.lpad.i.i577

terminate.lpad.i.i577:                            ; preds = %.noexc111.i
  %66 = landingpad { ptr, i32 }
          catch ptr null
  %67 = extractvalue { ptr, i32 } %66, 0
  call void @__clang_call_terminate(ptr %67) #24
  unreachable

if.end.i578:                                      ; preds = %.noexc111.i
  store ptr %arrayinit.element29.i, ptr %__guard.i575, align 8
  %call4.i579 = invoke noundef ptr @_ZNKSt7__cxx1112basic_stringIcSt11char_traitsIcESaIcEE7_M_dataEv(ptr noundef nonnull align 8 dereferenceable(32) %arrayinit.element29.i)
          to label %invoke.cont.i581 unwind label %lpad.i580

invoke.cont.i581:                                 ; preds = %if.end.i578
  call void @_ZNSt7__cxx1112basic_stringIcSt11char_traitsIcESaIcEE13_S_copy_charsEPcPKcS7_(ptr noundef %call4.i579, ptr noundef nonnull @.str.16, ptr noundef nonnull getelementptr inbounds ([8 x i8], ptr @.str.16, i64 0, i64 7)) #21
  store ptr null, ptr %__guard.i575, align 8
  invoke void @_ZNSt7__cxx1112basic_stringIcSt11char_traitsIcESaIcEE13_M_set_lengthEm(ptr noundef nonnull align 8 dereferenceable(32) %arrayinit.element29.i, i64 noundef 7)
          to label %invoke.cont32.i unwind label %lpad.i580

lpad.i580:                                        ; preds = %invoke.cont.i581, %if.end.i578
  %68 = landingpad { ptr, i32 }
          cleanup
  call void @_ZZNSt7__cxx1112basic_stringIcSt11char_traitsIcESaIcEE12_M_constructIPKcEEvT_S8_St20forward_iterator_tagEN6_GuardD2Ev(ptr noundef nonnull align 8 dereferenceable(8) %__guard.i575) #21
  call void @_ZNSaIcED2Ev(ptr noundef nonnull align 1 dereferenceable(1) %arrayinit.element29.i) #21
  br label %ehcleanup238.i

invoke.cont32.i:                                  ; preds = %invoke.cont.i581
  call void @llvm.lifetime.end.p0(i64 8, ptr nonnull %__guard.i575)
  %arrayinit.element33.i = getelementptr inbounds %"class.std::__cxx11::basic_string", ptr %ref.tmp.i46, i64 9
  call void @_ZNSaIcEC1Ev(ptr noundef nonnull align 1 dereferenceable(1) %ref.tmp34.i) #21
  %call.i118.i = invoke noundef ptr @_ZNSt7__cxx1112basic_stringIcSt11char_traitsIcESaIcEE13_M_local_dataEv(ptr noundef nonnull align 8 dereferenceable(32) %arrayinit.element33.i)
          to label %call.i.noexc117.i unwind label %lpad35.i

call.i.noexc117.i:                                ; preds = %invoke.cont32.i
  invoke void @_ZNSt7__cxx1112basic_stringIcSt11char_traitsIcESaIcEE12_Alloc_hiderC1EPcRKS3_(ptr noundef nonnull align 8 dereferenceable(8) %arrayinit.element33.i, ptr noundef %call.i118.i, ptr noundef nonnull align 1 dereferenceable(1) %ref.tmp34.i)
          to label %.noexc119.i unwind label %lpad35.i

.noexc119.i:                                      ; preds = %call.i.noexc117.i
  call void @llvm.lifetime.start.p0(i64 8, ptr nonnull %__guard.i565)
  %call.i.i566 = invoke noundef ptr @_ZNSt7__cxx1112basic_stringIcSt11char_traitsIcESaIcEE13_M_local_dataEv(ptr noundef nonnull align 8 dereferenceable(32) %arrayinit.element33.i)
          to label %if.end.i568 unwind label %terminate.lpad.i.i567

terminate.lpad.i.i567:                            ; preds = %.noexc119.i
  %69 = landingpad { ptr, i32 }
          catch ptr null
  %70 = extractvalue { ptr, i32 } %69, 0
  call void @__clang_call_terminate(ptr %70) #24
  unreachable

if.end.i568:                                      ; preds = %.noexc119.i
  store ptr %arrayinit.element33.i, ptr %__guard.i565, align 8
  %call4.i569 = invoke noundef ptr @_ZNKSt7__cxx1112basic_stringIcSt11char_traitsIcESaIcEE7_M_dataEv(ptr noundef nonnull align 8 dereferenceable(32) %arrayinit.element33.i)
          to label %invoke.cont.i571 unwind label %lpad.i570

invoke.cont.i571:                                 ; preds = %if.end.i568
  call void @_ZNSt7__cxx1112basic_stringIcSt11char_traitsIcESaIcEE13_S_copy_charsEPcPKcS7_(ptr noundef %call4.i569, ptr noundef nonnull @.str.17, ptr noundef nonnull getelementptr inbounds ([7 x i8], ptr @.str.17, i64 0, i64 6)) #21
  store ptr null, ptr %__guard.i565, align 8
  invoke void @_ZNSt7__cxx1112basic_stringIcSt11char_traitsIcESaIcEE13_M_set_lengthEm(ptr noundef nonnull align 8 dereferenceable(32) %arrayinit.element33.i, i64 noundef 6)
          to label %invoke.cont36.i unwind label %lpad.i570

lpad.i570:                                        ; preds = %invoke.cont.i571, %if.end.i568
  %71 = landingpad { ptr, i32 }
          cleanup
  call void @_ZZNSt7__cxx1112basic_stringIcSt11char_traitsIcESaIcEE12_M_constructIPKcEEvT_S8_St20forward_iterator_tagEN6_GuardD2Ev(ptr noundef nonnull align 8 dereferenceable(8) %__guard.i565) #21
  call void @_ZNSaIcED2Ev(ptr noundef nonnull align 1 dereferenceable(1) %arrayinit.element33.i) #21
  br label %ehcleanup237.i

invoke.cont36.i:                                  ; preds = %invoke.cont.i571
  call void @llvm.lifetime.end.p0(i64 8, ptr nonnull %__guard.i565)
  %arrayinit.element37.i = getelementptr inbounds %"class.std::__cxx11::basic_string", ptr %ref.tmp.i46, i64 10
  call void @_ZNSaIcEC1Ev(ptr noundef nonnull align 1 dereferenceable(1) %ref.tmp38.i) #21
  %call.i126.i = invoke noundef ptr @_ZNSt7__cxx1112basic_stringIcSt11char_traitsIcESaIcEE13_M_local_dataEv(ptr noundef nonnull align 8 dereferenceable(32) %arrayinit.element37.i)
          to label %call.i.noexc125.i unwind label %lpad39.i

call.i.noexc125.i:                                ; preds = %invoke.cont36.i
  invoke void @_ZNSt7__cxx1112basic_stringIcSt11char_traitsIcESaIcEE12_Alloc_hiderC1EPcRKS3_(ptr noundef nonnull align 8 dereferenceable(8) %arrayinit.element37.i, ptr noundef %call.i126.i, ptr noundef nonnull align 1 dereferenceable(1) %ref.tmp38.i)
          to label %.noexc127.i unwind label %lpad39.i

.noexc127.i:                                      ; preds = %call.i.noexc125.i
  call void @llvm.lifetime.start.p0(i64 8, ptr nonnull %__guard.i555)
  %call.i.i556 = invoke noundef ptr @_ZNSt7__cxx1112basic_stringIcSt11char_traitsIcESaIcEE13_M_local_dataEv(ptr noundef nonnull align 8 dereferenceable(32) %arrayinit.element37.i)
          to label %if.end.i558 unwind label %terminate.lpad.i.i557

terminate.lpad.i.i557:                            ; preds = %.noexc127.i
  %72 = landingpad { ptr, i32 }
          catch ptr null
  %73 = extractvalue { ptr, i32 } %72, 0
  call void @__clang_call_terminate(ptr %73) #24
  unreachable

if.end.i558:                                      ; preds = %.noexc127.i
  store ptr %arrayinit.element37.i, ptr %__guard.i555, align 8
  %call4.i559 = invoke noundef ptr @_ZNKSt7__cxx1112basic_stringIcSt11char_traitsIcESaIcEE7_M_dataEv(ptr noundef nonnull align 8 dereferenceable(32) %arrayinit.element37.i)
          to label %invoke.cont.i561 unwind label %lpad.i560

invoke.cont.i561:                                 ; preds = %if.end.i558
  call void @_ZNSt7__cxx1112basic_stringIcSt11char_traitsIcESaIcEE13_S_copy_charsEPcPKcS7_(ptr noundef %call4.i559, ptr noundef nonnull @.str.18, ptr noundef nonnull getelementptr inbounds ([3 x i8], ptr @.str.18, i64 0, i64 2)) #21
  store ptr null, ptr %__guard.i555, align 8
  invoke void @_ZNSt7__cxx1112basic_stringIcSt11char_traitsIcESaIcEE13_M_set_lengthEm(ptr noundef nonnull align 8 dereferenceable(32) %arrayinit.element37.i, i64 noundef 2)
          to label %invoke.cont40.i unwind label %lpad.i560

lpad.i560:                                        ; preds = %invoke.cont.i561, %if.end.i558
  %74 = landingpad { ptr, i32 }
          cleanup
  call void @_ZZNSt7__cxx1112basic_stringIcSt11char_traitsIcESaIcEE12_M_constructIPKcEEvT_S8_St20forward_iterator_tagEN6_GuardD2Ev(ptr noundef nonnull align 8 dereferenceable(8) %__guard.i555) #21
  call void @_ZNSaIcED2Ev(ptr noundef nonnull align 1 dereferenceable(1) %arrayinit.element37.i) #21
  br label %ehcleanup236.i

invoke.cont40.i:                                  ; preds = %invoke.cont.i561
  call void @llvm.lifetime.end.p0(i64 8, ptr nonnull %__guard.i555)
  %arrayinit.element41.i = getelementptr inbounds %"class.std::__cxx11::basic_string", ptr %ref.tmp.i46, i64 11
  call void @_ZNSaIcEC1Ev(ptr noundef nonnull align 1 dereferenceable(1) %ref.tmp42.i) #21
  %call.i134.i = invoke noundef ptr @_ZNSt7__cxx1112basic_stringIcSt11char_traitsIcESaIcEE13_M_local_dataEv(ptr noundef nonnull align 8 dereferenceable(32) %arrayinit.element41.i)
          to label %call.i.noexc133.i unwind label %lpad43.i

call.i.noexc133.i:                                ; preds = %invoke.cont40.i
  invoke void @_ZNSt7__cxx1112basic_stringIcSt11char_traitsIcESaIcEE12_Alloc_hiderC1EPcRKS3_(ptr noundef nonnull align 8 dereferenceable(8) %arrayinit.element41.i, ptr noundef %call.i134.i, ptr noundef nonnull align 1 dereferenceable(1) %ref.tmp42.i)
          to label %.noexc135.i unwind label %lpad43.i

.noexc135.i:                                      ; preds = %call.i.noexc133.i
  call void @llvm.lifetime.start.p0(i64 8, ptr nonnull %__guard.i545)
  %call.i.i546 = invoke noundef ptr @_ZNSt7__cxx1112basic_stringIcSt11char_traitsIcESaIcEE13_M_local_dataEv(ptr noundef nonnull align 8 dereferenceable(32) %arrayinit.element41.i)
          to label %if.end.i548 unwind label %terminate.lpad.i.i547

terminate.lpad.i.i547:                            ; preds = %.noexc135.i
  %75 = landingpad { ptr, i32 }
          catch ptr null
  %76 = extractvalue { ptr, i32 } %75, 0
  call void @__clang_call_terminate(ptr %76) #24
  unreachable

if.end.i548:                                      ; preds = %.noexc135.i
  store ptr %arrayinit.element41.i, ptr %__guard.i545, align 8
  %call4.i549 = invoke noundef ptr @_ZNKSt7__cxx1112basic_stringIcSt11char_traitsIcESaIcEE7_M_dataEv(ptr noundef nonnull align 8 dereferenceable(32) %arrayinit.element41.i)
          to label %invoke.cont.i551 unwind label %lpad.i550

invoke.cont.i551:                                 ; preds = %if.end.i548
  call void @_ZNSt7__cxx1112basic_stringIcSt11char_traitsIcESaIcEE13_S_copy_charsEPcPKcS7_(ptr noundef %call4.i549, ptr noundef nonnull @.str.19, ptr noundef nonnull getelementptr inbounds ([5 x i8], ptr @.str.19, i64 0, i64 4)) #21
  store ptr null, ptr %__guard.i545, align 8
  invoke void @_ZNSt7__cxx1112basic_stringIcSt11char_traitsIcESaIcEE13_M_set_lengthEm(ptr noundef nonnull align 8 dereferenceable(32) %arrayinit.element41.i, i64 noundef 4)
          to label %invoke.cont44.i unwind label %lpad.i550

lpad.i550:                                        ; preds = %invoke.cont.i551, %if.end.i548
  %77 = landingpad { ptr, i32 }
          cleanup
  call void @_ZZNSt7__cxx1112basic_stringIcSt11char_traitsIcESaIcEE12_M_constructIPKcEEvT_S8_St20forward_iterator_tagEN6_GuardD2Ev(ptr noundef nonnull align 8 dereferenceable(8) %__guard.i545) #21
  call void @_ZNSaIcED2Ev(ptr noundef nonnull align 1 dereferenceable(1) %arrayinit.element41.i) #21
  br label %ehcleanup235.i

invoke.cont44.i:                                  ; preds = %invoke.cont.i551
  call void @llvm.lifetime.end.p0(i64 8, ptr nonnull %__guard.i545)
  %arrayinit.element45.i = getelementptr inbounds %"class.std::__cxx11::basic_string", ptr %ref.tmp.i46, i64 12
  call void @_ZNSaIcEC1Ev(ptr noundef nonnull align 1 dereferenceable(1) %ref.tmp46.i) #21
  %call.i142.i = invoke noundef ptr @_ZNSt7__cxx1112basic_stringIcSt11char_traitsIcESaIcEE13_M_local_dataEv(ptr noundef nonnull align 8 dereferenceable(32) %arrayinit.element45.i)
          to label %call.i.noexc141.i unwind label %lpad47.i

call.i.noexc141.i:                                ; preds = %invoke.cont44.i
  invoke void @_ZNSt7__cxx1112basic_stringIcSt11char_traitsIcESaIcEE12_Alloc_hiderC1EPcRKS3_(ptr noundef nonnull align 8 dereferenceable(8) %arrayinit.element45.i, ptr noundef %call.i142.i, ptr noundef nonnull align 1 dereferenceable(1) %ref.tmp46.i)
          to label %.noexc143.i unwind label %lpad47.i

.noexc143.i:                                      ; preds = %call.i.noexc141.i
  call void @llvm.lifetime.start.p0(i64 8, ptr nonnull %__guard.i535)
  %call.i.i536 = invoke noundef ptr @_ZNSt7__cxx1112basic_stringIcSt11char_traitsIcESaIcEE13_M_local_dataEv(ptr noundef nonnull align 8 dereferenceable(32) %arrayinit.element45.i)
          to label %if.end.i538 unwind label %terminate.lpad.i.i537

terminate.lpad.i.i537:                            ; preds = %.noexc143.i
  %78 = landingpad { ptr, i32 }
          catch ptr null
  %79 = extractvalue { ptr, i32 } %78, 0
  call void @__clang_call_terminate(ptr %79) #24
  unreachable

if.end.i538:                                      ; preds = %.noexc143.i
  store ptr %arrayinit.element45.i, ptr %__guard.i535, align 8
  %call4.i539 = invoke noundef ptr @_ZNKSt7__cxx1112basic_stringIcSt11char_traitsIcESaIcEE7_M_dataEv(ptr noundef nonnull align 8 dereferenceable(32) %arrayinit.element45.i)
          to label %invoke.cont.i541 unwind label %lpad.i540

invoke.cont.i541:                                 ; preds = %if.end.i538
  call void @_ZNSt7__cxx1112basic_stringIcSt11char_traitsIcESaIcEE13_S_copy_charsEPcPKcS7_(ptr noundef %call4.i539, ptr noundef nonnull @.str.20, ptr noundef nonnull getelementptr inbounds ([5 x i8], ptr @.str.20, i64 0, i64 4)) #21
  store ptr null, ptr %__guard.i535, align 8
  invoke void @_ZNSt7__cxx1112basic_stringIcSt11char_traitsIcESaIcEE13_M_set_lengthEm(ptr noundef nonnull align 8 dereferenceable(32) %arrayinit.element45.i, i64 noundef 4)
          to label %invoke.cont48.i unwind label %lpad.i540

lpad.i540:                                        ; preds = %invoke.cont.i541, %if.end.i538
  %80 = landingpad { ptr, i32 }
          cleanup
  call void @_ZZNSt7__cxx1112basic_stringIcSt11char_traitsIcESaIcEE12_M_constructIPKcEEvT_S8_St20forward_iterator_tagEN6_GuardD2Ev(ptr noundef nonnull align 8 dereferenceable(8) %__guard.i535) #21
  call void @_ZNSaIcED2Ev(ptr noundef nonnull align 1 dereferenceable(1) %arrayinit.element45.i) #21
  br label %ehcleanup234.i

invoke.cont48.i:                                  ; preds = %invoke.cont.i541
  call void @llvm.lifetime.end.p0(i64 8, ptr nonnull %__guard.i535)
  %arrayinit.element49.i = getelementptr inbounds %"class.std::__cxx11::basic_string", ptr %ref.tmp.i46, i64 13
  call void @_ZNSaIcEC1Ev(ptr noundef nonnull align 1 dereferenceable(1) %ref.tmp50.i) #21
  %call.i150.i = invoke noundef ptr @_ZNSt7__cxx1112basic_stringIcSt11char_traitsIcESaIcEE13_M_local_dataEv(ptr noundef nonnull align 8 dereferenceable(32) %arrayinit.element49.i)
          to label %call.i.noexc149.i unwind label %lpad51.i

call.i.noexc149.i:                                ; preds = %invoke.cont48.i
  invoke void @_ZNSt7__cxx1112basic_stringIcSt11char_traitsIcESaIcEE12_Alloc_hiderC1EPcRKS3_(ptr noundef nonnull align 8 dereferenceable(8) %arrayinit.element49.i, ptr noundef %call.i150.i, ptr noundef nonnull align 1 dereferenceable(1) %ref.tmp50.i)
          to label %.noexc151.i unwind label %lpad51.i

.noexc151.i:                                      ; preds = %call.i.noexc149.i
  call void @llvm.lifetime.start.p0(i64 8, ptr nonnull %__guard.i525)
  %call.i.i526 = invoke noundef ptr @_ZNSt7__cxx1112basic_stringIcSt11char_traitsIcESaIcEE13_M_local_dataEv(ptr noundef nonnull align 8 dereferenceable(32) %arrayinit.element49.i)
          to label %if.end.i528 unwind label %terminate.lpad.i.i527

terminate.lpad.i.i527:                            ; preds = %.noexc151.i
  %81 = landingpad { ptr, i32 }
          catch ptr null
  %82 = extractvalue { ptr, i32 } %81, 0
  call void @__clang_call_terminate(ptr %82) #24
  unreachable

if.end.i528:                                      ; preds = %.noexc151.i
  store ptr %arrayinit.element49.i, ptr %__guard.i525, align 8
  %call4.i529 = invoke noundef ptr @_ZNKSt7__cxx1112basic_stringIcSt11char_traitsIcESaIcEE7_M_dataEv(ptr noundef nonnull align 8 dereferenceable(32) %arrayinit.element49.i)
          to label %invoke.cont.i531 unwind label %lpad.i530

invoke.cont.i531:                                 ; preds = %if.end.i528
  call void @_ZNSt7__cxx1112basic_stringIcSt11char_traitsIcESaIcEE13_S_copy_charsEPcPKcS7_(ptr noundef %call4.i529, ptr noundef nonnull @.str.21, ptr noundef nonnull getelementptr inbounds ([7 x i8], ptr @.str.21, i64 0, i64 6)) #21
  store ptr null, ptr %__guard.i525, align 8
  invoke void @_ZNSt7__cxx1112basic_stringIcSt11char_traitsIcESaIcEE13_M_set_lengthEm(ptr noundef nonnull align 8 dereferenceable(32) %arrayinit.element49.i, i64 noundef 6)
          to label %invoke.cont52.i unwind label %lpad.i530

lpad.i530:                                        ; preds = %invoke.cont.i531, %if.end.i528
  %83 = landingpad { ptr, i32 }
          cleanup
  call void @_ZZNSt7__cxx1112basic_stringIcSt11char_traitsIcESaIcEE12_M_constructIPKcEEvT_S8_St20forward_iterator_tagEN6_GuardD2Ev(ptr noundef nonnull align 8 dereferenceable(8) %__guard.i525) #21
  call void @_ZNSaIcED2Ev(ptr noundef nonnull align 1 dereferenceable(1) %arrayinit.element49.i) #21
  br label %ehcleanup233.i

invoke.cont52.i:                                  ; preds = %invoke.cont.i531
  call void @llvm.lifetime.end.p0(i64 8, ptr nonnull %__guard.i525)
  %arrayinit.element53.i = getelementptr inbounds %"class.std::__cxx11::basic_string", ptr %ref.tmp.i46, i64 14
  call void @_ZNSaIcEC1Ev(ptr noundef nonnull align 1 dereferenceable(1) %ref.tmp54.i) #21
  %call.i158.i = invoke noundef ptr @_ZNSt7__cxx1112basic_stringIcSt11char_traitsIcESaIcEE13_M_local_dataEv(ptr noundef nonnull align 8 dereferenceable(32) %arrayinit.element53.i)
          to label %call.i.noexc157.i unwind label %lpad55.i

call.i.noexc157.i:                                ; preds = %invoke.cont52.i
  invoke void @_ZNSt7__cxx1112basic_stringIcSt11char_traitsIcESaIcEE12_Alloc_hiderC1EPcRKS3_(ptr noundef nonnull align 8 dereferenceable(8) %arrayinit.element53.i, ptr noundef %call.i158.i, ptr noundef nonnull align 1 dereferenceable(1) %ref.tmp54.i)
          to label %.noexc159.i unwind label %lpad55.i

.noexc159.i:                                      ; preds = %call.i.noexc157.i
  call void @llvm.lifetime.start.p0(i64 8, ptr nonnull %__guard.i515)
  %call.i.i516 = invoke noundef ptr @_ZNSt7__cxx1112basic_stringIcSt11char_traitsIcESaIcEE13_M_local_dataEv(ptr noundef nonnull align 8 dereferenceable(32) %arrayinit.element53.i)
          to label %if.end.i518 unwind label %terminate.lpad.i.i517

terminate.lpad.i.i517:                            ; preds = %.noexc159.i
  %84 = landingpad { ptr, i32 }
          catch ptr null
  %85 = extractvalue { ptr, i32 } %84, 0
  call void @__clang_call_terminate(ptr %85) #24
  unreachable

if.end.i518:                                      ; preds = %.noexc159.i
  store ptr %arrayinit.element53.i, ptr %__guard.i515, align 8
  %call4.i519 = invoke noundef ptr @_ZNKSt7__cxx1112basic_stringIcSt11char_traitsIcESaIcEE7_M_dataEv(ptr noundef nonnull align 8 dereferenceable(32) %arrayinit.element53.i)
          to label %invoke.cont.i521 unwind label %lpad.i520

invoke.cont.i521:                                 ; preds = %if.end.i518
  call void @_ZNSt7__cxx1112basic_stringIcSt11char_traitsIcESaIcEE13_S_copy_charsEPcPKcS7_(ptr noundef %call4.i519, ptr noundef nonnull @.str.22, ptr noundef nonnull getelementptr inbounds ([8 x i8], ptr @.str.22, i64 0, i64 7)) #21
  store ptr null, ptr %__guard.i515, align 8
  invoke void @_ZNSt7__cxx1112basic_stringIcSt11char_traitsIcESaIcEE13_M_set_lengthEm(ptr noundef nonnull align 8 dereferenceable(32) %arrayinit.element53.i, i64 noundef 7)
          to label %invoke.cont56.i unwind label %lpad.i520

lpad.i520:                                        ; preds = %invoke.cont.i521, %if.end.i518
  %86 = landingpad { ptr, i32 }
          cleanup
  call void @_ZZNSt7__cxx1112basic_stringIcSt11char_traitsIcESaIcEE12_M_constructIPKcEEvT_S8_St20forward_iterator_tagEN6_GuardD2Ev(ptr noundef nonnull align 8 dereferenceable(8) %__guard.i515) #21
  call void @_ZNSaIcED2Ev(ptr noundef nonnull align 1 dereferenceable(1) %arrayinit.element53.i) #21
  br label %ehcleanup232.i

invoke.cont56.i:                                  ; preds = %invoke.cont.i521
  call void @llvm.lifetime.end.p0(i64 8, ptr nonnull %__guard.i515)
  %arrayinit.element57.i = getelementptr inbounds %"class.std::__cxx11::basic_string", ptr %ref.tmp.i46, i64 15
  call void @_ZNSaIcEC1Ev(ptr noundef nonnull align 1 dereferenceable(1) %ref.tmp58.i) #21
  %call.i166.i = invoke noundef ptr @_ZNSt7__cxx1112basic_stringIcSt11char_traitsIcESaIcEE13_M_local_dataEv(ptr noundef nonnull align 8 dereferenceable(32) %arrayinit.element57.i)
          to label %call.i.noexc165.i unwind label %lpad59.i

call.i.noexc165.i:                                ; preds = %invoke.cont56.i
  invoke void @_ZNSt7__cxx1112basic_stringIcSt11char_traitsIcESaIcEE12_Alloc_hiderC1EPcRKS3_(ptr noundef nonnull align 8 dereferenceable(8) %arrayinit.element57.i, ptr noundef %call.i166.i, ptr noundef nonnull align 1 dereferenceable(1) %ref.tmp58.i)
          to label %.noexc167.i unwind label %lpad59.i

.noexc167.i:                                      ; preds = %call.i.noexc165.i
  call void @llvm.lifetime.start.p0(i64 8, ptr nonnull %__guard.i505)
  %call.i.i506 = invoke noundef ptr @_ZNSt7__cxx1112basic_stringIcSt11char_traitsIcESaIcEE13_M_local_dataEv(ptr noundef nonnull align 8 dereferenceable(32) %arrayinit.element57.i)
          to label %if.end.i508 unwind label %terminate.lpad.i.i507

terminate.lpad.i.i507:                            ; preds = %.noexc167.i
  %87 = landingpad { ptr, i32 }
          catch ptr null
  %88 = extractvalue { ptr, i32 } %87, 0
  call void @__clang_call_terminate(ptr %88) #24
  unreachable

if.end.i508:                                      ; preds = %.noexc167.i
  store ptr %arrayinit.element57.i, ptr %__guard.i505, align 8
  %call4.i509 = invoke noundef ptr @_ZNKSt7__cxx1112basic_stringIcSt11char_traitsIcESaIcEE7_M_dataEv(ptr noundef nonnull align 8 dereferenceable(32) %arrayinit.element57.i)
          to label %invoke.cont.i511 unwind label %lpad.i510

invoke.cont.i511:                                 ; preds = %if.end.i508
  call void @_ZNSt7__cxx1112basic_stringIcSt11char_traitsIcESaIcEE13_S_copy_charsEPcPKcS7_(ptr noundef %call4.i509, ptr noundef nonnull @.str.23, ptr noundef nonnull getelementptr inbounds ([6 x i8], ptr @.str.23, i64 0, i64 5)) #21
  store ptr null, ptr %__guard.i505, align 8
  invoke void @_ZNSt7__cxx1112basic_stringIcSt11char_traitsIcESaIcEE13_M_set_lengthEm(ptr noundef nonnull align 8 dereferenceable(32) %arrayinit.element57.i, i64 noundef 5)
          to label %invoke.cont60.i unwind label %lpad.i510

lpad.i510:                                        ; preds = %invoke.cont.i511, %if.end.i508
  %89 = landingpad { ptr, i32 }
          cleanup
  call void @_ZZNSt7__cxx1112basic_stringIcSt11char_traitsIcESaIcEE12_M_constructIPKcEEvT_S8_St20forward_iterator_tagEN6_GuardD2Ev(ptr noundef nonnull align 8 dereferenceable(8) %__guard.i505) #21
  call void @_ZNSaIcED2Ev(ptr noundef nonnull align 1 dereferenceable(1) %arrayinit.element57.i) #21
  br label %ehcleanup231.i

invoke.cont60.i:                                  ; preds = %invoke.cont.i511
  call void @llvm.lifetime.end.p0(i64 8, ptr nonnull %__guard.i505)
  %arrayinit.element61.i = getelementptr inbounds %"class.std::__cxx11::basic_string", ptr %ref.tmp.i46, i64 16
  call void @_ZNSaIcEC1Ev(ptr noundef nonnull align 1 dereferenceable(1) %ref.tmp62.i) #21
  %call.i174.i = invoke noundef ptr @_ZNSt7__cxx1112basic_stringIcSt11char_traitsIcESaIcEE13_M_local_dataEv(ptr noundef nonnull align 8 dereferenceable(32) %arrayinit.element61.i)
          to label %call.i.noexc173.i unwind label %lpad63.i

call.i.noexc173.i:                                ; preds = %invoke.cont60.i
  invoke void @_ZNSt7__cxx1112basic_stringIcSt11char_traitsIcESaIcEE12_Alloc_hiderC1EPcRKS3_(ptr noundef nonnull align 8 dereferenceable(8) %arrayinit.element61.i, ptr noundef %call.i174.i, ptr noundef nonnull align 1 dereferenceable(1) %ref.tmp62.i)
          to label %.noexc175.i unwind label %lpad63.i

.noexc175.i:                                      ; preds = %call.i.noexc173.i
  call void @llvm.lifetime.start.p0(i64 8, ptr nonnull %__guard.i495)
  %call.i.i496 = invoke noundef ptr @_ZNSt7__cxx1112basic_stringIcSt11char_traitsIcESaIcEE13_M_local_dataEv(ptr noundef nonnull align 8 dereferenceable(32) %arrayinit.element61.i)
          to label %if.end.i498 unwind label %terminate.lpad.i.i497

terminate.lpad.i.i497:                            ; preds = %.noexc175.i
  %90 = landingpad { ptr, i32 }
          catch ptr null
  %91 = extractvalue { ptr, i32 } %90, 0
  call void @__clang_call_terminate(ptr %91) #24
  unreachable

if.end.i498:                                      ; preds = %.noexc175.i
  store ptr %arrayinit.element61.i, ptr %__guard.i495, align 8
  %call4.i499 = invoke noundef ptr @_ZNKSt7__cxx1112basic_stringIcSt11char_traitsIcESaIcEE7_M_dataEv(ptr noundef nonnull align 8 dereferenceable(32) %arrayinit.element61.i)
          to label %invoke.cont.i501 unwind label %lpad.i500

invoke.cont.i501:                                 ; preds = %if.end.i498
  call void @_ZNSt7__cxx1112basic_stringIcSt11char_traitsIcESaIcEE13_S_copy_charsEPcPKcS7_(ptr noundef %call4.i499, ptr noundef nonnull @.str.24, ptr noundef nonnull getelementptr inbounds ([8 x i8], ptr @.str.24, i64 0, i64 7)) #21
  store ptr null, ptr %__guard.i495, align 8
  invoke void @_ZNSt7__cxx1112basic_stringIcSt11char_traitsIcESaIcEE13_M_set_lengthEm(ptr noundef nonnull align 8 dereferenceable(32) %arrayinit.element61.i, i64 noundef 7)
          to label %invoke.cont64.i unwind label %lpad.i500

lpad.i500:                                        ; preds = %invoke.cont.i501, %if.end.i498
  %92 = landingpad { ptr, i32 }
          cleanup
  call void @_ZZNSt7__cxx1112basic_stringIcSt11char_traitsIcESaIcEE12_M_constructIPKcEEvT_S8_St20forward_iterator_tagEN6_GuardD2Ev(ptr noundef nonnull align 8 dereferenceable(8) %__guard.i495) #21
  call void @_ZNSaIcED2Ev(ptr noundef nonnull align 1 dereferenceable(1) %arrayinit.element61.i) #21
  br label %ehcleanup230.i

invoke.cont64.i:                                  ; preds = %invoke.cont.i501
  call void @llvm.lifetime.end.p0(i64 8, ptr nonnull %__guard.i495)
  %arrayinit.element65.i = getelementptr inbounds %"class.std::__cxx11::basic_string", ptr %ref.tmp.i46, i64 17
  call void @_ZNSaIcEC1Ev(ptr noundef nonnull align 1 dereferenceable(1) %ref.tmp66.i) #21
  %call.i182.i = invoke noundef ptr @_ZNSt7__cxx1112basic_stringIcSt11char_traitsIcESaIcEE13_M_local_dataEv(ptr noundef nonnull align 8 dereferenceable(32) %arrayinit.element65.i)
          to label %call.i.noexc181.i unwind label %lpad67.i

call.i.noexc181.i:                                ; preds = %invoke.cont64.i
  invoke void @_ZNSt7__cxx1112basic_stringIcSt11char_traitsIcESaIcEE12_Alloc_hiderC1EPcRKS3_(ptr noundef nonnull align 8 dereferenceable(8) %arrayinit.element65.i, ptr noundef %call.i182.i, ptr noundef nonnull align 1 dereferenceable(1) %ref.tmp66.i)
          to label %.noexc183.i unwind label %lpad67.i

.noexc183.i:                                      ; preds = %call.i.noexc181.i
  call void @llvm.lifetime.start.p0(i64 8, ptr nonnull %__guard.i485)
  %call.i.i486 = invoke noundef ptr @_ZNSt7__cxx1112basic_stringIcSt11char_traitsIcESaIcEE13_M_local_dataEv(ptr noundef nonnull align 8 dereferenceable(32) %arrayinit.element65.i)
          to label %if.end.i488 unwind label %terminate.lpad.i.i487

terminate.lpad.i.i487:                            ; preds = %.noexc183.i
  %93 = landingpad { ptr, i32 }
          catch ptr null
  %94 = extractvalue { ptr, i32 } %93, 0
  call void @__clang_call_terminate(ptr %94) #24
  unreachable

if.end.i488:                                      ; preds = %.noexc183.i
  store ptr %arrayinit.element65.i, ptr %__guard.i485, align 8
  %call4.i489 = invoke noundef ptr @_ZNKSt7__cxx1112basic_stringIcSt11char_traitsIcESaIcEE7_M_dataEv(ptr noundef nonnull align 8 dereferenceable(32) %arrayinit.element65.i)
          to label %invoke.cont.i491 unwind label %lpad.i490

invoke.cont.i491:                                 ; preds = %if.end.i488
  call void @_ZNSt7__cxx1112basic_stringIcSt11char_traitsIcESaIcEE13_S_copy_charsEPcPKcS7_(ptr noundef %call4.i489, ptr noundef nonnull @.str.25, ptr noundef nonnull getelementptr inbounds ([4 x i8], ptr @.str.25, i64 0, i64 3)) #21
  store ptr null, ptr %__guard.i485, align 8
  invoke void @_ZNSt7__cxx1112basic_stringIcSt11char_traitsIcESaIcEE13_M_set_lengthEm(ptr noundef nonnull align 8 dereferenceable(32) %arrayinit.element65.i, i64 noundef 3)
          to label %invoke.cont68.i unwind label %lpad.i490

lpad.i490:                                        ; preds = %invoke.cont.i491, %if.end.i488
  %95 = landingpad { ptr, i32 }
          cleanup
  call void @_ZZNSt7__cxx1112basic_stringIcSt11char_traitsIcESaIcEE12_M_constructIPKcEEvT_S8_St20forward_iterator_tagEN6_GuardD2Ev(ptr noundef nonnull align 8 dereferenceable(8) %__guard.i485) #21
  call void @_ZNSaIcED2Ev(ptr noundef nonnull align 1 dereferenceable(1) %arrayinit.element65.i) #21
  br label %ehcleanup229.i

invoke.cont68.i:                                  ; preds = %invoke.cont.i491
  call void @llvm.lifetime.end.p0(i64 8, ptr nonnull %__guard.i485)
  %arrayinit.element69.i = getelementptr inbounds %"class.std::__cxx11::basic_string", ptr %ref.tmp.i46, i64 18
  call void @_ZNSaIcEC1Ev(ptr noundef nonnull align 1 dereferenceable(1) %ref.tmp70.i) #21
  %call.i190.i = invoke noundef ptr @_ZNSt7__cxx1112basic_stringIcSt11char_traitsIcESaIcEE13_M_local_dataEv(ptr noundef nonnull align 8 dereferenceable(32) %arrayinit.element69.i)
          to label %call.i.noexc189.i unwind label %lpad71.i

call.i.noexc189.i:                                ; preds = %invoke.cont68.i
  invoke void @_ZNSt7__cxx1112basic_stringIcSt11char_traitsIcESaIcEE12_Alloc_hiderC1EPcRKS3_(ptr noundef nonnull align 8 dereferenceable(8) %arrayinit.element69.i, ptr noundef %call.i190.i, ptr noundef nonnull align 1 dereferenceable(1) %ref.tmp70.i)
          to label %.noexc191.i unwind label %lpad71.i

.noexc191.i:                                      ; preds = %call.i.noexc189.i
  call void @llvm.lifetime.start.p0(i64 8, ptr nonnull %__guard.i475)
  %call.i.i476 = invoke noundef ptr @_ZNSt7__cxx1112basic_stringIcSt11char_traitsIcESaIcEE13_M_local_dataEv(ptr noundef nonnull align 8 dereferenceable(32) %arrayinit.element69.i)
          to label %if.end.i478 unwind label %terminate.lpad.i.i477

terminate.lpad.i.i477:                            ; preds = %.noexc191.i
  %96 = landingpad { ptr, i32 }
          catch ptr null
  %97 = extractvalue { ptr, i32 } %96, 0
  call void @__clang_call_terminate(ptr %97) #24
  unreachable

if.end.i478:                                      ; preds = %.noexc191.i
  store ptr %arrayinit.element69.i, ptr %__guard.i475, align 8
  %call4.i479 = invoke noundef ptr @_ZNKSt7__cxx1112basic_stringIcSt11char_traitsIcESaIcEE7_M_dataEv(ptr noundef nonnull align 8 dereferenceable(32) %arrayinit.element69.i)
          to label %invoke.cont.i481 unwind label %lpad.i480

invoke.cont.i481:                                 ; preds = %if.end.i478
  call void @_ZNSt7__cxx1112basic_stringIcSt11char_traitsIcESaIcEE13_S_copy_charsEPcPKcS7_(ptr noundef %call4.i479, ptr noundef nonnull @.str.26, ptr noundef nonnull getelementptr inbounds ([9 x i8], ptr @.str.26, i64 0, i64 8)) #21
  store ptr null, ptr %__guard.i475, align 8
  invoke void @_ZNSt7__cxx1112basic_stringIcSt11char_traitsIcESaIcEE13_M_set_lengthEm(ptr noundef nonnull align 8 dereferenceable(32) %arrayinit.element69.i, i64 noundef 8)
          to label %invoke.cont72.i unwind label %lpad.i480

lpad.i480:                                        ; preds = %invoke.cont.i481, %if.end.i478
  %98 = landingpad { ptr, i32 }
          cleanup
  call void @_ZZNSt7__cxx1112basic_stringIcSt11char_traitsIcESaIcEE12_M_constructIPKcEEvT_S8_St20forward_iterator_tagEN6_GuardD2Ev(ptr noundef nonnull align 8 dereferenceable(8) %__guard.i475) #21
  call void @_ZNSaIcED2Ev(ptr noundef nonnull align 1 dereferenceable(1) %arrayinit.element69.i) #21
  br label %ehcleanup228.i

invoke.cont72.i:                                  ; preds = %invoke.cont.i481
  call void @llvm.lifetime.end.p0(i64 8, ptr nonnull %__guard.i475)
  %arrayinit.element73.i = getelementptr inbounds %"class.std::__cxx11::basic_string", ptr %ref.tmp.i46, i64 19
  call void @_ZNSaIcEC1Ev(ptr noundef nonnull align 1 dereferenceable(1) %ref.tmp74.i) #21
  %call.i198.i = invoke noundef ptr @_ZNSt7__cxx1112basic_stringIcSt11char_traitsIcESaIcEE13_M_local_dataEv(ptr noundef nonnull align 8 dereferenceable(32) %arrayinit.element73.i)
          to label %call.i.noexc197.i unwind label %lpad75.i

call.i.noexc197.i:                                ; preds = %invoke.cont72.i
  invoke void @_ZNSt7__cxx1112basic_stringIcSt11char_traitsIcESaIcEE12_Alloc_hiderC1EPcRKS3_(ptr noundef nonnull align 8 dereferenceable(8) %arrayinit.element73.i, ptr noundef %call.i198.i, ptr noundef nonnull align 1 dereferenceable(1) %ref.tmp74.i)
          to label %.noexc199.i unwind label %lpad75.i

.noexc199.i:                                      ; preds = %call.i.noexc197.i
  call void @llvm.lifetime.start.p0(i64 8, ptr nonnull %__guard.i465)
  %call.i.i466 = invoke noundef ptr @_ZNSt7__cxx1112basic_stringIcSt11char_traitsIcESaIcEE13_M_local_dataEv(ptr noundef nonnull align 8 dereferenceable(32) %arrayinit.element73.i)
          to label %if.end.i468 unwind label %terminate.lpad.i.i467

terminate.lpad.i.i467:                            ; preds = %.noexc199.i
  %99 = landingpad { ptr, i32 }
          catch ptr null
  %100 = extractvalue { ptr, i32 } %99, 0
  call void @__clang_call_terminate(ptr %100) #24
  unreachable

if.end.i468:                                      ; preds = %.noexc199.i
  store ptr %arrayinit.element73.i, ptr %__guard.i465, align 8
  %call4.i469 = invoke noundef ptr @_ZNKSt7__cxx1112basic_stringIcSt11char_traitsIcESaIcEE7_M_dataEv(ptr noundef nonnull align 8 dereferenceable(32) %arrayinit.element73.i)
          to label %invoke.cont.i471 unwind label %lpad.i470

invoke.cont.i471:                                 ; preds = %if.end.i468
  call void @_ZNSt7__cxx1112basic_stringIcSt11char_traitsIcESaIcEE13_S_copy_charsEPcPKcS7_(ptr noundef %call4.i469, ptr noundef nonnull @.str.27, ptr noundef nonnull getelementptr inbounds ([3 x i8], ptr @.str.27, i64 0, i64 2)) #21
  store ptr null, ptr %__guard.i465, align 8
  invoke void @_ZNSt7__cxx1112basic_stringIcSt11char_traitsIcESaIcEE13_M_set_lengthEm(ptr noundef nonnull align 8 dereferenceable(32) %arrayinit.element73.i, i64 noundef 2)
          to label %invoke.cont76.i unwind label %lpad.i470

lpad.i470:                                        ; preds = %invoke.cont.i471, %if.end.i468
  %101 = landingpad { ptr, i32 }
          cleanup
  call void @_ZZNSt7__cxx1112basic_stringIcSt11char_traitsIcESaIcEE12_M_constructIPKcEEvT_S8_St20forward_iterator_tagEN6_GuardD2Ev(ptr noundef nonnull align 8 dereferenceable(8) %__guard.i465) #21
  call void @_ZNSaIcED2Ev(ptr noundef nonnull align 1 dereferenceable(1) %arrayinit.element73.i) #21
  br label %ehcleanup227.i

invoke.cont76.i:                                  ; preds = %invoke.cont.i471
  call void @llvm.lifetime.end.p0(i64 8, ptr nonnull %__guard.i465)
  %arrayinit.element77.i = getelementptr inbounds %"class.std::__cxx11::basic_string", ptr %ref.tmp.i46, i64 20
  call void @_ZNSaIcEC1Ev(ptr noundef nonnull align 1 dereferenceable(1) %ref.tmp78.i) #21
  %call.i206.i = invoke noundef ptr @_ZNSt7__cxx1112basic_stringIcSt11char_traitsIcESaIcEE13_M_local_dataEv(ptr noundef nonnull align 8 dereferenceable(32) %arrayinit.element77.i)
          to label %call.i.noexc205.i unwind label %lpad79.i

call.i.noexc205.i:                                ; preds = %invoke.cont76.i
  invoke void @_ZNSt7__cxx1112basic_stringIcSt11char_traitsIcESaIcEE12_Alloc_hiderC1EPcRKS3_(ptr noundef nonnull align 8 dereferenceable(8) %arrayinit.element77.i, ptr noundef %call.i206.i, ptr noundef nonnull align 1 dereferenceable(1) %ref.tmp78.i)
          to label %.noexc207.i unwind label %lpad79.i

.noexc207.i:                                      ; preds = %call.i.noexc205.i
  call void @llvm.lifetime.start.p0(i64 8, ptr nonnull %__guard.i455)
  %call.i.i456 = invoke noundef ptr @_ZNSt7__cxx1112basic_stringIcSt11char_traitsIcESaIcEE13_M_local_dataEv(ptr noundef nonnull align 8 dereferenceable(32) %arrayinit.element77.i)
          to label %if.end.i458 unwind label %terminate.lpad.i.i457

terminate.lpad.i.i457:                            ; preds = %.noexc207.i
  %102 = landingpad { ptr, i32 }
          catch ptr null
  %103 = extractvalue { ptr, i32 } %102, 0
  call void @__clang_call_terminate(ptr %103) #24
  unreachable

if.end.i458:                                      ; preds = %.noexc207.i
  store ptr %arrayinit.element77.i, ptr %__guard.i455, align 8
  %call4.i459 = invoke noundef ptr @_ZNKSt7__cxx1112basic_stringIcSt11char_traitsIcESaIcEE7_M_dataEv(ptr noundef nonnull align 8 dereferenceable(32) %arrayinit.element77.i)
          to label %invoke.cont.i461 unwind label %lpad.i460

invoke.cont.i461:                                 ; preds = %if.end.i458
  call void @_ZNSt7__cxx1112basic_stringIcSt11char_traitsIcESaIcEE13_S_copy_charsEPcPKcS7_(ptr noundef %call4.i459, ptr noundef nonnull @.str.28, ptr noundef nonnull getelementptr inbounds ([7 x i8], ptr @.str.28, i64 0, i64 6)) #21
  store ptr null, ptr %__guard.i455, align 8
  invoke void @_ZNSt7__cxx1112basic_stringIcSt11char_traitsIcESaIcEE13_M_set_lengthEm(ptr noundef nonnull align 8 dereferenceable(32) %arrayinit.element77.i, i64 noundef 6)
          to label %invoke.cont80.i unwind label %lpad.i460

lpad.i460:                                        ; preds = %invoke.cont.i461, %if.end.i458
  %104 = landingpad { ptr, i32 }
          cleanup
  call void @_ZZNSt7__cxx1112basic_stringIcSt11char_traitsIcESaIcEE12_M_constructIPKcEEvT_S8_St20forward_iterator_tagEN6_GuardD2Ev(ptr noundef nonnull align 8 dereferenceable(8) %__guard.i455) #21
  call void @_ZNSaIcED2Ev(ptr noundef nonnull align 1 dereferenceable(1) %arrayinit.element77.i) #21
  br label %ehcleanup226.i

invoke.cont80.i:                                  ; preds = %invoke.cont.i461
  call void @llvm.lifetime.end.p0(i64 8, ptr nonnull %__guard.i455)
  %arrayinit.element81.i = getelementptr inbounds %"class.std::__cxx11::basic_string", ptr %ref.tmp.i46, i64 21
  call void @_ZNSaIcEC1Ev(ptr noundef nonnull align 1 dereferenceable(1) %ref.tmp82.i) #21
  %call.i214.i = invoke noundef ptr @_ZNSt7__cxx1112basic_stringIcSt11char_traitsIcESaIcEE13_M_local_dataEv(ptr noundef nonnull align 8 dereferenceable(32) %arrayinit.element81.i)
          to label %call.i.noexc213.i unwind label %lpad83.i

call.i.noexc213.i:                                ; preds = %invoke.cont80.i
  invoke void @_ZNSt7__cxx1112basic_stringIcSt11char_traitsIcESaIcEE12_Alloc_hiderC1EPcRKS3_(ptr noundef nonnull align 8 dereferenceable(8) %arrayinit.element81.i, ptr noundef %call.i214.i, ptr noundef nonnull align 1 dereferenceable(1) %ref.tmp82.i)
          to label %.noexc215.i unwind label %lpad83.i

.noexc215.i:                                      ; preds = %call.i.noexc213.i
  call void @llvm.lifetime.start.p0(i64 8, ptr nonnull %__guard.i445)
  %call.i.i446 = invoke noundef ptr @_ZNSt7__cxx1112basic_stringIcSt11char_traitsIcESaIcEE13_M_local_dataEv(ptr noundef nonnull align 8 dereferenceable(32) %arrayinit.element81.i)
          to label %if.end.i448 unwind label %terminate.lpad.i.i447

terminate.lpad.i.i447:                            ; preds = %.noexc215.i
  %105 = landingpad { ptr, i32 }
          catch ptr null
  %106 = extractvalue { ptr, i32 } %105, 0
  call void @__clang_call_terminate(ptr %106) #24
  unreachable

if.end.i448:                                      ; preds = %.noexc215.i
  store ptr %arrayinit.element81.i, ptr %__guard.i445, align 8
  %call4.i449 = invoke noundef ptr @_ZNKSt7__cxx1112basic_stringIcSt11char_traitsIcESaIcEE7_M_dataEv(ptr noundef nonnull align 8 dereferenceable(32) %arrayinit.element81.i)
          to label %invoke.cont.i451 unwind label %lpad.i450

invoke.cont.i451:                                 ; preds = %if.end.i448
  call void @_ZNSt7__cxx1112basic_stringIcSt11char_traitsIcESaIcEE13_S_copy_charsEPcPKcS7_(ptr noundef %call4.i449, ptr noundef nonnull @.str.29, ptr noundef nonnull getelementptr inbounds ([3 x i8], ptr @.str.29, i64 0, i64 2)) #21
  store ptr null, ptr %__guard.i445, align 8
  invoke void @_ZNSt7__cxx1112basic_stringIcSt11char_traitsIcESaIcEE13_M_set_lengthEm(ptr noundef nonnull align 8 dereferenceable(32) %arrayinit.element81.i, i64 noundef 2)
          to label %invoke.cont84.i unwind label %lpad.i450

lpad.i450:                                        ; preds = %invoke.cont.i451, %if.end.i448
  %107 = landingpad { ptr, i32 }
          cleanup
  call void @_ZZNSt7__cxx1112basic_stringIcSt11char_traitsIcESaIcEE12_M_constructIPKcEEvT_S8_St20forward_iterator_tagEN6_GuardD2Ev(ptr noundef nonnull align 8 dereferenceable(8) %__guard.i445) #21
  call void @_ZNSaIcED2Ev(ptr noundef nonnull align 1 dereferenceable(1) %arrayinit.element81.i) #21
  br label %ehcleanup225.i

invoke.cont84.i:                                  ; preds = %invoke.cont.i451
  call void @llvm.lifetime.end.p0(i64 8, ptr nonnull %__guard.i445)
  %arrayinit.element85.i = getelementptr inbounds %"class.std::__cxx11::basic_string", ptr %ref.tmp.i46, i64 22
  call void @_ZNSaIcEC1Ev(ptr noundef nonnull align 1 dereferenceable(1) %ref.tmp86.i) #21
  %call.i222.i = invoke noundef ptr @_ZNSt7__cxx1112basic_stringIcSt11char_traitsIcESaIcEE13_M_local_dataEv(ptr noundef nonnull align 8 dereferenceable(32) %arrayinit.element85.i)
          to label %call.i.noexc221.i unwind label %lpad87.i

call.i.noexc221.i:                                ; preds = %invoke.cont84.i
  invoke void @_ZNSt7__cxx1112basic_stringIcSt11char_traitsIcESaIcEE12_Alloc_hiderC1EPcRKS3_(ptr noundef nonnull align 8 dereferenceable(8) %arrayinit.element85.i, ptr noundef %call.i222.i, ptr noundef nonnull align 1 dereferenceable(1) %ref.tmp86.i)
          to label %.noexc223.i unwind label %lpad87.i

.noexc223.i:                                      ; preds = %call.i.noexc221.i
  call void @llvm.lifetime.start.p0(i64 8, ptr nonnull %__guard.i435)
  %call.i.i436 = invoke noundef ptr @_ZNSt7__cxx1112basic_stringIcSt11char_traitsIcESaIcEE13_M_local_dataEv(ptr noundef nonnull align 8 dereferenceable(32) %arrayinit.element85.i)
          to label %if.end.i438 unwind label %terminate.lpad.i.i437

terminate.lpad.i.i437:                            ; preds = %.noexc223.i
  %108 = landingpad { ptr, i32 }
          catch ptr null
  %109 = extractvalue { ptr, i32 } %108, 0
  call void @__clang_call_terminate(ptr %109) #24
  unreachable

if.end.i438:                                      ; preds = %.noexc223.i
  store ptr %arrayinit.element85.i, ptr %__guard.i435, align 8
  %call4.i439 = invoke noundef ptr @_ZNKSt7__cxx1112basic_stringIcSt11char_traitsIcESaIcEE7_M_dataEv(ptr noundef nonnull align 8 dereferenceable(32) %arrayinit.element85.i)
          to label %invoke.cont.i441 unwind label %lpad.i440

invoke.cont.i441:                                 ; preds = %if.end.i438
  call void @_ZNSt7__cxx1112basic_stringIcSt11char_traitsIcESaIcEE13_S_copy_charsEPcPKcS7_(ptr noundef %call4.i439, ptr noundef nonnull @.str.30, ptr noundef nonnull getelementptr inbounds ([11 x i8], ptr @.str.30, i64 0, i64 10)) #21
  store ptr null, ptr %__guard.i435, align 8
  invoke void @_ZNSt7__cxx1112basic_stringIcSt11char_traitsIcESaIcEE13_M_set_lengthEm(ptr noundef nonnull align 8 dereferenceable(32) %arrayinit.element85.i, i64 noundef 10)
          to label %invoke.cont88.i unwind label %lpad.i440

lpad.i440:                                        ; preds = %invoke.cont.i441, %if.end.i438
  %110 = landingpad { ptr, i32 }
          cleanup
  call void @_ZZNSt7__cxx1112basic_stringIcSt11char_traitsIcESaIcEE12_M_constructIPKcEEvT_S8_St20forward_iterator_tagEN6_GuardD2Ev(ptr noundef nonnull align 8 dereferenceable(8) %__guard.i435) #21
  call void @_ZNSaIcED2Ev(ptr noundef nonnull align 1 dereferenceable(1) %arrayinit.element85.i) #21
  br label %ehcleanup224.i

invoke.cont88.i:                                  ; preds = %invoke.cont.i441
  call void @llvm.lifetime.end.p0(i64 8, ptr nonnull %__guard.i435)
  %arrayinit.element89.i = getelementptr inbounds %"class.std::__cxx11::basic_string", ptr %ref.tmp.i46, i64 23
  call void @_ZNSaIcEC1Ev(ptr noundef nonnull align 1 dereferenceable(1) %ref.tmp90.i) #21
  %call.i230.i = invoke noundef ptr @_ZNSt7__cxx1112basic_stringIcSt11char_traitsIcESaIcEE13_M_local_dataEv(ptr noundef nonnull align 8 dereferenceable(32) %arrayinit.element89.i)
          to label %call.i.noexc229.i unwind label %lpad91.i

call.i.noexc229.i:                                ; preds = %invoke.cont88.i
  invoke void @_ZNSt7__cxx1112basic_stringIcSt11char_traitsIcESaIcEE12_Alloc_hiderC1EPcRKS3_(ptr noundef nonnull align 8 dereferenceable(8) %arrayinit.element89.i, ptr noundef %call.i230.i, ptr noundef nonnull align 1 dereferenceable(1) %ref.tmp90.i)
          to label %.noexc231.i unwind label %lpad91.i

.noexc231.i:                                      ; preds = %call.i.noexc229.i
  call void @llvm.lifetime.start.p0(i64 8, ptr nonnull %__guard.i425)
  %call.i.i426 = invoke noundef ptr @_ZNSt7__cxx1112basic_stringIcSt11char_traitsIcESaIcEE13_M_local_dataEv(ptr noundef nonnull align 8 dereferenceable(32) %arrayinit.element89.i)
          to label %if.end.i428 unwind label %terminate.lpad.i.i427

terminate.lpad.i.i427:                            ; preds = %.noexc231.i
  %111 = landingpad { ptr, i32 }
          catch ptr null
  %112 = extractvalue { ptr, i32 } %111, 0
  call void @__clang_call_terminate(ptr %112) #24
  unreachable

if.end.i428:                                      ; preds = %.noexc231.i
  store ptr %arrayinit.element89.i, ptr %__guard.i425, align 8
  %call4.i429 = invoke noundef ptr @_ZNKSt7__cxx1112basic_stringIcSt11char_traitsIcESaIcEE7_M_dataEv(ptr noundef nonnull align 8 dereferenceable(32) %arrayinit.element89.i)
          to label %invoke.cont.i431 unwind label %lpad.i430

invoke.cont.i431:                                 ; preds = %if.end.i428
  call void @_ZNSt7__cxx1112basic_stringIcSt11char_traitsIcESaIcEE13_S_copy_charsEPcPKcS7_(ptr noundef %call4.i429, ptr noundef nonnull @.str.31, ptr noundef nonnull getelementptr inbounds ([4 x i8], ptr @.str.31, i64 0, i64 3)) #21
  store ptr null, ptr %__guard.i425, align 8
  invoke void @_ZNSt7__cxx1112basic_stringIcSt11char_traitsIcESaIcEE13_M_set_lengthEm(ptr noundef nonnull align 8 dereferenceable(32) %arrayinit.element89.i, i64 noundef 3)
          to label %invoke.cont92.i unwind label %lpad.i430

lpad.i430:                                        ; preds = %invoke.cont.i431, %if.end.i428
  %113 = landingpad { ptr, i32 }
          cleanup
  call void @_ZZNSt7__cxx1112basic_stringIcSt11char_traitsIcESaIcEE12_M_constructIPKcEEvT_S8_St20forward_iterator_tagEN6_GuardD2Ev(ptr noundef nonnull align 8 dereferenceable(8) %__guard.i425) #21
  call void @_ZNSaIcED2Ev(ptr noundef nonnull align 1 dereferenceable(1) %arrayinit.element89.i) #21
  br label %ehcleanup223.i

invoke.cont92.i:                                  ; preds = %invoke.cont.i431
  call void @llvm.lifetime.end.p0(i64 8, ptr nonnull %__guard.i425)
  %arrayinit.element93.i = getelementptr inbounds %"class.std::__cxx11::basic_string", ptr %ref.tmp.i46, i64 24
  call void @_ZNSaIcEC1Ev(ptr noundef nonnull align 1 dereferenceable(1) %ref.tmp94.i) #21
  %call.i238.i = invoke noundef ptr @_ZNSt7__cxx1112basic_stringIcSt11char_traitsIcESaIcEE13_M_local_dataEv(ptr noundef nonnull align 8 dereferenceable(32) %arrayinit.element93.i)
          to label %call.i.noexc237.i unwind label %lpad95.i

call.i.noexc237.i:                                ; preds = %invoke.cont92.i
  invoke void @_ZNSt7__cxx1112basic_stringIcSt11char_traitsIcESaIcEE12_Alloc_hiderC1EPcRKS3_(ptr noundef nonnull align 8 dereferenceable(8) %arrayinit.element93.i, ptr noundef %call.i238.i, ptr noundef nonnull align 1 dereferenceable(1) %ref.tmp94.i)
          to label %.noexc239.i unwind label %lpad95.i

.noexc239.i:                                      ; preds = %call.i.noexc237.i
  call void @llvm.lifetime.start.p0(i64 8, ptr nonnull %__guard.i415)
  %call.i.i416 = invoke noundef ptr @_ZNSt7__cxx1112basic_stringIcSt11char_traitsIcESaIcEE13_M_local_dataEv(ptr noundef nonnull align 8 dereferenceable(32) %arrayinit.element93.i)
          to label %if.end.i418 unwind label %terminate.lpad.i.i417

terminate.lpad.i.i417:                            ; preds = %.noexc239.i
  %114 = landingpad { ptr, i32 }
          catch ptr null
  %115 = extractvalue { ptr, i32 } %114, 0
  call void @__clang_call_terminate(ptr %115) #24
  unreachable

if.end.i418:                                      ; preds = %.noexc239.i
  store ptr %arrayinit.element93.i, ptr %__guard.i415, align 8
  %call4.i419 = invoke noundef ptr @_ZNKSt7__cxx1112basic_stringIcSt11char_traitsIcESaIcEE7_M_dataEv(ptr noundef nonnull align 8 dereferenceable(32) %arrayinit.element93.i)
          to label %invoke.cont.i421 unwind label %lpad.i420

invoke.cont.i421:                                 ; preds = %if.end.i418
  call void @_ZNSt7__cxx1112basic_stringIcSt11char_traitsIcESaIcEE13_S_copy_charsEPcPKcS7_(ptr noundef %call4.i419, ptr noundef nonnull @.str.32, ptr noundef nonnull getelementptr inbounds ([5 x i8], ptr @.str.32, i64 0, i64 4)) #21
  store ptr null, ptr %__guard.i415, align 8
  invoke void @_ZNSt7__cxx1112basic_stringIcSt11char_traitsIcESaIcEE13_M_set_lengthEm(ptr noundef nonnull align 8 dereferenceable(32) %arrayinit.element93.i, i64 noundef 4)
          to label %invoke.cont96.i unwind label %lpad.i420

lpad.i420:                                        ; preds = %invoke.cont.i421, %if.end.i418
  %116 = landingpad { ptr, i32 }
          cleanup
  call void @_ZZNSt7__cxx1112basic_stringIcSt11char_traitsIcESaIcEE12_M_constructIPKcEEvT_S8_St20forward_iterator_tagEN6_GuardD2Ev(ptr noundef nonnull align 8 dereferenceable(8) %__guard.i415) #21
  call void @_ZNSaIcED2Ev(ptr noundef nonnull align 1 dereferenceable(1) %arrayinit.element93.i) #21
  br label %ehcleanup222.i

invoke.cont96.i:                                  ; preds = %invoke.cont.i421
  call void @llvm.lifetime.end.p0(i64 8, ptr nonnull %__guard.i415)
  %arrayinit.element97.i = getelementptr inbounds %"class.std::__cxx11::basic_string", ptr %ref.tmp.i46, i64 25
  call void @_ZNSaIcEC1Ev(ptr noundef nonnull align 1 dereferenceable(1) %ref.tmp98.i) #21
  %call.i246.i = invoke noundef ptr @_ZNSt7__cxx1112basic_stringIcSt11char_traitsIcESaIcEE13_M_local_dataEv(ptr noundef nonnull align 8 dereferenceable(32) %arrayinit.element97.i)
          to label %call.i.noexc245.i unwind label %lpad99.i

call.i.noexc245.i:                                ; preds = %invoke.cont96.i
  invoke void @_ZNSt7__cxx1112basic_stringIcSt11char_traitsIcESaIcEE12_Alloc_hiderC1EPcRKS3_(ptr noundef nonnull align 8 dereferenceable(8) %arrayinit.element97.i, ptr noundef %call.i246.i, ptr noundef nonnull align 1 dereferenceable(1) %ref.tmp98.i)
          to label %.noexc247.i unwind label %lpad99.i

.noexc247.i:                                      ; preds = %call.i.noexc245.i
  call void @llvm.lifetime.start.p0(i64 8, ptr nonnull %__guard.i405)
  %call.i.i406 = invoke noundef ptr @_ZNSt7__cxx1112basic_stringIcSt11char_traitsIcESaIcEE13_M_local_dataEv(ptr noundef nonnull align 8 dereferenceable(32) %arrayinit.element97.i)
          to label %if.end.i408 unwind label %terminate.lpad.i.i407

terminate.lpad.i.i407:                            ; preds = %.noexc247.i
  %117 = landingpad { ptr, i32 }
          catch ptr null
  %118 = extractvalue { ptr, i32 } %117, 0
  call void @__clang_call_terminate(ptr %118) #24
  unreachable

if.end.i408:                                      ; preds = %.noexc247.i
  store ptr %arrayinit.element97.i, ptr %__guard.i405, align 8
  %call4.i409 = invoke noundef ptr @_ZNKSt7__cxx1112basic_stringIcSt11char_traitsIcESaIcEE7_M_dataEv(ptr noundef nonnull align 8 dereferenceable(32) %arrayinit.element97.i)
          to label %invoke.cont.i411 unwind label %lpad.i410

invoke.cont.i411:                                 ; preds = %if.end.i408
  call void @_ZNSt7__cxx1112basic_stringIcSt11char_traitsIcESaIcEE13_S_copy_charsEPcPKcS7_(ptr noundef %call4.i409, ptr noundef nonnull @.str.33, ptr noundef nonnull getelementptr inbounds ([7 x i8], ptr @.str.33, i64 0, i64 6)) #21
  store ptr null, ptr %__guard.i405, align 8
  invoke void @_ZNSt7__cxx1112basic_stringIcSt11char_traitsIcESaIcEE13_M_set_lengthEm(ptr noundef nonnull align 8 dereferenceable(32) %arrayinit.element97.i, i64 noundef 6)
          to label %invoke.cont100.i unwind label %lpad.i410

lpad.i410:                                        ; preds = %invoke.cont.i411, %if.end.i408
  %119 = landingpad { ptr, i32 }
          cleanup
  call void @_ZZNSt7__cxx1112basic_stringIcSt11char_traitsIcESaIcEE12_M_constructIPKcEEvT_S8_St20forward_iterator_tagEN6_GuardD2Ev(ptr noundef nonnull align 8 dereferenceable(8) %__guard.i405) #21
  call void @_ZNSaIcED2Ev(ptr noundef nonnull align 1 dereferenceable(1) %arrayinit.element97.i) #21
  br label %ehcleanup221.i

invoke.cont100.i:                                 ; preds = %invoke.cont.i411
  call void @llvm.lifetime.end.p0(i64 8, ptr nonnull %__guard.i405)
  %arrayinit.element101.i = getelementptr inbounds %"class.std::__cxx11::basic_string", ptr %ref.tmp.i46, i64 26
  call void @_ZNSaIcEC1Ev(ptr noundef nonnull align 1 dereferenceable(1) %ref.tmp102.i) #21
  %call.i254.i = invoke noundef ptr @_ZNSt7__cxx1112basic_stringIcSt11char_traitsIcESaIcEE13_M_local_dataEv(ptr noundef nonnull align 8 dereferenceable(32) %arrayinit.element101.i)
          to label %call.i.noexc253.i unwind label %lpad103.i

call.i.noexc253.i:                                ; preds = %invoke.cont100.i
